ARM GAS  /var/folders/lp/x54gwt890xv47sdkqj1k04q40000gn/T//ccSrQmHZ.s 			page 1


   1              		.cpu cortex-m4
   2              		.arch armv7e-m
   3              		.fpu fpv4-sp-d16
   4              		.eabi_attribute 27, 1
   5              		.eabi_attribute 28, 1
   6              		.eabi_attribute 20, 1
   7              		.eabi_attribute 21, 1
   8              		.eabi_attribute 23, 3
   9              		.eabi_attribute 24, 1
  10              		.eabi_attribute 25, 1
  11              		.eabi_attribute 26, 1
  12              		.eabi_attribute 30, 1
  13              		.eabi_attribute 34, 1
  14              		.eabi_attribute 18, 4
  15              		.file	"i2s.c"
  16              		.text
  17              		.section	.text.MX_I2S3_Init,"ax",%progbits
  18              		.align	1
  19              		.global	MX_I2S3_Init
  20              		.syntax unified
  21              		.thumb
  22              		.thumb_func
  24              	MX_I2S3_Init:
  25              		@ args = 0, pretend = 0, frame = 0
  26              		@ frame_needed = 0, uses_anonymous_args = 0
  27 0000 08B5     		push	{r3, lr}
  28 0002 0B48     		ldr	r0, .L5
  29 0004 0B4B     		ldr	r3, .L5+4
  30 0006 0360     		str	r3, [r0]
  31 0008 4FF40072 		mov	r2, #512
  32 000c 4260     		str	r2, [r0, #4]
  33 000e 0023     		movs	r3, #0
  34 0010 8360     		str	r3, [r0, #8]
  35 0012 C360     		str	r3, [r0, #12]
  36 0014 0261     		str	r2, [r0, #16]
  37 0016 084A     		ldr	r2, .L5+8
  38 0018 4261     		str	r2, [r0, #20]
  39 001a 8361     		str	r3, [r0, #24]
  40 001c C361     		str	r3, [r0, #28]
  41 001e 0362     		str	r3, [r0, #32]
  42 0020 FFF7FEFF 		bl	HAL_I2S_Init
  43 0024 00B9     		cbnz	r0, .L4
  44              	.L1:
  45 0026 08BD     		pop	{r3, pc}
  46              	.L4:
  47 0028 FFF7FEFF 		bl	Error_Handler
  48 002c FBE7     		b	.L1
  49              	.L6:
  50 002e 00BF     		.align	2
  51              	.L5:
  52 0030 00000000 		.word	hi2s3
  53 0034 003C0040 		.word	1073757184
  54 0038 00770100 		.word	96000
  56              		.section	.text.HAL_I2S_MspInit,"ax",%progbits
  57              		.align	1
  58              		.global	HAL_I2S_MspInit
  59              		.syntax unified
ARM GAS  /var/folders/lp/x54gwt890xv47sdkqj1k04q40000gn/T//ccSrQmHZ.s 			page 2


  60              		.thumb
  61              		.thumb_func
  63              	HAL_I2S_MspInit:
  64              		@ args = 0, pretend = 0, frame = 48
  65              		@ frame_needed = 0, uses_anonymous_args = 0
  66 0000 70B5     		push	{r4, r5, r6, lr}
  67 0002 8CB0     		sub	sp, sp, #48
  68 0004 0023     		movs	r3, #0
  69 0006 0793     		str	r3, [sp, #28]
  70 0008 0893     		str	r3, [sp, #32]
  71 000a 0993     		str	r3, [sp, #36]
  72 000c 0A93     		str	r3, [sp, #40]
  73 000e 0B93     		str	r3, [sp, #44]
  74 0010 0393     		str	r3, [sp, #12]
  75 0012 0493     		str	r3, [sp, #16]
  76 0014 0593     		str	r3, [sp, #20]
  77 0016 0693     		str	r3, [sp, #24]
  78 0018 0268     		ldr	r2, [r0]
  79 001a 254B     		ldr	r3, .L13
  80 001c 9A42     		cmp	r2, r3
  81 001e 01D0     		beq	.L11
  82              	.L7:
  83 0020 0CB0     		add	sp, sp, #48
  84              		@ sp needed
  85 0022 70BD     		pop	{r4, r5, r6, pc}
  86              	.L11:
  87 0024 0123     		movs	r3, #1
  88 0026 0393     		str	r3, [sp, #12]
  89 0028 C023     		movs	r3, #192
  90 002a 0493     		str	r3, [sp, #16]
  91 002c 0223     		movs	r3, #2
  92 002e 0593     		str	r3, [sp, #20]
  93 0030 03A8     		add	r0, sp, #12
  94 0032 FFF7FEFF 		bl	HAL_RCCEx_PeriphCLKConfig
  95 0036 0028     		cmp	r0, #0
  96 0038 37D1     		bne	.L12
  97              	.L9:
  98 003a 0024     		movs	r4, #0
  99 003c 0094     		str	r4, [sp]
 100 003e 1D4B     		ldr	r3, .L13+4
 101 0040 1A6C     		ldr	r2, [r3, #64]
 102 0042 42F40042 		orr	r2, r2, #32768
 103 0046 1A64     		str	r2, [r3, #64]
 104 0048 1A6C     		ldr	r2, [r3, #64]
 105 004a 02F40042 		and	r2, r2, #32768
 106 004e 0092     		str	r2, [sp]
 107 0050 009A     		ldr	r2, [sp]
 108 0052 0194     		str	r4, [sp, #4]
 109 0054 1A6B     		ldr	r2, [r3, #48]
 110 0056 42F00102 		orr	r2, r2, #1
 111 005a 1A63     		str	r2, [r3, #48]
 112 005c 1A6B     		ldr	r2, [r3, #48]
 113 005e 02F00102 		and	r2, r2, #1
 114 0062 0192     		str	r2, [sp, #4]
 115 0064 019A     		ldr	r2, [sp, #4]
 116 0066 0294     		str	r4, [sp, #8]
 117 0068 1A6B     		ldr	r2, [r3, #48]
ARM GAS  /var/folders/lp/x54gwt890xv47sdkqj1k04q40000gn/T//ccSrQmHZ.s 			page 3


 118 006a 42F00402 		orr	r2, r2, #4
 119 006e 1A63     		str	r2, [r3, #48]
 120 0070 1B6B     		ldr	r3, [r3, #48]
 121 0072 03F00403 		and	r3, r3, #4
 122 0076 0293     		str	r3, [sp, #8]
 123 0078 029B     		ldr	r3, [sp, #8]
 124 007a 1023     		movs	r3, #16
 125 007c 0793     		str	r3, [sp, #28]
 126 007e 0226     		movs	r6, #2
 127 0080 0896     		str	r6, [sp, #32]
 128 0082 0994     		str	r4, [sp, #36]
 129 0084 0A94     		str	r4, [sp, #40]
 130 0086 0625     		movs	r5, #6
 131 0088 0B95     		str	r5, [sp, #44]
 132 008a 07A9     		add	r1, sp, #28
 133 008c 0A48     		ldr	r0, .L13+8
 134 008e FFF7FEFF 		bl	HAL_GPIO_Init
 135 0092 4FF4A453 		mov	r3, #5248
 136 0096 0793     		str	r3, [sp, #28]
 137 0098 0896     		str	r6, [sp, #32]
 138 009a 0994     		str	r4, [sp, #36]
 139 009c 0A94     		str	r4, [sp, #40]
 140 009e 0B95     		str	r5, [sp, #44]
 141 00a0 07A9     		add	r1, sp, #28
 142 00a2 0648     		ldr	r0, .L13+12
 143 00a4 FFF7FEFF 		bl	HAL_GPIO_Init
 144 00a8 BAE7     		b	.L7
 145              	.L12:
 146 00aa FFF7FEFF 		bl	Error_Handler
 147 00ae C4E7     		b	.L9
 148              	.L14:
 149              		.align	2
 150              	.L13:
 151 00b0 003C0040 		.word	1073757184
 152 00b4 00380240 		.word	1073887232
 153 00b8 00000240 		.word	1073872896
 154 00bc 00080240 		.word	1073874944
 156              		.section	.text.HAL_I2S_MspDeInit,"ax",%progbits
 157              		.align	1
 158              		.global	HAL_I2S_MspDeInit
 159              		.syntax unified
 160              		.thumb
 161              		.thumb_func
 163              	HAL_I2S_MspDeInit:
 164              		@ args = 0, pretend = 0, frame = 0
 165              		@ frame_needed = 0, uses_anonymous_args = 0
 166 0000 08B5     		push	{r3, lr}
 167 0002 0268     		ldr	r2, [r0]
 168 0004 094B     		ldr	r3, .L19
 169 0006 9A42     		cmp	r2, r3
 170 0008 00D0     		beq	.L18
 171              	.L15:
 172 000a 08BD     		pop	{r3, pc}
 173              	.L18:
 174 000c 084A     		ldr	r2, .L19+4
 175 000e 136C     		ldr	r3, [r2, #64]
 176 0010 23F40043 		bic	r3, r3, #32768
ARM GAS  /var/folders/lp/x54gwt890xv47sdkqj1k04q40000gn/T//ccSrQmHZ.s 			page 4


 177 0014 1364     		str	r3, [r2, #64]
 178 0016 1021     		movs	r1, #16
 179 0018 0648     		ldr	r0, .L19+8
 180 001a FFF7FEFF 		bl	HAL_GPIO_DeInit
 181 001e 4FF4A451 		mov	r1, #5248
 182 0022 0548     		ldr	r0, .L19+12
 183 0024 FFF7FEFF 		bl	HAL_GPIO_DeInit
 184 0028 EFE7     		b	.L15
 185              	.L20:
 186 002a 00BF     		.align	2
 187              	.L19:
 188 002c 003C0040 		.word	1073757184
 189 0030 00380240 		.word	1073887232
 190 0034 00000240 		.word	1073872896
 191 0038 00080240 		.word	1073874944
 193              		.global	hi2s3
 194              		.section	.bss.hi2s3,"aw",%nobits
 195              		.align	2
 198              	hi2s3:
 199 0000 00000000 		.space	72
 199      00000000 
 199      00000000 
 199      00000000 
 199      00000000 
 200              		.ident	"GCC: (xPack GNU Arm Embedded GCC arm64) 13.3.1 20240614"
ARM GAS  /var/folders/lp/x54gwt890xv47sdkqj1k04q40000gn/T//ccSrQmHZ.s 			page 5

