ARM GAS  /var/folders/lp/x54gwt890xv47sdkqj1k04q40000gn/T//ccfUlg4R.s 			page 1


   1              		.cpu cortex-m4
   2              		.arch armv7e-m
   3              		.fpu fpv4-sp-d16
   4              		.eabi_attribute 27, 1
   5              		.eabi_attribute 28, 1
   6              		.eabi_attribute 20, 1
   7              		.eabi_attribute 21, 1
   8              		.eabi_attribute 23, 3
   9              		.eabi_attribute 24, 1
  10              		.eabi_attribute 25, 1
  11              		.eabi_attribute 26, 1
  12              		.eabi_attribute 30, 1
  13              		.eabi_attribute 34, 1
  14              		.eabi_attribute 18, 4
  15              		.file	"lv_animimg.c"
  16              		.text
  17              		.section	.text.lv_animimg_constructor,"ax",%progbits
  18              		.align	1
  19              		.syntax unified
  20              		.thumb
  21              		.thumb_func
  23              	lv_animimg_constructor:
  24              		@ args = 0, pretend = 0, frame = 0
  25              		@ frame_needed = 0, uses_anonymous_args = 0
  26 0000 38B5     		push	{r3, r4, r5, lr}
  27 0002 0C46     		mov	r4, r1
  28 0004 0025     		movs	r5, #0
  29 0006 C1F88050 		str	r5, [r1, #128]
  30 000a FF23     		movs	r3, #255
  31 000c 81F88430 		strb	r3, [r1, #132]
  32 0010 01F13C00 		add	r0, r1, #60
  33 0014 FFF7FEFF 		bl	lv_anim_init
  34 0018 E463     		str	r4, [r4, #60]
  35 001a 1E23     		movs	r3, #30
  36 001c A366     		str	r3, [r4, #104]
  37 001e 054B     		ldr	r3, .L3
  38 0020 2364     		str	r3, [r4, #64]
  39 0022 E565     		str	r5, [r4, #92]
  40 0024 2566     		str	r5, [r4, #96]
  41 0026 0123     		movs	r3, #1
  42 0028 6366     		str	r3, [r4, #100]
  43 002a 4FF6FF73 		movw	r3, #65535
  44 002e A4F87C30 		strh	r3, [r4, #124]	@ movhi
  45 0032 38BD     		pop	{r3, r4, r5, pc}
  46              	.L4:
  47              		.align	2
  48              	.L3:
  49 0034 00000000 		.word	index_change
  51              		.section	.text.index_change,"ax",%progbits
  52              		.align	1
  53              		.syntax unified
  54              		.thumb
  55              		.thumb_func
  57              	index_change:
  58              		@ args = 0, pretend = 0, frame = 0
  59              		@ frame_needed = 0, uses_anonymous_args = 0
  60 0000 08B5     		push	{r3, lr}
ARM GAS  /var/folders/lp/x54gwt890xv47sdkqj1k04q40000gn/T//ccfUlg4R.s 			page 2


  61 0002 90F98420 		ldrsb	r2, [r0, #132]
  62 0006 91FBF2FC 		sdiv	ip, r1, r2
  63 000a 02FB1C11 		mls	r1, r2, ip, r1
  64 000e 09B2     		sxth	r1, r1
  65 0010 D0F88030 		ldr	r3, [r0, #128]
  66 0014 53F82110 		ldr	r1, [r3, r1, lsl #2]
  67 0018 FFF7FEFF 		bl	lv_img_set_src
  68 001c 08BD     		pop	{r3, pc}
  70              		.section	.text.lv_animimg_create,"ax",%progbits
  71              		.align	1
  72              		.global	lv_animimg_create
  73              		.syntax unified
  74              		.thumb
  75              		.thumb_func
  77              	lv_animimg_create:
  78              		@ args = 0, pretend = 0, frame = 0
  79              		@ frame_needed = 0, uses_anonymous_args = 0
  80 0000 10B5     		push	{r4, lr}
  81 0002 0146     		mov	r1, r0
  82 0004 0348     		ldr	r0, .L9
  83 0006 FFF7FEFF 		bl	lv_obj_class_create_obj
  84 000a 0446     		mov	r4, r0
  85 000c FFF7FEFF 		bl	lv_obj_class_init_obj
  86 0010 2046     		mov	r0, r4
  87 0012 10BD     		pop	{r4, pc}
  88              	.L10:
  89              		.align	2
  90              	.L9:
  91 0014 00000000 		.word	lv_animimg_class
  93              		.section	.text.lv_animimg_set_src,"ax",%progbits
  94              		.align	1
  95              		.global	lv_animimg_set_src
  96              		.syntax unified
  97              		.thumb
  98              		.thumb_func
 100              	lv_animimg_set_src:
 101              		@ args = 0, pretend = 0, frame = 0
 102              		@ frame_needed = 0, uses_anonymous_args = 0
 103              		@ link register save eliminated.
 104 0000 C0F88010 		str	r1, [r0, #128]
 105 0004 80F88420 		strb	r2, [r0, #132]
 106 0008 0023     		movs	r3, #0
 107 000a C365     		str	r3, [r0, #92]
 108 000c 0366     		str	r3, [r0, #96]
 109 000e 4266     		str	r2, [r0, #100]
 110 0010 7047     		bx	lr
 112              		.section	.text.lv_animimg_start,"ax",%progbits
 113              		.align	1
 114              		.global	lv_animimg_start
 115              		.syntax unified
 116              		.thumb
 117              		.thumb_func
 119              	lv_animimg_start:
 120              		@ args = 0, pretend = 0, frame = 0
 121              		@ frame_needed = 0, uses_anonymous_args = 0
 122 0000 08B5     		push	{r3, lr}
 123 0002 3C30     		adds	r0, r0, #60
ARM GAS  /var/folders/lp/x54gwt890xv47sdkqj1k04q40000gn/T//ccfUlg4R.s 			page 3


 124 0004 FFF7FEFF 		bl	lv_anim_start
 125 0008 08BD     		pop	{r3, pc}
 127              		.section	.text.lv_animimg_set_duration,"ax",%progbits
 128              		.align	1
 129              		.global	lv_animimg_set_duration
 130              		.syntax unified
 131              		.thumb
 132              		.thumb_func
 134              	lv_animimg_set_duration:
 135              		@ args = 0, pretend = 0, frame = 0
 136              		@ frame_needed = 0, uses_anonymous_args = 0
 137              		@ link register save eliminated.
 138 0000 8166     		str	r1, [r0, #104]
 139 0002 0167     		str	r1, [r0, #112]
 140 0004 7047     		bx	lr
 142              		.section	.text.lv_animimg_set_repeat_count,"ax",%progbits
 143              		.align	1
 144              		.global	lv_animimg_set_repeat_count
 145              		.syntax unified
 146              		.thumb
 147              		.thumb_func
 149              	lv_animimg_set_repeat_count:
 150              		@ args = 0, pretend = 0, frame = 0
 151              		@ frame_needed = 0, uses_anonymous_args = 0
 152              		@ link register save eliminated.
 153 0000 A0F87C10 		strh	r1, [r0, #124]	@ movhi
 154 0004 7047     		bx	lr
 156              		.global	lv_animimg_class
 157              		.section	.rodata.lv_animimg_class,"a"
 158              		.align	2
 161              	lv_animimg_class:
 162 0000 00000000 		.word	lv_img_class
 163 0004 00000000 		.word	lv_animimg_constructor
 164 0008 00000000 		.space	16
 164      00000000 
 164      00000000 
 164      00000000 
 165 0018 80       		.byte	128
 166 0019 08       		.byte	8
 167 001a 00       		.byte	0
 168 001b 00       		.space	1
 169              		.ident	"GCC: (xPack GNU Arm Embedded GCC arm64) 13.3.1 20240614"
ARM GAS  /var/folders/lp/x54gwt890xv47sdkqj1k04q40000gn/T//ccfUlg4R.s 			page 4

