ARM GAS  /var/folders/lp/x54gwt890xv47sdkqj1k04q40000gn/T//cc8hkDAB.s 			page 1


   1              		.cpu cortex-m4
   2              		.arch armv7e-m
   3              		.fpu fpv4-sp-d16
   4              		.eabi_attribute 27, 1
   5              		.eabi_attribute 28, 1
   6              		.eabi_attribute 20, 1
   7              		.eabi_attribute 21, 1
   8              		.eabi_attribute 23, 3
   9              		.eabi_attribute 24, 1
  10              		.eabi_attribute 25, 1
  11              		.eabi_attribute 26, 1
  12              		.eabi_attribute 30, 1
  13              		.eabi_attribute 34, 1
  14              		.eabi_attribute 18, 4
  15              		.file	"lv_anim_timeline.c"
  16              		.text
  17              		.section	.text.lv_anim_timeline_virtual_exec_cb,"ax",%progbits
  18              		.align	1
  19              		.syntax unified
  20              		.thumb
  21              		.thumb_func
  23              	lv_anim_timeline_virtual_exec_cb:
  24              		@ args = 0, pretend = 0, frame = 0
  25              		@ frame_needed = 0, uses_anonymous_args = 0
  26              		@ link register save eliminated.
  27 0000 7047     		bx	lr
  29              		.section	.text.lv_anim_timeline_create,"ax",%progbits
  30              		.align	1
  31              		.global	lv_anim_timeline_create
  32              		.syntax unified
  33              		.thumb
  34              		.thumb_func
  36              	lv_anim_timeline_create:
  37              		@ args = 0, pretend = 0, frame = 0
  38              		@ frame_needed = 0, uses_anonymous_args = 0
  39 0000 10B5     		push	{r4, lr}
  40 0002 0C20     		movs	r0, #12
  41 0004 FFF7FEFF 		bl	lv_mem_alloc
  42 0008 28B1     		cbz	r0, .L4
  43 000a 0446     		mov	r4, r0
  44 000c 0C21     		movs	r1, #12
  45 000e FFF7FEFF 		bl	lv_memset_00
  46 0012 2046     		mov	r0, r4
  47 0014 10BD     		pop	{r4, pc}
  48              	.L4:
  49 0016 FEE7     		b	.L4
  51              		.section	.text.lv_anim_timeline_add,"ax",%progbits
  52              		.align	1
  53              		.global	lv_anim_timeline_add
  54              		.syntax unified
  55              		.thumb
  56              		.thumb_func
  58              	lv_anim_timeline_add:
  59              		@ args = 0, pretend = 0, frame = 0
  60              		@ frame_needed = 0, uses_anonymous_args = 0
  61 0000 18B3     		cbz	r0, .L8
  62 0002 70B5     		push	{r4, r5, r6, lr}
ARM GAS  /var/folders/lp/x54gwt890xv47sdkqj1k04q40000gn/T//cc8hkDAB.s 			page 2


  63 0004 0E46     		mov	r6, r1
  64 0006 1546     		mov	r5, r2
  65 0008 0446     		mov	r4, r0
  66 000a 4368     		ldr	r3, [r0, #4]
  67 000c 0133     		adds	r3, r3, #1
  68 000e 4360     		str	r3, [r0, #4]
  69 0010 03EBC303 		add	r3, r3, r3, lsl #3
  70 0014 D900     		lsls	r1, r3, #3
  71 0016 0068     		ldr	r0, [r0]
  72 0018 FFF7FEFF 		bl	lv_mem_realloc
  73 001c 2060     		str	r0, [r4]
  74 001e A8B1     		cbz	r0, .L10
  75 0020 6368     		ldr	r3, [r4, #4]
  76 0022 03EBC303 		add	r3, r3, r3, lsl #3
  77 0026 DB00     		lsls	r3, r3, #3
  78 0028 483B     		subs	r3, r3, #72
  79 002a 4422     		movs	r2, #68
  80 002c 2946     		mov	r1, r5
  81 002e 1844     		add	r0, r0, r3
  82 0030 FFF7FEFF 		bl	memcpy
  83 0034 2268     		ldr	r2, [r4]
  84 0036 6368     		ldr	r3, [r4, #4]
  85 0038 03EBC303 		add	r3, r3, r3, lsl #3
  86 003c DB00     		lsls	r3, r3, #3
  87 003e 483B     		subs	r3, r3, #72
  88 0040 1A44     		add	r2, r2, r3
  89 0042 5664     		str	r6, [r2, #68]
  90 0044 2B68     		ldr	r3, [r5]
  91 0046 13B1     		cbz	r3, .L14
  92              	.L6:
  93 0048 70BD     		pop	{r4, r5, r6, pc}
  94              	.L8:
  95 004a FEE7     		b	.L8
  96              	.L10:
  97 004c FEE7     		b	.L10
  98              	.L14:
  99 004e 6B68     		ldr	r3, [r5, #4]
 100 0050 002B     		cmp	r3, #0
 101 0052 F9D1     		bne	.L6
 102 0054 2268     		ldr	r2, [r4]
 103 0056 6368     		ldr	r3, [r4, #4]
 104 0058 03EBC303 		add	r3, r3, r3, lsl #3
 105 005c DB00     		lsls	r3, r3, #3
 106 005e 483B     		subs	r3, r3, #72
 107 0060 D450     		str	r4, [r2, r3]
 108 0062 2268     		ldr	r2, [r4]
 109 0064 6368     		ldr	r3, [r4, #4]
 110 0066 03EBC303 		add	r3, r3, r3, lsl #3
 111 006a DB00     		lsls	r3, r3, #3
 112 006c 483B     		subs	r3, r3, #72
 113 006e 1344     		add	r3, r3, r2
 114 0070 014A     		ldr	r2, .L15
 115 0072 5A60     		str	r2, [r3, #4]
 116 0074 E8E7     		b	.L6
 117              	.L16:
 118 0076 00BF     		.align	2
 119              	.L15:
ARM GAS  /var/folders/lp/x54gwt890xv47sdkqj1k04q40000gn/T//cc8hkDAB.s 			page 3


 120 0078 00000000 		.word	lv_anim_timeline_virtual_exec_cb
 122              		.section	.text.lv_anim_timeline_stop,"ax",%progbits
 123              		.align	1
 124              		.global	lv_anim_timeline_stop
 125              		.syntax unified
 126              		.thumb
 127              		.thumb_func
 129              	lv_anim_timeline_stop:
 130              		@ args = 0, pretend = 0, frame = 0
 131              		@ frame_needed = 0, uses_anonymous_args = 0
 132 0000 18B1     		cbz	r0, .L19
 133 0002 38B5     		push	{r3, r4, r5, lr}
 134 0004 0546     		mov	r5, r0
 135 0006 0024     		movs	r4, #0
 136 0008 0BE0     		b	.L18
 137              	.L19:
 138 000a FEE7     		b	.L19
 139              	.L20:
 140 000c 2B68     		ldr	r3, [r5]
 141 000e 04EBC402 		add	r2, r4, r4, lsl #3
 142 0012 03EBC201 		add	r1, r3, r2, lsl #3
 143 0016 4968     		ldr	r1, [r1, #4]
 144 0018 53F83200 		ldr	r0, [r3, r2, lsl #3]
 145 001c FFF7FEFF 		bl	lv_anim_del
 146 0020 0134     		adds	r4, r4, #1
 147              	.L18:
 148 0022 6B68     		ldr	r3, [r5, #4]
 149 0024 A342     		cmp	r3, r4
 150 0026 F1D8     		bhi	.L20
 151 0028 38BD     		pop	{r3, r4, r5, pc}
 153              		.section	.text.lv_anim_timeline_del,"ax",%progbits
 154              		.align	1
 155              		.global	lv_anim_timeline_del
 156              		.syntax unified
 157              		.thumb
 158              		.thumb_func
 160              	lv_anim_timeline_del:
 161              		@ args = 0, pretend = 0, frame = 0
 162              		@ frame_needed = 0, uses_anonymous_args = 0
 163 0000 50B1     		cbz	r0, .L26
 164 0002 10B5     		push	{r4, lr}
 165 0004 0446     		mov	r4, r0
 166 0006 FFF7FEFF 		bl	lv_anim_timeline_stop
 167 000a 2068     		ldr	r0, [r4]
 168 000c FFF7FEFF 		bl	lv_mem_free
 169 0010 2046     		mov	r0, r4
 170 0012 FFF7FEFF 		bl	lv_mem_free
 171 0016 10BD     		pop	{r4, pc}
 172              	.L26:
 173 0018 FEE7     		b	.L26
 175              		.section	.text.lv_anim_timeline_set_reverse,"ax",%progbits
 176              		.align	1
 177              		.global	lv_anim_timeline_set_reverse
 178              		.syntax unified
 179              		.thumb
 180              		.thumb_func
 182              	lv_anim_timeline_set_reverse:
ARM GAS  /var/folders/lp/x54gwt890xv47sdkqj1k04q40000gn/T//cc8hkDAB.s 			page 4


 183              		@ args = 0, pretend = 0, frame = 0
 184              		@ frame_needed = 0, uses_anonymous_args = 0
 185              		@ link register save eliminated.
 186 0000 08B1     		cbz	r0, .L31
 187 0002 0172     		strb	r1, [r0, #8]
 188 0004 7047     		bx	lr
 189              	.L31:
 190 0006 FEE7     		b	.L31
 192              		.section	.text.lv_anim_timeline_get_playtime,"ax",%progbits
 193              		.align	1
 194              		.global	lv_anim_timeline_get_playtime
 195              		.syntax unified
 196              		.thumb
 197              		.thumb_func
 199              	lv_anim_timeline_get_playtime:
 200              		@ args = 0, pretend = 0, frame = 0
 201              		@ frame_needed = 0, uses_anonymous_args = 0
 202 0000 20B1     		cbz	r0, .L34
 203 0002 F8B5     		push	{r3, r4, r5, r6, r7, lr}
 204 0004 0546     		mov	r5, r0
 205 0006 0024     		movs	r4, #0
 206 0008 2646     		mov	r6, r4
 207 000a 01E0     		b	.L33
 208              	.L34:
 209 000c FEE7     		b	.L34
 210              	.L36:
 211 000e 0134     		adds	r4, r4, #1
 212              	.L33:
 213 0010 6B68     		ldr	r3, [r5, #4]
 214 0012 A342     		cmp	r3, r4
 215 0014 13D9     		bls	.L32
 216 0016 2868     		ldr	r0, [r5]
 217 0018 04EBC403 		add	r3, r4, r4, lsl #3
 218 001c DF00     		lsls	r7, r3, #3
 219 001e 00EBC300 		add	r0, r0, r3, lsl #3
 220 0022 FFF7FEFF 		bl	lv_anim_get_playtime
 221 0026 B0F1FF3F 		cmp	r0, #-1
 222 002a 07D0     		beq	.L39
 223 002c 2B68     		ldr	r3, [r5]
 224 002e 3B44     		add	r3, r3, r7
 225 0030 5B6C     		ldr	r3, [r3, #68]
 226 0032 0344     		add	r3, r3, r0
 227 0034 9E42     		cmp	r6, r3
 228 0036 EAD2     		bcs	.L36
 229 0038 1E46     		mov	r6, r3
 230 003a E8E7     		b	.L36
 231              	.L39:
 232 003c 0646     		mov	r6, r0
 233              	.L32:
 234 003e 3046     		mov	r0, r6
 235 0040 F8BD     		pop	{r3, r4, r5, r6, r7, pc}
 237              		.section	.text.lv_anim_timeline_start,"ax",%progbits
 238              		.align	1
 239              		.global	lv_anim_timeline_start
 240              		.syntax unified
 241              		.thumb
 242              		.thumb_func
ARM GAS  /var/folders/lp/x54gwt890xv47sdkqj1k04q40000gn/T//cc8hkDAB.s 			page 5


 244              	lv_anim_timeline_start:
 245              		@ args = 0, pretend = 0, frame = 72
 246              		@ frame_needed = 0, uses_anonymous_args = 0
 247 0000 48B1     		cbz	r0, .L45
 248 0002 2DE9F041 		push	{r4, r5, r6, r7, r8, lr}
 249 0006 92B0     		sub	sp, sp, #72
 250 0008 0546     		mov	r5, r0
 251 000a FFF7FEFF 		bl	lv_anim_timeline_get_playtime
 252 000e 0746     		mov	r7, r0
 253 0010 2E7A     		ldrb	r6, [r5, #8]	@ zero_extendqisi2
 254 0012 0024     		movs	r4, #0
 255 0014 06E0     		b	.L46
 256              	.L45:
 257 0016 FEE7     		b	.L45
 258              	.L47:
 259 0018 5B42     		rsbs	r3, r3, #0
 260 001a 0D93     		str	r3, [sp, #52]
 261              	.L48:
 262 001c 01A8     		add	r0, sp, #4
 263 001e FFF7FEFF 		bl	lv_anim_start
 264 0022 0134     		adds	r4, r4, #1
 265              	.L46:
 266 0024 6B68     		ldr	r3, [r5, #4]
 267 0026 A342     		cmp	r3, r4
 268 0028 18D9     		bls	.L52
 269 002a 2968     		ldr	r1, [r5]
 270 002c 04EBC403 		add	r3, r4, r4, lsl #3
 271 0030 4FEAC308 		lsl	r8, r3, #3
 272 0034 4422     		movs	r2, #68
 273 0036 01EBC301 		add	r1, r1, r3, lsl #3
 274 003a 01A8     		add	r0, sp, #4
 275 003c FFF7FEFF 		bl	memcpy
 276 0040 2B68     		ldr	r3, [r5]
 277 0042 4344     		add	r3, r3, r8
 278 0044 5B6C     		ldr	r3, [r3, #68]
 279 0046 002E     		cmp	r6, #0
 280 0048 E6D0     		beq	.L47
 281 004a 099A     		ldr	r2, [sp, #36]
 282 004c 0B99     		ldr	r1, [sp, #44]
 283 004e 0991     		str	r1, [sp, #36]
 284 0050 0B92     		str	r2, [sp, #44]
 285 0052 0C9A     		ldr	r2, [sp, #48]
 286 0054 1A44     		add	r2, r2, r3
 287 0056 D21B     		subs	r2, r2, r7
 288 0058 0D92     		str	r2, [sp, #52]
 289 005a DFE7     		b	.L48
 290              	.L52:
 291 005c 3846     		mov	r0, r7
 292 005e 12B0     		add	sp, sp, #72
 293              		@ sp needed
 294 0060 BDE8F081 		pop	{r4, r5, r6, r7, r8, pc}
 296              		.section	.text.lv_anim_timeline_set_progress,"ax",%progbits
 297              		.align	1
 298              		.global	lv_anim_timeline_set_progress
 299              		.syntax unified
 300              		.thumb
 301              		.thumb_func
ARM GAS  /var/folders/lp/x54gwt890xv47sdkqj1k04q40000gn/T//cc8hkDAB.s 			page 6


 303              	lv_anim_timeline_set_progress:
 304              		@ args = 0, pretend = 0, frame = 0
 305              		@ frame_needed = 0, uses_anonymous_args = 0
 306 0000 68B1     		cbz	r0, .L55
 307 0002 2DE9F843 		push	{r3, r4, r5, r6, r7, r8, r9, lr}
 308 0006 0E46     		mov	r6, r1
 309 0008 8046     		mov	r8, r0
 310 000a FFF7FEFF 		bl	lv_anim_timeline_get_playtime
 311 000e 00FB06F6 		mul	r6, r0, r6
 312 0012 174B     		ldr	r3, .L65
 313 0014 A3FB0636 		umull	r3, r6, r3, r6
 314 0018 F60B     		lsrs	r6, r6, #15
 315 001a 0025     		movs	r5, #0
 316 001c 0FE0     		b	.L56
 317              	.L55:
 318 001e FEE7     		b	.L55
 319              	.L58:
 320 0020 E26A     		ldr	r2, [r4, #44]
 321 0022 1A44     		add	r2, r2, r3
 322 0024 B242     		cmp	r2, r6
 323 0026 1ED9     		bls	.L60
 324 0028 F31A     		subs	r3, r6, r3
 325 002a 2363     		str	r3, [r4, #48]
 326 002c E369     		ldr	r3, [r4, #28]
 327 002e 2046     		mov	r0, r4
 328 0030 9847     		blx	r3
 329 0032 0146     		mov	r1, r0
 330              	.L59:
 331 0034 6368     		ldr	r3, [r4, #4]
 332 0036 57F80900 		ldr	r0, [r7, r9]
 333 003a 9847     		blx	r3
 334              	.L57:
 335 003c 0135     		adds	r5, r5, #1
 336              	.L56:
 337 003e D8F80430 		ldr	r3, [r8, #4]
 338 0042 AB42     		cmp	r3, r5
 339 0044 11D9     		bls	.L64
 340 0046 D8F80070 		ldr	r7, [r8]
 341 004a 05EBC504 		add	r4, r5, r5, lsl #3
 342 004e 4FEAC409 		lsl	r9, r4, #3
 343 0052 07EBC404 		add	r4, r7, r4, lsl #3
 344 0056 6368     		ldr	r3, [r4, #4]
 345 0058 002B     		cmp	r3, #0
 346 005a EFD0     		beq	.L57
 347 005c 636C     		ldr	r3, [r4, #68]
 348 005e 9E42     		cmp	r6, r3
 349 0060 DED2     		bcs	.L58
 350 0062 216A     		ldr	r1, [r4, #32]
 351 0064 E6E7     		b	.L59
 352              	.L60:
 353 0066 A16A     		ldr	r1, [r4, #40]
 354 0068 E4E7     		b	.L59
 355              	.L64:
 356 006a BDE8F883 		pop	{r3, r4, r5, r6, r7, r8, r9, pc}
 357              	.L66:
 358 006e 00BF     		.align	2
 359              	.L65:
ARM GAS  /var/folders/lp/x54gwt890xv47sdkqj1k04q40000gn/T//cc8hkDAB.s 			page 7


 360 0070 01800080 		.word	-2147450879
 362              		.section	.text.lv_anim_timeline_get_reverse,"ax",%progbits
 363              		.align	1
 364              		.global	lv_anim_timeline_get_reverse
 365              		.syntax unified
 366              		.thumb
 367              		.thumb_func
 369              	lv_anim_timeline_get_reverse:
 370              		@ args = 0, pretend = 0, frame = 0
 371              		@ frame_needed = 0, uses_anonymous_args = 0
 372              		@ link register save eliminated.
 373 0000 08B1     		cbz	r0, .L69
 374 0002 007A     		ldrb	r0, [r0, #8]	@ zero_extendqisi2
 375 0004 7047     		bx	lr
 376              	.L69:
 377 0006 FEE7     		b	.L69
 379              		.ident	"GCC: (xPack GNU Arm Embedded GCC arm64) 13.3.1 20240614"
ARM GAS  /var/folders/lp/x54gwt890xv47sdkqj1k04q40000gn/T//cc8hkDAB.s 			page 8

