ARM GAS  /var/folders/lp/x54gwt890xv47sdkqj1k04q40000gn/T//ccHkQrvm.s 			page 1


   1              		.cpu cortex-m4
   2              		.arch armv7e-m
   3              		.fpu fpv4-sp-d16
   4              		.eabi_attribute 27, 1
   5              		.eabi_attribute 28, 1
   6              		.eabi_attribute 20, 1
   7              		.eabi_attribute 21, 1
   8              		.eabi_attribute 23, 3
   9              		.eabi_attribute 24, 1
  10              		.eabi_attribute 25, 1
  11              		.eabi_attribute 26, 1
  12              		.eabi_attribute 30, 1
  13              		.eabi_attribute 34, 1
  14              		.eabi_attribute 18, 4
  15              		.file	"lv_bar.c"
  16              		.text
  17              		.section	.text.lv_area_get_width,"ax",%progbits
  18              		.align	1
  19              		.syntax unified
  20              		.thumb
  21              		.thumb_func
  23              	lv_area_get_width:
  24              		@ args = 0, pretend = 0, frame = 0
  25              		@ frame_needed = 0, uses_anonymous_args = 0
  26              		@ link register save eliminated.
  27 0000 8388     		ldrh	r3, [r0, #4]
  28 0002 0288     		ldrh	r2, [r0]
  29 0004 981A     		subs	r0, r3, r2
  30 0006 80B2     		uxth	r0, r0
  31 0008 0130     		adds	r0, r0, #1
  32 000a 00B2     		sxth	r0, r0
  33 000c 7047     		bx	lr
  35              		.section	.text.lv_area_get_height,"ax",%progbits
  36              		.align	1
  37              		.syntax unified
  38              		.thumb
  39              		.thumb_func
  41              	lv_area_get_height:
  42              		@ args = 0, pretend = 0, frame = 0
  43              		@ frame_needed = 0, uses_anonymous_args = 0
  44              		@ link register save eliminated.
  45 0000 C388     		ldrh	r3, [r0, #6]
  46 0002 4288     		ldrh	r2, [r0, #2]
  47 0004 981A     		subs	r0, r3, r2
  48 0006 80B2     		uxth	r0, r0
  49 0008 0130     		adds	r0, r0, #1
  50 000a 00B2     		sxth	r0, r0
  51 000c 7047     		bx	lr
  53              		.section	.text.lv_bar_init_anim,"ax",%progbits
  54              		.align	1
  55              		.syntax unified
  56              		.thumb
  57              		.thumb_func
  59              	lv_bar_init_anim:
  60              		@ args = 0, pretend = 0, frame = 0
  61              		@ frame_needed = 0, uses_anonymous_args = 0
  62              		@ link register save eliminated.
ARM GAS  /var/folders/lp/x54gwt890xv47sdkqj1k04q40000gn/T//ccHkQrvm.s 			page 2


  63 0000 0860     		str	r0, [r1]
  64 0002 0023     		movs	r3, #0
  65 0004 4B60     		str	r3, [r1, #4]
  66 0006 8B60     		str	r3, [r1, #8]
  67 0008 4FF0FF33 		mov	r3, #-1
  68 000c CB60     		str	r3, [r1, #12]
  69 000e 7047     		bx	lr
  71              		.section	.text.draw_indic,"ax",%progbits
  72              		.align	1
  73              		.syntax unified
  74              		.thumb
  75              		.thumb_func
  77              	draw_indic:
  78              		@ args = 0, pretend = 0, frame = 320
  79              		@ frame_needed = 0, uses_anonymous_args = 0
  80 0000 2DE9F04F 		push	{r4, r5, r6, r7, r8, r9, r10, fp, lr}
  81 0004 D1B0     		sub	sp, sp, #324
  82 0006 0546     		mov	r5, r0
  83 0008 FFF7FEFF 		bl	lv_event_get_target
  84 000c 0446     		mov	r4, r0
  85 000e 2846     		mov	r0, r5
  86 0010 FFF7FEFF 		bl	lv_event_get_draw_ctx
  87 0014 0190     		str	r0, [sp, #4]
  88 0016 4EA9     		add	r1, sp, #312
  89 0018 2046     		mov	r0, r4
  90 001a FFF7FEFF 		bl	lv_obj_get_coords
  91 001e 6922     		movs	r2, #105
  92 0020 0021     		movs	r1, #0
  93 0022 2046     		mov	r0, r4
  94 0024 FFF7FEFF 		bl	lv_obj_get_style_prop
  95 0028 0546     		mov	r5, r0
  96 002a 6A22     		movs	r2, #106
  97 002c 0021     		movs	r1, #0
  98 002e 2046     		mov	r0, r4
  99 0030 FFF7FEFF 		bl	lv_obj_get_style_prop
 100 0034 BDF83811 		ldrh	r1, [sp, #312]
 101 0038 ABB2     		uxth	r3, r5
 102 003a CA1A     		subs	r2, r1, r3
 103 003c ADF83821 		strh	r2, [sp, #312]	@ movhi
 104 0040 BDF83C61 		ldrh	r6, [sp, #316]
 105 0044 1E44     		add	r6, r6, r3
 106 0046 B6B2     		uxth	r6, r6
 107 0048 ADF83C61 		strh	r6, [sp, #316]	@ movhi
 108 004c BDF83A21 		ldrh	r2, [sp, #314]
 109 0050 80B2     		uxth	r0, r0
 110 0052 151A     		subs	r5, r2, r0
 111 0054 ADF83A51 		strh	r5, [sp, #314]	@ movhi
 112 0058 BDF83E51 		ldrh	r5, [sp, #318]
 113 005c 0544     		add	r5, r5, r0
 114 005e ADB2     		uxth	r5, r5
 115 0060 ADF83E51 		strh	r5, [sp, #318]	@ movhi
 116 0064 5B1A     		subs	r3, r3, r1
 117 0066 1E44     		add	r6, r6, r3
 118 0068 B6B2     		uxth	r6, r6
 119 006a 0136     		adds	r6, r6, #1
 120 006c 33B2     		sxth	r3, r6
 121 006e 0093     		str	r3, [sp]
ARM GAS  /var/folders/lp/x54gwt890xv47sdkqj1k04q40000gn/T//ccHkQrvm.s 			page 3


 122 0070 801A     		subs	r0, r0, r2
 123 0072 0544     		add	r5, r5, r0
 124 0074 ADB2     		uxth	r5, r5
 125 0076 0135     		adds	r5, r5, #1
 126 0078 2DB2     		sxth	r5, r5
 127 007a E16A     		ldr	r1, [r4, #44]
 128 007c A26A     		ldr	r2, [r4, #40]
 129 007e A1EB0209 		sub	r9, r1, r2
 130 0082 94F85C30 		ldrb	r3, [r4, #92]	@ zero_extendqisi2
 131 0086 03F00303 		and	r3, r3, #3
 132 008a 012B     		cmp	r3, #1
 133 008c 00F0F081 		beq	.L42
 134 0090 0023     		movs	r3, #0
 135 0092 0693     		str	r3, [sp, #24]
 136              	.L5:
 137 0094 1222     		movs	r2, #18
 138 0096 0021     		movs	r1, #0
 139 0098 2046     		mov	r0, r4
 140 009a FFF7FEFF 		bl	lv_obj_get_style_prop
 141 009e 8246     		mov	r10, r0
 142 00a0 1322     		movs	r2, #19
 143 00a2 0021     		movs	r1, #0
 144 00a4 2046     		mov	r0, r4
 145 00a6 FFF7FEFF 		bl	lv_obj_get_style_prop
 146 00aa 8046     		mov	r8, r0
 147 00ac 1022     		movs	r2, #16
 148 00ae 0021     		movs	r1, #0
 149 00b0 2046     		mov	r0, r4
 150 00b2 FFF7FEFF 		bl	lv_obj_get_style_prop
 151 00b6 0746     		mov	r7, r0
 152 00b8 1122     		movs	r2, #17
 153 00ba 0021     		movs	r1, #0
 154 00bc 2046     		mov	r0, r4
 155 00be FFF7FEFF 		bl	lv_obj_get_style_prop
 156 00c2 BDF938C1 		ldrsh	ip, [sp, #312]
 157 00c6 A4F834C0 		strh	ip, [r4, #52]	@ movhi
 158 00ca BDF93A11 		ldrsh	r1, [sp, #314]
 159 00ce E186     		strh	r1, [r4, #54]	@ movhi
 160 00d0 BDF93C21 		ldrsh	r2, [sp, #316]
 161 00d4 2287     		strh	r2, [r4, #56]	@ movhi
 162 00d6 BDF93E31 		ldrsh	r3, [sp, #318]
 163 00da 6387     		strh	r3, [r4, #58]	@ movhi
 164 00dc 1FFA8AF6 		uxth	r6, r10
 165 00e0 0796     		str	r6, [sp, #28]
 166 00e2 16FA8CFC 		uxtah	ip, r6, ip
 167 00e6 1FFA8CFC 		uxth	ip, ip
 168 00ea A4F834C0 		strh	ip, [r4, #52]	@ movhi
 169 00ee 92B2     		uxth	r2, r2
 170 00f0 1FFA88F6 		uxth	r6, r8
 171 00f4 0296     		str	r6, [sp, #8]
 172 00f6 921B     		subs	r2, r2, r6
 173 00f8 92B2     		uxth	r2, r2
 174 00fa 2287     		strh	r2, [r4, #56]	@ movhi
 175 00fc BEB2     		uxth	r6, r7
 176 00fe 0396     		str	r6, [sp, #12]
 177 0100 16FA81F1 		uxtah	r1, r6, r1
 178 0104 89B2     		uxth	r1, r1
ARM GAS  /var/folders/lp/x54gwt890xv47sdkqj1k04q40000gn/T//ccHkQrvm.s 			page 4


 179 0106 E186     		strh	r1, [r4, #54]	@ movhi
 180 0108 9BB2     		uxth	r3, r3
 181 010a 80B2     		uxth	r0, r0
 182 010c 0490     		str	r0, [sp, #16]
 183 010e 1B1A     		subs	r3, r3, r0
 184 0110 9BB2     		uxth	r3, r3
 185 0112 6387     		strh	r3, [r4, #58]	@ movhi
 186 0114 0098     		ldr	r0, [sp]
 187 0116 8542     		cmp	r5, r0
 188 0118 00F3C281 		bgt	.L6
 189 011c 5B1A     		subs	r3, r3, r1
 190 011e 9BB2     		uxth	r3, r3
 191 0120 0133     		adds	r3, r3, #1
 192 0122 1BB2     		sxth	r3, r3
 193 0124 032B     		cmp	r3, #3
 194 0126 00F3BB81 		bgt	.L6
 195 012a E38A     		ldrh	r3, [r4, #22]
 196 012c 05EBD572 		add	r2, r5, r5, lsr #31
 197 0130 03EB6203 		add	r3, r3, r2, asr #1
 198 0134 9BB2     		uxth	r3, r3
 199 0136 9A1E     		subs	r2, r3, #2
 200 0138 E286     		strh	r2, [r4, #54]	@ movhi
 201 013a 0233     		adds	r3, r3, #2
 202 013c 6387     		strh	r3, [r4, #58]	@ movhi
 203              	.L7:
 204 013e 238F     		ldrh	r3, [r4, #56]
 205 0140 A28E     		ldrh	r2, [r4, #52]
 206 0142 9B1A     		subs	r3, r3, r2
 207 0144 9BB2     		uxth	r3, r3
 208 0146 0133     		adds	r3, r3, #1
 209 0148 19B2     		sxth	r1, r3
 210 014a 0891     		str	r1, [sp, #32]
 211 014c 638F     		ldrh	r3, [r4, #58]
 212 014e E28E     		ldrh	r2, [r4, #54]
 213 0150 9B1A     		subs	r3, r3, r2
 214 0152 9BB2     		uxth	r3, r3
 215 0154 0133     		adds	r3, r3, #1
 216 0156 1BB2     		sxth	r3, r3
 217 0158 1E46     		mov	r6, r3
 218 015a 009B     		ldr	r3, [sp]
 219 015c 9D42     		cmp	r5, r3
 220 015e 00F3B681 		bgt	.L40
 221 0162 8846     		mov	r8, r1
 222              	.L8:
 223 0164 009B     		ldr	r3, [sp]
 224 0166 9D42     		cmp	r5, r3
 225 0168 00F3B381 		bgt	.L9
 226 016c 04F1340B 		add	fp, r4, #52
 227 0170 04F1380A 		add	r10, r4, #56
 228 0174 C14B     		ldr	r3, .L48
 229 0176 0993     		str	r3, [sp, #36]
 230              	.L10:
 231 0178 A16D     		ldr	r1, [r4, #88]
 232 017a B1F1FF3F 		cmp	r1, #-1
 233 017e 00F0B181 		beq	.L11
 234 0182 226D     		ldr	r2, [r4, #80]
 235 0184 A76A     		ldr	r7, [r4, #40]
ARM GAS  /var/folders/lp/x54gwt890xv47sdkqj1k04q40000gn/T//ccHkQrvm.s 			page 5


 236 0186 D21B     		subs	r2, r2, r7
 237 0188 02FB08F2 		mul	r2, r2, r8
 238 018c 92FBF9F2 		sdiv	r2, r2, r9
 239 0190 10B2     		sxth	r0, r2
 240 0192 636D     		ldr	r3, [r4, #84]
 241 0194 DB1B     		subs	r3, r3, r7
 242 0196 03FB08F3 		mul	r3, r3, r8
 243 019a 93FBF9F3 		sdiv	r3, r3, r9
 244 019e 1BB2     		sxth	r3, r3
 245 01a0 1B1A     		subs	r3, r3, r0
 246 01a2 03FB01F1 		mul	r1, r3, r1
 247 01a6 0029     		cmp	r1, #0
 248 01a8 C0F29A81 		blt	.L43
 249              	.L12:
 250 01ac 02EB2122 		add	r2, r2, r1, asr #8
 251 01b0 13B2     		sxth	r3, r2
 252 01b2 0593     		str	r3, [sp, #20]
 253              	.L13:
 254 01b4 A26C     		ldr	r2, [r4, #72]
 255 01b6 B2F1FF3F 		cmp	r2, #-1
 256 01ba 00F09F81 		beq	.L14
 257 01be 276C     		ldr	r7, [r4, #64]
 258 01c0 A06A     		ldr	r0, [r4, #40]
 259 01c2 3F1A     		subs	r7, r7, r0
 260 01c4 07FB08F7 		mul	r7, r7, r8
 261 01c8 97FBF9F7 		sdiv	r7, r7, r9
 262 01cc 39B2     		sxth	r1, r7
 263 01ce 636C     		ldr	r3, [r4, #68]
 264 01d0 1B1A     		subs	r3, r3, r0
 265 01d2 03FB08F3 		mul	r3, r3, r8
 266 01d6 93FBF9F3 		sdiv	r3, r3, r9
 267 01da 1BB2     		sxth	r3, r3
 268 01dc 5B1A     		subs	r3, r3, r1
 269 01de 03FB02F2 		mul	r2, r3, r2
 270 01e2 002A     		cmp	r2, #0
 271 01e4 C0F28881 		blt	.L44
 272              	.L15:
 273 01e8 07EB2227 		add	r7, r7, r2, asr #8
 274 01ec 3FB2     		sxth	r7, r7
 275              	.L16:
 276 01ee 1622     		movs	r2, #22
 277 01f0 0021     		movs	r1, #0
 278 01f2 2046     		mov	r0, r4
 279 01f4 FFF7FEFF 		bl	lv_obj_get_style_prop
 280 01f8 C0B2     		uxtb	r0, r0
 281 01fa 009B     		ldr	r3, [sp]
 282 01fc 9D42     		cmp	r5, r3
 283 01fe 02DC     		bgt	.L17
 284 0200 0128     		cmp	r0, #1
 285 0202 00F08481 		beq	.L45
 286              	.L17:
 287 0206 009B     		ldr	r3, [sp]
 288 0208 9D42     		cmp	r5, r3
 289 020a 00F38A81 		bgt	.L18
 290 020e BBF80030 		ldrh	r3, [fp]
 291 0212 3B44     		add	r3, r3, r7
 292 0214 AAF80030 		strh	r3, [r10]	@ movhi
ARM GAS  /var/folders/lp/x54gwt890xv47sdkqj1k04q40000gn/T//ccHkQrvm.s 			page 6


 293 0218 BBF80030 		ldrh	r3, [fp]
 294 021c 059A     		ldr	r2, [sp, #20]
 295 021e 1344     		add	r3, r3, r2
 296 0220 ABF80030 		strh	r3, [fp]	@ movhi
 297              	.L19:
 298 0224 069B     		ldr	r3, [sp, #24]
 299 0226 002B     		cmp	r3, #0
 300 0228 40F08981 		bne	.L20
 301 022c 04F13407 		add	r7, r4, #52
 302 0230 3846     		mov	r0, r7
 303 0232 099B     		ldr	r3, [sp, #36]
 304 0234 9847     		blx	r3
 305 0236 0128     		cmp	r0, #1
 306 0238 40F3B881 		ble	.L46
 307              	.L22:
 308 023c B4F93430 		ldrsh	r3, [r4, #52]
 309 0240 ADF83031 		strh	r3, [sp, #304]	@ movhi
 310 0244 B4F93630 		ldrsh	r3, [r4, #54]
 311 0248 ADF83231 		strh	r3, [sp, #306]	@ movhi
 312 024c B4F93830 		ldrsh	r3, [r4, #56]
 313 0250 ADF83431 		strh	r3, [sp, #308]	@ movhi
 314 0254 B4F93A30 		ldrsh	r3, [r4, #58]
 315 0258 ADF83631 		strh	r3, [sp, #310]	@ movhi
 316 025c 3EAF     		add	r7, sp, #248
 317 025e 3846     		mov	r0, r7
 318 0260 FFF7FEFF 		bl	lv_draw_rect_dsc_init
 319 0264 3A46     		mov	r2, r7
 320 0266 4FF40031 		mov	r1, #131072
 321 026a 2046     		mov	r0, r4
 322 026c FFF7FEFF 		bl	lv_obj_init_draw_rect_dsc
 323 0270 0199     		ldr	r1, [sp, #4]
 324 0272 2CA8     		add	r0, sp, #176
 325 0274 FFF7FEFF 		bl	lv_obj_draw_dsc_init
 326 0278 4FF40033 		mov	r3, #131072
 327 027c 3993     		str	r3, [sp, #228]
 328 027e 804B     		ldr	r3, .L48+4
 329 0280 2D93     		str	r3, [sp, #180]
 330 0282 4FF00008 		mov	r8, #0
 331 0286 CDF8B880 		str	r8, [sp, #184]
 332 028a 3097     		str	r7, [sp, #192]
 333 028c 04F13407 		add	r7, r4, #52
 334 0290 2F97     		str	r7, [sp, #188]
 335 0292 2CAA     		add	r2, sp, #176
 336 0294 1A21     		movs	r1, #26
 337 0296 2046     		mov	r0, r4
 338 0298 FFF7FEFF 		bl	lv_event_send
 339 029c 0B22     		movs	r2, #11
 340 029e 4146     		mov	r1, r8
 341 02a0 2046     		mov	r0, r4
 342 02a2 FFF7FEFF 		bl	lv_obj_get_style_prop
 343 02a6 00B2     		sxth	r0, r0
 344 02a8 2B46     		mov	r3, r5
 345 02aa 009A     		ldr	r2, [sp]
 346 02ac 9542     		cmp	r5, r2
 347 02ae A8BF     		it	ge
 348 02b0 1346     		movge	r3, r2
 349 02b2 4FEA6308 		asr	r8, r3, #1
ARM GAS  /var/folders/lp/x54gwt890xv47sdkqj1k04q40000gn/T//ccHkQrvm.s 			page 7


 350 02b6 B0EB630F 		cmp	r0, r3, asr #1
 351 02ba 00DC     		bgt	.L29
 352 02bc 8046     		mov	r8, r0
 353              	.L29:
 354 02be BDF9F810 		ldrsh	r1, [sp, #248]
 355 02c2 3346     		mov	r3, r6
 356 02c4 089A     		ldr	r2, [sp, #32]
 357 02c6 9642     		cmp	r6, r2
 358 02c8 A8BF     		it	ge
 359 02ca 1346     		movge	r3, r2
 360 02cc 5A10     		asrs	r2, r3, #1
 361 02ce B1EB630F 		cmp	r1, r3, asr #1
 362 02d2 00DC     		bgt	.L30
 363 02d4 0A46     		mov	r2, r1
 364              	.L30:
 365 02d6 009B     		ldr	r3, [sp]
 366 02d8 9D42     		cmp	r5, r3
 367 02da 08DC     		bgt	.L31
 368 02dc 238F     		ldrh	r3, [r4, #56]
 369 02de A18E     		ldrh	r1, [r4, #52]
 370 02e0 5B1A     		subs	r3, r3, r1
 371 02e2 9BB2     		uxth	r3, r3
 372 02e4 0133     		adds	r3, r3, #1
 373 02e6 1BB2     		sxth	r3, r3
 374 02e8 B3EB420F 		cmp	r3, r2, lsl #1
 375 02ec 0BDC     		bgt	.L32
 376              	.L31:
 377 02ee 009B     		ldr	r3, [sp]
 378 02f0 9D42     		cmp	r5, r3
 379 02f2 20DD     		ble	.L33
 380 02f4 638F     		ldrh	r3, [r4, #58]
 381 02f6 E18E     		ldrh	r1, [r4, #54]
 382 02f8 5B1A     		subs	r3, r3, r1
 383 02fa 9BB2     		uxth	r3, r3
 384 02fc 0133     		adds	r3, r3, #1
 385 02fe 1BB2     		sxth	r3, r3
 386 0300 B3EB420F 		cmp	r3, r2, lsl #1
 387 0304 17DD     		ble	.L33
 388              	.L32:
 389 0306 9DF8FBB0 		ldrb	fp, [sp, #251]	@ zero_extendqisi2
 390 030a 9DF812A1 		ldrb	r10, [sp, #274]	@ zero_extendqisi2
 391 030e 9DF81A91 		ldrb	r9, [sp, #282]	@ zero_extendqisi2
 392 0312 0023     		movs	r3, #0
 393 0314 8DF8FB30 		strb	r3, [sp, #251]
 394 0318 8DF81231 		strb	r3, [sp, #274]
 395 031c 8DF81A31 		strb	r3, [sp, #282]
 396 0320 3A46     		mov	r2, r7
 397 0322 3EA9     		add	r1, sp, #248
 398 0324 0198     		ldr	r0, [sp, #4]
 399 0326 FFF7FEFF 		bl	lv_draw_rect
 400 032a 8DF8FBB0 		strb	fp, [sp, #251]
 401 032e 8DF812A1 		strb	r10, [sp, #274]
 402 0332 8DF81A91 		strb	r9, [sp, #282]
 403              	.L33:
 404 0336 A38A     		ldrh	r3, [r4, #20]
 405 0338 079E     		ldr	r6, [sp, #28]
 406 033a 3344     		add	r3, r3, r6
ARM GAS  /var/folders/lp/x54gwt890xv47sdkqj1k04q40000gn/T//ccHkQrvm.s 			page 8


 407 033c ADF89030 		strh	r3, [sp, #144]	@ movhi
 408 0340 238B     		ldrh	r3, [r4, #24]
 409 0342 029A     		ldr	r2, [sp, #8]
 410 0344 9B1A     		subs	r3, r3, r2
 411 0346 ADF89430 		strh	r3, [sp, #148]	@ movhi
 412 034a E38A     		ldrh	r3, [r4, #22]
 413 034c 0399     		ldr	r1, [sp, #12]
 414 034e 0B44     		add	r3, r3, r1
 415 0350 ADF89230 		strh	r3, [sp, #146]	@ movhi
 416 0354 638B     		ldrh	r3, [r4, #26]
 417 0356 0498     		ldr	r0, [sp, #16]
 418 0358 1B1A     		subs	r3, r3, r0
 419 035a ADF89630 		strh	r3, [sp, #150]	@ movhi
 420 035e 0023     		movs	r3, #0
 421 0360 4246     		mov	r2, r8
 422 0362 24A9     		add	r1, sp, #144
 423 0364 26A8     		add	r0, sp, #152
 424 0366 FFF7FEFF 		bl	lv_draw_mask_radius_init
 425 036a 0021     		movs	r1, #0
 426 036c 26AB     		add	r3, sp, #152
 427 036e 1846     		mov	r0, r3
 428 0370 FFF7FEFF 		bl	lv_draw_mask_add
 429 0374 8046     		mov	r8, r0
 430 0376 9DF82E91 		ldrb	r9, [sp, #302]	@ zero_extendqisi2
 431 037a 9DF81AA1 		ldrb	r10, [sp, #282]	@ zero_extendqisi2
 432 037e 0023     		movs	r3, #0
 433 0380 8DF81A31 		strb	r3, [sp, #282]
 434 0384 8DF82E31 		strb	r3, [sp, #302]
 435 0388 BDF93801 		ldrsh	r0, [sp, #312]
 436 038c ADF88800 		strh	r0, [sp, #136]	@ movhi
 437 0390 BDF93A11 		ldrsh	r1, [sp, #314]
 438 0394 ADF88A10 		strh	r1, [sp, #138]	@ movhi
 439 0398 BDF93C21 		ldrsh	r2, [sp, #316]
 440 039c ADF88C20 		strh	r2, [sp, #140]	@ movhi
 441 03a0 BDF93E31 		ldrsh	r3, [sp, #318]
 442 03a4 ADF88E30 		strh	r3, [sp, #142]	@ movhi
 443 03a8 16FA80F0 		uxtah	r0, r6, r0
 444 03ac 80B2     		uxth	r0, r0
 445 03ae ADF88800 		strh	r0, [sp, #136]	@ movhi
 446 03b2 039E     		ldr	r6, [sp, #12]
 447 03b4 16FA81F1 		uxtah	r1, r6, r1
 448 03b8 89B2     		uxth	r1, r1
 449 03ba ADF88A10 		strh	r1, [sp, #138]	@ movhi
 450 03be 92B2     		uxth	r2, r2
 451 03c0 029E     		ldr	r6, [sp, #8]
 452 03c2 921B     		subs	r2, r2, r6
 453 03c4 92B2     		uxth	r2, r2
 454 03c6 ADF88C20 		strh	r2, [sp, #140]	@ movhi
 455 03ca 9BB2     		uxth	r3, r3
 456 03cc 049E     		ldr	r6, [sp, #16]
 457 03ce 9B1B     		subs	r3, r3, r6
 458 03d0 9BB2     		uxth	r3, r3
 459 03d2 ADF88E30 		strh	r3, [sp, #142]	@ movhi
 460 03d6 009E     		ldr	r6, [sp]
 461 03d8 B542     		cmp	r5, r6
 462 03da 00F3FE80 		bgt	.L34
 463 03de 5B1A     		subs	r3, r3, r1
ARM GAS  /var/folders/lp/x54gwt890xv47sdkqj1k04q40000gn/T//ccHkQrvm.s 			page 9


 464 03e0 9BB2     		uxth	r3, r3
 465 03e2 0133     		adds	r3, r3, #1
 466 03e4 1BB2     		sxth	r3, r3
 467 03e6 032B     		cmp	r3, #3
 468 03e8 00F3F780 		bgt	.L34
 469 03ec E38A     		ldrh	r3, [r4, #22]
 470 03ee 05EBD575 		add	r5, r5, r5, lsr #31
 471 03f2 03EB6503 		add	r3, r3, r5, asr #1
 472 03f6 9BB2     		uxth	r3, r3
 473 03f8 9A1E     		subs	r2, r3, #2
 474 03fa ADF88A20 		strh	r2, [sp, #138]	@ movhi
 475 03fe 0233     		adds	r3, r3, #2
 476 0400 ADF88E30 		strh	r3, [sp, #142]	@ movhi
 477              	.L35:
 478 0404 0023     		movs	r3, #0
 479 0406 BDF9F820 		ldrsh	r2, [sp, #248]
 480 040a 3946     		mov	r1, r7
 481 040c 1CA8     		add	r0, sp, #112
 482 040e FFF7FEFF 		bl	lv_draw_mask_radius_init
 483 0412 0021     		movs	r1, #0
 484 0414 1CA8     		add	r0, sp, #112
 485 0416 FFF7FEFF 		bl	lv_draw_mask_add
 486 041a 0546     		mov	r5, r0
 487 041c 22AA     		add	r2, sp, #136
 488 041e 3EA9     		add	r1, sp, #248
 489 0420 019E     		ldr	r6, [sp, #4]
 490 0422 3046     		mov	r0, r6
 491 0424 FFF7FEFF 		bl	lv_draw_rect
 492 0428 8DF81AA1 		strb	r10, [sp, #282]
 493 042c 8DF82E91 		strb	r9, [sp, #302]
 494 0430 0023     		movs	r3, #0
 495 0432 8DF8FB30 		strb	r3, [sp, #251]
 496 0436 8DF81231 		strb	r3, [sp, #274]
 497 043a 8DF82E31 		strb	r3, [sp, #302]
 498 043e 3A46     		mov	r2, r7
 499 0440 3EA9     		add	r1, sp, #248
 500 0442 3046     		mov	r0, r6
 501 0444 FFF7FEFF 		bl	lv_draw_rect
 502 0448 1CA8     		add	r0, sp, #112
 503 044a FFF7FEFF 		bl	lv_draw_mask_free_param
 504 044e 26A8     		add	r0, sp, #152
 505 0450 FFF7FEFF 		bl	lv_draw_mask_free_param
 506 0454 2846     		mov	r0, r5
 507 0456 FFF7FEFF 		bl	lv_draw_mask_remove_id
 508 045a 4046     		mov	r0, r8
 509 045c FFF7FEFF 		bl	lv_draw_mask_remove_id
 510 0460 2CAA     		add	r2, sp, #176
 511 0462 1B21     		movs	r1, #27
 512 0464 2046     		mov	r0, r4
 513 0466 FFF7FEFF 		bl	lv_event_send
 514              	.L4:
 515 046a 51B0     		add	sp, sp, #324
 516              		@ sp needed
 517 046c BDE8F08F 		pop	{r4, r5, r6, r7, r8, r9, r10, fp, pc}
 518              	.L42:
 519 0470 002A     		cmp	r2, #0
 520 0472 07DB     		blt	.L47
ARM GAS  /var/folders/lp/x54gwt890xv47sdkqj1k04q40000gn/T//ccHkQrvm.s 			page 10


 521 0474 0023     		movs	r3, #0
 522 0476 0693     		str	r3, [sp, #24]
 523 0478 0CE6     		b	.L5
 524              	.L49:
 525 047a 00BF     		.align	2
 526              	.L48:
 527 047c 00000000 		.word	lv_area_get_width
 528 0480 00000000 		.word	lv_bar_class
 529              	.L47:
 530 0484 0029     		cmp	r1, #0
 531 0486 05DD     		ble	.L38
 532 0488 236B     		ldr	r3, [r4, #48]
 533 048a 9A42     		cmp	r2, r3
 534 048c 05D0     		beq	.L39
 535 048e 0023     		movs	r3, #0
 536 0490 0693     		str	r3, [sp, #24]
 537 0492 FFE5     		b	.L5
 538              	.L38:
 539 0494 0023     		movs	r3, #0
 540 0496 0693     		str	r3, [sp, #24]
 541 0498 FCE5     		b	.L5
 542              	.L39:
 543 049a 0123     		movs	r3, #1
 544 049c 0693     		str	r3, [sp, #24]
 545 049e F9E5     		b	.L5
 546              	.L6:
 547 04a0 0099     		ldr	r1, [sp]
 548 04a2 8D42     		cmp	r5, r1
 549 04a4 7FF74BAE 		ble	.L7
 550 04a8 A2EB0C02 		sub	r2, r2, ip
 551 04ac 92B2     		uxth	r2, r2
 552 04ae 0132     		adds	r2, r2, #1
 553 04b0 12B2     		sxth	r2, r2
 554 04b2 032A     		cmp	r2, #3
 555 04b4 3FF743AE 		bgt	.L7
 556 04b8 A38A     		ldrh	r3, [r4, #20]
 557 04ba 01EBD172 		add	r2, r1, r1, lsr #31
 558 04be 03EB6203 		add	r3, r3, r2, asr #1
 559 04c2 9BB2     		uxth	r3, r3
 560 04c4 9A1E     		subs	r2, r3, #2
 561 04c6 A286     		strh	r2, [r4, #52]	@ movhi
 562 04c8 0233     		adds	r3, r3, #2
 563 04ca 2387     		strh	r3, [r4, #56]	@ movhi
 564 04cc 37E6     		b	.L7
 565              	.L40:
 566 04ce B046     		mov	r8, r6
 567 04d0 48E6     		b	.L8
 568              	.L9:
 569 04d2 04F1360B 		add	fp, r4, #54
 570 04d6 04F13A0A 		add	r10, r4, #58
 571 04da 4C4B     		ldr	r3, .L50
 572 04dc 0993     		str	r3, [sp, #36]
 573 04de 4BE6     		b	.L10
 574              	.L43:
 575 04e0 FF31     		adds	r1, r1, #255
 576 04e2 63E6     		b	.L12
 577              	.L11:
ARM GAS  /var/folders/lp/x54gwt890xv47sdkqj1k04q40000gn/T//ccHkQrvm.s 			page 11


 578 04e4 236B     		ldr	r3, [r4, #48]
 579 04e6 A26A     		ldr	r2, [r4, #40]
 580 04e8 9B1A     		subs	r3, r3, r2
 581 04ea 03FB08F3 		mul	r3, r3, r8
 582 04ee 93FBF9F3 		sdiv	r3, r3, r9
 583 04f2 1BB2     		sxth	r3, r3
 584 04f4 0593     		str	r3, [sp, #20]
 585 04f6 5DE6     		b	.L13
 586              	.L44:
 587 04f8 FF32     		adds	r2, r2, #255
 588 04fa 75E6     		b	.L15
 589              	.L14:
 590 04fc 676A     		ldr	r7, [r4, #36]
 591 04fe A36A     		ldr	r3, [r4, #40]
 592 0500 FF1A     		subs	r7, r7, r3
 593 0502 07FB08F7 		mul	r7, r7, r8
 594 0506 97FBF9F7 		sdiv	r7, r7, r9
 595 050a 3FB2     		sxth	r7, r7
 596 050c 6FE6     		b	.L16
 597              	.L45:
 598 050e 7F42     		rsbs	r7, r7, #0
 599 0510 3FB2     		sxth	r7, r7
 600 0512 059B     		ldr	r3, [sp, #20]
 601 0514 5B42     		rsbs	r3, r3, #0
 602 0516 1BB2     		sxth	r3, r3
 603 0518 0593     		str	r3, [sp, #20]
 604 051a 5B46     		mov	r3, fp
 605 051c D346     		mov	fp, r10
 606 051e 9A46     		mov	r10, r3
 607 0520 71E6     		b	.L17
 608              	.L18:
 609 0522 BAF80030 		ldrh	r3, [r10]
 610 0526 DB1B     		subs	r3, r3, r7
 611 0528 9BB2     		uxth	r3, r3
 612 052a 0133     		adds	r3, r3, #1
 613 052c ABF80030 		strh	r3, [fp]	@ movhi
 614 0530 BAF80030 		ldrh	r3, [r10]
 615 0534 059A     		ldr	r2, [sp, #20]
 616 0536 9B1A     		subs	r3, r3, r2
 617 0538 AAF80030 		strh	r3, [r10]	@ movhi
 618 053c 72E6     		b	.L19
 619              	.L20:
 620 053e A36A     		ldr	r3, [r4, #40]
 621 0540 5B42     		rsbs	r3, r3, #0
 622 0542 03FB08F8 		mul	r8, r3, r8
 623 0546 98FBF9F8 		sdiv	r8, r8, r9
 624 054a 009B     		ldr	r3, [sp]
 625 054c 9D42     		cmp	r5, r3
 626 054e 0FDC     		bgt	.L23
 627 0550 BBF80030 		ldrh	r3, [fp]
 628 0554 4344     		add	r3, r3, r8
 629 0556 1BB2     		sxth	r3, r3
 630 0558 BAF90020 		ldrsh	r2, [r10]
 631 055c 9A42     		cmp	r2, r3
 632 055e 02DD     		ble	.L24
 633 0560 ABF80030 		strh	r3, [fp]	@ movhi
 634 0564 6AE6     		b	.L22
ARM GAS  /var/folders/lp/x54gwt890xv47sdkqj1k04q40000gn/T//ccHkQrvm.s 			page 12


 635              	.L24:
 636 0566 ABF80020 		strh	r2, [fp]	@ movhi
 637 056a AAF80030 		strh	r3, [r10]	@ movhi
 638 056e 65E6     		b	.L22
 639              	.L23:
 640 0570 BAF80030 		ldrh	r3, [r10]
 641 0574 A3EB0803 		sub	r3, r3, r8
 642 0578 9BB2     		uxth	r3, r3
 643 057a 0133     		adds	r3, r3, #1
 644 057c 1BB2     		sxth	r3, r3
 645 057e BBF90020 		ldrsh	r2, [fp]
 646 0582 9A42     		cmp	r2, r3
 647 0584 0DDD     		ble	.L26
 648 0586 AAF80030 		strh	r3, [r10]	@ movhi
 649              	.L27:
 650 058a BAF90020 		ldrsh	r2, [r10]
 651 058e BBF90030 		ldrsh	r3, [fp]
 652 0592 9A42     		cmp	r2, r3
 653 0594 BFF652AE 		bge	.L22
 654 0598 ABF80020 		strh	r2, [fp]	@ movhi
 655 059c AAF80030 		strh	r3, [r10]	@ movhi
 656 05a0 4CE6     		b	.L22
 657              	.L26:
 658 05a2 AAF80020 		strh	r2, [r10]	@ movhi
 659 05a6 ABF80030 		strh	r3, [fp]	@ movhi
 660 05aa EEE7     		b	.L27
 661              	.L46:
 662 05ac 0199     		ldr	r1, [sp, #4]
 663 05ae 0AA8     		add	r0, sp, #40
 664 05b0 FFF7FEFF 		bl	lv_obj_draw_dsc_init
 665 05b4 4FF40033 		mov	r3, #131072
 666 05b8 1793     		str	r3, [sp, #92]
 667 05ba 154B     		ldr	r3, .L50+4
 668 05bc 0B93     		str	r3, [sp, #44]
 669 05be 0023     		movs	r3, #0
 670 05c0 0C93     		str	r3, [sp, #48]
 671 05c2 0D97     		str	r7, [sp, #52]
 672 05c4 0AAA     		add	r2, sp, #40
 673 05c6 1A21     		movs	r1, #26
 674 05c8 2046     		mov	r0, r4
 675 05ca FFF7FEFF 		bl	lv_event_send
 676 05ce 0AAA     		add	r2, sp, #40
 677 05d0 1B21     		movs	r1, #27
 678 05d2 2046     		mov	r0, r4
 679 05d4 FFF7FEFF 		bl	lv_event_send
 680 05d8 47E7     		b	.L4
 681              	.L34:
 682 05da 0099     		ldr	r1, [sp]
 683 05dc 8D42     		cmp	r5, r1
 684 05de 7FF711AF 		ble	.L35
 685 05e2 121A     		subs	r2, r2, r0
 686 05e4 92B2     		uxth	r2, r2
 687 05e6 0132     		adds	r2, r2, #1
 688 05e8 12B2     		sxth	r2, r2
 689 05ea 032A     		cmp	r2, #3
 690 05ec 3FF70AAF 		bgt	.L35
 691 05f0 A38A     		ldrh	r3, [r4, #20]
ARM GAS  /var/folders/lp/x54gwt890xv47sdkqj1k04q40000gn/T//ccHkQrvm.s 			page 13


 692 05f2 01EBD176 		add	r6, r1, r1, lsr #31
 693 05f6 03EB6603 		add	r3, r3, r6, asr #1
 694 05fa 9BB2     		uxth	r3, r3
 695 05fc 9A1E     		subs	r2, r3, #2
 696 05fe ADF88820 		strh	r2, [sp, #136]	@ movhi
 697 0602 0233     		adds	r3, r3, #2
 698 0604 ADF88C30 		strh	r3, [sp, #140]	@ movhi
 699 0608 FCE6     		b	.L35
 700              	.L51:
 701 060a 00BF     		.align	2
 702              	.L50:
 703 060c 00000000 		.word	lv_area_get_height
 704 0610 00000000 		.word	lv_bar_class
 706              		.section	.text.lv_bar_event,"ax",%progbits
 707              		.align	1
 708              		.syntax unified
 709              		.thumb
 710              		.thumb_func
 712              	lv_bar_event:
 713              		@ args = 0, pretend = 0, frame = 0
 714              		@ frame_needed = 0, uses_anonymous_args = 0
 715 0000 2DE9F041 		push	{r4, r5, r6, r7, r8, lr}
 716 0004 0D46     		mov	r5, r1
 717 0006 4148     		ldr	r0, .L61
 718 0008 FFF7FEFF 		bl	lv_obj_event_base
 719 000c 0128     		cmp	r0, #1
 720 000e 01D0     		beq	.L60
 721              	.L52:
 722 0010 BDE8F081 		pop	{r4, r5, r6, r7, r8, pc}
 723              	.L60:
 724 0014 2846     		mov	r0, r5
 725 0016 FFF7FEFF 		bl	lv_event_get_code
 726 001a 0446     		mov	r4, r0
 727 001c 2846     		mov	r0, r5
 728 001e FFF7FEFF 		bl	lv_event_get_target
 729 0022 0646     		mov	r6, r0
 730 0024 631E     		subs	r3, r4, #1
 731 0026 142B     		cmp	r3, #20
 732 0028 F2D8     		bhi	.L52
 733 002a 01A2     		adr	r2, .L55
 734 002c 52F823F0 		ldr	pc, [r2, r3, lsl #2]
 735              		.p2align 2
 736              	.L55:
 737 0030 FB000000 		.word	.L57+1
 738 0034 11000000 		.word	.L52+1
 739 0038 11000000 		.word	.L52+1
 740 003c 11000000 		.word	.L52+1
 741 0040 11000000 		.word	.L52+1
 742 0044 11000000 		.word	.L52+1
 743 0048 11000000 		.word	.L52+1
 744 004c FB000000 		.word	.L57+1
 745 0050 11000000 		.word	.L52+1
 746 0054 11000000 		.word	.L52+1
 747 0058 11000000 		.word	.L52+1
 748 005c 11000000 		.word	.L52+1
 749 0060 11000000 		.word	.L52+1
 750 0064 11000000 		.word	.L52+1
ARM GAS  /var/folders/lp/x54gwt890xv47sdkqj1k04q40000gn/T//ccHkQrvm.s 			page 14


 751 0068 11000000 		.word	.L52+1
 752 006c 11000000 		.word	.L52+1
 753 0070 11000000 		.word	.L52+1
 754 0074 11000000 		.word	.L52+1
 755 0078 85000000 		.word	.L56+1
 756 007c 11000000 		.word	.L52+1
 757 0080 05010000 		.word	.L54+1
 758              		.p2align 1
 759              	.L56:
 760 0084 4FF40031 		mov	r1, #131072
 761 0088 FFF7FEFF 		bl	lv_obj_calculate_ext_draw_size
 762 008c 0746     		mov	r7, r0
 763 008e 2846     		mov	r0, r5
 764 0090 FFF7FEFF 		bl	lv_event_get_param
 765 0094 0446     		mov	r4, r0
 766 0096 B0F90000 		ldrsh	r0, [r0]
 767 009a B842     		cmp	r0, r7
 768 009c B8BF     		it	lt
 769 009e 3846     		movlt	r0, r7
 770 00a0 2080     		strh	r0, [r4]	@ movhi
 771 00a2 1222     		movs	r2, #18
 772 00a4 0021     		movs	r1, #0
 773 00a6 3046     		mov	r0, r6
 774 00a8 FFF7FEFF 		bl	lv_obj_get_style_prop
 775 00ac 07B2     		sxth	r7, r0
 776 00ae 1322     		movs	r2, #19
 777 00b0 0021     		movs	r1, #0
 778 00b2 3046     		mov	r0, r6
 779 00b4 FFF7FEFF 		bl	lv_obj_get_style_prop
 780 00b8 05B2     		sxth	r5, r0
 781 00ba 1022     		movs	r2, #16
 782 00bc 0021     		movs	r1, #0
 783 00be 3046     		mov	r0, r6
 784 00c0 FFF7FEFF 		bl	lv_obj_get_style_prop
 785 00c4 0FFA80F8 		sxth	r8, r0
 786 00c8 1122     		movs	r2, #17
 787 00ca 0021     		movs	r1, #0
 788 00cc 3046     		mov	r0, r6
 789 00ce FFF7FEFF 		bl	lv_obj_get_style_prop
 790 00d2 03B2     		sxth	r3, r0
 791 00d4 4345     		cmp	r3, r8
 792 00d6 A8BF     		it	ge
 793 00d8 4346     		movge	r3, r8
 794 00da BD42     		cmp	r5, r7
 795 00dc A8BF     		it	ge
 796 00de 3D46     		movge	r5, r7
 797 00e0 AB42     		cmp	r3, r5
 798 00e2 A8BF     		it	ge
 799 00e4 2B46     		movge	r3, r5
 800 00e6 002B     		cmp	r3, #0
 801 00e8 92DA     		bge	.L52
 802 00ea 5B42     		rsbs	r3, r3, #0
 803 00ec B4F90020 		ldrsh	r2, [r4]
 804 00f0 9342     		cmp	r3, r2
 805 00f2 B8BF     		it	lt
 806 00f4 1346     		movlt	r3, r2
 807 00f6 2380     		strh	r3, [r4]	@ movhi
ARM GAS  /var/folders/lp/x54gwt890xv47sdkqj1k04q40000gn/T//ccHkQrvm.s 			page 15


 808 00f8 8AE7     		b	.L52
 809              	.L57:
 810 00fa 00F13401 		add	r1, r0, #52
 811 00fe FFF7FEFF 		bl	lv_obj_invalidate_area
 812 0102 85E7     		b	.L52
 813              	.L54:
 814 0104 2846     		mov	r0, r5
 815 0106 FFF7FEFF 		bl	draw_indic
 816 010a 81E7     		b	.L52
 817              	.L62:
 818              		.align	2
 819              	.L61:
 820 010c 00000000 		.word	lv_bar_class
 822              		.section	.text.lv_bar_destructor,"ax",%progbits
 823              		.align	1
 824              		.syntax unified
 825              		.thumb
 826              		.thumb_func
 828              	lv_bar_destructor:
 829              		@ args = 0, pretend = 0, frame = 0
 830              		@ frame_needed = 0, uses_anonymous_args = 0
 831 0000 10B5     		push	{r4, lr}
 832 0002 0C46     		mov	r4, r1
 833 0004 0021     		movs	r1, #0
 834 0006 04F13C00 		add	r0, r4, #60
 835 000a FFF7FEFF 		bl	lv_anim_del
 836 000e 0021     		movs	r1, #0
 837 0010 04F14C00 		add	r0, r4, #76
 838 0014 FFF7FEFF 		bl	lv_anim_del
 839 0018 10BD     		pop	{r4, pc}
 841              		.section	.text.lv_bar_anim_ready,"ax",%progbits
 842              		.align	1
 843              		.syntax unified
 844              		.thumb
 845              		.thumb_func
 847              	lv_bar_anim_ready:
 848              		@ args = 0, pretend = 0, frame = 0
 849              		@ frame_needed = 0, uses_anonymous_args = 0
 850 0000 08B5     		push	{r3, lr}
 851 0002 0368     		ldr	r3, [r0]
 852 0004 1A68     		ldr	r2, [r3]
 853 0006 4FF0FF31 		mov	r1, #-1
 854 000a D960     		str	r1, [r3, #12]
 855 000c 02F13C01 		add	r1, r2, #60
 856 0010 9942     		cmp	r1, r3
 857 0012 07D0     		beq	.L69
 858 0014 02F14C01 		add	r1, r2, #76
 859 0018 9942     		cmp	r1, r3
 860 001a 06D0     		beq	.L70
 861              	.L67:
 862 001c 1868     		ldr	r0, [r3]
 863 001e FFF7FEFF 		bl	lv_obj_invalidate
 864 0022 08BD     		pop	{r3, pc}
 865              	.L69:
 866 0024 9968     		ldr	r1, [r3, #8]
 867 0026 5162     		str	r1, [r2, #36]
 868 0028 F8E7     		b	.L67
ARM GAS  /var/folders/lp/x54gwt890xv47sdkqj1k04q40000gn/T//ccHkQrvm.s 			page 16


 869              	.L70:
 870 002a 9968     		ldr	r1, [r3, #8]
 871 002c 1163     		str	r1, [r2, #48]
 872 002e F5E7     		b	.L67
 874              		.section	.text.lv_bar_anim,"ax",%progbits
 875              		.align	1
 876              		.syntax unified
 877              		.thumb
 878              		.thumb_func
 880              	lv_bar_anim:
 881              		@ args = 0, pretend = 0, frame = 0
 882              		@ frame_needed = 0, uses_anonymous_args = 0
 883 0000 08B5     		push	{r3, lr}
 884 0002 C160     		str	r1, [r0, #12]
 885 0004 0068     		ldr	r0, [r0]
 886 0006 FFF7FEFF 		bl	lv_obj_invalidate
 887 000a 08BD     		pop	{r3, pc}
 889              		.section	.text.lv_bar_set_value_with_anim,"ax",%progbits
 890              		.align	1
 891              		.syntax unified
 892              		.thumb
 893              		.thumb_func
 895              	lv_bar_set_value_with_anim:
 896              		@ args = 4, pretend = 0, frame = 72
 897              		@ frame_needed = 0, uses_anonymous_args = 0
 898 0000 F0B5     		push	{r4, r5, r6, r7, lr}
 899 0002 93B0     		sub	sp, sp, #76
 900 0004 0746     		mov	r7, r0
 901 0006 0D46     		mov	r5, r1
 902 0008 1646     		mov	r6, r2
 903 000a 1C46     		mov	r4, r3
 904 000c 9DF86030 		ldrb	r3, [sp, #96]	@ zero_extendqisi2
 905 0010 1BB3     		cbz	r3, .L79
 906 0012 E368     		ldr	r3, [r4, #12]
 907 0014 B3F1FF3F 		cmp	r3, #-1
 908 0018 2BD0     		beq	.L80
 909 001a A368     		ldr	r3, [r4, #8]
 910 001c 6360     		str	r3, [r4, #4]
 911 001e A160     		str	r1, [r4, #8]
 912              	.L77:
 913 0020 3560     		str	r5, [r6]
 914 0022 0021     		movs	r1, #0
 915 0024 2046     		mov	r0, r4
 916 0026 FFF7FEFF 		bl	lv_anim_del
 917 002a 01A8     		add	r0, sp, #4
 918 002c FFF7FEFF 		bl	lv_anim_init
 919 0030 0194     		str	r4, [sp, #4]
 920 0032 124B     		ldr	r3, .L81
 921 0034 0293     		str	r3, [sp, #8]
 922 0036 0021     		movs	r1, #0
 923 0038 0991     		str	r1, [sp, #36]
 924 003a 0A91     		str	r1, [sp, #40]
 925 003c 4FF48073 		mov	r3, #256
 926 0040 0B93     		str	r3, [sp, #44]
 927 0042 0F4B     		ldr	r3, .L81+4
 928 0044 0493     		str	r3, [sp, #16]
 929 0046 6522     		movs	r2, #101
ARM GAS  /var/folders/lp/x54gwt890xv47sdkqj1k04q40000gn/T//ccHkQrvm.s 			page 17


 930 0048 3846     		mov	r0, r7
 931 004a FFF7FEFF 		bl	lv_obj_get_style_prop
 932 004e 0C90     		str	r0, [sp, #48]
 933 0050 01A8     		add	r0, sp, #4
 934 0052 FFF7FEFF 		bl	lv_anim_start
 935              	.L73:
 936 0056 13B0     		add	sp, sp, #76
 937              		@ sp needed
 938 0058 F0BD     		pop	{r4, r5, r6, r7, pc}
 939              	.L79:
 940 005a 0021     		movs	r1, #0
 941 005c 2046     		mov	r0, r4
 942 005e FFF7FEFF 		bl	lv_anim_del
 943 0062 4FF0FF33 		mov	r3, #-1
 944 0066 E360     		str	r3, [r4, #12]
 945 0068 3560     		str	r5, [r6]
 946 006a 3846     		mov	r0, r7
 947 006c FFF7FEFF 		bl	lv_obj_invalidate
 948 0070 F1E7     		b	.L73
 949              	.L80:
 950 0072 1368     		ldr	r3, [r2]
 951 0074 6360     		str	r3, [r4, #4]
 952 0076 A160     		str	r1, [r4, #8]
 953 0078 D2E7     		b	.L77
 954              	.L82:
 955 007a 00BF     		.align	2
 956              	.L81:
 957 007c 00000000 		.word	lv_bar_anim
 958 0080 00000000 		.word	lv_bar_anim_ready
 960              		.section	.text.lv_bar_create,"ax",%progbits
 961              		.align	1
 962              		.global	lv_bar_create
 963              		.syntax unified
 964              		.thumb
 965              		.thumb_func
 967              	lv_bar_create:
 968              		@ args = 0, pretend = 0, frame = 0
 969              		@ frame_needed = 0, uses_anonymous_args = 0
 970 0000 10B5     		push	{r4, lr}
 971 0002 0146     		mov	r1, r0
 972 0004 0348     		ldr	r0, .L85
 973 0006 FFF7FEFF 		bl	lv_obj_class_create_obj
 974 000a 0446     		mov	r4, r0
 975 000c FFF7FEFF 		bl	lv_obj_class_init_obj
 976 0010 2046     		mov	r0, r4
 977 0012 10BD     		pop	{r4, pc}
 978              	.L86:
 979              		.align	2
 980              	.L85:
 981 0014 00000000 		.word	lv_bar_class
 983              		.section	.text.lv_bar_set_value,"ax",%progbits
 984              		.align	1
 985              		.global	lv_bar_set_value
 986              		.syntax unified
 987              		.thumb
 988              		.thumb_func
 990              	lv_bar_set_value:
ARM GAS  /var/folders/lp/x54gwt890xv47sdkqj1k04q40000gn/T//ccHkQrvm.s 			page 18


 991              		@ args = 0, pretend = 0, frame = 0
 992              		@ frame_needed = 0, uses_anonymous_args = 0
 993 0000 436A     		ldr	r3, [r0, #36]
 994 0002 8B42     		cmp	r3, r1
 995 0004 18D0     		beq	.L90
 996 0006 10B5     		push	{r4, lr}
 997 0008 82B0     		sub	sp, sp, #8
 998 000a C46A     		ldr	r4, [r0, #44]
 999 000c A142     		cmp	r1, r4
 1000 000e A8BF     		it	ge
 1001 0010 2146     		movge	r1, r4
 1002 0012 846A     		ldr	r4, [r0, #40]
 1003 0014 A142     		cmp	r1, r4
 1004 0016 B8BF     		it	lt
 1005 0018 2146     		movlt	r1, r4
 1006 001a 046B     		ldr	r4, [r0, #48]
 1007 001c A142     		cmp	r1, r4
 1008 001e B8BF     		it	lt
 1009 0020 2146     		movlt	r1, r4
 1010 0022 8B42     		cmp	r3, r1
 1011 0024 06D0     		beq	.L87
 1012 0026 0092     		str	r2, [sp]
 1013 0028 00F13C03 		add	r3, r0, #60
 1014 002c 00F12402 		add	r2, r0, #36
 1015 0030 FFF7FEFF 		bl	lv_bar_set_value_with_anim
 1016              	.L87:
 1017 0034 02B0     		add	sp, sp, #8
 1018              		@ sp needed
 1019 0036 10BD     		pop	{r4, pc}
 1020              	.L90:
 1021 0038 7047     		bx	lr
 1023              		.section	.text.lv_bar_constructor,"ax",%progbits
 1024              		.align	1
 1025              		.syntax unified
 1026              		.thumb
 1027              		.thumb_func
 1029              	lv_bar_constructor:
 1030              		@ args = 0, pretend = 0, frame = 0
 1031              		@ frame_needed = 0, uses_anonymous_args = 0
 1032 0000 38B5     		push	{r3, r4, r5, lr}
 1033 0002 0C46     		mov	r4, r1
 1034 0004 0025     		movs	r5, #0
 1035 0006 8D62     		str	r5, [r1, #40]
 1036 0008 6423     		movs	r3, #100
 1037 000a CB62     		str	r3, [r1, #44]
 1038 000c 0D63     		str	r5, [r1, #48]
 1039 000e 4D62     		str	r5, [r1, #36]
 1040 0010 8D86     		strh	r5, [r1, #52]	@ movhi
 1041 0012 0D87     		strh	r5, [r1, #56]	@ movhi
 1042 0014 CD86     		strh	r5, [r1, #54]	@ movhi
 1043 0016 4D87     		strh	r5, [r1, #58]	@ movhi
 1044 0018 91F85C30 		ldrb	r3, [r1, #92]	@ zero_extendqisi2
 1045 001c 65F30103 		bfi	r3, r5, #0, #2
 1046 0020 81F85C30 		strb	r3, [r1, #92]
 1047 0024 3C31     		adds	r1, r1, #60
 1048 0026 2046     		mov	r0, r4
 1049 0028 FFF7FEFF 		bl	lv_bar_init_anim
ARM GAS  /var/folders/lp/x54gwt890xv47sdkqj1k04q40000gn/T//ccHkQrvm.s 			page 19


 1050 002c 04F14C01 		add	r1, r4, #76
 1051 0030 2046     		mov	r0, r4
 1052 0032 FFF7FEFF 		bl	lv_bar_init_anim
 1053 0036 0821     		movs	r1, #8
 1054 0038 2046     		mov	r0, r4
 1055 003a FFF7FEFF 		bl	lv_obj_clear_flag
 1056 003e 1021     		movs	r1, #16
 1057 0040 2046     		mov	r0, r4
 1058 0042 FFF7FEFF 		bl	lv_obj_clear_flag
 1059 0046 2A46     		mov	r2, r5
 1060 0048 2946     		mov	r1, r5
 1061 004a 2046     		mov	r0, r4
 1062 004c FFF7FEFF 		bl	lv_bar_set_value
 1063 0050 38BD     		pop	{r3, r4, r5, pc}
 1065              		.section	.text.lv_bar_set_start_value,"ax",%progbits
 1066              		.align	1
 1067              		.global	lv_bar_set_start_value
 1068              		.syntax unified
 1069              		.thumb
 1070              		.thumb_func
 1072              	lv_bar_set_start_value:
 1073              		@ args = 0, pretend = 0, frame = 0
 1074              		@ frame_needed = 0, uses_anonymous_args = 0
 1075 0000 90F85C30 		ldrb	r3, [r0, #92]	@ zero_extendqisi2
 1076 0004 03F00303 		and	r3, r3, #3
 1077 0008 022B     		cmp	r3, #2
 1078 000a 1AD1     		bne	.L98
 1079 000c C36A     		ldr	r3, [r0, #44]
 1080 000e 9942     		cmp	r1, r3
 1081 0010 A8BF     		it	ge
 1082 0012 1946     		movge	r1, r3
 1083 0014 836A     		ldr	r3, [r0, #40]
 1084 0016 9942     		cmp	r1, r3
 1085 0018 B8BF     		it	lt
 1086 001a 1946     		movlt	r1, r3
 1087 001c 436A     		ldr	r3, [r0, #36]
 1088 001e 9942     		cmp	r1, r3
 1089 0020 A8BF     		it	ge
 1090 0022 1946     		movge	r1, r3
 1091 0024 036B     		ldr	r3, [r0, #48]
 1092 0026 8B42     		cmp	r3, r1
 1093 0028 0BD0     		beq	.L98
 1094 002a 00B5     		push	{lr}
 1095 002c 83B0     		sub	sp, sp, #12
 1096 002e 0092     		str	r2, [sp]
 1097 0030 00F14C03 		add	r3, r0, #76
 1098 0034 00F13002 		add	r2, r0, #48
 1099 0038 FFF7FEFF 		bl	lv_bar_set_value_with_anim
 1100 003c 03B0     		add	sp, sp, #12
 1101              		@ sp needed
 1102 003e 5DF804FB 		ldr	pc, [sp], #4
 1103              	.L98:
 1104 0042 7047     		bx	lr
 1106              		.section	.text.lv_bar_set_mode,"ax",%progbits
 1107              		.align	1
 1108              		.global	lv_bar_set_mode
 1109              		.syntax unified
ARM GAS  /var/folders/lp/x54gwt890xv47sdkqj1k04q40000gn/T//ccHkQrvm.s 			page 20


 1110              		.thumb
 1111              		.thumb_func
 1113              	lv_bar_set_mode:
 1114              		@ args = 0, pretend = 0, frame = 0
 1115              		@ frame_needed = 0, uses_anonymous_args = 0
 1116 0000 08B5     		push	{r3, lr}
 1117 0002 90F85C30 		ldrb	r3, [r0, #92]	@ zero_extendqisi2
 1118 0006 61F30103 		bfi	r3, r1, #0, #2
 1119 000a 80F85C30 		strb	r3, [r0, #92]
 1120 000e DBB2     		uxtb	r3, r3
 1121 0010 03F00303 		and	r3, r3, #3
 1122 0014 022B     		cmp	r3, #2
 1123 0016 01D0     		beq	.L102
 1124 0018 836A     		ldr	r3, [r0, #40]
 1125 001a 0363     		str	r3, [r0, #48]
 1126              	.L102:
 1127 001c FFF7FEFF 		bl	lv_obj_invalidate
 1128 0020 08BD     		pop	{r3, pc}
 1130              		.section	.text.lv_bar_get_value,"ax",%progbits
 1131              		.align	1
 1132              		.global	lv_bar_get_value
 1133              		.syntax unified
 1134              		.thumb
 1135              		.thumb_func
 1137              	lv_bar_get_value:
 1138              		@ args = 0, pretend = 0, frame = 0
 1139              		@ frame_needed = 0, uses_anonymous_args = 0
 1140              		@ link register save eliminated.
 1141 0000 836C     		ldr	r3, [r0, #72]
 1142 0002 B3F1FF3F 		cmp	r3, #-1
 1143 0006 01D0     		beq	.L105
 1144 0008 406C     		ldr	r0, [r0, #68]
 1145 000a 7047     		bx	lr
 1146              	.L105:
 1147 000c 406A     		ldr	r0, [r0, #36]
 1148 000e 7047     		bx	lr
 1150              		.section	.text.lv_bar_get_start_value,"ax",%progbits
 1151              		.align	1
 1152              		.global	lv_bar_get_start_value
 1153              		.syntax unified
 1154              		.thumb
 1155              		.thumb_func
 1157              	lv_bar_get_start_value:
 1158              		@ args = 0, pretend = 0, frame = 0
 1159              		@ frame_needed = 0, uses_anonymous_args = 0
 1160              		@ link register save eliminated.
 1161 0000 90F85C30 		ldrb	r3, [r0, #92]	@ zero_extendqisi2
 1162 0004 03F00303 		and	r3, r3, #3
 1163 0008 022B     		cmp	r3, #2
 1164 000a 01D0     		beq	.L108
 1165 000c 806A     		ldr	r0, [r0, #40]
 1166 000e 7047     		bx	lr
 1167              	.L108:
 1168 0010 836D     		ldr	r3, [r0, #88]
 1169 0012 B3F1FF3F 		cmp	r3, #-1
 1170 0016 01D0     		beq	.L110
 1171 0018 406D     		ldr	r0, [r0, #84]
ARM GAS  /var/folders/lp/x54gwt890xv47sdkqj1k04q40000gn/T//ccHkQrvm.s 			page 21


 1172 001a 7047     		bx	lr
 1173              	.L110:
 1174 001c 006B     		ldr	r0, [r0, #48]
 1175 001e 7047     		bx	lr
 1177              		.section	.text.lv_bar_get_min_value,"ax",%progbits
 1178              		.align	1
 1179              		.global	lv_bar_get_min_value
 1180              		.syntax unified
 1181              		.thumb
 1182              		.thumb_func
 1184              	lv_bar_get_min_value:
 1185              		@ args = 0, pretend = 0, frame = 0
 1186              		@ frame_needed = 0, uses_anonymous_args = 0
 1187              		@ link register save eliminated.
 1188 0000 806A     		ldr	r0, [r0, #40]
 1189 0002 7047     		bx	lr
 1191              		.section	.text.lv_bar_get_max_value,"ax",%progbits
 1192              		.align	1
 1193              		.global	lv_bar_get_max_value
 1194              		.syntax unified
 1195              		.thumb
 1196              		.thumb_func
 1198              	lv_bar_get_max_value:
 1199              		@ args = 0, pretend = 0, frame = 0
 1200              		@ frame_needed = 0, uses_anonymous_args = 0
 1201              		@ link register save eliminated.
 1202 0000 C06A     		ldr	r0, [r0, #44]
 1203 0002 7047     		bx	lr
 1205              		.section	.text.lv_bar_get_mode,"ax",%progbits
 1206              		.align	1
 1207              		.global	lv_bar_get_mode
 1208              		.syntax unified
 1209              		.thumb
 1210              		.thumb_func
 1212              	lv_bar_get_mode:
 1213              		@ args = 0, pretend = 0, frame = 0
 1214              		@ frame_needed = 0, uses_anonymous_args = 0
 1215              		@ link register save eliminated.
 1216 0000 90F85C00 		ldrb	r0, [r0, #92]	@ zero_extendqisi2
 1217 0004 00F00300 		and	r0, r0, #3
 1218 0008 7047     		bx	lr
 1220              		.section	.text.lv_bar_set_range,"ax",%progbits
 1221              		.align	1
 1222              		.global	lv_bar_set_range
 1223              		.syntax unified
 1224              		.thumb
 1225              		.thumb_func
 1227              	lv_bar_set_range:
 1228              		@ args = 0, pretend = 0, frame = 0
 1229              		@ frame_needed = 0, uses_anonymous_args = 0
 1230 0000 70B5     		push	{r4, r5, r6, lr}
 1231 0002 0446     		mov	r4, r0
 1232 0004 0D46     		mov	r5, r1
 1233 0006 1646     		mov	r6, r2
 1234 0008 836A     		ldr	r3, [r0, #40]
 1235 000a 8B42     		cmp	r3, r1
 1236 000c 11D0     		beq	.L121
ARM GAS  /var/folders/lp/x54gwt890xv47sdkqj1k04q40000gn/T//ccHkQrvm.s 			page 22


 1237              	.L115:
 1238 000e E662     		str	r6, [r4, #44]
 1239 0010 A562     		str	r5, [r4, #40]
 1240 0012 2046     		mov	r0, r4
 1241 0014 FFF7FEFF 		bl	lv_bar_get_mode
 1242 0018 0228     		cmp	r0, #2
 1243 001a 00D0     		beq	.L117
 1244 001c 2563     		str	r5, [r4, #48]
 1245              	.L117:
 1246 001e 636A     		ldr	r3, [r4, #36]
 1247 0020 B342     		cmp	r3, r6
 1248 0022 0ADC     		bgt	.L122
 1249              	.L118:
 1250 0024 636A     		ldr	r3, [r4, #36]
 1251 0026 AB42     		cmp	r3, r5
 1252 0028 0EDB     		blt	.L123
 1253              	.L119:
 1254 002a 2046     		mov	r0, r4
 1255 002c FFF7FEFF 		bl	lv_obj_invalidate
 1256              	.L114:
 1257 0030 70BD     		pop	{r4, r5, r6, pc}
 1258              	.L121:
 1259 0032 C36A     		ldr	r3, [r0, #44]
 1260 0034 9342     		cmp	r3, r2
 1261 0036 EAD1     		bne	.L115
 1262 0038 FAE7     		b	.L114
 1263              	.L122:
 1264 003a 6662     		str	r6, [r4, #36]
 1265 003c 0022     		movs	r2, #0
 1266 003e 3146     		mov	r1, r6
 1267 0040 2046     		mov	r0, r4
 1268 0042 FFF7FEFF 		bl	lv_bar_set_value
 1269 0046 EDE7     		b	.L118
 1270              	.L123:
 1271 0048 6562     		str	r5, [r4, #36]
 1272 004a 0022     		movs	r2, #0
 1273 004c 2946     		mov	r1, r5
 1274 004e 2046     		mov	r0, r4
 1275 0050 FFF7FEFF 		bl	lv_bar_set_value
 1276 0054 E9E7     		b	.L119
 1278              		.global	lv_bar_class
 1279              		.section	.rodata.lv_bar_class,"a"
 1280              		.align	2
 1283              	lv_bar_class:
 1284 0000 00000000 		.word	lv_obj_class
 1285 0004 00000000 		.word	lv_bar_constructor
 1286 0008 00000000 		.word	lv_bar_destructor
 1287 000c 00000000 		.space	4
 1288 0010 00000000 		.word	lv_bar_event
 1289 0014 0401     		.short	260
 1290 0016 0D00     		.short	13
 1291 0018 00       		.byte	0
 1292 0019 06       		.byte	6
 1293 001a 00       		.byte	0
 1294 001b 00       		.space	1
 1295              		.ident	"GCC: (xPack GNU Arm Embedded GCC arm64) 13.3.1 20240614"
ARM GAS  /var/folders/lp/x54gwt890xv47sdkqj1k04q40000gn/T//ccHkQrvm.s 			page 23

