ARM GAS  /var/folders/lp/x54gwt890xv47sdkqj1k04q40000gn/T//ccvwTyVV.s 			page 1


   1              		.cpu cortex-m4
   2              		.arch armv7e-m
   3              		.fpu fpv4-sp-d16
   4              		.eabi_attribute 27, 1
   5              		.eabi_attribute 28, 1
   6              		.eabi_attribute 20, 1
   7              		.eabi_attribute 21, 1
   8              		.eabi_attribute 23, 3
   9              		.eabi_attribute 24, 1
  10              		.eabi_attribute 25, 1
  11              		.eabi_attribute 26, 1
  12              		.eabi_attribute 30, 1
  13              		.eabi_attribute 34, 1
  14              		.eabi_attribute 18, 4
  15              		.file	"lv_calendar.c"
  16              		.text
  17              		.section	.text.is_leap_year,"ax",%progbits
  18              		.align	1
  19              		.syntax unified
  20              		.thumb
  21              		.thumb_func
  23              	is_leap_year:
  24              		@ args = 0, pretend = 0, frame = 0
  25              		@ frame_needed = 0, uses_anonymous_args = 0
  26              		@ link register save eliminated.
  27 0000 10F0030F 		tst	r0, #3
  28 0004 12D1     		bne	.L3
  29 0006 0C4B     		ldr	r3, .L6
  30 0008 A3FB0023 		umull	r2, r3, r3, r0
  31 000c 5B09     		lsrs	r3, r3, #5
  32 000e 6422     		movs	r2, #100
  33 0010 02FB1303 		mls	r3, r2, r3, r0
  34 0014 63B9     		cbnz	r3, .L4
  35 0016 084B     		ldr	r3, .L6
  36 0018 A3FB0023 		umull	r2, r3, r3, r0
  37 001c DB09     		lsrs	r3, r3, #7
  38 001e 4FF4C872 		mov	r2, #400
  39 0022 02FB1303 		mls	r3, r2, r3, r0
  40 0026 2BB1     		cbz	r3, .L5
  41 0028 0020     		movs	r0, #0
  42 002a 7047     		bx	lr
  43              	.L3:
  44 002c 0020     		movs	r0, #0
  45 002e 7047     		bx	lr
  46              	.L4:
  47 0030 0120     		movs	r0, #1
  48 0032 7047     		bx	lr
  49              	.L5:
  50 0034 0120     		movs	r0, #1
  51 0036 7047     		bx	lr
  52              	.L7:
  53              		.align	2
  54              	.L6:
  55 0038 1F85EB51 		.word	1374389535
  57              		.section	.text.get_month_length,"ax",%progbits
  58              		.align	1
  59              		.syntax unified
ARM GAS  /var/folders/lp/x54gwt890xv47sdkqj1k04q40000gn/T//ccvwTyVV.s 			page 2


  60              		.thumb
  61              		.thumb_func
  63              	get_month_length:
  64              		@ args = 0, pretend = 0, frame = 0
  65              		@ frame_needed = 0, uses_anonymous_args = 0
  66 0000 08B5     		push	{r3, lr}
  67 0002 4A1E     		subs	r2, r1, #1
  68 0004 18D4     		bmi	.L14
  69              	.L9:
  70 0006 0B2A     		cmp	r2, #11
  71 0008 01DD     		ble	.L10
  72 000a 0130     		adds	r0, r0, #1
  73 000c 0C3A     		subs	r2, r2, #12
  74              	.L10:
  75 000e 012A     		cmp	r2, #1
  76 0010 16D0     		beq	.L15
  77 0012 0E49     		ldr	r1, .L16
  78 0014 81FB0231 		smull	r3, r1, r1, r2
  79 0018 1144     		add	r1, r1, r2
  80 001a D317     		asrs	r3, r2, #31
  81 001c C3EBA103 		rsb	r3, r3, r1, asr #2
  82 0020 C3EBC303 		rsb	r3, r3, r3, lsl #3
  83 0024 D31A     		subs	r3, r2, r3
  84 0026 03F00103 		and	r3, r3, #1
  85 002a 48BF     		it	mi
  86 002c 5B42     		rsbmi	r3, r3, #0
  87 002e D8B2     		uxtb	r0, r3
  88 0030 C0F11F00 		rsb	r0, r0, #31
  89 0034 C0B2     		uxtb	r0, r0
  90              	.L12:
  91 0036 08BD     		pop	{r3, pc}
  92              	.L14:
  93 0038 0138     		subs	r0, r0, #1
  94 003a 01F10B02 		add	r2, r1, #11
  95 003e E2E7     		b	.L9
  96              	.L15:
  97 0040 FFF7FEFF 		bl	is_leap_year
  98 0044 1C30     		adds	r0, r0, #28
  99 0046 C0B2     		uxtb	r0, r0
 100 0048 F5E7     		b	.L12
 101              	.L17:
 102 004a 00BF     		.align	2
 103              	.L16:
 104 004c 93244992 		.word	-1840700269
 106              		.section	.text.get_day_of_week,"ax",%progbits
 107              		.align	1
 108              		.syntax unified
 109              		.thumb
 110              		.thumb_func
 112              	get_day_of_week:
 113              		@ args = 0, pretend = 0, frame = 0
 114              		@ frame_needed = 0, uses_anonymous_args = 0
 115              		@ link register save eliminated.
 116 0000 0229     		cmp	r1, #2
 117 0002 8CBF     		ite	hi
 118 0004 0023     		movhi	r3, #0
 119 0006 0123     		movls	r3, #1
ARM GAS  /var/folders/lp/x54gwt890xv47sdkqj1k04q40000gn/T//ccvwTyVV.s 			page 3


 120 0008 C01A     		subs	r0, r0, r3
 121 000a 03EB4303 		add	r3, r3, r3, lsl #1
 122 000e 01EB8301 		add	r1, r1, r3, lsl #2
 123 0012 C1EB4111 		rsb	r1, r1, r1, lsl #5
 124 0016 3E39     		subs	r1, r1, #62
 125 0018 0D4B     		ldr	r3, .L19
 126 001a A3FB0131 		umull	r3, r1, r3, r1
 127 001e 02EBD103 		add	r3, r2, r1, lsr #3
 128 0022 0344     		add	r3, r3, r0
 129 0024 03EB9003 		add	r3, r3, r0, lsr #2
 130 0028 0A4A     		ldr	r2, .L19+4
 131 002a A2FB0020 		umull	r2, r0, r2, r0
 132 002e A3EB5013 		sub	r3, r3, r0, lsr #5
 133 0032 03EBD013 		add	r3, r3, r0, lsr #7
 134 0036 0848     		ldr	r0, .L19+8
 135 0038 A0FB0320 		umull	r2, r0, r0, r3
 136 003c 1A1A     		subs	r2, r3, r0
 137 003e 00EB5200 		add	r0, r0, r2, lsr #1
 138 0042 8008     		lsrs	r0, r0, #2
 139 0044 C0EBC000 		rsb	r0, r0, r0, lsl #3
 140 0048 181A     		subs	r0, r3, r0
 141 004a C0B2     		uxtb	r0, r0
 142 004c 7047     		bx	lr
 143              	.L20:
 144 004e 00BF     		.align	2
 145              	.L19:
 146 0050 ABAAAAAA 		.word	-1431655765
 147 0054 1F85EB51 		.word	1374389535
 148 0058 25499224 		.word	613566757
 150              		.section	.text.draw_part_begin_event_cb,"ax",%progbits
 151              		.align	1
 152              		.syntax unified
 153              		.thumb
 154              		.thumb_func
 156              	draw_part_begin_event_cb:
 157              		@ args = 0, pretend = 0, frame = 0
 158              		@ frame_needed = 0, uses_anonymous_args = 0
 159 0000 70B5     		push	{r4, r5, r6, lr}
 160 0002 0446     		mov	r4, r0
 161 0004 FFF7FEFF 		bl	lv_event_get_target
 162 0008 0546     		mov	r5, r0
 163 000a 2046     		mov	r0, r4
 164 000c FFF7FEFF 		bl	lv_event_get_param
 165 0010 436B     		ldr	r3, [r0, #52]
 166 0012 B3F5A02F 		cmp	r3, #327680
 167 0016 00D0     		beq	.L27
 168              	.L21:
 169 0018 70BD     		pop	{r4, r5, r6, pc}
 170              	.L27:
 171 001a 0446     		mov	r4, r0
 172 001c 816B     		ldr	r1, [r0, #56]
 173 001e 0629     		cmp	r1, #6
 174 0020 22D8     		bhi	.L23
 175 0022 0269     		ldr	r2, [r0, #16]
 176 0024 0023     		movs	r3, #0
 177 0026 D370     		strb	r3, [r2, #3]
 178 0028 0269     		ldr	r2, [r0, #16]
ARM GAS  /var/folders/lp/x54gwt890xv47sdkqj1k04q40000gn/T//ccvwTyVV.s 			page 4


 179 002a 82F82230 		strb	r3, [r2, #34]
 180              	.L24:
 181 002e 4FF40042 		mov	r2, #32768
 182 0032 218F     		ldrh	r1, [r4, #56]
 183 0034 2846     		mov	r0, r5
 184 0036 FFF7FEFF 		bl	lv_btnmatrix_has_btn_ctrl
 185 003a 40BB     		cbnz	r0, .L28
 186              	.L25:
 187 003c 4FF48042 		mov	r2, #16384
 188 0040 218F     		ldrh	r1, [r4, #56]
 189 0042 2846     		mov	r0, r5
 190 0044 FFF7FEFF 		bl	lv_btnmatrix_has_btn_ctrl
 191 0048 0028     		cmp	r0, #0
 192 004a E5D0     		beq	.L21
 193 004c 2369     		ldr	r3, [r4, #16]
 194 004e FF22     		movs	r2, #255
 195 0050 83F82220 		strb	r2, [r3, #34]
 196 0054 2669     		ldr	r6, [r4, #16]
 197 0056 2846     		mov	r0, r5
 198 0058 FFF7FEFF 		bl	lv_theme_get_color_primary
 199 005c F083     		strh	r0, [r6, #30]	@ movhi
 200 005e 2269     		ldr	r2, [r4, #16]
 201 0060 138C     		ldrh	r3, [r2, #32]
 202 0062 0133     		adds	r3, r3, #1
 203 0064 1384     		strh	r3, [r2, #32]	@ movhi
 204 0066 D7E7     		b	.L21
 205              	.L23:
 206 0068 4022     		movs	r2, #64
 207 006a 89B2     		uxth	r1, r1
 208 006c 2846     		mov	r0, r5
 209 006e FFF7FEFF 		bl	lv_btnmatrix_has_btn_ctrl
 210 0072 0028     		cmp	r0, #0
 211 0074 DBD0     		beq	.L24
 212 0076 2269     		ldr	r2, [r4, #16]
 213 0078 0023     		movs	r3, #0
 214 007a D370     		strb	r3, [r2, #3]
 215 007c 2269     		ldr	r2, [r4, #16]
 216 007e 82F82230 		strb	r3, [r2, #34]
 217 0082 6669     		ldr	r6, [r4, #20]
 218 0084 1220     		movs	r0, #18
 219 0086 FFF7FEFF 		bl	lv_palette_main
 220 008a B081     		strh	r0, [r6, #12]	@ movhi
 221 008c CFE7     		b	.L24
 222              	.L28:
 223 008e 2369     		ldr	r3, [r4, #16]
 224 0090 6622     		movs	r2, #102
 225 0092 DA70     		strb	r2, [r3, #3]
 226 0094 2669     		ldr	r6, [r4, #16]
 227 0096 2846     		mov	r0, r5
 228 0098 FFF7FEFF 		bl	lv_theme_get_color_primary
 229 009c B080     		strh	r0, [r6, #4]	@ movhi
 230 009e 2846     		mov	r0, r5
 231 00a0 FFF7FEFF 		bl	lv_btnmatrix_get_selected_btn
 232 00a4 A36B     		ldr	r3, [r4, #56]
 233 00a6 9842     		cmp	r0, r3
 234 00a8 C8D1     		bne	.L25
 235 00aa 2369     		ldr	r3, [r4, #16]
ARM GAS  /var/folders/lp/x54gwt890xv47sdkqj1k04q40000gn/T//ccvwTyVV.s 			page 5


 236 00ac B222     		movs	r2, #178
 237 00ae DA70     		strb	r2, [r3, #3]
 238 00b0 C4E7     		b	.L25
 240              		.section	.text.highlight_update,"ax",%progbits
 241              		.align	1
 242              		.syntax unified
 243              		.thumb
 244              		.thumb_func
 246              	highlight_update:
 247              		@ args = 0, pretend = 0, frame = 0
 248              		@ frame_needed = 0, uses_anonymous_args = 0
 249 0000 70B5     		push	{r4, r5, r6, lr}
 250 0002 0546     		mov	r5, r0
 251 0004 4FF44041 		mov	r1, #49152
 252 0008 406A     		ldr	r0, [r0, #36]
 253 000a FFF7FEFF 		bl	lv_btnmatrix_clear_btn_ctrl_all
 254 000e 0122     		movs	r2, #1
 255 0010 95F92E10 		ldrsb	r1, [r5, #46]
 256 0014 A88D     		ldrh	r0, [r5, #44]
 257 0016 FFF7FEFF 		bl	get_day_of_week
 258 001a 0646     		mov	r6, r0
 259 001c 2B6B     		ldr	r3, [r5, #48]
 260 001e 0BB3     		cbz	r3, .L31
 261 0020 0024     		movs	r4, #0
 262 0022 01E0     		b	.L30
 263              	.L32:
 264 0024 0134     		adds	r4, r4, #1
 265 0026 A4B2     		uxth	r4, r4
 266              	.L30:
 267 0028 AB8E     		ldrh	r3, [r5, #52]
 268 002a A342     		cmp	r3, r4
 269 002c 1AD9     		bls	.L31
 270 002e 2B6B     		ldr	r3, [r5, #48]
 271 0030 03EB8401 		add	r1, r3, r4, lsl #2
 272 0034 33F82420 		ldrh	r2, [r3, r4, lsl #2]
 273 0038 AB8D     		ldrh	r3, [r5, #44]
 274 003a 9A42     		cmp	r2, r3
 275 003c F2D1     		bne	.L32
 276 003e 91F90220 		ldrsb	r2, [r1, #2]
 277 0042 95F92E30 		ldrsb	r3, [r5, #46]
 278 0046 9A42     		cmp	r2, r3
 279 0048 ECD1     		bne	.L32
 280 004a 91F90310 		ldrsb	r1, [r1, #3]
 281 004e 16FA81F1 		uxtah	r1, r6, r1
 282 0052 89B2     		uxth	r1, r1
 283 0054 0631     		adds	r1, r1, #6
 284 0056 4FF40042 		mov	r2, #32768
 285 005a 89B2     		uxth	r1, r1
 286 005c 686A     		ldr	r0, [r5, #36]
 287 005e FFF7FEFF 		bl	lv_btnmatrix_set_btn_ctrl
 288 0062 DFE7     		b	.L32
 289              	.L31:
 290 0064 EB6A     		ldr	r3, [r5, #44]
 291 0066 AA6A     		ldr	r2, [r5, #40]
 292 0068 5340     		eors	r3, r3, r2
 293 006a 33F07F43 		bics	r3, r3, #-16777216
 294 006e 00D0     		beq	.L37
ARM GAS  /var/folders/lp/x54gwt890xv47sdkqj1k04q40000gn/T//ccvwTyVV.s 			page 6


 295              	.L29:
 296 0070 70BD     		pop	{r4, r5, r6, pc}
 297              	.L37:
 298 0072 95F92B10 		ldrsb	r1, [r5, #43]
 299 0076 16FA81F1 		uxtah	r1, r6, r1
 300 007a 89B2     		uxth	r1, r1
 301 007c 0631     		adds	r1, r1, #6
 302 007e 4FF48042 		mov	r2, #16384
 303 0082 89B2     		uxth	r1, r1
 304 0084 686A     		ldr	r0, [r5, #36]
 305 0086 FFF7FEFF 		bl	lv_btnmatrix_set_btn_ctrl
 306 008a F1E7     		b	.L29
 308              		.section	.text.lv_calendar_create,"ax",%progbits
 309              		.align	1
 310              		.global	lv_calendar_create
 311              		.syntax unified
 312              		.thumb
 313              		.thumb_func
 315              	lv_calendar_create:
 316              		@ args = 0, pretend = 0, frame = 0
 317              		@ frame_needed = 0, uses_anonymous_args = 0
 318 0000 10B5     		push	{r4, lr}
 319 0002 0146     		mov	r1, r0
 320 0004 0348     		ldr	r0, .L40
 321 0006 FFF7FEFF 		bl	lv_obj_class_create_obj
 322 000a 0446     		mov	r4, r0
 323 000c FFF7FEFF 		bl	lv_obj_class_init_obj
 324 0010 2046     		mov	r0, r4
 325 0012 10BD     		pop	{r4, pc}
 326              	.L41:
 327              		.align	2
 328              	.L40:
 329 0014 00000000 		.word	lv_calendar_class
 331              		.section	.text.lv_calendar_set_day_names,"ax",%progbits
 332              		.align	1
 333              		.global	lv_calendar_set_day_names
 334              		.syntax unified
 335              		.thumb
 336              		.thumb_func
 338              	lv_calendar_set_day_names:
 339              		@ args = 0, pretend = 0, frame = 0
 340              		@ frame_needed = 0, uses_anonymous_args = 0
 341 0000 10B5     		push	{r4, lr}
 342 0002 0023     		movs	r3, #0
 343 0004 06E0     		b	.L43
 344              	.L44:
 345 0006 03F10E02 		add	r2, r3, #14
 346 000a 51F82340 		ldr	r4, [r1, r3, lsl #2]
 347 000e 40F82240 		str	r4, [r0, r2, lsl #2]
 348 0012 0133     		adds	r3, r3, #1
 349              	.L43:
 350 0014 062B     		cmp	r3, #6
 351 0016 F6D9     		bls	.L44
 352 0018 FFF7FEFF 		bl	lv_obj_invalidate
 353 001c 10BD     		pop	{r4, pc}
 355              		.section	.text.lv_calendar_set_today_date,"ax",%progbits
 356              		.align	1
ARM GAS  /var/folders/lp/x54gwt890xv47sdkqj1k04q40000gn/T//ccvwTyVV.s 			page 7


 357              		.global	lv_calendar_set_today_date
 358              		.syntax unified
 359              		.thumb
 360              		.thumb_func
 362              	lv_calendar_set_today_date:
 363              		@ args = 0, pretend = 0, frame = 0
 364              		@ frame_needed = 0, uses_anonymous_args = 0
 365 0000 08B5     		push	{r3, lr}
 366 0002 0185     		strh	r1, [r0, #40]	@ movhi
 367 0004 80F82A20 		strb	r2, [r0, #42]
 368 0008 80F82B30 		strb	r3, [r0, #43]
 369 000c FFF7FEFF 		bl	highlight_update
 370 0010 08BD     		pop	{r3, pc}
 372              		.section	.text.lv_calendar_set_highlighted_dates,"ax",%progbits
 373              		.align	1
 374              		.global	lv_calendar_set_highlighted_dates
 375              		.syntax unified
 376              		.thumb
 377              		.thumb_func
 379              	lv_calendar_set_highlighted_dates:
 380              		@ args = 0, pretend = 0, frame = 0
 381              		@ frame_needed = 0, uses_anonymous_args = 0
 382 0000 29B1     		cbz	r1, .L50
 383 0002 08B5     		push	{r3, lr}
 384 0004 0163     		str	r1, [r0, #48]
 385 0006 8286     		strh	r2, [r0, #52]	@ movhi
 386 0008 FFF7FEFF 		bl	highlight_update
 387 000c 08BD     		pop	{r3, pc}
 388              	.L50:
 389 000e FEE7     		b	.L50
 391              		.section	.rodata.lv_calendar_set_showed_date.str1.4,"aMS",%progbits,1
 392              		.align	2
 393              	.LC0:
 394 0000 256400   		.ascii	"%d\000"
 395              		.section	.text.lv_calendar_set_showed_date,"ax",%progbits
 396              		.align	1
 397              		.global	lv_calendar_set_showed_date
 398              		.syntax unified
 399              		.thumb
 400              		.thumb_func
 402              	lv_calendar_set_showed_date:
 403              		@ args = 0, pretend = 0, frame = 8
 404              		@ frame_needed = 0, uses_anonymous_args = 0
 405 0000 2DE9F04F 		push	{r4, r5, r6, r7, r8, r9, r10, fp, lr}
 406 0004 83B0     		sub	sp, sp, #12
 407 0006 0446     		mov	r4, r0
 408 0008 8B46     		mov	fp, r1
 409 000a 89B2     		uxth	r1, r1
 410 000c 8185     		strh	r1, [r0, #44]	@ movhi
 411 000e 4FFA82FA 		sxtb	r10, r2
 412 0012 80F82EA0 		strb	r10, [r0, #46]
 413 0016 0123     		movs	r3, #1
 414 0018 80F82F30 		strb	r3, [r0, #47]
 415 001c ADF80410 		strh	r1, [sp, #4]	@ movhi
 416 0020 8DF806A0 		strb	r10, [sp, #6]
 417 0024 8DF80730 		strb	r3, [sp, #7]
 418 0028 4021     		movs	r1, #64
ARM GAS  /var/folders/lp/x54gwt890xv47sdkqj1k04q40000gn/T//ccvwTyVV.s 			page 8


 419 002a 406A     		ldr	r0, [r0, #36]
 420 002c FFF7FEFF 		bl	lv_btnmatrix_clear_btn_ctrl_all
 421 0030 0025     		movs	r5, #0
 422 0032 05E0     		b	.L54
 423              	.L55:
 424 0034 4022     		movs	r2, #64
 425 0036 A9B2     		uxth	r1, r5
 426 0038 606A     		ldr	r0, [r4, #36]
 427 003a FFF7FEFF 		bl	lv_btnmatrix_set_btn_ctrl
 428 003e 0135     		adds	r5, r5, #1
 429              	.L54:
 430 0040 062D     		cmp	r5, #6
 431 0042 F7D9     		bls	.L55
 432 0044 1FFA8BFB 		uxth	fp, fp
 433 0048 5146     		mov	r1, r10
 434 004a 5846     		mov	r0, fp
 435 004c FFF7FEFF 		bl	get_month_length
 436 0050 8146     		mov	r9, r0
 437 0052 0122     		movs	r2, #1
 438 0054 5146     		mov	r1, r10
 439 0056 5846     		mov	r0, fp
 440 0058 FFF7FEFF 		bl	get_day_of_week
 441 005c 0746     		mov	r7, r0
 442 005e 8046     		mov	r8, r0
 443 0060 0126     		movs	r6, #1
 444 0062 0CE0     		b	.L56
 445              	.L57:
 446 0064 08F14600 		add	r0, r8, #70
 447 0068 3346     		mov	r3, r6
 448 006a 384A     		ldr	r2, .L70
 449 006c 0421     		movs	r1, #4
 450 006e 04EB8000 		add	r0, r4, r0, lsl #2
 451 0072 FFF7FEFF 		bl	lv_snprintf
 452 0076 08F10108 		add	r8, r8, #1
 453 007a 0136     		adds	r6, r6, #1
 454 007c F6B2     		uxtb	r6, r6
 455              	.L56:
 456 007e 09EB0705 		add	r5, r9, r7
 457 0082 4545     		cmp	r5, r8
 458 0084 EED8     		bhi	.L57
 459 0086 0AF1FF31 		add	r1, r10, #-1
 460 008a 5846     		mov	r0, fp
 461 008c FFF7FEFF 		bl	get_month_length
 462 0090 C61B     		subs	r6, r0, r7
 463 0092 F6B2     		uxtb	r6, r6
 464 0094 0136     		adds	r6, r6, #1
 465 0096 F6B2     		uxtb	r6, r6
 466 0098 4FF00008 		mov	r8, #0
 467 009c 13E0     		b	.L58
 468              	.L59:
 469 009e 08F14600 		add	r0, r8, #70
 470 00a2 3346     		mov	r3, r6
 471 00a4 294A     		ldr	r2, .L70
 472 00a6 0421     		movs	r1, #4
 473 00a8 04EB8000 		add	r0, r4, r0, lsl #2
 474 00ac FFF7FEFF 		bl	lv_snprintf
 475 00b0 08F10701 		add	r1, r8, #7
ARM GAS  /var/folders/lp/x54gwt890xv47sdkqj1k04q40000gn/T//ccvwTyVV.s 			page 9


 476 00b4 4022     		movs	r2, #64
 477 00b6 89B2     		uxth	r1, r1
 478 00b8 606A     		ldr	r0, [r4, #36]
 479 00ba FFF7FEFF 		bl	lv_btnmatrix_set_btn_ctrl
 480 00be 08F10108 		add	r8, r8, #1
 481 00c2 0136     		adds	r6, r6, #1
 482 00c4 F6B2     		uxtb	r6, r6
 483              	.L58:
 484 00c6 B845     		cmp	r8, r7
 485 00c8 E9D3     		bcc	.L59
 486 00ca 0126     		movs	r6, #1
 487 00cc 11E0     		b	.L60
 488              	.L61:
 489 00ce 05F14600 		add	r0, r5, #70
 490 00d2 3346     		mov	r3, r6
 491 00d4 1D4A     		ldr	r2, .L70
 492 00d6 0421     		movs	r1, #4
 493 00d8 04EB8000 		add	r0, r4, r0, lsl #2
 494 00dc FFF7FEFF 		bl	lv_snprintf
 495 00e0 E91D     		adds	r1, r5, #7
 496 00e2 4022     		movs	r2, #64
 497 00e4 89B2     		uxth	r1, r1
 498 00e6 606A     		ldr	r0, [r4, #36]
 499 00e8 FFF7FEFF 		bl	lv_btnmatrix_set_btn_ctrl
 500 00ec 0135     		adds	r5, r5, #1
 501 00ee 0136     		adds	r6, r6, #1
 502 00f0 F6B2     		uxtb	r6, r6
 503              	.L60:
 504 00f2 292D     		cmp	r5, #41
 505 00f4 EBD9     		bls	.L61
 506 00f6 2046     		mov	r0, r4
 507 00f8 FFF7FEFF 		bl	highlight_update
 508 00fc 606A     		ldr	r0, [r4, #36]
 509 00fe FFF7FEFF 		bl	lv_btnmatrix_get_selected_btn
 510 0102 4FF6FF73 		movw	r3, #65535
 511 0106 9842     		cmp	r0, r3
 512 0108 08D1     		bne	.L67
 513              	.L62:
 514 010a 2046     		mov	r0, r4
 515 010c FFF7FEFF 		bl	lv_obj_invalidate
 516 0110 2046     		mov	r0, r4
 517 0112 FFF7FEFF 		bl	lv_obj_get_child_cnt
 518 0116 0646     		mov	r6, r0
 519 0118 0025     		movs	r5, #0
 520 011a 0AE0     		b	.L63
 521              	.L67:
 522 011c F91D     		adds	r1, r7, #7
 523 011e 89B2     		uxth	r1, r1
 524 0120 606A     		ldr	r0, [r4, #36]
 525 0122 FFF7FEFF 		bl	lv_btnmatrix_set_selected_btn
 526 0126 F0E7     		b	.L62
 527              	.L69:
 528 0128 2246     		mov	r2, r4
 529 012a 1C21     		movs	r1, #28
 530 012c FFF7FEFF 		bl	lv_event_send
 531              	.L64:
 532 0130 0135     		adds	r5, r5, #1
ARM GAS  /var/folders/lp/x54gwt890xv47sdkqj1k04q40000gn/T//ccvwTyVV.s 			page 10


 533              	.L63:
 534 0132 B542     		cmp	r5, r6
 535 0134 07D2     		bcs	.L68
 536 0136 2946     		mov	r1, r5
 537 0138 2046     		mov	r0, r4
 538 013a FFF7FEFF 		bl	lv_obj_get_child
 539 013e 636A     		ldr	r3, [r4, #36]
 540 0140 8342     		cmp	r3, r0
 541 0142 F1D1     		bne	.L69
 542 0144 F4E7     		b	.L64
 543              	.L68:
 544 0146 03B0     		add	sp, sp, #12
 545              		@ sp needed
 546 0148 BDE8F08F 		pop	{r4, r5, r6, r7, r8, r9, r10, fp, pc}
 547              	.L71:
 548              		.align	2
 549              	.L70:
 550 014c 00000000 		.word	.LC0
 552              		.section	.rodata.lv_calendar_constructor.str1.4,"aMS",%progbits,1
 553              		.align	2
 554              	.LC1:
 555 0000 0A00     		.ascii	"\012\000"
 556 0002 0000     		.align	2
 557              	.LC2:
 558 0004 00       		.ascii	"\000"
 559              		.section	.text.lv_calendar_constructor,"ax",%progbits
 560              		.align	1
 561              		.syntax unified
 562              		.thumb
 563              		.thumb_func
 565              	lv_calendar_constructor:
 566              		@ args = 0, pretend = 0, frame = 0
 567              		@ frame_needed = 0, uses_anonymous_args = 0
 568 0000 38B5     		push	{r3, r4, r5, lr}
 569 0002 0C46     		mov	r4, r1
 570 0004 40F2E472 		movw	r2, #2020
 571 0008 0A85     		strh	r2, [r1, #40]	@ movhi
 572 000a 0123     		movs	r3, #1
 573 000c 81F82A30 		strb	r3, [r1, #42]
 574 0010 81F82B30 		strb	r3, [r1, #43]
 575 0014 8A85     		strh	r2, [r1, #44]	@ movhi
 576 0016 81F82E30 		strb	r3, [r1, #46]
 577 001a 81F82F30 		strb	r3, [r1, #47]
 578 001e 0025     		movs	r5, #0
 579 0020 0D63     		str	r5, [r1, #48]
 580 0022 8D86     		strh	r5, [r1, #52]	@ movhi
 581 0024 A821     		movs	r1, #168
 582 0026 04F58C70 		add	r0, r4, #280
 583 002a FFF7FEFF 		bl	lv_memset_00
 584 002e 2946     		mov	r1, r5
 585 0030 2B46     		mov	r3, r5
 586 0032 18E0     		b	.L73
 587              	.L75:
 588 0034 062B     		cmp	r3, #6
 589 0036 0DD9     		bls	.L74
 590 0038 01F14600 		add	r0, r1, #70
 591 003c 4FF0780C 		mov	ip, #120
ARM GAS  /var/folders/lp/x54gwt890xv47sdkqj1k04q40000gn/T//ccvwTyVV.s 			page 11


 592 0040 04F820C0 		strb	ip, [r4, r0, lsl #2]
 593 0044 04EB8000 		add	r0, r4, r0, lsl #2
 594 0048 0E32     		adds	r2, r2, #14
 595 004a 44F82200 		str	r0, [r4, r2, lsl #2]
 596 004e 0131     		adds	r1, r1, #1
 597 0050 C9B2     		uxtb	r1, r1
 598 0052 06E0     		b	.L76
 599              	.L74:
 600 0054 274A     		ldr	r2, .L81
 601 0056 52F82300 		ldr	r0, [r2, r3, lsl #2]
 602 005a 03F10E02 		add	r2, r3, #14
 603 005e 44F82200 		str	r0, [r4, r2, lsl #2]
 604              	.L76:
 605 0062 0133     		adds	r3, r3, #1
 606 0064 DBB2     		uxtb	r3, r3
 607              	.L73:
 608 0066 372B     		cmp	r3, #55
 609 0068 0CD8     		bhi	.L80
 610 006a 002B     		cmp	r3, #0
 611 006c F2D0     		beq	.L74
 612 006e 1A46     		mov	r2, r3
 613 0070 581C     		adds	r0, r3, #1
 614 0072 10F0070F 		tst	r0, #7
 615 0076 DDD1     		bne	.L75
 616 0078 03F10E02 		add	r2, r3, #14
 617 007c 1E48     		ldr	r0, .L81+4
 618 007e 44F82200 		str	r0, [r4, r2, lsl #2]
 619 0082 EEE7     		b	.L76
 620              	.L80:
 621 0084 1D4B     		ldr	r3, .L81+8
 622 0086 C4F81431 		str	r3, [r4, #276]
 623 008a 2046     		mov	r0, r4
 624 008c FFF7FEFF 		bl	lv_btnmatrix_create
 625 0090 6062     		str	r0, [r4, #36]
 626 0092 04F13801 		add	r1, r4, #56
 627 0096 FFF7FEFF 		bl	lv_btnmatrix_set_map
 628 009a 4FF40871 		mov	r1, #544
 629 009e 606A     		ldr	r0, [r4, #36]
 630 00a0 FFF7FEFF 		bl	lv_btnmatrix_set_btn_ctrl_all
 631 00a4 0023     		movs	r3, #0
 632 00a6 1A22     		movs	r2, #26
 633 00a8 1549     		ldr	r1, .L81+12
 634 00aa 606A     		ldr	r0, [r4, #36]
 635 00ac FFF7FEFF 		bl	lv_obj_add_event_cb
 636 00b0 42F26401 		movw	r1, #8292
 637 00b4 606A     		ldr	r0, [r4, #36]
 638 00b6 FFF7FEFF 		bl	lv_obj_set_width
 639 00ba 0121     		movs	r1, #1
 640 00bc 2046     		mov	r0, r4
 641 00be FFF7FEFF 		bl	lv_obj_set_flex_flow
 642 00c2 0121     		movs	r1, #1
 643 00c4 606A     		ldr	r0, [r4, #36]
 644 00c6 FFF7FEFF 		bl	lv_obj_set_flex_grow
 645 00ca 94F92E20 		ldrsb	r2, [r4, #46]
 646 00ce A18D     		ldrh	r1, [r4, #44]
 647 00d0 2046     		mov	r0, r4
 648 00d2 FFF7FEFF 		bl	lv_calendar_set_showed_date
ARM GAS  /var/folders/lp/x54gwt890xv47sdkqj1k04q40000gn/T//ccvwTyVV.s 			page 12


 649 00d6 94F92B30 		ldrsb	r3, [r4, #43]
 650 00da 94F92A20 		ldrsb	r2, [r4, #42]
 651 00de 218D     		ldrh	r1, [r4, #40]
 652 00e0 2046     		mov	r0, r4
 653 00e2 FFF7FEFF 		bl	lv_calendar_set_today_date
 654 00e6 4FF48041 		mov	r1, #16384
 655 00ea 606A     		ldr	r0, [r4, #36]
 656 00ec FFF7FEFF 		bl	lv_obj_add_flag
 657 00f0 38BD     		pop	{r3, r4, r5, pc}
 658              	.L82:
 659 00f2 00BF     		.align	2
 660              	.L81:
 661 00f4 00000000 		.word	day_names_def
 662 00f8 00000000 		.word	.LC1
 663 00fc 04000000 		.word	.LC2
 664 0100 00000000 		.word	draw_part_begin_event_cb
 666              		.section	.text.lv_calendar_get_btnmatrix,"ax",%progbits
 667              		.align	1
 668              		.global	lv_calendar_get_btnmatrix
 669              		.syntax unified
 670              		.thumb
 671              		.thumb_func
 673              	lv_calendar_get_btnmatrix:
 674              		@ args = 0, pretend = 0, frame = 0
 675              		@ frame_needed = 0, uses_anonymous_args = 0
 676              		@ link register save eliminated.
 677 0000 406A     		ldr	r0, [r0, #36]
 678 0002 7047     		bx	lr
 680              		.section	.text.lv_calendar_get_today_date,"ax",%progbits
 681              		.align	1
 682              		.global	lv_calendar_get_today_date
 683              		.syntax unified
 684              		.thumb
 685              		.thumb_func
 687              	lv_calendar_get_today_date:
 688              		@ args = 0, pretend = 0, frame = 0
 689              		@ frame_needed = 0, uses_anonymous_args = 0
 690              		@ link register save eliminated.
 691 0000 2830     		adds	r0, r0, #40
 692 0002 7047     		bx	lr
 694              		.section	.text.lv_calendar_get_showed_date,"ax",%progbits
 695              		.align	1
 696              		.global	lv_calendar_get_showed_date
 697              		.syntax unified
 698              		.thumb
 699              		.thumb_func
 701              	lv_calendar_get_showed_date:
 702              		@ args = 0, pretend = 0, frame = 0
 703              		@ frame_needed = 0, uses_anonymous_args = 0
 704              		@ link register save eliminated.
 705 0000 2C30     		adds	r0, r0, #44
 706 0002 7047     		bx	lr
 708              		.section	.text.lv_calendar_get_highlighted_dates,"ax",%progbits
 709              		.align	1
 710              		.global	lv_calendar_get_highlighted_dates
 711              		.syntax unified
 712              		.thumb
ARM GAS  /var/folders/lp/x54gwt890xv47sdkqj1k04q40000gn/T//ccvwTyVV.s 			page 13


 713              		.thumb_func
 715              	lv_calendar_get_highlighted_dates:
 716              		@ args = 0, pretend = 0, frame = 0
 717              		@ frame_needed = 0, uses_anonymous_args = 0
 718              		@ link register save eliminated.
 719 0000 006B     		ldr	r0, [r0, #48]
 720 0002 7047     		bx	lr
 722              		.section	.text.lv_calendar_get_highlighted_dates_num,"ax",%progbits
 723              		.align	1
 724              		.global	lv_calendar_get_highlighted_dates_num
 725              		.syntax unified
 726              		.thumb
 727              		.thumb_func
 729              	lv_calendar_get_highlighted_dates_num:
 730              		@ args = 0, pretend = 0, frame = 0
 731              		@ frame_needed = 0, uses_anonymous_args = 0
 732              		@ link register save eliminated.
 733 0000 808E     		ldrh	r0, [r0, #52]
 734 0002 7047     		bx	lr
 736              		.section	.text.lv_calendar_get_pressed_date,"ax",%progbits
 737              		.align	1
 738              		.global	lv_calendar_get_pressed_date
 739              		.syntax unified
 740              		.thumb
 741              		.thumb_func
 743              	lv_calendar_get_pressed_date:
 744              		@ args = 0, pretend = 0, frame = 0
 745              		@ frame_needed = 0, uses_anonymous_args = 0
 746 0000 70B5     		push	{r4, r5, r6, lr}
 747 0002 0546     		mov	r5, r0
 748 0004 0C46     		mov	r4, r1
 749 0006 406A     		ldr	r0, [r0, #36]
 750 0008 FFF7FEFF 		bl	lv_btnmatrix_get_selected_btn
 751 000c 4FF6FF73 		movw	r3, #65535
 752 0010 9842     		cmp	r0, r3
 753 0012 13D0     		beq	.L94
 754 0014 6E6A     		ldr	r6, [r5, #36]
 755 0016 3046     		mov	r0, r6
 756 0018 FFF7FEFF 		bl	lv_btnmatrix_get_selected_btn
 757 001c 0146     		mov	r1, r0
 758 001e 3046     		mov	r0, r6
 759 0020 FFF7FEFF 		bl	lv_btnmatrix_get_btn_text
 760 0024 4378     		ldrb	r3, [r0, #1]	@ zero_extendqisi2
 761 0026 73B9     		cbnz	r3, .L91
 762 0028 0378     		ldrb	r3, [r0]	@ zero_extendqisi2
 763 002a 303B     		subs	r3, r3, #48
 764 002c E370     		strb	r3, [r4, #3]
 765              	.L92:
 766 002e AB8D     		ldrh	r3, [r5, #44]
 767 0030 2380     		strh	r3, [r4]	@ movhi
 768 0032 95F92E30 		ldrsb	r3, [r5, #46]
 769 0036 A370     		strb	r3, [r4, #2]
 770 0038 0120     		movs	r0, #1
 771              	.L90:
 772 003a 70BD     		pop	{r4, r5, r6, pc}
 773              	.L94:
 774 003c 0020     		movs	r0, #0
ARM GAS  /var/folders/lp/x54gwt890xv47sdkqj1k04q40000gn/T//ccvwTyVV.s 			page 14


 775 003e 2080     		strh	r0, [r4]	@ movhi
 776 0040 A070     		strb	r0, [r4, #2]
 777 0042 E070     		strb	r0, [r4, #3]
 778 0044 F9E7     		b	.L90
 779              	.L91:
 780 0046 0278     		ldrb	r2, [r0]	@ zero_extendqisi2
 781 0048 303A     		subs	r2, r2, #48
 782 004a 02EB8202 		add	r2, r2, r2, lsl #2
 783 004e 03EB4203 		add	r3, r3, r2, lsl #1
 784 0052 303B     		subs	r3, r3, #48
 785 0054 E370     		strb	r3, [r4, #3]
 786 0056 EAE7     		b	.L92
 788              		.section	.rodata.str1.4,"aMS",%progbits,1
 789              		.align	2
 790              	.LC3:
 791 0000 537500   		.ascii	"Su\000"
 792 0003 00       		.align	2
 793              	.LC4:
 794 0004 4D6F00   		.ascii	"Mo\000"
 795 0007 00       		.align	2
 796              	.LC5:
 797 0008 547500   		.ascii	"Tu\000"
 798 000b 00       		.align	2
 799              	.LC6:
 800 000c 576500   		.ascii	"We\000"
 801 000f 00       		.align	2
 802              	.LC7:
 803 0010 546800   		.ascii	"Th\000"
 804 0013 00       		.align	2
 805              	.LC8:
 806 0014 467200   		.ascii	"Fr\000"
 807 0017 00       		.align	2
 808              	.LC9:
 809 0018 536100   		.ascii	"Sa\000"
 810              		.section	.rodata.day_names_def,"a"
 811              		.align	2
 814              	day_names_def:
 815 0000 00000000 		.word	.LC3
 816 0004 04000000 		.word	.LC4
 817 0008 08000000 		.word	.LC5
 818 000c 0C000000 		.word	.LC6
 819 0010 10000000 		.word	.LC7
 820 0014 14000000 		.word	.LC8
 821 0018 18000000 		.word	.LC9
 822              		.global	lv_calendar_class
 823              		.section	.rodata.lv_calendar_class,"a"
 824              		.align	2
 827              	lv_calendar_class:
 828 0000 00000000 		.word	lv_obj_class
 829 0004 00000000 		.word	lv_calendar_constructor
 830 0008 00000000 		.space	12
 830      00000000 
 830      00000000 
 831 0014 C300     		.short	195
 832 0016 C300     		.short	195
 833 0018 04       		.byte	4
 834 0019 1C       		.byte	28
ARM GAS  /var/folders/lp/x54gwt890xv47sdkqj1k04q40000gn/T//ccvwTyVV.s 			page 15


 835 001a 00       		.byte	0
 836 001b 00       		.space	1
 837              		.ident	"GCC: (xPack GNU Arm Embedded GCC arm64) 13.3.1 20240614"
ARM GAS  /var/folders/lp/x54gwt890xv47sdkqj1k04q40000gn/T//ccvwTyVV.s 			page 16

