ARM GAS  /var/folders/lp/x54gwt890xv47sdkqj1k04q40000gn/T//ccqTlidy.s 			page 1


   1              		.cpu cortex-m4
   2              		.arch armv7e-m
   3              		.fpu fpv4-sp-d16
   4              		.eabi_attribute 27, 1
   5              		.eabi_attribute 28, 1
   6              		.eabi_attribute 20, 1
   7              		.eabi_attribute 21, 1
   8              		.eabi_attribute 23, 3
   9              		.eabi_attribute 24, 1
  10              		.eabi_attribute 25, 1
  11              		.eabi_attribute 26, 1
  12              		.eabi_attribute 30, 1
  13              		.eabi_attribute 34, 1
  14              		.eabi_attribute 18, 4
  15              		.file	"lv_calendar_header_arrow.c"
  16              		.text
  17              		.section	.rodata.my_constructor.str1.4,"aMS",%progbits,1
  18              		.align	2
  19              	.LC0:
  20 0000 EF819300 		.ascii	"\357\201\223\000"
  21              		.align	2
  22              	.LC1:
  23 0004 EF819400 		.ascii	"\357\201\224\000"
  24              		.section	.text.my_constructor,"ax",%progbits
  25              		.align	1
  26              		.syntax unified
  27              		.thumb
  28              		.thumb_func
  30              	my_constructor:
  31              		@ args = 0, pretend = 0, frame = 0
  32              		@ frame_needed = 0, uses_anonymous_args = 0
  33 0000 F8B5     		push	{r3, r4, r5, r6, r7, lr}
  34 0002 0C46     		mov	r4, r1
  35 0004 0021     		movs	r1, #0
  36 0006 2046     		mov	r0, r4
  37 0008 FFF7FEFF 		bl	lv_obj_move_to_index
  38 000c 0021     		movs	r1, #0
  39 000e 2046     		mov	r0, r4
  40 0010 FFF7FEFF 		bl	lv_obj_set_flex_flow
  41 0014 0023     		movs	r3, #0
  42 0016 0222     		movs	r2, #2
  43 0018 1946     		mov	r1, r3
  44 001a 2046     		mov	r0, r4
  45 001c FFF7FEFF 		bl	lv_obj_set_flex_align
  46 0020 2046     		mov	r0, r4
  47 0022 FFF7FEFF 		bl	lv_btn_create
  48 0026 0546     		mov	r5, r0
  49 0028 0022     		movs	r2, #0
  50 002a 2849     		ldr	r1, .L3
  51 002c FFF7FEFF 		bl	lv_obj_set_style_bg_img_src
  52 0030 42F26401 		movw	r1, #8292
  53 0034 2846     		mov	r0, r5
  54 0036 FFF7FEFF 		bl	lv_obj_set_height
  55 003a 2846     		mov	r0, r5
  56 003c FFF7FEFF 		bl	lv_obj_update_layout
  57 0040 2846     		mov	r0, r5
  58 0042 FFF7FEFF 		bl	lv_obj_get_height
ARM GAS  /var/folders/lp/x54gwt890xv47sdkqj1k04q40000gn/T//ccqTlidy.s 			page 2


  59 0046 0646     		mov	r6, r0
  60 0048 0146     		mov	r1, r0
  61 004a 2846     		mov	r0, r5
  62 004c FFF7FEFF 		bl	lv_obj_set_width
  63 0050 1F4F     		ldr	r7, .L3+4
  64 0052 0023     		movs	r3, #0
  65 0054 0722     		movs	r2, #7
  66 0056 3946     		mov	r1, r7
  67 0058 2846     		mov	r0, r5
  68 005a FFF7FEFF 		bl	lv_obj_add_event_cb
  69 005e 0421     		movs	r1, #4
  70 0060 2846     		mov	r0, r5
  71 0062 FFF7FEFF 		bl	lv_obj_clear_flag
  72 0066 2046     		mov	r0, r4
  73 0068 FFF7FEFF 		bl	lv_label_create
  74 006c 0546     		mov	r5, r0
  75 006e 0321     		movs	r1, #3
  76 0070 FFF7FEFF 		bl	lv_label_set_long_mode
  77 0074 0022     		movs	r2, #0
  78 0076 0221     		movs	r1, #2
  79 0078 2846     		mov	r0, r5
  80 007a FFF7FEFF 		bl	lv_obj_set_style_text_align
  81 007e 0121     		movs	r1, #1
  82 0080 2846     		mov	r0, r5
  83 0082 FFF7FEFF 		bl	lv_obj_set_flex_grow
  84 0086 2046     		mov	r0, r4
  85 0088 FFF7FEFF 		bl	lv_btn_create
  86 008c 0546     		mov	r5, r0
  87 008e 0022     		movs	r2, #0
  88 0090 1049     		ldr	r1, .L3+8
  89 0092 FFF7FEFF 		bl	lv_obj_set_style_bg_img_src
  90 0096 3246     		mov	r2, r6
  91 0098 3146     		mov	r1, r6
  92 009a 2846     		mov	r0, r5
  93 009c FFF7FEFF 		bl	lv_obj_set_size
  94 00a0 0023     		movs	r3, #0
  95 00a2 0722     		movs	r2, #7
  96 00a4 3946     		mov	r1, r7
  97 00a6 2846     		mov	r0, r5
  98 00a8 FFF7FEFF 		bl	lv_obj_add_event_cb
  99 00ac 0421     		movs	r1, #4
 100 00ae 2846     		mov	r0, r5
 101 00b0 FFF7FEFF 		bl	lv_obj_clear_flag
 102 00b4 0023     		movs	r3, #0
 103 00b6 1C22     		movs	r2, #28
 104 00b8 0749     		ldr	r1, .L3+12
 105 00ba 2046     		mov	r0, r4
 106 00bc FFF7FEFF 		bl	lv_obj_add_event_cb
 107 00c0 0022     		movs	r2, #0
 108 00c2 1C21     		movs	r1, #28
 109 00c4 2046     		mov	r0, r4
 110 00c6 FFF7FEFF 		bl	lv_event_send
 111 00ca F8BD     		pop	{r3, r4, r5, r6, r7, pc}
 112              	.L4:
 113              		.align	2
 114              	.L3:
 115 00cc 00000000 		.word	.LC0
ARM GAS  /var/folders/lp/x54gwt890xv47sdkqj1k04q40000gn/T//ccqTlidy.s 			page 3


 116 00d0 00000000 		.word	month_event_cb
 117 00d4 04000000 		.word	.LC1
 118 00d8 00000000 		.word	value_changed_event_cb
 120              		.section	.rodata.value_changed_event_cb.str1.4,"aMS",%progbits,1
 121              		.align	2
 122              	.LC2:
 123 0000 25642025 		.ascii	"%d %s\000"
 123      7300
 124              		.section	.text.value_changed_event_cb,"ax",%progbits
 125              		.align	1
 126              		.syntax unified
 127              		.thumb
 128              		.thumb_func
 130              	value_changed_event_cb:
 131              		@ args = 0, pretend = 0, frame = 0
 132              		@ frame_needed = 0, uses_anonymous_args = 0
 133 0000 38B5     		push	{r3, r4, r5, lr}
 134 0002 FFF7FEFF 		bl	lv_event_get_target
 135 0006 0546     		mov	r5, r0
 136 0008 FFF7FEFF 		bl	lv_obj_get_parent
 137 000c FFF7FEFF 		bl	lv_calendar_get_showed_date
 138 0010 0446     		mov	r4, r0
 139 0012 0121     		movs	r1, #1
 140 0014 2846     		mov	r0, r5
 141 0016 FFF7FEFF 		bl	lv_obj_get_child
 142 001a 94F90230 		ldrsb	r3, [r4, #2]
 143 001e 013B     		subs	r3, r3, #1
 144 0020 034A     		ldr	r2, .L7
 145 0022 52F82330 		ldr	r3, [r2, r3, lsl #2]
 146 0026 2288     		ldrh	r2, [r4]
 147 0028 0249     		ldr	r1, .L7+4
 148 002a FFF7FEFF 		bl	lv_label_set_text_fmt
 149 002e 38BD     		pop	{r3, r4, r5, pc}
 150              	.L8:
 151              		.align	2
 152              	.L7:
 153 0030 00000000 		.word	month_names_def
 154 0034 00000000 		.word	.LC2
 156              		.section	.text.month_event_cb,"ax",%progbits
 157              		.align	1
 158              		.syntax unified
 159              		.thumb
 160              		.thumb_func
 162              	month_event_cb:
 163              		@ args = 0, pretend = 0, frame = 8
 164              		@ frame_needed = 0, uses_anonymous_args = 0
 165 0000 F0B5     		push	{r4, r5, r6, r7, lr}
 166 0002 83B0     		sub	sp, sp, #12
 167 0004 FFF7FEFF 		bl	lv_event_get_target
 168 0008 0446     		mov	r4, r0
 169 000a FFF7FEFF 		bl	lv_obj_get_parent
 170 000e 0546     		mov	r5, r0
 171 0010 FFF7FEFF 		bl	lv_obj_get_parent
 172 0014 0646     		mov	r6, r0
 173 0016 FFF7FEFF 		bl	lv_calendar_get_showed_date
 174 001a 0068     		ldr	r0, [r0]	@ unaligned
 175 001c 0190     		str	r0, [sp, #4]
ARM GAS  /var/folders/lp/x54gwt890xv47sdkqj1k04q40000gn/T//ccqTlidy.s 			page 4


 176 001e 0021     		movs	r1, #0
 177 0020 2846     		mov	r0, r5
 178 0022 FFF7FEFF 		bl	lv_obj_get_child
 179 0026 8442     		cmp	r4, r0
 180 0028 1DD0     		beq	.L15
 181 002a 9DF90630 		ldrsb	r3, [sp, #6]
 182 002e 0C2B     		cmp	r3, #12
 183 0030 2AD0     		beq	.L16
 184 0032 0133     		adds	r3, r3, #1
 185 0034 8DF80630 		strb	r3, [sp, #6]
 186              	.L12:
 187 0038 BDF80470 		ldrh	r7, [sp, #4]
 188 003c 9DF90640 		ldrsb	r4, [sp, #6]
 189 0040 2246     		mov	r2, r4
 190 0042 3946     		mov	r1, r7
 191 0044 3046     		mov	r0, r6
 192 0046 FFF7FEFF 		bl	lv_calendar_set_showed_date
 193 004a 0121     		movs	r1, #1
 194 004c 2846     		mov	r0, r5
 195 004e FFF7FEFF 		bl	lv_obj_get_child
 196 0052 013C     		subs	r4, r4, #1
 197 0054 114B     		ldr	r3, .L18
 198 0056 53F82430 		ldr	r3, [r3, r4, lsl #2]
 199 005a 3A46     		mov	r2, r7
 200 005c 1049     		ldr	r1, .L18+4
 201 005e FFF7FEFF 		bl	lv_label_set_text_fmt
 202 0062 03B0     		add	sp, sp, #12
 203              		@ sp needed
 204 0064 F0BD     		pop	{r4, r5, r6, r7, pc}
 205              	.L15:
 206 0066 9DF90630 		ldrsb	r3, [sp, #6]
 207 006a 012B     		cmp	r3, #1
 208 006c 03D0     		beq	.L17
 209 006e 013B     		subs	r3, r3, #1
 210 0070 8DF80630 		strb	r3, [sp, #6]
 211 0074 E0E7     		b	.L12
 212              	.L17:
 213 0076 0C23     		movs	r3, #12
 214 0078 8DF80630 		strb	r3, [sp, #6]
 215 007c BDF80430 		ldrh	r3, [sp, #4]
 216 0080 013B     		subs	r3, r3, #1
 217 0082 ADF80430 		strh	r3, [sp, #4]	@ movhi
 218 0086 D7E7     		b	.L12
 219              	.L16:
 220 0088 0123     		movs	r3, #1
 221 008a 8DF80630 		strb	r3, [sp, #6]
 222 008e BDF80430 		ldrh	r3, [sp, #4]
 223 0092 0133     		adds	r3, r3, #1
 224 0094 ADF80430 		strh	r3, [sp, #4]	@ movhi
 225 0098 CEE7     		b	.L12
 226              	.L19:
 227 009a 00BF     		.align	2
 228              	.L18:
 229 009c 00000000 		.word	month_names_def
 230 00a0 00000000 		.word	.LC2
 232              		.section	.text.lv_calendar_header_arrow_create,"ax",%progbits
 233              		.align	1
ARM GAS  /var/folders/lp/x54gwt890xv47sdkqj1k04q40000gn/T//ccqTlidy.s 			page 5


 234              		.global	lv_calendar_header_arrow_create
 235              		.syntax unified
 236              		.thumb
 237              		.thumb_func
 239              	lv_calendar_header_arrow_create:
 240              		@ args = 0, pretend = 0, frame = 0
 241              		@ frame_needed = 0, uses_anonymous_args = 0
 242 0000 10B5     		push	{r4, lr}
 243 0002 0146     		mov	r1, r0
 244 0004 0348     		ldr	r0, .L22
 245 0006 FFF7FEFF 		bl	lv_obj_class_create_obj
 246 000a 0446     		mov	r4, r0
 247 000c FFF7FEFF 		bl	lv_obj_class_init_obj
 248 0010 2046     		mov	r0, r4
 249 0012 10BD     		pop	{r4, pc}
 250              	.L23:
 251              		.align	2
 252              	.L22:
 253 0014 00000000 		.word	lv_calendar_header_arrow_class
 255              		.section	.rodata.str1.4,"aMS",%progbits,1
 256              		.align	2
 257              	.LC3:
 258 0000 4A616E75 		.ascii	"January\000"
 258      61727900 
 259              		.align	2
 260              	.LC4:
 261 0008 46656272 		.ascii	"February\000"
 261      75617279 
 261      00
 262 0011 000000   		.align	2
 263              	.LC5:
 264 0014 4D617263 		.ascii	"March\000"
 264      6800
 265 001a 0000     		.align	2
 266              	.LC6:
 267 001c 41707269 		.ascii	"April\000"
 267      6C00
 268 0022 0000     		.align	2
 269              	.LC7:
 270 0024 4D617900 		.ascii	"May\000"
 271              		.align	2
 272              	.LC8:
 273 0028 4A756E65 		.ascii	"June\000"
 273      00
 274 002d 000000   		.align	2
 275              	.LC9:
 276 0030 4A756C79 		.ascii	"July\000"
 276      00
 277 0035 000000   		.align	2
 278              	.LC10:
 279 0038 41756775 		.ascii	"August\000"
 279      737400
 280 003f 00       		.align	2
 281              	.LC11:
 282 0040 53657074 		.ascii	"September\000"
 282      656D6265 
 282      7200
ARM GAS  /var/folders/lp/x54gwt890xv47sdkqj1k04q40000gn/T//ccqTlidy.s 			page 6


 283 004a 0000     		.align	2
 284              	.LC12:
 285 004c 4F63746F 		.ascii	"October\000"
 285      62657200 
 286              		.align	2
 287              	.LC13:
 288 0054 4E6F7665 		.ascii	"November\000"
 288      6D626572 
 288      00
 289 005d 000000   		.align	2
 290              	.LC14:
 291 0060 44656365 		.ascii	"December\000"
 291      6D626572 
 291      00
 292              		.section	.rodata.month_names_def,"a"
 293              		.align	2
 296              	month_names_def:
 297 0000 00000000 		.word	.LC3
 298 0004 08000000 		.word	.LC4
 299 0008 14000000 		.word	.LC5
 300 000c 1C000000 		.word	.LC6
 301 0010 24000000 		.word	.LC7
 302 0014 28000000 		.word	.LC8
 303 0018 30000000 		.word	.LC9
 304 001c 38000000 		.word	.LC10
 305 0020 40000000 		.word	.LC11
 306 0024 4C000000 		.word	.LC12
 307 0028 54000000 		.word	.LC13
 308 002c 60000000 		.word	.LC14
 309              		.global	lv_calendar_header_arrow_class
 310              		.section	.rodata.lv_calendar_header_arrow_class,"a"
 311              		.align	2
 314              	lv_calendar_header_arrow_class:
 315 0000 00000000 		.word	lv_obj_class
 316 0004 00000000 		.word	my_constructor
 317 0008 00000000 		.space	12
 317      00000000 
 317      00000000 
 318 0014 6420     		.short	8292
 319 0016 2B00     		.short	43
 320 0018 00000000 		.space	4
 321              		.ident	"GCC: (xPack GNU Arm Embedded GCC arm64) 13.3.1 20240614"
ARM GAS  /var/folders/lp/x54gwt890xv47sdkqj1k04q40000gn/T//ccqTlidy.s 			page 7

