ARM GAS  /var/folders/lp/x54gwt890xv47sdkqj1k04q40000gn/T//cciGf1Qi.s 			page 1


   1              		.cpu cortex-m4
   2              		.arch armv7e-m
   3              		.fpu fpv4-sp-d16
   4              		.eabi_attribute 27, 1
   5              		.eabi_attribute 28, 1
   6              		.eabi_attribute 20, 1
   7              		.eabi_attribute 21, 1
   8              		.eabi_attribute 23, 3
   9              		.eabi_attribute 24, 1
  10              		.eabi_attribute 25, 1
  11              		.eabi_attribute 26, 1
  12              		.eabi_attribute 30, 1
  13              		.eabi_attribute 34, 1
  14              		.eabi_attribute 18, 4
  15              		.file	"lv_checkbox.c"
  16              		.text
  17              		.section	.text.lv_checkbox_draw,"ax",%progbits
  18              		.align	1
  19              		.syntax unified
  20              		.thumb
  21              		.thumb_func
  23              	lv_checkbox_draw:
  24              		@ args = 0, pretend = 0, frame = 224
  25              		@ frame_needed = 0, uses_anonymous_args = 0
  26 0000 2DE9F04F 		push	{r4, r5, r6, r7, r8, r9, r10, fp, lr}
  27 0004 BDB0     		sub	sp, sp, #244
  28 0006 0546     		mov	r5, r0
  29 0008 FFF7FEFF 		bl	lv_event_get_target
  30 000c 0446     		mov	r4, r0
  31 000e 2846     		mov	r0, r5
  32 0010 FFF7FEFF 		bl	lv_event_get_draw_ctx
  33 0014 0590     		str	r0, [sp, #20]
  34 0016 5722     		movs	r2, #87
  35 0018 0021     		movs	r1, #0
  36 001a 2046     		mov	r0, r4
  37 001c FFF7FEFF 		bl	lv_obj_get_style_prop
  38 0020 0790     		str	r0, [sp, #28]
  39 0022 B0F90810 		ldrsh	r1, [r0, #8]
  40 0026 0691     		str	r1, [sp, #24]
  41 0028 3222     		movs	r2, #50
  42 002a 0021     		movs	r1, #0
  43 002c 2046     		mov	r0, r4
  44 002e FFF7FEFF 		bl	lv_obj_get_style_prop
  45 0032 0646     		mov	r6, r0
  46 0034 1022     		movs	r2, #16
  47 0036 0021     		movs	r1, #0
  48 0038 2046     		mov	r0, r4
  49 003a FFF7FEFF 		bl	lv_obj_get_style_prop
  50 003e B6B2     		uxth	r6, r6
  51 0040 16FA80F0 		uxtah	r0, r6, r0
  52 0044 1FFA80F8 		uxth	r8, r0
  53 0048 1222     		movs	r2, #18
  54 004a 0021     		movs	r1, #0
  55 004c 2046     		mov	r0, r4
  56 004e FFF7FEFF 		bl	lv_obj_get_style_prop
  57 0052 16FA80F5 		uxtah	r5, r6, r0
  58 0056 ADB2     		uxth	r5, r5
ARM GAS  /var/folders/lp/x54gwt890xv47sdkqj1k04q40000gn/T//cciGf1Qi.s 			page 2


  59 0058 1522     		movs	r2, #21
  60 005a 0021     		movs	r1, #0
  61 005c 2046     		mov	r0, r4
  62 005e FFF7FEFF 		bl	lv_obj_get_style_prop
  63 0062 0890     		str	r0, [sp, #32]
  64 0064 1222     		movs	r2, #18
  65 0066 4FF40031 		mov	r1, #131072
  66 006a 2046     		mov	r0, r4
  67 006c FFF7FEFF 		bl	lv_obj_get_style_prop
  68 0070 0746     		mov	r7, r0
  69 0072 1322     		movs	r2, #19
  70 0074 4FF40031 		mov	r1, #131072
  71 0078 2046     		mov	r0, r4
  72 007a FFF7FEFF 		bl	lv_obj_get_style_prop
  73 007e 0646     		mov	r6, r0
  74 0080 1022     		movs	r2, #16
  75 0082 4FF40031 		mov	r1, #131072
  76 0086 2046     		mov	r0, r4
  77 0088 FFF7FEFF 		bl	lv_obj_get_style_prop
  78 008c 8346     		mov	fp, r0
  79 008e 1122     		movs	r2, #17
  80 0090 4FF40031 		mov	r1, #131072
  81 0094 2046     		mov	r0, r4
  82 0096 FFF7FEFF 		bl	lv_obj_get_style_prop
  83 009a 0990     		str	r0, [sp, #36]
  84 009c 6922     		movs	r2, #105
  85 009e 4FF40031 		mov	r1, #131072
  86 00a2 2046     		mov	r0, r4
  87 00a4 FFF7FEFF 		bl	lv_obj_get_style_prop
  88 00a8 0A90     		str	r0, [sp, #40]
  89 00aa 6A22     		movs	r2, #106
  90 00ac 4FF40031 		mov	r1, #131072
  91 00b0 2046     		mov	r0, r4
  92 00b2 FFF7FEFF 		bl	lv_obj_get_style_prop
  93 00b6 0B90     		str	r0, [sp, #44]
  94 00b8 0DF1B809 		add	r9, sp, #184
  95 00bc 4846     		mov	r0, r9
  96 00be FFF7FEFF 		bl	lv_draw_rect_dsc_init
  97 00c2 4A46     		mov	r2, r9
  98 00c4 4FF40031 		mov	r1, #131072
  99 00c8 2046     		mov	r0, r4
 100 00ca FFF7FEFF 		bl	lv_obj_init_draw_rect_dsc
 101 00ce A38A     		ldrh	r3, [r4, #20]
 102 00d0 1D44     		add	r5, r5, r3
 103 00d2 1FFA85FC 		uxth	ip, r5
 104 00d6 28B2     		sxth	r0, r5
 105 00d8 ADF8B000 		strh	r0, [sp, #176]	@ movhi
 106 00dc BDF81830 		ldrh	r3, [sp, #24]
 107 00e0 0CEB0302 		add	r2, ip, r3
 108 00e4 17FA82F2 		uxtah	r2, r7, r2
 109 00e8 16FA82F2 		uxtah	r2, r6, r2
 110 00ec 92B2     		uxth	r2, r2
 111 00ee 013A     		subs	r2, r2, #1
 112 00f0 96B2     		uxth	r6, r2
 113 00f2 12B2     		sxth	r2, r2
 114 00f4 ADF8B420 		strh	r2, [sp, #180]	@ movhi
 115 00f8 E18A     		ldrh	r1, [r4, #22]
ARM GAS  /var/folders/lp/x54gwt890xv47sdkqj1k04q40000gn/T//cciGf1Qi.s 			page 3


 116 00fa 4144     		add	r1, r1, r8
 117 00fc 1FFA81FA 		uxth	r10, r1
 118 0100 09B2     		sxth	r1, r1
 119 0102 ADF8B210 		strh	r1, [sp, #178]	@ movhi
 120 0106 5344     		add	r3, r3, r10
 121 0108 1BFA83F3 		uxtah	r3, fp, r3
 122 010c 099D     		ldr	r5, [sp, #36]
 123 010e 15FA83F3 		uxtah	r3, r5, r3
 124 0112 9BB2     		uxth	r3, r3
 125 0114 013B     		subs	r3, r3, #1
 126 0116 9DB2     		uxth	r5, r3
 127 0118 1BB2     		sxth	r3, r3
 128 011a ADF8B630 		strh	r3, [sp, #182]	@ movhi
 129 011e ADF8A800 		strh	r0, [sp, #168]	@ movhi
 130 0122 ADF8AA10 		strh	r1, [sp, #170]	@ movhi
 131 0126 ADF8AC20 		strh	r2, [sp, #172]	@ movhi
 132 012a ADF8AE30 		strh	r3, [sp, #174]	@ movhi
 133 012e BDF82830 		ldrh	r3, [sp, #40]
 134 0132 ACEB030C 		sub	ip, ip, r3
 135 0136 ADF8A8C0 		strh	ip, [sp, #168]	@ movhi
 136 013a 3344     		add	r3, r3, r6
 137 013c ADF8AC30 		strh	r3, [sp, #172]	@ movhi
 138 0140 BDF82C30 		ldrh	r3, [sp, #44]
 139 0144 AAEB0302 		sub	r2, r10, r3
 140 0148 ADF8AA20 		strh	r2, [sp, #170]	@ movhi
 141 014c 2B44     		add	r3, r3, r5
 142 014e ADF8AE30 		strh	r3, [sp, #174]	@ movhi
 143 0152 0599     		ldr	r1, [sp, #20]
 144 0154 18A8     		add	r0, sp, #96
 145 0156 FFF7FEFF 		bl	lv_obj_draw_dsc_init
 146 015a CDF87090 		str	r9, [sp, #112]
 147 015e 364B     		ldr	r3, .L3
 148 0160 1993     		str	r3, [sp, #100]
 149 0162 0027     		movs	r7, #0
 150 0164 1A97     		str	r7, [sp, #104]
 151 0166 0DF1A80B 		add	fp, sp, #168
 152 016a CDF86CB0 		str	fp, [sp, #108]
 153 016e 4FF40033 		mov	r3, #131072
 154 0172 2593     		str	r3, [sp, #148]
 155 0174 0DF1600C 		add	ip, sp, #96
 156 0178 6246     		mov	r2, ip
 157 017a 1A21     		movs	r1, #26
 158 017c 2046     		mov	r0, r4
 159 017e FFF7FEFF 		bl	lv_event_send
 160 0182 5A46     		mov	r2, fp
 161 0184 4946     		mov	r1, r9
 162 0186 DDF814B0 		ldr	fp, [sp, #20]
 163 018a 5846     		mov	r0, fp
 164 018c FFF7FEFF 		bl	lv_draw_rect
 165 0190 0DF1600C 		add	ip, sp, #96
 166 0194 6246     		mov	r2, ip
 167 0196 1B21     		movs	r1, #27
 168 0198 2046     		mov	r0, r4
 169 019a FFF7FEFF 		bl	lv_event_send
 170 019e 5922     		movs	r2, #89
 171 01a0 3946     		mov	r1, r7
 172 01a2 2046     		mov	r0, r4
ARM GAS  /var/folders/lp/x54gwt890xv47sdkqj1k04q40000gn/T//cciGf1Qi.s 			page 4


 173 01a4 FFF7FEFF 		bl	lv_obj_get_style_prop
 174 01a8 0FFA80F9 		sxth	r9, r0
 175 01ac 5822     		movs	r2, #88
 176 01ae 3946     		mov	r1, r7
 177 01b0 2046     		mov	r0, r4
 178 01b2 FFF7FEFF 		bl	lv_obj_get_style_prop
 179 01b6 616A     		ldr	r1, [r4, #36]
 180 01b8 0297     		str	r7, [sp, #8]
 181 01ba 41F6FF73 		movw	r3, #8191
 182 01be 0193     		str	r3, [sp, #4]
 183 01c0 CDF80090 		str	r9, [sp]
 184 01c4 03B2     		sxth	r3, r0
 185 01c6 079A     		ldr	r2, [sp, #28]
 186 01c8 17A8     		add	r0, sp, #92
 187 01ca FFF7FEFF 		bl	lv_txt_get_size
 188 01ce 0FAB     		add	r3, sp, #60
 189 01d0 1846     		mov	r0, r3
 190 01d2 FFF7FEFF 		bl	lv_draw_label_dsc_init
 191 01d6 0FAB     		add	r3, sp, #60
 192 01d8 1A46     		mov	r2, r3
 193 01da 3946     		mov	r1, r7
 194 01dc 2046     		mov	r0, r4
 195 01de FFF7FEFF 		bl	lv_obj_init_draw_label_dsc
 196 01e2 A5EB0A03 		sub	r3, r5, r10
 197 01e6 9BB2     		uxth	r3, r3
 198 01e8 0133     		adds	r3, r3, #1
 199 01ea 1BB2     		sxth	r3, r3
 200 01ec 0699     		ldr	r1, [sp, #24]
 201 01ee 5B1A     		subs	r3, r3, r1
 202 01f0 03EBD373 		add	r3, r3, r3, lsr #31
 203 01f4 089A     		ldr	r2, [sp, #32]
 204 01f6 1644     		add	r6, r6, r2
 205 01f8 ADF83460 		strh	r6, [sp, #52]	@ movhi
 206 01fc BDF85C20 		ldrh	r2, [sp, #92]
 207 0200 12FA86F6 		uxtah	r6, r2, r6
 208 0204 ADF83860 		strh	r6, [sp, #56]	@ movhi
 209 0208 E28A     		ldrh	r2, [r4, #22]
 210 020a 4244     		add	r2, r2, r8
 211 020c 92B2     		uxth	r2, r2
 212 020e 02EB6303 		add	r3, r2, r3, asr #1
 213 0212 ADF83630 		strh	r3, [sp, #54]	@ movhi
 214 0216 BDF85E20 		ldrh	r2, [sp, #94]
 215 021a 12FA83F3 		uxtah	r3, r2, r3
 216 021e ADF83A30 		strh	r3, [sp, #58]	@ movhi
 217 0222 636A     		ldr	r3, [r4, #36]
 218 0224 0097     		str	r7, [sp]
 219 0226 0DAA     		add	r2, sp, #52
 220 0228 0FA9     		add	r1, sp, #60
 221 022a 5846     		mov	r0, fp
 222 022c FFF7FEFF 		bl	lv_draw_label
 223 0230 3DB0     		add	sp, sp, #244
 224              		@ sp needed
 225 0232 BDE8F08F 		pop	{r4, r5, r6, r7, r8, r9, r10, fp, pc}
 226              	.L4:
 227 0236 00BF     		.align	2
 228              	.L3:
 229 0238 00000000 		.word	lv_checkbox_class
ARM GAS  /var/folders/lp/x54gwt890xv47sdkqj1k04q40000gn/T//cciGf1Qi.s 			page 5


 231              		.section	.text.lv_checkbox_event,"ax",%progbits
 232              		.align	1
 233              		.syntax unified
 234              		.thumb
 235              		.thumb_func
 237              	lv_checkbox_event:
 238              		@ args = 0, pretend = 0, frame = 8
 239              		@ frame_needed = 0, uses_anonymous_args = 0
 240 0000 2DE9F047 		push	{r4, r5, r6, r7, r8, r9, r10, lr}
 241 0004 86B0     		sub	sp, sp, #24
 242 0006 0C46     		mov	r4, r1
 243 0008 4648     		ldr	r0, .L13
 244 000a FFF7FEFF 		bl	lv_obj_event_base
 245 000e 0128     		cmp	r0, #1
 246 0010 02D0     		beq	.L10
 247              	.L5:
 248 0012 06B0     		add	sp, sp, #24
 249              		@ sp needed
 250 0014 BDE8F087 		pop	{r4, r5, r6, r7, r8, r9, r10, pc}
 251              	.L10:
 252 0018 2046     		mov	r0, r4
 253 001a FFF7FEFF 		bl	lv_event_get_code
 254 001e 0546     		mov	r5, r0
 255 0020 2046     		mov	r0, r4
 256 0022 FFF7FEFF 		bl	lv_event_get_target
 257 0026 0646     		mov	r6, r0
 258 0028 2C2D     		cmp	r5, #44
 259 002a 07D0     		beq	.L11
 260 002c 132D     		cmp	r5, #19
 261 002e 68D0     		beq	.L12
 262 0030 152D     		cmp	r5, #21
 263 0032 EED1     		bne	.L5
 264 0034 2046     		mov	r0, r4
 265 0036 FFF7FEFF 		bl	lv_checkbox_draw
 266 003a EAE7     		b	.L5
 267              	.L11:
 268 003c 2046     		mov	r0, r4
 269 003e FFF7FEFF 		bl	lv_event_get_param
 270 0042 0546     		mov	r5, r0
 271 0044 5722     		movs	r2, #87
 272 0046 0021     		movs	r1, #0
 273 0048 3046     		mov	r0, r6
 274 004a FFF7FEFF 		bl	lv_obj_get_style_prop
 275 004e 0746     		mov	r7, r0
 276 0050 B0F90840 		ldrsh	r4, [r0, #8]
 277 0054 5922     		movs	r2, #89
 278 0056 0021     		movs	r1, #0
 279 0058 3046     		mov	r0, r6
 280 005a FFF7FEFF 		bl	lv_obj_get_style_prop
 281 005e 0FFA80F8 		sxth	r8, r0
 282 0062 5822     		movs	r2, #88
 283 0064 0021     		movs	r1, #0
 284 0066 3046     		mov	r0, r6
 285 0068 FFF7FEFF 		bl	lv_obj_get_style_prop
 286 006c 716A     		ldr	r1, [r6, #36]
 287 006e 4FF00009 		mov	r9, #0
 288 0072 CDF80890 		str	r9, [sp, #8]
ARM GAS  /var/folders/lp/x54gwt890xv47sdkqj1k04q40000gn/T//cciGf1Qi.s 			page 6


 289 0076 41F6FF73 		movw	r3, #8191
 290 007a 0193     		str	r3, [sp, #4]
 291 007c CDF80080 		str	r8, [sp]
 292 0080 03B2     		sxth	r3, r0
 293 0082 3A46     		mov	r2, r7
 294 0084 04A8     		add	r0, sp, #16
 295 0086 FFF7FEFF 		bl	lv_txt_get_size
 296 008a 1522     		movs	r2, #21
 297 008c 4946     		mov	r1, r9
 298 008e 3046     		mov	r0, r6
 299 0090 FFF7FEFF 		bl	lv_obj_get_style_prop
 300 0094 0746     		mov	r7, r0
 301 0096 1222     		movs	r2, #18
 302 0098 4FF40031 		mov	r1, #131072
 303 009c 3046     		mov	r0, r6
 304 009e FFF7FEFF 		bl	lv_obj_get_style_prop
 305 00a2 8046     		mov	r8, r0
 306 00a4 1322     		movs	r2, #19
 307 00a6 4FF40031 		mov	r1, #131072
 308 00aa 3046     		mov	r0, r6
 309 00ac FFF7FEFF 		bl	lv_obj_get_style_prop
 310 00b0 8246     		mov	r10, r0
 311 00b2 1022     		movs	r2, #16
 312 00b4 4FF40031 		mov	r1, #131072
 313 00b8 3046     		mov	r0, r6
 314 00ba FFF7FEFF 		bl	lv_obj_get_style_prop
 315 00be 8146     		mov	r9, r0
 316 00c0 1122     		movs	r2, #17
 317 00c2 4FF40031 		mov	r1, #131072
 318 00c6 3046     		mov	r0, r6
 319 00c8 FFF7FEFF 		bl	lv_obj_get_style_prop
 320 00cc A3B2     		uxth	r3, r4
 321 00ce 03EB0802 		add	r2, r3, r8
 322 00d2 1AFA82F2 		uxtah	r2, r10, r2
 323 00d6 ADF81420 		strh	r2, [sp, #20]	@ movhi
 324 00da 4B44     		add	r3, r3, r9
 325 00dc 10FA83F3 		uxtah	r3, r0, r3
 326 00e0 1BB2     		sxth	r3, r3
 327 00e2 ADF81630 		strh	r3, [sp, #22]	@ movhi
 328 00e6 BDF81010 		ldrh	r1, [sp, #16]
 329 00ea 11FA82F2 		uxtah	r2, r1, r2
 330 00ee 17FA82F2 		uxtah	r2, r7, r2
 331 00f2 2A80     		strh	r2, [r5]	@ movhi
 332 00f4 BDF91220 		ldrsh	r2, [sp, #18]
 333 00f8 9342     		cmp	r3, r2
 334 00fa B8BF     		it	lt
 335 00fc 1346     		movlt	r3, r2
 336 00fe 6B80     		strh	r3, [r5, #2]	@ movhi
 337 0100 87E7     		b	.L5
 338              	.L12:
 339 0102 2046     		mov	r0, r4
 340 0104 FFF7FEFF 		bl	lv_event_get_param
 341 0108 0446     		mov	r4, r0
 342 010a 4FF40031 		mov	r1, #131072
 343 010e 3046     		mov	r0, r6
 344 0110 FFF7FEFF 		bl	lv_obj_calculate_ext_draw_size
 345 0114 B4F90030 		ldrsh	r3, [r4]
ARM GAS  /var/folders/lp/x54gwt890xv47sdkqj1k04q40000gn/T//cciGf1Qi.s 			page 7


 346 0118 8342     		cmp	r3, r0
 347 011a B8BF     		it	lt
 348 011c 0346     		movlt	r3, r0
 349 011e 2380     		strh	r3, [r4]	@ movhi
 350 0120 77E7     		b	.L5
 351              	.L14:
 352 0122 00BF     		.align	2
 353              	.L13:
 354 0124 00000000 		.word	lv_checkbox_class
 356              		.section	.text.lv_checkbox_destructor,"ax",%progbits
 357              		.align	1
 358              		.syntax unified
 359              		.thumb
 360              		.thumb_func
 362              	lv_checkbox_destructor:
 363              		@ args = 0, pretend = 0, frame = 0
 364              		@ frame_needed = 0, uses_anonymous_args = 0
 365 0000 91F82830 		ldrb	r3, [r1, #40]	@ zero_extendqisi2
 366 0004 13F0010F 		tst	r3, #1
 367 0008 00D0     		beq	.L21
 368 000a 7047     		bx	lr
 369              	.L21:
 370 000c 10B5     		push	{r4, lr}
 371 000e 0C46     		mov	r4, r1
 372 0010 486A     		ldr	r0, [r1, #36]
 373 0012 FFF7FEFF 		bl	lv_mem_free
 374 0016 0023     		movs	r3, #0
 375 0018 6362     		str	r3, [r4, #36]
 376 001a 10BD     		pop	{r4, pc}
 378              		.section	.rodata.lv_checkbox_constructor.str1.4,"aMS",%progbits,1
 379              		.align	2
 380              	.LC0:
 381 0000 43686563 		.ascii	"Check box\000"
 381      6B20626F 
 381      7800
 382              		.section	.text.lv_checkbox_constructor,"ax",%progbits
 383              		.align	1
 384              		.syntax unified
 385              		.thumb
 386              		.thumb_func
 388              	lv_checkbox_constructor:
 389              		@ args = 0, pretend = 0, frame = 0
 390              		@ frame_needed = 0, uses_anonymous_args = 0
 391 0000 10B5     		push	{r4, lr}
 392 0002 0C46     		mov	r4, r1
 393 0004 0A4B     		ldr	r3, .L24
 394 0006 4B62     		str	r3, [r1, #36]
 395 0008 91F82830 		ldrb	r3, [r1, #40]	@ zero_extendqisi2
 396 000c 43F00103 		orr	r3, r3, #1
 397 0010 81F82830 		strb	r3, [r1, #40]
 398 0014 0221     		movs	r1, #2
 399 0016 2046     		mov	r0, r4
 400 0018 FFF7FEFF 		bl	lv_obj_add_flag
 401 001c 0821     		movs	r1, #8
 402 001e 2046     		mov	r0, r4
 403 0020 FFF7FEFF 		bl	lv_obj_add_flag
 404 0024 4FF48061 		mov	r1, #1024
ARM GAS  /var/folders/lp/x54gwt890xv47sdkqj1k04q40000gn/T//cciGf1Qi.s 			page 8


 405 0028 2046     		mov	r0, r4
 406 002a FFF7FEFF 		bl	lv_obj_add_flag
 407 002e 10BD     		pop	{r4, pc}
 408              	.L25:
 409              		.align	2
 410              	.L24:
 411 0030 00000000 		.word	.LC0
 413              		.section	.text.lv_checkbox_create,"ax",%progbits
 414              		.align	1
 415              		.global	lv_checkbox_create
 416              		.syntax unified
 417              		.thumb
 418              		.thumb_func
 420              	lv_checkbox_create:
 421              		@ args = 0, pretend = 0, frame = 0
 422              		@ frame_needed = 0, uses_anonymous_args = 0
 423 0000 10B5     		push	{r4, lr}
 424 0002 0146     		mov	r1, r0
 425 0004 0348     		ldr	r0, .L28
 426 0006 FFF7FEFF 		bl	lv_obj_class_create_obj
 427 000a 0446     		mov	r4, r0
 428 000c FFF7FEFF 		bl	lv_obj_class_init_obj
 429 0010 2046     		mov	r0, r4
 430 0012 10BD     		pop	{r4, pc}
 431              	.L29:
 432              		.align	2
 433              	.L28:
 434 0014 00000000 		.word	lv_checkbox_class
 436              		.section	.text.lv_checkbox_set_text,"ax",%progbits
 437              		.align	1
 438              		.global	lv_checkbox_set_text
 439              		.syntax unified
 440              		.thumb
 441              		.thumb_func
 443              	lv_checkbox_set_text:
 444              		@ args = 0, pretend = 0, frame = 0
 445              		@ frame_needed = 0, uses_anonymous_args = 0
 446 0000 70B5     		push	{r4, r5, r6, lr}
 447 0002 0446     		mov	r4, r0
 448 0004 0E46     		mov	r6, r1
 449 0006 0846     		mov	r0, r1
 450 0008 FFF7FEFF 		bl	strlen
 451 000c 0146     		mov	r1, r0
 452 000e 606A     		ldr	r0, [r4, #36]
 453 0010 94F82830 		ldrb	r3, [r4, #40]	@ zero_extendqisi2
 454 0014 13F0010F 		tst	r3, #1
 455 0018 15D1     		bne	.L31
 456 001a 0131     		adds	r1, r1, #1
 457 001c FFF7FEFF 		bl	lv_mem_realloc
 458 0020 0546     		mov	r5, r0
 459              	.L32:
 460 0022 3146     		mov	r1, r6
 461 0024 2846     		mov	r0, r5
 462 0026 FFF7FEFF 		bl	strcpy
 463 002a 6562     		str	r5, [r4, #36]
 464 002c 94F82830 		ldrb	r3, [r4, #40]	@ zero_extendqisi2
 465 0030 23F00103 		bic	r3, r3, #1
ARM GAS  /var/folders/lp/x54gwt890xv47sdkqj1k04q40000gn/T//cciGf1Qi.s 			page 9


 466 0034 84F82830 		strb	r3, [r4, #40]
 467 0038 2046     		mov	r0, r4
 468 003a FFF7FEFF 		bl	lv_obj_refresh_self_size
 469 003e 2046     		mov	r0, r4
 470 0040 FFF7FEFF 		bl	lv_obj_invalidate
 471 0044 70BD     		pop	{r4, r5, r6, pc}
 472              	.L31:
 473 0046 481C     		adds	r0, r1, #1
 474 0048 FFF7FEFF 		bl	lv_mem_alloc
 475 004c 0546     		mov	r5, r0
 476 004e E8E7     		b	.L32
 478              		.section	.text.lv_checkbox_set_text_static,"ax",%progbits
 479              		.align	1
 480              		.global	lv_checkbox_set_text_static
 481              		.syntax unified
 482              		.thumb
 483              		.thumb_func
 485              	lv_checkbox_set_text_static:
 486              		@ args = 0, pretend = 0, frame = 0
 487              		@ frame_needed = 0, uses_anonymous_args = 0
 488 0000 38B5     		push	{r3, r4, r5, lr}
 489 0002 0446     		mov	r4, r0
 490 0004 0D46     		mov	r5, r1
 491 0006 90F82830 		ldrb	r3, [r0, #40]	@ zero_extendqisi2
 492 000a 13F0010F 		tst	r3, #1
 493 000e 0DD0     		beq	.L37
 494              	.L35:
 495 0010 6562     		str	r5, [r4, #36]
 496 0012 94F82830 		ldrb	r3, [r4, #40]	@ zero_extendqisi2
 497 0016 43F00103 		orr	r3, r3, #1
 498 001a 84F82830 		strb	r3, [r4, #40]
 499 001e 2046     		mov	r0, r4
 500 0020 FFF7FEFF 		bl	lv_obj_refresh_self_size
 501 0024 2046     		mov	r0, r4
 502 0026 FFF7FEFF 		bl	lv_obj_invalidate
 503 002a 38BD     		pop	{r3, r4, r5, pc}
 504              	.L37:
 505 002c 406A     		ldr	r0, [r0, #36]
 506 002e FFF7FEFF 		bl	lv_mem_free
 507 0032 EDE7     		b	.L35
 509              		.section	.text.lv_checkbox_get_text,"ax",%progbits
 510              		.align	1
 511              		.global	lv_checkbox_get_text
 512              		.syntax unified
 513              		.thumb
 514              		.thumb_func
 516              	lv_checkbox_get_text:
 517              		@ args = 0, pretend = 0, frame = 0
 518              		@ frame_needed = 0, uses_anonymous_args = 0
 519              		@ link register save eliminated.
 520 0000 406A     		ldr	r0, [r0, #36]
 521 0002 7047     		bx	lr
 523              		.global	lv_checkbox_class
 524              		.section	.rodata.lv_checkbox_class,"a"
 525              		.align	2
 528              	lv_checkbox_class:
 529 0000 00000000 		.word	lv_obj_class
ARM GAS  /var/folders/lp/x54gwt890xv47sdkqj1k04q40000gn/T//cciGf1Qi.s 			page 10


 530 0004 00000000 		.word	lv_checkbox_constructor
 531 0008 00000000 		.word	lv_checkbox_destructor
 532 000c 00000000 		.space	4
 533 0010 00000000 		.word	lv_checkbox_event
 534 0014 D127     		.short	10193
 535 0016 D127     		.short	10193
 536 0018 C4       		.byte	196
 537 0019 02       		.byte	2
 538 001a 00       		.byte	0
 539 001b 00       		.space	1
 540              		.ident	"GCC: (xPack GNU Arm Embedded GCC arm64) 13.3.1 20240614"
ARM GAS  /var/folders/lp/x54gwt890xv47sdkqj1k04q40000gn/T//cciGf1Qi.s 			page 11

