ARM GAS  /var/folders/lp/x54gwt890xv47sdkqj1k04q40000gn/T//ccQggvP7.s 			page 1


   1              		.cpu cortex-m4
   2              		.arch armv7e-m
   3              		.fpu fpv4-sp-d16
   4              		.eabi_attribute 27, 1
   5              		.eabi_attribute 28, 1
   6              		.eabi_attribute 20, 1
   7              		.eabi_attribute 21, 1
   8              		.eabi_attribute 23, 3
   9              		.eabi_attribute 24, 1
  10              		.eabi_attribute 25, 1
  11              		.eabi_attribute 26, 1
  12              		.eabi_attribute 30, 1
  13              		.eabi_attribute 34, 1
  14              		.eabi_attribute 18, 4
  15              		.file	"lv_calendar_header_dropdown.c"
  16              		.text
  17              		.section	.rodata.my_constructor.str1.4,"aMS",%progbits,1
  18              		.align	2
  19              	.LC0:
  20 0000 32303233 		.ascii	"2023\0122022\0122021\0122020\0122019\0122018\012201"
  20      0A323032 
  20      320A3230 
  20      32310A32 
  20      3032300A 
  21 0021 370A3230 		.ascii	"7\0122016\0122015\0122014\0122013\0122012\0122011\012"
  21      31360A32 
  21      3031350A 
  21      32303134 
  21      0A323031 
  22 0041 32303130 		.ascii	"2010\0122009\0122008\0122007\0122006\0122005\012200"
  22      0A323030 
  22      390A3230 
  22      30380A32 
  22      3030370A 
  23 0062 340A3230 		.ascii	"4\0122003\0122002\0122001\0122000\0121999\0121998\012"
  23      30330A32 
  23      3030320A 
  23      32303031 
  23      0A323030 
  24 0082 31393937 		.ascii	"1997\0121996\0121995\0121994\0121993\0121992\012199"
  24      0A313939 
  24      360A3139 
  24      39350A31 
  24      3939340A 
  25 00a3 310A3139 		.ascii	"1\0121990\0121989\0121988\0121987\0121986\0121985\012"
  25      39300A31 
  25      3938390A 
  25      31393838 
  25      0A313938 
  26 00c3 31393834 		.ascii	"1984\0121983\0121982\0121981\0121980\0121979\012197"
  26      0A313938 
  26      330A3139 
  26      38320A31 
  26      3938310A 
  27 00e4 380A3139 		.ascii	"8\0121977\0121976\0121975\0121974\0121973\0121972\012"
  27      37370A31 
  27      3937360A 
ARM GAS  /var/folders/lp/x54gwt890xv47sdkqj1k04q40000gn/T//ccQggvP7.s 			page 2


  27      31393735 
  27      0A313937 
  28 0104 31393731 		.ascii	"1971\0121970\0121969\0121968\0121967\0121966\012196"
  28      0A313937 
  28      300A3139 
  28      36390A31 
  28      3936380A 
  29 0125 350A3139 		.ascii	"5\0121964\0121963\0121962\0121961\0121960\0121959\012"
  29      36340A31 
  29      3936330A 
  29      31393632 
  29      0A313936 
  30 0145 31393538 		.ascii	"1958\0121957\0121956\0121955\0121954\0121953\012195"
  30      0A313935 
  30      370A3139 
  30      35360A31 
  30      3935350A 
  31 0166 320A3139 		.ascii	"2\0121951\0121950\0121949\0121948\0121947\0121946\012"
  31      35310A31 
  31      3935300A 
  31      31393439 
  31      0A313934 
  32 0186 31393435 		.ascii	"1945\0121944\0121943\0121942\0121941\0121940\012193"
  32      0A313934 
  32      340A3139 
  32      34330A31 
  32      3934320A 
  33 01a7 390A3139 		.ascii	"9\0121938\0121937\0121936\0121935\0121934\0121933\012"
  33      33380A31 
  33      3933370A 
  33      31393336 
  33      0A313933 
  34 01c7 31393332 		.ascii	"1932\0121931\0121930\0121929\0121928\0121927\012192"
  34      0A313933 
  34      310A3139 
  34      33300A31 
  34      3932390A 
  35 01e8 360A3139 		.ascii	"6\0121925\0121924\0121923\0121922\0121921\0121920\012"
  35      32350A31 
  35      3932340A 
  35      31393233 
  35      0A313932 
  36 0208 31393139 		.ascii	"1919\0121918\0121917\0121916\0121915\0121914\012191"
  36      0A313931 
  36      380A3139 
  36      31370A31 
  36      3931360A 
  37 0229 330A3139 		.ascii	"3\0121912\0121911\0121910\0121909\0121908\0121907\012"
  37      31320A31 
  37      3931310A 
  37      31393130 
  37      0A313930 
  38 0249 31393036 		.ascii	"1906\0121905\0121904\0121903\0121902\0121901\000"
  38      0A313930 
  38      350A3139 
  38      30340A31 
  38      3930330A 
ARM GAS  /var/folders/lp/x54gwt890xv47sdkqj1k04q40000gn/T//ccQggvP7.s 			page 3


  39 0267 00       		.align	2
  40              	.LC1:
  41 0268 30310A30 		.ascii	"01\01202\01203\01204\01205\01206\01207\01208\01209\012"
  41      320A3033 
  41      0A30340A 
  41      30350A30 
  41      360A3037 
  42 0283 31300A31 		.ascii	"10\01211\01212\000"
  42      310A3132 
  42      00
  43              		.section	.text.my_constructor,"ax",%progbits
  44              		.align	1
  45              		.syntax unified
  46              		.thumb
  47              		.thumb_func
  49              	my_constructor:
  50              		@ args = 0, pretend = 0, frame = 0
  51              		@ frame_needed = 0, uses_anonymous_args = 0
  52 0000 70B5     		push	{r4, r5, r6, lr}
  53 0002 0C46     		mov	r4, r1
  54 0004 0846     		mov	r0, r1
  55 0006 FFF7FEFF 		bl	lv_obj_get_parent
  56 000a 0646     		mov	r6, r0
  57 000c 0021     		movs	r1, #0
  58 000e 2046     		mov	r0, r4
  59 0010 FFF7FEFF 		bl	lv_obj_move_to_index
  60 0014 0021     		movs	r1, #0
  61 0016 2046     		mov	r0, r4
  62 0018 FFF7FEFF 		bl	lv_obj_set_flex_flow
  63 001c 2046     		mov	r0, r4
  64 001e FFF7FEFF 		bl	lv_dropdown_create
  65 0022 0546     		mov	r5, r0
  66 0024 1449     		ldr	r1, .L3
  67 0026 FFF7FEFF 		bl	lv_dropdown_set_options
  68 002a 3346     		mov	r3, r6
  69 002c 1C22     		movs	r2, #28
  70 002e 1349     		ldr	r1, .L3+4
  71 0030 2846     		mov	r0, r5
  72 0032 FFF7FEFF 		bl	lv_obj_add_event_cb
  73 0036 0121     		movs	r1, #1
  74 0038 2846     		mov	r0, r5
  75 003a FFF7FEFF 		bl	lv_obj_set_flex_grow
  76 003e 2046     		mov	r0, r4
  77 0040 FFF7FEFF 		bl	lv_dropdown_create
  78 0044 0546     		mov	r5, r0
  79 0046 0E49     		ldr	r1, .L3+8
  80 0048 FFF7FEFF 		bl	lv_dropdown_set_options
  81 004c 3346     		mov	r3, r6
  82 004e 1C22     		movs	r2, #28
  83 0050 0C49     		ldr	r1, .L3+12
  84 0052 2846     		mov	r0, r5
  85 0054 FFF7FEFF 		bl	lv_obj_add_event_cb
  86 0058 0121     		movs	r1, #1
  87 005a 2846     		mov	r0, r5
  88 005c FFF7FEFF 		bl	lv_obj_set_flex_grow
  89 0060 0023     		movs	r3, #0
  90 0062 1C22     		movs	r2, #28
ARM GAS  /var/folders/lp/x54gwt890xv47sdkqj1k04q40000gn/T//ccQggvP7.s 			page 4


  91 0064 0849     		ldr	r1, .L3+16
  92 0066 2046     		mov	r0, r4
  93 0068 FFF7FEFF 		bl	lv_obj_add_event_cb
  94 006c 0022     		movs	r2, #0
  95 006e 1C21     		movs	r1, #28
  96 0070 2046     		mov	r0, r4
  97 0072 FFF7FEFF 		bl	lv_event_send
  98 0076 70BD     		pop	{r4, r5, r6, pc}
  99              	.L4:
 100              		.align	2
 101              	.L3:
 102 0078 00000000 		.word	.LC0
 103 007c 00000000 		.word	year_event_cb
 104 0080 68020000 		.word	.LC1
 105 0084 00000000 		.word	month_event_cb
 106 0088 00000000 		.word	value_changed_event_cb
 108              		.section	.text.value_changed_event_cb,"ax",%progbits
 109              		.align	1
 110              		.syntax unified
 111              		.thumb
 112              		.thumb_func
 114              	value_changed_event_cb:
 115              		@ args = 0, pretend = 0, frame = 0
 116              		@ frame_needed = 0, uses_anonymous_args = 0
 117 0000 38B5     		push	{r3, r4, r5, lr}
 118 0002 FFF7FEFF 		bl	lv_event_get_target
 119 0006 0546     		mov	r5, r0
 120 0008 FFF7FEFF 		bl	lv_obj_get_parent
 121 000c FFF7FEFF 		bl	lv_calendar_get_showed_date
 122 0010 0446     		mov	r4, r0
 123 0012 0021     		movs	r1, #0
 124 0014 2846     		mov	r0, r5
 125 0016 FFF7FEFF 		bl	lv_obj_get_child
 126 001a 2188     		ldrh	r1, [r4]
 127 001c C1F5FC61 		rsb	r1, r1, #2016
 128 0020 0731     		adds	r1, r1, #7
 129 0022 89B2     		uxth	r1, r1
 130 0024 FFF7FEFF 		bl	lv_dropdown_set_selected
 131 0028 0121     		movs	r1, #1
 132 002a 2846     		mov	r0, r5
 133 002c FFF7FEFF 		bl	lv_obj_get_child
 134 0030 94F90210 		ldrsb	r1, [r4, #2]
 135 0034 89B2     		uxth	r1, r1
 136 0036 0139     		subs	r1, r1, #1
 137 0038 89B2     		uxth	r1, r1
 138 003a FFF7FEFF 		bl	lv_dropdown_set_selected
 139 003e 38BD     		pop	{r3, r4, r5, pc}
 141              		.section	.text.month_event_cb,"ax",%progbits
 142              		.align	1
 143              		.syntax unified
 144              		.thumb
 145              		.thumb_func
 147              	month_event_cb:
 148              		@ args = 0, pretend = 0, frame = 8
 149              		@ frame_needed = 0, uses_anonymous_args = 0
 150 0000 30B5     		push	{r4, r5, lr}
 151 0002 83B0     		sub	sp, sp, #12
ARM GAS  /var/folders/lp/x54gwt890xv47sdkqj1k04q40000gn/T//ccQggvP7.s 			page 5


 152 0004 0546     		mov	r5, r0
 153 0006 FFF7FEFF 		bl	lv_event_get_target
 154 000a 0446     		mov	r4, r0
 155 000c 2846     		mov	r0, r5
 156 000e FFF7FEFF 		bl	lv_event_get_user_data
 157 0012 0546     		mov	r5, r0
 158 0014 2046     		mov	r0, r4
 159 0016 FFF7FEFF 		bl	lv_dropdown_get_selected
 160 001a 0446     		mov	r4, r0
 161 001c 2846     		mov	r0, r5
 162 001e FFF7FEFF 		bl	lv_calendar_get_showed_date
 163 0022 0068     		ldr	r0, [r0]	@ unaligned
 164 0024 0190     		str	r0, [sp, #4]
 165 0026 621C     		adds	r2, r4, #1
 166 0028 52B2     		sxtb	r2, r2
 167 002a 8DF80620 		strb	r2, [sp, #6]
 168 002e BDF80410 		ldrh	r1, [sp, #4]
 169 0032 2846     		mov	r0, r5
 170 0034 FFF7FEFF 		bl	lv_calendar_set_showed_date
 171 0038 03B0     		add	sp, sp, #12
 172              		@ sp needed
 173 003a 30BD     		pop	{r4, r5, pc}
 175              		.section	.text.year_event_cb,"ax",%progbits
 176              		.align	1
 177              		.syntax unified
 178              		.thumb
 179              		.thumb_func
 181              	year_event_cb:
 182              		@ args = 0, pretend = 0, frame = 8
 183              		@ frame_needed = 0, uses_anonymous_args = 0
 184 0000 30B5     		push	{r4, r5, lr}
 185 0002 83B0     		sub	sp, sp, #12
 186 0004 0546     		mov	r5, r0
 187 0006 FFF7FEFF 		bl	lv_event_get_target
 188 000a 0446     		mov	r4, r0
 189 000c 2846     		mov	r0, r5
 190 000e FFF7FEFF 		bl	lv_event_get_user_data
 191 0012 0546     		mov	r5, r0
 192 0014 2046     		mov	r0, r4
 193 0016 FFF7FEFF 		bl	lv_dropdown_get_selected
 194 001a 0446     		mov	r4, r0
 195 001c 2846     		mov	r0, r5
 196 001e FFF7FEFF 		bl	lv_calendar_get_showed_date
 197 0022 0068     		ldr	r0, [r0]	@ unaligned
 198 0024 0190     		str	r0, [sp, #4]
 199 0026 C4F5FC61 		rsb	r1, r4, #2016
 200 002a 0731     		adds	r1, r1, #7
 201 002c 89B2     		uxth	r1, r1
 202 002e ADF80410 		strh	r1, [sp, #4]	@ movhi
 203 0032 9DF90620 		ldrsb	r2, [sp, #6]
 204 0036 2846     		mov	r0, r5
 205 0038 FFF7FEFF 		bl	lv_calendar_set_showed_date
 206 003c 03B0     		add	sp, sp, #12
 207              		@ sp needed
 208 003e 30BD     		pop	{r4, r5, pc}
 210              		.section	.text.lv_calendar_header_dropdown_create,"ax",%progbits
 211              		.align	1
ARM GAS  /var/folders/lp/x54gwt890xv47sdkqj1k04q40000gn/T//ccQggvP7.s 			page 6


 212              		.global	lv_calendar_header_dropdown_create
 213              		.syntax unified
 214              		.thumb
 215              		.thumb_func
 217              	lv_calendar_header_dropdown_create:
 218              		@ args = 0, pretend = 0, frame = 0
 219              		@ frame_needed = 0, uses_anonymous_args = 0
 220 0000 10B5     		push	{r4, lr}
 221 0002 0146     		mov	r1, r0
 222 0004 0348     		ldr	r0, .L13
 223 0006 FFF7FEFF 		bl	lv_obj_class_create_obj
 224 000a 0446     		mov	r4, r0
 225 000c FFF7FEFF 		bl	lv_obj_class_init_obj
 226 0010 2046     		mov	r0, r4
 227 0012 10BD     		pop	{r4, pc}
 228              	.L14:
 229              		.align	2
 230              	.L13:
 231 0014 00000000 		.word	lv_calendar_header_dropdown_class
 233              		.global	lv_calendar_header_dropdown_class
 234              		.section	.rodata.lv_calendar_header_dropdown_class,"a"
 235              		.align	2
 238              	lv_calendar_header_dropdown_class:
 239 0000 00000000 		.word	lv_obj_class
 240 0004 00000000 		.word	my_constructor
 241 0008 00000000 		.space	12
 241      00000000 
 241      00000000 
 242 0014 6420     		.short	8292
 243 0016 D127     		.short	10193
 244 0018 00000000 		.space	4
 245              		.ident	"GCC: (xPack GNU Arm Embedded GCC arm64) 13.3.1 20240614"
ARM GAS  /var/folders/lp/x54gwt890xv47sdkqj1k04q40000gn/T//ccQggvP7.s 			page 7

