ARM GAS  /var/folders/lp/x54gwt890xv47sdkqj1k04q40000gn/T//ccEqLHNy.s 			page 1


   1              		.cpu cortex-m4
   2              		.arch armv7e-m
   3              		.fpu fpv4-sp-d16
   4              		.eabi_attribute 27, 1
   5              		.eabi_attribute 28, 1
   6              		.eabi_attribute 20, 1
   7              		.eabi_attribute 21, 1
   8              		.eabi_attribute 23, 3
   9              		.eabi_attribute 24, 1
  10              		.eabi_attribute 25, 1
  11              		.eabi_attribute 26, 1
  12              		.eabi_attribute 30, 1
  13              		.eabi_attribute 34, 1
  14              		.eabi_attribute 18, 4
  15              		.file	"lv_draw_label.c"
  16              		.text
  17              		.section	.text.hex_char_to_num,"ax",%progbits
  18              		.align	1
  19              		.syntax unified
  20              		.thumb
  21              		.thumb_func
  23              	hex_char_to_num:
  24              		@ args = 0, pretend = 0, frame = 0
  25              		@ frame_needed = 0, uses_anonymous_args = 0
  26              		@ link register save eliminated.
  27 0000 0346     		mov	r3, r0
  28 0002 3038     		subs	r0, r0, #48
  29 0004 C0B2     		uxtb	r0, r0
  30 0006 0928     		cmp	r0, #9
  31 0008 18D9     		bls	.L2
  32 000a 602B     		cmp	r3, #96
  33 000c 01D9     		bls	.L3
  34 000e 203B     		subs	r3, r3, #32
  35 0010 DBB2     		uxtb	r3, r3
  36              	.L3:
  37 0012 413B     		subs	r3, r3, #65
  38 0014 052B     		cmp	r3, #5
  39 0016 0ED8     		bhi	.L4
  40 0018 DFE803F0 		tbb	[pc, r3]
  41              	.L6:
  42 001c 03       		.byte	(.L10-.L6)/2
  43 001d 0F       		.byte	(.L11-.L6)/2
  44 001e 05       		.byte	(.L9-.L6)/2
  45 001f 07       		.byte	(.L8-.L6)/2
  46 0020 09       		.byte	(.L7-.L6)/2
  47 0021 0B       		.byte	(.L5-.L6)/2
  48              		.p2align 1
  49              	.L10:
  50 0022 0A20     		movs	r0, #10
  51 0024 7047     		bx	lr
  52              	.L9:
  53 0026 0C20     		movs	r0, #12
  54 0028 7047     		bx	lr
  55              	.L8:
  56 002a 0D20     		movs	r0, #13
  57 002c 7047     		bx	lr
  58              	.L7:
ARM GAS  /var/folders/lp/x54gwt890xv47sdkqj1k04q40000gn/T//ccEqLHNy.s 			page 2


  59 002e 0E20     		movs	r0, #14
  60 0030 7047     		bx	lr
  61              	.L5:
  62 0032 0F20     		movs	r0, #15
  63 0034 7047     		bx	lr
  64              	.L4:
  65 0036 0020     		movs	r0, #0
  66 0038 7047     		bx	lr
  67              	.L11:
  68 003a 0B20     		movs	r0, #11
  69              	.L2:
  70 003c 7047     		bx	lr
  72              		.section	.text.lv_draw_label_dsc_init,"ax",%progbits
  73              		.align	1
  74              		.global	lv_draw_label_dsc_init
  75              		.syntax unified
  76              		.thumb
  77              		.thumb_func
  79              	lv_draw_label_dsc_init:
  80              		@ args = 0, pretend = 0, frame = 0
  81              		@ frame_needed = 0, uses_anonymous_args = 0
  82 0000 10B5     		push	{r4, lr}
  83 0002 0446     		mov	r4, r0
  84 0004 2021     		movs	r1, #32
  85 0006 FFF7FEFF 		bl	lv_memset_00
  86 000a FF23     		movs	r3, #255
  87 000c A376     		strb	r3, [r4, #26]
  88 000e 4FF00003 		mov	r3, #0	@ movhi
  89 0012 23F00703 		bic	r3, r3, #7
  90 0016 23F0F803 		bic	r3, r3, #248
  91 001a 23F4F853 		bic	r3, r3, #7936
  92 001e 23F46043 		bic	r3, r3, #57344
  93 0022 A381     		strh	r3, [r4, #12]	@ movhi
  94 0024 0B4B     		ldr	r3, .L14
  95 0026 2360     		str	r3, [r4]
  96 0028 4FF6FF73 		movw	r3, #65535
  97 002c 6360     		str	r3, [r4, #4]
  98 002e A360     		str	r3, [r4, #8]
  99 0030 4FF00003 		mov	r3, #0	@ movhi
 100 0034 23F00703 		bic	r3, r3, #7
 101 0038 23F0F803 		bic	r3, r3, #248
 102 003c 23F4F853 		bic	r3, r3, #7936
 103 0040 23F46043 		bic	r3, r3, #57344
 104 0044 E381     		strh	r3, [r4, #14]	@ movhi
 105 0046 0520     		movs	r0, #5
 106 0048 FFF7FEFF 		bl	lv_palette_main
 107 004c 2082     		strh	r0, [r4, #16]	@ movhi
 108 004e 0023     		movs	r3, #0
 109 0050 E376     		strb	r3, [r4, #27]
 110 0052 10BD     		pop	{r4, pc}
 111              	.L15:
 112              		.align	2
 113              	.L14:
 114 0054 00000000 		.word	lv_font_montserrat_14
 116              		.section	.text.lv_draw_letter,"ax",%progbits
 117              		.align	1
 118              		.global	lv_draw_letter
ARM GAS  /var/folders/lp/x54gwt890xv47sdkqj1k04q40000gn/T//ccEqLHNy.s 			page 3


 119              		.syntax unified
 120              		.thumb
 121              		.thumb_func
 123              	lv_draw_letter:
 124              		@ args = 0, pretend = 0, frame = 0
 125              		@ frame_needed = 0, uses_anonymous_args = 0
 126 0000 10B5     		push	{r4, lr}
 127 0002 046A     		ldr	r4, [r0, #32]
 128 0004 A047     		blx	r4
 129 0006 10BD     		pop	{r4, pc}
 131              		.section	.text.lv_draw_label,"ax",%progbits
 132              		.align	1
 133              		.global	lv_draw_label
 134              		.syntax unified
 135              		.thumb
 136              		.thumb_func
 138              	lv_draw_label:
 139              		@ args = 4, pretend = 0, frame = 192
 140              		@ frame_needed = 0, uses_anonymous_args = 0
 141 0000 2DE9F04F 		push	{r4, r5, r6, r7, r8, r9, r10, fp, lr}
 142 0004 B5B0     		sub	sp, sp, #212
 143 0006 0992     		str	r2, [sp, #36]
 144 0008 9C46     		mov	ip, r3
 145 000a 0893     		str	r3, [sp, #32]
 146 000c 3E9C     		ldr	r4, [sp, #248]
 147 000e 8B7E     		ldrb	r3, [r1, #26]	@ zero_extendqisi2
 148 0010 022B     		cmp	r3, #2
 149 0012 15D9     		bls	.L18
 150 0014 8246     		mov	r10, r0
 151 0016 0D46     		mov	r5, r1
 152 0018 9646     		mov	lr, r2
 153 001a 0B68     		ldr	r3, [r1]
 154 001c 83B1     		cbz	r3, .L18
 155 001e 036A     		ldr	r3, [r0, #32]
 156 0020 73B1     		cbz	r3, .L18
 157 0022 2CAE     		add	r6, sp, #176
 158 0024 0F46     		mov	r7, r1
 159 0026 0FCF     		ldmia	r7!, {r0, r1, r2, r3}
 160 0028 0FC6     		stmia	r6!, {r0, r1, r2, r3}
 161 002a 97E80F00 		ldm	r7, {r0, r1, r2, r3}
 162 002e 86E80F00 		stm	r6, {r0, r1, r2, r3}
 163 0032 2868     		ldr	r0, [r5]
 164 0034 0490     		str	r0, [sp, #16]
 165 0036 6346     		mov	r3, ip
 166 0038 13B1     		cbz	r3, .L18
 167 003a 9CF80030 		ldrb	r3, [ip]	@ zero_extendqisi2
 168 003e 13B9     		cbnz	r3, .L67
 169              	.L18:
 170 0040 35B0     		add	sp, sp, #212
 171              		@ sp needed
 172 0042 BDE8F08F 		pop	{r4, r5, r6, r7, r8, r9, r10, fp, pc}
 173              	.L67:
 174 0046 DAF80820 		ldr	r2, [r10, #8]
 175 004a 7146     		mov	r1, lr
 176 004c 2AA8     		add	r0, sp, #168
 177 004e FFF7FEFF 		bl	_lv_area_intersect
 178 0052 0028     		cmp	r0, #0
ARM GAS  /var/folders/lp/x54gwt890xv47sdkqj1k04q40000gn/T//ccEqLHNy.s 			page 4


 179 0054 F4D0     		beq	.L18
 180 0056 2B7F     		ldrb	r3, [r5, #28]	@ zero_extendqisi2
 181 0058 0C93     		str	r3, [sp, #48]
 182 005a 0BB9     		cbnz	r3, .L20
 183 005c 0123     		movs	r3, #1
 184 005e 0C93     		str	r3, [sp, #48]
 185              	.L20:
 186 0060 6B7F     		ldrb	r3, [r5, #29]	@ zero_extendqisi2
 187 0062 13F0020F 		tst	r3, #2
 188 0066 29D1     		bne	.L21
 189 0068 099A     		ldr	r2, [sp, #36]
 190 006a 9388     		ldrh	r3, [r2, #4]
 191 006c 1288     		ldrh	r2, [r2]
 192 006e 9B1A     		subs	r3, r3, r2
 193 0070 9BB2     		uxth	r3, r3
 194 0072 0133     		adds	r3, r3, #1
 195 0074 1BB2     		sxth	r3, r3
 196              	.L22:
 197 0076 049A     		ldr	r2, [sp, #16]
 198 0078 B2F90860 		ldrsh	r6, [r2, #8]
 199 007c B5F91220 		ldrsh	r2, [r5, #18]
 200 0080 9719     		adds	r7, r2, r6
 201 0082 0D97     		str	r7, [sp, #52]
 202 0084 0998     		ldr	r0, [sp, #36]
 203 0086 B0F90020 		ldrsh	r2, [r0]
 204 008a ADF8A420 		strh	r2, [sp, #164]	@ movhi
 205 008e B0F90220 		ldrsh	r2, [r0, #2]
 206 0092 ADF8A620 		strh	r2, [sp, #166]	@ movhi
 207 0096 B5F91610 		ldrsh	r1, [r5, #22]
 208 009a 0E91     		str	r1, [sp, #56]
 209 009c B5F91810 		ldrsh	r1, [r5, #24]
 210 00a0 11FA82F2 		uxtah	r2, r1, r2
 211 00a4 ADF8A620 		strh	r2, [sp, #166]	@ movhi
 212 00a8 002C     		cmp	r4, #0
 213 00aa 46D0     		beq	.L57
 214 00ac 31BB     		cbnz	r1, .L58
 215 00ae B0F90220 		ldrsh	r2, [r0, #2]
 216 00b2 002A     		cmp	r2, #0
 217 00b4 13DB     		blt	.L68
 218 00b6 4FF0FF37 		mov	r7, #-1
 219 00ba 21E0     		b	.L24
 220              	.L21:
 221 00bc B5F91220 		ldrsh	r2, [r5, #18]
 222 00c0 0293     		str	r3, [sp, #8]
 223 00c2 41F6FF73 		movw	r3, #8191
 224 00c6 0193     		str	r3, [sp, #4]
 225 00c8 0092     		str	r2, [sp]
 226 00ca B5F91430 		ldrsh	r3, [r5, #20]
 227 00ce 2A68     		ldr	r2, [r5]
 228 00d0 0899     		ldr	r1, [sp, #32]
 229 00d2 15A8     		add	r0, sp, #84
 230 00d4 FFF7FEFF 		bl	lv_txt_get_size
 231 00d8 BDF95430 		ldrsh	r3, [sp, #84]
 232 00dc CBE7     		b	.L22
 233              	.L68:
 234 00de A168     		ldr	r1, [r4, #8]
 235 00e0 8A1A     		subs	r2, r1, r2
ARM GAS  /var/folders/lp/x54gwt890xv47sdkqj1k04q40000gn/T//ccEqLHNy.s 			page 5


 236 00e2 002A     		cmp	r2, #0
 237 00e4 B8BF     		it	lt
 238 00e6 5242     		rsblt	r2, r2, #0
 239 00e8 C7F50071 		rsb	r1, r7, #512
 240 00ec B2EB410F 		cmp	r2, r1, lsl #1
 241 00f0 02DD     		ble	.L25
 242 00f2 4FF0FF32 		mov	r2, #-1
 243 00f6 2260     		str	r2, [r4]
 244              	.L25:
 245 00f8 2768     		ldr	r7, [r4]
 246 00fa 01E0     		b	.L24
 247              	.L58:
 248 00fc 4FF0FF37 		mov	r7, #-1
 249              	.L24:
 250 0100 002F     		cmp	r7, #0
 251 0102 1CDB     		blt	.L60
 252 0104 BDF8A620 		ldrh	r2, [sp, #166]
 253 0108 6168     		ldr	r1, [r4, #4]
 254 010a 0A44     		add	r2, r2, r1
 255 010c ADF8A620 		strh	r2, [sp, #166]	@ movhi
 256              	.L23:
 257 0110 1AB2     		sxth	r2, r3
 258 0112 0A92     		str	r2, [sp, #40]
 259 0114 6B7F     		ldrb	r3, [r5, #29]	@ zero_extendqisi2
 260 0116 0193     		str	r3, [sp, #4]
 261 0118 0023     		movs	r3, #0
 262 011a 0093     		str	r3, [sp]
 263 011c 1346     		mov	r3, r2
 264 011e B5F91420 		ldrsh	r2, [r5, #20]
 265 0122 0499     		ldr	r1, [sp, #16]
 266 0124 0898     		ldr	r0, [sp, #32]
 267 0126 3844     		add	r0, r0, r7
 268 0128 FFF7FEFF 		bl	_lv_txt_get_next_line
 269 012c 00EB070B 		add	fp, r0, r7
 270 0130 DDF83480 		ldr	r8, [sp, #52]
 271 0134 DDF82090 		ldr	r9, [sp, #32]
 272 0138 09E0     		b	.L26
 273              	.L57:
 274 013a 0027     		movs	r7, #0
 275 013c E8E7     		b	.L23
 276              	.L60:
 277 013e 0027     		movs	r7, #0
 278 0140 E6E7     		b	.L23
 279              	.L27:
 280 0142 3B78     		ldrb	r3, [r7]	@ zero_extendqisi2
 281 0144 5F46     		mov	r7, fp
 282 0146 002B     		cmp	r3, #0
 283 0148 3FF47AAF 		beq	.L18
 284 014c 8346     		mov	fp, r0
 285              	.L26:
 286 014e BDF9A630 		ldrsh	r3, [sp, #166]
 287 0152 3344     		add	r3, r3, r6
 288 0154 DAF80820 		ldr	r2, [r10, #8]
 289 0158 B2F90220 		ldrsh	r2, [r2, #2]
 290 015c 9342     		cmp	r3, r2
 291 015e 28DA     		bge	.L69
 292 0160 09EB0B07 		add	r7, r9, fp
ARM GAS  /var/folders/lp/x54gwt890xv47sdkqj1k04q40000gn/T//ccEqLHNy.s 			page 6


 293 0164 6B7F     		ldrb	r3, [r5, #29]	@ zero_extendqisi2
 294 0166 0193     		str	r3, [sp, #4]
 295 0168 0023     		movs	r3, #0
 296 016a 0093     		str	r3, [sp]
 297 016c 0A9B     		ldr	r3, [sp, #40]
 298 016e B5F91420 		ldrsh	r2, [r5, #20]
 299 0172 0499     		ldr	r1, [sp, #16]
 300 0174 3846     		mov	r0, r7
 301 0176 FFF7FEFF 		bl	_lv_txt_get_next_line
 302 017a 5844     		add	r0, r0, fp
 303 017c BDF8A630 		ldrh	r3, [sp, #166]
 304 0180 4344     		add	r3, r3, r8
 305 0182 1BB2     		sxth	r3, r3
 306 0184 ADF8A630 		strh	r3, [sp, #166]	@ movhi
 307 0188 002C     		cmp	r4, #0
 308 018a DAD0     		beq	.L27
 309 018c 13F5806F 		cmn	r3, #1024
 310 0190 D7DB     		blt	.L27
 311 0192 2368     		ldr	r3, [r4]
 312 0194 002B     		cmp	r3, #0
 313 0196 D4DA     		bge	.L27
 314 0198 C4F800B0 		str	fp, [r4]
 315 019c BDF9A630 		ldrsh	r3, [sp, #166]
 316 01a0 0999     		ldr	r1, [sp, #36]
 317 01a2 B1F90220 		ldrsh	r2, [r1, #2]
 318 01a6 9B1A     		subs	r3, r3, r2
 319 01a8 6360     		str	r3, [r4, #4]
 320 01aa B1F90230 		ldrsh	r3, [r1, #2]
 321 01ae A360     		str	r3, [r4, #8]
 322 01b0 C7E7     		b	.L27
 323              	.L69:
 324 01b2 0C9B     		ldr	r3, [sp, #48]
 325 01b4 022B     		cmp	r3, #2
 326 01b6 36D0     		beq	.L70
 327 01b8 0C9B     		ldr	r3, [sp, #48]
 328 01ba 032B     		cmp	r3, #3
 329 01bc 4FD0     		beq	.L71
 330              	.L30:
 331 01be 6A68     		ldr	r2, [r5, #4]
 332 01c0 1446     		mov	r4, r2
 333 01c2 D5F80890 		ldr	r9, [r5, #8]
 334 01c6 4A45     		cmp	r2, r9
 335 01c8 02D8     		bhi	.L31
 336 01ca 4B46     		mov	r3, r9
 337 01cc 9146     		mov	r9, r2
 338 01ce 1C46     		mov	r4, r3
 339              	.L31:
 340 01d0 AB7F     		ldrb	r3, [r5, #30]	@ zero_extendqisi2
 341 01d2 13F0030F 		tst	r3, #3
 342 01d6 5BD1     		bne	.L72
 343              	.L32:
 344 01d8 4FF00003 		mov	r3, #0	@ movhi
 345 01dc 23F00703 		bic	r3, r3, #7
 346 01e0 23F0F803 		bic	r3, r3, #248
 347 01e4 23F4F853 		bic	r3, r3, #7936
 348 01e8 23F46043 		bic	r3, r3, #57344
 349 01ec ADF82E30 		strh	r3, [sp, #46]	@ movhi
ARM GAS  /var/folders/lp/x54gwt890xv47sdkqj1k04q40000gn/T//ccEqLHNy.s 			page 7


 350 01f0 4FF00008 		mov	r8, #0	@ movhi
 351 01f4 28F00708 		bic	r8, r8, #7
 352 01f8 28F0F808 		bic	r8, r8, #248
 353 01fc 28F4F858 		bic	r8, r8, #7936
 354 0200 28F46048 		bic	r8, r8, #57344
 355 0204 17A8     		add	r0, sp, #92
 356 0206 FFF7FEFF 		bl	lv_draw_rect_dsc_init
 357 020a 2B8A     		ldrh	r3, [r5, #16]
 358 020c ADF86030 		strh	r3, [sp, #96]	@ movhi
 359 0210 BDF9A430 		ldrsh	r3, [sp, #164]
 360 0214 1093     		str	r3, [sp, #64]
 361 0216 0023     		movs	r3, #0
 362 0218 0F93     		str	r3, [sp, #60]
 363 021a 5E46     		mov	r6, fp
 364 021c A346     		mov	fp, r4
 365 021e CDF81CA0 		str	r10, [sp, #28]
 366 0222 BA46     		mov	r10, r7
 367 0224 55E1     		b	.L34
 368              	.L70:
 369 0226 6B7F     		ldrb	r3, [r5, #29]	@ zero_extendqisi2
 370 0228 0093     		str	r3, [sp]
 371 022a B5F91430 		ldrsh	r3, [r5, #20]
 372 022e 049A     		ldr	r2, [sp, #16]
 373 0230 ABEB0701 		sub	r1, fp, r7
 374 0234 0898     		ldr	r0, [sp, #32]
 375 0236 3844     		add	r0, r0, r7
 376 0238 FFF7FEFF 		bl	lv_txt_get_width
 377 023c 099A     		ldr	r2, [sp, #36]
 378 023e 9388     		ldrh	r3, [r2, #4]
 379 0240 1288     		ldrh	r2, [r2]
 380 0242 9B1A     		subs	r3, r3, r2
 381 0244 9BB2     		uxth	r3, r3
 382 0246 0133     		adds	r3, r3, #1
 383 0248 1BB2     		sxth	r3, r3
 384 024a 1B1A     		subs	r3, r3, r0
 385 024c 03EBD373 		add	r3, r3, r3, lsr #31
 386 0250 BDF8A420 		ldrh	r2, [sp, #164]
 387 0254 02EB6303 		add	r3, r2, r3, asr #1
 388 0258 ADF8A430 		strh	r3, [sp, #164]	@ movhi
 389 025c AFE7     		b	.L30
 390              	.L71:
 391 025e 6B7F     		ldrb	r3, [r5, #29]	@ zero_extendqisi2
 392 0260 0093     		str	r3, [sp]
 393 0262 B5F91430 		ldrsh	r3, [r5, #20]
 394 0266 049A     		ldr	r2, [sp, #16]
 395 0268 ABEB0701 		sub	r1, fp, r7
 396 026c 0898     		ldr	r0, [sp, #32]
 397 026e 3844     		add	r0, r0, r7
 398 0270 FFF7FEFF 		bl	lv_txt_get_width
 399 0274 099A     		ldr	r2, [sp, #36]
 400 0276 9388     		ldrh	r3, [r2, #4]
 401 0278 1288     		ldrh	r2, [r2]
 402 027a 9B1A     		subs	r3, r3, r2
 403 027c 9BB2     		uxth	r3, r3
 404 027e 0133     		adds	r3, r3, #1
 405 0280 1BB2     		sxth	r3, r3
 406 0282 1B1A     		subs	r3, r3, r0
ARM GAS  /var/folders/lp/x54gwt890xv47sdkqj1k04q40000gn/T//ccEqLHNy.s 			page 8


 407 0284 BDF8A420 		ldrh	r2, [sp, #164]
 408 0288 1344     		add	r3, r3, r2
 409 028a ADF8A430 		strh	r3, [sp, #164]	@ movhi
 410 028e 96E7     		b	.L30
 411              	.L72:
 412 0290 26A8     		add	r0, sp, #152
 413 0292 FFF7FEFF 		bl	lv_draw_line_dsc_init
 414 0296 AB89     		ldrh	r3, [r5, #12]
 415 0298 ADF89830 		strh	r3, [sp, #152]	@ movhi
 416 029c 049B     		ldr	r3, [sp, #16]
 417 029e 93F90E30 		ldrsb	r3, [r3, #14]
 418 02a2 03B9     		cbnz	r3, .L33
 419 02a4 0123     		movs	r3, #1
 420              	.L33:
 421 02a6 ADF89A30 		strh	r3, [sp, #154]	@ movhi
 422 02aa AB7E     		ldrb	r3, [r5, #26]	@ zero_extendqisi2
 423 02ac 8DF8A030 		strb	r3, [sp, #160]
 424 02b0 AB7F     		ldrb	r3, [r5, #30]	@ zero_extendqisi2
 425 02b2 C3F3C103 		ubfx	r3, r3, #3, #2
 426 02b6 9DF8A120 		ldrb	r2, [sp, #161]	@ zero_extendqisi2
 427 02ba 63F30102 		bfi	r2, r3, #0, #2
 428 02be 8DF8A120 		strb	r2, [sp, #161]
 429 02c2 89E7     		b	.L32
 430              	.L62:
 431 02c4 0023     		movs	r3, #0
 432 02c6 0593     		str	r3, [sp, #20]
 433 02c8 8BE0     		b	.L36
 434              	.L63:
 435 02ca 0023     		movs	r3, #0
 436 02cc 0593     		str	r3, [sp, #20]
 437 02ce 88E0     		b	.L36
 438              	.L76:
 439 02d0 37B1     		cbz	r7, .L73
 440 02d2 012F     		cmp	r7, #1
 441 02d4 5CD0     		beq	.L64
 442 02d6 022F     		cmp	r7, #2
 443 02d8 40F09180 		bne	.L38
 444 02dc 0027     		movs	r7, #0
 445 02de 6DE0     		b	.L35
 446              	.L73:
 447 02e0 259B     		ldr	r3, [sp, #148]
 448 02e2 0F93     		str	r3, [sp, #60]
 449 02e4 0127     		movs	r7, #1
 450 02e6 69E0     		b	.L35
 451              	.L77:
 452 02e8 202B     		cmp	r3, #32
 453 02ea 67D1     		bne	.L35
 454 02ec 259B     		ldr	r3, [sp, #148]
 455 02ee 0F9A     		ldr	r2, [sp, #60]
 456 02f0 9B1A     		subs	r3, r3, r2
 457 02f2 072B     		cmp	r3, #7
 458 02f4 04D0     		beq	.L74
 459 02f6 AB89     		ldrh	r3, [r5, #12]
 460 02f8 ADF82E30 		strh	r3, [sp, #46]	@ movhi
 461 02fc 0227     		movs	r7, #2
 462 02fe 5DE0     		b	.L35
 463              	.L74:
ARM GAS  /var/folders/lp/x54gwt890xv47sdkqj1k04q40000gn/T//ccEqLHNy.s 			page 9


 464 0300 069B     		ldr	r3, [sp, #24]
 465 0302 9918     		adds	r1, r3, r2
 466 0304 15AA     		add	r2, sp, #84
 467 0306 0623     		movs	r3, #6
 468 0308 04E0     		b	.L43
 469              	.L44:
 470 030a 11F8010B 		ldrb	r0, [r1], #1	@ zero_extendqisi2
 471 030e 02F8010B 		strb	r0, [r2], #1
 472 0312 013B     		subs	r3, r3, #1
 473              	.L43:
 474 0314 002B     		cmp	r3, #0
 475 0316 F8D1     		bne	.L44
 476 0318 8DF85A30 		strb	r3, [sp, #90]
 477 031c 9DF85400 		ldrb	r0, [sp, #84]	@ zero_extendqisi2
 478 0320 FFF7FEFF 		bl	hex_char_to_num
 479 0324 0401     		lsls	r4, r0, #4
 480 0326 9DF85500 		ldrb	r0, [sp, #85]	@ zero_extendqisi2
 481 032a FFF7FEFF 		bl	hex_char_to_num
 482 032e 2318     		adds	r3, r4, r0
 483 0330 0593     		str	r3, [sp, #20]
 484 0332 9DF85600 		ldrb	r0, [sp, #86]	@ zero_extendqisi2
 485 0336 FFF7FEFF 		bl	hex_char_to_num
 486 033a 0401     		lsls	r4, r0, #4
 487 033c 9DF85700 		ldrb	r0, [sp, #87]	@ zero_extendqisi2
 488 0340 FFF7FEFF 		bl	hex_char_to_num
 489 0344 0444     		add	r4, r4, r0
 490 0346 9DF85800 		ldrb	r0, [sp, #88]	@ zero_extendqisi2
 491 034a FFF7FEFF 		bl	hex_char_to_num
 492 034e 0701     		lsls	r7, r0, #4
 493 0350 9DF85900 		ldrb	r0, [sp, #89]	@ zero_extendqisi2
 494 0354 FFF7FEFF 		bl	hex_char_to_num
 495 0358 3B18     		adds	r3, r7, r0
 496 035a C4F34211 		ubfx	r1, r4, #5, #3
 497 035e 059A     		ldr	r2, [sp, #20]
 498 0360 C2F3C402 		ubfx	r2, r2, #3, #5
 499 0364 C3F3C403 		ubfx	r3, r3, #3, #5
 500 0368 C4F38204 		ubfx	r4, r4, #2, #3
 501 036c 1198     		ldr	r0, [sp, #68]
 502 036e 61F30200 		bfi	r0, r1, #0, #3
 503 0372 0146     		mov	r1, r0
 504 0374 62F3C701 		bfi	r1, r2, #3, #5
 505 0378 0A46     		mov	r2, r1
 506 037a 63F30C22 		bfi	r2, r3, #8, #5
 507 037e 1346     		mov	r3, r2
 508 0380 64F34F33 		bfi	r3, r4, #13, #3
 509 0384 ADF84430 		strh	r3, [sp, #68]	@ movhi
 510 0388 ADF82E30 		strh	r3, [sp, #46]	@ movhi
 511 038c 0227     		movs	r7, #2
 512 038e 15E0     		b	.L35
 513              	.L64:
 514 0390 0027     		movs	r7, #0
 515 0392 37E0     		b	.L37
 516              	.L78:
 517 0394 BDF82E80 		ldrh	r8, [sp, #46]
 518 0398 38E0     		b	.L45
 519              	.L46:
 520 039a ADF8BC80 		strh	r8, [sp, #188]	@ movhi
ARM GAS  /var/folders/lp/x54gwt890xv47sdkqj1k04q40000gn/T//ccEqLHNy.s 			page 10


 521 039e 139B     		ldr	r3, [sp, #76]
 522 03a0 29AA     		add	r2, sp, #164
 523 03a2 2CA9     		add	r1, sp, #176
 524 03a4 0798     		ldr	r0, [sp, #28]
 525 03a6 FFF7FEFF 		bl	lv_draw_letter
 526 03aa 3CB1     		cbz	r4, .L35
 527 03ac BDF8A430 		ldrh	r3, [sp, #164]
 528 03b0 AA8A     		ldrh	r2, [r5, #20]
 529 03b2 1444     		add	r4, r4, r2
 530 03b4 13FA84F4 		uxtah	r4, r3, r4
 531 03b8 ADF8A440 		strh	r4, [sp, #164]	@ movhi
 532              	.L35:
 533 03bc A6EB0A03 		sub	r3, r6, r10
 534 03c0 2599     		ldr	r1, [sp, #148]
 535 03c2 8B42     		cmp	r3, r1
 536 03c4 53D9     		bls	.L75
 537 03c6 4FF6FF73 		movw	r3, #65535
 538 03ca 9945     		cmp	r9, r3
 539 03cc 3FF47AAF 		beq	.L62
 540 03d0 9B45     		cmp	fp, r3
 541 03d2 3FF47AAF 		beq	.L63
 542 03d6 844B     		ldr	r3, .L83
 543 03d8 1B68     		ldr	r3, [r3]
 544 03da 5144     		add	r1, r1, r10
 545 03dc 0898     		ldr	r0, [sp, #32]
 546 03de 9847     		blx	r3
 547 03e0 0590     		str	r0, [sp, #20]
 548              	.L36:
 549 03e2 25AB     		add	r3, sp, #148
 550 03e4 14AA     		add	r2, sp, #80
 551 03e6 13A9     		add	r1, sp, #76
 552 03e8 0698     		ldr	r0, [sp, #24]
 553 03ea FFF7FEFF 		bl	_lv_txt_encoded_letter_next_2
 554 03ee 6B7F     		ldrb	r3, [r5, #29]	@ zero_extendqisi2
 555 03f0 13F0010F 		tst	r3, #1
 556 03f4 06D0     		beq	.L37
 557 03f6 139B     		ldr	r3, [sp, #76]
 558 03f8 232B     		cmp	r3, #35
 559 03fa 3FF469AF 		beq	.L76
 560              	.L38:
 561 03fe 012F     		cmp	r7, #1
 562 0400 3FF472AF 		beq	.L77
 563              	.L37:
 564 0404 B5F80C80 		ldrh	r8, [r5, #12]
 565 0408 022F     		cmp	r7, #2
 566 040a C3D0     		beq	.L78
 567              	.L45:
 568 040c 149A     		ldr	r2, [sp, #80]
 569 040e 1399     		ldr	r1, [sp, #76]
 570 0410 0498     		ldr	r0, [sp, #16]
 571 0412 FFF7FEFF 		bl	lv_font_get_glyph_width
 572 0416 0446     		mov	r4, r0
 573 0418 4FF6FF73 		movw	r3, #65535
 574 041c 9945     		cmp	r9, r3
 575 041e BCD0     		beq	.L46
 576 0420 9B45     		cmp	fp, r3
 577 0422 BAD0     		beq	.L46
ARM GAS  /var/folders/lp/x54gwt890xv47sdkqj1k04q40000gn/T//ccEqLHNy.s 			page 11


 578 0424 059B     		ldr	r3, [sp, #20]
 579 0426 9945     		cmp	r9, r3
 580 0428 B7D8     		bhi	.L46
 581 042a 9B45     		cmp	fp, r3
 582 042c B5D9     		bls	.L46
 583 042e BDF9A430 		ldrsh	r3, [sp, #164]
 584 0432 ADF85430 		strh	r3, [sp, #84]	@ movhi
 585 0436 BDF9A620 		ldrsh	r2, [sp, #166]
 586 043a ADF85620 		strh	r2, [sp, #86]	@ movhi
 587 043e 10FA83F3 		uxtah	r3, r0, r3
 588 0442 A98A     		ldrh	r1, [r5, #20]
 589 0444 11FA83F3 		uxtah	r3, r1, r3
 590 0448 9BB2     		uxth	r3, r3
 591 044a 013B     		subs	r3, r3, #1
 592 044c ADF85830 		strh	r3, [sp, #88]	@ movhi
 593 0450 0D9B     		ldr	r3, [sp, #52]
 594 0452 13FA82F3 		uxtah	r3, r3, r2
 595 0456 9BB2     		uxth	r3, r3
 596 0458 013B     		subs	r3, r3, #1
 597 045a ADF85A30 		strh	r3, [sp, #90]	@ movhi
 598 045e 15AA     		add	r2, sp, #84
 599 0460 17A9     		add	r1, sp, #92
 600 0462 0798     		ldr	r0, [sp, #28]
 601 0464 FFF7FEFF 		bl	lv_draw_rect
 602 0468 B5F80E80 		ldrh	r8, [r5, #14]
 603 046c 95E7     		b	.L46
 604              	.L75:
 605 046e AB7F     		ldrb	r3, [r5, #30]	@ zero_extendqisi2
 606 0470 13F0020F 		tst	r3, #2
 607 0474 3FD1     		bne	.L79
 608              	.L50:
 609 0476 AB7F     		ldrb	r3, [r5, #30]	@ zero_extendqisi2
 610 0478 13F0010F 		tst	r3, #1
 611 047c 60D1     		bne	.L80
 612              	.L51:
 613 047e 089B     		ldr	r3, [sp, #32]
 614 0480 9C19     		adds	r4, r3, r6
 615 0482 6B7F     		ldrb	r3, [r5, #29]	@ zero_extendqisi2
 616 0484 0193     		str	r3, [sp, #4]
 617 0486 0023     		movs	r3, #0
 618 0488 0093     		str	r3, [sp]
 619 048a 0A9B     		ldr	r3, [sp, #40]
 620 048c B5F91420 		ldrsh	r2, [r5, #20]
 621 0490 0499     		ldr	r1, [sp, #16]
 622 0492 2046     		mov	r0, r4
 623 0494 FFF7FEFF 		bl	_lv_txt_get_next_line
 624 0498 3718     		adds	r7, r6, r0
 625 049a 099B     		ldr	r3, [sp, #36]
 626 049c B3F90030 		ldrsh	r3, [r3]
 627 04a0 ADF8A430 		strh	r3, [sp, #164]	@ movhi
 628 04a4 0C9B     		ldr	r3, [sp, #48]
 629 04a6 022B     		cmp	r3, #2
 630 04a8 6DD0     		beq	.L81
 631 04aa 0C9B     		ldr	r3, [sp, #48]
 632 04ac 032B     		cmp	r3, #3
 633 04ae 00F08480 		beq	.L82
 634              	.L53:
ARM GAS  /var/folders/lp/x54gwt890xv47sdkqj1k04q40000gn/T//ccEqLHNy.s 			page 12


 635 04b2 BDF8A630 		ldrh	r3, [sp, #166]
 636 04b6 0D9A     		ldr	r2, [sp, #52]
 637 04b8 1344     		add	r3, r3, r2
 638 04ba 1BB2     		sxth	r3, r3
 639 04bc ADF8A630 		strh	r3, [sp, #166]	@ movhi
 640 04c0 079A     		ldr	r2, [sp, #28]
 641 04c2 9268     		ldr	r2, [r2, #8]
 642 04c4 B2F90620 		ldrsh	r2, [r2, #6]
 643 04c8 B246     		mov	r10, r6
 644 04ca 9342     		cmp	r3, r2
 645 04cc 3FF7B8AD 		bgt	.L18
 646 04d0 3E46     		mov	r6, r7
 647              	.L34:
 648 04d2 089B     		ldr	r3, [sp, #32]
 649 04d4 03EB0A02 		add	r2, r3, r10
 650 04d8 0692     		str	r2, [sp, #24]
 651 04da 13F80A30 		ldrb	r3, [r3, r10]	@ zero_extendqisi2
 652 04de 002B     		cmp	r3, #0
 653 04e0 3FF4AEAD 		beq	.L18
 654 04e4 BDF8A430 		ldrh	r3, [sp, #164]
 655 04e8 0E9A     		ldr	r2, [sp, #56]
 656 04ea 1344     		add	r3, r3, r2
 657 04ec ADF8A430 		strh	r3, [sp, #164]	@ movhi
 658 04f0 0027     		movs	r7, #0
 659 04f2 2597     		str	r7, [sp, #148]
 660 04f4 62E7     		b	.L35
 661              	.L79:
 662 04f6 109B     		ldr	r3, [sp, #64]
 663 04f8 ADF85030 		strh	r3, [sp, #80]	@ movhi
 664 04fc BDF8A630 		ldrh	r3, [sp, #166]
 665 0500 2A68     		ldr	r2, [r5]
 666 0502 B2F90820 		ldrsh	r2, [r2, #8]
 667 0506 02EBD272 		add	r2, r2, r2, lsr #31
 668 050a 03EB6203 		add	r3, r3, r2, asr #1
 669 050e BDF99A20 		ldrsh	r2, [sp, #154]
 670 0512 02EBD272 		add	r2, r2, r2, lsr #31
 671 0516 5210     		asrs	r2, r2, #1
 672 0518 12FA83F3 		uxtah	r3, r2, r3
 673 051c 1BB2     		sxth	r3, r3
 674 051e ADF85230 		strh	r3, [sp, #82]	@ movhi
 675 0522 BDF9A420 		ldrsh	r2, [sp, #164]
 676 0526 ADF85420 		strh	r2, [sp, #84]	@ movhi
 677 052a ADF85630 		strh	r3, [sp, #86]	@ movhi
 678 052e ADF89880 		strh	r8, [sp, #152]	@ movhi
 679 0532 15AB     		add	r3, sp, #84
 680 0534 14AA     		add	r2, sp, #80
 681 0536 26A9     		add	r1, sp, #152
 682 0538 0798     		ldr	r0, [sp, #28]
 683 053a FFF7FEFF 		bl	lv_draw_line
 684 053e 9AE7     		b	.L50
 685              	.L80:
 686 0540 109B     		ldr	r3, [sp, #64]
 687 0542 ADF85030 		strh	r3, [sp, #80]	@ movhi
 688 0546 BDF8A630 		ldrh	r3, [sp, #166]
 689 054a 2A68     		ldr	r2, [r5]
 690 054c 1189     		ldrh	r1, [r2, #8]
 691 054e 0B44     		add	r3, r3, r1
ARM GAS  /var/folders/lp/x54gwt890xv47sdkqj1k04q40000gn/T//ccEqLHNy.s 			page 13


 692 0550 9BB2     		uxth	r3, r3
 693 0552 5289     		ldrh	r2, [r2, #10]
 694 0554 9B1A     		subs	r3, r3, r2
 695 0556 9BB2     		uxth	r3, r3
 696 0558 049A     		ldr	r2, [sp, #16]
 697 055a 92F90D20 		ldrsb	r2, [r2, #13]
 698 055e 92B2     		uxth	r2, r2
 699 0560 9B1A     		subs	r3, r3, r2
 700 0562 1BB2     		sxth	r3, r3
 701 0564 ADF85230 		strh	r3, [sp, #82]	@ movhi
 702 0568 BDF9A420 		ldrsh	r2, [sp, #164]
 703 056c ADF85420 		strh	r2, [sp, #84]	@ movhi
 704 0570 ADF85630 		strh	r3, [sp, #86]	@ movhi
 705 0574 ADF89880 		strh	r8, [sp, #152]	@ movhi
 706 0578 15AB     		add	r3, sp, #84
 707 057a 14AA     		add	r2, sp, #80
 708 057c 26A9     		add	r1, sp, #152
 709 057e 0798     		ldr	r0, [sp, #28]
 710 0580 FFF7FEFF 		bl	lv_draw_line
 711 0584 7BE7     		b	.L51
 712              	.L81:
 713 0586 6B7F     		ldrb	r3, [r5, #29]	@ zero_extendqisi2
 714 0588 0093     		str	r3, [sp]
 715 058a B5F91430 		ldrsh	r3, [r5, #20]
 716 058e 049A     		ldr	r2, [sp, #16]
 717 0590 0146     		mov	r1, r0
 718 0592 2046     		mov	r0, r4
 719 0594 FFF7FEFF 		bl	lv_txt_get_width
 720 0598 099A     		ldr	r2, [sp, #36]
 721 059a 9388     		ldrh	r3, [r2, #4]
 722 059c 1288     		ldrh	r2, [r2]
 723 059e 9B1A     		subs	r3, r3, r2
 724 05a0 9BB2     		uxth	r3, r3
 725 05a2 0133     		adds	r3, r3, #1
 726 05a4 1BB2     		sxth	r3, r3
 727 05a6 181A     		subs	r0, r3, r0
 728 05a8 00EBD070 		add	r0, r0, r0, lsr #31
 729 05ac BDF8A430 		ldrh	r3, [sp, #164]
 730 05b0 03EB6003 		add	r3, r3, r0, asr #1
 731 05b4 ADF8A430 		strh	r3, [sp, #164]	@ movhi
 732 05b8 7BE7     		b	.L53
 733              	.L82:
 734 05ba 6B7F     		ldrb	r3, [r5, #29]	@ zero_extendqisi2
 735 05bc 0093     		str	r3, [sp]
 736 05be B5F91430 		ldrsh	r3, [r5, #20]
 737 05c2 049A     		ldr	r2, [sp, #16]
 738 05c4 0146     		mov	r1, r0
 739 05c6 2046     		mov	r0, r4
 740 05c8 FFF7FEFF 		bl	lv_txt_get_width
 741 05cc 099A     		ldr	r2, [sp, #36]
 742 05ce 9388     		ldrh	r3, [r2, #4]
 743 05d0 1288     		ldrh	r2, [r2]
 744 05d2 9B1A     		subs	r3, r3, r2
 745 05d4 9BB2     		uxth	r3, r3
 746 05d6 0133     		adds	r3, r3, #1
 747 05d8 1BB2     		sxth	r3, r3
 748 05da 1B1A     		subs	r3, r3, r0
ARM GAS  /var/folders/lp/x54gwt890xv47sdkqj1k04q40000gn/T//ccEqLHNy.s 			page 14


 749 05dc BDF8A420 		ldrh	r2, [sp, #164]
 750 05e0 1344     		add	r3, r3, r2
 751 05e2 ADF8A430 		strh	r3, [sp, #164]	@ movhi
 752 05e6 64E7     		b	.L53
 753              	.L84:
 754              		.align	2
 755              	.L83:
 756 05e8 00000000 		.word	_lv_txt_encoded_get_char_id
 758              		.ident	"GCC: (xPack GNU Arm Embedded GCC arm64) 13.3.1 20240614"
ARM GAS  /var/folders/lp/x54gwt890xv47sdkqj1k04q40000gn/T//ccEqLHNy.s 			page 15

