ARM GAS  /var/folders/lp/x54gwt890xv47sdkqj1k04q40000gn/T//ccaCJ9T6.s 			page 1


   1              		.cpu cortex-m4
   2              		.arch armv7e-m
   3              		.fpu fpv4-sp-d16
   4              		.eabi_attribute 27, 1
   5              		.eabi_attribute 28, 1
   6              		.eabi_attribute 20, 1
   7              		.eabi_attribute 21, 1
   8              		.eabi_attribute 23, 3
   9              		.eabi_attribute 24, 1
  10              		.eabi_attribute 25, 1
  11              		.eabi_attribute 26, 1
  12              		.eabi_attribute 30, 1
  13              		.eabi_attribute 34, 1
  14              		.eabi_attribute 18, 4
  15              		.file	"lv_draw_sw_letter.c"
  16              		.text
  17              		.section	.text.draw_letter_normal,"ax",%progbits
  18              		.align	1
  19              		.syntax unified
  20              		.thumb
  21              		.thumb_func
  23              	draw_letter_normal:
  24              		@ args = 4, pretend = 0, frame = 88
  25              		@ frame_needed = 0, uses_anonymous_args = 0
  26 0000 2DE9F04F 		push	{r4, r5, r6, r7, r8, r9, r10, fp, lr}
  27 0004 97B0     		sub	sp, sp, #92
  28 0006 0790     		str	r0, [sp, #28]
  29 0008 0D46     		mov	r5, r1
  30 000a 0592     		str	r2, [sp, #20]
  31 000c 93F80E90 		ldrb	r9, [r3, #14]	@ zero_extendqisi2
  32 0010 09F00F09 		and	r9, r9, #15
  33 0014 8C7E     		ldrb	r4, [r1, #26]	@ zero_extendqisi2
  34 0016 B9F1030F 		cmp	r9, #3
  35 001a 21D0     		beq	.L31
  36 001c 09F1FF32 		add	r2, r9, #-1
  37 0020 072A     		cmp	r2, #7
  38 0022 00F25881 		bhi	.L1
  39 0026 DFE812F0 		tbh	[pc, r2, lsl #1]
  40              	.L5:
  41 002a 0800     		.2byte	(.L7-.L5)/2
  42 002c 2A00     		.2byte	(.L32-.L5)/2
  43 002e 5601     		.2byte	(.L1-.L5)/2
  44 0030 0E00     		.2byte	(.L6-.L5)/2
  45 0032 5601     		.2byte	(.L1-.L5)/2
  46 0034 5601     		.2byte	(.L1-.L5)/2
  47 0036 5601     		.2byte	(.L1-.L5)/2
  48 0038 1400     		.2byte	(.L4-.L5)/2
  49              		.p2align 1
  50              	.L7:
  51 003a 0226     		movs	r6, #2
  52 003c 8022     		movs	r2, #128
  53 003e 0092     		str	r2, [sp]
  54 0040 DFF8BCB2 		ldr	fp, .L47+12
  55 0044 13E0     		b	.L2
  56              	.L6:
  57 0046 1026     		movs	r6, #16
  58 0048 F022     		movs	r2, #240
ARM GAS  /var/folders/lp/x54gwt890xv47sdkqj1k04q40000gn/T//ccaCJ9T6.s 			page 2


  59 004a 0092     		str	r2, [sp]
  60 004c DFF8B4B2 		ldr	fp, .L47+16
  61 0050 0DE0     		b	.L2
  62              	.L4:
  63 0052 4FF48076 		mov	r6, #256
  64 0056 FF22     		movs	r2, #255
  65 0058 0092     		str	r2, [sp]
  66 005a DFF8ACB2 		ldr	fp, .L47+20
  67 005e 06E0     		b	.L2
  68              	.L31:
  69 0060 4FF00409 		mov	r9, #4
  70 0064 1026     		movs	r6, #16
  71 0066 F022     		movs	r2, #240
  72 0068 0092     		str	r2, [sp]
  73 006a DFF898B2 		ldr	fp, .L47+16
  74              	.L2:
  75 006e FC2C     		cmp	r4, #252
  76 0070 26D8     		bhi	.L8
  77 0072 A04A     		ldr	r2, .L47
  78 0074 1278     		ldrb	r2, [r2]	@ zero_extendqisi2
  79 0076 A242     		cmp	r2, r4
  80 0078 07D0     		beq	.L42
  81 007a 0021     		movs	r1, #0
  82 007c 0FE0     		b	.L12
  83              	.L32:
  84 007e 0426     		movs	r6, #4
  85 0080 C022     		movs	r2, #192
  86 0082 0092     		str	r2, [sp]
  87 0084 DFF884B2 		ldr	fp, .L47+24
  88 0088 F1E7     		b	.L2
  89              	.L42:
  90 008a 9B4A     		ldr	r2, .L47+4
  91 008c 1268     		ldr	r2, [r2]
  92 008e 4A45     		cmp	r2, r9
  93 0090 0FD0     		beq	.L10
  94 0092 0021     		movs	r1, #0
  95 0094 03E0     		b	.L12
  96              	.L35:
  97 0096 2246     		mov	r2, r4
  98              	.L11:
  99 0098 9848     		ldr	r0, .L47+8
 100 009a 4254     		strb	r2, [r0, r1]
 101 009c 0131     		adds	r1, r1, #1
 102              	.L12:
 103 009e 8E42     		cmp	r6, r1
 104 00a0 07D9     		bls	.L10
 105 00a2 1BF80120 		ldrb	r2, [fp, r1]	@ zero_extendqisi2
 106 00a6 FF2A     		cmp	r2, #255
 107 00a8 F5D0     		beq	.L35
 108 00aa 04FB02F2 		mul	r2, r4, r2
 109 00ae 120A     		lsrs	r2, r2, #8
 110 00b0 F2E7     		b	.L11
 111              	.L10:
 112 00b2 904A     		ldr	r2, .L47
 113 00b4 1470     		strb	r4, [r2]
 114 00b6 904A     		ldr	r2, .L47+4
 115 00b8 C2F80090 		str	r9, [r2]
ARM GAS  /var/folders/lp/x54gwt890xv47sdkqj1k04q40000gn/T//ccaCJ9T6.s 			page 3


 116 00bc DFF83CB2 		ldr	fp, .L47+8
 117              	.L8:
 118 00c0 DA88     		ldrh	r2, [r3, #6]
 119 00c2 0692     		str	r2, [sp, #24]
 120 00c4 1F89     		ldrh	r7, [r3, #8]
 121 00c6 09FB02F1 		mul	r1, r9, r2
 122 00ca 059B     		ldr	r3, [sp, #20]
 123 00cc B3F90000 		ldrsh	r0, [r3]
 124 00d0 079B     		ldr	r3, [sp, #28]
 125 00d2 9B68     		ldr	r3, [r3, #8]
 126 00d4 B3F90020 		ldrsh	r2, [r3]
 127 00d8 9042     		cmp	r0, r2
 128 00da 02DA     		bge	.L36
 129 00dc 121A     		subs	r2, r2, r0
 130 00de 0292     		str	r2, [sp, #8]
 131 00e0 01E0     		b	.L14
 132              	.L36:
 133 00e2 0022     		movs	r2, #0
 134 00e4 0292     		str	r2, [sp, #8]
 135              	.L14:
 136 00e6 069A     		ldr	r2, [sp, #24]
 137 00e8 8218     		adds	r2, r0, r2
 138 00ea B3F90440 		ldrsh	r4, [r3, #4]
 139 00ee A242     		cmp	r2, r4
 140 00f0 03DD     		ble	.L37
 141 00f2 241A     		subs	r4, r4, r0
 142 00f4 04F10108 		add	r8, r4, #1
 143 00f8 01E0     		b	.L15
 144              	.L37:
 145 00fa DDF81880 		ldr	r8, [sp, #24]
 146              	.L15:
 147 00fe 059A     		ldr	r2, [sp, #20]
 148 0100 B2F90200 		ldrsh	r0, [r2, #2]
 149 0104 B3F90220 		ldrsh	r2, [r3, #2]
 150 0108 9042     		cmp	r0, r2
 151 010a 02DA     		bge	.L38
 152 010c 121A     		subs	r2, r2, r0
 153 010e 0192     		str	r2, [sp, #4]
 154 0110 01E0     		b	.L16
 155              	.L38:
 156 0112 0022     		movs	r2, #0
 157 0114 0192     		str	r2, [sp, #4]
 158              	.L16:
 159 0116 C219     		adds	r2, r0, r7
 160 0118 B3F90640 		ldrsh	r4, [r3, #6]
 161 011c A242     		cmp	r2, r4
 162 011e 03DD     		ble	.L39
 163 0120 241A     		subs	r4, r4, r0
 164 0122 631C     		adds	r3, r4, #1
 165 0124 0393     		str	r3, [sp, #12]
 166 0126 00E0     		b	.L17
 167              	.L39:
 168 0128 0397     		str	r7, [sp, #12]
 169              	.L17:
 170 012a 029B     		ldr	r3, [sp, #8]
 171 012c 09FB03F4 		mul	r4, r9, r3
 172 0130 0198     		ldr	r0, [sp, #4]
ARM GAS  /var/folders/lp/x54gwt890xv47sdkqj1k04q40000gn/T//ccaCJ9T6.s 			page 4


 173 0132 01FB0044 		mla	r4, r1, r0, r4
 174 0136 209E     		ldr	r6, [sp, #128]
 175 0138 06EBD406 		add	r6, r6, r4, lsr #3
 176 013c 04F00704 		and	r4, r4, #7
 177 0140 1C21     		movs	r1, #28
 178 0142 0FA8     		add	r0, sp, #60
 179 0144 FFF7FEFF 		bl	lv_memset_00
 180 0148 AB89     		ldrh	r3, [r5, #12]
 181 014a ADF84430 		strh	r3, [sp, #68]	@ movhi
 182 014e AB7E     		ldrb	r3, [r5, #26]	@ zero_extendqisi2
 183 0150 8DF85430 		strb	r3, [sp, #84]
 184 0154 AB7F     		ldrb	r3, [r5, #30]	@ zero_extendqisi2
 185 0156 C3F3C203 		ubfx	r3, r3, #3, #3
 186 015a 8DF85530 		strb	r3, [sp, #85]
 187 015e FFF7FEFF 		bl	_lv_refr_get_disp_refreshing
 188 0162 FFF7FEFF 		bl	lv_disp_get_hor_res
 189 0166 0699     		ldr	r1, [sp, #24]
 190 0168 01FB07F7 		mul	r7, r1, r7
 191 016c 3D46     		mov	r5, r7
 192 016e 8742     		cmp	r7, r0
 193 0170 A8BF     		it	ge
 194 0172 0546     		movge	r5, r0
 195 0174 0495     		str	r5, [sp, #16]
 196 0176 2846     		mov	r0, r5
 197 0178 FFF7FEFF 		bl	lv_mem_buf_get
 198 017c 8246     		mov	r10, r0
 199 017e 1290     		str	r0, [sp, #72]
 200 0180 059D     		ldr	r5, [sp, #20]
 201 0182 2B88     		ldrh	r3, [r5]
 202 0184 029A     		ldr	r2, [sp, #8]
 203 0186 9A18     		adds	r2, r3, r2
 204 0188 91B2     		uxth	r1, r2
 205 018a 12B2     		sxth	r2, r2
 206 018c ADF83420 		strh	r2, [sp, #52]	@ movhi
 207 0190 4344     		add	r3, r3, r8
 208 0192 9BB2     		uxth	r3, r3
 209 0194 013B     		subs	r3, r3, #1
 210 0196 98B2     		uxth	r0, r3
 211 0198 1BB2     		sxth	r3, r3
 212 019a ADF83830 		strh	r3, [sp, #56]	@ movhi
 213 019e 6D88     		ldrh	r5, [r5, #2]
 214 01a0 019F     		ldr	r7, [sp, #4]
 215 01a2 3D44     		add	r5, r5, r7
 216 01a4 2FB2     		sxth	r7, r5
 217 01a6 ADF83670 		strh	r7, [sp, #54]	@ movhi
 218 01aa ADF83A70 		strh	r7, [sp, #58]	@ movhi
 219 01ae 411A     		subs	r1, r0, r1
 220 01b0 89B2     		uxth	r1, r1
 221 01b2 0131     		adds	r1, r1, #1
 222 01b4 08B2     		sxth	r0, r1
 223 01b6 0890     		str	r0, [sp, #32]
 224 01b8 ADF82C20 		strh	r2, [sp, #44]	@ movhi
 225 01bc ADF82E70 		strh	r7, [sp, #46]	@ movhi
 226 01c0 ADF83030 		strh	r3, [sp, #48]	@ movhi
 227 01c4 ADF83270 		strh	r7, [sp, #50]	@ movhi
 228 01c8 0398     		ldr	r0, [sp, #12]
 229 01ca 10FA85F5 		uxtah	r5, r0, r5
ARM GAS  /var/folders/lp/x54gwt890xv47sdkqj1k04q40000gn/T//ccaCJ9T6.s 			page 5


 230 01ce ADF83250 		strh	r5, [sp, #50]	@ movhi
 231 01d2 0BA8     		add	r0, sp, #44
 232 01d4 FFF7FEFF 		bl	lv_draw_mask_is_any
 233 01d8 0590     		str	r0, [sp, #20]
 234 01da 0DAB     		add	r3, sp, #52
 235 01dc 0F93     		str	r3, [sp, #60]
 236 01de 1493     		str	r3, [sp, #80]
 237 01e0 C9F10807 		rsb	r7, r9, #8
 238 01e4 029B     		ldr	r3, [sp, #8]
 239 01e6 0699     		ldr	r1, [sp, #24]
 240 01e8 0B44     		add	r3, r3, r1
 241 01ea A3EB0803 		sub	r3, r3, r8
 242 01ee 09FB03F3 		mul	r3, r9, r3
 243 01f2 0693     		str	r3, [sp, #24]
 244 01f4 0020     		movs	r0, #0
 245 01f6 36E0     		b	.L18
 246              	.L20:
 247 01f8 0023     		movs	r3, #0
 248 01fa 0AF80530 		strb	r3, [r10, r5]
 249 01fe 14E0     		b	.L21
 250              	.L22:
 251 0200 0136     		adds	r6, r6, #1
 252 0202 0099     		ldr	r1, [sp]
 253 0204 0024     		movs	r4, #0
 254              	.L23:
 255 0206 0135     		adds	r5, r5, #1
 256 0208 0132     		adds	r2, r2, #1
 257              	.L19:
 258 020a 4245     		cmp	r2, r8
 259 020c 13DA     		bge	.L43
 260 020e 3378     		ldrb	r3, [r6]	@ zero_extendqisi2
 261 0210 0B40     		ands	r3, r3, r1
 262 0212 A7EB040C 		sub	ip, r7, r4
 263 0216 23FA0CF3 		lsr	r3, r3, ip
 264 021a 13F0FF0F 		tst	r3, #255
 265 021e EBD0     		beq	.L20
 266 0220 DBB2     		uxtb	r3, r3
 267 0222 1BF80330 		ldrb	r3, [fp, r3]	@ zero_extendqisi2
 268 0226 0AF80530 		strb	r3, [r10, r5]
 269              	.L21:
 270 022a BC42     		cmp	r4, r7
 271 022c E8D2     		bcs	.L22
 272 022e 4C44     		add	r4, r4, r9
 273 0230 21FA09F1 		lsr	r1, r1, r9
 274 0234 E7E7     		b	.L23
 275              	.L43:
 276 0236 059B     		ldr	r3, [sp, #20]
 277 0238 FBB9     		cbnz	r3, .L44
 278              	.L25:
 279 023a 029B     		ldr	r3, [sp, #8]
 280 023c A8EB0303 		sub	r3, r8, r3
 281 0240 2B44     		add	r3, r3, r5
 282 0242 049A     		ldr	r2, [sp, #16]
 283 0244 9342     		cmp	r3, r2
 284 0246 2CD2     		bcs	.L26
 285 0248 BDF93A30 		ldrsh	r3, [sp, #58]
 286 024c 0133     		adds	r3, r3, #1
ARM GAS  /var/folders/lp/x54gwt890xv47sdkqj1k04q40000gn/T//ccaCJ9T6.s 			page 6


 287 024e ADF83A30 		strh	r3, [sp, #58]	@ movhi
 288 0252 2846     		mov	r0, r5
 289              	.L27:
 290 0254 069B     		ldr	r3, [sp, #24]
 291 0256 1C44     		add	r4, r4, r3
 292 0258 06EBD406 		add	r6, r6, r4, lsr #3
 293 025c 04F00704 		and	r4, r4, #7
 294 0260 019B     		ldr	r3, [sp, #4]
 295 0262 0133     		adds	r3, r3, #1
 296 0264 0193     		str	r3, [sp, #4]
 297              	.L18:
 298 0266 019B     		ldr	r3, [sp, #4]
 299 0268 039A     		ldr	r2, [sp, #12]
 300 026a 9342     		cmp	r3, r2
 301 026c 2ADA     		bge	.L45
 302 026e 009B     		ldr	r3, [sp]
 303 0270 23FA04F1 		lsr	r1, r3, r4
 304 0274 0546     		mov	r5, r0
 305 0276 029A     		ldr	r2, [sp, #8]
 306 0278 C7E7     		b	.L19
 307              	.L44:
 308 027a 0AEB0003 		add	r3, r10, r0
 309 027e 1846     		mov	r0, r3
 310 0280 0993     		str	r3, [sp, #36]
 311 0282 089B     		ldr	r3, [sp, #32]
 312 0284 BDF93A20 		ldrsh	r2, [sp, #58]
 313 0288 BDF93410 		ldrsh	r1, [sp, #52]
 314 028c FFF7FEFF 		bl	lv_draw_mask_apply
 315 0290 8DF84C00 		strb	r0, [sp, #76]
 316 0294 0028     		cmp	r0, #0
 317 0296 D0D1     		bne	.L25
 318 0298 0899     		ldr	r1, [sp, #32]
 319 029a 0998     		ldr	r0, [sp, #36]
 320 029c FFF7FEFF 		bl	lv_memset_00
 321 02a0 CBE7     		b	.L25
 322              	.L26:
 323 02a2 0223     		movs	r3, #2
 324 02a4 8DF84C30 		strb	r3, [sp, #76]
 325 02a8 0FA9     		add	r1, sp, #60
 326 02aa 0798     		ldr	r0, [sp, #28]
 327 02ac FFF7FEFF 		bl	lv_draw_sw_blend
 328 02b0 BDF83A30 		ldrh	r3, [sp, #58]
 329 02b4 0133     		adds	r3, r3, #1
 330 02b6 1BB2     		sxth	r3, r3
 331 02b8 ADF83630 		strh	r3, [sp, #54]	@ movhi
 332 02bc ADF83A30 		strh	r3, [sp, #58]	@ movhi
 333 02c0 0020     		movs	r0, #0
 334 02c2 C7E7     		b	.L27
 335              	.L45:
 336 02c4 BDF93620 		ldrsh	r2, [sp, #54]
 337 02c8 BDF93A30 		ldrsh	r3, [sp, #58]
 338 02cc 9A42     		cmp	r2, r3
 339 02ce 05D1     		bne	.L46
 340              	.L29:
 341 02d0 5046     		mov	r0, r10
 342 02d2 FFF7FEFF 		bl	lv_mem_buf_release
 343              	.L1:
ARM GAS  /var/folders/lp/x54gwt890xv47sdkqj1k04q40000gn/T//ccaCJ9T6.s 			page 7


 344 02d6 17B0     		add	sp, sp, #92
 345              		@ sp needed
 346 02d8 BDE8F08F 		pop	{r4, r5, r6, r7, r8, r9, r10, fp, pc}
 347              	.L46:
 348 02dc 013B     		subs	r3, r3, #1
 349 02de ADF83A30 		strh	r3, [sp, #58]	@ movhi
 350 02e2 0223     		movs	r3, #2
 351 02e4 8DF84C30 		strb	r3, [sp, #76]
 352 02e8 0FA9     		add	r1, sp, #60
 353 02ea 0798     		ldr	r0, [sp, #28]
 354 02ec FFF7FEFF 		bl	lv_draw_sw_blend
 355 02f0 EEE7     		b	.L29
 356              	.L48:
 357 02f2 00BF     		.align	2
 358              	.L47:
 359 02f4 00000000 		.word	prev_opa.2
 360 02f8 00000000 		.word	prev_bpp.1
 361 02fc 00000000 		.word	opa_table.0
 362 0300 00000000 		.word	_lv_bpp1_opa_table
 363 0304 00000000 		.word	_lv_bpp4_opa_table
 364 0308 00000000 		.word	_lv_bpp8_opa_table
 365 030c 00000000 		.word	_lv_bpp2_opa_table
 367              		.section	.text.lv_draw_sw_letter,"ax",%progbits
 368              		.align	1
 369              		.global	lv_draw_sw_letter
 370              		.syntax unified
 371              		.thumb
 372              		.thumb_func
 374              	lv_draw_sw_letter:
 375              		@ args = 0, pretend = 0, frame = 88
 376              		@ frame_needed = 0, uses_anonymous_args = 0
 377 0000 F0B5     		push	{r4, r5, r6, r7, lr}
 378 0002 99B0     		sub	sp, sp, #100
 379 0004 0646     		mov	r6, r0
 380 0006 0D46     		mov	r5, r1
 381 0008 1746     		mov	r7, r2
 382 000a 1C46     		mov	r4, r3
 383 000c 0023     		movs	r3, #0
 384 000e 2246     		mov	r2, r4
 385 0010 14A9     		add	r1, sp, #80
 386 0012 2868     		ldr	r0, [r5]
 387 0014 FFF7FEFF 		bl	lv_font_get_glyph_dsc
 388 0018 0028     		cmp	r0, #0
 389 001a 4AD0     		beq	.L56
 390 001c BDF85810 		ldrh	r1, [sp, #88]
 391 0020 0029     		cmp	r1, #0
 392 0022 50D0     		beq	.L49
 393 0024 BDF85600 		ldrh	r0, [sp, #86]
 394 0028 0028     		cmp	r0, #0
 395 002a 4CD0     		beq	.L49
 396 002c 3B88     		ldrh	r3, [r7]
 397 002e BDF85A20 		ldrh	r2, [sp, #90]
 398 0032 1344     		add	r3, r3, r2
 399 0034 1BB2     		sxth	r3, r3
 400 0036 ADF84C30 		strh	r3, [sp, #76]	@ movhi
 401 003a 7F88     		ldrh	r7, [r7, #2]
 402 003c 2A68     		ldr	r2, [r5]
ARM GAS  /var/folders/lp/x54gwt890xv47sdkqj1k04q40000gn/T//ccaCJ9T6.s 			page 8


 403 003e B2F808C0 		ldrh	ip, [r2, #8]
 404 0042 5289     		ldrh	r2, [r2, #10]
 405 0044 ACEB020C 		sub	ip, ip, r2
 406 0048 17FA8CFC 		uxtah	ip, r7, ip
 407 004c 1FFA8CFC 		uxth	ip, ip
 408 0050 ACEB010C 		sub	ip, ip, r1
 409 0054 1FFA8CFC 		uxth	ip, ip
 410 0058 BDF85C20 		ldrh	r2, [sp, #92]
 411 005c ACEB020C 		sub	ip, ip, r2
 412 0060 0FFA8CFC 		sxth	ip, ip
 413 0064 ADF84EC0 		strh	ip, [sp, #78]	@ movhi
 414 0068 1844     		add	r0, r0, r3
 415 006a B268     		ldr	r2, [r6, #8]
 416 006c B2F90070 		ldrsh	r7, [r2]
 417 0070 B842     		cmp	r0, r7
 418 0072 28DB     		blt	.L49
 419 0074 B2F90400 		ldrsh	r0, [r2, #4]
 420 0078 8342     		cmp	r3, r0
 421 007a 24DC     		bgt	.L49
 422 007c 6144     		add	r1, r1, ip
 423 007e B2F90230 		ldrsh	r3, [r2, #2]
 424 0082 9942     		cmp	r1, r3
 425 0084 1FDB     		blt	.L49
 426 0086 B2F90630 		ldrsh	r3, [r2, #6]
 427 008a 9C45     		cmp	ip, r3
 428 008c 1BDC     		bgt	.L49
 429 008e 2146     		mov	r1, r4
 430 0090 1498     		ldr	r0, [sp, #80]
 431 0092 FFF7FEFF 		bl	lv_font_get_glyph_bitmap
 432 0096 B0B1     		cbz	r0, .L49
 433 0098 149B     		ldr	r3, [sp, #80]
 434 009a 1B7B     		ldrb	r3, [r3, #12]	@ zero_extendqisi2
 435 009c 13F0030F 		tst	r3, #3
 436 00a0 11D1     		bne	.L49
 437 00a2 0090     		str	r0, [sp]
 438 00a4 14AB     		add	r3, sp, #80
 439 00a6 13AA     		add	r2, sp, #76
 440 00a8 2946     		mov	r1, r5
 441 00aa 3046     		mov	r0, r6
 442 00ac FFF7FEFF 		bl	draw_letter_normal
 443 00b0 09E0     		b	.L49
 444              	.L56:
 445 00b2 1F2C     		cmp	r4, #31
 446 00b4 07D9     		bls	.L49
 447 00b6 4FF6FF03 		movw	r3, #63743
 448 00ba 9C42     		cmp	r4, r3
 449 00bc 03D0     		beq	.L49
 450 00be 42F20C03 		movw	r3, #8204
 451 00c2 9C42     		cmp	r4, r3
 452 00c4 01D1     		bne	.L57
 453              	.L49:
 454 00c6 19B0     		add	sp, sp, #100
 455              		@ sp needed
 456 00c8 F0BD     		pop	{r4, r5, r6, r7, pc}
 457              	.L57:
 458 00ca 3988     		ldrh	r1, [r7]
 459 00cc BDF85A30 		ldrh	r3, [sp, #90]
ARM GAS  /var/folders/lp/x54gwt890xv47sdkqj1k04q40000gn/T//ccaCJ9T6.s 			page 9


 460 00d0 1944     		add	r1, r1, r3
 461 00d2 7A88     		ldrh	r2, [r7, #2]
 462 00d4 BDF85C30 		ldrh	r3, [sp, #92]
 463 00d8 1A44     		add	r2, r2, r3
 464 00da BDF85630 		ldrh	r3, [sp, #86]
 465 00de 13FA81F3 		uxtah	r3, r3, r1
 466 00e2 BDF85800 		ldrh	r0, [sp, #88]
 467 00e6 10FA82F0 		uxtah	r0, r0, r2
 468 00ea 00B2     		sxth	r0, r0
 469 00ec 0090     		str	r0, [sp]
 470 00ee 1BB2     		sxth	r3, r3
 471 00f0 12B2     		sxth	r2, r2
 472 00f2 09B2     		sxth	r1, r1
 473 00f4 03A8     		add	r0, sp, #12
 474 00f6 FFF7FEFF 		bl	lv_area_set
 475 00fa 05A8     		add	r0, sp, #20
 476 00fc FFF7FEFF 		bl	lv_draw_rect_dsc_init
 477 0100 0223     		movs	r3, #2
 478 0102 8DF81730 		strb	r3, [sp, #23]
 479 0106 8DF83E30 		strb	r3, [sp, #62]
 480 010a 8DF84A30 		strb	r3, [sp, #74]
 481 010e 8DF82E30 		strb	r3, [sp, #46]
 482 0112 AB89     		ldrh	r3, [r5, #12]
 483 0114 ADF83230 		strh	r3, [sp, #50]	@ movhi
 484 0118 0123     		movs	r3, #1
 485 011a ADF83430 		strh	r3, [sp, #52]	@ movhi
 486 011e 3369     		ldr	r3, [r6, #16]
 487 0120 03AA     		add	r2, sp, #12
 488 0122 05A9     		add	r1, sp, #20
 489 0124 3046     		mov	r0, r6
 490 0126 9847     		blx	r3
 491 0128 CDE7     		b	.L49
 493              		.section	.bss.opa_table.0,"aw",%nobits
 494              		.align	2
 497              	opa_table.0:
 498 0000 00000000 		.space	256
 498      00000000 
 498      00000000 
 498      00000000 
 498      00000000 
 499              		.section	.bss.prev_bpp.1,"aw",%nobits
 500              		.align	2
 503              	prev_bpp.1:
 504 0000 00000000 		.space	4
 505              		.section	.bss.prev_opa.2,"aw",%nobits
 508              	prev_opa.2:
 509 0000 00       		.space	1
 510              		.global	_lv_bpp8_opa_table
 511              		.section	.rodata._lv_bpp8_opa_table,"a"
 512              		.align	2
 515              	_lv_bpp8_opa_table:
 516 0000 00010203 		.ascii	"\000\001\002\003\004\005\006\007\010\011\012\013\014"
 516      04050607 
 516      08090A0B 
 516      0C
 517 000d 0D0E0F10 		.ascii	"\015\016\017\020\021\022\023\024\025\026\027\030\031"
 517      11121314 
ARM GAS  /var/folders/lp/x54gwt890xv47sdkqj1k04q40000gn/T//ccaCJ9T6.s 			page 10


 517      15161718 
 517      19
 518 001a 1A1B1C1D 		.ascii	"\032\033\034\035\036\037 !\"#$%&'()*+,-./0123456789"
 518      1E1F2021 
 518      22232425 
 518      26272829 
 518      2A2B2C2D 
 519 003a 3A3B3C3D 		.ascii	":;<=>?@ABCDEFGHIJKLMNOPQRSTUVWXYZ[\\]^_`abcdefghijk"
 519      3E3F4041 
 519      42434445 
 519      46474849 
 519      4A4B4C4D 
 520 006c 6C6D6E6F 		.ascii	"lmnopqrstuvwxyz{|}~\177\200\201\202\203\204\205\206"
 520      70717273 
 520      74757677 
 520      78797A7B 
 520      7C7D7E7F 
 521 0087 8788898A 		.ascii	"\207\210\211\212\213\214\215\216\217\220\221\222\223"
 521      8B8C8D8E 
 521      8F909192 
 521      93
 522 0094 94959697 		.ascii	"\224\225\226\227\230\231\232\233\234\235\236\237\240"
 522      98999A9B 
 522      9C9D9E9F 
 522      A0
 523 00a1 A1A2A3A4 		.ascii	"\241\242\243\244\245\246\247\250\251\252\253\254\255"
 523      A5A6A7A8 
 523      A9AAABAC 
 523      AD
 524 00ae AEAFB0B1 		.ascii	"\256\257\260\261\262\263\264\265\266\267\270\271\272"
 524      B2B3B4B5 
 524      B6B7B8B9 
 524      BA
 525 00bb BBBCBDBE 		.ascii	"\273\274\275\276\277\300\301\302\303\304\305\306\307"
 525      BFC0C1C2 
 525      C3C4C5C6 
 525      C7
 526 00c8 C8C9CACB 		.ascii	"\310\311\312\313\314\315\316\317\320\321\322\323\324"
 526      CCCDCECF 
 526      D0D1D2D3 
 526      D4
 527 00d5 D5D6D7D8 		.ascii	"\325\326\327\330\331\332\333\334\335\336\337\340\341"
 527      D9DADBDC 
 527      DDDEDFE0 
 527      E1
 528 00e2 E2E3E4E5 		.ascii	"\342\343\344\345\346\347\350\351\352\353\354\355\356"
 528      E6E7E8E9 
 528      EAEBECED 
 528      EE
 529 00ef EFF0F1F2 		.ascii	"\357\360\361\362\363\364\365\366\367\370\371\372\373"
 529      F3F4F5F6 
 529      F7F8F9FA 
 529      FB
 530 00fc FCFDFEFF 		.ascii	"\374\375\376\377"
 531              		.global	_lv_bpp4_opa_table
 532              		.section	.rodata._lv_bpp4_opa_table,"a"
 533              		.align	2
ARM GAS  /var/folders/lp/x54gwt890xv47sdkqj1k04q40000gn/T//ccaCJ9T6.s 			page 11


 536              	_lv_bpp4_opa_table:
 537 0000 00112233 		.ascii	"\000\021\"3DUfw\210\231\252\273\314\335\356\377"
 537      44556677 
 537      8899AABB 
 537      CCDDEEFF 
 538              		.global	_lv_bpp3_opa_table
 539              		.section	.rodata._lv_bpp3_opa_table,"a"
 540              		.align	2
 543              	_lv_bpp3_opa_table:
 544 0000 0024496D 		.ascii	"\000$Im\222\266\333\377"
 544      92B6DBFF 
 545              		.global	_lv_bpp2_opa_table
 546              		.section	.rodata._lv_bpp2_opa_table,"a"
 547              		.align	2
 550              	_lv_bpp2_opa_table:
 551 0000 0055AAFF 		.ascii	"\000U\252\377"
 552              		.global	_lv_bpp1_opa_table
 553              		.section	.rodata._lv_bpp1_opa_table,"a"
 554              		.align	2
 557              	_lv_bpp1_opa_table:
 558 0000 00FF     		.ascii	"\000\377"
 559              		.ident	"GCC: (xPack GNU Arm Embedded GCC arm64) 13.3.1 20240614"
ARM GAS  /var/folders/lp/x54gwt890xv47sdkqj1k04q40000gn/T//ccaCJ9T6.s 			page 12


DEFINED SYMBOLS
                            *ABS*:00000000 lv_draw_sw_letter.c
/var/folders/lp/x54gwt890xv47sdkqj1k04q40000gn/T//ccaCJ9T6.s:18     .text.draw_letter_normal:00000000 $t
/var/folders/lp/x54gwt890xv47sdkqj1k04q40000gn/T//ccaCJ9T6.s:23     .text.draw_letter_normal:00000000 draw_letter_normal
/var/folders/lp/x54gwt890xv47sdkqj1k04q40000gn/T//ccaCJ9T6.s:41     .text.draw_letter_normal:0000002a $d
/var/folders/lp/x54gwt890xv47sdkqj1k04q40000gn/T//ccaCJ9T6.s:49     .text.draw_letter_normal:0000003a $t
/var/folders/lp/x54gwt890xv47sdkqj1k04q40000gn/T//ccaCJ9T6.s:359    .text.draw_letter_normal:000002f4 $d
/var/folders/lp/x54gwt890xv47sdkqj1k04q40000gn/T//ccaCJ9T6.s:508    .bss.prev_opa.2:00000000 prev_opa.2
/var/folders/lp/x54gwt890xv47sdkqj1k04q40000gn/T//ccaCJ9T6.s:503    .bss.prev_bpp.1:00000000 prev_bpp.1
/var/folders/lp/x54gwt890xv47sdkqj1k04q40000gn/T//ccaCJ9T6.s:497    .bss.opa_table.0:00000000 opa_table.0
/var/folders/lp/x54gwt890xv47sdkqj1k04q40000gn/T//ccaCJ9T6.s:557    .rodata._lv_bpp1_opa_table:00000000 _lv_bpp1_opa_table
/var/folders/lp/x54gwt890xv47sdkqj1k04q40000gn/T//ccaCJ9T6.s:536    .rodata._lv_bpp4_opa_table:00000000 _lv_bpp4_opa_table
/var/folders/lp/x54gwt890xv47sdkqj1k04q40000gn/T//ccaCJ9T6.s:515    .rodata._lv_bpp8_opa_table:00000000 _lv_bpp8_opa_table
/var/folders/lp/x54gwt890xv47sdkqj1k04q40000gn/T//ccaCJ9T6.s:550    .rodata._lv_bpp2_opa_table:00000000 _lv_bpp2_opa_table
/var/folders/lp/x54gwt890xv47sdkqj1k04q40000gn/T//ccaCJ9T6.s:368    .text.lv_draw_sw_letter:00000000 $t
/var/folders/lp/x54gwt890xv47sdkqj1k04q40000gn/T//ccaCJ9T6.s:374    .text.lv_draw_sw_letter:00000000 lv_draw_sw_letter
/var/folders/lp/x54gwt890xv47sdkqj1k04q40000gn/T//ccaCJ9T6.s:494    .bss.opa_table.0:00000000 $d
/var/folders/lp/x54gwt890xv47sdkqj1k04q40000gn/T//ccaCJ9T6.s:500    .bss.prev_bpp.1:00000000 $d
/var/folders/lp/x54gwt890xv47sdkqj1k04q40000gn/T//ccaCJ9T6.s:509    .bss.prev_opa.2:00000000 $d
/var/folders/lp/x54gwt890xv47sdkqj1k04q40000gn/T//ccaCJ9T6.s:512    .rodata._lv_bpp8_opa_table:00000000 $d
/var/folders/lp/x54gwt890xv47sdkqj1k04q40000gn/T//ccaCJ9T6.s:533    .rodata._lv_bpp4_opa_table:00000000 $d
/var/folders/lp/x54gwt890xv47sdkqj1k04q40000gn/T//ccaCJ9T6.s:543    .rodata._lv_bpp3_opa_table:00000000 _lv_bpp3_opa_table
/var/folders/lp/x54gwt890xv47sdkqj1k04q40000gn/T//ccaCJ9T6.s:540    .rodata._lv_bpp3_opa_table:00000000 $d
/var/folders/lp/x54gwt890xv47sdkqj1k04q40000gn/T//ccaCJ9T6.s:547    .rodata._lv_bpp2_opa_table:00000000 $d
/var/folders/lp/x54gwt890xv47sdkqj1k04q40000gn/T//ccaCJ9T6.s:554    .rodata._lv_bpp1_opa_table:00000000 $d

UNDEFINED SYMBOLS
lv_memset_00
_lv_refr_get_disp_refreshing
lv_disp_get_hor_res
lv_mem_buf_get
lv_draw_mask_is_any
lv_draw_mask_apply
lv_draw_sw_blend
lv_mem_buf_release
lv_font_get_glyph_dsc
lv_font_get_glyph_bitmap
lv_area_set
lv_draw_rect_dsc_init
