ARM GAS  /var/folders/lp/x54gwt890xv47sdkqj1k04q40000gn/T//cch6fzDU.s 			page 1


   1              		.cpu cortex-m4
   2              		.arch armv7e-m
   3              		.fpu fpv4-sp-d16
   4              		.eabi_attribute 27, 1
   5              		.eabi_attribute 28, 1
   6              		.eabi_attribute 20, 1
   7              		.eabi_attribute 21, 1
   8              		.eabi_attribute 23, 3
   9              		.eabi_attribute 24, 1
  10              		.eabi_attribute 25, 1
  11              		.eabi_attribute 26, 1
  12              		.eabi_attribute 30, 1
  13              		.eabi_attribute 34, 1
  14              		.eabi_attribute 18, 4
  15              		.file	"lv_draw_rect.c"
  16              		.text
  17              		.section	.text.lv_draw_rect_dsc_init,"ax",%progbits
  18              		.align	1
  19              		.global	lv_draw_rect_dsc_init
  20              		.syntax unified
  21              		.thumb
  22              		.thumb_func
  24              	lv_draw_rect_dsc_init:
  25              		@ args = 0, pretend = 0, frame = 0
  26              		@ frame_needed = 0, uses_anonymous_args = 0
  27 0000 10B5     		push	{r4, lr}
  28 0002 0446     		mov	r4, r0
  29 0004 3821     		movs	r1, #56
  30 0006 FFF7FEFF 		bl	lv_memset_00
  31 000a 4FF6FF73 		movw	r3, #65535
  32 000e A380     		strh	r3, [r4, #4]	@ movhi
  33 0010 E380     		strh	r3, [r4, #6]	@ movhi
  34 0012 4FF00003 		mov	r3, #0	@ movhi
  35 0016 23F00703 		bic	r3, r3, #7
  36 001a 23F0F803 		bic	r3, r3, #248
  37 001e 23F4F853 		bic	r3, r3, #7936
  38 0022 23F46043 		bic	r3, r3, #57344
  39 0026 6381     		strh	r3, [r4, #10]	@ movhi
  40 0028 FF22     		movs	r2, #255
  41 002a 2273     		strb	r2, [r4, #12]
  42 002c 0223     		movs	r3, #2
  43 002e A373     		strb	r3, [r4, #14]
  44 0030 4FF00003 		mov	r3, #0	@ movhi
  45 0034 23F00703 		bic	r3, r3, #7
  46 0038 23F0F803 		bic	r3, r3, #248
  47 003c 23F4F853 		bic	r3, r3, #7936
  48 0040 23F46043 		bic	r3, r3, #57344
  49 0044 E383     		strh	r3, [r4, #30]	@ movhi
  50 0046 4FF00003 		mov	r3, #0	@ movhi
  51 004a 23F00703 		bic	r3, r3, #7
  52 004e 23F0F803 		bic	r3, r3, #248
  53 0052 23F4F853 		bic	r3, r3, #7936
  54 0056 23F46043 		bic	r3, r3, #57344
  55 005a A385     		strh	r3, [r4, #44]	@ movhi
  56 005c 084B     		ldr	r3, .L3
  57 005e 6361     		str	r3, [r4, #20]
  58 0060 E270     		strb	r2, [r4, #3]
ARM GAS  /var/folders/lp/x54gwt890xv47sdkqj1k04q40000gn/T//cch6fzDU.s 			page 2


  59 0062 A276     		strb	r2, [r4, #26]
  60 0064 84F82A20 		strb	r2, [r4, #42]
  61 0068 84F82220 		strb	r2, [r4, #34]
  62 006c 84F83620 		strb	r2, [r4, #54]
  63 0070 94F82330 		ldrb	r3, [r4, #35]	@ zero_extendqisi2
  64 0074 0F22     		movs	r2, #15
  65 0076 62F34503 		bfi	r3, r2, #1, #5
  66 007a 84F82330 		strb	r3, [r4, #35]
  67 007e 10BD     		pop	{r4, pc}
  68              	.L4:
  69              		.align	2
  70              	.L3:
  71 0080 00000000 		.word	lv_font_montserrat_14
  73              		.section	.text.lv_draw_rect,"ax",%progbits
  74              		.align	1
  75              		.global	lv_draw_rect
  76              		.syntax unified
  77              		.thumb
  78              		.thumb_func
  80              	lv_draw_rect:
  81              		@ args = 0, pretend = 0, frame = 0
  82              		@ frame_needed = 0, uses_anonymous_args = 0
  83 0000 08B5     		push	{r3, lr}
  84 0002 D388     		ldrh	r3, [r2, #6]
  85 0004 B2F802C0 		ldrh	ip, [r2, #2]
  86 0008 A3EB0C03 		sub	r3, r3, ip
  87 000c 9BB2     		uxth	r3, r3
  88 000e 0133     		adds	r3, r3, #1
  89 0010 1BB2     		sxth	r3, r3
  90 0012 002B     		cmp	r3, #0
  91 0014 0BDD     		ble	.L5
  92 0016 9388     		ldrh	r3, [r2, #4]
  93 0018 B2F800C0 		ldrh	ip, [r2]
  94 001c A3EB0C03 		sub	r3, r3, ip
  95 0020 9BB2     		uxth	r3, r3
  96 0022 0133     		adds	r3, r3, #1
  97 0024 1BB2     		sxth	r3, r3
  98 0026 002B     		cmp	r3, #0
  99 0028 01DD     		ble	.L5
 100 002a 0369     		ldr	r3, [r0, #16]
 101 002c 9847     		blx	r3
 102              	.L5:
 103 002e 08BD     		pop	{r3, pc}
 105              		.ident	"GCC: (xPack GNU Arm Embedded GCC arm64) 13.3.1 20240614"
ARM GAS  /var/folders/lp/x54gwt890xv47sdkqj1k04q40000gn/T//cch6fzDU.s 			page 3


DEFINED SYMBOLS
                            *ABS*:00000000 lv_draw_rect.c
/var/folders/lp/x54gwt890xv47sdkqj1k04q40000gn/T//cch6fzDU.s:18     .text.lv_draw_rect_dsc_init:00000000 $t
/var/folders/lp/x54gwt890xv47sdkqj1k04q40000gn/T//cch6fzDU.s:24     .text.lv_draw_rect_dsc_init:00000000 lv_draw_rect_dsc_init
/var/folders/lp/x54gwt890xv47sdkqj1k04q40000gn/T//cch6fzDU.s:71     .text.lv_draw_rect_dsc_init:00000080 $d
/var/folders/lp/x54gwt890xv47sdkqj1k04q40000gn/T//cch6fzDU.s:74     .text.lv_draw_rect:00000000 $t
/var/folders/lp/x54gwt890xv47sdkqj1k04q40000gn/T//cch6fzDU.s:80     .text.lv_draw_rect:00000000 lv_draw_rect

UNDEFINED SYMBOLS
lv_memset_00
lv_font_montserrat_14
