ARM GAS  /var/folders/lp/x54gwt890xv47sdkqj1k04q40000gn/T//ccC5njr9.s 			page 1


   1              		.cpu cortex-m4
   2              		.arch armv7e-m
   3              		.fpu fpv4-sp-d16
   4              		.eabi_attribute 27, 1
   5              		.eabi_attribute 28, 1
   6              		.eabi_attribute 20, 1
   7              		.eabi_attribute 21, 1
   8              		.eabi_attribute 23, 3
   9              		.eabi_attribute 24, 1
  10              		.eabi_attribute 25, 1
  11              		.eabi_attribute 26, 1
  12              		.eabi_attribute 30, 1
  13              		.eabi_attribute 34, 1
  14              		.eabi_attribute 18, 4
  15              		.file	"lv_dropdown.c"
  16              		.text
  17              		.section	.text.lv_dropdownlist_destructor,"ax",%progbits
  18              		.align	1
  19              		.syntax unified
  20              		.thumb
  21              		.thumb_func
  23              	lv_dropdownlist_destructor:
  24              		@ args = 0, pretend = 0, frame = 0
  25              		@ frame_needed = 0, uses_anonymous_args = 0
  26              		@ link register save eliminated.
  27 0000 4B6A     		ldr	r3, [r1, #36]
  28 0002 0022     		movs	r2, #0
  29 0004 5A62     		str	r2, [r3, #36]
  30 0006 7047     		bx	lr
  32              		.section	.text.get_label,"ax",%progbits
  33              		.align	1
  34              		.syntax unified
  35              		.thumb
  36              		.thumb_func
  38              	get_label:
  39              		@ args = 0, pretend = 0, frame = 0
  40              		@ frame_needed = 0, uses_anonymous_args = 0
  41 0000 406A     		ldr	r0, [r0, #36]
  42 0002 20B1     		cbz	r0, .L5
  43 0004 08B5     		push	{r3, lr}
  44 0006 0021     		movs	r1, #0
  45 0008 FFF7FEFF 		bl	lv_obj_get_child
  46 000c 08BD     		pop	{r3, pc}
  47              	.L5:
  48 000e 7047     		bx	lr
  50              		.section	.text.position_to_selected,"ax",%progbits
  51              		.align	1
  52              		.syntax unified
  53              		.thumb
  54              		.thumb_func
  56              	position_to_selected:
  57              		@ args = 0, pretend = 0, frame = 0
  58              		@ frame_needed = 0, uses_anonymous_args = 0
  59 0000 70B5     		push	{r4, r5, r6, lr}
  60 0002 0446     		mov	r4, r0
  61 0004 FFF7FEFF 		bl	get_label
  62 0008 40B1     		cbz	r0, .L8
ARM GAS  /var/folders/lp/x54gwt890xv47sdkqj1k04q40000gn/T//ccC5njr9.s 			page 2


  63 000a 0646     		mov	r6, r0
  64 000c FFF7FEFF 		bl	lv_obj_get_height
  65 0010 0546     		mov	r5, r0
  66 0012 2046     		mov	r0, r4
  67 0014 FFF7FEFF 		bl	lv_obj_get_content_height
  68 0018 8542     		cmp	r5, r0
  69 001a 00DC     		bgt	.L11
  70              	.L8:
  71 001c 70BD     		pop	{r4, r5, r6, pc}
  72              	.L11:
  73 001e 5722     		movs	r2, #87
  74 0020 0021     		movs	r1, #0
  75 0022 3046     		mov	r0, r6
  76 0024 FFF7FEFF 		bl	lv_obj_get_style_prop
  77 0028 B0F90850 		ldrsh	r5, [r0, #8]
  78 002c 5922     		movs	r2, #89
  79 002e 0021     		movs	r1, #0
  80 0030 3046     		mov	r0, r6
  81 0032 FFF7FEFF 		bl	lv_obj_get_style_prop
  82 0036 2918     		adds	r1, r5, r0
  83 0038 E38E     		ldrh	r3, [r4, #54]
  84 003a 11FB03F1 		smulbb	r1, r1, r3
  85 003e 0022     		movs	r2, #0
  86 0040 09B2     		sxth	r1, r1
  87 0042 606A     		ldr	r0, [r4, #36]
  88 0044 FFF7FEFF 		bl	lv_obj_scroll_to_y
  89 0048 606A     		ldr	r0, [r4, #36]
  90 004a FFF7FEFF 		bl	lv_obj_invalidate
  91 004e E5E7     		b	.L8
  93              		.section	.text.get_id_on_point,"ax",%progbits
  94              		.align	1
  95              		.syntax unified
  96              		.thumb
  97              		.thumb_func
  99              	get_id_on_point:
 100              		@ args = 0, pretend = 0, frame = 0
 101              		@ frame_needed = 0, uses_anonymous_args = 0
 102 0000 F8B5     		push	{r3, r4, r5, r6, r7, lr}
 103 0002 0546     		mov	r5, r0
 104 0004 0C46     		mov	r4, r1
 105 0006 FFF7FEFF 		bl	get_label
 106 000a 00B3     		cbz	r0, .L14
 107 000c 0746     		mov	r7, r0
 108 000e C38A     		ldrh	r3, [r0, #22]
 109 0010 E41A     		subs	r4, r4, r3
 110 0012 A4B2     		uxth	r4, r4
 111 0014 5722     		movs	r2, #87
 112 0016 0021     		movs	r1, #0
 113 0018 FFF7FEFF 		bl	lv_obj_get_style_prop
 114 001c B0F90860 		ldrsh	r6, [r0, #8]
 115 0020 5922     		movs	r2, #89
 116 0022 0021     		movs	r1, #0
 117 0024 3846     		mov	r0, r7
 118 0026 FFF7FEFF 		bl	lv_obj_get_style_prop
 119 002a C0F3C033 		ubfx	r3, r0, #15, #1
 120 002e 03FA80F3 		sxtah	r3, r3, r0
 121 0032 04EB6303 		add	r3, r4, r3, asr #1
ARM GAS  /var/folders/lp/x54gwt890xv47sdkqj1k04q40000gn/T//ccC5njr9.s 			page 3


 122 0036 1BB2     		sxth	r3, r3
 123 0038 0644     		add	r6, r6, r0
 124 003a 36B2     		sxth	r6, r6
 125 003c 93FBF6F3 		sdiv	r3, r3, r6
 126 0040 98B2     		uxth	r0, r3
 127 0042 AB8E     		ldrh	r3, [r5, #52]
 128 0044 8342     		cmp	r3, r0
 129 0046 01D8     		bhi	.L13
 130 0048 013B     		subs	r3, r3, #1
 131 004a 98B2     		uxth	r0, r3
 132              	.L13:
 133 004c F8BD     		pop	{r3, r4, r5, r6, r7, pc}
 134              	.L14:
 135 004e 0020     		movs	r0, #0
 136 0050 FCE7     		b	.L13
 138              		.section	.text.lv_dropdown_destructor,"ax",%progbits
 139              		.align	1
 140              		.syntax unified
 141              		.thumb
 142              		.thumb_func
 144              	lv_dropdown_destructor:
 145              		@ args = 0, pretend = 0, frame = 0
 146              		@ frame_needed = 0, uses_anonymous_args = 0
 147 0000 10B5     		push	{r4, lr}
 148 0002 0C46     		mov	r4, r1
 149 0004 486A     		ldr	r0, [r1, #36]
 150 0006 18B1     		cbz	r0, .L17
 151 0008 FFF7FEFF 		bl	lv_obj_del
 152 000c 0023     		movs	r3, #0
 153 000e 6362     		str	r3, [r4, #36]
 154              	.L17:
 155 0010 94F83C30 		ldrb	r3, [r4, #60]	@ zero_extendqisi2
 156 0014 13F0100F 		tst	r3, #16
 157 0018 00D0     		beq	.L20
 158              	.L16:
 159 001a 10BD     		pop	{r4, pc}
 160              	.L20:
 161 001c 206B     		ldr	r0, [r4, #48]
 162 001e FFF7FEFF 		bl	lv_mem_free
 163 0022 0023     		movs	r3, #0
 164 0024 2363     		str	r3, [r4, #48]
 165 0026 F8E7     		b	.L16
 167              		.section	.text.lv_dropdown_list_create,"ax",%progbits
 168              		.align	1
 169              		.syntax unified
 170              		.thumb
 171              		.thumb_func
 173              	lv_dropdown_list_create:
 174              		@ args = 0, pretend = 0, frame = 0
 175              		@ frame_needed = 0, uses_anonymous_args = 0
 176 0000 10B5     		push	{r4, lr}
 177 0002 0146     		mov	r1, r0
 178 0004 0348     		ldr	r0, .L23
 179 0006 FFF7FEFF 		bl	lv_obj_class_create_obj
 180 000a 0446     		mov	r4, r0
 181 000c FFF7FEFF 		bl	lv_obj_class_init_obj
 182 0010 2046     		mov	r0, r4
ARM GAS  /var/folders/lp/x54gwt890xv47sdkqj1k04q40000gn/T//ccC5njr9.s 			page 4


 183 0012 10BD     		pop	{r4, pc}
 184              	.L24:
 185              		.align	2
 186              	.L23:
 187 0014 00000000 		.word	lv_dropdownlist_class
 189              		.section	.text.list_press_handler,"ax",%progbits
 190              		.align	1
 191              		.syntax unified
 192              		.thumb
 193              		.thumb_func
 195              	list_press_handler:
 196              		@ args = 0, pretend = 0, frame = 8
 197              		@ frame_needed = 0, uses_anonymous_args = 0
 198 0000 70B5     		push	{r4, r5, r6, lr}
 199 0002 82B0     		sub	sp, sp, #8
 200 0004 0446     		mov	r4, r0
 201 0006 466A     		ldr	r6, [r0, #36]
 202 0008 FFF7FEFF 		bl	lv_indev_get_act
 203 000c B0B1     		cbz	r0, .L25
 204 000e 0546     		mov	r5, r0
 205 0010 FFF7FEFF 		bl	lv_indev_get_type
 206 0014 0128     		cmp	r0, #1
 207 0016 04D0     		beq	.L27
 208 0018 2846     		mov	r0, r5
 209 001a FFF7FEFF 		bl	lv_indev_get_type
 210 001e 0328     		cmp	r0, #3
 211 0020 0CD1     		bne	.L25
 212              	.L27:
 213 0022 01A9     		add	r1, sp, #4
 214 0024 2846     		mov	r0, r5
 215 0026 FFF7FEFF 		bl	lv_indev_get_point
 216 002a BDF90610 		ldrsh	r1, [sp, #6]
 217 002e 3046     		mov	r0, r6
 218 0030 FFF7FEFF 		bl	get_id_on_point
 219 0034 7087     		strh	r0, [r6, #58]	@ movhi
 220 0036 2046     		mov	r0, r4
 221 0038 FFF7FEFF 		bl	lv_obj_invalidate
 222              	.L25:
 223 003c 02B0     		add	sp, sp, #8
 224              		@ sp needed
 225 003e 70BD     		pop	{r4, r5, r6, pc}
 227              		.section	.text.draw_box,"ax",%progbits
 228              		.align	1
 229              		.syntax unified
 230              		.thumb
 231              		.thumb_func
 233              	draw_box:
 234              		@ args = 0, pretend = 0, frame = 64
 235              		@ frame_needed = 0, uses_anonymous_args = 0
 236 0000 2DE9F04F 		push	{r4, r5, r6, r7, r8, r9, r10, fp, lr}
 237 0004 91B0     		sub	sp, sp, #68
 238 0006 9346     		mov	fp, r2
 239 0008 4FF6FF72 		movw	r2, #65535
 240 000c 9345     		cmp	fp, r2
 241 000e 5CD0     		beq	.L29
 242 0010 0546     		mov	r5, r0
 243 0012 0F46     		mov	r7, r1
ARM GAS  /var/folders/lp/x54gwt890xv47sdkqj1k04q40000gn/T//ccC5njr9.s 			page 5


 244 0014 446A     		ldr	r4, [r0, #36]
 245 0016 B4F82080 		ldrh	r8, [r4, #32]
 246 001a 9845     		cmp	r8, r3
 247 001c 06D0     		beq	.L32
 248 001e 2384     		strh	r3, [r4, #32]	@ movhi
 249 0020 94F82230 		ldrb	r3, [r4, #34]	@ zero_extendqisi2
 250 0024 43F00803 		orr	r3, r3, #8
 251 0028 84F82230 		strb	r3, [r4, #34]
 252              	.L32:
 253 002c 5722     		movs	r2, #87
 254 002e 4FF48021 		mov	r1, #262144
 255 0032 2046     		mov	r0, r4
 256 0034 FFF7FEFF 		bl	lv_obj_get_style_prop
 257 0038 8146     		mov	r9, r0
 258 003a 5922     		movs	r2, #89
 259 003c 4FF48021 		mov	r1, #262144
 260 0040 2046     		mov	r0, r4
 261 0042 FFF7FEFF 		bl	lv_obj_get_style_prop
 262 0046 0646     		mov	r6, r0
 263 0048 0FFA80FA 		sxth	r10, r0
 264 004c B9F90890 		ldrsh	r9, [r9, #8]
 265 0050 2846     		mov	r0, r5
 266 0052 FFF7FEFF 		bl	get_label
 267 0056 B0F91630 		ldrsh	r3, [r0, #22]
 268 005a ADF83A30 		strh	r3, [sp, #58]	@ movhi
 269 005e 09EB0A02 		add	r2, r9, r10
 270 0062 12FB0BF2 		smulbb	r2, r2, fp
 271 0066 12FA83F3 		uxtah	r3, r2, r3
 272 006a 9BB2     		uxth	r3, r3
 273 006c ADF83A30 		strh	r3, [sp, #58]	@ movhi
 274 0070 0AEBDA7A 		add	r10, r10, r10, lsr #31
 275 0074 A3EB6A03 		sub	r3, r3, r10, asr #1
 276 0078 9BB2     		uxth	r3, r3
 277 007a ADF83A30 		strh	r3, [sp, #58]	@ movhi
 278 007e 4B44     		add	r3, r3, r9
 279 0080 16FA83F3 		uxtah	r3, r6, r3
 280 0084 9BB2     		uxth	r3, r3
 281 0086 013B     		subs	r3, r3, #1
 282 0088 ADF83E30 		strh	r3, [sp, #62]	@ movhi
 283 008c 6B6A     		ldr	r3, [r5, #36]
 284 008e B3F91420 		ldrsh	r2, [r3, #20]
 285 0092 ADF83820 		strh	r2, [sp, #56]	@ movhi
 286 0096 B3F91830 		ldrsh	r3, [r3, #24]
 287 009a ADF83C30 		strh	r3, [sp, #60]	@ movhi
 288 009e 6846     		mov	r0, sp
 289 00a0 FFF7FEFF 		bl	lv_draw_rect_dsc_init
 290 00a4 6A46     		mov	r2, sp
 291 00a6 4FF48021 		mov	r1, #262144
 292 00aa 2046     		mov	r0, r4
 293 00ac FFF7FEFF 		bl	lv_obj_init_draw_rect_dsc
 294 00b0 0EAA     		add	r2, sp, #56
 295 00b2 6946     		mov	r1, sp
 296 00b4 3846     		mov	r0, r7
 297 00b6 FFF7FEFF 		bl	lv_draw_rect
 298 00ba A4F82080 		strh	r8, [r4, #32]	@ movhi
 299 00be 94F82230 		ldrb	r3, [r4, #34]	@ zero_extendqisi2
 300 00c2 23F00803 		bic	r3, r3, #8
ARM GAS  /var/folders/lp/x54gwt890xv47sdkqj1k04q40000gn/T//ccC5njr9.s 			page 6


 301 00c6 84F82230 		strb	r3, [r4, #34]
 302              	.L29:
 303 00ca 11B0     		add	sp, sp, #68
 304              		@ sp needed
 305 00cc BDE8F08F 		pop	{r4, r5, r6, r7, r8, r9, r10, fp, pc}
 307              		.section	.text.draw_box_label,"ax",%progbits
 308              		.align	1
 309              		.syntax unified
 310              		.thumb
 311              		.thumb_func
 313              	draw_box_label:
 314              		@ args = 0, pretend = 0, frame = 48
 315              		@ frame_needed = 0, uses_anonymous_args = 0
 316 0000 2DE9F043 		push	{r4, r5, r6, r7, r8, r9, lr}
 317 0004 8FB0     		sub	sp, sp, #60
 318 0006 9046     		mov	r8, r2
 319 0008 4FF6FF72 		movw	r2, #65535
 320 000c 9045     		cmp	r8, r2
 321 000e 57D0     		beq	.L34
 322 0010 0746     		mov	r7, r0
 323 0012 0D46     		mov	r5, r1
 324 0014 446A     		ldr	r4, [r0, #36]
 325 0016 268C     		ldrh	r6, [r4, #32]
 326 0018 9E42     		cmp	r6, r3
 327 001a 06D0     		beq	.L36
 328 001c 2384     		strh	r3, [r4, #32]	@ movhi
 329 001e 94F82230 		ldrb	r3, [r4, #34]	@ zero_extendqisi2
 330 0022 43F00803 		orr	r3, r3, #8
 331 0026 84F82230 		strb	r3, [r4, #34]
 332              	.L36:
 333 002a 06A8     		add	r0, sp, #24
 334 002c FFF7FEFF 		bl	lv_draw_label_dsc_init
 335 0030 06AA     		add	r2, sp, #24
 336 0032 4FF48021 		mov	r1, #262144
 337 0036 2046     		mov	r0, r4
 338 0038 FFF7FEFF 		bl	lv_obj_init_draw_label_dsc
 339 003c 5922     		movs	r2, #89
 340 003e 4FF48021 		mov	r1, #262144
 341 0042 2046     		mov	r0, r4
 342 0044 FFF7FEFF 		bl	lv_obj_get_style_prop
 343 0048 ADF82A00 		strh	r0, [sp, #42]	@ movhi
 344 004c 3846     		mov	r0, r7
 345 004e FFF7FEFF 		bl	get_label
 346 0052 0746     		mov	r7, r0
 347 0054 A0B3     		cbz	r0, .L34
 348 0056 069B     		ldr	r3, [sp, #24]
 349 0058 B3F90800 		ldrsh	r0, [r3, #8]
 350 005c B7F91630 		ldrsh	r3, [r7, #22]
 351 0060 ADF81230 		strh	r3, [sp, #18]	@ movhi
 352 0064 BDF92A20 		ldrsh	r2, [sp, #42]
 353 0068 8118     		adds	r1, r0, r2
 354 006a 11FB08F1 		smulbb	r1, r1, r8
 355 006e 11FA83F3 		uxtah	r3, r1, r3
 356 0072 9BB2     		uxth	r3, r3
 357 0074 ADF81230 		strh	r3, [sp, #18]	@ movhi
 358 0078 02EBD271 		add	r1, r2, r2, lsr #31
 359 007c A3EB6103 		sub	r3, r3, r1, asr #1
ARM GAS  /var/folders/lp/x54gwt890xv47sdkqj1k04q40000gn/T//ccC5njr9.s 			page 7


 360 0080 9BB2     		uxth	r3, r3
 361 0082 ADF81230 		strh	r3, [sp, #18]	@ movhi
 362 0086 0344     		add	r3, r3, r0
 363 0088 92B2     		uxth	r2, r2
 364 008a 12FA83F3 		uxtah	r3, r2, r3
 365 008e 9BB2     		uxth	r3, r3
 366 0090 013B     		subs	r3, r3, #1
 367 0092 ADF81630 		strh	r3, [sp, #22]	@ movhi
 368 0096 B4F91430 		ldrsh	r3, [r4, #20]
 369 009a ADF81030 		strh	r3, [sp, #16]	@ movhi
 370 009e B4F91830 		ldrsh	r3, [r4, #24]
 371 00a2 ADF81430 		strh	r3, [sp, #20]	@ movhi
 372 00a6 04AA     		add	r2, sp, #16
 373 00a8 A968     		ldr	r1, [r5, #8]
 374 00aa 02A8     		add	r0, sp, #8
 375 00ac FFF7FEFF 		bl	_lv_area_intersect
 376 00b0 48B9     		cbnz	r0, .L40
 377              	.L37:
 378 00b2 2684     		strh	r6, [r4, #32]	@ movhi
 379 00b4 94F82230 		ldrb	r3, [r4, #34]	@ zero_extendqisi2
 380 00b8 23F00803 		bic	r3, r3, #8
 381 00bc 84F82230 		strb	r3, [r4, #34]
 382              	.L34:
 383 00c0 0FB0     		add	sp, sp, #60
 384              		@ sp needed
 385 00c2 BDE8F083 		pop	{r4, r5, r6, r7, r8, r9, pc}
 386              	.L40:
 387 00c6 D5F80880 		ldr	r8, [r5, #8]
 388 00ca 02AB     		add	r3, sp, #8
 389 00cc AB60     		str	r3, [r5, #8]
 390 00ce 07F11409 		add	r9, r7, #20
 391 00d2 3846     		mov	r0, r7
 392 00d4 FFF7FEFF 		bl	lv_label_get_text
 393 00d8 0346     		mov	r3, r0
 394 00da 0022     		movs	r2, #0
 395 00dc 0092     		str	r2, [sp]
 396 00de 4A46     		mov	r2, r9
 397 00e0 06A9     		add	r1, sp, #24
 398 00e2 2846     		mov	r0, r5
 399 00e4 FFF7FEFF 		bl	lv_draw_label
 400 00e8 C5F80880 		str	r8, [r5, #8]
 401 00ec E1E7     		b	.L37
 403              		.section	.text.draw_list,"ax",%progbits
 404              		.align	1
 405              		.syntax unified
 406              		.thumb
 407              		.thumb_func
 409              	draw_list:
 410              		@ args = 0, pretend = 0, frame = 8
 411              		@ frame_needed = 0, uses_anonymous_args = 0
 412 0000 70B5     		push	{r4, r5, r6, lr}
 413 0002 82B0     		sub	sp, sp, #8
 414 0004 0446     		mov	r4, r0
 415 0006 FFF7FEFF 		bl	lv_event_get_target
 416 000a 456A     		ldr	r5, [r0, #36]
 417 000c 2046     		mov	r0, r4
 418 000e FFF7FEFF 		bl	lv_event_get_draw_ctx
ARM GAS  /var/folders/lp/x54gwt890xv47sdkqj1k04q40000gn/T//ccC5njr9.s 			page 8


 419 0012 0446     		mov	r4, r0
 420 0014 6A6A     		ldr	r2, [r5, #36]
 421 0016 1432     		adds	r2, r2, #20
 422 0018 8168     		ldr	r1, [r0, #8]
 423 001a 6846     		mov	r0, sp
 424 001c FFF7FEFF 		bl	_lv_area_intersect
 425 0020 18B3     		cbz	r0, .L41
 426 0022 A668     		ldr	r6, [r4, #8]
 427 0024 C4F808D0 		str	sp, [r4, #8]
 428 0028 95F83C30 		ldrb	r3, [r5, #60]	@ zero_extendqisi2
 429 002c 13F0200F 		tst	r3, #32
 430 0030 29D0     		beq	.L43
 431 0032 6A8F     		ldrh	r2, [r5, #58]
 432 0034 EB8E     		ldrh	r3, [r5, #54]
 433 0036 9A42     		cmp	r2, r3
 434 0038 19D0     		beq	.L47
 435 003a 2023     		movs	r3, #32
 436 003c 2146     		mov	r1, r4
 437 003e 2846     		mov	r0, r5
 438 0040 FFF7FEFF 		bl	draw_box
 439 0044 2023     		movs	r3, #32
 440 0046 6A8F     		ldrh	r2, [r5, #58]
 441 0048 2146     		mov	r1, r4
 442 004a 2846     		mov	r0, r5
 443 004c FFF7FEFF 		bl	draw_box_label
 444 0050 0123     		movs	r3, #1
 445 0052 EA8E     		ldrh	r2, [r5, #54]
 446 0054 2146     		mov	r1, r4
 447 0056 2846     		mov	r0, r5
 448 0058 FFF7FEFF 		bl	draw_box
 449 005c 0123     		movs	r3, #1
 450 005e EA8E     		ldrh	r2, [r5, #54]
 451 0060 2146     		mov	r1, r4
 452 0062 2846     		mov	r0, r5
 453 0064 FFF7FEFF 		bl	draw_box_label
 454              	.L45:
 455 0068 A660     		str	r6, [r4, #8]
 456              	.L41:
 457 006a 02B0     		add	sp, sp, #8
 458              		@ sp needed
 459 006c 70BD     		pop	{r4, r5, r6, pc}
 460              	.L47:
 461 006e 2123     		movs	r3, #33
 462 0070 2146     		mov	r1, r4
 463 0072 2846     		mov	r0, r5
 464 0074 FFF7FEFF 		bl	draw_box
 465 0078 2123     		movs	r3, #33
 466 007a 6A8F     		ldrh	r2, [r5, #58]
 467 007c 2146     		mov	r1, r4
 468 007e 2846     		mov	r0, r5
 469 0080 FFF7FEFF 		bl	draw_box_label
 470 0084 F0E7     		b	.L45
 471              	.L43:
 472 0086 2023     		movs	r3, #32
 473 0088 6A8F     		ldrh	r2, [r5, #58]
 474 008a 2146     		mov	r1, r4
 475 008c 2846     		mov	r0, r5
ARM GAS  /var/folders/lp/x54gwt890xv47sdkqj1k04q40000gn/T//ccC5njr9.s 			page 9


 476 008e FFF7FEFF 		bl	draw_box
 477 0092 2023     		movs	r3, #32
 478 0094 6A8F     		ldrh	r2, [r5, #58]
 479 0096 2146     		mov	r1, r4
 480 0098 2846     		mov	r0, r5
 481 009a FFF7FEFF 		bl	draw_box_label
 482 009e E3E7     		b	.L45
 484              		.section	.text.lv_dropdownlist_constructor,"ax",%progbits
 485              		.align	1
 486              		.syntax unified
 487              		.thumb
 488              		.thumb_func
 490              	lv_dropdownlist_constructor:
 491              		@ args = 0, pretend = 0, frame = 0
 492              		@ frame_needed = 0, uses_anonymous_args = 0
 493 0000 10B5     		push	{r4, lr}
 494 0002 0C46     		mov	r4, r1
 495 0004 4FF48061 		mov	r1, #1024
 496 0008 2046     		mov	r0, r4
 497 000a FFF7FEFF 		bl	lv_obj_clear_flag
 498 000e 0421     		movs	r1, #4
 499 0010 2046     		mov	r0, r4
 500 0012 FFF7FEFF 		bl	lv_obj_clear_flag
 501 0016 4FF40031 		mov	r1, #131072
 502 001a 2046     		mov	r0, r4
 503 001c FFF7FEFF 		bl	lv_obj_add_flag
 504 0020 0121     		movs	r1, #1
 505 0022 2046     		mov	r0, r4
 506 0024 FFF7FEFF 		bl	lv_obj_add_flag
 507 0028 2046     		mov	r0, r4
 508 002a FFF7FEFF 		bl	lv_label_create
 509 002e 10BD     		pop	{r4, pc}
 511              		.section	.text.lv_dropdown_create,"ax",%progbits
 512              		.align	1
 513              		.global	lv_dropdown_create
 514              		.syntax unified
 515              		.thumb
 516              		.thumb_func
 518              	lv_dropdown_create:
 519              		@ args = 0, pretend = 0, frame = 0
 520              		@ frame_needed = 0, uses_anonymous_args = 0
 521 0000 10B5     		push	{r4, lr}
 522 0002 0146     		mov	r1, r0
 523 0004 0348     		ldr	r0, .L52
 524 0006 FFF7FEFF 		bl	lv_obj_class_create_obj
 525 000a 0446     		mov	r4, r0
 526 000c FFF7FEFF 		bl	lv_obj_class_init_obj
 527 0010 2046     		mov	r0, r4
 528 0012 10BD     		pop	{r4, pc}
 529              	.L53:
 530              		.align	2
 531              	.L52:
 532 0014 00000000 		.word	lv_dropdown_class
 534              		.section	.text.lv_dropdown_set_text,"ax",%progbits
 535              		.align	1
 536              		.global	lv_dropdown_set_text
 537              		.syntax unified
ARM GAS  /var/folders/lp/x54gwt890xv47sdkqj1k04q40000gn/T//ccC5njr9.s 			page 10


 538              		.thumb
 539              		.thumb_func
 541              	lv_dropdown_set_text:
 542              		@ args = 0, pretend = 0, frame = 0
 543              		@ frame_needed = 0, uses_anonymous_args = 0
 544 0000 08B5     		push	{r3, lr}
 545 0002 836A     		ldr	r3, [r0, #40]
 546 0004 8B42     		cmp	r3, r1
 547 0006 02D0     		beq	.L54
 548 0008 8162     		str	r1, [r0, #40]
 549 000a FFF7FEFF 		bl	lv_obj_invalidate
 550              	.L54:
 551 000e 08BD     		pop	{r3, pc}
 553              		.section	.text.lv_dropdown_set_options,"ax",%progbits
 554              		.align	1
 555              		.global	lv_dropdown_set_options
 556              		.syntax unified
 557              		.thumb
 558              		.thumb_func
 560              	lv_dropdown_set_options:
 561              		@ args = 0, pretend = 0, frame = 0
 562              		@ frame_needed = 0, uses_anonymous_args = 0
 563 0000 29B1     		cbz	r1, .L59
 564 0002 70B5     		push	{r4, r5, r6, lr}
 565 0004 0446     		mov	r4, r0
 566 0006 0D46     		mov	r5, r1
 567 0008 0023     		movs	r3, #0
 568 000a 8386     		strh	r3, [r0, #52]	@ movhi
 569 000c 01E0     		b	.L60
 570              	.L59:
 571 000e FEE7     		b	.L59
 572              	.L61:
 573 0010 0133     		adds	r3, r3, #1
 574              	.L60:
 575 0012 EA5C     		ldrb	r2, [r5, r3]	@ zero_extendqisi2
 576 0014 2AB1     		cbz	r2, .L69
 577 0016 0A2A     		cmp	r2, #10
 578 0018 FAD1     		bne	.L61
 579 001a A28E     		ldrh	r2, [r4, #52]
 580 001c 0132     		adds	r2, r2, #1
 581 001e A286     		strh	r2, [r4, #52]	@ movhi
 582 0020 F6E7     		b	.L61
 583              	.L69:
 584 0022 A38E     		ldrh	r3, [r4, #52]
 585 0024 0133     		adds	r3, r3, #1
 586 0026 A386     		strh	r3, [r4, #52]	@ movhi
 587 0028 0023     		movs	r3, #0
 588 002a E386     		strh	r3, [r4, #54]	@ movhi
 589 002c 2387     		strh	r3, [r4, #56]	@ movhi
 590 002e 2846     		mov	r0, r5
 591 0030 FFF7FEFF 		bl	strlen
 592 0034 461C     		adds	r6, r0, #1
 593 0036 206B     		ldr	r0, [r4, #48]
 594 0038 20B1     		cbz	r0, .L63
 595 003a 94F83C30 		ldrb	r3, [r4, #60]	@ zero_extendqisi2
 596 003e 13F0100F 		tst	r3, #16
 597 0042 15D0     		beq	.L70
ARM GAS  /var/folders/lp/x54gwt890xv47sdkqj1k04q40000gn/T//ccC5njr9.s 			page 11


 598              	.L63:
 599 0044 3046     		mov	r0, r6
 600 0046 FFF7FEFF 		bl	lv_mem_alloc
 601 004a 2063     		str	r0, [r4, #48]
 602 004c A8B1     		cbz	r0, .L65
 603 004e 2946     		mov	r1, r5
 604 0050 FFF7FEFF 		bl	strcpy
 605 0054 94F83C30 		ldrb	r3, [r4, #60]	@ zero_extendqisi2
 606 0058 23F01003 		bic	r3, r3, #16
 607 005c 84F83C30 		strb	r3, [r4, #60]
 608 0060 2046     		mov	r0, r4
 609 0062 FFF7FEFF 		bl	lv_obj_invalidate
 610 0066 606A     		ldr	r0, [r4, #36]
 611 0068 08B1     		cbz	r0, .L57
 612 006a FFF7FEFF 		bl	lv_obj_invalidate
 613              	.L57:
 614 006e 70BD     		pop	{r4, r5, r6, pc}
 615              	.L70:
 616 0070 FFF7FEFF 		bl	lv_mem_free
 617 0074 0023     		movs	r3, #0
 618 0076 2363     		str	r3, [r4, #48]
 619 0078 E4E7     		b	.L63
 620              	.L65:
 621 007a FEE7     		b	.L65
 623              		.section	.text.lv_dropdown_set_options_static,"ax",%progbits
 624              		.align	1
 625              		.global	lv_dropdown_set_options_static
 626              		.syntax unified
 627              		.thumb
 628              		.thumb_func
 630              	lv_dropdown_set_options_static:
 631              		@ args = 0, pretend = 0, frame = 0
 632              		@ frame_needed = 0, uses_anonymous_args = 0
 633 0000 29B1     		cbz	r1, .L73
 634 0002 38B5     		push	{r3, r4, r5, lr}
 635 0004 0446     		mov	r4, r0
 636 0006 0D46     		mov	r5, r1
 637 0008 0023     		movs	r3, #0
 638 000a 8386     		strh	r3, [r0, #52]	@ movhi
 639 000c 01E0     		b	.L74
 640              	.L73:
 641 000e FEE7     		b	.L73
 642              	.L75:
 643 0010 0133     		adds	r3, r3, #1
 644              	.L74:
 645 0012 EA5C     		ldrb	r2, [r5, r3]	@ zero_extendqisi2
 646 0014 2AB1     		cbz	r2, .L81
 647 0016 0A2A     		cmp	r2, #10
 648 0018 FAD1     		bne	.L75
 649 001a A28E     		ldrh	r2, [r4, #52]
 650 001c 0132     		adds	r2, r2, #1
 651 001e A286     		strh	r2, [r4, #52]	@ movhi
 652 0020 F6E7     		b	.L75
 653              	.L81:
 654 0022 A38E     		ldrh	r3, [r4, #52]
 655 0024 0133     		adds	r3, r3, #1
 656 0026 A386     		strh	r3, [r4, #52]	@ movhi
ARM GAS  /var/folders/lp/x54gwt890xv47sdkqj1k04q40000gn/T//ccC5njr9.s 			page 12


 657 0028 0023     		movs	r3, #0
 658 002a E386     		strh	r3, [r4, #54]	@ movhi
 659 002c 2387     		strh	r3, [r4, #56]	@ movhi
 660 002e 94F83C30 		ldrb	r3, [r4, #60]	@ zero_extendqisi2
 661 0032 13F0100F 		tst	r3, #16
 662 0036 05D1     		bne	.L77
 663 0038 206B     		ldr	r0, [r4, #48]
 664 003a 18B1     		cbz	r0, .L77
 665 003c FFF7FEFF 		bl	lv_mem_free
 666 0040 0023     		movs	r3, #0
 667 0042 2363     		str	r3, [r4, #48]
 668              	.L77:
 669 0044 94F83C30 		ldrb	r3, [r4, #60]	@ zero_extendqisi2
 670 0048 43F01003 		orr	r3, r3, #16
 671 004c 84F83C30 		strb	r3, [r4, #60]
 672 0050 2563     		str	r5, [r4, #48]
 673 0052 2046     		mov	r0, r4
 674 0054 FFF7FEFF 		bl	lv_obj_invalidate
 675 0058 606A     		ldr	r0, [r4, #36]
 676 005a 08B1     		cbz	r0, .L71
 677 005c FFF7FEFF 		bl	lv_obj_invalidate
 678              	.L71:
 679 0060 38BD     		pop	{r3, r4, r5, pc}
 681              		.section	.rodata.lv_dropdown_constructor.str1.4,"aMS",%progbits,1
 682              		.align	2
 683              	.LC0:
 684 0000 EF81B800 		.ascii	"\357\201\270\000"
 685              		.align	2
 686              	.LC1:
 687 0004 4F707469 		.ascii	"Option 1\012Option 2\012Option 3\000"
 687      6F6E2031 
 687      0A4F7074 
 687      696F6E20 
 687      320A4F70 
 688              		.section	.text.lv_dropdown_constructor,"ax",%progbits
 689              		.align	1
 690              		.syntax unified
 691              		.thumb
 692              		.thumb_func
 694              	lv_dropdown_constructor:
 695              		@ args = 0, pretend = 0, frame = 0
 696              		@ frame_needed = 0, uses_anonymous_args = 0
 697 0000 10B5     		push	{r4, lr}
 698 0002 0C46     		mov	r4, r1
 699 0004 0023     		movs	r3, #0
 700 0006 4B62     		str	r3, [r1, #36]
 701 0008 0B63     		str	r3, [r1, #48]
 702 000a 164A     		ldr	r2, .L84
 703 000c CA62     		str	r2, [r1, #44]
 704 000e 8B62     		str	r3, [r1, #40]
 705 0010 91F83C20 		ldrb	r2, [r1, #60]	@ zero_extendqisi2
 706 0014 42F01002 		orr	r2, r2, #16
 707 0018 81F83C20 		strb	r2, [r1, #60]
 708 001c D2B2     		uxtb	r2, r2
 709 001e 42F02002 		orr	r2, r2, #32
 710 0022 81F83C20 		strb	r2, [r1, #60]
 711 0026 CB86     		strh	r3, [r1, #54]	@ movhi
ARM GAS  /var/folders/lp/x54gwt890xv47sdkqj1k04q40000gn/T//ccC5njr9.s 			page 13


 712 0028 0B87     		strh	r3, [r1, #56]	@ movhi
 713 002a 4FF6FF72 		movw	r2, #65535
 714 002e 4A87     		strh	r2, [r1, #58]	@ movhi
 715 0030 8B86     		strh	r3, [r1, #52]	@ movhi
 716 0032 91F83C30 		ldrb	r3, [r1, #60]	@ zero_extendqisi2
 717 0036 0822     		movs	r2, #8
 718 0038 62F30303 		bfi	r3, r2, #0, #4
 719 003c 81F83C30 		strb	r3, [r1, #60]
 720 0040 4FF48061 		mov	r1, #1024
 721 0044 2046     		mov	r0, r4
 722 0046 FFF7FEFF 		bl	lv_obj_add_flag
 723 004a 0749     		ldr	r1, .L84+4
 724 004c 2046     		mov	r0, r4
 725 004e FFF7FEFF 		bl	lv_dropdown_set_options_static
 726 0052 2046     		mov	r0, r4
 727 0054 FFF7FEFF 		bl	lv_obj_get_screen
 728 0058 FFF7FEFF 		bl	lv_dropdown_list_create
 729 005c 6062     		str	r0, [r4, #36]
 730 005e 4462     		str	r4, [r0, #36]
 731 0060 10BD     		pop	{r4, pc}
 732              	.L85:
 733 0062 00BF     		.align	2
 734              	.L84:
 735 0064 00000000 		.word	.LC0
 736 0068 04000000 		.word	.LC1
 738              		.section	.rodata.lv_dropdown_add_option.str1.4,"aMS",%progbits,1
 739              		.align	2
 740              	.LC2:
 741 0000 0A00     		.ascii	"\012\000"
 742              		.section	.text.lv_dropdown_add_option,"ax",%progbits
 743              		.align	1
 744              		.global	lv_dropdown_add_option
 745              		.syntax unified
 746              		.thumb
 747              		.thumb_func
 749              	lv_dropdown_add_option:
 750              		@ args = 0, pretend = 0, frame = 0
 751              		@ frame_needed = 0, uses_anonymous_args = 0
 752 0000 39B3     		cbz	r1, .L88
 753 0002 2DE9F047 		push	{r4, r5, r6, r7, r8, r9, r10, lr}
 754 0006 0546     		mov	r5, r0
 755 0008 1646     		mov	r6, r2
 756 000a 8846     		mov	r8, r1
 757 000c 90F83C30 		ldrb	r3, [r0, #60]	@ zero_extendqisi2
 758 0010 13F0100F 		tst	r3, #16
 759 0014 1ED1     		bne	.L108
 760              	.L89:
 761 0016 D5F83090 		ldr	r9, [r5, #48]
 762 001a B9F1000F 		cmp	r9, #0
 763 001e 2DD0     		beq	.L104
 764 0020 4846     		mov	r0, r9
 765 0022 FFF7FEFF 		bl	strlen
 766 0026 0446     		mov	r4, r0
 767              	.L92:
 768 0028 4046     		mov	r0, r8
 769 002a FFF7FEFF 		bl	strlen
 770 002e 0746     		mov	r7, r0
ARM GAS  /var/folders/lp/x54gwt890xv47sdkqj1k04q40000gn/T//ccC5njr9.s 			page 14


 771 0030 411C     		adds	r1, r0, #1
 772 0032 2144     		add	r1, r1, r4
 773 0034 0331     		adds	r1, r1, #3
 774 0036 4846     		mov	r0, r9
 775 0038 FFF7FEFF 		bl	lv_mem_realloc
 776 003c 2863     		str	r0, [r5, #48]
 777 003e F8B1     		cbz	r0, .L94
 778 0040 0023     		movs	r3, #0
 779 0042 0355     		strb	r3, [r0, r4]
 780 0044 4FF6FF73 		movw	r3, #65535
 781 0048 9E42     		cmp	r6, r3
 782 004a 24D0     		beq	.L96
 783 004c 0022     		movs	r2, #0
 784 004e 1446     		mov	r4, r2
 785 0050 18E0     		b	.L95
 786              	.L88:
 787 0052 FEE7     		b	.L88
 788              	.L108:
 789 0054 046B     		ldr	r4, [r0, #48]
 790 0056 2046     		mov	r0, r4
 791 0058 FFF7FEFF 		bl	strlen
 792 005c 0130     		adds	r0, r0, #1
 793 005e FFF7FEFF 		bl	lv_mem_alloc
 794 0062 2863     		str	r0, [r5, #48]
 795 0064 48B1     		cbz	r0, .L91
 796 0066 2146     		mov	r1, r4
 797 0068 FFF7FEFF 		bl	strcpy
 798 006c 95F83C30 		ldrb	r3, [r5, #60]	@ zero_extendqisi2
 799 0070 23F01003 		bic	r3, r3, #16
 800 0074 85F83C30 		strb	r3, [r5, #60]
 801 0078 CDE7     		b	.L89
 802              	.L91:
 803 007a FEE7     		b	.L91
 804              	.L104:
 805 007c 0024     		movs	r4, #0
 806 007e D3E7     		b	.L92
 807              	.L94:
 808 0080 FEE7     		b	.L94
 809              	.L97:
 810 0082 0134     		adds	r4, r4, #1
 811              	.L95:
 812 0084 2B6B     		ldr	r3, [r5, #48]
 813 0086 1B5D     		ldrb	r3, [r3, r4]	@ zero_extendqisi2
 814 0088 2BB1     		cbz	r3, .L96
 815 008a B242     		cmp	r2, r6
 816 008c 03D0     		beq	.L96
 817 008e 0A2B     		cmp	r3, #10
 818 0090 F7D1     		bne	.L97
 819 0092 0132     		adds	r2, r2, #1
 820 0094 F5E7     		b	.L97
 821              	.L96:
 822 0096 8CB1     		cbz	r4, .L99
 823 0098 AB8E     		ldrh	r3, [r5, #52]
 824 009a B342     		cmp	r3, r6
 825 009c 0ED8     		bhi	.L99
 826 009e D5F83090 		ldr	r9, [r5, #48]
 827 00a2 04F1010A 		add	r10, r4, #1
ARM GAS  /var/folders/lp/x54gwt890xv47sdkqj1k04q40000gn/T//ccC5njr9.s 			page 15


 828 00a6 1C4B     		ldr	r3, .L110
 829 00a8 1B68     		ldr	r3, [r3]
 830 00aa 2146     		mov	r1, r4
 831 00ac 4846     		mov	r0, r9
 832 00ae 9847     		blx	r3
 833 00b0 0146     		mov	r1, r0
 834 00b2 1A4A     		ldr	r2, .L110+4
 835 00b4 4846     		mov	r0, r9
 836 00b6 FFF7FEFF 		bl	_lv_txt_ins
 837 00ba 5446     		mov	r4, r10
 838              	.L99:
 839 00bc F81C     		adds	r0, r7, #3
 840 00be FFF7FEFF 		bl	lv_mem_buf_get
 841 00c2 0746     		mov	r7, r0
 842 00c4 F8B1     		cbz	r0, .L101
 843 00c6 4146     		mov	r1, r8
 844 00c8 FFF7FEFF 		bl	strcpy
 845 00cc AB8E     		ldrh	r3, [r5, #52]
 846 00ce B342     		cmp	r3, r6
 847 00d0 1AD8     		bhi	.L109
 848              	.L102:
 849 00d2 2E6B     		ldr	r6, [r5, #48]
 850 00d4 104B     		ldr	r3, .L110
 851 00d6 1B68     		ldr	r3, [r3]
 852 00d8 2146     		mov	r1, r4
 853 00da 3046     		mov	r0, r6
 854 00dc 9847     		blx	r3
 855 00de 0146     		mov	r1, r0
 856 00e0 3A46     		mov	r2, r7
 857 00e2 3046     		mov	r0, r6
 858 00e4 FFF7FEFF 		bl	_lv_txt_ins
 859 00e8 3846     		mov	r0, r7
 860 00ea FFF7FEFF 		bl	lv_mem_buf_release
 861 00ee AB8E     		ldrh	r3, [r5, #52]
 862 00f0 0133     		adds	r3, r3, #1
 863 00f2 AB86     		strh	r3, [r5, #52]	@ movhi
 864 00f4 2846     		mov	r0, r5
 865 00f6 FFF7FEFF 		bl	lv_obj_invalidate
 866 00fa 686A     		ldr	r0, [r5, #36]
 867 00fc 08B1     		cbz	r0, .L86
 868 00fe FFF7FEFF 		bl	lv_obj_invalidate
 869              	.L86:
 870 0102 BDE8F087 		pop	{r4, r5, r6, r7, r8, r9, r10, pc}
 871              	.L101:
 872 0106 FEE7     		b	.L101
 873              	.L109:
 874 0108 3846     		mov	r0, r7
 875 010a FFF7FEFF 		bl	strlen
 876 010e 034B     		ldr	r3, .L110+4
 877 0110 1B88     		ldrh	r3, [r3]	@ unaligned
 878 0112 3B52     		strh	r3, [r7, r0]	@ unaligned
 879 0114 DDE7     		b	.L102
 880              	.L111:
 881 0116 00BF     		.align	2
 882              	.L110:
 883 0118 00000000 		.word	_lv_txt_encoded_get_char_id
 884 011c 00000000 		.word	.LC2
ARM GAS  /var/folders/lp/x54gwt890xv47sdkqj1k04q40000gn/T//ccC5njr9.s 			page 16


 886              		.section	.text.lv_dropdown_clear_options,"ax",%progbits
 887              		.align	1
 888              		.global	lv_dropdown_clear_options
 889              		.syntax unified
 890              		.thumb
 891              		.thumb_func
 893              	lv_dropdown_clear_options:
 894              		@ args = 0, pretend = 0, frame = 0
 895              		@ frame_needed = 0, uses_anonymous_args = 0
 896 0000 10B5     		push	{r4, lr}
 897 0002 0446     		mov	r4, r0
 898 0004 006B     		ldr	r0, [r0, #48]
 899 0006 A0B1     		cbz	r0, .L112
 900 0008 94F83C30 		ldrb	r3, [r4, #60]	@ zero_extendqisi2
 901 000c 13F0100F 		tst	r3, #16
 902 0010 10D0     		beq	.L116
 903              	.L114:
 904 0012 0023     		movs	r3, #0
 905 0014 2363     		str	r3, [r4, #48]
 906 0016 94F83C20 		ldrb	r2, [r4, #60]	@ zero_extendqisi2
 907 001a 63F30412 		bfi	r2, r3, #4, #1
 908 001e 84F83C20 		strb	r2, [r4, #60]
 909 0022 A386     		strh	r3, [r4, #52]	@ movhi
 910 0024 2046     		mov	r0, r4
 911 0026 FFF7FEFF 		bl	lv_obj_invalidate
 912 002a 606A     		ldr	r0, [r4, #36]
 913 002c 08B1     		cbz	r0, .L112
 914 002e FFF7FEFF 		bl	lv_obj_invalidate
 915              	.L112:
 916 0032 10BD     		pop	{r4, pc}
 917              	.L116:
 918 0034 FFF7FEFF 		bl	lv_mem_free
 919 0038 EBE7     		b	.L114
 921              		.section	.text.lv_dropdown_set_selected,"ax",%progbits
 922              		.align	1
 923              		.global	lv_dropdown_set_selected
 924              		.syntax unified
 925              		.thumb
 926              		.thumb_func
 928              	lv_dropdown_set_selected:
 929              		@ args = 0, pretend = 0, frame = 0
 930              		@ frame_needed = 0, uses_anonymous_args = 0
 931 0000 C38E     		ldrh	r3, [r0, #54]
 932 0002 8B42     		cmp	r3, r1
 933 0004 11D0     		beq	.L122
 934 0006 10B5     		push	{r4, lr}
 935 0008 0446     		mov	r4, r0
 936 000a 838E     		ldrh	r3, [r0, #52]
 937 000c 8B42     		cmp	r3, r1
 938 000e 01D8     		bhi	.L119
 939 0010 013B     		subs	r3, r3, #1
 940 0012 99B2     		uxth	r1, r3
 941              	.L119:
 942 0014 E186     		strh	r1, [r4, #54]	@ movhi
 943 0016 2187     		strh	r1, [r4, #56]	@ movhi
 944 0018 636A     		ldr	r3, [r4, #36]
 945 001a 13B1     		cbz	r3, .L120
ARM GAS  /var/folders/lp/x54gwt890xv47sdkqj1k04q40000gn/T//ccC5njr9.s 			page 17


 946 001c 2046     		mov	r0, r4
 947 001e FFF7FEFF 		bl	position_to_selected
 948              	.L120:
 949 0022 2046     		mov	r0, r4
 950 0024 FFF7FEFF 		bl	lv_obj_invalidate
 951 0028 10BD     		pop	{r4, pc}
 952              	.L122:
 953 002a 7047     		bx	lr
 955              		.section	.text.lv_dropdown_set_dir,"ax",%progbits
 956              		.align	1
 957              		.global	lv_dropdown_set_dir
 958              		.syntax unified
 959              		.thumb
 960              		.thumb_func
 962              	lv_dropdown_set_dir:
 963              		@ args = 0, pretend = 0, frame = 0
 964              		@ frame_needed = 0, uses_anonymous_args = 0
 965 0000 08B5     		push	{r3, lr}
 966 0002 90F83C30 		ldrb	r3, [r0, #60]	@ zero_extendqisi2
 967 0006 03F00F03 		and	r3, r3, #15
 968 000a 8B42     		cmp	r3, r1
 969 000c 07D0     		beq	.L125
 970 000e 90F83C30 		ldrb	r3, [r0, #60]	@ zero_extendqisi2
 971 0012 61F30303 		bfi	r3, r1, #0, #4
 972 0016 80F83C30 		strb	r3, [r0, #60]
 973 001a FFF7FEFF 		bl	lv_obj_invalidate
 974              	.L125:
 975 001e 08BD     		pop	{r3, pc}
 977              		.section	.text.lv_dropdown_set_symbol,"ax",%progbits
 978              		.align	1
 979              		.global	lv_dropdown_set_symbol
 980              		.syntax unified
 981              		.thumb
 982              		.thumb_func
 984              	lv_dropdown_set_symbol:
 985              		@ args = 0, pretend = 0, frame = 0
 986              		@ frame_needed = 0, uses_anonymous_args = 0
 987 0000 08B5     		push	{r3, lr}
 988 0002 C162     		str	r1, [r0, #44]
 989 0004 FFF7FEFF 		bl	lv_obj_invalidate
 990 0008 08BD     		pop	{r3, pc}
 992              		.section	.text.lv_dropdown_set_selected_highlight,"ax",%progbits
 993              		.align	1
 994              		.global	lv_dropdown_set_selected_highlight
 995              		.syntax unified
 996              		.thumb
 997              		.thumb_func
 999              	lv_dropdown_set_selected_highlight:
 1000              		@ args = 0, pretend = 0, frame = 0
 1001              		@ frame_needed = 0, uses_anonymous_args = 0
 1002 0000 08B5     		push	{r3, lr}
 1003 0002 90F83C30 		ldrb	r3, [r0, #60]	@ zero_extendqisi2
 1004 0006 61F34513 		bfi	r3, r1, #5, #1
 1005 000a 80F83C30 		strb	r3, [r0, #60]
 1006 000e 406A     		ldr	r0, [r0, #36]
 1007 0010 08B1     		cbz	r0, .L130
 1008 0012 FFF7FEFF 		bl	lv_obj_invalidate
ARM GAS  /var/folders/lp/x54gwt890xv47sdkqj1k04q40000gn/T//ccC5njr9.s 			page 18


 1009              	.L130:
 1010 0016 08BD     		pop	{r3, pc}
 1012              		.section	.text.lv_dropdown_get_list,"ax",%progbits
 1013              		.align	1
 1014              		.global	lv_dropdown_get_list
 1015              		.syntax unified
 1016              		.thumb
 1017              		.thumb_func
 1019              	lv_dropdown_get_list:
 1020              		@ args = 0, pretend = 0, frame = 0
 1021              		@ frame_needed = 0, uses_anonymous_args = 0
 1022              		@ link register save eliminated.
 1023 0000 406A     		ldr	r0, [r0, #36]
 1024 0002 7047     		bx	lr
 1026              		.section	.text.lv_dropdown_get_text,"ax",%progbits
 1027              		.align	1
 1028              		.global	lv_dropdown_get_text
 1029              		.syntax unified
 1030              		.thumb
 1031              		.thumb_func
 1033              	lv_dropdown_get_text:
 1034              		@ args = 0, pretend = 0, frame = 0
 1035              		@ frame_needed = 0, uses_anonymous_args = 0
 1036              		@ link register save eliminated.
 1037 0000 806A     		ldr	r0, [r0, #40]
 1038 0002 7047     		bx	lr
 1040              		.section	.rodata.lv_dropdown_get_options.str1.4,"aMS",%progbits,1
 1041              		.align	2
 1042              	.LC3:
 1043 0000 00       		.ascii	"\000"
 1044              		.section	.text.lv_dropdown_get_options,"ax",%progbits
 1045              		.align	1
 1046              		.global	lv_dropdown_get_options
 1047              		.syntax unified
 1048              		.thumb
 1049              		.thumb_func
 1051              	lv_dropdown_get_options:
 1052              		@ args = 0, pretend = 0, frame = 0
 1053              		@ frame_needed = 0, uses_anonymous_args = 0
 1054              		@ link register save eliminated.
 1055 0000 006B     		ldr	r0, [r0, #48]
 1056 0002 00B1     		cbz	r0, .L137
 1057              	.L135:
 1058 0004 7047     		bx	lr
 1059              	.L137:
 1060 0006 0148     		ldr	r0, .L138
 1061 0008 FCE7     		b	.L135
 1062              	.L139:
 1063 000a 00BF     		.align	2
 1064              	.L138:
 1065 000c 00000000 		.word	.LC3
 1067              		.section	.text.lv_dropdown_get_selected,"ax",%progbits
 1068              		.align	1
 1069              		.global	lv_dropdown_get_selected
 1070              		.syntax unified
 1071              		.thumb
 1072              		.thumb_func
ARM GAS  /var/folders/lp/x54gwt890xv47sdkqj1k04q40000gn/T//ccC5njr9.s 			page 19


 1074              	lv_dropdown_get_selected:
 1075              		@ args = 0, pretend = 0, frame = 0
 1076              		@ frame_needed = 0, uses_anonymous_args = 0
 1077              		@ link register save eliminated.
 1078 0000 C08E     		ldrh	r0, [r0, #54]
 1079 0002 7047     		bx	lr
 1081              		.section	.text.lv_dropdown_get_option_cnt,"ax",%progbits
 1082              		.align	1
 1083              		.global	lv_dropdown_get_option_cnt
 1084              		.syntax unified
 1085              		.thumb
 1086              		.thumb_func
 1088              	lv_dropdown_get_option_cnt:
 1089              		@ args = 0, pretend = 0, frame = 0
 1090              		@ frame_needed = 0, uses_anonymous_args = 0
 1091              		@ link register save eliminated.
 1092 0000 808E     		ldrh	r0, [r0, #52]
 1093 0002 7047     		bx	lr
 1095              		.section	.text.lv_dropdown_get_selected_str,"ax",%progbits
 1096              		.align	1
 1097              		.global	lv_dropdown_get_selected_str
 1098              		.syntax unified
 1099              		.thumb
 1100              		.thumb_func
 1102              	lv_dropdown_get_selected_str:
 1103              		@ args = 0, pretend = 0, frame = 0
 1104              		@ frame_needed = 0, uses_anonymous_args = 0
 1105 0000 F8B5     		push	{r3, r4, r5, r6, r7, lr}
 1106 0002 0E46     		mov	r6, r1
 1107 0004 076B     		ldr	r7, [r0, #48]
 1108 0006 3FB1     		cbz	r7, .L143
 1109 0008 0446     		mov	r4, r0
 1110 000a 1546     		mov	r5, r2
 1111 000c 3846     		mov	r0, r7
 1112 000e FFF7FEFF 		bl	strlen
 1113 0012 0021     		movs	r1, #0
 1114 0014 0B46     		mov	r3, r1
 1115 0016 03E0     		b	.L144
 1116              	.L143:
 1117 0018 0023     		movs	r3, #0
 1118 001a 0B70     		strb	r3, [r1]
 1119 001c 22E0     		b	.L142
 1120              	.L146:
 1121 001e 0133     		adds	r3, r3, #1
 1122              	.L144:
 1123 0020 8342     		cmp	r3, r0
 1124 0022 20D2     		bcs	.L153
 1125 0024 228F     		ldrh	r2, [r4, #56]
 1126 0026 8A42     		cmp	r2, r1
 1127 0028 04D0     		beq	.L155
 1128 002a FA5C     		ldrb	r2, [r7, r3]	@ zero_extendqisi2
 1129 002c 0A2A     		cmp	r2, #10
 1130 002e F6D1     		bne	.L146
 1131 0030 0131     		adds	r1, r1, #1
 1132 0032 F4E7     		b	.L146
 1133              	.L155:
 1134 0034 4FF0000C 		mov	ip, #0
ARM GAS  /var/folders/lp/x54gwt890xv47sdkqj1k04q40000gn/T//ccC5njr9.s 			page 20


 1135 0038 04E0     		b	.L151
 1136              	.L149:
 1137 003a 06F80CE0 		strb	lr, [r6, ip]
 1138 003e 0CF1010C 		add	ip, ip, #1
 1139 0042 0133     		adds	r3, r3, #1
 1140              	.L151:
 1141 0044 8342     		cmp	r3, r0
 1142 0046 0AD2     		bcs	.L150
 1143 0048 226B     		ldr	r2, [r4, #48]
 1144 004a 12F803E0 		ldrb	lr, [r2, r3]	@ zero_extendqisi2
 1145 004e BEF10A0F 		cmp	lr, #10
 1146 0052 04D0     		beq	.L150
 1147 0054 002D     		cmp	r5, #0
 1148 0056 F0D0     		beq	.L149
 1149 0058 6A1E     		subs	r2, r5, #1
 1150 005a 6245     		cmp	r2, ip
 1151 005c EDD8     		bhi	.L149
 1152              	.L150:
 1153 005e 0023     		movs	r3, #0
 1154 0060 06F80C30 		strb	r3, [r6, ip]
 1155              	.L142:
 1156 0064 F8BD     		pop	{r3, r4, r5, r6, r7, pc}
 1157              	.L153:
 1158 0066 4FF0000C 		mov	ip, #0
 1159 006a EBE7     		b	.L151
 1161              		.section	.text.draw_main,"ax",%progbits
 1162              		.align	1
 1163              		.syntax unified
 1164              		.thumb
 1165              		.thumb_func
 1167              	draw_main:
 1168              		@ args = 0, pretend = 0, frame = 120
 1169              		@ frame_needed = 0, uses_anonymous_args = 0
 1170 0000 2DE9F04F 		push	{r4, r5, r6, r7, r8, r9, r10, fp, lr}
 1171 0004 A3B0     		sub	sp, sp, #140
 1172 0006 0546     		mov	r5, r0
 1173 0008 FFF7FEFF 		bl	lv_event_get_target
 1174 000c 0446     		mov	r4, r0
 1175 000e 2846     		mov	r0, r5
 1176 0010 FFF7FEFF 		bl	lv_event_get_draw_ctx
 1177 0014 0490     		str	r0, [sp, #16]
 1178 0016 3222     		movs	r2, #50
 1179 0018 0021     		movs	r1, #0
 1180 001a 2046     		mov	r0, r4
 1181 001c FFF7FEFF 		bl	lv_obj_get_style_prop
 1182 0020 8046     		mov	r8, r0
 1183 0022 1222     		movs	r2, #18
 1184 0024 0021     		movs	r1, #0
 1185 0026 2046     		mov	r0, r4
 1186 0028 FFF7FEFF 		bl	lv_obj_get_style_prop
 1187 002c 1FFA88F8 		uxth	r8, r8
 1188 0030 18FA80F6 		uxtah	r6, r8, r0
 1189 0034 B6B2     		uxth	r6, r6
 1190 0036 1322     		movs	r2, #19
 1191 0038 0021     		movs	r1, #0
 1192 003a 2046     		mov	r0, r4
 1193 003c FFF7FEFF 		bl	lv_obj_get_style_prop
ARM GAS  /var/folders/lp/x54gwt890xv47sdkqj1k04q40000gn/T//ccC5njr9.s 			page 21


 1194 0040 18FA80F7 		uxtah	r7, r8, r0
 1195 0044 BFB2     		uxth	r7, r7
 1196 0046 1022     		movs	r2, #16
 1197 0048 0021     		movs	r1, #0
 1198 004a 2046     		mov	r0, r4
 1199 004c FFF7FEFF 		bl	lv_obj_get_style_prop
 1200 0050 18FA80F5 		uxtah	r5, r8, r0
 1201 0054 ADB2     		uxth	r5, r5
 1202 0056 1AA8     		add	r0, sp, #104
 1203 0058 FFF7FEFF 		bl	lv_draw_label_dsc_init
 1204 005c 1AAA     		add	r2, sp, #104
 1205 005e 4FF40031 		mov	r1, #131072
 1206 0062 2046     		mov	r0, r4
 1207 0064 FFF7FEFF 		bl	lv_obj_init_draw_label_dsc
 1208 0068 D4F82880 		ldr	r8, [r4, #40]
 1209 006c B8F1000F 		cmp	r8, #0
 1210 0070 00F0AD80 		beq	.L176
 1211              	.L157:
 1212 0074 94F83C30 		ldrb	r3, [r4, #60]	@ zero_extendqisi2
 1213 0078 03F00F03 		and	r3, r3, #15
 1214 007c 012B     		cmp	r3, #1
 1215 007e 00F0B080 		beq	.L172
 1216 0082 4FF0000B 		mov	fp, #0
 1217              	.L158:
 1218 0086 1622     		movs	r2, #22
 1219 0088 0021     		movs	r1, #0
 1220 008a 2046     		mov	r0, r4
 1221 008c FFF7FEFF 		bl	lv_obj_get_style_prop
 1222 0090 C0B2     		uxtb	r0, r0
 1223 0092 0128     		cmp	r0, #1
 1224 0094 00F0A880 		beq	.L177
 1225              	.L159:
 1226 0098 E06A     		ldr	r0, [r4, #44]
 1227 009a 0028     		cmp	r0, #0
 1228 009c 57D0     		beq	.L160
 1229 009e FFF7FEFF 		bl	lv_img_src_get_type
 1230 00a2 0590     		str	r0, [sp, #20]
 1231 00a4 0228     		cmp	r0, #2
 1232 00a6 00F0A280 		beq	.L178
 1233 00aa 09A9     		add	r1, sp, #36
 1234 00ac E06A     		ldr	r0, [r4, #44]
 1235 00ae FFF7FEFF 		bl	lv_img_decoder_get_info
 1236 00b2 0128     		cmp	r0, #1
 1237 00b4 00F0B080 		beq	.L179
 1238 00b8 4FF0FF3A 		mov	r10, #-1
 1239 00bc D146     		mov	r9, r10
 1240              	.L162:
 1241 00be BBF1000F 		cmp	fp, #0
 1242 00c2 00F0B180 		beq	.L164
 1243 00c6 A38A     		ldrh	r3, [r4, #20]
 1244 00c8 3344     		add	r3, r3, r6
 1245 00ca ADF81C30 		strh	r3, [sp, #28]	@ movhi
 1246 00ce 19FA83F3 		uxtah	r3, r9, r3
 1247 00d2 9BB2     		uxth	r3, r3
 1248 00d4 013B     		subs	r3, r3, #1
 1249 00d6 ADF82030 		strh	r3, [sp, #32]	@ movhi
 1250              	.L165:
ARM GAS  /var/folders/lp/x54gwt890xv47sdkqj1k04q40000gn/T//ccC5njr9.s 			page 22


 1251 00da 059B     		ldr	r3, [sp, #20]
 1252 00dc 022B     		cmp	r3, #2
 1253 00de 00F0AE80 		beq	.L180
 1254 00e2 E38A     		ldrh	r3, [r4, #22]
 1255 00e4 0593     		str	r3, [sp, #20]
 1256 00e6 2046     		mov	r0, r4
 1257 00e8 FFF7FEFF 		bl	lv_obj_get_height
 1258 00ec A0EB0A00 		sub	r0, r0, r10
 1259 00f0 00EBD070 		add	r0, r0, r0, lsr #31
 1260 00f4 059B     		ldr	r3, [sp, #20]
 1261 00f6 03EB6003 		add	r3, r3, r0, asr #1
 1262 00fa ADF81E30 		strh	r3, [sp, #30]	@ movhi
 1263 00fe 1AFA83F3 		uxtah	r3, r10, r3
 1264 0102 9BB2     		uxth	r3, r3
 1265 0104 013B     		subs	r3, r3, #1
 1266 0106 ADF82230 		strh	r3, [sp, #34]	@ movhi
 1267 010a 09A8     		add	r0, sp, #36
 1268 010c FFF7FEFF 		bl	lv_draw_img_dsc_init
 1269 0110 09AA     		add	r2, sp, #36
 1270 0112 4FF40031 		mov	r1, #131072
 1271 0116 2046     		mov	r0, r4
 1272 0118 FFF7FEFF 		bl	lv_obj_init_draw_img_dsc
 1273 011c 09EBD973 		add	r3, r9, r9, lsr #31
 1274 0120 5B10     		asrs	r3, r3, #1
 1275 0122 ADF82830 		strh	r3, [sp, #40]	@ movhi
 1276 0126 0AEBDA7A 		add	r10, r10, r10, lsr #31
 1277 012a 4FEA6A0A 		asr	r10, r10, #1
 1278 012e ADF82AA0 		strh	r10, [sp, #42]	@ movhi
 1279 0132 6E22     		movs	r2, #110
 1280 0134 4FF40031 		mov	r1, #131072
 1281 0138 2046     		mov	r0, r4
 1282 013a FFF7FEFF 		bl	lv_obj_get_style_prop
 1283 013e ADF82400 		strh	r0, [sp, #36]	@ movhi
 1284 0142 E36A     		ldr	r3, [r4, #44]
 1285 0144 07AA     		add	r2, sp, #28
 1286 0146 09A9     		add	r1, sp, #36
 1287 0148 0498     		ldr	r0, [sp, #16]
 1288 014a FFF7FEFF 		bl	lv_draw_img
 1289              	.L160:
 1290 014e 12A8     		add	r0, sp, #72
 1291 0150 FFF7FEFF 		bl	lv_draw_label_dsc_init
 1292 0154 12AA     		add	r2, sp, #72
 1293 0156 0021     		movs	r1, #0
 1294 0158 2046     		mov	r0, r4
 1295 015a FFF7FEFF 		bl	lv_obj_init_draw_label_dsc
 1296 015e 9DF86530 		ldrb	r3, [sp, #101]	@ zero_extendqisi2
 1297 0162 0293     		str	r3, [sp, #8]
 1298 0164 41F6FF73 		movw	r3, #8191
 1299 0168 0193     		str	r3, [sp, #4]
 1300 016a BDF95A30 		ldrsh	r3, [sp, #90]
 1301 016e 0093     		str	r3, [sp]
 1302 0170 BDF95C30 		ldrsh	r3, [sp, #92]
 1303 0174 129A     		ldr	r2, [sp, #72]
 1304 0176 4146     		mov	r1, r8
 1305 0178 11A8     		add	r0, sp, #68
 1306 017a FFF7FEFF 		bl	lv_txt_get_size
 1307 017e E38A     		ldrh	r3, [r4, #22]
ARM GAS  /var/folders/lp/x54gwt890xv47sdkqj1k04q40000gn/T//ccC5njr9.s 			page 23


 1308 0180 1D44     		add	r5, r5, r3
 1309 0182 ADF83E50 		strh	r5, [sp, #62]	@ movhi
 1310 0186 BDF84630 		ldrh	r3, [sp, #70]
 1311 018a 13FA85F5 		uxtah	r5, r3, r5
 1312 018e ADF84250 		strh	r5, [sp, #66]	@ movhi
 1313 0192 E36A     		ldr	r3, [r4, #44]
 1314 0194 002B     		cmp	r3, #0
 1315 0196 65D0     		beq	.L181
 1316 0198 BBF1000F 		cmp	fp, #0
 1317 019c 75D0     		beq	.L170
 1318 019e 238B     		ldrh	r3, [r4, #24]
 1319 01a0 DB1B     		subs	r3, r3, r7
 1320 01a2 9BB2     		uxth	r3, r3
 1321 01a4 BDF84420 		ldrh	r2, [sp, #68]
 1322 01a8 9A1A     		subs	r2, r3, r2
 1323 01aa ADF83C20 		strh	r2, [sp, #60]	@ movhi
 1324 01ae ADF84030 		strh	r3, [sp, #64]	@ movhi
 1325              	.L169:
 1326 01b2 0023     		movs	r3, #0
 1327 01b4 0093     		str	r3, [sp]
 1328 01b6 4346     		mov	r3, r8
 1329 01b8 0FAA     		add	r2, sp, #60
 1330 01ba 12A9     		add	r1, sp, #72
 1331 01bc 0498     		ldr	r0, [sp, #16]
 1332 01be FFF7FEFF 		bl	lv_draw_label
 1333 01c2 A36A     		ldr	r3, [r4, #40]
 1334 01c4 002B     		cmp	r3, #0
 1335 01c6 6BD0     		beq	.L182
 1336              	.L156:
 1337 01c8 23B0     		add	sp, sp, #140
 1338              		@ sp needed
 1339 01ca BDE8F08F 		pop	{r4, r5, r6, r7, r8, r9, r10, fp, pc}
 1340              	.L176:
 1341 01ce 8020     		movs	r0, #128
 1342 01d0 FFF7FEFF 		bl	lv_mem_buf_get
 1343 01d4 8046     		mov	r8, r0
 1344 01d6 8022     		movs	r2, #128
 1345 01d8 0146     		mov	r1, r0
 1346 01da 2046     		mov	r0, r4
 1347 01dc FFF7FEFF 		bl	lv_dropdown_get_selected_str
 1348 01e0 48E7     		b	.L157
 1349              	.L172:
 1350 01e2 4FF0010B 		mov	fp, #1
 1351 01e6 4EE7     		b	.L158
 1352              	.L177:
 1353 01e8 4FF0010B 		mov	fp, #1
 1354 01ec 54E7     		b	.L159
 1355              	.L178:
 1356 01ee E16A     		ldr	r1, [r4, #44]
 1357 01f0 9DF88530 		ldrb	r3, [sp, #133]	@ zero_extendqisi2
 1358 01f4 0293     		str	r3, [sp, #8]
 1359 01f6 41F6FF73 		movw	r3, #8191
 1360 01fa 0193     		str	r3, [sp, #4]
 1361 01fc BDF97A30 		ldrsh	r3, [sp, #122]
 1362 0200 0093     		str	r3, [sp]
 1363 0202 BDF97C30 		ldrsh	r3, [sp, #124]
 1364 0206 1A9A     		ldr	r2, [sp, #104]
ARM GAS  /var/folders/lp/x54gwt890xv47sdkqj1k04q40000gn/T//ccC5njr9.s 			page 24


 1365 0208 09A8     		add	r0, sp, #36
 1366 020a FFF7FEFF 		bl	lv_txt_get_size
 1367 020e BDF92490 		ldrsh	r9, [sp, #36]
 1368 0212 BDF926A0 		ldrsh	r10, [sp, #38]
 1369 0216 52E7     		b	.L162
 1370              	.L179:
 1371 0218 099B     		ldr	r3, [sp, #36]
 1372 021a C3F38A29 		ubfx	r9, r3, #10, #11
 1373 021e BDF826A0 		ldrh	r10, [sp, #38]
 1374 0222 CAF34A1A 		ubfx	r10, r10, #5, #11
 1375 0226 4AE7     		b	.L162
 1376              	.L164:
 1377 0228 238B     		ldrh	r3, [r4, #24]
 1378 022a DB1B     		subs	r3, r3, r7
 1379 022c 9BB2     		uxth	r3, r3
 1380 022e A3EB0902 		sub	r2, r3, r9
 1381 0232 ADF81C20 		strh	r2, [sp, #28]	@ movhi
 1382 0236 013B     		subs	r3, r3, #1
 1383 0238 ADF82030 		strh	r3, [sp, #32]	@ movhi
 1384 023c 4DE7     		b	.L165
 1385              	.L180:
 1386 023e E38A     		ldrh	r3, [r4, #22]
 1387 0240 2B44     		add	r3, r3, r5
 1388 0242 ADF81E30 		strh	r3, [sp, #30]	@ movhi
 1389 0246 1AFA83F3 		uxtah	r3, r10, r3
 1390 024a 9BB2     		uxth	r3, r3
 1391 024c 013B     		subs	r3, r3, #1
 1392 024e ADF82230 		strh	r3, [sp, #34]	@ movhi
 1393 0252 E36A     		ldr	r3, [r4, #44]
 1394 0254 0022     		movs	r2, #0
 1395 0256 0092     		str	r2, [sp]
 1396 0258 07AA     		add	r2, sp, #28
 1397 025a 1AA9     		add	r1, sp, #104
 1398 025c 0498     		ldr	r0, [sp, #16]
 1399 025e FFF7FEFF 		bl	lv_draw_label
 1400 0262 74E7     		b	.L160
 1401              	.L181:
 1402 0264 A58A     		ldrh	r5, [r4, #20]
 1403 0266 2046     		mov	r0, r4
 1404 0268 FFF7FEFF 		bl	lv_obj_get_width
 1405 026c BDF94420 		ldrsh	r2, [sp, #68]
 1406 0270 801A     		subs	r0, r0, r2
 1407 0272 00EBD070 		add	r0, r0, r0, lsr #31
 1408 0276 05EB6003 		add	r3, r5, r0, asr #1
 1409 027a ADF83C30 		strh	r3, [sp, #60]	@ movhi
 1410 027e 92B2     		uxth	r2, r2
 1411 0280 12FA83F3 		uxtah	r3, r2, r3
 1412 0284 ADF84030 		strh	r3, [sp, #64]	@ movhi
 1413 0288 93E7     		b	.L169
 1414              	.L170:
 1415 028a A38A     		ldrh	r3, [r4, #20]
 1416 028c 1E44     		add	r6, r6, r3
 1417 028e ADF83C60 		strh	r6, [sp, #60]	@ movhi
 1418 0292 BDF84430 		ldrh	r3, [sp, #68]
 1419 0296 13FA86F6 		uxtah	r6, r3, r6
 1420 029a ADF84060 		strh	r6, [sp, #64]	@ movhi
 1421 029e 88E7     		b	.L169
ARM GAS  /var/folders/lp/x54gwt890xv47sdkqj1k04q40000gn/T//ccC5njr9.s 			page 25


 1422              	.L182:
 1423 02a0 4046     		mov	r0, r8
 1424 02a2 FFF7FEFF 		bl	lv_mem_buf_release
 1425 02a6 8FE7     		b	.L156
 1427              		.section	.text.lv_dropdown_get_option_index,"ax",%progbits
 1428              		.align	1
 1429              		.global	lv_dropdown_get_option_index
 1430              		.syntax unified
 1431              		.thumb
 1432              		.thumb_func
 1434              	lv_dropdown_get_option_index:
 1435              		@ args = 0, pretend = 0, frame = 0
 1436              		@ frame_needed = 0, uses_anonymous_args = 0
 1437 0000 2DE9F843 		push	{r3, r4, r5, r6, r7, r8, r9, lr}
 1438 0004 8946     		mov	r9, r1
 1439 0006 FFF7FEFF 		bl	lv_dropdown_get_options
 1440 000a 0546     		mov	r5, r0
 1441 000c 4846     		mov	r0, r9
 1442 000e FFF7FEFF 		bl	strlen
 1443 0012 8046     		mov	r8, r0
 1444 0014 0027     		movs	r7, #0
 1445 0016 0CE0     		b	.L184
 1446              	.L186:
 1447 0018 0132     		adds	r2, r2, #1
 1448              	.L190:
 1449 001a AE18     		adds	r6, r5, r2
 1450 001c AC5C     		ldrb	r4, [r5, r2]	@ zero_extendqisi2
 1451 001e 0A2C     		cmp	r4, #10
 1452 0020 01D0     		beq	.L185
 1453 0022 002C     		cmp	r4, #0
 1454 0024 F8D1     		bne	.L186
 1455              	.L185:
 1456 0026 4245     		cmp	r2, r8
 1457 0028 07D0     		beq	.L193
 1458              	.L187:
 1459 002a 0A2C     		cmp	r4, #10
 1460 002c 10D0     		beq	.L194
 1461              	.L189:
 1462 002e 0137     		adds	r7, r7, #1
 1463 0030 3546     		mov	r5, r6
 1464              	.L184:
 1465 0032 2B78     		ldrb	r3, [r5]	@ zero_extendqisi2
 1466 0034 73B1     		cbz	r3, .L195
 1467 0036 0022     		movs	r2, #0
 1468 0038 EFE7     		b	.L190
 1469              	.L193:
 1470 003a 4245     		cmp	r2, r8
 1471 003c 28BF     		it	cs
 1472 003e 4246     		movcs	r2, r8
 1473 0040 4946     		mov	r1, r9
 1474 0042 2846     		mov	r0, r5
 1475 0044 FFF7FEFF 		bl	memcmp
 1476 0048 0028     		cmp	r0, #0
 1477 004a EED1     		bne	.L187
 1478 004c 3846     		mov	r0, r7
 1479 004e 03E0     		b	.L183
 1480              	.L194:
ARM GAS  /var/folders/lp/x54gwt890xv47sdkqj1k04q40000gn/T//ccC5njr9.s 			page 26


 1481 0050 0136     		adds	r6, r6, #1
 1482 0052 ECE7     		b	.L189
 1483              	.L195:
 1484 0054 4FF0FF30 		mov	r0, #-1
 1485              	.L183:
 1486 0058 BDE8F883 		pop	{r3, r4, r5, r6, r7, r8, r9, pc}
 1488              		.section	.text.lv_dropdown_get_symbol,"ax",%progbits
 1489              		.align	1
 1490              		.global	lv_dropdown_get_symbol
 1491              		.syntax unified
 1492              		.thumb
 1493              		.thumb_func
 1495              	lv_dropdown_get_symbol:
 1496              		@ args = 0, pretend = 0, frame = 0
 1497              		@ frame_needed = 0, uses_anonymous_args = 0
 1498              		@ link register save eliminated.
 1499 0000 C06A     		ldr	r0, [r0, #44]
 1500 0002 7047     		bx	lr
 1502              		.section	.text.lv_dropdown_get_selected_highlight,"ax",%progbits
 1503              		.align	1
 1504              		.global	lv_dropdown_get_selected_highlight
 1505              		.syntax unified
 1506              		.thumb
 1507              		.thumb_func
 1509              	lv_dropdown_get_selected_highlight:
 1510              		@ args = 0, pretend = 0, frame = 0
 1511              		@ frame_needed = 0, uses_anonymous_args = 0
 1512              		@ link register save eliminated.
 1513 0000 90F83C00 		ldrb	r0, [r0, #60]	@ zero_extendqisi2
 1514 0004 C0F34010 		ubfx	r0, r0, #5, #1
 1515 0008 7047     		bx	lr
 1517              		.section	.text.lv_dropdown_get_dir,"ax",%progbits
 1518              		.align	1
 1519              		.global	lv_dropdown_get_dir
 1520              		.syntax unified
 1521              		.thumb
 1522              		.thumb_func
 1524              	lv_dropdown_get_dir:
 1525              		@ args = 0, pretend = 0, frame = 0
 1526              		@ frame_needed = 0, uses_anonymous_args = 0
 1527              		@ link register save eliminated.
 1528 0000 90F83C00 		ldrb	r0, [r0, #60]	@ zero_extendqisi2
 1529 0004 00F00F00 		and	r0, r0, #15
 1530 0008 7047     		bx	lr
 1532              		.section	.text.lv_dropdown_open,"ax",%progbits
 1533              		.align	1
 1534              		.global	lv_dropdown_open
 1535              		.syntax unified
 1536              		.thumb
 1537              		.thumb_func
 1539              	lv_dropdown_open:
 1540              		@ args = 0, pretend = 0, frame = 0
 1541              		@ frame_needed = 0, uses_anonymous_args = 0
 1542 0000 2DE9F041 		push	{r4, r5, r6, r7, r8, lr}
 1543 0004 82B0     		sub	sp, sp, #8
 1544 0006 0446     		mov	r4, r0
 1545 0008 0121     		movs	r1, #1
ARM GAS  /var/folders/lp/x54gwt890xv47sdkqj1k04q40000gn/T//ccC5njr9.s 			page 27


 1546 000a FFF7FEFF 		bl	lv_obj_add_state
 1547 000e 656A     		ldr	r5, [r4, #36]
 1548 0010 2046     		mov	r0, r4
 1549 0012 FFF7FEFF 		bl	lv_obj_get_screen
 1550 0016 0146     		mov	r1, r0
 1551 0018 2846     		mov	r0, r5
 1552 001a FFF7FEFF 		bl	lv_obj_set_parent
 1553 001e 4FF0FF31 		mov	r1, #-1
 1554 0022 606A     		ldr	r0, [r4, #36]
 1555 0024 FFF7FEFF 		bl	lv_obj_move_to_index
 1556 0028 0121     		movs	r1, #1
 1557 002a 606A     		ldr	r0, [r4, #36]
 1558 002c FFF7FEFF 		bl	lv_obj_clear_flag
 1559 0030 0022     		movs	r2, #0
 1560 0032 1F21     		movs	r1, #31
 1561 0034 2046     		mov	r0, r4
 1562 0036 FFF7FEFF 		bl	lv_event_send
 1563 003a 2046     		mov	r0, r4
 1564 003c FFF7FEFF 		bl	get_label
 1565 0040 0746     		mov	r7, r0
 1566 0042 216B     		ldr	r1, [r4, #48]
 1567 0044 FFF7FEFF 		bl	lv_label_set_text_static
 1568 0048 42F2D171 		movw	r1, #10193
 1569 004c 606A     		ldr	r0, [r4, #36]
 1570 004e FFF7FEFF 		bl	lv_obj_set_width
 1571 0052 3846     		mov	r0, r7
 1572 0054 FFF7FEFF 		bl	lv_obj_update_layout
 1573 0058 606A     		ldr	r0, [r4, #36]
 1574 005a FFF7FEFF 		bl	lv_obj_get_width
 1575 005e 0546     		mov	r5, r0
 1576 0060 2046     		mov	r0, r4
 1577 0062 FFF7FEFF 		bl	lv_obj_get_width
 1578 0066 8542     		cmp	r5, r0
 1579 0068 07DC     		bgt	.L200
 1580 006a 94F83C30 		ldrb	r3, [r4, #60]	@ zero_extendqisi2
 1581 006e 03F00F03 		and	r3, r3, #15
 1582 0072 042B     		cmp	r3, #4
 1583 0074 3CD0     		beq	.L201
 1584 0076 082B     		cmp	r3, #8
 1585 0078 3AD0     		beq	.L201
 1586              	.L200:
 1587 007a 3846     		mov	r0, r7
 1588 007c FFF7FEFF 		bl	lv_obj_get_height
 1589 0080 8046     		mov	r8, r0
 1590 0082 3222     		movs	r2, #50
 1591 0084 0021     		movs	r1, #0
 1592 0086 606A     		ldr	r0, [r4, #36]
 1593 0088 FFF7FEFF 		bl	lv_obj_get_style_prop
 1594 008c 0546     		mov	r5, r0
 1595 008e 1022     		movs	r2, #16
 1596 0090 0021     		movs	r1, #0
 1597 0092 606A     		ldr	r0, [r4, #36]
 1598 0094 FFF7FEFF 		bl	lv_obj_get_style_prop
 1599 0098 ADB2     		uxth	r5, r5
 1600 009a 15FA80F6 		uxtah	r6, r5, r0
 1601 009e B6B2     		uxth	r6, r6
 1602 00a0 1122     		movs	r2, #17
ARM GAS  /var/folders/lp/x54gwt890xv47sdkqj1k04q40000gn/T//ccC5njr9.s 			page 28


 1603 00a2 0021     		movs	r1, #0
 1604 00a4 606A     		ldr	r0, [r4, #36]
 1605 00a6 FFF7FEFF 		bl	lv_obj_get_style_prop
 1606 00aa 15FA80F5 		uxtah	r5, r5, r0
 1607 00ae 4644     		add	r6, r6, r8
 1608 00b0 B6B2     		uxth	r6, r6
 1609 00b2 16FA85F5 		uxtah	r5, r6, r5
 1610 00b6 2DB2     		sxth	r5, r5
 1611 00b8 94F83C30 		ldrb	r3, [r4, #60]	@ zero_extendqisi2
 1612 00bc 03F00F06 		and	r6, r3, #15
 1613 00c0 082E     		cmp	r6, #8
 1614 00c2 1ED0     		beq	.L222
 1615 00c4 042E     		cmp	r6, #4
 1616 00c6 42D0     		beq	.L223
 1617 00c8 2B46     		mov	r3, r5
 1618              	.L203:
 1619 00ca AB42     		cmp	r3, r5
 1620 00cc 00DC     		bgt	.L206
 1621 00ce 1D46     		mov	r5, r3
 1622              	.L206:
 1623 00d0 2946     		mov	r1, r5
 1624 00d2 606A     		ldr	r0, [r4, #36]
 1625 00d4 FFF7FEFF 		bl	lv_obj_set_height
 1626 00d8 2046     		mov	r0, r4
 1627 00da FFF7FEFF 		bl	position_to_selected
 1628 00de 731E     		subs	r3, r6, #1
 1629 00e0 072B     		cmp	r3, #7
 1630 00e2 59D8     		bhi	.L207
 1631 00e4 DFE803F0 		tbb	[pc, r3]
 1632              	.L209:
 1633 00e8 7D       		.byte	(.L212-.L209)/2
 1634 00e9 85       		.byte	(.L211-.L209)/2
 1635 00ea 58       		.byte	(.L207-.L209)/2
 1636 00eb 75       		.byte	(.L210-.L209)/2
 1637 00ec 58       		.byte	(.L207-.L209)/2
 1638 00ed 58       		.byte	(.L207-.L209)/2
 1639 00ee 58       		.byte	(.L207-.L209)/2
 1640 00ef 51       		.byte	(.L208-.L209)/2
 1641              		.p2align 1
 1642              	.L201:
 1643 00f0 656A     		ldr	r5, [r4, #36]
 1644 00f2 2046     		mov	r0, r4
 1645 00f4 FFF7FEFF 		bl	lv_obj_get_width
 1646 00f8 0146     		mov	r1, r0
 1647 00fa 2846     		mov	r0, r5
 1648 00fc FFF7FEFF 		bl	lv_obj_set_width
 1649 0100 BBE7     		b	.L200
 1650              	.L222:
 1651 0102 B4F91A80 		ldrsh	r8, [r4, #26]
 1652 0106 A844     		add	r8, r8, r5
 1653 0108 FFF7FEFF 		bl	lv_disp_get_default
 1654 010c FFF7FEFF 		bl	lv_disp_get_ver_res
 1655 0110 8045     		cmp	r8, r0
 1656 0112 01DC     		bgt	.L224
 1657 0114 2B46     		mov	r3, r5
 1658 0116 D8E7     		b	.L203
 1659              	.L224:
ARM GAS  /var/folders/lp/x54gwt890xv47sdkqj1k04q40000gn/T//ccC5njr9.s 			page 29


 1660 0118 B4F91680 		ldrsh	r8, [r4, #22]
 1661 011c FFF7FEFF 		bl	lv_disp_get_default
 1662 0120 FFF7FEFF 		bl	lv_disp_get_ver_res
 1663 0124 B4F91A30 		ldrsh	r3, [r4, #26]
 1664 0128 C01A     		subs	r0, r0, r3
 1665 012a 8045     		cmp	r8, r0
 1666 012c 04DD     		ble	.L204
 1667 012e E38A     		ldrh	r3, [r4, #22]
 1668 0130 013B     		subs	r3, r3, #1
 1669 0132 1BB2     		sxth	r3, r3
 1670 0134 0426     		movs	r6, #4
 1671 0136 C8E7     		b	.L203
 1672              	.L204:
 1673 0138 FFF7FEFF 		bl	lv_disp_get_default
 1674 013c FFF7FEFF 		bl	lv_disp_get_ver_res
 1675 0140 83B2     		uxth	r3, r0
 1676 0142 628B     		ldrh	r2, [r4, #26]
 1677 0144 9B1A     		subs	r3, r3, r2
 1678 0146 9BB2     		uxth	r3, r3
 1679 0148 013B     		subs	r3, r3, #1
 1680 014a 1BB2     		sxth	r3, r3
 1681 014c BDE7     		b	.L203
 1682              	.L223:
 1683 014e B4F91680 		ldrsh	r8, [r4, #22]
 1684 0152 A8EB0503 		sub	r3, r8, r5
 1685 0156 002B     		cmp	r3, #0
 1686 0158 01DB     		blt	.L225
 1687 015a 2B46     		mov	r3, r5
 1688 015c B5E7     		b	.L203
 1689              	.L225:
 1690 015e FFF7FEFF 		bl	lv_disp_get_default
 1691 0162 FFF7FEFF 		bl	lv_disp_get_ver_res
 1692 0166 B4F91A30 		ldrsh	r3, [r4, #26]
 1693 016a C01A     		subs	r0, r0, r3
 1694 016c 8045     		cmp	r8, r0
 1695 016e 02DB     		blt	.L226
 1696 0170 B4F91630 		ldrsh	r3, [r4, #22]
 1697 0174 A9E7     		b	.L203
 1698              	.L226:
 1699 0176 FFF7FEFF 		bl	lv_disp_get_default
 1700 017a FFF7FEFF 		bl	lv_disp_get_ver_res
 1701 017e 83B2     		uxth	r3, r0
 1702 0180 628B     		ldrh	r2, [r4, #26]
 1703 0182 9B1A     		subs	r3, r3, r2
 1704 0184 1BB2     		sxth	r3, r3
 1705 0186 0826     		movs	r6, #8
 1706 0188 9FE7     		b	.L203
 1707              	.L208:
 1708 018a 0023     		movs	r3, #0
 1709 018c 0093     		str	r3, [sp]
 1710 018e 0D22     		movs	r2, #13
 1711 0190 2146     		mov	r1, r4
 1712 0192 606A     		ldr	r0, [r4, #36]
 1713 0194 FFF7FEFF 		bl	lv_obj_align_to
 1714              	.L207:
 1715 0198 606A     		ldr	r0, [r4, #36]
 1716 019a FFF7FEFF 		bl	lv_obj_update_layout
ARM GAS  /var/folders/lp/x54gwt890xv47sdkqj1k04q40000gn/T//ccC5njr9.s 			page 30


 1717 019e 94F83C30 		ldrb	r3, [r4, #60]	@ zero_extendqisi2
 1718 01a2 03F00F03 		and	r3, r3, #15
 1719 01a6 013B     		subs	r3, r3, #1
 1720 01a8 DBB2     		uxtb	r3, r3
 1721 01aa 012B     		cmp	r3, #1
 1722 01ac 29D9     		bls	.L227
 1723              	.L213:
 1724 01ae 226B     		ldr	r2, [r4, #48]
 1725 01b0 0021     		movs	r1, #0
 1726 01b2 3846     		mov	r0, r7
 1727 01b4 FFF7FEFF 		bl	lv_obj_calculate_style_text_align
 1728 01b8 0228     		cmp	r0, #2
 1729 01ba 47D0     		beq	.L214
 1730 01bc 0328     		cmp	r0, #3
 1731 01be 3ED0     		beq	.L215
 1732 01c0 0023     		movs	r3, #0
 1733 01c2 1A46     		mov	r2, r3
 1734 01c4 0121     		movs	r1, #1
 1735 01c6 3846     		mov	r0, r7
 1736 01c8 FFF7FEFF 		bl	lv_obj_align
 1737              	.L199:
 1738 01cc 02B0     		add	sp, sp, #8
 1739              		@ sp needed
 1740 01ce BDE8F081 		pop	{r4, r5, r6, r7, r8, pc}
 1741              	.L210:
 1742 01d2 0023     		movs	r3, #0
 1743 01d4 0093     		str	r3, [sp]
 1744 01d6 0A22     		movs	r2, #10
 1745 01d8 2146     		mov	r1, r4
 1746 01da 606A     		ldr	r0, [r4, #36]
 1747 01dc FFF7FEFF 		bl	lv_obj_align_to
 1748 01e0 DAE7     		b	.L207
 1749              	.L212:
 1750 01e2 0023     		movs	r3, #0
 1751 01e4 0093     		str	r3, [sp]
 1752 01e6 1022     		movs	r2, #16
 1753 01e8 2146     		mov	r1, r4
 1754 01ea 606A     		ldr	r0, [r4, #36]
 1755 01ec FFF7FEFF 		bl	lv_obj_align_to
 1756 01f0 D2E7     		b	.L207
 1757              	.L211:
 1758 01f2 0023     		movs	r3, #0
 1759 01f4 0093     		str	r3, [sp]
 1760 01f6 1322     		movs	r2, #19
 1761 01f8 2146     		mov	r1, r4
 1762 01fa 606A     		ldr	r0, [r4, #36]
 1763 01fc FFF7FEFF 		bl	lv_obj_align_to
 1764 0200 CAE7     		b	.L207
 1765              	.L227:
 1766 0202 606A     		ldr	r0, [r4, #36]
 1767 0204 FFF7FEFF 		bl	lv_obj_get_y
 1768 0208 8046     		mov	r8, r0
 1769 020a 606A     		ldr	r0, [r4, #36]
 1770 020c FFF7FEFF 		bl	lv_obj_get_y2
 1771 0210 0546     		mov	r5, r0
 1772 0212 FFF7FEFF 		bl	lv_disp_get_default
 1773 0216 FFF7FEFF 		bl	lv_disp_get_ver_res
ARM GAS  /var/folders/lp/x54gwt890xv47sdkqj1k04q40000gn/T//ccC5njr9.s 			page 31


 1774 021a A842     		cmp	r0, r5
 1775 021c C7DC     		bgt	.L213
 1776 021e 666A     		ldr	r6, [r4, #36]
 1777 0220 FFF7FEFF 		bl	lv_disp_get_default
 1778 0224 FFF7FEFF 		bl	lv_disp_get_ver_res
 1779 0228 81B2     		uxth	r1, r0
 1780 022a 491B     		subs	r1, r1, r5
 1781 022c 18FA81F1 		uxtah	r1, r8, r1
 1782 0230 89B2     		uxth	r1, r1
 1783 0232 0139     		subs	r1, r1, #1
 1784 0234 09B2     		sxth	r1, r1
 1785 0236 3046     		mov	r0, r6
 1786 0238 FFF7FEFF 		bl	lv_obj_set_y
 1787 023c B7E7     		b	.L213
 1788              	.L215:
 1789 023e 0023     		movs	r3, #0
 1790 0240 1A46     		mov	r2, r3
 1791 0242 0321     		movs	r1, #3
 1792 0244 3846     		mov	r0, r7
 1793 0246 FFF7FEFF 		bl	lv_obj_align
 1794 024a BFE7     		b	.L199
 1795              	.L214:
 1796 024c 0023     		movs	r3, #0
 1797 024e 1A46     		mov	r2, r3
 1798 0250 0221     		movs	r1, #2
 1799 0252 3846     		mov	r0, r7
 1800 0254 FFF7FEFF 		bl	lv_obj_align
 1801 0258 B8E7     		b	.L199
 1803              		.section	.text.lv_dropdown_close,"ax",%progbits
 1804              		.align	1
 1805              		.global	lv_dropdown_close
 1806              		.syntax unified
 1807              		.thumb
 1808              		.thumb_func
 1810              	lv_dropdown_close:
 1811              		@ args = 0, pretend = 0, frame = 0
 1812              		@ frame_needed = 0, uses_anonymous_args = 0
 1813 0000 10B5     		push	{r4, lr}
 1814 0002 0446     		mov	r4, r0
 1815 0004 0121     		movs	r1, #1
 1816 0006 FFF7FEFF 		bl	lv_obj_clear_state
 1817 000a 4FF6FF73 		movw	r3, #65535
 1818 000e 6387     		strh	r3, [r4, #58]	@ movhi
 1819 0010 0121     		movs	r1, #1
 1820 0012 606A     		ldr	r0, [r4, #36]
 1821 0014 FFF7FEFF 		bl	lv_obj_add_flag
 1822 0018 0022     		movs	r2, #0
 1823 001a 2021     		movs	r1, #32
 1824 001c 2046     		mov	r0, r4
 1825 001e FFF7FEFF 		bl	lv_event_send
 1826 0022 10BD     		pop	{r4, pc}
 1828              		.section	.text.list_release_handler,"ax",%progbits
 1829              		.align	1
 1830              		.syntax unified
 1831              		.thumb
 1832              		.thumb_func
 1834              	list_release_handler:
ARM GAS  /var/folders/lp/x54gwt890xv47sdkqj1k04q40000gn/T//ccC5njr9.s 			page 32


 1835              		@ args = 0, pretend = 0, frame = 8
 1836              		@ frame_needed = 0, uses_anonymous_args = 0
 1837 0000 70B5     		push	{r4, r5, r6, lr}
 1838 0002 82B0     		sub	sp, sp, #8
 1839 0004 446A     		ldr	r4, [r0, #36]
 1840 0006 FFF7FEFF 		bl	lv_indev_get_act
 1841 000a 0546     		mov	r5, r0
 1842 000c FFF7FEFF 		bl	lv_indev_get_type
 1843 0010 0428     		cmp	r0, #4
 1844 0012 22D0     		beq	.L236
 1845              	.L231:
 1846 0014 2846     		mov	r0, r5
 1847 0016 FFF7FEFF 		bl	lv_indev_get_type
 1848 001a 0128     		cmp	r0, #1
 1849 001c 04D0     		beq	.L232
 1850 001e 2846     		mov	r0, r5
 1851 0020 FFF7FEFF 		bl	lv_indev_get_type
 1852 0024 0328     		cmp	r0, #3
 1853 0026 0AD1     		bne	.L233
 1854              	.L232:
 1855 0028 6946     		mov	r1, sp
 1856 002a 2846     		mov	r0, r5
 1857 002c FFF7FEFF 		bl	lv_indev_get_point
 1858 0030 BDF90210 		ldrsh	r1, [sp, #2]
 1859 0034 2046     		mov	r0, r4
 1860 0036 FFF7FEFF 		bl	get_id_on_point
 1861 003a E086     		strh	r0, [r4, #54]	@ movhi
 1862 003c 2087     		strh	r0, [r4, #56]	@ movhi
 1863              	.L233:
 1864 003e 2046     		mov	r0, r4
 1865 0040 FFF7FEFF 		bl	lv_dropdown_close
 1866 0044 A36A     		ldr	r3, [r4, #40]
 1867 0046 BBB1     		cbz	r3, .L237
 1868              	.L234:
 1869 0048 E38E     		ldrh	r3, [r4, #54]
 1870 004a 0193     		str	r3, [sp, #4]
 1871 004c 01AA     		add	r2, sp, #4
 1872 004e 1C21     		movs	r1, #28
 1873 0050 2046     		mov	r0, r4
 1874 0052 FFF7FEFF 		bl	lv_event_send
 1875 0056 02B0     		add	sp, sp, #8
 1876              		@ sp needed
 1877 0058 70BD     		pop	{r4, r5, r6, pc}
 1878              	.L236:
 1879 005a E38E     		ldrh	r3, [r4, #54]
 1880 005c 2387     		strh	r3, [r4, #56]	@ movhi
 1881 005e 2046     		mov	r0, r4
 1882 0060 FFF7FEFF 		bl	lv_obj_get_group
 1883 0064 0646     		mov	r6, r0
 1884 0066 FFF7FEFF 		bl	lv_group_get_editing
 1885 006a 0028     		cmp	r0, #0
 1886 006c D2D0     		beq	.L231
 1887 006e 0021     		movs	r1, #0
 1888 0070 3046     		mov	r0, r6
 1889 0072 FFF7FEFF 		bl	lv_group_set_editing
 1890 0076 CDE7     		b	.L231
 1891              	.L237:
ARM GAS  /var/folders/lp/x54gwt890xv47sdkqj1k04q40000gn/T//ccC5njr9.s 			page 33


 1892 0078 2046     		mov	r0, r4
 1893 007a FFF7FEFF 		bl	lv_obj_invalidate
 1894 007e E3E7     		b	.L234
 1896              		.section	.text.lv_dropdown_list_event,"ax",%progbits
 1897              		.align	1
 1898              		.syntax unified
 1899              		.thumb
 1900              		.thumb_func
 1902              	lv_dropdown_list_event:
 1903              		@ args = 0, pretend = 0, frame = 0
 1904              		@ frame_needed = 0, uses_anonymous_args = 0
 1905 0000 70B5     		push	{r4, r5, r6, lr}
 1906 0002 0D46     		mov	r5, r1
 1907 0004 0846     		mov	r0, r1
 1908 0006 FFF7FEFF 		bl	lv_event_get_code
 1909 000a 0446     		mov	r4, r0
 1910 000c 1828     		cmp	r0, #24
 1911 000e 05D0     		beq	.L239
 1912 0010 2946     		mov	r1, r5
 1913 0012 1A48     		ldr	r0, .L248
 1914 0014 FFF7FEFF 		bl	lv_obj_event_base
 1915 0018 0128     		cmp	r0, #1
 1916 001a 20D1     		bne	.L238
 1917              	.L239:
 1918 001c 2846     		mov	r0, r5
 1919 001e FFF7FEFF 		bl	lv_event_get_target
 1920 0022 0646     		mov	r6, r0
 1921 0024 436A     		ldr	r3, [r0, #36]
 1922 0026 013C     		subs	r4, r4, #1
 1923 0028 172C     		cmp	r4, #23
 1924 002a 18D8     		bhi	.L238
 1925 002c DFE804F0 		tbb	[pc, r4]
 1926              	.L242:
 1927 0030 15       		.byte	(.L245-.L242)/2
 1928 0031 17       		.byte	(.L238-.L242)/2
 1929 0032 17       		.byte	(.L238-.L242)/2
 1930 0033 17       		.byte	(.L238-.L242)/2
 1931 0034 17       		.byte	(.L238-.L242)/2
 1932 0035 17       		.byte	(.L238-.L242)/2
 1933 0036 17       		.byte	(.L238-.L242)/2
 1934 0037 0C       		.byte	(.L244-.L242)/2
 1935 0038 18       		.byte	(.L243-.L242)/2
 1936 0039 17       		.byte	(.L238-.L242)/2
 1937 003a 17       		.byte	(.L238-.L242)/2
 1938 003b 17       		.byte	(.L238-.L242)/2
 1939 003c 17       		.byte	(.L238-.L242)/2
 1940 003d 17       		.byte	(.L238-.L242)/2
 1941 003e 17       		.byte	(.L238-.L242)/2
 1942 003f 17       		.byte	(.L238-.L242)/2
 1943 0040 17       		.byte	(.L238-.L242)/2
 1944 0041 17       		.byte	(.L238-.L242)/2
 1945 0042 17       		.byte	(.L238-.L242)/2
 1946 0043 17       		.byte	(.L238-.L242)/2
 1947 0044 17       		.byte	(.L238-.L242)/2
 1948 0045 17       		.byte	(.L238-.L242)/2
 1949 0046 17       		.byte	(.L238-.L242)/2
 1950 0047 1E       		.byte	(.L241-.L242)/2
ARM GAS  /var/folders/lp/x54gwt890xv47sdkqj1k04q40000gn/T//ccC5njr9.s 			page 34


 1951              		.p2align 1
 1952              	.L244:
 1953 0048 FFF7FEFF 		bl	lv_indev_get_act
 1954 004c FFF7FEFF 		bl	lv_indev_get_scroll_obj
 1955 0050 28B9     		cbnz	r0, .L238
 1956 0052 3046     		mov	r0, r6
 1957 0054 FFF7FEFF 		bl	list_release_handler
 1958 0058 01E0     		b	.L238
 1959              	.L245:
 1960 005a FFF7FEFF 		bl	list_press_handler
 1961              	.L238:
 1962 005e 70BD     		pop	{r4, r5, r6, pc}
 1963              	.L243:
 1964 0060 4FF6FF72 		movw	r2, #65535
 1965 0064 5A87     		strh	r2, [r3, #58]	@ movhi
 1966 0066 FFF7FEFF 		bl	lv_obj_invalidate
 1967 006a F8E7     		b	.L238
 1968              	.L241:
 1969 006c 2846     		mov	r0, r5
 1970 006e FFF7FEFF 		bl	draw_list
 1971 0072 2946     		mov	r1, r5
 1972 0074 0148     		ldr	r0, .L248
 1973 0076 FFF7FEFF 		bl	lv_obj_event_base
 1974 007a F0E7     		b	.L238
 1975              	.L249:
 1976              		.align	2
 1977              	.L248:
 1978 007c 00000000 		.word	lv_dropdownlist_class
 1980              		.section	.text.lv_dropdown_is_open,"ax",%progbits
 1981              		.align	1
 1982              		.global	lv_dropdown_is_open
 1983              		.syntax unified
 1984              		.thumb
 1985              		.thumb_func
 1987              	lv_dropdown_is_open:
 1988              		@ args = 0, pretend = 0, frame = 0
 1989              		@ frame_needed = 0, uses_anonymous_args = 0
 1990 0000 08B5     		push	{r3, lr}
 1991 0002 0121     		movs	r1, #1
 1992 0004 406A     		ldr	r0, [r0, #36]
 1993 0006 FFF7FEFF 		bl	lv_obj_has_flag
 1994 000a 80F00100 		eor	r0, r0, #1
 1995 000e C0B2     		uxtb	r0, r0
 1996 0010 08BD     		pop	{r3, pc}
 1998              		.section	.text.btn_release_handler,"ax",%progbits
 1999              		.align	1
 2000              		.syntax unified
 2001              		.thumb
 2002              		.thumb_func
 2004              	btn_release_handler:
 2005              		@ args = 0, pretend = 0, frame = 8
 2006              		@ frame_needed = 0, uses_anonymous_args = 0
 2007 0000 30B5     		push	{r4, r5, lr}
 2008 0002 83B0     		sub	sp, sp, #12
 2009 0004 0446     		mov	r4, r0
 2010 0006 FFF7FEFF 		bl	lv_indev_get_act
 2011 000a 0546     		mov	r5, r0
ARM GAS  /var/folders/lp/x54gwt890xv47sdkqj1k04q40000gn/T//ccC5njr9.s 			page 35


 2012 000c FFF7FEFF 		bl	lv_indev_get_scroll_obj
 2013 0010 38B1     		cbz	r0, .L260
 2014 0012 238F     		ldrh	r3, [r4, #56]
 2015 0014 E386     		strh	r3, [r4, #54]	@ movhi
 2016 0016 2046     		mov	r0, r4
 2017 0018 FFF7FEFF 		bl	lv_obj_invalidate
 2018 001c 0120     		movs	r0, #1
 2019              	.L257:
 2020 001e 03B0     		add	sp, sp, #12
 2021              		@ sp needed
 2022 0020 30BD     		pop	{r4, r5, pc}
 2023              	.L260:
 2024 0022 2046     		mov	r0, r4
 2025 0024 FFF7FEFF 		bl	lv_dropdown_is_open
 2026 0028 08B3     		cbz	r0, .L254
 2027 002a 2046     		mov	r0, r4
 2028 002c FFF7FEFF 		bl	lv_dropdown_close
 2029 0030 228F     		ldrh	r2, [r4, #56]
 2030 0032 E38E     		ldrh	r3, [r4, #54]
 2031 0034 9A42     		cmp	r2, r3
 2032 0036 0BD0     		beq	.L255
 2033 0038 2387     		strh	r3, [r4, #56]	@ movhi
 2034 003a 0193     		str	r3, [sp, #4]
 2035 003c 01AA     		add	r2, sp, #4
 2036 003e 1C21     		movs	r1, #28
 2037 0040 2046     		mov	r0, r4
 2038 0042 FFF7FEFF 		bl	lv_event_send
 2039 0046 0128     		cmp	r0, #1
 2040 0048 E9D1     		bne	.L257
 2041 004a 2046     		mov	r0, r4
 2042 004c FFF7FEFF 		bl	lv_obj_invalidate
 2043              	.L255:
 2044 0050 2846     		mov	r0, r5
 2045 0052 FFF7FEFF 		bl	lv_indev_get_type
 2046 0056 0428     		cmp	r0, #4
 2047 0058 01D0     		beq	.L261
 2048 005a 0120     		movs	r0, #1
 2049 005c DFE7     		b	.L257
 2050              	.L261:
 2051 005e 2046     		mov	r0, r4
 2052 0060 FFF7FEFF 		bl	lv_obj_get_group
 2053 0064 0021     		movs	r1, #0
 2054 0066 FFF7FEFF 		bl	lv_group_set_editing
 2055 006a 0120     		movs	r0, #1
 2056 006c D7E7     		b	.L257
 2057              	.L254:
 2058 006e 2046     		mov	r0, r4
 2059 0070 FFF7FEFF 		bl	lv_dropdown_open
 2060 0074 0120     		movs	r0, #1
 2061 0076 D2E7     		b	.L257
 2063              		.section	.text.lv_dropdown_event,"ax",%progbits
 2064              		.align	1
 2065              		.syntax unified
 2066              		.thumb
 2067              		.thumb_func
 2069              	lv_dropdown_event:
 2070              		@ args = 0, pretend = 0, frame = 0
ARM GAS  /var/folders/lp/x54gwt890xv47sdkqj1k04q40000gn/T//ccC5njr9.s 			page 36


 2071              		@ frame_needed = 0, uses_anonymous_args = 0
 2072 0000 70B5     		push	{r4, r5, r6, lr}
 2073 0002 0C46     		mov	r4, r1
 2074 0004 7A48     		ldr	r0, .L287
 2075 0006 FFF7FEFF 		bl	lv_obj_event_base
 2076 000a 0128     		cmp	r0, #1
 2077 000c 00D0     		beq	.L284
 2078              	.L262:
 2079 000e 70BD     		pop	{r4, r5, r6, pc}
 2080              	.L284:
 2081 0010 2046     		mov	r0, r4
 2082 0012 FFF7FEFF 		bl	lv_event_get_code
 2083 0016 0546     		mov	r5, r0
 2084 0018 2046     		mov	r0, r4
 2085 001a FFF7FEFF 		bl	lv_event_get_target
 2086 001e 0646     		mov	r6, r0
 2087 0020 A5F10803 		sub	r3, r5, #8
 2088 0024 242B     		cmp	r3, #36
 2089 0026 F2D8     		bhi	.L262
 2090 0028 01A2     		adr	r2, .L265
 2091 002a 52F823F0 		ldr	pc, [r2, r3, lsl #2]
 2092 002e 00BF     		.p2align 2
 2093              	.L265:
 2094 0030 F7000000 		.word	.L272+1
 2095 0034 0F000000 		.word	.L262+1
 2096 0038 0F000000 		.word	.L262+1
 2097 003c 0F000000 		.word	.L262+1
 2098 0040 0F000000 		.word	.L262+1
 2099 0044 23010000 		.word	.L271+1
 2100 0048 C5000000 		.word	.L270+1
 2101 004c F1000000 		.word	.L269+1
 2102 0050 F1000000 		.word	.L269+1
 2103 0054 0F000000 		.word	.L262+1
 2104 0058 0F000000 		.word	.L262+1
 2105 005c 0F000000 		.word	.L262+1
 2106 0060 0F000000 		.word	.L262+1
 2107 0064 E9010000 		.word	.L268+1
 2108 0068 0F000000 		.word	.L262+1
 2109 006c 0F000000 		.word	.L262+1
 2110 0070 0F000000 		.word	.L262+1
 2111 0074 0F000000 		.word	.L262+1
 2112 0078 0F000000 		.word	.L262+1
 2113 007c 0F000000 		.word	.L262+1
 2114 0080 0F000000 		.word	.L262+1
 2115 0084 0F000000 		.word	.L262+1
 2116 0088 0F000000 		.word	.L262+1
 2117 008c 0F000000 		.word	.L262+1
 2118 0090 0F000000 		.word	.L262+1
 2119 0094 0F000000 		.word	.L262+1
 2120 0098 0F000000 		.word	.L262+1
 2121 009c 0F000000 		.word	.L262+1
 2122 00a0 0F000000 		.word	.L262+1
 2123 00a4 0F000000 		.word	.L262+1
 2124 00a8 0F000000 		.word	.L262+1
 2125 00ac 0F000000 		.word	.L262+1
 2126 00b0 0F000000 		.word	.L262+1
 2127 00b4 03010000 		.word	.L267+1
ARM GAS  /var/folders/lp/x54gwt890xv47sdkqj1k04q40000gn/T//ccC5njr9.s 			page 37


 2128 00b8 FD000000 		.word	.L266+1
 2129 00bc 0F000000 		.word	.L262+1
 2130 00c0 09010000 		.word	.L264+1
 2131              		.p2align 1
 2132              	.L270:
 2133 00c4 FFF7FEFF 		bl	lv_obj_get_group
 2134 00c8 FFF7FEFF 		bl	lv_group_get_editing
 2135 00cc 0446     		mov	r4, r0
 2136 00ce FFF7FEFF 		bl	lv_indev_get_act
 2137 00d2 FFF7FEFF 		bl	lv_indev_get_type
 2138 00d6 0428     		cmp	r0, #4
 2139 00d8 99D1     		bne	.L262
 2140 00da 1CB1     		cbz	r4, .L273
 2141 00dc 3046     		mov	r0, r6
 2142 00de FFF7FEFF 		bl	lv_dropdown_open
 2143 00e2 94E7     		b	.L262
 2144              	.L273:
 2145 00e4 338F     		ldrh	r3, [r6, #56]
 2146 00e6 F386     		strh	r3, [r6, #54]	@ movhi
 2147 00e8 3046     		mov	r0, r6
 2148 00ea FFF7FEFF 		bl	lv_dropdown_close
 2149 00ee 8EE7     		b	.L262
 2150              	.L269:
 2151 00f0 FFF7FEFF 		bl	lv_dropdown_close
 2152 00f4 8BE7     		b	.L262
 2153              	.L272:
 2154 00f6 FFF7FEFF 		bl	btn_release_handler
 2155 00fa 88E7     		b	.L262
 2156              	.L266:
 2157 00fc FFF7FEFF 		bl	lv_obj_refresh_self_size
 2158 0100 85E7     		b	.L262
 2159              	.L267:
 2160 0102 FFF7FEFF 		bl	lv_obj_refresh_self_size
 2161 0106 82E7     		b	.L262
 2162              	.L264:
 2163 0108 2046     		mov	r0, r4
 2164 010a FFF7FEFF 		bl	lv_event_get_param
 2165 010e 0446     		mov	r4, r0
 2166 0110 5722     		movs	r2, #87
 2167 0112 0021     		movs	r1, #0
 2168 0114 3046     		mov	r0, r6
 2169 0116 FFF7FEFF 		bl	lv_obj_get_style_prop
 2170 011a B0F90830 		ldrsh	r3, [r0, #8]
 2171 011e 6380     		strh	r3, [r4, #2]	@ movhi
 2172 0120 75E7     		b	.L262
 2173              	.L271:
 2174 0122 2046     		mov	r0, r4
 2175 0124 FFF7FEFF 		bl	lv_event_get_param
 2176 0128 0378     		ldrb	r3, [r0]	@ zero_extendqisi2
 2177 012a 0A3B     		subs	r3, r3, #10
 2178 012c 112B     		cmp	r3, #17
 2179 012e 3FF66EAF 		bhi	.L262
 2180 0132 01A2     		adr	r2, .L275
 2181 0134 52F823F0 		ldr	pc, [r2, r3, lsl #2]
 2182              		.p2align 2
 2183              	.L275:
 2184 0138 D7010000 		.word	.L278+1
ARM GAS  /var/folders/lp/x54gwt890xv47sdkqj1k04q40000gn/T//ccC5njr9.s 			page 38


 2185 013c 0F000000 		.word	.L262+1
 2186 0140 0F000000 		.word	.L262+1
 2187 0144 0F000000 		.word	.L262+1
 2188 0148 0F000000 		.word	.L262+1
 2189 014c 0F000000 		.word	.L262+1
 2190 0150 0F000000 		.word	.L262+1
 2191 0154 A7010000 		.word	.L276+1
 2192 0158 81010000 		.word	.L277+1
 2193 015c 81010000 		.word	.L277+1
 2194 0160 A7010000 		.word	.L276+1
 2195 0164 0F000000 		.word	.L262+1
 2196 0168 0F000000 		.word	.L262+1
 2197 016c 0F000000 		.word	.L262+1
 2198 0170 0F000000 		.word	.L262+1
 2199 0174 0F000000 		.word	.L262+1
 2200 0178 0F000000 		.word	.L262+1
 2201 017c CB010000 		.word	.L274+1
 2202              		.p2align 1
 2203              	.L277:
 2204 0180 3046     		mov	r0, r6
 2205 0182 FFF7FEFF 		bl	lv_dropdown_is_open
 2206 0186 50B1     		cbz	r0, .L285
 2207 0188 F38E     		ldrh	r3, [r6, #54]
 2208 018a 591C     		adds	r1, r3, #1
 2209 018c B28E     		ldrh	r2, [r6, #52]
 2210 018e 9142     		cmp	r1, r2
 2211 0190 BFF63DAF 		bge	.L262
 2212 0194 F186     		strh	r1, [r6, #54]	@ movhi
 2213 0196 3046     		mov	r0, r6
 2214 0198 FFF7FEFF 		bl	position_to_selected
 2215 019c 37E7     		b	.L262
 2216              	.L285:
 2217 019e 3046     		mov	r0, r6
 2218 01a0 FFF7FEFF 		bl	lv_dropdown_open
 2219 01a4 33E7     		b	.L262
 2220              	.L276:
 2221 01a6 3046     		mov	r0, r6
 2222 01a8 FFF7FEFF 		bl	lv_dropdown_is_open
 2223 01ac 48B1     		cbz	r0, .L286
 2224 01ae F38E     		ldrh	r3, [r6, #54]
 2225 01b0 002B     		cmp	r3, #0
 2226 01b2 3FF42CAF 		beq	.L262
 2227 01b6 013B     		subs	r3, r3, #1
 2228 01b8 F386     		strh	r3, [r6, #54]	@ movhi
 2229 01ba 3046     		mov	r0, r6
 2230 01bc FFF7FEFF 		bl	position_to_selected
 2231 01c0 25E7     		b	.L262
 2232              	.L286:
 2233 01c2 3046     		mov	r0, r6
 2234 01c4 FFF7FEFF 		bl	lv_dropdown_open
 2235 01c8 21E7     		b	.L262
 2236              	.L274:
 2237 01ca 338F     		ldrh	r3, [r6, #56]
 2238 01cc F386     		strh	r3, [r6, #54]	@ movhi
 2239 01ce 3046     		mov	r0, r6
 2240 01d0 FFF7FEFF 		bl	lv_dropdown_close
 2241 01d4 1BE7     		b	.L262
ARM GAS  /var/folders/lp/x54gwt890xv47sdkqj1k04q40000gn/T//ccC5njr9.s 			page 39


 2242              	.L278:
 2243 01d6 FFF7FEFF 		bl	lv_indev_get_obj_act
 2244 01da 8642     		cmp	r6, r0
 2245 01dc 3FF417AF 		beq	.L262
 2246 01e0 3046     		mov	r0, r6
 2247 01e2 FFF7FEFF 		bl	btn_release_handler
 2248 01e6 12E7     		b	.L262
 2249              	.L268:
 2250 01e8 2046     		mov	r0, r4
 2251 01ea FFF7FEFF 		bl	draw_main
 2252 01ee 0EE7     		b	.L262
 2253              	.L288:
 2254              		.align	2
 2255              	.L287:
 2256 01f0 00000000 		.word	lv_dropdown_class
 2258              		.global	lv_dropdownlist_class
 2259              		.section	.rodata.lv_dropdownlist_class,"a"
 2260              		.align	2
 2263              	lv_dropdownlist_class:
 2264 0000 00000000 		.word	lv_obj_class
 2265 0004 00000000 		.word	lv_dropdownlist_constructor
 2266 0008 00000000 		.word	lv_dropdownlist_destructor
 2267 000c 00000000 		.space	4
 2268 0010 00000000 		.word	lv_dropdown_list_event
 2269 0014 00000000 		.space	4
 2270 0018 80       		.byte	128
 2271 0019 02       		.byte	2
 2272 001a 00       		.byte	0
 2273 001b 00       		.space	1
 2274              		.global	lv_dropdown_class
 2275              		.section	.rodata.lv_dropdown_class,"a"
 2276              		.align	2
 2279              	lv_dropdown_class:
 2280 0000 00000000 		.word	lv_obj_class
 2281 0004 00000000 		.word	lv_dropdown_constructor
 2282 0008 00000000 		.word	lv_dropdown_destructor
 2283 000c 00000000 		.space	4
 2284 0010 00000000 		.word	lv_dropdown_event
 2285 0014 8200     		.short	130
 2286 0016 D127     		.short	10193
 2287 0018 05       		.byte	5
 2288 0019 04       		.byte	4
 2289 001a 00       		.byte	0
 2290 001b 00       		.space	1
 2291              		.ident	"GCC: (xPack GNU Arm Embedded GCC arm64) 13.3.1 20240614"
ARM GAS  /var/folders/lp/x54gwt890xv47sdkqj1k04q40000gn/T//ccC5njr9.s 			page 40

