ARM GAS  /var/folders/lp/x54gwt890xv47sdkqj1k04q40000gn/T//ccNe59Kt.s 			page 1


   1              		.cpu cortex-m4
   2              		.arch armv7e-m
   3              		.fpu fpv4-sp-d16
   4              		.eabi_attribute 27, 1
   5              		.eabi_attribute 28, 1
   6              		.eabi_attribute 20, 1
   7              		.eabi_attribute 21, 1
   8              		.eabi_attribute 23, 3
   9              		.eabi_attribute 24, 1
  10              		.eabi_attribute 25, 1
  11              		.eabi_attribute 26, 1
  12              		.eabi_attribute 30, 1
  13              		.eabi_attribute 34, 1
  14              		.eabi_attribute 18, 4
  15              		.file	"lv_draw_sw_rect.c"
  16              		.text
  17              		.section	.text.draw_border_simple,"ax",%progbits
  18              		.align	1
  19              		.syntax unified
  20              		.thumb
  21              		.thumb_func
  23              	draw_border_simple:
  24              		@ args = 4, pretend = 0, frame = 56
  25              		@ frame_needed = 0, uses_anonymous_args = 0
  26 0000 2DE9F04F 		push	{r4, r5, r6, r7, r8, r9, r10, fp, lr}
  27 0004 8FB0     		sub	sp, sp, #60
  28 0006 0190     		str	r0, [sp, #4]
  29 0008 0D46     		mov	r5, r1
  30 000a 1446     		mov	r4, r2
  31 000c 1E46     		mov	r6, r3	@ movhi
  32 000e 1C21     		movs	r1, #28
  33 0010 05A8     		add	r0, sp, #20
  34 0012 FFF7FEFF 		bl	lv_memset_00
  35 0016 0CAB     		add	r3, sp, #48
  36 0018 0593     		str	r3, [sp, #20]
  37 001a ADF81C60 		strh	r6, [sp, #28]	@ movhi
  38 001e 9DF86030 		ldrb	r3, [sp, #96]	@ zero_extendqisi2
  39 0022 8DF82C30 		strb	r3, [sp, #44]
  40 0026 B5F90260 		ldrsh	r6, [r5, #2]
  41 002a B4F902B0 		ldrsh	fp, [r4, #2]
  42 002e B5F906A0 		ldrsh	r10, [r5, #6]
  43 0032 B4F90690 		ldrsh	r9, [r4, #6]
  44 0036 B5F90080 		ldrsh	r8, [r5]
  45 003a B4F90030 		ldrsh	r3, [r4]
  46 003e 0293     		str	r3, [sp, #8]
  47 0040 B5F90470 		ldrsh	r7, [r5, #4]
  48 0044 B4F90430 		ldrsh	r3, [r4, #4]
  49 0048 0393     		str	r3, [sp, #12]
  50 004a ADF83080 		strh	r8, [sp, #48]	@ movhi
  51 004e ADF83470 		strh	r7, [sp, #52]	@ movhi
  52 0052 ADF83260 		strh	r6, [sp, #50]	@ movhi
  53 0056 6388     		ldrh	r3, [r4, #2]
  54 0058 013B     		subs	r3, r3, #1
  55 005a ADF83630 		strh	r3, [sp, #54]	@ movhi
  56 005e 5E45     		cmp	r6, fp
  57 0060 2EDD     		ble	.L11
  58              	.L2:
ARM GAS  /var/folders/lp/x54gwt890xv47sdkqj1k04q40000gn/T//ccNe59Kt.s 			page 2


  59 0062 E388     		ldrh	r3, [r4, #6]
  60 0064 0133     		adds	r3, r3, #1
  61 0066 ADF83230 		strh	r3, [sp, #50]	@ movhi
  62 006a B5F90630 		ldrsh	r3, [r5, #6]
  63 006e ADF83630 		strh	r3, [sp, #54]	@ movhi
  64 0072 CA45     		cmp	r10, r9
  65 0074 29DA     		bge	.L12
  66              	.L3:
  67 0076 B5F90030 		ldrsh	r3, [r5]
  68 007a ADF83030 		strh	r3, [sp, #48]	@ movhi
  69 007e 2388     		ldrh	r3, [r4]
  70 0080 013B     		subs	r3, r3, #1
  71 0082 ADF83430 		strh	r3, [sp, #52]	@ movhi
  72 0086 5E45     		cmp	r6, fp
  73 0088 24DC     		bgt	.L4
  74 008a B4F90230 		ldrsh	r3, [r4, #2]
  75              	.L5:
  76 008e ADF83230 		strh	r3, [sp, #50]	@ movhi
  77 0092 CA45     		cmp	r10, r9
  78 0094 21DB     		blt	.L6
  79 0096 B4F90630 		ldrsh	r3, [r4, #6]
  80              	.L7:
  81 009a ADF83630 		strh	r3, [sp, #54]	@ movhi
  82 009e 029B     		ldr	r3, [sp, #8]
  83 00a0 9845     		cmp	r8, r3
  84 00a2 1DDD     		ble	.L13
  85              	.L8:
  86 00a4 A388     		ldrh	r3, [r4, #4]
  87 00a6 0133     		adds	r3, r3, #1
  88 00a8 ADF83030 		strh	r3, [sp, #48]	@ movhi
  89 00ac B5F90430 		ldrsh	r3, [r5, #4]
  90 00b0 ADF83430 		strh	r3, [sp, #52]	@ movhi
  91 00b4 039B     		ldr	r3, [sp, #12]
  92 00b6 9F42     		cmp	r7, r3
  93 00b8 17DA     		bge	.L14
  94              	.L1:
  95 00ba 0FB0     		add	sp, sp, #60
  96              		@ sp needed
  97 00bc BDE8F08F 		pop	{r4, r5, r6, r7, r8, r9, r10, fp, pc}
  98              	.L11:
  99 00c0 05A9     		add	r1, sp, #20
 100 00c2 0198     		ldr	r0, [sp, #4]
 101 00c4 FFF7FEFF 		bl	lv_draw_sw_blend
 102 00c8 CBE7     		b	.L2
 103              	.L12:
 104 00ca 05A9     		add	r1, sp, #20
 105 00cc 0198     		ldr	r0, [sp, #4]
 106 00ce FFF7FEFF 		bl	lv_draw_sw_blend
 107 00d2 D0E7     		b	.L3
 108              	.L4:
 109 00d4 B5F90230 		ldrsh	r3, [r5, #2]
 110 00d8 D9E7     		b	.L5
 111              	.L6:
 112 00da B5F90630 		ldrsh	r3, [r5, #6]
 113 00de DCE7     		b	.L7
 114              	.L13:
 115 00e0 05A9     		add	r1, sp, #20
ARM GAS  /var/folders/lp/x54gwt890xv47sdkqj1k04q40000gn/T//ccNe59Kt.s 			page 3


 116 00e2 0198     		ldr	r0, [sp, #4]
 117 00e4 FFF7FEFF 		bl	lv_draw_sw_blend
 118 00e8 DCE7     		b	.L8
 119              	.L14:
 120 00ea 05A9     		add	r1, sp, #20
 121 00ec 0198     		ldr	r0, [sp, #4]
 122 00ee FFF7FEFF 		bl	lv_draw_sw_blend
 123 00f2 E2E7     		b	.L1
 125              		.section	.text.shadow_blur_corner,"ax",%progbits
 126              		.align	1
 127              		.syntax unified
 128              		.thumb
 129              		.thumb_func
 131              	shadow_blur_corner:
 132              		@ args = 0, pretend = 0, frame = 8
 133              		@ frame_needed = 0, uses_anonymous_args = 0
 134 0000 2DE9F04F 		push	{r4, r5, r6, r7, r8, r9, r10, fp, lr}
 135 0004 83B0     		sub	sp, sp, #12
 136 0006 0446     		mov	r4, r0
 137 0008 0191     		str	r1, [sp, #4]
 138 000a 1746     		mov	r7, r2
 139 000c 4FEA6108 		asr	r8, r1, #1
 140 0010 11F0010F 		tst	r1, #1
 141 0014 02D1     		bne	.L39
 142 0016 08F1FF39 		add	r9, r8, #-1
 143 001a 00E0     		b	.L16
 144              	.L39:
 145 001c C146     		mov	r9, r8
 146              	.L16:
 147 001e 6600     		lsls	r6, r4, #1
 148 0020 3046     		mov	r0, r6
 149 0022 FFF7FEFF 		bl	lv_mem_buf_get
 150 0026 0546     		mov	r5, r0
 151 0028 BA46     		mov	r10, r7
 152 002a 4FF0000B 		mov	fp, #0
 153 002e 22E0     		b	.L17
 154              	.L40:
 155 0030 0021     		movs	r1, #0
 156              	.L19:
 157 0032 521A     		subs	r2, r2, r1
 158 0034 A3EB0901 		sub	r1, r3, r9
 159 0038 0029     		cmp	r1, #0
 160 003a 11DD     		ble	.L43
 161 003c 01F10041 		add	r1, r1, #-2147483648
 162 0040 0139     		subs	r1, r1, #1
 163 0042 3AF81110 		ldrh	r1, [r10, r1, lsl #1]
 164              	.L21:
 165 0046 0A44     		add	r2, r2, r1
 166 0048 013B     		subs	r3, r3, #1
 167              	.L18:
 168 004a 002B     		cmp	r3, #0
 169 004c 0BDB     		blt	.L44
 170 004e 25F81320 		strh	r2, [r5, r3, lsl #1]	@ movhi
 171 0052 03EB0801 		add	r1, r3, r8
 172 0056 A142     		cmp	r1, r4
 173 0058 EADA     		bge	.L40
 174 005a 3AF81110 		ldrh	r1, [r10, r1, lsl #1]
ARM GAS  /var/folders/lp/x54gwt890xv47sdkqj1k04q40000gn/T//ccNe59Kt.s 			page 4


 175 005e E8E7     		b	.L19
 176              	.L43:
 177 0060 BAF80010 		ldrh	r1, [r10]
 178 0064 EFE7     		b	.L21
 179              	.L44:
 180 0066 3246     		mov	r2, r6
 181 0068 2946     		mov	r1, r5
 182 006a 5046     		mov	r0, r10
 183 006c FFF7FEFF 		bl	lv_memcpy
 184 0070 B244     		add	r10, r10, r6
 185 0072 0BF1010B 		add	fp, fp, #1
 186              	.L17:
 187 0076 5C45     		cmp	r4, fp
 188 0078 09DD     		ble	.L45
 189 007a 04F10043 		add	r3, r4, #-2147483648
 190 007e 013B     		subs	r3, r3, #1
 191 0080 3AF81320 		ldrh	r2, [r10, r3, lsl #1]
 192 0084 019B     		ldr	r3, [sp, #4]
 193 0086 03FB02F2 		mul	r2, r3, r2
 194 008a 631E     		subs	r3, r4, #1
 195 008c DDE7     		b	.L18
 196              	.L45:
 197 008e 4FF47F50 		mov	r0, #16320
 198 0092 019B     		ldr	r3, [sp, #4]
 199 0094 B0FBF3FC 		udiv	ip, r0, r3
 200 0098 0023     		movs	r3, #0
 201 009a 02E0     		b	.L24
 202              	.L47:
 203 009c 27F801C0 		strh	ip, [r7, r1]	@ movhi
 204              	.L25:
 205 00a0 0133     		adds	r3, r3, #1
 206              	.L24:
 207 00a2 04FB04F2 		mul	r2, r4, r4
 208 00a6 9A42     		cmp	r2, r3
 209 00a8 0CD9     		bls	.L46
 210 00aa 5900     		lsls	r1, r3, #1
 211 00ac 37F81320 		ldrh	r2, [r7, r3, lsl #1]
 212 00b0 002A     		cmp	r2, #0
 213 00b2 F5D0     		beq	.L25
 214 00b4 B2F57F5F 		cmp	r2, #16320
 215 00b8 F0D0     		beq	.L47
 216 00ba 0198     		ldr	r0, [sp, #4]
 217 00bc 92FBF0F2 		sdiv	r2, r2, r0
 218 00c0 7A52     		strh	r2, [r7, r1]	@ movhi
 219 00c2 EDE7     		b	.L25
 220              	.L46:
 221 00c4 4FF0000C 		mov	ip, #0
 222 00c8 35E0     		b	.L28
 223              	.L41:
 224 00ca 4FF0000E 		mov	lr, #0
 225 00ce 10E0     		b	.L30
 226              	.L49:
 227 00d0 B0F800E0 		ldrh	lr, [r0]
 228 00d4 18E0     		b	.L32
 229              	.L33:
 230 00d6 621E     		subs	r2, r4, #1
 231 00d8 02FB04C2 		mla	r2, r2, r4, ip
ARM GAS  /var/folders/lp/x54gwt890xv47sdkqj1k04q40000gn/T//ccNe59Kt.s 			page 5


 232 00dc 37F81220 		ldrh	r2, [r7, r2, lsl #1]
 233              	.L34:
 234 00e0 7244     		add	r2, r2, lr
 235 00e2 0133     		adds	r3, r3, #1
 236 00e4 3044     		add	r0, r0, r6
 237              	.L29:
 238 00e6 9C42     		cmp	r4, r3
 239 00e8 1ADD     		ble	.L48
 240 00ea 002A     		cmp	r2, #0
 241 00ec EDDB     		blt	.L41
 242 00ee C2F38F1E 		ubfx	lr, r2, #6, #16
 243              	.L30:
 244 00f2 25F813E0 		strh	lr, [r5, r3, lsl #1]	@ movhi
 245 00f6 A3EB080E 		sub	lr, r3, r8
 246 00fa BEF1000F 		cmp	lr, #0
 247 00fe E7DD     		ble	.L49
 248 0100 0EFB04CE 		mla	lr, lr, r4, ip
 249 0104 37F81EE0 		ldrh	lr, [r7, lr, lsl #1]
 250              	.L32:
 251 0108 A2EB0E0E 		sub	lr, r2, lr
 252 010c 09EB0302 		add	r2, r9, r3
 253 0110 0132     		adds	r2, r2, #1
 254 0112 9442     		cmp	r4, r2
 255 0114 DFDD     		ble	.L33
 256 0116 02FB04C2 		mla	r2, r2, r4, ip
 257 011a 37F81220 		ldrh	r2, [r7, r2, lsl #1]
 258 011e DFE7     		b	.L34
 259              	.L48:
 260 0120 0023     		movs	r3, #0
 261 0122 04E0     		b	.L36
 262              	.L37:
 263 0124 35F81320 		ldrh	r2, [r5, r3, lsl #1]
 264 0128 0A80     		strh	r2, [r1]	@ movhi
 265 012a 0133     		adds	r3, r3, #1
 266 012c 3144     		add	r1, r1, r6
 267              	.L36:
 268 012e 9C42     		cmp	r4, r3
 269 0130 F8DC     		bgt	.L37
 270 0132 0CF1010C 		add	ip, ip, #1
 271              	.L28:
 272 0136 6445     		cmp	r4, ip
 273 0138 09DD     		ble	.L50
 274 013a 07EB4C01 		add	r1, r7, ip, lsl #1
 275 013e 37F81C20 		ldrh	r2, [r7, ip, lsl #1]
 276 0142 019B     		ldr	r3, [sp, #4]
 277 0144 03FB02F2 		mul	r2, r3, r2
 278 0148 0846     		mov	r0, r1
 279 014a 0023     		movs	r3, #0
 280 014c CBE7     		b	.L29
 281              	.L50:
 282 014e 2846     		mov	r0, r5
 283 0150 FFF7FEFF 		bl	lv_mem_buf_release
 284 0154 03B0     		add	sp, sp, #12
 285              		@ sp needed
 286 0156 BDE8F08F 		pop	{r4, r5, r6, r7, r8, r9, r10, fp, pc}
 288              		.section	.text.shadow_draw_corner_buf,"ax",%progbits
 289              		.align	1
ARM GAS  /var/folders/lp/x54gwt890xv47sdkqj1k04q40000gn/T//ccNe59Kt.s 			page 6


 290              		.syntax unified
 291              		.thumb
 292              		.thumb_func
 294              	shadow_draw_corner_buf:
 295              		@ args = 0, pretend = 0, frame = 32
 296              		@ frame_needed = 0, uses_anonymous_args = 0
 297 0000 2DE9F04F 		push	{r4, r5, r6, r7, r8, r9, r10, fp, lr}
 298 0004 8BB0     		sub	sp, sp, #44
 299 0006 8846     		mov	r8, r1
 300 0008 9146     		mov	r9, r2
 301 000a 1A46     		mov	r2, r3
 302 000c 03EB0904 		add	r4, r3, r9
 303 0010 B0F90030 		ldrsh	r3, [r0]
 304 0014 ADF82030 		strh	r3, [sp, #32]	@ movhi
 305 0018 B0F90230 		ldrsh	r3, [r0, #2]
 306 001c ADF82230 		strh	r3, [sp, #34]	@ movhi
 307 0020 B0F90430 		ldrsh	r3, [r0, #4]
 308 0024 ADF82430 		strh	r3, [sp, #36]	@ movhi
 309 0028 B0F90610 		ldrsh	r1, [r0, #6]
 310 002c ADF82610 		strh	r1, [sp, #38]	@ movhi
 311 0030 09EBD975 		add	r5, r9, r9, lsr #31
 312 0034 C5F34F05 		ubfx	r5, r5, #1, #16
 313 0038 AB18     		adds	r3, r5, r2
 314 003a 9BB2     		uxth	r3, r3
 315 003c 09F0010A 		and	r10, r9, #1
 316 0040 19F0010F 		tst	r9, #1
 317 0044 0CBF     		ite	eq
 318 0046 0126     		moveq	r6, #1
 319 0048 0026     		movne	r6, #0
 320 004a 9B1B     		subs	r3, r3, r6
 321 004c 013B     		subs	r3, r3, #1
 322 004e 9EB2     		uxth	r6, r3
 323 0050 ADF82430 		strh	r3, [sp, #36]	@ movhi
 324 0054 0135     		adds	r5, r5, #1
 325 0056 ADF82250 		strh	r5, [sp, #34]	@ movhi
 326 005a 8388     		ldrh	r3, [r0, #4]
 327 005c 0788     		ldrh	r7, [r0]
 328 005e DB1B     		subs	r3, r3, r7
 329 0060 9BB2     		uxth	r3, r3
 330 0062 0133     		adds	r3, r3, #1
 331 0064 9BB2     		uxth	r3, r3
 332 0066 F61A     		subs	r6, r6, r3
 333 0068 ADF82060 		strh	r6, [sp, #32]	@ movhi
 334 006c 89B2     		uxth	r1, r1
 335 006e 4388     		ldrh	r3, [r0, #2]
 336 0070 C91A     		subs	r1, r1, r3
 337 0072 89B2     		uxth	r1, r1
 338 0074 0131     		adds	r1, r1, #1
 339 0076 89B2     		uxth	r1, r1
 340 0078 11FA85F5 		uxtah	r5, r1, r5
 341 007c ADF82650 		strh	r5, [sp, #38]	@ movhi
 342 0080 0023     		movs	r3, #0
 343 0082 08A9     		add	r1, sp, #32
 344 0084 02A8     		add	r0, sp, #8
 345 0086 FFF7FEFF 		bl	lv_draw_mask_radius_init
 346 008a B9F1010F 		cmp	r9, #1
 347 008e 09D0     		beq	.L72
ARM GAS  /var/folders/lp/x54gwt890xv47sdkqj1k04q40000gn/T//ccNe59Kt.s 			page 7


 348 0090 4FEA6909 		asr	r9, r9, #1
 349              	.L52:
 350 0094 2046     		mov	r0, r4
 351 0096 FFF7FEFF 		bl	lv_mem_buf_get
 352 009a 0546     		mov	r5, r0
 353 009c 4646     		mov	r6, r8
 354 009e 4FF0000B 		mov	fp, #0
 355 00a2 24E0     		b	.L53
 356              	.L72:
 357 00a4 4FF00109 		mov	r9, #1
 358 00a8 F4E7     		b	.L52
 359              	.L54:
 360 00aa 2B78     		ldrb	r3, [r5]	@ zero_extendqisi2
 361 00ac 9B01     		lsls	r3, r3, #6
 362 00ae 4846     		mov	r0, r9
 363 00b0 93FBF9F3 		sdiv	r3, r3, r9
 364 00b4 3380     		strh	r3, [r6]	@ movhi
 365 00b6 0123     		movs	r3, #1
 366 00b8 07E0     		b	.L56
 367              	.L76:
 368 00ba 03F10042 		add	r2, r3, #-2147483648
 369 00be 013A     		subs	r2, r2, #1
 370 00c0 36F81220 		ldrh	r2, [r6, r2, lsl #1]
 371 00c4 26F81320 		strh	r2, [r6, r3, lsl #1]	@ movhi
 372              	.L58:
 373 00c8 0133     		adds	r3, r3, #1
 374              	.L56:
 375 00ca A342     		cmp	r3, r4
 376 00cc 0BDA     		bge	.L55
 377 00ce EA5C     		ldrb	r2, [r5, r3]	@ zero_extendqisi2
 378 00d0 E918     		adds	r1, r5, r3
 379 00d2 11F8011C 		ldrb	r1, [r1, #-1]	@ zero_extendqisi2
 380 00d6 8A42     		cmp	r2, r1
 381 00d8 EFD0     		beq	.L76
 382 00da 9201     		lsls	r2, r2, #6
 383 00dc 92FBF0F2 		sdiv	r2, r2, r0
 384 00e0 26F81320 		strh	r2, [r6, r3, lsl #1]	@ movhi
 385 00e4 F0E7     		b	.L58
 386              	.L55:
 387 00e6 06EB4406 		add	r6, r6, r4, lsl #1
 388 00ea 0BF1010B 		add	fp, fp, #1
 389              	.L53:
 390 00ee A345     		cmp	fp, r4
 391 00f0 13DA     		bge	.L77
 392 00f2 2146     		mov	r1, r4
 393 00f4 2846     		mov	r0, r5
 394 00f6 FFF7FEFF 		bl	lv_memset_ff
 395 00fa 02AB     		add	r3, sp, #8
 396 00fc 0093     		str	r3, [sp]
 397 00fe 23B2     		sxth	r3, r4
 398 0100 0FFA8BF2 		sxth	r2, fp
 399 0104 0021     		movs	r1, #0
 400 0106 2846     		mov	r0, r5
 401 0108 029F     		ldr	r7, [sp, #8]
 402 010a B847     		blx	r7
 403 010c 0028     		cmp	r0, #0
 404 010e CCD1     		bne	.L54
ARM GAS  /var/folders/lp/x54gwt890xv47sdkqj1k04q40000gn/T//ccNe59Kt.s 			page 8


 405 0110 6100     		lsls	r1, r4, #1
 406 0112 3046     		mov	r0, r6
 407 0114 FFF7FEFF 		bl	lv_memset_00
 408 0118 E5E7     		b	.L55
 409              	.L77:
 410 011a 2846     		mov	r0, r5
 411 011c FFF7FEFF 		bl	lv_mem_buf_release
 412 0120 02A8     		add	r0, sp, #8
 413 0122 FFF7FEFF 		bl	lv_draw_mask_free_param
 414 0126 B9F1010F 		cmp	r9, #1
 415 012a 1AD0     		beq	.L78
 416 012c 25B2     		sxth	r5, r4
 417 012e 4246     		mov	r2, r8
 418 0130 4946     		mov	r1, r9
 419 0132 2846     		mov	r0, r5
 420 0134 FFF7FEFF 		bl	shadow_blur_corner
 421 0138 0AEB0901 		add	r1, r10, r9
 422 013c 0129     		cmp	r1, #1
 423 013e 2ADD     		ble	.L65
 424 0140 4FF47F56 		mov	r6, #16320
 425 0144 96FBF1F6 		sdiv	r6, r6, r1
 426 0148 0023     		movs	r3, #0
 427 014a 0FE0     		b	.L66
 428              	.L63:
 429 014c 38F81320 		ldrh	r2, [r8, r3, lsl #1]
 430 0150 9209     		lsrs	r2, r2, #6
 431 0152 08F80320 		strb	r2, [r8, r3]
 432 0156 0133     		adds	r3, r3, #1
 433              	.L61:
 434 0158 04FB04F2 		mul	r2, r4, r4
 435 015c 9A42     		cmp	r2, r3
 436 015e F5DC     		bgt	.L63
 437 0160 24E0     		b	.L51
 438              	.L78:
 439 0162 0023     		movs	r3, #0
 440 0164 F8E7     		b	.L61
 441              	.L80:
 442 0166 28F80060 		strh	r6, [r8, r0]	@ movhi
 443              	.L67:
 444 016a 0133     		adds	r3, r3, #1
 445              	.L66:
 446 016c 04FB04F2 		mul	r2, r4, r4
 447 0170 9A42     		cmp	r2, r3
 448 0172 0CD9     		bls	.L79
 449 0174 5800     		lsls	r0, r3, #1
 450 0176 38F81320 		ldrh	r2, [r8, r3, lsl #1]
 451 017a 002A     		cmp	r2, #0
 452 017c F5D0     		beq	.L67
 453 017e FF2A     		cmp	r2, #255
 454 0180 F1D0     		beq	.L80
 455 0182 9201     		lsls	r2, r2, #6
 456 0184 92FBF1F2 		sdiv	r2, r2, r1
 457 0188 28F80020 		strh	r2, [r8, r0]	@ movhi
 458 018c EDE7     		b	.L67
 459              	.L79:
 460 018e 4246     		mov	r2, r8
 461 0190 2846     		mov	r0, r5
ARM GAS  /var/folders/lp/x54gwt890xv47sdkqj1k04q40000gn/T//ccNe59Kt.s 			page 9


 462 0192 FFF7FEFF 		bl	shadow_blur_corner
 463              	.L65:
 464 0196 0023     		movs	r3, #0
 465 0198 04E0     		b	.L70
 466              	.L71:
 467 019a 38F81320 		ldrh	r2, [r8, r3, lsl #1]
 468 019e 08F80320 		strb	r2, [r8, r3]
 469 01a2 0133     		adds	r3, r3, #1
 470              	.L70:
 471 01a4 04FB04F2 		mul	r2, r4, r4
 472 01a8 9A42     		cmp	r2, r3
 473 01aa F6DC     		bgt	.L71
 474              	.L51:
 475 01ac 0BB0     		add	sp, sp, #44
 476              		@ sp needed
 477 01ae BDE8F08F 		pop	{r4, r5, r6, r7, r8, r9, r10, fp, pc}
 479              		.section	.text.draw_shadow,"ax",%progbits
 480              		.align	1
 481              		.syntax unified
 482              		.thumb
 483              		.thumb_func
 485              	draw_shadow:
 486              		@ args = 0, pretend = 0, frame = 152
 487              		@ frame_needed = 0, uses_anonymous_args = 0
 488 0000 B1F92E30 		ldrsh	r3, [r1, #46]
 489 0004 002B     		cmp	r3, #0
 490 0006 00F0BD86 		beq	.L178
 491 000a 2DE9F04F 		push	{r4, r5, r6, r7, r8, r9, r10, fp, lr}
 492 000e A7B0     		sub	sp, sp, #156
 493 0010 0646     		mov	r6, r0
 494 0012 0D46     		mov	r5, r1
 495 0014 1446     		mov	r4, r2
 496 0016 91F83690 		ldrb	r9, [r1, #54]	@ zero_extendqisi2
 497 001a B9F1020F 		cmp	r9, #2
 498 001e 49D9     		bls	.L81
 499 0020 012B     		cmp	r3, #1
 500 0022 4AD0     		beq	.L181
 501              	.L83:
 502 0024 2288     		ldrh	r2, [r4]
 503 0026 298E     		ldrh	r1, [r5, #48]
 504 0028 0A44     		add	r2, r2, r1
 505 002a 92B2     		uxth	r2, r2
 506 002c B5F834E0 		ldrh	lr, [r5, #52]
 507 0030 A2EB0E02 		sub	r2, r2, lr
 508 0034 1FFA82FC 		uxth	ip, r2
 509 0038 ADF89020 		strh	r2, [sp, #144]	@ movhi
 510 003c A288     		ldrh	r2, [r4, #4]
 511 003e 1144     		add	r1, r1, r2
 512 0040 1EFA81F1 		uxtah	r1, lr, r1
 513 0044 ADF89410 		strh	r1, [sp, #148]	@ movhi
 514 0048 6088     		ldrh	r0, [r4, #2]
 515 004a 6A8E     		ldrh	r2, [r5, #50]
 516 004c 1044     		add	r0, r0, r2
 517 004e 80B2     		uxth	r0, r0
 518 0050 A0EB0E00 		sub	r0, r0, lr
 519 0054 87B2     		uxth	r7, r0
 520 0056 ADF89200 		strh	r0, [sp, #146]	@ movhi
ARM GAS  /var/folders/lp/x54gwt890xv47sdkqj1k04q40000gn/T//ccNe59Kt.s 			page 10


 521 005a E088     		ldrh	r0, [r4, #6]
 522 005c 0244     		add	r2, r2, r0
 523 005e 1EFA82F2 		uxtah	r2, lr, r2
 524 0062 ADF89620 		strh	r2, [sp, #150]	@ movhi
 525 0066 03EBD373 		add	r3, r3, r3, lsr #31
 526 006a C3F34F03 		ubfx	r3, r3, #1, #16
 527 006e ACEB0300 		sub	r0, ip, r3
 528 0072 80B2     		uxth	r0, r0
 529 0074 0138     		subs	r0, r0, #1
 530 0076 ADF88800 		strh	r0, [sp, #136]	@ movhi
 531 007a 13FA81F1 		uxtah	r1, r3, r1
 532 007e 89B2     		uxth	r1, r1
 533 0080 0131     		adds	r1, r1, #1
 534 0082 ADF88C10 		strh	r1, [sp, #140]	@ movhi
 535 0086 F91A     		subs	r1, r7, r3
 536 0088 89B2     		uxth	r1, r1
 537 008a 0139     		subs	r1, r1, #1
 538 008c ADF88A10 		strh	r1, [sp, #138]	@ movhi
 539 0090 13FA82F3 		uxtah	r3, r3, r2
 540 0094 9BB2     		uxth	r3, r3
 541 0096 0133     		adds	r3, r3, #1
 542 0098 ADF88E30 		strh	r3, [sp, #142]	@ movhi
 543 009c B9F1FD0F 		cmp	r9, #253
 544 00a0 01D9     		bls	.L84
 545 00a2 4FF0FF09 		mov	r9, #255
 546              	.L84:
 547 00a6 B268     		ldr	r2, [r6, #8]
 548 00a8 22A9     		add	r1, sp, #136
 549 00aa 20A8     		add	r0, sp, #128
 550 00ac FFF7FEFF 		bl	_lv_area_intersect
 551 00b0 0090     		str	r0, [sp]
 552 00b2 50B9     		cbnz	r0, .L182
 553              	.L81:
 554 00b4 27B0     		add	sp, sp, #156
 555              		@ sp needed
 556 00b6 BDE8F08F 		pop	{r4, r5, r6, r7, r8, r9, r10, fp, pc}
 557              	.L181:
 558 00ba B1F93420 		ldrsh	r2, [r1, #52]
 559 00be 002A     		cmp	r2, #0
 560 00c0 B0DC     		bgt	.L83
 561 00c2 0A6B     		ldr	r2, [r1, #48]
 562 00c4 002A     		cmp	r2, #0
 563 00c6 ADD1     		bne	.L83
 564 00c8 F4E7     		b	.L81
 565              	.L182:
 566 00ca B4F90030 		ldrsh	r3, [r4]
 567 00ce ADF87830 		strh	r3, [sp, #120]	@ movhi
 568 00d2 B4F90230 		ldrsh	r3, [r4, #2]
 569 00d6 ADF87A30 		strh	r3, [sp, #122]	@ movhi
 570 00da B4F90430 		ldrsh	r3, [r4, #4]
 571 00de ADF87C30 		strh	r3, [sp, #124]	@ movhi
 572 00e2 B4F90630 		ldrsh	r3, [r4, #6]
 573 00e6 ADF87E30 		strh	r3, [sp, #126]	@ movhi
 574 00ea 4FF0FF32 		mov	r2, #-1
 575 00ee 1146     		mov	r1, r2
 576 00f0 1EA8     		add	r0, sp, #120
 577 00f2 FFF7FEFF 		bl	lv_area_increase
ARM GAS  /var/folders/lp/x54gwt890xv47sdkqj1k04q40000gn/T//ccNe59Kt.s 			page 11


 578 00f6 B5F90020 		ldrsh	r2, [r5]
 579 00fa 1746     		mov	r7, r2
 580 00fc BDF87C10 		ldrh	r1, [sp, #124]
 581 0100 BDF87830 		ldrh	r3, [sp, #120]
 582 0104 C91A     		subs	r1, r1, r3
 583 0106 89B2     		uxth	r1, r1
 584 0108 0131     		adds	r1, r1, #1
 585 010a 09B2     		sxth	r1, r1
 586 010c BDF87E30 		ldrh	r3, [sp, #126]
 587 0110 BDF87A00 		ldrh	r0, [sp, #122]
 588 0114 1B1A     		subs	r3, r3, r0
 589 0116 9BB2     		uxth	r3, r3
 590 0118 0133     		adds	r3, r3, #1
 591 011a 1BB2     		sxth	r3, r3
 592 011c 9942     		cmp	r1, r3
 593 011e 00DA     		bge	.L85
 594 0120 0B46     		mov	r3, r1
 595              	.L85:
 596 0122 5910     		asrs	r1, r3, #1
 597 0124 B2EB630F 		cmp	r2, r3, asr #1
 598 0128 01DD     		ble	.L160
 599 012a 0291     		str	r1, [sp, #8]
 600 012c 00E0     		b	.L86
 601              	.L160:
 602 012e 0292     		str	r2, [sp, #8]
 603              	.L86:
 604 0130 BDF89410 		ldrh	r1, [sp, #148]
 605 0134 BDF89030 		ldrh	r3, [sp, #144]
 606 0138 C91A     		subs	r1, r1, r3
 607 013a 89B2     		uxth	r1, r1
 608 013c 0131     		adds	r1, r1, #1
 609 013e 09B2     		sxth	r1, r1
 610 0140 BDF89630 		ldrh	r3, [sp, #150]
 611 0144 BDF89200 		ldrh	r0, [sp, #146]
 612 0148 1B1A     		subs	r3, r3, r0
 613 014a 9BB2     		uxth	r3, r3
 614 014c 0133     		adds	r3, r3, #1
 615 014e 1BB2     		sxth	r3, r3
 616 0150 8B42     		cmp	r3, r1
 617 0152 00DD     		ble	.L87
 618 0154 0B46     		mov	r3, r1
 619              	.L87:
 620 0156 5910     		asrs	r1, r3, #1
 621 0158 B2EB630F 		cmp	r2, r3, asr #1
 622 015c 00DD     		ble	.L88
 623 015e 0F46     		mov	r7, r1
 624              	.L88:
 625 0160 B5F92E40 		ldrsh	r4, [r5, #46]
 626 0164 3C44     		add	r4, r4, r7
 627 0166 04FB04F0 		mul	r0, r4, r4
 628 016a 4000     		lsls	r0, r0, #1
 629 016c FFF7FEFF 		bl	lv_mem_buf_get
 630 0170 0146     		mov	r1, r0
 631 0172 0390     		str	r0, [sp, #12]
 632 0174 3B46     		mov	r3, r7
 633 0176 B5F92E20 		ldrsh	r2, [r5, #46]
 634 017a 24A8     		add	r0, sp, #144
ARM GAS  /var/folders/lp/x54gwt890xv47sdkqj1k04q40000gn/T//ccNe59Kt.s 			page 12


 635 017c FFF7FEFF 		bl	shadow_draw_corner_buf
 636 0180 22A8     		add	r0, sp, #136
 637 0182 FFF7FEFF 		bl	lv_draw_mask_is_any
 638 0186 20B9     		cbnz	r0, .L89
 639 0188 6B88     		ldrh	r3, [r5, #2]
 640 018a B3F57F4F 		cmp	r3, #65280
 641 018e 00F02281 		beq	.L161
 642              	.L89:
 643 0192 0123     		movs	r3, #1
 644 0194 029A     		ldr	r2, [sp, #8]
 645 0196 1EA9     		add	r1, sp, #120
 646 0198 18A8     		add	r0, sp, #96
 647 019a FFF7FEFF 		bl	lv_draw_mask_radius_init
 648 019e 0021     		movs	r1, #0
 649 01a0 18A8     		add	r0, sp, #96
 650 01a2 FFF7FEFF 		bl	lv_draw_mask_add
 651 01a6 0790     		str	r0, [sp, #28]
 652 01a8 0023     		movs	r3, #0
 653 01aa 0093     		str	r3, [sp]
 654              	.L90:
 655 01ac BDF88C00 		ldrh	r0, [sp, #140]
 656 01b0 BDF88830 		ldrh	r3, [sp, #136]
 657 01b4 C01A     		subs	r0, r0, r3
 658 01b6 80B2     		uxth	r0, r0
 659 01b8 0130     		adds	r0, r0, #1
 660 01ba 00B2     		sxth	r0, r0
 661 01bc FFF7FEFF 		bl	lv_mem_buf_get
 662 01c0 0746     		mov	r7, r0
 663 01c2 0490     		str	r0, [sp, #16]
 664 01c4 1C21     		movs	r1, #28
 665 01c6 0DA8     		add	r0, sp, #52
 666 01c8 FFF7FEFF 		bl	lv_memset_00
 667 01cc 16A9     		add	r1, sp, #88
 668 01ce 0D91     		str	r1, [sp, #52]
 669 01d0 1291     		str	r1, [sp, #72]
 670 01d2 1097     		str	r7, [sp, #64]
 671 01d4 AB8D     		ldrh	r3, [r5, #44]
 672 01d6 ADF83C30 		strh	r3, [sp, #60]	@ movhi
 673 01da 95F83630 		ldrb	r3, [r5, #54]	@ zero_extendqisi2
 674 01de 8DF84C30 		strb	r3, [sp, #76]
 675 01e2 AB78     		ldrb	r3, [r5, #2]	@ zero_extendqisi2
 676 01e4 8DF84D30 		strb	r3, [sp, #77]
 677 01e8 BDF88800 		ldrh	r0, [sp, #136]
 678 01ec BDF98C70 		ldrsh	r7, [sp, #140]
 679 01f0 1FFA87FA 		uxth	r10, r7
 680 01f4 AAEB0003 		sub	r3, r10, r0
 681 01f8 9BB2     		uxth	r3, r3
 682 01fa 0133     		adds	r3, r3, #1
 683 01fc C3F3C03C 		ubfx	ip, r3, #15, #1
 684 0200 0CFA83F3 		sxtah	r3, ip, r3
 685 0204 00EB6300 		add	r0, r0, r3, asr #1
 686 0208 03B2     		sxth	r3, r0
 687 020a 0193     		str	r3, [sp, #4]
 688 020c BDF98AC0 		ldrsh	ip, [sp, #138]
 689 0210 1FFA8CF3 		uxth	r3, ip
 690 0214 BDF88E00 		ldrh	r0, [sp, #142]
 691 0218 C01A     		subs	r0, r0, r3
ARM GAS  /var/folders/lp/x54gwt890xv47sdkqj1k04q40000gn/T//ccNe59Kt.s 			page 13


 692 021a 80B2     		uxth	r0, r0
 693 021c 0130     		adds	r0, r0, #1
 694 021e C0F3C03E 		ubfx	lr, r0, #15, #1
 695 0222 0EFA80F0 		sxtah	r0, lr, r0
 696 0226 03EB6000 		add	r0, r3, r0, asr #1
 697 022a 82B2     		uxth	r2, r0
 698 022c 0692     		str	r2, [sp, #24]
 699 022e 0FFA80F8 		sxth	r8, r0
 700 0232 ADF85C70 		strh	r7, [sp, #92]	@ movhi
 701 0236 A7B2     		uxth	r7, r4
 702 0238 AAEB0702 		sub	r2, r10, r7
 703 023c 92B2     		uxth	r2, r2
 704 023e 0132     		adds	r2, r2, #1
 705 0240 12B2     		sxth	r2, r2
 706 0242 ADF85820 		strh	r2, [sp, #88]	@ movhi
 707 0246 ADF85AC0 		strh	ip, [sp, #90]	@ movhi
 708 024a 3B44     		add	r3, r3, r7
 709 024c 9BB2     		uxth	r3, r3
 710 024e 013B     		subs	r3, r3, #1
 711 0250 1BB2     		sxth	r3, r3
 712 0252 ADF85E30 		strh	r3, [sp, #94]	@ movhi
 713 0256 0198     		ldr	r0, [sp, #4]
 714 0258 8242     		cmp	r2, r0
 715 025a B8BF     		it	lt
 716 025c 0246     		movlt	r2, r0
 717 025e ADF85820 		strh	r2, [sp, #88]	@ movhi
 718 0262 4345     		cmp	r3, r8
 719 0264 A8BF     		it	ge
 720 0266 4346     		movge	r3, r8
 721 0268 ADF85E30 		strh	r3, [sp, #94]	@ movhi
 722 026c B268     		ldr	r2, [r6, #8]
 723 026e 14A8     		add	r0, sp, #80
 724 0270 FFF7FEFF 		bl	_lv_area_intersect
 725 0274 0028     		cmp	r0, #0
 726 0276 40F0B280 		bne	.L183
 727              	.L91:
 728 027a BDF98C30 		ldrsh	r3, [sp, #140]
 729 027e ADF85C30 		strh	r3, [sp, #92]	@ movhi
 730 0282 9BB2     		uxth	r3, r3
 731 0284 DB1B     		subs	r3, r3, r7
 732 0286 9BB2     		uxth	r3, r3
 733 0288 0133     		adds	r3, r3, #1
 734 028a 1BB2     		sxth	r3, r3
 735 028c ADF85830 		strh	r3, [sp, #88]	@ movhi
 736 0290 BDF98E10 		ldrsh	r1, [sp, #142]
 737 0294 8AB2     		uxth	r2, r1
 738 0296 D21B     		subs	r2, r2, r7
 739 0298 92B2     		uxth	r2, r2
 740 029a 0132     		adds	r2, r2, #1
 741 029c 12B2     		sxth	r2, r2
 742 029e ADF85A20 		strh	r2, [sp, #90]	@ movhi
 743 02a2 ADF85E10 		strh	r1, [sp, #94]	@ movhi
 744 02a6 0199     		ldr	r1, [sp, #4]
 745 02a8 8B42     		cmp	r3, r1
 746 02aa B8BF     		it	lt
 747 02ac 0B46     		movlt	r3, r1
 748 02ae ADF85830 		strh	r3, [sp, #88]	@ movhi
ARM GAS  /var/folders/lp/x54gwt890xv47sdkqj1k04q40000gn/T//ccNe59Kt.s 			page 14


 749 02b2 08F10103 		add	r3, r8, #1
 750 02b6 0593     		str	r3, [sp, #20]
 751 02b8 9A42     		cmp	r2, r3
 752 02ba B8BF     		it	lt
 753 02bc 1A46     		movlt	r2, r3
 754 02be ADF85A20 		strh	r2, [sp, #90]	@ movhi
 755 02c2 B268     		ldr	r2, [r6, #8]
 756 02c4 16A9     		add	r1, sp, #88
 757 02c6 14A8     		add	r0, sp, #80
 758 02c8 FFF7FEFF 		bl	_lv_area_intersect
 759 02cc 0028     		cmp	r0, #0
 760 02ce 40F00381 		bne	.L184
 761              	.L97:
 762 02d2 BDF88830 		ldrh	r3, [sp, #136]
 763 02d6 3B44     		add	r3, r3, r7
 764 02d8 ADF85830 		strh	r3, [sp, #88]	@ movhi
 765 02dc BDF88C30 		ldrh	r3, [sp, #140]
 766 02e0 DB1B     		subs	r3, r3, r7
 767 02e2 ADF85C30 		strh	r3, [sp, #92]	@ movhi
 768 02e6 BDF98A30 		ldrsh	r3, [sp, #138]
 769 02ea ADF85A30 		strh	r3, [sp, #90]	@ movhi
 770 02ee 17FA83F3 		uxtah	r3, r7, r3
 771 02f2 9BB2     		uxth	r3, r3
 772 02f4 013B     		subs	r3, r3, #1
 773 02f6 1BB2     		sxth	r3, r3
 774 02f8 ADF85E30 		strh	r3, [sp, #94]	@ movhi
 775 02fc 4345     		cmp	r3, r8
 776 02fe A8BF     		it	ge
 777 0300 4346     		movge	r3, r8
 778 0302 ADF85E30 		strh	r3, [sp, #94]	@ movhi
 779 0306 B268     		ldr	r2, [r6, #8]
 780 0308 16A9     		add	r1, sp, #88
 781 030a 14A8     		add	r0, sp, #80
 782 030c FFF7FEFF 		bl	_lv_area_intersect
 783 0310 0028     		cmp	r0, #0
 784 0312 40F05E81 		bne	.L185
 785              	.L103:
 786 0316 95F83630 		ldrb	r3, [r5, #54]	@ zero_extendqisi2
 787 031a 8DF84C30 		strb	r3, [sp, #76]
 788 031e BDF88830 		ldrh	r3, [sp, #136]
 789 0322 3B44     		add	r3, r3, r7
 790 0324 ADF85830 		strh	r3, [sp, #88]	@ movhi
 791 0328 BDF88C30 		ldrh	r3, [sp, #140]
 792 032c DB1B     		subs	r3, r3, r7
 793 032e ADF85C30 		strh	r3, [sp, #92]	@ movhi
 794 0332 BDF98E20 		ldrsh	r2, [sp, #142]
 795 0336 93B2     		uxth	r3, r2
 796 0338 DB1B     		subs	r3, r3, r7
 797 033a 9BB2     		uxth	r3, r3
 798 033c 0133     		adds	r3, r3, #1
 799 033e 1BB2     		sxth	r3, r3
 800 0340 ADF85A30 		strh	r3, [sp, #90]	@ movhi
 801 0344 ADF85E20 		strh	r2, [sp, #94]	@ movhi
 802 0348 059A     		ldr	r2, [sp, #20]
 803 034a 9342     		cmp	r3, r2
 804 034c B8BF     		it	lt
 805 034e 1346     		movlt	r3, r2
ARM GAS  /var/folders/lp/x54gwt890xv47sdkqj1k04q40000gn/T//ccNe59Kt.s 			page 15


 806 0350 ADF85A30 		strh	r3, [sp, #90]	@ movhi
 807 0354 B268     		ldr	r2, [r6, #8]
 808 0356 16A9     		add	r1, sp, #88
 809 0358 14A8     		add	r0, sp, #80
 810 035a FFF7FEFF 		bl	_lv_area_intersect
 811 035e 0028     		cmp	r0, #0
 812 0360 40F0BC81 		bne	.L186
 813              	.L114:
 814 0364 95F83630 		ldrb	r3, [r5, #54]	@ zero_extendqisi2
 815 0368 8DF84C30 		strb	r3, [sp, #76]
 816 036c BDF98C30 		ldrsh	r3, [sp, #140]
 817 0370 9AB2     		uxth	r2, r3
 818 0372 D21B     		subs	r2, r2, r7
 819 0374 92B2     		uxth	r2, r2
 820 0376 0132     		adds	r2, r2, #1
 821 0378 12B2     		sxth	r2, r2
 822 037a ADF85820 		strh	r2, [sp, #88]	@ movhi
 823 037e ADF85C30 		strh	r3, [sp, #92]	@ movhi
 824 0382 BDF88A30 		ldrh	r3, [sp, #138]
 825 0386 3B44     		add	r3, r3, r7
 826 0388 1BB2     		sxth	r3, r3
 827 038a ADF85A30 		strh	r3, [sp, #90]	@ movhi
 828 038e BDF88E10 		ldrh	r1, [sp, #142]
 829 0392 C91B     		subs	r1, r1, r7
 830 0394 09B2     		sxth	r1, r1
 831 0396 ADF85E10 		strh	r1, [sp, #94]	@ movhi
 832 039a 4345     		cmp	r3, r8
 833 039c 02DD     		ble	.L126
 834 039e 069B     		ldr	r3, [sp, #24]
 835 03a0 0133     		adds	r3, r3, #1
 836 03a2 1BB2     		sxth	r3, r3
 837              	.L126:
 838 03a4 ADF85A30 		strh	r3, [sp, #90]	@ movhi
 839 03a8 4145     		cmp	r1, r8
 840 03aa B8BF     		it	lt
 841 03ac 4146     		movlt	r1, r8
 842 03ae ADF85E10 		strh	r1, [sp, #94]	@ movhi
 843 03b2 019B     		ldr	r3, [sp, #4]
 844 03b4 9A42     		cmp	r2, r3
 845 03b6 B8BF     		it	lt
 846 03b8 1A46     		movlt	r2, r3
 847 03ba ADF85820 		strh	r2, [sp, #88]	@ movhi
 848 03be B268     		ldr	r2, [r6, #8]
 849 03c0 16A9     		add	r1, sp, #88
 850 03c2 14A8     		add	r0, sp, #80
 851 03c4 FFF7FEFF 		bl	_lv_area_intersect
 852 03c8 0028     		cmp	r0, #0
 853 03ca 40F00D82 		bne	.L187
 854              	.L127:
 855 03ce DDF80CC0 		ldr	ip, [sp, #12]
 856 03d2 0025     		movs	r5, #0
 857 03d4 88E2     		b	.L134
 858              	.L161:
 859 03d6 4FF0FF33 		mov	r3, #-1
 860 03da 0793     		str	r3, [sp, #28]
 861 03dc E6E6     		b	.L90
 862              	.L183:
ARM GAS  /var/folders/lp/x54gwt890xv47sdkqj1k04q40000gn/T//ccNe59Kt.s 			page 16


 863 03de BDF908A0 		ldrsh	r10, [sp, #8]
 864 03e2 5246     		mov	r2, r10
 865 03e4 1EA9     		add	r1, sp, #120
 866 03e6 14A8     		add	r0, sp, #80
 867 03e8 FFF7FEFF 		bl	_lv_area_is_in
 868 03ec 0028     		cmp	r0, #0
 869 03ee 7FF444AF 		bne	.L91
 870 03f2 BDF85430 		ldrh	r3, [sp, #84]
 871 03f6 BDF95020 		ldrsh	r2, [sp, #80]
 872 03fa 91B2     		uxth	r1, r2
 873 03fc 5B1A     		subs	r3, r3, r1
 874 03fe 9BB2     		uxth	r3, r3
 875 0400 0133     		adds	r3, r3, #1
 876 0402 1BB2     		sxth	r3, r3
 877 0404 0593     		str	r3, [sp, #20]
 878 0406 BDF95210 		ldrsh	r1, [sp, #82]
 879 040a BDF98A30 		ldrsh	r3, [sp, #138]
 880 040e C91A     		subs	r1, r1, r3
 881 0410 BDF98C30 		ldrsh	r3, [sp, #140]
 882 0414 1B1B     		subs	r3, r3, r4
 883 0416 0133     		adds	r3, r3, #1
 884 0418 A2EB030B 		sub	fp, r2, r3
 885 041c 04FB01BB 		mla	fp, r4, r1, fp
 886 0420 039B     		ldr	r3, [sp, #12]
 887 0422 9B44     		add	fp, fp, r3
 888 0424 009B     		ldr	r3, [sp]
 889 0426 EBB9     		cbnz	r3, .L188
 890 0428 009B     		ldr	r3, [sp]
 891 042a 1946     		mov	r1, r3
 892              	.L92:
 893 042c 059B     		ldr	r3, [sp, #20]
 894 042e 002B     		cmp	r3, #0
 895 0430 7FF723AF 		ble	.L91
 896 0434 049A     		ldr	r2, [sp, #16]
 897 0436 1092     		str	r2, [sp, #64]
 898 0438 BDF95030 		ldrsh	r3, [sp, #80]
 899 043c ADF85830 		strh	r3, [sp, #88]	@ movhi
 900 0440 BDF95430 		ldrsh	r3, [sp, #84]
 901 0444 ADF85C30 		strh	r3, [sp, #92]	@ movhi
 902 0448 0223     		movs	r3, #2
 903 044a 8DF84430 		strb	r3, [sp, #68]
 904 044e BDF952A0 		ldrsh	r10, [sp, #82]
 905 0452 CDF82090 		str	r9, [sp, #32]
 906 0456 0997     		str	r7, [sp, #36]
 907 0458 A146     		mov	r9, r4
 908 045a 5C46     		mov	r4, fp
 909 045c 1746     		mov	r7, r2
 910 045e AB46     		mov	fp, r5
 911 0460 0D46     		mov	r5, r1
 912 0462 23E0     		b	.L93
 913              	.L188:
 914 0464 5246     		mov	r2, r10
 915 0466 1EA9     		add	r1, sp, #120
 916 0468 14A8     		add	r0, sp, #80
 917 046a FFF7FEFF 		bl	_lv_area_is_out
 918 046e 0146     		mov	r1, r0
 919 0470 0028     		cmp	r0, #0
ARM GAS  /var/folders/lp/x54gwt890xv47sdkqj1k04q40000gn/T//ccNe59Kt.s 			page 17


 920 0472 DBD1     		bne	.L92
 921 0474 009B     		ldr	r3, [sp]
 922 0476 1946     		mov	r1, r3
 923 0478 D8E7     		b	.L92
 924              	.L191:
 925 047a 4A46     		mov	r2, r9
 926 047c 2146     		mov	r1, r4
 927 047e 3846     		mov	r0, r7
 928 0480 FFF7FEFF 		bl	lv_memcpy
 929 0484 059B     		ldr	r3, [sp, #20]
 930 0486 5246     		mov	r2, r10
 931 0488 BDF95010 		ldrsh	r1, [sp, #80]
 932 048c 3846     		mov	r0, r7
 933 048e FFF7FEFF 		bl	lv_draw_mask_apply
 934 0492 8DF84400 		strb	r0, [sp, #68]
 935 0496 0128     		cmp	r0, #1
 936 0498 14D0     		beq	.L189
 937              	.L95:
 938 049a 0DA9     		add	r1, sp, #52
 939 049c 3046     		mov	r0, r6
 940 049e FFF7FEFF 		bl	lv_draw_sw_blend
 941 04a2 4C44     		add	r4, r4, r9
 942 04a4 0AF1010A 		add	r10, r10, #1
 943 04a8 0FFA8AFA 		sxth	r10, r10
 944              	.L93:
 945 04ac BDF95630 		ldrsh	r3, [sp, #86]
 946 04b0 5345     		cmp	r3, r10
 947 04b2 0BDB     		blt	.L190
 948 04b4 ADF85AA0 		strh	r10, [sp, #90]	@ movhi
 949 04b8 ADF85EA0 		strh	r10, [sp, #94]	@ movhi
 950 04bc 002D     		cmp	r5, #0
 951 04be DCD0     		beq	.L191
 952 04c0 1094     		str	r4, [sp, #64]
 953 04c2 EAE7     		b	.L95
 954              	.L189:
 955 04c4 0223     		movs	r3, #2
 956 04c6 8DF84430 		strb	r3, [sp, #68]
 957 04ca E6E7     		b	.L95
 958              	.L190:
 959 04cc 099F     		ldr	r7, [sp, #36]
 960 04ce 4C46     		mov	r4, r9
 961 04d0 DDF82090 		ldr	r9, [sp, #32]
 962 04d4 5D46     		mov	r5, fp
 963 04d6 D0E6     		b	.L91
 964              	.L184:
 965 04d8 BDF908A0 		ldrsh	r10, [sp, #8]
 966 04dc 5246     		mov	r2, r10
 967 04de 1EA9     		add	r1, sp, #120
 968 04e0 14A8     		add	r0, sp, #80
 969 04e2 FFF7FEFF 		bl	_lv_area_is_in
 970 04e6 0028     		cmp	r0, #0
 971 04e8 7FF4F3AE 		bne	.L97
 972 04ec BDF85430 		ldrh	r3, [sp, #84]
 973 04f0 BDF95020 		ldrsh	r2, [sp, #80]
 974 04f4 91B2     		uxth	r1, r2
 975 04f6 5B1A     		subs	r3, r3, r1
 976 04f8 9BB2     		uxth	r3, r3
ARM GAS  /var/folders/lp/x54gwt890xv47sdkqj1k04q40000gn/T//ccNe59Kt.s 			page 18


 977 04fa 0133     		adds	r3, r3, #1
 978 04fc 1BB2     		sxth	r3, r3
 979 04fe 0893     		str	r3, [sp, #32]
 980 0500 BDF95E10 		ldrsh	r1, [sp, #94]
 981 0504 BDF95630 		ldrsh	r3, [sp, #86]
 982 0508 C91A     		subs	r1, r1, r3
 983 050a BDF98C30 		ldrsh	r3, [sp, #140]
 984 050e 1B1B     		subs	r3, r3, r4
 985 0510 0133     		adds	r3, r3, #1
 986 0512 A2EB030B 		sub	fp, r2, r3
 987 0516 04FB01BB 		mla	fp, r4, r1, fp
 988 051a 039B     		ldr	r3, [sp, #12]
 989 051c 9B44     		add	fp, fp, r3
 990 051e 009B     		ldr	r3, [sp]
 991 0520 EBB9     		cbnz	r3, .L192
 992 0522 009B     		ldr	r3, [sp]
 993 0524 1946     		mov	r1, r3
 994              	.L98:
 995 0526 089B     		ldr	r3, [sp, #32]
 996 0528 002B     		cmp	r3, #0
 997 052a 7FF7D2AE 		ble	.L97
 998 052e 049A     		ldr	r2, [sp, #16]
 999 0530 1092     		str	r2, [sp, #64]
 1000 0532 BDF95030 		ldrsh	r3, [sp, #80]
 1001 0536 ADF85830 		strh	r3, [sp, #88]	@ movhi
 1002 053a BDF95430 		ldrsh	r3, [sp, #84]
 1003 053e ADF85C30 		strh	r3, [sp, #92]	@ movhi
 1004 0542 0223     		movs	r3, #2
 1005 0544 8DF84430 		strb	r3, [sp, #68]
 1006 0548 BDF956A0 		ldrsh	r10, [sp, #86]
 1007 054c CDF82490 		str	r9, [sp, #36]
 1008 0550 0A97     		str	r7, [sp, #40]
 1009 0552 A146     		mov	r9, r4
 1010 0554 5C46     		mov	r4, fp
 1011 0556 1746     		mov	r7, r2
 1012 0558 AB46     		mov	fp, r5
 1013 055a 0D46     		mov	r5, r1
 1014 055c 23E0     		b	.L99
 1015              	.L192:
 1016 055e 5246     		mov	r2, r10
 1017 0560 1EA9     		add	r1, sp, #120
 1018 0562 14A8     		add	r0, sp, #80
 1019 0564 FFF7FEFF 		bl	_lv_area_is_out
 1020 0568 0146     		mov	r1, r0
 1021 056a 0028     		cmp	r0, #0
 1022 056c DBD1     		bne	.L98
 1023 056e 009B     		ldr	r3, [sp]
 1024 0570 1946     		mov	r1, r3
 1025 0572 D8E7     		b	.L98
 1026              	.L195:
 1027 0574 4A46     		mov	r2, r9
 1028 0576 2146     		mov	r1, r4
 1029 0578 3846     		mov	r0, r7
 1030 057a FFF7FEFF 		bl	lv_memcpy
 1031 057e 089B     		ldr	r3, [sp, #32]
 1032 0580 5246     		mov	r2, r10
 1033 0582 BDF95010 		ldrsh	r1, [sp, #80]
ARM GAS  /var/folders/lp/x54gwt890xv47sdkqj1k04q40000gn/T//ccNe59Kt.s 			page 19


 1034 0586 3846     		mov	r0, r7
 1035 0588 FFF7FEFF 		bl	lv_draw_mask_apply
 1036 058c 8DF84400 		strb	r0, [sp, #68]
 1037 0590 0128     		cmp	r0, #1
 1038 0592 14D0     		beq	.L193
 1039              	.L101:
 1040 0594 0DA9     		add	r1, sp, #52
 1041 0596 3046     		mov	r0, r6
 1042 0598 FFF7FEFF 		bl	lv_draw_sw_blend
 1043 059c 4C44     		add	r4, r4, r9
 1044 059e 0AF1FF3A 		add	r10, r10, #-1
 1045 05a2 0FFA8AFA 		sxth	r10, r10
 1046              	.L99:
 1047 05a6 BDF95230 		ldrsh	r3, [sp, #82]
 1048 05aa 5345     		cmp	r3, r10
 1049 05ac 0BDC     		bgt	.L194
 1050 05ae ADF85AA0 		strh	r10, [sp, #90]	@ movhi
 1051 05b2 ADF85EA0 		strh	r10, [sp, #94]	@ movhi
 1052 05b6 002D     		cmp	r5, #0
 1053 05b8 DCD0     		beq	.L195
 1054 05ba 1094     		str	r4, [sp, #64]
 1055 05bc EAE7     		b	.L101
 1056              	.L193:
 1057 05be 0223     		movs	r3, #2
 1058 05c0 8DF84430 		strb	r3, [sp, #68]
 1059 05c4 E6E7     		b	.L101
 1060              	.L194:
 1061 05c6 0A9F     		ldr	r7, [sp, #40]
 1062 05c8 4C46     		mov	r4, r9
 1063 05ca DDF82490 		ldr	r9, [sp, #36]
 1064 05ce 5D46     		mov	r5, fp
 1065 05d0 7FE6     		b	.L97
 1066              	.L185:
 1067 05d2 BDF908A0 		ldrsh	r10, [sp, #8]
 1068 05d6 5246     		mov	r2, r10
 1069 05d8 1EA9     		add	r1, sp, #120
 1070 05da 14A8     		add	r0, sp, #80
 1071 05dc FFF7FEFF 		bl	_lv_area_is_in
 1072 05e0 0028     		cmp	r0, #0
 1073 05e2 7FF498AE 		bne	.L103
 1074 05e6 BDF85430 		ldrh	r3, [sp, #84]
 1075 05ea BDF85020 		ldrh	r2, [sp, #80]
 1076 05ee 9B1A     		subs	r3, r3, r2
 1077 05f0 9BB2     		uxth	r3, r3
 1078 05f2 0133     		adds	r3, r3, #1
 1079 05f4 1BB2     		sxth	r3, r3
 1080 05f6 0893     		str	r3, [sp, #32]
 1081 05f8 BDF95230 		ldrsh	r3, [sp, #82]
 1082 05fc BDF95A20 		ldrsh	r2, [sp, #90]
 1083 0600 9B1A     		subs	r3, r3, r2
 1084 0602 039A     		ldr	r2, [sp, #12]
 1085 0604 04FB032B 		mla	fp, r4, r3, r2
 1086 0608 009B     		ldr	r3, [sp]
 1087 060a CBB9     		cbnz	r3, .L196
 1088 060c 009B     		ldr	r3, [sp]
 1089 060e 1A46     		mov	r2, r3
 1090              	.L104:
ARM GAS  /var/folders/lp/x54gwt890xv47sdkqj1k04q40000gn/T//ccNe59Kt.s 			page 20


 1091 0610 089B     		ldr	r3, [sp, #32]
 1092 0612 002B     		cmp	r3, #0
 1093 0614 7FF77FAE 		ble	.L103
 1094 0618 EAB9     		cbnz	r2, .L105
 1095 061a 049B     		ldr	r3, [sp, #16]
 1096 061c 1093     		str	r3, [sp, #64]
 1097              	.L106:
 1098 061e BDF95030 		ldrsh	r3, [sp, #80]
 1099 0622 ADF85830 		strh	r3, [sp, #88]	@ movhi
 1100 0626 BDF95430 		ldrsh	r3, [sp, #84]
 1101 062a ADF85C30 		strh	r3, [sp, #92]	@ movhi
 1102 062e BDF952A0 		ldrsh	r10, [sp, #82]
 1103 0632 0997     		str	r7, [sp, #36]
 1104 0634 1746     		mov	r7, r2
 1105 0636 CDF82880 		str	r8, [sp, #40]
 1106 063a DDF81080 		ldr	r8, [sp, #16]
 1107 063e 34E0     		b	.L107
 1108              	.L196:
 1109 0640 5246     		mov	r2, r10
 1110 0642 1EA9     		add	r1, sp, #120
 1111 0644 14A8     		add	r0, sp, #80
 1112 0646 FFF7FEFF 		bl	_lv_area_is_out
 1113 064a 0246     		mov	r2, r0
 1114 064c 0028     		cmp	r0, #0
 1115 064e DFD1     		bne	.L104
 1116 0650 009B     		ldr	r3, [sp]
 1117 0652 1A46     		mov	r2, r3
 1118 0654 DCE7     		b	.L104
 1119              	.L105:
 1120 0656 0023     		movs	r3, #0
 1121 0658 1093     		str	r3, [sp, #64]
 1122 065a E0E7     		b	.L106
 1123              	.L199:
 1124 065c 089A     		ldr	r2, [sp, #32]
 1125 065e 9BF80010 		ldrb	r1, [fp]	@ zero_extendqisi2
 1126 0662 4046     		mov	r0, r8
 1127 0664 FFF7FEFF 		bl	lv_memset
 1128 0668 089B     		ldr	r3, [sp, #32]
 1129 066a 5246     		mov	r2, r10
 1130 066c BDF95010 		ldrsh	r1, [sp, #80]
 1131 0670 4046     		mov	r0, r8
 1132 0672 FFF7FEFF 		bl	lv_draw_mask_apply
 1133 0676 8DF84400 		strb	r0, [sp, #68]
 1134 067a 0128     		cmp	r0, #1
 1135 067c 04D0     		beq	.L197
 1136              	.L109:
 1137 067e 0DA9     		add	r1, sp, #52
 1138 0680 3046     		mov	r0, r6
 1139 0682 FFF7FEFF 		bl	lv_draw_sw_blend
 1140 0686 0BE0     		b	.L110
 1141              	.L197:
 1142 0688 0223     		movs	r3, #2
 1143 068a 8DF84430 		strb	r3, [sp, #68]
 1144 068e F6E7     		b	.L109
 1145              	.L200:
 1146 0690 9BF80030 		ldrb	r3, [fp]	@ zero_extendqisi2
 1147              	.L112:
ARM GAS  /var/folders/lp/x54gwt890xv47sdkqj1k04q40000gn/T//ccNe59Kt.s 			page 21


 1148 0694 8DF84C30 		strb	r3, [sp, #76]
 1149 0698 0DA9     		add	r1, sp, #52
 1150 069a 3046     		mov	r0, r6
 1151 069c FFF7FEFF 		bl	lv_draw_sw_blend
 1152              	.L110:
 1153 06a0 A344     		add	fp, fp, r4
 1154 06a2 0AF1010A 		add	r10, r10, #1
 1155 06a6 0FFA8AFA 		sxth	r10, r10
 1156              	.L107:
 1157 06aa BDF95630 		ldrsh	r3, [sp, #86]
 1158 06ae 5345     		cmp	r3, r10
 1159 06b0 10DB     		blt	.L198
 1160 06b2 ADF85AA0 		strh	r10, [sp, #90]	@ movhi
 1161 06b6 ADF85EA0 		strh	r10, [sp, #94]	@ movhi
 1162 06ba 002F     		cmp	r7, #0
 1163 06bc CED0     		beq	.L199
 1164 06be B9F1FF0F 		cmp	r9, #255
 1165 06c2 E5D0     		beq	.L200
 1166 06c4 9BF80030 		ldrb	r3, [fp]	@ zero_extendqisi2
 1167 06c8 95F83620 		ldrb	r2, [r5, #54]	@ zero_extendqisi2
 1168 06cc 02FB03F3 		mul	r3, r2, r3
 1169 06d0 1B0A     		lsrs	r3, r3, #8
 1170 06d2 DFE7     		b	.L112
 1171              	.L198:
 1172 06d4 099F     		ldr	r7, [sp, #36]
 1173 06d6 DDF82880 		ldr	r8, [sp, #40]
 1174 06da 1CE6     		b	.L103
 1175              	.L186:
 1176 06dc BDF90830 		ldrsh	r3, [sp, #8]
 1177 06e0 0893     		str	r3, [sp, #32]
 1178 06e2 1A46     		mov	r2, r3
 1179 06e4 1EA9     		add	r1, sp, #120
 1180 06e6 14A8     		add	r0, sp, #80
 1181 06e8 FFF7FEFF 		bl	_lv_area_is_in
 1182 06ec 0028     		cmp	r0, #0
 1183 06ee 7FF439AE 		bne	.L114
 1184 06f2 BDF85430 		ldrh	r3, [sp, #84]
 1185 06f6 BDF85020 		ldrh	r2, [sp, #80]
 1186 06fa 9B1A     		subs	r3, r3, r2
 1187 06fc 9BB2     		uxth	r3, r3
 1188 06fe 0133     		adds	r3, r3, #1
 1189 0700 1AB2     		sxth	r2, r3
 1190 0702 0992     		str	r2, [sp, #36]
 1191 0704 BDF95EB0 		ldrsh	fp, [sp, #94]
 1192 0708 BDF95630 		ldrsh	r3, [sp, #86]
 1193 070c ABEB030B 		sub	fp, fp, r3
 1194 0710 039B     		ldr	r3, [sp, #12]
 1195 0712 04FB0B3B 		mla	fp, r4, fp, r3
 1196 0716 002A     		cmp	r2, #0
 1197 0718 7FF724AE 		ble	.L114
 1198 071c 009B     		ldr	r3, [sp]
 1199 071e A3B9     		cbnz	r3, .L115
 1200 0720 049B     		ldr	r3, [sp, #16]
 1201 0722 1093     		str	r3, [sp, #64]
 1202              	.L116:
 1203 0724 BDF95030 		ldrsh	r3, [sp, #80]
 1204 0728 ADF85830 		strh	r3, [sp, #88]	@ movhi
ARM GAS  /var/folders/lp/x54gwt890xv47sdkqj1k04q40000gn/T//ccNe59Kt.s 			page 22


 1205 072c BDF95430 		ldrsh	r3, [sp, #84]
 1206 0730 ADF85C30 		strh	r3, [sp, #92]	@ movhi
 1207 0734 BDF956A0 		ldrsh	r10, [sp, #86]
 1208 0738 0A97     		str	r7, [sp, #40]
 1209 073a 009F     		ldr	r7, [sp]
 1210 073c CDF82C80 		str	r8, [sp, #44]
 1211 0740 DDF82480 		ldr	r8, [sp, #36]
 1212 0744 0995     		str	r5, [sp, #36]
 1213 0746 049D     		ldr	r5, [sp, #16]
 1214 0748 27E0     		b	.L117
 1215              	.L115:
 1216 074a 089A     		ldr	r2, [sp, #32]
 1217 074c 1EA9     		add	r1, sp, #120
 1218 074e 14A8     		add	r0, sp, #80
 1219 0750 FFF7FEFF 		bl	_lv_area_is_out
 1220 0754 0023     		movs	r3, #0
 1221 0756 1093     		str	r3, [sp, #64]
 1222 0758 E4E7     		b	.L116
 1223              	.L118:
 1224 075a 089A     		ldr	r2, [sp, #32]
 1225 075c 1EA9     		add	r1, sp, #120
 1226 075e 14A8     		add	r0, sp, #80
 1227 0760 FFF7FEFF 		bl	_lv_area_is_out
 1228 0764 B9F1FF0F 		cmp	r9, #255
 1229 0768 36D0     		beq	.L201
 1230 076a 9BF80030 		ldrb	r3, [fp]	@ zero_extendqisi2
 1231 076e 099A     		ldr	r2, [sp, #36]
 1232 0770 92F83620 		ldrb	r2, [r2, #54]	@ zero_extendqisi2
 1233 0774 02FB03F3 		mul	r3, r2, r3
 1234 0778 1B0A     		lsrs	r3, r3, #8
 1235              	.L124:
 1236 077a 8DF84C30 		strb	r3, [sp, #76]
 1237 077e 0DA9     		add	r1, sp, #52
 1238 0780 3046     		mov	r0, r6
 1239 0782 FFF7FEFF 		bl	lv_draw_sw_blend
 1240 0786 03E0     		b	.L123
 1241              	.L120:
 1242 0788 0DA9     		add	r1, sp, #52
 1243 078a 3046     		mov	r0, r6
 1244 078c FFF7FEFF 		bl	lv_draw_sw_blend
 1245              	.L123:
 1246 0790 A344     		add	fp, fp, r4
 1247 0792 0AF1FF3A 		add	r10, r10, #-1
 1248 0796 0FFA8AFA 		sxth	r10, r10
 1249              	.L117:
 1250 079a BDF95230 		ldrsh	r3, [sp, #82]
 1251 079e 5345     		cmp	r3, r10
 1252 07a0 1DDC     		bgt	.L202
 1253 07a2 ADF85AA0 		strh	r10, [sp, #90]	@ movhi
 1254 07a6 ADF85EA0 		strh	r10, [sp, #94]	@ movhi
 1255 07aa 002F     		cmp	r7, #0
 1256 07ac D5D1     		bne	.L118
 1257 07ae 4246     		mov	r2, r8
 1258 07b0 9BF80010 		ldrb	r1, [fp]	@ zero_extendqisi2
 1259 07b4 2846     		mov	r0, r5
 1260 07b6 FFF7FEFF 		bl	lv_memset
 1261 07ba 4346     		mov	r3, r8
ARM GAS  /var/folders/lp/x54gwt890xv47sdkqj1k04q40000gn/T//ccNe59Kt.s 			page 23


 1262 07bc 5246     		mov	r2, r10
 1263 07be BDF95010 		ldrsh	r1, [sp, #80]
 1264 07c2 2846     		mov	r0, r5
 1265 07c4 FFF7FEFF 		bl	lv_draw_mask_apply
 1266 07c8 8DF84400 		strb	r0, [sp, #68]
 1267 07cc 0128     		cmp	r0, #1
 1268 07ce DBD1     		bne	.L120
 1269 07d0 0223     		movs	r3, #2
 1270 07d2 8DF84430 		strb	r3, [sp, #68]
 1271 07d6 D7E7     		b	.L120
 1272              	.L201:
 1273 07d8 9BF80030 		ldrb	r3, [fp]	@ zero_extendqisi2
 1274 07dc CDE7     		b	.L124
 1275              	.L202:
 1276 07de 0A9F     		ldr	r7, [sp, #40]
 1277 07e0 DDF82C80 		ldr	r8, [sp, #44]
 1278 07e4 099D     		ldr	r5, [sp, #36]
 1279 07e6 BDE5     		b	.L114
 1280              	.L187:
 1281 07e8 BDF90850 		ldrsh	r5, [sp, #8]
 1282 07ec 2A46     		mov	r2, r5
 1283 07ee 1EA9     		add	r1, sp, #120
 1284 07f0 14A8     		add	r0, sp, #80
 1285 07f2 FFF7FEFF 		bl	_lv_area_is_in
 1286 07f6 0028     		cmp	r0, #0
 1287 07f8 7FF4E9AD 		bne	.L127
 1288 07fc BDF85430 		ldrh	r3, [sp, #84]
 1289 0800 BDF95020 		ldrsh	r2, [sp, #80]
 1290 0804 91B2     		uxth	r1, r2
 1291 0806 5B1A     		subs	r3, r3, r1
 1292 0808 9BB2     		uxth	r3, r3
 1293 080a 0133     		adds	r3, r3, #1
 1294 080c 0FFA83FA 		sxth	r10, r3
 1295 0810 611E     		subs	r1, r4, #1
 1296 0812 BDF98C30 		ldrsh	r3, [sp, #140]
 1297 0816 1B1B     		subs	r3, r3, r4
 1298 0818 0133     		adds	r3, r3, #1
 1299 081a D31A     		subs	r3, r2, r3
 1300 081c 04FB0133 		mla	r3, r4, r1, r3
 1301 0820 039A     		ldr	r2, [sp, #12]
 1302 0822 02EB030B 		add	fp, r2, r3
 1303 0826 009B     		ldr	r3, [sp]
 1304 0828 D3B9     		cbnz	r3, .L203
 1305 082a DDF80090 		ldr	r9, [sp]
 1306 082e 049B     		ldr	r3, [sp, #16]
 1307              	.L128:
 1308 0830 1093     		str	r3, [sp, #64]
 1309 0832 BAF1000F 		cmp	r10, #0
 1310 0836 7FF7CAAD 		ble	.L127
 1311 083a BDF95030 		ldrsh	r3, [sp, #80]
 1312 083e ADF85830 		strh	r3, [sp, #88]	@ movhi
 1313 0842 BDF95430 		ldrsh	r3, [sp, #84]
 1314 0846 ADF85C30 		strh	r3, [sp, #92]	@ movhi
 1315 084a 0223     		movs	r3, #2
 1316 084c 8DF84430 		strb	r3, [sp, #68]
 1317 0850 BDF95250 		ldrsh	r5, [sp, #82]
 1318 0854 0897     		str	r7, [sp, #32]
ARM GAS  /var/folders/lp/x54gwt890xv47sdkqj1k04q40000gn/T//ccNe59Kt.s 			page 24


 1319 0856 2346     		mov	r3, r4
 1320 0858 4C46     		mov	r4, r9
 1321 085a 049F     		ldr	r7, [sp, #16]
 1322 085c 9946     		mov	r9, r3
 1323 085e 12E0     		b	.L129
 1324              	.L203:
 1325 0860 2A46     		mov	r2, r5
 1326 0862 1EA9     		add	r1, sp, #120
 1327 0864 14A8     		add	r0, sp, #80
 1328 0866 FFF7FEFF 		bl	_lv_area_is_out
 1329 086a 8146     		mov	r9, r0
 1330 086c 18B9     		cbnz	r0, .L169
 1331 086e DDF80090 		ldr	r9, [sp]
 1332 0872 5B46     		mov	r3, fp
 1333 0874 DCE7     		b	.L128
 1334              	.L169:
 1335 0876 5B46     		mov	r3, fp
 1336 0878 DAE7     		b	.L128
 1337              	.L130:
 1338 087a 0DA9     		add	r1, sp, #52
 1339 087c 3046     		mov	r0, r6
 1340 087e FFF7FEFF 		bl	lv_draw_sw_blend
 1341 0882 0135     		adds	r5, r5, #1
 1342 0884 2DB2     		sxth	r5, r5
 1343              	.L129:
 1344 0886 BDF95630 		ldrsh	r3, [sp, #86]
 1345 088a AB42     		cmp	r3, r5
 1346 088c 19DB     		blt	.L204
 1347 088e ADF85A50 		strh	r5, [sp, #90]	@ movhi
 1348 0892 ADF85E50 		strh	r5, [sp, #94]	@ movhi
 1349 0896 002C     		cmp	r4, #0
 1350 0898 EFD1     		bne	.L130
 1351 089a 5246     		mov	r2, r10
 1352 089c 5946     		mov	r1, fp
 1353 089e 3846     		mov	r0, r7
 1354 08a0 FFF7FEFF 		bl	lv_memcpy
 1355 08a4 5346     		mov	r3, r10
 1356 08a6 2A46     		mov	r2, r5
 1357 08a8 BDF95010 		ldrsh	r1, [sp, #80]
 1358 08ac 3846     		mov	r0, r7
 1359 08ae FFF7FEFF 		bl	lv_draw_mask_apply
 1360 08b2 8DF84400 		strb	r0, [sp, #68]
 1361 08b6 0128     		cmp	r0, #1
 1362 08b8 DFD1     		bne	.L130
 1363 08ba 0223     		movs	r3, #2
 1364 08bc 8DF84430 		strb	r3, [sp, #68]
 1365 08c0 DBE7     		b	.L130
 1366              	.L204:
 1367 08c2 089F     		ldr	r7, [sp, #32]
 1368 08c4 4C46     		mov	r4, r9
 1369 08c6 82E5     		b	.L127
 1370              	.L133:
 1371 08c8 0878     		ldrb	r0, [r1]	@ zero_extendqisi2
 1372 08ca 93F800E0 		ldrb	lr, [r3]	@ zero_extendqisi2
 1373 08ce 01F801EB 		strb	lr, [r1], #1
 1374 08d2 03F80109 		strb	r0, [r3], #-1
 1375 08d6 0132     		adds	r2, r2, #1
ARM GAS  /var/folders/lp/x54gwt890xv47sdkqj1k04q40000gn/T//ccNe59Kt.s 			page 25


 1376              	.L132:
 1377 08d8 04EBD470 		add	r0, r4, r4, lsr #31
 1378 08dc B2EB600F 		cmp	r2, r0, asr #1
 1379 08e0 F2DB     		blt	.L133
 1380 08e2 A444     		add	ip, ip, r4
 1381 08e4 0135     		adds	r5, r5, #1
 1382 08e6 2DB2     		sxth	r5, r5
 1383              	.L134:
 1384 08e8 A542     		cmp	r5, r4
 1385 08ea 04DA     		bge	.L205
 1386 08ec 631E     		subs	r3, r4, #1
 1387 08ee 6344     		add	r3, r3, ip
 1388 08f0 6146     		mov	r1, ip
 1389 08f2 0022     		movs	r2, #0
 1390 08f4 F0E7     		b	.L132
 1391              	.L205:
 1392 08f6 BDF98830 		ldrsh	r3, [sp, #136]
 1393 08fa ADF85830 		strh	r3, [sp, #88]	@ movhi
 1394 08fe 17FA83F3 		uxtah	r3, r7, r3
 1395 0902 9BB2     		uxth	r3, r3
 1396 0904 013B     		subs	r3, r3, #1
 1397 0906 1BB2     		sxth	r3, r3
 1398 0908 ADF85C30 		strh	r3, [sp, #92]	@ movhi
 1399 090c BDF88A10 		ldrh	r1, [sp, #138]
 1400 0910 3944     		add	r1, r1, r7
 1401 0912 09B2     		sxth	r1, r1
 1402 0914 ADF85A10 		strh	r1, [sp, #90]	@ movhi
 1403 0918 BDF88E20 		ldrh	r2, [sp, #142]
 1404 091c D21B     		subs	r2, r2, r7
 1405 091e 12B2     		sxth	r2, r2
 1406 0920 ADF85E20 		strh	r2, [sp, #94]	@ movhi
 1407 0924 4145     		cmp	r1, r8
 1408 0926 02DD     		ble	.L136
 1409 0928 0699     		ldr	r1, [sp, #24]
 1410 092a 0131     		adds	r1, r1, #1
 1411 092c 09B2     		sxth	r1, r1
 1412              	.L136:
 1413 092e ADF85A10 		strh	r1, [sp, #90]	@ movhi
 1414 0932 4245     		cmp	r2, r8
 1415 0934 B8BF     		it	lt
 1416 0936 4246     		movlt	r2, r8
 1417 0938 ADF85E20 		strh	r2, [sp, #94]	@ movhi
 1418 093c 019A     		ldr	r2, [sp, #4]
 1419 093e 551E     		subs	r5, r2, #1
 1420 0940 AB42     		cmp	r3, r5
 1421 0942 A8BF     		it	ge
 1422 0944 2B46     		movge	r3, r5
 1423 0946 ADF85C30 		strh	r3, [sp, #92]	@ movhi
 1424 094a B268     		ldr	r2, [r6, #8]
 1425 094c 16A9     		add	r1, sp, #88
 1426 094e 14A8     		add	r0, sp, #80
 1427 0950 FFF7FEFF 		bl	_lv_area_intersect
 1428 0954 0028     		cmp	r0, #0
 1429 0956 7AD1     		bne	.L206
 1430              	.L137:
 1431 0958 BDF98830 		ldrsh	r3, [sp, #136]
 1432 095c ADF85830 		strh	r3, [sp, #88]	@ movhi
ARM GAS  /var/folders/lp/x54gwt890xv47sdkqj1k04q40000gn/T//ccNe59Kt.s 			page 26


 1433 0960 17FA83F2 		uxtah	r2, r7, r3
 1434 0964 92B2     		uxth	r2, r2
 1435 0966 013A     		subs	r2, r2, #1
 1436 0968 12B2     		sxth	r2, r2
 1437 096a ADF85C20 		strh	r2, [sp, #92]	@ movhi
 1438 096e BDF98A30 		ldrsh	r3, [sp, #138]
 1439 0972 ADF85A30 		strh	r3, [sp, #90]	@ movhi
 1440 0976 17FA83F3 		uxtah	r3, r7, r3
 1441 097a 9BB2     		uxth	r3, r3
 1442 097c 013B     		subs	r3, r3, #1
 1443 097e 1BB2     		sxth	r3, r3
 1444 0980 ADF85E30 		strh	r3, [sp, #94]	@ movhi
 1445 0984 AA42     		cmp	r2, r5
 1446 0986 A8BF     		it	ge
 1447 0988 2A46     		movge	r2, r5
 1448 098a ADF85C20 		strh	r2, [sp, #92]	@ movhi
 1449 098e 4345     		cmp	r3, r8
 1450 0990 A8BF     		it	ge
 1451 0992 4346     		movge	r3, r8
 1452 0994 ADF85E30 		strh	r3, [sp, #94]	@ movhi
 1453 0998 B268     		ldr	r2, [r6, #8]
 1454 099a 16A9     		add	r1, sp, #88
 1455 099c 14A8     		add	r0, sp, #80
 1456 099e FFF7FEFF 		bl	_lv_area_intersect
 1457 09a2 0028     		cmp	r0, #0
 1458 09a4 40F0C380 		bne	.L207
 1459              	.L142:
 1460 09a8 BDF98830 		ldrsh	r3, [sp, #136]
 1461 09ac ADF85830 		strh	r3, [sp, #88]	@ movhi
 1462 09b0 17FA83F3 		uxtah	r3, r7, r3
 1463 09b4 9BB2     		uxth	r3, r3
 1464 09b6 013B     		subs	r3, r3, #1
 1465 09b8 1BB2     		sxth	r3, r3
 1466 09ba ADF85C30 		strh	r3, [sp, #92]	@ movhi
 1467 09be BDF98E10 		ldrsh	r1, [sp, #142]
 1468 09c2 8AB2     		uxth	r2, r1
 1469 09c4 D21B     		subs	r2, r2, r7
 1470 09c6 92B2     		uxth	r2, r2
 1471 09c8 0132     		adds	r2, r2, #1
 1472 09ca 12B2     		sxth	r2, r2
 1473 09cc ADF85A20 		strh	r2, [sp, #90]	@ movhi
 1474 09d0 ADF85E10 		strh	r1, [sp, #94]	@ movhi
 1475 09d4 0599     		ldr	r1, [sp, #20]
 1476 09d6 9142     		cmp	r1, r2
 1477 09d8 B8BF     		it	lt
 1478 09da 1146     		movlt	r1, r2
 1479 09dc ADF85A10 		strh	r1, [sp, #90]	@ movhi
 1480 09e0 9D42     		cmp	r5, r3
 1481 09e2 A8BF     		it	ge
 1482 09e4 1D46     		movge	r5, r3
 1483 09e6 ADF85C50 		strh	r5, [sp, #92]	@ movhi
 1484 09ea B268     		ldr	r2, [r6, #8]
 1485 09ec 16A9     		add	r1, sp, #88
 1486 09ee 14A8     		add	r0, sp, #80
 1487 09f0 FFF7FEFF 		bl	_lv_area_intersect
 1488 09f4 0028     		cmp	r0, #0
 1489 09f6 40F01081 		bne	.L208
ARM GAS  /var/folders/lp/x54gwt890xv47sdkqj1k04q40000gn/T//ccNe59Kt.s 			page 27


 1490              	.L148:
 1491 09fa BDF88830 		ldrh	r3, [sp, #136]
 1492 09fe 3B44     		add	r3, r3, r7
 1493 0a00 ADF85830 		strh	r3, [sp, #88]	@ movhi
 1494 0a04 BDF88C30 		ldrh	r3, [sp, #140]
 1495 0a08 DB1B     		subs	r3, r3, r7
 1496 0a0a ADF85C30 		strh	r3, [sp, #92]	@ movhi
 1497 0a0e BDF88A30 		ldrh	r3, [sp, #138]
 1498 0a12 3B44     		add	r3, r3, r7
 1499 0a14 ADF85A30 		strh	r3, [sp, #90]	@ movhi
 1500 0a18 BDF88E30 		ldrh	r3, [sp, #142]
 1501 0a1c DB1B     		subs	r3, r3, r7
 1502 0a1e ADF85E30 		strh	r3, [sp, #94]	@ movhi
 1503 0a22 049B     		ldr	r3, [sp, #16]
 1504 0a24 1093     		str	r3, [sp, #64]
 1505 0a26 B268     		ldr	r2, [r6, #8]
 1506 0a28 16A9     		add	r1, sp, #88
 1507 0a2a 14A8     		add	r0, sp, #80
 1508 0a2c FFF7FEFF 		bl	_lv_area_intersect
 1509 0a30 0028     		cmp	r0, #0
 1510 0a32 40F06781 		bne	.L209
 1511              	.L154:
 1512 0a36 009B     		ldr	r3, [sp]
 1513 0a38 002B     		cmp	r3, #0
 1514 0a3a 00F09C81 		beq	.L210
 1515              	.L157:
 1516 0a3e 0398     		ldr	r0, [sp, #12]
 1517 0a40 FFF7FEFF 		bl	lv_mem_buf_release
 1518 0a44 0498     		ldr	r0, [sp, #16]
 1519 0a46 FFF7FEFF 		bl	lv_mem_buf_release
 1520 0a4a FFF733BB 		b	.L81
 1521              	.L206:
 1522 0a4e BDF90890 		ldrsh	r9, [sp, #8]
 1523 0a52 4A46     		mov	r2, r9
 1524 0a54 1EA9     		add	r1, sp, #120
 1525 0a56 14A8     		add	r0, sp, #80
 1526 0a58 FFF7FEFF 		bl	_lv_area_is_in
 1527 0a5c 0028     		cmp	r0, #0
 1528 0a5e 7FF47BAF 		bne	.L137
 1529 0a62 BDF85430 		ldrh	r3, [sp, #84]
 1530 0a66 BDF95020 		ldrsh	r2, [sp, #80]
 1531 0a6a 91B2     		uxth	r1, r2
 1532 0a6c 5B1A     		subs	r3, r3, r1
 1533 0a6e 9BB2     		uxth	r3, r3
 1534 0a70 0133     		adds	r3, r3, #1
 1535 0a72 0FFA83FB 		sxth	fp, r3
 1536 0a76 611E     		subs	r1, r4, #1
 1537 0a78 BDF95830 		ldrsh	r3, [sp, #88]
 1538 0a7c D31A     		subs	r3, r2, r3
 1539 0a7e 04FB0133 		mla	r3, r4, r1, r3
 1540 0a82 039A     		ldr	r2, [sp, #12]
 1541 0a84 D318     		adds	r3, r2, r3
 1542 0a86 0193     		str	r3, [sp, #4]
 1543 0a88 009B     		ldr	r3, [sp]
 1544 0a8a D3B9     		cbnz	r3, .L211
 1545 0a8c DDF800A0 		ldr	r10, [sp]
 1546 0a90 049B     		ldr	r3, [sp, #16]
ARM GAS  /var/folders/lp/x54gwt890xv47sdkqj1k04q40000gn/T//ccNe59Kt.s 			page 28


 1547              	.L138:
 1548 0a92 1093     		str	r3, [sp, #64]
 1549 0a94 BBF1000F 		cmp	fp, #0
 1550 0a98 7FF75EAF 		ble	.L137
 1551 0a9c BDF95030 		ldrsh	r3, [sp, #80]
 1552 0aa0 ADF85830 		strh	r3, [sp, #88]	@ movhi
 1553 0aa4 BDF95430 		ldrsh	r3, [sp, #84]
 1554 0aa8 ADF85C30 		strh	r3, [sp, #92]	@ movhi
 1555 0aac 0223     		movs	r3, #2
 1556 0aae 8DF84430 		strb	r3, [sp, #68]
 1557 0ab2 BDF95290 		ldrsh	r9, [sp, #82]
 1558 0ab6 0695     		str	r5, [sp, #24]
 1559 0ab8 2346     		mov	r3, r4
 1560 0aba 5446     		mov	r4, r10
 1561 0abc 049D     		ldr	r5, [sp, #16]
 1562 0abe 9A46     		mov	r10, r3
 1563 0ac0 14E0     		b	.L139
 1564              	.L211:
 1565 0ac2 4A46     		mov	r2, r9
 1566 0ac4 1EA9     		add	r1, sp, #120
 1567 0ac6 14A8     		add	r0, sp, #80
 1568 0ac8 FFF7FEFF 		bl	_lv_area_is_out
 1569 0acc 8246     		mov	r10, r0
 1570 0ace 18B9     		cbnz	r0, .L171
 1571 0ad0 DDF800A0 		ldr	r10, [sp]
 1572 0ad4 019B     		ldr	r3, [sp, #4]
 1573 0ad6 DCE7     		b	.L138
 1574              	.L171:
 1575 0ad8 019B     		ldr	r3, [sp, #4]
 1576 0ada DAE7     		b	.L138
 1577              	.L140:
 1578 0adc 0DA9     		add	r1, sp, #52
 1579 0ade 3046     		mov	r0, r6
 1580 0ae0 FFF7FEFF 		bl	lv_draw_sw_blend
 1581 0ae4 09F10109 		add	r9, r9, #1
 1582 0ae8 0FFA89F9 		sxth	r9, r9
 1583              	.L139:
 1584 0aec BDF95630 		ldrsh	r3, [sp, #86]
 1585 0af0 4B45     		cmp	r3, r9
 1586 0af2 19DB     		blt	.L212
 1587 0af4 ADF85A90 		strh	r9, [sp, #90]	@ movhi
 1588 0af8 ADF85E90 		strh	r9, [sp, #94]	@ movhi
 1589 0afc 002C     		cmp	r4, #0
 1590 0afe EDD1     		bne	.L140
 1591 0b00 5A46     		mov	r2, fp
 1592 0b02 0199     		ldr	r1, [sp, #4]
 1593 0b04 2846     		mov	r0, r5
 1594 0b06 FFF7FEFF 		bl	lv_memcpy
 1595 0b0a 5B46     		mov	r3, fp
 1596 0b0c 4A46     		mov	r2, r9
 1597 0b0e BDF95010 		ldrsh	r1, [sp, #80]
 1598 0b12 2846     		mov	r0, r5
 1599 0b14 FFF7FEFF 		bl	lv_draw_mask_apply
 1600 0b18 8DF84400 		strb	r0, [sp, #68]
 1601 0b1c 0128     		cmp	r0, #1
 1602 0b1e DDD1     		bne	.L140
 1603 0b20 0223     		movs	r3, #2
ARM GAS  /var/folders/lp/x54gwt890xv47sdkqj1k04q40000gn/T//ccNe59Kt.s 			page 29


 1604 0b22 8DF84430 		strb	r3, [sp, #68]
 1605 0b26 D9E7     		b	.L140
 1606              	.L212:
 1607 0b28 069D     		ldr	r5, [sp, #24]
 1608 0b2a 5446     		mov	r4, r10
 1609 0b2c 14E7     		b	.L137
 1610              	.L207:
 1611 0b2e BDF90890 		ldrsh	r9, [sp, #8]
 1612 0b32 4A46     		mov	r2, r9
 1613 0b34 1EA9     		add	r1, sp, #120
 1614 0b36 14A8     		add	r0, sp, #80
 1615 0b38 FFF7FEFF 		bl	_lv_area_is_in
 1616 0b3c 0028     		cmp	r0, #0
 1617 0b3e 7FF433AF 		bne	.L142
 1618 0b42 BDF85430 		ldrh	r3, [sp, #84]
 1619 0b46 BDF95020 		ldrsh	r2, [sp, #80]
 1620 0b4a 91B2     		uxth	r1, r2
 1621 0b4c 5B1A     		subs	r3, r3, r1
 1622 0b4e 9BB2     		uxth	r3, r3
 1623 0b50 0133     		adds	r3, r3, #1
 1624 0b52 1BB2     		sxth	r3, r3
 1625 0b54 0193     		str	r3, [sp, #4]
 1626 0b56 BDF95230 		ldrsh	r3, [sp, #82]
 1627 0b5a BDF95A10 		ldrsh	r1, [sp, #90]
 1628 0b5e 5B1A     		subs	r3, r3, r1
 1629 0b60 BDF95810 		ldrsh	r1, [sp, #88]
 1630 0b64 A2EB010A 		sub	r10, r2, r1
 1631 0b68 04FB03AA 		mla	r10, r4, r3, r10
 1632 0b6c 039B     		ldr	r3, [sp, #12]
 1633 0b6e 9A44     		add	r10, r10, r3
 1634 0b70 009B     		ldr	r3, [sp]
 1635 0b72 DBB9     		cbnz	r3, .L213
 1636 0b74 DDF800B0 		ldr	fp, [sp]
 1637              	.L143:
 1638 0b78 049A     		ldr	r2, [sp, #16]
 1639 0b7a 1092     		str	r2, [sp, #64]
 1640 0b7c 019B     		ldr	r3, [sp, #4]
 1641 0b7e 002B     		cmp	r3, #0
 1642 0b80 7FF712AF 		ble	.L142
 1643 0b84 BDF95030 		ldrsh	r3, [sp, #80]
 1644 0b88 ADF85830 		strh	r3, [sp, #88]	@ movhi
 1645 0b8c BDF95430 		ldrsh	r3, [sp, #84]
 1646 0b90 ADF85C30 		strh	r3, [sp, #92]	@ movhi
 1647 0b94 0223     		movs	r3, #2
 1648 0b96 8DF84430 		strb	r3, [sp, #68]
 1649 0b9a BDF95290 		ldrsh	r9, [sp, #82]
 1650 0b9e 5B46     		mov	r3, fp
 1651 0ba0 AB46     		mov	fp, r5
 1652 0ba2 A046     		mov	r8, r4
 1653 0ba4 5446     		mov	r4, r10
 1654 0ba6 9246     		mov	r10, r2
 1655 0ba8 1D46     		mov	r5, r3
 1656 0baa 23E0     		b	.L144
 1657              	.L213:
 1658 0bac 4A46     		mov	r2, r9
 1659 0bae 1EA9     		add	r1, sp, #120
 1660 0bb0 14A8     		add	r0, sp, #80
ARM GAS  /var/folders/lp/x54gwt890xv47sdkqj1k04q40000gn/T//ccNe59Kt.s 			page 30


 1661 0bb2 FFF7FEFF 		bl	_lv_area_is_out
 1662 0bb6 8346     		mov	fp, r0
 1663 0bb8 0028     		cmp	r0, #0
 1664 0bba DDD1     		bne	.L143
 1665 0bbc DDF800B0 		ldr	fp, [sp]
 1666 0bc0 DAE7     		b	.L143
 1667              	.L216:
 1668 0bc2 4246     		mov	r2, r8
 1669 0bc4 2146     		mov	r1, r4
 1670 0bc6 5046     		mov	r0, r10
 1671 0bc8 FFF7FEFF 		bl	lv_memcpy
 1672 0bcc 019B     		ldr	r3, [sp, #4]
 1673 0bce 4A46     		mov	r2, r9
 1674 0bd0 BDF95010 		ldrsh	r1, [sp, #80]
 1675 0bd4 5046     		mov	r0, r10
 1676 0bd6 FFF7FEFF 		bl	lv_draw_mask_apply
 1677 0bda 8DF84400 		strb	r0, [sp, #68]
 1678 0bde 0128     		cmp	r0, #1
 1679 0be0 14D0     		beq	.L214
 1680              	.L146:
 1681 0be2 0DA9     		add	r1, sp, #52
 1682 0be4 3046     		mov	r0, r6
 1683 0be6 FFF7FEFF 		bl	lv_draw_sw_blend
 1684 0bea 4444     		add	r4, r4, r8
 1685 0bec 09F10109 		add	r9, r9, #1
 1686 0bf0 0FFA89F9 		sxth	r9, r9
 1687              	.L144:
 1688 0bf4 BDF95630 		ldrsh	r3, [sp, #86]
 1689 0bf8 4B45     		cmp	r3, r9
 1690 0bfa 0BDB     		blt	.L215
 1691 0bfc ADF85A90 		strh	r9, [sp, #90]	@ movhi
 1692 0c00 ADF85E90 		strh	r9, [sp, #94]	@ movhi
 1693 0c04 002D     		cmp	r5, #0
 1694 0c06 DCD0     		beq	.L216
 1695 0c08 1094     		str	r4, [sp, #64]
 1696 0c0a EAE7     		b	.L146
 1697              	.L214:
 1698 0c0c 0223     		movs	r3, #2
 1699 0c0e 8DF84430 		strb	r3, [sp, #68]
 1700 0c12 E6E7     		b	.L146
 1701              	.L215:
 1702 0c14 5D46     		mov	r5, fp
 1703 0c16 4446     		mov	r4, r8
 1704 0c18 C6E6     		b	.L142
 1705              	.L208:
 1706 0c1a BDF90850 		ldrsh	r5, [sp, #8]
 1707 0c1e 2A46     		mov	r2, r5
 1708 0c20 1EA9     		add	r1, sp, #120
 1709 0c22 14A8     		add	r0, sp, #80
 1710 0c24 FFF7FEFF 		bl	_lv_area_is_in
 1711 0c28 0028     		cmp	r0, #0
 1712 0c2a 7FF4E6AE 		bne	.L148
 1713 0c2e BDF854A0 		ldrh	r10, [sp, #84]
 1714 0c32 BDF95030 		ldrsh	r3, [sp, #80]
 1715 0c36 9AB2     		uxth	r2, r3
 1716 0c38 AAEB020A 		sub	r10, r10, r2
 1717 0c3c 1FFA8AFA 		uxth	r10, r10
ARM GAS  /var/folders/lp/x54gwt890xv47sdkqj1k04q40000gn/T//ccNe59Kt.s 			page 31


 1718 0c40 0AF1010A 		add	r10, r10, #1
 1719 0c44 0FFA8AFA 		sxth	r10, r10
 1720 0c48 BDF95E20 		ldrsh	r2, [sp, #94]
 1721 0c4c BDF95610 		ldrsh	r1, [sp, #86]
 1722 0c50 521A     		subs	r2, r2, r1
 1723 0c52 BDF95810 		ldrsh	r1, [sp, #88]
 1724 0c56 A3EB0109 		sub	r9, r3, r1
 1725 0c5a 04FB0299 		mla	r9, r4, r2, r9
 1726 0c5e 039B     		ldr	r3, [sp, #12]
 1727 0c60 9944     		add	r9, r9, r3
 1728 0c62 009B     		ldr	r3, [sp]
 1729 0c64 D3B9     		cbnz	r3, .L217
 1730 0c66 DDF800B0 		ldr	fp, [sp]
 1731              	.L149:
 1732 0c6a 049A     		ldr	r2, [sp, #16]
 1733 0c6c 1092     		str	r2, [sp, #64]
 1734 0c6e BAF1000F 		cmp	r10, #0
 1735 0c72 7FF7C2AE 		ble	.L148
 1736 0c76 BDF95030 		ldrsh	r3, [sp, #80]
 1737 0c7a ADF85830 		strh	r3, [sp, #88]	@ movhi
 1738 0c7e BDF95430 		ldrsh	r3, [sp, #84]
 1739 0c82 ADF85C30 		strh	r3, [sp, #92]	@ movhi
 1740 0c86 0223     		movs	r3, #2
 1741 0c88 8DF84430 		strb	r3, [sp, #68]
 1742 0c8c BDF95650 		ldrsh	r5, [sp, #86]
 1743 0c90 A046     		mov	r8, r4
 1744 0c92 4C46     		mov	r4, r9
 1745 0c94 B146     		mov	r9, r6
 1746 0c96 5E46     		mov	r6, fp
 1747 0c98 9346     		mov	fp, r2
 1748 0c9a 21E0     		b	.L150
 1749              	.L217:
 1750 0c9c 2A46     		mov	r2, r5
 1751 0c9e 1EA9     		add	r1, sp, #120
 1752 0ca0 14A8     		add	r0, sp, #80
 1753 0ca2 FFF7FEFF 		bl	_lv_area_is_out
 1754 0ca6 8346     		mov	fp, r0
 1755 0ca8 0028     		cmp	r0, #0
 1756 0caa DED1     		bne	.L149
 1757 0cac DDF800B0 		ldr	fp, [sp]
 1758 0cb0 DBE7     		b	.L149
 1759              	.L220:
 1760 0cb2 4246     		mov	r2, r8
 1761 0cb4 2146     		mov	r1, r4
 1762 0cb6 5846     		mov	r0, fp
 1763 0cb8 FFF7FEFF 		bl	lv_memcpy
 1764 0cbc 5346     		mov	r3, r10
 1765 0cbe 2A46     		mov	r2, r5
 1766 0cc0 BDF95010 		ldrsh	r1, [sp, #80]
 1767 0cc4 5846     		mov	r0, fp
 1768 0cc6 FFF7FEFF 		bl	lv_draw_mask_apply
 1769 0cca 8DF84400 		strb	r0, [sp, #68]
 1770 0cce 0128     		cmp	r0, #1
 1771 0cd0 12D0     		beq	.L218
 1772              	.L152:
 1773 0cd2 0DA9     		add	r1, sp, #52
 1774 0cd4 4846     		mov	r0, r9
ARM GAS  /var/folders/lp/x54gwt890xv47sdkqj1k04q40000gn/T//ccNe59Kt.s 			page 32


 1775 0cd6 FFF7FEFF 		bl	lv_draw_sw_blend
 1776 0cda 4444     		add	r4, r4, r8
 1777 0cdc 013D     		subs	r5, r5, #1
 1778 0cde 2DB2     		sxth	r5, r5
 1779              	.L150:
 1780 0ce0 BDF95230 		ldrsh	r3, [sp, #82]
 1781 0ce4 AB42     		cmp	r3, r5
 1782 0ce6 0BDC     		bgt	.L219
 1783 0ce8 ADF85A50 		strh	r5, [sp, #90]	@ movhi
 1784 0cec ADF85E50 		strh	r5, [sp, #94]	@ movhi
 1785 0cf0 002E     		cmp	r6, #0
 1786 0cf2 DED0     		beq	.L220
 1787 0cf4 1094     		str	r4, [sp, #64]
 1788 0cf6 ECE7     		b	.L152
 1789              	.L218:
 1790 0cf8 0223     		movs	r3, #2
 1791 0cfa 8DF84430 		strb	r3, [sp, #68]
 1792 0cfe E8E7     		b	.L152
 1793              	.L219:
 1794 0d00 4E46     		mov	r6, r9
 1795 0d02 7AE6     		b	.L148
 1796              	.L209:
 1797 0d04 029A     		ldr	r2, [sp, #8]
 1798 0d06 1EA9     		add	r1, sp, #120
 1799 0d08 14A8     		add	r0, sp, #80
 1800 0d0a FFF7FEFF 		bl	_lv_area_is_in
 1801 0d0e 0028     		cmp	r0, #0
 1802 0d10 7FF491AE 		bne	.L154
 1803 0d14 BDF95430 		ldrsh	r3, [sp, #84]
 1804 0d18 9DB2     		uxth	r5, r3
 1805 0d1a BDF95020 		ldrsh	r2, [sp, #80]
 1806 0d1e 91B2     		uxth	r1, r2
 1807 0d20 6D1A     		subs	r5, r5, r1
 1808 0d22 ADB2     		uxth	r5, r5
 1809 0d24 0135     		adds	r5, r5, #1
 1810 0d26 2DB2     		sxth	r5, r5
 1811 0d28 002D     		cmp	r5, #0
 1812 0d2a 7FF784AE 		ble	.L154
 1813 0d2e ADF85820 		strh	r2, [sp, #88]	@ movhi
 1814 0d32 ADF85C30 		strh	r3, [sp, #92]	@ movhi
 1815 0d36 BDF95240 		ldrsh	r4, [sp, #82]
 1816 0d3a 049F     		ldr	r7, [sp, #16]
 1817              	.L155:
 1818 0d3c BDF95630 		ldrsh	r3, [sp, #86]
 1819 0d40 A342     		cmp	r3, r4
 1820 0d42 FFF678AE 		blt	.L154
 1821 0d46 ADF85A40 		strh	r4, [sp, #90]	@ movhi
 1822 0d4a ADF85E40 		strh	r4, [sp, #94]	@ movhi
 1823 0d4e 2946     		mov	r1, r5
 1824 0d50 3846     		mov	r0, r7
 1825 0d52 FFF7FEFF 		bl	lv_memset_ff
 1826 0d56 2B46     		mov	r3, r5
 1827 0d58 2246     		mov	r2, r4
 1828 0d5a BDF95010 		ldrsh	r1, [sp, #80]
 1829 0d5e 3846     		mov	r0, r7
 1830 0d60 FFF7FEFF 		bl	lv_draw_mask_apply
 1831 0d64 8DF84400 		strb	r0, [sp, #68]
ARM GAS  /var/folders/lp/x54gwt890xv47sdkqj1k04q40000gn/T//ccNe59Kt.s 			page 33


 1832 0d68 0DA9     		add	r1, sp, #52
 1833 0d6a 3046     		mov	r0, r6
 1834 0d6c FFF7FEFF 		bl	lv_draw_sw_blend
 1835 0d70 0134     		adds	r4, r4, #1
 1836 0d72 24B2     		sxth	r4, r4
 1837 0d74 E2E7     		b	.L155
 1838              	.L210:
 1839 0d76 18A8     		add	r0, sp, #96
 1840 0d78 FFF7FEFF 		bl	lv_draw_mask_free_param
 1841 0d7c 0798     		ldr	r0, [sp, #28]
 1842 0d7e FFF7FEFF 		bl	lv_draw_mask_remove_id
 1843 0d82 5CE6     		b	.L157
 1844              	.L178:
 1845 0d84 7047     		bx	lr
 1847              		.section	.text.draw_bg,"ax",%progbits
 1848              		.align	1
 1849              		.syntax unified
 1850              		.thumb
 1851              		.thumb_func
 1853              	draw_bg:
 1854              		@ args = 0, pretend = 0, frame = 104
 1855              		@ frame_needed = 0, uses_anonymous_args = 0
 1856 0000 CB78     		ldrb	r3, [r1, #3]	@ zero_extendqisi2
 1857 0002 022B     		cmp	r3, #2
 1858 0004 40F2F181 		bls	.L258
 1859 0008 2DE9F04F 		push	{r4, r5, r6, r7, r8, r9, r10, fp, lr}
 1860 000c 9BB0     		sub	sp, sp, #108
 1861 000e 8146     		mov	r9, r0
 1862 0010 0C46     		mov	r4, r1
 1863 0012 B2F90050 		ldrsh	r5, [r2]
 1864 0016 ADF86050 		strh	r5, [sp, #96]	@ movhi
 1865 001a B2F90200 		ldrsh	r0, [r2, #2]
 1866 001e ADF86200 		strh	r0, [sp, #98]	@ movhi
 1867 0022 B2F90410 		ldrsh	r1, [r2, #4]
 1868 0026 ADF86410 		strh	r1, [sp, #100]	@ movhi
 1869 002a B2F90630 		ldrsh	r3, [r2, #6]
 1870 002e ADF86630 		strh	r3, [sp, #102]	@ movhi
 1871 0032 B4F92020 		ldrsh	r2, [r4, #32]
 1872 0036 012A     		cmp	r2, #1
 1873 0038 20DD     		ble	.L223
 1874 003a 94F82220 		ldrb	r2, [r4, #34]	@ zero_extendqisi2
 1875 003e FC2A     		cmp	r2, #252
 1876 0040 1CD9     		bls	.L223
 1877 0042 B4F90020 		ldrsh	r2, [r4]
 1878 0046 CAB1     		cbz	r2, .L223
 1879 0048 94F82320 		ldrb	r2, [r4, #35]	@ zero_extendqisi2
 1880 004c C2F3C006 		ubfx	r6, r2, #3, #1
 1881 0050 16FA85F5 		uxtah	r5, r6, r5
 1882 0054 ADF86050 		strh	r5, [sp, #96]	@ movhi
 1883 0058 C2F38005 		ubfx	r5, r2, #2, #1
 1884 005c 15FA80F0 		uxtah	r0, r5, r0
 1885 0060 ADF86200 		strh	r0, [sp, #98]	@ movhi
 1886 0064 89B2     		uxth	r1, r1
 1887 0066 C2F30010 		ubfx	r0, r2, #4, #1
 1888 006a 091A     		subs	r1, r1, r0
 1889 006c ADF86410 		strh	r1, [sp, #100]	@ movhi
 1890 0070 9BB2     		uxth	r3, r3
ARM GAS  /var/folders/lp/x54gwt890xv47sdkqj1k04q40000gn/T//ccNe59Kt.s 			page 34


 1891 0072 C2F34002 		ubfx	r2, r2, #1, #1
 1892 0076 9B1A     		subs	r3, r3, r2
 1893 0078 ADF86630 		strh	r3, [sp, #102]	@ movhi
 1894              	.L223:
 1895 007c D9F80820 		ldr	r2, [r9, #8]
 1896 0080 18A9     		add	r1, sp, #96
 1897 0082 16A8     		add	r0, sp, #88
 1898 0084 FFF7FEFF 		bl	_lv_area_intersect
 1899 0088 0028     		cmp	r0, #0
 1900 008a 00F07A81 		beq	.L221
 1901 008e 94F80FA0 		ldrb	r10, [r4, #15]	@ zero_extendqisi2
 1902 0092 1AF0070A 		ands	r10, r10, #7
 1903 0096 78D1     		bne	.L224
 1904 0098 A588     		ldrh	r5, [r4, #4]
 1905              	.L225:
 1906 009a ABB2     		uxth	r3, r5
 1907 009c 6289     		ldrh	r2, [r4, #10]
 1908 009e 9342     		cmp	r3, r2
 1909 00a0 75D0     		beq	.L261
 1910              	.L226:
 1911 00a2 18A8     		add	r0, sp, #96
 1912 00a4 FFF7FEFF 		bl	lv_draw_mask_is_any
 1913 00a8 0023     		movs	r3, #0
 1914 00aa 0F93     		str	r3, [sp, #60]
 1915 00ac 1093     		str	r3, [sp, #64]
 1916 00ae 1193     		str	r3, [sp, #68]
 1917 00b0 1293     		str	r3, [sp, #72]
 1918 00b2 1393     		str	r3, [sp, #76]
 1919 00b4 1493     		str	r3, [sp, #80]
 1920 00b6 1593     		str	r3, [sp, #84]
 1921 00b8 A378     		ldrb	r3, [r4, #2]	@ zero_extendqisi2
 1922 00ba 8DF85530 		strb	r3, [sp, #85]
 1923 00be ADF84450 		strh	r5, [sp, #68]	@ movhi
 1924 00c2 0290     		str	r0, [sp, #8]
 1925 00c4 28B9     		cbnz	r0, .L227
 1926 00c6 B4F90030 		ldrsh	r3, [r4]
 1927 00ca 13B9     		cbnz	r3, .L227
 1928 00cc BAF1000F 		cmp	r10, #0
 1929 00d0 60D0     		beq	.L262
 1930              	.L227:
 1931 00d2 E378     		ldrb	r3, [r4, #3]	@ zero_extendqisi2
 1932 00d4 0093     		str	r3, [sp]
 1933 00d6 FC2B     		cmp	r3, #252
 1934 00d8 01D9     		bls	.L228
 1935 00da FF23     		movs	r3, #255
 1936 00dc 0093     		str	r3, [sp]
 1937              	.L228:
 1938 00de BDF86450 		ldrh	r5, [sp, #100]
 1939 00e2 BDF86030 		ldrh	r3, [sp, #96]
 1940 00e6 ED1A     		subs	r5, r5, r3
 1941 00e8 ADB2     		uxth	r5, r5
 1942 00ea 0135     		adds	r5, r5, #1
 1943 00ec 2DB2     		sxth	r5, r5
 1944 00ee BDF86670 		ldrh	r7, [sp, #102]
 1945 00f2 BDF86230 		ldrh	r3, [sp, #98]
 1946 00f6 FF1A     		subs	r7, r7, r3
 1947 00f8 BFB2     		uxth	r7, r7
ARM GAS  /var/folders/lp/x54gwt890xv47sdkqj1k04q40000gn/T//ccNe59Kt.s 			page 35


 1948 00fa 0137     		adds	r7, r7, #1
 1949 00fc 3FB2     		sxth	r7, r7
 1950 00fe BB46     		mov	fp, r7
 1951 0100 AF42     		cmp	r7, r5
 1952 0102 A8BF     		it	ge
 1953 0104 AB46     		movge	fp, r5
 1954 0106 4FEA6B0B 		asr	fp, fp, #1
 1955 010a B4F90030 		ldrsh	r3, [r4]
 1956 010e 9B45     		cmp	fp, r3
 1957 0110 A8BF     		it	ge
 1958 0112 9B46     		movge	fp, r3
 1959 0114 BDF85C60 		ldrh	r6, [sp, #92]
 1960 0118 BDF85830 		ldrh	r3, [sp, #88]
 1961 011c F61A     		subs	r6, r6, r3
 1962 011e B6B2     		uxth	r6, r6
 1963 0120 0136     		adds	r6, r6, #1
 1964 0122 36B2     		sxth	r6, r6
 1965 0124 BBF1000F 		cmp	fp, #0
 1966 0128 02DC     		bgt	.L229
 1967 012a 029B     		ldr	r3, [sp, #8]
 1968 012c 002B     		cmp	r3, #0
 1969 012e 3BD0     		beq	.L255
 1970              	.L229:
 1971 0130 3046     		mov	r0, r6
 1972 0132 FFF7FEFF 		bl	lv_mem_buf_get
 1973 0136 8046     		mov	r8, r0
 1974 0138 0023     		movs	r3, #0
 1975 013a 5A46     		mov	r2, fp
 1976 013c 18A9     		add	r1, sp, #96
 1977 013e 09A8     		add	r0, sp, #36
 1978 0140 FFF7FEFF 		bl	lv_draw_mask_radius_init
 1979 0144 0021     		movs	r1, #0
 1980 0146 09A8     		add	r0, sp, #36
 1981 0148 FFF7FEFF 		bl	lv_draw_mask_add
 1982 014c 0390     		str	r0, [sp, #12]
 1983              	.L230:
 1984 014e BDF95830 		ldrsh	r3, [sp, #88]
 1985 0152 ADF81C30 		strh	r3, [sp, #28]	@ movhi
 1986 0156 BDF95C30 		ldrsh	r3, [sp, #92]
 1987 015a ADF82030 		strh	r3, [sp, #32]	@ movhi
 1988 015e CDF84880 		str	r8, [sp, #72]
 1989 0162 07AB     		add	r3, sp, #28
 1990 0164 0F93     		str	r3, [sp, #60]
 1991 0166 1493     		str	r3, [sp, #80]
 1992 0168 FF23     		movs	r3, #255
 1993 016a 8DF85430 		strb	r3, [sp, #84]
 1994 016e 3A46     		mov	r2, r7
 1995 0170 2946     		mov	r1, r5
 1996 0172 A01D     		adds	r0, r4, #6
 1997 0174 FFF7FEFF 		bl	lv_gradient_get
 1998 0178 0190     		str	r0, [sp, #4]
 1999 017a 10B1     		cbz	r0, .L231
 2000 017c BAF1020F 		cmp	r10, #2
 2001 0180 18D0     		beq	.L263
 2002              	.L231:
 2003 0182 029B     		ldr	r3, [sp, #8]
 2004 0184 03BB     		cbnz	r3, .L264
ARM GAS  /var/folders/lp/x54gwt890xv47sdkqj1k04q40000gn/T//ccNe59Kt.s 			page 36


 2005 0186 0027     		movs	r7, #0
 2006 0188 66E0     		b	.L232
 2007              	.L224:
 2008 018a E588     		ldrh	r5, [r4, #6]
 2009 018c 85E7     		b	.L225
 2010              	.L261:
 2011 018e 4FF0000A 		mov	r10, #0
 2012 0192 86E7     		b	.L226
 2013              	.L262:
 2014 0194 18AB     		add	r3, sp, #96
 2015 0196 0F93     		str	r3, [sp, #60]
 2016 0198 E378     		ldrb	r3, [r4, #3]	@ zero_extendqisi2
 2017 019a 8DF85430 		strb	r3, [sp, #84]
 2018 019e 0FA9     		add	r1, sp, #60
 2019 01a0 4846     		mov	r0, r9
 2020 01a2 FFF7FEFF 		bl	lv_draw_sw_blend
 2021 01a6 ECE0     		b	.L221
 2022              	.L255:
 2023 01a8 4FF00008 		mov	r8, #0
 2024 01ac 4FF0FF33 		mov	r3, #-1
 2025 01b0 0393     		str	r3, [sp, #12]
 2026 01b2 CCE7     		b	.L230
 2027              	.L263:
 2028 01b4 8368     		ldr	r3, [r0, #8]
 2029 01b6 BDF95820 		ldrsh	r2, [sp, #88]
 2030 01ba BDF96010 		ldrsh	r1, [sp, #96]
 2031 01be 521A     		subs	r2, r2, r1
 2032 01c0 03EB4203 		add	r3, r3, r2, lsl #1
 2033 01c4 1093     		str	r3, [sp, #64]
 2034 01c6 DCE7     		b	.L231
 2035              	.L264:
 2036 01c8 BDF95A40 		ldrsh	r4, [sp, #90]
 2037 01cc 009D     		ldr	r5, [sp]
 2038 01ce 019F     		ldr	r7, [sp, #4]
 2039 01d0 08E0     		b	.L233
 2040              	.L265:
 2041 01d2 0223     		movs	r3, #2
 2042 01d4 8DF84C30 		strb	r3, [sp, #76]
 2043 01d8 1FE0     		b	.L234
 2044              	.L235:
 2045 01da 0FA9     		add	r1, sp, #60
 2046 01dc 4846     		mov	r0, r9
 2047 01de FFF7FEFF 		bl	lv_draw_sw_blend
 2048 01e2 0134     		adds	r4, r4, #1
 2049              	.L233:
 2050 01e4 BDF95E30 		ldrsh	r3, [sp, #94]
 2051 01e8 A342     		cmp	r3, r4
 2052 01ea C0F2BB80 		blt	.L237
 2053 01ee 0FFA84FB 		sxth	fp, r4
 2054 01f2 ADF81EB0 		strh	fp, [sp, #30]	@ movhi
 2055 01f6 ADF822B0 		strh	fp, [sp, #34]	@ movhi
 2056 01fa 3246     		mov	r2, r6
 2057 01fc 2946     		mov	r1, r5
 2058 01fe 4046     		mov	r0, r8
 2059 0200 FFF7FEFF 		bl	lv_memset
 2060 0204 3346     		mov	r3, r6
 2061 0206 5A46     		mov	r2, fp
ARM GAS  /var/folders/lp/x54gwt890xv47sdkqj1k04q40000gn/T//ccNe59Kt.s 			page 37


 2062 0208 BDF95810 		ldrsh	r1, [sp, #88]
 2063 020c 4046     		mov	r0, r8
 2064 020e FFF7FEFF 		bl	lv_draw_mask_apply
 2065 0212 8DF84C00 		strb	r0, [sp, #76]
 2066 0216 0128     		cmp	r0, #1
 2067 0218 DBD0     		beq	.L265
 2068              	.L234:
 2069 021a BAF1010F 		cmp	r10, #1
 2070 021e DCD1     		bne	.L235
 2071 0220 BA68     		ldr	r2, [r7, #8]
 2072 0222 BDF96230 		ldrsh	r3, [sp, #98]
 2073 0226 E31A     		subs	r3, r4, r3
 2074 0228 32F81330 		ldrh	r3, [r2, r3, lsl #1]
 2075 022c ADF84430 		strh	r3, [sp, #68]	@ movhi
 2076 0230 D3E7     		b	.L235
 2077              	.L267:
 2078 0232 0223     		movs	r3, #2
 2079 0234 8DF84C30 		strb	r3, [sp, #76]
 2080 0238 31E0     		b	.L240
 2081              	.L268:
 2082 023a 019B     		ldr	r3, [sp, #4]
 2083 023c 9B68     		ldr	r3, [r3, #8]
 2084 023e BDF96220 		ldrsh	r2, [sp, #98]
 2085 0242 A41A     		subs	r4, r4, r2
 2086 0244 33F81430 		ldrh	r3, [r3, r4, lsl #1]
 2087 0248 ADF84430 		strh	r3, [sp, #68]	@ movhi
 2088 024c 32E0     		b	.L242
 2089              	.L243:
 2090 024e 0FA9     		add	r1, sp, #60
 2091 0250 4846     		mov	r0, r9
 2092 0252 FFF7FEFF 		bl	lv_draw_sw_blend
 2093              	.L239:
 2094 0256 0137     		adds	r7, r7, #1
 2095              	.L232:
 2096 0258 5F45     		cmp	r7, fp
 2097 025a 44DA     		bge	.L266
 2098 025c BDF86240 		ldrh	r4, [sp, #98]
 2099 0260 BBB2     		uxth	r3, r7
 2100 0262 1C44     		add	r4, r4, r3
 2101 0264 24B2     		sxth	r4, r4
 2102 0266 BDF86650 		ldrh	r5, [sp, #102]
 2103 026a ED1A     		subs	r5, r5, r3
 2104 026c 2DB2     		sxth	r5, r5
 2105 026e BDF95A30 		ldrsh	r3, [sp, #90]
 2106 0272 A342     		cmp	r3, r4
 2107 0274 03DD     		ble	.L238
 2108 0276 BDF95E30 		ldrsh	r3, [sp, #94]
 2109 027a AB42     		cmp	r3, r5
 2110 027c EBDB     		blt	.L239
 2111              	.L238:
 2112 027e 3246     		mov	r2, r6
 2113 0280 0099     		ldr	r1, [sp]
 2114 0282 4046     		mov	r0, r8
 2115 0284 FFF7FEFF 		bl	lv_memset
 2116 0288 3346     		mov	r3, r6
 2117 028a 2246     		mov	r2, r4
 2118 028c BDF91C10 		ldrsh	r1, [sp, #28]
ARM GAS  /var/folders/lp/x54gwt890xv47sdkqj1k04q40000gn/T//ccNe59Kt.s 			page 38


 2119 0290 4046     		mov	r0, r8
 2120 0292 FFF7FEFF 		bl	lv_draw_mask_apply
 2121 0296 8DF84C00 		strb	r0, [sp, #76]
 2122 029a 0128     		cmp	r0, #1
 2123 029c C9D0     		beq	.L267
 2124              	.L240:
 2125 029e BDF95A30 		ldrsh	r3, [sp, #90]
 2126 02a2 A342     		cmp	r3, r4
 2127 02a4 0ADC     		bgt	.L241
 2128 02a6 ADF81E40 		strh	r4, [sp, #30]	@ movhi
 2129 02aa ADF82240 		strh	r4, [sp, #34]	@ movhi
 2130 02ae BAF1010F 		cmp	r10, #1
 2131 02b2 C2D0     		beq	.L268
 2132              	.L242:
 2133 02b4 0FA9     		add	r1, sp, #60
 2134 02b6 4846     		mov	r0, r9
 2135 02b8 FFF7FEFF 		bl	lv_draw_sw_blend
 2136              	.L241:
 2137 02bc BDF95E30 		ldrsh	r3, [sp, #94]
 2138 02c0 AB42     		cmp	r3, r5
 2139 02c2 C8DB     		blt	.L239
 2140 02c4 ADF81E50 		strh	r5, [sp, #30]	@ movhi
 2141 02c8 ADF82250 		strh	r5, [sp, #34]	@ movhi
 2142 02cc BAF1010F 		cmp	r10, #1
 2143 02d0 BDD1     		bne	.L243
 2144 02d2 019B     		ldr	r3, [sp, #4]
 2145 02d4 9B68     		ldr	r3, [r3, #8]
 2146 02d6 BDF96220 		ldrsh	r2, [sp, #98]
 2147 02da AD1A     		subs	r5, r5, r2
 2148 02dc 33F81530 		ldrh	r3, [r3, r5, lsl #1]
 2149 02e0 ADF84430 		strh	r3, [sp, #68]	@ movhi
 2150 02e4 B3E7     		b	.L243
 2151              	.L266:
 2152 02e6 BDF96030 		ldrsh	r3, [sp, #96]
 2153 02ea ADF81430 		strh	r3, [sp, #20]	@ movhi
 2154 02ee BDF96430 		ldrsh	r3, [sp, #100]
 2155 02f2 ADF81830 		strh	r3, [sp, #24]	@ movhi
 2156 02f6 BDF86230 		ldrh	r3, [sp, #98]
 2157 02fa 1FFA8BF4 		uxth	r4, fp
 2158 02fe 2344     		add	r3, r3, r4
 2159 0300 ADF81630 		strh	r3, [sp, #22]	@ movhi
 2160 0304 BDF86630 		ldrh	r3, [sp, #102]
 2161 0308 1B1B     		subs	r3, r3, r4
 2162 030a ADF81A30 		strh	r3, [sp, #26]	@ movhi
 2163 030e 05A8     		add	r0, sp, #20
 2164 0310 FFF7FEFF 		bl	lv_draw_mask_is_any
 2165 0314 0546     		mov	r5, r0
 2166 0316 10B9     		cbnz	r0, .L245
 2167 0318 BAF1000F 		cmp	r10, #0
 2168 031c 0FD0     		beq	.L269
 2169              	.L245:
 2170 031e 009B     		ldr	r3, [sp]
 2171 0320 8DF85430 		strb	r3, [sp, #84]
 2172 0324 0123     		movs	r3, #1
 2173 0326 8DF84C30 		strb	r3, [sp, #76]
 2174 032a BDF96640 		ldrsh	r4, [sp, #102]
 2175 032e A4EB0B04 		sub	r4, r4, fp
ARM GAS  /var/folders/lp/x54gwt890xv47sdkqj1k04q40000gn/T//ccNe59Kt.s 			page 39


 2176 0332 BDF96270 		ldrsh	r7, [sp, #98]
 2177 0336 5F44     		add	r7, r7, fp
 2178 0338 DDF804B0 		ldr	fp, [sp, #4]
 2179 033c 38E0     		b	.L246
 2180              	.L269:
 2181 033e BDF86230 		ldrh	r3, [sp, #98]
 2182 0342 2344     		add	r3, r3, r4
 2183 0344 ADF81E30 		strh	r3, [sp, #30]	@ movhi
 2184 0348 BDF86630 		ldrh	r3, [sp, #102]
 2185 034c 1B1B     		subs	r3, r3, r4
 2186 034e ADF82230 		strh	r3, [sp, #34]	@ movhi
 2187 0352 009B     		ldr	r3, [sp]
 2188 0354 8DF85430 		strb	r3, [sp, #84]
 2189 0358 0023     		movs	r3, #0
 2190 035a 1293     		str	r3, [sp, #72]
 2191 035c 0FA9     		add	r1, sp, #60
 2192 035e 4846     		mov	r0, r9
 2193 0360 FFF7FEFF 		bl	lv_draw_sw_blend
 2194              	.L237:
 2195 0364 B8F1000F 		cmp	r8, #0
 2196 0368 02D0     		beq	.L250
 2197 036a 4046     		mov	r0, r8
 2198 036c FFF7FEFF 		bl	lv_mem_buf_release
 2199              	.L250:
 2200 0370 039B     		ldr	r3, [sp, #12]
 2201 0372 B3F1FF3F 		cmp	r3, #-1
 2202 0376 31D1     		bne	.L270
 2203              	.L251:
 2204 0378 019B     		ldr	r3, [sp, #4]
 2205 037a 13B1     		cbz	r3, .L221
 2206 037c 1846     		mov	r0, r3
 2207 037e FFF7FEFF 		bl	lv_gradient_cleanup
 2208              	.L221:
 2209 0382 1BB0     		add	sp, sp, #108
 2210              		@ sp needed
 2211 0384 BDE8F08F 		pop	{r4, r5, r6, r7, r8, r9, r10, fp, pc}
 2212              	.L271:
 2213 0388 3246     		mov	r2, r6
 2214 038a 0099     		ldr	r1, [sp]
 2215 038c 4046     		mov	r0, r8
 2216 038e FFF7FEFF 		bl	lv_memset
 2217 0392 3346     		mov	r3, r6
 2218 0394 3AB2     		sxth	r2, r7
 2219 0396 BDF95810 		ldrsh	r1, [sp, #88]
 2220 039a 4046     		mov	r0, r8
 2221 039c FFF7FEFF 		bl	lv_draw_mask_apply
 2222 03a0 8DF84C00 		strb	r0, [sp, #76]
 2223 03a4 08E0     		b	.L247
 2224              	.L248:
 2225 03a6 0FA9     		add	r1, sp, #60
 2226 03a8 4846     		mov	r0, r9
 2227 03aa FFF7FEFF 		bl	lv_draw_sw_blend
 2228 03ae 0137     		adds	r7, r7, #1
 2229              	.L246:
 2230 03b0 A742     		cmp	r7, r4
 2231 03b2 D7DC     		bgt	.L237
 2232 03b4 002D     		cmp	r5, #0
ARM GAS  /var/folders/lp/x54gwt890xv47sdkqj1k04q40000gn/T//ccNe59Kt.s 			page 40


 2233 03b6 E7D1     		bne	.L271
 2234              	.L247:
 2235 03b8 3BB2     		sxth	r3, r7
 2236 03ba ADF81E30 		strh	r3, [sp, #30]	@ movhi
 2237 03be ADF82230 		strh	r3, [sp, #34]	@ movhi
 2238 03c2 BAF1010F 		cmp	r10, #1
 2239 03c6 EED1     		bne	.L248
 2240 03c8 DBF80820 		ldr	r2, [fp, #8]
 2241 03cc BDF96230 		ldrsh	r3, [sp, #98]
 2242 03d0 FB1A     		subs	r3, r7, r3
 2243 03d2 32F81330 		ldrh	r3, [r2, r3, lsl #1]
 2244 03d6 ADF84430 		strh	r3, [sp, #68]	@ movhi
 2245 03da E4E7     		b	.L248
 2246              	.L270:
 2247 03dc 1846     		mov	r0, r3
 2248 03de FFF7FEFF 		bl	lv_draw_mask_remove_id
 2249 03e2 09A8     		add	r0, sp, #36
 2250 03e4 FFF7FEFF 		bl	lv_draw_mask_free_param
 2251 03e8 C6E7     		b	.L251
 2252              	.L258:
 2253 03ea 7047     		bx	lr
 2255              		.section	.text.draw_bg_img,"ax",%progbits
 2256              		.align	1
 2257              		.syntax unified
 2258              		.thumb
 2259              		.thumb_func
 2261              	draw_bg_img:
 2262              		@ args = 0, pretend = 0, frame = 56
 2263              		@ frame_needed = 0, uses_anonymous_args = 0
 2264 0000 0B69     		ldr	r3, [r1, #16]
 2265 0002 002B     		cmp	r3, #0
 2266 0004 00F01A81 		beq	.L285
 2267 0008 2DE9F041 		push	{r4, r5, r6, r7, r8, lr}
 2268 000c 92B0     		sub	sp, sp, #72
 2269 000e 0646     		mov	r6, r0
 2270 0010 0C46     		mov	r4, r1
 2271 0012 1546     		mov	r5, r2
 2272 0014 8B7E     		ldrb	r3, [r1, #26]	@ zero_extendqisi2
 2273 0016 022B     		cmp	r3, #2
 2274 0018 02D8     		bhi	.L288
 2275              	.L272:
 2276 001a 12B0     		add	sp, sp, #72
 2277              		@ sp needed
 2278 001c BDE8F081 		pop	{r4, r5, r6, r7, r8, pc}
 2279              	.L288:
 2280 0020 8268     		ldr	r2, [r0, #8]
 2281 0022 2946     		mov	r1, r5
 2282 0024 10A8     		add	r0, sp, #64
 2283 0026 FFF7FEFF 		bl	_lv_area_intersect
 2284 002a 0028     		cmp	r0, #0
 2285 002c F5D0     		beq	.L272
 2286 002e B768     		ldr	r7, [r6, #8]
 2287 0030 10AB     		add	r3, sp, #64
 2288 0032 B360     		str	r3, [r6, #8]
 2289 0034 2069     		ldr	r0, [r4, #16]
 2290 0036 FFF7FEFF 		bl	lv_img_src_get_type
 2291 003a 0228     		cmp	r0, #2
ARM GAS  /var/folders/lp/x54gwt890xv47sdkqj1k04q40000gn/T//ccNe59Kt.s 			page 41


 2292 003c 07D0     		beq	.L289
 2293 003e 05A9     		add	r1, sp, #20
 2294 0040 2069     		ldr	r0, [r4, #16]
 2295 0042 FFF7FEFF 		bl	lv_img_decoder_get_info
 2296 0046 0128     		cmp	r0, #1
 2297 0048 5AD0     		beq	.L290
 2298              	.L275:
 2299 004a B760     		str	r7, [r6, #8]
 2300 004c E5E7     		b	.L272
 2301              	.L289:
 2302 004e 4FF00008 		mov	r8, #0
 2303 0052 CDF80880 		str	r8, [sp, #8]
 2304 0056 41F6FF73 		movw	r3, #8191
 2305 005a 0193     		str	r3, [sp, #4]
 2306 005c CDF80080 		str	r8, [sp]
 2307 0060 4346     		mov	r3, r8
 2308 0062 6269     		ldr	r2, [r4, #20]
 2309 0064 2169     		ldr	r1, [r4, #16]
 2310 0066 05A8     		add	r0, sp, #20
 2311 0068 FFF7FEFF 		bl	lv_txt_get_size
 2312 006c 2B88     		ldrh	r3, [r5]
 2313 006e AA88     		ldrh	r2, [r5, #4]
 2314 0070 D21A     		subs	r2, r2, r3
 2315 0072 92B2     		uxth	r2, r2
 2316 0074 0132     		adds	r2, r2, #1
 2317 0076 C2F3C031 		ubfx	r1, r2, #15, #1
 2318 007a 01FA82F2 		sxtah	r2, r1, r2
 2319 007e 03EB6203 		add	r3, r3, r2, asr #1
 2320 0082 9BB2     		uxth	r3, r3
 2321 0084 BDF91420 		ldrsh	r2, [sp, #20]
 2322 0088 02EBD271 		add	r1, r2, r2, lsr #31
 2323 008c A3EB6103 		sub	r3, r3, r1, asr #1
 2324 0090 ADF81830 		strh	r3, [sp, #24]	@ movhi
 2325 0094 92B2     		uxth	r2, r2
 2326 0096 12FA83F3 		uxtah	r3, r2, r3
 2327 009a 9BB2     		uxth	r3, r3
 2328 009c 013B     		subs	r3, r3, #1
 2329 009e ADF81C30 		strh	r3, [sp, #28]	@ movhi
 2330 00a2 6B88     		ldrh	r3, [r5, #2]
 2331 00a4 EA88     		ldrh	r2, [r5, #6]
 2332 00a6 D21A     		subs	r2, r2, r3
 2333 00a8 92B2     		uxth	r2, r2
 2334 00aa 0132     		adds	r2, r2, #1
 2335 00ac C2F3C031 		ubfx	r1, r2, #15, #1
 2336 00b0 01FA82F2 		sxtah	r2, r1, r2
 2337 00b4 03EB6203 		add	r3, r3, r2, asr #1
 2338 00b8 9BB2     		uxth	r3, r3
 2339 00ba BDF91620 		ldrsh	r2, [sp, #22]
 2340 00be 02EBD271 		add	r1, r2, r2, lsr #31
 2341 00c2 A3EB6103 		sub	r3, r3, r1, asr #1
 2342 00c6 ADF81A30 		strh	r3, [sp, #26]	@ movhi
 2343 00ca 92B2     		uxth	r2, r2
 2344 00cc 12FA83F3 		uxtah	r3, r2, r3
 2345 00d0 9BB2     		uxth	r3, r3
 2346 00d2 013B     		subs	r3, r3, #1
 2347 00d4 ADF81E30 		strh	r3, [sp, #30]	@ movhi
 2348 00d8 08A8     		add	r0, sp, #32
ARM GAS  /var/folders/lp/x54gwt890xv47sdkqj1k04q40000gn/T//ccNe59Kt.s 			page 42


 2349 00da FFF7FEFF 		bl	lv_draw_label_dsc_init
 2350 00de 6369     		ldr	r3, [r4, #20]
 2351 00e0 0893     		str	r3, [sp, #32]
 2352 00e2 238B     		ldrh	r3, [r4, #24]
 2353 00e4 ADF82C30 		strh	r3, [sp, #44]	@ movhi
 2354 00e8 A37E     		ldrb	r3, [r4, #26]	@ zero_extendqisi2
 2355 00ea 8DF83A30 		strb	r3, [sp, #58]
 2356 00ee CDF80080 		str	r8, [sp]
 2357 00f2 2369     		ldr	r3, [r4, #16]
 2358 00f4 06AA     		add	r2, sp, #24
 2359 00f6 08A9     		add	r1, sp, #32
 2360 00f8 3046     		mov	r0, r6
 2361 00fa FFF7FEFF 		bl	lv_draw_label
 2362 00fe A4E7     		b	.L275
 2363              	.L290:
 2364 0100 08A8     		add	r0, sp, #32
 2365 0102 FFF7FEFF 		bl	lv_draw_img_dsc_init
 2366 0106 A278     		ldrb	r2, [r4, #2]	@ zero_extendqisi2
 2367 0108 9DF82C30 		ldrb	r3, [sp, #44]	@ zero_extendqisi2
 2368 010c 62F30303 		bfi	r3, r2, #0, #4
 2369 0110 8DF82C30 		strb	r3, [sp, #44]
 2370 0114 238B     		ldrh	r3, [r4, #24]
 2371 0116 ADF82830 		strh	r3, [sp, #40]	@ movhi
 2372 011a E37E     		ldrb	r3, [r4, #27]	@ zero_extendqisi2
 2373 011c 8DF82A30 		strb	r3, [sp, #42]
 2374 0120 A37E     		ldrb	r3, [r4, #26]	@ zero_extendqisi2
 2375 0122 8DF82B30 		strb	r3, [sp, #43]
 2376 0126 237F     		ldrb	r3, [r4, #28]	@ zero_extendqisi2
 2377 0128 73B1     		cbz	r3, .L291
 2378 012a B5F90230 		ldrsh	r3, [r5, #2]
 2379 012e ADF81A30 		strh	r3, [sp, #26]	@ movhi
 2380 0132 BDF81620 		ldrh	r2, [sp, #22]
 2381 0136 C2F34A12 		ubfx	r2, r2, #5, #11
 2382 013a 12FA83F3 		uxtah	r3, r2, r3
 2383 013e 9BB2     		uxth	r3, r3
 2384 0140 013B     		subs	r3, r3, #1
 2385 0142 ADF81E30 		strh	r3, [sp, #30]	@ movhi
 2386 0146 64E0     		b	.L279
 2387              	.L291:
 2388 0148 2A88     		ldrh	r2, [r5]
 2389 014a AB88     		ldrh	r3, [r5, #4]
 2390 014c 9B1A     		subs	r3, r3, r2
 2391 014e 9BB2     		uxth	r3, r3
 2392 0150 0133     		adds	r3, r3, #1
 2393 0152 C3F3C031 		ubfx	r1, r3, #15, #1
 2394 0156 01FA83F3 		sxtah	r3, r1, r3
 2395 015a 02EB6302 		add	r2, r2, r3, asr #1
 2396 015e 059B     		ldr	r3, [sp, #20]
 2397 0160 C3F38A20 		ubfx	r0, r3, #10, #11
 2398 0164 C3F3C923 		ubfx	r3, r3, #11, #10
 2399 0168 5B42     		rsbs	r3, r3, #0
 2400 016a 13FA82F2 		uxtah	r2, r3, r2
 2401 016e ADF81820 		strh	r2, [sp, #24]	@ movhi
 2402 0172 6B88     		ldrh	r3, [r5, #2]
 2403 0174 E988     		ldrh	r1, [r5, #6]
 2404 0176 C91A     		subs	r1, r1, r3
 2405 0178 89B2     		uxth	r1, r1
ARM GAS  /var/folders/lp/x54gwt890xv47sdkqj1k04q40000gn/T//ccNe59Kt.s 			page 43


 2406 017a 0131     		adds	r1, r1, #1
 2407 017c C1F3C035 		ubfx	r5, r1, #15, #1
 2408 0180 05FA81F1 		sxtah	r1, r5, r1
 2409 0184 03EB6103 		add	r3, r3, r1, asr #1
 2410 0188 BDF81610 		ldrh	r1, [sp, #22]
 2411 018c C1F34A15 		ubfx	r5, r1, #5, #11
 2412 0190 C1F38911 		ubfx	r1, r1, #6, #10
 2413 0194 4942     		rsbs	r1, r1, #0
 2414 0196 11FA83F3 		uxtah	r3, r1, r3
 2415 019a ADF81A30 		strh	r3, [sp, #26]	@ movhi
 2416 019e 10FA82F2 		uxtah	r2, r0, r2
 2417 01a2 92B2     		uxth	r2, r2
 2418 01a4 013A     		subs	r2, r2, #1
 2419 01a6 ADF81C20 		strh	r2, [sp, #28]	@ movhi
 2420 01aa 15FA83F3 		uxtah	r3, r5, r3
 2421 01ae 9BB2     		uxth	r3, r3
 2422 01b0 013B     		subs	r3, r3, #1
 2423 01b2 ADF81E30 		strh	r3, [sp, #30]	@ movhi
 2424 01b6 2369     		ldr	r3, [r4, #16]
 2425 01b8 06AA     		add	r2, sp, #24
 2426 01ba 08A9     		add	r1, sp, #32
 2427 01bc 3046     		mov	r0, r6
 2428 01be FFF7FEFF 		bl	lv_draw_img
 2429 01c2 42E7     		b	.L275
 2430              	.L281:
 2431 01c4 2369     		ldr	r3, [r4, #16]
 2432 01c6 06AA     		add	r2, sp, #24
 2433 01c8 08A9     		add	r1, sp, #32
 2434 01ca 3046     		mov	r0, r6
 2435 01cc FFF7FEFF 		bl	lv_draw_img
 2436 01d0 BDF81820 		ldrh	r2, [sp, #24]
 2437 01d4 059B     		ldr	r3, [sp, #20]
 2438 01d6 C3F38A23 		ubfx	r3, r3, #10, #11
 2439 01da 1A44     		add	r2, r2, r3
 2440 01dc ADF81820 		strh	r2, [sp, #24]	@ movhi
 2441 01e0 BDF81C20 		ldrh	r2, [sp, #28]
 2442 01e4 1344     		add	r3, r3, r2
 2443 01e6 ADF81C30 		strh	r3, [sp, #28]	@ movhi
 2444              	.L280:
 2445 01ea BDF91820 		ldrsh	r2, [sp, #24]
 2446 01ee B5F90430 		ldrsh	r3, [r5, #4]
 2447 01f2 9A42     		cmp	r2, r3
 2448 01f4 E6DD     		ble	.L281
 2449 01f6 BDF81A20 		ldrh	r2, [sp, #26]
 2450 01fa BDF81630 		ldrh	r3, [sp, #22]
 2451 01fe C3F34A13 		ubfx	r3, r3, #5, #11
 2452 0202 1A44     		add	r2, r2, r3
 2453 0204 ADF81A20 		strh	r2, [sp, #26]	@ movhi
 2454 0208 BDF81E20 		ldrh	r2, [sp, #30]
 2455 020c 1344     		add	r3, r3, r2
 2456 020e ADF81E30 		strh	r3, [sp, #30]	@ movhi
 2457              	.L279:
 2458 0212 BDF91A20 		ldrsh	r2, [sp, #26]
 2459 0216 B5F90630 		ldrsh	r3, [r5, #6]
 2460 021a 9A42     		cmp	r2, r3
 2461 021c 3FF715AF 		bgt	.L275
 2462 0220 B5F90030 		ldrsh	r3, [r5]
ARM GAS  /var/folders/lp/x54gwt890xv47sdkqj1k04q40000gn/T//ccNe59Kt.s 			page 44


 2463 0224 ADF81830 		strh	r3, [sp, #24]	@ movhi
 2464 0228 059A     		ldr	r2, [sp, #20]
 2465 022a C2F38A22 		ubfx	r2, r2, #10, #11
 2466 022e 12FA83F3 		uxtah	r3, r2, r3
 2467 0232 9BB2     		uxth	r3, r3
 2468 0234 013B     		subs	r3, r3, #1
 2469 0236 ADF81C30 		strh	r3, [sp, #28]	@ movhi
 2470 023a D6E7     		b	.L280
 2471              	.L285:
 2472 023c 7047     		bx	lr
 2474              		.section	.text.lv_draw_sw_bg,"ax",%progbits
 2475              		.align	1
 2476              		.global	lv_draw_sw_bg
 2477              		.syntax unified
 2478              		.thumb
 2479              		.thumb_func
 2481              	lv_draw_sw_bg:
 2482              		@ args = 0, pretend = 0, frame = 0
 2483              		@ frame_needed = 0, uses_anonymous_args = 0
 2484 0000 70B5     		push	{r4, r5, r6, lr}
 2485 0002 0446     		mov	r4, r0
 2486 0004 0D46     		mov	r5, r1
 2487 0006 1646     		mov	r6, r2
 2488 0008 FFF7FEFF 		bl	draw_bg
 2489 000c 3246     		mov	r2, r6
 2490 000e 2946     		mov	r1, r5
 2491 0010 2046     		mov	r0, r4
 2492 0012 FFF7FEFF 		bl	draw_bg_img
 2493 0016 70BD     		pop	{r4, r5, r6, pc}
 2495              		.section	.text.draw_border_generic,"ax",%progbits
 2496              		.align	1
 2497              		.global	draw_border_generic
 2498              		.syntax unified
 2499              		.thumb
 2500              		.thumb_func
 2502              	draw_border_generic:
 2503              		@ args = 16, pretend = 0, frame = 160
 2504              		@ frame_needed = 0, uses_anonymous_args = 0
 2505 0000 2DE9F04F 		push	{r4, r5, r6, r7, r8, r9, r10, fp, lr}
 2506 0004 ABB0     		sub	sp, sp, #172
 2507 0006 0646     		mov	r6, r0
 2508 0008 0C46     		mov	r4, r1
 2509 000a 0392     		str	r2, [sp, #12]
 2510 000c 1F46     		mov	r7, r3
 2511 000e BDF9D090 		ldrsh	r9, [sp, #208]
 2512 0012 9DF8D8A0 		ldrb	r10, [sp, #216]	@ zero_extendqisi2
 2513 0016 0846     		mov	r0, r1
 2514 0018 FFF7FEFF 		bl	lv_draw_mask_is_any
 2515 001c 0690     		str	r0, [sp, #24]
 2516 001e 18B9     		cbnz	r0, .L295
 2517 0020 17B9     		cbnz	r7, .L295
 2518 0022 B9F1000F 		cmp	r9, #0
 2519 0026 09D0     		beq	.L337
 2520              	.L295:
 2521 0028 B268     		ldr	r2, [r6, #8]
 2522 002a 2146     		mov	r1, r4
 2523 002c 28A8     		add	r0, sp, #160
ARM GAS  /var/folders/lp/x54gwt890xv47sdkqj1k04q40000gn/T//ccNe59Kt.s 			page 45


 2524 002e FFF7FEFF 		bl	_lv_area_intersect
 2525 0032 0590     		str	r0, [sp, #20]
 2526 0034 60B9     		cbnz	r0, .L338
 2527              	.L294:
 2528 0036 2BB0     		add	sp, sp, #172
 2529              		@ sp needed
 2530 0038 BDE8F08F 		pop	{r4, r5, r6, r7, r8, r9, r10, fp, pc}
 2531              	.L337:
 2532 003c CDF800A0 		str	r10, [sp]
 2533 0040 BDF8D430 		ldrh	r3, [sp, #212]
 2534 0044 039A     		ldr	r2, [sp, #12]
 2535 0046 2146     		mov	r1, r4
 2536 0048 3046     		mov	r0, r6
 2537 004a FFF7FEFF 		bl	draw_border_simple
 2538 004e F2E7     		b	.L294
 2539              	.L338:
 2540 0050 BDF8A450 		ldrh	r5, [sp, #164]
 2541 0054 BDF8A030 		ldrh	r3, [sp, #160]
 2542 0058 ED1A     		subs	r5, r5, r3
 2543 005a ADB2     		uxth	r5, r5
 2544 005c 0135     		adds	r5, r5, #1
 2545 005e 2DB2     		sxth	r5, r5
 2546 0060 1C21     		movs	r1, #28
 2547 0062 21A8     		add	r0, sp, #132
 2548 0064 FFF7FEFF 		bl	lv_memset_00
 2549 0068 2846     		mov	r0, r5
 2550 006a FFF7FEFF 		bl	lv_mem_buf_get
 2551 006e 2490     		str	r0, [sp, #144]
 2552 0070 002F     		cmp	r7, #0
 2553 0072 00F3A480 		bgt	.L339
 2554 0076 4FF0FF33 		mov	r3, #-1
 2555 007a 0D93     		str	r3, [sp, #52]
 2556              	.L297:
 2557 007c 0123     		movs	r3, #1
 2558 007e 4A46     		mov	r2, r9
 2559 0080 DDF80C80 		ldr	r8, [sp, #12]
 2560 0084 4146     		mov	r1, r8
 2561 0086 15A8     		add	r0, sp, #84
 2562 0088 FFF7FEFF 		bl	lv_draw_mask_radius_init
 2563 008c 0021     		movs	r1, #0
 2564 008e 15A8     		add	r0, sp, #84
 2565 0090 FFF7FEFF 		bl	lv_draw_mask_add
 2566 0094 0C90     		str	r0, [sp, #48]
 2567 0096 13AB     		add	r3, sp, #76
 2568 0098 2193     		str	r3, [sp, #132]
 2569 009a 2693     		str	r3, [sp, #152]
 2570 009c BDF8D430 		ldrh	r3, [sp, #212]
 2571 00a0 ADF88C30 		strh	r3, [sp, #140]	@ movhi
 2572 00a4 8DF89CA0 		strb	r10, [sp, #156]
 2573 00a8 9DF8DC30 		ldrb	r3, [sp, #220]	@ zero_extendqisi2
 2574 00ac 8DF89D30 		strb	r3, [sp, #157]
 2575 00b0 B8F90030 		ldrsh	r3, [r8]
 2576 00b4 0793     		str	r3, [sp, #28]
 2577 00b6 B4F90020 		ldrsh	r2, [r4]
 2578 00ba 0892     		str	r2, [sp, #32]
 2579 00bc 3A44     		add	r2, r2, r7
 2580 00be 9A42     		cmp	r2, r3
ARM GAS  /var/folders/lp/x54gwt890xv47sdkqj1k04q40000gn/T//ccNe59Kt.s 			page 46


 2581 00c0 B8BF     		it	lt
 2582 00c2 1A46     		movlt	r2, r3
 2583 00c4 13B2     		sxth	r3, r2
 2584 00c6 0E93     		str	r3, [sp, #56]
 2585 00c8 ADF84430 		strh	r3, [sp, #68]	@ movhi
 2586 00cc B8F90400 		ldrsh	r0, [r8, #4]
 2587 00d0 0990     		str	r0, [sp, #36]
 2588 00d2 B4F90430 		ldrsh	r3, [r4, #4]
 2589 00d6 0A93     		str	r3, [sp, #40]
 2590 00d8 DB1B     		subs	r3, r3, r7
 2591 00da 8342     		cmp	r3, r0
 2592 00dc A8BF     		it	ge
 2593 00de 0346     		movge	r3, r0
 2594 00e0 18B2     		sxth	r0, r3
 2595 00e2 0F90     		str	r0, [sp, #60]
 2596 00e4 ADF84800 		strh	r0, [sp, #72]	@ movhi
 2597 00e8 B8F902B0 		ldrsh	fp, [r8, #2]
 2598 00ec B4F902A0 		ldrsh	r10, [r4, #2]
 2599 00f0 07EB0A09 		add	r9, r7, r10
 2600 00f4 D945     		cmp	r9, fp
 2601 00f6 B8BF     		it	lt
 2602 00f8 D946     		movlt	r9, fp
 2603 00fa 0FFA89F9 		sxth	r9, r9
 2604 00fe ADF84690 		strh	r9, [sp, #70]	@ movhi
 2605 0102 B8F90610 		ldrsh	r1, [r8, #6]
 2606 0106 0846     		mov	r0, r1
 2607 0108 0B91     		str	r1, [sp, #44]
 2608 010a B4F90680 		ldrsh	r8, [r4, #6]
 2609 010e A8EB0701 		sub	r1, r8, r7
 2610 0112 8142     		cmp	r1, r0
 2611 0114 A8BF     		it	ge
 2612 0116 0146     		movge	r1, r0
 2613 0118 09B2     		sxth	r1, r1
 2614 011a 0491     		str	r1, [sp, #16]
 2615 011c ADF84A10 		strh	r1, [sp, #74]	@ movhi
 2616 0120 9BB2     		uxth	r3, r3
 2617 0122 92B2     		uxth	r2, r2
 2618 0124 9B1A     		subs	r3, r3, r2
 2619 0126 9BB2     		uxth	r3, r3
 2620 0128 0133     		adds	r3, r3, #1
 2621 012a 1BB2     		sxth	r3, r3
 2622 012c 069A     		ldr	r2, [sp, #24]
 2623 012e 002A     		cmp	r2, #0
 2624 0130 51D1     		bne	.L340
 2625 0132 079A     		ldr	r2, [sp, #28]
 2626 0134 0899     		ldr	r1, [sp, #32]
 2627 0136 8A42     		cmp	r2, r1
 2628 0138 0CDB     		blt	.L306
 2629 013a 099A     		ldr	r2, [sp, #36]
 2630 013c 0A99     		ldr	r1, [sp, #40]
 2631 013e 8A42     		cmp	r2, r1
 2632 0140 08DC     		bgt	.L306
 2633 0142 D345     		cmp	fp, r10
 2634 0144 06DB     		blt	.L306
 2635 0146 0B9A     		ldr	r2, [sp, #44]
 2636 0148 4245     		cmp	r2, r8
 2637 014a 03DC     		bgt	.L306
ARM GAS  /var/folders/lp/x54gwt890xv47sdkqj1k04q40000gn/T//ccNe59Kt.s 			page 47


 2638 014c 312B     		cmp	r3, #49
 2639 014e 01DC     		bgt	.L306
 2640 0150 069B     		ldr	r3, [sp, #24]
 2641 0152 0593     		str	r3, [sp, #20]
 2642              	.L306:
 2643 0154 0123     		movs	r3, #1
 2644 0156 8DF89430 		strb	r3, [sp, #148]
 2645 015a D345     		cmp	fp, r10
 2646 015c 03DB     		blt	.L307
 2647 015e 059B     		ldr	r3, [sp, #20]
 2648 0160 002B     		cmp	r3, #0
 2649 0162 40F08180 		bne	.L341
 2650              	.L307:
 2651 0166 0B9B     		ldr	r3, [sp, #44]
 2652 0168 4345     		cmp	r3, r8
 2653 016a 03DC     		bgt	.L308
 2654 016c 059B     		ldr	r3, [sp, #20]
 2655 016e 002B     		cmp	r3, #0
 2656 0170 40F08E80 		bne	.L342
 2657              	.L308:
 2658 0174 079B     		ldr	r3, [sp, #28]
 2659 0176 089A     		ldr	r2, [sp, #32]
 2660 0178 9342     		cmp	r3, r2
 2661 017a 80F29D80 		bge	.L343
 2662              	.L309:
 2663 017e 099B     		ldr	r3, [sp, #36]
 2664 0180 0A9A     		ldr	r2, [sp, #40]
 2665 0182 9342     		cmp	r3, r2
 2666 0184 40F3AB80 		ble	.L344
 2667              	.L310:
 2668 0188 059B     		ldr	r3, [sp, #20]
 2669 018a 002B     		cmp	r3, #0
 2670 018c 40F0FA80 		bne	.L311
 2671 0190 BDF9A030 		ldrsh	r3, [sp, #160]
 2672 0194 ADF84C30 		strh	r3, [sp, #76]	@ movhi
 2673 0198 BDF9A430 		ldrsh	r3, [sp, #164]
 2674 019c ADF85030 		strh	r3, [sp, #80]	@ movhi
 2675 01a0 039B     		ldr	r3, [sp, #12]
 2676 01a2 B3F902A0 		ldrsh	r10, [r3, #2]
 2677 01a6 B4F90230 		ldrsh	r3, [r4, #2]
 2678 01aa AAEB030A 		sub	r10, r10, r3
 2679 01ae BA45     		cmp	r10, r7
 2680 01b0 B8BF     		it	lt
 2681 01b2 BA46     		movlt	r10, r7
 2682 01b4 0FFA8AFA 		sxth	r10, r10
 2683 01b8 4FF00009 		mov	r9, #0
 2684 01bc B9E0     		b	.L312
 2685              	.L339:
 2686 01be 0023     		movs	r3, #0
 2687 01c0 3A46     		mov	r2, r7
 2688 01c2 2146     		mov	r1, r4
 2689 01c4 1BA8     		add	r0, sp, #108
 2690 01c6 FFF7FEFF 		bl	lv_draw_mask_radius_init
 2691 01ca 0021     		movs	r1, #0
 2692 01cc 1BA8     		add	r0, sp, #108
 2693 01ce FFF7FEFF 		bl	lv_draw_mask_add
 2694 01d2 0D90     		str	r0, [sp, #52]
ARM GAS  /var/folders/lp/x54gwt890xv47sdkqj1k04q40000gn/T//ccNe59Kt.s 			page 48


 2695 01d4 52E7     		b	.L297
 2696              	.L340:
 2697 01d6 BDF9A030 		ldrsh	r3, [sp, #160]
 2698 01da ADF84C30 		strh	r3, [sp, #76]	@ movhi
 2699 01de BDF9A430 		ldrsh	r3, [sp, #164]
 2700 01e2 ADF85030 		strh	r3, [sp, #80]	@ movhi
 2701 01e6 BDF9A240 		ldrsh	r4, [sp, #162]
 2702 01ea CDF80C90 		str	r9, [sp, #12]
 2703 01ee 8146     		mov	r9, r0
 2704 01f0 1BE0     		b	.L299
 2705              	.L300:
 2706 01f2 C145     		cmp	r9, r8
 2707 01f4 02DD     		ble	.L302
 2708 01f6 049B     		ldr	r3, [sp, #16]
 2709 01f8 A342     		cmp	r3, r4
 2710 01fa 20DB     		blt	.L303
 2711              	.L302:
 2712 01fc 27B2     		sxth	r7, r4
 2713 01fe ADF84E70 		strh	r7, [sp, #78]	@ movhi
 2714 0202 ADF85270 		strh	r7, [sp, #82]	@ movhi
 2715 0206 2946     		mov	r1, r5
 2716 0208 2498     		ldr	r0, [sp, #144]
 2717 020a FFF7FEFF 		bl	lv_memset_ff
 2718 020e 2B46     		mov	r3, r5
 2719 0210 3A46     		mov	r2, r7
 2720 0212 BDF9A010 		ldrsh	r1, [sp, #160]
 2721 0216 2498     		ldr	r0, [sp, #144]
 2722 0218 FFF7FEFF 		bl	lv_draw_mask_apply
 2723 021c 8DF89400 		strb	r0, [sp, #148]
 2724 0220 21A9     		add	r1, sp, #132
 2725 0222 3046     		mov	r0, r6
 2726 0224 FFF7FEFF 		bl	lv_draw_sw_blend
 2727              	.L301:
 2728 0228 0134     		adds	r4, r4, #1
 2729              	.L299:
 2730 022a BDF9A630 		ldrsh	r3, [sp, #166]
 2731 022e A342     		cmp	r3, r4
 2732 0230 05DB     		blt	.L303
 2733 0232 D345     		cmp	fp, r10
 2734 0234 DDDA     		bge	.L300
 2735 0236 039B     		ldr	r3, [sp, #12]
 2736 0238 A342     		cmp	r3, r4
 2737 023a DADD     		ble	.L300
 2738 023c F4E7     		b	.L301
 2739              	.L303:
 2740 023e 15A8     		add	r0, sp, #84
 2741 0240 FFF7FEFF 		bl	lv_draw_mask_free_param
 2742 0244 0C98     		ldr	r0, [sp, #48]
 2743 0246 FFF7FEFF 		bl	lv_draw_mask_remove_id
 2744 024a 0D9C     		ldr	r4, [sp, #52]
 2745 024c B4F1FF3F 		cmp	r4, #-1
 2746 0250 03D1     		bne	.L345
 2747              	.L305:
 2748 0252 2498     		ldr	r0, [sp, #144]
 2749 0254 FFF7FEFF 		bl	lv_mem_buf_release
 2750 0258 EDE6     		b	.L294
 2751              	.L345:
ARM GAS  /var/folders/lp/x54gwt890xv47sdkqj1k04q40000gn/T//ccNe59Kt.s 			page 49


 2752 025a 1BA8     		add	r0, sp, #108
 2753 025c FFF7FEFF 		bl	lv_draw_mask_free_param
 2754 0260 2046     		mov	r0, r4
 2755 0262 FFF7FEFF 		bl	lv_draw_mask_remove_id
 2756 0266 F4E7     		b	.L305
 2757              	.L341:
 2758 0268 0E9B     		ldr	r3, [sp, #56]
 2759 026a ADF84C30 		strh	r3, [sp, #76]	@ movhi
 2760 026e 0F9B     		ldr	r3, [sp, #60]
 2761 0270 ADF85030 		strh	r3, [sp, #80]	@ movhi
 2762 0274 B4F90230 		ldrsh	r3, [r4, #2]
 2763 0278 ADF84E30 		strh	r3, [sp, #78]	@ movhi
 2764 027c 039B     		ldr	r3, [sp, #12]
 2765 027e 5B88     		ldrh	r3, [r3, #2]
 2766 0280 013B     		subs	r3, r3, #1
 2767 0282 ADF85230 		strh	r3, [sp, #82]	@ movhi
 2768 0286 21A9     		add	r1, sp, #132
 2769 0288 3046     		mov	r0, r6
 2770 028a FFF7FEFF 		bl	lv_draw_sw_blend
 2771 028e 6AE7     		b	.L307
 2772              	.L342:
 2773 0290 0E9B     		ldr	r3, [sp, #56]
 2774 0292 ADF84C30 		strh	r3, [sp, #76]	@ movhi
 2775 0296 0F9B     		ldr	r3, [sp, #60]
 2776 0298 ADF85030 		strh	r3, [sp, #80]	@ movhi
 2777 029c 039B     		ldr	r3, [sp, #12]
 2778 029e DB88     		ldrh	r3, [r3, #6]
 2779 02a0 0133     		adds	r3, r3, #1
 2780 02a2 ADF84E30 		strh	r3, [sp, #78]	@ movhi
 2781 02a6 B4F90630 		ldrsh	r3, [r4, #6]
 2782 02aa ADF85230 		strh	r3, [sp, #82]	@ movhi
 2783 02ae 21A9     		add	r1, sp, #132
 2784 02b0 3046     		mov	r0, r6
 2785 02b2 FFF7FEFF 		bl	lv_draw_sw_blend
 2786 02b6 5DE7     		b	.L308
 2787              	.L343:
 2788 02b8 B4F90030 		ldrsh	r3, [r4]
 2789 02bc ADF84C30 		strh	r3, [sp, #76]	@ movhi
 2790 02c0 039B     		ldr	r3, [sp, #12]
 2791 02c2 1B88     		ldrh	r3, [r3]
 2792 02c4 013B     		subs	r3, r3, #1
 2793 02c6 ADF85030 		strh	r3, [sp, #80]	@ movhi
 2794 02ca ADF84E90 		strh	r9, [sp, #78]	@ movhi
 2795 02ce 049B     		ldr	r3, [sp, #16]
 2796 02d0 ADF85230 		strh	r3, [sp, #82]	@ movhi
 2797 02d4 21A9     		add	r1, sp, #132
 2798 02d6 3046     		mov	r0, r6
 2799 02d8 FFF7FEFF 		bl	lv_draw_sw_blend
 2800 02dc 4FE7     		b	.L309
 2801              	.L344:
 2802 02de 039B     		ldr	r3, [sp, #12]
 2803 02e0 9B88     		ldrh	r3, [r3, #4]
 2804 02e2 0133     		adds	r3, r3, #1
 2805 02e4 ADF84C30 		strh	r3, [sp, #76]	@ movhi
 2806 02e8 B4F90430 		ldrsh	r3, [r4, #4]
 2807 02ec ADF85030 		strh	r3, [sp, #80]	@ movhi
 2808 02f0 ADF84E90 		strh	r9, [sp, #78]	@ movhi
ARM GAS  /var/folders/lp/x54gwt890xv47sdkqj1k04q40000gn/T//ccNe59Kt.s 			page 50


 2809 02f4 049B     		ldr	r3, [sp, #16]
 2810 02f6 ADF85230 		strh	r3, [sp, #82]	@ movhi
 2811 02fa 21A9     		add	r1, sp, #132
 2812 02fc 3046     		mov	r0, r6
 2813 02fe FFF7FEFF 		bl	lv_draw_sw_blend
 2814 0302 41E7     		b	.L310
 2815              	.L313:
 2816 0304 2946     		mov	r1, r5
 2817 0306 2498     		ldr	r0, [sp, #144]
 2818 0308 FFF7FEFF 		bl	lv_memset_ff
 2819 030c 2B46     		mov	r3, r5
 2820 030e 3A46     		mov	r2, r7
 2821 0310 BDF94C10 		ldrsh	r1, [sp, #76]
 2822 0314 2498     		ldr	r0, [sp, #144]
 2823 0316 FFF7FEFF 		bl	lv_draw_mask_apply
 2824 031a 8DF89400 		strb	r0, [sp, #148]
 2825 031e BDF9A230 		ldrsh	r3, [sp, #162]
 2826 0322 BB42     		cmp	r3, r7
 2827 0324 1CDD     		ble	.L346
 2828              	.L315:
 2829 0326 BDF9A630 		ldrsh	r3, [sp, #166]
 2830 032a 4345     		cmp	r3, r8
 2831 032c 21DA     		bge	.L347
 2832              	.L314:
 2833 032e 09F10109 		add	r9, r9, #1
 2834              	.L312:
 2835 0332 CA45     		cmp	r10, r9
 2836 0334 40F3DE80 		ble	.L317
 2837 0338 6788     		ldrh	r7, [r4, #2]
 2838 033a 1FFA89F3 		uxth	r3, r9
 2839 033e 1F44     		add	r7, r7, r3
 2840 0340 3FB2     		sxth	r7, r7
 2841 0342 B4F80680 		ldrh	r8, [r4, #6]
 2842 0346 A8EB0308 		sub	r8, r8, r3
 2843 034a 0FFA88F8 		sxth	r8, r8
 2844 034e BDF9A230 		ldrsh	r3, [sp, #162]
 2845 0352 BB42     		cmp	r3, r7
 2846 0354 D6DD     		ble	.L313
 2847 0356 BDF9A630 		ldrsh	r3, [sp, #166]
 2848 035a 4345     		cmp	r3, r8
 2849 035c D2DA     		bge	.L313
 2850 035e E6E7     		b	.L314
 2851              	.L346:
 2852 0360 ADF84E70 		strh	r7, [sp, #78]	@ movhi
 2853 0364 ADF85270 		strh	r7, [sp, #82]	@ movhi
 2854 0368 21A9     		add	r1, sp, #132
 2855 036a 3046     		mov	r0, r6
 2856 036c FFF7FEFF 		bl	lv_draw_sw_blend
 2857 0370 D9E7     		b	.L315
 2858              	.L347:
 2859 0372 ADF84E80 		strh	r8, [sp, #78]	@ movhi
 2860 0376 ADF85280 		strh	r8, [sp, #82]	@ movhi
 2861 037a 21A9     		add	r1, sp, #132
 2862 037c 3046     		mov	r0, r6
 2863 037e FFF7FEFF 		bl	lv_draw_sw_blend
 2864 0382 D4E7     		b	.L314
 2865              	.L311:
ARM GAS  /var/folders/lp/x54gwt890xv47sdkqj1k04q40000gn/T//ccNe59Kt.s 			page 51


 2866 0384 BDF9A020 		ldrsh	r2, [sp, #160]
 2867 0388 ADF84C20 		strh	r2, [sp, #76]	@ movhi
 2868 038c 0E9B     		ldr	r3, [sp, #56]
 2869 038e 013B     		subs	r3, r3, #1
 2870 0390 BDF9A410 		ldrsh	r1, [sp, #164]
 2871 0394 8B42     		cmp	r3, r1
 2872 0396 A8BF     		it	ge
 2873 0398 0B46     		movge	r3, r1
 2874 039a ADF85030 		strh	r3, [sp, #80]	@ movhi
 2875 039e 9FB2     		uxth	r7, r3
 2876 03a0 92B2     		uxth	r2, r2
 2877 03a2 BF1A     		subs	r7, r7, r2
 2878 03a4 BFB2     		uxth	r7, r7
 2879 03a6 0137     		adds	r7, r7, #1
 2880 03a8 3FB2     		sxth	r7, r7
 2881 03aa 002F     		cmp	r7, #0
 2882 03ac 46DD     		ble	.L318
 2883 03ae 079B     		ldr	r3, [sp, #28]
 2884 03b0 089A     		ldr	r2, [sp, #32]
 2885 03b2 9342     		cmp	r3, r2
 2886 03b4 01DA     		bge	.L319
 2887 03b6 D345     		cmp	fp, r10
 2888 03b8 1BDB     		blt	.L320
 2889              	.L319:
 2890 03ba BDF9A240 		ldrsh	r4, [sp, #162]
 2891 03be 16E0     		b	.L321
 2892              	.L322:
 2893 03c0 25B2     		sxth	r5, r4
 2894 03c2 ADF84E50 		strh	r5, [sp, #78]	@ movhi
 2895 03c6 ADF85250 		strh	r5, [sp, #82]	@ movhi
 2896 03ca 3946     		mov	r1, r7
 2897 03cc 2498     		ldr	r0, [sp, #144]
 2898 03ce FFF7FEFF 		bl	lv_memset_ff
 2899 03d2 3B46     		mov	r3, r7
 2900 03d4 2A46     		mov	r2, r5
 2901 03d6 BDF94C10 		ldrsh	r1, [sp, #76]
 2902 03da 2498     		ldr	r0, [sp, #144]
 2903 03dc FFF7FEFF 		bl	lv_draw_mask_apply
 2904 03e0 8DF89400 		strb	r0, [sp, #148]
 2905 03e4 21A9     		add	r1, sp, #132
 2906 03e6 3046     		mov	r0, r6
 2907 03e8 FFF7FEFF 		bl	lv_draw_sw_blend
 2908 03ec 0134     		adds	r4, r4, #1
 2909              	.L321:
 2910 03ee A145     		cmp	r9, r4
 2911 03f0 E6DC     		bgt	.L322
 2912              	.L320:
 2913 03f2 079B     		ldr	r3, [sp, #28]
 2914 03f4 089A     		ldr	r2, [sp, #32]
 2915 03f6 9342     		cmp	r3, r2
 2916 03f8 02DA     		bge	.L323
 2917 03fa 0B9B     		ldr	r3, [sp, #44]
 2918 03fc 4345     		cmp	r3, r8
 2919 03fe 1DDC     		bgt	.L318
 2920              	.L323:
 2921 0400 049B     		ldr	r3, [sp, #16]
 2922 0402 5C1C     		adds	r4, r3, #1
ARM GAS  /var/folders/lp/x54gwt890xv47sdkqj1k04q40000gn/T//ccNe59Kt.s 			page 52


 2923 0404 16E0     		b	.L324
 2924              	.L325:
 2925 0406 25B2     		sxth	r5, r4
 2926 0408 ADF84E50 		strh	r5, [sp, #78]	@ movhi
 2927 040c ADF85250 		strh	r5, [sp, #82]	@ movhi
 2928 0410 3946     		mov	r1, r7
 2929 0412 2498     		ldr	r0, [sp, #144]
 2930 0414 FFF7FEFF 		bl	lv_memset_ff
 2931 0418 3B46     		mov	r3, r7
 2932 041a 2A46     		mov	r2, r5
 2933 041c BDF94C10 		ldrsh	r1, [sp, #76]
 2934 0420 2498     		ldr	r0, [sp, #144]
 2935 0422 FFF7FEFF 		bl	lv_draw_mask_apply
 2936 0426 8DF89400 		strb	r0, [sp, #148]
 2937 042a 21A9     		add	r1, sp, #132
 2938 042c 3046     		mov	r0, r6
 2939 042e FFF7FEFF 		bl	lv_draw_sw_blend
 2940 0432 0134     		adds	r4, r4, #1
 2941              	.L324:
 2942 0434 BDF9A630 		ldrsh	r3, [sp, #166]
 2943 0438 A342     		cmp	r3, r4
 2944 043a E4DA     		bge	.L325
 2945              	.L318:
 2946 043c 0F9A     		ldr	r2, [sp, #60]
 2947 043e 0132     		adds	r2, r2, #1
 2948 0440 BDF9A030 		ldrsh	r3, [sp, #160]
 2949 0444 9A42     		cmp	r2, r3
 2950 0446 B8BF     		it	lt
 2951 0448 1A46     		movlt	r2, r3
 2952 044a ADF84C20 		strh	r2, [sp, #76]	@ movhi
 2953 044e BDF9A430 		ldrsh	r3, [sp, #164]
 2954 0452 ADF85030 		strh	r3, [sp, #80]	@ movhi
 2955 0456 9FB2     		uxth	r7, r3
 2956 0458 92B2     		uxth	r2, r2
 2957 045a BF1A     		subs	r7, r7, r2
 2958 045c BFB2     		uxth	r7, r7
 2959 045e 0137     		adds	r7, r7, #1
 2960 0460 3FB2     		sxth	r7, r7
 2961 0462 002F     		cmp	r7, #0
 2962 0464 46DD     		ble	.L317
 2963 0466 099B     		ldr	r3, [sp, #36]
 2964 0468 0A9A     		ldr	r2, [sp, #40]
 2965 046a 9342     		cmp	r3, r2
 2966 046c 01DD     		ble	.L326
 2967 046e D345     		cmp	fp, r10
 2968 0470 1BDB     		blt	.L327
 2969              	.L326:
 2970 0472 BDF9A240 		ldrsh	r4, [sp, #162]
 2971 0476 16E0     		b	.L328
 2972              	.L329:
 2973 0478 25B2     		sxth	r5, r4
 2974 047a ADF84E50 		strh	r5, [sp, #78]	@ movhi
 2975 047e ADF85250 		strh	r5, [sp, #82]	@ movhi
 2976 0482 3946     		mov	r1, r7
 2977 0484 2498     		ldr	r0, [sp, #144]
 2978 0486 FFF7FEFF 		bl	lv_memset_ff
 2979 048a 3B46     		mov	r3, r7
ARM GAS  /var/folders/lp/x54gwt890xv47sdkqj1k04q40000gn/T//ccNe59Kt.s 			page 53


 2980 048c 2A46     		mov	r2, r5
 2981 048e BDF94C10 		ldrsh	r1, [sp, #76]
 2982 0492 2498     		ldr	r0, [sp, #144]
 2983 0494 FFF7FEFF 		bl	lv_draw_mask_apply
 2984 0498 8DF89400 		strb	r0, [sp, #148]
 2985 049c 21A9     		add	r1, sp, #132
 2986 049e 3046     		mov	r0, r6
 2987 04a0 FFF7FEFF 		bl	lv_draw_sw_blend
 2988 04a4 0134     		adds	r4, r4, #1
 2989              	.L328:
 2990 04a6 A145     		cmp	r9, r4
 2991 04a8 E6DC     		bgt	.L329
 2992              	.L327:
 2993 04aa 099B     		ldr	r3, [sp, #36]
 2994 04ac 0A9A     		ldr	r2, [sp, #40]
 2995 04ae 9342     		cmp	r3, r2
 2996 04b0 02DD     		ble	.L330
 2997 04b2 0B9B     		ldr	r3, [sp, #44]
 2998 04b4 4345     		cmp	r3, r8
 2999 04b6 1DDC     		bgt	.L317
 3000              	.L330:
 3001 04b8 049C     		ldr	r4, [sp, #16]
 3002 04ba 0134     		adds	r4, r4, #1
 3003 04bc 16E0     		b	.L331
 3004              	.L332:
 3005 04be 25B2     		sxth	r5, r4
 3006 04c0 ADF84E50 		strh	r5, [sp, #78]	@ movhi
 3007 04c4 ADF85250 		strh	r5, [sp, #82]	@ movhi
 3008 04c8 3946     		mov	r1, r7
 3009 04ca 2498     		ldr	r0, [sp, #144]
 3010 04cc FFF7FEFF 		bl	lv_memset_ff
 3011 04d0 3B46     		mov	r3, r7
 3012 04d2 2A46     		mov	r2, r5
 3013 04d4 BDF94C10 		ldrsh	r1, [sp, #76]
 3014 04d8 2498     		ldr	r0, [sp, #144]
 3015 04da FFF7FEFF 		bl	lv_draw_mask_apply
 3016 04de 8DF89400 		strb	r0, [sp, #148]
 3017 04e2 21A9     		add	r1, sp, #132
 3018 04e4 3046     		mov	r0, r6
 3019 04e6 FFF7FEFF 		bl	lv_draw_sw_blend
 3020 04ea 0134     		adds	r4, r4, #1
 3021              	.L331:
 3022 04ec BDF9A630 		ldrsh	r3, [sp, #166]
 3023 04f0 A342     		cmp	r3, r4
 3024 04f2 E4DA     		bge	.L332
 3025              	.L317:
 3026 04f4 15A8     		add	r0, sp, #84
 3027 04f6 FFF7FEFF 		bl	lv_draw_mask_free_param
 3028 04fa 0C98     		ldr	r0, [sp, #48]
 3029 04fc FFF7FEFF 		bl	lv_draw_mask_remove_id
 3030 0500 1BA8     		add	r0, sp, #108
 3031 0502 FFF7FEFF 		bl	lv_draw_mask_free_param
 3032 0506 0D98     		ldr	r0, [sp, #52]
 3033 0508 FFF7FEFF 		bl	lv_draw_mask_remove_id
 3034 050c 2498     		ldr	r0, [sp, #144]
 3035 050e FFF7FEFF 		bl	lv_mem_buf_release
 3036 0512 90E5     		b	.L294
ARM GAS  /var/folders/lp/x54gwt890xv47sdkqj1k04q40000gn/T//ccNe59Kt.s 			page 54


 3038              		.section	.text.draw_border,"ax",%progbits
 3039              		.align	1
 3040              		.syntax unified
 3041              		.thumb
 3042              		.thumb_func
 3044              	draw_border:
 3045              		@ args = 0, pretend = 0, frame = 16
 3046              		@ frame_needed = 0, uses_anonymous_args = 0
 3047 0000 2DE9F04F 		push	{r4, r5, r6, r7, r8, r9, r10, fp, lr}
 3048 0004 89B0     		sub	sp, sp, #36
 3049 0006 0490     		str	r0, [sp, #16]
 3050 0008 0846     		mov	r0, r1
 3051 000a 91F82240 		ldrb	r4, [r1, #34]	@ zero_extendqisi2
 3052 000e 022C     		cmp	r4, #2
 3053 0010 6FD9     		bls	.L348
 3054 0012 1146     		mov	r1, r2
 3055 0014 B0F92020 		ldrsh	r2, [r0, #32]
 3056 0018 002A     		cmp	r2, #0
 3057 001a 6AD0     		beq	.L348
 3058 001c 90F82330 		ldrb	r3, [r0, #35]	@ zero_extendqisi2
 3059 0020 13F03E0F 		tst	r3, #62
 3060 0024 65D0     		beq	.L348
 3061 0026 13F0010F 		tst	r3, #1
 3062 002a 62D1     		bne	.L348
 3063 002c B1F90480 		ldrsh	r8, [r1, #4]
 3064 0030 1FFA88F3 		uxth	r3, r8
 3065 0034 0593     		str	r3, [sp, #20]
 3066 0036 B1F900A0 		ldrsh	r10, [r1]
 3067 003a 1FFA8AF7 		uxth	r7, r10
 3068 003e DB1B     		subs	r3, r3, r7
 3069 0040 9BB2     		uxth	r3, r3
 3070 0042 0133     		adds	r3, r3, #1
 3071 0044 1BB2     		sxth	r3, r3
 3072 0046 B1F906B0 		ldrsh	fp, [r1, #6]
 3073 004a 1FFA8BFE 		uxth	lr, fp
 3074 004e B1F90290 		ldrsh	r9, [r1, #2]
 3075 0052 1FFA89F6 		uxth	r6, r9
 3076 0056 AEEB060C 		sub	ip, lr, r6
 3077 005a 1FFA8CFC 		uxth	ip, ip
 3078 005e 0CF1010C 		add	ip, ip, #1
 3079 0062 0FFA8CFC 		sxth	ip, ip
 3080 0066 B0F90050 		ldrsh	r5, [r0]
 3081 006a 9C45     		cmp	ip, r3
 3082 006c A8BF     		it	ge
 3083 006e 9C46     		movge	ip, r3
 3084 0070 4FEA6C03 		asr	r3, ip, #1
 3085 0074 B5EB6C0F 		cmp	r5, ip, asr #1
 3086 0078 00DC     		bgt	.L350
 3087 007a 2B46     		mov	r3, r5
 3088              	.L350:
 3089 007c ADF818A0 		strh	r10, [sp, #24]	@ movhi
 3090 0080 ADF81A90 		strh	r9, [sp, #26]	@ movhi
 3091 0084 ADF81C80 		strh	r8, [sp, #28]	@ movhi
 3092 0088 ADF81EB0 		strh	fp, [sp, #30]	@ movhi
 3093 008c 90F82380 		ldrb	r8, [r0, #35]	@ zero_extendqisi2
 3094 0090 C8F3440C 		ubfx	ip, r8, #1, #5
 3095 0094 18F0080F 		tst	r8, #8
ARM GAS  /var/folders/lp/x54gwt890xv47sdkqj1k04q40000gn/T//ccNe59Kt.s 			page 55


 3096 0098 2ED0     		beq	.L351
 3097 009a 1FFA82F8 		uxth	r8, r2
 3098              	.L352:
 3099 009e 4744     		add	r7, r7, r8
 3100 00a0 ADF81870 		strh	r7, [sp, #24]	@ movhi
 3101 00a4 1CF0080F 		tst	ip, #8
 3102 00a8 2FD0     		beq	.L353
 3103 00aa 97B2     		uxth	r7, r2
 3104              	.L354:
 3105 00ac 059D     		ldr	r5, [sp, #20]
 3106 00ae ED1B     		subs	r5, r5, r7
 3107 00b0 ADF81C50 		strh	r5, [sp, #28]	@ movhi
 3108 00b4 1CF0020F 		tst	ip, #2
 3109 00b8 2DD0     		beq	.L355
 3110 00ba 95B2     		uxth	r5, r2
 3111              	.L356:
 3112 00bc 3544     		add	r5, r5, r6
 3113 00be ADF81A50 		strh	r5, [sp, #26]	@ movhi
 3114 00c2 1CF0010F 		tst	ip, #1
 3115 00c6 2CD0     		beq	.L357
 3116 00c8 95B2     		uxth	r5, r2
 3117              	.L358:
 3118 00ca AEEB050E 		sub	lr, lr, r5
 3119 00ce ADF81EE0 		strh	lr, [sp, #30]	@ movhi
 3120 00d2 92B2     		uxth	r2, r2
 3121 00d4 9A1A     		subs	r2, r3, r2
 3122 00d6 12B2     		sxth	r2, r2
 3123 00d8 002A     		cmp	r2, #0
 3124 00da 28DB     		blt	.L363
 3125              	.L359:
 3126 00dc 8578     		ldrb	r5, [r0, #2]	@ zero_extendqisi2
 3127 00de 0395     		str	r5, [sp, #12]
 3128 00e0 0294     		str	r4, [sp, #8]
 3129 00e2 C08B     		ldrh	r0, [r0, #30]
 3130 00e4 ADF80400 		strh	r0, [sp, #4]	@ movhi
 3131 00e8 0092     		str	r2, [sp]
 3132 00ea 06AA     		add	r2, sp, #24
 3133 00ec 0498     		ldr	r0, [sp, #16]
 3134 00ee FFF7FEFF 		bl	draw_border_generic
 3135              	.L348:
 3136 00f2 09B0     		add	sp, sp, #36
 3137              		@ sp needed
 3138 00f4 BDE8F08F 		pop	{r4, r5, r6, r7, r8, r9, r10, fp, pc}
 3139              	.L351:
 3140 00f8 13FA82F8 		uxtah	r8, r3, r2
 3141 00fc 1FFA88F8 		uxth	r8, r8
 3142 0100 C8F10008 		rsb	r8, r8, #0
 3143 0104 1FFA88F8 		uxth	r8, r8
 3144 0108 C9E7     		b	.L352
 3145              	.L353:
 3146 010a 13FA82F7 		uxtah	r7, r3, r2
 3147 010e BFB2     		uxth	r7, r7
 3148 0110 7F42     		rsbs	r7, r7, #0
 3149 0112 BFB2     		uxth	r7, r7
 3150 0114 CAE7     		b	.L354
 3151              	.L355:
 3152 0116 13FA82F5 		uxtah	r5, r3, r2
ARM GAS  /var/folders/lp/x54gwt890xv47sdkqj1k04q40000gn/T//ccNe59Kt.s 			page 56


 3153 011a ADB2     		uxth	r5, r5
 3154 011c 6D42     		rsbs	r5, r5, #0
 3155 011e ADB2     		uxth	r5, r5
 3156 0120 CCE7     		b	.L356
 3157              	.L357:
 3158 0122 13FA82F5 		uxtah	r5, r3, r2
 3159 0126 ADB2     		uxth	r5, r5
 3160 0128 6D42     		rsbs	r5, r5, #0
 3161 012a ADB2     		uxth	r5, r5
 3162 012c CDE7     		b	.L358
 3163              	.L363:
 3164 012e 0022     		movs	r2, #0
 3165 0130 D4E7     		b	.L359
 3167              		.section	.text.draw_outline,"ax",%progbits
 3168              		.align	1
 3169              		.syntax unified
 3170              		.thumb
 3171              		.thumb_func
 3173              	draw_outline:
 3174              		@ args = 0, pretend = 0, frame = 24
 3175              		@ frame_needed = 0, uses_anonymous_args = 0
 3176 0000 2DE9F04F 		push	{r4, r5, r6, r7, r8, r9, r10, fp, lr}
 3177 0004 8BB0     		sub	sp, sp, #44
 3178 0006 0590     		str	r0, [sp, #20]
 3179 0008 91F82A90 		ldrb	r9, [r1, #42]	@ zero_extendqisi2
 3180 000c B9F1020F 		cmp	r9, #2
 3181 0010 72D9     		bls	.L364
 3182 0012 B1F92630 		ldrsh	r3, [r1, #38]
 3183 0016 002B     		cmp	r3, #0
 3184 0018 6ED0     		beq	.L364
 3185 001a B2F90050 		ldrsh	r5, [r2]
 3186 001e ADF82050 		strh	r5, [sp, #32]	@ movhi
 3187 0022 B2F90260 		ldrsh	r6, [r2, #2]
 3188 0026 ADF82260 		strh	r6, [sp, #34]	@ movhi
 3189 002a B2F90440 		ldrsh	r4, [r2, #4]
 3190 002e ADF82440 		strh	r4, [sp, #36]	@ movhi
 3191 0032 B2F906E0 		ldrsh	lr, [r2, #6]
 3192 0036 ADF826E0 		strh	lr, [sp, #38]	@ movhi
 3193 003a 088D     		ldrh	r0, [r1, #40]
 3194 003c 0138     		subs	r0, r0, #1
 3195 003e 80B2     		uxth	r0, r0
 3196 0040 ADB2     		uxth	r5, r5
 3197 0042 A5EB0008 		sub	r8, r5, r0
 3198 0046 1FFA88FB 		uxth	fp, r8
 3199 004a 0FFA88F8 		sxth	r8, r8
 3200 004e ADF82080 		strh	r8, [sp, #32]	@ movhi
 3201 0052 B6B2     		uxth	r6, r6
 3202 0054 371A     		subs	r7, r6, r0
 3203 0056 1FFA87FA 		uxth	r10, r7
 3204 005a 3FB2     		sxth	r7, r7
 3205 005c ADF82270 		strh	r7, [sp, #34]	@ movhi
 3206 0060 10FA84F4 		uxtah	r4, r0, r4
 3207 0064 A2B2     		uxth	r2, r4
 3208 0066 24B2     		sxth	r4, r4
 3209 0068 ADF82440 		strh	r4, [sp, #36]	@ movhi
 3210 006c 10FA8EFE 		uxtah	lr, r0, lr
 3211 0070 1FFA8EFC 		uxth	ip, lr
ARM GAS  /var/folders/lp/x54gwt890xv47sdkqj1k04q40000gn/T//ccNe59Kt.s 			page 57


 3212 0074 0FFA8EFE 		sxth	lr, lr
 3213 0078 ADF826E0 		strh	lr, [sp, #38]	@ movhi
 3214 007c ADF81880 		strh	r8, [sp, #24]	@ movhi
 3215 0080 ADF81A70 		strh	r7, [sp, #26]	@ movhi
 3216 0084 ADF81C40 		strh	r4, [sp, #28]	@ movhi
 3217 0088 ADF81EE0 		strh	lr, [sp, #30]	@ movhi
 3218 008c 9BB2     		uxth	r3, r3
 3219 008e ABEB030B 		sub	fp, fp, r3
 3220 0092 ADF818B0 		strh	fp, [sp, #24]	@ movhi
 3221 0096 D418     		adds	r4, r2, r3
 3222 0098 ADF81C40 		strh	r4, [sp, #28]	@ movhi
 3223 009c AAEB030A 		sub	r10, r10, r3
 3224 00a0 ADF81AA0 		strh	r10, [sp, #26]	@ movhi
 3225 00a4 0CEB0304 		add	r4, ip, r3
 3226 00a8 ADF81E40 		strh	r4, [sp, #30]	@ movhi
 3227 00ac 451B     		subs	r5, r0, r5
 3228 00ae 2A44     		add	r2, r2, r5
 3229 00b0 92B2     		uxth	r2, r2
 3230 00b2 0132     		adds	r2, r2, #1
 3231 00b4 12B2     		sxth	r2, r2
 3232 00b6 801B     		subs	r0, r0, r6
 3233 00b8 8444     		add	ip, ip, r0
 3234 00ba 1FFA8CFC 		uxth	ip, ip
 3235 00be 0CF1010C 		add	ip, ip, #1
 3236 00c2 0FFA8CFC 		sxth	ip, ip
 3237 00c6 B1F90040 		ldrsh	r4, [r1]
 3238 00ca 6245     		cmp	r2, ip
 3239 00cc A8BF     		it	ge
 3240 00ce 6246     		movge	r2, ip
 3241 00d0 5010     		asrs	r0, r2, #1
 3242 00d2 B4EB620F 		cmp	r4, r2, asr #1
 3243 00d6 00DC     		bgt	.L366
 3244 00d8 2046     		mov	r0, r4
 3245              	.L366:
 3246 00da 0344     		add	r3, r3, r0
 3247 00dc 8A78     		ldrb	r2, [r1, #2]	@ zero_extendqisi2
 3248 00de 0392     		str	r2, [sp, #12]
 3249 00e0 CDF80890 		str	r9, [sp, #8]
 3250 00e4 8A8C     		ldrh	r2, [r1, #36]
 3251 00e6 ADF80420 		strh	r2, [sp, #4]	@ movhi
 3252 00ea 0090     		str	r0, [sp]
 3253 00ec 1BB2     		sxth	r3, r3
 3254 00ee 08AA     		add	r2, sp, #32
 3255 00f0 06A9     		add	r1, sp, #24
 3256 00f2 0598     		ldr	r0, [sp, #20]
 3257 00f4 FFF7FEFF 		bl	draw_border_generic
 3258              	.L364:
 3259 00f8 0BB0     		add	sp, sp, #44
 3260              		@ sp needed
 3261 00fa BDE8F08F 		pop	{r4, r5, r6, r7, r8, r9, r10, fp, pc}
 3263              		.section	.text.lv_draw_sw_rect,"ax",%progbits
 3264              		.align	1
 3265              		.global	lv_draw_sw_rect
 3266              		.syntax unified
 3267              		.thumb
 3268              		.thumb_func
 3270              	lv_draw_sw_rect:
ARM GAS  /var/folders/lp/x54gwt890xv47sdkqj1k04q40000gn/T//ccNe59Kt.s 			page 58


 3271              		@ args = 0, pretend = 0, frame = 0
 3272              		@ frame_needed = 0, uses_anonymous_args = 0
 3273 0000 70B5     		push	{r4, r5, r6, lr}
 3274 0002 0446     		mov	r4, r0
 3275 0004 0D46     		mov	r5, r1
 3276 0006 1646     		mov	r6, r2
 3277 0008 FFF7FEFF 		bl	draw_shadow
 3278 000c 3246     		mov	r2, r6
 3279 000e 2946     		mov	r1, r5
 3280 0010 2046     		mov	r0, r4
 3281 0012 FFF7FEFF 		bl	draw_bg
 3282 0016 3246     		mov	r2, r6
 3283 0018 2946     		mov	r1, r5
 3284 001a 2046     		mov	r0, r4
 3285 001c FFF7FEFF 		bl	draw_bg_img
 3286 0020 3246     		mov	r2, r6
 3287 0022 2946     		mov	r1, r5
 3288 0024 2046     		mov	r0, r4
 3289 0026 FFF7FEFF 		bl	draw_border
 3290 002a 3246     		mov	r2, r6
 3291 002c 2946     		mov	r1, r5
 3292 002e 2046     		mov	r0, r4
 3293 0030 FFF7FEFF 		bl	draw_outline
 3294 0034 70BD     		pop	{r4, r5, r6, pc}
 3296              		.ident	"GCC: (xPack GNU Arm Embedded GCC arm64) 13.3.1 20240614"
ARM GAS  /var/folders/lp/x54gwt890xv47sdkqj1k04q40000gn/T//ccNe59Kt.s 			page 59

