ARM GAS  /var/folders/lp/x54gwt890xv47sdkqj1k04q40000gn/T//ccVer9yh.s 			page 1


   1              		.cpu cortex-m4
   2              		.arch armv7e-m
   3              		.fpu fpv4-sp-d16
   4              		.eabi_attribute 27, 1
   5              		.eabi_attribute 28, 1
   6              		.eabi_attribute 20, 1
   7              		.eabi_attribute 21, 1
   8              		.eabi_attribute 23, 3
   9              		.eabi_attribute 24, 1
  10              		.eabi_attribute 25, 1
  11              		.eabi_attribute 26, 1
  12              		.eabi_attribute 30, 1
  13              		.eabi_attribute 34, 1
  14              		.eabi_attribute 18, 4
  15              		.file	"lv_draw_layer.c"
  16              		.text
  17              		.section	.text.lv_draw_layer_create,"ax",%progbits
  18              		.align	1
  19              		.global	lv_draw_layer_create
  20              		.syntax unified
  21              		.thumb
  22              		.thumb_func
  24              	lv_draw_layer_create:
  25              		@ args = 0, pretend = 0, frame = 0
  26              		@ frame_needed = 0, uses_anonymous_args = 0
  27 0000 F8B5     		push	{r3, r4, r5, r6, r7, lr}
  28 0002 C36B     		ldr	r3, [r0, #60]
  29 0004 53B3     		cbz	r3, .L5
  30 0006 0446     		mov	r4, r0
  31 0008 0F46     		mov	r7, r1
  32 000a 1646     		mov	r6, r2
  33 000c C06C     		ldr	r0, [r0, #76]
  34 000e FFF7FEFF 		bl	lv_mem_alloc
  35 0012 0546     		mov	r5, r0
  36 0014 E8B1     		cbz	r0, .L4
  37 0016 E16C     		ldr	r1, [r4, #76]
  38 0018 FFF7FEFF 		bl	lv_memset_00
  39 001c FFF7FEFF 		bl	_lv_refr_get_disp_refreshing
  40 0020 2368     		ldr	r3, [r4]
  41 0022 2B62     		str	r3, [r5, #32]
  42 0024 6368     		ldr	r3, [r4, #4]
  43 0026 EB61     		str	r3, [r5, #28]
  44 0028 A368     		ldr	r3, [r4, #8]
  45 002a AB61     		str	r3, [r5, #24]
  46 002c 0368     		ldr	r3, [r0]
  47 002e 1B7C     		ldrb	r3, [r3, #16]	@ zero_extendqisi2
  48 0030 C3F38013 		ubfx	r3, r3, #6, #1
  49 0034 85F82430 		strb	r3, [r5, #36]
  50 0038 2B46     		mov	r3, r5
  51 003a 3868     		ldr	r0, [r7]	@ unaligned
  52 003c 7968     		ldr	r1, [r7, #4]	@ unaligned
  53 003e 03C3     		stmia	r3!, {r0, r1}
  54 0040 E36B     		ldr	r3, [r4, #60]
  55 0042 3246     		mov	r2, r6
  56 0044 2946     		mov	r1, r5
  57 0046 2046     		mov	r0, r4
  58 0048 9847     		blx	r3
ARM GAS  /var/folders/lp/x54gwt890xv47sdkqj1k04q40000gn/T//ccVer9yh.s 			page 2


  59 004a 0446     		mov	r4, r0
  60 004c 10B1     		cbz	r0, .L7
  61              	.L1:
  62 004e 2046     		mov	r0, r4
  63 0050 F8BD     		pop	{r3, r4, r5, r6, r7, pc}
  64              	.L4:
  65 0052 FEE7     		b	.L4
  66              	.L7:
  67 0054 2846     		mov	r0, r5
  68 0056 FFF7FEFF 		bl	lv_mem_free
  69 005a F8E7     		b	.L1
  70              	.L5:
  71 005c 0024     		movs	r4, #0
  72 005e F6E7     		b	.L1
  74              		.section	.text.lv_draw_layer_adjust,"ax",%progbits
  75              		.align	1
  76              		.global	lv_draw_layer_adjust
  77              		.syntax unified
  78              		.thumb
  79              		.thumb_func
  81              	lv_draw_layer_adjust:
  82              		@ args = 0, pretend = 0, frame = 0
  83              		@ frame_needed = 0, uses_anonymous_args = 0
  84 0000 08B5     		push	{r3, lr}
  85 0002 036C     		ldr	r3, [r0, #64]
  86 0004 03B1     		cbz	r3, .L8
  87 0006 9847     		blx	r3
  88              	.L8:
  89 0008 08BD     		pop	{r3, pc}
  91              		.section	.text.lv_draw_layer_blend,"ax",%progbits
  92              		.align	1
  93              		.global	lv_draw_layer_blend
  94              		.syntax unified
  95              		.thumb
  96              		.thumb_func
  98              	lv_draw_layer_blend:
  99              		@ args = 0, pretend = 0, frame = 0
 100              		@ frame_needed = 0, uses_anonymous_args = 0
 101 0000 08B5     		push	{r3, lr}
 102 0002 436C     		ldr	r3, [r0, #68]
 103 0004 03B1     		cbz	r3, .L11
 104 0006 9847     		blx	r3
 105              	.L11:
 106 0008 08BD     		pop	{r3, pc}
 108              		.section	.text.lv_draw_layer_destroy,"ax",%progbits
 109              		.align	1
 110              		.global	lv_draw_layer_destroy
 111              		.syntax unified
 112              		.thumb
 113              		.thumb_func
 115              	lv_draw_layer_destroy:
 116              		@ args = 0, pretend = 0, frame = 0
 117              		@ frame_needed = 0, uses_anonymous_args = 0
 118 0000 38B5     		push	{r3, r4, r5, lr}
 119 0002 0546     		mov	r5, r0
 120 0004 0C46     		mov	r4, r1
 121 0006 FFF7FEFF 		bl	lv_draw_wait_for_finish
ARM GAS  /var/folders/lp/x54gwt890xv47sdkqj1k04q40000gn/T//ccVer9yh.s 			page 3


 122 000a 236A     		ldr	r3, [r4, #32]
 123 000c 2B60     		str	r3, [r5]
 124 000e E369     		ldr	r3, [r4, #28]
 125 0010 6B60     		str	r3, [r5, #4]
 126 0012 A369     		ldr	r3, [r4, #24]
 127 0014 AB60     		str	r3, [r5, #8]
 128 0016 FFF7FEFF 		bl	_lv_refr_get_disp_refreshing
 129 001a 0368     		ldr	r3, [r0]
 130 001c 94F82410 		ldrb	r1, [r4, #36]	@ zero_extendqisi2
 131 0020 1A7C     		ldrb	r2, [r3, #16]	@ zero_extendqisi2
 132 0022 61F38612 		bfi	r2, r1, #6, #1
 133 0026 1A74     		strb	r2, [r3, #16]
 134 0028 AB6C     		ldr	r3, [r5, #72]
 135 002a 13B1     		cbz	r3, .L15
 136 002c 2146     		mov	r1, r4
 137 002e 2846     		mov	r0, r5
 138 0030 9847     		blx	r3
 139              	.L15:
 140 0032 2046     		mov	r0, r4
 141 0034 FFF7FEFF 		bl	lv_mem_free
 142 0038 38BD     		pop	{r3, r4, r5, pc}
 144              		.ident	"GCC: (xPack GNU Arm Embedded GCC arm64) 13.3.1 20240614"
ARM GAS  /var/folders/lp/x54gwt890xv47sdkqj1k04q40000gn/T//ccVer9yh.s 			page 4

