ARM GAS  /var/folders/lp/x54gwt890xv47sdkqj1k04q40000gn/T//cc1wm9J1.s 			page 1


   1              		.cpu cortex-m4
   2              		.arch armv7e-m
   3              		.fpu fpv4-sp-d16
   4              		.eabi_attribute 27, 1
   5              		.eabi_attribute 28, 1
   6              		.eabi_attribute 20, 1
   7              		.eabi_attribute 21, 1
   8              		.eabi_attribute 23, 3
   9              		.eabi_attribute 24, 1
  10              		.eabi_attribute 25, 1
  11              		.eabi_attribute 26, 1
  12              		.eabi_attribute 30, 1
  13              		.eabi_attribute 34, 1
  14              		.eabi_attribute 18, 4
  15              		.file	"lv_flex.c"
  16              		.text
  17              		.section	.text.lv_area_get_width,"ax",%progbits
  18              		.align	1
  19              		.syntax unified
  20              		.thumb
  21              		.thumb_func
  23              	lv_area_get_width:
  24              		@ args = 0, pretend = 0, frame = 0
  25              		@ frame_needed = 0, uses_anonymous_args = 0
  26              		@ link register save eliminated.
  27 0000 8388     		ldrh	r3, [r0, #4]
  28 0002 0288     		ldrh	r2, [r0]
  29 0004 981A     		subs	r0, r3, r2
  30 0006 80B2     		uxth	r0, r0
  31 0008 0130     		adds	r0, r0, #1
  32 000a 00B2     		sxth	r0, r0
  33 000c 7047     		bx	lr
  35              		.section	.text.lv_area_get_height,"ax",%progbits
  36              		.align	1
  37              		.syntax unified
  38              		.thumb
  39              		.thumb_func
  41              	lv_area_get_height:
  42              		@ args = 0, pretend = 0, frame = 0
  43              		@ frame_needed = 0, uses_anonymous_args = 0
  44              		@ link register save eliminated.
  45 0000 C388     		ldrh	r3, [r0, #6]
  46 0002 4288     		ldrh	r2, [r0, #2]
  47 0004 981A     		subs	r0, r3, r2
  48 0006 80B2     		uxth	r0, r0
  49 0008 0130     		adds	r0, r0, #1
  50 000a 00B2     		sxth	r0, r0
  51 000c 7047     		bx	lr
  53              		.section	.text.place_content,"ax",%progbits
  54              		.align	1
  55              		.syntax unified
  56              		.thumb
  57              		.thumb_func
  59              	place_content:
  60              		@ args = 8, pretend = 0, frame = 0
  61              		@ frame_needed = 0, uses_anonymous_args = 0
  62              		@ link register save eliminated.
ARM GAS  /var/folders/lp/x54gwt890xv47sdkqj1k04q40000gn/T//cc1wm9J1.s 			page 2


  63 0000 10B4     		push	{r4}
  64 0002 019C     		ldr	r4, [sp, #4]
  65 0004 012B     		cmp	r3, #1
  66 0006 07DD     		ble	.L15
  67              	.L4:
  68 0008 0138     		subs	r0, r0, #1
  69 000a 0428     		cmp	r0, #4
  70 000c 46D8     		bhi	.L6
  71 000e DFE800F0 		tbb	[pc, r0]
  72              	.L8:
  73 0012 15       		.byte	(.L11-.L8)/2
  74 0013 08       		.byte	(.L5-.L8)/2
  75 0014 38       		.byte	(.L10-.L8)/2
  76 0015 27       		.byte	(.L9-.L8)/2
  77 0016 1E       		.byte	(.L7-.L8)/2
  78 0017 00       		.p2align 1
  79              	.L15:
  80 0018 A0F1030C 		sub	ip, r0, #3
  81 001c BCF1020F 		cmp	ip, #2
  82 0020 F2D8     		bhi	.L4
  83              	.L5:
  84 0022 0023     		movs	r3, #0
  85 0024 0298     		ldr	r0, [sp, #8]
  86 0026 0380     		strh	r3, [r0]	@ movhi
  87 0028 2388     		ldrh	r3, [r4]
  88 002a 8A1A     		subs	r2, r1, r2
  89 002c 02EBD272 		add	r2, r2, r2, lsr #31
  90 0030 03EB6203 		add	r3, r3, r2, asr #1
  91 0034 2380     		strh	r3, [r4]	@ movhi
  92              	.L3:
  93 0036 5DF8044B 		ldr	r4, [sp], #4
  94 003a 7047     		bx	lr
  95              	.L11:
  96 003c 0023     		movs	r3, #0
  97 003e 0298     		ldr	r0, [sp, #8]
  98 0040 0380     		strh	r3, [r0]	@ movhi
  99 0042 2388     		ldrh	r3, [r4]
 100 0044 8A1A     		subs	r2, r1, r2
 101 0046 13FA82F2 		uxtah	r2, r3, r2
 102 004a 2280     		strh	r2, [r4]	@ movhi
 103 004c F3E7     		b	.L3
 104              	.L7:
 105 004e 8A1A     		subs	r2, r1, r2
 106 0050 12B2     		sxth	r2, r2
 107 0052 013B     		subs	r3, r3, #1
 108 0054 1BB2     		sxth	r3, r3
 109 0056 92FBF3F2 		sdiv	r2, r2, r3
 110 005a 029B     		ldr	r3, [sp, #8]
 111 005c 1A80     		strh	r2, [r3]	@ movhi
 112 005e EAE7     		b	.L3
 113              	.L9:
 114 0060 0298     		ldr	r0, [sp, #8]
 115 0062 0088     		ldrh	r0, [r0]
 116 0064 8A1A     		subs	r2, r1, r2
 117 0066 12B2     		sxth	r2, r2
 118 0068 92FBF3F3 		sdiv	r3, r2, r3
 119 006c 0344     		add	r3, r3, r0
ARM GAS  /var/folders/lp/x54gwt890xv47sdkqj1k04q40000gn/T//cc1wm9J1.s 			page 3


 120 006e 1BB2     		sxth	r3, r3
 121 0070 029A     		ldr	r2, [sp, #8]
 122 0072 1380     		strh	r3, [r2]	@ movhi
 123 0074 2288     		ldrh	r2, [r4]
 124 0076 03EBD373 		add	r3, r3, r3, lsr #31
 125 007a 02EB6303 		add	r3, r2, r3, asr #1
 126 007e 2380     		strh	r3, [r4]	@ movhi
 127 0080 D9E7     		b	.L3
 128              	.L10:
 129 0082 8A1A     		subs	r2, r1, r2
 130 0084 12B2     		sxth	r2, r2
 131 0086 0133     		adds	r3, r3, #1
 132 0088 1BB2     		sxth	r3, r3
 133 008a 92FBF3F3 		sdiv	r3, r2, r3
 134 008e 029A     		ldr	r2, [sp, #8]
 135 0090 1380     		strh	r3, [r2]	@ movhi
 136 0092 2288     		ldrh	r2, [r4]
 137 0094 12FA83F3 		uxtah	r3, r2, r3
 138 0098 2380     		strh	r3, [r4]	@ movhi
 139 009a CCE7     		b	.L3
 140              	.L6:
 141 009c 0023     		movs	r3, #0
 142 009e 029A     		ldr	r2, [sp, #8]
 143 00a0 1380     		strh	r3, [r2]	@ movhi
 144 00a2 C8E7     		b	.L3
 146              		.section	.text.get_next_item,"ax",%progbits
 147              		.align	1
 148              		.syntax unified
 149              		.thumb
 150              		.thumb_func
 152              	get_next_item:
 153              		@ args = 0, pretend = 0, frame = 0
 154              		@ frame_needed = 0, uses_anonymous_args = 0
 155              		@ link register save eliminated.
 156 0000 49B1     		cbz	r1, .L17
 157 0002 1368     		ldr	r3, [r2]
 158 0004 013B     		subs	r3, r3, #1
 159 0006 1360     		str	r3, [r2]
 160 0008 002B     		cmp	r3, #0
 161 000a 0FDB     		blt	.L19
 162 000c 8268     		ldr	r2, [r0, #8]
 163 000e 1268     		ldr	r2, [r2]
 164 0010 52F82300 		ldr	r0, [r2, r3, lsl #2]
 165 0014 7047     		bx	lr
 166              	.L17:
 167 0016 1368     		ldr	r3, [r2]
 168 0018 0133     		adds	r3, r3, #1
 169 001a 1360     		str	r3, [r2]
 170 001c 8268     		ldr	r2, [r0, #8]
 171 001e 5168     		ldr	r1, [r2, #4]
 172 0020 8B42     		cmp	r3, r1
 173 0022 05DA     		bge	.L20
 174 0024 1268     		ldr	r2, [r2]
 175 0026 52F82300 		ldr	r0, [r2, r3, lsl #2]
 176 002a 7047     		bx	lr
 177              	.L19:
 178 002c 0020     		movs	r0, #0
ARM GAS  /var/folders/lp/x54gwt890xv47sdkqj1k04q40000gn/T//cc1wm9J1.s 			page 4


 179 002e 7047     		bx	lr
 180              	.L20:
 181 0030 0020     		movs	r0, #0
 182 0032 7047     		bx	lr
 184              		.section	.text.find_track_end,"ax",%progbits
 185              		.align	1
 186              		.syntax unified
 187              		.thumb
 188              		.thumb_func
 190              	find_track_end:
 191              		@ args = 8, pretend = 0, frame = 24
 192              		@ frame_needed = 0, uses_anonymous_args = 0
 193 0000 2DE9F04F 		push	{r4, r5, r6, r7, r8, r9, r10, fp, lr}
 194 0004 87B0     		sub	sp, sp, #28
 195 0006 8146     		mov	r9, r0
 196 0008 0E46     		mov	r6, r1
 197 000a 9046     		mov	r8, r2
 198 000c 0293     		str	r3, [sp, #8]
 199 000e BDF940B0 		ldrsh	fp, [sp, #64]
 200 0012 119D     		ldr	r5, [sp, #68]
 201 0014 0122     		movs	r2, #1
 202 0016 0021     		movs	r1, #0
 203 0018 FFF7FEFF 		bl	lv_obj_get_style_prop
 204 001c 04B2     		sxth	r4, r0
 205 001e 0422     		movs	r2, #4
 206 0020 0021     		movs	r1, #0
 207 0022 4846     		mov	r0, r9
 208 0024 FFF7FEFF 		bl	lv_obj_get_style_prop
 209 0028 F378     		ldrb	r3, [r6, #3]	@ zero_extendqisi2
 210 002a 13F0020F 		tst	r3, #2
 211 002e 10D0     		beq	.L22
 212 0030 00B2     		sxth	r0, r0
 213 0032 13F00103 		ands	r3, r3, #1
 214 0036 03D0     		beq	.L23
 215 0038 42F2D172 		movw	r2, #10193
 216 003c 9442     		cmp	r4, r2
 217 003e 04D0     		beq	.L24
 218              	.L23:
 219 0040 3BB9     		cbnz	r3, .L22
 220 0042 42F2D173 		movw	r3, #10193
 221 0046 9842     		cmp	r0, r3
 222 0048 03D1     		bne	.L22
 223              	.L24:
 224 004a F378     		ldrb	r3, [r6, #3]	@ zero_extendqisi2
 225 004c 23F00203 		bic	r3, r3, #2
 226 0050 F370     		strb	r3, [r6, #3]
 227              	.L22:
 228 0052 F378     		ldrb	r3, [r6, #3]	@ zero_extendqisi2
 229 0054 13F00103 		ands	r3, r3, #1
 230 0058 13D0     		beq	.L47
 231 005a 814A     		ldr	r2, .L53
 232 005c 0392     		str	r2, [sp, #12]
 233              	.L25:
 234 005e 9BB9     		cbnz	r3, .L48
 235 0060 DFF8FCA1 		ldr	r10, .L53
 236              	.L26:
 237 0064 0023     		movs	r3, #0
ARM GAS  /var/folders/lp/x54gwt890xv47sdkqj1k04q40000gn/T//cc1wm9J1.s 			page 5


 238 0066 6B80     		strh	r3, [r5, #2]	@ movhi
 239 0068 AB80     		strh	r3, [r5, #4]	@ movhi
 240 006a 2B61     		str	r3, [r5, #16]
 241 006c 2B80     		strh	r3, [r5]	@ movhi
 242 006e AB60     		str	r3, [r5, #8]
 243 0070 EB60     		str	r3, [r5, #12]
 244 0072 CDF81480 		str	r8, [sp, #20]
 245 0076 4146     		mov	r1, r8
 246 0078 4846     		mov	r0, r9
 247 007a FFF7FEFF 		bl	lv_obj_get_child
 248 007e 0446     		mov	r4, r0
 249 0080 A6E0     		b	.L27
 250              	.L47:
 251 0082 784A     		ldr	r2, .L53+4
 252 0084 0392     		str	r2, [sp, #12]
 253 0086 EAE7     		b	.L25
 254              	.L48:
 255 0088 DFF8D8A1 		ldr	r10, .L53+4
 256 008c EAE7     		b	.L26
 257              	.L51:
 258 008e 764B     		ldr	r3, .L53+8
 259 0090 1A88     		ldrh	r2, [r3]
 260 0092 0021     		movs	r1, #0
 261 0094 2046     		mov	r0, r4
 262 0096 FFF7FEFF 		bl	lv_obj_get_style_prop
 263 009a 0746     		mov	r7, r0
 264 009c 10F0FF0F 		tst	r0, #255
 265 00a0 6CD0     		beq	.L31
 266 00a2 2869     		ldr	r0, [r5, #16]
 267 00a4 0130     		adds	r0, r0, #1
 268 00a6 2861     		str	r0, [r5, #16]
 269 00a8 AB88     		ldrh	r3, [r5, #4]
 270 00aa 5B44     		add	r3, r3, fp
 271 00ac AB80     		strh	r3, [r5, #4]	@ movhi
 272 00ae 2B7D     		ldrb	r3, [r5, #20]	@ zero_extendqisi2
 273 00b0 13F0010F 		tst	r3, #1
 274 00b4 74D0     		beq	.L32
 275 00b6 00EB8000 		add	r0, r0, r0, lsl #2
 276 00ba 8000     		lsls	r0, r0, #2
 277 00bc FFF7FEFF 		bl	lv_mem_buf_get
 278 00c0 0190     		str	r0, [sp, #4]
 279 00c2 0028     		cmp	r0, #0
 280 00c4 4BD0     		beq	.L34
 281 00c6 E968     		ldr	r1, [r5, #12]
 282 00c8 51B1     		cbz	r1, .L35
 283 00ca 2B69     		ldr	r3, [r5, #16]
 284 00cc 03EB8303 		add	r3, r3, r3, lsl #2
 285 00d0 9A00     		lsls	r2, r3, #2
 286 00d2 143A     		subs	r2, r2, #20
 287 00d4 0198     		ldr	r0, [sp, #4]
 288 00d6 FFF7FEFF 		bl	lv_memcpy
 289 00da E868     		ldr	r0, [r5, #12]
 290 00dc FFF7FEFF 		bl	lv_mem_buf_release
 291              	.L35:
 292 00e0 2B69     		ldr	r3, [r5, #16]
 293 00e2 03EB8303 		add	r3, r3, r3, lsl #2
 294 00e6 9B00     		lsls	r3, r3, #2
ARM GAS  /var/folders/lp/x54gwt890xv47sdkqj1k04q40000gn/T//cc1wm9J1.s 			page 6


 295 00e8 143B     		subs	r3, r3, #20
 296 00ea 019A     		ldr	r2, [sp, #4]
 297 00ec D450     		str	r4, [r2, r3]
 298 00ee F378     		ldrb	r3, [r6, #3]	@ zero_extendqisi2
 299 00f0 13F0010F 		tst	r3, #1
 300 00f4 34D0     		beq	.L36
 301 00f6 0222     		movs	r2, #2
 302 00f8 0021     		movs	r1, #0
 303 00fa 2046     		mov	r0, r4
 304 00fc FFF7FEFF 		bl	lv_obj_get_style_prop
 305 0100 00B2     		sxth	r0, r0
 306              	.L37:
 307 0102 2B69     		ldr	r3, [r5, #16]
 308 0104 03EB8303 		add	r3, r3, r3, lsl #2
 309 0108 9B00     		lsls	r3, r3, #2
 310 010a 143B     		subs	r3, r3, #20
 311 010c 019A     		ldr	r2, [sp, #4]
 312 010e 1344     		add	r3, r3, r2
 313 0110 9880     		strh	r0, [r3, #4]	@ movhi
 314 0112 F378     		ldrb	r3, [r6, #3]	@ zero_extendqisi2
 315 0114 13F0010F 		tst	r3, #1
 316 0118 29D0     		beq	.L38
 317 011a 0322     		movs	r2, #3
 318 011c 0021     		movs	r1, #0
 319 011e 2046     		mov	r0, r4
 320 0120 FFF7FEFF 		bl	lv_obj_get_style_prop
 321 0124 00B2     		sxth	r0, r0
 322              	.L39:
 323 0126 2B69     		ldr	r3, [r5, #16]
 324 0128 03EB8303 		add	r3, r3, r3, lsl #2
 325 012c 9B00     		lsls	r3, r3, #2
 326 012e 143B     		subs	r3, r3, #20
 327 0130 0199     		ldr	r1, [sp, #4]
 328 0132 0B44     		add	r3, r3, r1
 329 0134 D880     		strh	r0, [r3, #6]	@ movhi
 330 0136 2B69     		ldr	r3, [r5, #16]
 331 0138 03EB8303 		add	r3, r3, r3, lsl #2
 332 013c 9B00     		lsls	r3, r3, #2
 333 013e 143B     		subs	r3, r3, #20
 334 0140 0B44     		add	r3, r3, r1
 335 0142 FFB2     		uxtb	r7, r7
 336 0144 DF60     		str	r7, [r3, #12]
 337 0146 2B69     		ldr	r3, [r5, #16]
 338 0148 03EB8303 		add	r3, r3, r3, lsl #2
 339 014c 9B00     		lsls	r3, r3, #2
 340 014e 143B     		subs	r3, r3, #20
 341 0150 0B44     		add	r3, r3, r1
 342 0152 1A7C     		ldrb	r2, [r3, #16]	@ zero_extendqisi2
 343 0154 22F00102 		bic	r2, r2, #1
 344 0158 1A74     		strb	r2, [r3, #16]
 345 015a E960     		str	r1, [r5, #12]
 346 015c 20E0     		b	.L32
 347              	.L34:
 348 015e FEE7     		b	.L34
 349              	.L36:
 350 0160 0522     		movs	r2, #5
 351 0162 0021     		movs	r1, #0
ARM GAS  /var/folders/lp/x54gwt890xv47sdkqj1k04q40000gn/T//cc1wm9J1.s 			page 7


 352 0164 2046     		mov	r0, r4
 353 0166 FFF7FEFF 		bl	lv_obj_get_style_prop
 354 016a 00B2     		sxth	r0, r0
 355 016c C9E7     		b	.L37
 356              	.L38:
 357 016e 0622     		movs	r2, #6
 358 0170 0021     		movs	r1, #0
 359 0172 2046     		mov	r0, r4
 360 0174 FFF7FEFF 		bl	lv_obj_get_style_prop
 361 0178 00B2     		sxth	r0, r0
 362 017a D4E7     		b	.L39
 363              	.L31:
 364 017c 2046     		mov	r0, r4
 365 017e 039B     		ldr	r3, [sp, #12]
 366 0180 9847     		blx	r3
 367 0182 F378     		ldrb	r3, [r6, #3]	@ zero_extendqisi2
 368 0184 13F0020F 		tst	r3, #2
 369 0188 05D0     		beq	.L40
 370 018a B5F90430 		ldrsh	r3, [r5, #4]
 371 018e 0344     		add	r3, r3, r0
 372 0190 029A     		ldr	r2, [sp, #8]
 373 0192 9342     		cmp	r3, r2
 374 0194 34DC     		bgt	.L29
 375              	.L40:
 376 0196 AB88     		ldrh	r3, [r5, #4]
 377 0198 5844     		add	r0, r0, fp
 378 019a 13FA80F0 		uxtah	r0, r3, r0
 379 019e A880     		strh	r0, [r5, #4]	@ movhi
 380              	.L32:
 381 01a0 2046     		mov	r0, r4
 382 01a2 D047     		blx	r10
 383 01a4 B5F90030 		ldrsh	r3, [r5]
 384 01a8 9842     		cmp	r0, r3
 385 01aa 02DD     		ble	.L41
 386 01ac 2046     		mov	r0, r4
 387 01ae D047     		blx	r10
 388 01b0 0346     		mov	r3, r0
 389              	.L41:
 390 01b2 2B80     		strh	r3, [r5]	@ movhi
 391 01b4 AB68     		ldr	r3, [r5, #8]
 392 01b6 0133     		adds	r3, r3, #1
 393 01b8 AB60     		str	r3, [r5, #8]
 394 01ba 1AE0     		b	.L30
 395              	.L49:
 396 01bc 0121     		movs	r1, #1
 397              	.L42:
 398 01be 059B     		ldr	r3, [sp, #20]
 399 01c0 1944     		add	r1, r1, r3
 400 01c2 0591     		str	r1, [sp, #20]
 401 01c4 0029     		cmp	r1, #0
 402 01c6 1BDB     		blt	.L29
 403 01c8 4846     		mov	r0, r9
 404 01ca FFF7FEFF 		bl	lv_obj_get_child
 405 01ce 0446     		mov	r4, r0
 406              	.L27:
 407 01d0 B4B1     		cbz	r4, .L29
 408 01d2 059B     		ldr	r3, [sp, #20]
ARM GAS  /var/folders/lp/x54gwt890xv47sdkqj1k04q40000gn/T//cc1wm9J1.s 			page 8


 409 01d4 4345     		cmp	r3, r8
 410 01d6 05D0     		beq	.L28
 411 01d8 4FF40001 		mov	r1, #8388608
 412 01dc 2046     		mov	r0, r4
 413 01de FFF7FEFF 		bl	lv_obj_has_flag
 414 01e2 68B9     		cbnz	r0, .L29
 415              	.L28:
 416 01e4 2149     		ldr	r1, .L53+12
 417 01e6 2046     		mov	r0, r4
 418 01e8 FFF7FEFF 		bl	lv_obj_has_flag_any
 419 01ec 0028     		cmp	r0, #0
 420 01ee 3FF44EAF 		beq	.L51
 421              	.L30:
 422 01f2 F378     		ldrb	r3, [r6, #3]	@ zero_extendqisi2
 423 01f4 13F0040F 		tst	r3, #4
 424 01f8 E0D0     		beq	.L49
 425 01fa 4FF0FF31 		mov	r1, #-1
 426 01fe DEE7     		b	.L42
 427              	.L29:
 428 0200 B5F90430 		ldrsh	r3, [r5, #4]
 429 0204 002B     		cmp	r3, #0
 430 0206 03DD     		ble	.L44
 431 0208 9BB2     		uxth	r3, r3
 432 020a A3EB0B03 		sub	r3, r3, fp
 433 020e AB80     		strh	r3, [r5, #4]	@ movhi
 434              	.L44:
 435 0210 2B69     		ldr	r3, [r5, #16]
 436 0212 13B9     		cbnz	r3, .L45
 437 0214 B5F90430 		ldrsh	r3, [r5, #4]
 438 0218 0293     		str	r3, [sp, #8]
 439              	.L45:
 440 021a 029B     		ldr	r3, [sp, #8]
 441 021c 6B80     		strh	r3, [r5, #2]	@ movhi
 442 021e 14B1     		cbz	r4, .L46
 443 0220 059B     		ldr	r3, [sp, #20]
 444 0222 4345     		cmp	r3, r8
 445 0224 03D0     		beq	.L52
 446              	.L46:
 447 0226 0598     		ldr	r0, [sp, #20]
 448 0228 07B0     		add	sp, sp, #28
 449              		@ sp needed
 450 022a BDE8F08F 		pop	{r4, r5, r6, r7, r8, r9, r10, fp, pc}
 451              	.L52:
 452 022e D9F80820 		ldr	r2, [r9, #8]
 453 0232 1268     		ldr	r2, [r2]
 454 0234 52F82340 		ldr	r4, [r2, r3, lsl #2]
 455 0238 F178     		ldrb	r1, [r6, #3]	@ zero_extendqisi2
 456 023a 05AA     		add	r2, sp, #20
 457 023c C1F38001 		ubfx	r1, r1, #2, #1
 458 0240 4846     		mov	r0, r9
 459 0242 FFF7FEFF 		bl	get_next_item
 460 0246 002C     		cmp	r4, #0
 461 0248 EDD0     		beq	.L46
 462 024a 2046     		mov	r0, r4
 463 024c D047     		blx	r10
 464 024e 2880     		strh	r0, [r5]	@ movhi
 465 0250 2046     		mov	r0, r4
ARM GAS  /var/folders/lp/x54gwt890xv47sdkqj1k04q40000gn/T//cc1wm9J1.s 			page 9


 466 0252 039B     		ldr	r3, [sp, #12]
 467 0254 9847     		blx	r3
 468 0256 6880     		strh	r0, [r5, #2]	@ movhi
 469 0258 0123     		movs	r3, #1
 470 025a AB60     		str	r3, [r5, #8]
 471 025c E3E7     		b	.L46
 472              	.L54:
 473 025e 00BF     		.align	2
 474              	.L53:
 475 0260 00000000 		.word	lv_obj_get_width
 476 0264 00000000 		.word	lv_obj_get_height
 477 0268 00000000 		.word	LV_STYLE_FLEX_GROW
 478 026c 01000600 		.word	393217
 480              		.section	.text.children_repos,"ax",%progbits
 481              		.align	1
 482              		.syntax unified
 483              		.thumb
 484              		.thumb_func
 486              	children_repos:
 487              		@ args = 20, pretend = 0, frame = 64
 488              		@ frame_needed = 0, uses_anonymous_args = 0
 489 0000 2DE9F04F 		push	{r4, r5, r6, r7, r8, r9, r10, fp, lr}
 490 0004 93B0     		sub	sp, sp, #76
 491 0006 0390     		str	r0, [sp, #12]
 492 0008 8A46     		mov	r10, r1
 493 000a 0D92     		str	r2, [sp, #52]
 494 000c 0493     		str	r3, [sp, #16]
 495 000e BDF97030 		ldrsh	r3, [sp, #112]
 496 0012 0693     		str	r3, [sp, #24]
 497 0014 BDF97430 		ldrsh	r3, [sp, #116]
 498 0018 0793     		str	r3, [sp, #28]
 499 001a BDF97C30 		ldrsh	r3, [sp, #124]
 500 001e 0893     		str	r3, [sp, #32]
 501 0020 209C     		ldr	r4, [sp, #128]
 502 0022 CB78     		ldrb	r3, [r1, #3]	@ zero_extendqisi2
 503 0024 13F00103 		ands	r3, r3, #1
 504 0028 09D0     		beq	.L103
 505 002a A64A     		ldr	r2, .L121
 506 002c 0A92     		str	r2, [sp, #40]
 507              	.L56:
 508 002e 4BB1     		cbz	r3, .L104
 509 0030 A54A     		ldr	r2, .L121+4
 510 0032 0592     		str	r2, [sp, #20]
 511              	.L57:
 512 0034 4BB9     		cbnz	r3, .L105
 513 0036 A44B     		ldr	r3, .L121+4
 514 0038 0993     		str	r3, [sp, #36]
 515              	.L58:
 516 003a 0126     		movs	r6, #1
 517 003c 57E0     		b	.L59
 518              	.L103:
 519 003e A34A     		ldr	r2, .L121+8
 520 0040 0A92     		str	r2, [sp, #40]
 521 0042 F4E7     		b	.L56
 522              	.L104:
 523 0044 A24A     		ldr	r2, .L121+12
 524 0046 0592     		str	r2, [sp, #20]
ARM GAS  /var/folders/lp/x54gwt890xv47sdkqj1k04q40000gn/T//cc1wm9J1.s 			page 10


 525 0048 F4E7     		b	.L57
 526              	.L105:
 527 004a A14B     		ldr	r3, .L121+12
 528 004c 0993     		str	r3, [sp, #36]
 529 004e F4E7     		b	.L58
 530              	.L61:
 531 0050 0089     		ldrh	r0, [r0, #8]
 532 0052 091A     		subs	r1, r1, r0
 533 0054 09B2     		sxth	r1, r1
 534              	.L62:
 535 0056 0133     		adds	r3, r3, #1
 536              	.L60:
 537 0058 2069     		ldr	r0, [r4, #16]
 538 005a 9842     		cmp	r0, r3
 539 005c 0CD9     		bls	.L110
 540 005e E068     		ldr	r0, [r4, #12]
 541 0060 03EB8305 		add	r5, r3, r3, lsl #2
 542 0064 00EB8500 		add	r0, r0, r5, lsl #2
 543 0068 057C     		ldrb	r5, [r0, #16]	@ zero_extendqisi2
 544 006a 15F0010F 		tst	r5, #1
 545 006e EFD1     		bne	.L61
 546 0070 C068     		ldr	r0, [r0, #12]
 547 0072 0244     		add	r2, r2, r0
 548 0074 12B2     		sxth	r2, r2
 549 0076 EEE7     		b	.L62
 550              	.L110:
 551 0078 4FF0000C 		mov	ip, #0
 552 007c 6046     		mov	r0, ip
 553 007e 0DE0     		b	.L64
 554              	.L67:
 555 0080 FEE7     		b	.L67
 556              	.L68:
 557 0082 E368     		ldr	r3, [r4, #12]
 558 0084 3B44     		add	r3, r3, r7
 559 0086 A3F808E0 		strh	lr, [r3, #8]	@ movhi
 560 008a E368     		ldr	r3, [r4, #12]
 561 008c 3B44     		add	r3, r3, r7
 562 008e DD68     		ldr	r5, [r3, #12]
 563 0090 551B     		subs	r5, r2, r5
 564 0092 2AB2     		sxth	r2, r5
 565 0094 1B89     		ldrh	r3, [r3, #8]
 566 0096 CB1A     		subs	r3, r1, r3
 567 0098 19B2     		sxth	r1, r3
 568              	.L65:
 569 009a 0130     		adds	r0, r0, #1
 570              	.L64:
 571 009c 2369     		ldr	r3, [r4, #16]
 572 009e 8342     		cmp	r3, r0
 573 00a0 24D9     		bls	.L111
 574 00a2 E568     		ldr	r5, [r4, #12]
 575 00a4 00EB8003 		add	r3, r0, r0, lsl #2
 576 00a8 9F00     		lsls	r7, r3, #2
 577 00aa 05EB8303 		add	r3, r5, r3, lsl #2
 578 00ae 1D7C     		ldrb	r5, [r3, #16]	@ zero_extendqisi2
 579 00b0 15F0010F 		tst	r5, #1
 580 00b4 F1D1     		bne	.L65
 581 00b6 002A     		cmp	r2, #0
ARM GAS  /var/folders/lp/x54gwt890xv47sdkqj1k04q40000gn/T//cc1wm9J1.s 			page 11


 582 00b8 E2D0     		beq	.L67
 583 00ba 91FBF2F5 		sdiv	r5, r1, r2
 584 00be D3F80CE0 		ldr	lr, [r3, #12]
 585 00c2 15FB0EF5 		smulbb	r5, r5, lr
 586 00c6 2DB2     		sxth	r5, r5
 587 00c8 B3F906E0 		ldrsh	lr, [r3, #6]
 588 00cc AE45     		cmp	lr, r5
 589 00ce A8BF     		it	ge
 590 00d0 AE46     		movge	lr, r5
 591 00d2 B3F90480 		ldrsh	r8, [r3, #4]
 592 00d6 C645     		cmp	lr, r8
 593 00d8 B8BF     		it	lt
 594 00da C646     		movlt	lr, r8
 595 00dc 7545     		cmp	r5, lr
 596 00de D0D0     		beq	.L68
 597 00e0 1D7C     		ldrb	r5, [r3, #16]	@ zero_extendqisi2
 598 00e2 45F00105 		orr	r5, r5, #1
 599 00e6 1D74     		strb	r5, [r3, #16]
 600 00e8 B446     		mov	ip, r6
 601 00ea CAE7     		b	.L68
 602              	.L111:
 603 00ec 6646     		mov	r6, ip
 604              	.L59:
 605 00ee 36B1     		cbz	r6, .L112
 606 00f0 6188     		ldrh	r1, [r4, #2]
 607 00f2 A388     		ldrh	r3, [r4, #4]
 608 00f4 C91A     		subs	r1, r1, r3
 609 00f6 09B2     		sxth	r1, r1
 610 00f8 0022     		movs	r2, #0
 611 00fa 1346     		mov	r3, r2
 612 00fc ACE7     		b	.L60
 613              	.L112:
 614 00fe 1622     		movs	r2, #22
 615 0100 0021     		movs	r1, #0
 616 0102 0398     		ldr	r0, [sp, #12]
 617 0104 FFF7FEFF 		bl	lv_obj_get_style_prop
 618 0108 C5B2     		uxtb	r5, r0
 619 010a 0C95     		str	r5, [sp, #48]
 620 010c 0023     		movs	r3, #0
 621 010e ADF84630 		strh	r3, [sp, #70]	@ movhi
 622 0112 ADF84430 		strh	r3, [sp, #68]	@ movhi
 623 0116 11AB     		add	r3, sp, #68
 624 0118 0193     		str	r3, [sp, #4]
 625 011a 0DF14603 		add	r3, sp, #70
 626 011e 0093     		str	r3, [sp]
 627 0120 B4F90830 		ldrsh	r3, [r4, #8]
 628 0124 B4F90220 		ldrsh	r2, [r4, #2]
 629 0128 BDF97810 		ldrsh	r1, [sp, #120]
 630 012c 9AF80000 		ldrb	r0, [r10]	@ zero_extendqisi2
 631 0130 FFF7FEFF 		bl	place_content
 632 0134 9AF80330 		ldrb	r3, [r10, #3]	@ zero_extendqisi2
 633 0138 13F0010F 		tst	r3, #1
 634 013c 01D0     		beq	.L71
 635 013e 012D     		cmp	r5, #1
 636 0140 05D0     		beq	.L113
 637              	.L71:
 638 0142 0D99     		ldr	r1, [sp, #52]
ARM GAS  /var/folders/lp/x54gwt890xv47sdkqj1k04q40000gn/T//cc1wm9J1.s 			page 12


 639 0144 0398     		ldr	r0, [sp, #12]
 640 0146 FFF7FEFF 		bl	lv_obj_get_child
 641 014a 0546     		mov	r5, r0
 642 014c DBE0     		b	.L72
 643              	.L113:
 644 014e 0398     		ldr	r0, [sp, #12]
 645 0150 FFF7FEFF 		bl	lv_obj_get_content_width
 646 0154 BDF84630 		ldrh	r3, [sp, #70]
 647 0158 13FA80F3 		uxtah	r3, r3, r0
 648 015c ADF84630 		strh	r3, [sp, #70]	@ movhi
 649 0160 EFE7     		b	.L71
 650              	.L116:
 651 0162 9AF80310 		ldrb	r1, [r10, #3]	@ zero_extendqisi2
 652 0166 0DAA     		add	r2, sp, #52
 653 0168 C1F38001 		ubfx	r1, r1, #2, #1
 654 016c 0398     		ldr	r0, [sp, #12]
 655 016e FFF7FEFF 		bl	get_next_item
 656 0172 0546     		mov	r5, r0
 657 0174 C7E0     		b	.L72
 658              	.L115:
 659 0176 B0F90870 		ldrsh	r7, [r0, #8]
 660 017a 0FE0     		b	.L78
 661              	.L117:
 662 017c 0023     		movs	r3, #0
 663              	.L75:
 664 017e 2269     		ldr	r2, [r4, #16]
 665 0180 9A42     		cmp	r2, r3
 666 0182 0AD9     		bls	.L114
 667 0184 E268     		ldr	r2, [r4, #12]
 668 0186 03EB8301 		add	r1, r3, r3, lsl #2
 669 018a 02EB8100 		add	r0, r2, r1, lsl #2
 670 018e 52F82120 		ldr	r2, [r2, r1, lsl #2]
 671 0192 AA42     		cmp	r2, r5
 672 0194 EFD0     		beq	.L115
 673 0196 0133     		adds	r3, r3, #1
 674 0198 F1E7     		b	.L75
 675              	.L114:
 676 019a 0027     		movs	r7, #0
 677              	.L78:
 678 019c 9AF80330 		ldrb	r3, [r10, #3]	@ zero_extendqisi2
 679 01a0 13F0010F 		tst	r3, #1
 680 01a4 39D0     		beq	.L80
 681 01a6 95F82330 		ldrb	r3, [r5, #35]	@ zero_extendqisi2
 682 01aa 43F00803 		orr	r3, r3, #8
 683 01ae 85F82330 		strb	r3, [r5, #35]
 684 01b2 DBB2     		uxtb	r3, r3
 685 01b4 23F00403 		bic	r3, r3, #4
 686 01b8 85F82330 		strb	r3, [r5, #35]
 687              	.L81:
 688 01bc 05F11406 		add	r6, r5, #20
 689 01c0 3046     		mov	r0, r6
 690 01c2 059B     		ldr	r3, [sp, #20]
 691 01c4 9847     		blx	r3
 692 01c6 B842     		cmp	r0, r7
 693 01c8 00F0C180 		beq	.L82
 694 01cc 2846     		mov	r0, r5
 695 01ce FFF7FEFF 		bl	lv_obj_invalidate
ARM GAS  /var/folders/lp/x54gwt890xv47sdkqj1k04q40000gn/T//cc1wm9J1.s 			page 13


 696 01d2 B5F91430 		ldrsh	r3, [r5, #20]
 697 01d6 ADF83C30 		strh	r3, [sp, #60]	@ movhi
 698 01da B5F91630 		ldrsh	r3, [r5, #22]
 699 01de ADF83E30 		strh	r3, [sp, #62]	@ movhi
 700 01e2 B5F91830 		ldrsh	r3, [r5, #24]
 701 01e6 ADF84030 		strh	r3, [sp, #64]	@ movhi
 702 01ea B5F91A30 		ldrsh	r3, [r5, #26]
 703 01ee ADF84230 		strh	r3, [sp, #66]	@ movhi
 704 01f2 3946     		mov	r1, r7
 705 01f4 3046     		mov	r0, r6
 706 01f6 0A9B     		ldr	r3, [sp, #40]
 707 01f8 9847     		blx	r3
 708 01fa 0FAA     		add	r2, sp, #60
 709 01fc 2921     		movs	r1, #41
 710 01fe 2846     		mov	r0, r5
 711 0200 FFF7FEFF 		bl	lv_event_send
 712 0204 2846     		mov	r0, r5
 713 0206 FFF7FEFF 		bl	lv_obj_get_parent
 714 020a 2A46     		mov	r2, r5
 715 020c 2221     		movs	r1, #34
 716 020e FFF7FEFF 		bl	lv_event_send
 717 0212 2846     		mov	r0, r5
 718 0214 FFF7FEFF 		bl	lv_obj_invalidate
 719 0218 99E0     		b	.L82
 720              	.L80:
 721 021a 95F82330 		ldrb	r3, [r5, #35]	@ zero_extendqisi2
 722 021e 43F00403 		orr	r3, r3, #4
 723 0222 85F82330 		strb	r3, [r5, #35]
 724 0226 DBB2     		uxtb	r3, r3
 725 0228 23F00803 		bic	r3, r3, #8
 726 022c 85F82330 		strb	r3, [r5, #35]
 727 0230 C4E7     		b	.L81
 728              	.L83:
 729 0232 2688     		ldrh	r6, [r4]
 730 0234 05F11400 		add	r0, r5, #20
 731 0238 099B     		ldr	r3, [sp, #36]
 732 023a 9847     		blx	r3
 733 023c 83B2     		uxth	r3, r0
 734 023e F61A     		subs	r6, r6, r3
 735 0240 36B2     		sxth	r6, r6
 736 0242 9AE0     		b	.L84
 737              	.L107:
 738 0244 0026     		movs	r6, #0
 739 0246 98E0     		b	.L84
 740              	.L118:
 741 0248 05F11400 		add	r0, r5, #20
 742 024c 059B     		ldr	r3, [sp, #20]
 743 024e 9847     		blx	r3
 744 0250 82B2     		uxth	r2, r0
 745 0252 BDF84630 		ldrh	r3, [sp, #70]
 746 0256 9B1A     		subs	r3, r3, r2
 747 0258 ADF84630 		strh	r3, [sp, #70]	@ movhi
 748 025c 96E0     		b	.L85
 749              	.L119:
 750 025e 2BF4C043 		bic	r3, fp, #24576
 751 0262 B3F5FA6F 		cmp	r3, #2000
 752 0266 00F3AE80 		bgt	.L86
ARM GAS  /var/folders/lp/x54gwt890xv47sdkqj1k04q40000gn/T//cc1wm9J1.s 			page 14


 753 026a B3F57A7F 		cmp	r3, #1000
 754 026e 01DD     		ble	.L88
 755 0270 C3F57A73 		rsb	r3, r3, #1000
 756              	.L88:
 757 0274 0B9A     		ldr	r2, [sp, #44]
 758 0276 03FB02F2 		mul	r2, r3, r2
 759 027a 1346     		mov	r3, r2
 760 027c 154A     		ldr	r2, .L121+16
 761 027e 82FB0312 		smull	r1, r2, r2, r3
 762 0282 DB17     		asrs	r3, r3, #31
 763 0284 C3EB6213 		rsb	r3, r3, r2, asr #5
 764 0288 0FFA83FB 		sxth	fp, r3
 765 028c 9BE0     		b	.L86
 766              	.L120:
 767 028e 29F4C043 		bic	r3, r9, #24576
 768 0292 B3F5FA6F 		cmp	r3, #2000
 769 0296 00F39C80 		bgt	.L89
 770 029a B3F57A7F 		cmp	r3, #1000
 771 029e 01DD     		ble	.L91
 772 02a0 C3F57A73 		rsb	r3, r3, #1000
 773              	.L91:
 774 02a4 03FB00F0 		mul	r0, r3, r0
 775 02a8 0A4B     		ldr	r3, .L121+16
 776 02aa 83FB0023 		smull	r2, r3, r3, r0
 777 02ae C017     		asrs	r0, r0, #31
 778 02b0 C0EB6313 		rsb	r3, r0, r3, asr #5
 779 02b4 0FFA83F9 		sxth	r9, r3
 780 02b8 8BE0     		b	.L89
 781              	.L92:
 782 02ba B1B2     		uxth	r1, r6
 783 02bc 9DE0     		b	.L93
 784              	.L94:
 785 02be BDF84660 		ldrh	r6, [sp, #70]
 786 02c2 A2E0     		b	.L95
 787              	.L122:
 788              		.align	2
 789              	.L121:
 790 02c4 00000000 		.word	lv_area_set_width
 791 02c8 00000000 		.word	lv_area_get_width
 792 02cc 00000000 		.word	lv_area_set_height
 793 02d0 00000000 		.word	lv_area_get_height
 794 02d4 1F85EB51 		.word	1374389535
 795              	.L98:
 796 02d8 05F11400 		add	r0, r5, #20
 797 02dc 059B     		ldr	r3, [sp, #20]
 798 02de 9847     		blx	r3
 799 02e0 089B     		ldr	r3, [sp, #32]
 800 02e2 1A18     		adds	r2, r3, r0
 801 02e4 BDF94430 		ldrsh	r3, [sp, #68]
 802 02e8 1344     		add	r3, r3, r2
 803 02ea BDF84620 		ldrh	r2, [sp, #70]
 804 02ee 1344     		add	r3, r3, r2
 805 02f0 ADF84630 		strh	r3, [sp, #70]	@ movhi
 806              	.L100:
 807 02f4 9AF80310 		ldrb	r1, [r10, #3]	@ zero_extendqisi2
 808 02f8 0DAA     		add	r2, sp, #52
 809 02fa C1F38001 		ubfx	r1, r1, #2, #1
ARM GAS  /var/folders/lp/x54gwt890xv47sdkqj1k04q40000gn/T//cc1wm9J1.s 			page 15


 810 02fe 0398     		ldr	r0, [sp, #12]
 811 0300 FFF7FEFF 		bl	get_next_item
 812 0304 0546     		mov	r5, r0
 813              	.L72:
 814 0306 002D     		cmp	r5, #0
 815 0308 00F0B480 		beq	.L55
 816 030c 0D9B     		ldr	r3, [sp, #52]
 817 030e 049A     		ldr	r2, [sp, #16]
 818 0310 9342     		cmp	r3, r2
 819 0312 00F0AF80 		beq	.L55
 820 0316 5949     		ldr	r1, .L123
 821 0318 2846     		mov	r0, r5
 822 031a FFF7FEFF 		bl	lv_obj_has_flag_any
 823 031e 0028     		cmp	r0, #0
 824 0320 7FF41FAF 		bne	.L116
 825 0324 564B     		ldr	r3, .L123+4
 826 0326 1A88     		ldrh	r2, [r3]
 827 0328 0021     		movs	r1, #0
 828 032a 2846     		mov	r0, r5
 829 032c FFF7FEFF 		bl	lv_obj_get_style_prop
 830 0330 10F0FF0F 		tst	r0, #255
 831 0334 7FF422AF 		bne	.L117
 832 0338 95F82330 		ldrb	r3, [r5, #35]	@ zero_extendqisi2
 833 033c 23F00803 		bic	r3, r3, #8
 834 0340 85F82330 		strb	r3, [r5, #35]
 835 0344 DBB2     		uxtb	r3, r3
 836 0346 23F00403 		bic	r3, r3, #4
 837 034a 85F82330 		strb	r3, [r5, #35]
 838              	.L82:
 839 034e 9AF80130 		ldrb	r3, [r10, #1]	@ zero_extendqisi2
 840 0352 012B     		cmp	r3, #1
 841 0354 3FF46DAF 		beq	.L83
 842 0358 022B     		cmp	r3, #2
 843 035a 7FF473AF 		bne	.L107
 844 035e B4F90060 		ldrsh	r6, [r4]
 845 0362 0136     		adds	r6, r6, #1
 846 0364 26F00106 		bic	r6, r6, #1
 847 0368 05F11400 		add	r0, r5, #20
 848 036c 099B     		ldr	r3, [sp, #36]
 849 036e 9847     		blx	r3
 850 0370 361A     		subs	r6, r6, r0
 851 0372 06EBD676 		add	r6, r6, r6, lsr #31
 852 0376 46F34F06 		sbfx	r6, r6, #1, #16
 853              	.L84:
 854 037a 9AF80330 		ldrb	r3, [r10, #3]	@ zero_extendqisi2
 855 037e 13F0010F 		tst	r3, #1
 856 0382 03D0     		beq	.L85
 857 0384 0C9B     		ldr	r3, [sp, #48]
 858 0386 012B     		cmp	r3, #1
 859 0388 3FF45EAF 		beq	.L118
 860              	.L85:
 861 038c 6B22     		movs	r2, #107
 862 038e 0021     		movs	r1, #0
 863 0390 2846     		mov	r0, r5
 864 0392 FFF7FEFF 		bl	lv_obj_get_style_prop
 865 0396 8046     		mov	r8, r0
 866 0398 0FFA80FB 		sxth	fp, r0
ARM GAS  /var/folders/lp/x54gwt890xv47sdkqj1k04q40000gn/T//cc1wm9J1.s 			page 16


 867 039c 6C22     		movs	r2, #108
 868 039e 0021     		movs	r1, #0
 869 03a0 2846     		mov	r0, r5
 870 03a2 FFF7FEFF 		bl	lv_obj_get_style_prop
 871 03a6 0746     		mov	r7, r0
 872 03a8 0FFA80F9 		sxth	r9, r0
 873 03ac 2846     		mov	r0, r5
 874 03ae FFF7FEFF 		bl	lv_obj_get_width
 875 03b2 0B90     		str	r0, [sp, #44]
 876 03b4 2846     		mov	r0, r5
 877 03b6 FFF7FEFF 		bl	lv_obj_get_height
 878 03ba 08F4C048 		and	r8, r8, #24576
 879 03be B8F5005F 		cmp	r8, #8192
 880 03c2 3FF44CAF 		beq	.L119
 881              	.L86:
 882 03c6 07F4C047 		and	r7, r7, #24576
 883 03ca B7F5005F 		cmp	r7, #8192
 884 03ce 3FF45EAF 		beq	.L120
 885              	.L89:
 886 03d2 AF8A     		ldrh	r7, [r5, #20]
 887 03d4 069B     		ldr	r3, [sp, #24]
 888 03d6 DF1B     		subs	r7, r3, r7
 889 03d8 1BFA87F7 		uxtah	r7, fp, r7
 890 03dc BFB2     		uxth	r7, r7
 891 03de EB8A     		ldrh	r3, [r5, #22]
 892 03e0 079A     		ldr	r2, [sp, #28]
 893 03e2 D31A     		subs	r3, r2, r3
 894 03e4 19FA83F3 		uxtah	r3, r9, r3
 895 03e8 9BB2     		uxth	r3, r3
 896 03ea 9AF80320 		ldrb	r2, [r10, #3]	@ zero_extendqisi2
 897 03ee 12F00102 		ands	r2, r2, #1
 898 03f2 3FF462AF 		beq	.L92
 899 03f6 BDF84610 		ldrh	r1, [sp, #70]
 900              	.L93:
 901 03fa 0F44     		add	r7, r7, r1
 902 03fc 1FFA87F8 		uxth	r8, r7
 903 0400 3FB2     		sxth	r7, r7
 904 0402 002A     		cmp	r2, #0
 905 0404 3FF45BAF 		beq	.L94
 906 0408 B6B2     		uxth	r6, r6
 907              	.L95:
 908 040a 3344     		add	r3, r3, r6
 909 040c 1FFA83F9 		uxth	r9, r3
 910 0410 1EB2     		sxth	r6, r3
 911 0412 07B9     		cbnz	r7, .L96
 912 0414 CEB1     		cbz	r6, .L97
 913              	.L96:
 914 0416 2846     		mov	r0, r5
 915 0418 FFF7FEFF 		bl	lv_obj_invalidate
 916 041c AB8A     		ldrh	r3, [r5, #20]
 917 041e 4344     		add	r3, r3, r8
 918 0420 AB82     		strh	r3, [r5, #20]	@ movhi
 919 0422 2B8B     		ldrh	r3, [r5, #24]
 920 0424 9844     		add	r8, r8, r3
 921 0426 A5F81880 		strh	r8, [r5, #24]	@ movhi
 922 042a EB8A     		ldrh	r3, [r5, #22]
 923 042c 4B44     		add	r3, r3, r9
ARM GAS  /var/folders/lp/x54gwt890xv47sdkqj1k04q40000gn/T//cc1wm9J1.s 			page 17


 924 042e EB82     		strh	r3, [r5, #22]	@ movhi
 925 0430 6B8B     		ldrh	r3, [r5, #26]
 926 0432 9944     		add	r9, r9, r3
 927 0434 A5F81A90 		strh	r9, [r5, #26]	@ movhi
 928 0438 2846     		mov	r0, r5
 929 043a FFF7FEFF 		bl	lv_obj_invalidate
 930 043e 0023     		movs	r3, #0
 931 0440 3246     		mov	r2, r6
 932 0442 3946     		mov	r1, r7
 933 0444 2846     		mov	r0, r5
 934 0446 FFF7FEFF 		bl	lv_obj_move_children_by
 935              	.L97:
 936 044a 9AF80330 		ldrb	r3, [r10, #3]	@ zero_extendqisi2
 937 044e 13F0010F 		tst	r3, #1
 938 0452 3FF441AF 		beq	.L98
 939 0456 0C9B     		ldr	r3, [sp, #48]
 940 0458 012B     		cmp	r3, #1
 941 045a 7FF43DAF 		bne	.L98
 942 045e BDF84430 		ldrh	r3, [sp, #68]
 943 0462 089A     		ldr	r2, [sp, #32]
 944 0464 1344     		add	r3, r3, r2
 945 0466 9BB2     		uxth	r3, r3
 946 0468 BDF84620 		ldrh	r2, [sp, #70]
 947 046c D31A     		subs	r3, r2, r3
 948 046e ADF84630 		strh	r3, [sp, #70]	@ movhi
 949 0472 3FE7     		b	.L100
 950              	.L55:
 951 0474 13B0     		add	sp, sp, #76
 952              		@ sp needed
 953 0476 BDE8F08F 		pop	{r4, r5, r6, r7, r8, r9, r10, fp, pc}
 954              	.L124:
 955 047a 00BF     		.align	2
 956              	.L123:
 957 047c 01000600 		.word	393217
 958 0480 00000000 		.word	LV_STYLE_FLEX_GROW
 960              		.section	.text.flex_update,"ax",%progbits
 961              		.align	1
 962              		.syntax unified
 963              		.thumb
 964              		.thumb_func
 966              	flex_update:
 967              		@ args = 0, pretend = 0, frame = 56
 968              		@ frame_needed = 0, uses_anonymous_args = 0
 969 0000 2DE9F04F 		push	{r4, r5, r6, r7, r8, r9, r10, fp, lr}
 970 0004 95B0     		sub	sp, sp, #84
 971 0006 0446     		mov	r4, r0
 972 0008 B14B     		ldr	r3, .L169
 973 000a 1A88     		ldrh	r2, [r3]
 974 000c 0021     		movs	r1, #0
 975 000e FFF7FEFF 		bl	lv_obj_get_style_prop
 976 0012 10F0010F 		tst	r0, #1
 977 0016 0CBF     		ite	eq
 978 0018 0122     		moveq	r2, #1
 979 001a 0022     		movne	r2, #0
 980 001c 9DF84F30 		ldrb	r3, [sp, #79]	@ zero_extendqisi2
 981 0020 62F30003 		bfi	r3, r2, #0, #1
 982 0024 8DF84F30 		strb	r3, [sp, #79]
ARM GAS  /var/folders/lp/x54gwt890xv47sdkqj1k04q40000gn/T//cc1wm9J1.s 			page 18


 983 0028 C0F38002 		ubfx	r2, r0, #2, #1
 984 002c DBB2     		uxtb	r3, r3
 985 002e 62F34103 		bfi	r3, r2, #1, #1
 986 0032 8DF84F30 		strb	r3, [sp, #79]
 987 0036 C0F3C000 		ubfx	r0, r0, #3, #1
 988 003a DBB2     		uxtb	r3, r3
 989 003c 60F38203 		bfi	r3, r0, #2, #1
 990 0040 8DF84F30 		strb	r3, [sp, #79]
 991 0044 A34B     		ldr	r3, .L169+4
 992 0046 1A88     		ldrh	r2, [r3]
 993 0048 0021     		movs	r1, #0
 994 004a 2046     		mov	r0, r4
 995 004c FFF7FEFF 		bl	lv_obj_get_style_prop
 996 0050 8DF84C00 		strb	r0, [sp, #76]
 997 0054 A04B     		ldr	r3, .L169+8
 998 0056 1A88     		ldrh	r2, [r3]
 999 0058 0021     		movs	r1, #0
 1000 005a 2046     		mov	r0, r4
 1001 005c FFF7FEFF 		bl	lv_obj_get_style_prop
 1002 0060 8DF84D00 		strb	r0, [sp, #77]
 1003 0064 9D4B     		ldr	r3, .L169+12
 1004 0066 1A88     		ldrh	r2, [r3]
 1005 0068 0021     		movs	r1, #0
 1006 006a 2046     		mov	r0, r4
 1007 006c FFF7FEFF 		bl	lv_obj_get_style_prop
 1008 0070 8DF84E00 		strb	r0, [sp, #78]
 1009 0074 1622     		movs	r2, #22
 1010 0076 0021     		movs	r1, #0
 1011 0078 2046     		mov	r0, r4
 1012 007a FFF7FEFF 		bl	lv_obj_get_style_prop
 1013 007e 5FFA80F8 		uxtb	r8, r0
 1014 0082 9DF84F30 		ldrb	r3, [sp, #79]	@ zero_extendqisi2
 1015 0086 13F0010F 		tst	r3, #1
 1016 008a 40F08480 		bne	.L126
 1017 008e 1522     		movs	r2, #21
 1018 0090 0021     		movs	r1, #0
 1019 0092 2046     		mov	r0, r4
 1020 0094 FFF7FEFF 		bl	lv_obj_get_style_prop
 1021 0098 0FFA80FA 		sxth	r10, r0
 1022              	.L127:
 1023 009c 9DF84F30 		ldrb	r3, [sp, #79]	@ zero_extendqisi2
 1024 00a0 13F0010F 		tst	r3, #1
 1025 00a4 7FD0     		beq	.L128
 1026 00a6 1522     		movs	r2, #21
 1027 00a8 0021     		movs	r1, #0
 1028 00aa 2046     		mov	r0, r4
 1029 00ac FFF7FEFF 		bl	lv_obj_get_style_prop
 1030 00b0 06B2     		sxth	r6, r0
 1031              	.L129:
 1032 00b2 9DF84F30 		ldrb	r3, [sp, #79]	@ zero_extendqisi2
 1033 00b6 13F0010F 		tst	r3, #1
 1034 00ba 7BD0     		beq	.L130
 1035 00bc 2046     		mov	r0, r4
 1036 00be FFF7FEFF 		bl	lv_obj_get_content_width
 1037 00c2 0746     		mov	r7, r0
 1038              	.L131:
 1039 00c4 3222     		movs	r2, #50
ARM GAS  /var/folders/lp/x54gwt890xv47sdkqj1k04q40000gn/T//cc1wm9J1.s 			page 19


 1040 00c6 0021     		movs	r1, #0
 1041 00c8 2046     		mov	r0, r4
 1042 00ca FFF7FEFF 		bl	lv_obj_get_style_prop
 1043 00ce 8146     		mov	r9, r0
 1044 00d0 E58A     		ldrh	r5, [r4, #22]
 1045 00d2 1022     		movs	r2, #16
 1046 00d4 0021     		movs	r1, #0
 1047 00d6 2046     		mov	r0, r4
 1048 00d8 FFF7FEFF 		bl	lv_obj_get_style_prop
 1049 00dc 15FA80F5 		uxtah	r5, r5, r0
 1050 00e0 1FFA89F9 		uxth	r9, r9
 1051 00e4 19FA85F5 		uxtah	r5, r9, r5
 1052 00e8 ADB2     		uxth	r5, r5
 1053 00ea 2046     		mov	r0, r4
 1054 00ec FFF7FEFF 		bl	lv_obj_get_scroll_y
 1055 00f0 80B2     		uxth	r0, r0
 1056 00f2 2D1A     		subs	r5, r5, r0
 1057 00f4 ADF84A50 		strh	r5, [sp, #74]	@ movhi
 1058 00f8 A58A     		ldrh	r5, [r4, #20]
 1059 00fa 1222     		movs	r2, #18
 1060 00fc 0021     		movs	r1, #0
 1061 00fe 2046     		mov	r0, r4
 1062 0100 FFF7FEFF 		bl	lv_obj_get_style_prop
 1063 0104 15FA80F5 		uxtah	r5, r5, r0
 1064 0108 19FA85F5 		uxtah	r5, r9, r5
 1065 010c ADB2     		uxth	r5, r5
 1066 010e 2046     		mov	r0, r4
 1067 0110 FFF7FEFF 		bl	lv_obj_get_scroll_x
 1068 0114 80B2     		uxth	r0, r0
 1069 0116 2D1A     		subs	r5, r5, r0
 1070 0118 ADF84850 		strh	r5, [sp, #72]	@ movhi
 1071 011c 9DF84E30 		ldrb	r3, [sp, #78]	@ zero_extendqisi2
 1072 0120 0793     		str	r3, [sp, #28]
 1073 0122 9DF84F30 		ldrb	r3, [sp, #79]	@ zero_extendqisi2
 1074 0126 13F0010F 		tst	r3, #1
 1075 012a 48D0     		beq	.L156
 1076 012c 0DF14A09 		add	r9, sp, #74
 1077              	.L132:
 1078 0130 0122     		movs	r2, #1
 1079 0132 0021     		movs	r1, #0
 1080 0134 2046     		mov	r0, r4
 1081 0136 FFF7FEFF 		bl	lv_obj_get_style_prop
 1082 013a 03B2     		sxth	r3, r0
 1083 013c 0893     		str	r3, [sp, #32]
 1084 013e 0422     		movs	r2, #4
 1085 0140 0021     		movs	r1, #0
 1086 0142 2046     		mov	r0, r4
 1087 0144 FFF7FEFF 		bl	lv_obj_get_style_prop
 1088 0148 03B2     		sxth	r3, r0
 1089 014a 1846     		mov	r0, r3
 1090 014c 0993     		str	r3, [sp, #36]
 1091 014e 9DF84F30 		ldrb	r3, [sp, #79]	@ zero_extendqisi2
 1092 0152 13F00102 		ands	r2, r3, #1
 1093 0156 03D0     		beq	.L133
 1094 0158 42F2D171 		movw	r1, #10193
 1095 015c 8842     		cmp	r0, r1
 1096 015e 31D0     		beq	.L165
ARM GAS  /var/folders/lp/x54gwt890xv47sdkqj1k04q40000gn/T//cc1wm9J1.s 			page 20


 1097              	.L133:
 1098 0160 22B9     		cbnz	r2, .L134
 1099 0162 42F2D171 		movw	r1, #10193
 1100 0166 0898     		ldr	r0, [sp, #32]
 1101 0168 8842     		cmp	r0, r1
 1102 016a 33D0     		beq	.L166
 1103              	.L134:
 1104 016c B8F1010F 		cmp	r8, #1
 1105 0170 38D0     		beq	.L167
 1106              	.L135:
 1107 0172 0022     		movs	r2, #0
 1108 0174 ADF84620 		strh	r2, [sp, #70]	@ movhi
 1109 0178 079A     		ldr	r2, [sp, #28]
 1110 017a 002A     		cmp	r2, #0
 1111 017c 00F09580 		beq	.L159
 1112              	.L137:
 1113 0180 13F0040F 		tst	r3, #4
 1114 0184 00F08A80 		beq	.L160
 1115 0188 A368     		ldr	r3, [r4, #8]
 1116 018a 5A68     		ldr	r2, [r3, #4]
 1117 018c 013A     		subs	r2, r2, #1
 1118              	.L139:
 1119 018e 4FF0000B 		mov	fp, #0
 1120 0192 5D46     		mov	r5, fp
 1121 0194 4DE0     		b	.L140
 1122              	.L126:
 1123 0196 1422     		movs	r2, #20
 1124 0198 0021     		movs	r1, #0
 1125 019a 2046     		mov	r0, r4
 1126 019c FFF7FEFF 		bl	lv_obj_get_style_prop
 1127 01a0 0FFA80FA 		sxth	r10, r0
 1128 01a4 7AE7     		b	.L127
 1129              	.L128:
 1130 01a6 1422     		movs	r2, #20
 1131 01a8 0021     		movs	r1, #0
 1132 01aa 2046     		mov	r0, r4
 1133 01ac FFF7FEFF 		bl	lv_obj_get_style_prop
 1134 01b0 06B2     		sxth	r6, r0
 1135 01b2 7EE7     		b	.L129
 1136              	.L130:
 1137 01b4 2046     		mov	r0, r4
 1138 01b6 FFF7FEFF 		bl	lv_obj_get_content_height
 1139 01ba 0746     		mov	r7, r0
 1140 01bc 82E7     		b	.L131
 1141              	.L156:
 1142 01be 0DF14809 		add	r9, sp, #72
 1143 01c2 B5E7     		b	.L132
 1144              	.L165:
 1145 01c4 94F82310 		ldrb	r1, [r4, #35]	@ zero_extendqisi2
 1146 01c8 11F0040F 		tst	r1, #4
 1147 01cc C8D1     		bne	.L133
 1148 01ce 0021     		movs	r1, #0
 1149 01d0 0791     		str	r1, [sp, #28]
 1150 01d2 CBE7     		b	.L134
 1151              	.L166:
 1152 01d4 94F82310 		ldrb	r1, [r4, #35]	@ zero_extendqisi2
 1153 01d8 11F0080F 		tst	r1, #8
ARM GAS  /var/folders/lp/x54gwt890xv47sdkqj1k04q40000gn/T//cc1wm9J1.s 			page 21


 1154 01dc C6D1     		bne	.L134
 1155 01de 0021     		movs	r1, #0
 1156 01e0 0791     		str	r1, [sp, #28]
 1157 01e2 C3E7     		b	.L134
 1158              	.L167:
 1159 01e4 002A     		cmp	r2, #0
 1160 01e6 C4D1     		bne	.L135
 1161 01e8 079A     		ldr	r2, [sp, #28]
 1162 01ea 22B9     		cbnz	r2, .L136
 1163 01ec ADF84620 		strh	r2, [sp, #70]	@ movhi
 1164 01f0 CDF81C80 		str	r8, [sp, #28]
 1165 01f4 C4E7     		b	.L137
 1166              	.L136:
 1167 01f6 079A     		ldr	r2, [sp, #28]
 1168 01f8 012A     		cmp	r2, #1
 1169 01fa BAD1     		bne	.L135
 1170 01fc 0025     		movs	r5, #0
 1171 01fe ADF84650 		strh	r5, [sp, #70]	@ movhi
 1172 0202 36E0     		b	.L138
 1173              	.L142:
 1174 0204 9DF84030 		ldrb	r3, [sp, #64]	@ zero_extendqisi2
 1175 0208 23F00103 		bic	r3, r3, #1
 1176 020c 8DF84030 		strb	r3, [sp, #64]
 1177 0210 0BAB     		add	r3, sp, #44
 1178 0212 0193     		str	r3, [sp, #4]
 1179 0214 0096     		str	r6, [sp]
 1180 0216 3B46     		mov	r3, r7
 1181 0218 13A9     		add	r1, sp, #76
 1182 021a 2046     		mov	r0, r4
 1183 021c FFF7FEFF 		bl	find_track_end
 1184 0220 0246     		mov	r2, r0
 1185 0222 BDF82C30 		ldrh	r3, [sp, #44]
 1186 0226 5344     		add	r3, r3, r10
 1187 0228 15FA83F3 		uxtah	r3, r5, r3
 1188 022c 1DB2     		sxth	r5, r3
 1189 022e 0BF1010B 		add	fp, fp, #1
 1190              	.L140:
 1191 0232 A368     		ldr	r3, [r4, #8]
 1192 0234 5B68     		ldr	r3, [r3, #4]
 1193 0236 9342     		cmp	r3, r2
 1194 0238 01DD     		ble	.L141
 1195 023a 002A     		cmp	r2, #0
 1196 023c E2DA     		bge	.L142
 1197              	.L141:
 1198 023e BBF1000F 		cmp	fp, #0
 1199 0242 02D0     		beq	.L143
 1200 0244 A5EB0A05 		sub	r5, r5, r10
 1201 0248 2DB2     		sxth	r5, r5
 1202              	.L143:
 1203 024a 9DF84F30 		ldrb	r3, [sp, #79]	@ zero_extendqisi2
 1204 024e 13F0010F 		tst	r3, #1
 1205 0252 25D0     		beq	.L144
 1206 0254 2046     		mov	r0, r4
 1207 0256 FFF7FEFF 		bl	lv_obj_get_content_height
 1208 025a 0146     		mov	r1, r0
 1209              	.L145:
 1210 025c 0DF14603 		add	r3, sp, #70
ARM GAS  /var/folders/lp/x54gwt890xv47sdkqj1k04q40000gn/T//cc1wm9J1.s 			page 22


 1211 0260 0193     		str	r3, [sp, #4]
 1212 0262 CDF80090 		str	r9, [sp]
 1213 0266 0FFA8BF3 		sxth	r3, fp
 1214 026a 2A46     		mov	r2, r5
 1215 026c 0798     		ldr	r0, [sp, #28]
 1216 026e FFF7FEFF 		bl	place_content
 1217              	.L138:
 1218 0272 9DF84F30 		ldrb	r3, [sp, #79]	@ zero_extendqisi2
 1219 0276 13F0040F 		tst	r3, #4
 1220 027a 18D0     		beq	.L161
 1221 027c A268     		ldr	r2, [r4, #8]
 1222 027e 5268     		ldr	r2, [r2, #4]
 1223 0280 02F1FF3B 		add	fp, r2, #-1
 1224              	.L146:
 1225 0284 B8F1010F 		cmp	r8, #1
 1226 0288 38D1     		bne	.L151
 1227 028a 13F0010F 		tst	r3, #1
 1228 028e 35D1     		bne	.L151
 1229 0290 B9F80030 		ldrh	r3, [r9]
 1230 0294 2B44     		add	r3, r3, r5
 1231 0296 A9F80030 		strh	r3, [r9]	@ movhi
 1232 029a 2FE0     		b	.L151
 1233              	.L160:
 1234 029c 0022     		movs	r2, #0
 1235 029e 76E7     		b	.L139
 1236              	.L144:
 1237 02a0 2046     		mov	r0, r4
 1238 02a2 FFF7FEFF 		bl	lv_obj_get_content_width
 1239 02a6 0146     		mov	r1, r0
 1240 02a8 D8E7     		b	.L145
 1241              	.L159:
 1242 02aa 0025     		movs	r5, #0
 1243 02ac E1E7     		b	.L138
 1244              	.L161:
 1245 02ae 4FF0000B 		mov	fp, #0
 1246 02b2 E7E7     		b	.L146
 1247              	.L168:
 1248 02b4 9DF84F30 		ldrb	r3, [sp, #79]	@ zero_extendqisi2
 1249 02b8 13F0010F 		tst	r3, #1
 1250 02bc 38D1     		bne	.L148
 1251 02be B9F80030 		ldrh	r3, [r9]
 1252 02c2 BDF82C20 		ldrh	r2, [sp, #44]
 1253 02c6 9B1A     		subs	r3, r3, r2
 1254 02c8 A9F80030 		strh	r3, [r9]	@ movhi
 1255 02cc 30E0     		b	.L148
 1256              	.L170:
 1257 02ce 00BF     		.align	2
 1258              	.L169:
 1259 02d0 00000000 		.word	LV_STYLE_FLEX_FLOW
 1260 02d4 00000000 		.word	LV_STYLE_FLEX_MAIN_PLACE
 1261 02d8 00000000 		.word	LV_STYLE_FLEX_CROSS_PLACE
 1262 02dc 00000000 		.word	LV_STYLE_FLEX_TRACK_PLACE
 1263              	.L149:
 1264 02e0 B9F80030 		ldrh	r3, [r9]
 1265 02e4 BDF82C20 		ldrh	r2, [sp, #44]
 1266 02e8 BDF84610 		ldrh	r1, [sp, #70]
 1267 02ec 0A44     		add	r2, r2, r1
ARM GAS  /var/folders/lp/x54gwt890xv47sdkqj1k04q40000gn/T//cc1wm9J1.s 			page 23


 1268 02ee 1AFA82F2 		uxtah	r2, r10, r2
 1269 02f2 13FA82F2 		uxtah	r2, r3, r2
 1270 02f6 A9F80020 		strh	r2, [r9]	@ movhi
 1271              	.L150:
 1272 02fa AB46     		mov	fp, r5
 1273              	.L151:
 1274 02fc A368     		ldr	r3, [r4, #8]
 1275 02fe 5B68     		ldr	r3, [r3, #4]
 1276 0300 5B45     		cmp	r3, fp
 1277 0302 3CDD     		ble	.L152
 1278 0304 BBF1000F 		cmp	fp, #0
 1279 0308 39DB     		blt	.L152
 1280 030a 9DF84030 		ldrb	r3, [sp, #64]	@ zero_extendqisi2
 1281 030e 43F00103 		orr	r3, r3, #1
 1282 0312 8DF84030 		strb	r3, [sp, #64]
 1283 0316 0BAB     		add	r3, sp, #44
 1284 0318 0193     		str	r3, [sp, #4]
 1285 031a 0096     		str	r6, [sp]
 1286 031c 3B46     		mov	r3, r7
 1287 031e 5A46     		mov	r2, fp
 1288 0320 13A9     		add	r1, sp, #76
 1289 0322 2046     		mov	r0, r4
 1290 0324 FFF7FEFF 		bl	find_track_end
 1291 0328 0546     		mov	r5, r0
 1292 032a B8F1010F 		cmp	r8, #1
 1293 032e C1D0     		beq	.L168
 1294              	.L148:
 1295 0330 0BAB     		add	r3, sp, #44
 1296 0332 0493     		str	r3, [sp, #16]
 1297 0334 0396     		str	r6, [sp, #12]
 1298 0336 0297     		str	r7, [sp, #8]
 1299 0338 BDF94A30 		ldrsh	r3, [sp, #74]
 1300 033c 0193     		str	r3, [sp, #4]
 1301 033e BDF94830 		ldrsh	r3, [sp, #72]
 1302 0342 0093     		str	r3, [sp]
 1303 0344 2B46     		mov	r3, r5
 1304 0346 5A46     		mov	r2, fp
 1305 0348 13A9     		add	r1, sp, #76
 1306 034a 2046     		mov	r0, r4
 1307 034c FFF7FEFF 		bl	children_repos
 1308 0350 0E98     		ldr	r0, [sp, #56]
 1309 0352 FFF7FEFF 		bl	lv_mem_buf_release
 1310 0356 0023     		movs	r3, #0
 1311 0358 0E93     		str	r3, [sp, #56]
 1312 035a B8F1010F 		cmp	r8, #1
 1313 035e BFD1     		bne	.L149
 1314 0360 9DF84F30 		ldrb	r3, [sp, #79]	@ zero_extendqisi2
 1315 0364 13F0010F 		tst	r3, #1
 1316 0368 BAD1     		bne	.L149
 1317 036a B9F80020 		ldrh	r2, [r9]
 1318 036e BDF84630 		ldrh	r3, [sp, #70]
 1319 0372 5344     		add	r3, r3, r10
 1320 0374 9BB2     		uxth	r3, r3
 1321 0376 D31A     		subs	r3, r2, r3
 1322 0378 A9F80030 		strh	r3, [r9]	@ movhi
 1323 037c BDE7     		b	.L150
 1324              	.L152:
ARM GAS  /var/folders/lp/x54gwt890xv47sdkqj1k04q40000gn/T//cc1wm9J1.s 			page 24


 1325 037e 42F2D173 		movw	r3, #10193
 1326 0382 089A     		ldr	r2, [sp, #32]
 1327 0384 9A42     		cmp	r2, r3
 1328 0386 0AD0     		beq	.L154
 1329 0388 099A     		ldr	r2, [sp, #36]
 1330 038a 9A42     		cmp	r2, r3
 1331 038c 07D0     		beq	.L154
 1332              	.L155:
 1333 038e 0022     		movs	r2, #0
 1334 0390 2B21     		movs	r1, #43
 1335 0392 2046     		mov	r0, r4
 1336 0394 FFF7FEFF 		bl	lv_event_send
 1337 0398 15B0     		add	sp, sp, #84
 1338              		@ sp needed
 1339 039a BDE8F08F 		pop	{r4, r5, r6, r7, r8, r9, r10, fp, pc}
 1340              	.L154:
 1341 039e 2046     		mov	r0, r4
 1342 03a0 FFF7FEFF 		bl	lv_obj_refr_size
 1343 03a4 F3E7     		b	.L155
 1345 03a6 00BF     		.section	.text.lv_flex_init,"ax",%progbits
 1346              		.align	1
 1347              		.global	lv_flex_init
 1348              		.syntax unified
 1349              		.thumb
 1350              		.thumb_func
 1352              	lv_flex_init:
 1353              		@ args = 0, pretend = 0, frame = 0
 1354              		@ frame_needed = 0, uses_anonymous_args = 0
 1355 0000 08B5     		push	{r3, lr}
 1356 0002 0021     		movs	r1, #0
 1357 0004 0F48     		ldr	r0, .L173
 1358 0006 FFF7FEFF 		bl	lv_layout_register
 1359 000a 0F4B     		ldr	r3, .L173+4
 1360 000c 1880     		strh	r0, [r3]	@ movhi
 1361 000e 0020     		movs	r0, #0
 1362 0010 FFF7FEFF 		bl	lv_style_register_prop
 1363 0014 0D4B     		ldr	r3, .L173+8
 1364 0016 1880     		strh	r0, [r3]	@ movhi
 1365 0018 0420     		movs	r0, #4
 1366 001a FFF7FEFF 		bl	lv_style_register_prop
 1367 001e 0C4B     		ldr	r3, .L173+12
 1368 0020 1880     		strh	r0, [r3]	@ movhi
 1369 0022 0420     		movs	r0, #4
 1370 0024 FFF7FEFF 		bl	lv_style_register_prop
 1371 0028 0A4B     		ldr	r3, .L173+16
 1372 002a 1880     		strh	r0, [r3]	@ movhi
 1373 002c 0420     		movs	r0, #4
 1374 002e FFF7FEFF 		bl	lv_style_register_prop
 1375 0032 094B     		ldr	r3, .L173+20
 1376 0034 1880     		strh	r0, [r3]	@ movhi
 1377 0036 0420     		movs	r0, #4
 1378 0038 FFF7FEFF 		bl	lv_style_register_prop
 1379 003c 074B     		ldr	r3, .L173+24
 1380 003e 1880     		strh	r0, [r3]	@ movhi
 1381 0040 08BD     		pop	{r3, pc}
 1382              	.L174:
 1383 0042 00BF     		.align	2
ARM GAS  /var/folders/lp/x54gwt890xv47sdkqj1k04q40000gn/T//cc1wm9J1.s 			page 25


 1384              	.L173:
 1385 0044 00000000 		.word	flex_update
 1386 0048 00000000 		.word	LV_LAYOUT_FLEX
 1387 004c 00000000 		.word	LV_STYLE_FLEX_FLOW
 1388 0050 00000000 		.word	LV_STYLE_FLEX_MAIN_PLACE
 1389 0054 00000000 		.word	LV_STYLE_FLEX_CROSS_PLACE
 1390 0058 00000000 		.word	LV_STYLE_FLEX_TRACK_PLACE
 1391 005c 00000000 		.word	LV_STYLE_FLEX_GROW
 1393              		.section	.text.lv_style_set_flex_flow,"ax",%progbits
 1394              		.align	1
 1395              		.global	lv_style_set_flex_flow
 1396              		.syntax unified
 1397              		.thumb
 1398              		.thumb_func
 1400              	lv_style_set_flex_flow:
 1401              		@ args = 0, pretend = 0, frame = 0
 1402              		@ frame_needed = 0, uses_anonymous_args = 0
 1403 0000 08B5     		push	{r3, lr}
 1404 0002 0A46     		mov	r2, r1
 1405 0004 024B     		ldr	r3, .L177
 1406 0006 1988     		ldrh	r1, [r3]
 1407 0008 FFF7FEFF 		bl	lv_style_set_prop
 1408 000c 08BD     		pop	{r3, pc}
 1409              	.L178:
 1410 000e 00BF     		.align	2
 1411              	.L177:
 1412 0010 00000000 		.word	LV_STYLE_FLEX_FLOW
 1414              		.section	.text.lv_style_set_flex_main_place,"ax",%progbits
 1415              		.align	1
 1416              		.global	lv_style_set_flex_main_place
 1417              		.syntax unified
 1418              		.thumb
 1419              		.thumb_func
 1421              	lv_style_set_flex_main_place:
 1422              		@ args = 0, pretend = 0, frame = 0
 1423              		@ frame_needed = 0, uses_anonymous_args = 0
 1424 0000 08B5     		push	{r3, lr}
 1425 0002 0A46     		mov	r2, r1
 1426 0004 024B     		ldr	r3, .L181
 1427 0006 1988     		ldrh	r1, [r3]
 1428 0008 FFF7FEFF 		bl	lv_style_set_prop
 1429 000c 08BD     		pop	{r3, pc}
 1430              	.L182:
 1431 000e 00BF     		.align	2
 1432              	.L181:
 1433 0010 00000000 		.word	LV_STYLE_FLEX_MAIN_PLACE
 1435              		.section	.text.lv_style_set_flex_cross_place,"ax",%progbits
 1436              		.align	1
 1437              		.global	lv_style_set_flex_cross_place
 1438              		.syntax unified
 1439              		.thumb
 1440              		.thumb_func
 1442              	lv_style_set_flex_cross_place:
 1443              		@ args = 0, pretend = 0, frame = 0
 1444              		@ frame_needed = 0, uses_anonymous_args = 0
 1445 0000 08B5     		push	{r3, lr}
 1446 0002 0A46     		mov	r2, r1
ARM GAS  /var/folders/lp/x54gwt890xv47sdkqj1k04q40000gn/T//cc1wm9J1.s 			page 26


 1447 0004 024B     		ldr	r3, .L185
 1448 0006 1988     		ldrh	r1, [r3]
 1449 0008 FFF7FEFF 		bl	lv_style_set_prop
 1450 000c 08BD     		pop	{r3, pc}
 1451              	.L186:
 1452 000e 00BF     		.align	2
 1453              	.L185:
 1454 0010 00000000 		.word	LV_STYLE_FLEX_CROSS_PLACE
 1456              		.section	.text.lv_style_set_flex_track_place,"ax",%progbits
 1457              		.align	1
 1458              		.global	lv_style_set_flex_track_place
 1459              		.syntax unified
 1460              		.thumb
 1461              		.thumb_func
 1463              	lv_style_set_flex_track_place:
 1464              		@ args = 0, pretend = 0, frame = 0
 1465              		@ frame_needed = 0, uses_anonymous_args = 0
 1466 0000 08B5     		push	{r3, lr}
 1467 0002 0A46     		mov	r2, r1
 1468 0004 024B     		ldr	r3, .L189
 1469 0006 1988     		ldrh	r1, [r3]
 1470 0008 FFF7FEFF 		bl	lv_style_set_prop
 1471 000c 08BD     		pop	{r3, pc}
 1472              	.L190:
 1473 000e 00BF     		.align	2
 1474              	.L189:
 1475 0010 00000000 		.word	LV_STYLE_FLEX_TRACK_PLACE
 1477              		.section	.text.lv_style_set_flex_grow,"ax",%progbits
 1478              		.align	1
 1479              		.global	lv_style_set_flex_grow
 1480              		.syntax unified
 1481              		.thumb
 1482              		.thumb_func
 1484              	lv_style_set_flex_grow:
 1485              		@ args = 0, pretend = 0, frame = 0
 1486              		@ frame_needed = 0, uses_anonymous_args = 0
 1487 0000 08B5     		push	{r3, lr}
 1488 0002 0A46     		mov	r2, r1
 1489 0004 024B     		ldr	r3, .L193
 1490 0006 1988     		ldrh	r1, [r3]
 1491 0008 FFF7FEFF 		bl	lv_style_set_prop
 1492 000c 08BD     		pop	{r3, pc}
 1493              	.L194:
 1494 000e 00BF     		.align	2
 1495              	.L193:
 1496 0010 00000000 		.word	LV_STYLE_FLEX_GROW
 1498              		.section	.text.lv_obj_set_style_flex_flow,"ax",%progbits
 1499              		.align	1
 1500              		.global	lv_obj_set_style_flex_flow
 1501              		.syntax unified
 1502              		.thumb
 1503              		.thumb_func
 1505              	lv_obj_set_style_flex_flow:
 1506              		@ args = 0, pretend = 0, frame = 0
 1507              		@ frame_needed = 0, uses_anonymous_args = 0
 1508 0000 08B5     		push	{r3, lr}
 1509 0002 1346     		mov	r3, r2
ARM GAS  /var/folders/lp/x54gwt890xv47sdkqj1k04q40000gn/T//cc1wm9J1.s 			page 27


 1510 0004 0A46     		mov	r2, r1
 1511 0006 0249     		ldr	r1, .L197
 1512 0008 0988     		ldrh	r1, [r1]
 1513 000a FFF7FEFF 		bl	lv_obj_set_local_style_prop
 1514 000e 08BD     		pop	{r3, pc}
 1515              	.L198:
 1516              		.align	2
 1517              	.L197:
 1518 0010 00000000 		.word	LV_STYLE_FLEX_FLOW
 1520              		.section	.text.lv_obj_set_flex_flow,"ax",%progbits
 1521              		.align	1
 1522              		.global	lv_obj_set_flex_flow
 1523              		.syntax unified
 1524              		.thumb
 1525              		.thumb_func
 1527              	lv_obj_set_flex_flow:
 1528              		@ args = 0, pretend = 0, frame = 0
 1529              		@ frame_needed = 0, uses_anonymous_args = 0
 1530 0000 10B5     		push	{r4, lr}
 1531 0002 0446     		mov	r4, r0
 1532 0004 0022     		movs	r2, #0
 1533 0006 FFF7FEFF 		bl	lv_obj_set_style_flex_flow
 1534 000a 0022     		movs	r2, #0
 1535 000c 024B     		ldr	r3, .L201
 1536 000e 1988     		ldrh	r1, [r3]
 1537 0010 2046     		mov	r0, r4
 1538 0012 FFF7FEFF 		bl	lv_obj_set_style_layout
 1539 0016 10BD     		pop	{r4, pc}
 1540              	.L202:
 1541              		.align	2
 1542              	.L201:
 1543 0018 00000000 		.word	LV_LAYOUT_FLEX
 1545              		.section	.text.lv_obj_set_style_flex_main_place,"ax",%progbits
 1546              		.align	1
 1547              		.global	lv_obj_set_style_flex_main_place
 1548              		.syntax unified
 1549              		.thumb
 1550              		.thumb_func
 1552              	lv_obj_set_style_flex_main_place:
 1553              		@ args = 0, pretend = 0, frame = 0
 1554              		@ frame_needed = 0, uses_anonymous_args = 0
 1555 0000 08B5     		push	{r3, lr}
 1556 0002 1346     		mov	r3, r2
 1557 0004 0A46     		mov	r2, r1
 1558 0006 0249     		ldr	r1, .L205
 1559 0008 0988     		ldrh	r1, [r1]
 1560 000a FFF7FEFF 		bl	lv_obj_set_local_style_prop
 1561 000e 08BD     		pop	{r3, pc}
 1562              	.L206:
 1563              		.align	2
 1564              	.L205:
 1565 0010 00000000 		.word	LV_STYLE_FLEX_MAIN_PLACE
 1567              		.section	.text.lv_obj_set_style_flex_cross_place,"ax",%progbits
 1568              		.align	1
 1569              		.global	lv_obj_set_style_flex_cross_place
 1570              		.syntax unified
 1571              		.thumb
ARM GAS  /var/folders/lp/x54gwt890xv47sdkqj1k04q40000gn/T//cc1wm9J1.s 			page 28


 1572              		.thumb_func
 1574              	lv_obj_set_style_flex_cross_place:
 1575              		@ args = 0, pretend = 0, frame = 0
 1576              		@ frame_needed = 0, uses_anonymous_args = 0
 1577 0000 08B5     		push	{r3, lr}
 1578 0002 1346     		mov	r3, r2
 1579 0004 0A46     		mov	r2, r1
 1580 0006 0249     		ldr	r1, .L209
 1581 0008 0988     		ldrh	r1, [r1]
 1582 000a FFF7FEFF 		bl	lv_obj_set_local_style_prop
 1583 000e 08BD     		pop	{r3, pc}
 1584              	.L210:
 1585              		.align	2
 1586              	.L209:
 1587 0010 00000000 		.word	LV_STYLE_FLEX_CROSS_PLACE
 1589              		.section	.text.lv_obj_set_style_flex_track_place,"ax",%progbits
 1590              		.align	1
 1591              		.global	lv_obj_set_style_flex_track_place
 1592              		.syntax unified
 1593              		.thumb
 1594              		.thumb_func
 1596              	lv_obj_set_style_flex_track_place:
 1597              		@ args = 0, pretend = 0, frame = 0
 1598              		@ frame_needed = 0, uses_anonymous_args = 0
 1599 0000 08B5     		push	{r3, lr}
 1600 0002 1346     		mov	r3, r2
 1601 0004 0A46     		mov	r2, r1
 1602 0006 0249     		ldr	r1, .L213
 1603 0008 0988     		ldrh	r1, [r1]
 1604 000a FFF7FEFF 		bl	lv_obj_set_local_style_prop
 1605 000e 08BD     		pop	{r3, pc}
 1606              	.L214:
 1607              		.align	2
 1608              	.L213:
 1609 0010 00000000 		.word	LV_STYLE_FLEX_TRACK_PLACE
 1611              		.section	.text.lv_obj_set_flex_align,"ax",%progbits
 1612              		.align	1
 1613              		.global	lv_obj_set_flex_align
 1614              		.syntax unified
 1615              		.thumb
 1616              		.thumb_func
 1618              	lv_obj_set_flex_align:
 1619              		@ args = 0, pretend = 0, frame = 0
 1620              		@ frame_needed = 0, uses_anonymous_args = 0
 1621 0000 70B5     		push	{r4, r5, r6, lr}
 1622 0002 0446     		mov	r4, r0
 1623 0004 1646     		mov	r6, r2
 1624 0006 1D46     		mov	r5, r3
 1625 0008 0022     		movs	r2, #0
 1626 000a FFF7FEFF 		bl	lv_obj_set_style_flex_main_place
 1627 000e 0022     		movs	r2, #0
 1628 0010 3146     		mov	r1, r6
 1629 0012 2046     		mov	r0, r4
 1630 0014 FFF7FEFF 		bl	lv_obj_set_style_flex_cross_place
 1631 0018 0022     		movs	r2, #0
 1632 001a 2946     		mov	r1, r5
 1633 001c 2046     		mov	r0, r4
ARM GAS  /var/folders/lp/x54gwt890xv47sdkqj1k04q40000gn/T//cc1wm9J1.s 			page 29


 1634 001e FFF7FEFF 		bl	lv_obj_set_style_flex_track_place
 1635 0022 0022     		movs	r2, #0
 1636 0024 024B     		ldr	r3, .L217
 1637 0026 1988     		ldrh	r1, [r3]
 1638 0028 2046     		mov	r0, r4
 1639 002a FFF7FEFF 		bl	lv_obj_set_style_layout
 1640 002e 70BD     		pop	{r4, r5, r6, pc}
 1641              	.L218:
 1642              		.align	2
 1643              	.L217:
 1644 0030 00000000 		.word	LV_LAYOUT_FLEX
 1646              		.section	.text.lv_obj_set_style_flex_grow,"ax",%progbits
 1647              		.align	1
 1648              		.global	lv_obj_set_style_flex_grow
 1649              		.syntax unified
 1650              		.thumb
 1651              		.thumb_func
 1653              	lv_obj_set_style_flex_grow:
 1654              		@ args = 0, pretend = 0, frame = 0
 1655              		@ frame_needed = 0, uses_anonymous_args = 0
 1656 0000 08B5     		push	{r3, lr}
 1657 0002 1346     		mov	r3, r2
 1658 0004 0A46     		mov	r2, r1
 1659 0006 0249     		ldr	r1, .L221
 1660 0008 0988     		ldrh	r1, [r1]
 1661 000a FFF7FEFF 		bl	lv_obj_set_local_style_prop
 1662 000e 08BD     		pop	{r3, pc}
 1663              	.L222:
 1664              		.align	2
 1665              	.L221:
 1666 0010 00000000 		.word	LV_STYLE_FLEX_GROW
 1668              		.section	.text.lv_obj_set_flex_grow,"ax",%progbits
 1669              		.align	1
 1670              		.global	lv_obj_set_flex_grow
 1671              		.syntax unified
 1672              		.thumb
 1673              		.thumb_func
 1675              	lv_obj_set_flex_grow:
 1676              		@ args = 0, pretend = 0, frame = 0
 1677              		@ frame_needed = 0, uses_anonymous_args = 0
 1678 0000 10B5     		push	{r4, lr}
 1679 0002 0446     		mov	r4, r0
 1680 0004 0022     		movs	r2, #0
 1681 0006 FFF7FEFF 		bl	lv_obj_set_style_flex_grow
 1682 000a 2046     		mov	r0, r4
 1683 000c FFF7FEFF 		bl	lv_obj_get_parent
 1684 0010 FFF7FEFF 		bl	lv_obj_mark_layout_as_dirty
 1685 0014 10BD     		pop	{r4, pc}
 1687              		.global	LV_STYLE_FLEX_GROW
 1688              		.section	.bss.LV_STYLE_FLEX_GROW,"aw",%nobits
 1689              		.align	1
 1692              	LV_STYLE_FLEX_GROW:
 1693 0000 0000     		.space	2
 1694              		.global	LV_STYLE_FLEX_TRACK_PLACE
 1695              		.section	.bss.LV_STYLE_FLEX_TRACK_PLACE,"aw",%nobits
 1696              		.align	1
 1699              	LV_STYLE_FLEX_TRACK_PLACE:
ARM GAS  /var/folders/lp/x54gwt890xv47sdkqj1k04q40000gn/T//cc1wm9J1.s 			page 30


 1700 0000 0000     		.space	2
 1701              		.global	LV_STYLE_FLEX_CROSS_PLACE
 1702              		.section	.bss.LV_STYLE_FLEX_CROSS_PLACE,"aw",%nobits
 1703              		.align	1
 1706              	LV_STYLE_FLEX_CROSS_PLACE:
 1707 0000 0000     		.space	2
 1708              		.global	LV_STYLE_FLEX_MAIN_PLACE
 1709              		.section	.bss.LV_STYLE_FLEX_MAIN_PLACE,"aw",%nobits
 1710              		.align	1
 1713              	LV_STYLE_FLEX_MAIN_PLACE:
 1714 0000 0000     		.space	2
 1715              		.global	LV_STYLE_FLEX_FLOW
 1716              		.section	.bss.LV_STYLE_FLEX_FLOW,"aw",%nobits
 1717              		.align	1
 1720              	LV_STYLE_FLEX_FLOW:
 1721 0000 0000     		.space	2
 1722              		.global	LV_LAYOUT_FLEX
 1723              		.section	.bss.LV_LAYOUT_FLEX,"aw",%nobits
 1724              		.align	1
 1727              	LV_LAYOUT_FLEX:
 1728 0000 0000     		.space	2
 1729              		.ident	"GCC: (xPack GNU Arm Embedded GCC arm64) 13.3.1 20240614"
ARM GAS  /var/folders/lp/x54gwt890xv47sdkqj1k04q40000gn/T//cc1wm9J1.s 			page 31

