ARM GAS  /var/folders/lp/x54gwt890xv47sdkqj1k04q40000gn/T//cc61DIMm.s 			page 1


   1              		.cpu cortex-m4
   2              		.arch armv7e-m
   3              		.fpu fpv4-sp-d16
   4              		.eabi_attribute 27, 1
   5              		.eabi_attribute 28, 1
   6              		.eabi_attribute 20, 1
   7              		.eabi_attribute 21, 1
   8              		.eabi_attribute 23, 3
   9              		.eabi_attribute 24, 1
  10              		.eabi_attribute 25, 1
  11              		.eabi_attribute 26, 1
  12              		.eabi_attribute 30, 1
  13              		.eabi_attribute 34, 1
  14              		.eabi_attribute 18, 4
  15              		.file	"lv_gc.c"
  16              		.text
  17              		.section	.text._lv_gc_clear_roots,"ax",%progbits
  18              		.align	1
  19              		.global	_lv_gc_clear_roots
  20              		.syntax unified
  21              		.thumb
  22              		.thumb_func
  24              	_lv_gc_clear_roots:
  25              		@ args = 0, pretend = 0, frame = 0
  26              		@ frame_needed = 0, uses_anonymous_args = 0
  27 0000 08B5     		push	{r3, lr}
  28 0002 0C21     		movs	r1, #12
  29 0004 2348     		ldr	r0, .L3
  30 0006 FFF7FEFF 		bl	lv_memset_00
  31 000a 0C21     		movs	r1, #12
  32 000c 2248     		ldr	r0, .L3+4
  33 000e FFF7FEFF 		bl	lv_memset_00
  34 0012 0C21     		movs	r1, #12
  35 0014 2148     		ldr	r0, .L3+8
  36 0016 FFF7FEFF 		bl	lv_memset_00
  37 001a 0C21     		movs	r1, #12
  38 001c 2048     		ldr	r0, .L3+12
  39 001e FFF7FEFF 		bl	lv_memset_00
  40 0022 0C21     		movs	r1, #12
  41 0024 1F48     		ldr	r0, .L3+16
  42 0026 FFF7FEFF 		bl	lv_memset_00
  43 002a 0C21     		movs	r1, #12
  44 002c 1E48     		ldr	r0, .L3+20
  45 002e FFF7FEFF 		bl	lv_memset_00
  46 0032 0C21     		movs	r1, #12
  47 0034 1D48     		ldr	r0, .L3+24
  48 0036 FFF7FEFF 		bl	lv_memset_00
  49 003a 0C21     		movs	r1, #12
  50 003c 1C48     		ldr	r0, .L3+28
  51 003e FFF7FEFF 		bl	lv_memset_00
  52 0042 0421     		movs	r1, #4
  53 0044 1B48     		ldr	r0, .L3+32
  54 0046 FFF7FEFF 		bl	lv_memset_00
  55 004a 2C21     		movs	r1, #44
  56 004c 1A48     		ldr	r0, .L3+36
  57 004e FFF7FEFF 		bl	lv_memset_00
  58 0052 0421     		movs	r1, #4
ARM GAS  /var/folders/lp/x54gwt890xv47sdkqj1k04q40000gn/T//cc61DIMm.s 			page 2


  59 0054 1948     		ldr	r0, .L3+40
  60 0056 FFF7FEFF 		bl	lv_memset_00
  61 005a 8021     		movs	r1, #128
  62 005c 1848     		ldr	r0, .L3+44
  63 005e FFF7FEFF 		bl	lv_memset_00
  64 0062 7021     		movs	r1, #112
  65 0064 1748     		ldr	r0, .L3+48
  66 0066 FFF7FEFF 		bl	lv_memset_00
  67 006a 8021     		movs	r1, #128
  68 006c 1648     		ldr	r0, .L3+52
  69 006e FFF7FEFF 		bl	lv_memset_00
  70 0072 0421     		movs	r1, #4
  71 0074 1548     		ldr	r0, .L3+56
  72 0076 FFF7FEFF 		bl	lv_memset_00
  73 007a 0421     		movs	r1, #4
  74 007c 1448     		ldr	r0, .L3+60
  75 007e FFF7FEFF 		bl	lv_memset_00
  76 0082 0421     		movs	r1, #4
  77 0084 1348     		ldr	r0, .L3+64
  78 0086 FFF7FEFF 		bl	lv_memset_00
  79 008a 0421     		movs	r1, #4
  80 008c 1248     		ldr	r0, .L3+68
  81 008e FFF7FEFF 		bl	lv_memset_00
  82 0092 08BD     		pop	{r3, pc}
  83              	.L4:
  84              		.align	2
  85              	.L3:
  86 0094 00000000 		.word	_lv_timer_ll
  87 0098 00000000 		.word	_lv_disp_ll
  88 009c 00000000 		.word	_lv_indev_ll
  89 00a0 00000000 		.word	_lv_fsdrv_ll
  90 00a4 00000000 		.word	_lv_anim_ll
  91 00a8 00000000 		.word	_lv_group_ll
  92 00ac 00000000 		.word	_lv_img_decoder_ll
  93 00b0 00000000 		.word	_lv_obj_style_trans_ll
  94 00b4 00000000 		.word	_lv_layout_list
  95 00b8 00000000 		.word	_lv_img_cache_single
  96 00bc 00000000 		.word	_lv_timer_act
  97 00c0 00000000 		.word	lv_mem_buf
  98 00c4 00000000 		.word	_lv_circle_cache
  99 00c8 00000000 		.word	_lv_draw_mask_list
 100 00cc 00000000 		.word	_lv_theme_default_styles
 101 00d0 00000000 		.word	_lv_theme_basic_styles
 102 00d4 00000000 		.word	_lv_grad_cache_mem
 103 00d8 00000000 		.word	_lv_style_custom_prop_flag_lookup_table
 105              		.global	_lv_style_custom_prop_flag_lookup_table
 106              		.section	.bss._lv_style_custom_prop_flag_lookup_table,"aw",%nobits
 107              		.align	2
 110              	_lv_style_custom_prop_flag_lookup_table:
 111 0000 00000000 		.space	4
 112              		.global	_lv_grad_cache_mem
 113              		.section	.bss._lv_grad_cache_mem,"aw",%nobits
 114              		.align	2
 117              	_lv_grad_cache_mem:
 118 0000 00000000 		.space	4
 119              		.global	_lv_theme_basic_styles
 120              		.section	.bss._lv_theme_basic_styles,"aw",%nobits
ARM GAS  /var/folders/lp/x54gwt890xv47sdkqj1k04q40000gn/T//cc61DIMm.s 			page 3


 121              		.align	2
 124              	_lv_theme_basic_styles:
 125 0000 00000000 		.space	4
 126              		.global	_lv_theme_default_styles
 127              		.section	.bss._lv_theme_default_styles,"aw",%nobits
 128              		.align	2
 131              	_lv_theme_default_styles:
 132 0000 00000000 		.space	4
 133              		.global	_lv_draw_mask_list
 134              		.section	.bss._lv_draw_mask_list,"aw",%nobits
 135              		.align	2
 138              	_lv_draw_mask_list:
 139 0000 00000000 		.space	128
 139      00000000 
 139      00000000 
 139      00000000 
 139      00000000 
 140              		.global	_lv_circle_cache
 141              		.section	.bss._lv_circle_cache,"aw",%nobits
 142              		.align	2
 145              	_lv_circle_cache:
 146 0000 00000000 		.space	112
 146      00000000 
 146      00000000 
 146      00000000 
 146      00000000 
 147              		.global	lv_mem_buf
 148              		.section	.bss.lv_mem_buf,"aw",%nobits
 149              		.align	2
 152              	lv_mem_buf:
 153 0000 00000000 		.space	128
 153      00000000 
 153      00000000 
 153      00000000 
 153      00000000 
 154              		.global	_lv_timer_act
 155              		.section	.bss._lv_timer_act,"aw",%nobits
 156              		.align	2
 159              	_lv_timer_act:
 160 0000 00000000 		.space	4
 161              		.global	_lv_img_cache_single
 162              		.section	.bss._lv_img_cache_single,"aw",%nobits
 163              		.align	2
 166              	_lv_img_cache_single:
 167 0000 00000000 		.space	44
 167      00000000 
 167      00000000 
 167      00000000 
 167      00000000 
 168              		.global	_lv_layout_list
 169              		.section	.bss._lv_layout_list,"aw",%nobits
 170              		.align	2
 173              	_lv_layout_list:
 174 0000 00000000 		.space	4
 175              		.global	_lv_obj_style_trans_ll
 176              		.section	.bss._lv_obj_style_trans_ll,"aw",%nobits
 177              		.align	2
ARM GAS  /var/folders/lp/x54gwt890xv47sdkqj1k04q40000gn/T//cc61DIMm.s 			page 4


 180              	_lv_obj_style_trans_ll:
 181 0000 00000000 		.space	12
 181      00000000 
 181      00000000 
 182              		.global	_lv_img_decoder_ll
 183              		.section	.bss._lv_img_decoder_ll,"aw",%nobits
 184              		.align	2
 187              	_lv_img_decoder_ll:
 188 0000 00000000 		.space	12
 188      00000000 
 188      00000000 
 189              		.global	_lv_group_ll
 190              		.section	.bss._lv_group_ll,"aw",%nobits
 191              		.align	2
 194              	_lv_group_ll:
 195 0000 00000000 		.space	12
 195      00000000 
 195      00000000 
 196              		.global	_lv_anim_ll
 197              		.section	.bss._lv_anim_ll,"aw",%nobits
 198              		.align	2
 201              	_lv_anim_ll:
 202 0000 00000000 		.space	12
 202      00000000 
 202      00000000 
 203              		.global	_lv_fsdrv_ll
 204              		.section	.bss._lv_fsdrv_ll,"aw",%nobits
 205              		.align	2
 208              	_lv_fsdrv_ll:
 209 0000 00000000 		.space	12
 209      00000000 
 209      00000000 
 210              		.global	_lv_indev_ll
 211              		.section	.bss._lv_indev_ll,"aw",%nobits
 212              		.align	2
 215              	_lv_indev_ll:
 216 0000 00000000 		.space	12
 216      00000000 
 216      00000000 
 217              		.global	_lv_disp_ll
 218              		.section	.bss._lv_disp_ll,"aw",%nobits
 219              		.align	2
 222              	_lv_disp_ll:
 223 0000 00000000 		.space	12
 223      00000000 
 223      00000000 
 224              		.global	_lv_timer_ll
 225              		.section	.bss._lv_timer_ll,"aw",%nobits
 226              		.align	2
 229              	_lv_timer_ll:
 230 0000 00000000 		.space	12
 230      00000000 
 230      00000000 
 231              		.ident	"GCC: (xPack GNU Arm Embedded GCC arm64) 13.3.1 20240614"
ARM GAS  /var/folders/lp/x54gwt890xv47sdkqj1k04q40000gn/T//cc61DIMm.s 			page 5


DEFINED SYMBOLS
                            *ABS*:00000000 lv_gc.c
/var/folders/lp/x54gwt890xv47sdkqj1k04q40000gn/T//cc61DIMm.s:18     .text._lv_gc_clear_roots:00000000 $t
/var/folders/lp/x54gwt890xv47sdkqj1k04q40000gn/T//cc61DIMm.s:24     .text._lv_gc_clear_roots:00000000 _lv_gc_clear_roots
/var/folders/lp/x54gwt890xv47sdkqj1k04q40000gn/T//cc61DIMm.s:86     .text._lv_gc_clear_roots:00000094 $d
/var/folders/lp/x54gwt890xv47sdkqj1k04q40000gn/T//cc61DIMm.s:229    .bss._lv_timer_ll:00000000 _lv_timer_ll
/var/folders/lp/x54gwt890xv47sdkqj1k04q40000gn/T//cc61DIMm.s:222    .bss._lv_disp_ll:00000000 _lv_disp_ll
/var/folders/lp/x54gwt890xv47sdkqj1k04q40000gn/T//cc61DIMm.s:215    .bss._lv_indev_ll:00000000 _lv_indev_ll
/var/folders/lp/x54gwt890xv47sdkqj1k04q40000gn/T//cc61DIMm.s:208    .bss._lv_fsdrv_ll:00000000 _lv_fsdrv_ll
/var/folders/lp/x54gwt890xv47sdkqj1k04q40000gn/T//cc61DIMm.s:201    .bss._lv_anim_ll:00000000 _lv_anim_ll
/var/folders/lp/x54gwt890xv47sdkqj1k04q40000gn/T//cc61DIMm.s:194    .bss._lv_group_ll:00000000 _lv_group_ll
/var/folders/lp/x54gwt890xv47sdkqj1k04q40000gn/T//cc61DIMm.s:187    .bss._lv_img_decoder_ll:00000000 _lv_img_decoder_ll
/var/folders/lp/x54gwt890xv47sdkqj1k04q40000gn/T//cc61DIMm.s:180    .bss._lv_obj_style_trans_ll:00000000 _lv_obj_style_trans_ll
/var/folders/lp/x54gwt890xv47sdkqj1k04q40000gn/T//cc61DIMm.s:173    .bss._lv_layout_list:00000000 _lv_layout_list
/var/folders/lp/x54gwt890xv47sdkqj1k04q40000gn/T//cc61DIMm.s:166    .bss._lv_img_cache_single:00000000 _lv_img_cache_single
/var/folders/lp/x54gwt890xv47sdkqj1k04q40000gn/T//cc61DIMm.s:159    .bss._lv_timer_act:00000000 _lv_timer_act
/var/folders/lp/x54gwt890xv47sdkqj1k04q40000gn/T//cc61DIMm.s:152    .bss.lv_mem_buf:00000000 lv_mem_buf
/var/folders/lp/x54gwt890xv47sdkqj1k04q40000gn/T//cc61DIMm.s:145    .bss._lv_circle_cache:00000000 _lv_circle_cache
/var/folders/lp/x54gwt890xv47sdkqj1k04q40000gn/T//cc61DIMm.s:138    .bss._lv_draw_mask_list:00000000 _lv_draw_mask_list
/var/folders/lp/x54gwt890xv47sdkqj1k04q40000gn/T//cc61DIMm.s:131    .bss._lv_theme_default_styles:00000000 _lv_theme_default_styles
/var/folders/lp/x54gwt890xv47sdkqj1k04q40000gn/T//cc61DIMm.s:124    .bss._lv_theme_basic_styles:00000000 _lv_theme_basic_styles
/var/folders/lp/x54gwt890xv47sdkqj1k04q40000gn/T//cc61DIMm.s:117    .bss._lv_grad_cache_mem:00000000 _lv_grad_cache_mem
/var/folders/lp/x54gwt890xv47sdkqj1k04q40000gn/T//cc61DIMm.s:110    .bss._lv_style_custom_prop_flag_lookup_table:00000000 _lv_style_custom_prop_flag_lookup_table
/var/folders/lp/x54gwt890xv47sdkqj1k04q40000gn/T//cc61DIMm.s:107    .bss._lv_style_custom_prop_flag_lookup_table:00000000 $d
/var/folders/lp/x54gwt890xv47sdkqj1k04q40000gn/T//cc61DIMm.s:114    .bss._lv_grad_cache_mem:00000000 $d
/var/folders/lp/x54gwt890xv47sdkqj1k04q40000gn/T//cc61DIMm.s:121    .bss._lv_theme_basic_styles:00000000 $d
/var/folders/lp/x54gwt890xv47sdkqj1k04q40000gn/T//cc61DIMm.s:128    .bss._lv_theme_default_styles:00000000 $d
/var/folders/lp/x54gwt890xv47sdkqj1k04q40000gn/T//cc61DIMm.s:135    .bss._lv_draw_mask_list:00000000 $d
/var/folders/lp/x54gwt890xv47sdkqj1k04q40000gn/T//cc61DIMm.s:142    .bss._lv_circle_cache:00000000 $d
/var/folders/lp/x54gwt890xv47sdkqj1k04q40000gn/T//cc61DIMm.s:149    .bss.lv_mem_buf:00000000 $d
/var/folders/lp/x54gwt890xv47sdkqj1k04q40000gn/T//cc61DIMm.s:156    .bss._lv_timer_act:00000000 $d
/var/folders/lp/x54gwt890xv47sdkqj1k04q40000gn/T//cc61DIMm.s:163    .bss._lv_img_cache_single:00000000 $d
/var/folders/lp/x54gwt890xv47sdkqj1k04q40000gn/T//cc61DIMm.s:170    .bss._lv_layout_list:00000000 $d
/var/folders/lp/x54gwt890xv47sdkqj1k04q40000gn/T//cc61DIMm.s:177    .bss._lv_obj_style_trans_ll:00000000 $d
/var/folders/lp/x54gwt890xv47sdkqj1k04q40000gn/T//cc61DIMm.s:184    .bss._lv_img_decoder_ll:00000000 $d
/var/folders/lp/x54gwt890xv47sdkqj1k04q40000gn/T//cc61DIMm.s:191    .bss._lv_group_ll:00000000 $d
/var/folders/lp/x54gwt890xv47sdkqj1k04q40000gn/T//cc61DIMm.s:198    .bss._lv_anim_ll:00000000 $d
/var/folders/lp/x54gwt890xv47sdkqj1k04q40000gn/T//cc61DIMm.s:205    .bss._lv_fsdrv_ll:00000000 $d
/var/folders/lp/x54gwt890xv47sdkqj1k04q40000gn/T//cc61DIMm.s:212    .bss._lv_indev_ll:00000000 $d
/var/folders/lp/x54gwt890xv47sdkqj1k04q40000gn/T//cc61DIMm.s:219    .bss._lv_disp_ll:00000000 $d
/var/folders/lp/x54gwt890xv47sdkqj1k04q40000gn/T//cc61DIMm.s:226    .bss._lv_timer_ll:00000000 $d

UNDEFINED SYMBOLS
lv_memset_00
