ARM GAS  /var/folders/lp/x54gwt890xv47sdkqj1k04q40000gn/T//cccNevZf.s 			page 1


   1              		.cpu cortex-m4
   2              		.arch armv7e-m
   3              		.fpu fpv4-sp-d16
   4              		.eabi_attribute 27, 1
   5              		.eabi_attribute 28, 1
   6              		.eabi_attribute 20, 1
   7              		.eabi_attribute 21, 1
   8              		.eabi_attribute 23, 3
   9              		.eabi_attribute 24, 1
  10              		.eabi_attribute 25, 1
  11              		.eabi_attribute 26, 1
  12              		.eabi_attribute 30, 1
  13              		.eabi_attribute 34, 1
  14              		.eabi_attribute 18, 4
  15              		.file	"lv_img_cache.c"
  16              		.text
  17              		.section	.text._lv_img_cache_open,"ax",%progbits
  18              		.align	1
  19              		.global	_lv_img_cache_open
  20              		.syntax unified
  21              		.thumb
  22              		.thumb_func
  24              	_lv_img_cache_open:
  25              		@ args = 0, pretend = 0, frame = 0
  26              		@ frame_needed = 0, uses_anonymous_args = 0
  27 0000 F8B5     		push	{r3, r4, r5, r6, r7, lr}
  28 0002 0446     		mov	r4, r0
  29 0004 0D46     		mov	r5, r1	@ movhi
  30 0006 1646     		mov	r6, r2
  31 0008 FFF7FEFF 		bl	lv_tick_get
  32 000c 0746     		mov	r7, r0
  33 000e 3346     		mov	r3, r6
  34 0010 2A46     		mov	r2, r5	@ movhi
  35 0012 2146     		mov	r1, r4
  36 0014 1048     		ldr	r0, .L9
  37 0016 FFF7FEFF 		bl	lv_img_decoder_open
  38 001a 58B1     		cbz	r0, .L7
  39 001c 0E4B     		ldr	r3, .L9
  40 001e 0022     		movs	r2, #0
  41 0020 9A62     		str	r2, [r3, #40]
  42 0022 DB69     		ldr	r3, [r3, #28]
  43 0024 83B1     		cbz	r3, .L8
  44              	.L4:
  45 0026 0C4B     		ldr	r3, .L9
  46 0028 DB69     		ldr	r3, [r3, #28]
  47 002a 9BB9     		cbnz	r3, .L5
  48 002c 0A48     		ldr	r0, .L9
  49 002e 0123     		movs	r3, #1
  50 0030 C361     		str	r3, [r0, #28]
  51              	.L1:
  52 0032 F8BD     		pop	{r3, r4, r5, r6, r7, pc}
  53              	.L7:
  54 0034 084C     		ldr	r4, .L9
  55 0036 2C21     		movs	r1, #44
  56 0038 2046     		mov	r0, r4
  57 003a FFF7FEFF 		bl	lv_memset_00
  58 003e 4FF00043 		mov	r3, #-2147483648
ARM GAS  /var/folders/lp/x54gwt890xv47sdkqj1k04q40000gn/T//cccNevZf.s 			page 2


  59 0042 A362     		str	r3, [r4, #40]
  60 0044 0020     		movs	r0, #0
  61 0046 F4E7     		b	.L1
  62              	.L8:
  63 0048 3846     		mov	r0, r7
  64 004a FFF7FEFF 		bl	lv_tick_elaps
  65 004e 024B     		ldr	r3, .L9
  66 0050 D861     		str	r0, [r3, #28]
  67 0052 E8E7     		b	.L4
  68              	.L5:
  69 0054 0048     		ldr	r0, .L9
  70 0056 ECE7     		b	.L1
  71              	.L10:
  72              		.align	2
  73              	.L9:
  74 0058 00000000 		.word	_lv_img_cache_single
  76              		.section	.text.lv_img_cache_set_size,"ax",%progbits
  77              		.align	1
  78              		.global	lv_img_cache_set_size
  79              		.syntax unified
  80              		.thumb
  81              		.thumb_func
  83              	lv_img_cache_set_size:
  84              		@ args = 0, pretend = 0, frame = 0
  85              		@ frame_needed = 0, uses_anonymous_args = 0
  86              		@ link register save eliminated.
  87 0000 7047     		bx	lr
  89              		.section	.text.lv_img_cache_invalidate_src,"ax",%progbits
  90              		.align	1
  91              		.global	lv_img_cache_invalidate_src
  92              		.syntax unified
  93              		.thumb
  94              		.thumb_func
  96              	lv_img_cache_invalidate_src:
  97              		@ args = 0, pretend = 0, frame = 0
  98              		@ frame_needed = 0, uses_anonymous_args = 0
  99              		@ link register save eliminated.
 100 0000 7047     		bx	lr
 102              		.ident	"GCC: (xPack GNU Arm Embedded GCC arm64) 13.3.1 20240614"
ARM GAS  /var/folders/lp/x54gwt890xv47sdkqj1k04q40000gn/T//cccNevZf.s 			page 3


DEFINED SYMBOLS
                            *ABS*:00000000 lv_img_cache.c
/var/folders/lp/x54gwt890xv47sdkqj1k04q40000gn/T//cccNevZf.s:18     .text._lv_img_cache_open:00000000 $t
/var/folders/lp/x54gwt890xv47sdkqj1k04q40000gn/T//cccNevZf.s:24     .text._lv_img_cache_open:00000000 _lv_img_cache_open
/var/folders/lp/x54gwt890xv47sdkqj1k04q40000gn/T//cccNevZf.s:74     .text._lv_img_cache_open:00000058 $d
/var/folders/lp/x54gwt890xv47sdkqj1k04q40000gn/T//cccNevZf.s:77     .text.lv_img_cache_set_size:00000000 $t
/var/folders/lp/x54gwt890xv47sdkqj1k04q40000gn/T//cccNevZf.s:83     .text.lv_img_cache_set_size:00000000 lv_img_cache_set_size
/var/folders/lp/x54gwt890xv47sdkqj1k04q40000gn/T//cccNevZf.s:90     .text.lv_img_cache_invalidate_src:00000000 $t
/var/folders/lp/x54gwt890xv47sdkqj1k04q40000gn/T//cccNevZf.s:96     .text.lv_img_cache_invalidate_src:00000000 lv_img_cache_invalidate_src

UNDEFINED SYMBOLS
lv_tick_get
lv_img_decoder_open
lv_memset_00
lv_tick_elaps
_lv_img_cache_single
