ARM GAS  /var/folders/lp/x54gwt890xv47sdkqj1k04q40000gn/T//ccFiVZKm.s 			page 1


   1              		.cpu cortex-m4
   2              		.arch armv7e-m
   3              		.fpu fpv4-sp-d16
   4              		.eabi_attribute 27, 1
   5              		.eabi_attribute 28, 1
   6              		.eabi_attribute 20, 1
   7              		.eabi_attribute 21, 1
   8              		.eabi_attribute 23, 3
   9              		.eabi_attribute 24, 1
  10              		.eabi_attribute 25, 1
  11              		.eabi_attribute 26, 1
  12              		.eabi_attribute 30, 1
  13              		.eabi_attribute 34, 1
  14              		.eabi_attribute 18, 4
  15              		.file	"lv_imgbtn.c"
  16              		.text
  17              		.section	.text.suggest_state,"ax",%progbits
  18              		.align	1
  19              		.syntax unified
  20              		.thumb
  21              		.thumb_func
  23              	suggest_state:
  24              		@ args = 0, pretend = 0, frame = 0
  25              		@ frame_needed = 0, uses_anonymous_args = 0
  26              		@ link register save eliminated.
  27 0000 0346     		mov	r3, r0
  28 0002 0846     		mov	r0, r1
  29 0004 01F10802 		add	r2, r1, #8
  30 0008 03EB8202 		add	r2, r3, r2, lsl #2
  31 000c 5268     		ldr	r2, [r2, #4]
  32 000e 02B1     		cbz	r2, .L18
  33              	.L2:
  34 0010 7047     		bx	lr
  35              	.L18:
  36 0012 4A1E     		subs	r2, r1, #1
  37 0014 042A     		cmp	r2, #4
  38 0016 FBD8     		bhi	.L2
  39 0018 DFE802F0 		tbb	[pc, r2]
  40              	.L4:
  41 001c 03       		.byte	(.L8-.L4)/2
  42 001d 18       		.byte	(.L7-.L4)/2
  43 001e 08       		.byte	(.L6-.L4)/2
  44 001f 0D       		.byte	(.L5-.L4)/2
  45 0020 1D       		.byte	(.L3-.L4)/2
  46 0021 00       		.p2align 1
  47              	.L8:
  48 0022 5B6A     		ldr	r3, [r3, #36]
  49 0024 0BB1     		cbz	r3, .L19
  50 0026 0020     		movs	r0, #0
  51 0028 7047     		bx	lr
  52              	.L19:
  53 002a 7047     		bx	lr
  54              	.L6:
  55 002c 5B6A     		ldr	r3, [r3, #36]
  56 002e 0BB1     		cbz	r3, .L20
  57 0030 0020     		movs	r0, #0
  58 0032 7047     		bx	lr
ARM GAS  /var/folders/lp/x54gwt890xv47sdkqj1k04q40000gn/T//ccFiVZKm.s 			page 2


  59              	.L20:
  60 0034 7047     		bx	lr
  61              	.L5:
  62 0036 1A6B     		ldr	r2, [r3, #48]
  63 0038 A2B9     		cbnz	r2, .L11
  64 003a 9A6A     		ldr	r2, [r3, #40]
  65 003c 0AB1     		cbz	r2, .L21
  66 003e 0120     		movs	r0, #1
  67 0040 7047     		bx	lr
  68              	.L21:
  69 0042 5B6A     		ldr	r3, [r3, #36]
  70 0044 0BB1     		cbz	r3, .L22
  71 0046 0020     		movs	r0, #0
  72 0048 7047     		bx	lr
  73              	.L22:
  74 004a 7047     		bx	lr
  75              	.L7:
  76 004c 5B6A     		ldr	r3, [r3, #36]
  77 004e 0BB1     		cbz	r3, .L23
  78 0050 0020     		movs	r0, #0
  79 0052 7047     		bx	lr
  80              	.L23:
  81 0054 7047     		bx	lr
  82              	.L3:
  83 0056 1A6B     		ldr	r2, [r3, #48]
  84 0058 32B9     		cbnz	r2, .L15
  85 005a 5B6A     		ldr	r3, [r3, #36]
  86 005c 0BB1     		cbz	r3, .L24
  87 005e 0020     		movs	r0, #0
  88 0060 D6E7     		b	.L2
  89              	.L24:
  90 0062 7047     		bx	lr
  91              	.L11:
  92 0064 0320     		movs	r0, #3
  93 0066 7047     		bx	lr
  94              	.L15:
  95 0068 0320     		movs	r0, #3
  96 006a 7047     		bx	lr
  98              		.section	.text.lv_imgbtn_constructor,"ax",%progbits
  99              		.align	1
 100              		.syntax unified
 101              		.thumb
 102              		.thumb_func
 104              	lv_imgbtn_constructor:
 105              		@ args = 0, pretend = 0, frame = 0
 106              		@ frame_needed = 0, uses_anonymous_args = 0
 107 0000 10B5     		push	{r4, lr}
 108 0002 0C46     		mov	r4, r1
 109 0004 1821     		movs	r1, #24
 110 0006 04F12400 		add	r0, r4, #36
 111 000a FFF7FEFF 		bl	lv_memset_00
 112 000e 1821     		movs	r1, #24
 113 0010 04F13C00 		add	r0, r4, #60
 114 0014 FFF7FEFF 		bl	lv_memset_00
 115 0018 1821     		movs	r1, #24
 116 001a 04F15400 		add	r0, r4, #84
 117 001e FFF7FEFF 		bl	lv_memset_00
ARM GAS  /var/folders/lp/x54gwt890xv47sdkqj1k04q40000gn/T//ccFiVZKm.s 			page 3


 118 0022 0023     		movs	r3, #0
 119 0024 84F86C30 		strb	r3, [r4, #108]
 120 0028 10BD     		pop	{r4, pc}
 122              		.section	.text.lv_imgbtn_create,"ax",%progbits
 123              		.align	1
 124              		.global	lv_imgbtn_create
 125              		.syntax unified
 126              		.thumb
 127              		.thumb_func
 129              	lv_imgbtn_create:
 130              		@ args = 0, pretend = 0, frame = 0
 131              		@ frame_needed = 0, uses_anonymous_args = 0
 132 0000 10B5     		push	{r4, lr}
 133 0002 0146     		mov	r1, r0
 134 0004 0348     		ldr	r0, .L29
 135 0006 FFF7FEFF 		bl	lv_obj_class_create_obj
 136 000a 0446     		mov	r4, r0
 137 000c FFF7FEFF 		bl	lv_obj_class_init_obj
 138 0010 2046     		mov	r0, r4
 139 0012 10BD     		pop	{r4, pc}
 140              	.L30:
 141              		.align	2
 142              	.L29:
 143 0014 00000000 		.word	lv_imgbtn_class
 145              		.section	.text.lv_imgbtn_get_src_left,"ax",%progbits
 146              		.align	1
 147              		.global	lv_imgbtn_get_src_left
 148              		.syntax unified
 149              		.thumb
 150              		.thumb_func
 152              	lv_imgbtn_get_src_left:
 153              		@ args = 0, pretend = 0, frame = 0
 154              		@ frame_needed = 0, uses_anonymous_args = 0
 155              		@ link register save eliminated.
 156 0000 0E31     		adds	r1, r1, #14
 157 0002 00EB8100 		add	r0, r0, r1, lsl #2
 158 0006 4068     		ldr	r0, [r0, #4]
 159 0008 7047     		bx	lr
 161              		.section	.text.lv_imgbtn_get_src_middle,"ax",%progbits
 162              		.align	1
 163              		.global	lv_imgbtn_get_src_middle
 164              		.syntax unified
 165              		.thumb
 166              		.thumb_func
 168              	lv_imgbtn_get_src_middle:
 169              		@ args = 0, pretend = 0, frame = 0
 170              		@ frame_needed = 0, uses_anonymous_args = 0
 171              		@ link register save eliminated.
 172 0000 0831     		adds	r1, r1, #8
 173 0002 00EB8100 		add	r0, r0, r1, lsl #2
 174 0006 4068     		ldr	r0, [r0, #4]
 175 0008 7047     		bx	lr
 177              		.section	.text.lv_imgbtn_get_src_right,"ax",%progbits
 178              		.align	1
 179              		.global	lv_imgbtn_get_src_right
 180              		.syntax unified
 181              		.thumb
ARM GAS  /var/folders/lp/x54gwt890xv47sdkqj1k04q40000gn/T//ccFiVZKm.s 			page 4


 182              		.thumb_func
 184              	lv_imgbtn_get_src_right:
 185              		@ args = 0, pretend = 0, frame = 0
 186              		@ frame_needed = 0, uses_anonymous_args = 0
 187              		@ link register save eliminated.
 188 0000 1431     		adds	r1, r1, #20
 189 0002 00EB8100 		add	r0, r0, r1, lsl #2
 190 0006 4068     		ldr	r0, [r0, #4]
 191 0008 7047     		bx	lr
 193              		.section	.text.get_state,"ax",%progbits
 194              		.align	1
 195              		.global	get_state
 196              		.syntax unified
 197              		.thumb
 198              		.thumb_func
 200              	get_state:
 201              		@ args = 0, pretend = 0, frame = 0
 202              		@ frame_needed = 0, uses_anonymous_args = 0
 203 0000 08B5     		push	{r3, lr}
 204 0002 FFF7FEFF 		bl	lv_obj_get_state
 205 0006 10F0800F 		tst	r0, #128
 206 000a 04D0     		beq	.L35
 207 000c 10F0010F 		tst	r0, #1
 208 0010 0ED0     		beq	.L38
 209 0012 0520     		movs	r0, #5
 210              	.L36:
 211 0014 08BD     		pop	{r3, pc}
 212              	.L35:
 213 0016 10F0010F 		tst	r0, #1
 214 001a 04D0     		beq	.L37
 215 001c 10F0200F 		tst	r0, #32
 216 0020 08D0     		beq	.L39
 217 0022 0420     		movs	r0, #4
 218 0024 F6E7     		b	.L36
 219              	.L37:
 220 0026 10F0200F 		tst	r0, #32
 221 002a 05D0     		beq	.L40
 222 002c 0120     		movs	r0, #1
 223 002e F1E7     		b	.L36
 224              	.L38:
 225 0030 0220     		movs	r0, #2
 226 0032 EFE7     		b	.L36
 227              	.L39:
 228 0034 0320     		movs	r0, #3
 229 0036 EDE7     		b	.L36
 230              	.L40:
 231 0038 0020     		movs	r0, #0
 232 003a EBE7     		b	.L36
 234              		.section	.text.refr_img,"ax",%progbits
 235              		.align	1
 236              		.syntax unified
 237              		.thumb
 238              		.thumb_func
 240              	refr_img:
 241              		@ args = 0, pretend = 0, frame = 8
 242              		@ frame_needed = 0, uses_anonymous_args = 0
 243 0000 10B5     		push	{r4, lr}
ARM GAS  /var/folders/lp/x54gwt890xv47sdkqj1k04q40000gn/T//ccFiVZKm.s 			page 5


 244 0002 82B0     		sub	sp, sp, #8
 245 0004 0446     		mov	r4, r0
 246 0006 FFF7FEFF 		bl	get_state
 247 000a 0146     		mov	r1, r0
 248 000c 2046     		mov	r0, r4
 249 000e FFF7FEFF 		bl	suggest_state
 250 0012 0830     		adds	r0, r0, #8
 251 0014 04EB8000 		add	r0, r4, r0, lsl #2
 252 0018 4068     		ldr	r0, [r0, #4]
 253 001a 50B1     		cbz	r0, .L42
 254 001c 01A9     		add	r1, sp, #4
 255 001e FFF7FEFF 		bl	lv_img_decoder_get_info
 256 0022 0128     		cmp	r0, #1
 257 0024 07D0     		beq	.L48
 258 0026 0023     		movs	r3, #0
 259 0028 84F86C30 		strb	r3, [r4, #108]
 260              	.L46:
 261 002c 2046     		mov	r0, r4
 262 002e FFF7FEFF 		bl	lv_obj_invalidate
 263              	.L42:
 264 0032 02B0     		add	sp, sp, #8
 265              		@ sp needed
 266 0034 10BD     		pop	{r4, pc}
 267              	.L48:
 268 0036 9DF80430 		ldrb	r3, [sp, #4]	@ zero_extendqisi2
 269 003a C3F30403 		ubfx	r3, r3, #0, #5
 270 003e 84F86C30 		strb	r3, [r4, #108]
 271 0042 2046     		mov	r0, r4
 272 0044 FFF7FEFF 		bl	lv_obj_refresh_self_size
 273 0048 BDF80610 		ldrh	r1, [sp, #6]
 274 004c C1F34A11 		ubfx	r1, r1, #5, #11
 275 0050 2046     		mov	r0, r4
 276 0052 FFF7FEFF 		bl	lv_obj_set_height
 277 0056 E9E7     		b	.L46
 279              		.section	.text.lv_imgbtn_set_src,"ax",%progbits
 280              		.align	1
 281              		.global	lv_imgbtn_set_src
 282              		.syntax unified
 283              		.thumb
 284              		.thumb_func
 286              	lv_imgbtn_set_src:
 287              		@ args = 4, pretend = 0, frame = 0
 288              		@ frame_needed = 0, uses_anonymous_args = 0
 289 0000 08B5     		push	{r3, lr}
 290 0002 01F10E0E 		add	lr, r1, #14
 291 0006 00EB8E0E 		add	lr, r0, lr, lsl #2
 292 000a CEF80420 		str	r2, [lr, #4]
 293 000e 01F10802 		add	r2, r1, #8
 294 0012 00EB8202 		add	r2, r0, r2, lsl #2
 295 0016 5360     		str	r3, [r2, #4]
 296 0018 1431     		adds	r1, r1, #20
 297 001a 00EB810C 		add	ip, r0, r1, lsl #2
 298 001e 029B     		ldr	r3, [sp, #8]
 299 0020 CCF80430 		str	r3, [ip, #4]
 300 0024 FFF7FEFF 		bl	refr_img
 301 0028 08BD     		pop	{r3, pc}
 303              		.section	.text.lv_imgbtn_set_state,"ax",%progbits
ARM GAS  /var/folders/lp/x54gwt890xv47sdkqj1k04q40000gn/T//ccFiVZKm.s 			page 6


 304              		.align	1
 305              		.global	lv_imgbtn_set_state
 306              		.syntax unified
 307              		.thumb
 308              		.thumb_func
 310              	lv_imgbtn_set_state:
 311              		@ args = 0, pretend = 0, frame = 0
 312              		@ frame_needed = 0, uses_anonymous_args = 0
 313 0000 38B5     		push	{r3, r4, r5, lr}
 314 0002 0446     		mov	r4, r0
 315 0004 0129     		cmp	r1, #1
 316 0006 05D0     		beq	.L56
 317 0008 0429     		cmp	r1, #4
 318 000a 18D0     		beq	.L57
 319 000c 0229     		cmp	r1, #2
 320 000e 18D0     		beq	.L58
 321 0010 0025     		movs	r5, #0
 322 0012 00E0     		b	.L52
 323              	.L56:
 324 0014 2025     		movs	r5, #32
 325              	.L52:
 326 0016 0529     		cmp	r1, #5
 327 0018 14D0     		beq	.L53
 328              	.L54:
 329 001a 0339     		subs	r1, r1, #3
 330 001c C9B2     		uxtb	r1, r1
 331 001e 0229     		cmp	r1, #2
 332 0020 01D8     		bhi	.L55
 333 0022 45F00105 		orr	r5, r5, #1
 334              	.L55:
 335 0026 A121     		movs	r1, #161
 336 0028 2046     		mov	r0, r4
 337 002a FFF7FEFF 		bl	lv_obj_clear_state
 338 002e 2946     		mov	r1, r5
 339 0030 2046     		mov	r0, r4
 340 0032 FFF7FEFF 		bl	lv_obj_add_state
 341 0036 2046     		mov	r0, r4
 342 0038 FFF7FEFF 		bl	refr_img
 343 003c 38BD     		pop	{r3, r4, r5, pc}
 344              	.L57:
 345 003e 2025     		movs	r5, #32
 346 0040 E9E7     		b	.L52
 347              	.L58:
 348 0042 0025     		movs	r5, #0
 349              	.L53:
 350 0044 45F08005 		orr	r5, r5, #128
 351 0048 E7E7     		b	.L54
 353              		.section	.text.draw_main,"ax",%progbits
 354              		.align	1
 355              		.syntax unified
 356              		.thumb
 357              		.thumb_func
 359              	draw_main:
 360              		@ args = 0, pretend = 0, frame = 72
 361              		@ frame_needed = 0, uses_anonymous_args = 0
 362 0000 2DE9F04F 		push	{r4, r5, r6, r7, r8, r9, r10, fp, lr}
 363 0004 93B0     		sub	sp, sp, #76
ARM GAS  /var/folders/lp/x54gwt890xv47sdkqj1k04q40000gn/T//ccFiVZKm.s 			page 7


 364 0006 0546     		mov	r5, r0
 365 0008 FFF7FEFF 		bl	lv_event_get_target
 366 000c 0446     		mov	r4, r0
 367 000e 2846     		mov	r0, r5
 368 0010 FFF7FEFF 		bl	lv_event_get_draw_ctx
 369 0014 8246     		mov	r10, r0
 370 0016 2046     		mov	r0, r4
 371 0018 FFF7FEFF 		bl	get_state
 372 001c 0146     		mov	r1, r0
 373 001e 2046     		mov	r0, r4
 374 0020 FFF7FEFF 		bl	suggest_state
 375 0024 8046     		mov	r8, r0
 376 0026 00F10E03 		add	r3, r0, #14
 377 002a 04EB8303 		add	r3, r4, r3, lsl #2
 378 002e D3F804B0 		ldr	fp, [r3, #4]
 379 0032 6922     		movs	r2, #105
 380 0034 0021     		movs	r1, #0
 381 0036 2046     		mov	r0, r4
 382 0038 FFF7FEFF 		bl	lv_obj_get_style_prop
 383 003c 0746     		mov	r7, r0
 384 003e 6A22     		movs	r2, #106
 385 0040 0021     		movs	r1, #0
 386 0042 2046     		mov	r0, r4
 387 0044 FFF7FEFF 		bl	lv_obj_get_style_prop
 388 0048 B4F91460 		ldrsh	r6, [r4, #20]
 389 004c ADF84060 		strh	r6, [sp, #64]	@ movhi
 390 0050 B4F91650 		ldrsh	r5, [r4, #22]
 391 0054 ADF84250 		strh	r5, [sp, #66]	@ movhi
 392 0058 B4F91830 		ldrsh	r3, [r4, #24]
 393 005c ADF84430 		strh	r3, [sp, #68]	@ movhi
 394 0060 B4F91A90 		ldrsh	r9, [r4, #26]
 395 0064 ADF84690 		strh	r9, [sp, #70]	@ movhi
 396 0068 B6B2     		uxth	r6, r6
 397 006a BFB2     		uxth	r7, r7
 398 006c F61B     		subs	r6, r6, r7
 399 006e B2B2     		uxth	r2, r6
 400 0070 0192     		str	r2, [sp, #4]
 401 0072 36B2     		sxth	r6, r6
 402 0074 ADF84060 		strh	r6, [sp, #64]	@ movhi
 403 0078 17FA83F7 		uxtah	r7, r7, r3
 404 007c BBB2     		uxth	r3, r7
 405 007e 0293     		str	r3, [sp, #8]
 406 0080 3FB2     		sxth	r7, r7
 407 0082 ADF84470 		strh	r7, [sp, #68]	@ movhi
 408 0086 ADB2     		uxth	r5, r5
 409 0088 80B2     		uxth	r0, r0
 410 008a 2D1A     		subs	r5, r5, r0
 411 008c ABB2     		uxth	r3, r5
 412 008e 0093     		str	r3, [sp]
 413 0090 2DB2     		sxth	r5, r5
 414 0092 ADF84250 		strh	r5, [sp, #66]	@ movhi
 415 0096 10FA89F9 		uxtah	r9, r0, r9
 416 009a 0FFA89F9 		sxth	r9, r9
 417 009e ADF84690 		strh	r9, [sp, #70]	@ movhi
 418 00a2 0AA8     		add	r0, sp, #40
 419 00a4 FFF7FEFF 		bl	lv_draw_img_dsc_init
 420 00a8 0AA9     		add	r1, sp, #40
ARM GAS  /var/folders/lp/x54gwt890xv47sdkqj1k04q40000gn/T//ccFiVZKm.s 			page 8


 421 00aa 0A46     		mov	r2, r1
 422 00ac 0021     		movs	r1, #0
 423 00ae 2046     		mov	r0, r4
 424 00b0 FFF7FEFF 		bl	lv_obj_init_draw_img_dsc
 425 00b4 BBF1000F 		cmp	fp, #0
 426 00b8 6CD0     		beq	.L67
 427 00ba 09A9     		add	r1, sp, #36
 428 00bc 5846     		mov	r0, fp
 429 00be FFF7FEFF 		bl	lv_img_decoder_get_info
 430 00c2 099A     		ldr	r2, [sp, #36]
 431 00c4 C2F38A23 		ubfx	r3, r2, #10, #11
 432 00c8 0393     		str	r3, [sp, #12]
 433 00ca ADF81C60 		strh	r6, [sp, #28]	@ movhi
 434 00ce ADF81E50 		strh	r5, [sp, #30]	@ movhi
 435 00d2 019A     		ldr	r2, [sp, #4]
 436 00d4 1344     		add	r3, r3, r2
 437 00d6 9BB2     		uxth	r3, r3
 438 00d8 013B     		subs	r3, r3, #1
 439 00da ADF82030 		strh	r3, [sp, #32]	@ movhi
 440 00de BDF82630 		ldrh	r3, [sp, #38]
 441 00e2 C3F34A13 		ubfx	r3, r3, #5, #11
 442 00e6 009A     		ldr	r2, [sp]
 443 00e8 1344     		add	r3, r3, r2
 444 00ea 9BB2     		uxth	r3, r3
 445 00ec 013B     		subs	r3, r3, #1
 446 00ee ADF82230 		strh	r3, [sp, #34]	@ movhi
 447 00f2 5B46     		mov	r3, fp
 448 00f4 07AA     		add	r2, sp, #28
 449 00f6 0AA9     		add	r1, sp, #40
 450 00f8 5046     		mov	r0, r10
 451 00fa FFF7FEFF 		bl	lv_draw_img
 452              	.L61:
 453 00fe 08F11403 		add	r3, r8, #20
 454 0102 04EB8303 		add	r3, r4, r3, lsl #2
 455 0106 D3F804B0 		ldr	fp, [r3, #4]
 456 010a BBF1000F 		cmp	fp, #0
 457 010e 44D0     		beq	.L68
 458 0110 09A9     		add	r1, sp, #36
 459 0112 5846     		mov	r0, fp
 460 0114 FFF7FEFF 		bl	lv_img_decoder_get_info
 461 0118 099E     		ldr	r6, [sp, #36]
 462 011a C6F38A23 		ubfx	r3, r6, #10, #11
 463 011e 1E46     		mov	r6, r3
 464 0120 029A     		ldr	r2, [sp, #8]
 465 0122 D31A     		subs	r3, r2, r3
 466 0124 9BB2     		uxth	r3, r3
 467 0126 0133     		adds	r3, r3, #1
 468 0128 ADF81C30 		strh	r3, [sp, #28]	@ movhi
 469 012c ADF81E50 		strh	r5, [sp, #30]	@ movhi
 470 0130 ADF82070 		strh	r7, [sp, #32]	@ movhi
 471 0134 BDF82630 		ldrh	r3, [sp, #38]
 472 0138 C3F34A13 		ubfx	r3, r3, #5, #11
 473 013c 009A     		ldr	r2, [sp]
 474 013e 1344     		add	r3, r3, r2
 475 0140 9BB2     		uxth	r3, r3
 476 0142 013B     		subs	r3, r3, #1
 477 0144 ADF82230 		strh	r3, [sp, #34]	@ movhi
ARM GAS  /var/folders/lp/x54gwt890xv47sdkqj1k04q40000gn/T//ccFiVZKm.s 			page 9


 478 0148 5B46     		mov	r3, fp
 479 014a 07AA     		add	r2, sp, #28
 480 014c 0AA9     		add	r1, sp, #40
 481 014e 5046     		mov	r0, r10
 482 0150 FFF7FEFF 		bl	lv_draw_img
 483              	.L62:
 484 0154 08F10808 		add	r8, r8, #8
 485 0158 04EB8804 		add	r4, r4, r8, lsl #2
 486 015c 6768     		ldr	r7, [r4, #4]
 487 015e B7B1     		cbz	r7, .L60
 488 0160 019C     		ldr	r4, [sp, #4]
 489 0162 039B     		ldr	r3, [sp, #12]
 490 0164 1C44     		add	r4, r4, r3
 491 0166 1FFA84F8 		uxth	r8, r4
 492 016a 24B2     		sxth	r4, r4
 493 016c ADF81440 		strh	r4, [sp, #20]	@ movhi
 494 0170 029B     		ldr	r3, [sp, #8]
 495 0172 9B1B     		subs	r3, r3, r6
 496 0174 ADF81830 		strh	r3, [sp, #24]	@ movhi
 497 0178 ADF81650 		strh	r5, [sp, #22]	@ movhi
 498 017c ADF81A90 		strh	r9, [sp, #26]	@ movhi
 499 0180 DAF80820 		ldr	r2, [r10, #8]
 500 0184 05A9     		add	r1, sp, #20
 501 0186 0846     		mov	r0, r1
 502 0188 FFF7FEFF 		bl	_lv_area_intersect
 503 018c 38B9     		cbnz	r0, .L70
 504              	.L60:
 505 018e 13B0     		add	sp, sp, #76
 506              		@ sp needed
 507 0190 BDE8F08F 		pop	{r4, r5, r6, r7, r8, r9, r10, fp, pc}
 508              	.L67:
 509 0194 0023     		movs	r3, #0
 510 0196 0393     		str	r3, [sp, #12]
 511 0198 B1E7     		b	.L61
 512              	.L68:
 513 019a 0026     		movs	r6, #0
 514 019c DAE7     		b	.L62
 515              	.L70:
 516 019e 09A9     		add	r1, sp, #36
 517 01a0 3846     		mov	r0, r7
 518 01a2 FFF7FEFF 		bl	lv_img_decoder_get_info
 519 01a6 DAF80860 		ldr	r6, [r10, #8]
 520 01aa 05AB     		add	r3, sp, #20
 521 01ac CAF80830 		str	r3, [r10, #8]
 522 01b0 ADF81C40 		strh	r4, [sp, #28]	@ movhi
 523 01b4 ADF81E50 		strh	r5, [sp, #30]	@ movhi
 524 01b8 099B     		ldr	r3, [sp, #36]
 525 01ba C3F38A23 		ubfx	r3, r3, #10, #11
 526 01be 9844     		add	r8, r8, r3
 527 01c0 1FFA88F8 		uxth	r8, r8
 528 01c4 08F1FF38 		add	r8, r8, #-1
 529 01c8 ADF82080 		strh	r8, [sp, #32]	@ movhi
 530 01cc BDF82630 		ldrh	r3, [sp, #38]
 531 01d0 C3F34A13 		ubfx	r3, r3, #5, #11
 532 01d4 009A     		ldr	r2, [sp]
 533 01d6 1A44     		add	r2, r2, r3
 534 01d8 93B2     		uxth	r3, r2
ARM GAS  /var/folders/lp/x54gwt890xv47sdkqj1k04q40000gn/T//ccFiVZKm.s 			page 10


 535 01da 013B     		subs	r3, r3, #1
 536 01dc ADF82230 		strh	r3, [sp, #34]	@ movhi
 537 01e0 12E0     		b	.L65
 538              	.L66:
 539 01e2 3B46     		mov	r3, r7
 540 01e4 07AA     		add	r2, sp, #28
 541 01e6 0AA9     		add	r1, sp, #40
 542 01e8 5046     		mov	r0, r10
 543 01ea FFF7FEFF 		bl	lv_draw_img
 544 01ee BDF82020 		ldrh	r2, [sp, #32]
 545 01f2 531C     		adds	r3, r2, #1
 546 01f4 ADF81C30 		strh	r3, [sp, #28]	@ movhi
 547 01f8 099B     		ldr	r3, [sp, #36]
 548 01fa C3F38A23 		ubfx	r3, r3, #10, #11
 549 01fe 1A44     		add	r2, r2, r3
 550 0200 ADF82020 		strh	r2, [sp, #32]	@ movhi
 551 0204 2344     		add	r3, r3, r4
 552 0206 1CB2     		sxth	r4, r3
 553              	.L65:
 554 0208 BDF81830 		ldrh	r3, [sp, #24]
 555 020c 099A     		ldr	r2, [sp, #36]
 556 020e C2F38A22 		ubfx	r2, r2, #10, #11
 557 0212 1344     		add	r3, r3, r2
 558 0214 9BB2     		uxth	r3, r3
 559 0216 013B     		subs	r3, r3, #1
 560 0218 1BB2     		sxth	r3, r3
 561 021a A342     		cmp	r3, r4
 562 021c E1DC     		bgt	.L66
 563 021e CAF80860 		str	r6, [r10, #8]
 564 0222 B4E7     		b	.L60
 566              		.section	.text.lv_imgbtn_event,"ax",%progbits
 567              		.align	1
 568              		.syntax unified
 569              		.thumb
 570              		.thumb_func
 572              	lv_imgbtn_event:
 573              		@ args = 0, pretend = 0, frame = 8
 574              		@ frame_needed = 0, uses_anonymous_args = 0
 575 0000 70B5     		push	{r4, r5, r6, lr}
 576 0002 82B0     		sub	sp, sp, #8
 577 0004 0C46     		mov	r4, r1
 578 0006 5E48     		ldr	r0, .L83
 579 0008 FFF7FEFF 		bl	lv_obj_event_base
 580 000c 0128     		cmp	r0, #1
 581 000e 01D0     		beq	.L82
 582              	.L71:
 583 0010 02B0     		add	sp, sp, #8
 584              		@ sp needed
 585 0012 70BD     		pop	{r4, r5, r6, pc}
 586              	.L82:
 587 0014 2046     		mov	r0, r4
 588 0016 FFF7FEFF 		bl	lv_event_get_code
 589 001a 0546     		mov	r5, r0
 590 001c 2046     		mov	r0, r4
 591 001e FFF7FEFF 		bl	lv_event_get_target
 592 0022 0646     		mov	r6, r0
 593 0024 6B1E     		subs	r3, r5, #1
ARM GAS  /var/folders/lp/x54gwt890xv47sdkqj1k04q40000gn/T//ccFiVZKm.s 			page 11


 594 0026 2B2B     		cmp	r3, #43
 595 0028 F2D8     		bhi	.L71
 596 002a 01A2     		adr	r2, .L74
 597 002c 52F823F0 		ldr	pc, [r2, r3, lsl #2]
 598              		.p2align 2
 599              	.L74:
 600 0030 E1000000 		.word	.L78+1
 601 0034 11000000 		.word	.L71+1
 602 0038 E1000000 		.word	.L78+1
 603 003c 11000000 		.word	.L71+1
 604 0040 11000000 		.word	.L71+1
 605 0044 11000000 		.word	.L71+1
 606 0048 11000000 		.word	.L71+1
 607 004c E1000000 		.word	.L78+1
 608 0050 11000000 		.word	.L71+1
 609 0054 11000000 		.word	.L71+1
 610 0058 11000000 		.word	.L71+1
 611 005c 11000000 		.word	.L71+1
 612 0060 11000000 		.word	.L71+1
 613 0064 11000000 		.word	.L71+1
 614 0068 11000000 		.word	.L71+1
 615 006c 11000000 		.word	.L71+1
 616 0070 11000000 		.word	.L71+1
 617 0074 EF000000 		.word	.L77+1
 618 0078 11000000 		.word	.L71+1
 619 007c 11000000 		.word	.L71+1
 620 0080 E7000000 		.word	.L76+1
 621 0084 11000000 		.word	.L71+1
 622 0088 11000000 		.word	.L71+1
 623 008c 11000000 		.word	.L71+1
 624 0090 11000000 		.word	.L71+1
 625 0094 11000000 		.word	.L71+1
 626 0098 11000000 		.word	.L71+1
 627 009c 63010000 		.word	.L75+1
 628 00a0 11000000 		.word	.L71+1
 629 00a4 11000000 		.word	.L71+1
 630 00a8 11000000 		.word	.L71+1
 631 00ac 11000000 		.word	.L71+1
 632 00b0 11000000 		.word	.L71+1
 633 00b4 11000000 		.word	.L71+1
 634 00b8 11000000 		.word	.L71+1
 635 00bc 11000000 		.word	.L71+1
 636 00c0 11000000 		.word	.L71+1
 637 00c4 11000000 		.word	.L71+1
 638 00c8 11000000 		.word	.L71+1
 639 00cc 11000000 		.word	.L71+1
 640 00d0 11000000 		.word	.L71+1
 641 00d4 11000000 		.word	.L71+1
 642 00d8 11000000 		.word	.L71+1
 643 00dc 01010000 		.word	.L73+1
 644              		.p2align 1
 645              	.L78:
 646 00e0 FFF7FEFF 		bl	refr_img
 647 00e4 94E7     		b	.L71
 648              	.L76:
 649 00e6 2046     		mov	r0, r4
 650 00e8 FFF7FEFF 		bl	draw_main
ARM GAS  /var/folders/lp/x54gwt890xv47sdkqj1k04q40000gn/T//ccFiVZKm.s 			page 12


 651 00ec 90E7     		b	.L71
 652              	.L77:
 653 00ee 2046     		mov	r0, r4
 654 00f0 FFF7FEFF 		bl	lv_event_get_param
 655 00f4 0378     		ldrb	r3, [r0]	@ zero_extendqisi2
 656 00f6 022B     		cmp	r3, #2
 657 00f8 8AD0     		beq	.L71
 658 00fa 0123     		movs	r3, #1
 659 00fc 0370     		strb	r3, [r0]
 660 00fe 87E7     		b	.L71
 661              	.L73:
 662 0100 2046     		mov	r0, r4
 663 0102 FFF7FEFF 		bl	lv_event_get_self_size_info
 664 0106 0446     		mov	r4, r0
 665 0108 3046     		mov	r0, r6
 666 010a FFF7FEFF 		bl	get_state
 667 010e 0146     		mov	r1, r0
 668 0110 3046     		mov	r0, r6
 669 0112 FFF7FEFF 		bl	suggest_state
 670 0116 00F10E03 		add	r3, r0, #14
 671 011a 06EB8303 		add	r3, r6, r3, lsl #2
 672 011e 5B68     		ldr	r3, [r3, #4]
 673 0120 002B     		cmp	r3, #0
 674 0122 7FF475AF 		bne	.L71
 675 0126 00F10803 		add	r3, r0, #8
 676 012a 06EB8303 		add	r3, r6, r3, lsl #2
 677 012e 5A68     		ldr	r2, [r3, #4]
 678 0130 002A     		cmp	r2, #0
 679 0132 3FF46DAF 		beq	.L71
 680 0136 00F11403 		add	r3, r0, #20
 681 013a 06EB8303 		add	r3, r6, r3, lsl #2
 682 013e 5B68     		ldr	r3, [r3, #4]
 683 0140 002B     		cmp	r3, #0
 684 0142 7FF465AF 		bne	.L71
 685 0146 01A9     		add	r1, sp, #4
 686 0148 1046     		mov	r0, r2
 687 014a FFF7FEFF 		bl	lv_img_decoder_get_info
 688 014e 019B     		ldr	r3, [sp, #4]
 689 0150 C3F38A23 		ubfx	r3, r3, #10, #11
 690 0154 B4F90020 		ldrsh	r2, [r4]
 691 0158 9342     		cmp	r3, r2
 692 015a B8BF     		it	lt
 693 015c 1346     		movlt	r3, r2
 694 015e 2380     		strh	r3, [r4]	@ movhi
 695 0160 56E7     		b	.L71
 696              	.L75:
 697 0162 0121     		movs	r1, #1
 698 0164 FFF7FEFF 		bl	lv_obj_has_state
 699 0168 20B1     		cbz	r0, .L79
 700 016a 0321     		movs	r1, #3
 701 016c 3046     		mov	r0, r6
 702 016e FFF7FEFF 		bl	lv_imgbtn_set_state
 703 0172 4DE7     		b	.L71
 704              	.L79:
 705 0174 0021     		movs	r1, #0
 706 0176 3046     		mov	r0, r6
 707 0178 FFF7FEFF 		bl	lv_imgbtn_set_state
ARM GAS  /var/folders/lp/x54gwt890xv47sdkqj1k04q40000gn/T//ccFiVZKm.s 			page 13


 708 017c 48E7     		b	.L71
 709              	.L84:
 710 017e 00BF     		.align	2
 711              	.L83:
 712 0180 00000000 		.word	lv_imgbtn_class
 714              		.global	lv_imgbtn_class
 715              		.section	.rodata.lv_imgbtn_class,"a"
 716              		.align	2
 719              	lv_imgbtn_class:
 720 0000 00000000 		.word	lv_obj_class
 721 0004 00000000 		.word	lv_imgbtn_constructor
 722 0008 00000000 		.space	8
 722      00000000 
 723 0010 00000000 		.word	lv_imgbtn_event
 724 0014 00000000 		.space	4
 725 0018 00       		.byte	0
 726 0019 07       		.byte	7
 727 001a 00       		.byte	0
 728 001b 00       		.space	1
 729              		.ident	"GCC: (xPack GNU Arm Embedded GCC arm64) 13.3.1 20240614"
ARM GAS  /var/folders/lp/x54gwt890xv47sdkqj1k04q40000gn/T//ccFiVZKm.s 			page 14

