ARM GAS  /var/folders/lp/x54gwt890xv47sdkqj1k04q40000gn/T//ccXf0CmV.s 			page 1


   1              		.cpu cortex-m4
   2              		.arch armv7e-m
   3              		.fpu fpv4-sp-d16
   4              		.eabi_attribute 27, 1
   5              		.eabi_attribute 28, 1
   6              		.eabi_attribute 20, 1
   7              		.eabi_attribute 21, 1
   8              		.eabi_attribute 23, 3
   9              		.eabi_attribute 24, 1
  10              		.eabi_attribute 25, 1
  11              		.eabi_attribute 26, 1
  12              		.eabi_attribute 30, 1
  13              		.eabi_attribute 34, 1
  14              		.eabi_attribute 18, 4
  15              		.file	"lv_list.c"
  16              		.text
  17              		.section	.text.lv_list_create,"ax",%progbits
  18              		.align	1
  19              		.global	lv_list_create
  20              		.syntax unified
  21              		.thumb
  22              		.thumb_func
  24              	lv_list_create:
  25              		@ args = 0, pretend = 0, frame = 0
  26              		@ frame_needed = 0, uses_anonymous_args = 0
  27 0000 10B5     		push	{r4, lr}
  28 0002 0146     		mov	r1, r0
  29 0004 0548     		ldr	r0, .L3
  30 0006 FFF7FEFF 		bl	lv_obj_class_create_obj
  31 000a 0446     		mov	r4, r0
  32 000c FFF7FEFF 		bl	lv_obj_class_init_obj
  33 0010 0121     		movs	r1, #1
  34 0012 2046     		mov	r0, r4
  35 0014 FFF7FEFF 		bl	lv_obj_set_flex_flow
  36 0018 2046     		mov	r0, r4
  37 001a 10BD     		pop	{r4, pc}
  38              	.L4:
  39              		.align	2
  40              	.L3:
  41 001c 00000000 		.word	lv_list_class
  43              		.section	.text.lv_list_add_text,"ax",%progbits
  44              		.align	1
  45              		.global	lv_list_add_text
  46              		.syntax unified
  47              		.thumb
  48              		.thumb_func
  50              	lv_list_add_text:
  51              		@ args = 0, pretend = 0, frame = 0
  52              		@ frame_needed = 0, uses_anonymous_args = 0
  53 0000 38B5     		push	{r3, r4, r5, lr}
  54 0002 0D46     		mov	r5, r1
  55 0004 0146     		mov	r1, r0
  56 0006 0A48     		ldr	r0, .L7
  57 0008 FFF7FEFF 		bl	lv_obj_class_create_obj
  58 000c 0446     		mov	r4, r0
  59 000e FFF7FEFF 		bl	lv_obj_class_init_obj
  60 0012 2946     		mov	r1, r5
ARM GAS  /var/folders/lp/x54gwt890xv47sdkqj1k04q40000gn/T//ccXf0CmV.s 			page 2


  61 0014 2046     		mov	r0, r4
  62 0016 FFF7FEFF 		bl	lv_label_set_text
  63 001a 0321     		movs	r1, #3
  64 001c 2046     		mov	r0, r4
  65 001e FFF7FEFF 		bl	lv_label_set_long_mode
  66 0022 42F26401 		movw	r1, #8292
  67 0026 2046     		mov	r0, r4
  68 0028 FFF7FEFF 		bl	lv_obj_set_width
  69 002c 2046     		mov	r0, r4
  70 002e 38BD     		pop	{r3, r4, r5, pc}
  71              	.L8:
  72              		.align	2
  73              	.L7:
  74 0030 00000000 		.word	lv_list_text_class
  76              		.section	.text.lv_list_add_btn,"ax",%progbits
  77              		.align	1
  78              		.global	lv_list_add_btn
  79              		.syntax unified
  80              		.thumb
  81              		.thumb_func
  83              	lv_list_add_btn:
  84              		@ args = 0, pretend = 0, frame = 0
  85              		@ frame_needed = 0, uses_anonymous_args = 0
  86 0000 70B5     		push	{r4, r5, r6, lr}
  87 0002 0E46     		mov	r6, r1
  88 0004 1546     		mov	r5, r2
  89 0006 0146     		mov	r1, r0
  90 0008 1448     		ldr	r0, .L13
  91 000a FFF7FEFF 		bl	lv_obj_class_create_obj
  92 000e 0446     		mov	r4, r0
  93 0010 FFF7FEFF 		bl	lv_obj_class_init_obj
  94 0014 42F2D172 		movw	r2, #10193
  95 0018 42F26401 		movw	r1, #8292
  96 001c 2046     		mov	r0, r4
  97 001e FFF7FEFF 		bl	lv_obj_set_size
  98 0022 0021     		movs	r1, #0
  99 0024 2046     		mov	r0, r4
 100 0026 FFF7FEFF 		bl	lv_obj_set_flex_flow
 101 002a 2EB1     		cbz	r6, .L10
 102 002c 2046     		mov	r0, r4
 103 002e FFF7FEFF 		bl	lv_img_create
 104 0032 3146     		mov	r1, r6
 105 0034 FFF7FEFF 		bl	lv_img_set_src
 106              	.L10:
 107 0038 75B1     		cbz	r5, .L9
 108 003a 2046     		mov	r0, r4
 109 003c FFF7FEFF 		bl	lv_label_create
 110 0040 0646     		mov	r6, r0
 111 0042 2946     		mov	r1, r5
 112 0044 FFF7FEFF 		bl	lv_label_set_text
 113 0048 0321     		movs	r1, #3
 114 004a 3046     		mov	r0, r6
 115 004c FFF7FEFF 		bl	lv_label_set_long_mode
 116 0050 0121     		movs	r1, #1
 117 0052 3046     		mov	r0, r6
 118 0054 FFF7FEFF 		bl	lv_obj_set_flex_grow
 119              	.L9:
ARM GAS  /var/folders/lp/x54gwt890xv47sdkqj1k04q40000gn/T//ccXf0CmV.s 			page 3


 120 0058 2046     		mov	r0, r4
 121 005a 70BD     		pop	{r4, r5, r6, pc}
 122              	.L14:
 123              		.align	2
 124              	.L13:
 125 005c 00000000 		.word	lv_list_btn_class
 127              		.section	.rodata.lv_list_get_btn_text.str1.4,"aMS",%progbits,1
 128              		.align	2
 129              	.LC0:
 130 0000 00       		.ascii	"\000"
 131              		.section	.text.lv_list_get_btn_text,"ax",%progbits
 132              		.align	1
 133              		.global	lv_list_get_btn_text
 134              		.syntax unified
 135              		.thumb
 136              		.thumb_func
 138              	lv_list_get_btn_text:
 139              		@ args = 0, pretend = 0, frame = 0
 140              		@ frame_needed = 0, uses_anonymous_args = 0
 141 0000 70B5     		push	{r4, r5, r6, lr}
 142 0002 0E46     		mov	r6, r1
 143 0004 0024     		movs	r4, #0
 144 0006 00E0     		b	.L16
 145              	.L17:
 146 0008 0134     		adds	r4, r4, #1
 147              	.L16:
 148 000a 3046     		mov	r0, r6
 149 000c FFF7FEFF 		bl	lv_obj_get_child_cnt
 150 0010 A042     		cmp	r0, r4
 151 0012 0DD9     		bls	.L21
 152 0014 2146     		mov	r1, r4
 153 0016 3046     		mov	r0, r6
 154 0018 FFF7FEFF 		bl	lv_obj_get_child
 155 001c 0546     		mov	r5, r0
 156 001e 0549     		ldr	r1, .L22
 157 0020 FFF7FEFF 		bl	lv_obj_check_type
 158 0024 0028     		cmp	r0, #0
 159 0026 EFD0     		beq	.L17
 160 0028 2846     		mov	r0, r5
 161 002a FFF7FEFF 		bl	lv_label_get_text
 162 002e 00E0     		b	.L15
 163              	.L21:
 164 0030 0148     		ldr	r0, .L22+4
 165              	.L15:
 166 0032 70BD     		pop	{r4, r5, r6, pc}
 167              	.L23:
 168              		.align	2
 169              	.L22:
 170 0034 00000000 		.word	lv_label_class
 171 0038 00000000 		.word	.LC0
 173              		.global	lv_list_text_class
 174              		.section	.rodata.lv_list_text_class,"a"
 175              		.align	2
 178              	lv_list_text_class:
 179 0000 00000000 		.word	lv_label_class
 180 0004 00000000 		.space	24
 180      00000000 
ARM GAS  /var/folders/lp/x54gwt890xv47sdkqj1k04q40000gn/T//ccXf0CmV.s 			page 4


 180      00000000 
 180      00000000 
 180      00000000 
 181              		.global	lv_list_btn_class
 182              		.section	.rodata.lv_list_btn_class,"a"
 183              		.align	2
 186              	lv_list_btn_class:
 187 0000 00000000 		.word	lv_btn_class
 188 0004 00000000 		.space	24
 188      00000000 
 188      00000000 
 188      00000000 
 188      00000000 
 189              		.global	lv_list_class
 190              		.section	.rodata.lv_list_class,"a"
 191              		.align	2
 194              	lv_list_class:
 195 0000 00000000 		.word	lv_obj_class
 196 0004 00000000 		.space	16
 196      00000000 
 196      00000000 
 196      00000000 
 197 0014 C300     		.short	195
 198 0016 0401     		.short	260
 199 0018 00000000 		.space	4
 200              		.ident	"GCC: (xPack GNU Arm Embedded GCC arm64) 13.3.1 20240614"
ARM GAS  /var/folders/lp/x54gwt890xv47sdkqj1k04q40000gn/T//ccXf0CmV.s 			page 5

