ARM GAS  /var/folders/lp/x54gwt890xv47sdkqj1k04q40000gn/T//ccoqCODN.s 			page 1


   1              		.cpu cortex-m4
   2              		.arch armv7e-m
   3              		.fpu fpv4-sp-d16
   4              		.eabi_attribute 27, 1
   5              		.eabi_attribute 28, 1
   6              		.eabi_attribute 20, 1
   7              		.eabi_attribute 21, 1
   8              		.eabi_attribute 23, 3
   9              		.eabi_attribute 24, 1
  10              		.eabi_attribute 25, 1
  11              		.eabi_attribute 26, 1
  12              		.eabi_attribute 30, 1
  13              		.eabi_attribute 34, 1
  14              		.eabi_attribute 18, 4
  15              		.file	"lv_menu.c"
  16              		.text
  17              		.section	.text.lv_menu_destructor,"ax",%progbits
  18              		.align	1
  19              		.syntax unified
  20              		.thumb
  21              		.thumb_func
  23              	lv_menu_destructor:
  24              		@ args = 0, pretend = 0, frame = 0
  25              		@ frame_needed = 0, uses_anonymous_args = 0
  26 0000 08B5     		push	{r3, lr}
  27 0002 01F15400 		add	r0, r1, #84
  28 0006 FFF7FEFF 		bl	_lv_ll_clear
  29 000a 08BD     		pop	{r3, pc}
  31              		.section	.text.lv_menu_section_constructor,"ax",%progbits
  32              		.align	1
  33              		.syntax unified
  34              		.thumb
  35              		.thumb_func
  37              	lv_menu_section_constructor:
  38              		@ args = 0, pretend = 0, frame = 0
  39              		@ frame_needed = 0, uses_anonymous_args = 0
  40 0000 10B5     		push	{r4, lr}
  41 0002 0C46     		mov	r4, r1
  42 0004 0121     		movs	r1, #1
  43 0006 2046     		mov	r0, r4
  44 0008 FFF7FEFF 		bl	lv_obj_set_flex_flow
  45 000c 0221     		movs	r1, #2
  46 000e 2046     		mov	r0, r4
  47 0010 FFF7FEFF 		bl	lv_obj_clear_flag
  48 0014 10BD     		pop	{r4, pc}
  50              		.section	.text.lv_menu_cont_constructor,"ax",%progbits
  51              		.align	1
  52              		.syntax unified
  53              		.thumb
  54              		.thumb_func
  56              	lv_menu_cont_constructor:
  57              		@ args = 0, pretend = 0, frame = 0
  58              		@ frame_needed = 0, uses_anonymous_args = 0
  59 0000 10B5     		push	{r4, lr}
  60 0002 0C46     		mov	r4, r1
  61 0004 0021     		movs	r1, #0
  62 0006 2046     		mov	r0, r4
ARM GAS  /var/folders/lp/x54gwt890xv47sdkqj1k04q40000gn/T//ccoqCODN.s 			page 2


  63 0008 FFF7FEFF 		bl	lv_obj_set_flex_flow
  64 000c 0223     		movs	r3, #2
  65 000e 1A46     		mov	r2, r3
  66 0010 0021     		movs	r1, #0
  67 0012 2046     		mov	r0, r4
  68 0014 FFF7FEFF 		bl	lv_obj_set_flex_align
  69 0018 0221     		movs	r1, #2
  70 001a 2046     		mov	r0, r4
  71 001c FFF7FEFF 		bl	lv_obj_clear_flag
  72 0020 10BD     		pop	{r4, pc}
  74              		.section	.rodata.lv_menu_constructor.str1.4,"aMS",%progbits,1
  75              		.align	2
  76              	.LC0:
  77 0000 EF819300 		.ascii	"\357\201\223\000"
  78              		.section	.text.lv_menu_constructor,"ax",%progbits
  79              		.align	1
  80              		.syntax unified
  81              		.thumb
  82              		.thumb_func
  84              	lv_menu_constructor:
  85              		@ args = 0, pretend = 0, frame = 0
  86              		@ frame_needed = 0, uses_anonymous_args = 0
  87 0000 70B5     		push	{r4, r5, r6, lr}
  88 0002 0C46     		mov	r4, r1
  89 0004 4C4B     		ldr	r3, .L9
  90 0006 1988     		ldrh	r1, [r3]
  91 0008 2046     		mov	r0, r4
  92 000a FFF7FEFF 		bl	lv_obj_set_layout
  93 000e 0021     		movs	r1, #0
  94 0010 2046     		mov	r0, r4
  95 0012 FFF7FEFF 		bl	lv_obj_set_flex_flow
  96 0016 94F86230 		ldrb	r3, [r4, #98]	@ zero_extendqisi2
  97 001a 23F00603 		bic	r3, r3, #6
  98 001e 84F86230 		strb	r3, [r4, #98]
  99 0022 DBB2     		uxtb	r3, r3
 100 0024 23F00803 		bic	r3, r3, #8
 101 0028 84F86230 		strb	r3, [r4, #98]
 102 002c 0025     		movs	r5, #0
 103 002e 84F86050 		strb	r5, [r4, #96]
 104 0032 84F86150 		strb	r5, [r4, #97]
 105 0036 DBB2     		uxtb	r3, r3
 106 0038 65F30003 		bfi	r3, r5, #0, #1
 107 003c 84F86230 		strb	r3, [r4, #98]
 108 0040 0421     		movs	r1, #4
 109 0042 04F15400 		add	r0, r4, #84
 110 0046 FFF7FEFF 		bl	_lv_ll_init
 111 004a 2046     		mov	r0, r4
 112 004c FFF7FEFF 		bl	lv_obj_create
 113 0050 6062     		str	r0, [r4, #36]
 114 0052 0121     		movs	r1, #1
 115 0054 FFF7FEFF 		bl	lv_obj_add_flag
 116 0058 E563     		str	r5, [r4, #60]
 117 005a 6564     		str	r5, [r4, #68]
 118 005c A564     		str	r5, [r4, #72]
 119 005e E564     		str	r5, [r4, #76]
 120 0060 2564     		str	r5, [r4, #64]
 121 0062 2146     		mov	r1, r4
ARM GAS  /var/folders/lp/x54gwt890xv47sdkqj1k04q40000gn/T//ccoqCODN.s 			page 3


 122 0064 3548     		ldr	r0, .L9+4
 123 0066 FFF7FEFF 		bl	lv_obj_class_create_obj
 124 006a 0646     		mov	r6, r0
 125 006c FFF7FEFF 		bl	lv_obj_class_init_obj
 126 0070 42F26401 		movw	r1, #8292
 127 0074 3046     		mov	r0, r6
 128 0076 FFF7FEFF 		bl	lv_obj_set_height
 129 007a 0121     		movs	r1, #1
 130 007c 3046     		mov	r0, r6
 131 007e FFF7FEFF 		bl	lv_obj_set_flex_grow
 132 0082 0121     		movs	r1, #1
 133 0084 3046     		mov	r0, r6
 134 0086 FFF7FEFF 		bl	lv_obj_set_flex_flow
 135 008a 4FF48041 		mov	r1, #16384
 136 008e 3046     		mov	r0, r6
 137 0090 FFF7FEFF 		bl	lv_obj_add_flag
 138 0094 0221     		movs	r1, #2
 139 0096 3046     		mov	r0, r6
 140 0098 FFF7FEFF 		bl	lv_obj_clear_flag
 141 009c A662     		str	r6, [r4, #40]
 142 009e 3146     		mov	r1, r6
 143 00a0 2748     		ldr	r0, .L9+8
 144 00a2 FFF7FEFF 		bl	lv_obj_class_create_obj
 145 00a6 0646     		mov	r6, r0
 146 00a8 FFF7FEFF 		bl	lv_obj_class_init_obj
 147 00ac 42F2D172 		movw	r2, #10193
 148 00b0 42F26401 		movw	r1, #8292
 149 00b4 3046     		mov	r0, r6
 150 00b6 FFF7FEFF 		bl	lv_obj_set_size
 151 00ba 2946     		mov	r1, r5
 152 00bc 3046     		mov	r0, r6
 153 00be FFF7FEFF 		bl	lv_obj_set_flex_flow
 154 00c2 0223     		movs	r3, #2
 155 00c4 1A46     		mov	r2, r3
 156 00c6 2946     		mov	r1, r5
 157 00c8 3046     		mov	r0, r6
 158 00ca FFF7FEFF 		bl	lv_obj_set_flex_align
 159 00ce 0221     		movs	r1, #2
 160 00d0 3046     		mov	r0, r6
 161 00d2 FFF7FEFF 		bl	lv_obj_clear_flag
 162 00d6 4FF48041 		mov	r1, #16384
 163 00da 3046     		mov	r0, r6
 164 00dc FFF7FEFF 		bl	lv_obj_add_flag
 165 00e0 2663     		str	r6, [r4, #48]
 166 00e2 3046     		mov	r0, r6
 167 00e4 FFF7FEFF 		bl	lv_btn_create
 168 00e8 0646     		mov	r6, r0
 169 00ea 2346     		mov	r3, r4
 170 00ec 0722     		movs	r2, #7
 171 00ee 1549     		ldr	r1, .L9+12
 172 00f0 FFF7FEFF 		bl	lv_obj_add_event_cb
 173 00f4 4FF48041 		mov	r1, #16384
 174 00f8 3046     		mov	r0, r6
 175 00fa FFF7FEFF 		bl	lv_obj_add_flag
 176 00fe 2946     		mov	r1, r5
 177 0100 3046     		mov	r0, r6
 178 0102 FFF7FEFF 		bl	lv_obj_set_flex_flow
ARM GAS  /var/folders/lp/x54gwt890xv47sdkqj1k04q40000gn/T//ccoqCODN.s 			page 4


 179 0106 6663     		str	r6, [r4, #52]
 180 0108 3046     		mov	r0, r6
 181 010a FFF7FEFF 		bl	lv_img_create
 182 010e 0E49     		ldr	r1, .L9+16
 183 0110 FFF7FEFF 		bl	lv_img_set_src
 184 0114 206B     		ldr	r0, [r4, #48]
 185 0116 FFF7FEFF 		bl	lv_label_create
 186 011a 0646     		mov	r6, r0
 187 011c 0121     		movs	r1, #1
 188 011e FFF7FEFF 		bl	lv_obj_add_flag
 189 0122 A663     		str	r6, [r4, #56]
 190 0124 E562     		str	r5, [r4, #44]
 191 0126 2565     		str	r5, [r4, #80]
 192 0128 2346     		mov	r3, r4
 193 012a 1C22     		movs	r2, #28
 194 012c 0749     		ldr	r1, .L9+20
 195 012e 2046     		mov	r0, r4
 196 0130 FFF7FEFF 		bl	lv_obj_add_event_cb
 197 0134 70BD     		pop	{r4, r5, r6, pc}
 198              	.L10:
 199 0136 00BF     		.align	2
 200              	.L9:
 201 0138 00000000 		.word	LV_LAYOUT_FLEX
 202 013c 00000000 		.word	lv_menu_main_cont_class
 203 0140 00000000 		.word	lv_menu_main_header_cont_class
 204 0144 00000000 		.word	lv_menu_back_event_cb
 205 0148 00000000 		.word	.LC0
 206 014c 00000000 		.word	lv_menu_value_changed_event_cb
 208              		.section	.text.lv_menu_page_destructor,"ax",%progbits
 209              		.align	1
 210              		.syntax unified
 211              		.thumb
 212              		.thumb_func
 214              	lv_menu_page_destructor:
 215              		@ args = 0, pretend = 0, frame = 0
 216              		@ frame_needed = 0, uses_anonymous_args = 0
 217 0000 486A     		ldr	r0, [r1, #36]
 218 0002 30B1     		cbz	r0, .L14
 219 0004 10B5     		push	{r4, lr}
 220 0006 0C46     		mov	r4, r1
 221 0008 FFF7FEFF 		bl	lv_mem_free
 222 000c 0023     		movs	r3, #0
 223 000e 6362     		str	r3, [r4, #36]
 224 0010 10BD     		pop	{r4, pc}
 225              	.L14:
 226 0012 7047     		bx	lr
 228              		.section	.text.lv_menu_obj_del_event_cb,"ax",%progbits
 229              		.align	1
 230              		.syntax unified
 231              		.thumb
 232              		.thumb_func
 234              	lv_menu_obj_del_event_cb:
 235              		@ args = 0, pretend = 0, frame = 0
 236              		@ frame_needed = 0, uses_anonymous_args = 0
 237 0000 08B5     		push	{r3, lr}
 238 0002 FFF7FEFF 		bl	lv_event_get_user_data
 239 0006 FFF7FEFF 		bl	lv_mem_free
ARM GAS  /var/folders/lp/x54gwt890xv47sdkqj1k04q40000gn/T//ccoqCODN.s 			page 5


 240 000a 08BD     		pop	{r3, pc}
 242              		.section	.text.lv_menu_page_constructor,"ax",%progbits
 243              		.align	1
 244              		.syntax unified
 245              		.thumb
 246              		.thumb_func
 248              	lv_menu_page_constructor:
 249              		@ args = 0, pretend = 0, frame = 0
 250              		@ frame_needed = 0, uses_anonymous_args = 0
 251 0000 10B5     		push	{r4, lr}
 252 0002 0C46     		mov	r4, r1
 253 0004 0846     		mov	r0, r1
 254 0006 FFF7FEFF 		bl	lv_obj_get_parent
 255 000a 416A     		ldr	r1, [r0, #36]
 256 000c 2046     		mov	r0, r4
 257 000e FFF7FEFF 		bl	lv_obj_set_parent
 258 0012 0121     		movs	r1, #1
 259 0014 2046     		mov	r0, r4
 260 0016 FFF7FEFF 		bl	lv_obj_set_flex_flow
 261 001a 0223     		movs	r3, #2
 262 001c 1A46     		mov	r2, r3
 263 001e 0021     		movs	r1, #0
 264 0020 2046     		mov	r0, r4
 265 0022 FFF7FEFF 		bl	lv_obj_set_flex_align
 266 0026 4FF48041 		mov	r1, #16384
 267 002a 2046     		mov	r0, r4
 268 002c FFF7FEFF 		bl	lv_obj_add_flag
 269 0030 10BD     		pop	{r4, pc}
 271              		.section	.text.lv_menu_refr_main_header_mode,"ax",%progbits
 272              		.align	1
 273              		.syntax unified
 274              		.thumb
 275              		.thumb_func
 277              	lv_menu_refr_main_header_mode:
 278              		@ args = 0, pretend = 0, frame = 0
 279              		@ frame_needed = 0, uses_anonymous_args = 0
 280 0000 10B5     		push	{r4, lr}
 281 0002 0446     		mov	r4, r0
 282 0004 006B     		ldr	r0, [r0, #48]
 283 0006 10B3     		cbz	r0, .L21
 284 0008 E36A     		ldr	r3, [r4, #44]
 285 000a 03B3     		cbz	r3, .L21
 286 000c 94F86230 		ldrb	r3, [r4, #98]	@ zero_extendqisi2
 287 0010 C3F34103 		ubfx	r3, r3, #1, #2
 288 0014 012B     		cmp	r3, #1
 289 0016 1BD0     		beq	.L23
 290 0018 022B     		cmp	r3, #2
 291 001a 21D0     		beq	.L24
 292 001c 33B9     		cbnz	r3, .L25
 293 001e 0021     		movs	r1, #0
 294 0020 FFF7FEFF 		bl	lv_obj_move_to_index
 295 0024 0121     		movs	r1, #1
 296 0026 E06A     		ldr	r0, [r4, #44]
 297 0028 FFF7FEFF 		bl	lv_obj_set_flex_grow
 298              	.L25:
 299 002c 206B     		ldr	r0, [r4, #48]
 300 002e FFF7FEFF 		bl	lv_obj_refr_size
ARM GAS  /var/folders/lp/x54gwt890xv47sdkqj1k04q40000gn/T//ccoqCODN.s 			page 6


 301 0032 E06A     		ldr	r0, [r4, #44]
 302 0034 FFF7FEFF 		bl	lv_obj_refr_size
 303 0038 206B     		ldr	r0, [r4, #48]
 304 003a FFF7FEFF 		bl	lv_obj_update_layout
 305 003e 206B     		ldr	r0, [r4, #48]
 306 0040 FFF7FEFF 		bl	lv_obj_get_content_height
 307 0044 A0B9     		cbnz	r0, .L26
 308 0046 0121     		movs	r1, #1
 309 0048 206B     		ldr	r0, [r4, #48]
 310 004a FFF7FEFF 		bl	lv_obj_add_flag
 311              	.L21:
 312 004e 10BD     		pop	{r4, pc}
 313              	.L23:
 314 0050 0021     		movs	r1, #0
 315 0052 FFF7FEFF 		bl	lv_obj_move_to_index
 316 0056 0021     		movs	r1, #0
 317 0058 E06A     		ldr	r0, [r4, #44]
 318 005a FFF7FEFF 		bl	lv_obj_set_flex_grow
 319 005e E5E7     		b	.L25
 320              	.L24:
 321 0060 0121     		movs	r1, #1
 322 0062 FFF7FEFF 		bl	lv_obj_move_to_index
 323 0066 0121     		movs	r1, #1
 324 0068 E06A     		ldr	r0, [r4, #44]
 325 006a FFF7FEFF 		bl	lv_obj_set_flex_grow
 326 006e DDE7     		b	.L25
 327              	.L26:
 328 0070 0121     		movs	r1, #1
 329 0072 206B     		ldr	r0, [r4, #48]
 330 0074 FFF7FEFF 		bl	lv_obj_clear_flag
 331 0078 E9E7     		b	.L21
 333              		.section	.text.lv_menu_refr_sidebar_header_mode,"ax",%progbits
 334              		.align	1
 335              		.syntax unified
 336              		.thumb
 337              		.thumb_func
 339              	lv_menu_refr_sidebar_header_mode:
 340              		@ args = 0, pretend = 0, frame = 0
 341              		@ frame_needed = 0, uses_anonymous_args = 0
 342 0000 10B5     		push	{r4, lr}
 343 0002 0446     		mov	r4, r0
 344 0004 406C     		ldr	r0, [r0, #68]
 345 0006 F8B1     		cbz	r0, .L28
 346 0008 236C     		ldr	r3, [r4, #64]
 347 000a EBB1     		cbz	r3, .L28
 348 000c 94F86230 		ldrb	r3, [r4, #98]	@ zero_extendqisi2
 349 0010 C3F34103 		ubfx	r3, r3, #1, #2
 350 0014 012B     		cmp	r3, #1
 351 0016 18D0     		beq	.L30
 352 0018 022B     		cmp	r3, #2
 353 001a 1ED0     		beq	.L31
 354 001c 33B9     		cbnz	r3, .L32
 355 001e 0021     		movs	r1, #0
 356 0020 FFF7FEFF 		bl	lv_obj_move_to_index
 357 0024 0121     		movs	r1, #1
 358 0026 206C     		ldr	r0, [r4, #64]
 359 0028 FFF7FEFF 		bl	lv_obj_set_flex_grow
ARM GAS  /var/folders/lp/x54gwt890xv47sdkqj1k04q40000gn/T//ccoqCODN.s 			page 7


 360              	.L32:
 361 002c 606C     		ldr	r0, [r4, #68]
 362 002e FFF7FEFF 		bl	lv_obj_refr_size
 363 0032 206C     		ldr	r0, [r4, #64]
 364 0034 FFF7FEFF 		bl	lv_obj_refr_size
 365 0038 606C     		ldr	r0, [r4, #68]
 366 003a FFF7FEFF 		bl	lv_obj_get_content_height
 367 003e A0B9     		cbnz	r0, .L33
 368 0040 0121     		movs	r1, #1
 369 0042 606C     		ldr	r0, [r4, #68]
 370 0044 FFF7FEFF 		bl	lv_obj_add_flag
 371              	.L28:
 372 0048 10BD     		pop	{r4, pc}
 373              	.L30:
 374 004a 0021     		movs	r1, #0
 375 004c FFF7FEFF 		bl	lv_obj_move_to_index
 376 0050 0021     		movs	r1, #0
 377 0052 206C     		ldr	r0, [r4, #64]
 378 0054 FFF7FEFF 		bl	lv_obj_set_flex_grow
 379 0058 E8E7     		b	.L32
 380              	.L31:
 381 005a 0121     		movs	r1, #1
 382 005c FFF7FEFF 		bl	lv_obj_move_to_index
 383 0060 0121     		movs	r1, #1
 384 0062 206C     		ldr	r0, [r4, #64]
 385 0064 FFF7FEFF 		bl	lv_obj_set_flex_grow
 386 0068 E0E7     		b	.L32
 387              	.L33:
 388 006a 0121     		movs	r1, #1
 389 006c 606C     		ldr	r0, [r4, #68]
 390 006e FFF7FEFF 		bl	lv_obj_clear_flag
 391 0072 E9E7     		b	.L28
 393              		.section	.text.lv_menu_create,"ax",%progbits
 394              		.align	1
 395              		.global	lv_menu_create
 396              		.syntax unified
 397              		.thumb
 398              		.thumb_func
 400              	lv_menu_create:
 401              		@ args = 0, pretend = 0, frame = 0
 402              		@ frame_needed = 0, uses_anonymous_args = 0
 403 0000 10B5     		push	{r4, lr}
 404 0002 0146     		mov	r1, r0
 405 0004 0348     		ldr	r0, .L37
 406 0006 FFF7FEFF 		bl	lv_obj_class_create_obj
 407 000a 0446     		mov	r4, r0
 408 000c FFF7FEFF 		bl	lv_obj_class_init_obj
 409 0010 2046     		mov	r0, r4
 410 0012 10BD     		pop	{r4, pc}
 411              	.L38:
 412              		.align	2
 413              	.L37:
 414 0014 00000000 		.word	lv_menu_class
 416              		.section	.text.lv_menu_page_create,"ax",%progbits
 417              		.align	1
 418              		.global	lv_menu_page_create
 419              		.syntax unified
ARM GAS  /var/folders/lp/x54gwt890xv47sdkqj1k04q40000gn/T//ccoqCODN.s 			page 8


 420              		.thumb
 421              		.thumb_func
 423              	lv_menu_page_create:
 424              		@ args = 0, pretend = 0, frame = 0
 425              		@ frame_needed = 0, uses_anonymous_args = 0
 426 0000 38B5     		push	{r3, r4, r5, lr}
 427 0002 0C46     		mov	r4, r1
 428 0004 0146     		mov	r1, r0
 429 0006 0C48     		ldr	r0, .L45
 430 0008 FFF7FEFF 		bl	lv_obj_class_create_obj
 431 000c 0546     		mov	r5, r0
 432 000e FFF7FEFF 		bl	lv_obj_class_init_obj
 433 0012 64B1     		cbz	r4, .L40
 434 0014 2046     		mov	r0, r4
 435 0016 FFF7FEFF 		bl	strlen
 436 001a 0130     		adds	r0, r0, #1
 437 001c FFF7FEFF 		bl	lv_mem_alloc
 438 0020 6862     		str	r0, [r5, #36]
 439 0022 18B1     		cbz	r0, .L42
 440 0024 2146     		mov	r1, r4
 441 0026 FFF7FEFF 		bl	strcpy
 442 002a 02E0     		b	.L39
 443              	.L42:
 444 002c FEE7     		b	.L42
 445              	.L40:
 446 002e 0023     		movs	r3, #0
 447 0030 6B62     		str	r3, [r5, #36]
 448              	.L39:
 449 0032 2846     		mov	r0, r5
 450 0034 38BD     		pop	{r3, r4, r5, pc}
 451              	.L46:
 452 0036 00BF     		.align	2
 453              	.L45:
 454 0038 00000000 		.word	lv_menu_page_class
 456              		.section	.text.lv_menu_cont_create,"ax",%progbits
 457              		.align	1
 458              		.global	lv_menu_cont_create
 459              		.syntax unified
 460              		.thumb
 461              		.thumb_func
 463              	lv_menu_cont_create:
 464              		@ args = 0, pretend = 0, frame = 0
 465              		@ frame_needed = 0, uses_anonymous_args = 0
 466 0000 10B5     		push	{r4, lr}
 467 0002 0146     		mov	r1, r0
 468 0004 0348     		ldr	r0, .L49
 469 0006 FFF7FEFF 		bl	lv_obj_class_create_obj
 470 000a 0446     		mov	r4, r0
 471 000c FFF7FEFF 		bl	lv_obj_class_init_obj
 472 0010 2046     		mov	r0, r4
 473 0012 10BD     		pop	{r4, pc}
 474              	.L50:
 475              		.align	2
 476              	.L49:
 477 0014 00000000 		.word	lv_menu_cont_class
 479              		.section	.text.lv_menu_section_create,"ax",%progbits
 480              		.align	1
ARM GAS  /var/folders/lp/x54gwt890xv47sdkqj1k04q40000gn/T//ccoqCODN.s 			page 9


 481              		.global	lv_menu_section_create
 482              		.syntax unified
 483              		.thumb
 484              		.thumb_func
 486              	lv_menu_section_create:
 487              		@ args = 0, pretend = 0, frame = 0
 488              		@ frame_needed = 0, uses_anonymous_args = 0
 489 0000 10B5     		push	{r4, lr}
 490 0002 0146     		mov	r1, r0
 491 0004 0348     		ldr	r0, .L53
 492 0006 FFF7FEFF 		bl	lv_obj_class_create_obj
 493 000a 0446     		mov	r4, r0
 494 000c FFF7FEFF 		bl	lv_obj_class_init_obj
 495 0010 2046     		mov	r0, r4
 496 0012 10BD     		pop	{r4, pc}
 497              	.L54:
 498              		.align	2
 499              	.L53:
 500 0014 00000000 		.word	lv_menu_section_class
 502              		.section	.text.lv_menu_separator_create,"ax",%progbits
 503              		.align	1
 504              		.global	lv_menu_separator_create
 505              		.syntax unified
 506              		.thumb
 507              		.thumb_func
 509              	lv_menu_separator_create:
 510              		@ args = 0, pretend = 0, frame = 0
 511              		@ frame_needed = 0, uses_anonymous_args = 0
 512 0000 10B5     		push	{r4, lr}
 513 0002 0146     		mov	r1, r0
 514 0004 0348     		ldr	r0, .L57
 515 0006 FFF7FEFF 		bl	lv_obj_class_create_obj
 516 000a 0446     		mov	r4, r0
 517 000c FFF7FEFF 		bl	lv_obj_class_init_obj
 518 0010 2046     		mov	r0, r4
 519 0012 10BD     		pop	{r4, pc}
 520              	.L58:
 521              		.align	2
 522              	.L57:
 523 0014 00000000 		.word	lv_menu_separator_class
 525              		.section	.text.lv_menu_set_mode_header,"ax",%progbits
 526              		.align	1
 527              		.global	lv_menu_set_mode_header
 528              		.syntax unified
 529              		.thumb
 530              		.thumb_func
 532              	lv_menu_set_mode_header:
 533              		@ args = 0, pretend = 0, frame = 0
 534              		@ frame_needed = 0, uses_anonymous_args = 0
 535 0000 90F86230 		ldrb	r3, [r0, #98]	@ zero_extendqisi2
 536 0004 C3F34103 		ubfx	r3, r3, #1, #2
 537 0008 8B42     		cmp	r3, r1
 538 000a 00D1     		bne	.L65
 539 000c 7047     		bx	lr
 540              	.L65:
 541 000e 10B5     		push	{r4, lr}
 542 0010 0446     		mov	r4, r0
ARM GAS  /var/folders/lp/x54gwt890xv47sdkqj1k04q40000gn/T//ccoqCODN.s 			page 10


 543 0012 90F86230 		ldrb	r3, [r0, #98]	@ zero_extendqisi2
 544 0016 61F34203 		bfi	r3, r1, #1, #2
 545 001a 80F86230 		strb	r3, [r0, #98]
 546 001e FFF7FEFF 		bl	lv_menu_refr_main_header_mode
 547 0022 94F86230 		ldrb	r3, [r4, #98]	@ zero_extendqisi2
 548 0026 13F0010F 		tst	r3, #1
 549 002a 00D1     		bne	.L66
 550              	.L59:
 551 002c 10BD     		pop	{r4, pc}
 552              	.L66:
 553 002e 2046     		mov	r0, r4
 554 0030 FFF7FEFF 		bl	lv_menu_refr_sidebar_header_mode
 555 0034 FAE7     		b	.L59
 557              		.section	.text.lv_menu_set_load_page_event,"ax",%progbits
 558              		.align	1
 559              		.global	lv_menu_set_load_page_event
 560              		.syntax unified
 561              		.thumb
 562              		.thumb_func
 564              	lv_menu_set_load_page_event:
 565              		@ args = 0, pretend = 0, frame = 0
 566              		@ frame_needed = 0, uses_anonymous_args = 0
 567 0000 F8B5     		push	{r3, r4, r5, r6, r7, lr}
 568 0002 0746     		mov	r7, r0
 569 0004 0C46     		mov	r4, r1
 570 0006 1646     		mov	r6, r2
 571 0008 0221     		movs	r1, #2
 572 000a 2046     		mov	r0, r4
 573 000c FFF7FEFF 		bl	lv_obj_add_flag
 574 0010 1021     		movs	r1, #16
 575 0012 2046     		mov	r0, r4
 576 0014 FFF7FEFF 		bl	lv_obj_clear_flag
 577 0018 4FF48061 		mov	r1, #1024
 578 001c 2046     		mov	r0, r4
 579 001e FFF7FEFF 		bl	lv_obj_add_flag
 580 0022 1149     		ldr	r1, .L71
 581 0024 2046     		mov	r0, r4
 582 0026 FFF7FEFF 		bl	lv_obj_remove_event_cb
 583 002a 90B9     		cbnz	r0, .L70
 584              	.L68:
 585 002c 0820     		movs	r0, #8
 586 002e FFF7FEFF 		bl	lv_mem_alloc
 587 0032 0546     		mov	r5, r0
 588 0034 0760     		str	r7, [r0]
 589 0036 4660     		str	r6, [r0, #4]
 590 0038 0346     		mov	r3, r0
 591 003a 0722     		movs	r2, #7
 592 003c 0A49     		ldr	r1, .L71
 593 003e 2046     		mov	r0, r4
 594 0040 FFF7FEFF 		bl	lv_obj_add_event_cb
 595 0044 2B46     		mov	r3, r5
 596 0046 2122     		movs	r2, #33
 597 0048 0849     		ldr	r1, .L71+4
 598 004a 2046     		mov	r0, r4
 599 004c FFF7FEFF 		bl	lv_obj_add_event_cb
 600 0050 F8BD     		pop	{r3, r4, r5, r6, r7, pc}
 601              	.L70:
ARM GAS  /var/folders/lp/x54gwt890xv47sdkqj1k04q40000gn/T//ccoqCODN.s 			page 11


 602 0052 0022     		movs	r2, #0
 603 0054 2121     		movs	r1, #33
 604 0056 2046     		mov	r0, r4
 605 0058 FFF7FEFF 		bl	lv_event_send
 606 005c 0349     		ldr	r1, .L71+4
 607 005e 2046     		mov	r0, r4
 608 0060 FFF7FEFF 		bl	lv_obj_remove_event_cb
 609 0064 E2E7     		b	.L68
 610              	.L72:
 611 0066 00BF     		.align	2
 612              	.L71:
 613 0068 00000000 		.word	lv_menu_load_page_event_cb
 614 006c 00000000 		.word	lv_menu_obj_del_event_cb
 616              		.section	.text.lv_menu_get_cur_main_page,"ax",%progbits
 617              		.align	1
 618              		.global	lv_menu_get_cur_main_page
 619              		.syntax unified
 620              		.thumb
 621              		.thumb_func
 623              	lv_menu_get_cur_main_page:
 624              		@ args = 0, pretend = 0, frame = 0
 625              		@ frame_needed = 0, uses_anonymous_args = 0
 626              		@ link register save eliminated.
 627 0000 C06A     		ldr	r0, [r0, #44]
 628 0002 7047     		bx	lr
 630              		.section	.text.lv_menu_get_cur_sidebar_page,"ax",%progbits
 631              		.align	1
 632              		.global	lv_menu_get_cur_sidebar_page
 633              		.syntax unified
 634              		.thumb
 635              		.thumb_func
 637              	lv_menu_get_cur_sidebar_page:
 638              		@ args = 0, pretend = 0, frame = 0
 639              		@ frame_needed = 0, uses_anonymous_args = 0
 640              		@ link register save eliminated.
 641 0000 006C     		ldr	r0, [r0, #64]
 642 0002 7047     		bx	lr
 644              		.section	.text.lv_menu_value_changed_event_cb,"ax",%progbits
 645              		.align	1
 646              		.syntax unified
 647              		.thumb
 648              		.thumb_func
 650              	lv_menu_value_changed_event_cb:
 651              		@ args = 0, pretend = 0, frame = 0
 652              		@ frame_needed = 0, uses_anonymous_args = 0
 653 0000 10B5     		push	{r4, lr}
 654 0002 FFF7FEFF 		bl	lv_event_get_user_data
 655 0006 0446     		mov	r4, r0
 656 0008 FFF7FEFF 		bl	lv_menu_get_cur_main_page
 657 000c 50B1     		cbz	r0, .L76
 658 000e 0346     		mov	r3, r0
 659 0010 A06B     		ldr	r0, [r4, #56]
 660 0012 38B1     		cbz	r0, .L76
 661 0014 596A     		ldr	r1, [r3, #36]
 662 0016 A9B1     		cbz	r1, .L77
 663 0018 FFF7FEFF 		bl	lv_label_set_text
 664 001c 0121     		movs	r1, #1
ARM GAS  /var/folders/lp/x54gwt890xv47sdkqj1k04q40000gn/T//ccoqCODN.s 			page 12


 665 001e A06B     		ldr	r0, [r4, #56]
 666 0020 FFF7FEFF 		bl	lv_obj_clear_flag
 667              	.L76:
 668 0024 2046     		mov	r0, r4
 669 0026 FFF7FEFF 		bl	lv_menu_get_cur_sidebar_page
 670 002a 0346     		mov	r3, r0
 671 002c 48B1     		cbz	r0, .L75
 672 002e E06C     		ldr	r0, [r4, #76]
 673 0030 38B1     		cbz	r0, .L75
 674 0032 596A     		ldr	r1, [r3, #36]
 675 0034 51B1     		cbz	r1, .L79
 676 0036 FFF7FEFF 		bl	lv_label_set_text
 677 003a 0121     		movs	r1, #1
 678 003c E06C     		ldr	r0, [r4, #76]
 679 003e FFF7FEFF 		bl	lv_obj_clear_flag
 680              	.L75:
 681 0042 10BD     		pop	{r4, pc}
 682              	.L77:
 683 0044 0121     		movs	r1, #1
 684 0046 FFF7FEFF 		bl	lv_obj_add_flag
 685 004a EBE7     		b	.L76
 686              	.L79:
 687 004c 0121     		movs	r1, #1
 688 004e FFF7FEFF 		bl	lv_obj_add_flag
 689 0052 F6E7     		b	.L75
 691              		.section	.text.lv_menu_get_main_header,"ax",%progbits
 692              		.align	1
 693              		.global	lv_menu_get_main_header
 694              		.syntax unified
 695              		.thumb
 696              		.thumb_func
 698              	lv_menu_get_main_header:
 699              		@ args = 0, pretend = 0, frame = 0
 700              		@ frame_needed = 0, uses_anonymous_args = 0
 701              		@ link register save eliminated.
 702 0000 006B     		ldr	r0, [r0, #48]
 703 0002 7047     		bx	lr
 705              		.section	.text.lv_menu_get_main_header_back_btn,"ax",%progbits
 706              		.align	1
 707              		.global	lv_menu_get_main_header_back_btn
 708              		.syntax unified
 709              		.thumb
 710              		.thumb_func
 712              	lv_menu_get_main_header_back_btn:
 713              		@ args = 0, pretend = 0, frame = 0
 714              		@ frame_needed = 0, uses_anonymous_args = 0
 715              		@ link register save eliminated.
 716 0000 406B     		ldr	r0, [r0, #52]
 717 0002 7047     		bx	lr
 719              		.section	.text.lv_menu_get_sidebar_header,"ax",%progbits
 720              		.align	1
 721              		.global	lv_menu_get_sidebar_header
 722              		.syntax unified
 723              		.thumb
 724              		.thumb_func
 726              	lv_menu_get_sidebar_header:
 727              		@ args = 0, pretend = 0, frame = 0
ARM GAS  /var/folders/lp/x54gwt890xv47sdkqj1k04q40000gn/T//ccoqCODN.s 			page 13


 728              		@ frame_needed = 0, uses_anonymous_args = 0
 729              		@ link register save eliminated.
 730 0000 406C     		ldr	r0, [r0, #68]
 731 0002 7047     		bx	lr
 733              		.section	.text.lv_menu_get_sidebar_header_back_btn,"ax",%progbits
 734              		.align	1
 735              		.global	lv_menu_get_sidebar_header_back_btn
 736              		.syntax unified
 737              		.thumb
 738              		.thumb_func
 740              	lv_menu_get_sidebar_header_back_btn:
 741              		@ args = 0, pretend = 0, frame = 0
 742              		@ frame_needed = 0, uses_anonymous_args = 0
 743              		@ link register save eliminated.
 744 0000 806C     		ldr	r0, [r0, #72]
 745 0002 7047     		bx	lr
 747              		.section	.text.lv_menu_back_btn_is_root,"ax",%progbits
 748              		.align	1
 749              		.global	lv_menu_back_btn_is_root
 750              		.syntax unified
 751              		.thumb
 752              		.thumb_func
 754              	lv_menu_back_btn_is_root:
 755              		@ args = 0, pretend = 0, frame = 0
 756              		@ frame_needed = 0, uses_anonymous_args = 0
 757              		@ link register save eliminated.
 758 0000 836C     		ldr	r3, [r0, #72]
 759 0002 8B42     		cmp	r3, r1
 760 0004 0AD0     		beq	.L87
 761 0006 436B     		ldr	r3, [r0, #52]
 762 0008 8B42     		cmp	r3, r1
 763 000a 01D0     		beq	.L90
 764 000c 0020     		movs	r0, #0
 765 000e 7047     		bx	lr
 766              	.L90:
 767 0010 90F86130 		ldrb	r3, [r0, #97]	@ zero_extendqisi2
 768 0014 012B     		cmp	r3, #1
 769 0016 03D9     		bls	.L89
 770 0018 0020     		movs	r0, #0
 771 001a 7047     		bx	lr
 772              	.L87:
 773 001c 0120     		movs	r0, #1
 774 001e 7047     		bx	lr
 775              	.L89:
 776 0020 0120     		movs	r0, #1
 777 0022 7047     		bx	lr
 779              		.section	.text.lv_menu_clear_history,"ax",%progbits
 780              		.align	1
 781              		.global	lv_menu_clear_history
 782              		.syntax unified
 783              		.thumb
 784              		.thumb_func
 786              	lv_menu_clear_history:
 787              		@ args = 0, pretend = 0, frame = 0
 788              		@ frame_needed = 0, uses_anonymous_args = 0
 789 0000 10B5     		push	{r4, lr}
 790 0002 0446     		mov	r4, r0
ARM GAS  /var/folders/lp/x54gwt890xv47sdkqj1k04q40000gn/T//ccoqCODN.s 			page 14


 791 0004 5430     		adds	r0, r0, #84
 792 0006 FFF7FEFF 		bl	_lv_ll_clear
 793 000a 0023     		movs	r3, #0
 794 000c 84F86030 		strb	r3, [r4, #96]
 795 0010 10BD     		pop	{r4, pc}
 797              		.section	.text.lv_menu_set_page,"ax",%progbits
 798              		.align	1
 799              		.global	lv_menu_set_page
 800              		.syntax unified
 801              		.thumb
 802              		.thumb_func
 804              	lv_menu_set_page:
 805              		@ args = 0, pretend = 0, frame = 0
 806              		@ frame_needed = 0, uses_anonymous_args = 0
 807 0000 38B5     		push	{r3, r4, r5, lr}
 808 0002 0446     		mov	r4, r0
 809 0004 C06A     		ldr	r0, [r0, #44]
 810 0006 8842     		cmp	r0, r1
 811 0008 45D0     		beq	.L93
 812 000a 0D46     		mov	r5, r1
 813 000c 10B1     		cbz	r0, .L95
 814 000e 616A     		ldr	r1, [r4, #36]
 815 0010 FFF7FEFF 		bl	lv_obj_set_parent
 816              	.L95:
 817 0014 002D     		cmp	r5, #0
 818 0016 40D0     		beq	.L96
 819 0018 04F15400 		add	r0, r4, #84
 820 001c FFF7FEFF 		bl	_lv_ll_ins_head
 821 0020 0028     		cmp	r0, #0
 822 0022 39D0     		beq	.L98
 823 0024 0560     		str	r5, [r0]
 824 0026 94F86030 		ldrb	r3, [r4, #96]	@ zero_extendqisi2
 825 002a 0133     		adds	r3, r3, #1
 826 002c 84F86030 		strb	r3, [r4, #96]
 827 0030 A16A     		ldr	r1, [r4, #40]
 828 0032 2846     		mov	r0, r5
 829 0034 FFF7FEFF 		bl	lv_obj_set_parent
 830              	.L99:
 831 0038 E562     		str	r5, [r4, #44]
 832 003a 206D     		ldr	r0, [r4, #80]
 833 003c 20B1     		cbz	r0, .L100
 834 003e 236C     		ldr	r3, [r4, #64]
 835 0040 7BB3     		cbz	r3, .L101
 836 0042 0121     		movs	r1, #1
 837 0044 FFF7FEFF 		bl	lv_obj_add_state
 838              	.L100:
 839 0048 236C     		ldr	r3, [r4, #64]
 840 004a 002B     		cmp	r3, #0
 841 004c 3FD0     		beq	.L102
 842 004e 94F86230 		ldrb	r3, [r4, #98]	@ zero_extendqisi2
 843 0052 13F0010F 		tst	r3, #1
 844 0056 0AD0     		beq	.L103
 845 0058 13F0080F 		tst	r3, #8
 846 005c 25D0     		beq	.L104
 847 005e 0121     		movs	r1, #1
 848 0060 A06C     		ldr	r0, [r4, #72]
 849 0062 FFF7FEFF 		bl	lv_obj_clear_flag
ARM GAS  /var/folders/lp/x54gwt890xv47sdkqj1k04q40000gn/T//ccoqCODN.s 			page 15


 850 0066 0221     		movs	r1, #2
 851 0068 A06C     		ldr	r0, [r4, #72]
 852 006a FFF7FEFF 		bl	lv_obj_add_flag
 853              	.L103:
 854 006e 94F86030 		ldrb	r3, [r4, #96]	@ zero_extendqisi2
 855 0072 012B     		cmp	r3, #1
 856 0074 22D9     		bls	.L105
 857 0076 0121     		movs	r1, #1
 858 0078 606B     		ldr	r0, [r4, #52]
 859 007a FFF7FEFF 		bl	lv_obj_clear_flag
 860 007e 0221     		movs	r1, #2
 861 0080 606B     		ldr	r0, [r4, #52]
 862 0082 FFF7FEFF 		bl	lv_obj_add_flag
 863              	.L106:
 864 0086 0022     		movs	r2, #0
 865 0088 1C21     		movs	r1, #28
 866 008a 2046     		mov	r0, r4
 867 008c FFF7FEFF 		bl	lv_event_send
 868 0090 2046     		mov	r0, r4
 869 0092 FFF7FEFF 		bl	lv_menu_refr_main_header_mode
 870              	.L93:
 871 0096 38BD     		pop	{r3, r4, r5, pc}
 872              	.L98:
 873 0098 FEE7     		b	.L98
 874              	.L96:
 875 009a 2046     		mov	r0, r4
 876 009c FFF7FEFF 		bl	lv_menu_clear_history
 877 00a0 CAE7     		b	.L99
 878              	.L101:
 879 00a2 0121     		movs	r1, #1
 880 00a4 FFF7FEFF 		bl	lv_obj_clear_state
 881 00a8 CEE7     		b	.L100
 882              	.L104:
 883 00aa 0121     		movs	r1, #1
 884 00ac A06C     		ldr	r0, [r4, #72]
 885 00ae FFF7FEFF 		bl	lv_obj_add_flag
 886 00b2 0221     		movs	r1, #2
 887 00b4 A06C     		ldr	r0, [r4, #72]
 888 00b6 FFF7FEFF 		bl	lv_obj_clear_flag
 889 00ba D8E7     		b	.L103
 890              	.L105:
 891 00bc 0121     		movs	r1, #1
 892 00be 606B     		ldr	r0, [r4, #52]
 893 00c0 FFF7FEFF 		bl	lv_obj_add_flag
 894 00c4 0221     		movs	r1, #2
 895 00c6 606B     		ldr	r0, [r4, #52]
 896 00c8 FFF7FEFF 		bl	lv_obj_clear_flag
 897 00cc DBE7     		b	.L106
 898              	.L102:
 899 00ce 94F86030 		ldrb	r3, [r4, #96]	@ zero_extendqisi2
 900 00d2 012B     		cmp	r3, #1
 901 00d4 04D8     		bhi	.L107
 902 00d6 94F86230 		ldrb	r3, [r4, #98]	@ zero_extendqisi2
 903 00da 13F0080F 		tst	r3, #8
 904 00de 08D0     		beq	.L108
 905              	.L107:
 906 00e0 0121     		movs	r1, #1
ARM GAS  /var/folders/lp/x54gwt890xv47sdkqj1k04q40000gn/T//ccoqCODN.s 			page 16


 907 00e2 606B     		ldr	r0, [r4, #52]
 908 00e4 FFF7FEFF 		bl	lv_obj_clear_flag
 909 00e8 0221     		movs	r1, #2
 910 00ea 606B     		ldr	r0, [r4, #52]
 911 00ec FFF7FEFF 		bl	lv_obj_add_flag
 912 00f0 C9E7     		b	.L106
 913              	.L108:
 914 00f2 0121     		movs	r1, #1
 915 00f4 606B     		ldr	r0, [r4, #52]
 916 00f6 FFF7FEFF 		bl	lv_obj_add_flag
 917 00fa 0221     		movs	r1, #2
 918 00fc 606B     		ldr	r0, [r4, #52]
 919 00fe FFF7FEFF 		bl	lv_obj_clear_flag
 920 0102 C0E7     		b	.L106
 922              		.section	.text.lv_menu_back_event_cb,"ax",%progbits
 923              		.align	1
 924              		.syntax unified
 925              		.thumb
 926              		.thumb_func
 928              	lv_menu_back_event_cb:
 929              		@ args = 0, pretend = 0, frame = 0
 930              		@ frame_needed = 0, uses_anonymous_args = 0
 931 0000 F8B5     		push	{r3, r4, r5, r6, r7, lr}
 932 0002 0446     		mov	r4, r0
 933 0004 FFF7FEFF 		bl	lv_event_get_code
 934 0008 0728     		cmp	r0, #7
 935 000a 00D0     		beq	.L114
 936              	.L110:
 937 000c F8BD     		pop	{r3, r4, r5, r6, r7, pc}
 938              	.L114:
 939 000e 2046     		mov	r0, r4
 940 0010 FFF7FEFF 		bl	lv_event_get_target
 941 0014 0546     		mov	r5, r0
 942 0016 2046     		mov	r0, r4
 943 0018 FFF7FEFF 		bl	lv_event_get_user_data
 944 001c 0446     		mov	r4, r0
 945 001e 436B     		ldr	r3, [r0, #52]
 946 0020 AB42     		cmp	r3, r5
 947 0022 02D0     		beq	.L112
 948 0024 836C     		ldr	r3, [r0, #72]
 949 0026 AB42     		cmp	r3, r5
 950 0028 F0D1     		bne	.L110
 951              	.L112:
 952 002a 94F86030 		ldrb	r3, [r4, #96]	@ zero_extendqisi2
 953 002e 84F86130 		strb	r3, [r4, #97]
 954 0032 2946     		mov	r1, r5
 955 0034 2046     		mov	r0, r4
 956 0036 FFF7FEFF 		bl	lv_menu_back_btn_is_root
 957 003a 0028     		cmp	r0, #0
 958 003c E6D1     		bne	.L110
 959 003e 04F15406 		add	r6, r4, #84
 960 0042 3046     		mov	r0, r6
 961 0044 FFF7FEFF 		bl	_lv_ll_get_head
 962 0048 0546     		mov	r5, r0
 963 004a 0146     		mov	r1, r0
 964 004c 3046     		mov	r0, r6
 965 004e FFF7FEFF 		bl	_lv_ll_get_next
ARM GAS  /var/folders/lp/x54gwt890xv47sdkqj1k04q40000gn/T//ccoqCODN.s 			page 17


 966 0052 0746     		mov	r7, r0
 967 0054 0028     		cmp	r0, #0
 968 0056 D9D0     		beq	.L110
 969 0058 2946     		mov	r1, r5
 970 005a 3046     		mov	r0, r6
 971 005c FFF7FEFF 		bl	_lv_ll_remove
 972 0060 2846     		mov	r0, r5
 973 0062 FFF7FEFF 		bl	lv_mem_free
 974 0066 94F86030 		ldrb	r3, [r4, #96]	@ zero_extendqisi2
 975 006a 013B     		subs	r3, r3, #1
 976 006c 84F86030 		strb	r3, [r4, #96]
 977 0070 3946     		mov	r1, r7
 978 0072 3046     		mov	r0, r6
 979 0074 FFF7FEFF 		bl	_lv_ll_remove
 980 0078 94F86030 		ldrb	r3, [r4, #96]	@ zero_extendqisi2
 981 007c 013B     		subs	r3, r3, #1
 982 007e 84F86030 		strb	r3, [r4, #96]
 983 0082 3968     		ldr	r1, [r7]
 984 0084 2046     		mov	r0, r4
 985 0086 FFF7FEFF 		bl	lv_menu_set_page
 986 008a 3846     		mov	r0, r7
 987 008c FFF7FEFF 		bl	lv_mem_free
 988 0090 BCE7     		b	.L110
 990              		.section	.text.lv_menu_refr,"ax",%progbits
 991              		.align	1
 992              		.syntax unified
 993              		.thumb
 994              		.thumb_func
 996              	lv_menu_refr:
 997              		@ args = 0, pretend = 0, frame = 0
 998              		@ frame_needed = 0, uses_anonymous_args = 0
 999 0000 F8B5     		push	{r3, r4, r5, r6, r7, lr}
 1000 0002 0446     		mov	r4, r0
 1001 0004 00F15406 		add	r6, r0, #84
 1002 0008 3046     		mov	r0, r6
 1003 000a FFF7FEFF 		bl	_lv_ll_get_head
 1004 000e 0546     		mov	r5, r0
 1005 0010 68B1     		cbz	r0, .L116
 1006 0012 0768     		ldr	r7, [r0]
 1007 0014 0146     		mov	r1, r0
 1008 0016 3046     		mov	r0, r6
 1009 0018 FFF7FEFF 		bl	_lv_ll_remove
 1010 001c 2846     		mov	r0, r5
 1011 001e FFF7FEFF 		bl	lv_mem_free
 1012 0022 94F86030 		ldrb	r3, [r4, #96]	@ zero_extendqisi2
 1013 0026 013B     		subs	r3, r3, #1
 1014 0028 84F86030 		strb	r3, [r4, #96]
 1015 002c 3D46     		mov	r5, r7
 1016              	.L116:
 1017 002e 2946     		mov	r1, r5
 1018 0030 2046     		mov	r0, r4
 1019 0032 FFF7FEFF 		bl	lv_menu_set_page
 1020 0036 F8BD     		pop	{r3, r4, r5, r6, r7, pc}
 1022              		.section	.text.lv_menu_set_sidebar_page,"ax",%progbits
 1023              		.align	1
 1024              		.global	lv_menu_set_sidebar_page
 1025              		.syntax unified
ARM GAS  /var/folders/lp/x54gwt890xv47sdkqj1k04q40000gn/T//ccoqCODN.s 			page 18


 1026              		.thumb
 1027              		.thumb_func
 1029              	lv_menu_set_sidebar_page:
 1030              		@ args = 0, pretend = 0, frame = 0
 1031              		@ frame_needed = 0, uses_anonymous_args = 0
 1032 0000 70B5     		push	{r4, r5, r6, lr}
 1033 0002 0446     		mov	r4, r0
 1034 0004 0E46     		mov	r6, r1
 1035 0006 0029     		cmp	r1, #0
 1036 0008 7AD0     		beq	.L119
 1037 000a 90F86230 		ldrb	r3, [r0, #98]	@ zero_extendqisi2
 1038 000e 13F0010F 		tst	r3, #1
 1039 0012 0BD0     		beq	.L123
 1040              	.L120:
 1041 0014 E16B     		ldr	r1, [r4, #60]
 1042 0016 3046     		mov	r0, r6
 1043 0018 FFF7FEFF 		bl	lv_obj_set_parent
 1044 001c 2046     		mov	r0, r4
 1045 001e FFF7FEFF 		bl	lv_menu_refr_sidebar_header_mode
 1046              	.L121:
 1047 0022 2664     		str	r6, [r4, #64]
 1048 0024 2046     		mov	r0, r4
 1049 0026 FFF7FEFF 		bl	lv_menu_refr
 1050 002a 70BD     		pop	{r4, r5, r6, pc}
 1051              	.L123:
 1052 002c 0146     		mov	r1, r0
 1053 002e 3E48     		ldr	r0, .L124
 1054 0030 FFF7FEFF 		bl	lv_obj_class_create_obj
 1055 0034 0546     		mov	r5, r0
 1056 0036 FFF7FEFF 		bl	lv_obj_class_init_obj
 1057 003a 0121     		movs	r1, #1
 1058 003c 2846     		mov	r0, r5
 1059 003e FFF7FEFF 		bl	lv_obj_move_to_index
 1060 0042 42F26402 		movw	r2, #8292
 1061 0046 42F21E01 		movw	r1, #8222
 1062 004a 2846     		mov	r0, r5
 1063 004c FFF7FEFF 		bl	lv_obj_set_size
 1064 0050 0121     		movs	r1, #1
 1065 0052 2846     		mov	r0, r5
 1066 0054 FFF7FEFF 		bl	lv_obj_set_flex_flow
 1067 0058 4FF48041 		mov	r1, #16384
 1068 005c 2846     		mov	r0, r5
 1069 005e FFF7FEFF 		bl	lv_obj_add_flag
 1070 0062 0221     		movs	r1, #2
 1071 0064 2846     		mov	r0, r5
 1072 0066 FFF7FEFF 		bl	lv_obj_clear_flag
 1073 006a E563     		str	r5, [r4, #60]
 1074 006c 2946     		mov	r1, r5
 1075 006e 2F48     		ldr	r0, .L124+4
 1076 0070 FFF7FEFF 		bl	lv_obj_class_create_obj
 1077 0074 0546     		mov	r5, r0
 1078 0076 FFF7FEFF 		bl	lv_obj_class_init_obj
 1079 007a 42F2D172 		movw	r2, #10193
 1080 007e 42F26401 		movw	r1, #8292
 1081 0082 2846     		mov	r0, r5
 1082 0084 FFF7FEFF 		bl	lv_obj_set_size
 1083 0088 0021     		movs	r1, #0
ARM GAS  /var/folders/lp/x54gwt890xv47sdkqj1k04q40000gn/T//ccoqCODN.s 			page 19


 1084 008a 2846     		mov	r0, r5
 1085 008c FFF7FEFF 		bl	lv_obj_set_flex_flow
 1086 0090 0223     		movs	r3, #2
 1087 0092 1A46     		mov	r2, r3
 1088 0094 0021     		movs	r1, #0
 1089 0096 2846     		mov	r0, r5
 1090 0098 FFF7FEFF 		bl	lv_obj_set_flex_align
 1091 009c 0221     		movs	r1, #2
 1092 009e 2846     		mov	r0, r5
 1093 00a0 FFF7FEFF 		bl	lv_obj_clear_flag
 1094 00a4 4FF48041 		mov	r1, #16384
 1095 00a8 2846     		mov	r0, r5
 1096 00aa FFF7FEFF 		bl	lv_obj_add_flag
 1097 00ae 6564     		str	r5, [r4, #68]
 1098 00b0 2846     		mov	r0, r5
 1099 00b2 FFF7FEFF 		bl	lv_btn_create
 1100 00b6 0546     		mov	r5, r0
 1101 00b8 2346     		mov	r3, r4
 1102 00ba 0722     		movs	r2, #7
 1103 00bc 1C49     		ldr	r1, .L124+8
 1104 00be FFF7FEFF 		bl	lv_obj_add_event_cb
 1105 00c2 4FF48041 		mov	r1, #16384
 1106 00c6 2846     		mov	r0, r5
 1107 00c8 FFF7FEFF 		bl	lv_obj_add_flag
 1108 00cc 0021     		movs	r1, #0
 1109 00ce 2846     		mov	r0, r5
 1110 00d0 FFF7FEFF 		bl	lv_obj_set_flex_flow
 1111 00d4 A564     		str	r5, [r4, #72]
 1112 00d6 2846     		mov	r0, r5
 1113 00d8 FFF7FEFF 		bl	lv_img_create
 1114 00dc 1549     		ldr	r1, .L124+12
 1115 00de FFF7FEFF 		bl	lv_img_set_src
 1116 00e2 606C     		ldr	r0, [r4, #68]
 1117 00e4 FFF7FEFF 		bl	lv_label_create
 1118 00e8 0546     		mov	r5, r0
 1119 00ea 0121     		movs	r1, #1
 1120 00ec FFF7FEFF 		bl	lv_obj_add_flag
 1121 00f0 E564     		str	r5, [r4, #76]
 1122 00f2 94F86230 		ldrb	r3, [r4, #98]	@ zero_extendqisi2
 1123 00f6 43F00103 		orr	r3, r3, #1
 1124 00fa 84F86230 		strb	r3, [r4, #98]
 1125 00fe 89E7     		b	.L120
 1126              	.L119:
 1127 0100 90F86230 		ldrb	r3, [r0, #98]	@ zero_extendqisi2
 1128 0104 13F0010F 		tst	r3, #1
 1129 0108 8BD0     		beq	.L121
 1130 010a 416A     		ldr	r1, [r0, #36]
 1131 010c 006C     		ldr	r0, [r0, #64]
 1132 010e FFF7FEFF 		bl	lv_obj_set_parent
 1133 0112 E06B     		ldr	r0, [r4, #60]
 1134 0114 FFF7FEFF 		bl	lv_obj_del
 1135 0118 94F86230 		ldrb	r3, [r4, #98]	@ zero_extendqisi2
 1136 011c 23F00103 		bic	r3, r3, #1
 1137 0120 84F86230 		strb	r3, [r4, #98]
 1138 0124 7DE7     		b	.L121
 1139              	.L125:
 1140 0126 00BF     		.align	2
ARM GAS  /var/folders/lp/x54gwt890xv47sdkqj1k04q40000gn/T//ccoqCODN.s 			page 20


 1141              	.L124:
 1142 0128 00000000 		.word	lv_menu_sidebar_cont_class
 1143 012c 00000000 		.word	lv_menu_sidebar_header_cont_class
 1144 0130 00000000 		.word	lv_menu_back_event_cb
 1145 0134 00000000 		.word	.LC0
 1147              		.section	.text.lv_menu_set_mode_root_back_btn,"ax",%progbits
 1148              		.align	1
 1149              		.global	lv_menu_set_mode_root_back_btn
 1150              		.syntax unified
 1151              		.thumb
 1152              		.thumb_func
 1154              	lv_menu_set_mode_root_back_btn:
 1155              		@ args = 0, pretend = 0, frame = 0
 1156              		@ frame_needed = 0, uses_anonymous_args = 0
 1157 0000 08B5     		push	{r3, lr}
 1158 0002 90F86230 		ldrb	r3, [r0, #98]	@ zero_extendqisi2
 1159 0006 C3F3C003 		ubfx	r3, r3, #3, #1
 1160 000a 8B42     		cmp	r3, r1
 1161 000c 00D1     		bne	.L129
 1162              	.L126:
 1163 000e 08BD     		pop	{r3, pc}
 1164              	.L129:
 1165 0010 90F86230 		ldrb	r3, [r0, #98]	@ zero_extendqisi2
 1166 0014 61F3C303 		bfi	r3, r1, #3, #1
 1167 0018 80F86230 		strb	r3, [r0, #98]
 1168 001c FFF7FEFF 		bl	lv_menu_refr
 1169 0020 F5E7     		b	.L126
 1171              		.section	.text.lv_menu_load_page_event_cb,"ax",%progbits
 1172              		.align	1
 1173              		.syntax unified
 1174              		.thumb
 1175              		.thumb_func
 1177              	lv_menu_load_page_event_cb:
 1178              		@ args = 0, pretend = 0, frame = 0
 1179              		@ frame_needed = 0, uses_anonymous_args = 0
 1180 0000 70B5     		push	{r4, r5, r6, lr}
 1181 0002 0446     		mov	r4, r0
 1182 0004 FFF7FEFF 		bl	lv_event_get_target
 1183 0008 0546     		mov	r5, r0
 1184 000a 2046     		mov	r0, r4
 1185 000c FFF7FEFF 		bl	lv_event_get_user_data
 1186 0010 0468     		ldr	r4, [r0]
 1187 0012 4668     		ldr	r6, [r0, #4]
 1188 0014 236C     		ldr	r3, [r4, #64]
 1189 0016 C3B1     		cbz	r3, .L132
 1190 0018 2846     		mov	r0, r5
 1191 001a 01E0     		b	.L131
 1192              	.L142:
 1193 001c FFF7FEFF 		bl	lv_obj_get_parent
 1194              	.L131:
 1195 0020 30B1     		cbz	r0, .L141
 1196 0022 A042     		cmp	r0, r4
 1197 0024 1BD0     		beq	.L138
 1198 0026 E36B     		ldr	r3, [r4, #60]
 1199 0028 8342     		cmp	r3, r0
 1200 002a F7D1     		bne	.L142
 1201 002c 0123     		movs	r3, #1
ARM GAS  /var/folders/lp/x54gwt890xv47sdkqj1k04q40000gn/T//ccoqCODN.s 			page 21


 1202 002e 00E0     		b	.L133
 1203              	.L141:
 1204 0030 0023     		movs	r3, #0
 1205              	.L133:
 1206 0032 53B1     		cbz	r3, .L132
 1207 0034 206D     		ldr	r0, [r4, #80]
 1208 0036 A842     		cmp	r0, r5
 1209 0038 03D0     		beq	.L135
 1210 003a 10B1     		cbz	r0, .L135
 1211 003c 0121     		movs	r1, #1
 1212 003e FFF7FEFF 		bl	lv_obj_clear_state
 1213              	.L135:
 1214 0042 2046     		mov	r0, r4
 1215 0044 FFF7FEFF 		bl	lv_menu_clear_history
 1216 0048 2565     		str	r5, [r4, #80]
 1217              	.L132:
 1218 004a 3146     		mov	r1, r6
 1219 004c 2046     		mov	r0, r4
 1220 004e FFF7FEFF 		bl	lv_menu_set_page
 1221 0052 FFF7FEFF 		bl	lv_group_get_default
 1222 0056 08B1     		cbz	r0, .L130
 1223 0058 236C     		ldr	r3, [r4, #64]
 1224 005a 13B1     		cbz	r3, .L143
 1225              	.L130:
 1226 005c 70BD     		pop	{r4, r5, r6, pc}
 1227              	.L138:
 1228 005e 0023     		movs	r3, #0
 1229 0060 E7E7     		b	.L133
 1230              	.L143:
 1231 0062 FFF7FEFF 		bl	lv_group_get_default
 1232 0066 FFF7FEFF 		bl	lv_group_focus_next
 1233 006a F7E7     		b	.L130
 1235              		.global	lv_menu_sidebar_header_cont_class
 1236              		.section	.rodata.lv_menu_sidebar_header_cont_class,"a"
 1237              		.align	2
 1240              	lv_menu_sidebar_header_cont_class:
 1241 0000 00000000 		.word	lv_obj_class
 1242 0004 00000000 		.space	24
 1242      00000000 
 1242      00000000 
 1242      00000000 
 1242      00000000 
 1243              		.global	lv_menu_main_header_cont_class
 1244              		.section	.rodata.lv_menu_main_header_cont_class,"a"
 1245              		.align	2
 1248              	lv_menu_main_header_cont_class:
 1249 0000 00000000 		.word	lv_obj_class
 1250 0004 00000000 		.space	24
 1250      00000000 
 1250      00000000 
 1250      00000000 
 1250      00000000 
 1251              		.global	lv_menu_main_cont_class
 1252              		.section	.rodata.lv_menu_main_cont_class,"a"
 1253              		.align	2
 1256              	lv_menu_main_cont_class:
 1257 0000 00000000 		.word	lv_obj_class
ARM GAS  /var/folders/lp/x54gwt890xv47sdkqj1k04q40000gn/T//ccoqCODN.s 			page 22


 1258 0004 00000000 		.space	24
 1258      00000000 
 1258      00000000 
 1258      00000000 
 1258      00000000 
 1259              		.global	lv_menu_sidebar_cont_class
 1260              		.section	.rodata.lv_menu_sidebar_cont_class,"a"
 1261              		.align	2
 1264              	lv_menu_sidebar_cont_class:
 1265 0000 00000000 		.word	lv_obj_class
 1266 0004 00000000 		.space	24
 1266      00000000 
 1266      00000000 
 1266      00000000 
 1266      00000000 
 1267              		.global	lv_menu_separator_class
 1268              		.section	.rodata.lv_menu_separator_class,"a"
 1269              		.align	2
 1272              	lv_menu_separator_class:
 1273 0000 00000000 		.word	lv_obj_class
 1274 0004 00000000 		.space	16
 1274      00000000 
 1274      00000000 
 1274      00000000 
 1275 0014 D127     		.short	10193
 1276 0016 D127     		.short	10193
 1277 0018 00000000 		.space	4
 1278              		.global	lv_menu_section_class
 1279              		.section	.rodata.lv_menu_section_class,"a"
 1280              		.align	2
 1283              	lv_menu_section_class:
 1284 0000 00000000 		.word	lv_obj_class
 1285 0004 00000000 		.word	lv_menu_section_constructor
 1286 0008 00000000 		.space	12
 1286      00000000 
 1286      00000000 
 1287 0014 6420     		.short	8292
 1288 0016 D127     		.short	10193
 1289 0018 00000000 		.space	4
 1290              		.global	lv_menu_cont_class
 1291              		.section	.rodata.lv_menu_cont_class,"a"
 1292              		.align	2
 1295              	lv_menu_cont_class:
 1296 0000 00000000 		.word	lv_obj_class
 1297 0004 00000000 		.word	lv_menu_cont_constructor
 1298 0008 00000000 		.space	12
 1298      00000000 
 1298      00000000 
 1299 0014 6420     		.short	8292
 1300 0016 D127     		.short	10193
 1301 0018 00000000 		.space	4
 1302              		.global	lv_menu_page_class
 1303              		.section	.rodata.lv_menu_page_class,"a"
 1304              		.align	2
 1307              	lv_menu_page_class:
 1308 0000 00000000 		.word	lv_obj_class
 1309 0004 00000000 		.word	lv_menu_page_constructor
ARM GAS  /var/folders/lp/x54gwt890xv47sdkqj1k04q40000gn/T//ccoqCODN.s 			page 23


 1310 0008 00000000 		.word	lv_menu_page_destructor
 1311 000c 00000000 		.space	8
 1311      00000000 
 1312 0014 6420     		.short	8292
 1313 0016 D127     		.short	10193
 1314 0018 80       		.byte	128
 1315 0019 02       		.byte	2
 1316 001a 00       		.byte	0
 1317 001b 00       		.space	1
 1318              		.global	lv_menu_class
 1319              		.section	.rodata.lv_menu_class,"a"
 1320              		.align	2
 1323              	lv_menu_class:
 1324 0000 00000000 		.word	lv_obj_class
 1325 0004 00000000 		.word	lv_menu_constructor
 1326 0008 00000000 		.word	lv_menu_destructor
 1327 000c 00000000 		.space	8
 1327      00000000 
 1328 0014 C300     		.short	195
 1329 0016 0401     		.short	260
 1330 0018 40       		.byte	64
 1331 0019 06       		.byte	6
 1332 001a 00       		.byte	0
 1333 001b 00       		.space	1
 1334              		.ident	"GCC: (xPack GNU Arm Embedded GCC arm64) 13.3.1 20240614"
ARM GAS  /var/folders/lp/x54gwt890xv47sdkqj1k04q40000gn/T//ccoqCODN.s 			page 24

