ARM GAS  /var/folders/lp/x54gwt890xv47sdkqj1k04q40000gn/T//ccnUs2M7.s 			page 1


   1              		.cpu cortex-m4
   2              		.arch armv7e-m
   3              		.fpu fpv4-sp-d16
   4              		.eabi_attribute 27, 1
   5              		.eabi_attribute 28, 1
   6              		.eabi_attribute 20, 1
   7              		.eabi_attribute 21, 1
   8              		.eabi_attribute 23, 3
   9              		.eabi_attribute 24, 1
  10              		.eabi_attribute 25, 1
  11              		.eabi_attribute 26, 1
  12              		.eabi_attribute 30, 1
  13              		.eabi_attribute 34, 1
  14              		.eabi_attribute 18, 4
  15              		.file	"lv_obj_style_gen.c"
  16              		.text
  17              		.section	.text.lv_obj_set_style_width,"ax",%progbits
  18              		.align	1
  19              		.global	lv_obj_set_style_width
  20              		.syntax unified
  21              		.thumb
  22              		.thumb_func
  24              	lv_obj_set_style_width:
  25              		@ args = 0, pretend = 0, frame = 0
  26              		@ frame_needed = 0, uses_anonymous_args = 0
  27 0000 08B5     		push	{r3, lr}
  28 0002 1346     		mov	r3, r2
  29 0004 0A46     		mov	r2, r1
  30 0006 0121     		movs	r1, #1
  31 0008 FFF7FEFF 		bl	lv_obj_set_local_style_prop
  32 000c 08BD     		pop	{r3, pc}
  34              		.section	.text.lv_obj_set_style_min_width,"ax",%progbits
  35              		.align	1
  36              		.global	lv_obj_set_style_min_width
  37              		.syntax unified
  38              		.thumb
  39              		.thumb_func
  41              	lv_obj_set_style_min_width:
  42              		@ args = 0, pretend = 0, frame = 0
  43              		@ frame_needed = 0, uses_anonymous_args = 0
  44 0000 08B5     		push	{r3, lr}
  45 0002 1346     		mov	r3, r2
  46 0004 0A46     		mov	r2, r1
  47 0006 0221     		movs	r1, #2
  48 0008 FFF7FEFF 		bl	lv_obj_set_local_style_prop
  49 000c 08BD     		pop	{r3, pc}
  51              		.section	.text.lv_obj_set_style_max_width,"ax",%progbits
  52              		.align	1
  53              		.global	lv_obj_set_style_max_width
  54              		.syntax unified
  55              		.thumb
  56              		.thumb_func
  58              	lv_obj_set_style_max_width:
  59              		@ args = 0, pretend = 0, frame = 0
  60              		@ frame_needed = 0, uses_anonymous_args = 0
  61 0000 08B5     		push	{r3, lr}
  62 0002 1346     		mov	r3, r2
ARM GAS  /var/folders/lp/x54gwt890xv47sdkqj1k04q40000gn/T//ccnUs2M7.s 			page 2


  63 0004 0A46     		mov	r2, r1
  64 0006 0321     		movs	r1, #3
  65 0008 FFF7FEFF 		bl	lv_obj_set_local_style_prop
  66 000c 08BD     		pop	{r3, pc}
  68              		.section	.text.lv_obj_set_style_height,"ax",%progbits
  69              		.align	1
  70              		.global	lv_obj_set_style_height
  71              		.syntax unified
  72              		.thumb
  73              		.thumb_func
  75              	lv_obj_set_style_height:
  76              		@ args = 0, pretend = 0, frame = 0
  77              		@ frame_needed = 0, uses_anonymous_args = 0
  78 0000 08B5     		push	{r3, lr}
  79 0002 1346     		mov	r3, r2
  80 0004 0A46     		mov	r2, r1
  81 0006 0421     		movs	r1, #4
  82 0008 FFF7FEFF 		bl	lv_obj_set_local_style_prop
  83 000c 08BD     		pop	{r3, pc}
  85              		.section	.text.lv_obj_set_style_min_height,"ax",%progbits
  86              		.align	1
  87              		.global	lv_obj_set_style_min_height
  88              		.syntax unified
  89              		.thumb
  90              		.thumb_func
  92              	lv_obj_set_style_min_height:
  93              		@ args = 0, pretend = 0, frame = 0
  94              		@ frame_needed = 0, uses_anonymous_args = 0
  95 0000 08B5     		push	{r3, lr}
  96 0002 1346     		mov	r3, r2
  97 0004 0A46     		mov	r2, r1
  98 0006 0521     		movs	r1, #5
  99 0008 FFF7FEFF 		bl	lv_obj_set_local_style_prop
 100 000c 08BD     		pop	{r3, pc}
 102              		.section	.text.lv_obj_set_style_max_height,"ax",%progbits
 103              		.align	1
 104              		.global	lv_obj_set_style_max_height
 105              		.syntax unified
 106              		.thumb
 107              		.thumb_func
 109              	lv_obj_set_style_max_height:
 110              		@ args = 0, pretend = 0, frame = 0
 111              		@ frame_needed = 0, uses_anonymous_args = 0
 112 0000 08B5     		push	{r3, lr}
 113 0002 1346     		mov	r3, r2
 114 0004 0A46     		mov	r2, r1
 115 0006 0621     		movs	r1, #6
 116 0008 FFF7FEFF 		bl	lv_obj_set_local_style_prop
 117 000c 08BD     		pop	{r3, pc}
 119              		.section	.text.lv_obj_set_style_x,"ax",%progbits
 120              		.align	1
 121              		.global	lv_obj_set_style_x
 122              		.syntax unified
 123              		.thumb
 124              		.thumb_func
 126              	lv_obj_set_style_x:
 127              		@ args = 0, pretend = 0, frame = 0
ARM GAS  /var/folders/lp/x54gwt890xv47sdkqj1k04q40000gn/T//ccnUs2M7.s 			page 3


 128              		@ frame_needed = 0, uses_anonymous_args = 0
 129 0000 08B5     		push	{r3, lr}
 130 0002 1346     		mov	r3, r2
 131 0004 0A46     		mov	r2, r1
 132 0006 0721     		movs	r1, #7
 133 0008 FFF7FEFF 		bl	lv_obj_set_local_style_prop
 134 000c 08BD     		pop	{r3, pc}
 136              		.section	.text.lv_obj_set_style_y,"ax",%progbits
 137              		.align	1
 138              		.global	lv_obj_set_style_y
 139              		.syntax unified
 140              		.thumb
 141              		.thumb_func
 143              	lv_obj_set_style_y:
 144              		@ args = 0, pretend = 0, frame = 0
 145              		@ frame_needed = 0, uses_anonymous_args = 0
 146 0000 08B5     		push	{r3, lr}
 147 0002 1346     		mov	r3, r2
 148 0004 0A46     		mov	r2, r1
 149 0006 0821     		movs	r1, #8
 150 0008 FFF7FEFF 		bl	lv_obj_set_local_style_prop
 151 000c 08BD     		pop	{r3, pc}
 153              		.section	.text.lv_obj_set_style_align,"ax",%progbits
 154              		.align	1
 155              		.global	lv_obj_set_style_align
 156              		.syntax unified
 157              		.thumb
 158              		.thumb_func
 160              	lv_obj_set_style_align:
 161              		@ args = 0, pretend = 0, frame = 0
 162              		@ frame_needed = 0, uses_anonymous_args = 0
 163 0000 08B5     		push	{r3, lr}
 164 0002 1346     		mov	r3, r2
 165 0004 0A46     		mov	r2, r1
 166 0006 0921     		movs	r1, #9
 167 0008 FFF7FEFF 		bl	lv_obj_set_local_style_prop
 168 000c 08BD     		pop	{r3, pc}
 170              		.section	.text.lv_obj_set_style_transform_width,"ax",%progbits
 171              		.align	1
 172              		.global	lv_obj_set_style_transform_width
 173              		.syntax unified
 174              		.thumb
 175              		.thumb_func
 177              	lv_obj_set_style_transform_width:
 178              		@ args = 0, pretend = 0, frame = 0
 179              		@ frame_needed = 0, uses_anonymous_args = 0
 180 0000 08B5     		push	{r3, lr}
 181 0002 1346     		mov	r3, r2
 182 0004 0A46     		mov	r2, r1
 183 0006 6921     		movs	r1, #105
 184 0008 FFF7FEFF 		bl	lv_obj_set_local_style_prop
 185 000c 08BD     		pop	{r3, pc}
 187              		.section	.text.lv_obj_set_style_transform_height,"ax",%progbits
 188              		.align	1
 189              		.global	lv_obj_set_style_transform_height
 190              		.syntax unified
 191              		.thumb
ARM GAS  /var/folders/lp/x54gwt890xv47sdkqj1k04q40000gn/T//ccnUs2M7.s 			page 4


 192              		.thumb_func
 194              	lv_obj_set_style_transform_height:
 195              		@ args = 0, pretend = 0, frame = 0
 196              		@ frame_needed = 0, uses_anonymous_args = 0
 197 0000 08B5     		push	{r3, lr}
 198 0002 1346     		mov	r3, r2
 199 0004 0A46     		mov	r2, r1
 200 0006 6A21     		movs	r1, #106
 201 0008 FFF7FEFF 		bl	lv_obj_set_local_style_prop
 202 000c 08BD     		pop	{r3, pc}
 204              		.section	.text.lv_obj_set_style_translate_x,"ax",%progbits
 205              		.align	1
 206              		.global	lv_obj_set_style_translate_x
 207              		.syntax unified
 208              		.thumb
 209              		.thumb_func
 211              	lv_obj_set_style_translate_x:
 212              		@ args = 0, pretend = 0, frame = 0
 213              		@ frame_needed = 0, uses_anonymous_args = 0
 214 0000 08B5     		push	{r3, lr}
 215 0002 1346     		mov	r3, r2
 216 0004 0A46     		mov	r2, r1
 217 0006 6B21     		movs	r1, #107
 218 0008 FFF7FEFF 		bl	lv_obj_set_local_style_prop
 219 000c 08BD     		pop	{r3, pc}
 221              		.section	.text.lv_obj_set_style_translate_y,"ax",%progbits
 222              		.align	1
 223              		.global	lv_obj_set_style_translate_y
 224              		.syntax unified
 225              		.thumb
 226              		.thumb_func
 228              	lv_obj_set_style_translate_y:
 229              		@ args = 0, pretend = 0, frame = 0
 230              		@ frame_needed = 0, uses_anonymous_args = 0
 231 0000 08B5     		push	{r3, lr}
 232 0002 1346     		mov	r3, r2
 233 0004 0A46     		mov	r2, r1
 234 0006 6C21     		movs	r1, #108
 235 0008 FFF7FEFF 		bl	lv_obj_set_local_style_prop
 236 000c 08BD     		pop	{r3, pc}
 238              		.section	.text.lv_obj_set_style_transform_zoom,"ax",%progbits
 239              		.align	1
 240              		.global	lv_obj_set_style_transform_zoom
 241              		.syntax unified
 242              		.thumb
 243              		.thumb_func
 245              	lv_obj_set_style_transform_zoom:
 246              		@ args = 0, pretend = 0, frame = 0
 247              		@ frame_needed = 0, uses_anonymous_args = 0
 248 0000 08B5     		push	{r3, lr}
 249 0002 1346     		mov	r3, r2
 250 0004 0A46     		mov	r2, r1
 251 0006 6D21     		movs	r1, #109
 252 0008 FFF7FEFF 		bl	lv_obj_set_local_style_prop
 253 000c 08BD     		pop	{r3, pc}
 255              		.section	.text.lv_obj_set_style_transform_angle,"ax",%progbits
 256              		.align	1
ARM GAS  /var/folders/lp/x54gwt890xv47sdkqj1k04q40000gn/T//ccnUs2M7.s 			page 5


 257              		.global	lv_obj_set_style_transform_angle
 258              		.syntax unified
 259              		.thumb
 260              		.thumb_func
 262              	lv_obj_set_style_transform_angle:
 263              		@ args = 0, pretend = 0, frame = 0
 264              		@ frame_needed = 0, uses_anonymous_args = 0
 265 0000 08B5     		push	{r3, lr}
 266 0002 1346     		mov	r3, r2
 267 0004 0A46     		mov	r2, r1
 268 0006 6E21     		movs	r1, #110
 269 0008 FFF7FEFF 		bl	lv_obj_set_local_style_prop
 270 000c 08BD     		pop	{r3, pc}
 272              		.section	.text.lv_obj_set_style_transform_pivot_x,"ax",%progbits
 273              		.align	1
 274              		.global	lv_obj_set_style_transform_pivot_x
 275              		.syntax unified
 276              		.thumb
 277              		.thumb_func
 279              	lv_obj_set_style_transform_pivot_x:
 280              		@ args = 0, pretend = 0, frame = 0
 281              		@ frame_needed = 0, uses_anonymous_args = 0
 282 0000 08B5     		push	{r3, lr}
 283 0002 1346     		mov	r3, r2
 284 0004 0A46     		mov	r2, r1
 285 0006 6F21     		movs	r1, #111
 286 0008 FFF7FEFF 		bl	lv_obj_set_local_style_prop
 287 000c 08BD     		pop	{r3, pc}
 289              		.section	.text.lv_obj_set_style_transform_pivot_y,"ax",%progbits
 290              		.align	1
 291              		.global	lv_obj_set_style_transform_pivot_y
 292              		.syntax unified
 293              		.thumb
 294              		.thumb_func
 296              	lv_obj_set_style_transform_pivot_y:
 297              		@ args = 0, pretend = 0, frame = 0
 298              		@ frame_needed = 0, uses_anonymous_args = 0
 299 0000 08B5     		push	{r3, lr}
 300 0002 1346     		mov	r3, r2
 301 0004 0A46     		mov	r2, r1
 302 0006 7021     		movs	r1, #112
 303 0008 FFF7FEFF 		bl	lv_obj_set_local_style_prop
 304 000c 08BD     		pop	{r3, pc}
 306              		.section	.text.lv_obj_set_style_pad_top,"ax",%progbits
 307              		.align	1
 308              		.global	lv_obj_set_style_pad_top
 309              		.syntax unified
 310              		.thumb
 311              		.thumb_func
 313              	lv_obj_set_style_pad_top:
 314              		@ args = 0, pretend = 0, frame = 0
 315              		@ frame_needed = 0, uses_anonymous_args = 0
 316 0000 08B5     		push	{r3, lr}
 317 0002 1346     		mov	r3, r2
 318 0004 0A46     		mov	r2, r1
 319 0006 1021     		movs	r1, #16
 320 0008 FFF7FEFF 		bl	lv_obj_set_local_style_prop
ARM GAS  /var/folders/lp/x54gwt890xv47sdkqj1k04q40000gn/T//ccnUs2M7.s 			page 6


 321 000c 08BD     		pop	{r3, pc}
 323              		.section	.text.lv_obj_set_style_pad_bottom,"ax",%progbits
 324              		.align	1
 325              		.global	lv_obj_set_style_pad_bottom
 326              		.syntax unified
 327              		.thumb
 328              		.thumb_func
 330              	lv_obj_set_style_pad_bottom:
 331              		@ args = 0, pretend = 0, frame = 0
 332              		@ frame_needed = 0, uses_anonymous_args = 0
 333 0000 08B5     		push	{r3, lr}
 334 0002 1346     		mov	r3, r2
 335 0004 0A46     		mov	r2, r1
 336 0006 1121     		movs	r1, #17
 337 0008 FFF7FEFF 		bl	lv_obj_set_local_style_prop
 338 000c 08BD     		pop	{r3, pc}
 340              		.section	.text.lv_obj_set_style_pad_left,"ax",%progbits
 341              		.align	1
 342              		.global	lv_obj_set_style_pad_left
 343              		.syntax unified
 344              		.thumb
 345              		.thumb_func
 347              	lv_obj_set_style_pad_left:
 348              		@ args = 0, pretend = 0, frame = 0
 349              		@ frame_needed = 0, uses_anonymous_args = 0
 350 0000 08B5     		push	{r3, lr}
 351 0002 1346     		mov	r3, r2
 352 0004 0A46     		mov	r2, r1
 353 0006 1221     		movs	r1, #18
 354 0008 FFF7FEFF 		bl	lv_obj_set_local_style_prop
 355 000c 08BD     		pop	{r3, pc}
 357              		.section	.text.lv_obj_set_style_pad_right,"ax",%progbits
 358              		.align	1
 359              		.global	lv_obj_set_style_pad_right
 360              		.syntax unified
 361              		.thumb
 362              		.thumb_func
 364              	lv_obj_set_style_pad_right:
 365              		@ args = 0, pretend = 0, frame = 0
 366              		@ frame_needed = 0, uses_anonymous_args = 0
 367 0000 08B5     		push	{r3, lr}
 368 0002 1346     		mov	r3, r2
 369 0004 0A46     		mov	r2, r1
 370 0006 1321     		movs	r1, #19
 371 0008 FFF7FEFF 		bl	lv_obj_set_local_style_prop
 372 000c 08BD     		pop	{r3, pc}
 374              		.section	.text.lv_obj_set_style_pad_row,"ax",%progbits
 375              		.align	1
 376              		.global	lv_obj_set_style_pad_row
 377              		.syntax unified
 378              		.thumb
 379              		.thumb_func
 381              	lv_obj_set_style_pad_row:
 382              		@ args = 0, pretend = 0, frame = 0
 383              		@ frame_needed = 0, uses_anonymous_args = 0
 384 0000 08B5     		push	{r3, lr}
 385 0002 1346     		mov	r3, r2
ARM GAS  /var/folders/lp/x54gwt890xv47sdkqj1k04q40000gn/T//ccnUs2M7.s 			page 7


 386 0004 0A46     		mov	r2, r1
 387 0006 1421     		movs	r1, #20
 388 0008 FFF7FEFF 		bl	lv_obj_set_local_style_prop
 389 000c 08BD     		pop	{r3, pc}
 391              		.section	.text.lv_obj_set_style_pad_column,"ax",%progbits
 392              		.align	1
 393              		.global	lv_obj_set_style_pad_column
 394              		.syntax unified
 395              		.thumb
 396              		.thumb_func
 398              	lv_obj_set_style_pad_column:
 399              		@ args = 0, pretend = 0, frame = 0
 400              		@ frame_needed = 0, uses_anonymous_args = 0
 401 0000 08B5     		push	{r3, lr}
 402 0002 1346     		mov	r3, r2
 403 0004 0A46     		mov	r2, r1
 404 0006 1521     		movs	r1, #21
 405 0008 FFF7FEFF 		bl	lv_obj_set_local_style_prop
 406 000c 08BD     		pop	{r3, pc}
 408              		.section	.text.lv_obj_set_style_bg_color,"ax",%progbits
 409              		.align	1
 410              		.global	lv_obj_set_style_bg_color
 411              		.syntax unified
 412              		.thumb
 413              		.thumb_func
 415              	lv_obj_set_style_bg_color:
 416              		@ args = 0, pretend = 0, frame = 0
 417              		@ frame_needed = 0, uses_anonymous_args = 0
 418 0000 08B5     		push	{r3, lr}
 419 0002 1346     		mov	r3, r2
 420 0004 8AB2     		uxth	r2, r1
 421 0006 2021     		movs	r1, #32
 422 0008 FFF7FEFF 		bl	lv_obj_set_local_style_prop
 423 000c 08BD     		pop	{r3, pc}
 425              		.section	.text.lv_obj_set_style_bg_opa,"ax",%progbits
 426              		.align	1
 427              		.global	lv_obj_set_style_bg_opa
 428              		.syntax unified
 429              		.thumb
 430              		.thumb_func
 432              	lv_obj_set_style_bg_opa:
 433              		@ args = 0, pretend = 0, frame = 0
 434              		@ frame_needed = 0, uses_anonymous_args = 0
 435 0000 08B5     		push	{r3, lr}
 436 0002 1346     		mov	r3, r2
 437 0004 0A46     		mov	r2, r1
 438 0006 2121     		movs	r1, #33
 439 0008 FFF7FEFF 		bl	lv_obj_set_local_style_prop
 440 000c 08BD     		pop	{r3, pc}
 442              		.section	.text.lv_obj_set_style_bg_grad_color,"ax",%progbits
 443              		.align	1
 444              		.global	lv_obj_set_style_bg_grad_color
 445              		.syntax unified
 446              		.thumb
 447              		.thumb_func
 449              	lv_obj_set_style_bg_grad_color:
 450              		@ args = 0, pretend = 0, frame = 0
ARM GAS  /var/folders/lp/x54gwt890xv47sdkqj1k04q40000gn/T//ccnUs2M7.s 			page 8


 451              		@ frame_needed = 0, uses_anonymous_args = 0
 452 0000 08B5     		push	{r3, lr}
 453 0002 1346     		mov	r3, r2
 454 0004 8AB2     		uxth	r2, r1
 455 0006 2221     		movs	r1, #34
 456 0008 FFF7FEFF 		bl	lv_obj_set_local_style_prop
 457 000c 08BD     		pop	{r3, pc}
 459              		.section	.text.lv_obj_set_style_bg_grad_dir,"ax",%progbits
 460              		.align	1
 461              		.global	lv_obj_set_style_bg_grad_dir
 462              		.syntax unified
 463              		.thumb
 464              		.thumb_func
 466              	lv_obj_set_style_bg_grad_dir:
 467              		@ args = 0, pretend = 0, frame = 0
 468              		@ frame_needed = 0, uses_anonymous_args = 0
 469 0000 08B5     		push	{r3, lr}
 470 0002 1346     		mov	r3, r2
 471 0004 0A46     		mov	r2, r1
 472 0006 2321     		movs	r1, #35
 473 0008 FFF7FEFF 		bl	lv_obj_set_local_style_prop
 474 000c 08BD     		pop	{r3, pc}
 476              		.section	.text.lv_obj_set_style_bg_main_stop,"ax",%progbits
 477              		.align	1
 478              		.global	lv_obj_set_style_bg_main_stop
 479              		.syntax unified
 480              		.thumb
 481              		.thumb_func
 483              	lv_obj_set_style_bg_main_stop:
 484              		@ args = 0, pretend = 0, frame = 0
 485              		@ frame_needed = 0, uses_anonymous_args = 0
 486 0000 08B5     		push	{r3, lr}
 487 0002 1346     		mov	r3, r2
 488 0004 0A46     		mov	r2, r1
 489 0006 2421     		movs	r1, #36
 490 0008 FFF7FEFF 		bl	lv_obj_set_local_style_prop
 491 000c 08BD     		pop	{r3, pc}
 493              		.section	.text.lv_obj_set_style_bg_grad_stop,"ax",%progbits
 494              		.align	1
 495              		.global	lv_obj_set_style_bg_grad_stop
 496              		.syntax unified
 497              		.thumb
 498              		.thumb_func
 500              	lv_obj_set_style_bg_grad_stop:
 501              		@ args = 0, pretend = 0, frame = 0
 502              		@ frame_needed = 0, uses_anonymous_args = 0
 503 0000 08B5     		push	{r3, lr}
 504 0002 1346     		mov	r3, r2
 505 0004 0A46     		mov	r2, r1
 506 0006 2521     		movs	r1, #37
 507 0008 FFF7FEFF 		bl	lv_obj_set_local_style_prop
 508 000c 08BD     		pop	{r3, pc}
 510              		.section	.text.lv_obj_set_style_bg_grad,"ax",%progbits
 511              		.align	1
 512              		.global	lv_obj_set_style_bg_grad
 513              		.syntax unified
 514              		.thumb
ARM GAS  /var/folders/lp/x54gwt890xv47sdkqj1k04q40000gn/T//ccnUs2M7.s 			page 9


 515              		.thumb_func
 517              	lv_obj_set_style_bg_grad:
 518              		@ args = 0, pretend = 0, frame = 0
 519              		@ frame_needed = 0, uses_anonymous_args = 0
 520 0000 08B5     		push	{r3, lr}
 521 0002 1346     		mov	r3, r2
 522 0004 0A46     		mov	r2, r1
 523 0006 2621     		movs	r1, #38
 524 0008 FFF7FEFF 		bl	lv_obj_set_local_style_prop
 525 000c 08BD     		pop	{r3, pc}
 527              		.section	.text.lv_obj_set_style_bg_dither_mode,"ax",%progbits
 528              		.align	1
 529              		.global	lv_obj_set_style_bg_dither_mode
 530              		.syntax unified
 531              		.thumb
 532              		.thumb_func
 534              	lv_obj_set_style_bg_dither_mode:
 535              		@ args = 0, pretend = 0, frame = 0
 536              		@ frame_needed = 0, uses_anonymous_args = 0
 537 0000 08B5     		push	{r3, lr}
 538 0002 1346     		mov	r3, r2
 539 0004 0A46     		mov	r2, r1
 540 0006 2721     		movs	r1, #39
 541 0008 FFF7FEFF 		bl	lv_obj_set_local_style_prop
 542 000c 08BD     		pop	{r3, pc}
 544              		.section	.text.lv_obj_set_style_bg_img_src,"ax",%progbits
 545              		.align	1
 546              		.global	lv_obj_set_style_bg_img_src
 547              		.syntax unified
 548              		.thumb
 549              		.thumb_func
 551              	lv_obj_set_style_bg_img_src:
 552              		@ args = 0, pretend = 0, frame = 0
 553              		@ frame_needed = 0, uses_anonymous_args = 0
 554 0000 08B5     		push	{r3, lr}
 555 0002 1346     		mov	r3, r2
 556 0004 0A46     		mov	r2, r1
 557 0006 2821     		movs	r1, #40
 558 0008 FFF7FEFF 		bl	lv_obj_set_local_style_prop
 559 000c 08BD     		pop	{r3, pc}
 561              		.section	.text.lv_obj_set_style_bg_img_opa,"ax",%progbits
 562              		.align	1
 563              		.global	lv_obj_set_style_bg_img_opa
 564              		.syntax unified
 565              		.thumb
 566              		.thumb_func
 568              	lv_obj_set_style_bg_img_opa:
 569              		@ args = 0, pretend = 0, frame = 0
 570              		@ frame_needed = 0, uses_anonymous_args = 0
 571 0000 08B5     		push	{r3, lr}
 572 0002 1346     		mov	r3, r2
 573 0004 0A46     		mov	r2, r1
 574 0006 2921     		movs	r1, #41
 575 0008 FFF7FEFF 		bl	lv_obj_set_local_style_prop
 576 000c 08BD     		pop	{r3, pc}
 578              		.section	.text.lv_obj_set_style_bg_img_recolor,"ax",%progbits
 579              		.align	1
ARM GAS  /var/folders/lp/x54gwt890xv47sdkqj1k04q40000gn/T//ccnUs2M7.s 			page 10


 580              		.global	lv_obj_set_style_bg_img_recolor
 581              		.syntax unified
 582              		.thumb
 583              		.thumb_func
 585              	lv_obj_set_style_bg_img_recolor:
 586              		@ args = 0, pretend = 0, frame = 0
 587              		@ frame_needed = 0, uses_anonymous_args = 0
 588 0000 08B5     		push	{r3, lr}
 589 0002 1346     		mov	r3, r2
 590 0004 8AB2     		uxth	r2, r1
 591 0006 2A21     		movs	r1, #42
 592 0008 FFF7FEFF 		bl	lv_obj_set_local_style_prop
 593 000c 08BD     		pop	{r3, pc}
 595              		.section	.text.lv_obj_set_style_bg_img_recolor_opa,"ax",%progbits
 596              		.align	1
 597              		.global	lv_obj_set_style_bg_img_recolor_opa
 598              		.syntax unified
 599              		.thumb
 600              		.thumb_func
 602              	lv_obj_set_style_bg_img_recolor_opa:
 603              		@ args = 0, pretend = 0, frame = 0
 604              		@ frame_needed = 0, uses_anonymous_args = 0
 605 0000 08B5     		push	{r3, lr}
 606 0002 1346     		mov	r3, r2
 607 0004 0A46     		mov	r2, r1
 608 0006 2B21     		movs	r1, #43
 609 0008 FFF7FEFF 		bl	lv_obj_set_local_style_prop
 610 000c 08BD     		pop	{r3, pc}
 612              		.section	.text.lv_obj_set_style_bg_img_tiled,"ax",%progbits
 613              		.align	1
 614              		.global	lv_obj_set_style_bg_img_tiled
 615              		.syntax unified
 616              		.thumb
 617              		.thumb_func
 619              	lv_obj_set_style_bg_img_tiled:
 620              		@ args = 0, pretend = 0, frame = 0
 621              		@ frame_needed = 0, uses_anonymous_args = 0
 622 0000 08B5     		push	{r3, lr}
 623 0002 1346     		mov	r3, r2
 624 0004 0A46     		mov	r2, r1
 625 0006 2C21     		movs	r1, #44
 626 0008 FFF7FEFF 		bl	lv_obj_set_local_style_prop
 627 000c 08BD     		pop	{r3, pc}
 629              		.section	.text.lv_obj_set_style_border_color,"ax",%progbits
 630              		.align	1
 631              		.global	lv_obj_set_style_border_color
 632              		.syntax unified
 633              		.thumb
 634              		.thumb_func
 636              	lv_obj_set_style_border_color:
 637              		@ args = 0, pretend = 0, frame = 0
 638              		@ frame_needed = 0, uses_anonymous_args = 0
 639 0000 08B5     		push	{r3, lr}
 640 0002 1346     		mov	r3, r2
 641 0004 8AB2     		uxth	r2, r1
 642 0006 3021     		movs	r1, #48
 643 0008 FFF7FEFF 		bl	lv_obj_set_local_style_prop
ARM GAS  /var/folders/lp/x54gwt890xv47sdkqj1k04q40000gn/T//ccnUs2M7.s 			page 11


 644 000c 08BD     		pop	{r3, pc}
 646              		.section	.text.lv_obj_set_style_border_opa,"ax",%progbits
 647              		.align	1
 648              		.global	lv_obj_set_style_border_opa
 649              		.syntax unified
 650              		.thumb
 651              		.thumb_func
 653              	lv_obj_set_style_border_opa:
 654              		@ args = 0, pretend = 0, frame = 0
 655              		@ frame_needed = 0, uses_anonymous_args = 0
 656 0000 08B5     		push	{r3, lr}
 657 0002 1346     		mov	r3, r2
 658 0004 0A46     		mov	r2, r1
 659 0006 3121     		movs	r1, #49
 660 0008 FFF7FEFF 		bl	lv_obj_set_local_style_prop
 661 000c 08BD     		pop	{r3, pc}
 663              		.section	.text.lv_obj_set_style_border_width,"ax",%progbits
 664              		.align	1
 665              		.global	lv_obj_set_style_border_width
 666              		.syntax unified
 667              		.thumb
 668              		.thumb_func
 670              	lv_obj_set_style_border_width:
 671              		@ args = 0, pretend = 0, frame = 0
 672              		@ frame_needed = 0, uses_anonymous_args = 0
 673 0000 08B5     		push	{r3, lr}
 674 0002 1346     		mov	r3, r2
 675 0004 0A46     		mov	r2, r1
 676 0006 3221     		movs	r1, #50
 677 0008 FFF7FEFF 		bl	lv_obj_set_local_style_prop
 678 000c 08BD     		pop	{r3, pc}
 680              		.section	.text.lv_obj_set_style_border_side,"ax",%progbits
 681              		.align	1
 682              		.global	lv_obj_set_style_border_side
 683              		.syntax unified
 684              		.thumb
 685              		.thumb_func
 687              	lv_obj_set_style_border_side:
 688              		@ args = 0, pretend = 0, frame = 0
 689              		@ frame_needed = 0, uses_anonymous_args = 0
 690 0000 08B5     		push	{r3, lr}
 691 0002 1346     		mov	r3, r2
 692 0004 0A46     		mov	r2, r1
 693 0006 3321     		movs	r1, #51
 694 0008 FFF7FEFF 		bl	lv_obj_set_local_style_prop
 695 000c 08BD     		pop	{r3, pc}
 697              		.section	.text.lv_obj_set_style_border_post,"ax",%progbits
 698              		.align	1
 699              		.global	lv_obj_set_style_border_post
 700              		.syntax unified
 701              		.thumb
 702              		.thumb_func
 704              	lv_obj_set_style_border_post:
 705              		@ args = 0, pretend = 0, frame = 0
 706              		@ frame_needed = 0, uses_anonymous_args = 0
 707 0000 08B5     		push	{r3, lr}
 708 0002 1346     		mov	r3, r2
ARM GAS  /var/folders/lp/x54gwt890xv47sdkqj1k04q40000gn/T//ccnUs2M7.s 			page 12


 709 0004 0A46     		mov	r2, r1
 710 0006 3421     		movs	r1, #52
 711 0008 FFF7FEFF 		bl	lv_obj_set_local_style_prop
 712 000c 08BD     		pop	{r3, pc}
 714              		.section	.text.lv_obj_set_style_outline_width,"ax",%progbits
 715              		.align	1
 716              		.global	lv_obj_set_style_outline_width
 717              		.syntax unified
 718              		.thumb
 719              		.thumb_func
 721              	lv_obj_set_style_outline_width:
 722              		@ args = 0, pretend = 0, frame = 0
 723              		@ frame_needed = 0, uses_anonymous_args = 0
 724 0000 08B5     		push	{r3, lr}
 725 0002 1346     		mov	r3, r2
 726 0004 0A46     		mov	r2, r1
 727 0006 3521     		movs	r1, #53
 728 0008 FFF7FEFF 		bl	lv_obj_set_local_style_prop
 729 000c 08BD     		pop	{r3, pc}
 731              		.section	.text.lv_obj_set_style_outline_color,"ax",%progbits
 732              		.align	1
 733              		.global	lv_obj_set_style_outline_color
 734              		.syntax unified
 735              		.thumb
 736              		.thumb_func
 738              	lv_obj_set_style_outline_color:
 739              		@ args = 0, pretend = 0, frame = 0
 740              		@ frame_needed = 0, uses_anonymous_args = 0
 741 0000 08B5     		push	{r3, lr}
 742 0002 1346     		mov	r3, r2
 743 0004 8AB2     		uxth	r2, r1
 744 0006 3621     		movs	r1, #54
 745 0008 FFF7FEFF 		bl	lv_obj_set_local_style_prop
 746 000c 08BD     		pop	{r3, pc}
 748              		.section	.text.lv_obj_set_style_outline_opa,"ax",%progbits
 749              		.align	1
 750              		.global	lv_obj_set_style_outline_opa
 751              		.syntax unified
 752              		.thumb
 753              		.thumb_func
 755              	lv_obj_set_style_outline_opa:
 756              		@ args = 0, pretend = 0, frame = 0
 757              		@ frame_needed = 0, uses_anonymous_args = 0
 758 0000 08B5     		push	{r3, lr}
 759 0002 1346     		mov	r3, r2
 760 0004 0A46     		mov	r2, r1
 761 0006 3721     		movs	r1, #55
 762 0008 FFF7FEFF 		bl	lv_obj_set_local_style_prop
 763 000c 08BD     		pop	{r3, pc}
 765              		.section	.text.lv_obj_set_style_outline_pad,"ax",%progbits
 766              		.align	1
 767              		.global	lv_obj_set_style_outline_pad
 768              		.syntax unified
 769              		.thumb
 770              		.thumb_func
 772              	lv_obj_set_style_outline_pad:
 773              		@ args = 0, pretend = 0, frame = 0
ARM GAS  /var/folders/lp/x54gwt890xv47sdkqj1k04q40000gn/T//ccnUs2M7.s 			page 13


 774              		@ frame_needed = 0, uses_anonymous_args = 0
 775 0000 08B5     		push	{r3, lr}
 776 0002 1346     		mov	r3, r2
 777 0004 0A46     		mov	r2, r1
 778 0006 3821     		movs	r1, #56
 779 0008 FFF7FEFF 		bl	lv_obj_set_local_style_prop
 780 000c 08BD     		pop	{r3, pc}
 782              		.section	.text.lv_obj_set_style_shadow_width,"ax",%progbits
 783              		.align	1
 784              		.global	lv_obj_set_style_shadow_width
 785              		.syntax unified
 786              		.thumb
 787              		.thumb_func
 789              	lv_obj_set_style_shadow_width:
 790              		@ args = 0, pretend = 0, frame = 0
 791              		@ frame_needed = 0, uses_anonymous_args = 0
 792 0000 08B5     		push	{r3, lr}
 793 0002 1346     		mov	r3, r2
 794 0004 0A46     		mov	r2, r1
 795 0006 4021     		movs	r1, #64
 796 0008 FFF7FEFF 		bl	lv_obj_set_local_style_prop
 797 000c 08BD     		pop	{r3, pc}
 799              		.section	.text.lv_obj_set_style_shadow_ofs_x,"ax",%progbits
 800              		.align	1
 801              		.global	lv_obj_set_style_shadow_ofs_x
 802              		.syntax unified
 803              		.thumb
 804              		.thumb_func
 806              	lv_obj_set_style_shadow_ofs_x:
 807              		@ args = 0, pretend = 0, frame = 0
 808              		@ frame_needed = 0, uses_anonymous_args = 0
 809 0000 08B5     		push	{r3, lr}
 810 0002 1346     		mov	r3, r2
 811 0004 0A46     		mov	r2, r1
 812 0006 4121     		movs	r1, #65
 813 0008 FFF7FEFF 		bl	lv_obj_set_local_style_prop
 814 000c 08BD     		pop	{r3, pc}
 816              		.section	.text.lv_obj_set_style_shadow_ofs_y,"ax",%progbits
 817              		.align	1
 818              		.global	lv_obj_set_style_shadow_ofs_y
 819              		.syntax unified
 820              		.thumb
 821              		.thumb_func
 823              	lv_obj_set_style_shadow_ofs_y:
 824              		@ args = 0, pretend = 0, frame = 0
 825              		@ frame_needed = 0, uses_anonymous_args = 0
 826 0000 08B5     		push	{r3, lr}
 827 0002 1346     		mov	r3, r2
 828 0004 0A46     		mov	r2, r1
 829 0006 4221     		movs	r1, #66
 830 0008 FFF7FEFF 		bl	lv_obj_set_local_style_prop
 831 000c 08BD     		pop	{r3, pc}
 833              		.section	.text.lv_obj_set_style_shadow_spread,"ax",%progbits
 834              		.align	1
 835              		.global	lv_obj_set_style_shadow_spread
 836              		.syntax unified
 837              		.thumb
ARM GAS  /var/folders/lp/x54gwt890xv47sdkqj1k04q40000gn/T//ccnUs2M7.s 			page 14


 838              		.thumb_func
 840              	lv_obj_set_style_shadow_spread:
 841              		@ args = 0, pretend = 0, frame = 0
 842              		@ frame_needed = 0, uses_anonymous_args = 0
 843 0000 08B5     		push	{r3, lr}
 844 0002 1346     		mov	r3, r2
 845 0004 0A46     		mov	r2, r1
 846 0006 4321     		movs	r1, #67
 847 0008 FFF7FEFF 		bl	lv_obj_set_local_style_prop
 848 000c 08BD     		pop	{r3, pc}
 850              		.section	.text.lv_obj_set_style_shadow_color,"ax",%progbits
 851              		.align	1
 852              		.global	lv_obj_set_style_shadow_color
 853              		.syntax unified
 854              		.thumb
 855              		.thumb_func
 857              	lv_obj_set_style_shadow_color:
 858              		@ args = 0, pretend = 0, frame = 0
 859              		@ frame_needed = 0, uses_anonymous_args = 0
 860 0000 08B5     		push	{r3, lr}
 861 0002 1346     		mov	r3, r2
 862 0004 8AB2     		uxth	r2, r1
 863 0006 4421     		movs	r1, #68
 864 0008 FFF7FEFF 		bl	lv_obj_set_local_style_prop
 865 000c 08BD     		pop	{r3, pc}
 867              		.section	.text.lv_obj_set_style_shadow_opa,"ax",%progbits
 868              		.align	1
 869              		.global	lv_obj_set_style_shadow_opa
 870              		.syntax unified
 871              		.thumb
 872              		.thumb_func
 874              	lv_obj_set_style_shadow_opa:
 875              		@ args = 0, pretend = 0, frame = 0
 876              		@ frame_needed = 0, uses_anonymous_args = 0
 877 0000 08B5     		push	{r3, lr}
 878 0002 1346     		mov	r3, r2
 879 0004 0A46     		mov	r2, r1
 880 0006 4521     		movs	r1, #69
 881 0008 FFF7FEFF 		bl	lv_obj_set_local_style_prop
 882 000c 08BD     		pop	{r3, pc}
 884              		.section	.text.lv_obj_set_style_img_opa,"ax",%progbits
 885              		.align	1
 886              		.global	lv_obj_set_style_img_opa
 887              		.syntax unified
 888              		.thumb
 889              		.thumb_func
 891              	lv_obj_set_style_img_opa:
 892              		@ args = 0, pretend = 0, frame = 0
 893              		@ frame_needed = 0, uses_anonymous_args = 0
 894 0000 08B5     		push	{r3, lr}
 895 0002 1346     		mov	r3, r2
 896 0004 0A46     		mov	r2, r1
 897 0006 4621     		movs	r1, #70
 898 0008 FFF7FEFF 		bl	lv_obj_set_local_style_prop
 899 000c 08BD     		pop	{r3, pc}
 901              		.section	.text.lv_obj_set_style_img_recolor,"ax",%progbits
 902              		.align	1
ARM GAS  /var/folders/lp/x54gwt890xv47sdkqj1k04q40000gn/T//ccnUs2M7.s 			page 15


 903              		.global	lv_obj_set_style_img_recolor
 904              		.syntax unified
 905              		.thumb
 906              		.thumb_func
 908              	lv_obj_set_style_img_recolor:
 909              		@ args = 0, pretend = 0, frame = 0
 910              		@ frame_needed = 0, uses_anonymous_args = 0
 911 0000 08B5     		push	{r3, lr}
 912 0002 1346     		mov	r3, r2
 913 0004 8AB2     		uxth	r2, r1
 914 0006 4721     		movs	r1, #71
 915 0008 FFF7FEFF 		bl	lv_obj_set_local_style_prop
 916 000c 08BD     		pop	{r3, pc}
 918              		.section	.text.lv_obj_set_style_img_recolor_opa,"ax",%progbits
 919              		.align	1
 920              		.global	lv_obj_set_style_img_recolor_opa
 921              		.syntax unified
 922              		.thumb
 923              		.thumb_func
 925              	lv_obj_set_style_img_recolor_opa:
 926              		@ args = 0, pretend = 0, frame = 0
 927              		@ frame_needed = 0, uses_anonymous_args = 0
 928 0000 08B5     		push	{r3, lr}
 929 0002 1346     		mov	r3, r2
 930 0004 0A46     		mov	r2, r1
 931 0006 4821     		movs	r1, #72
 932 0008 FFF7FEFF 		bl	lv_obj_set_local_style_prop
 933 000c 08BD     		pop	{r3, pc}
 935              		.section	.text.lv_obj_set_style_line_width,"ax",%progbits
 936              		.align	1
 937              		.global	lv_obj_set_style_line_width
 938              		.syntax unified
 939              		.thumb
 940              		.thumb_func
 942              	lv_obj_set_style_line_width:
 943              		@ args = 0, pretend = 0, frame = 0
 944              		@ frame_needed = 0, uses_anonymous_args = 0
 945 0000 08B5     		push	{r3, lr}
 946 0002 1346     		mov	r3, r2
 947 0004 0A46     		mov	r2, r1
 948 0006 4921     		movs	r1, #73
 949 0008 FFF7FEFF 		bl	lv_obj_set_local_style_prop
 950 000c 08BD     		pop	{r3, pc}
 952              		.section	.text.lv_obj_set_style_line_dash_width,"ax",%progbits
 953              		.align	1
 954              		.global	lv_obj_set_style_line_dash_width
 955              		.syntax unified
 956              		.thumb
 957              		.thumb_func
 959              	lv_obj_set_style_line_dash_width:
 960              		@ args = 0, pretend = 0, frame = 0
 961              		@ frame_needed = 0, uses_anonymous_args = 0
 962 0000 08B5     		push	{r3, lr}
 963 0002 1346     		mov	r3, r2
 964 0004 0A46     		mov	r2, r1
 965 0006 4A21     		movs	r1, #74
 966 0008 FFF7FEFF 		bl	lv_obj_set_local_style_prop
ARM GAS  /var/folders/lp/x54gwt890xv47sdkqj1k04q40000gn/T//ccnUs2M7.s 			page 16


 967 000c 08BD     		pop	{r3, pc}
 969              		.section	.text.lv_obj_set_style_line_dash_gap,"ax",%progbits
 970              		.align	1
 971              		.global	lv_obj_set_style_line_dash_gap
 972              		.syntax unified
 973              		.thumb
 974              		.thumb_func
 976              	lv_obj_set_style_line_dash_gap:
 977              		@ args = 0, pretend = 0, frame = 0
 978              		@ frame_needed = 0, uses_anonymous_args = 0
 979 0000 08B5     		push	{r3, lr}
 980 0002 1346     		mov	r3, r2
 981 0004 0A46     		mov	r2, r1
 982 0006 4B21     		movs	r1, #75
 983 0008 FFF7FEFF 		bl	lv_obj_set_local_style_prop
 984 000c 08BD     		pop	{r3, pc}
 986              		.section	.text.lv_obj_set_style_line_rounded,"ax",%progbits
 987              		.align	1
 988              		.global	lv_obj_set_style_line_rounded
 989              		.syntax unified
 990              		.thumb
 991              		.thumb_func
 993              	lv_obj_set_style_line_rounded:
 994              		@ args = 0, pretend = 0, frame = 0
 995              		@ frame_needed = 0, uses_anonymous_args = 0
 996 0000 08B5     		push	{r3, lr}
 997 0002 1346     		mov	r3, r2
 998 0004 0A46     		mov	r2, r1
 999 0006 4C21     		movs	r1, #76
 1000 0008 FFF7FEFF 		bl	lv_obj_set_local_style_prop
 1001 000c 08BD     		pop	{r3, pc}
 1003              		.section	.text.lv_obj_set_style_line_color,"ax",%progbits
 1004              		.align	1
 1005              		.global	lv_obj_set_style_line_color
 1006              		.syntax unified
 1007              		.thumb
 1008              		.thumb_func
 1010              	lv_obj_set_style_line_color:
 1011              		@ args = 0, pretend = 0, frame = 0
 1012              		@ frame_needed = 0, uses_anonymous_args = 0
 1013 0000 08B5     		push	{r3, lr}
 1014 0002 1346     		mov	r3, r2
 1015 0004 8AB2     		uxth	r2, r1
 1016 0006 4D21     		movs	r1, #77
 1017 0008 FFF7FEFF 		bl	lv_obj_set_local_style_prop
 1018 000c 08BD     		pop	{r3, pc}
 1020              		.section	.text.lv_obj_set_style_line_opa,"ax",%progbits
 1021              		.align	1
 1022              		.global	lv_obj_set_style_line_opa
 1023              		.syntax unified
 1024              		.thumb
 1025              		.thumb_func
 1027              	lv_obj_set_style_line_opa:
 1028              		@ args = 0, pretend = 0, frame = 0
 1029              		@ frame_needed = 0, uses_anonymous_args = 0
 1030 0000 08B5     		push	{r3, lr}
 1031 0002 1346     		mov	r3, r2
ARM GAS  /var/folders/lp/x54gwt890xv47sdkqj1k04q40000gn/T//ccnUs2M7.s 			page 17


 1032 0004 0A46     		mov	r2, r1
 1033 0006 4E21     		movs	r1, #78
 1034 0008 FFF7FEFF 		bl	lv_obj_set_local_style_prop
 1035 000c 08BD     		pop	{r3, pc}
 1037              		.section	.text.lv_obj_set_style_arc_width,"ax",%progbits
 1038              		.align	1
 1039              		.global	lv_obj_set_style_arc_width
 1040              		.syntax unified
 1041              		.thumb
 1042              		.thumb_func
 1044              	lv_obj_set_style_arc_width:
 1045              		@ args = 0, pretend = 0, frame = 0
 1046              		@ frame_needed = 0, uses_anonymous_args = 0
 1047 0000 08B5     		push	{r3, lr}
 1048 0002 1346     		mov	r3, r2
 1049 0004 0A46     		mov	r2, r1
 1050 0006 5021     		movs	r1, #80
 1051 0008 FFF7FEFF 		bl	lv_obj_set_local_style_prop
 1052 000c 08BD     		pop	{r3, pc}
 1054              		.section	.text.lv_obj_set_style_arc_rounded,"ax",%progbits
 1055              		.align	1
 1056              		.global	lv_obj_set_style_arc_rounded
 1057              		.syntax unified
 1058              		.thumb
 1059              		.thumb_func
 1061              	lv_obj_set_style_arc_rounded:
 1062              		@ args = 0, pretend = 0, frame = 0
 1063              		@ frame_needed = 0, uses_anonymous_args = 0
 1064 0000 08B5     		push	{r3, lr}
 1065 0002 1346     		mov	r3, r2
 1066 0004 0A46     		mov	r2, r1
 1067 0006 5121     		movs	r1, #81
 1068 0008 FFF7FEFF 		bl	lv_obj_set_local_style_prop
 1069 000c 08BD     		pop	{r3, pc}
 1071              		.section	.text.lv_obj_set_style_arc_color,"ax",%progbits
 1072              		.align	1
 1073              		.global	lv_obj_set_style_arc_color
 1074              		.syntax unified
 1075              		.thumb
 1076              		.thumb_func
 1078              	lv_obj_set_style_arc_color:
 1079              		@ args = 0, pretend = 0, frame = 0
 1080              		@ frame_needed = 0, uses_anonymous_args = 0
 1081 0000 08B5     		push	{r3, lr}
 1082 0002 1346     		mov	r3, r2
 1083 0004 8AB2     		uxth	r2, r1
 1084 0006 5221     		movs	r1, #82
 1085 0008 FFF7FEFF 		bl	lv_obj_set_local_style_prop
 1086 000c 08BD     		pop	{r3, pc}
 1088              		.section	.text.lv_obj_set_style_arc_opa,"ax",%progbits
 1089              		.align	1
 1090              		.global	lv_obj_set_style_arc_opa
 1091              		.syntax unified
 1092              		.thumb
 1093              		.thumb_func
 1095              	lv_obj_set_style_arc_opa:
 1096              		@ args = 0, pretend = 0, frame = 0
ARM GAS  /var/folders/lp/x54gwt890xv47sdkqj1k04q40000gn/T//ccnUs2M7.s 			page 18


 1097              		@ frame_needed = 0, uses_anonymous_args = 0
 1098 0000 08B5     		push	{r3, lr}
 1099 0002 1346     		mov	r3, r2
 1100 0004 0A46     		mov	r2, r1
 1101 0006 5321     		movs	r1, #83
 1102 0008 FFF7FEFF 		bl	lv_obj_set_local_style_prop
 1103 000c 08BD     		pop	{r3, pc}
 1105              		.section	.text.lv_obj_set_style_arc_img_src,"ax",%progbits
 1106              		.align	1
 1107              		.global	lv_obj_set_style_arc_img_src
 1108              		.syntax unified
 1109              		.thumb
 1110              		.thumb_func
 1112              	lv_obj_set_style_arc_img_src:
 1113              		@ args = 0, pretend = 0, frame = 0
 1114              		@ frame_needed = 0, uses_anonymous_args = 0
 1115 0000 08B5     		push	{r3, lr}
 1116 0002 1346     		mov	r3, r2
 1117 0004 0A46     		mov	r2, r1
 1118 0006 5421     		movs	r1, #84
 1119 0008 FFF7FEFF 		bl	lv_obj_set_local_style_prop
 1120 000c 08BD     		pop	{r3, pc}
 1122              		.section	.text.lv_obj_set_style_text_color,"ax",%progbits
 1123              		.align	1
 1124              		.global	lv_obj_set_style_text_color
 1125              		.syntax unified
 1126              		.thumb
 1127              		.thumb_func
 1129              	lv_obj_set_style_text_color:
 1130              		@ args = 0, pretend = 0, frame = 0
 1131              		@ frame_needed = 0, uses_anonymous_args = 0
 1132 0000 08B5     		push	{r3, lr}
 1133 0002 1346     		mov	r3, r2
 1134 0004 8AB2     		uxth	r2, r1
 1135 0006 5521     		movs	r1, #85
 1136 0008 FFF7FEFF 		bl	lv_obj_set_local_style_prop
 1137 000c 08BD     		pop	{r3, pc}
 1139              		.section	.text.lv_obj_set_style_text_opa,"ax",%progbits
 1140              		.align	1
 1141              		.global	lv_obj_set_style_text_opa
 1142              		.syntax unified
 1143              		.thumb
 1144              		.thumb_func
 1146              	lv_obj_set_style_text_opa:
 1147              		@ args = 0, pretend = 0, frame = 0
 1148              		@ frame_needed = 0, uses_anonymous_args = 0
 1149 0000 08B5     		push	{r3, lr}
 1150 0002 1346     		mov	r3, r2
 1151 0004 0A46     		mov	r2, r1
 1152 0006 5621     		movs	r1, #86
 1153 0008 FFF7FEFF 		bl	lv_obj_set_local_style_prop
 1154 000c 08BD     		pop	{r3, pc}
 1156              		.section	.text.lv_obj_set_style_text_font,"ax",%progbits
 1157              		.align	1
 1158              		.global	lv_obj_set_style_text_font
 1159              		.syntax unified
 1160              		.thumb
ARM GAS  /var/folders/lp/x54gwt890xv47sdkqj1k04q40000gn/T//ccnUs2M7.s 			page 19


 1161              		.thumb_func
 1163              	lv_obj_set_style_text_font:
 1164              		@ args = 0, pretend = 0, frame = 0
 1165              		@ frame_needed = 0, uses_anonymous_args = 0
 1166 0000 08B5     		push	{r3, lr}
 1167 0002 1346     		mov	r3, r2
 1168 0004 0A46     		mov	r2, r1
 1169 0006 5721     		movs	r1, #87
 1170 0008 FFF7FEFF 		bl	lv_obj_set_local_style_prop
 1171 000c 08BD     		pop	{r3, pc}
 1173              		.section	.text.lv_obj_set_style_text_letter_space,"ax",%progbits
 1174              		.align	1
 1175              		.global	lv_obj_set_style_text_letter_space
 1176              		.syntax unified
 1177              		.thumb
 1178              		.thumb_func
 1180              	lv_obj_set_style_text_letter_space:
 1181              		@ args = 0, pretend = 0, frame = 0
 1182              		@ frame_needed = 0, uses_anonymous_args = 0
 1183 0000 08B5     		push	{r3, lr}
 1184 0002 1346     		mov	r3, r2
 1185 0004 0A46     		mov	r2, r1
 1186 0006 5821     		movs	r1, #88
 1187 0008 FFF7FEFF 		bl	lv_obj_set_local_style_prop
 1188 000c 08BD     		pop	{r3, pc}
 1190              		.section	.text.lv_obj_set_style_text_line_space,"ax",%progbits
 1191              		.align	1
 1192              		.global	lv_obj_set_style_text_line_space
 1193              		.syntax unified
 1194              		.thumb
 1195              		.thumb_func
 1197              	lv_obj_set_style_text_line_space:
 1198              		@ args = 0, pretend = 0, frame = 0
 1199              		@ frame_needed = 0, uses_anonymous_args = 0
 1200 0000 08B5     		push	{r3, lr}
 1201 0002 1346     		mov	r3, r2
 1202 0004 0A46     		mov	r2, r1
 1203 0006 5921     		movs	r1, #89
 1204 0008 FFF7FEFF 		bl	lv_obj_set_local_style_prop
 1205 000c 08BD     		pop	{r3, pc}
 1207              		.section	.text.lv_obj_set_style_text_decor,"ax",%progbits
 1208              		.align	1
 1209              		.global	lv_obj_set_style_text_decor
 1210              		.syntax unified
 1211              		.thumb
 1212              		.thumb_func
 1214              	lv_obj_set_style_text_decor:
 1215              		@ args = 0, pretend = 0, frame = 0
 1216              		@ frame_needed = 0, uses_anonymous_args = 0
 1217 0000 08B5     		push	{r3, lr}
 1218 0002 1346     		mov	r3, r2
 1219 0004 0A46     		mov	r2, r1
 1220 0006 5A21     		movs	r1, #90
 1221 0008 FFF7FEFF 		bl	lv_obj_set_local_style_prop
 1222 000c 08BD     		pop	{r3, pc}
 1224              		.section	.text.lv_obj_set_style_text_align,"ax",%progbits
 1225              		.align	1
ARM GAS  /var/folders/lp/x54gwt890xv47sdkqj1k04q40000gn/T//ccnUs2M7.s 			page 20


 1226              		.global	lv_obj_set_style_text_align
 1227              		.syntax unified
 1228              		.thumb
 1229              		.thumb_func
 1231              	lv_obj_set_style_text_align:
 1232              		@ args = 0, pretend = 0, frame = 0
 1233              		@ frame_needed = 0, uses_anonymous_args = 0
 1234 0000 08B5     		push	{r3, lr}
 1235 0002 1346     		mov	r3, r2
 1236 0004 0A46     		mov	r2, r1
 1237 0006 5B21     		movs	r1, #91
 1238 0008 FFF7FEFF 		bl	lv_obj_set_local_style_prop
 1239 000c 08BD     		pop	{r3, pc}
 1241              		.section	.text.lv_obj_set_style_radius,"ax",%progbits
 1242              		.align	1
 1243              		.global	lv_obj_set_style_radius
 1244              		.syntax unified
 1245              		.thumb
 1246              		.thumb_func
 1248              	lv_obj_set_style_radius:
 1249              		@ args = 0, pretend = 0, frame = 0
 1250              		@ frame_needed = 0, uses_anonymous_args = 0
 1251 0000 08B5     		push	{r3, lr}
 1252 0002 1346     		mov	r3, r2
 1253 0004 0A46     		mov	r2, r1
 1254 0006 0B21     		movs	r1, #11
 1255 0008 FFF7FEFF 		bl	lv_obj_set_local_style_prop
 1256 000c 08BD     		pop	{r3, pc}
 1258              		.section	.text.lv_obj_set_style_clip_corner,"ax",%progbits
 1259              		.align	1
 1260              		.global	lv_obj_set_style_clip_corner
 1261              		.syntax unified
 1262              		.thumb
 1263              		.thumb_func
 1265              	lv_obj_set_style_clip_corner:
 1266              		@ args = 0, pretend = 0, frame = 0
 1267              		@ frame_needed = 0, uses_anonymous_args = 0
 1268 0000 08B5     		push	{r3, lr}
 1269 0002 1346     		mov	r3, r2
 1270 0004 0A46     		mov	r2, r1
 1271 0006 1721     		movs	r1, #23
 1272 0008 FFF7FEFF 		bl	lv_obj_set_local_style_prop
 1273 000c 08BD     		pop	{r3, pc}
 1275              		.section	.text.lv_obj_set_style_opa,"ax",%progbits
 1276              		.align	1
 1277              		.global	lv_obj_set_style_opa
 1278              		.syntax unified
 1279              		.thumb
 1280              		.thumb_func
 1282              	lv_obj_set_style_opa:
 1283              		@ args = 0, pretend = 0, frame = 0
 1284              		@ frame_needed = 0, uses_anonymous_args = 0
 1285 0000 08B5     		push	{r3, lr}
 1286 0002 1346     		mov	r3, r2
 1287 0004 0A46     		mov	r2, r1
 1288 0006 6021     		movs	r1, #96
 1289 0008 FFF7FEFF 		bl	lv_obj_set_local_style_prop
ARM GAS  /var/folders/lp/x54gwt890xv47sdkqj1k04q40000gn/T//ccnUs2M7.s 			page 21


 1290 000c 08BD     		pop	{r3, pc}
 1292              		.section	.text.lv_obj_set_style_opa_layered,"ax",%progbits
 1293              		.align	1
 1294              		.global	lv_obj_set_style_opa_layered
 1295              		.syntax unified
 1296              		.thumb
 1297              		.thumb_func
 1299              	lv_obj_set_style_opa_layered:
 1300              		@ args = 0, pretend = 0, frame = 0
 1301              		@ frame_needed = 0, uses_anonymous_args = 0
 1302 0000 08B5     		push	{r3, lr}
 1303 0002 1346     		mov	r3, r2
 1304 0004 0A46     		mov	r2, r1
 1305 0006 6121     		movs	r1, #97
 1306 0008 FFF7FEFF 		bl	lv_obj_set_local_style_prop
 1307 000c 08BD     		pop	{r3, pc}
 1309              		.section	.text.lv_obj_set_style_color_filter_dsc,"ax",%progbits
 1310              		.align	1
 1311              		.global	lv_obj_set_style_color_filter_dsc
 1312              		.syntax unified
 1313              		.thumb
 1314              		.thumb_func
 1316              	lv_obj_set_style_color_filter_dsc:
 1317              		@ args = 0, pretend = 0, frame = 0
 1318              		@ frame_needed = 0, uses_anonymous_args = 0
 1319 0000 08B5     		push	{r3, lr}
 1320 0002 1346     		mov	r3, r2
 1321 0004 0A46     		mov	r2, r1
 1322 0006 6221     		movs	r1, #98
 1323 0008 FFF7FEFF 		bl	lv_obj_set_local_style_prop
 1324 000c 08BD     		pop	{r3, pc}
 1326              		.section	.text.lv_obj_set_style_color_filter_opa,"ax",%progbits
 1327              		.align	1
 1328              		.global	lv_obj_set_style_color_filter_opa
 1329              		.syntax unified
 1330              		.thumb
 1331              		.thumb_func
 1333              	lv_obj_set_style_color_filter_opa:
 1334              		@ args = 0, pretend = 0, frame = 0
 1335              		@ frame_needed = 0, uses_anonymous_args = 0
 1336 0000 08B5     		push	{r3, lr}
 1337 0002 1346     		mov	r3, r2
 1338 0004 0A46     		mov	r2, r1
 1339 0006 6321     		movs	r1, #99
 1340 0008 FFF7FEFF 		bl	lv_obj_set_local_style_prop
 1341 000c 08BD     		pop	{r3, pc}
 1343              		.section	.text.lv_obj_set_style_anim,"ax",%progbits
 1344              		.align	1
 1345              		.global	lv_obj_set_style_anim
 1346              		.syntax unified
 1347              		.thumb
 1348              		.thumb_func
 1350              	lv_obj_set_style_anim:
 1351              		@ args = 0, pretend = 0, frame = 0
 1352              		@ frame_needed = 0, uses_anonymous_args = 0
 1353 0000 08B5     		push	{r3, lr}
 1354 0002 1346     		mov	r3, r2
ARM GAS  /var/folders/lp/x54gwt890xv47sdkqj1k04q40000gn/T//ccnUs2M7.s 			page 22


 1355 0004 0A46     		mov	r2, r1
 1356 0006 6421     		movs	r1, #100
 1357 0008 FFF7FEFF 		bl	lv_obj_set_local_style_prop
 1358 000c 08BD     		pop	{r3, pc}
 1360              		.section	.text.lv_obj_set_style_anim_time,"ax",%progbits
 1361              		.align	1
 1362              		.global	lv_obj_set_style_anim_time
 1363              		.syntax unified
 1364              		.thumb
 1365              		.thumb_func
 1367              	lv_obj_set_style_anim_time:
 1368              		@ args = 0, pretend = 0, frame = 0
 1369              		@ frame_needed = 0, uses_anonymous_args = 0
 1370 0000 08B5     		push	{r3, lr}
 1371 0002 1346     		mov	r3, r2
 1372 0004 0A46     		mov	r2, r1
 1373 0006 6521     		movs	r1, #101
 1374 0008 FFF7FEFF 		bl	lv_obj_set_local_style_prop
 1375 000c 08BD     		pop	{r3, pc}
 1377              		.section	.text.lv_obj_set_style_anim_speed,"ax",%progbits
 1378              		.align	1
 1379              		.global	lv_obj_set_style_anim_speed
 1380              		.syntax unified
 1381              		.thumb
 1382              		.thumb_func
 1384              	lv_obj_set_style_anim_speed:
 1385              		@ args = 0, pretend = 0, frame = 0
 1386              		@ frame_needed = 0, uses_anonymous_args = 0
 1387 0000 08B5     		push	{r3, lr}
 1388 0002 1346     		mov	r3, r2
 1389 0004 0A46     		mov	r2, r1
 1390 0006 6621     		movs	r1, #102
 1391 0008 FFF7FEFF 		bl	lv_obj_set_local_style_prop
 1392 000c 08BD     		pop	{r3, pc}
 1394              		.section	.text.lv_obj_set_style_transition,"ax",%progbits
 1395              		.align	1
 1396              		.global	lv_obj_set_style_transition
 1397              		.syntax unified
 1398              		.thumb
 1399              		.thumb_func
 1401              	lv_obj_set_style_transition:
 1402              		@ args = 0, pretend = 0, frame = 0
 1403              		@ frame_needed = 0, uses_anonymous_args = 0
 1404 0000 08B5     		push	{r3, lr}
 1405 0002 1346     		mov	r3, r2
 1406 0004 0A46     		mov	r2, r1
 1407 0006 6721     		movs	r1, #103
 1408 0008 FFF7FEFF 		bl	lv_obj_set_local_style_prop
 1409 000c 08BD     		pop	{r3, pc}
 1411              		.section	.text.lv_obj_set_style_blend_mode,"ax",%progbits
 1412              		.align	1
 1413              		.global	lv_obj_set_style_blend_mode
 1414              		.syntax unified
 1415              		.thumb
 1416              		.thumb_func
 1418              	lv_obj_set_style_blend_mode:
 1419              		@ args = 0, pretend = 0, frame = 0
ARM GAS  /var/folders/lp/x54gwt890xv47sdkqj1k04q40000gn/T//ccnUs2M7.s 			page 23


 1420              		@ frame_needed = 0, uses_anonymous_args = 0
 1421 0000 08B5     		push	{r3, lr}
 1422 0002 1346     		mov	r3, r2
 1423 0004 0A46     		mov	r2, r1
 1424 0006 6821     		movs	r1, #104
 1425 0008 FFF7FEFF 		bl	lv_obj_set_local_style_prop
 1426 000c 08BD     		pop	{r3, pc}
 1428              		.section	.text.lv_obj_set_style_layout,"ax",%progbits
 1429              		.align	1
 1430              		.global	lv_obj_set_style_layout
 1431              		.syntax unified
 1432              		.thumb
 1433              		.thumb_func
 1435              	lv_obj_set_style_layout:
 1436              		@ args = 0, pretend = 0, frame = 0
 1437              		@ frame_needed = 0, uses_anonymous_args = 0
 1438 0000 08B5     		push	{r3, lr}
 1439 0002 1346     		mov	r3, r2
 1440 0004 0A46     		mov	r2, r1
 1441 0006 0A21     		movs	r1, #10
 1442 0008 FFF7FEFF 		bl	lv_obj_set_local_style_prop
 1443 000c 08BD     		pop	{r3, pc}
 1445              		.section	.text.lv_obj_set_style_base_dir,"ax",%progbits
 1446              		.align	1
 1447              		.global	lv_obj_set_style_base_dir
 1448              		.syntax unified
 1449              		.thumb
 1450              		.thumb_func
 1452              	lv_obj_set_style_base_dir:
 1453              		@ args = 0, pretend = 0, frame = 0
 1454              		@ frame_needed = 0, uses_anonymous_args = 0
 1455 0000 08B5     		push	{r3, lr}
 1456 0002 1346     		mov	r3, r2
 1457 0004 0A46     		mov	r2, r1
 1458 0006 1621     		movs	r1, #22
 1459 0008 FFF7FEFF 		bl	lv_obj_set_local_style_prop
 1460 000c 08BD     		pop	{r3, pc}
 1462              		.ident	"GCC: (xPack GNU Arm Embedded GCC arm64) 13.3.1 20240614"
ARM GAS  /var/folders/lp/x54gwt890xv47sdkqj1k04q40000gn/T//ccnUs2M7.s 			page 24

