ARM GAS  /var/folders/lp/x54gwt890xv47sdkqj1k04q40000gn/T//ccJrhrKR.s 			page 1


   1              		.cpu cortex-m4
   2              		.arch armv7e-m
   3              		.fpu fpv4-sp-d16
   4              		.eabi_attribute 27, 1
   5              		.eabi_attribute 28, 1
   6              		.eabi_attribute 20, 1
   7              		.eabi_attribute 21, 1
   8              		.eabi_attribute 23, 3
   9              		.eabi_attribute 24, 1
  10              		.eabi_attribute 25, 1
  11              		.eabi_attribute 26, 1
  12              		.eabi_attribute 30, 1
  13              		.eabi_attribute 34, 1
  14              		.eabi_attribute 18, 4
  15              		.file	"lv_obj.c"
  16              		.text
  17              		.section	.text.obj_valid_child,"ax",%progbits
  18              		.align	1
  19              		.syntax unified
  20              		.thumb
  21              		.thumb_func
  23              	obj_valid_child:
  24              		@ args = 0, pretend = 0, frame = 0
  25              		@ frame_needed = 0, uses_anonymous_args = 0
  26 0000 F8B5     		push	{r3, r4, r5, r6, r7, lr}
  27 0002 0546     		mov	r5, r0
  28 0004 0E46     		mov	r6, r1
  29 0006 8368     		ldr	r3, [r0, #8]
  30 0008 13B1     		cbz	r3, .L6
  31 000a 5F68     		ldr	r7, [r3, #4]
  32              	.L2:
  33 000c 0024     		movs	r4, #0
  34 000e 02E0     		b	.L3
  35              	.L6:
  36 0010 0027     		movs	r7, #0
  37 0012 FBE7     		b	.L2
  38              	.L10:
  39 0014 0134     		adds	r4, r4, #1
  40              	.L3:
  41 0016 A742     		cmp	r7, r4
  42 0018 0BD9     		bls	.L9
  43 001a AB68     		ldr	r3, [r5, #8]
  44 001c 1B68     		ldr	r3, [r3]
  45 001e 53F82400 		ldr	r0, [r3, r4, lsl #2]
  46 0022 B042     		cmp	r0, r6
  47 0024 07D0     		beq	.L7
  48 0026 3146     		mov	r1, r6
  49 0028 FFF7EAFF 		bl	obj_valid_child
  50 002c 0028     		cmp	r0, #0
  51 002e F1D0     		beq	.L10
  52 0030 00E0     		b	.L4
  53              	.L9:
  54 0032 0020     		movs	r0, #0
  55              	.L4:
  56 0034 F8BD     		pop	{r3, r4, r5, r6, r7, pc}
  57              	.L7:
  58 0036 0120     		movs	r0, #1
ARM GAS  /var/folders/lp/x54gwt890xv47sdkqj1k04q40000gn/T//ccJrhrKR.s 			page 2


  59 0038 FCE7     		b	.L4
  61              		.section	.text.scrollbar_init_draw_dsc,"ax",%progbits
  62              		.align	1
  63              		.syntax unified
  64              		.thumb
  65              		.thumb_func
  67              	scrollbar_init_draw_dsc:
  68              		@ args = 0, pretend = 0, frame = 0
  69              		@ frame_needed = 0, uses_anonymous_args = 0
  70 0000 38B5     		push	{r3, r4, r5, lr}
  71 0002 0546     		mov	r5, r0
  72 0004 0C46     		mov	r4, r1
  73 0006 0846     		mov	r0, r1
  74 0008 FFF7FEFF 		bl	lv_draw_rect_dsc_init
  75 000c 2122     		movs	r2, #33
  76 000e 4FF48031 		mov	r1, #65536
  77 0012 2846     		mov	r0, r5
  78 0014 FFF7FEFF 		bl	lv_obj_get_style_prop
  79 0018 C0B2     		uxtb	r0, r0
  80 001a E070     		strb	r0, [r4, #3]
  81 001c 0228     		cmp	r0, #2
  82 001e 3BD8     		bhi	.L21
  83              	.L12:
  84 0020 3122     		movs	r2, #49
  85 0022 4FF48031 		mov	r1, #65536
  86 0026 2846     		mov	r0, r5
  87 0028 FFF7FEFF 		bl	lv_obj_get_style_prop
  88 002c C0B2     		uxtb	r0, r0
  89 002e 84F82200 		strb	r0, [r4, #34]
  90 0032 0228     		cmp	r0, #2
  91 0034 38D8     		bhi	.L22
  92              	.L13:
  93 0036 4522     		movs	r2, #69
  94 0038 4FF48031 		mov	r1, #65536
  95 003c 2846     		mov	r0, r5
  96 003e FFF7FEFF 		bl	lv_obj_get_style_prop
  97 0042 C0B2     		uxtb	r0, r0
  98 0044 84F83600 		strb	r0, [r4, #54]
  99 0048 0228     		cmp	r0, #2
 100 004a 43D8     		bhi	.L23
 101              	.L15:
 102 004c 4FF48031 		mov	r1, #65536
 103 0050 2846     		mov	r0, r5
 104 0052 FFF7FEFF 		bl	lv_obj_get_style_opa_recursive
 105 0056 FC28     		cmp	r0, #252
 106 0058 0DD8     		bhi	.L17
 107 005a E378     		ldrb	r3, [r4, #3]	@ zero_extendqisi2
 108 005c 00FB03F3 		mul	r3, r0, r3
 109 0060 1B12     		asrs	r3, r3, #8
 110 0062 E370     		strb	r3, [r4, #3]
 111 0064 DBB2     		uxtb	r3, r3
 112 0066 00FB03F3 		mul	r3, r0, r3
 113 006a C3F30723 		ubfx	r3, r3, #8, #8
 114 006e 84F82230 		strb	r3, [r4, #34]
 115 0072 84F83630 		strb	r3, [r4, #54]
 116              	.L17:
 117 0076 E378     		ldrb	r3, [r4, #3]	@ zero_extendqisi2
ARM GAS  /var/folders/lp/x54gwt890xv47sdkqj1k04q40000gn/T//ccJrhrKR.s 			page 3


 118 0078 2BB9     		cbnz	r3, .L18
 119 007a 94F82230 		ldrb	r3, [r4, #34]	@ zero_extendqisi2
 120 007e 13B9     		cbnz	r3, .L18
 121 0080 94F83600 		ldrb	r0, [r4, #54]	@ zero_extendqisi2
 122 0084 38B1     		cbz	r0, .L19
 123              	.L18:
 124 0086 0B22     		movs	r2, #11
 125 0088 4FF48031 		mov	r1, #65536
 126 008c 2846     		mov	r0, r5
 127 008e FFF7FEFF 		bl	lv_obj_get_style_prop
 128 0092 2080     		strh	r0, [r4]	@ movhi
 129 0094 0120     		movs	r0, #1
 130              	.L19:
 131 0096 38BD     		pop	{r3, r4, r5, pc}
 132              	.L21:
 133 0098 2022     		movs	r2, #32
 134 009a 4FF48031 		mov	r1, #65536
 135 009e 2846     		mov	r0, r5
 136 00a0 FFF7FEFF 		bl	lv_obj_get_style_prop
 137 00a4 A080     		strh	r0, [r4, #4]	@ movhi
 138 00a6 BBE7     		b	.L12
 139              	.L22:
 140 00a8 3222     		movs	r2, #50
 141 00aa 4FF48031 		mov	r1, #65536
 142 00ae 2846     		mov	r0, r5
 143 00b0 FFF7FEFF 		bl	lv_obj_get_style_prop
 144 00b4 00B2     		sxth	r0, r0
 145 00b6 2084     		strh	r0, [r4, #32]	@ movhi
 146 00b8 0028     		cmp	r0, #0
 147 00ba 03DC     		bgt	.L24
 148 00bc 0023     		movs	r3, #0
 149 00be 84F82230 		strb	r3, [r4, #34]
 150 00c2 B8E7     		b	.L13
 151              	.L24:
 152 00c4 3022     		movs	r2, #48
 153 00c6 4FF48031 		mov	r1, #65536
 154 00ca 2846     		mov	r0, r5
 155 00cc FFF7FEFF 		bl	lv_obj_get_style_prop
 156 00d0 E083     		strh	r0, [r4, #30]	@ movhi
 157 00d2 B0E7     		b	.L13
 158              	.L23:
 159 00d4 4022     		movs	r2, #64
 160 00d6 4FF48031 		mov	r1, #65536
 161 00da 2846     		mov	r0, r5
 162 00dc FFF7FEFF 		bl	lv_obj_get_style_prop
 163 00e0 00B2     		sxth	r0, r0
 164 00e2 E085     		strh	r0, [r4, #46]	@ movhi
 165 00e4 0028     		cmp	r0, #0
 166 00e6 03DC     		bgt	.L25
 167 00e8 0023     		movs	r3, #0
 168 00ea 84F83630 		strb	r3, [r4, #54]
 169 00ee ADE7     		b	.L15
 170              	.L25:
 171 00f0 4322     		movs	r2, #67
 172 00f2 4FF48031 		mov	r1, #65536
 173 00f6 2846     		mov	r0, r5
 174 00f8 FFF7FEFF 		bl	lv_obj_get_style_prop
ARM GAS  /var/folders/lp/x54gwt890xv47sdkqj1k04q40000gn/T//ccJrhrKR.s 			page 4


 175 00fc A086     		strh	r0, [r4, #52]	@ movhi
 176 00fe 4422     		movs	r2, #68
 177 0100 4FF48031 		mov	r1, #65536
 178 0104 2846     		mov	r0, r5
 179 0106 FFF7FEFF 		bl	lv_obj_get_style_prop
 180 010a A085     		strh	r0, [r4, #44]	@ movhi
 181 010c 9EE7     		b	.L15
 183              		.section	.text.draw_scrollbar,"ax",%progbits
 184              		.align	1
 185              		.syntax unified
 186              		.thumb
 187              		.thumb_func
 189              	draw_scrollbar:
 190              		@ args = 0, pretend = 0, frame = 144
 191              		@ frame_needed = 0, uses_anonymous_args = 0
 192 0000 70B5     		push	{r4, r5, r6, lr}
 193 0002 A4B0     		sub	sp, sp, #144
 194 0004 0446     		mov	r4, r0
 195 0006 0D46     		mov	r5, r1
 196 0008 20AA     		add	r2, sp, #128
 197 000a 22A9     		add	r1, sp, #136
 198 000c FFF7FEFF 		bl	lv_obj_get_scrollbar_area
 199 0010 22A8     		add	r0, sp, #136
 200 0012 FFF7FEFF 		bl	lv_area_get_size
 201 0016 18B9     		cbnz	r0, .L27
 202 0018 20A8     		add	r0, sp, #128
 203 001a FFF7FEFF 		bl	lv_area_get_size
 204 001e 28B1     		cbz	r0, .L26
 205              	.L27:
 206 0020 12A9     		add	r1, sp, #72
 207 0022 2046     		mov	r0, r4
 208 0024 FFF7FEFF 		bl	scrollbar_init_draw_dsc
 209 0028 0128     		cmp	r0, #1
 210 002a 01D0     		beq	.L33
 211              	.L26:
 212 002c 24B0     		add	sp, sp, #144
 213              		@ sp needed
 214 002e 70BD     		pop	{r4, r5, r6, pc}
 215              	.L33:
 216 0030 2946     		mov	r1, r5
 217 0032 6846     		mov	r0, sp
 218 0034 FFF7FEFF 		bl	lv_obj_draw_dsc_init
 219 0038 1B4B     		ldr	r3, .L35
 220 003a 0193     		str	r3, [sp, #4]
 221 003c 0223     		movs	r3, #2
 222 003e 0293     		str	r3, [sp, #8]
 223 0040 12AB     		add	r3, sp, #72
 224 0042 0493     		str	r3, [sp, #16]
 225 0044 4FF48033 		mov	r3, #65536
 226 0048 0D93     		str	r3, [sp, #52]
 227 004a 22A8     		add	r0, sp, #136
 228 004c FFF7FEFF 		bl	lv_area_get_size
 229 0050 B8B9     		cbnz	r0, .L34
 230              	.L29:
 231 0052 20A8     		add	r0, sp, #128
 232 0054 FFF7FEFF 		bl	lv_area_get_size
 233 0058 0028     		cmp	r0, #0
ARM GAS  /var/folders/lp/x54gwt890xv47sdkqj1k04q40000gn/T//ccJrhrKR.s 			page 5


 234 005a E7D0     		beq	.L26
 235 005c 20AE     		add	r6, sp, #128
 236 005e 0396     		str	r6, [sp, #12]
 237 0060 6A46     		mov	r2, sp
 238 0062 1A21     		movs	r1, #26
 239 0064 2046     		mov	r0, r4
 240 0066 FFF7FEFF 		bl	lv_event_send
 241 006a 0396     		str	r6, [sp, #12]
 242 006c 3246     		mov	r2, r6
 243 006e 12A9     		add	r1, sp, #72
 244 0070 2846     		mov	r0, r5
 245 0072 FFF7FEFF 		bl	lv_draw_rect
 246 0076 6A46     		mov	r2, sp
 247 0078 1B21     		movs	r1, #27
 248 007a 2046     		mov	r0, r4
 249 007c FFF7FEFF 		bl	lv_event_send
 250 0080 D4E7     		b	.L26
 251              	.L34:
 252 0082 22AE     		add	r6, sp, #136
 253 0084 0396     		str	r6, [sp, #12]
 254 0086 6A46     		mov	r2, sp
 255 0088 1A21     		movs	r1, #26
 256 008a 2046     		mov	r0, r4
 257 008c FFF7FEFF 		bl	lv_event_send
 258 0090 3246     		mov	r2, r6
 259 0092 12A9     		add	r1, sp, #72
 260 0094 2846     		mov	r0, r5
 261 0096 FFF7FEFF 		bl	lv_draw_rect
 262 009a 6A46     		mov	r2, sp
 263 009c 1B21     		movs	r1, #27
 264 009e 2046     		mov	r0, r4
 265 00a0 FFF7FEFF 		bl	lv_event_send
 266 00a4 D5E7     		b	.L29
 267              	.L36:
 268 00a6 00BF     		.align	2
 269              	.L35:
 270 00a8 00000000 		.word	lv_obj_class
 272              		.section	.text.lv_obj_draw,"ax",%progbits
 273              		.align	1
 274              		.syntax unified
 275              		.thumb
 276              		.thumb_func
 278              	lv_obj_draw:
 279              		@ args = 0, pretend = 0, frame = 136
 280              		@ frame_needed = 0, uses_anonymous_args = 0
 281 0000 2DE9F041 		push	{r4, r5, r6, r7, r8, lr}
 282 0004 A2B0     		sub	sp, sp, #136
 283 0006 0646     		mov	r6, r0
 284 0008 FFF7FEFF 		bl	lv_event_get_code
 285 000c 0546     		mov	r5, r0
 286 000e 3046     		mov	r0, r6
 287 0010 FFF7FEFF 		bl	lv_event_get_target
 288 0014 0446     		mov	r4, r0
 289 0016 122D     		cmp	r5, #18
 290 0018 07D0     		beq	.L54
 291 001a 152D     		cmp	r5, #21
 292 001c 6AD0     		beq	.L55
ARM GAS  /var/folders/lp/x54gwt890xv47sdkqj1k04q40000gn/T//ccJrhrKR.s 			page 6


 293 001e 182D     		cmp	r5, #24
 294 0020 00F00081 		beq	.L56
 295              	.L37:
 296 0024 22B0     		add	sp, sp, #136
 297              		@ sp needed
 298 0026 BDE8F081 		pop	{r4, r5, r6, r7, r8, pc}
 299              	.L54:
 300 002a 3046     		mov	r0, r6
 301 002c FFF7FEFF 		bl	lv_event_get_param
 302 0030 0546     		mov	r5, r0
 303 0032 0378     		ldrb	r3, [r0]	@ zero_extendqisi2
 304 0034 022B     		cmp	r3, #2
 305 0036 F5D0     		beq	.L37
 306 0038 1722     		movs	r2, #23
 307 003a 0021     		movs	r1, #0
 308 003c 2046     		mov	r0, r4
 309 003e FFF7FEFF 		bl	lv_obj_get_style_prop
 310 0042 10B1     		cbz	r0, .L40
 311 0044 0223     		movs	r3, #2
 312 0046 2B70     		strb	r3, [r5]
 313 0048 ECE7     		b	.L37
 314              	.L40:
 315 004a 0B22     		movs	r2, #11
 316 004c 0021     		movs	r1, #0
 317 004e 2046     		mov	r0, r4
 318 0050 FFF7FEFF 		bl	lv_obj_get_style_prop
 319 0054 07B2     		sxth	r7, r0
 320 0056 6922     		movs	r2, #105
 321 0058 0021     		movs	r1, #0
 322 005a 2046     		mov	r0, r4
 323 005c FFF7FEFF 		bl	lv_obj_get_style_prop
 324 0060 0646     		mov	r6, r0
 325 0062 6A22     		movs	r2, #106
 326 0064 0021     		movs	r1, #0
 327 0066 2046     		mov	r0, r4
 328 0068 FFF7FEFF 		bl	lv_obj_get_style_prop
 329 006c B4F91410 		ldrsh	r1, [r4, #20]
 330 0070 ADF84010 		strh	r1, [sp, #64]	@ movhi
 331 0074 B4F91630 		ldrsh	r3, [r4, #22]
 332 0078 ADF84230 		strh	r3, [sp, #66]	@ movhi
 333 007c B4F918C0 		ldrsh	ip, [r4, #24]
 334 0080 ADF844C0 		strh	ip, [sp, #68]	@ movhi
 335 0084 B4F91A20 		ldrsh	r2, [r4, #26]
 336 0088 ADF84620 		strh	r2, [sp, #70]	@ movhi
 337 008c 89B2     		uxth	r1, r1
 338 008e B6B2     		uxth	r6, r6
 339 0090 891B     		subs	r1, r1, r6
 340 0092 ADF84010 		strh	r1, [sp, #64]	@ movhi
 341 0096 16FA8CFC 		uxtah	ip, r6, ip
 342 009a ADF844C0 		strh	ip, [sp, #68]	@ movhi
 343 009e 9BB2     		uxth	r3, r3
 344 00a0 80B2     		uxth	r0, r0
 345 00a2 1B1A     		subs	r3, r3, r0
 346 00a4 ADF84230 		strh	r3, [sp, #66]	@ movhi
 347 00a8 10FA82F2 		uxtah	r2, r0, r2
 348 00ac ADF84620 		strh	r2, [sp, #70]	@ movhi
 349 00b0 3A46     		mov	r2, r7
ARM GAS  /var/folders/lp/x54gwt890xv47sdkqj1k04q40000gn/T//ccJrhrKR.s 			page 7


 350 00b2 10A9     		add	r1, sp, #64
 351 00b4 6868     		ldr	r0, [r5, #4]
 352 00b6 FFF7FEFF 		bl	_lv_area_is_in
 353 00ba 10B9     		cbnz	r0, .L41
 354 00bc 0123     		movs	r3, #1
 355 00be 2B70     		strb	r3, [r5]
 356 00c0 B0E7     		b	.L37
 357              	.L41:
 358 00c2 2122     		movs	r2, #33
 359 00c4 0021     		movs	r1, #0
 360 00c6 2046     		mov	r0, r4
 361 00c8 FFF7FEFF 		bl	lv_obj_get_style_prop
 362 00cc C0B2     		uxtb	r0, r0
 363 00ce FC28     		cmp	r0, #252
 364 00d0 02D8     		bhi	.L42
 365 00d2 0123     		movs	r3, #1
 366 00d4 2B70     		strb	r3, [r5]
 367 00d6 A5E7     		b	.L37
 368              	.L42:
 369 00d8 6022     		movs	r2, #96
 370 00da 0021     		movs	r1, #0
 371 00dc 2046     		mov	r0, r4
 372 00de FFF7FEFF 		bl	lv_obj_get_style_prop
 373 00e2 C3B2     		uxtb	r3, r0
 374 00e4 FC2B     		cmp	r3, #252
 375 00e6 02D9     		bls	.L57
 376 00e8 0023     		movs	r3, #0
 377 00ea 2B70     		strb	r3, [r5]
 378 00ec 9AE7     		b	.L37
 379              	.L57:
 380 00ee 0123     		movs	r3, #1
 381 00f0 2B70     		strb	r3, [r5]
 382 00f2 97E7     		b	.L37
 383              	.L55:
 384 00f4 3046     		mov	r0, r6
 385 00f6 FFF7FEFF 		bl	lv_event_get_draw_ctx
 386 00fa 0646     		mov	r6, r0
 387 00fc 02A8     		add	r0, sp, #8
 388 00fe FFF7FEFF 		bl	lv_draw_rect_dsc_init
 389 0102 3422     		movs	r2, #52
 390 0104 0021     		movs	r1, #0
 391 0106 2046     		mov	r0, r4
 392 0108 FFF7FEFF 		bl	lv_obj_get_style_prop
 393 010c 28B1     		cbz	r0, .L46
 394 010e 9DF82B30 		ldrb	r3, [sp, #43]	@ zero_extendqisi2
 395 0112 43F00103 		orr	r3, r3, #1
 396 0116 8DF82B30 		strb	r3, [sp, #43]
 397              	.L46:
 398 011a 02AF     		add	r7, sp, #8
 399 011c 3A46     		mov	r2, r7
 400 011e 0021     		movs	r1, #0
 401 0120 2046     		mov	r0, r4
 402 0122 FFF7FEFF 		bl	lv_obj_init_draw_rect_dsc
 403 0126 6922     		movs	r2, #105
 404 0128 0021     		movs	r1, #0
 405 012a 2046     		mov	r0, r4
 406 012c FFF7FEFF 		bl	lv_obj_get_style_prop
ARM GAS  /var/folders/lp/x54gwt890xv47sdkqj1k04q40000gn/T//ccJrhrKR.s 			page 8


 407 0130 0546     		mov	r5, r0
 408 0132 6A22     		movs	r2, #106
 409 0134 0021     		movs	r1, #0
 410 0136 2046     		mov	r0, r4
 411 0138 FFF7FEFF 		bl	lv_obj_get_style_prop
 412 013c B4F91420 		ldrsh	r2, [r4, #20]
 413 0140 ADF80020 		strh	r2, [sp]	@ movhi
 414 0144 B4F91630 		ldrsh	r3, [r4, #22]
 415 0148 ADF80230 		strh	r3, [sp, #2]	@ movhi
 416 014c B4F918C0 		ldrsh	ip, [r4, #24]
 417 0150 ADF804C0 		strh	ip, [sp, #4]	@ movhi
 418 0154 B4F91A10 		ldrsh	r1, [r4, #26]
 419 0158 ADF80610 		strh	r1, [sp, #6]	@ movhi
 420 015c 92B2     		uxth	r2, r2
 421 015e ADB2     		uxth	r5, r5
 422 0160 521B     		subs	r2, r2, r5
 423 0162 ADF80020 		strh	r2, [sp]	@ movhi
 424 0166 15FA8CFC 		uxtah	ip, r5, ip
 425 016a ADF804C0 		strh	ip, [sp, #4]	@ movhi
 426 016e 9BB2     		uxth	r3, r3
 427 0170 80B2     		uxth	r0, r0
 428 0172 1B1A     		subs	r3, r3, r0
 429 0174 ADF80230 		strh	r3, [sp, #2]	@ movhi
 430 0178 10FA81F1 		uxtah	r1, r0, r1
 431 017c ADF80610 		strh	r1, [sp, #6]	@ movhi
 432 0180 3146     		mov	r1, r6
 433 0182 10A8     		add	r0, sp, #64
 434 0184 FFF7FEFF 		bl	lv_obj_draw_dsc_init
 435 0188 674B     		ldr	r3, .L60
 436 018a 1193     		str	r3, [sp, #68]
 437 018c 0025     		movs	r5, #0
 438 018e 1295     		str	r5, [sp, #72]
 439 0190 1497     		str	r7, [sp, #80]
 440 0192 CDF84CD0 		str	sp, [sp, #76]
 441 0196 1D95     		str	r5, [sp, #116]
 442 0198 10AA     		add	r2, sp, #64
 443 019a 1A21     		movs	r1, #26
 444 019c 2046     		mov	r0, r4
 445 019e FFF7FEFF 		bl	lv_event_send
 446 01a2 1722     		movs	r2, #23
 447 01a4 2946     		mov	r1, r5
 448 01a6 2046     		mov	r0, r4
 449 01a8 FFF7FEFF 		bl	lv_obj_get_style_prop
 450 01ac 20B1     		cbz	r0, .L51
 451 01ae BDF90830 		ldrsh	r3, [sp, #8]
 452 01b2 9BB9     		cbnz	r3, .L52
 453 01b4 2B46     		mov	r3, r5
 454 01b6 00E0     		b	.L47
 455              	.L51:
 456 01b8 0023     		movs	r3, #0
 457              	.L47:
 458 01ba 069F     		ldr	r7, [sp, #24]
 459 01bc 1D46     		mov	r5, r3
 460 01be 0BB1     		cbz	r3, .L48
 461 01c0 0023     		movs	r3, #0
 462 01c2 0693     		str	r3, [sp, #24]
 463              	.L48:
ARM GAS  /var/folders/lp/x54gwt890xv47sdkqj1k04q40000gn/T//ccJrhrKR.s 			page 9


 464 01c4 6A46     		mov	r2, sp
 465 01c6 02A9     		add	r1, sp, #8
 466 01c8 3046     		mov	r0, r6
 467 01ca FFF7FEFF 		bl	lv_draw_rect
 468 01ce 3DB9     		cbnz	r5, .L58
 469              	.L49:
 470 01d0 10AA     		add	r2, sp, #64
 471 01d2 1B21     		movs	r1, #27
 472 01d4 2046     		mov	r0, r4
 473 01d6 FFF7FEFF 		bl	lv_event_send
 474 01da 23E7     		b	.L37
 475              	.L52:
 476 01dc 0123     		movs	r3, #1
 477 01de ECE7     		b	.L47
 478              	.L58:
 479 01e0 1820     		movs	r0, #24
 480 01e2 FFF7FEFF 		bl	lv_mem_buf_get
 481 01e6 0546     		mov	r5, r0
 482 01e8 0023     		movs	r3, #0
 483 01ea BDF90820 		ldrsh	r2, [sp, #8]
 484 01ee 04F11401 		add	r1, r4, #20
 485 01f2 FFF7FEFF 		bl	lv_draw_mask_radius_init
 486 01f6 04F59071 		add	r1, r4, #288
 487 01fa 2846     		mov	r0, r5
 488 01fc FFF7FEFF 		bl	lv_draw_mask_add
 489 0200 002F     		cmp	r7, #0
 490 0202 E5D0     		beq	.L49
 491 0204 0023     		movs	r3, #0
 492 0206 8DF80B30 		strb	r3, [sp, #11]
 493 020a 8DF82A30 		strb	r3, [sp, #42]
 494 020e 8DF83230 		strb	r3, [sp, #50]
 495 0212 8DF83E30 		strb	r3, [sp, #62]
 496 0216 0697     		str	r7, [sp, #24]
 497 0218 6A46     		mov	r2, sp
 498 021a 02A9     		add	r1, sp, #8
 499 021c 3046     		mov	r0, r6
 500 021e FFF7FEFF 		bl	lv_draw_rect
 501 0222 D5E7     		b	.L49
 502              	.L56:
 503 0224 3046     		mov	r0, r6
 504 0226 FFF7FEFF 		bl	lv_event_get_draw_ctx
 505 022a 0546     		mov	r5, r0
 506 022c 0146     		mov	r1, r0
 507 022e 2046     		mov	r0, r4
 508 0230 FFF7FEFF 		bl	draw_scrollbar
 509 0234 1722     		movs	r2, #23
 510 0236 0021     		movs	r1, #0
 511 0238 2046     		mov	r0, r4
 512 023a FFF7FEFF 		bl	lv_obj_get_style_prop
 513 023e 0028     		cmp	r0, #0
 514 0240 64D1     		bne	.L59
 515              	.L50:
 516 0242 3422     		movs	r2, #52
 517 0244 0021     		movs	r1, #0
 518 0246 2046     		mov	r0, r4
 519 0248 FFF7FEFF 		bl	lv_obj_get_style_prop
 520 024c 0028     		cmp	r0, #0
ARM GAS  /var/folders/lp/x54gwt890xv47sdkqj1k04q40000gn/T//ccJrhrKR.s 			page 10


 521 024e 3FF4E9AE 		beq	.L37
 522 0252 0DF10808 		add	r8, sp, #8
 523 0256 4046     		mov	r0, r8
 524 0258 FFF7FEFF 		bl	lv_draw_rect_dsc_init
 525 025c 0026     		movs	r6, #0
 526 025e 8DF80B60 		strb	r6, [sp, #11]
 527 0262 8DF82260 		strb	r6, [sp, #34]
 528 0266 8DF83260 		strb	r6, [sp, #50]
 529 026a 8DF83E60 		strb	r6, [sp, #62]
 530 026e 4246     		mov	r2, r8
 531 0270 3146     		mov	r1, r6
 532 0272 2046     		mov	r0, r4
 533 0274 FFF7FEFF 		bl	lv_obj_init_draw_rect_dsc
 534 0278 6922     		movs	r2, #105
 535 027a 3146     		mov	r1, r6
 536 027c 2046     		mov	r0, r4
 537 027e FFF7FEFF 		bl	lv_obj_get_style_prop
 538 0282 0746     		mov	r7, r0
 539 0284 6A22     		movs	r2, #106
 540 0286 3146     		mov	r1, r6
 541 0288 2046     		mov	r0, r4
 542 028a FFF7FEFF 		bl	lv_obj_get_style_prop
 543 028e B4F91420 		ldrsh	r2, [r4, #20]
 544 0292 ADF80020 		strh	r2, [sp]	@ movhi
 545 0296 B4F91630 		ldrsh	r3, [r4, #22]
 546 029a ADF80230 		strh	r3, [sp, #2]	@ movhi
 547 029e B4F918C0 		ldrsh	ip, [r4, #24]
 548 02a2 ADF804C0 		strh	ip, [sp, #4]	@ movhi
 549 02a6 B4F91A10 		ldrsh	r1, [r4, #26]
 550 02aa ADF80610 		strh	r1, [sp, #6]	@ movhi
 551 02ae 92B2     		uxth	r2, r2
 552 02b0 BFB2     		uxth	r7, r7
 553 02b2 D21B     		subs	r2, r2, r7
 554 02b4 ADF80020 		strh	r2, [sp]	@ movhi
 555 02b8 17FA8CFC 		uxtah	ip, r7, ip
 556 02bc ADF804C0 		strh	ip, [sp, #4]	@ movhi
 557 02c0 9BB2     		uxth	r3, r3
 558 02c2 80B2     		uxth	r0, r0
 559 02c4 1B1A     		subs	r3, r3, r0
 560 02c6 ADF80230 		strh	r3, [sp, #2]	@ movhi
 561 02ca 10FA81F1 		uxtah	r1, r0, r1
 562 02ce ADF80610 		strh	r1, [sp, #6]	@ movhi
 563 02d2 2946     		mov	r1, r5
 564 02d4 10A8     		add	r0, sp, #64
 565 02d6 FFF7FEFF 		bl	lv_obj_draw_dsc_init
 566 02da 134B     		ldr	r3, .L60
 567 02dc 1193     		str	r3, [sp, #68]
 568 02de 0123     		movs	r3, #1
 569 02e0 1293     		str	r3, [sp, #72]
 570 02e2 CDF85080 		str	r8, [sp, #80]
 571 02e6 CDF84CD0 		str	sp, [sp, #76]
 572 02ea 1D96     		str	r6, [sp, #116]
 573 02ec 10AA     		add	r2, sp, #64
 574 02ee 1A21     		movs	r1, #26
 575 02f0 2046     		mov	r0, r4
 576 02f2 FFF7FEFF 		bl	lv_event_send
 577 02f6 6A46     		mov	r2, sp
ARM GAS  /var/folders/lp/x54gwt890xv47sdkqj1k04q40000gn/T//ccJrhrKR.s 			page 11


 578 02f8 4146     		mov	r1, r8
 579 02fa 2846     		mov	r0, r5
 580 02fc FFF7FEFF 		bl	lv_draw_rect
 581 0300 10AA     		add	r2, sp, #64
 582 0302 1B21     		movs	r1, #27
 583 0304 2046     		mov	r0, r4
 584 0306 FFF7FEFF 		bl	lv_event_send
 585 030a 8BE6     		b	.L37
 586              	.L59:
 587 030c 04F59070 		add	r0, r4, #288
 588 0310 FFF7FEFF 		bl	lv_draw_mask_remove_custom
 589 0314 0646     		mov	r6, r0
 590 0316 0028     		cmp	r0, #0
 591 0318 93D0     		beq	.L50
 592 031a FFF7FEFF 		bl	lv_draw_mask_free_param
 593 031e 3046     		mov	r0, r6
 594 0320 FFF7FEFF 		bl	lv_mem_buf_release
 595 0324 8DE7     		b	.L50
 596              	.L61:
 597 0326 00BF     		.align	2
 598              	.L60:
 599 0328 00000000 		.word	lv_obj_class
 601              		.section	.text.lv_obj_constructor,"ax",%progbits
 602              		.align	1
 603              		.syntax unified
 604              		.thumb
 605              		.thumb_func
 607              	lv_obj_constructor:
 608              		@ args = 0, pretend = 0, frame = 0
 609              		@ frame_needed = 0, uses_anonymous_args = 0
 610 0000 2DE9F041 		push	{r4, r5, r6, r7, r8, lr}
 611 0004 0C46     		mov	r4, r1
 612 0006 4D68     		ldr	r5, [r1, #4]
 613 0008 25B3     		cbz	r5, .L63
 614 000a 2846     		mov	r0, r5
 615 000c FFF7FEFF 		bl	lv_obj_get_scroll_left
 616 0010 0646     		mov	r6, r0
 617 0012 2846     		mov	r0, r5
 618 0014 FFF7FEFF 		bl	lv_obj_get_scroll_top
 619 0018 0746     		mov	r7, r0
 620 001a B5F81680 		ldrh	r8, [r5, #22]
 621 001e 1022     		movs	r2, #16
 622 0020 0021     		movs	r1, #0
 623 0022 2846     		mov	r0, r5
 624 0024 FFF7FEFF 		bl	lv_obj_get_style_prop
 625 0028 18FA80F3 		uxtah	r3, r8, r0
 626 002c 9BB2     		uxth	r3, r3
 627 002e DB1B     		subs	r3, r3, r7
 628 0030 9AB2     		uxth	r2, r3
 629 0032 E382     		strh	r3, [r4, #22]	@ movhi
 630 0034 531E     		subs	r3, r2, #1
 631 0036 6383     		strh	r3, [r4, #26]	@ movhi
 632 0038 AF8A     		ldrh	r7, [r5, #20]
 633 003a 1222     		movs	r2, #18
 634 003c 0021     		movs	r1, #0
 635 003e 2846     		mov	r0, r5
 636 0040 FFF7FEFF 		bl	lv_obj_get_style_prop
ARM GAS  /var/folders/lp/x54gwt890xv47sdkqj1k04q40000gn/T//ccJrhrKR.s 			page 12


 637 0044 17FA80F3 		uxtah	r3, r7, r0
 638 0048 9BB2     		uxth	r3, r3
 639 004a 981B     		subs	r0, r3, r6
 640 004c 83B2     		uxth	r3, r0
 641 004e A082     		strh	r0, [r4, #20]	@ movhi
 642 0050 013B     		subs	r3, r3, #1
 643 0052 2383     		strh	r3, [r4, #24]	@ movhi
 644              	.L63:
 645 0054 0223     		movs	r3, #2
 646 0056 E361     		str	r3, [r4, #28]
 647 0058 41F20203 		movw	r3, #4098
 648 005c E361     		str	r3, [r4, #28]
 649 005e 2DB1     		cbz	r5, .L64
 650 0060 43F20203 		movw	r3, #12290
 651 0064 E361     		str	r3, [r4, #28]
 652 0066 43F20233 		movw	r3, #13058
 653 006a E361     		str	r3, [r4, #28]
 654              	.L64:
 655 006c E369     		ldr	r3, [r4, #28]
 656 006e 43F00402 		orr	r2, r3, #4
 657 0072 E261     		str	r2, [r4, #28]
 658 0074 43F01402 		orr	r2, r3, #20
 659 0078 E261     		str	r2, [r4, #28]
 660 007a 43F03402 		orr	r2, r3, #52
 661 007e E261     		str	r2, [r4, #28]
 662 0080 43F07402 		orr	r2, r3, #116
 663 0084 E261     		str	r2, [r4, #28]
 664 0086 43F40762 		orr	r2, r3, #2160
 665 008a 42F00402 		orr	r2, r2, #4
 666 008e E261     		str	r2, [r4, #28]
 667 0090 25B1     		cbz	r5, .L62
 668 0092 43F40843 		orr	r3, r3, #34816
 669 0096 43F07403 		orr	r3, r3, #116
 670 009a E361     		str	r3, [r4, #28]
 671              	.L62:
 672 009c BDE8F081 		pop	{r4, r5, r6, r7, r8, pc}
 674              		.section	.text.lv_style_get_prop_inlined,"ax",%progbits
 675              		.align	1
 676              		.syntax unified
 677              		.thumb
 678              		.thumb_func
 680              	lv_style_get_prop_inlined:
 681              		@ args = 0, pretend = 0, frame = 0
 682              		@ frame_needed = 0, uses_anonymous_args = 0
 683 0000 38B5     		push	{r3, r4, r5, lr}
 684 0002 8446     		mov	ip, r0
 685 0004 1446     		mov	r4, r2
 686 0006 8388     		ldrh	r3, [r0, #4]
 687 0008 4FF6FF72 		movw	r2, #65535
 688 000c 9342     		cmp	r3, r2
 689 000e 19D0     		beq	.L90
 690 0010 C079     		ldrb	r0, [r0, #7]	@ zero_extendqisi2
 691 0012 48B3     		cbz	r0, .L71
 692 0014 0128     		cmp	r0, #1
 693 0016 42D9     		bls	.L75
 694 0018 DCF80050 		ldr	r5, [ip]
 695 001c 8646     		mov	lr, r0
ARM GAS  /var/folders/lp/x54gwt890xv47sdkqj1k04q40000gn/T//ccJrhrKR.s 			page 13


 696 001e 05EB800C 		add	ip, r5, r0, lsl #2
 697 0022 0023     		movs	r3, #0
 698 0024 26E0     		b	.L76
 699              	.L93:
 700 0026 12F4004F 		tst	r2, #32768
 701 002a 4DD1     		bne	.L84
 702 002c 12F4804F 		tst	r2, #16384
 703 0030 04D1     		bne	.L91
 704 0032 DEF80430 		ldr	r3, [lr, #4]
 705 0036 2360     		str	r3, [r4]
 706              	.L73:
 707 0038 0120     		movs	r0, #1
 708 003a 15E0     		b	.L71
 709              	.L91:
 710 003c FFF7FEFF 		bl	lv_style_prop_get_default
 711 0040 2060     		str	r0, [r4]
 712 0042 F9E7     		b	.L73
 713              	.L90:
 714 0044 0023     		movs	r3, #0
 715              	.L68:
 716 0046 9CF80720 		ldrb	r2, [ip, #7]	@ zero_extendqisi2
 717 004a 9A42     		cmp	r2, r3
 718 004c 0BD9     		bls	.L92
 719 004e DCF80000 		ldr	r0, [ip]
 720 0052 00EBC30E 		add	lr, r0, r3, lsl #3
 721 0056 30F83320 		ldrh	r2, [r0, r3, lsl #3]
 722 005a C2F30D00 		ubfx	r0, r2, #0, #14
 723 005e 8142     		cmp	r1, r0
 724 0060 E1D0     		beq	.L93
 725 0062 0133     		adds	r3, r3, #1
 726 0064 EFE7     		b	.L68
 727              	.L92:
 728 0066 0020     		movs	r0, #0
 729              	.L71:
 730 0068 38BD     		pop	{r3, r4, r5, pc}
 731              	.L95:
 732 006a FFF7FEFF 		bl	lv_style_prop_get_default
 733 006e 2060     		str	r0, [r4]
 734 0070 11E0     		b	.L79
 735              	.L77:
 736 0072 0133     		adds	r3, r3, #1
 737              	.L76:
 738 0074 9E45     		cmp	lr, r3
 739 0076 10D9     		bls	.L94
 740 0078 3CF81320 		ldrh	r2, [ip, r3, lsl #1]
 741 007c C2F30D00 		ubfx	r0, r2, #0, #14
 742 0080 8142     		cmp	r1, r0
 743 0082 F6D1     		bne	.L77
 744 0084 12F4004F 		tst	r2, #32768
 745 0088 20D1     		bne	.L85
 746 008a 12F4804F 		tst	r2, #16384
 747 008e ECD1     		bne	.L95
 748 0090 55F82330 		ldr	r3, [r5, r3, lsl #2]
 749 0094 2360     		str	r3, [r4]
 750              	.L79:
 751 0096 0120     		movs	r0, #1
 752 0098 E6E7     		b	.L71
ARM GAS  /var/folders/lp/x54gwt890xv47sdkqj1k04q40000gn/T//ccJrhrKR.s 			page 14


 753              	.L94:
 754 009a 0020     		movs	r0, #0
 755 009c E4E7     		b	.L71
 756              	.L75:
 757 009e C3F30D00 		ubfx	r0, r3, #0, #14
 758 00a2 8142     		cmp	r1, r0
 759 00a4 01D0     		beq	.L96
 760 00a6 0020     		movs	r0, #0
 761 00a8 DEE7     		b	.L71
 762              	.L96:
 763 00aa 13F4004F 		tst	r3, #32768
 764 00ae 0FD1     		bne	.L87
 765 00b0 13F4804F 		tst	r3, #16384
 766 00b4 04D1     		bne	.L97
 767 00b6 DCF80030 		ldr	r3, [ip]
 768 00ba 2360     		str	r3, [r4]
 769              	.L82:
 770 00bc 0120     		movs	r0, #1
 771 00be D3E7     		b	.L71
 772              	.L97:
 773 00c0 FFF7FEFF 		bl	lv_style_prop_get_default
 774 00c4 2060     		str	r0, [r4]
 775 00c6 F9E7     		b	.L82
 776              	.L84:
 777 00c8 0220     		movs	r0, #2
 778 00ca CDE7     		b	.L71
 779              	.L85:
 780 00cc 0220     		movs	r0, #2
 781 00ce CBE7     		b	.L71
 782              	.L87:
 783 00d0 0220     		movs	r0, #2
 784 00d2 C9E7     		b	.L71
 786              		.section	.text.lv_obj_set_state,"ax",%progbits
 787              		.align	1
 788              		.syntax unified
 789              		.thumb
 790              		.thumb_func
 792              	lv_obj_set_state:
 793              		@ args = 0, pretend = 0, frame = 48
 794              		@ frame_needed = 0, uses_anonymous_args = 0
 795 0000 2DE9F04F 		push	{r4, r5, r6, r7, r8, r9, r10, fp, lr}
 796 0004 8FB0     		sub	sp, sp, #60
 797 0006 0591     		str	r1, [sp, #20]
 798 0008 078C     		ldrh	r7, [r0, #32]
 799 000a 8F42     		cmp	r7, r1
 800 000c 08D0     		beq	.L98
 801 000e 0446     		mov	r4, r0
 802 0010 0D46     		mov	r5, r1
 803 0012 0184     		strh	r1, [r0, #32]	@ movhi
 804 0014 0A46     		mov	r2, r1
 805 0016 3946     		mov	r1, r7
 806 0018 FFF7FEFF 		bl	_lv_obj_style_state_compare
 807 001c 0646     		mov	r6, r0
 808 001e 10B9     		cbnz	r0, .L120
 809              	.L98:
 810 0020 0FB0     		add	sp, sp, #60
 811              		@ sp needed
ARM GAS  /var/folders/lp/x54gwt890xv47sdkqj1k04q40000gn/T//ccJrhrKR.s 			page 15


 812 0022 BDE8F08F 		pop	{r4, r5, r6, r7, r8, r9, r10, fp, pc}
 813              	.L120:
 814 0026 4FF42070 		mov	r0, #640
 815 002a FFF7FEFF 		bl	lv_mem_buf_get
 816 002e 8346     		mov	fp, r0
 817 0030 4FF42071 		mov	r1, #640
 818 0034 FFF7FEFF 		bl	lv_memset_00
 819 0038 4FF00009 		mov	r9, #0
 820 003c CA46     		mov	r10, r9
 821 003e 0797     		str	r7, [sp, #28]
 822 0040 0896     		str	r6, [sp, #32]
 823 0042 2746     		mov	r7, r4
 824 0044 4C46     		mov	r4, r9
 825 0046 A946     		mov	r9, r5
 826 0048 54E0     		b	.L100
 827              	.L103:
 828 004a 0134     		adds	r4, r4, #1
 829              	.L108:
 830 004c A742     		cmp	r7, r4
 831 004e 18D9     		bls	.L104
 832 0050 04EB8405 		add	r5, r4, r4, lsl #2
 833 0054 0BEB8505 		add	r5, fp, r5, lsl #2
 834 0058 6E68     		ldr	r6, [r5, #4]
 835 005a 3046     		mov	r0, r6
 836 005c FFF7FEFF 		bl	lv_obj_style_get_selector_state
 837 0060 0290     		str	r0, [sp, #8]
 838 0062 3046     		mov	r0, r6
 839 0064 FFF7FEFF 		bl	lv_obj_style_get_selector_part
 840 0068 2A89     		ldrh	r2, [r5, #8]
 841 006a D8F80030 		ldr	r3, [r8]
 842 006e 33F80930 		ldrh	r3, [r3, r9]
 843 0072 9A42     		cmp	r2, r3
 844 0074 E9D1     		bne	.L103
 845 0076 8245     		cmp	r10, r0
 846 0078 E7D1     		bne	.L103
 847 007a 039B     		ldr	r3, [sp, #12]
 848 007c 029A     		ldr	r2, [sp, #8]
 849 007e 9342     		cmp	r3, r2
 850 0080 E3D8     		bhi	.L103
 851              	.L104:
 852 0082 049D     		ldr	r5, [sp, #16]
 853 0084 A742     		cmp	r7, r4
 854 0086 0CD0     		beq	.L121
 855              	.L106:
 856 0088 0135     		adds	r5, r5, #1
 857              	.L102:
 858 008a D8F80030 		ldr	r3, [r8]
 859 008e 4FEA4509 		lsl	r9, r5, #1
 860 0092 33F81530 		ldrh	r3, [r3, r5, lsl #1]
 861 0096 3BB3     		cbz	r3, .L118
 862 0098 1F2F     		cmp	r7, #31
 863 009a 1FD8     		bhi	.L122
 864 009c 0024     		movs	r4, #0
 865 009e 0495     		str	r5, [sp, #16]
 866 00a0 D4E7     		b	.L108
 867              	.L121:
 868 00a2 D8F80C10 		ldr	r1, [r8, #12]
ARM GAS  /var/folders/lp/x54gwt890xv47sdkqj1k04q40000gn/T//ccJrhrKR.s 			page 16


 869 00a6 07EB8700 		add	r0, r7, r7, lsl #2
 870 00aa 0BEB8003 		add	r3, fp, r0, lsl #2
 871 00ae 2BF82010 		strh	r1, [fp, r0, lsl #2]	@ movhi
 872 00b2 D8F81010 		ldr	r1, [r8, #16]
 873 00b6 5980     		strh	r1, [r3, #2]	@ movhi
 874 00b8 D8F80810 		ldr	r1, [r8, #8]
 875 00bc D960     		str	r1, [r3, #12]
 876 00be D8F80010 		ldr	r1, [r8]
 877 00c2 31F80910 		ldrh	r1, [r1, r9]
 878 00c6 1981     		strh	r1, [r3, #8]	@ movhi
 879 00c8 D8F80410 		ldr	r1, [r8, #4]
 880 00cc 1961     		str	r1, [r3, #16]
 881 00ce 069A     		ldr	r2, [sp, #24]
 882 00d0 5168     		ldr	r1, [r2, #4]
 883 00d2 C1F31701 		ubfx	r1, r1, #0, #24
 884 00d6 5960     		str	r1, [r3, #4]
 885 00d8 0137     		adds	r7, r7, #1
 886 00da D5E7     		b	.L106
 887              	.L122:
 888 00dc BA46     		mov	r10, r7
 889 00de 099C     		ldr	r4, [sp, #36]
 890 00e0 0A9F     		ldr	r7, [sp, #40]
 891 00e2 DDF82C90 		ldr	r9, [sp, #44]
 892 00e6 04E0     		b	.L109
 893              	.L118:
 894 00e8 BA46     		mov	r10, r7
 895 00ea 099C     		ldr	r4, [sp, #36]
 896 00ec 0A9F     		ldr	r7, [sp, #40]
 897 00ee DDF82C90 		ldr	r9, [sp, #44]
 898              	.L109:
 899 00f2 0134     		adds	r4, r4, #1
 900              	.L100:
 901 00f4 7B8C     		ldrh	r3, [r7, #34]
 902 00f6 C3F30513 		ubfx	r3, r3, #4, #6
 903 00fa A342     		cmp	r3, r4
 904 00fc 5CD9     		bls	.L117
 905 00fe BAF11F0F 		cmp	r10, #31
 906 0102 2FD8     		bhi	.L123
 907 0104 D7F80C80 		ldr	r8, [r7, #12]
 908 0108 E600     		lsls	r6, r4, #3
 909 010a 08EBC405 		add	r5, r8, r4, lsl #3
 910 010e 6868     		ldr	r0, [r5, #4]
 911 0110 20F07F40 		bic	r0, r0, #-16777216
 912 0114 FFF7FEFF 		bl	lv_obj_style_get_selector_state
 913 0118 0390     		str	r0, [sp, #12]
 914 011a FB68     		ldr	r3, [r7, #12]
 915 011c 3344     		add	r3, r3, r6
 916 011e 5868     		ldr	r0, [r3, #4]
 917 0120 20F07F40 		bic	r0, r0, #-16777216
 918 0124 FFF7FEFF 		bl	lv_obj_style_get_selector_part
 919 0128 0290     		str	r0, [sp, #8]
 920 012a 039B     		ldr	r3, [sp, #12]
 921 012c 33EA0903 		bics	r3, r3, r9
 922 0130 DFD1     		bne	.L109
 923 0132 EB79     		ldrb	r3, [r5, #7]	@ zero_extendqisi2
 924 0134 13F0020F 		tst	r3, #2
 925 0138 DBD1     		bne	.L109
ARM GAS  /var/folders/lp/x54gwt890xv47sdkqj1k04q40000gn/T//ccJrhrKR.s 			page 17


 926 013a 0DAA     		add	r2, sp, #52
 927 013c 6721     		movs	r1, #103
 928 013e 58F80600 		ldr	r0, [r8, r6]
 929 0142 FFF7FEFF 		bl	lv_style_get_prop_inlined
 930 0146 0128     		cmp	r0, #1
 931 0148 D3D1     		bne	.L109
 932 014a DDF83480 		ldr	r8, [sp, #52]
 933 014e 0026     		movs	r6, #0
 934 0150 0994     		str	r4, [sp, #36]
 935 0152 0695     		str	r5, [sp, #24]
 936 0154 3546     		mov	r5, r6
 937 0156 0A97     		str	r7, [sp, #40]
 938 0158 5746     		mov	r7, r10
 939 015a DDF808A0 		ldr	r10, [sp, #8]
 940 015e CDF82C90 		str	r9, [sp, #44]
 941 0162 92E7     		b	.L102
 942              	.L123:
 943 0164 089E     		ldr	r6, [sp, #32]
 944 0166 3C46     		mov	r4, r7
 945 0168 079F     		ldr	r7, [sp, #28]
 946 016a 0025     		movs	r5, #0
 947 016c B846     		mov	r8, r7
 948 016e DDF81490 		ldr	r9, [sp, #20]
 949 0172 0EE0     		b	.L112
 950              	.L113:
 951 0174 05EB8507 		add	r7, r5, r5, lsl #2
 952 0178 0BEB8707 		add	r7, fp, r7, lsl #2
 953 017c 7868     		ldr	r0, [r7, #4]
 954 017e FFF7FEFF 		bl	lv_obj_style_get_selector_part
 955 0182 0146     		mov	r1, r0
 956 0184 0097     		str	r7, [sp]
 957 0186 4B46     		mov	r3, r9
 958 0188 4246     		mov	r2, r8
 959 018a 2046     		mov	r0, r4
 960 018c FFF7FEFF 		bl	_lv_obj_style_create_transition
 961 0190 0135     		adds	r5, r5, #1
 962              	.L112:
 963 0192 AA45     		cmp	r10, r5
 964 0194 EED8     		bhi	.L113
 965 0196 5846     		mov	r0, fp
 966 0198 FFF7FEFF 		bl	lv_mem_buf_release
 967 019c 012E     		cmp	r6, #1
 968 019e 13D0     		beq	.L124
 969 01a0 032E     		cmp	r6, #3
 970 01a2 15D0     		beq	.L125
 971 01a4 022E     		cmp	r6, #2
 972 01a6 7FF43BAF 		bne	.L98
 973 01aa 2046     		mov	r0, r4
 974 01ac FFF7FEFF 		bl	lv_obj_invalidate
 975 01b0 2046     		mov	r0, r4
 976 01b2 FFF7FEFF 		bl	lv_obj_refresh_ext_draw_size
 977 01b6 33E7     		b	.L98
 978              	.L117:
 979 01b8 089E     		ldr	r6, [sp, #32]
 980 01ba 3C46     		mov	r4, r7
 981 01bc 079F     		ldr	r7, [sp, #28]
 982 01be 0025     		movs	r5, #0
ARM GAS  /var/folders/lp/x54gwt890xv47sdkqj1k04q40000gn/T//ccJrhrKR.s 			page 18


 983 01c0 B846     		mov	r8, r7
 984 01c2 DDF81490 		ldr	r9, [sp, #20]
 985 01c6 E4E7     		b	.L112
 986              	.L124:
 987 01c8 2046     		mov	r0, r4
 988 01ca FFF7FEFF 		bl	lv_obj_invalidate
 989 01ce 27E7     		b	.L98
 990              	.L125:
 991 01d0 4FF6FF72 		movw	r2, #65535
 992 01d4 4FF47021 		mov	r1, #983040
 993 01d8 2046     		mov	r0, r4
 994 01da FFF7FEFF 		bl	lv_obj_refresh_style
 995 01de 1FE7     		b	.L98
 997              		.section	.text.lv_is_initialized,"ax",%progbits
 998              		.align	1
 999              		.global	lv_is_initialized
 1000              		.syntax unified
 1001              		.thumb
 1002              		.thumb_func
 1004              	lv_is_initialized:
 1005              		@ args = 0, pretend = 0, frame = 0
 1006              		@ frame_needed = 0, uses_anonymous_args = 0
 1007              		@ link register save eliminated.
 1008 0000 014B     		ldr	r3, .L127
 1009 0002 1878     		ldrb	r0, [r3]	@ zero_extendqisi2
 1010 0004 7047     		bx	lr
 1011              	.L128:
 1012 0006 00BF     		.align	2
 1013              	.L127:
 1014 0008 00000000 		.word	lv_initialized
 1016              		.section	.text.lv_init,"ax",%progbits
 1017              		.align	1
 1018              		.global	lv_init
 1019              		.syntax unified
 1020              		.thumb
 1021              		.thumb_func
 1023              	lv_init:
 1024              		@ args = 0, pretend = 0, frame = 0
 1025              		@ frame_needed = 0, uses_anonymous_args = 0
 1026 0000 08B5     		push	{r3, lr}
 1027 0002 124B     		ldr	r3, .L133
 1028 0004 1B78     		ldrb	r3, [r3]	@ zero_extendqisi2
 1029 0006 03B1     		cbz	r3, .L132
 1030              	.L129:
 1031 0008 08BD     		pop	{r3, pc}
 1032              	.L132:
 1033 000a FFF7FEFF 		bl	lv_mem_init
 1034 000e FFF7FEFF 		bl	_lv_timer_core_init
 1035 0012 FFF7FEFF 		bl	_lv_fs_init
 1036 0016 FFF7FEFF 		bl	_lv_anim_core_init
 1037 001a FFF7FEFF 		bl	_lv_group_init
 1038 001e FFF7FEFF 		bl	lv_draw_init
 1039 0022 FFF7FEFF 		bl	_lv_obj_style_init
 1040 0026 4FF4B471 		mov	r1, #360
 1041 002a 0948     		ldr	r0, .L133+4
 1042 002c FFF7FEFF 		bl	_lv_ll_init
 1043 0030 5C21     		movs	r1, #92
ARM GAS  /var/folders/lp/x54gwt890xv47sdkqj1k04q40000gn/T//ccJrhrKR.s 			page 19


 1044 0032 0848     		ldr	r0, .L133+8
 1045 0034 FFF7FEFF 		bl	_lv_ll_init
 1046 0038 FFF7FEFF 		bl	_lv_refr_init
 1047 003c FFF7FEFF 		bl	_lv_img_decoder_init
 1048 0040 FFF7FEFF 		bl	lv_extra_init
 1049 0044 014B     		ldr	r3, .L133
 1050 0046 0122     		movs	r2, #1
 1051 0048 1A70     		strb	r2, [r3]
 1052 004a DDE7     		b	.L129
 1053              	.L134:
 1054              		.align	2
 1055              	.L133:
 1056 004c 00000000 		.word	lv_initialized
 1057 0050 00000000 		.word	_lv_disp_ll
 1058 0054 00000000 		.word	_lv_indev_ll
 1060              		.section	.text.lv_deinit,"ax",%progbits
 1061              		.align	1
 1062              		.global	lv_deinit
 1063              		.syntax unified
 1064              		.thumb
 1065              		.thumb_func
 1067              	lv_deinit:
 1068              		@ args = 0, pretend = 0, frame = 0
 1069              		@ frame_needed = 0, uses_anonymous_args = 0
 1070 0000 08B5     		push	{r3, lr}
 1071 0002 FFF7FEFF 		bl	_lv_gc_clear_roots
 1072 0006 0020     		movs	r0, #0
 1073 0008 FFF7FEFF 		bl	lv_disp_set_default
 1074 000c FFF7FEFF 		bl	lv_mem_deinit
 1075 0010 014B     		ldr	r3, .L137
 1076 0012 0022     		movs	r2, #0
 1077 0014 1A70     		strb	r2, [r3]
 1078 0016 08BD     		pop	{r3, pc}
 1079              	.L138:
 1080              		.align	2
 1081              	.L137:
 1082 0018 00000000 		.word	lv_initialized
 1084              		.section	.text.lv_obj_create,"ax",%progbits
 1085              		.align	1
 1086              		.global	lv_obj_create
 1087              		.syntax unified
 1088              		.thumb
 1089              		.thumb_func
 1091              	lv_obj_create:
 1092              		@ args = 0, pretend = 0, frame = 0
 1093              		@ frame_needed = 0, uses_anonymous_args = 0
 1094 0000 10B5     		push	{r4, lr}
 1095 0002 0146     		mov	r1, r0
 1096 0004 0348     		ldr	r0, .L141
 1097 0006 FFF7FEFF 		bl	lv_obj_class_create_obj
 1098 000a 0446     		mov	r4, r0
 1099 000c FFF7FEFF 		bl	lv_obj_class_init_obj
 1100 0010 2046     		mov	r0, r4
 1101 0012 10BD     		pop	{r4, pc}
 1102              	.L142:
 1103              		.align	2
 1104              	.L141:
ARM GAS  /var/folders/lp/x54gwt890xv47sdkqj1k04q40000gn/T//ccJrhrKR.s 			page 20


 1105 0014 00000000 		.word	lv_obj_class
 1107              		.section	.text.lv_obj_clear_flag,"ax",%progbits
 1108              		.align	1
 1109              		.global	lv_obj_clear_flag
 1110              		.syntax unified
 1111              		.thumb
 1112              		.thumb_func
 1114              	lv_obj_clear_flag:
 1115              		@ args = 0, pretend = 0, frame = 16
 1116              		@ frame_needed = 0, uses_anonymous_args = 0
 1117 0000 70B5     		push	{r4, r5, r6, lr}
 1118 0002 84B0     		sub	sp, sp, #16
 1119 0004 0446     		mov	r4, r0
 1120 0006 0D46     		mov	r5, r1
 1121 0008 FFF7FEFF 		bl	lv_obj_is_layout_positioned
 1122 000c 0646     		mov	r6, r0
 1123 000e 15F0100F 		tst	r5, #16
 1124 0012 15D1     		bne	.L149
 1125              	.L144:
 1126 0014 E369     		ldr	r3, [r4, #28]
 1127 0016 23EA0503 		bic	r3, r3, r5
 1128 001a E361     		str	r3, [r4, #28]
 1129 001c 15F0010F 		tst	r5, #1
 1130 0020 1CD1     		bne	.L150
 1131              	.L145:
 1132 0022 2046     		mov	r0, r4
 1133 0024 FFF7FEFF 		bl	lv_obj_is_layout_positioned
 1134 0028 B042     		cmp	r0, r6
 1135 002a 02D1     		bne	.L146
 1136 002c 15F0C07F 		tst	r5, #25165824
 1137 0030 04D0     		beq	.L143
 1138              	.L146:
 1139 0032 2046     		mov	r0, r4
 1140 0034 FFF7FEFF 		bl	lv_obj_get_parent
 1141 0038 FFF7FEFF 		bl	lv_obj_mark_layout_as_dirty
 1142              	.L143:
 1143 003c 04B0     		add	sp, sp, #16
 1144              		@ sp needed
 1145 003e 70BD     		pop	{r4, r5, r6, pc}
 1146              	.L149:
 1147 0040 02AA     		add	r2, sp, #8
 1148 0042 6946     		mov	r1, sp
 1149 0044 2046     		mov	r0, r4
 1150 0046 FFF7FEFF 		bl	lv_obj_get_scrollbar_area
 1151 004a 6946     		mov	r1, sp
 1152 004c 2046     		mov	r0, r4
 1153 004e FFF7FEFF 		bl	lv_obj_invalidate_area
 1154 0052 02A9     		add	r1, sp, #8
 1155 0054 2046     		mov	r0, r4
 1156 0056 FFF7FEFF 		bl	lv_obj_invalidate_area
 1157 005a DBE7     		b	.L144
 1158              	.L150:
 1159 005c 2046     		mov	r0, r4
 1160 005e FFF7FEFF 		bl	lv_obj_invalidate
 1161 0062 2046     		mov	r0, r4
 1162 0064 FFF7FEFF 		bl	lv_obj_is_layout_positioned
 1163 0068 0028     		cmp	r0, #0
ARM GAS  /var/folders/lp/x54gwt890xv47sdkqj1k04q40000gn/T//ccJrhrKR.s 			page 21


 1164 006a DAD0     		beq	.L145
 1165 006c 2046     		mov	r0, r4
 1166 006e FFF7FEFF 		bl	lv_obj_get_parent
 1167 0072 FFF7FEFF 		bl	lv_obj_mark_layout_as_dirty
 1168 0076 2046     		mov	r0, r4
 1169 0078 FFF7FEFF 		bl	lv_obj_mark_layout_as_dirty
 1170 007c D1E7     		b	.L145
 1172              		.section	.text.lv_obj_add_state,"ax",%progbits
 1173              		.align	1
 1174              		.global	lv_obj_add_state
 1175              		.syntax unified
 1176              		.thumb
 1177              		.thumb_func
 1179              	lv_obj_add_state:
 1180              		@ args = 0, pretend = 0, frame = 0
 1181              		@ frame_needed = 0, uses_anonymous_args = 0
 1182 0000 08B5     		push	{r3, lr}
 1183 0002 038C     		ldrh	r3, [r0, #32]
 1184 0004 43EA0102 		orr	r2, r3, r1
 1185 0008 31EA0303 		bics	r3, r1, r3
 1186 000c 00D1     		bne	.L154
 1187              	.L151:
 1188 000e 08BD     		pop	{r3, pc}
 1189              	.L154:
 1190 0010 1146     		mov	r1, r2
 1191 0012 FFF7FEFF 		bl	lv_obj_set_state
 1192 0016 FAE7     		b	.L151
 1194              		.section	.text.lv_obj_clear_state,"ax",%progbits
 1195              		.align	1
 1196              		.global	lv_obj_clear_state
 1197              		.syntax unified
 1198              		.thumb
 1199              		.thumb_func
 1201              	lv_obj_clear_state:
 1202              		@ args = 0, pretend = 0, frame = 0
 1203              		@ frame_needed = 0, uses_anonymous_args = 0
 1204 0000 08B5     		push	{r3, lr}
 1205 0002 028C     		ldrh	r2, [r0, #32]
 1206 0004 CB43     		mvns	r3, r1
 1207 0006 1BB2     		sxth	r3, r3
 1208 0008 02EA0301 		and	r1, r2, r3
 1209 000c 9A43     		bics	r2, r2, r3
 1210 000e 00D1     		bne	.L158
 1211              	.L155:
 1212 0010 08BD     		pop	{r3, pc}
 1213              	.L158:
 1214 0012 FFF7FEFF 		bl	lv_obj_set_state
 1215 0016 FBE7     		b	.L155
 1217              		.section	.text.lv_obj_has_flag,"ax",%progbits
 1218              		.align	1
 1219              		.global	lv_obj_has_flag
 1220              		.syntax unified
 1221              		.thumb
 1222              		.thumb_func
 1224              	lv_obj_has_flag:
 1225              		@ args = 0, pretend = 0, frame = 0
 1226              		@ frame_needed = 0, uses_anonymous_args = 0
ARM GAS  /var/folders/lp/x54gwt890xv47sdkqj1k04q40000gn/T//ccJrhrKR.s 			page 22


 1227              		@ link register save eliminated.
 1228 0000 C369     		ldr	r3, [r0, #28]
 1229 0002 9943     		bics	r1, r1, r3
 1230 0004 0CBF     		ite	eq
 1231 0006 0120     		moveq	r0, #1
 1232 0008 0020     		movne	r0, #0
 1233 000a 7047     		bx	lr
 1235              		.section	.text.lv_obj_has_flag_any,"ax",%progbits
 1236              		.align	1
 1237              		.global	lv_obj_has_flag_any
 1238              		.syntax unified
 1239              		.thumb
 1240              		.thumb_func
 1242              	lv_obj_has_flag_any:
 1243              		@ args = 0, pretend = 0, frame = 0
 1244              		@ frame_needed = 0, uses_anonymous_args = 0
 1245              		@ link register save eliminated.
 1246 0000 C369     		ldr	r3, [r0, #28]
 1247 0002 0B42     		tst	r3, r1
 1248 0004 14BF     		ite	ne
 1249 0006 0120     		movne	r0, #1
 1250 0008 0020     		moveq	r0, #0
 1251 000a 7047     		bx	lr
 1253              		.section	.text.lv_obj_get_state,"ax",%progbits
 1254              		.align	1
 1255              		.global	lv_obj_get_state
 1256              		.syntax unified
 1257              		.thumb
 1258              		.thumb_func
 1260              	lv_obj_get_state:
 1261              		@ args = 0, pretend = 0, frame = 0
 1262              		@ frame_needed = 0, uses_anonymous_args = 0
 1263              		@ link register save eliminated.
 1264 0000 008C     		ldrh	r0, [r0, #32]
 1265 0002 7047     		bx	lr
 1267              		.section	.text.lv_obj_has_state,"ax",%progbits
 1268              		.align	1
 1269              		.global	lv_obj_has_state
 1270              		.syntax unified
 1271              		.thumb
 1272              		.thumb_func
 1274              	lv_obj_has_state:
 1275              		@ args = 0, pretend = 0, frame = 0
 1276              		@ frame_needed = 0, uses_anonymous_args = 0
 1277              		@ link register save eliminated.
 1278 0000 038C     		ldrh	r3, [r0, #32]
 1279 0002 0B42     		tst	r3, r1
 1280 0004 14BF     		ite	ne
 1281 0006 0120     		movne	r0, #1
 1282 0008 0020     		moveq	r0, #0
 1283 000a 7047     		bx	lr
 1285              		.section	.text.lv_obj_get_group,"ax",%progbits
 1286              		.align	1
 1287              		.global	lv_obj_get_group
 1288              		.syntax unified
 1289              		.thumb
 1290              		.thumb_func
ARM GAS  /var/folders/lp/x54gwt890xv47sdkqj1k04q40000gn/T//ccJrhrKR.s 			page 23


 1292              	lv_obj_get_group:
 1293              		@ args = 0, pretend = 0, frame = 0
 1294              		@ frame_needed = 0, uses_anonymous_args = 0
 1295              		@ link register save eliminated.
 1296 0000 8068     		ldr	r0, [r0, #8]
 1297 0002 00B1     		cbz	r0, .L163
 1298 0004 8068     		ldr	r0, [r0, #8]
 1299              	.L163:
 1300 0006 7047     		bx	lr
 1302              		.section	.text.lv_obj_event,"ax",%progbits
 1303              		.align	1
 1304              		.syntax unified
 1305              		.thumb
 1306              		.thumb_func
 1308              	lv_obj_event:
 1309              		@ args = 0, pretend = 0, frame = 16
 1310              		@ frame_needed = 0, uses_anonymous_args = 0
 1311 0000 F0B5     		push	{r4, r5, r6, r7, lr}
 1312 0002 85B0     		sub	sp, sp, #20
 1313 0004 0E46     		mov	r6, r1
 1314 0006 0846     		mov	r0, r1
 1315 0008 FFF7FEFF 		bl	lv_event_get_code
 1316 000c 0446     		mov	r4, r0
 1317 000e 3046     		mov	r0, r6
 1318 0010 FFF7FEFF 		bl	lv_event_get_current_target
 1319 0014 0546     		mov	r5, r0
 1320 0016 631E     		subs	r3, r4, #1
 1321 0018 292B     		cmp	r3, #41
 1322 001a 2ED8     		bhi	.L165
 1323 001c DFE813F0 		tbh	[pc, r3, lsl #1]
 1324              	.L168:
 1325 0020 2A00     		.2byte	(.L181-.L168)/2
 1326 0022 2D00     		.2byte	(.L165-.L168)/2
 1327 0024 5400     		.2byte	(.L180-.L168)/2
 1328 0026 2D00     		.2byte	(.L165-.L168)/2
 1329 0028 2D00     		.2byte	(.L165-.L168)/2
 1330 002a 2D00     		.2byte	(.L165-.L168)/2
 1331 002c 2D00     		.2byte	(.L165-.L168)/2
 1332 002e 2F00     		.2byte	(.L179-.L168)/2
 1333 0030 6401     		.2byte	(.L178-.L168)/2
 1334 0032 6801     		.2byte	(.L177-.L168)/2
 1335 0034 2D00     		.2byte	(.L165-.L168)/2
 1336 0036 2D00     		.2byte	(.L165-.L168)/2
 1337 0038 6700     		.2byte	(.L176-.L168)/2
 1338 003a 3301     		.2byte	(.L175-.L168)/2
 1339 003c 7F01     		.2byte	(.L174-.L168)/2
 1340 003e 2D00     		.2byte	(.L165-.L168)/2
 1341 0040 2D00     		.2byte	(.L165-.L168)/2
 1342 0042 D801     		.2byte	(.L172-.L168)/2
 1343 0044 D001     		.2byte	(.L173-.L168)/2
 1344 0046 2D00     		.2byte	(.L165-.L168)/2
 1345 0048 D801     		.2byte	(.L172-.L168)/2
 1346 004a 2D00     		.2byte	(.L165-.L168)/2
 1347 004c 2D00     		.2byte	(.L165-.L168)/2
 1348 004e D801     		.2byte	(.L172-.L168)/2
 1349 0050 2D00     		.2byte	(.L165-.L168)/2
 1350 0052 2D00     		.2byte	(.L165-.L168)/2
ARM GAS  /var/folders/lp/x54gwt890xv47sdkqj1k04q40000gn/T//ccJrhrKR.s 			page 24


 1351 0054 2D00     		.2byte	(.L165-.L168)/2
 1352 0056 2D00     		.2byte	(.L165-.L168)/2
 1353 0058 2D00     		.2byte	(.L165-.L168)/2
 1354 005a 2D00     		.2byte	(.L165-.L168)/2
 1355 005c 2D00     		.2byte	(.L165-.L168)/2
 1356 005e 2D00     		.2byte	(.L165-.L168)/2
 1357 0060 2D00     		.2byte	(.L165-.L168)/2
 1358 0062 A301     		.2byte	(.L171-.L168)/2
 1359 0064 2D00     		.2byte	(.L165-.L168)/2
 1360 0066 C701     		.2byte	(.L170-.L168)/2
 1361 0068 2D00     		.2byte	(.L165-.L168)/2
 1362 006a 2D00     		.2byte	(.L165-.L168)/2
 1363 006c 2D00     		.2byte	(.L165-.L168)/2
 1364 006e 2D00     		.2byte	(.L165-.L168)/2
 1365 0070 8301     		.2byte	(.L169-.L168)/2
 1366 0072 5800     		.2byte	(.L167-.L168)/2
 1367              		.p2align 1
 1368              	.L181:
 1369 0074 2021     		movs	r1, #32
 1370 0076 FFF7FEFF 		bl	lv_obj_add_state
 1371              	.L165:
 1372 007a 05B0     		add	sp, sp, #20
 1373              		@ sp needed
 1374 007c F0BD     		pop	{r4, r5, r6, r7, pc}
 1375              	.L179:
 1376 007e 2021     		movs	r1, #32
 1377 0080 FFF7FEFF 		bl	lv_obj_clear_state
 1378 0084 3046     		mov	r0, r6
 1379 0086 FFF7FEFF 		bl	lv_event_get_indev
 1380 008a FFF7FEFF 		bl	lv_indev_get_scroll_obj
 1381 008e 0028     		cmp	r0, #0
 1382 0090 F3D1     		bne	.L165
 1383 0092 0821     		movs	r1, #8
 1384 0094 2846     		mov	r0, r5
 1385 0096 FFF7FEFF 		bl	lv_obj_has_flag
 1386 009a 0028     		cmp	r0, #0
 1387 009c EDD0     		beq	.L165
 1388 009e 2846     		mov	r0, r5
 1389 00a0 FFF7FEFF 		bl	lv_obj_get_state
 1390 00a4 10F0010F 		tst	r0, #1
 1391 00a8 09D1     		bne	.L182
 1392 00aa 0121     		movs	r1, #1
 1393 00ac 2846     		mov	r0, r5
 1394 00ae FFF7FEFF 		bl	lv_obj_add_state
 1395              	.L183:
 1396 00b2 0022     		movs	r2, #0
 1397 00b4 1C21     		movs	r1, #28
 1398 00b6 2846     		mov	r0, r5
 1399 00b8 FFF7FEFF 		bl	lv_event_send
 1400 00bc DDE7     		b	.L165
 1401              	.L182:
 1402 00be 0121     		movs	r1, #1
 1403 00c0 2846     		mov	r0, r5
 1404 00c2 FFF7FEFF 		bl	lv_obj_clear_state
 1405 00c6 F4E7     		b	.L183
 1406              	.L180:
 1407 00c8 2021     		movs	r1, #32
ARM GAS  /var/folders/lp/x54gwt890xv47sdkqj1k04q40000gn/T//ccJrhrKR.s 			page 25


 1408 00ca FFF7FEFF 		bl	lv_obj_clear_state
 1409 00ce D4E7     		b	.L165
 1410              	.L167:
 1411 00d0 FFF7FEFF 		bl	lv_obj_get_child_cnt
 1412 00d4 0646     		mov	r6, r0
 1413 00d6 0024     		movs	r4, #0
 1414 00d8 06E0     		b	.L184
 1415              	.L185:
 1416 00da AB68     		ldr	r3, [r5, #8]
 1417 00dc 1B68     		ldr	r3, [r3]
 1418 00de 53F82400 		ldr	r0, [r3, r4, lsl #2]
 1419 00e2 FFF7FEFF 		bl	lv_obj_mark_layout_as_dirty
 1420 00e6 0134     		adds	r4, r4, #1
 1421              	.L184:
 1422 00e8 B442     		cmp	r4, r6
 1423 00ea F6D3     		bcc	.L185
 1424 00ec C5E7     		b	.L165
 1425              	.L176:
 1426 00ee 0821     		movs	r1, #8
 1427 00f0 FFF7FEFF 		bl	lv_obj_has_flag
 1428 00f4 F0B9     		cbnz	r0, .L221
 1429 00f6 4FF40161 		mov	r1, #2064
 1430 00fa 2846     		mov	r0, r5
 1431 00fc FFF7FEFF 		bl	lv_obj_has_flag
 1432 0100 0028     		cmp	r0, #0
 1433 0102 BAD0     		beq	.L165
 1434 0104 2846     		mov	r0, r5
 1435 0106 FFF7FEFF 		bl	lv_obj_is_editable
 1436 010a 0028     		cmp	r0, #0
 1437 010c B5D1     		bne	.L165
 1438 010e 2846     		mov	r0, r5
 1439 0110 FFF7FEFF 		bl	lv_obj_get_scroll_left
 1440 0114 0746     		mov	r7, r0
 1441 0116 2846     		mov	r0, r5
 1442 0118 FFF7FEFF 		bl	lv_obj_get_scroll_right
 1443 011c 0446     		mov	r4, r0
 1444 011e 3046     		mov	r0, r6
 1445 0120 FFF7FEFF 		bl	lv_event_get_param
 1446 0124 0378     		ldrb	r3, [r0]	@ zero_extendqisi2
 1447 0126 113B     		subs	r3, r3, #17
 1448 0128 032B     		cmp	r3, #3
 1449 012a A6D8     		bhi	.L165
 1450 012c DFE803F0 		tbb	[pc, r3]
 1451              	.L192:
 1452 0130 33       		.byte	(.L195-.L192)/2
 1453 0131 1F       		.byte	(.L194-.L192)/2
 1454 0132 47       		.byte	(.L193-.L192)/2
 1455 0133 79       		.byte	(.L191-.L192)/2
 1456              		.p2align 1
 1457              	.L221:
 1458 0134 3046     		mov	r0, r6
 1459 0136 FFF7FEFF 		bl	lv_event_get_param
 1460 013a 0478     		ldrb	r4, [r0]	@ zero_extendqisi2
 1461 013c A4F11103 		sub	r3, r4, #17
 1462 0140 032B     		cmp	r3, #3
 1463 0142 07D8     		bhi	.L187
 1464 0144 DFE803F0 		tbb	[pc, r3]
ARM GAS  /var/folders/lp/x54gwt890xv47sdkqj1k04q40000gn/T//ccJrhrKR.s 			page 26


 1465              	.L189:
 1466 0148 02       		.byte	(.L190-.L189)/2
 1467 0149 0E       		.byte	(.L188-.L189)/2
 1468 014a 02       		.byte	(.L190-.L189)/2
 1469 014b 0E       		.byte	(.L188-.L189)/2
 1470              		.p2align 1
 1471              	.L190:
 1472 014c 0121     		movs	r1, #1
 1473 014e 2846     		mov	r0, r5
 1474 0150 FFF7FEFF 		bl	lv_obj_add_state
 1475              	.L187:
 1476 0154 0A2C     		cmp	r4, #10
 1477 0156 90D0     		beq	.L165
 1478 0158 0022     		movs	r2, #0
 1479 015a 1C21     		movs	r1, #28
 1480 015c 2846     		mov	r0, r5
 1481 015e FFF7FEFF 		bl	lv_event_send
 1482 0162 8AE7     		b	.L165
 1483              	.L188:
 1484 0164 0121     		movs	r1, #1
 1485 0166 2846     		mov	r0, r5
 1486 0168 FFF7FEFF 		bl	lv_obj_clear_state
 1487 016c F2E7     		b	.L187
 1488              	.L194:
 1489 016e 2846     		mov	r0, r5
 1490 0170 FFF7FEFF 		bl	lv_obj_get_scroll_y
 1491 0174 84B2     		uxth	r4, r0
 1492 0176 2846     		mov	r0, r5
 1493 0178 FFF7FEFF 		bl	lv_obj_get_height
 1494 017c 0246     		mov	r2, r0
 1495 017e 0028     		cmp	r0, #0
 1496 0180 07DB     		blt	.L222
 1497              	.L196:
 1498 0182 04EBA201 		add	r1, r4, r2, asr #2
 1499 0186 0022     		movs	r2, #0
 1500 0188 09B2     		sxth	r1, r1
 1501 018a 2846     		mov	r0, r5
 1502 018c FFF7FEFF 		bl	lv_obj_scroll_to_y
 1503 0190 73E7     		b	.L165
 1504              	.L222:
 1505 0192 C21C     		adds	r2, r0, #3
 1506 0194 F5E7     		b	.L196
 1507              	.L195:
 1508 0196 2846     		mov	r0, r5
 1509 0198 FFF7FEFF 		bl	lv_obj_get_scroll_y
 1510 019c 84B2     		uxth	r4, r0
 1511 019e 2846     		mov	r0, r5
 1512 01a0 FFF7FEFF 		bl	lv_obj_get_height
 1513 01a4 0246     		mov	r2, r0
 1514 01a6 0028     		cmp	r0, #0
 1515 01a8 07DB     		blt	.L223
 1516              	.L197:
 1517 01aa A4EBA201 		sub	r1, r4, r2, asr #2
 1518 01ae 0022     		movs	r2, #0
 1519 01b0 09B2     		sxth	r1, r1
 1520 01b2 2846     		mov	r0, r5
 1521 01b4 FFF7FEFF 		bl	lv_obj_scroll_to_y
ARM GAS  /var/folders/lp/x54gwt890xv47sdkqj1k04q40000gn/T//ccJrhrKR.s 			page 27


 1522 01b8 5FE7     		b	.L165
 1523              	.L223:
 1524 01ba C21C     		adds	r2, r0, #3
 1525 01bc F5E7     		b	.L197
 1526              	.L193:
 1527 01be 2846     		mov	r0, r5
 1528 01c0 FFF7FEFF 		bl	lv_obj_get_scroll_dir
 1529 01c4 10F0030F 		tst	r0, #3
 1530 01c8 15D0     		beq	.L198
 1531 01ca 002F     		cmp	r7, #0
 1532 01cc 01DC     		bgt	.L199
 1533 01ce 002C     		cmp	r4, #0
 1534 01d0 11DD     		ble	.L198
 1535              	.L199:
 1536 01d2 2846     		mov	r0, r5
 1537 01d4 FFF7FEFF 		bl	lv_obj_get_scroll_x
 1538 01d8 84B2     		uxth	r4, r0
 1539 01da 2846     		mov	r0, r5
 1540 01dc FFF7FEFF 		bl	lv_obj_get_width
 1541 01e0 0246     		mov	r2, r0
 1542 01e2 0028     		cmp	r0, #0
 1543 01e4 1BDB     		blt	.L224
 1544              	.L201:
 1545 01e6 04EBA201 		add	r1, r4, r2, asr #2
 1546 01ea 0022     		movs	r2, #0
 1547 01ec 09B2     		sxth	r1, r1
 1548 01ee 2846     		mov	r0, r5
 1549 01f0 FFF7FEFF 		bl	lv_obj_scroll_to_x
 1550 01f4 41E7     		b	.L165
 1551              	.L198:
 1552 01f6 2846     		mov	r0, r5
 1553 01f8 FFF7FEFF 		bl	lv_obj_get_scroll_y
 1554 01fc 84B2     		uxth	r4, r0
 1555 01fe 2846     		mov	r0, r5
 1556 0200 FFF7FEFF 		bl	lv_obj_get_height
 1557 0204 0246     		mov	r2, r0
 1558 0206 0028     		cmp	r0, #0
 1559 0208 07DB     		blt	.L225
 1560              	.L200:
 1561 020a 04EBA201 		add	r1, r4, r2, asr #2
 1562 020e 0022     		movs	r2, #0
 1563 0210 09B2     		sxth	r1, r1
 1564 0212 2846     		mov	r0, r5
 1565 0214 FFF7FEFF 		bl	lv_obj_scroll_to_y
 1566 0218 2FE7     		b	.L165
 1567              	.L225:
 1568 021a C21C     		adds	r2, r0, #3
 1569 021c F5E7     		b	.L200
 1570              	.L224:
 1571 021e C21C     		adds	r2, r0, #3
 1572 0220 E1E7     		b	.L201
 1573              	.L191:
 1574 0222 2846     		mov	r0, r5
 1575 0224 FFF7FEFF 		bl	lv_obj_get_scroll_dir
 1576 0228 10F0030F 		tst	r0, #3
 1577 022c 15D0     		beq	.L202
 1578 022e 002F     		cmp	r7, #0
ARM GAS  /var/folders/lp/x54gwt890xv47sdkqj1k04q40000gn/T//ccJrhrKR.s 			page 28


 1579 0230 01DC     		bgt	.L203
 1580 0232 002C     		cmp	r4, #0
 1581 0234 11DD     		ble	.L202
 1582              	.L203:
 1583 0236 2846     		mov	r0, r5
 1584 0238 FFF7FEFF 		bl	lv_obj_get_scroll_x
 1585 023c 84B2     		uxth	r4, r0
 1586 023e 2846     		mov	r0, r5
 1587 0240 FFF7FEFF 		bl	lv_obj_get_width
 1588 0244 0246     		mov	r2, r0
 1589 0246 0028     		cmp	r0, #0
 1590 0248 1BDB     		blt	.L226
 1591              	.L205:
 1592 024a A4EBA201 		sub	r1, r4, r2, asr #2
 1593 024e 0022     		movs	r2, #0
 1594 0250 09B2     		sxth	r1, r1
 1595 0252 2846     		mov	r0, r5
 1596 0254 FFF7FEFF 		bl	lv_obj_scroll_to_x
 1597 0258 0FE7     		b	.L165
 1598              	.L202:
 1599 025a 2846     		mov	r0, r5
 1600 025c FFF7FEFF 		bl	lv_obj_get_scroll_y
 1601 0260 84B2     		uxth	r4, r0
 1602 0262 2846     		mov	r0, r5
 1603 0264 FFF7FEFF 		bl	lv_obj_get_height
 1604 0268 0246     		mov	r2, r0
 1605 026a 0028     		cmp	r0, #0
 1606 026c 07DB     		blt	.L227
 1607              	.L204:
 1608 026e A4EBA201 		sub	r1, r4, r2, asr #2
 1609 0272 0022     		movs	r2, #0
 1610 0274 09B2     		sxth	r1, r1
 1611 0276 2846     		mov	r0, r5
 1612 0278 FFF7FEFF 		bl	lv_obj_scroll_to_y
 1613 027c FDE6     		b	.L165
 1614              	.L227:
 1615 027e C21C     		adds	r2, r0, #3
 1616 0280 F5E7     		b	.L204
 1617              	.L226:
 1618 0282 C21C     		adds	r2, r0, #3
 1619 0284 E1E7     		b	.L205
 1620              	.L175:
 1621 0286 4FF48061 		mov	r1, #1024
 1622 028a FFF7FEFF 		bl	lv_obj_has_flag
 1623 028e B0B9     		cbnz	r0, .L228
 1624              	.L206:
 1625 0290 2846     		mov	r0, r5
 1626 0292 FFF7FEFF 		bl	lv_obj_get_group
 1627 0296 FFF7FEFF 		bl	lv_group_get_editing
 1628 029a 0446     		mov	r4, r0
 1629 029c FFF7FEFF 		bl	lv_indev_get_act
 1630 02a0 90B1     		cbz	r0, .L229
 1631              	.L207:
 1632 02a2 FFF7FEFF 		bl	lv_indev_get_type
 1633 02a6 0228     		cmp	r0, #2
 1634 02a8 12D0     		beq	.L215
 1635 02aa 0428     		cmp	r0, #4
ARM GAS  /var/folders/lp/x54gwt890xv47sdkqj1k04q40000gn/T//ccJrhrKR.s 			page 29


 1636 02ac 12D0     		beq	.L216
 1637 02ae 0221     		movs	r1, #2
 1638              	.L208:
 1639 02b0 94B1     		cbz	r4, .L209
 1640 02b2 41F00801 		orr	r1, r1, #8
 1641 02b6 2846     		mov	r0, r5
 1642 02b8 FFF7FEFF 		bl	lv_obj_add_state
 1643 02bc DDE6     		b	.L165
 1644              	.L228:
 1645 02be 0121     		movs	r1, #1
 1646 02c0 2846     		mov	r0, r5
 1647 02c2 FFF7FEFF 		bl	lv_obj_scroll_to_view_recursive
 1648 02c6 E3E7     		b	.L206
 1649              	.L229:
 1650 02c8 3046     		mov	r0, r6
 1651 02ca FFF7FEFF 		bl	lv_event_get_indev
 1652 02ce E8E7     		b	.L207
 1653              	.L215:
 1654 02d0 0621     		movs	r1, #6
 1655 02d2 EDE7     		b	.L208
 1656              	.L216:
 1657 02d4 0621     		movs	r1, #6
 1658 02d6 EBE7     		b	.L208
 1659              	.L209:
 1660 02d8 2846     		mov	r0, r5
 1661 02da FFF7FEFF 		bl	lv_obj_add_state
 1662 02de 0821     		movs	r1, #8
 1663 02e0 2846     		mov	r0, r5
 1664 02e2 FFF7FEFF 		bl	lv_obj_clear_state
 1665 02e6 C8E6     		b	.L165
 1666              	.L178:
 1667 02e8 4021     		movs	r1, #64
 1668 02ea FFF7FEFF 		bl	lv_obj_add_state
 1669 02ee C4E6     		b	.L165
 1670              	.L177:
 1671 02f0 4021     		movs	r1, #64
 1672 02f2 FFF7FEFF 		bl	lv_obj_clear_state
 1673 02f6 2846     		mov	r0, r5
 1674 02f8 FFF7FEFF 		bl	lv_obj_get_scrollbar_mode
 1675 02fc 0228     		cmp	r0, #2
 1676 02fe 7FF4BCAE 		bne	.L165
 1677 0302 02AA     		add	r2, sp, #8
 1678 0304 6946     		mov	r1, sp
 1679 0306 2846     		mov	r0, r5
 1680 0308 FFF7FEFF 		bl	lv_obj_get_scrollbar_area
 1681 030c 6946     		mov	r1, sp
 1682 030e 2846     		mov	r0, r5
 1683 0310 FFF7FEFF 		bl	lv_obj_invalidate_area
 1684 0314 02A9     		add	r1, sp, #8
 1685 0316 2846     		mov	r0, r5
 1686 0318 FFF7FEFF 		bl	lv_obj_invalidate_area
 1687 031c ADE6     		b	.L165
 1688              	.L174:
 1689 031e 0E21     		movs	r1, #14
 1690 0320 FFF7FEFF 		bl	lv_obj_clear_state
 1691 0324 A9E6     		b	.L165
 1692              	.L169:
ARM GAS  /var/folders/lp/x54gwt890xv47sdkqj1k04q40000gn/T//ccJrhrKR.s 			page 30


 1693 0326 0922     		movs	r2, #9
 1694 0328 0021     		movs	r1, #0
 1695 032a FFF7FEFF 		bl	lv_obj_get_style_prop
 1696 032e C4B2     		uxtb	r4, r0
 1697 0330 0A22     		movs	r2, #10
 1698 0332 0021     		movs	r1, #0
 1699 0334 2846     		mov	r0, r5
 1700 0336 FFF7FEFF 		bl	lv_obj_get_style_prop
 1701 033a 80B2     		uxth	r0, r0
 1702 033c 00B9     		cbnz	r0, .L210
 1703 033e 14B1     		cbz	r4, .L211
 1704              	.L210:
 1705 0340 2846     		mov	r0, r5
 1706 0342 FFF7FEFF 		bl	lv_obj_mark_layout_as_dirty
 1707              	.L211:
 1708 0346 2846     		mov	r0, r5
 1709 0348 FFF7FEFF 		bl	lv_obj_get_child_cnt
 1710 034c 0646     		mov	r6, r0
 1711 034e 0024     		movs	r4, #0
 1712 0350 06E0     		b	.L212
 1713              	.L213:
 1714 0352 AB68     		ldr	r3, [r5, #8]
 1715 0354 1B68     		ldr	r3, [r3]
 1716 0356 53F82400 		ldr	r0, [r3, r4, lsl #2]
 1717 035a FFF7FEFF 		bl	lv_obj_mark_layout_as_dirty
 1718 035e 0134     		adds	r4, r4, #1
 1719              	.L212:
 1720 0360 B442     		cmp	r4, r6
 1721 0362 F6D3     		bcc	.L213
 1722 0364 89E6     		b	.L165
 1723              	.L171:
 1724 0366 0122     		movs	r2, #1
 1725 0368 0021     		movs	r1, #0
 1726 036a FFF7FEFF 		bl	lv_obj_get_style_prop
 1727 036e 07B2     		sxth	r7, r0
 1728 0370 0422     		movs	r2, #4
 1729 0372 0021     		movs	r1, #0
 1730 0374 2846     		mov	r0, r5
 1731 0376 FFF7FEFF 		bl	lv_obj_get_style_prop
 1732 037a 06B2     		sxth	r6, r0
 1733 037c 0922     		movs	r2, #9
 1734 037e 0021     		movs	r1, #0
 1735 0380 2846     		mov	r0, r5
 1736 0382 FFF7FEFF 		bl	lv_obj_get_style_prop
 1737 0386 C4B2     		uxtb	r4, r0
 1738 0388 0A22     		movs	r2, #10
 1739 038a 0021     		movs	r1, #0
 1740 038c 2846     		mov	r0, r5
 1741 038e FFF7FEFF 		bl	lv_obj_get_style_prop
 1742 0392 80B2     		uxth	r0, r0
 1743 0394 38B9     		cbnz	r0, .L214
 1744 0396 34B9     		cbnz	r4, .L214
 1745 0398 42F2D173 		movw	r3, #10193
 1746 039c 9F42     		cmp	r7, r3
 1747 039e 02D0     		beq	.L214
 1748 03a0 9E42     		cmp	r6, r3
 1749 03a2 7FF46AAE 		bne	.L165
ARM GAS  /var/folders/lp/x54gwt890xv47sdkqj1k04q40000gn/T//ccJrhrKR.s 			page 31


 1750              	.L214:
 1751 03a6 2846     		mov	r0, r5
 1752 03a8 FFF7FEFF 		bl	lv_obj_mark_layout_as_dirty
 1753 03ac 65E6     		b	.L165
 1754              	.L170:
 1755 03ae 90F82230 		ldrb	r3, [r0, #34]	@ zero_extendqisi2
 1756 03b2 43F00203 		orr	r3, r3, #2
 1757 03b6 80F82230 		strb	r3, [r0, #34]
 1758 03ba FFF7FEFF 		bl	lv_obj_mark_layout_as_dirty
 1759 03be 5CE6     		b	.L165
 1760              	.L173:
 1761 03c0 0021     		movs	r1, #0
 1762 03c2 FFF7FEFF 		bl	lv_obj_calculate_ext_draw_size
 1763 03c6 0146     		mov	r1, r0
 1764 03c8 3046     		mov	r0, r6
 1765 03ca FFF7FEFF 		bl	lv_event_set_ext_draw_size
 1766 03ce 54E6     		b	.L165
 1767              	.L172:
 1768 03d0 3046     		mov	r0, r6
 1769 03d2 FFF7FEFF 		bl	lv_obj_draw
 1770 03d6 50E6     		b	.L165
 1772              		.section	.text.lv_obj_destructor,"ax",%progbits
 1773              		.align	1
 1774              		.syntax unified
 1775              		.thumb
 1776              		.thumb_func
 1778              	lv_obj_destructor:
 1779              		@ args = 0, pretend = 0, frame = 0
 1780              		@ frame_needed = 0, uses_anonymous_args = 0
 1781 0000 10B5     		push	{r4, lr}
 1782 0002 0C46     		mov	r4, r1
 1783 0004 0846     		mov	r0, r1
 1784 0006 FFF7FEFF 		bl	_lv_event_mark_deleted
 1785 000a 0020     		movs	r0, #0
 1786 000c FFF7FEFF 		bl	lv_obj_enable_style_refresh
 1787 0010 144A     		ldr	r2, .L236
 1788 0012 0021     		movs	r1, #0
 1789 0014 2046     		mov	r0, r4
 1790 0016 FFF7FEFF 		bl	lv_obj_remove_style
 1791 001a 0120     		movs	r0, #1
 1792 001c FFF7FEFF 		bl	lv_obj_enable_style_refresh
 1793 0020 0021     		movs	r1, #0
 1794 0022 2046     		mov	r0, r4
 1795 0024 FFF7FEFF 		bl	lv_anim_del
 1796 0028 2046     		mov	r0, r4
 1797 002a FFF7FEFF 		bl	lv_obj_get_group
 1798 002e 10B1     		cbz	r0, .L231
 1799 0030 2046     		mov	r0, r4
 1800 0032 FFF7FEFF 		bl	lv_group_remove_obj
 1801              	.L231:
 1802 0036 A368     		ldr	r3, [r4, #8]
 1803 0038 9BB1     		cbz	r3, .L230
 1804 003a 1868     		ldr	r0, [r3]
 1805 003c 20B1     		cbz	r0, .L233
 1806 003e FFF7FEFF 		bl	lv_mem_free
 1807 0042 A368     		ldr	r3, [r4, #8]
 1808 0044 0022     		movs	r2, #0
ARM GAS  /var/folders/lp/x54gwt890xv47sdkqj1k04q40000gn/T//ccJrhrKR.s 			page 32


 1809 0046 1A60     		str	r2, [r3]
 1810              	.L233:
 1811 0048 A368     		ldr	r3, [r4, #8]
 1812 004a D868     		ldr	r0, [r3, #12]
 1813 004c 20B1     		cbz	r0, .L234
 1814 004e FFF7FEFF 		bl	lv_mem_free
 1815 0052 A368     		ldr	r3, [r4, #8]
 1816 0054 0022     		movs	r2, #0
 1817 0056 DA60     		str	r2, [r3, #12]
 1818              	.L234:
 1819 0058 A068     		ldr	r0, [r4, #8]
 1820 005a FFF7FEFF 		bl	lv_mem_free
 1821 005e 0023     		movs	r3, #0
 1822 0060 A360     		str	r3, [r4, #8]
 1823              	.L230:
 1824 0062 10BD     		pop	{r4, pc}
 1825              	.L237:
 1826              		.align	2
 1827              	.L236:
 1828 0064 FFFF0F00 		.word	1048575
 1830              		.section	.text.lv_obj_add_flag,"ax",%progbits
 1831              		.align	1
 1832              		.global	lv_obj_add_flag
 1833              		.syntax unified
 1834              		.thumb
 1835              		.thumb_func
 1837              	lv_obj_add_flag:
 1838              		@ args = 0, pretend = 0, frame = 16
 1839              		@ frame_needed = 0, uses_anonymous_args = 0
 1840 0000 F0B5     		push	{r4, r5, r6, r7, lr}
 1841 0002 85B0     		sub	sp, sp, #20
 1842 0004 0446     		mov	r4, r0
 1843 0006 0D46     		mov	r5, r1
 1844 0008 FFF7FEFF 		bl	lv_obj_is_layout_positioned
 1845 000c 0646     		mov	r6, r0
 1846 000e 15F00107 		ands	r7, r5, #1
 1847 0012 2AD1     		bne	.L245
 1848              	.L239:
 1849 0014 E369     		ldr	r3, [r4, #28]
 1850 0016 2B43     		orrs	r3, r3, r5
 1851 0018 E361     		str	r3, [r4, #28]
 1852 001a 8FB1     		cbz	r7, .L240
 1853 001c 0221     		movs	r1, #2
 1854 001e 2046     		mov	r0, r4
 1855 0020 FFF7FEFF 		bl	lv_obj_has_state
 1856 0024 60B1     		cbz	r0, .L240
 1857 0026 2046     		mov	r0, r4
 1858 0028 FFF7FEFF 		bl	lv_obj_get_group
 1859 002c 0746     		mov	r7, r0
 1860 002e 38B1     		cbz	r0, .L240
 1861 0030 FFF7FEFF 		bl	lv_group_focus_next
 1862 0034 3846     		mov	r0, r7
 1863 0036 FFF7FEFF 		bl	lv_group_get_focused
 1864 003a 08B1     		cbz	r0, .L240
 1865 003c FFF7FEFF 		bl	lv_obj_invalidate
 1866              	.L240:
 1867 0040 2046     		mov	r0, r4
ARM GAS  /var/folders/lp/x54gwt890xv47sdkqj1k04q40000gn/T//ccJrhrKR.s 			page 33


 1868 0042 FFF7FEFF 		bl	lv_obj_is_layout_positioned
 1869 0046 B042     		cmp	r0, r6
 1870 0048 02D1     		bne	.L241
 1871 004a 15F0C07F 		tst	r5, #25165824
 1872 004e 07D0     		beq	.L242
 1873              	.L241:
 1874 0050 2046     		mov	r0, r4
 1875 0052 FFF7FEFF 		bl	lv_obj_get_parent
 1876 0056 FFF7FEFF 		bl	lv_obj_mark_layout_as_dirty
 1877 005a 2046     		mov	r0, r4
 1878 005c FFF7FEFF 		bl	lv_obj_mark_layout_as_dirty
 1879              	.L242:
 1880 0060 15F0100F 		tst	r5, #16
 1881 0064 05D1     		bne	.L246
 1882              	.L238:
 1883 0066 05B0     		add	sp, sp, #20
 1884              		@ sp needed
 1885 0068 F0BD     		pop	{r4, r5, r6, r7, pc}
 1886              	.L245:
 1887 006a 2046     		mov	r0, r4
 1888 006c FFF7FEFF 		bl	lv_obj_invalidate
 1889 0070 D0E7     		b	.L239
 1890              	.L246:
 1891 0072 02AA     		add	r2, sp, #8
 1892 0074 6946     		mov	r1, sp
 1893 0076 2046     		mov	r0, r4
 1894 0078 FFF7FEFF 		bl	lv_obj_get_scrollbar_area
 1895 007c 6946     		mov	r1, sp
 1896 007e 2046     		mov	r0, r4
 1897 0080 FFF7FEFF 		bl	lv_obj_invalidate_area
 1898 0084 02A9     		add	r1, sp, #8
 1899 0086 2046     		mov	r0, r4
 1900 0088 FFF7FEFF 		bl	lv_obj_invalidate_area
 1901 008c EBE7     		b	.L238
 1903              		.section	.text.lv_obj_allocate_spec_attr,"ax",%progbits
 1904              		.align	1
 1905              		.global	lv_obj_allocate_spec_attr
 1906              		.syntax unified
 1907              		.thumb
 1908              		.thumb_func
 1910              	lv_obj_allocate_spec_attr:
 1911              		@ args = 0, pretend = 0, frame = 0
 1912              		@ frame_needed = 0, uses_anonymous_args = 0
 1913 0000 8368     		ldr	r3, [r0, #8]
 1914 0002 03B1     		cbz	r3, .L255
 1915 0004 7047     		bx	lr
 1916              	.L255:
 1917 0006 10B5     		push	{r4, lr}
 1918 0008 0446     		mov	r4, r0
 1919 000a 0C4A     		ldr	r2, .L256
 1920 000c 1368     		ldr	r3, [r2]
 1921 000e 0133     		adds	r3, r3, #1
 1922 0010 1360     		str	r3, [r2]
 1923 0012 1C20     		movs	r0, #28
 1924 0014 FFF7FEFF 		bl	lv_mem_alloc
 1925 0018 A060     		str	r0, [r4, #8]
 1926 001a 68B1     		cbz	r0, .L250
ARM GAS  /var/folders/lp/x54gwt890xv47sdkqj1k04q40000gn/T//ccJrhrKR.s 			page 34


 1927 001c 1C21     		movs	r1, #28
 1928 001e FFF7FEFF 		bl	lv_memset_00
 1929 0022 A268     		ldr	r2, [r4, #8]
 1930 0024 537E     		ldrb	r3, [r2, #25]	@ zero_extendqisi2
 1931 0026 43F00F03 		orr	r3, r3, #15
 1932 002a 5376     		strb	r3, [r2, #25]
 1933 002c A268     		ldr	r2, [r4, #8]
 1934 002e 137E     		ldrb	r3, [r2, #24]	@ zero_extendqisi2
 1935 0030 43F00303 		orr	r3, r3, #3
 1936 0034 1376     		strb	r3, [r2, #24]
 1937 0036 10BD     		pop	{r4, pc}
 1938              	.L250:
 1939 0038 FEE7     		b	.L250
 1940              	.L257:
 1941 003a 00BF     		.align	2
 1942              	.L256:
 1943 003c 00000000 		.word	x.0
 1945              		.section	.text.lv_obj_check_type,"ax",%progbits
 1946              		.align	1
 1947              		.global	lv_obj_check_type
 1948              		.syntax unified
 1949              		.thumb
 1950              		.thumb_func
 1952              	lv_obj_check_type:
 1953              		@ args = 0, pretend = 0, frame = 0
 1954              		@ frame_needed = 0, uses_anonymous_args = 0
 1955              		@ link register save eliminated.
 1956 0000 28B1     		cbz	r0, .L260
 1957 0002 0068     		ldr	r0, [r0]
 1958 0004 8842     		cmp	r0, r1
 1959 0006 14BF     		ite	ne
 1960 0008 0020     		movne	r0, #0
 1961 000a 0120     		moveq	r0, #1
 1962 000c 7047     		bx	lr
 1963              	.L260:
 1964 000e 0020     		movs	r0, #0
 1965 0010 7047     		bx	lr
 1967              		.section	.text.lv_obj_has_class,"ax",%progbits
 1968              		.align	1
 1969              		.global	lv_obj_has_class
 1970              		.syntax unified
 1971              		.thumb
 1972              		.thumb_func
 1974              	lv_obj_has_class:
 1975              		@ args = 0, pretend = 0, frame = 0
 1976              		@ frame_needed = 0, uses_anonymous_args = 0
 1977              		@ link register save eliminated.
 1978 0000 0368     		ldr	r3, [r0]
 1979 0002 00E0     		b	.L262
 1980              	.L267:
 1981 0004 1B68     		ldr	r3, [r3]
 1982              	.L262:
 1983 0006 1BB1     		cbz	r3, .L266
 1984 0008 8B42     		cmp	r3, r1
 1985 000a FBD1     		bne	.L267
 1986 000c 0120     		movs	r0, #1
 1987 000e 7047     		bx	lr
ARM GAS  /var/folders/lp/x54gwt890xv47sdkqj1k04q40000gn/T//ccJrhrKR.s 			page 35


 1988              	.L266:
 1989 0010 0020     		movs	r0, #0
 1990 0012 7047     		bx	lr
 1992              		.section	.text.lv_obj_get_class,"ax",%progbits
 1993              		.align	1
 1994              		.global	lv_obj_get_class
 1995              		.syntax unified
 1996              		.thumb
 1997              		.thumb_func
 1999              	lv_obj_get_class:
 2000              		@ args = 0, pretend = 0, frame = 0
 2001              		@ frame_needed = 0, uses_anonymous_args = 0
 2002              		@ link register save eliminated.
 2003 0000 0068     		ldr	r0, [r0]
 2004 0002 7047     		bx	lr
 2006              		.section	.text.lv_obj_is_valid,"ax",%progbits
 2007              		.align	1
 2008              		.global	lv_obj_is_valid
 2009              		.syntax unified
 2010              		.thumb
 2011              		.thumb_func
 2013              	lv_obj_is_valid:
 2014              		@ args = 0, pretend = 0, frame = 0
 2015              		@ frame_needed = 0, uses_anonymous_args = 0
 2016 0000 70B5     		push	{r4, r5, r6, lr}
 2017 0002 0646     		mov	r6, r0
 2018 0004 0020     		movs	r0, #0
 2019 0006 FFF7FEFF 		bl	lv_disp_get_next
 2020 000a 0546     		mov	r5, r0
 2021              	.L270:
 2022 000c B5B1     		cbz	r5, .L277
 2023 000e 0024     		movs	r4, #0
 2024 0010 00E0     		b	.L273
 2025              	.L279:
 2026 0012 0134     		adds	r4, r4, #1
 2027              	.L273:
 2028 0014 6B6A     		ldr	r3, [r5, #36]
 2029 0016 A342     		cmp	r3, r4
 2030 0018 0BD9     		bls	.L278
 2031 001a EB68     		ldr	r3, [r5, #12]
 2032 001c 53F82400 		ldr	r0, [r3, r4, lsl #2]
 2033 0020 B042     		cmp	r0, r6
 2034 0022 0DD0     		beq	.L274
 2035 0024 3146     		mov	r1, r6
 2036 0026 FFF7FEFF 		bl	obj_valid_child
 2037 002a 0346     		mov	r3, r0
 2038 002c 0028     		cmp	r0, #0
 2039 002e F0D0     		beq	.L279
 2040 0030 07E0     		b	.L271
 2041              	.L278:
 2042 0032 2846     		mov	r0, r5
 2043 0034 FFF7FEFF 		bl	lv_disp_get_next
 2044 0038 0546     		mov	r5, r0
 2045 003a E7E7     		b	.L270
 2046              	.L277:
 2047 003c 0023     		movs	r3, #0
 2048 003e 00E0     		b	.L271
ARM GAS  /var/folders/lp/x54gwt890xv47sdkqj1k04q40000gn/T//ccJrhrKR.s 			page 36


 2049              	.L274:
 2050 0040 0123     		movs	r3, #1
 2051              	.L271:
 2052 0042 1846     		mov	r0, r3
 2053 0044 70BD     		pop	{r4, r5, r6, pc}
 2055              		.section	.bss.x.0,"aw",%nobits
 2056              		.align	2
 2059              	x.0:
 2060 0000 00000000 		.space	4
 2061              		.global	lv_obj_class
 2062              		.section	.rodata.lv_obj_class,"a"
 2063              		.align	2
 2066              	lv_obj_class:
 2067 0000 00000000 		.word	0
 2068 0004 00000000 		.word	lv_obj_constructor
 2069 0008 00000000 		.word	lv_obj_destructor
 2070 000c 00000000 		.space	4
 2071 0010 00000000 		.word	lv_obj_event
 2072 0014 8200     		.short	130
 2073 0016 8200     		.short	130
 2074 0018 4A       		.byte	74
 2075 0019 02       		.byte	2
 2076 001a 00       		.byte	0
 2077 001b 00       		.space	1
 2078              		.section	.bss.lv_initialized,"aw",%nobits
 2081              	lv_initialized:
 2082 0000 00       		.space	1
 2083              		.ident	"GCC: (xPack GNU Arm Embedded GCC arm64) 13.3.1 20240614"
ARM GAS  /var/folders/lp/x54gwt890xv47sdkqj1k04q40000gn/T//ccJrhrKR.s 			page 37

