ARM GAS  /var/folders/lp/x54gwt890xv47sdkqj1k04q40000gn/T//ccv9Rg7x.s 			page 1


   1              		.cpu cortex-m4
   2              		.arch armv7e-m
   3              		.fpu fpv4-sp-d16
   4              		.eabi_attribute 27, 1
   5              		.eabi_attribute 28, 1
   6              		.eabi_attribute 20, 1
   7              		.eabi_attribute 21, 1
   8              		.eabi_attribute 23, 3
   9              		.eabi_attribute 24, 1
  10              		.eabi_attribute 25, 1
  11              		.eabi_attribute 26, 1
  12              		.eabi_attribute 30, 1
  13              		.eabi_attribute 34, 1
  14              		.eabi_attribute 18, 4
  15              		.file	"lv_obj_draw.c"
  16              		.text
  17              		.section	.text.lv_obj_get_style_bg_color_filtered,"ax",%progbits
  18              		.align	1
  19              		.syntax unified
  20              		.thumb
  21              		.thumb_func
  23              	lv_obj_get_style_bg_color_filtered:
  24              		@ args = 0, pretend = 0, frame = 0
  25              		@ frame_needed = 0, uses_anonymous_args = 0
  26 0000 38B5     		push	{r3, r4, r5, lr}
  27 0002 0446     		mov	r4, r0
  28 0004 0D46     		mov	r5, r1
  29 0006 2022     		movs	r2, #32
  30 0008 FFF7FEFF 		bl	lv_obj_get_style_prop
  31 000c 0246     		mov	r2, r0
  32 000e 2946     		mov	r1, r5
  33 0010 2046     		mov	r0, r4
  34 0012 FFF7FEFF 		bl	_lv_obj_style_apply_color_filter
  35 0016 38BD     		pop	{r3, r4, r5, pc}
  37              		.section	.text.lv_obj_get_style_bg_grad_color_filtered,"ax",%progbits
  38              		.align	1
  39              		.syntax unified
  40              		.thumb
  41              		.thumb_func
  43              	lv_obj_get_style_bg_grad_color_filtered:
  44              		@ args = 0, pretend = 0, frame = 0
  45              		@ frame_needed = 0, uses_anonymous_args = 0
  46 0000 38B5     		push	{r3, r4, r5, lr}
  47 0002 0446     		mov	r4, r0
  48 0004 0D46     		mov	r5, r1
  49 0006 2222     		movs	r2, #34
  50 0008 FFF7FEFF 		bl	lv_obj_get_style_prop
  51 000c 0246     		mov	r2, r0
  52 000e 2946     		mov	r1, r5
  53 0010 2046     		mov	r0, r4
  54 0012 FFF7FEFF 		bl	_lv_obj_style_apply_color_filter
  55 0016 38BD     		pop	{r3, r4, r5, pc}
  57              		.section	.text.lv_obj_get_style_border_color_filtered,"ax",%progbits
  58              		.align	1
  59              		.syntax unified
  60              		.thumb
  61              		.thumb_func
ARM GAS  /var/folders/lp/x54gwt890xv47sdkqj1k04q40000gn/T//ccv9Rg7x.s 			page 2


  63              	lv_obj_get_style_border_color_filtered:
  64              		@ args = 0, pretend = 0, frame = 0
  65              		@ frame_needed = 0, uses_anonymous_args = 0
  66 0000 38B5     		push	{r3, r4, r5, lr}
  67 0002 0446     		mov	r4, r0
  68 0004 0D46     		mov	r5, r1
  69 0006 3022     		movs	r2, #48
  70 0008 FFF7FEFF 		bl	lv_obj_get_style_prop
  71 000c 0246     		mov	r2, r0
  72 000e 2946     		mov	r1, r5
  73 0010 2046     		mov	r0, r4
  74 0012 FFF7FEFF 		bl	_lv_obj_style_apply_color_filter
  75 0016 38BD     		pop	{r3, r4, r5, pc}
  77              		.section	.text.lv_obj_get_style_outline_color_filtered,"ax",%progbits
  78              		.align	1
  79              		.syntax unified
  80              		.thumb
  81              		.thumb_func
  83              	lv_obj_get_style_outline_color_filtered:
  84              		@ args = 0, pretend = 0, frame = 0
  85              		@ frame_needed = 0, uses_anonymous_args = 0
  86 0000 38B5     		push	{r3, r4, r5, lr}
  87 0002 0446     		mov	r4, r0
  88 0004 0D46     		mov	r5, r1
  89 0006 3622     		movs	r2, #54
  90 0008 FFF7FEFF 		bl	lv_obj_get_style_prop
  91 000c 0246     		mov	r2, r0
  92 000e 2946     		mov	r1, r5
  93 0010 2046     		mov	r0, r4
  94 0012 FFF7FEFF 		bl	_lv_obj_style_apply_color_filter
  95 0016 38BD     		pop	{r3, r4, r5, pc}
  97              		.section	.text.lv_obj_get_style_text_color_filtered,"ax",%progbits
  98              		.align	1
  99              		.syntax unified
 100              		.thumb
 101              		.thumb_func
 103              	lv_obj_get_style_text_color_filtered:
 104              		@ args = 0, pretend = 0, frame = 0
 105              		@ frame_needed = 0, uses_anonymous_args = 0
 106 0000 38B5     		push	{r3, r4, r5, lr}
 107 0002 0446     		mov	r4, r0
 108 0004 0D46     		mov	r5, r1
 109 0006 5522     		movs	r2, #85
 110 0008 FFF7FEFF 		bl	lv_obj_get_style_prop
 111 000c 0246     		mov	r2, r0
 112 000e 2946     		mov	r1, r5
 113 0010 2046     		mov	r0, r4
 114 0012 FFF7FEFF 		bl	_lv_obj_style_apply_color_filter
 115 0016 38BD     		pop	{r3, r4, r5, pc}
 117              		.section	.text.lv_obj_get_style_bg_img_recolor_filtered,"ax",%progbits
 118              		.align	1
 119              		.syntax unified
 120              		.thumb
 121              		.thumb_func
 123              	lv_obj_get_style_bg_img_recolor_filtered:
 124              		@ args = 0, pretend = 0, frame = 0
 125              		@ frame_needed = 0, uses_anonymous_args = 0
ARM GAS  /var/folders/lp/x54gwt890xv47sdkqj1k04q40000gn/T//ccv9Rg7x.s 			page 3


 126 0000 38B5     		push	{r3, r4, r5, lr}
 127 0002 0446     		mov	r4, r0
 128 0004 0D46     		mov	r5, r1
 129 0006 2A22     		movs	r2, #42
 130 0008 FFF7FEFF 		bl	lv_obj_get_style_prop
 131 000c 0246     		mov	r2, r0
 132 000e 2946     		mov	r1, r5
 133 0010 2046     		mov	r0, r4
 134 0012 FFF7FEFF 		bl	_lv_obj_style_apply_color_filter
 135 0016 38BD     		pop	{r3, r4, r5, pc}
 137              		.section	.text.lv_obj_get_style_shadow_color_filtered,"ax",%progbits
 138              		.align	1
 139              		.syntax unified
 140              		.thumb
 141              		.thumb_func
 143              	lv_obj_get_style_shadow_color_filtered:
 144              		@ args = 0, pretend = 0, frame = 0
 145              		@ frame_needed = 0, uses_anonymous_args = 0
 146 0000 38B5     		push	{r3, r4, r5, lr}
 147 0002 0446     		mov	r4, r0
 148 0004 0D46     		mov	r5, r1
 149 0006 4422     		movs	r2, #68
 150 0008 FFF7FEFF 		bl	lv_obj_get_style_prop
 151 000c 0246     		mov	r2, r0
 152 000e 2946     		mov	r1, r5
 153 0010 2046     		mov	r0, r4
 154 0012 FFF7FEFF 		bl	_lv_obj_style_apply_color_filter
 155 0016 38BD     		pop	{r3, r4, r5, pc}
 157              		.section	.text.lv_obj_get_style_img_recolor_filtered,"ax",%progbits
 158              		.align	1
 159              		.syntax unified
 160              		.thumb
 161              		.thumb_func
 163              	lv_obj_get_style_img_recolor_filtered:
 164              		@ args = 0, pretend = 0, frame = 0
 165              		@ frame_needed = 0, uses_anonymous_args = 0
 166 0000 38B5     		push	{r3, r4, r5, lr}
 167 0002 0446     		mov	r4, r0
 168 0004 0D46     		mov	r5, r1
 169 0006 4722     		movs	r2, #71
 170 0008 FFF7FEFF 		bl	lv_obj_get_style_prop
 171 000c 0246     		mov	r2, r0
 172 000e 2946     		mov	r1, r5
 173 0010 2046     		mov	r0, r4
 174 0012 FFF7FEFF 		bl	_lv_obj_style_apply_color_filter
 175 0016 38BD     		pop	{r3, r4, r5, pc}
 177              		.section	.text.lv_obj_get_style_line_color_filtered,"ax",%progbits
 178              		.align	1
 179              		.syntax unified
 180              		.thumb
 181              		.thumb_func
 183              	lv_obj_get_style_line_color_filtered:
 184              		@ args = 0, pretend = 0, frame = 0
 185              		@ frame_needed = 0, uses_anonymous_args = 0
 186 0000 38B5     		push	{r3, r4, r5, lr}
 187 0002 0446     		mov	r4, r0
 188 0004 0D46     		mov	r5, r1
ARM GAS  /var/folders/lp/x54gwt890xv47sdkqj1k04q40000gn/T//ccv9Rg7x.s 			page 4


 189 0006 4D22     		movs	r2, #77
 190 0008 FFF7FEFF 		bl	lv_obj_get_style_prop
 191 000c 0246     		mov	r2, r0
 192 000e 2946     		mov	r1, r5
 193 0010 2046     		mov	r0, r4
 194 0012 FFF7FEFF 		bl	_lv_obj_style_apply_color_filter
 195 0016 38BD     		pop	{r3, r4, r5, pc}
 197              		.section	.text.lv_obj_get_style_arc_color_filtered,"ax",%progbits
 198              		.align	1
 199              		.syntax unified
 200              		.thumb
 201              		.thumb_func
 203              	lv_obj_get_style_arc_color_filtered:
 204              		@ args = 0, pretend = 0, frame = 0
 205              		@ frame_needed = 0, uses_anonymous_args = 0
 206 0000 38B5     		push	{r3, r4, r5, lr}
 207 0002 0446     		mov	r4, r0
 208 0004 0D46     		mov	r5, r1
 209 0006 5222     		movs	r2, #82
 210 0008 FFF7FEFF 		bl	lv_obj_get_style_prop
 211 000c 0246     		mov	r2, r0
 212 000e 2946     		mov	r1, r5
 213 0010 2046     		mov	r0, r4
 214 0012 FFF7FEFF 		bl	_lv_obj_style_apply_color_filter
 215 0016 38BD     		pop	{r3, r4, r5, pc}
 217              		.section	.text.lv_obj_init_draw_rect_dsc,"ax",%progbits
 218              		.align	1
 219              		.global	lv_obj_init_draw_rect_dsc
 220              		.syntax unified
 221              		.thumb
 222              		.thumb_func
 224              	lv_obj_init_draw_rect_dsc:
 225              		@ args = 0, pretend = 0, frame = 0
 226              		@ frame_needed = 0, uses_anonymous_args = 0
 227 0000 F8B5     		push	{r3, r4, r5, r6, r7, lr}
 228 0002 0746     		mov	r7, r0
 229 0004 0D46     		mov	r5, r1
 230 0006 1446     		mov	r4, r2
 231 0008 FFF7FEFF 		bl	lv_obj_get_style_opa_recursive
 232 000c 0646     		mov	r6, r0
 233 000e 8DB1     		cbz	r5, .L22
 234 0010 0228     		cmp	r0, #2
 235 0012 09D8     		bhi	.L23
 236 0014 0023     		movs	r3, #0
 237 0016 E370     		strb	r3, [r4, #3]
 238 0018 A376     		strb	r3, [r4, #26]
 239 001a 84F82230 		strb	r3, [r4, #34]
 240 001e 84F82A30 		strb	r3, [r4, #42]
 241 0022 84F83630 		strb	r3, [r4, #54]
 242              	.L21:
 243 0026 F8BD     		pop	{r3, r4, r5, r6, r7, pc}
 244              	.L23:
 245 0028 6822     		movs	r2, #104
 246 002a 2946     		mov	r1, r5
 247 002c 3846     		mov	r0, r7
 248 002e FFF7FEFF 		bl	lv_obj_get_style_prop
 249 0032 A070     		strb	r0, [r4, #2]
ARM GAS  /var/folders/lp/x54gwt890xv47sdkqj1k04q40000gn/T//ccv9Rg7x.s 			page 5


 250              	.L22:
 251 0034 0B22     		movs	r2, #11
 252 0036 2946     		mov	r1, r5
 253 0038 3846     		mov	r0, r7
 254 003a FFF7FEFF 		bl	lv_obj_get_style_prop
 255 003e 2080     		strh	r0, [r4]	@ movhi
 256 0040 E378     		ldrb	r3, [r4, #3]	@ zero_extendqisi2
 257 0042 002B     		cmp	r3, #0
 258 0044 44D1     		bne	.L34
 259              	.L25:
 260 0046 3222     		movs	r2, #50
 261 0048 2946     		mov	r1, r5
 262 004a 3846     		mov	r0, r7
 263 004c FFF7FEFF 		bl	lv_obj_get_style_prop
 264 0050 00B2     		sxth	r0, r0
 265 0052 2084     		strh	r0, [r4, #32]	@ movhi
 266 0054 20B1     		cbz	r0, .L28
 267 0056 94F82230 		ldrb	r3, [r4, #34]	@ zero_extendqisi2
 268 005a 002B     		cmp	r3, #0
 269 005c 40F08480 		bne	.L35
 270              	.L28:
 271 0060 3522     		movs	r2, #53
 272 0062 2946     		mov	r1, r5
 273 0064 3846     		mov	r0, r7
 274 0066 FFF7FEFF 		bl	lv_obj_get_style_prop
 275 006a 00B2     		sxth	r0, r0
 276 006c E084     		strh	r0, [r4, #38]	@ movhi
 277 006e 20B1     		cbz	r0, .L29
 278 0070 94F82A30 		ldrb	r3, [r4, #42]	@ zero_extendqisi2
 279 0074 002B     		cmp	r3, #0
 280 0076 40F09380 		bne	.L36
 281              	.L29:
 282 007a A37E     		ldrb	r3, [r4, #26]	@ zero_extendqisi2
 283 007c 002B     		cmp	r3, #0
 284 007e 40F0A680 		bne	.L37
 285              	.L30:
 286 0082 94F83630 		ldrb	r3, [r4, #54]	@ zero_extendqisi2
 287 0086 002B     		cmp	r3, #0
 288 0088 40F0DA80 		bne	.L38
 289              	.L32:
 290 008c FC2E     		cmp	r6, #252
 291 008e CAD8     		bhi	.L21
 292 0090 E378     		ldrb	r3, [r4, #3]	@ zero_extendqisi2
 293 0092 06FB03F3 		mul	r3, r6, r3
 294 0096 1B12     		asrs	r3, r3, #8
 295 0098 E370     		strb	r3, [r4, #3]
 296 009a A37E     		ldrb	r3, [r4, #26]	@ zero_extendqisi2
 297 009c 06FB03F3 		mul	r3, r6, r3
 298 00a0 1B12     		asrs	r3, r3, #8
 299 00a2 A376     		strb	r3, [r4, #26]
 300 00a4 94F82230 		ldrb	r3, [r4, #34]	@ zero_extendqisi2
 301 00a8 06FB03F3 		mul	r3, r6, r3
 302 00ac 1B12     		asrs	r3, r3, #8
 303 00ae 84F82230 		strb	r3, [r4, #34]
 304 00b2 94F82A30 		ldrb	r3, [r4, #42]	@ zero_extendqisi2
 305 00b6 06FB03F3 		mul	r3, r6, r3
 306 00ba 1B12     		asrs	r3, r3, #8
ARM GAS  /var/folders/lp/x54gwt890xv47sdkqj1k04q40000gn/T//ccv9Rg7x.s 			page 6


 307 00bc 84F82A30 		strb	r3, [r4, #42]
 308 00c0 94F83630 		ldrb	r3, [r4, #54]	@ zero_extendqisi2
 309 00c4 03FB06F6 		mul	r6, r3, r6
 310 00c8 3612     		asrs	r6, r6, #8
 311 00ca 84F83660 		strb	r6, [r4, #54]
 312 00ce AAE7     		b	.L21
 313              	.L34:
 314 00d0 2122     		movs	r2, #33
 315 00d2 2946     		mov	r1, r5
 316 00d4 3846     		mov	r0, r7
 317 00d6 FFF7FEFF 		bl	lv_obj_get_style_prop
 318 00da C0B2     		uxtb	r0, r0
 319 00dc E070     		strb	r0, [r4, #3]
 320 00de 0228     		cmp	r0, #2
 321 00e0 B1D9     		bls	.L25
 322 00e2 2946     		mov	r1, r5
 323 00e4 3846     		mov	r0, r7
 324 00e6 FFF7FEFF 		bl	lv_obj_get_style_bg_color_filtered
 325 00ea A080     		strh	r0, [r4, #4]	@ movhi
 326 00ec 2622     		movs	r2, #38
 327 00ee 2946     		mov	r1, r5
 328 00f0 3846     		mov	r0, r7
 329 00f2 FFF7FEFF 		bl	lv_obj_get_style_prop
 330 00f6 0146     		mov	r1, r0
 331 00f8 18B1     		cbz	r0, .L26
 332 00fa 437A     		ldrb	r3, [r0, #9]	@ zero_extendqisi2
 333 00fc 13F0070F 		tst	r3, #7
 334 0100 16D1     		bne	.L39
 335              	.L26:
 336 0102 2322     		movs	r2, #35
 337 0104 2946     		mov	r1, r5
 338 0106 3846     		mov	r0, r7
 339 0108 FFF7FEFF 		bl	lv_obj_get_style_prop
 340 010c E37B     		ldrb	r3, [r4, #15]	@ zero_extendqisi2
 341 010e 60F30203 		bfi	r3, r0, #0, #3
 342 0112 E373     		strb	r3, [r4, #15]
 343 0114 DBB2     		uxtb	r3, r3
 344 0116 13F0070F 		tst	r3, #7
 345 011a 0ED1     		bne	.L40
 346              	.L27:
 347 011c 2722     		movs	r2, #39
 348 011e 2946     		mov	r1, r5
 349 0120 3846     		mov	r0, r7
 350 0122 FFF7FEFF 		bl	lv_obj_get_style_prop
 351 0126 E37B     		ldrb	r3, [r4, #15]	@ zero_extendqisi2
 352 0128 60F3C503 		bfi	r3, r0, #3, #3
 353 012c E373     		strb	r3, [r4, #15]
 354 012e 8AE7     		b	.L25
 355              	.L39:
 356 0130 0A22     		movs	r2, #10
 357 0132 A01D     		adds	r0, r4, #6
 358 0134 FFF7FEFF 		bl	lv_memcpy
 359 0138 85E7     		b	.L25
 360              	.L40:
 361 013a 2946     		mov	r1, r5
 362 013c 3846     		mov	r0, r7
 363 013e FFF7FEFF 		bl	lv_obj_get_style_bg_color_filtered
ARM GAS  /var/folders/lp/x54gwt890xv47sdkqj1k04q40000gn/T//ccv9Rg7x.s 			page 7


 364 0142 E080     		strh	r0, [r4, #6]	@ movhi
 365 0144 2946     		mov	r1, r5
 366 0146 3846     		mov	r0, r7
 367 0148 FFF7FEFF 		bl	lv_obj_get_style_bg_grad_color_filtered
 368 014c 6081     		strh	r0, [r4, #10]	@ movhi
 369 014e 2422     		movs	r2, #36
 370 0150 2946     		mov	r1, r5
 371 0152 3846     		mov	r0, r7
 372 0154 FFF7FEFF 		bl	lv_obj_get_style_prop
 373 0158 2072     		strb	r0, [r4, #8]
 374 015a 2522     		movs	r2, #37
 375 015c 2946     		mov	r1, r5
 376 015e 3846     		mov	r0, r7
 377 0160 FFF7FEFF 		bl	lv_obj_get_style_prop
 378 0164 2073     		strb	r0, [r4, #12]
 379 0166 D9E7     		b	.L27
 380              	.L35:
 381 0168 3122     		movs	r2, #49
 382 016a 2946     		mov	r1, r5
 383 016c 3846     		mov	r0, r7
 384 016e FFF7FEFF 		bl	lv_obj_get_style_prop
 385 0172 C0B2     		uxtb	r0, r0
 386 0174 84F82200 		strb	r0, [r4, #34]
 387 0178 0228     		cmp	r0, #2
 388 017a 7FF671AF 		bls	.L28
 389 017e 3322     		movs	r2, #51
 390 0180 2946     		mov	r1, r5
 391 0182 3846     		mov	r0, r7
 392 0184 FFF7FEFF 		bl	lv_obj_get_style_prop
 393 0188 94F82330 		ldrb	r3, [r4, #35]	@ zero_extendqisi2
 394 018c 60F34503 		bfi	r3, r0, #1, #5
 395 0190 84F82330 		strb	r3, [r4, #35]
 396 0194 2946     		mov	r1, r5
 397 0196 3846     		mov	r0, r7
 398 0198 FFF7FEFF 		bl	lv_obj_get_style_border_color_filtered
 399 019c E083     		strh	r0, [r4, #30]	@ movhi
 400 019e 5FE7     		b	.L28
 401              	.L36:
 402 01a0 3722     		movs	r2, #55
 403 01a2 2946     		mov	r1, r5
 404 01a4 3846     		mov	r0, r7
 405 01a6 FFF7FEFF 		bl	lv_obj_get_style_prop
 406 01aa C0B2     		uxtb	r0, r0
 407 01ac 84F82A00 		strb	r0, [r4, #42]
 408 01b0 0228     		cmp	r0, #2
 409 01b2 7FF662AF 		bls	.L29
 410 01b6 3822     		movs	r2, #56
 411 01b8 2946     		mov	r1, r5
 412 01ba 3846     		mov	r0, r7
 413 01bc FFF7FEFF 		bl	lv_obj_get_style_prop
 414 01c0 2085     		strh	r0, [r4, #40]	@ movhi
 415 01c2 2946     		mov	r1, r5
 416 01c4 3846     		mov	r0, r7
 417 01c6 FFF7FEFF 		bl	lv_obj_get_style_outline_color_filtered
 418 01ca A084     		strh	r0, [r4, #36]	@ movhi
 419 01cc 55E7     		b	.L29
 420              	.L37:
ARM GAS  /var/folders/lp/x54gwt890xv47sdkqj1k04q40000gn/T//ccv9Rg7x.s 			page 8


 421 01ce 2822     		movs	r2, #40
 422 01d0 2946     		mov	r1, r5
 423 01d2 3846     		mov	r0, r7
 424 01d4 FFF7FEFF 		bl	lv_obj_get_style_prop
 425 01d8 2061     		str	r0, [r4, #16]
 426 01da 0028     		cmp	r0, #0
 427 01dc 3FF451AF 		beq	.L30
 428 01e0 2922     		movs	r2, #41
 429 01e2 2946     		mov	r1, r5
 430 01e4 3846     		mov	r0, r7
 431 01e6 FFF7FEFF 		bl	lv_obj_get_style_prop
 432 01ea C0B2     		uxtb	r0, r0
 433 01ec A076     		strb	r0, [r4, #26]
 434 01ee 0228     		cmp	r0, #2
 435 01f0 7FF647AF 		bls	.L30
 436 01f4 2069     		ldr	r0, [r4, #16]
 437 01f6 FFF7FEFF 		bl	lv_img_src_get_type
 438 01fa 0228     		cmp	r0, #2
 439 01fc 14D0     		beq	.L41
 440 01fe 2946     		mov	r1, r5
 441 0200 3846     		mov	r0, r7
 442 0202 FFF7FEFF 		bl	lv_obj_get_style_bg_img_recolor_filtered
 443 0206 2083     		strh	r0, [r4, #24]	@ movhi
 444 0208 2B22     		movs	r2, #43
 445 020a 2946     		mov	r1, r5
 446 020c 3846     		mov	r0, r7
 447 020e FFF7FEFF 		bl	lv_obj_get_style_prop
 448 0212 E076     		strb	r0, [r4, #27]
 449 0214 2C22     		movs	r2, #44
 450 0216 2946     		mov	r1, r5
 451 0218 3846     		mov	r0, r7
 452 021a FFF7FEFF 		bl	lv_obj_get_style_prop
 453 021e 0038     		subs	r0, r0, #0
 454 0220 18BF     		it	ne
 455 0222 0120     		movne	r0, #1
 456 0224 2077     		strb	r0, [r4, #28]
 457 0226 2CE7     		b	.L30
 458              	.L41:
 459 0228 5722     		movs	r2, #87
 460 022a 2946     		mov	r1, r5
 461 022c 3846     		mov	r0, r7
 462 022e FFF7FEFF 		bl	lv_obj_get_style_prop
 463 0232 6061     		str	r0, [r4, #20]
 464 0234 2946     		mov	r1, r5
 465 0236 3846     		mov	r0, r7
 466 0238 FFF7FEFF 		bl	lv_obj_get_style_text_color_filtered
 467 023c 2083     		strh	r0, [r4, #24]	@ movhi
 468 023e 20E7     		b	.L30
 469              	.L38:
 470 0240 4022     		movs	r2, #64
 471 0242 2946     		mov	r1, r5
 472 0244 3846     		mov	r0, r7
 473 0246 FFF7FEFF 		bl	lv_obj_get_style_prop
 474 024a 00B2     		sxth	r0, r0
 475 024c E085     		strh	r0, [r4, #46]	@ movhi
 476 024e 0028     		cmp	r0, #0
 477 0250 3FF41CAF 		beq	.L32
ARM GAS  /var/folders/lp/x54gwt890xv47sdkqj1k04q40000gn/T//ccv9Rg7x.s 			page 9


 478 0254 94F83630 		ldrb	r3, [r4, #54]	@ zero_extendqisi2
 479 0258 022B     		cmp	r3, #2
 480 025a 7FF617AF 		bls	.L32
 481 025e 4522     		movs	r2, #69
 482 0260 2946     		mov	r1, r5
 483 0262 3846     		mov	r0, r7
 484 0264 FFF7FEFF 		bl	lv_obj_get_style_prop
 485 0268 C0B2     		uxtb	r0, r0
 486 026a 84F83600 		strb	r0, [r4, #54]
 487 026e 0228     		cmp	r0, #2
 488 0270 7FF60CAF 		bls	.L32
 489 0274 4122     		movs	r2, #65
 490 0276 2946     		mov	r1, r5
 491 0278 3846     		mov	r0, r7
 492 027a FFF7FEFF 		bl	lv_obj_get_style_prop
 493 027e 2086     		strh	r0, [r4, #48]	@ movhi
 494 0280 4222     		movs	r2, #66
 495 0282 2946     		mov	r1, r5
 496 0284 3846     		mov	r0, r7
 497 0286 FFF7FEFF 		bl	lv_obj_get_style_prop
 498 028a 6086     		strh	r0, [r4, #50]	@ movhi
 499 028c 4322     		movs	r2, #67
 500 028e 2946     		mov	r1, r5
 501 0290 3846     		mov	r0, r7
 502 0292 FFF7FEFF 		bl	lv_obj_get_style_prop
 503 0296 A086     		strh	r0, [r4, #52]	@ movhi
 504 0298 2946     		mov	r1, r5
 505 029a 3846     		mov	r0, r7
 506 029c FFF7FEFF 		bl	lv_obj_get_style_shadow_color_filtered
 507 02a0 A085     		strh	r0, [r4, #44]	@ movhi
 508 02a2 F3E6     		b	.L32
 510              		.section	.text.lv_obj_init_draw_label_dsc,"ax",%progbits
 511              		.align	1
 512              		.global	lv_obj_init_draw_label_dsc
 513              		.syntax unified
 514              		.thumb
 515              		.thumb_func
 517              	lv_obj_init_draw_label_dsc:
 518              		@ args = 0, pretend = 0, frame = 0
 519              		@ frame_needed = 0, uses_anonymous_args = 0
 520 0000 70B5     		push	{r4, r5, r6, lr}
 521 0002 0646     		mov	r6, r0
 522 0004 0D46     		mov	r5, r1
 523 0006 1446     		mov	r4, r2
 524 0008 5622     		movs	r2, #86
 525 000a FFF7FEFF 		bl	lv_obj_get_style_prop
 526 000e C3B2     		uxtb	r3, r0
 527 0010 A376     		strb	r3, [r4, #26]
 528 0012 022B     		cmp	r3, #2
 529 0014 00D8     		bhi	.L48
 530              	.L42:
 531 0016 70BD     		pop	{r4, r5, r6, pc}
 532              	.L48:
 533 0018 2946     		mov	r1, r5
 534 001a 3046     		mov	r0, r6
 535 001c FFF7FEFF 		bl	lv_obj_get_style_opa_recursive
 536 0020 0228     		cmp	r0, #2
ARM GAS  /var/folders/lp/x54gwt890xv47sdkqj1k04q40000gn/T//ccv9Rg7x.s 			page 10


 537 0022 31D9     		bls	.L49
 538 0024 FC28     		cmp	r0, #252
 539 0026 04D8     		bhi	.L45
 540 0028 A37E     		ldrb	r3, [r4, #26]	@ zero_extendqisi2
 541 002a 03FB00F0 		mul	r0, r3, r0
 542 002e 0012     		asrs	r0, r0, #8
 543 0030 A076     		strb	r0, [r4, #26]
 544              	.L45:
 545 0032 A37E     		ldrb	r3, [r4, #26]	@ zero_extendqisi2
 546 0034 022B     		cmp	r3, #2
 547 0036 EED9     		bls	.L42
 548 0038 2946     		mov	r1, r5
 549 003a 3046     		mov	r0, r6
 550 003c FFF7FEFF 		bl	lv_obj_get_style_text_color_filtered
 551 0040 A081     		strh	r0, [r4, #12]	@ movhi
 552 0042 5822     		movs	r2, #88
 553 0044 2946     		mov	r1, r5
 554 0046 3046     		mov	r0, r6
 555 0048 FFF7FEFF 		bl	lv_obj_get_style_prop
 556 004c A082     		strh	r0, [r4, #20]	@ movhi
 557 004e 5922     		movs	r2, #89
 558 0050 2946     		mov	r1, r5
 559 0052 3046     		mov	r0, r6
 560 0054 FFF7FEFF 		bl	lv_obj_get_style_prop
 561 0058 6082     		strh	r0, [r4, #18]	@ movhi
 562 005a 5A22     		movs	r2, #90
 563 005c 2946     		mov	r1, r5
 564 005e 3046     		mov	r0, r6
 565 0060 FFF7FEFF 		bl	lv_obj_get_style_prop
 566 0064 A37F     		ldrb	r3, [r4, #30]	@ zero_extendqisi2
 567 0066 60F30203 		bfi	r3, r0, #0, #3
 568 006a A377     		strb	r3, [r4, #30]
 569 006c 7DB9     		cbnz	r5, .L50
 570              	.L46:
 571 006e 5722     		movs	r2, #87
 572 0070 2946     		mov	r1, r5
 573 0072 3046     		mov	r0, r6
 574 0074 FFF7FEFF 		bl	lv_obj_get_style_prop
 575 0078 2060     		str	r0, [r4]
 576 007a 5B22     		movs	r2, #91
 577 007c 2946     		mov	r1, r5
 578 007e 3046     		mov	r0, r6
 579 0080 FFF7FEFF 		bl	lv_obj_get_style_prop
 580 0084 2077     		strb	r0, [r4, #28]
 581 0086 C6E7     		b	.L42
 582              	.L49:
 583 0088 0023     		movs	r3, #0
 584 008a A376     		strb	r3, [r4, #26]
 585 008c C3E7     		b	.L42
 586              	.L50:
 587 008e 6822     		movs	r2, #104
 588 0090 2946     		mov	r1, r5
 589 0092 3046     		mov	r0, r6
 590 0094 FFF7FEFF 		bl	lv_obj_get_style_prop
 591 0098 A37F     		ldrb	r3, [r4, #30]	@ zero_extendqisi2
 592 009a 60F3C503 		bfi	r3, r0, #3, #3
 593 009e A377     		strb	r3, [r4, #30]
ARM GAS  /var/folders/lp/x54gwt890xv47sdkqj1k04q40000gn/T//ccv9Rg7x.s 			page 11


 594 00a0 E5E7     		b	.L46
 596              		.section	.text.lv_obj_init_draw_img_dsc,"ax",%progbits
 597              		.align	1
 598              		.global	lv_obj_init_draw_img_dsc
 599              		.syntax unified
 600              		.thumb
 601              		.thumb_func
 603              	lv_obj_init_draw_img_dsc:
 604              		@ args = 0, pretend = 0, frame = 0
 605              		@ frame_needed = 0, uses_anonymous_args = 0
 606 0000 70B5     		push	{r4, r5, r6, lr}
 607 0002 0546     		mov	r5, r0
 608 0004 0E46     		mov	r6, r1
 609 0006 1446     		mov	r4, r2
 610 0008 4622     		movs	r2, #70
 611 000a FFF7FEFF 		bl	lv_obj_get_style_prop
 612 000e C3B2     		uxtb	r3, r0
 613 0010 E372     		strb	r3, [r4, #11]
 614 0012 022B     		cmp	r3, #2
 615 0014 00D8     		bhi	.L57
 616              	.L51:
 617 0016 70BD     		pop	{r4, r5, r6, pc}
 618              	.L57:
 619 0018 3146     		mov	r1, r6
 620 001a 2846     		mov	r0, r5
 621 001c FFF7FEFF 		bl	lv_obj_get_style_opa_recursive
 622 0020 0228     		cmp	r0, #2
 623 0022 38D9     		bls	.L58
 624 0024 FC28     		cmp	r0, #252
 625 0026 04D8     		bhi	.L54
 626 0028 E37A     		ldrb	r3, [r4, #11]	@ zero_extendqisi2
 627 002a 03FB00F0 		mul	r0, r3, r0
 628 002e 0012     		asrs	r0, r0, #8
 629 0030 E072     		strb	r0, [r4, #11]
 630              	.L54:
 631 0032 E37A     		ldrb	r3, [r4, #11]	@ zero_extendqisi2
 632 0034 022B     		cmp	r3, #2
 633 0036 EED9     		bls	.L51
 634 0038 0023     		movs	r3, #0
 635 003a 2380     		strh	r3, [r4]	@ movhi
 636 003c 4FF48073 		mov	r3, #256
 637 0040 6380     		strh	r3, [r4, #2]	@ movhi
 638 0042 2B8B     		ldrh	r3, [r5, #24]
 639 0044 AA8A     		ldrh	r2, [r5, #20]
 640 0046 9B1A     		subs	r3, r3, r2
 641 0048 9BB2     		uxth	r3, r3
 642 004a 0133     		adds	r3, r3, #1
 643 004c C3F3C032 		ubfx	r2, r3, #15, #1
 644 0050 02FA83F3 		sxtah	r3, r2, r3
 645 0054 5B10     		asrs	r3, r3, #1
 646 0056 A380     		strh	r3, [r4, #4]	@ movhi
 647 0058 6B8B     		ldrh	r3, [r5, #26]
 648 005a EA8A     		ldrh	r2, [r5, #22]
 649 005c 9B1A     		subs	r3, r3, r2
 650 005e 9BB2     		uxth	r3, r3
 651 0060 0133     		adds	r3, r3, #1
 652 0062 C3F3C032 		ubfx	r2, r3, #15, #1
ARM GAS  /var/folders/lp/x54gwt890xv47sdkqj1k04q40000gn/T//ccv9Rg7x.s 			page 12


 653 0066 02FA83F3 		sxtah	r3, r2, r3
 654 006a 5B10     		asrs	r3, r3, #1
 655 006c E380     		strh	r3, [r4, #6]	@ movhi
 656 006e 4822     		movs	r2, #72
 657 0070 3146     		mov	r1, r6
 658 0072 2846     		mov	r0, r5
 659 0074 FFF7FEFF 		bl	lv_obj_get_style_prop
 660 0078 C0B2     		uxtb	r0, r0
 661 007a A072     		strb	r0, [r4, #10]
 662 007c 70B9     		cbnz	r0, .L59
 663              	.L55:
 664 007e 002E     		cmp	r6, #0
 665 0080 C9D0     		beq	.L51
 666 0082 6822     		movs	r2, #104
 667 0084 3146     		mov	r1, r6
 668 0086 2846     		mov	r0, r5
 669 0088 FFF7FEFF 		bl	lv_obj_get_style_prop
 670 008c 237B     		ldrb	r3, [r4, #12]	@ zero_extendqisi2
 671 008e 60F30303 		bfi	r3, r0, #0, #4
 672 0092 2373     		strb	r3, [r4, #12]
 673 0094 BFE7     		b	.L51
 674              	.L58:
 675 0096 0023     		movs	r3, #0
 676 0098 E372     		strb	r3, [r4, #11]
 677 009a BCE7     		b	.L51
 678              	.L59:
 679 009c 3146     		mov	r1, r6
 680 009e 2846     		mov	r0, r5
 681 00a0 FFF7FEFF 		bl	lv_obj_get_style_img_recolor_filtered
 682 00a4 2081     		strh	r0, [r4, #8]	@ movhi
 683 00a6 EAE7     		b	.L55
 685              		.section	.text.lv_obj_init_draw_line_dsc,"ax",%progbits
 686              		.align	1
 687              		.global	lv_obj_init_draw_line_dsc
 688              		.syntax unified
 689              		.thumb
 690              		.thumb_func
 692              	lv_obj_init_draw_line_dsc:
 693              		@ args = 0, pretend = 0, frame = 0
 694              		@ frame_needed = 0, uses_anonymous_args = 0
 695 0000 70B5     		push	{r4, r5, r6, lr}
 696 0002 0646     		mov	r6, r0
 697 0004 0D46     		mov	r5, r1
 698 0006 1446     		mov	r4, r2
 699 0008 4E22     		movs	r2, #78
 700 000a FFF7FEFF 		bl	lv_obj_get_style_prop
 701 000e C3B2     		uxtb	r3, r0
 702 0010 2372     		strb	r3, [r4, #8]
 703 0012 022B     		cmp	r3, #2
 704 0014 00D8     		bhi	.L66
 705              	.L60:
 706 0016 70BD     		pop	{r4, r5, r6, pc}
 707              	.L66:
 708 0018 2946     		mov	r1, r5
 709 001a 3046     		mov	r0, r6
 710 001c FFF7FEFF 		bl	lv_obj_get_style_opa_recursive
 711 0020 0228     		cmp	r0, #2
ARM GAS  /var/folders/lp/x54gwt890xv47sdkqj1k04q40000gn/T//ccv9Rg7x.s 			page 13


 712 0022 3BD9     		bls	.L67
 713 0024 FC28     		cmp	r0, #252
 714 0026 04D8     		bhi	.L63
 715 0028 237A     		ldrb	r3, [r4, #8]	@ zero_extendqisi2
 716 002a 03FB00F0 		mul	r0, r3, r0
 717 002e 0012     		asrs	r0, r0, #8
 718 0030 2072     		strb	r0, [r4, #8]
 719              	.L63:
 720 0032 237A     		ldrb	r3, [r4, #8]	@ zero_extendqisi2
 721 0034 022B     		cmp	r3, #2
 722 0036 EED9     		bls	.L60
 723 0038 4922     		movs	r2, #73
 724 003a 2946     		mov	r1, r5
 725 003c 3046     		mov	r0, r6
 726 003e FFF7FEFF 		bl	lv_obj_get_style_prop
 727 0042 00B2     		sxth	r0, r0
 728 0044 6080     		strh	r0, [r4, #2]	@ movhi
 729 0046 0028     		cmp	r0, #0
 730 0048 E5D0     		beq	.L60
 731 004a 2946     		mov	r1, r5
 732 004c 3046     		mov	r0, r6
 733 004e FFF7FEFF 		bl	lv_obj_get_style_line_color_filtered
 734 0052 2080     		strh	r0, [r4]	@ movhi
 735 0054 4A22     		movs	r2, #74
 736 0056 2946     		mov	r1, r5
 737 0058 3046     		mov	r0, r6
 738 005a FFF7FEFF 		bl	lv_obj_get_style_prop
 739 005e 00B2     		sxth	r0, r0
 740 0060 A080     		strh	r0, [r4, #4]	@ movhi
 741 0062 F0B9     		cbnz	r0, .L68
 742              	.L64:
 743 0064 4C22     		movs	r2, #76
 744 0066 2946     		mov	r1, r5
 745 0068 3046     		mov	r0, r6
 746 006a FFF7FEFF 		bl	lv_obj_get_style_prop
 747 006e 0038     		subs	r0, r0, #0
 748 0070 18BF     		it	ne
 749 0072 0120     		movne	r0, #1
 750 0074 637A     		ldrb	r3, [r4, #9]	@ zero_extendqisi2
 751 0076 60F38203 		bfi	r3, r0, #2, #1
 752 007a 6372     		strb	r3, [r4, #9]
 753 007c DBB2     		uxtb	r3, r3
 754 007e 60F3C303 		bfi	r3, r0, #3, #1
 755 0082 6372     		strb	r3, [r4, #9]
 756 0084 002D     		cmp	r5, #0
 757 0086 C6D0     		beq	.L60
 758 0088 6822     		movs	r2, #104
 759 008a 2946     		mov	r1, r5
 760 008c 3046     		mov	r0, r6
 761 008e FFF7FEFF 		bl	lv_obj_get_style_prop
 762 0092 637A     		ldrb	r3, [r4, #9]	@ zero_extendqisi2
 763 0094 60F30103 		bfi	r3, r0, #0, #2
 764 0098 6372     		strb	r3, [r4, #9]
 765 009a BCE7     		b	.L60
 766              	.L67:
 767 009c 0023     		movs	r3, #0
 768 009e 2372     		strb	r3, [r4, #8]
ARM GAS  /var/folders/lp/x54gwt890xv47sdkqj1k04q40000gn/T//ccv9Rg7x.s 			page 14


 769 00a0 B9E7     		b	.L60
 770              	.L68:
 771 00a2 4B22     		movs	r2, #75
 772 00a4 2946     		mov	r1, r5
 773 00a6 3046     		mov	r0, r6
 774 00a8 FFF7FEFF 		bl	lv_obj_get_style_prop
 775 00ac E080     		strh	r0, [r4, #6]	@ movhi
 776 00ae D9E7     		b	.L64
 778              		.section	.text.lv_obj_init_draw_arc_dsc,"ax",%progbits
 779              		.align	1
 780              		.global	lv_obj_init_draw_arc_dsc
 781              		.syntax unified
 782              		.thumb
 783              		.thumb_func
 785              	lv_obj_init_draw_arc_dsc:
 786              		@ args = 0, pretend = 0, frame = 0
 787              		@ frame_needed = 0, uses_anonymous_args = 0
 788 0000 70B5     		push	{r4, r5, r6, lr}
 789 0002 0646     		mov	r6, r0
 790 0004 0D46     		mov	r5, r1
 791 0006 1446     		mov	r4, r2
 792 0008 5022     		movs	r2, #80
 793 000a FFF7FEFF 		bl	lv_obj_get_style_prop
 794 000e 00B2     		sxth	r0, r0
 795 0010 6080     		strh	r0, [r4, #2]	@ movhi
 796 0012 00B9     		cbnz	r0, .L74
 797              	.L69:
 798 0014 70BD     		pop	{r4, r5, r6, pc}
 799              	.L74:
 800 0016 5322     		movs	r2, #83
 801 0018 2946     		mov	r1, r5
 802 001a 3046     		mov	r0, r6
 803 001c FFF7FEFF 		bl	lv_obj_get_style_prop
 804 0020 C3B2     		uxtb	r3, r0
 805 0022 2373     		strb	r3, [r4, #12]
 806 0024 022B     		cmp	r3, #2
 807 0026 F5D9     		bls	.L69
 808 0028 2946     		mov	r1, r5
 809 002a 3046     		mov	r0, r6
 810 002c FFF7FEFF 		bl	lv_obj_get_style_opa_recursive
 811 0030 0228     		cmp	r0, #2
 812 0032 2CD9     		bls	.L75
 813 0034 FC28     		cmp	r0, #252
 814 0036 04D8     		bhi	.L72
 815 0038 237B     		ldrb	r3, [r4, #12]	@ zero_extendqisi2
 816 003a 03FB00F0 		mul	r0, r3, r0
 817 003e 0012     		asrs	r0, r0, #8
 818 0040 2073     		strb	r0, [r4, #12]
 819              	.L72:
 820 0042 237B     		ldrb	r3, [r4, #12]	@ zero_extendqisi2
 821 0044 022B     		cmp	r3, #2
 822 0046 E5D9     		bls	.L69
 823 0048 2946     		mov	r1, r5
 824 004a 3046     		mov	r0, r6
 825 004c FFF7FEFF 		bl	lv_obj_get_style_arc_color_filtered
 826 0050 2080     		strh	r0, [r4]	@ movhi
 827 0052 5422     		movs	r2, #84
ARM GAS  /var/folders/lp/x54gwt890xv47sdkqj1k04q40000gn/T//ccv9Rg7x.s 			page 15


 828 0054 2946     		mov	r1, r5
 829 0056 3046     		mov	r0, r6
 830 0058 FFF7FEFF 		bl	lv_obj_get_style_prop
 831 005c A060     		str	r0, [r4, #8]
 832 005e 5122     		movs	r2, #81
 833 0060 2946     		mov	r1, r5
 834 0062 3046     		mov	r0, r6
 835 0064 FFF7FEFF 		bl	lv_obj_get_style_prop
 836 0068 0038     		subs	r0, r0, #0
 837 006a 18BF     		it	ne
 838 006c 0120     		movne	r0, #1
 839 006e 637B     		ldrb	r3, [r4, #13]	@ zero_extendqisi2
 840 0070 60F38203 		bfi	r3, r0, #2, #1
 841 0074 6373     		strb	r3, [r4, #13]
 842 0076 002D     		cmp	r5, #0
 843 0078 CCD0     		beq	.L69
 844 007a 6822     		movs	r2, #104
 845 007c 2946     		mov	r1, r5
 846 007e 3046     		mov	r0, r6
 847 0080 FFF7FEFF 		bl	lv_obj_get_style_prop
 848 0084 637B     		ldrb	r3, [r4, #13]	@ zero_extendqisi2
 849 0086 60F30103 		bfi	r3, r0, #0, #2
 850 008a 6373     		strb	r3, [r4, #13]
 851 008c C2E7     		b	.L69
 852              	.L75:
 853 008e 0023     		movs	r3, #0
 854 0090 2373     		strb	r3, [r4, #12]
 855 0092 BFE7     		b	.L69
 857              		.section	.text.lv_obj_calculate_ext_draw_size,"ax",%progbits
 858              		.align	1
 859              		.global	lv_obj_calculate_ext_draw_size
 860              		.syntax unified
 861              		.thumb
 862              		.thumb_func
 864              	lv_obj_calculate_ext_draw_size:
 865              		@ args = 0, pretend = 0, frame = 0
 866              		@ frame_needed = 0, uses_anonymous_args = 0
 867 0000 F8B5     		push	{r3, r4, r5, r6, r7, lr}
 868 0002 0546     		mov	r5, r0
 869 0004 0E46     		mov	r6, r1
 870 0006 4022     		movs	r2, #64
 871 0008 FFF7FEFF 		bl	lv_obj_get_style_prop
 872 000c 04B2     		sxth	r4, r0
 873 000e E4B9     		cbnz	r4, .L82
 874              	.L77:
 875 0010 3522     		movs	r2, #53
 876 0012 3146     		mov	r1, r6
 877 0014 2846     		mov	r0, r5
 878 0016 FFF7FEFF 		bl	lv_obj_get_style_prop
 879 001a 07B2     		sxth	r7, r0
 880 001c 002F     		cmp	r7, #0
 881 001e 47D1     		bne	.L83
 882              	.L78:
 883 0020 6922     		movs	r2, #105
 884 0022 3146     		mov	r1, r6
 885 0024 2846     		mov	r0, r5
 886 0026 FFF7FEFF 		bl	lv_obj_get_style_prop
ARM GAS  /var/folders/lp/x54gwt890xv47sdkqj1k04q40000gn/T//ccv9Rg7x.s 			page 16


 887 002a 07B2     		sxth	r7, r0
 888 002c 6A22     		movs	r2, #106
 889 002e 3146     		mov	r1, r6
 890 0030 2846     		mov	r0, r5
 891 0032 FFF7FEFF 		bl	lv_obj_get_style_prop
 892 0036 00B2     		sxth	r0, r0
 893 0038 B842     		cmp	r0, r7
 894 003a B8BF     		it	lt
 895 003c 3846     		movlt	r0, r7
 896 003e 0028     		cmp	r0, #0
 897 0040 01DD     		ble	.L79
 898 0042 2044     		add	r0, r0, r4
 899 0044 04B2     		sxth	r4, r0
 900              	.L79:
 901 0046 2046     		mov	r0, r4
 902 0048 F8BD     		pop	{r3, r4, r5, r6, r7, pc}
 903              	.L82:
 904 004a 4522     		movs	r2, #69
 905 004c 3146     		mov	r1, r6
 906 004e 2846     		mov	r0, r5
 907 0050 FFF7FEFF 		bl	lv_obj_get_style_prop
 908 0054 C0B2     		uxtb	r0, r0
 909 0056 0228     		cmp	r0, #2
 910 0058 01D8     		bhi	.L84
 911 005a 0024     		movs	r4, #0
 912 005c D8E7     		b	.L77
 913              	.L84:
 914 005e 04EBD477 		add	r7, r4, r4, lsr #31
 915 0062 7F10     		asrs	r7, r7, #1
 916 0064 0137     		adds	r7, r7, #1
 917 0066 BFB2     		uxth	r7, r7
 918 0068 4322     		movs	r2, #67
 919 006a 3146     		mov	r1, r6
 920 006c 2846     		mov	r0, r5
 921 006e FFF7FEFF 		bl	lv_obj_get_style_prop
 922 0072 17FA80F4 		uxtah	r4, r7, r0
 923 0076 A4B2     		uxth	r4, r4
 924 0078 4122     		movs	r2, #65
 925 007a 3146     		mov	r1, r6
 926 007c 2846     		mov	r0, r5
 927 007e FFF7FEFF 		bl	lv_obj_get_style_prop
 928 0082 07B2     		sxth	r7, r0
 929 0084 4222     		movs	r2, #66
 930 0086 3146     		mov	r1, r6
 931 0088 2846     		mov	r0, r5
 932 008a FFF7FEFF 		bl	lv_obj_get_style_prop
 933 008e 03B2     		sxth	r3, r0
 934 0090 002B     		cmp	r3, #0
 935 0092 B8BF     		it	lt
 936 0094 5B42     		rsblt	r3, r3, #0
 937 0096 9BB2     		uxth	r3, r3
 938 0098 002F     		cmp	r7, #0
 939 009a B8BF     		it	lt
 940 009c 7F42     		rsblt	r7, r7, #0
 941 009e BFB2     		uxth	r7, r7
 942 00a0 BB42     		cmp	r3, r7
 943 00a2 2CBF     		ite	cs
ARM GAS  /var/folders/lp/x54gwt890xv47sdkqj1k04q40000gn/T//ccv9Rg7x.s 			page 17


 944 00a4 E418     		addcs	r4, r4, r3
 945 00a6 E419     		addcc	r4, r4, r7
 946 00a8 24B2     		sxth	r4, r4
 947 00aa 24EAE474 		bic	r4, r4, r4, asr #31
 948 00ae AFE7     		b	.L77
 949              	.L83:
 950 00b0 3722     		movs	r2, #55
 951 00b2 3146     		mov	r1, r6
 952 00b4 2846     		mov	r0, r5
 953 00b6 FFF7FEFF 		bl	lv_obj_get_style_prop
 954 00ba C0B2     		uxtb	r0, r0
 955 00bc 0228     		cmp	r0, #2
 956 00be AFD9     		bls	.L78
 957 00c0 3822     		movs	r2, #56
 958 00c2 3146     		mov	r1, r6
 959 00c4 2846     		mov	r0, r5
 960 00c6 FFF7FEFF 		bl	lv_obj_get_style_prop
 961 00ca 07FA80F0 		sxtah	r0, r7, r0
 962 00ce A042     		cmp	r0, r4
 963 00d0 B8BF     		it	lt
 964 00d2 2046     		movlt	r0, r4
 965 00d4 04B2     		sxth	r4, r0
 966 00d6 A3E7     		b	.L78
 968              		.section	.text.lv_obj_draw_dsc_init,"ax",%progbits
 969              		.align	1
 970              		.global	lv_obj_draw_dsc_init
 971              		.syntax unified
 972              		.thumb
 973              		.thumb_func
 975              	lv_obj_draw_dsc_init:
 976              		@ args = 0, pretend = 0, frame = 0
 977              		@ frame_needed = 0, uses_anonymous_args = 0
 978 0000 38B5     		push	{r3, r4, r5, lr}
 979 0002 0446     		mov	r4, r0
 980 0004 0D46     		mov	r5, r1
 981 0006 4821     		movs	r1, #72
 982 0008 FFF7FEFF 		bl	lv_memset_00
 983 000c 2560     		str	r5, [r4]
 984 000e 38BD     		pop	{r3, r4, r5, pc}
 986              		.section	.text.lv_obj_draw_part_check_type,"ax",%progbits
 987              		.align	1
 988              		.global	lv_obj_draw_part_check_type
 989              		.syntax unified
 990              		.thumb
 991              		.thumb_func
 993              	lv_obj_draw_part_check_type:
 994              		@ args = 0, pretend = 0, frame = 0
 995              		@ frame_needed = 0, uses_anonymous_args = 0
 996              		@ link register save eliminated.
 997 0000 4368     		ldr	r3, [r0, #4]
 998 0002 8B42     		cmp	r3, r1
 999 0004 01D0     		beq	.L91
 1000 0006 0020     		movs	r0, #0
 1001 0008 7047     		bx	lr
 1002              	.L91:
 1003 000a 8368     		ldr	r3, [r0, #8]
 1004 000c 9342     		cmp	r3, r2
ARM GAS  /var/folders/lp/x54gwt890xv47sdkqj1k04q40000gn/T//ccv9Rg7x.s 			page 18


 1005 000e 01D0     		beq	.L90
 1006 0010 0020     		movs	r0, #0
 1007 0012 7047     		bx	lr
 1008              	.L90:
 1009 0014 0120     		movs	r0, #1
 1010 0016 7047     		bx	lr
 1012              		.section	.text._lv_obj_get_ext_draw_size,"ax",%progbits
 1013              		.align	1
 1014              		.global	_lv_obj_get_ext_draw_size
 1015              		.syntax unified
 1016              		.thumb
 1017              		.thumb_func
 1019              	_lv_obj_get_ext_draw_size:
 1020              		@ args = 0, pretend = 0, frame = 0
 1021              		@ frame_needed = 0, uses_anonymous_args = 0
 1022              		@ link register save eliminated.
 1023 0000 8368     		ldr	r3, [r0, #8]
 1024 0002 13B1     		cbz	r3, .L94
 1025 0004 B3F91600 		ldrsh	r0, [r3, #22]
 1026 0008 7047     		bx	lr
 1027              	.L94:
 1028 000a 0020     		movs	r0, #0
 1029 000c 7047     		bx	lr
 1031              		.section	.text.lv_obj_refresh_ext_draw_size,"ax",%progbits
 1032              		.align	1
 1033              		.global	lv_obj_refresh_ext_draw_size
 1034              		.syntax unified
 1035              		.thumb
 1036              		.thumb_func
 1038              	lv_obj_refresh_ext_draw_size:
 1039              		@ args = 0, pretend = 0, frame = 8
 1040              		@ frame_needed = 0, uses_anonymous_args = 0
 1041 0000 30B5     		push	{r4, r5, lr}
 1042 0002 83B0     		sub	sp, sp, #12
 1043 0004 0446     		mov	r4, r0
 1044 0006 FFF7FEFF 		bl	_lv_obj_get_ext_draw_size
 1045 000a 0546     		mov	r5, r0
 1046 000c 0023     		movs	r3, #0
 1047 000e ADF80630 		strh	r3, [sp, #6]	@ movhi
 1048 0012 0DF10602 		add	r2, sp, #6
 1049 0016 1321     		movs	r1, #19
 1050 0018 2046     		mov	r0, r4
 1051 001a FFF7FEFF 		bl	lv_event_send
 1052 001e BDF90630 		ldrsh	r3, [sp, #6]
 1053 0022 AB42     		cmp	r3, r5
 1054 0024 0AD1     		bne	.L101
 1055              	.L96:
 1056 0026 A368     		ldr	r3, [r4, #8]
 1057 0028 63B1     		cbz	r3, .L97
 1058 002a BDF80620 		ldrh	r2, [sp, #6]
 1059 002e DA82     		strh	r2, [r3, #22]	@ movhi
 1060              	.L98:
 1061 0030 BDF90630 		ldrsh	r3, [sp, #6]
 1062 0034 AB42     		cmp	r3, r5
 1063 0036 11D1     		bne	.L102
 1064              	.L95:
 1065 0038 03B0     		add	sp, sp, #12
ARM GAS  /var/folders/lp/x54gwt890xv47sdkqj1k04q40000gn/T//ccv9Rg7x.s 			page 19


 1066              		@ sp needed
 1067 003a 30BD     		pop	{r4, r5, pc}
 1068              	.L101:
 1069 003c 2046     		mov	r0, r4
 1070 003e FFF7FEFF 		bl	lv_obj_invalidate
 1071 0042 F0E7     		b	.L96
 1072              	.L97:
 1073 0044 BDF90630 		ldrsh	r3, [sp, #6]
 1074 0048 002B     		cmp	r3, #0
 1075 004a F1D0     		beq	.L98
 1076 004c 2046     		mov	r0, r4
 1077 004e FFF7FEFF 		bl	lv_obj_allocate_spec_attr
 1078 0052 A368     		ldr	r3, [r4, #8]
 1079 0054 BDF80620 		ldrh	r2, [sp, #6]
 1080 0058 DA82     		strh	r2, [r3, #22]	@ movhi
 1081 005a E9E7     		b	.L98
 1082              	.L102:
 1083 005c 2046     		mov	r0, r4
 1084 005e FFF7FEFF 		bl	lv_obj_invalidate
 1085 0062 E9E7     		b	.L95
 1087              		.section	.text._lv_obj_get_layer_type,"ax",%progbits
 1088              		.align	1
 1089              		.global	_lv_obj_get_layer_type
 1090              		.syntax unified
 1091              		.thumb
 1092              		.thumb_func
 1094              	_lv_obj_get_layer_type:
 1095              		@ args = 0, pretend = 0, frame = 0
 1096              		@ frame_needed = 0, uses_anonymous_args = 0
 1097              		@ link register save eliminated.
 1098 0000 8368     		ldr	r3, [r0, #8]
 1099 0002 13B1     		cbz	r3, .L105
 1100 0004 987E     		ldrb	r0, [r3, #26]	@ zero_extendqisi2
 1101 0006 8009     		lsrs	r0, r0, #6
 1102 0008 7047     		bx	lr
 1103              	.L105:
 1104 000a 0020     		movs	r0, #0
 1105 000c 7047     		bx	lr
 1107              		.ident	"GCC: (xPack GNU Arm Embedded GCC arm64) 13.3.1 20240614"
ARM GAS  /var/folders/lp/x54gwt890xv47sdkqj1k04q40000gn/T//ccv9Rg7x.s 			page 20

