ARM GAS  /var/folders/lp/x54gwt890xv47sdkqj1k04q40000gn/T//ccUvzKnZ.s 			page 1


   1              		.cpu cortex-m4
   2              		.arch armv7e-m
   3              		.fpu fpv4-sp-d16
   4              		.eabi_attribute 27, 1
   5              		.eabi_attribute 28, 1
   6              		.eabi_attribute 20, 1
   7              		.eabi_attribute 21, 1
   8              		.eabi_attribute 23, 3
   9              		.eabi_attribute 24, 1
  10              		.eabi_attribute 25, 1
  11              		.eabi_attribute 26, 1
  12              		.eabi_attribute 30, 1
  13              		.eabi_attribute 34, 1
  14              		.eabi_attribute 18, 4
  15              		.file	"lv_obj_tree.c"
  16              		.text
  17              		.section	.text.lv_obj_del_delayed,"ax",%progbits
  18              		.align	1
  19              		.global	lv_obj_del_delayed
  20              		.syntax unified
  21              		.thumb
  22              		.thumb_func
  24              	lv_obj_del_delayed:
  25              		@ args = 0, pretend = 0, frame = 72
  26              		@ frame_needed = 0, uses_anonymous_args = 0
  27 0000 30B5     		push	{r4, r5, lr}
  28 0002 93B0     		sub	sp, sp, #76
  29 0004 0546     		mov	r5, r0
  30 0006 0C46     		mov	r4, r1
  31 0008 01A8     		add	r0, sp, #4
  32 000a FFF7FEFF 		bl	lv_anim_init
  33 000e 0195     		str	r5, [sp, #4]
  34 0010 0023     		movs	r3, #0
  35 0012 0293     		str	r3, [sp, #8]
  36 0014 0123     		movs	r3, #1
  37 0016 0C93     		str	r3, [sp, #48]
  38 0018 6442     		rsbs	r4, r4, #0
  39 001a 0D94     		str	r4, [sp, #52]
  40 001c 034B     		ldr	r3, .L3
  41 001e 0493     		str	r3, [sp, #16]
  42 0020 01A8     		add	r0, sp, #4
  43 0022 FFF7FEFF 		bl	lv_anim_start
  44 0026 13B0     		add	sp, sp, #76
  45              		@ sp needed
  46 0028 30BD     		pop	{r4, r5, pc}
  47              	.L4:
  48 002a 00BF     		.align	2
  49              	.L3:
  50 002c 00000000 		.word	lv_obj_del_anim_ready_cb
  52              		.section	.text.lv_obj_del_async,"ax",%progbits
  53              		.align	1
  54              		.global	lv_obj_del_async
  55              		.syntax unified
  56              		.thumb
  57              		.thumb_func
  59              	lv_obj_del_async:
  60              		@ args = 0, pretend = 0, frame = 0
ARM GAS  /var/folders/lp/x54gwt890xv47sdkqj1k04q40000gn/T//ccUvzKnZ.s 			page 2


  61              		@ frame_needed = 0, uses_anonymous_args = 0
  62 0000 08B5     		push	{r3, lr}
  63 0002 0146     		mov	r1, r0
  64 0004 0148     		ldr	r0, .L7
  65 0006 FFF7FEFF 		bl	lv_async_call
  66 000a 08BD     		pop	{r3, pc}
  67              	.L8:
  68              		.align	2
  69              	.L7:
  70 000c 00000000 		.word	lv_obj_del_async_cb
  72              		.section	.text.lv_obj_get_parent,"ax",%progbits
  73              		.align	1
  74              		.global	lv_obj_get_parent
  75              		.syntax unified
  76              		.thumb
  77              		.thumb_func
  79              	lv_obj_get_parent:
  80              		@ args = 0, pretend = 0, frame = 0
  81              		@ frame_needed = 0, uses_anonymous_args = 0
  82              		@ link register save eliminated.
  83 0000 08B1     		cbz	r0, .L11
  84 0002 4068     		ldr	r0, [r0, #4]
  85 0004 7047     		bx	lr
  86              	.L11:
  87 0006 7047     		bx	lr
  89              		.section	.text.lv_obj_get_screen,"ax",%progbits
  90              		.align	1
  91              		.global	lv_obj_get_screen
  92              		.syntax unified
  93              		.thumb
  94              		.thumb_func
  96              	lv_obj_get_screen:
  97              		@ args = 0, pretend = 0, frame = 0
  98              		@ frame_needed = 0, uses_anonymous_args = 0
  99 0000 10B5     		push	{r4, lr}
 100              	.L13:
 101 0002 0446     		mov	r4, r0
 102 0004 FFF7FEFF 		bl	lv_obj_get_parent
 103 0008 0028     		cmp	r0, #0
 104 000a FAD1     		bne	.L13
 105 000c 2046     		mov	r0, r4
 106 000e 10BD     		pop	{r4, pc}
 108              		.section	.text.lv_obj_get_disp,"ax",%progbits
 109              		.align	1
 110              		.global	lv_obj_get_disp
 111              		.syntax unified
 112              		.thumb
 113              		.thumb_func
 115              	lv_obj_get_disp:
 116              		@ args = 0, pretend = 0, frame = 0
 117              		@ frame_needed = 0, uses_anonymous_args = 0
 118 0000 10B5     		push	{r4, lr}
 119 0002 0446     		mov	r4, r0
 120 0004 4368     		ldr	r3, [r0, #4]
 121 0006 13B1     		cbz	r3, .L16
 122 0008 FFF7FEFF 		bl	lv_obj_get_screen
 123 000c 0446     		mov	r4, r0
ARM GAS  /var/folders/lp/x54gwt890xv47sdkqj1k04q40000gn/T//ccUvzKnZ.s 			page 3


 124              	.L16:
 125 000e 0A48     		ldr	r0, .L25
 126 0010 FFF7FEFF 		bl	_lv_ll_get_head
 127              	.L17:
 128 0014 50B1     		cbz	r0, .L15
 129 0016 0023     		movs	r3, #0
 130 0018 00E0     		b	.L20
 131              	.L24:
 132 001a 0133     		adds	r3, r3, #1
 133              	.L20:
 134 001c 426A     		ldr	r2, [r0, #36]
 135 001e 9A42     		cmp	r2, r3
 136 0020 05D9     		bls	.L23
 137 0022 C268     		ldr	r2, [r0, #12]
 138 0024 52F82320 		ldr	r2, [r2, r3, lsl #2]
 139 0028 A242     		cmp	r2, r4
 140 002a F6D1     		bne	.L24
 141              	.L15:
 142 002c 10BD     		pop	{r4, pc}
 143              	.L23:
 144 002e 0146     		mov	r1, r0
 145 0030 0148     		ldr	r0, .L25
 146 0032 FFF7FEFF 		bl	_lv_ll_get_next
 147 0036 EDE7     		b	.L17
 148              	.L26:
 149              		.align	2
 150              	.L25:
 151 0038 00000000 		.word	_lv_disp_ll
 153              		.section	.text.lv_obj_get_child,"ax",%progbits
 154              		.align	1
 155              		.global	lv_obj_get_child
 156              		.syntax unified
 157              		.thumb
 158              		.thumb_func
 160              	lv_obj_get_child:
 161              		@ args = 0, pretend = 0, frame = 0
 162              		@ frame_needed = 0, uses_anonymous_args = 0
 163              		@ link register save eliminated.
 164 0000 8068     		ldr	r0, [r0, #8]
 165 0002 88B1     		cbz	r0, .L27
 166 0004 0029     		cmp	r1, #0
 167 0006 07DB     		blt	.L33
 168 0008 0B46     		mov	r3, r1
 169              	.L30:
 170 000a 4268     		ldr	r2, [r0, #4]
 171 000c 9A42     		cmp	r2, r3
 172 000e 0AD9     		bls	.L32
 173 0010 0368     		ldr	r3, [r0]
 174 0012 53F82100 		ldr	r0, [r3, r1, lsl #2]
 175 0016 7047     		bx	lr
 176              	.L33:
 177 0018 4368     		ldr	r3, [r0, #4]
 178 001a 1944     		add	r1, r1, r3
 179 001c 0B46     		mov	r3, r1
 180 001e 0029     		cmp	r1, #0
 181 0020 F3DA     		bge	.L30
 182 0022 0020     		movs	r0, #0
ARM GAS  /var/folders/lp/x54gwt890xv47sdkqj1k04q40000gn/T//ccUvzKnZ.s 			page 4


 183 0024 7047     		bx	lr
 184              	.L32:
 185 0026 0020     		movs	r0, #0
 186              	.L27:
 187 0028 7047     		bx	lr
 189              		.section	.text.lv_obj_get_child_cnt,"ax",%progbits
 190              		.align	1
 191              		.global	lv_obj_get_child_cnt
 192              		.syntax unified
 193              		.thumb
 194              		.thumb_func
 196              	lv_obj_get_child_cnt:
 197              		@ args = 0, pretend = 0, frame = 0
 198              		@ frame_needed = 0, uses_anonymous_args = 0
 199              		@ link register save eliminated.
 200 0000 8368     		ldr	r3, [r0, #8]
 201 0002 0BB1     		cbz	r3, .L36
 202 0004 5868     		ldr	r0, [r3, #4]
 203 0006 7047     		bx	lr
 204              	.L36:
 205 0008 0020     		movs	r0, #0
 206 000a 7047     		bx	lr
 208              		.section	.text.walk_core,"ax",%progbits
 209              		.align	1
 210              		.syntax unified
 211              		.thumb
 212              		.thumb_func
 214              	walk_core:
 215              		@ args = 0, pretend = 0, frame = 0
 216              		@ frame_needed = 0, uses_anonymous_args = 0
 217 0000 F8B5     		push	{r3, r4, r5, r6, r7, lr}
 218 0002 0D46     		mov	r5, r1
 219 0004 1646     		mov	r6, r2
 220 0006 40B1     		cbz	r0, .L48
 221 0008 0746     		mov	r7, r0
 222 000a 1146     		mov	r1, r2
 223 000c A847     		blx	r5
 224 000e 0228     		cmp	r0, #2
 225 0010 2FD0     		beq	.L42
 226 0012 0128     		cmp	r0, #1
 227 0014 19D0     		beq	.L49
 228 0016 0024     		movs	r4, #0
 229 0018 1AE0     		b	.L43
 230              	.L48:
 231 001a FFF7FEFF 		bl	lv_disp_get_next
 232 001e 0746     		mov	r7, r0
 233 0020 0EE0     		b	.L39
 234              	.L40:
 235 0022 FB68     		ldr	r3, [r7, #12]
 236 0024 3246     		mov	r2, r6
 237 0026 2946     		mov	r1, r5
 238 0028 53F82400 		ldr	r0, [r3, r4, lsl #2]
 239 002c FFF7E8FF 		bl	walk_core
 240 0030 0134     		adds	r4, r4, #1
 241              	.L41:
 242 0032 7B6A     		ldr	r3, [r7, #36]
 243 0034 A342     		cmp	r3, r4
ARM GAS  /var/folders/lp/x54gwt890xv47sdkqj1k04q40000gn/T//ccUvzKnZ.s 			page 5


 244 0036 F4D8     		bhi	.L40
 245 0038 3846     		mov	r0, r7
 246 003a FFF7FEFF 		bl	lv_disp_get_next
 247 003e 0746     		mov	r7, r0
 248              	.L39:
 249 0040 0FB1     		cbz	r7, .L50
 250 0042 0024     		movs	r4, #0
 251 0044 F5E7     		b	.L41
 252              	.L50:
 253 0046 0220     		movs	r0, #2
 254 0048 13E0     		b	.L42
 255              	.L49:
 256 004a 0020     		movs	r0, #0
 257 004c 11E0     		b	.L42
 258              	.L52:
 259 004e 0134     		adds	r4, r4, #1
 260              	.L43:
 261 0050 3846     		mov	r0, r7
 262 0052 FFF7FEFF 		bl	lv_obj_get_child_cnt
 263 0056 A042     		cmp	r0, r4
 264 0058 0AD9     		bls	.L51
 265 005a 2146     		mov	r1, r4
 266 005c 3846     		mov	r0, r7
 267 005e FFF7FEFF 		bl	lv_obj_get_child
 268 0062 3246     		mov	r2, r6
 269 0064 2946     		mov	r1, r5
 270 0066 FFF7CBFF 		bl	walk_core
 271 006a 0228     		cmp	r0, #2
 272 006c EFD1     		bne	.L52
 273 006e 00E0     		b	.L42
 274              	.L51:
 275 0070 0020     		movs	r0, #0
 276              	.L42:
 277 0072 F8BD     		pop	{r3, r4, r5, r6, r7, pc}
 279              		.section	.text.lv_obj_get_index,"ax",%progbits
 280              		.align	1
 281              		.global	lv_obj_get_index
 282              		.syntax unified
 283              		.thumb
 284              		.thumb_func
 286              	lv_obj_get_index:
 287              		@ args = 0, pretend = 0, frame = 0
 288              		@ frame_needed = 0, uses_anonymous_args = 0
 289 0000 70B5     		push	{r4, r5, r6, lr}
 290 0002 0646     		mov	r6, r0
 291 0004 FFF7FEFF 		bl	lv_obj_get_parent
 292 0008 90B1     		cbz	r0, .L57
 293 000a 0546     		mov	r5, r0
 294 000c 0024     		movs	r4, #0
 295              	.L55:
 296 000e 2846     		mov	r0, r5
 297 0010 FFF7FEFF 		bl	lv_obj_get_child_cnt
 298 0014 A042     		cmp	r0, r4
 299 0016 07D9     		bls	.L59
 300 0018 2146     		mov	r1, r4
 301 001a 2846     		mov	r0, r5
 302 001c FFF7FEFF 		bl	lv_obj_get_child
ARM GAS  /var/folders/lp/x54gwt890xv47sdkqj1k04q40000gn/T//ccUvzKnZ.s 			page 6


 303 0020 8642     		cmp	r6, r0
 304 0022 03D0     		beq	.L53
 305 0024 0134     		adds	r4, r4, #1
 306 0026 F2E7     		b	.L55
 307              	.L59:
 308 0028 4FF0FF34 		mov	r4, #-1
 309              	.L53:
 310 002c 2046     		mov	r0, r4
 311 002e 70BD     		pop	{r4, r5, r6, pc}
 312              	.L57:
 313 0030 0024     		movs	r4, #0
 314 0032 FBE7     		b	.L53
 316              		.section	.text.obj_del_core,"ax",%progbits
 317              		.align	1
 318              		.syntax unified
 319              		.thumb
 320              		.thumb_func
 322              	obj_del_core:
 323              		@ args = 0, pretend = 0, frame = 0
 324              		@ frame_needed = 0, uses_anonymous_args = 0
 325 0000 70B5     		push	{r4, r5, r6, lr}
 326 0002 0546     		mov	r5, r0
 327 0004 0022     		movs	r2, #0
 328 0006 2121     		movs	r1, #33
 329 0008 FFF7FEFF 		bl	lv_event_send
 330 000c 0028     		cmp	r0, #0
 331 000e 7FD0     		beq	.L60
 332 0010 95F82330 		ldrb	r3, [r5, #35]	@ zero_extendqisi2
 333 0014 43F01003 		orr	r3, r3, #16
 334 0018 85F82330 		strb	r3, [r5, #35]
 335 001c 0021     		movs	r1, #0
 336 001e 2846     		mov	r0, r5
 337 0020 FFF7FEFF 		bl	lv_obj_get_child
 338              	.L62:
 339 0024 30B1     		cbz	r0, .L80
 340 0026 FFF7EBFF 		bl	obj_del_core
 341 002a 0021     		movs	r1, #0
 342 002c 2846     		mov	r0, r5
 343 002e FFF7FEFF 		bl	lv_obj_get_child
 344 0032 F7E7     		b	.L62
 345              	.L80:
 346 0034 2846     		mov	r0, r5
 347 0036 FFF7FEFF 		bl	lv_obj_get_group
 348 003a 0646     		mov	r6, r0
 349 003c 0020     		movs	r0, #0
 350 003e FFF7FEFF 		bl	lv_indev_get_next
 351 0042 0446     		mov	r4, r0
 352 0044 0DE0     		b	.L64
 353              	.L65:
 354 0046 2946     		mov	r1, r5
 355 0048 2046     		mov	r0, r4
 356 004a FFF7FEFF 		bl	lv_indev_reset
 357              	.L66:
 358 004e 636B     		ldr	r3, [r4, #52]
 359 0050 AB42     		cmp	r3, r5
 360 0052 0ED0     		beq	.L81
 361              	.L67:
ARM GAS  /var/folders/lp/x54gwt890xv47sdkqj1k04q40000gn/T//ccUvzKnZ.s 			page 7


 362 0054 636D     		ldr	r3, [r4, #84]
 363 0056 B342     		cmp	r3, r6
 364 0058 0ED0     		beq	.L82
 365              	.L68:
 366 005a 2046     		mov	r0, r4
 367 005c FFF7FEFF 		bl	lv_indev_get_next
 368 0060 0446     		mov	r4, r0
 369              	.L64:
 370 0062 94B1     		cbz	r4, .L83
 371 0064 A36A     		ldr	r3, [r4, #40]
 372 0066 AB42     		cmp	r3, r5
 373 0068 EDD0     		beq	.L65
 374 006a E36A     		ldr	r3, [r4, #44]
 375 006c AB42     		cmp	r3, r5
 376 006e EED1     		bne	.L66
 377 0070 E9E7     		b	.L65
 378              	.L81:
 379 0072 0023     		movs	r3, #0
 380 0074 6363     		str	r3, [r4, #52]
 381 0076 EDE7     		b	.L67
 382              	.L82:
 383 0078 FFF7FEFF 		bl	lv_indev_get_obj_act
 384 007c 8542     		cmp	r5, r0
 385 007e ECD1     		bne	.L68
 386 0080 2946     		mov	r1, r5
 387 0082 2046     		mov	r0, r4
 388 0084 FFF7FEFF 		bl	lv_indev_reset
 389 0088 E7E7     		b	.L68
 390              	.L83:
 391 008a 2846     		mov	r0, r5
 392 008c FFF7FEFF 		bl	_lv_obj_destruct
 393 0090 6B68     		ldr	r3, [r5, #4]
 394 0092 83B1     		cbz	r3, .L84
 395 0094 2846     		mov	r0, r5
 396 0096 FFF7FEFF 		bl	lv_obj_get_index
 397              	.L77:
 398 009a 6B68     		ldr	r3, [r5, #4]
 399 009c 9A68     		ldr	r2, [r3, #8]
 400 009e 5368     		ldr	r3, [r2, #4]
 401 00a0 013B     		subs	r3, r3, #1
 402 00a2 8342     		cmp	r3, r0
 403 00a4 28D9     		bls	.L85
 404 00a6 1268     		ldr	r2, [r2]
 405 00a8 431C     		adds	r3, r0, #1
 406 00aa 52F82310 		ldr	r1, [r2, r3, lsl #2]
 407 00ae 42F82010 		str	r1, [r2, r0, lsl #2]
 408 00b2 1846     		mov	r0, r3
 409 00b4 F1E7     		b	.L77
 410              	.L84:
 411 00b6 2846     		mov	r0, r5
 412 00b8 FFF7FEFF 		bl	lv_obj_get_disp
 413 00bc 0446     		mov	r4, r0
 414 00be 0023     		movs	r3, #0
 415              	.L71:
 416 00c0 626A     		ldr	r2, [r4, #36]
 417 00c2 9A42     		cmp	r2, r3
 418 00c4 0DD9     		bls	.L74
ARM GAS  /var/folders/lp/x54gwt890xv47sdkqj1k04q40000gn/T//ccUvzKnZ.s 			page 8


 419 00c6 E268     		ldr	r2, [r4, #12]
 420 00c8 52F82320 		ldr	r2, [r2, r3, lsl #2]
 421 00cc AA42     		cmp	r2, r5
 422 00ce 08D0     		beq	.L74
 423 00d0 0133     		adds	r3, r3, #1
 424 00d2 F5E7     		b	.L71
 425              	.L75:
 426 00d4 E168     		ldr	r1, [r4, #12]
 427 00d6 5A1C     		adds	r2, r3, #1
 428 00d8 51F82200 		ldr	r0, [r1, r2, lsl #2]
 429 00dc 41F82300 		str	r0, [r1, r3, lsl #2]
 430 00e0 1346     		mov	r3, r2
 431              	.L74:
 432 00e2 616A     		ldr	r1, [r4, #36]
 433 00e4 0139     		subs	r1, r1, #1
 434 00e6 9942     		cmp	r1, r3
 435 00e8 F4D8     		bhi	.L75
 436 00ea 6162     		str	r1, [r4, #36]
 437 00ec 8900     		lsls	r1, r1, #2
 438 00ee E068     		ldr	r0, [r4, #12]
 439 00f0 FFF7FEFF 		bl	lv_mem_realloc
 440 00f4 E060     		str	r0, [r4, #12]
 441 00f6 08E0     		b	.L76
 442              	.L85:
 443 00f8 5360     		str	r3, [r2, #4]
 444 00fa 6B68     		ldr	r3, [r5, #4]
 445 00fc 9C68     		ldr	r4, [r3, #8]
 446 00fe 6168     		ldr	r1, [r4, #4]
 447 0100 8900     		lsls	r1, r1, #2
 448 0102 2068     		ldr	r0, [r4]
 449 0104 FFF7FEFF 		bl	lv_mem_realloc
 450 0108 2060     		str	r0, [r4]
 451              	.L76:
 452 010a 2846     		mov	r0, r5
 453 010c FFF7FEFF 		bl	lv_mem_free
 454              	.L60:
 455 0110 70BD     		pop	{r4, r5, r6, pc}
 457              		.section	.text.lv_obj_del,"ax",%progbits
 458              		.align	1
 459              		.global	lv_obj_del
 460              		.syntax unified
 461              		.thumb
 462              		.thumb_func
 464              	lv_obj_del:
 465              		@ args = 0, pretend = 0, frame = 0
 466              		@ frame_needed = 0, uses_anonymous_args = 0
 467 0000 F8B5     		push	{r3, r4, r5, r6, r7, lr}
 468 0002 0446     		mov	r4, r0
 469 0004 FFF7FEFF 		bl	lv_obj_invalidate
 470 0008 2046     		mov	r0, r4
 471 000a FFF7FEFF 		bl	lv_obj_get_parent
 472 000e 0546     		mov	r5, r0
 473 0010 B0B1     		cbz	r0, .L93
 474 0012 0026     		movs	r6, #0
 475 0014 3746     		mov	r7, r6
 476              	.L87:
 477 0016 2046     		mov	r0, r4
ARM GAS  /var/folders/lp/x54gwt890xv47sdkqj1k04q40000gn/T//ccUvzKnZ.s 			page 9


 478 0018 FFF7FEFF 		bl	obj_del_core
 479 001c 65B1     		cbz	r5, .L89
 480 001e 2846     		mov	r0, r5
 481 0020 FFF7FEFF 		bl	lv_obj_scrollbar_invalidate
 482 0024 0022     		movs	r2, #0
 483 0026 2221     		movs	r1, #34
 484 0028 2846     		mov	r0, r5
 485 002a FFF7FEFF 		bl	lv_event_send
 486 002e 0022     		movs	r2, #0
 487 0030 2421     		movs	r1, #36
 488 0032 2846     		mov	r0, r5
 489 0034 FFF7FEFF 		bl	lv_event_send
 490              	.L89:
 491 0038 0EB1     		cbz	r6, .L86
 492 003a 0023     		movs	r3, #0
 493 003c 3B61     		str	r3, [r7, #16]
 494              	.L86:
 495 003e F8BD     		pop	{r3, r4, r5, r6, r7, pc}
 496              	.L93:
 497 0040 2046     		mov	r0, r4
 498 0042 FFF7FEFF 		bl	lv_obj_get_disp
 499 0046 0746     		mov	r7, r0
 500 0048 0028     		cmp	r0, #0
 501 004a F8D0     		beq	.L86
 502 004c 0369     		ldr	r3, [r0, #16]
 503 004e A342     		cmp	r3, r4
 504 0050 01D0     		beq	.L91
 505 0052 0026     		movs	r6, #0
 506 0054 DFE7     		b	.L87
 507              	.L91:
 508 0056 0126     		movs	r6, #1
 509 0058 DDE7     		b	.L87
 511              		.section	.text.lv_obj_del_anim_ready_cb,"ax",%progbits
 512              		.align	1
 513              		.global	lv_obj_del_anim_ready_cb
 514              		.syntax unified
 515              		.thumb
 516              		.thumb_func
 518              	lv_obj_del_anim_ready_cb:
 519              		@ args = 0, pretend = 0, frame = 0
 520              		@ frame_needed = 0, uses_anonymous_args = 0
 521 0000 08B5     		push	{r3, lr}
 522 0002 0068     		ldr	r0, [r0]
 523 0004 FFF7FEFF 		bl	lv_obj_del
 524 0008 08BD     		pop	{r3, pc}
 526              		.section	.text.lv_obj_del_async_cb,"ax",%progbits
 527              		.align	1
 528              		.syntax unified
 529              		.thumb
 530              		.thumb_func
 532              	lv_obj_del_async_cb:
 533              		@ args = 0, pretend = 0, frame = 0
 534              		@ frame_needed = 0, uses_anonymous_args = 0
 535 0000 08B5     		push	{r3, lr}
 536 0002 FFF7FEFF 		bl	lv_obj_del
 537 0006 08BD     		pop	{r3, pc}
 539              		.section	.text.lv_obj_clean,"ax",%progbits
ARM GAS  /var/folders/lp/x54gwt890xv47sdkqj1k04q40000gn/T//ccUvzKnZ.s 			page 10


 540              		.align	1
 541              		.global	lv_obj_clean
 542              		.syntax unified
 543              		.thumb
 544              		.thumb_func
 546              	lv_obj_clean:
 547              		@ args = 0, pretend = 0, frame = 0
 548              		@ frame_needed = 0, uses_anonymous_args = 0
 549 0000 10B5     		push	{r4, lr}
 550 0002 0446     		mov	r4, r0
 551 0004 FFF7FEFF 		bl	lv_obj_invalidate
 552 0008 0021     		movs	r1, #0
 553 000a 2046     		mov	r0, r4
 554 000c FFF7FEFF 		bl	lv_obj_get_child
 555 0010 05E0     		b	.L99
 556              	.L100:
 557 0012 FFF7FEFF 		bl	obj_del_core
 558 0016 0021     		movs	r1, #0
 559 0018 2046     		mov	r0, r4
 560 001a FFF7FEFF 		bl	lv_obj_get_child
 561              	.L99:
 562 001e 0028     		cmp	r0, #0
 563 0020 F7D1     		bne	.L100
 564 0022 0023     		movs	r3, #0
 565 0024 1A46     		mov	r2, r3
 566 0026 1946     		mov	r1, r3
 567 0028 2046     		mov	r0, r4
 568 002a FFF7FEFF 		bl	lv_obj_scroll_to
 569 002e A368     		ldr	r3, [r4, #8]
 570 0030 1BB1     		cbz	r3, .L98
 571 0032 0022     		movs	r2, #0
 572 0034 1A82     		strh	r2, [r3, #16]	@ movhi
 573 0036 A368     		ldr	r3, [r4, #8]
 574 0038 5A82     		strh	r2, [r3, #18]	@ movhi
 575              	.L98:
 576 003a 10BD     		pop	{r4, pc}
 578              		.section	.text.lv_obj_set_parent,"ax",%progbits
 579              		.align	1
 580              		.global	lv_obj_set_parent
 581              		.syntax unified
 582              		.thumb
 583              		.thumb_func
 585              	lv_obj_set_parent:
 586              		@ args = 0, pretend = 0, frame = 0
 587              		@ frame_needed = 0, uses_anonymous_args = 0
 588 0000 F8B5     		push	{r3, r4, r5, r6, r7, lr}
 589 0002 4368     		ldr	r3, [r0, #4]
 590 0004 002B     		cmp	r3, #0
 591 0006 5CD0     		beq	.L103
 592 0008 0646     		mov	r6, r0
 593 000a 0F46     		mov	r7, r1
 594 000c 0029     		cmp	r1, #0
 595 000e 58D0     		beq	.L103
 596 0010 FFF7FEFF 		bl	lv_obj_invalidate
 597 0014 3846     		mov	r0, r7
 598 0016 FFF7FEFF 		bl	lv_obj_allocate_spec_attr
 599 001a 7568     		ldr	r5, [r6, #4]
ARM GAS  /var/folders/lp/x54gwt890xv47sdkqj1k04q40000gn/T//ccUvzKnZ.s 			page 11


 600 001c 3046     		mov	r0, r6
 601 001e FFF7FEFF 		bl	lv_obj_get_index
 602 0022 0446     		mov	r4, r0
 603 0024 07E0     		b	.L105
 604              	.L106:
 605 0026 AB68     		ldr	r3, [r5, #8]
 606 0028 1A68     		ldr	r2, [r3]
 607 002a 631C     		adds	r3, r4, #1
 608 002c 52F82310 		ldr	r1, [r2, r3, lsl #2]
 609 0030 42F82410 		str	r1, [r2, r4, lsl #2]
 610 0034 1C46     		mov	r4, r3
 611              	.L105:
 612 0036 2846     		mov	r0, r5
 613 0038 FFF7FEFF 		bl	lv_obj_get_child_cnt
 614 003c 0138     		subs	r0, r0, #1
 615 003e A042     		cmp	r0, r4
 616 0040 F1DC     		bgt	.L106
 617 0042 AA68     		ldr	r2, [r5, #8]
 618 0044 5368     		ldr	r3, [r2, #4]
 619 0046 013B     		subs	r3, r3, #1
 620 0048 5360     		str	r3, [r2, #4]
 621 004a AC68     		ldr	r4, [r5, #8]
 622 004c 6168     		ldr	r1, [r4, #4]
 623 004e 0029     		cmp	r1, #0
 624 0050 38D0     		beq	.L107
 625 0052 8900     		lsls	r1, r1, #2
 626 0054 2068     		ldr	r0, [r4]
 627 0056 FFF7FEFF 		bl	lv_mem_realloc
 628 005a 2060     		str	r0, [r4]
 629              	.L108:
 630 005c BA68     		ldr	r2, [r7, #8]
 631 005e 5368     		ldr	r3, [r2, #4]
 632 0060 0133     		adds	r3, r3, #1
 633 0062 5360     		str	r3, [r2, #4]
 634 0064 BC68     		ldr	r4, [r7, #8]
 635 0066 6168     		ldr	r1, [r4, #4]
 636 0068 8900     		lsls	r1, r1, #2
 637 006a 2068     		ldr	r0, [r4]
 638 006c FFF7FEFF 		bl	lv_mem_realloc
 639 0070 2060     		str	r0, [r4]
 640 0072 BB68     		ldr	r3, [r7, #8]
 641 0074 1C68     		ldr	r4, [r3]
 642 0076 3846     		mov	r0, r7
 643 0078 FFF7FEFF 		bl	lv_obj_get_child_cnt
 644 007c 00F18040 		add	r0, r0, #1073741824
 645 0080 0138     		subs	r0, r0, #1
 646 0082 44F82060 		str	r6, [r4, r0, lsl #2]
 647 0086 7760     		str	r7, [r6, #4]
 648 0088 2846     		mov	r0, r5
 649 008a FFF7FEFF 		bl	lv_obj_scrollbar_invalidate
 650 008e 3246     		mov	r2, r6
 651 0090 2221     		movs	r1, #34
 652 0092 2846     		mov	r0, r5
 653 0094 FFF7FEFF 		bl	lv_event_send
 654 0098 0022     		movs	r2, #0
 655 009a 2421     		movs	r1, #36
 656 009c 2846     		mov	r0, r5
ARM GAS  /var/folders/lp/x54gwt890xv47sdkqj1k04q40000gn/T//ccUvzKnZ.s 			page 12


 657 009e FFF7FEFF 		bl	lv_event_send
 658 00a2 3246     		mov	r2, r6
 659 00a4 2221     		movs	r1, #34
 660 00a6 3846     		mov	r0, r7
 661 00a8 FFF7FEFF 		bl	lv_event_send
 662 00ac 0022     		movs	r2, #0
 663 00ae 2321     		movs	r1, #35
 664 00b0 3846     		mov	r0, r7
 665 00b2 FFF7FEFF 		bl	lv_event_send
 666 00b6 3046     		mov	r0, r6
 667 00b8 FFF7FEFF 		bl	lv_obj_mark_layout_as_dirty
 668 00bc 3046     		mov	r0, r6
 669 00be FFF7FEFF 		bl	lv_obj_invalidate
 670              	.L103:
 671 00c2 F8BD     		pop	{r3, r4, r5, r6, r7, pc}
 672              	.L107:
 673 00c4 2068     		ldr	r0, [r4]
 674 00c6 FFF7FEFF 		bl	lv_mem_free
 675 00ca AB68     		ldr	r3, [r5, #8]
 676 00cc 0022     		movs	r2, #0
 677 00ce 1A60     		str	r2, [r3]
 678 00d0 C4E7     		b	.L108
 680              		.section	.text.lv_obj_move_to_index,"ax",%progbits
 681              		.align	1
 682              		.global	lv_obj_move_to_index
 683              		.syntax unified
 684              		.thumb
 685              		.thumb_func
 687              	lv_obj_move_to_index:
 688              		@ args = 0, pretend = 0, frame = 0
 689              		@ frame_needed = 0, uses_anonymous_args = 0
 690 0000 F8B5     		push	{r3, r4, r5, r6, r7, lr}
 691 0002 0746     		mov	r7, r0
 692 0004 0D1E     		subs	r5, r1, #0
 693 0006 11DB     		blt	.L119
 694              	.L111:
 695 0008 3846     		mov	r0, r7
 696 000a FFF7FEFF 		bl	lv_obj_get_index
 697 000e 0446     		mov	r4, r0
 698 0010 3846     		mov	r0, r7
 699 0012 FFF7FEFF 		bl	lv_obj_get_parent
 700 0016 0646     		mov	r6, r0
 701 0018 002D     		cmp	r5, #0
 702 001a 25DB     		blt	.L110
 703 001c FFF7FEFF 		bl	lv_obj_get_child_cnt
 704 0020 A842     		cmp	r0, r5
 705 0022 21DD     		ble	.L110
 706 0024 A542     		cmp	r5, r4
 707 0026 1FD0     		beq	.L110
 708 0028 10DB     		blt	.L113
 709 002a 26E0     		b	.L114
 710              	.L119:
 711 002c FFF7FEFF 		bl	lv_obj_get_parent
 712 0030 FFF7FEFF 		bl	lv_obj_get_child_cnt
 713 0034 0544     		add	r5, r5, r0
 714 0036 E7E7     		b	.L111
 715              	.L115:
ARM GAS  /var/folders/lp/x54gwt890xv47sdkqj1k04q40000gn/T//ccUvzKnZ.s 			page 13


 716 0038 B368     		ldr	r3, [r6, #8]
 717 003a 1A68     		ldr	r2, [r3]
 718 003c 04F18043 		add	r3, r4, #1073741824
 719 0040 013B     		subs	r3, r3, #1
 720 0042 52F82330 		ldr	r3, [r2, r3, lsl #2]
 721 0046 42F82430 		str	r3, [r2, r4, lsl #2]
 722 004a 013C     		subs	r4, r4, #1
 723              	.L113:
 724 004c A542     		cmp	r5, r4
 725 004e F3DB     		blt	.L115
 726              	.L116:
 727 0050 B368     		ldr	r3, [r6, #8]
 728 0052 1B68     		ldr	r3, [r3]
 729 0054 43F82570 		str	r7, [r3, r5, lsl #2]
 730 0058 0022     		movs	r2, #0
 731 005a 2221     		movs	r1, #34
 732 005c 3046     		mov	r0, r6
 733 005e FFF7FEFF 		bl	lv_event_send
 734 0062 3046     		mov	r0, r6
 735 0064 FFF7FEFF 		bl	lv_obj_invalidate
 736              	.L110:
 737 0068 F8BD     		pop	{r3, r4, r5, r6, r7, pc}
 738              	.L117:
 739 006a B368     		ldr	r3, [r6, #8]
 740 006c 1A68     		ldr	r2, [r3]
 741 006e 631C     		adds	r3, r4, #1
 742 0070 52F82310 		ldr	r1, [r2, r3, lsl #2]
 743 0074 42F82410 		str	r1, [r2, r4, lsl #2]
 744 0078 1C46     		mov	r4, r3
 745              	.L114:
 746 007a A542     		cmp	r5, r4
 747 007c F5DC     		bgt	.L117
 748 007e E7E7     		b	.L116
 750              		.section	.text.lv_obj_swap,"ax",%progbits
 751              		.align	1
 752              		.global	lv_obj_swap
 753              		.syntax unified
 754              		.thumb
 755              		.thumb_func
 757              	lv_obj_swap:
 758              		@ args = 0, pretend = 0, frame = 0
 759              		@ frame_needed = 0, uses_anonymous_args = 0
 760 0000 2DE9F843 		push	{r3, r4, r5, r6, r7, r8, r9, lr}
 761 0004 0546     		mov	r5, r0
 762 0006 0C46     		mov	r4, r1
 763 0008 FFF7FEFF 		bl	lv_obj_get_parent
 764 000c 0646     		mov	r6, r0
 765 000e 2046     		mov	r0, r4
 766 0010 FFF7FEFF 		bl	lv_obj_get_parent
 767 0014 0746     		mov	r7, r0
 768 0016 2846     		mov	r0, r5
 769 0018 FFF7FEFF 		bl	lv_obj_get_index
 770 001c 8146     		mov	r9, r0
 771 001e 2046     		mov	r0, r4
 772 0020 FFF7FEFF 		bl	lv_obj_get_index
 773 0024 8046     		mov	r8, r0
 774 0026 2246     		mov	r2, r4
ARM GAS  /var/folders/lp/x54gwt890xv47sdkqj1k04q40000gn/T//ccUvzKnZ.s 			page 14


 775 0028 2421     		movs	r1, #36
 776 002a 3846     		mov	r0, r7
 777 002c FFF7FEFF 		bl	lv_event_send
 778 0030 2A46     		mov	r2, r5
 779 0032 2421     		movs	r1, #36
 780 0034 3046     		mov	r0, r6
 781 0036 FFF7FEFF 		bl	lv_event_send
 782 003a B368     		ldr	r3, [r6, #8]
 783 003c 1B68     		ldr	r3, [r3]
 784 003e 43F82940 		str	r4, [r3, r9, lsl #2]
 785 0042 BB68     		ldr	r3, [r7, #8]
 786 0044 1B68     		ldr	r3, [r3]
 787 0046 43F82850 		str	r5, [r3, r8, lsl #2]
 788 004a 2246     		mov	r2, r4
 789 004c 2221     		movs	r1, #34
 790 004e 3046     		mov	r0, r6
 791 0050 FFF7FEFF 		bl	lv_event_send
 792 0054 2246     		mov	r2, r4
 793 0056 2321     		movs	r1, #35
 794 0058 3046     		mov	r0, r6
 795 005a FFF7FEFF 		bl	lv_event_send
 796 005e 2A46     		mov	r2, r5
 797 0060 2221     		movs	r1, #34
 798 0062 3846     		mov	r0, r7
 799 0064 FFF7FEFF 		bl	lv_event_send
 800 0068 2A46     		mov	r2, r5
 801 006a 2321     		movs	r1, #35
 802 006c 3846     		mov	r0, r7
 803 006e FFF7FEFF 		bl	lv_event_send
 804 0072 3046     		mov	r0, r6
 805 0074 FFF7FEFF 		bl	lv_obj_invalidate
 806 0078 BE42     		cmp	r6, r7
 807 007a 02D0     		beq	.L121
 808 007c 3846     		mov	r0, r7
 809 007e FFF7FEFF 		bl	lv_obj_invalidate
 810              	.L121:
 811 0082 2146     		mov	r1, r4
 812 0084 2846     		mov	r0, r5
 813 0086 FFF7FEFF 		bl	lv_group_swap_obj
 814 008a BDE8F883 		pop	{r3, r4, r5, r6, r7, r8, r9, pc}
 816              		.section	.text.lv_obj_tree_walk,"ax",%progbits
 817              		.align	1
 818              		.global	lv_obj_tree_walk
 819              		.syntax unified
 820              		.thumb
 821              		.thumb_func
 823              	lv_obj_tree_walk:
 824              		@ args = 0, pretend = 0, frame = 0
 825              		@ frame_needed = 0, uses_anonymous_args = 0
 826 0000 08B5     		push	{r3, lr}
 827 0002 FFF7FEFF 		bl	walk_core
 828 0006 08BD     		pop	{r3, pc}
 830              		.ident	"GCC: (xPack GNU Arm Embedded GCC arm64) 13.3.1 20240614"
ARM GAS  /var/folders/lp/x54gwt890xv47sdkqj1k04q40000gn/T//ccUvzKnZ.s 			page 15

