ARM GAS  /var/folders/lp/x54gwt890xv47sdkqj1k04q40000gn/T//ccAKDLQh.s 			page 1


   1              		.cpu cortex-m4
   2              		.arch armv7e-m
   3              		.fpu fpv4-sp-d16
   4              		.eabi_attribute 27, 1
   5              		.eabi_attribute 28, 1
   6              		.eabi_attribute 20, 1
   7              		.eabi_attribute 21, 1
   8              		.eabi_attribute 23, 3
   9              		.eabi_attribute 24, 1
  10              		.eabi_attribute 25, 1
  11              		.eabi_attribute 26, 1
  12              		.eabi_attribute 30, 1
  13              		.eabi_attribute 34, 1
  14              		.eabi_attribute 18, 4
  15              		.file	"lv_obj_pos.c"
  16              		.text
  17              		.section	.text.transform_point,"ax",%progbits
  18              		.align	1
  19              		.syntax unified
  20              		.thumb
  21              		.thumb_func
  23              	transform_point:
  24              		@ args = 0, pretend = 0, frame = 8
  25              		@ frame_needed = 0, uses_anonymous_args = 0
  26 0000 2DE9F043 		push	{r4, r5, r6, r7, r8, r9, lr}
  27 0004 83B0     		sub	sp, sp, #12
  28 0006 0446     		mov	r4, r0
  29 0008 0F46     		mov	r7, r1
  30 000a 9046     		mov	r8, r2
  31 000c 6E22     		movs	r2, #110
  32 000e 0021     		movs	r1, #0
  33 0010 FFF7FEFF 		bl	lv_obj_get_style_prop
  34 0014 0646     		mov	r6, r0
  35 0016 0FFA80F9 		sxth	r9, r0
  36 001a 6D22     		movs	r2, #109
  37 001c 0021     		movs	r1, #0
  38 001e 2046     		mov	r0, r4
  39 0020 FFF7FEFF 		bl	lv_obj_get_style_prop
  40 0024 05B2     		sxth	r5, r0
  41 0026 B9F1000F 		cmp	r9, #0
  42 002a 02D1     		bne	.L2
  43 002c B5F5807F 		cmp	r5, #256
  44 0030 37D0     		beq	.L1
  45              	.L2:
  46 0032 6F22     		movs	r2, #111
  47 0034 0021     		movs	r1, #0
  48 0036 2046     		mov	r0, r4
  49 0038 FFF7FEFF 		bl	lv_obj_get_style_prop
  50 003c ADF80400 		strh	r0, [sp, #4]	@ movhi
  51 0040 7022     		movs	r2, #112
  52 0042 0021     		movs	r1, #0
  53 0044 2046     		mov	r0, r4
  54 0046 FFF7FEFF 		bl	lv_obj_get_style_prop
  55 004a 03B2     		sxth	r3, r0
  56 004c ADF80630 		strh	r3, [sp, #6]	@ movhi
  57 0050 BDF90420 		ldrsh	r2, [sp, #4]
  58 0054 02F4C041 		and	r1, r2, #24576
ARM GAS  /var/folders/lp/x54gwt890xv47sdkqj1k04q40000gn/T//ccAKDLQh.s 			page 2


  59 0058 B1F5005F 		cmp	r1, #8192
  60 005c 24D0     		beq	.L12
  61              	.L4:
  62 005e 03F4C042 		and	r2, r3, #24576
  63 0062 B2F5005F 		cmp	r2, #8192
  64 0066 3AD0     		beq	.L13
  65              	.L7:
  66 0068 A38A     		ldrh	r3, [r4, #20]
  67 006a BDF80420 		ldrh	r2, [sp, #4]
  68 006e 1344     		add	r3, r3, r2
  69 0070 ADF80430 		strh	r3, [sp, #4]	@ movhi
  70 0074 E38A     		ldrh	r3, [r4, #22]
  71 0076 BDF80620 		ldrh	r2, [sp, #6]
  72 007a 1344     		add	r3, r3, r2
  73 007c ADF80630 		strh	r3, [sp, #6]	@ movhi
  74 0080 B8F1000F 		cmp	r8, #0
  75 0084 07D0     		beq	.L10
  76 0086 7642     		rsbs	r6, r6, #0
  77 0088 0FFA86F9 		sxth	r9, r6
  78 008c 4FF48033 		mov	r3, #65536
  79 0090 93FBF5F3 		sdiv	r3, r3, r5
  80 0094 1DB2     		sxth	r5, r3
  81              	.L10:
  82 0096 01AB     		add	r3, sp, #4
  83 0098 2A46     		mov	r2, r5
  84 009a 4946     		mov	r1, r9
  85 009c 3846     		mov	r0, r7
  86 009e FFF7FEFF 		bl	lv_point_transform
  87              	.L1:
  88 00a2 03B0     		add	sp, sp, #12
  89              		@ sp needed
  90 00a4 BDE8F083 		pop	{r4, r5, r6, r7, r8, r9, pc}
  91              	.L12:
  92 00a8 22F4C042 		bic	r2, r2, #24576
  93 00ac B2F5FA6F 		cmp	r2, #2000
  94 00b0 D5DC     		bgt	.L4
  95 00b2 B2F57A7F 		cmp	r2, #1000
  96 00b6 01DD     		ble	.L6
  97 00b8 C2F57A72 		rsb	r2, r2, #1000
  98              	.L6:
  99 00bc 218B     		ldrh	r1, [r4, #24]
 100 00be A08A     		ldrh	r0, [r4, #20]
 101 00c0 091A     		subs	r1, r1, r0
 102 00c2 89B2     		uxth	r1, r1
 103 00c4 0131     		adds	r1, r1, #1
 104 00c6 09B2     		sxth	r1, r1
 105 00c8 01FB02F2 		mul	r2, r1, r2
 106 00cc 1149     		ldr	r1, .L14
 107 00ce 81FB0201 		smull	r0, r1, r1, r2
 108 00d2 D217     		asrs	r2, r2, #31
 109 00d4 C2EB6112 		rsb	r2, r2, r1, asr #5
 110 00d8 ADF80420 		strh	r2, [sp, #4]	@ movhi
 111 00dc BFE7     		b	.L4
 112              	.L13:
 113 00de 23F4C043 		bic	r3, r3, #24576
 114 00e2 B3F5FA6F 		cmp	r3, #2000
 115 00e6 BFDC     		bgt	.L7
ARM GAS  /var/folders/lp/x54gwt890xv47sdkqj1k04q40000gn/T//ccAKDLQh.s 			page 3


 116 00e8 B3F57A7F 		cmp	r3, #1000
 117 00ec 01DD     		ble	.L9
 118 00ee C3F57A73 		rsb	r3, r3, #1000
 119              	.L9:
 120 00f2 628B     		ldrh	r2, [r4, #26]
 121 00f4 E18A     		ldrh	r1, [r4, #22]
 122 00f6 521A     		subs	r2, r2, r1
 123 00f8 92B2     		uxth	r2, r2
 124 00fa 0132     		adds	r2, r2, #1
 125 00fc 12B2     		sxth	r2, r2
 126 00fe 02FB03F3 		mul	r3, r2, r3
 127 0102 044A     		ldr	r2, .L14
 128 0104 82FB0312 		smull	r1, r2, r2, r3
 129 0108 DB17     		asrs	r3, r3, #31
 130 010a C3EB6213 		rsb	r3, r3, r2, asr #5
 131 010e ADF80630 		strh	r3, [sp, #6]	@ movhi
 132 0112 A9E7     		b	.L7
 133              	.L15:
 134              		.align	2
 135              	.L14:
 136 0114 1F85EB51 		.word	1374389535
 138              		.section	.text.lv_obj_set_x,"ax",%progbits
 139              		.align	1
 140              		.global	lv_obj_set_x
 141              		.syntax unified
 142              		.thumb
 143              		.thumb_func
 145              	lv_obj_set_x:
 146              		@ args = 0, pretend = 0, frame = 8
 147              		@ frame_needed = 0, uses_anonymous_args = 0
 148 0000 30B5     		push	{r4, r5, lr}
 149 0002 83B0     		sub	sp, sp, #12
 150 0004 0546     		mov	r5, r0
 151 0006 0C46     		mov	r4, r1
 152 0008 0023     		movs	r3, #0
 153 000a 01AA     		add	r2, sp, #4
 154 000c 0721     		movs	r1, #7
 155 000e FFF7FEFF 		bl	lv_obj_get_local_style_prop
 156 0012 0128     		cmp	r0, #1
 157 0014 07D0     		beq	.L21
 158              	.L17:
 159 0016 20B9     		cbnz	r0, .L16
 160              	.L18:
 161 0018 0022     		movs	r2, #0
 162 001a 2146     		mov	r1, r4
 163 001c 2846     		mov	r0, r5
 164 001e FFF7FEFF 		bl	lv_obj_set_style_x
 165              	.L16:
 166 0022 03B0     		add	sp, sp, #12
 167              		@ sp needed
 168 0024 30BD     		pop	{r4, r5, pc}
 169              	.L21:
 170 0026 019B     		ldr	r3, [sp, #4]
 171 0028 A342     		cmp	r3, r4
 172 002a F5D1     		bne	.L18
 173 002c F3E7     		b	.L17
 175              		.section	.text.lv_obj_set_y,"ax",%progbits
ARM GAS  /var/folders/lp/x54gwt890xv47sdkqj1k04q40000gn/T//ccAKDLQh.s 			page 4


 176              		.align	1
 177              		.global	lv_obj_set_y
 178              		.syntax unified
 179              		.thumb
 180              		.thumb_func
 182              	lv_obj_set_y:
 183              		@ args = 0, pretend = 0, frame = 8
 184              		@ frame_needed = 0, uses_anonymous_args = 0
 185 0000 30B5     		push	{r4, r5, lr}
 186 0002 83B0     		sub	sp, sp, #12
 187 0004 0546     		mov	r5, r0
 188 0006 0C46     		mov	r4, r1
 189 0008 0023     		movs	r3, #0
 190 000a 01AA     		add	r2, sp, #4
 191 000c 0821     		movs	r1, #8
 192 000e FFF7FEFF 		bl	lv_obj_get_local_style_prop
 193 0012 0128     		cmp	r0, #1
 194 0014 07D0     		beq	.L27
 195              	.L23:
 196 0016 20B9     		cbnz	r0, .L22
 197              	.L24:
 198 0018 0022     		movs	r2, #0
 199 001a 2146     		mov	r1, r4
 200 001c 2846     		mov	r0, r5
 201 001e FFF7FEFF 		bl	lv_obj_set_style_y
 202              	.L22:
 203 0022 03B0     		add	sp, sp, #12
 204              		@ sp needed
 205 0024 30BD     		pop	{r4, r5, pc}
 206              	.L27:
 207 0026 019B     		ldr	r3, [sp, #4]
 208 0028 A342     		cmp	r3, r4
 209 002a F5D1     		bne	.L24
 210 002c F3E7     		b	.L23
 212              		.section	.text.lv_obj_set_pos,"ax",%progbits
 213              		.align	1
 214              		.global	lv_obj_set_pos
 215              		.syntax unified
 216              		.thumb
 217              		.thumb_func
 219              	lv_obj_set_pos:
 220              		@ args = 0, pretend = 0, frame = 0
 221              		@ frame_needed = 0, uses_anonymous_args = 0
 222 0000 38B5     		push	{r3, r4, r5, lr}
 223 0002 0446     		mov	r4, r0
 224 0004 1546     		mov	r5, r2
 225 0006 FFF7FEFF 		bl	lv_obj_set_x
 226 000a 2946     		mov	r1, r5
 227 000c 2046     		mov	r0, r4
 228 000e FFF7FEFF 		bl	lv_obj_set_y
 229 0012 38BD     		pop	{r3, r4, r5, pc}
 231              		.section	.text.lv_obj_set_width,"ax",%progbits
 232              		.align	1
 233              		.global	lv_obj_set_width
 234              		.syntax unified
 235              		.thumb
 236              		.thumb_func
ARM GAS  /var/folders/lp/x54gwt890xv47sdkqj1k04q40000gn/T//ccAKDLQh.s 			page 5


 238              	lv_obj_set_width:
 239              		@ args = 0, pretend = 0, frame = 8
 240              		@ frame_needed = 0, uses_anonymous_args = 0
 241 0000 30B5     		push	{r4, r5, lr}
 242 0002 83B0     		sub	sp, sp, #12
 243 0004 0546     		mov	r5, r0
 244 0006 0C46     		mov	r4, r1
 245 0008 0023     		movs	r3, #0
 246 000a 01AA     		add	r2, sp, #4
 247 000c 0121     		movs	r1, #1
 248 000e FFF7FEFF 		bl	lv_obj_get_local_style_prop
 249 0012 0128     		cmp	r0, #1
 250 0014 07D0     		beq	.L35
 251              	.L31:
 252 0016 20B9     		cbnz	r0, .L30
 253              	.L32:
 254 0018 0022     		movs	r2, #0
 255 001a 2146     		mov	r1, r4
 256 001c 2846     		mov	r0, r5
 257 001e FFF7FEFF 		bl	lv_obj_set_style_width
 258              	.L30:
 259 0022 03B0     		add	sp, sp, #12
 260              		@ sp needed
 261 0024 30BD     		pop	{r4, r5, pc}
 262              	.L35:
 263 0026 019B     		ldr	r3, [sp, #4]
 264 0028 A342     		cmp	r3, r4
 265 002a F5D1     		bne	.L32
 266 002c F3E7     		b	.L31
 268              		.section	.text.lv_obj_set_height,"ax",%progbits
 269              		.align	1
 270              		.global	lv_obj_set_height
 271              		.syntax unified
 272              		.thumb
 273              		.thumb_func
 275              	lv_obj_set_height:
 276              		@ args = 0, pretend = 0, frame = 8
 277              		@ frame_needed = 0, uses_anonymous_args = 0
 278 0000 30B5     		push	{r4, r5, lr}
 279 0002 83B0     		sub	sp, sp, #12
 280 0004 0546     		mov	r5, r0
 281 0006 0C46     		mov	r4, r1
 282 0008 0023     		movs	r3, #0
 283 000a 01AA     		add	r2, sp, #4
 284 000c 0421     		movs	r1, #4
 285 000e FFF7FEFF 		bl	lv_obj_get_local_style_prop
 286 0012 0128     		cmp	r0, #1
 287 0014 07D0     		beq	.L41
 288              	.L37:
 289 0016 20B9     		cbnz	r0, .L36
 290              	.L38:
 291 0018 0022     		movs	r2, #0
 292 001a 2146     		mov	r1, r4
 293 001c 2846     		mov	r0, r5
 294 001e FFF7FEFF 		bl	lv_obj_set_style_height
 295              	.L36:
 296 0022 03B0     		add	sp, sp, #12
ARM GAS  /var/folders/lp/x54gwt890xv47sdkqj1k04q40000gn/T//ccAKDLQh.s 			page 6


 297              		@ sp needed
 298 0024 30BD     		pop	{r4, r5, pc}
 299              	.L41:
 300 0026 019B     		ldr	r3, [sp, #4]
 301 0028 A342     		cmp	r3, r4
 302 002a F5D1     		bne	.L38
 303 002c F3E7     		b	.L37
 305              		.section	.text.lv_obj_set_size,"ax",%progbits
 306              		.align	1
 307              		.global	lv_obj_set_size
 308              		.syntax unified
 309              		.thumb
 310              		.thumb_func
 312              	lv_obj_set_size:
 313              		@ args = 0, pretend = 0, frame = 0
 314              		@ frame_needed = 0, uses_anonymous_args = 0
 315 0000 38B5     		push	{r3, r4, r5, lr}
 316 0002 0446     		mov	r4, r0
 317 0004 1546     		mov	r5, r2
 318 0006 FFF7FEFF 		bl	lv_obj_set_width
 319 000a 2946     		mov	r1, r5
 320 000c 2046     		mov	r0, r4
 321 000e FFF7FEFF 		bl	lv_obj_set_height
 322 0012 38BD     		pop	{r3, r4, r5, pc}
 324              		.section	.text.lv_obj_set_content_width,"ax",%progbits
 325              		.align	1
 326              		.global	lv_obj_set_content_width
 327              		.syntax unified
 328              		.thumb
 329              		.thumb_func
 331              	lv_obj_set_content_width:
 332              		@ args = 0, pretend = 0, frame = 0
 333              		@ frame_needed = 0, uses_anonymous_args = 0
 334 0000 F8B5     		push	{r3, r4, r5, r6, r7, lr}
 335 0002 0546     		mov	r5, r0
 336 0004 0C46     		mov	r4, r1
 337 0006 1222     		movs	r2, #18
 338 0008 0021     		movs	r1, #0
 339 000a FFF7FEFF 		bl	lv_obj_get_style_prop
 340 000e 0746     		mov	r7, r0
 341 0010 1322     		movs	r2, #19
 342 0012 0021     		movs	r1, #0
 343 0014 2846     		mov	r0, r5
 344 0016 FFF7FEFF 		bl	lv_obj_get_style_prop
 345 001a 0646     		mov	r6, r0
 346 001c 3222     		movs	r2, #50
 347 001e 0021     		movs	r1, #0
 348 0020 2846     		mov	r0, r5
 349 0022 FFF7FEFF 		bl	lv_obj_get_style_prop
 350 0026 E119     		adds	r1, r4, r7
 351 0028 16FA81F1 		uxtah	r1, r6, r1
 352 002c 4000     		lsls	r0, r0, #1
 353 002e 80B2     		uxth	r0, r0
 354 0030 10FA81F1 		uxtah	r1, r0, r1
 355 0034 09B2     		sxth	r1, r1
 356 0036 2846     		mov	r0, r5
 357 0038 FFF7FEFF 		bl	lv_obj_set_width
ARM GAS  /var/folders/lp/x54gwt890xv47sdkqj1k04q40000gn/T//ccAKDLQh.s 			page 7


 358 003c F8BD     		pop	{r3, r4, r5, r6, r7, pc}
 360              		.section	.text.lv_obj_set_content_height,"ax",%progbits
 361              		.align	1
 362              		.global	lv_obj_set_content_height
 363              		.syntax unified
 364              		.thumb
 365              		.thumb_func
 367              	lv_obj_set_content_height:
 368              		@ args = 0, pretend = 0, frame = 0
 369              		@ frame_needed = 0, uses_anonymous_args = 0
 370 0000 F8B5     		push	{r3, r4, r5, r6, r7, lr}
 371 0002 0546     		mov	r5, r0
 372 0004 0C46     		mov	r4, r1
 373 0006 1022     		movs	r2, #16
 374 0008 0021     		movs	r1, #0
 375 000a FFF7FEFF 		bl	lv_obj_get_style_prop
 376 000e 0746     		mov	r7, r0
 377 0010 1122     		movs	r2, #17
 378 0012 0021     		movs	r1, #0
 379 0014 2846     		mov	r0, r5
 380 0016 FFF7FEFF 		bl	lv_obj_get_style_prop
 381 001a 0646     		mov	r6, r0
 382 001c 3222     		movs	r2, #50
 383 001e 0021     		movs	r1, #0
 384 0020 2846     		mov	r0, r5
 385 0022 FFF7FEFF 		bl	lv_obj_get_style_prop
 386 0026 E119     		adds	r1, r4, r7
 387 0028 16FA81F1 		uxtah	r1, r6, r1
 388 002c 4000     		lsls	r0, r0, #1
 389 002e 80B2     		uxth	r0, r0
 390 0030 10FA81F1 		uxtah	r1, r0, r1
 391 0034 09B2     		sxth	r1, r1
 392 0036 2846     		mov	r0, r5
 393 0038 FFF7FEFF 		bl	lv_obj_set_height
 394 003c F8BD     		pop	{r3, r4, r5, r6, r7, pc}
 396              		.section	.text.lv_obj_is_layout_positioned,"ax",%progbits
 397              		.align	1
 398              		.global	lv_obj_is_layout_positioned
 399              		.syntax unified
 400              		.thumb
 401              		.thumb_func
 403              	lv_obj_is_layout_positioned:
 404              		@ args = 0, pretend = 0, frame = 0
 405              		@ frame_needed = 0, uses_anonymous_args = 0
 406 0000 38B5     		push	{r3, r4, r5, lr}
 407 0002 0446     		mov	r4, r0
 408 0004 0A49     		ldr	r1, .L53
 409 0006 FFF7FEFF 		bl	lv_obj_has_flag_any
 410 000a 10B1     		cbz	r0, .L52
 411 000c 0025     		movs	r5, #0
 412              	.L49:
 413 000e 2846     		mov	r0, r5
 414 0010 38BD     		pop	{r3, r4, r5, pc}
 415              	.L52:
 416 0012 0546     		mov	r5, r0
 417 0014 2046     		mov	r0, r4
 418 0016 FFF7FEFF 		bl	lv_obj_get_parent
ARM GAS  /var/folders/lp/x54gwt890xv47sdkqj1k04q40000gn/T//ccAKDLQh.s 			page 8


 419 001a 0028     		cmp	r0, #0
 420 001c F7D0     		beq	.L49
 421 001e 0A22     		movs	r2, #10
 422 0020 0021     		movs	r1, #0
 423 0022 FFF7FEFF 		bl	lv_obj_get_style_prop
 424 0026 80B2     		uxth	r0, r0
 425 0028 0028     		cmp	r0, #0
 426 002a F0D0     		beq	.L49
 427 002c 0125     		movs	r5, #1
 428 002e EEE7     		b	.L49
 429              	.L54:
 430              		.align	2
 431              	.L53:
 432 0030 01000600 		.word	393217
 434              		.section	.text.lv_obj_mark_layout_as_dirty,"ax",%progbits
 435              		.align	1
 436              		.global	lv_obj_mark_layout_as_dirty
 437              		.syntax unified
 438              		.thumb
 439              		.thumb_func
 441              	lv_obj_mark_layout_as_dirty:
 442              		@ args = 0, pretend = 0, frame = 0
 443              		@ frame_needed = 0, uses_anonymous_args = 0
 444 0000 08B5     		push	{r3, lr}
 445 0002 90F82220 		ldrb	r2, [r0, #34]	@ zero_extendqisi2
 446 0006 42F00102 		orr	r2, r2, #1
 447 000a 80F82220 		strb	r2, [r0, #34]
 448 000e FFF7FEFF 		bl	lv_obj_get_screen
 449 0012 90F82220 		ldrb	r2, [r0, #34]	@ zero_extendqisi2
 450 0016 42F00402 		orr	r2, r2, #4
 451 001a 80F82220 		strb	r2, [r0, #34]
 452 001e FFF7FEFF 		bl	lv_obj_get_disp
 453 0022 4068     		ldr	r0, [r0, #4]
 454 0024 08B1     		cbz	r0, .L55
 455 0026 FFF7FEFF 		bl	lv_timer_resume
 456              	.L55:
 457 002a 08BD     		pop	{r3, pc}
 459              		.section	.text.lv_obj_set_layout,"ax",%progbits
 460              		.align	1
 461              		.global	lv_obj_set_layout
 462              		.syntax unified
 463              		.thumb
 464              		.thumb_func
 466              	lv_obj_set_layout:
 467              		@ args = 0, pretend = 0, frame = 0
 468              		@ frame_needed = 0, uses_anonymous_args = 0
 469 0000 10B5     		push	{r4, lr}
 470 0002 0446     		mov	r4, r0
 471 0004 0022     		movs	r2, #0
 472 0006 89B2     		uxth	r1, r1
 473 0008 FFF7FEFF 		bl	lv_obj_set_style_layout
 474 000c 2046     		mov	r0, r4
 475 000e FFF7FEFF 		bl	lv_obj_mark_layout_as_dirty
 476 0012 10BD     		pop	{r4, pc}
 478              		.section	.text.lv_layout_register,"ax",%progbits
 479              		.align	1
 480              		.global	lv_layout_register
ARM GAS  /var/folders/lp/x54gwt890xv47sdkqj1k04q40000gn/T//ccAKDLQh.s 			page 9


 481              		.syntax unified
 482              		.thumb
 483              		.thumb_func
 485              	lv_layout_register:
 486              		@ args = 0, pretend = 0, frame = 0
 487              		@ frame_needed = 0, uses_anonymous_args = 0
 488 0000 70B5     		push	{r4, r5, r6, lr}
 489 0002 0546     		mov	r5, r0
 490 0004 0C46     		mov	r4, r1
 491 0006 0D4A     		ldr	r2, .L64
 492 0008 1368     		ldr	r3, [r2]
 493 000a 0133     		adds	r3, r3, #1
 494 000c 1360     		str	r3, [r2]
 495 000e 0C4E     		ldr	r6, .L64+4
 496 0010 D900     		lsls	r1, r3, #3
 497 0012 3068     		ldr	r0, [r6]
 498 0014 FFF7FEFF 		bl	lv_mem_realloc
 499 0018 3060     		str	r0, [r6]
 500 001a 68B1     		cbz	r0, .L62
 501 001c 0346     		mov	r3, r0
 502 001e 074A     		ldr	r2, .L64
 503 0020 1068     		ldr	r0, [r2]
 504 0022 00F10052 		add	r2, r0, #536870912
 505 0026 013A     		subs	r2, r2, #1
 506 0028 43F83250 		str	r5, [r3, r2, lsl #3]
 507 002c 044B     		ldr	r3, .L64+4
 508 002e 1B68     		ldr	r3, [r3]
 509 0030 03EBC203 		add	r3, r3, r2, lsl #3
 510 0034 5C60     		str	r4, [r3, #4]
 511 0036 70BD     		pop	{r4, r5, r6, pc}
 512              	.L62:
 513 0038 FEE7     		b	.L62
 514              	.L65:
 515 003a 00BF     		.align	2
 516              	.L64:
 517 003c 00000000 		.word	layout_cnt
 518 0040 00000000 		.word	_lv_layout_list
 520              		.section	.text.lv_obj_set_align,"ax",%progbits
 521              		.align	1
 522              		.global	lv_obj_set_align
 523              		.syntax unified
 524              		.thumb
 525              		.thumb_func
 527              	lv_obj_set_align:
 528              		@ args = 0, pretend = 0, frame = 0
 529              		@ frame_needed = 0, uses_anonymous_args = 0
 530 0000 08B5     		push	{r3, lr}
 531 0002 0022     		movs	r2, #0
 532 0004 FFF7FEFF 		bl	lv_obj_set_style_align
 533 0008 08BD     		pop	{r3, pc}
 535              		.section	.text.lv_obj_align,"ax",%progbits
 536              		.align	1
 537              		.global	lv_obj_align
 538              		.syntax unified
 539              		.thumb
 540              		.thumb_func
 542              	lv_obj_align:
ARM GAS  /var/folders/lp/x54gwt890xv47sdkqj1k04q40000gn/T//ccAKDLQh.s 			page 10


 543              		@ args = 0, pretend = 0, frame = 0
 544              		@ frame_needed = 0, uses_anonymous_args = 0
 545 0000 70B5     		push	{r4, r5, r6, lr}
 546 0002 0446     		mov	r4, r0
 547 0004 1546     		mov	r5, r2
 548 0006 1E46     		mov	r6, r3
 549 0008 0022     		movs	r2, #0
 550 000a FFF7FEFF 		bl	lv_obj_set_style_align
 551 000e 3246     		mov	r2, r6
 552 0010 2946     		mov	r1, r5
 553 0012 2046     		mov	r0, r4
 554 0014 FFF7FEFF 		bl	lv_obj_set_pos
 555 0018 70BD     		pop	{r4, r5, r6, pc}
 557              		.section	.text.lv_obj_get_coords,"ax",%progbits
 558              		.align	1
 559              		.global	lv_obj_get_coords
 560              		.syntax unified
 561              		.thumb
 562              		.thumb_func
 564              	lv_obj_get_coords:
 565              		@ args = 0, pretend = 0, frame = 0
 566              		@ frame_needed = 0, uses_anonymous_args = 0
 567              		@ link register save eliminated.
 568 0000 B0F91430 		ldrsh	r3, [r0, #20]
 569 0004 0B80     		strh	r3, [r1]	@ movhi
 570 0006 B0F91630 		ldrsh	r3, [r0, #22]
 571 000a 4B80     		strh	r3, [r1, #2]	@ movhi
 572 000c B0F91830 		ldrsh	r3, [r0, #24]
 573 0010 8B80     		strh	r3, [r1, #4]	@ movhi
 574 0012 B0F91A30 		ldrsh	r3, [r0, #26]
 575 0016 CB80     		strh	r3, [r1, #6]	@ movhi
 576 0018 7047     		bx	lr
 578              		.section	.text.lv_obj_get_x,"ax",%progbits
 579              		.align	1
 580              		.global	lv_obj_get_x
 581              		.syntax unified
 582              		.thumb
 583              		.thumb_func
 585              	lv_obj_get_x:
 586              		@ args = 0, pretend = 0, frame = 0
 587              		@ frame_needed = 0, uses_anonymous_args = 0
 588 0000 38B5     		push	{r3, r4, r5, lr}
 589 0002 0446     		mov	r4, r0
 590 0004 FFF7FEFF 		bl	lv_obj_get_parent
 591 0008 D0B1     		cbz	r0, .L72
 592 000a 0546     		mov	r5, r0
 593 000c A48A     		ldrh	r4, [r4, #20]
 594 000e 838A     		ldrh	r3, [r0, #20]
 595 0010 E41A     		subs	r4, r4, r3
 596 0012 A4B2     		uxth	r4, r4
 597 0014 FFF7FEFF 		bl	lv_obj_get_scroll_x
 598 0018 14FA80F4 		uxtah	r4, r4, r0
 599 001c A4B2     		uxth	r4, r4
 600 001e 1222     		movs	r2, #18
 601 0020 0021     		movs	r1, #0
 602 0022 2846     		mov	r0, r5
 603 0024 FFF7FEFF 		bl	lv_obj_get_style_prop
ARM GAS  /var/folders/lp/x54gwt890xv47sdkqj1k04q40000gn/T//ccAKDLQh.s 			page 11


 604 0028 80B2     		uxth	r0, r0
 605 002a 241A     		subs	r4, r4, r0
 606 002c A4B2     		uxth	r4, r4
 607 002e 3222     		movs	r2, #50
 608 0030 0021     		movs	r1, #0
 609 0032 2846     		mov	r0, r5
 610 0034 FFF7FEFF 		bl	lv_obj_get_style_prop
 611 0038 80B2     		uxth	r0, r0
 612 003a 201A     		subs	r0, r4, r0
 613 003c 00B2     		sxth	r0, r0
 614              	.L73:
 615 003e 38BD     		pop	{r3, r4, r5, pc}
 616              	.L72:
 617 0040 B4F91400 		ldrsh	r0, [r4, #20]
 618 0044 FBE7     		b	.L73
 620              		.section	.text.lv_obj_get_y,"ax",%progbits
 621              		.align	1
 622              		.global	lv_obj_get_y
 623              		.syntax unified
 624              		.thumb
 625              		.thumb_func
 627              	lv_obj_get_y:
 628              		@ args = 0, pretend = 0, frame = 0
 629              		@ frame_needed = 0, uses_anonymous_args = 0
 630 0000 38B5     		push	{r3, r4, r5, lr}
 631 0002 0446     		mov	r4, r0
 632 0004 FFF7FEFF 		bl	lv_obj_get_parent
 633 0008 D0B1     		cbz	r0, .L76
 634 000a 0546     		mov	r5, r0
 635 000c E48A     		ldrh	r4, [r4, #22]
 636 000e C38A     		ldrh	r3, [r0, #22]
 637 0010 E41A     		subs	r4, r4, r3
 638 0012 A4B2     		uxth	r4, r4
 639 0014 FFF7FEFF 		bl	lv_obj_get_scroll_y
 640 0018 14FA80F4 		uxtah	r4, r4, r0
 641 001c A4B2     		uxth	r4, r4
 642 001e 1022     		movs	r2, #16
 643 0020 0021     		movs	r1, #0
 644 0022 2846     		mov	r0, r5
 645 0024 FFF7FEFF 		bl	lv_obj_get_style_prop
 646 0028 80B2     		uxth	r0, r0
 647 002a 241A     		subs	r4, r4, r0
 648 002c A4B2     		uxth	r4, r4
 649 002e 3222     		movs	r2, #50
 650 0030 0021     		movs	r1, #0
 651 0032 2846     		mov	r0, r5
 652 0034 FFF7FEFF 		bl	lv_obj_get_style_prop
 653 0038 80B2     		uxth	r0, r0
 654 003a 201A     		subs	r0, r4, r0
 655 003c 00B2     		sxth	r0, r0
 656              	.L77:
 657 003e 38BD     		pop	{r3, r4, r5, pc}
 658              	.L76:
 659 0040 B4F91600 		ldrsh	r0, [r4, #22]
 660 0044 FBE7     		b	.L77
 662              		.section	.text.lv_obj_get_x_aligned,"ax",%progbits
 663              		.align	1
ARM GAS  /var/folders/lp/x54gwt890xv47sdkqj1k04q40000gn/T//ccAKDLQh.s 			page 12


 664              		.global	lv_obj_get_x_aligned
 665              		.syntax unified
 666              		.thumb
 667              		.thumb_func
 669              	lv_obj_get_x_aligned:
 670              		@ args = 0, pretend = 0, frame = 0
 671              		@ frame_needed = 0, uses_anonymous_args = 0
 672 0000 08B5     		push	{r3, lr}
 673 0002 0722     		movs	r2, #7
 674 0004 0021     		movs	r1, #0
 675 0006 FFF7FEFF 		bl	lv_obj_get_style_prop
 676 000a 00B2     		sxth	r0, r0
 677 000c 08BD     		pop	{r3, pc}
 679              		.section	.text.lv_obj_get_y_aligned,"ax",%progbits
 680              		.align	1
 681              		.global	lv_obj_get_y_aligned
 682              		.syntax unified
 683              		.thumb
 684              		.thumb_func
 686              	lv_obj_get_y_aligned:
 687              		@ args = 0, pretend = 0, frame = 0
 688              		@ frame_needed = 0, uses_anonymous_args = 0
 689 0000 08B5     		push	{r3, lr}
 690 0002 0822     		movs	r2, #8
 691 0004 0021     		movs	r1, #0
 692 0006 FFF7FEFF 		bl	lv_obj_get_style_prop
 693 000a 00B2     		sxth	r0, r0
 694 000c 08BD     		pop	{r3, pc}
 696              		.section	.text.lv_obj_get_width,"ax",%progbits
 697              		.align	1
 698              		.global	lv_obj_get_width
 699              		.syntax unified
 700              		.thumb
 701              		.thumb_func
 703              	lv_obj_get_width:
 704              		@ args = 0, pretend = 0, frame = 0
 705              		@ frame_needed = 0, uses_anonymous_args = 0
 706              		@ link register save eliminated.
 707 0000 038B     		ldrh	r3, [r0, #24]
 708 0002 828A     		ldrh	r2, [r0, #20]
 709 0004 981A     		subs	r0, r3, r2
 710 0006 80B2     		uxth	r0, r0
 711 0008 0130     		adds	r0, r0, #1
 712 000a 00B2     		sxth	r0, r0
 713 000c 7047     		bx	lr
 715              		.section	.text.lv_obj_get_x2,"ax",%progbits
 716              		.align	1
 717              		.global	lv_obj_get_x2
 718              		.syntax unified
 719              		.thumb
 720              		.thumb_func
 722              	lv_obj_get_x2:
 723              		@ args = 0, pretend = 0, frame = 0
 724              		@ frame_needed = 0, uses_anonymous_args = 0
 725 0000 38B5     		push	{r3, r4, r5, lr}
 726 0002 0546     		mov	r5, r0
 727 0004 FFF7FEFF 		bl	lv_obj_get_x
ARM GAS  /var/folders/lp/x54gwt890xv47sdkqj1k04q40000gn/T//ccAKDLQh.s 			page 13


 728 0008 84B2     		uxth	r4, r0
 729 000a 2846     		mov	r0, r5
 730 000c FFF7FEFF 		bl	lv_obj_get_width
 731 0010 14FA80F0 		uxtah	r0, r4, r0
 732 0014 00B2     		sxth	r0, r0
 733 0016 38BD     		pop	{r3, r4, r5, pc}
 735              		.section	.text.lv_obj_get_height,"ax",%progbits
 736              		.align	1
 737              		.global	lv_obj_get_height
 738              		.syntax unified
 739              		.thumb
 740              		.thumb_func
 742              	lv_obj_get_height:
 743              		@ args = 0, pretend = 0, frame = 0
 744              		@ frame_needed = 0, uses_anonymous_args = 0
 745              		@ link register save eliminated.
 746 0000 438B     		ldrh	r3, [r0, #26]
 747 0002 C28A     		ldrh	r2, [r0, #22]
 748 0004 981A     		subs	r0, r3, r2
 749 0006 80B2     		uxth	r0, r0
 750 0008 0130     		adds	r0, r0, #1
 751 000a 00B2     		sxth	r0, r0
 752 000c 7047     		bx	lr
 754              		.section	.text.lv_obj_get_y2,"ax",%progbits
 755              		.align	1
 756              		.global	lv_obj_get_y2
 757              		.syntax unified
 758              		.thumb
 759              		.thumb_func
 761              	lv_obj_get_y2:
 762              		@ args = 0, pretend = 0, frame = 0
 763              		@ frame_needed = 0, uses_anonymous_args = 0
 764 0000 38B5     		push	{r3, r4, r5, lr}
 765 0002 0546     		mov	r5, r0
 766 0004 FFF7FEFF 		bl	lv_obj_get_y
 767 0008 84B2     		uxth	r4, r0
 768 000a 2846     		mov	r0, r5
 769 000c FFF7FEFF 		bl	lv_obj_get_height
 770 0010 14FA80F0 		uxtah	r0, r4, r0
 771 0014 00B2     		sxth	r0, r0
 772 0016 38BD     		pop	{r3, r4, r5, pc}
 774              		.section	.text.lv_obj_get_content_width,"ax",%progbits
 775              		.align	1
 776              		.global	lv_obj_get_content_width
 777              		.syntax unified
 778              		.thumb
 779              		.thumb_func
 781              	lv_obj_get_content_width:
 782              		@ args = 0, pretend = 0, frame = 0
 783              		@ frame_needed = 0, uses_anonymous_args = 0
 784 0000 F8B5     		push	{r3, r4, r5, r6, r7, lr}
 785 0002 0546     		mov	r5, r0
 786 0004 1222     		movs	r2, #18
 787 0006 0021     		movs	r1, #0
 788 0008 FFF7FEFF 		bl	lv_obj_get_style_prop
 789 000c 0746     		mov	r7, r0
 790 000e 1322     		movs	r2, #19
ARM GAS  /var/folders/lp/x54gwt890xv47sdkqj1k04q40000gn/T//ccAKDLQh.s 			page 14


 791 0010 0021     		movs	r1, #0
 792 0012 2846     		mov	r0, r5
 793 0014 FFF7FEFF 		bl	lv_obj_get_style_prop
 794 0018 0646     		mov	r6, r0
 795 001a 3222     		movs	r2, #50
 796 001c 0021     		movs	r1, #0
 797 001e 2846     		mov	r0, r5
 798 0020 FFF7FEFF 		bl	lv_obj_get_style_prop
 799 0024 0446     		mov	r4, r0
 800 0026 2846     		mov	r0, r5
 801 0028 FFF7FEFF 		bl	lv_obj_get_width
 802 002c 83B2     		uxth	r3, r0
 803 002e DB1B     		subs	r3, r3, r7
 804 0030 9BB2     		uxth	r3, r3
 805 0032 9B1B     		subs	r3, r3, r6
 806 0034 9BB2     		uxth	r3, r3
 807 0036 6400     		lsls	r4, r4, #1
 808 0038 A4B2     		uxth	r4, r4
 809 003a 181B     		subs	r0, r3, r4
 810 003c 00B2     		sxth	r0, r0
 811 003e F8BD     		pop	{r3, r4, r5, r6, r7, pc}
 813              		.section	.text.lv_obj_get_content_height,"ax",%progbits
 814              		.align	1
 815              		.global	lv_obj_get_content_height
 816              		.syntax unified
 817              		.thumb
 818              		.thumb_func
 820              	lv_obj_get_content_height:
 821              		@ args = 0, pretend = 0, frame = 0
 822              		@ frame_needed = 0, uses_anonymous_args = 0
 823 0000 F8B5     		push	{r3, r4, r5, r6, r7, lr}
 824 0002 0546     		mov	r5, r0
 825 0004 1022     		movs	r2, #16
 826 0006 0021     		movs	r1, #0
 827 0008 FFF7FEFF 		bl	lv_obj_get_style_prop
 828 000c 0746     		mov	r7, r0
 829 000e 1122     		movs	r2, #17
 830 0010 0021     		movs	r1, #0
 831 0012 2846     		mov	r0, r5
 832 0014 FFF7FEFF 		bl	lv_obj_get_style_prop
 833 0018 0646     		mov	r6, r0
 834 001a 3222     		movs	r2, #50
 835 001c 0021     		movs	r1, #0
 836 001e 2846     		mov	r0, r5
 837 0020 FFF7FEFF 		bl	lv_obj_get_style_prop
 838 0024 0446     		mov	r4, r0
 839 0026 2846     		mov	r0, r5
 840 0028 FFF7FEFF 		bl	lv_obj_get_height
 841 002c 83B2     		uxth	r3, r0
 842 002e DB1B     		subs	r3, r3, r7
 843 0030 9BB2     		uxth	r3, r3
 844 0032 9B1B     		subs	r3, r3, r6
 845 0034 9BB2     		uxth	r3, r3
 846 0036 6400     		lsls	r4, r4, #1
 847 0038 A4B2     		uxth	r4, r4
 848 003a 181B     		subs	r0, r3, r4
 849 003c 00B2     		sxth	r0, r0
ARM GAS  /var/folders/lp/x54gwt890xv47sdkqj1k04q40000gn/T//ccAKDLQh.s 			page 15


 850 003e F8BD     		pop	{r3, r4, r5, r6, r7, pc}
 852              		.section	.text.lv_obj_get_content_coords,"ax",%progbits
 853              		.align	1
 854              		.global	lv_obj_get_content_coords
 855              		.syntax unified
 856              		.thumb
 857              		.thumb_func
 859              	lv_obj_get_content_coords:
 860              		@ args = 0, pretend = 0, frame = 0
 861              		@ frame_needed = 0, uses_anonymous_args = 0
 862 0000 70B5     		push	{r4, r5, r6, lr}
 863 0002 0646     		mov	r6, r0
 864 0004 0C46     		mov	r4, r1
 865 0006 3222     		movs	r2, #50
 866 0008 0021     		movs	r1, #0
 867 000a FFF7FEFF 		bl	lv_obj_get_style_prop
 868 000e 0546     		mov	r5, r0
 869 0010 2146     		mov	r1, r4
 870 0012 3046     		mov	r0, r6
 871 0014 FFF7FEFF 		bl	lv_obj_get_coords
 872 0018 6942     		rsbs	r1, r5, #0
 873 001a 09B2     		sxth	r1, r1
 874 001c 0A46     		mov	r2, r1
 875 001e 2046     		mov	r0, r4
 876 0020 FFF7FEFF 		bl	lv_area_increase
 877 0024 1222     		movs	r2, #18
 878 0026 0021     		movs	r1, #0
 879 0028 3046     		mov	r0, r6
 880 002a FFF7FEFF 		bl	lv_obj_get_style_prop
 881 002e 2388     		ldrh	r3, [r4]
 882 0030 13FA80F0 		uxtah	r0, r3, r0
 883 0034 2080     		strh	r0, [r4]	@ movhi
 884 0036 1322     		movs	r2, #19
 885 0038 0021     		movs	r1, #0
 886 003a 3046     		mov	r0, r6
 887 003c FFF7FEFF 		bl	lv_obj_get_style_prop
 888 0040 A388     		ldrh	r3, [r4, #4]
 889 0042 80B2     		uxth	r0, r0
 890 0044 1B1A     		subs	r3, r3, r0
 891 0046 A380     		strh	r3, [r4, #4]	@ movhi
 892 0048 1022     		movs	r2, #16
 893 004a 0021     		movs	r1, #0
 894 004c 3046     		mov	r0, r6
 895 004e FFF7FEFF 		bl	lv_obj_get_style_prop
 896 0052 6388     		ldrh	r3, [r4, #2]
 897 0054 13FA80F0 		uxtah	r0, r3, r0
 898 0058 6080     		strh	r0, [r4, #2]	@ movhi
 899 005a 1122     		movs	r2, #17
 900 005c 0021     		movs	r1, #0
 901 005e 3046     		mov	r0, r6
 902 0060 FFF7FEFF 		bl	lv_obj_get_style_prop
 903 0064 E388     		ldrh	r3, [r4, #6]
 904 0066 80B2     		uxth	r0, r0
 905 0068 1B1A     		subs	r3, r3, r0
 906 006a E380     		strh	r3, [r4, #6]	@ movhi
 907 006c 70BD     		pop	{r4, r5, r6, pc}
 909              		.section	.text.lv_obj_get_self_width,"ax",%progbits
ARM GAS  /var/folders/lp/x54gwt890xv47sdkqj1k04q40000gn/T//ccAKDLQh.s 			page 16


 910              		.align	1
 911              		.global	lv_obj_get_self_width
 912              		.syntax unified
 913              		.thumb
 914              		.thumb_func
 916              	lv_obj_get_self_width:
 917              		@ args = 0, pretend = 0, frame = 8
 918              		@ frame_needed = 0, uses_anonymous_args = 0
 919 0000 00B5     		push	{lr}
 920 0002 83B0     		sub	sp, sp, #12
 921 0004 0023     		movs	r3, #0
 922 0006 ADF80430 		strh	r3, [sp, #4]	@ movhi
 923 000a 4EF20103 		movw	r3, #57345
 924 000e ADF80630 		strh	r3, [sp, #6]	@ movhi
 925 0012 01AA     		add	r2, sp, #4
 926 0014 2C21     		movs	r1, #44
 927 0016 FFF7FEFF 		bl	lv_event_send
 928 001a BDF90400 		ldrsh	r0, [sp, #4]
 929 001e 03B0     		add	sp, sp, #12
 930              		@ sp needed
 931 0020 5DF804FB 		ldr	pc, [sp], #4
 933              		.section	.text.calc_content_width,"ax",%progbits
 934              		.align	1
 935              		.syntax unified
 936              		.thumb
 937              		.thumb_func
 939              	calc_content_width:
 940              		@ args = 0, pretend = 0, frame = 8
 941              		@ frame_needed = 0, uses_anonymous_args = 0
 942 0000 2DE9F04F 		push	{r4, r5, r6, r7, r8, r9, r10, fp, lr}
 943 0004 83B0     		sub	sp, sp, #12
 944 0006 0546     		mov	r5, r0
 945 0008 0022     		movs	r2, #0
 946 000a 1146     		mov	r1, r2
 947 000c FFF7FEFF 		bl	lv_obj_scroll_to_x
 948 0010 3222     		movs	r2, #50
 949 0012 0021     		movs	r1, #0
 950 0014 2846     		mov	r0, r5
 951 0016 FFF7FEFF 		bl	lv_obj_get_style_prop
 952 001a 0446     		mov	r4, r0
 953 001c 1322     		movs	r2, #19
 954 001e 0021     		movs	r1, #0
 955 0020 2846     		mov	r0, r5
 956 0022 FFF7FEFF 		bl	lv_obj_get_style_prop
 957 0026 A4B2     		uxth	r4, r4
 958 0028 14FA80F0 		uxtah	r0, r4, r0
 959 002c 1FFA80FA 		uxth	r10, r0
 960 0030 03B2     		sxth	r3, r0
 961 0032 0193     		str	r3, [sp, #4]
 962 0034 1222     		movs	r2, #18
 963 0036 0021     		movs	r1, #0
 964 0038 2846     		mov	r0, r5
 965 003a FFF7FEFF 		bl	lv_obj_get_style_prop
 966 003e 14FA80F0 		uxtah	r0, r4, r0
 967 0042 1FFA80FB 		uxth	fp, r0
 968 0046 03B2     		sxth	r3, r0
 969 0048 0093     		str	r3, [sp]
ARM GAS  /var/folders/lp/x54gwt890xv47sdkqj1k04q40000gn/T//ccAKDLQh.s 			page 17


 970 004a 2846     		mov	r0, r5
 971 004c FFF7FEFF 		bl	lv_obj_get_self_width
 972 0050 1BFA80F8 		uxtah	r8, fp, r0
 973 0054 1AFA88F8 		uxtah	r8, r10, r8
 974 0058 0FFA88F8 		sxth	r8, r8
 975 005c 2846     		mov	r0, r5
 976 005e FFF7FEFF 		bl	lv_obj_get_child_cnt
 977 0062 0746     		mov	r7, r0
 978 0064 1622     		movs	r2, #22
 979 0066 0021     		movs	r1, #0
 980 0068 2846     		mov	r0, r5
 981 006a FFF7FEFF 		bl	lv_obj_get_style_prop
 982 006e C0B2     		uxtb	r0, r0
 983 0070 0128     		cmp	r0, #1
 984 0072 51D0     		beq	.L112
 985 0074 0024     		movs	r4, #0
 986 0076 DFF87491 		ldr	r9, .L118+4
 987 007a 71E0     		b	.L99
 988              	.L115:
 989 007c 0922     		movs	r2, #9
 990 007e 0021     		movs	r1, #0
 991 0080 3046     		mov	r0, r6
 992 0082 FFF7FEFF 		bl	lv_obj_get_style_prop
 993 0086 C0B2     		uxtb	r0, r0
 994 0088 0828     		cmp	r0, #8
 995 008a 2ED8     		bhi	.L102
 996 008c 40F24913 		movw	r3, #329
 997 0090 C340     		lsrs	r3, r3, r0
 998 0092 13F0010F 		tst	r3, #1
 999 0096 28D0     		beq	.L102
 1000 0098 B5F91830 		ldrsh	r3, [r5, #24]
 1001 009c B6F91420 		ldrsh	r2, [r6, #20]
 1002 00a0 9B1A     		subs	r3, r3, r2
 1003 00a2 0133     		adds	r3, r3, #1
 1004 00a4 4B45     		cmp	r3, r9
 1005 00a6 B8BF     		it	lt
 1006 00a8 4B46     		movlt	r3, r9
 1007 00aa 0FFA83F9 		sxth	r9, r3
 1008              	.L100:
 1009 00ae 0134     		adds	r4, r4, #1
 1010              	.L98:
 1011 00b0 BC42     		cmp	r4, r7
 1012 00b2 35D2     		bcs	.L114
 1013 00b4 AB68     		ldr	r3, [r5, #8]
 1014 00b6 1B68     		ldr	r3, [r3]
 1015 00b8 53F82460 		ldr	r6, [r3, r4, lsl #2]
 1016 00bc 4A49     		ldr	r1, .L118
 1017 00be 3046     		mov	r0, r6
 1018 00c0 FFF7FEFF 		bl	lv_obj_has_flag_any
 1019 00c4 0028     		cmp	r0, #0
 1020 00c6 F2D1     		bne	.L100
 1021 00c8 3046     		mov	r0, r6
 1022 00ca FFF7FEFF 		bl	lv_obj_is_layout_positioned
 1023 00ce 0028     		cmp	r0, #0
 1024 00d0 D4D0     		beq	.L115
 1025 00d2 B5F91830 		ldrsh	r3, [r5, #24]
 1026 00d6 B6F91420 		ldrsh	r2, [r6, #20]
ARM GAS  /var/folders/lp/x54gwt890xv47sdkqj1k04q40000gn/T//ccAKDLQh.s 			page 18


 1027 00da 9B1A     		subs	r3, r3, r2
 1028 00dc 0133     		adds	r3, r3, #1
 1029 00de 4B45     		cmp	r3, r9
 1030 00e0 B8BF     		it	lt
 1031 00e2 4B46     		movlt	r3, r9
 1032 00e4 0FFA83F9 		sxth	r9, r3
 1033 00e8 E1E7     		b	.L100
 1034              	.L102:
 1035 00ea 0722     		movs	r2, #7
 1036 00ec 0021     		movs	r1, #0
 1037 00ee 3046     		mov	r0, r6
 1038 00f0 FFF7FEFF 		bl	lv_obj_get_style_prop
 1039 00f4 00B2     		sxth	r0, r0
 1040 00f6 0028     		cmp	r0, #0
 1041 00f8 D9D1     		bne	.L100
 1042 00fa 338B     		ldrh	r3, [r6, #24]
 1043 00fc B28A     		ldrh	r2, [r6, #20]
 1044 00fe 9B1A     		subs	r3, r3, r2
 1045 0100 9BB2     		uxth	r3, r3
 1046 0102 0133     		adds	r3, r3, #1
 1047 0104 9AB2     		uxth	r2, r3
 1048 0106 0199     		ldr	r1, [sp, #4]
 1049 0108 01FA83F3 		sxtah	r3, r1, r3
 1050 010c 9945     		cmp	r9, r3
 1051 010e CEDC     		bgt	.L100
 1052 0110 5244     		add	r2, r2, r10
 1053 0112 0FFA82F9 		sxth	r9, r2
 1054 0116 CAE7     		b	.L100
 1055              	.L112:
 1056 0118 0024     		movs	r4, #0
 1057 011a DFF8D090 		ldr	r9, .L118+4
 1058 011e C7E7     		b	.L98
 1059              	.L114:
 1060 0120 324B     		ldr	r3, .L118+4
 1061 0122 9945     		cmp	r9, r3
 1062 0124 5CD0     		beq	.L111
 1063 0126 CB44     		add	fp, fp, r9
 1064 0128 0FFA8BFA 		sxth	r10, fp
 1065 012c 52E0     		b	.L105
 1066              	.L117:
 1067 012e 0922     		movs	r2, #9
 1068 0130 0021     		movs	r1, #0
 1069 0132 3046     		mov	r0, r6
 1070 0134 FFF7FEFF 		bl	lv_obj_get_style_prop
 1071 0138 C0B2     		uxtb	r0, r0
 1072 013a 0728     		cmp	r0, #7
 1073 013c 2DD8     		bhi	.L108
 1074 013e 9323     		movs	r3, #147
 1075 0140 C340     		lsrs	r3, r3, r0
 1076 0142 13F0010F 		tst	r3, #1
 1077 0146 28D0     		beq	.L108
 1078 0148 B6F91830 		ldrsh	r3, [r6, #24]
 1079 014c B5F91420 		ldrsh	r2, [r5, #20]
 1080 0150 9B1A     		subs	r3, r3, r2
 1081 0152 0133     		adds	r3, r3, #1
 1082 0154 4B45     		cmp	r3, r9
 1083 0156 B8BF     		it	lt
ARM GAS  /var/folders/lp/x54gwt890xv47sdkqj1k04q40000gn/T//ccAKDLQh.s 			page 19


 1084 0158 4B46     		movlt	r3, r9
 1085 015a 0FFA83F9 		sxth	r9, r3
 1086              	.L106:
 1087 015e 0134     		adds	r4, r4, #1
 1088              	.L99:
 1089 0160 BC42     		cmp	r4, r7
 1090 0162 31D2     		bcs	.L116
 1091 0164 AB68     		ldr	r3, [r5, #8]
 1092 0166 1B68     		ldr	r3, [r3]
 1093 0168 53F82460 		ldr	r6, [r3, r4, lsl #2]
 1094 016c 1E49     		ldr	r1, .L118
 1095 016e 3046     		mov	r0, r6
 1096 0170 FFF7FEFF 		bl	lv_obj_has_flag_any
 1097 0174 0028     		cmp	r0, #0
 1098 0176 F2D1     		bne	.L106
 1099 0178 3046     		mov	r0, r6
 1100 017a FFF7FEFF 		bl	lv_obj_is_layout_positioned
 1101 017e 0028     		cmp	r0, #0
 1102 0180 D5D0     		beq	.L117
 1103 0182 B6F91830 		ldrsh	r3, [r6, #24]
 1104 0186 B5F91420 		ldrsh	r2, [r5, #20]
 1105 018a 9B1A     		subs	r3, r3, r2
 1106 018c 0133     		adds	r3, r3, #1
 1107 018e 4B45     		cmp	r3, r9
 1108 0190 B8BF     		it	lt
 1109 0192 4B46     		movlt	r3, r9
 1110 0194 0FFA83F9 		sxth	r9, r3
 1111 0198 E1E7     		b	.L106
 1112              	.L108:
 1113 019a 0822     		movs	r2, #8
 1114 019c 0021     		movs	r1, #0
 1115 019e 3046     		mov	r0, r6
 1116 01a0 FFF7FEFF 		bl	lv_obj_get_style_prop
 1117 01a4 00B2     		sxth	r0, r0
 1118 01a6 0028     		cmp	r0, #0
 1119 01a8 D9D1     		bne	.L106
 1120 01aa 338B     		ldrh	r3, [r6, #24]
 1121 01ac B28A     		ldrh	r2, [r6, #20]
 1122 01ae 9B1A     		subs	r3, r3, r2
 1123 01b0 9BB2     		uxth	r3, r3
 1124 01b2 0133     		adds	r3, r3, #1
 1125 01b4 9AB2     		uxth	r2, r3
 1126 01b6 0099     		ldr	r1, [sp]
 1127 01b8 01FA83F3 		sxtah	r3, r1, r3
 1128 01bc 9945     		cmp	r9, r3
 1129 01be CEDC     		bgt	.L106
 1130 01c0 5A44     		add	r2, r2, fp
 1131 01c2 0FFA82F9 		sxth	r9, r2
 1132 01c6 CAE7     		b	.L106
 1133              	.L116:
 1134 01c8 084B     		ldr	r3, .L118+4
 1135 01ca 9945     		cmp	r9, r3
 1136 01cc 08D0     		beq	.L111
 1137 01ce CA44     		add	r10, r10, r9
 1138 01d0 0FFA8AFA 		sxth	r10, r10
 1139              	.L105:
 1140 01d4 054B     		ldr	r3, .L118+4
ARM GAS  /var/folders/lp/x54gwt890xv47sdkqj1k04q40000gn/T//ccAKDLQh.s 			page 20


 1141 01d6 9A45     		cmp	r10, r3
 1142 01d8 02D0     		beq	.L111
 1143 01da D045     		cmp	r8, r10
 1144 01dc B8BF     		it	lt
 1145 01de D046     		movlt	r8, r10
 1146              	.L111:
 1147 01e0 4046     		mov	r0, r8
 1148 01e2 03B0     		add	sp, sp, #12
 1149              		@ sp needed
 1150 01e4 BDE8F08F 		pop	{r4, r5, r6, r7, r8, r9, r10, fp, pc}
 1151              	.L119:
 1152              		.align	2
 1153              	.L118:
 1154 01e8 01000400 		.word	262145
 1155 01ec 01E0FFFF 		.word	-8191
 1157              		.section	.text.lv_obj_get_self_height,"ax",%progbits
 1158              		.align	1
 1159              		.global	lv_obj_get_self_height
 1160              		.syntax unified
 1161              		.thumb
 1162              		.thumb_func
 1164              	lv_obj_get_self_height:
 1165              		@ args = 0, pretend = 0, frame = 8
 1166              		@ frame_needed = 0, uses_anonymous_args = 0
 1167 0000 00B5     		push	{lr}
 1168 0002 83B0     		sub	sp, sp, #12
 1169 0004 4EF20103 		movw	r3, #57345
 1170 0008 ADF80430 		strh	r3, [sp, #4]	@ movhi
 1171 000c 0023     		movs	r3, #0
 1172 000e ADF80630 		strh	r3, [sp, #6]	@ movhi
 1173 0012 01AA     		add	r2, sp, #4
 1174 0014 2C21     		movs	r1, #44
 1175 0016 FFF7FEFF 		bl	lv_event_send
 1176 001a BDF90600 		ldrsh	r0, [sp, #6]
 1177 001e 03B0     		add	sp, sp, #12
 1178              		@ sp needed
 1179 0020 5DF804FB 		ldr	pc, [sp], #4
 1181              		.section	.text.calc_content_height,"ax",%progbits
 1182              		.align	1
 1183              		.syntax unified
 1184              		.thumb
 1185              		.thumb_func
 1187              	calc_content_height:
 1188              		@ args = 0, pretend = 0, frame = 8
 1189              		@ frame_needed = 0, uses_anonymous_args = 0
 1190 0000 2DE9F04F 		push	{r4, r5, r6, r7, r8, r9, r10, fp, lr}
 1191 0004 83B0     		sub	sp, sp, #12
 1192 0006 0646     		mov	r6, r0
 1193 0008 0022     		movs	r2, #0
 1194 000a 1146     		mov	r1, r2
 1195 000c FFF7FEFF 		bl	lv_obj_scroll_to_y
 1196 0010 3222     		movs	r2, #50
 1197 0012 0021     		movs	r1, #0
 1198 0014 3046     		mov	r0, r6
 1199 0016 FFF7FEFF 		bl	lv_obj_get_style_prop
 1200 001a 0446     		mov	r4, r0
 1201 001c 1022     		movs	r2, #16
ARM GAS  /var/folders/lp/x54gwt890xv47sdkqj1k04q40000gn/T//ccAKDLQh.s 			page 21


 1202 001e 0021     		movs	r1, #0
 1203 0020 3046     		mov	r0, r6
 1204 0022 FFF7FEFF 		bl	lv_obj_get_style_prop
 1205 0026 A4B2     		uxth	r4, r4
 1206 0028 14FA80F0 		uxtah	r0, r4, r0
 1207 002c 1FFA80FB 		uxth	fp, r0
 1208 0030 03B2     		sxth	r3, r0
 1209 0032 0193     		str	r3, [sp, #4]
 1210 0034 1122     		movs	r2, #17
 1211 0036 0021     		movs	r1, #0
 1212 0038 3046     		mov	r0, r6
 1213 003a FFF7FEFF 		bl	lv_obj_get_style_prop
 1214 003e 14FA80FA 		uxtah	r10, r4, r0
 1215 0042 1FFA8AFA 		uxth	r10, r10
 1216 0046 3046     		mov	r0, r6
 1217 0048 FFF7FEFF 		bl	lv_obj_get_self_height
 1218 004c 1BFA80F9 		uxtah	r9, fp, r0
 1219 0050 1AFA89F9 		uxtah	r9, r10, r9
 1220 0054 0FFA89F9 		sxth	r9, r9
 1221 0058 3046     		mov	r0, r6
 1222 005a FFF7FEFF 		bl	lv_obj_get_child_cnt
 1223 005e 0746     		mov	r7, r0
 1224 0060 0024     		movs	r4, #0
 1225 0062 DFF8B480 		ldr	r8, .L132+4
 1226 0066 13E0     		b	.L123
 1227              	.L131:
 1228 0068 0922     		movs	r2, #9
 1229 006a 0021     		movs	r1, #0
 1230 006c 2846     		mov	r0, r5
 1231 006e FFF7FEFF 		bl	lv_obj_get_style_prop
 1232 0072 C0B2     		uxtb	r0, r0
 1233 0074 0328     		cmp	r0, #3
 1234 0076 28D8     		bhi	.L126
 1235 0078 B5F91A30 		ldrsh	r3, [r5, #26]
 1236 007c B6F91620 		ldrsh	r2, [r6, #22]
 1237 0080 9B1A     		subs	r3, r3, r2
 1238 0082 0133     		adds	r3, r3, #1
 1239 0084 4345     		cmp	r3, r8
 1240 0086 B8BF     		it	lt
 1241 0088 4346     		movlt	r3, r8
 1242 008a 0FFA83F8 		sxth	r8, r3
 1243              	.L124:
 1244 008e 0134     		adds	r4, r4, #1
 1245              	.L123:
 1246 0090 BC42     		cmp	r4, r7
 1247 0092 31D2     		bcs	.L130
 1248 0094 B368     		ldr	r3, [r6, #8]
 1249 0096 1B68     		ldr	r3, [r3]
 1250 0098 53F82450 		ldr	r5, [r3, r4, lsl #2]
 1251 009c 1D49     		ldr	r1, .L132
 1252 009e 2846     		mov	r0, r5
 1253 00a0 FFF7FEFF 		bl	lv_obj_has_flag_any
 1254 00a4 0028     		cmp	r0, #0
 1255 00a6 F2D1     		bne	.L124
 1256 00a8 2846     		mov	r0, r5
 1257 00aa FFF7FEFF 		bl	lv_obj_is_layout_positioned
 1258 00ae 0028     		cmp	r0, #0
ARM GAS  /var/folders/lp/x54gwt890xv47sdkqj1k04q40000gn/T//ccAKDLQh.s 			page 22


 1259 00b0 DAD0     		beq	.L131
 1260 00b2 B5F91A30 		ldrsh	r3, [r5, #26]
 1261 00b6 B6F91620 		ldrsh	r2, [r6, #22]
 1262 00ba 9B1A     		subs	r3, r3, r2
 1263 00bc 0133     		adds	r3, r3, #1
 1264 00be 4345     		cmp	r3, r8
 1265 00c0 B8BF     		it	lt
 1266 00c2 4346     		movlt	r3, r8
 1267 00c4 0FFA83F8 		sxth	r8, r3
 1268 00c8 E1E7     		b	.L124
 1269              	.L126:
 1270 00ca 0822     		movs	r2, #8
 1271 00cc 0021     		movs	r1, #0
 1272 00ce 2846     		mov	r0, r5
 1273 00d0 FFF7FEFF 		bl	lv_obj_get_style_prop
 1274 00d4 00B2     		sxth	r0, r0
 1275 00d6 0028     		cmp	r0, #0
 1276 00d8 D9D1     		bne	.L124
 1277 00da 6B8B     		ldrh	r3, [r5, #26]
 1278 00dc EA8A     		ldrh	r2, [r5, #22]
 1279 00de 9B1A     		subs	r3, r3, r2
 1280 00e0 9BB2     		uxth	r3, r3
 1281 00e2 0133     		adds	r3, r3, #1
 1282 00e4 9AB2     		uxth	r2, r3
 1283 00e6 0199     		ldr	r1, [sp, #4]
 1284 00e8 01FA83F3 		sxtah	r3, r1, r3
 1285 00ec 9845     		cmp	r8, r3
 1286 00ee CEDC     		bgt	.L124
 1287 00f0 5A44     		add	r2, r2, fp
 1288 00f2 0FFA82F8 		sxth	r8, r2
 1289 00f6 CAE7     		b	.L124
 1290              	.L130:
 1291 00f8 074B     		ldr	r3, .L132+4
 1292 00fa 9845     		cmp	r8, r3
 1293 00fc 05D0     		beq	.L128
 1294 00fe C244     		add	r10, r10, r8
 1295 0100 0FFA8AFA 		sxth	r10, r10
 1296 0104 D145     		cmp	r9, r10
 1297 0106 B8BF     		it	lt
 1298 0108 D146     		movlt	r9, r10
 1299              	.L128:
 1300 010a 4846     		mov	r0, r9
 1301 010c 03B0     		add	sp, sp, #12
 1302              		@ sp needed
 1303 010e BDE8F08F 		pop	{r4, r5, r6, r7, r8, r9, r10, fp, pc}
 1304              	.L133:
 1305 0112 00BF     		.align	2
 1306              	.L132:
 1307 0114 01000400 		.word	262145
 1308 0118 01E0FFFF 		.word	-8191
 1310              		.section	.text.lv_obj_refresh_self_size,"ax",%progbits
 1311              		.align	1
 1312              		.global	lv_obj_refresh_self_size
 1313              		.syntax unified
 1314              		.thumb
 1315              		.thumb_func
 1317              	lv_obj_refresh_self_size:
ARM GAS  /var/folders/lp/x54gwt890xv47sdkqj1k04q40000gn/T//ccAKDLQh.s 			page 23


 1318              		@ args = 0, pretend = 0, frame = 0
 1319              		@ frame_needed = 0, uses_anonymous_args = 0
 1320 0000 38B5     		push	{r3, r4, r5, lr}
 1321 0002 0446     		mov	r4, r0
 1322 0004 0122     		movs	r2, #1
 1323 0006 0021     		movs	r1, #0
 1324 0008 FFF7FEFF 		bl	lv_obj_get_style_prop
 1325 000c 05B2     		sxth	r5, r0
 1326 000e 0422     		movs	r2, #4
 1327 0010 0021     		movs	r1, #0
 1328 0012 2046     		mov	r0, r4
 1329 0014 FFF7FEFF 		bl	lv_obj_get_style_prop
 1330 0018 42F2D173 		movw	r3, #10193
 1331 001c 9D42     		cmp	r5, r3
 1332 001e 02D0     		beq	.L135
 1333 0020 00B2     		sxth	r0, r0
 1334 0022 9842     		cmp	r0, r3
 1335 0024 04D1     		bne	.L137
 1336              	.L135:
 1337 0026 2046     		mov	r0, r4
 1338 0028 FFF7FEFF 		bl	lv_obj_mark_layout_as_dirty
 1339 002c 0120     		movs	r0, #1
 1340              	.L136:
 1341 002e 38BD     		pop	{r3, r4, r5, pc}
 1342              	.L137:
 1343 0030 0020     		movs	r0, #0
 1344 0032 FCE7     		b	.L136
 1346              		.section	.text.lv_obj_move_children_by,"ax",%progbits
 1347              		.align	1
 1348              		.global	lv_obj_move_children_by
 1349              		.syntax unified
 1350              		.thumb
 1351              		.thumb_func
 1353              	lv_obj_move_children_by:
 1354              		@ args = 0, pretend = 0, frame = 0
 1355              		@ frame_needed = 0, uses_anonymous_args = 0
 1356 0000 2DE9F047 		push	{r4, r5, r6, r7, r8, r9, r10, lr}
 1357 0004 8046     		mov	r8, r0
 1358 0006 8A46     		mov	r10, r1
 1359 0008 9146     		mov	r9, r2
 1360 000a 1F46     		mov	r7, r3
 1361 000c FFF7FEFF 		bl	lv_obj_get_child_cnt
 1362 0010 0646     		mov	r6, r0
 1363 0012 0024     		movs	r4, #0
 1364 0014 00E0     		b	.L140
 1365              	.L142:
 1366 0016 0134     		adds	r4, r4, #1
 1367              	.L140:
 1368 0018 B442     		cmp	r4, r6
 1369 001a 23D2     		bcs	.L145
 1370 001c D8F80830 		ldr	r3, [r8, #8]
 1371 0020 1D68     		ldr	r5, [r3]
 1372 0022 55F82450 		ldr	r5, [r5, r4, lsl #2]
 1373 0026 37B1     		cbz	r7, .L141
 1374 0028 4FF48021 		mov	r1, #262144
 1375 002c 2846     		mov	r0, r5
 1376 002e FFF7FEFF 		bl	lv_obj_has_flag
ARM GAS  /var/folders/lp/x54gwt890xv47sdkqj1k04q40000gn/T//ccAKDLQh.s 			page 24


 1377 0032 0028     		cmp	r0, #0
 1378 0034 EFD1     		bne	.L142
 1379              	.L141:
 1380 0036 AB8A     		ldrh	r3, [r5, #20]
 1381 0038 1FFA8AF2 		uxth	r2, r10
 1382 003c 1344     		add	r3, r3, r2
 1383 003e AB82     		strh	r3, [r5, #20]	@ movhi
 1384 0040 E98A     		ldrh	r1, [r5, #22]
 1385 0042 1FFA89F3 		uxth	r3, r9
 1386 0046 1944     		add	r1, r1, r3
 1387 0048 E982     		strh	r1, [r5, #22]	@ movhi
 1388 004a 298B     		ldrh	r1, [r5, #24]
 1389 004c 0A44     		add	r2, r2, r1
 1390 004e 2A83     		strh	r2, [r5, #24]	@ movhi
 1391 0050 6A8B     		ldrh	r2, [r5, #26]
 1392 0052 1344     		add	r3, r3, r2
 1393 0054 6B83     		strh	r3, [r5, #26]	@ movhi
 1394 0056 0023     		movs	r3, #0
 1395 0058 4A46     		mov	r2, r9
 1396 005a 5146     		mov	r1, r10
 1397 005c 2846     		mov	r0, r5
 1398 005e FFF7FEFF 		bl	lv_obj_move_children_by
 1399 0062 D8E7     		b	.L142
 1400              	.L145:
 1401 0064 BDE8F087 		pop	{r4, r5, r6, r7, r8, r9, r10, pc}
 1403              		.section	.text.lv_obj_transform_point,"ax",%progbits
 1404              		.align	1
 1405              		.global	lv_obj_transform_point
 1406              		.syntax unified
 1407              		.thumb
 1408              		.thumb_func
 1410              	lv_obj_transform_point:
 1411              		@ args = 0, pretend = 0, frame = 0
 1412              		@ frame_needed = 0, uses_anonymous_args = 0
 1413 0000 80B3     		cbz	r0, .L152
 1414 0002 2DE9F041 		push	{r4, r5, r6, r7, r8, lr}
 1415 0006 0F46     		mov	r7, r1
 1416 0008 1546     		mov	r5, r2
 1417 000a 1C46     		mov	r4, r3
 1418 000c 8046     		mov	r8, r0
 1419 000e FFF7FEFF 		bl	_lv_obj_get_layer_type
 1420 0012 0646     		mov	r6, r0
 1421 0014 9CB1     		cbz	r4, .L148
 1422 0016 1DB9     		cbnz	r5, .L155
 1423              	.L149:
 1424 0018 022E     		cmp	r6, #2
 1425 001a 0AD0     		beq	.L156
 1426              	.L146:
 1427 001c BDE8F081 		pop	{r4, r5, r6, r7, r8, pc}
 1428              	.L155:
 1429 0020 4046     		mov	r0, r8
 1430 0022 FFF7FEFF 		bl	lv_obj_get_parent
 1431 0026 2346     		mov	r3, r4
 1432 0028 2A46     		mov	r2, r5
 1433 002a 3946     		mov	r1, r7
 1434 002c FFF7FEFF 		bl	lv_obj_transform_point
 1435 0030 F2E7     		b	.L149
ARM GAS  /var/folders/lp/x54gwt890xv47sdkqj1k04q40000gn/T//ccAKDLQh.s 			page 25


 1436              	.L156:
 1437 0032 2246     		mov	r2, r4
 1438 0034 3946     		mov	r1, r7
 1439 0036 4046     		mov	r0, r8
 1440 0038 FFF7FEFF 		bl	transform_point
 1441 003c EEE7     		b	.L146
 1442              	.L148:
 1443 003e 0228     		cmp	r0, #2
 1444 0040 0AD0     		beq	.L157
 1445              	.L150:
 1446 0042 002D     		cmp	r5, #0
 1447 0044 EAD0     		beq	.L146
 1448 0046 4046     		mov	r0, r8
 1449 0048 FFF7FEFF 		bl	lv_obj_get_parent
 1450 004c 2346     		mov	r3, r4
 1451 004e 2A46     		mov	r2, r5
 1452 0050 3946     		mov	r1, r7
 1453 0052 FFF7FEFF 		bl	lv_obj_transform_point
 1454 0056 E1E7     		b	.L146
 1455              	.L157:
 1456 0058 2246     		mov	r2, r4
 1457 005a 3946     		mov	r1, r7
 1458 005c 4046     		mov	r0, r8
 1459 005e FFF7FEFF 		bl	transform_point
 1460 0062 EEE7     		b	.L150
 1461              	.L152:
 1462 0064 7047     		bx	lr
 1464              		.section	.text.lv_obj_get_transformed_area,"ax",%progbits
 1465              		.align	1
 1466              		.global	lv_obj_get_transformed_area
 1467              		.syntax unified
 1468              		.thumb
 1469              		.thumb_func
 1471              	lv_obj_get_transformed_area:
 1472              		@ args = 0, pretend = 0, frame = 16
 1473              		@ frame_needed = 0, uses_anonymous_args = 0
 1474 0000 F0B5     		push	{r4, r5, r6, r7, lr}
 1475 0002 85B0     		sub	sp, sp, #20
 1476 0004 0546     		mov	r5, r0
 1477 0006 0C46     		mov	r4, r1
 1478 0008 1646     		mov	r6, r2
 1479 000a 1F46     		mov	r7, r3
 1480 000c B1F90010 		ldrsh	r1, [r1]
 1481 0010 ADF80010 		strh	r1, [sp]	@ movhi
 1482 0014 B4F902E0 		ldrsh	lr, [r4, #2]
 1483 0018 ADF802E0 		strh	lr, [sp, #2]	@ movhi
 1484 001c ADF80410 		strh	r1, [sp, #4]	@ movhi
 1485 0020 B4F90610 		ldrsh	r1, [r4, #6]
 1486 0024 ADF80610 		strh	r1, [sp, #6]	@ movhi
 1487 0028 B4F904C0 		ldrsh	ip, [r4, #4]
 1488 002c ADF808C0 		strh	ip, [sp, #8]	@ movhi
 1489 0030 ADF80AE0 		strh	lr, [sp, #10]	@ movhi
 1490 0034 ADF80CC0 		strh	ip, [sp, #12]	@ movhi
 1491 0038 ADF80E10 		strh	r1, [sp, #14]	@ movhi
 1492 003c 6946     		mov	r1, sp
 1493 003e FFF7FEFF 		bl	lv_obj_transform_point
 1494 0042 3B46     		mov	r3, r7
ARM GAS  /var/folders/lp/x54gwt890xv47sdkqj1k04q40000gn/T//ccAKDLQh.s 			page 26


 1495 0044 3246     		mov	r2, r6
 1496 0046 01A9     		add	r1, sp, #4
 1497 0048 2846     		mov	r0, r5
 1498 004a FFF7FEFF 		bl	lv_obj_transform_point
 1499 004e 3B46     		mov	r3, r7
 1500 0050 3246     		mov	r2, r6
 1501 0052 02A9     		add	r1, sp, #8
 1502 0054 2846     		mov	r0, r5
 1503 0056 FFF7FEFF 		bl	lv_obj_transform_point
 1504 005a 3B46     		mov	r3, r7
 1505 005c 3246     		mov	r2, r6
 1506 005e 03A9     		add	r1, sp, #12
 1507 0060 2846     		mov	r0, r5
 1508 0062 FFF7FEFF 		bl	lv_obj_transform_point
 1509 0066 BDF90C30 		ldrsh	r3, [sp, #12]
 1510 006a BDF90850 		ldrsh	r5, [sp, #8]
 1511 006e 1946     		mov	r1, r3
 1512 0070 AB42     		cmp	r3, r5
 1513 0072 A8BF     		it	ge
 1514 0074 2946     		movge	r1, r5
 1515 0076 BDF90420 		ldrsh	r2, [sp, #4]
 1516 007a BDF90000 		ldrsh	r0, [sp]
 1517 007e 1646     		mov	r6, r2
 1518 0080 8242     		cmp	r2, r0
 1519 0082 A8BF     		it	ge
 1520 0084 0646     		movge	r6, r0
 1521 0086 B142     		cmp	r1, r6
 1522 0088 A8BF     		it	ge
 1523 008a 3146     		movge	r1, r6
 1524 008c 2180     		strh	r1, [r4]	@ movhi
 1525 008e AB42     		cmp	r3, r5
 1526 0090 B8BF     		it	lt
 1527 0092 2B46     		movlt	r3, r5
 1528 0094 8242     		cmp	r2, r0
 1529 0096 B8BF     		it	lt
 1530 0098 0246     		movlt	r2, r0
 1531 009a 9342     		cmp	r3, r2
 1532 009c B8BF     		it	lt
 1533 009e 1346     		movlt	r3, r2
 1534 00a0 A380     		strh	r3, [r4, #4]	@ movhi
 1535 00a2 BDF90E30 		ldrsh	r3, [sp, #14]
 1536 00a6 BDF90A50 		ldrsh	r5, [sp, #10]
 1537 00aa 1946     		mov	r1, r3
 1538 00ac AB42     		cmp	r3, r5
 1539 00ae A8BF     		it	ge
 1540 00b0 2946     		movge	r1, r5
 1541 00b2 BDF90620 		ldrsh	r2, [sp, #6]
 1542 00b6 BDF90200 		ldrsh	r0, [sp, #2]
 1543 00ba 1646     		mov	r6, r2
 1544 00bc 8242     		cmp	r2, r0
 1545 00be A8BF     		it	ge
 1546 00c0 0646     		movge	r6, r0
 1547 00c2 B142     		cmp	r1, r6
 1548 00c4 A8BF     		it	ge
 1549 00c6 3146     		movge	r1, r6
 1550 00c8 6180     		strh	r1, [r4, #2]	@ movhi
 1551 00ca AB42     		cmp	r3, r5
ARM GAS  /var/folders/lp/x54gwt890xv47sdkqj1k04q40000gn/T//ccAKDLQh.s 			page 27


 1552 00cc B8BF     		it	lt
 1553 00ce 2B46     		movlt	r3, r5
 1554 00d0 8242     		cmp	r2, r0
 1555 00d2 B8BF     		it	lt
 1556 00d4 0246     		movlt	r2, r0
 1557 00d6 9342     		cmp	r3, r2
 1558 00d8 B8BF     		it	lt
 1559 00da 1346     		movlt	r3, r2
 1560 00dc E380     		strh	r3, [r4, #6]	@ movhi
 1561 00de 0522     		movs	r2, #5
 1562 00e0 1146     		mov	r1, r2
 1563 00e2 2046     		mov	r0, r4
 1564 00e4 FFF7FEFF 		bl	lv_area_increase
 1565 00e8 05B0     		add	sp, sp, #20
 1566              		@ sp needed
 1567 00ea F0BD     		pop	{r4, r5, r6, r7, pc}
 1569              		.section	.text.lv_obj_area_is_visible,"ax",%progbits
 1570              		.align	1
 1571              		.global	lv_obj_area_is_visible
 1572              		.syntax unified
 1573              		.thumb
 1574              		.thumb_func
 1576              	lv_obj_area_is_visible:
 1577              		@ args = 0, pretend = 0, frame = 8
 1578              		@ frame_needed = 0, uses_anonymous_args = 0
 1579 0000 2DE9F041 		push	{r4, r5, r6, r7, r8, lr}
 1580 0004 82B0     		sub	sp, sp, #8
 1581 0006 0446     		mov	r4, r0
 1582 0008 0E46     		mov	r6, r1
 1583 000a 0121     		movs	r1, #1
 1584 000c FFF7FEFF 		bl	lv_obj_has_flag
 1585 0010 20B1     		cbz	r0, .L171
 1586 0012 0027     		movs	r7, #0
 1587              	.L161:
 1588 0014 3846     		mov	r0, r7
 1589 0016 02B0     		add	sp, sp, #8
 1590              		@ sp needed
 1591 0018 BDE8F081 		pop	{r4, r5, r6, r7, r8, pc}
 1592              	.L171:
 1593 001c 0746     		mov	r7, r0
 1594 001e 2046     		mov	r0, r4
 1595 0020 FFF7FEFF 		bl	lv_obj_get_screen
 1596 0024 0546     		mov	r5, r0
 1597 0026 FFF7FEFF 		bl	lv_obj_get_disp
 1598 002a 8046     		mov	r8, r0
 1599 002c FFF7FEFF 		bl	lv_disp_get_scr_act
 1600 0030 8542     		cmp	r5, r0
 1601 0032 0ED0     		beq	.L162
 1602 0034 4046     		mov	r0, r8
 1603 0036 FFF7FEFF 		bl	lv_disp_get_scr_prev
 1604 003a 8542     		cmp	r5, r0
 1605 003c 09D0     		beq	.L162
 1606 003e 4046     		mov	r0, r8
 1607 0040 FFF7FEFF 		bl	lv_disp_get_layer_top
 1608 0044 8542     		cmp	r5, r0
 1609 0046 04D0     		beq	.L162
 1610 0048 4046     		mov	r0, r8
ARM GAS  /var/folders/lp/x54gwt890xv47sdkqj1k04q40000gn/T//ccAKDLQh.s 			page 28


 1611 004a FFF7FEFF 		bl	lv_disp_get_layer_sys
 1612 004e 8542     		cmp	r5, r0
 1613 0050 E0D1     		bne	.L161
 1614              	.L162:
 1615 0052 4FF40021 		mov	r1, #524288
 1616 0056 2046     		mov	r0, r4
 1617 0058 FFF7FEFF 		bl	lv_obj_has_flag_any
 1618 005c 48BB     		cbnz	r0, .L163
 1619 005e 2046     		mov	r0, r4
 1620 0060 FFF7FEFF 		bl	_lv_obj_get_ext_draw_size
 1621 0064 B4F91420 		ldrsh	r2, [r4, #20]
 1622 0068 ADF80020 		strh	r2, [sp]	@ movhi
 1623 006c B4F91630 		ldrsh	r3, [r4, #22]
 1624 0070 ADF80230 		strh	r3, [sp, #2]	@ movhi
 1625 0074 B4F91850 		ldrsh	r5, [r4, #24]
 1626 0078 ADF80450 		strh	r5, [sp, #4]	@ movhi
 1627 007c B4F91A10 		ldrsh	r1, [r4, #26]
 1628 0080 ADF80610 		strh	r1, [sp, #6]	@ movhi
 1629 0084 92B2     		uxth	r2, r2
 1630 0086 80B2     		uxth	r0, r0
 1631 0088 121A     		subs	r2, r2, r0
 1632 008a ADF80020 		strh	r2, [sp]	@ movhi
 1633 008e 9BB2     		uxth	r3, r3
 1634 0090 1B1A     		subs	r3, r3, r0
 1635 0092 ADF80230 		strh	r3, [sp, #2]	@ movhi
 1636 0096 10FA85F5 		uxtah	r5, r0, r5
 1637 009a ADF80450 		strh	r5, [sp, #4]	@ movhi
 1638 009e 10FA81F1 		uxtah	r1, r0, r1
 1639 00a2 ADF80610 		strh	r1, [sp, #6]	@ movhi
 1640 00a6 6A46     		mov	r2, sp
 1641 00a8 3146     		mov	r1, r6
 1642 00aa 3046     		mov	r0, r6
 1643 00ac FFF7FEFF 		bl	_lv_area_intersect
 1644 00b0 50B1     		cbz	r0, .L172
 1645              	.L163:
 1646 00b2 0023     		movs	r3, #0
 1647 00b4 0122     		movs	r2, #1
 1648 00b6 3146     		mov	r1, r6
 1649 00b8 2046     		mov	r0, r4
 1650 00ba FFF7FEFF 		bl	lv_obj_get_transformed_area
 1651 00be 2046     		mov	r0, r4
 1652 00c0 FFF7FEFF 		bl	lv_obj_get_parent
 1653 00c4 0446     		mov	r4, r0
 1654 00c6 05E0     		b	.L165
 1655              	.L172:
 1656 00c8 0746     		mov	r7, r0
 1657 00ca A3E7     		b	.L161
 1658              	.L166:
 1659 00cc 2046     		mov	r0, r4
 1660 00ce FFF7FEFF 		bl	lv_obj_get_parent
 1661 00d2 0446     		mov	r4, r0
 1662              	.L165:
 1663 00d4 14B3     		cbz	r4, .L173
 1664 00d6 0121     		movs	r1, #1
 1665 00d8 2046     		mov	r0, r4
 1666 00da FFF7FEFF 		bl	lv_obj_has_flag
 1667 00de 0028     		cmp	r0, #0
ARM GAS  /var/folders/lp/x54gwt890xv47sdkqj1k04q40000gn/T//ccAKDLQh.s 			page 29


 1668 00e0 98D1     		bne	.L161
 1669 00e2 4FF40021 		mov	r1, #524288
 1670 00e6 2046     		mov	r0, r4
 1671 00e8 FFF7FEFF 		bl	lv_obj_has_flag_any
 1672 00ec 0028     		cmp	r0, #0
 1673 00ee EDD1     		bne	.L166
 1674 00f0 6D46     		mov	r5, sp
 1675 00f2 04F11403 		add	r3, r4, #20
 1676 00f6 93E80300 		ldm	r3, {r0, r1}
 1677 00fa 85E80300 		stm	r5, {r0, r1}
 1678 00fe 0023     		movs	r3, #0
 1679 0100 0122     		movs	r2, #1
 1680 0102 2946     		mov	r1, r5
 1681 0104 2046     		mov	r0, r4
 1682 0106 FFF7FEFF 		bl	lv_obj_get_transformed_area
 1683 010a 2A46     		mov	r2, r5
 1684 010c 3146     		mov	r1, r6
 1685 010e 3046     		mov	r0, r6
 1686 0110 FFF7FEFF 		bl	_lv_area_intersect
 1687 0114 0028     		cmp	r0, #0
 1688 0116 D9D1     		bne	.L166
 1689 0118 0746     		mov	r7, r0
 1690 011a 7BE7     		b	.L161
 1691              	.L173:
 1692 011c 0127     		movs	r7, #1
 1693 011e 79E7     		b	.L161
 1695              		.section	.text.lv_obj_invalidate_area,"ax",%progbits
 1696              		.align	1
 1697              		.global	lv_obj_invalidate_area
 1698              		.syntax unified
 1699              		.thumb
 1700              		.thumb_func
 1702              	lv_obj_invalidate_area:
 1703              		@ args = 0, pretend = 0, frame = 8
 1704              		@ frame_needed = 0, uses_anonymous_args = 0
 1705 0000 30B5     		push	{r4, r5, lr}
 1706 0002 83B0     		sub	sp, sp, #12
 1707 0004 0546     		mov	r5, r0
 1708 0006 0C46     		mov	r4, r1
 1709 0008 FFF7FEFF 		bl	lv_obj_get_disp
 1710 000c FFF7FEFF 		bl	lv_disp_is_invalidation_enabled
 1711 0010 08B9     		cbnz	r0, .L178
 1712              	.L174:
 1713 0012 03B0     		add	sp, sp, #12
 1714              		@ sp needed
 1715 0014 30BD     		pop	{r4, r5, pc}
 1716              	.L178:
 1717 0016 B4F90030 		ldrsh	r3, [r4]
 1718 001a ADF80030 		strh	r3, [sp]	@ movhi
 1719 001e B4F90230 		ldrsh	r3, [r4, #2]
 1720 0022 ADF80230 		strh	r3, [sp, #2]	@ movhi
 1721 0026 B4F90430 		ldrsh	r3, [r4, #4]
 1722 002a ADF80430 		strh	r3, [sp, #4]	@ movhi
 1723 002e B4F90630 		ldrsh	r3, [r4, #6]
 1724 0032 ADF80630 		strh	r3, [sp, #6]	@ movhi
 1725 0036 6946     		mov	r1, sp
 1726 0038 2846     		mov	r0, r5
ARM GAS  /var/folders/lp/x54gwt890xv47sdkqj1k04q40000gn/T//ccAKDLQh.s 			page 30


 1727 003a FFF7FEFF 		bl	lv_obj_area_is_visible
 1728 003e 0028     		cmp	r0, #0
 1729 0040 E7D0     		beq	.L174
 1730 0042 2846     		mov	r0, r5
 1731 0044 FFF7FEFF 		bl	lv_obj_get_disp
 1732 0048 6946     		mov	r1, sp
 1733 004a FFF7FEFF 		bl	_lv_inv_area
 1734 004e E0E7     		b	.L174
 1736              		.section	.text.lv_obj_invalidate,"ax",%progbits
 1737              		.align	1
 1738              		.global	lv_obj_invalidate
 1739              		.syntax unified
 1740              		.thumb
 1741              		.thumb_func
 1743              	lv_obj_invalidate:
 1744              		@ args = 0, pretend = 0, frame = 8
 1745              		@ frame_needed = 0, uses_anonymous_args = 0
 1746 0000 10B5     		push	{r4, lr}
 1747 0002 82B0     		sub	sp, sp, #8
 1748 0004 0446     		mov	r4, r0
 1749 0006 FFF7FEFF 		bl	_lv_obj_get_ext_draw_size
 1750 000a B4F91420 		ldrsh	r2, [r4, #20]
 1751 000e ADF80020 		strh	r2, [sp]	@ movhi
 1752 0012 B4F91630 		ldrsh	r3, [r4, #22]
 1753 0016 ADF80230 		strh	r3, [sp, #2]	@ movhi
 1754 001a B4F918C0 		ldrsh	ip, [r4, #24]
 1755 001e ADF804C0 		strh	ip, [sp, #4]	@ movhi
 1756 0022 B4F91A10 		ldrsh	r1, [r4, #26]
 1757 0026 ADF80610 		strh	r1, [sp, #6]	@ movhi
 1758 002a 92B2     		uxth	r2, r2
 1759 002c 80B2     		uxth	r0, r0
 1760 002e 121A     		subs	r2, r2, r0
 1761 0030 ADF80020 		strh	r2, [sp]	@ movhi
 1762 0034 9BB2     		uxth	r3, r3
 1763 0036 1B1A     		subs	r3, r3, r0
 1764 0038 ADF80230 		strh	r3, [sp, #2]	@ movhi
 1765 003c 10FA8CFC 		uxtah	ip, r0, ip
 1766 0040 ADF804C0 		strh	ip, [sp, #4]	@ movhi
 1767 0044 10FA81F1 		uxtah	r1, r0, r1
 1768 0048 ADF80610 		strh	r1, [sp, #6]	@ movhi
 1769 004c 6946     		mov	r1, sp
 1770 004e 2046     		mov	r0, r4
 1771 0050 FFF7FEFF 		bl	lv_obj_invalidate_area
 1772 0054 02B0     		add	sp, sp, #8
 1773              		@ sp needed
 1774 0056 10BD     		pop	{r4, pc}
 1776              		.section	.text.lv_obj_move_to,"ax",%progbits
 1777              		.align	1
 1778              		.global	lv_obj_move_to
 1779              		.syntax unified
 1780              		.thumb
 1781              		.thumb_func
 1783              	lv_obj_move_to:
 1784              		@ args = 0, pretend = 0, frame = 24
 1785              		@ frame_needed = 0, uses_anonymous_args = 0
 1786 0000 2DE9F04F 		push	{r4, r5, r6, r7, r8, r9, r10, fp, lr}
 1787 0004 87B0     		sub	sp, sp, #28
ARM GAS  /var/folders/lp/x54gwt890xv47sdkqj1k04q40000gn/T//ccAKDLQh.s 			page 31


 1788 0006 0446     		mov	r4, r0
 1789 0008 0D46     		mov	r5, r1
 1790 000a 1646     		mov	r6, r2
 1791 000c 4768     		ldr	r7, [r0, #4]
 1792 000e 6FB3     		cbz	r7, .L182
 1793 0010 1222     		movs	r2, #18
 1794 0012 0021     		movs	r1, #0
 1795 0014 3846     		mov	r0, r7
 1796 0016 FFF7FEFF 		bl	lv_obj_get_style_prop
 1797 001a 8246     		mov	r10, r0
 1798 001c 0FFA80FB 		sxth	fp, r0
 1799 0020 1022     		movs	r2, #16
 1800 0022 0021     		movs	r1, #0
 1801 0024 3846     		mov	r0, r7
 1802 0026 FFF7FEFF 		bl	lv_obj_get_style_prop
 1803 002a 8146     		mov	r9, r0
 1804 002c 0FFA80F8 		sxth	r8, r0
 1805 0030 4FF48021 		mov	r1, #262144
 1806 0034 2046     		mov	r0, r4
 1807 0036 FFF7FEFF 		bl	lv_obj_has_flag
 1808 003a 0028     		cmp	r0, #0
 1809 003c 3ED0     		beq	.L183
 1810 003e BB8A     		ldrh	r3, [r7, #20]
 1811 0040 5344     		add	r3, r3, r10
 1812 0042 15FA83F3 		uxtah	r3, r5, r3
 1813 0046 1DB2     		sxth	r5, r3
 1814 0048 B7F81680 		ldrh	r8, [r7, #22]
 1815 004c C844     		add	r8, r8, r9
 1816 004e 16FA88F8 		uxtah	r8, r6, r8
 1817 0052 0FFA88F8 		sxth	r8, r8
 1818              	.L184:
 1819 0056 3222     		movs	r2, #50
 1820 0058 0021     		movs	r1, #0
 1821 005a 3846     		mov	r0, r7
 1822 005c FFF7FEFF 		bl	lv_obj_get_style_prop
 1823 0060 80B2     		uxth	r0, r0
 1824 0062 0544     		add	r5, r5, r0
 1825 0064 2DB2     		sxth	r5, r5
 1826 0066 00EB0802 		add	r2, r0, r8
 1827 006a 16B2     		sxth	r6, r2
 1828              	.L182:
 1829 006c A38A     		ldrh	r3, [r4, #20]
 1830 006e ED1A     		subs	r5, r5, r3
 1831 0070 1FFA85F8 		uxth	r8, r5
 1832 0074 2DB2     		sxth	r5, r5
 1833 0076 ADF81450 		strh	r5, [sp, #20]	@ movhi
 1834 007a E38A     		ldrh	r3, [r4, #22]
 1835 007c F21A     		subs	r2, r6, r3
 1836 007e 1FFA82F9 		uxth	r9, r2
 1837 0082 16B2     		sxth	r6, r2
 1838 0084 ADF81660 		strh	r6, [sp, #22]	@ movhi
 1839 0088 0DB9     		cbnz	r5, .L185
 1840 008a 002E     		cmp	r6, #0
 1841 008c 5AD0     		beq	.L181
 1842              	.L185:
 1843 008e 2046     		mov	r0, r4
 1844 0090 FFF7FEFF 		bl	lv_obj_invalidate
ARM GAS  /var/folders/lp/x54gwt890xv47sdkqj1k04q40000gn/T//ccAKDLQh.s 			page 32


 1845 0094 03A9     		add	r1, sp, #12
 1846 0096 2046     		mov	r0, r4
 1847 0098 FFF7FEFF 		bl	lv_obj_get_coords
 1848 009c 2FB3     		cbz	r7, .L191
 1849 009e 01A9     		add	r1, sp, #4
 1850 00a0 3846     		mov	r0, r7
 1851 00a2 FFF7FEFF 		bl	lv_obj_get_content_coords
 1852 00a6 0022     		movs	r2, #0
 1853 00a8 01A9     		add	r1, sp, #4
 1854 00aa 03A8     		add	r0, sp, #12
 1855 00ac FFF7FEFF 		bl	_lv_area_is_in
 1856 00b0 8246     		mov	r10, r0
 1857 00b2 E0B9     		cbnz	r0, .L187
 1858 00b4 3846     		mov	r0, r7
 1859 00b6 FFF7FEFF 		bl	lv_obj_scrollbar_invalidate
 1860 00ba 18E0     		b	.L187
 1861              	.L183:
 1862 00bc B7F91430 		ldrsh	r3, [r7, #20]
 1863 00c0 9B44     		add	fp, fp, r3
 1864 00c2 3846     		mov	r0, r7
 1865 00c4 FFF7FEFF 		bl	lv_obj_get_scroll_x
 1866 00c8 ABEB000B 		sub	fp, fp, r0
 1867 00cc AB44     		add	fp, fp, r5
 1868 00ce 0FFA8BF5 		sxth	r5, fp
 1869 00d2 B7F91630 		ldrsh	r3, [r7, #22]
 1870 00d6 9844     		add	r8, r8, r3
 1871 00d8 3846     		mov	r0, r7
 1872 00da FFF7FEFF 		bl	lv_obj_get_scroll_y
 1873 00de A8EB0008 		sub	r8, r8, r0
 1874 00e2 B044     		add	r8, r8, r6
 1875 00e4 0FFA88F8 		sxth	r8, r8
 1876 00e8 B5E7     		b	.L184
 1877              	.L191:
 1878 00ea 4FF0000A 		mov	r10, #0
 1879              	.L187:
 1880 00ee A38A     		ldrh	r3, [r4, #20]
 1881 00f0 4344     		add	r3, r3, r8
 1882 00f2 A382     		strh	r3, [r4, #20]	@ movhi
 1883 00f4 E38A     		ldrh	r3, [r4, #22]
 1884 00f6 4B44     		add	r3, r3, r9
 1885 00f8 E382     		strh	r3, [r4, #22]	@ movhi
 1886 00fa 238B     		ldrh	r3, [r4, #24]
 1887 00fc 9844     		add	r8, r8, r3
 1888 00fe A4F81880 		strh	r8, [r4, #24]	@ movhi
 1889 0102 638B     		ldrh	r3, [r4, #26]
 1890 0104 9944     		add	r9, r9, r3
 1891 0106 A4F81A90 		strh	r9, [r4, #26]	@ movhi
 1892 010a 0023     		movs	r3, #0
 1893 010c 3246     		mov	r2, r6
 1894 010e 2946     		mov	r1, r5
 1895 0110 2046     		mov	r0, r4
 1896 0112 FFF7FEFF 		bl	lv_obj_move_children_by
 1897 0116 27B1     		cbz	r7, .L188
 1898 0118 2246     		mov	r2, r4
 1899 011a 2221     		movs	r1, #34
 1900 011c 3846     		mov	r0, r7
 1901 011e FFF7FEFF 		bl	lv_event_send
ARM GAS  /var/folders/lp/x54gwt890xv47sdkqj1k04q40000gn/T//ccAKDLQh.s 			page 33


 1902              	.L188:
 1903 0122 2046     		mov	r0, r4
 1904 0124 FFF7FEFF 		bl	lv_obj_invalidate
 1905 0128 67B1     		cbz	r7, .L181
 1906 012a 0022     		movs	r2, #0
 1907 012c 01A9     		add	r1, sp, #4
 1908 012e 04F11400 		add	r0, r4, #20
 1909 0132 FFF7FEFF 		bl	_lv_area_is_in
 1910 0136 BAF1000F 		cmp	r10, #0
 1911 013a 00D1     		bne	.L190
 1912 013c 10B1     		cbz	r0, .L181
 1913              	.L190:
 1914 013e 3846     		mov	r0, r7
 1915 0140 FFF7FEFF 		bl	lv_obj_scrollbar_invalidate
 1916              	.L181:
 1917 0144 07B0     		add	sp, sp, #28
 1918              		@ sp needed
 1919 0146 BDE8F08F 		pop	{r4, r5, r6, r7, r8, r9, r10, fp, pc}
 1921              		.section	.text.lv_obj_refr_pos,"ax",%progbits
 1922              		.align	1
 1923              		.global	lv_obj_refr_pos
 1924              		.syntax unified
 1925              		.thumb
 1926              		.thumb_func
 1928              	lv_obj_refr_pos:
 1929              		@ args = 0, pretend = 0, frame = 16
 1930              		@ frame_needed = 0, uses_anonymous_args = 0
 1931 0000 2DE9F04F 		push	{r4, r5, r6, r7, r8, r9, r10, fp, lr}
 1932 0004 85B0     		sub	sp, sp, #20
 1933 0006 0446     		mov	r4, r0
 1934 0008 FFF7FEFF 		bl	lv_obj_is_layout_positioned
 1935 000c 10B1     		cbz	r0, .L224
 1936              	.L193:
 1937 000e 05B0     		add	sp, sp, #20
 1938              		@ sp needed
 1939 0010 BDE8F08F 		pop	{r4, r5, r6, r7, r8, r9, r10, fp, pc}
 1940              	.L224:
 1941 0014 2046     		mov	r0, r4
 1942 0016 FFF7FEFF 		bl	lv_obj_get_parent
 1943 001a 0746     		mov	r7, r0
 1944 001c 0722     		movs	r2, #7
 1945 001e 0021     		movs	r1, #0
 1946 0020 2046     		mov	r0, r4
 1947 0022 FFF7FEFF 		bl	lv_obj_get_style_prop
 1948 0026 8146     		mov	r9, r0
 1949 0028 05B2     		sxth	r5, r0
 1950 002a 0822     		movs	r2, #8
 1951 002c 0021     		movs	r1, #0
 1952 002e 2046     		mov	r0, r4
 1953 0030 FFF7FEFF 		bl	lv_obj_get_style_prop
 1954 0034 8046     		mov	r8, r0
 1955 0036 06B2     		sxth	r6, r0
 1956 0038 002F     		cmp	r7, #0
 1957 003a 4ED0     		beq	.L225
 1958 003c 3846     		mov	r0, r7
 1959 003e FFF7FEFF 		bl	lv_obj_get_content_width
 1960 0042 0090     		str	r0, [sp]
ARM GAS  /var/folders/lp/x54gwt890xv47sdkqj1k04q40000gn/T//ccAKDLQh.s 			page 34


 1961 0044 3846     		mov	r0, r7
 1962 0046 FFF7FEFF 		bl	lv_obj_get_content_height
 1963 004a 0190     		str	r0, [sp, #4]
 1964 004c 09F4C049 		and	r9, r9, #24576
 1965 0050 B9F5005F 		cmp	r9, #8192
 1966 0054 47D0     		beq	.L226
 1967              	.L196:
 1968 0056 08F4C048 		and	r8, r8, #24576
 1969 005a B8F5005F 		cmp	r8, #8192
 1970 005e 57D0     		beq	.L227
 1971              	.L199:
 1972 0060 6B22     		movs	r2, #107
 1973 0062 0021     		movs	r1, #0
 1974 0064 2046     		mov	r0, r4
 1975 0066 FFF7FEFF 		bl	lv_obj_get_style_prop
 1976 006a 8146     		mov	r9, r0
 1977 006c 0FFA80FB 		sxth	fp, r0
 1978 0070 6C22     		movs	r2, #108
 1979 0072 0021     		movs	r1, #0
 1980 0074 2046     		mov	r0, r4
 1981 0076 FFF7FEFF 		bl	lv_obj_get_style_prop
 1982 007a 8046     		mov	r8, r0
 1983 007c 0FFA80FA 		sxth	r10, r0
 1984 0080 2046     		mov	r0, r4
 1985 0082 FFF7FEFF 		bl	lv_obj_get_width
 1986 0086 0290     		str	r0, [sp, #8]
 1987 0088 2046     		mov	r0, r4
 1988 008a FFF7FEFF 		bl	lv_obj_get_height
 1989 008e 0390     		str	r0, [sp, #12]
 1990 0090 09F4C049 		and	r9, r9, #24576
 1991 0094 B9F5005F 		cmp	r9, #8192
 1992 0098 4FD0     		beq	.L228
 1993              	.L202:
 1994 009a 08F4C048 		and	r8, r8, #24576
 1995 009e B8F5005F 		cmp	r8, #8192
 1996 00a2 60D0     		beq	.L229
 1997              	.L205:
 1998 00a4 5D44     		add	r5, r5, fp
 1999 00a6 1FFA85F8 		uxth	r8, r5
 2000 00aa 2DB2     		sxth	r5, r5
 2001 00ac 5644     		add	r6, r6, r10
 2002 00ae 1FFA86F9 		uxth	r9, r6
 2003 00b2 36B2     		sxth	r6, r6
 2004 00b4 0922     		movs	r2, #9
 2005 00b6 0021     		movs	r1, #0
 2006 00b8 2046     		mov	r0, r4
 2007 00ba FFF7FEFF 		bl	lv_obj_get_style_prop
 2008 00be 10F0FF00 		ands	r0, r0, #255
 2009 00c2 66D0     		beq	.L230
 2010 00c4 0128     		cmp	r0, #1
 2011 00c6 6CD0     		beq	.L210
 2012              	.L209:
 2013 00c8 0238     		subs	r0, r0, #2
 2014 00ca 0728     		cmp	r0, #7
 2015 00cc 7DD8     		bhi	.L211
 2016 00ce DFE800F0 		tbb	[pc, r0]
 2017              	.L213:
ARM GAS  /var/folders/lp/x54gwt890xv47sdkqj1k04q40000gn/T//ccAKDLQh.s 			page 35


 2018 00d2 70       		.byte	(.L220-.L213)/2
 2019 00d3 82       		.byte	(.L219-.L213)/2
 2020 00d4 96       		.byte	(.L218-.L213)/2
 2021 00d5 9D       		.byte	(.L217-.L213)/2
 2022 00d6 B0       		.byte	(.L216-.L213)/2
 2023 00d7 89       		.byte	(.L215-.L213)/2
 2024 00d8 BD       		.byte	(.L214-.L213)/2
 2025 00d9 D0       		.byte	(.L212-.L213)/2
 2026              		.p2align 1
 2027              	.L225:
 2028 00da 3246     		mov	r2, r6
 2029 00dc 2946     		mov	r1, r5
 2030 00de 2046     		mov	r0, r4
 2031 00e0 FFF7FEFF 		bl	lv_obj_move_to
 2032 00e4 93E7     		b	.L193
 2033              	.L226:
 2034 00e6 25F4C043 		bic	r3, r5, #24576
 2035 00ea B3F5FA6F 		cmp	r3, #2000
 2036 00ee B2DC     		bgt	.L196
 2037 00f0 B3F57A7F 		cmp	r3, #1000
 2038 00f4 01DD     		ble	.L198
 2039 00f6 C3F57A73 		rsb	r3, r3, #1000
 2040              	.L198:
 2041 00fa 009A     		ldr	r2, [sp]
 2042 00fc 02FB03F3 		mul	r3, r2, r3
 2043 0100 684A     		ldr	r2, .L232
 2044 0102 82FB0312 		smull	r1, r2, r2, r3
 2045 0106 DB17     		asrs	r3, r3, #31
 2046 0108 C3EB6213 		rsb	r3, r3, r2, asr #5
 2047 010c 1DB2     		sxth	r5, r3
 2048 010e A2E7     		b	.L196
 2049              	.L227:
 2050 0110 26F4C043 		bic	r3, r6, #24576
 2051 0114 B3F5FA6F 		cmp	r3, #2000
 2052 0118 A2DC     		bgt	.L199
 2053 011a B3F57A7F 		cmp	r3, #1000
 2054 011e 01DD     		ble	.L201
 2055 0120 C3F57A73 		rsb	r3, r3, #1000
 2056              	.L201:
 2057 0124 019A     		ldr	r2, [sp, #4]
 2058 0126 02FB03F3 		mul	r3, r2, r3
 2059 012a 5E4A     		ldr	r2, .L232
 2060 012c 82FB0312 		smull	r1, r2, r2, r3
 2061 0130 DB17     		asrs	r3, r3, #31
 2062 0132 C3EB6213 		rsb	r3, r3, r2, asr #5
 2063 0136 1EB2     		sxth	r6, r3
 2064 0138 92E7     		b	.L199
 2065              	.L228:
 2066 013a 2BF4C043 		bic	r3, fp, #24576
 2067 013e B3F5FA6F 		cmp	r3, #2000
 2068 0142 AADC     		bgt	.L202
 2069 0144 B3F57A7F 		cmp	r3, #1000
 2070 0148 01DD     		ble	.L204
 2071 014a C3F57A73 		rsb	r3, r3, #1000
 2072              	.L204:
 2073 014e 029A     		ldr	r2, [sp, #8]
 2074 0150 02FB03F3 		mul	r3, r2, r3
ARM GAS  /var/folders/lp/x54gwt890xv47sdkqj1k04q40000gn/T//ccAKDLQh.s 			page 36


 2075 0154 534A     		ldr	r2, .L232
 2076 0156 82FB0312 		smull	r1, r2, r2, r3
 2077 015a DB17     		asrs	r3, r3, #31
 2078 015c C3EB6213 		rsb	r3, r3, r2, asr #5
 2079 0160 0FFA83FB 		sxth	fp, r3
 2080 0164 99E7     		b	.L202
 2081              	.L229:
 2082 0166 2AF4C043 		bic	r3, r10, #24576
 2083 016a B3F5FA6F 		cmp	r3, #2000
 2084 016e 99DC     		bgt	.L205
 2085 0170 B3F57A7F 		cmp	r3, #1000
 2086 0174 01DD     		ble	.L207
 2087 0176 C3F57A73 		rsb	r3, r3, #1000
 2088              	.L207:
 2089 017a 039A     		ldr	r2, [sp, #12]
 2090 017c 02FB03F3 		mul	r3, r2, r3
 2091 0180 484A     		ldr	r2, .L232
 2092 0182 82FB0312 		smull	r1, r2, r2, r3
 2093 0186 DB17     		asrs	r3, r3, #31
 2094 0188 C3EB6213 		rsb	r3, r3, r2, asr #5
 2095 018c 0FFA83FA 		sxth	r10, r3
 2096 0190 88E7     		b	.L205
 2097              	.L230:
 2098 0192 1622     		movs	r2, #22
 2099 0194 0021     		movs	r1, #0
 2100 0196 3846     		mov	r0, r7
 2101 0198 FFF7FEFF 		bl	lv_obj_get_style_prop
 2102 019c C0B2     		uxtb	r0, r0
 2103 019e 0128     		cmp	r0, #1
 2104 01a0 05D0     		beq	.L231
 2105              	.L210:
 2106 01a2 3246     		mov	r2, r6
 2107 01a4 2946     		mov	r1, r5
 2108 01a6 2046     		mov	r0, r4
 2109 01a8 FFF7FEFF 		bl	lv_obj_move_to
 2110 01ac 2FE7     		b	.L193
 2111              	.L231:
 2112 01ae 0320     		movs	r0, #3
 2113 01b0 8AE7     		b	.L209
 2114              	.L220:
 2115 01b2 009B     		ldr	r3, [sp]
 2116 01b4 03EBD373 		add	r3, r3, r3, lsr #31
 2117 01b8 029A     		ldr	r2, [sp, #8]
 2118 01ba 02EBD275 		add	r5, r2, r2, lsr #31
 2119 01be 6D10     		asrs	r5, r5, #1
 2120 01c0 C5EB6305 		rsb	r5, r5, r3, asr #1
 2121 01c4 18FA85F5 		uxtah	r5, r8, r5
 2122 01c8 2DB2     		sxth	r5, r5
 2123              	.L211:
 2124 01ca 3246     		mov	r2, r6
 2125 01cc 2946     		mov	r1, r5
 2126 01ce 2046     		mov	r0, r4
 2127 01d0 FFF7FEFF 		bl	lv_obj_move_to
 2128 01d4 1BE7     		b	.L193
 2129              	.L219:
 2130 01d6 009B     		ldr	r3, [sp]
 2131 01d8 029A     		ldr	r2, [sp, #8]
ARM GAS  /var/folders/lp/x54gwt890xv47sdkqj1k04q40000gn/T//ccAKDLQh.s 			page 37


 2132 01da 9D1A     		subs	r5, r3, r2
 2133 01dc 18FA85F5 		uxtah	r5, r8, r5
 2134 01e0 2DB2     		sxth	r5, r5
 2135 01e2 F2E7     		b	.L211
 2136              	.L215:
 2137 01e4 019B     		ldr	r3, [sp, #4]
 2138 01e6 03EBD373 		add	r3, r3, r3, lsr #31
 2139 01ea 039A     		ldr	r2, [sp, #12]
 2140 01ec 02EBD276 		add	r6, r2, r2, lsr #31
 2141 01f0 7610     		asrs	r6, r6, #1
 2142 01f2 C6EB6306 		rsb	r6, r6, r3, asr #1
 2143 01f6 19FA86F6 		uxtah	r6, r9, r6
 2144 01fa 36B2     		sxth	r6, r6
 2145 01fc E5E7     		b	.L211
 2146              	.L218:
 2147 01fe 019B     		ldr	r3, [sp, #4]
 2148 0200 039A     		ldr	r2, [sp, #12]
 2149 0202 9E1A     		subs	r6, r3, r2
 2150 0204 19FA86F6 		uxtah	r6, r9, r6
 2151 0208 36B2     		sxth	r6, r6
 2152 020a DEE7     		b	.L211
 2153              	.L217:
 2154 020c 009B     		ldr	r3, [sp]
 2155 020e 03EBD373 		add	r3, r3, r3, lsr #31
 2156 0212 029A     		ldr	r2, [sp, #8]
 2157 0214 02EBD275 		add	r5, r2, r2, lsr #31
 2158 0218 6D10     		asrs	r5, r5, #1
 2159 021a C5EB6305 		rsb	r5, r5, r3, asr #1
 2160 021e 18FA85F5 		uxtah	r5, r8, r5
 2161 0222 2DB2     		sxth	r5, r5
 2162 0224 019B     		ldr	r3, [sp, #4]
 2163 0226 039A     		ldr	r2, [sp, #12]
 2164 0228 9E1A     		subs	r6, r3, r2
 2165 022a 19FA86F6 		uxtah	r6, r9, r6
 2166 022e 36B2     		sxth	r6, r6
 2167 0230 CBE7     		b	.L211
 2168              	.L216:
 2169 0232 009B     		ldr	r3, [sp]
 2170 0234 029A     		ldr	r2, [sp, #8]
 2171 0236 9D1A     		subs	r5, r3, r2
 2172 0238 18FA85F5 		uxtah	r5, r8, r5
 2173 023c 2DB2     		sxth	r5, r5
 2174 023e 019B     		ldr	r3, [sp, #4]
 2175 0240 039A     		ldr	r2, [sp, #12]
 2176 0242 9E1A     		subs	r6, r3, r2
 2177 0244 19FA86F6 		uxtah	r6, r9, r6
 2178 0248 36B2     		sxth	r6, r6
 2179 024a BEE7     		b	.L211
 2180              	.L214:
 2181 024c 009B     		ldr	r3, [sp]
 2182 024e 029A     		ldr	r2, [sp, #8]
 2183 0250 9D1A     		subs	r5, r3, r2
 2184 0252 18FA85F5 		uxtah	r5, r8, r5
 2185 0256 2DB2     		sxth	r5, r5
 2186 0258 019B     		ldr	r3, [sp, #4]
 2187 025a 03EBD373 		add	r3, r3, r3, lsr #31
 2188 025e 039A     		ldr	r2, [sp, #12]
ARM GAS  /var/folders/lp/x54gwt890xv47sdkqj1k04q40000gn/T//ccAKDLQh.s 			page 38


 2189 0260 02EBD276 		add	r6, r2, r2, lsr #31
 2190 0264 7610     		asrs	r6, r6, #1
 2191 0266 C6EB6306 		rsb	r6, r6, r3, asr #1
 2192 026a 19FA86F6 		uxtah	r6, r9, r6
 2193 026e 36B2     		sxth	r6, r6
 2194 0270 ABE7     		b	.L211
 2195              	.L212:
 2196 0272 009B     		ldr	r3, [sp]
 2197 0274 03EBD372 		add	r2, r3, r3, lsr #31
 2198 0278 029B     		ldr	r3, [sp, #8]
 2199 027a 03EBD373 		add	r3, r3, r3, lsr #31
 2200 027e 5B10     		asrs	r3, r3, #1
 2201 0280 C3EB6203 		rsb	r3, r3, r2, asr #1
 2202 0284 18FA83F3 		uxtah	r3, r8, r3
 2203 0288 1DB2     		sxth	r5, r3
 2204 028a 019B     		ldr	r3, [sp, #4]
 2205 028c 03EBD372 		add	r2, r3, r3, lsr #31
 2206 0290 039B     		ldr	r3, [sp, #12]
 2207 0292 03EBD373 		add	r3, r3, r3, lsr #31
 2208 0296 5B10     		asrs	r3, r3, #1
 2209 0298 C3EB6203 		rsb	r3, r3, r2, asr #1
 2210 029c 19FA83F3 		uxtah	r3, r9, r3
 2211 02a0 1EB2     		sxth	r6, r3
 2212 02a2 92E7     		b	.L211
 2213              	.L233:
 2214              		.align	2
 2215              	.L232:
 2216 02a4 1F85EB51 		.word	1374389535
 2218              		.section	.text.lv_obj_is_visible,"ax",%progbits
 2219              		.align	1
 2220              		.global	lv_obj_is_visible
 2221              		.syntax unified
 2222              		.thumb
 2223              		.thumb_func
 2225              	lv_obj_is_visible:
 2226              		@ args = 0, pretend = 0, frame = 8
 2227              		@ frame_needed = 0, uses_anonymous_args = 0
 2228 0000 10B5     		push	{r4, lr}
 2229 0002 82B0     		sub	sp, sp, #8
 2230 0004 0446     		mov	r4, r0
 2231 0006 FFF7FEFF 		bl	_lv_obj_get_ext_draw_size
 2232 000a B4F91420 		ldrsh	r2, [r4, #20]
 2233 000e ADF80020 		strh	r2, [sp]	@ movhi
 2234 0012 B4F91630 		ldrsh	r3, [r4, #22]
 2235 0016 ADF80230 		strh	r3, [sp, #2]	@ movhi
 2236 001a B4F918C0 		ldrsh	ip, [r4, #24]
 2237 001e ADF804C0 		strh	ip, [sp, #4]	@ movhi
 2238 0022 B4F91A10 		ldrsh	r1, [r4, #26]
 2239 0026 ADF80610 		strh	r1, [sp, #6]	@ movhi
 2240 002a 92B2     		uxth	r2, r2
 2241 002c 80B2     		uxth	r0, r0
 2242 002e 121A     		subs	r2, r2, r0
 2243 0030 ADF80020 		strh	r2, [sp]	@ movhi
 2244 0034 9BB2     		uxth	r3, r3
 2245 0036 1B1A     		subs	r3, r3, r0
 2246 0038 ADF80230 		strh	r3, [sp, #2]	@ movhi
 2247 003c 10FA8CFC 		uxtah	ip, r0, ip
ARM GAS  /var/folders/lp/x54gwt890xv47sdkqj1k04q40000gn/T//ccAKDLQh.s 			page 39


 2248 0040 ADF804C0 		strh	ip, [sp, #4]	@ movhi
 2249 0044 10FA81F1 		uxtah	r1, r0, r1
 2250 0048 ADF80610 		strh	r1, [sp, #6]	@ movhi
 2251 004c 6946     		mov	r1, sp
 2252 004e 2046     		mov	r0, r4
 2253 0050 FFF7FEFF 		bl	lv_obj_area_is_visible
 2254 0054 02B0     		add	sp, sp, #8
 2255              		@ sp needed
 2256 0056 10BD     		pop	{r4, pc}
 2258              		.section	.text.lv_obj_set_ext_click_area,"ax",%progbits
 2259              		.align	1
 2260              		.global	lv_obj_set_ext_click_area
 2261              		.syntax unified
 2262              		.thumb
 2263              		.thumb_func
 2265              	lv_obj_set_ext_click_area:
 2266              		@ args = 0, pretend = 0, frame = 0
 2267              		@ frame_needed = 0, uses_anonymous_args = 0
 2268 0000 38B5     		push	{r3, r4, r5, lr}
 2269 0002 0546     		mov	r5, r0
 2270 0004 0C46     		mov	r4, r1
 2271 0006 FFF7FEFF 		bl	lv_obj_allocate_spec_attr
 2272 000a AB68     		ldr	r3, [r5, #8]
 2273 000c 9C82     		strh	r4, [r3, #20]	@ movhi
 2274 000e 38BD     		pop	{r3, r4, r5, pc}
 2276              		.section	.text.lv_obj_get_click_area,"ax",%progbits
 2277              		.align	1
 2278              		.global	lv_obj_get_click_area
 2279              		.syntax unified
 2280              		.thumb
 2281              		.thumb_func
 2283              	lv_obj_get_click_area:
 2284              		@ args = 0, pretend = 0, frame = 0
 2285              		@ frame_needed = 0, uses_anonymous_args = 0
 2286 0000 10B5     		push	{r4, lr}
 2287 0002 B0F91420 		ldrsh	r2, [r0, #20]
 2288 0006 0A80     		strh	r2, [r1]	@ movhi
 2289 0008 B0F91630 		ldrsh	r3, [r0, #22]
 2290 000c 4B80     		strh	r3, [r1, #2]	@ movhi
 2291 000e B0F918E0 		ldrsh	lr, [r0, #24]
 2292 0012 A1F804E0 		strh	lr, [r1, #4]	@ movhi
 2293 0016 B0F91AC0 		ldrsh	ip, [r0, #26]
 2294 001a A1F806C0 		strh	ip, [r1, #6]	@ movhi
 2295 001e 8468     		ldr	r4, [r0, #8]
 2296 0020 A4B1     		cbz	r4, .L238
 2297 0022 92B2     		uxth	r2, r2
 2298 0024 A48A     		ldrh	r4, [r4, #20]
 2299 0026 121B     		subs	r2, r2, r4
 2300 0028 0A80     		strh	r2, [r1]	@ movhi
 2301 002a 8268     		ldr	r2, [r0, #8]
 2302 002c 928A     		ldrh	r2, [r2, #20]
 2303 002e 12FA8EFE 		uxtah	lr, r2, lr
 2304 0032 A1F804E0 		strh	lr, [r1, #4]	@ movhi
 2305 0036 9BB2     		uxth	r3, r3
 2306 0038 8268     		ldr	r2, [r0, #8]
 2307 003a 928A     		ldrh	r2, [r2, #20]
 2308 003c 9B1A     		subs	r3, r3, r2
ARM GAS  /var/folders/lp/x54gwt890xv47sdkqj1k04q40000gn/T//ccAKDLQh.s 			page 40


 2309 003e 4B80     		strh	r3, [r1, #2]	@ movhi
 2310 0040 8368     		ldr	r3, [r0, #8]
 2311 0042 9B8A     		ldrh	r3, [r3, #20]
 2312 0044 13FA8CFC 		uxtah	ip, r3, ip
 2313 0048 A1F806C0 		strh	ip, [r1, #6]	@ movhi
 2314              	.L238:
 2315 004c 10BD     		pop	{r4, pc}
 2317              		.section	.text.lv_obj_hit_test,"ax",%progbits
 2318              		.align	1
 2319              		.global	lv_obj_hit_test
 2320              		.syntax unified
 2321              		.thumb
 2322              		.thumb_func
 2324              	lv_obj_hit_test:
 2325              		@ args = 0, pretend = 0, frame = 16
 2326              		@ frame_needed = 0, uses_anonymous_args = 0
 2327 0000 70B5     		push	{r4, r5, r6, lr}
 2328 0002 84B0     		sub	sp, sp, #16
 2329 0004 0646     		mov	r6, r0
 2330 0006 0C46     		mov	r4, r1
 2331 0008 0221     		movs	r1, #2
 2332 000a FFF7FEFF 		bl	lv_obj_has_flag
 2333 000e 0546     		mov	r5, r0
 2334 0010 10B9     		cbnz	r0, .L245
 2335              	.L242:
 2336 0012 2846     		mov	r0, r5
 2337 0014 04B0     		add	sp, sp, #16
 2338              		@ sp needed
 2339 0016 70BD     		pop	{r4, r5, r6, pc}
 2340              	.L245:
 2341 0018 8021     		movs	r1, #128
 2342 001a 3046     		mov	r0, r6
 2343 001c FFF7FEFF 		bl	lv_obj_has_state
 2344 0020 08B1     		cbz	r0, .L246
 2345 0022 0025     		movs	r5, #0
 2346 0024 F5E7     		b	.L242
 2347              	.L246:
 2348 0026 02A9     		add	r1, sp, #8
 2349 0028 3046     		mov	r0, r6
 2350 002a FFF7FEFF 		bl	lv_obj_get_click_area
 2351 002e 0022     		movs	r2, #0
 2352 0030 2146     		mov	r1, r4
 2353 0032 02A8     		add	r0, sp, #8
 2354 0034 FFF7FEFF 		bl	_lv_area_is_point_on
 2355 0038 0546     		mov	r5, r0
 2356 003a 0028     		cmp	r0, #0
 2357 003c E9D0     		beq	.L242
 2358 003e 4FF48031 		mov	r1, #65536
 2359 0042 3046     		mov	r0, r6
 2360 0044 FFF7FEFF 		bl	lv_obj_has_flag
 2361 0048 0028     		cmp	r0, #0
 2362 004a E2D0     		beq	.L242
 2363 004c 0094     		str	r4, [sp]
 2364 004e 0123     		movs	r3, #1
 2365 0050 8DF80430 		strb	r3, [sp, #4]
 2366 0054 6A46     		mov	r2, sp
 2367 0056 1121     		movs	r1, #17
ARM GAS  /var/folders/lp/x54gwt890xv47sdkqj1k04q40000gn/T//ccAKDLQh.s 			page 41


 2368 0058 3046     		mov	r0, r6
 2369 005a FFF7FEFF 		bl	lv_event_send
 2370 005e 9DF80450 		ldrb	r5, [sp, #4]	@ zero_extendqisi2
 2371 0062 D6E7     		b	.L242
 2373              		.section	.text.lv_clamp_width,"ax",%progbits
 2374              		.align	1
 2375              		.global	lv_clamp_width
 2376              		.syntax unified
 2377              		.thumb
 2378              		.thumb_func
 2380              	lv_clamp_width:
 2381              		@ args = 0, pretend = 0, frame = 0
 2382              		@ frame_needed = 0, uses_anonymous_args = 0
 2383 0000 00B5     		push	{lr}
 2384 0002 8446     		mov	ip, r0
 2385 0004 0846     		mov	r0, r1
 2386 0006 01F4C041 		and	r1, r1, #24576
 2387 000a B1F5005F 		cmp	r1, #8192
 2388 000e 0CD0     		beq	.L255
 2389              	.L248:
 2390 0010 02F4C041 		and	r1, r2, #24576
 2391 0014 B1F5005F 		cmp	r1, #8192
 2392 0018 1BD0     		beq	.L256
 2393              	.L251:
 2394 001a 6245     		cmp	r2, ip
 2395 001c A8BF     		it	ge
 2396 001e 6246     		movge	r2, ip
 2397 0020 9042     		cmp	r0, r2
 2398 0022 B8BF     		it	lt
 2399 0024 1046     		movlt	r0, r2
 2400 0026 5DF804FB 		ldr	pc, [sp], #4
 2401              	.L255:
 2402 002a 20F4C041 		bic	r1, r0, #24576
 2403 002e B1F5FA6F 		cmp	r1, #2000
 2404 0032 EDDC     		bgt	.L248
 2405 0034 B1F57A7F 		cmp	r1, #1000
 2406 0038 01DD     		ble	.L250
 2407 003a C1F57A71 		rsb	r1, r1, #1000
 2408              	.L250:
 2409 003e 03FB01F1 		mul	r1, r3, r1
 2410 0042 0E48     		ldr	r0, .L257
 2411 0044 80FB01E0 		smull	lr, r0, r0, r1
 2412 0048 C917     		asrs	r1, r1, #31
 2413 004a C1EB6011 		rsb	r1, r1, r0, asr #5
 2414 004e 08B2     		sxth	r0, r1
 2415 0050 DEE7     		b	.L248
 2416              	.L256:
 2417 0052 22F4C041 		bic	r1, r2, #24576
 2418 0056 B1F5FA6F 		cmp	r1, #2000
 2419 005a DEDC     		bgt	.L251
 2420 005c B1F57A7F 		cmp	r1, #1000
 2421 0060 01DD     		ble	.L253
 2422 0062 C1F57A71 		rsb	r1, r1, #1000
 2423              	.L253:
 2424 0066 01FB03F3 		mul	r3, r1, r3
 2425 006a 044A     		ldr	r2, .L257
 2426 006c 82FB0312 		smull	r1, r2, r2, r3
ARM GAS  /var/folders/lp/x54gwt890xv47sdkqj1k04q40000gn/T//ccAKDLQh.s 			page 42


 2427 0070 DB17     		asrs	r3, r3, #31
 2428 0072 C3EB6213 		rsb	r3, r3, r2, asr #5
 2429 0076 1AB2     		sxth	r2, r3
 2430 0078 CFE7     		b	.L251
 2431              	.L258:
 2432 007a 00BF     		.align	2
 2433              	.L257:
 2434 007c 1F85EB51 		.word	1374389535
 2436              		.section	.text.lv_clamp_height,"ax",%progbits
 2437              		.align	1
 2438              		.global	lv_clamp_height
 2439              		.syntax unified
 2440              		.thumb
 2441              		.thumb_func
 2443              	lv_clamp_height:
 2444              		@ args = 0, pretend = 0, frame = 0
 2445              		@ frame_needed = 0, uses_anonymous_args = 0
 2446 0000 00B5     		push	{lr}
 2447 0002 8446     		mov	ip, r0
 2448 0004 0846     		mov	r0, r1
 2449 0006 01F4C041 		and	r1, r1, #24576
 2450 000a B1F5005F 		cmp	r1, #8192
 2451 000e 0CD0     		beq	.L267
 2452              	.L260:
 2453 0010 02F4C041 		and	r1, r2, #24576
 2454 0014 B1F5005F 		cmp	r1, #8192
 2455 0018 1BD0     		beq	.L268
 2456              	.L263:
 2457 001a 6245     		cmp	r2, ip
 2458 001c A8BF     		it	ge
 2459 001e 6246     		movge	r2, ip
 2460 0020 9042     		cmp	r0, r2
 2461 0022 B8BF     		it	lt
 2462 0024 1046     		movlt	r0, r2
 2463 0026 5DF804FB 		ldr	pc, [sp], #4
 2464              	.L267:
 2465 002a 20F4C041 		bic	r1, r0, #24576
 2466 002e B1F5FA6F 		cmp	r1, #2000
 2467 0032 EDDC     		bgt	.L260
 2468 0034 B1F57A7F 		cmp	r1, #1000
 2469 0038 01DD     		ble	.L262
 2470 003a C1F57A71 		rsb	r1, r1, #1000
 2471              	.L262:
 2472 003e 03FB01F1 		mul	r1, r3, r1
 2473 0042 0E48     		ldr	r0, .L269
 2474 0044 80FB01E0 		smull	lr, r0, r0, r1
 2475 0048 C917     		asrs	r1, r1, #31
 2476 004a C1EB6011 		rsb	r1, r1, r0, asr #5
 2477 004e 08B2     		sxth	r0, r1
 2478 0050 DEE7     		b	.L260
 2479              	.L268:
 2480 0052 22F4C041 		bic	r1, r2, #24576
 2481 0056 B1F5FA6F 		cmp	r1, #2000
 2482 005a DEDC     		bgt	.L263
 2483 005c B1F57A7F 		cmp	r1, #1000
 2484 0060 01DD     		ble	.L265
 2485 0062 C1F57A71 		rsb	r1, r1, #1000
ARM GAS  /var/folders/lp/x54gwt890xv47sdkqj1k04q40000gn/T//ccAKDLQh.s 			page 43


 2486              	.L265:
 2487 0066 01FB03F3 		mul	r3, r1, r3
 2488 006a 044A     		ldr	r2, .L269
 2489 006c 82FB0312 		smull	r1, r2, r2, r3
 2490 0070 DB17     		asrs	r3, r3, #31
 2491 0072 C3EB6213 		rsb	r3, r3, r2, asr #5
 2492 0076 1AB2     		sxth	r2, r3
 2493 0078 CFE7     		b	.L263
 2494              	.L270:
 2495 007a 00BF     		.align	2
 2496              	.L269:
 2497 007c 1F85EB51 		.word	1374389535
 2499              		.section	.text.lv_obj_refr_size,"ax",%progbits
 2500              		.align	1
 2501              		.global	lv_obj_refr_size
 2502              		.syntax unified
 2503              		.thumb
 2504              		.thumb_func
 2506              	lv_obj_refr_size:
 2507              		@ args = 0, pretend = 0, frame = 24
 2508              		@ frame_needed = 0, uses_anonymous_args = 0
 2509 0000 90F82330 		ldrb	r3, [r0, #35]	@ zero_extendqisi2
 2510 0004 03F00C03 		and	r3, r3, #12
 2511 0008 0C2B     		cmp	r3, #12
 2512 000a 00F09881 		beq	.L297
 2513 000e 2DE9F04F 		push	{r4, r5, r6, r7, r8, r9, r10, fp, lr}
 2514 0012 87B0     		sub	sp, sp, #28
 2515 0014 0446     		mov	r4, r0
 2516 0016 FFF7FEFF 		bl	lv_obj_get_parent
 2517 001a 0546     		mov	r5, r0
 2518 001c 0028     		cmp	r0, #0
 2519 001e 00F09081 		beq	.L298
 2520 0022 2046     		mov	r0, r4
 2521 0024 FFF7FEFF 		bl	lv_obj_get_scroll_left
 2522 0028 0090     		str	r0, [sp]
 2523 002a 94F82330 		ldrb	r3, [r4, #35]	@ zero_extendqisi2
 2524 002e 13F0080F 		tst	r3, #8
 2525 0032 78D0     		beq	.L273
 2526 0034 2046     		mov	r0, r4
 2527 0036 FFF7FEFF 		bl	lv_obj_get_width
 2528 003a 0646     		mov	r6, r0
 2529 003c 4FF00009 		mov	r9, #0
 2530              	.L274:
 2531 0040 2046     		mov	r0, r4
 2532 0042 FFF7FEFF 		bl	lv_obj_get_scroll_top
 2533 0046 0746     		mov	r7, r0
 2534 0048 94F82330 		ldrb	r3, [r4, #35]	@ zero_extendqisi2
 2535 004c 13F0040F 		tst	r3, #4
 2536 0050 00F0E780 		beq	.L281
 2537 0054 2046     		mov	r0, r4
 2538 0056 FFF7FEFF 		bl	lv_obj_get_height
 2539 005a 8046     		mov	r8, r0
 2540 005c 4FF0000A 		mov	r10, #0
 2541              	.L282:
 2542 0060 B9F1000F 		cmp	r9, #0
 2543 0064 02D1     		bne	.L289
 2544 0066 BAF1000F 		cmp	r10, #0
ARM GAS  /var/folders/lp/x54gwt890xv47sdkqj1k04q40000gn/T//ccAKDLQh.s 			page 44


 2545 006a 05D0     		beq	.L290
 2546              	.L289:
 2547 006c 0023     		movs	r3, #0
 2548 006e 3A46     		mov	r2, r7
 2549 0070 0099     		ldr	r1, [sp]
 2550 0072 2046     		mov	r0, r4
 2551 0074 FFF7FEFF 		bl	lv_obj_scroll_to
 2552              	.L290:
 2553 0078 2046     		mov	r0, r4
 2554 007a FFF7FEFF 		bl	lv_obj_get_width
 2555 007e B042     		cmp	r0, r6
 2556 0080 05D1     		bne	.L291
 2557 0082 2046     		mov	r0, r4
 2558 0084 FFF7FEFF 		bl	lv_obj_get_height
 2559 0088 4045     		cmp	r0, r8
 2560 008a 00F05C81 		beq	.L303
 2561              	.L291:
 2562 008e 2046     		mov	r0, r4
 2563 0090 FFF7FEFF 		bl	lv_obj_invalidate
 2564 0094 04A9     		add	r1, sp, #16
 2565 0096 2046     		mov	r0, r4
 2566 0098 FFF7FEFF 		bl	lv_obj_get_coords
 2567 009c 02A9     		add	r1, sp, #8
 2568 009e 2846     		mov	r0, r5
 2569 00a0 FFF7FEFF 		bl	lv_obj_get_content_coords
 2570 00a4 0022     		movs	r2, #0
 2571 00a6 02A9     		add	r1, sp, #8
 2572 00a8 04A8     		add	r0, sp, #16
 2573 00aa FFF7FEFF 		bl	_lv_area_is_in
 2574 00ae 0746     		mov	r7, r0
 2575 00b0 0028     		cmp	r0, #0
 2576 00b2 00F03A81 		beq	.L308
 2577              	.L292:
 2578 00b6 E08A     		ldrh	r0, [r4, #22]
 2579 00b8 4044     		add	r0, r0, r8
 2580 00ba 80B2     		uxth	r0, r0
 2581 00bc 0138     		subs	r0, r0, #1
 2582 00be 6083     		strh	r0, [r4, #26]	@ movhi
 2583 00c0 1622     		movs	r2, #22
 2584 00c2 0021     		movs	r1, #0
 2585 00c4 2046     		mov	r0, r4
 2586 00c6 FFF7FEFF 		bl	lv_obj_get_style_prop
 2587 00ca C0B2     		uxtb	r0, r0
 2588 00cc 0128     		cmp	r0, #1
 2589 00ce 00F03081 		beq	.L309
 2590 00d2 A38A     		ldrh	r3, [r4, #20]
 2591 00d4 3344     		add	r3, r3, r6
 2592 00d6 9BB2     		uxth	r3, r3
 2593 00d8 013B     		subs	r3, r3, #1
 2594 00da 2383     		strh	r3, [r4, #24]	@ movhi
 2595              	.L294:
 2596 00dc 04AA     		add	r2, sp, #16
 2597 00de 2921     		movs	r1, #41
 2598 00e0 2046     		mov	r0, r4
 2599 00e2 FFF7FEFF 		bl	lv_event_send
 2600 00e6 2246     		mov	r2, r4
 2601 00e8 2221     		movs	r1, #34
ARM GAS  /var/folders/lp/x54gwt890xv47sdkqj1k04q40000gn/T//ccAKDLQh.s 			page 45


 2602 00ea 2846     		mov	r0, r5
 2603 00ec FFF7FEFF 		bl	lv_event_send
 2604 00f0 2046     		mov	r0, r4
 2605 00f2 FFF7FEFF 		bl	lv_obj_invalidate
 2606 00f6 94F82230 		ldrb	r3, [r4, #34]	@ zero_extendqisi2
 2607 00fa 43F00203 		orr	r3, r3, #2
 2608 00fe 84F82230 		strb	r3, [r4, #34]
 2609 0102 0022     		movs	r2, #0
 2610 0104 02A9     		add	r1, sp, #8
 2611 0106 04F11400 		add	r0, r4, #20
 2612 010a FFF7FEFF 		bl	_lv_area_is_in
 2613 010e 07B9     		cbnz	r7, .L295
 2614 0110 10B1     		cbz	r0, .L296
 2615              	.L295:
 2616 0112 2846     		mov	r0, r5
 2617 0114 FFF7FEFF 		bl	lv_obj_scrollbar_invalidate
 2618              	.L296:
 2619 0118 2046     		mov	r0, r4
 2620 011a FFF7FEFF 		bl	lv_obj_refresh_ext_draw_size
 2621 011e 0120     		movs	r0, #1
 2622              	.L272:
 2623 0120 07B0     		add	sp, sp, #28
 2624              		@ sp needed
 2625 0122 BDE8F08F 		pop	{r4, r5, r6, r7, r8, r9, r10, fp, pc}
 2626              	.L273:
 2627 0126 0122     		movs	r2, #1
 2628 0128 0021     		movs	r1, #0
 2629 012a 2046     		mov	r0, r4
 2630 012c FFF7FEFF 		bl	lv_obj_get_style_prop
 2631 0130 06B2     		sxth	r6, r0
 2632 0132 42F2D179 		movw	r9, #10193
 2633 0136 4E45     		cmp	r6, r9
 2634 0138 14BF     		ite	ne
 2635 013a 4FF00009 		movne	r9, #0
 2636 013e 4FF00109 		moveq	r9, #1
 2637 0142 00F4C040 		and	r0, r0, #24576
 2638 0146 B0F5005F 		cmp	r0, #8192
 2639 014a 36D0     		beq	.L310
 2640 014c 4FF00008 		mov	r8, #0
 2641              	.L275:
 2642 0150 2846     		mov	r0, r5
 2643 0152 FFF7FEFF 		bl	lv_obj_get_content_width
 2644 0156 0746     		mov	r7, r0
 2645 0158 42F2D173 		movw	r3, #10193
 2646 015c 9E42     		cmp	r6, r3
 2647 015e 37D0     		beq	.L311
 2648 0160 B8F1000F 		cmp	r8, #0
 2649 0164 15D0     		beq	.L277
 2650 0166 95F82330 		ldrb	r3, [r5, #35]	@ zero_extendqisi2
 2651 016a 13F0080F 		tst	r3, #8
 2652 016e 34D0     		beq	.L312
 2653              	.L278:
 2654 0170 26F4C042 		bic	r2, r6, #24576
 2655 0174 12B2     		sxth	r2, r2
 2656 0176 B2F57A7F 		cmp	r2, #1000
 2657 017a 01DD     		ble	.L280
 2658 017c C2F57A72 		rsb	r2, r2, #1000
ARM GAS  /var/folders/lp/x54gwt890xv47sdkqj1k04q40000gn/T//ccAKDLQh.s 			page 46


 2659              	.L280:
 2660 0180 07FB02F2 		mul	r2, r7, r2
 2661 0184 714B     		ldr	r3, .L316
 2662 0186 83FB0213 		smull	r1, r3, r3, r2
 2663 018a D617     		asrs	r6, r2, #31
 2664 018c C6EB6316 		rsb	r6, r6, r3, asr #5
 2665 0190 36B2     		sxth	r6, r6
 2666              	.L277:
 2667 0192 0222     		movs	r2, #2
 2668 0194 0021     		movs	r1, #0
 2669 0196 2046     		mov	r0, r4
 2670 0198 FFF7FEFF 		bl	lv_obj_get_style_prop
 2671 019c 0FFA80F8 		sxth	r8, r0
 2672 01a0 0322     		movs	r2, #3
 2673 01a2 0021     		movs	r1, #0
 2674 01a4 2046     		mov	r0, r4
 2675 01a6 FFF7FEFF 		bl	lv_obj_get_style_prop
 2676 01aa 3B46     		mov	r3, r7
 2677 01ac 02B2     		sxth	r2, r0
 2678 01ae 4146     		mov	r1, r8
 2679 01b0 3046     		mov	r0, r6
 2680 01b2 FFF7FEFF 		bl	lv_clamp_width
 2681 01b6 0646     		mov	r6, r0
 2682 01b8 42E7     		b	.L274
 2683              	.L310:
 2684 01ba 26F4C043 		bic	r3, r6, #24576
 2685 01be B3F5FA6F 		cmp	r3, #2000
 2686 01c2 02DD     		ble	.L300
 2687 01c4 4FF00008 		mov	r8, #0
 2688 01c8 C2E7     		b	.L275
 2689              	.L300:
 2690 01ca 4FF00108 		mov	r8, #1
 2691 01ce BFE7     		b	.L275
 2692              	.L311:
 2693 01d0 2046     		mov	r0, r4
 2694 01d2 FFF7FEFF 		bl	calc_content_width
 2695 01d6 0646     		mov	r6, r0
 2696 01d8 DBE7     		b	.L277
 2697              	.L312:
 2698 01da 0122     		movs	r2, #1
 2699 01dc 0021     		movs	r1, #0
 2700 01de 2846     		mov	r0, r5
 2701 01e0 FFF7FEFF 		bl	lv_obj_get_style_prop
 2702 01e4 00B2     		sxth	r0, r0
 2703 01e6 42F2D173 		movw	r3, #10193
 2704 01ea 9842     		cmp	r0, r3
 2705 01ec C0D1     		bne	.L278
 2706 01ee 3222     		movs	r2, #50
 2707 01f0 0021     		movs	r1, #0
 2708 01f2 2046     		mov	r0, r4
 2709 01f4 FFF7FEFF 		bl	lv_obj_get_style_prop
 2710 01f8 0646     		mov	r6, r0
 2711 01fa 0FFA80F8 		sxth	r8, r0
 2712 01fe 1222     		movs	r2, #18
 2713 0200 0021     		movs	r1, #0
 2714 0202 2046     		mov	r0, r4
 2715 0204 FFF7FEFF 		bl	lv_obj_get_style_prop
ARM GAS  /var/folders/lp/x54gwt890xv47sdkqj1k04q40000gn/T//ccAKDLQh.s 			page 47


 2716 0208 16FA80F6 		uxtah	r6, r6, r0
 2717 020c B6B2     		uxth	r6, r6
 2718 020e 1322     		movs	r2, #19
 2719 0210 0021     		movs	r1, #0
 2720 0212 2046     		mov	r0, r4
 2721 0214 FFF7FEFF 		bl	lv_obj_get_style_prop
 2722 0218 08FA80F3 		sxtah	r3, r8, r0
 2723 021c 1E44     		add	r6, r6, r3
 2724 021e 36B2     		sxth	r6, r6
 2725 0220 B7E7     		b	.L277
 2726              	.L281:
 2727 0222 0422     		movs	r2, #4
 2728 0224 0021     		movs	r1, #0
 2729 0226 2046     		mov	r0, r4
 2730 0228 FFF7FEFF 		bl	lv_obj_get_style_prop
 2731 022c 0FFA80F8 		sxth	r8, r0
 2732 0230 42F2D17A 		movw	r10, #10193
 2733 0234 D045     		cmp	r8, r10
 2734 0236 14BF     		ite	ne
 2735 0238 4FF0000A 		movne	r10, #0
 2736 023c 4FF0010A 		moveq	r10, #1
 2737 0240 00F4C040 		and	r0, r0, #24576
 2738 0244 B0F5005F 		cmp	r0, #8192
 2739 0248 39D0     		beq	.L313
 2740 024a 4FF0000B 		mov	fp, #0
 2741              	.L283:
 2742 024e 2846     		mov	r0, r5
 2743 0250 FFF7FEFF 		bl	lv_obj_get_content_height
 2744 0254 0190     		str	r0, [sp, #4]
 2745 0256 42F2D173 		movw	r3, #10193
 2746 025a 9845     		cmp	r8, r3
 2747 025c 3AD0     		beq	.L314
 2748 025e BBF1000F 		cmp	fp, #0
 2749 0262 18D0     		beq	.L285
 2750 0264 95F82330 		ldrb	r3, [r5, #35]	@ zero_extendqisi2
 2751 0268 13F0040F 		tst	r3, #4
 2752 026c 37D0     		beq	.L315
 2753              	.L286:
 2754 026e 28F4C043 		bic	r3, r8, #24576
 2755 0272 1BB2     		sxth	r3, r3
 2756 0274 B3F57A7F 		cmp	r3, #1000
 2757 0278 01DD     		ble	.L288
 2758 027a C3F57A73 		rsb	r3, r3, #1000
 2759              	.L288:
 2760 027e 019A     		ldr	r2, [sp, #4]
 2761 0280 02FB03F3 		mul	r3, r2, r3
 2762 0284 314A     		ldr	r2, .L316
 2763 0286 82FB0312 		smull	r1, r2, r2, r3
 2764 028a 4FEAE378 		asr	r8, r3, #31
 2765 028e C8EB6218 		rsb	r8, r8, r2, asr #5
 2766 0292 0FFA88F8 		sxth	r8, r8
 2767              	.L285:
 2768 0296 0522     		movs	r2, #5
 2769 0298 0021     		movs	r1, #0
 2770 029a 2046     		mov	r0, r4
 2771 029c FFF7FEFF 		bl	lv_obj_get_style_prop
 2772 02a0 0FFA80FB 		sxth	fp, r0
ARM GAS  /var/folders/lp/x54gwt890xv47sdkqj1k04q40000gn/T//ccAKDLQh.s 			page 48


 2773 02a4 0622     		movs	r2, #6
 2774 02a6 0021     		movs	r1, #0
 2775 02a8 2046     		mov	r0, r4
 2776 02aa FFF7FEFF 		bl	lv_obj_get_style_prop
 2777 02ae 019B     		ldr	r3, [sp, #4]
 2778 02b0 02B2     		sxth	r2, r0
 2779 02b2 5946     		mov	r1, fp
 2780 02b4 4046     		mov	r0, r8
 2781 02b6 FFF7FEFF 		bl	lv_clamp_height
 2782 02ba 8046     		mov	r8, r0
 2783 02bc D0E6     		b	.L282
 2784              	.L313:
 2785 02be 28F4C043 		bic	r3, r8, #24576
 2786 02c2 B3F5FA6F 		cmp	r3, #2000
 2787 02c6 02DD     		ble	.L302
 2788 02c8 4FF0000B 		mov	fp, #0
 2789 02cc BFE7     		b	.L283
 2790              	.L302:
 2791 02ce 4FF0010B 		mov	fp, #1
 2792 02d2 BCE7     		b	.L283
 2793              	.L314:
 2794 02d4 2046     		mov	r0, r4
 2795 02d6 FFF7FEFF 		bl	calc_content_height
 2796 02da 8046     		mov	r8, r0
 2797 02dc DBE7     		b	.L285
 2798              	.L315:
 2799 02de 0422     		movs	r2, #4
 2800 02e0 0021     		movs	r1, #0
 2801 02e2 2846     		mov	r0, r5
 2802 02e4 FFF7FEFF 		bl	lv_obj_get_style_prop
 2803 02e8 00B2     		sxth	r0, r0
 2804 02ea 42F2D173 		movw	r3, #10193
 2805 02ee 9842     		cmp	r0, r3
 2806 02f0 BDD1     		bne	.L286
 2807 02f2 3222     		movs	r2, #50
 2808 02f4 0021     		movs	r1, #0
 2809 02f6 2046     		mov	r0, r4
 2810 02f8 FFF7FEFF 		bl	lv_obj_get_style_prop
 2811 02fc 8046     		mov	r8, r0
 2812 02fe 0FFA80FB 		sxth	fp, r0
 2813 0302 1022     		movs	r2, #16
 2814 0304 0021     		movs	r1, #0
 2815 0306 2046     		mov	r0, r4
 2816 0308 FFF7FEFF 		bl	lv_obj_get_style_prop
 2817 030c 18FA80F3 		uxtah	r3, r8, r0
 2818 0310 1FFA83F8 		uxth	r8, r3
 2819 0314 1122     		movs	r2, #17
 2820 0316 0021     		movs	r1, #0
 2821 0318 2046     		mov	r0, r4
 2822 031a FFF7FEFF 		bl	lv_obj_get_style_prop
 2823 031e 0BFA80F3 		sxtah	r3, fp, r0
 2824 0322 9844     		add	r8, r8, r3
 2825 0324 0FFA88F8 		sxth	r8, r8
 2826 0328 B5E7     		b	.L285
 2827              	.L308:
 2828 032a 2846     		mov	r0, r5
 2829 032c FFF7FEFF 		bl	lv_obj_scrollbar_invalidate
ARM GAS  /var/folders/lp/x54gwt890xv47sdkqj1k04q40000gn/T//ccAKDLQh.s 			page 49


 2830 0330 C1E6     		b	.L292
 2831              	.L309:
 2832 0332 238B     		ldrh	r3, [r4, #24]
 2833 0334 9B1B     		subs	r3, r3, r6
 2834 0336 9BB2     		uxth	r3, r3
 2835 0338 0133     		adds	r3, r3, #1
 2836 033a A382     		strh	r3, [r4, #20]	@ movhi
 2837 033c CEE6     		b	.L294
 2838              	.L297:
 2839 033e 0020     		movs	r0, #0
 2840 0340 7047     		bx	lr
 2841              	.L298:
 2842 0342 0020     		movs	r0, #0
 2843 0344 ECE6     		b	.L272
 2844              	.L303:
 2845 0346 0020     		movs	r0, #0
 2846 0348 EAE6     		b	.L272
 2847              	.L317:
 2848 034a 00BF     		.align	2
 2849              	.L316:
 2850 034c 1F85EB51 		.word	1374389535
 2852              		.section	.text.layout_update_core,"ax",%progbits
 2853              		.align	1
 2854              		.syntax unified
 2855              		.thumb
 2856              		.thumb_func
 2858              	layout_update_core:
 2859              		@ args = 0, pretend = 0, frame = 0
 2860              		@ frame_needed = 0, uses_anonymous_args = 0
 2861 0000 70B5     		push	{r4, r5, r6, lr}
 2862 0002 0446     		mov	r4, r0
 2863 0004 FFF7FEFF 		bl	lv_obj_get_child_cnt
 2864 0008 0646     		mov	r6, r0
 2865 000a 0025     		movs	r5, #0
 2866              	.L319:
 2867 000c B542     		cmp	r5, r6
 2868 000e 07D2     		bcs	.L324
 2869 0010 A368     		ldr	r3, [r4, #8]
 2870 0012 1B68     		ldr	r3, [r3]
 2871 0014 53F82500 		ldr	r0, [r3, r5, lsl #2]
 2872 0018 FFF7F2FF 		bl	layout_update_core
 2873 001c 0135     		adds	r5, r5, #1
 2874 001e F5E7     		b	.L319
 2875              	.L324:
 2876 0020 94F82230 		ldrb	r3, [r4, #34]	@ zero_extendqisi2
 2877 0024 13F0010F 		tst	r3, #1
 2878 0028 05D1     		bne	.L325
 2879              	.L321:
 2880 002a 94F82230 		ldrb	r3, [r4, #34]	@ zero_extendqisi2
 2881 002e 13F0020F 		tst	r3, #2
 2882 0032 27D1     		bne	.L326
 2883              	.L318:
 2884 0034 70BD     		pop	{r4, r5, r6, pc}
 2885              	.L325:
 2886 0036 94F82230 		ldrb	r3, [r4, #34]	@ zero_extendqisi2
 2887 003a 23F00103 		bic	r3, r3, #1
 2888 003e 84F82230 		strb	r3, [r4, #34]
ARM GAS  /var/folders/lp/x54gwt890xv47sdkqj1k04q40000gn/T//ccAKDLQh.s 			page 50


 2889 0042 2046     		mov	r0, r4
 2890 0044 FFF7FEFF 		bl	lv_obj_refr_size
 2891 0048 2046     		mov	r0, r4
 2892 004a FFF7FEFF 		bl	lv_obj_refr_pos
 2893 004e 002E     		cmp	r6, #0
 2894 0050 EBD0     		beq	.L321
 2895 0052 0A22     		movs	r2, #10
 2896 0054 0021     		movs	r1, #0
 2897 0056 2046     		mov	r0, r4
 2898 0058 FFF7FEFF 		bl	lv_obj_get_style_prop
 2899 005c 80B2     		uxth	r0, r0
 2900 005e 0028     		cmp	r0, #0
 2901 0060 E3D0     		beq	.L321
 2902 0062 0E4B     		ldr	r3, .L327
 2903 0064 1B68     		ldr	r3, [r3]
 2904 0066 8342     		cmp	r3, r0
 2905 0068 DFD3     		bcc	.L321
 2906 006a 00F10050 		add	r0, r0, #536870912
 2907 006e 0138     		subs	r0, r0, #1
 2908 0070 0B4B     		ldr	r3, .L327+4
 2909 0072 1B68     		ldr	r3, [r3]
 2910 0074 03EBC002 		add	r2, r3, r0, lsl #3
 2911 0078 53F83030 		ldr	r3, [r3, r0, lsl #3]
 2912 007c 5168     		ldr	r1, [r2, #4]
 2913 007e 2046     		mov	r0, r4
 2914 0080 9847     		blx	r3
 2915 0082 D2E7     		b	.L321
 2916              	.L326:
 2917 0084 94F82230 		ldrb	r3, [r4, #34]	@ zero_extendqisi2
 2918 0088 23F00203 		bic	r3, r3, #2
 2919 008c 84F82230 		strb	r3, [r4, #34]
 2920 0090 0021     		movs	r1, #0
 2921 0092 2046     		mov	r0, r4
 2922 0094 FFF7FEFF 		bl	lv_obj_readjust_scroll
 2923 0098 CCE7     		b	.L318
 2924              	.L328:
 2925 009a 00BF     		.align	2
 2926              	.L327:
 2927 009c 00000000 		.word	layout_cnt
 2928 00a0 00000000 		.word	_lv_layout_list
 2930              		.section	.text.lv_obj_update_layout,"ax",%progbits
 2931              		.align	1
 2932              		.global	lv_obj_update_layout
 2933              		.syntax unified
 2934              		.thumb
 2935              		.thumb_func
 2937              	lv_obj_update_layout:
 2938              		@ args = 0, pretend = 0, frame = 0
 2939              		@ frame_needed = 0, uses_anonymous_args = 0
 2940 0000 0E4B     		ldr	r3, .L338
 2941 0002 1B78     		ldrb	r3, [r3]	@ zero_extendqisi2
 2942 0004 03B1     		cbz	r3, .L337
 2943 0006 7047     		bx	lr
 2944              	.L337:
 2945 0008 10B5     		push	{r4, lr}
 2946 000a 0C4B     		ldr	r3, .L338
 2947 000c 0122     		movs	r2, #1
ARM GAS  /var/folders/lp/x54gwt890xv47sdkqj1k04q40000gn/T//ccAKDLQh.s 			page 51


 2948 000e 1A70     		strb	r2, [r3]
 2949 0010 FFF7FEFF 		bl	lv_obj_get_screen
 2950 0014 0446     		mov	r4, r0
 2951 0016 08E0     		b	.L331
 2952              	.L332:
 2953 0018 94F82230 		ldrb	r3, [r4, #34]	@ zero_extendqisi2
 2954 001c 23F00403 		bic	r3, r3, #4
 2955 0020 84F82230 		strb	r3, [r4, #34]
 2956 0024 2046     		mov	r0, r4
 2957 0026 FFF7FEFF 		bl	layout_update_core
 2958              	.L331:
 2959 002a 94F82230 		ldrb	r3, [r4, #34]	@ zero_extendqisi2
 2960 002e 13F0040F 		tst	r3, #4
 2961 0032 F1D1     		bne	.L332
 2962 0034 014B     		ldr	r3, .L338
 2963 0036 0022     		movs	r2, #0
 2964 0038 1A70     		strb	r2, [r3]
 2965 003a 10BD     		pop	{r4, pc}
 2966              	.L339:
 2967              		.align	2
 2968              	.L338:
 2969 003c 00000000 		.word	mutex.0
 2971              		.section	.text.lv_obj_align_to,"ax",%progbits
 2972              		.align	1
 2973              		.global	lv_obj_align_to
 2974              		.syntax unified
 2975              		.thumb
 2976              		.thumb_func
 2978              	lv_obj_align_to:
 2979              		@ args = 4, pretend = 0, frame = 16
 2980              		@ frame_needed = 0, uses_anonymous_args = 0
 2981 0000 2DE9F04F 		push	{r4, r5, r6, r7, r8, r9, r10, fp, lr}
 2982 0004 85B0     		sub	sp, sp, #20
 2983 0006 8046     		mov	r8, r0
 2984 0008 0D46     		mov	r5, r1
 2985 000a 0192     		str	r2, [sp, #4]
 2986 000c 0293     		str	r3, [sp, #8]
 2987 000e FFF7FEFF 		bl	lv_obj_update_layout
 2988 0012 002D     		cmp	r5, #0
 2989 0014 54D0     		beq	.L371
 2990              	.L341:
 2991 0016 4046     		mov	r0, r8
 2992 0018 FFF7FEFF 		bl	lv_obj_get_parent
 2993 001c 0746     		mov	r7, r0
 2994 001e 3222     		movs	r2, #50
 2995 0020 0021     		movs	r1, #0
 2996 0022 FFF7FEFF 		bl	lv_obj_get_style_prop
 2997 0026 0446     		mov	r4, r0
 2998 0028 1222     		movs	r2, #18
 2999 002a 0021     		movs	r1, #0
 3000 002c 3846     		mov	r0, r7
 3001 002e FFF7FEFF 		bl	lv_obj_get_style_prop
 3002 0032 A4B2     		uxth	r4, r4
 3003 0034 14FA80FA 		uxtah	r10, r4, r0
 3004 0038 0FFA8AFA 		sxth	r10, r10
 3005 003c 1022     		movs	r2, #16
 3006 003e 0021     		movs	r1, #0
ARM GAS  /var/folders/lp/x54gwt890xv47sdkqj1k04q40000gn/T//ccAKDLQh.s 			page 52


 3007 0040 3846     		mov	r0, r7
 3008 0042 FFF7FEFF 		bl	lv_obj_get_style_prop
 3009 0046 14FA80F9 		uxtah	r9, r4, r0
 3010 004a 0FFA89F9 		sxth	r9, r9
 3011 004e 3222     		movs	r2, #50
 3012 0050 0021     		movs	r1, #0
 3013 0052 2846     		mov	r0, r5
 3014 0054 FFF7FEFF 		bl	lv_obj_get_style_prop
 3015 0058 8346     		mov	fp, r0
 3016 005a 1222     		movs	r2, #18
 3017 005c 0021     		movs	r1, #0
 3018 005e 2846     		mov	r0, r5
 3019 0060 FFF7FEFF 		bl	lv_obj_get_style_prop
 3020 0064 1FFA8BFB 		uxth	fp, fp
 3021 0068 1BFA80F4 		uxtah	r4, fp, r0
 3022 006c A3B2     		uxth	r3, r4
 3023 006e 0393     		str	r3, [sp, #12]
 3024 0070 24B2     		sxth	r4, r4
 3025 0072 1022     		movs	r2, #16
 3026 0074 0021     		movs	r1, #0
 3027 0076 2846     		mov	r0, r5
 3028 0078 FFF7FEFF 		bl	lv_obj_get_style_prop
 3029 007c 1BFA80F6 		uxtah	r6, fp, r0
 3030 0080 1FFA86FB 		uxth	fp, r6
 3031 0084 36B2     		sxth	r6, r6
 3032 0086 019B     		ldr	r3, [sp, #4]
 3033 0088 FBB1     		cbz	r3, .L372
 3034 008a 019B     		ldr	r3, [sp, #4]
 3035 008c 013B     		subs	r3, r3, #1
 3036 008e 142B     		cmp	r3, #20
 3037 0090 5AD8     		bhi	.L345
 3038 0092 DFE813F0 		tbh	[pc, r3, lsl #1]
 3039              	.L347:
 3040 0096 2200     		.2byte	(.L344-.L347)/2
 3041 0098 8000     		.2byte	(.L365-.L347)/2
 3042 009a 9300     		.2byte	(.L343-.L347)/2
 3043 009c A100     		.2byte	(.L364-.L347)/2
 3044 009e AE00     		.2byte	(.L363-.L347)/2
 3045 00a0 CD00     		.2byte	(.L362-.L347)/2
 3046 00a2 E700     		.2byte	(.L361-.L347)/2
 3047 00a4 F900     		.2byte	(.L360-.L347)/2
 3048 00a6 5C00     		.2byte	(.L359-.L347)/2
 3049 00a8 1801     		.2byte	(.L358-.L347)/2
 3050 00aa 2001     		.2byte	(.L357-.L347)/2
 3051 00ac 3601     		.2byte	(.L356-.L347)/2
 3052 00ae 4701     		.2byte	(.L355-.L347)/2
 3053 00b0 4D01     		.2byte	(.L354-.L347)/2
 3054 00b2 6101     		.2byte	(.L353-.L347)/2
 3055 00b4 7001     		.2byte	(.L352-.L347)/2
 3056 00b6 7801     		.2byte	(.L351-.L347)/2
 3057 00b8 8E01     		.2byte	(.L350-.L347)/2
 3058 00ba 9F01     		.2byte	(.L349-.L347)/2
 3059 00bc A501     		.2byte	(.L348-.L347)/2
 3060 00be B901     		.2byte	(.L346-.L347)/2
 3061              		.p2align 1
 3062              	.L371:
 3063 00c0 4046     		mov	r0, r8
ARM GAS  /var/folders/lp/x54gwt890xv47sdkqj1k04q40000gn/T//ccAKDLQh.s 			page 53


 3064 00c2 FFF7FEFF 		bl	lv_obj_get_parent
 3065 00c6 0546     		mov	r5, r0
 3066 00c8 A5E7     		b	.L341
 3067              	.L372:
 3068 00ca 1622     		movs	r2, #22
 3069 00cc 0021     		movs	r1, #0
 3070 00ce 2846     		mov	r0, r5
 3071 00d0 FFF7FEFF 		bl	lv_obj_get_style_prop
 3072 00d4 C0B2     		uxtb	r0, r0
 3073 00d6 0128     		cmp	r0, #1
 3074 00d8 70D0     		beq	.L343
 3075              	.L344:
 3076 00da 1622     		movs	r2, #22
 3077 00dc 0021     		movs	r1, #0
 3078 00de 3846     		mov	r0, r7
 3079 00e0 FFF7FEFF 		bl	lv_obj_get_style_prop
 3080 00e4 C0B2     		uxtb	r0, r0
 3081 00e6 0128     		cmp	r0, #1
 3082 00e8 00F09D81 		beq	.L373
 3083 00ec B5F91430 		ldrsh	r3, [r5, #20]
 3084 00f0 029A     		ldr	r2, [sp, #8]
 3085 00f2 1A44     		add	r2, r2, r3
 3086 00f4 B7F91430 		ldrsh	r3, [r7, #20]
 3087 00f8 A2EB030B 		sub	fp, r2, r3
 3088 00fc 3846     		mov	r0, r7
 3089 00fe FFF7FEFF 		bl	lv_obj_get_scroll_left
 3090 0102 8344     		add	fp, fp, r0
 3091 0104 ABEB0A0A 		sub	r10, fp, r10
 3092 0108 A244     		add	r10, r10, r4
 3093 010a 0FFA8AFA 		sxth	r10, r10
 3094              	.L367:
 3095 010e B5F91630 		ldrsh	r3, [r5, #22]
 3096 0112 BDF93840 		ldrsh	r4, [sp, #56]
 3097 0116 1C44     		add	r4, r4, r3
 3098 0118 B7F91630 		ldrsh	r3, [r7, #22]
 3099 011c E41A     		subs	r4, r4, r3
 3100 011e 3846     		mov	r0, r7
 3101 0120 FFF7FEFF 		bl	lv_obj_get_scroll_top
 3102 0124 0444     		add	r4, r4, r0
 3103 0126 A4EB0904 		sub	r4, r4, r9
 3104 012a 3444     		add	r4, r4, r6
 3105 012c 24B2     		sxth	r4, r4
 3106 012e 0022     		movs	r2, #0
 3107 0130 0121     		movs	r1, #1
 3108 0132 4046     		mov	r0, r8
 3109 0134 FFF7FEFF 		bl	lv_obj_set_style_align
 3110 0138 2246     		mov	r2, r4
 3111 013a 5146     		mov	r1, r10
 3112 013c 4046     		mov	r0, r8
 3113 013e FFF7FEFF 		bl	lv_obj_set_pos
 3114 0142 05B0     		add	sp, sp, #20
 3115              		@ sp needed
 3116 0144 BDE8F08F 		pop	{r4, r5, r6, r7, r8, r9, r10, fp, pc}
 3117              	.L345:
 3118 0148 0026     		movs	r6, #0
 3119 014a 3446     		mov	r4, r6
 3120 014c C5E7     		b	.L344
ARM GAS  /var/folders/lp/x54gwt890xv47sdkqj1k04q40000gn/T//ccAKDLQh.s 			page 54


 3121              	.L359:
 3122 014e 2846     		mov	r0, r5
 3123 0150 FFF7FEFF 		bl	lv_obj_get_content_width
 3124 0154 0446     		mov	r4, r0
 3125 0156 4046     		mov	r0, r8
 3126 0158 FFF7FEFF 		bl	lv_obj_get_width
 3127 015c 04EBD473 		add	r3, r4, r4, lsr #31
 3128 0160 00EBD070 		add	r0, r0, r0, lsr #31
 3129 0164 4410     		asrs	r4, r0, #1
 3130 0166 C4EB6304 		rsb	r4, r4, r3, asr #1
 3131 016a 039B     		ldr	r3, [sp, #12]
 3132 016c 13FA84F4 		uxtah	r4, r3, r4
 3133 0170 24B2     		sxth	r4, r4
 3134 0172 2846     		mov	r0, r5
 3135 0174 FFF7FEFF 		bl	lv_obj_get_content_height
 3136 0178 0646     		mov	r6, r0
 3137 017a 4046     		mov	r0, r8
 3138 017c FFF7FEFF 		bl	lv_obj_get_height
 3139 0180 06EBD673 		add	r3, r6, r6, lsr #31
 3140 0184 00EBD070 		add	r0, r0, r0, lsr #31
 3141 0188 4610     		asrs	r6, r0, #1
 3142 018a C6EB6306 		rsb	r6, r6, r3, asr #1
 3143 018e 1BFA86F6 		uxtah	r6, fp, r6
 3144 0192 36B2     		sxth	r6, r6
 3145 0194 A1E7     		b	.L344
 3146              	.L365:
 3147 0196 2846     		mov	r0, r5
 3148 0198 FFF7FEFF 		bl	lv_obj_get_content_width
 3149 019c 0446     		mov	r4, r0
 3150 019e 4046     		mov	r0, r8
 3151 01a0 FFF7FEFF 		bl	lv_obj_get_width
 3152 01a4 04EBD473 		add	r3, r4, r4, lsr #31
 3153 01a8 00EBD070 		add	r0, r0, r0, lsr #31
 3154 01ac 4410     		asrs	r4, r0, #1
 3155 01ae C4EB6304 		rsb	r4, r4, r3, asr #1
 3156 01b2 039B     		ldr	r3, [sp, #12]
 3157 01b4 13FA84F4 		uxtah	r4, r3, r4
 3158 01b8 24B2     		sxth	r4, r4
 3159 01ba 8EE7     		b	.L344
 3160              	.L343:
 3161 01bc 2846     		mov	r0, r5
 3162 01be FFF7FEFF 		bl	lv_obj_get_content_width
 3163 01c2 84B2     		uxth	r4, r0
 3164 01c4 4046     		mov	r0, r8
 3165 01c6 FFF7FEFF 		bl	lv_obj_get_width
 3166 01ca 80B2     		uxth	r0, r0
 3167 01cc 241A     		subs	r4, r4, r0
 3168 01ce 039B     		ldr	r3, [sp, #12]
 3169 01d0 13FA84F4 		uxtah	r4, r3, r4
 3170 01d4 24B2     		sxth	r4, r4
 3171 01d6 80E7     		b	.L344
 3172              	.L364:
 3173 01d8 2846     		mov	r0, r5
 3174 01da FFF7FEFF 		bl	lv_obj_get_content_height
 3175 01de 86B2     		uxth	r6, r0
 3176 01e0 4046     		mov	r0, r8
 3177 01e2 FFF7FEFF 		bl	lv_obj_get_height
ARM GAS  /var/folders/lp/x54gwt890xv47sdkqj1k04q40000gn/T//ccAKDLQh.s 			page 55


 3178 01e6 80B2     		uxth	r0, r0
 3179 01e8 361A     		subs	r6, r6, r0
 3180 01ea 1BFA86F6 		uxtah	r6, fp, r6
 3181 01ee 36B2     		sxth	r6, r6
 3182 01f0 73E7     		b	.L344
 3183              	.L363:
 3184 01f2 2846     		mov	r0, r5
 3185 01f4 FFF7FEFF 		bl	lv_obj_get_content_width
 3186 01f8 0446     		mov	r4, r0
 3187 01fa 4046     		mov	r0, r8
 3188 01fc FFF7FEFF 		bl	lv_obj_get_width
 3189 0200 04EBD473 		add	r3, r4, r4, lsr #31
 3190 0204 00EBD070 		add	r0, r0, r0, lsr #31
 3191 0208 4410     		asrs	r4, r0, #1
 3192 020a C4EB6304 		rsb	r4, r4, r3, asr #1
 3193 020e 039B     		ldr	r3, [sp, #12]
 3194 0210 13FA84F4 		uxtah	r4, r3, r4
 3195 0214 24B2     		sxth	r4, r4
 3196 0216 2846     		mov	r0, r5
 3197 0218 FFF7FEFF 		bl	lv_obj_get_content_height
 3198 021c 86B2     		uxth	r6, r0
 3199 021e 4046     		mov	r0, r8
 3200 0220 FFF7FEFF 		bl	lv_obj_get_height
 3201 0224 80B2     		uxth	r0, r0
 3202 0226 361A     		subs	r6, r6, r0
 3203 0228 1BFA86F6 		uxtah	r6, fp, r6
 3204 022c 36B2     		sxth	r6, r6
 3205 022e 54E7     		b	.L344
 3206              	.L362:
 3207 0230 2846     		mov	r0, r5
 3208 0232 FFF7FEFF 		bl	lv_obj_get_content_width
 3209 0236 84B2     		uxth	r4, r0
 3210 0238 4046     		mov	r0, r8
 3211 023a FFF7FEFF 		bl	lv_obj_get_width
 3212 023e 80B2     		uxth	r0, r0
 3213 0240 241A     		subs	r4, r4, r0
 3214 0242 039B     		ldr	r3, [sp, #12]
 3215 0244 13FA84F4 		uxtah	r4, r3, r4
 3216 0248 24B2     		sxth	r4, r4
 3217 024a 2846     		mov	r0, r5
 3218 024c FFF7FEFF 		bl	lv_obj_get_content_height
 3219 0250 86B2     		uxth	r6, r0
 3220 0252 4046     		mov	r0, r8
 3221 0254 FFF7FEFF 		bl	lv_obj_get_height
 3222 0258 80B2     		uxth	r0, r0
 3223 025a 361A     		subs	r6, r6, r0
 3224 025c 1BFA86F6 		uxtah	r6, fp, r6
 3225 0260 36B2     		sxth	r6, r6
 3226 0262 3AE7     		b	.L344
 3227              	.L361:
 3228 0264 2846     		mov	r0, r5
 3229 0266 FFF7FEFF 		bl	lv_obj_get_content_height
 3230 026a 0646     		mov	r6, r0
 3231 026c 4046     		mov	r0, r8
 3232 026e FFF7FEFF 		bl	lv_obj_get_height
 3233 0272 06EBD673 		add	r3, r6, r6, lsr #31
 3234 0276 00EBD070 		add	r0, r0, r0, lsr #31
ARM GAS  /var/folders/lp/x54gwt890xv47sdkqj1k04q40000gn/T//ccAKDLQh.s 			page 56


 3235 027a 4610     		asrs	r6, r0, #1
 3236 027c C6EB6306 		rsb	r6, r6, r3, asr #1
 3237 0280 1BFA86F6 		uxtah	r6, fp, r6
 3238 0284 36B2     		sxth	r6, r6
 3239 0286 28E7     		b	.L344
 3240              	.L360:
 3241 0288 2846     		mov	r0, r5
 3242 028a FFF7FEFF 		bl	lv_obj_get_content_width
 3243 028e 84B2     		uxth	r4, r0
 3244 0290 4046     		mov	r0, r8
 3245 0292 FFF7FEFF 		bl	lv_obj_get_width
 3246 0296 80B2     		uxth	r0, r0
 3247 0298 241A     		subs	r4, r4, r0
 3248 029a 039B     		ldr	r3, [sp, #12]
 3249 029c 13FA84F4 		uxtah	r4, r3, r4
 3250 02a0 24B2     		sxth	r4, r4
 3251 02a2 2846     		mov	r0, r5
 3252 02a4 FFF7FEFF 		bl	lv_obj_get_content_height
 3253 02a8 0646     		mov	r6, r0
 3254 02aa 4046     		mov	r0, r8
 3255 02ac FFF7FEFF 		bl	lv_obj_get_height
 3256 02b0 06EBD673 		add	r3, r6, r6, lsr #31
 3257 02b4 00EBD070 		add	r0, r0, r0, lsr #31
 3258 02b8 4610     		asrs	r6, r0, #1
 3259 02ba C6EB6306 		rsb	r6, r6, r3, asr #1
 3260 02be 1BFA86F6 		uxtah	r6, fp, r6
 3261 02c2 36B2     		sxth	r6, r6
 3262 02c4 09E7     		b	.L344
 3263              	.L358:
 3264 02c6 4046     		mov	r0, r8
 3265 02c8 FFF7FEFF 		bl	lv_obj_get_height
 3266 02cc 86B2     		uxth	r6, r0
 3267 02ce 7642     		rsbs	r6, r6, #0
 3268 02d0 36B2     		sxth	r6, r6
 3269 02d2 0024     		movs	r4, #0
 3270 02d4 01E7     		b	.L344
 3271              	.L357:
 3272 02d6 2846     		mov	r0, r5
 3273 02d8 FFF7FEFF 		bl	lv_obj_get_width
 3274 02dc 0446     		mov	r4, r0
 3275 02de 4046     		mov	r0, r8
 3276 02e0 FFF7FEFF 		bl	lv_obj_get_width
 3277 02e4 04EBD473 		add	r3, r4, r4, lsr #31
 3278 02e8 00EBD070 		add	r0, r0, r0, lsr #31
 3279 02ec 4410     		asrs	r4, r0, #1
 3280 02ee C4EB6304 		rsb	r4, r4, r3, asr #1
 3281 02f2 24B2     		sxth	r4, r4
 3282 02f4 4046     		mov	r0, r8
 3283 02f6 FFF7FEFF 		bl	lv_obj_get_height
 3284 02fa 86B2     		uxth	r6, r0
 3285 02fc 7642     		rsbs	r6, r6, #0
 3286 02fe 36B2     		sxth	r6, r6
 3287 0300 EBE6     		b	.L344
 3288              	.L356:
 3289 0302 2846     		mov	r0, r5
 3290 0304 FFF7FEFF 		bl	lv_obj_get_width
 3291 0308 84B2     		uxth	r4, r0
ARM GAS  /var/folders/lp/x54gwt890xv47sdkqj1k04q40000gn/T//ccAKDLQh.s 			page 57


 3292 030a 4046     		mov	r0, r8
 3293 030c FFF7FEFF 		bl	lv_obj_get_width
 3294 0310 80B2     		uxth	r0, r0
 3295 0312 241A     		subs	r4, r4, r0
 3296 0314 24B2     		sxth	r4, r4
 3297 0316 4046     		mov	r0, r8
 3298 0318 FFF7FEFF 		bl	lv_obj_get_height
 3299 031c 86B2     		uxth	r6, r0
 3300 031e 7642     		rsbs	r6, r6, #0
 3301 0320 36B2     		sxth	r6, r6
 3302 0322 DAE6     		b	.L344
 3303              	.L355:
 3304 0324 2846     		mov	r0, r5
 3305 0326 FFF7FEFF 		bl	lv_obj_get_height
 3306 032a 0646     		mov	r6, r0
 3307 032c 0024     		movs	r4, #0
 3308 032e D4E6     		b	.L344
 3309              	.L354:
 3310 0330 2846     		mov	r0, r5
 3311 0332 FFF7FEFF 		bl	lv_obj_get_width
 3312 0336 0446     		mov	r4, r0
 3313 0338 4046     		mov	r0, r8
 3314 033a FFF7FEFF 		bl	lv_obj_get_width
 3315 033e 04EBD473 		add	r3, r4, r4, lsr #31
 3316 0342 00EBD070 		add	r0, r0, r0, lsr #31
 3317 0346 4410     		asrs	r4, r0, #1
 3318 0348 C4EB6304 		rsb	r4, r4, r3, asr #1
 3319 034c 24B2     		sxth	r4, r4
 3320 034e 2846     		mov	r0, r5
 3321 0350 FFF7FEFF 		bl	lv_obj_get_height
 3322 0354 0646     		mov	r6, r0
 3323 0356 C0E6     		b	.L344
 3324              	.L353:
 3325 0358 2846     		mov	r0, r5
 3326 035a FFF7FEFF 		bl	lv_obj_get_width
 3327 035e 84B2     		uxth	r4, r0
 3328 0360 4046     		mov	r0, r8
 3329 0362 FFF7FEFF 		bl	lv_obj_get_width
 3330 0366 80B2     		uxth	r0, r0
 3331 0368 241A     		subs	r4, r4, r0
 3332 036a 24B2     		sxth	r4, r4
 3333 036c 2846     		mov	r0, r5
 3334 036e FFF7FEFF 		bl	lv_obj_get_height
 3335 0372 0646     		mov	r6, r0
 3336 0374 B1E6     		b	.L344
 3337              	.L352:
 3338 0376 4046     		mov	r0, r8
 3339 0378 FFF7FEFF 		bl	lv_obj_get_width
 3340 037c 84B2     		uxth	r4, r0
 3341 037e 6442     		rsbs	r4, r4, #0
 3342 0380 24B2     		sxth	r4, r4
 3343 0382 0026     		movs	r6, #0
 3344 0384 A9E6     		b	.L344
 3345              	.L351:
 3346 0386 4046     		mov	r0, r8
 3347 0388 FFF7FEFF 		bl	lv_obj_get_width
 3348 038c 84B2     		uxth	r4, r0
ARM GAS  /var/folders/lp/x54gwt890xv47sdkqj1k04q40000gn/T//ccAKDLQh.s 			page 58


 3349 038e 6442     		rsbs	r4, r4, #0
 3350 0390 24B2     		sxth	r4, r4
 3351 0392 2846     		mov	r0, r5
 3352 0394 FFF7FEFF 		bl	lv_obj_get_height
 3353 0398 0646     		mov	r6, r0
 3354 039a 4046     		mov	r0, r8
 3355 039c FFF7FEFF 		bl	lv_obj_get_height
 3356 03a0 06EBD676 		add	r6, r6, r6, lsr #31
 3357 03a4 00EBD070 		add	r0, r0, r0, lsr #31
 3358 03a8 4010     		asrs	r0, r0, #1
 3359 03aa C0EB6606 		rsb	r6, r0, r6, asr #1
 3360 03ae 36B2     		sxth	r6, r6
 3361 03b0 93E6     		b	.L344
 3362              	.L350:
 3363 03b2 4046     		mov	r0, r8
 3364 03b4 FFF7FEFF 		bl	lv_obj_get_width
 3365 03b8 84B2     		uxth	r4, r0
 3366 03ba 6442     		rsbs	r4, r4, #0
 3367 03bc 24B2     		sxth	r4, r4
 3368 03be 2846     		mov	r0, r5
 3369 03c0 FFF7FEFF 		bl	lv_obj_get_height
 3370 03c4 86B2     		uxth	r6, r0
 3371 03c6 4046     		mov	r0, r8
 3372 03c8 FFF7FEFF 		bl	lv_obj_get_height
 3373 03cc 80B2     		uxth	r0, r0
 3374 03ce 361A     		subs	r6, r6, r0
 3375 03d0 36B2     		sxth	r6, r6
 3376 03d2 82E6     		b	.L344
 3377              	.L349:
 3378 03d4 2846     		mov	r0, r5
 3379 03d6 FFF7FEFF 		bl	lv_obj_get_width
 3380 03da 0446     		mov	r4, r0
 3381 03dc 0026     		movs	r6, #0
 3382 03de 7CE6     		b	.L344
 3383              	.L348:
 3384 03e0 2846     		mov	r0, r5
 3385 03e2 FFF7FEFF 		bl	lv_obj_get_width
 3386 03e6 0446     		mov	r4, r0
 3387 03e8 2846     		mov	r0, r5
 3388 03ea FFF7FEFF 		bl	lv_obj_get_height
 3389 03ee 0646     		mov	r6, r0
 3390 03f0 4046     		mov	r0, r8
 3391 03f2 FFF7FEFF 		bl	lv_obj_get_height
 3392 03f6 06EBD676 		add	r6, r6, r6, lsr #31
 3393 03fa 00EBD070 		add	r0, r0, r0, lsr #31
 3394 03fe 4010     		asrs	r0, r0, #1
 3395 0400 C0EB6606 		rsb	r6, r0, r6, asr #1
 3396 0404 36B2     		sxth	r6, r6
 3397 0406 68E6     		b	.L344
 3398              	.L346:
 3399 0408 2846     		mov	r0, r5
 3400 040a FFF7FEFF 		bl	lv_obj_get_width
 3401 040e 0446     		mov	r4, r0
 3402 0410 2846     		mov	r0, r5
 3403 0412 FFF7FEFF 		bl	lv_obj_get_height
 3404 0416 86B2     		uxth	r6, r0
 3405 0418 4046     		mov	r0, r8
ARM GAS  /var/folders/lp/x54gwt890xv47sdkqj1k04q40000gn/T//ccAKDLQh.s 			page 59


 3406 041a FFF7FEFF 		bl	lv_obj_get_height
 3407 041e 80B2     		uxth	r0, r0
 3408 0420 361A     		subs	r6, r6, r0
 3409 0422 36B2     		sxth	r6, r6
 3410 0424 59E6     		b	.L344
 3411              	.L373:
 3412 0426 B5F914B0 		ldrsh	fp, [r5, #20]
 3413 042a 029B     		ldr	r3, [sp, #8]
 3414 042c 5B44     		add	r3, r3, fp
 3415 042e 9B46     		mov	fp, r3
 3416 0430 B7F91430 		ldrsh	r3, [r7, #20]
 3417 0434 ABEB030B 		sub	fp, fp, r3
 3418 0438 3846     		mov	r0, r7
 3419 043a FFF7FEFF 		bl	lv_obj_get_scroll_right
 3420 043e 8344     		add	fp, fp, r0
 3421 0440 ABEB0A0B 		sub	fp, fp, r10
 3422 0444 A344     		add	fp, fp, r4
 3423 0446 0FFA8BFA 		sxth	r10, fp
 3424 044a 60E6     		b	.L367
 3426              		.section	.bss.mutex.0,"aw",%nobits
 3429              	mutex.0:
 3430 0000 00       		.space	1
 3431              		.section	.bss.layout_cnt,"aw",%nobits
 3432              		.align	2
 3435              	layout_cnt:
 3436 0000 00000000 		.space	4
 3437              		.ident	"GCC: (xPack GNU Arm Embedded GCC arm64) 13.3.1 20240614"
ARM GAS  /var/folders/lp/x54gwt890xv47sdkqj1k04q40000gn/T//ccAKDLQh.s 			page 60

