ARM GAS  /var/folders/lp/x54gwt890xv47sdkqj1k04q40000gn/T//ccr88gD4.s 			page 1


   1              		.cpu cortex-m4
   2              		.arch armv7e-m
   3              		.fpu fpv4-sp-d16
   4              		.eabi_attribute 27, 1
   5              		.eabi_attribute 28, 1
   6              		.eabi_attribute 20, 1
   7              		.eabi_attribute 21, 1
   8              		.eabi_attribute 23, 3
   9              		.eabi_attribute 24, 1
  10              		.eabi_attribute 25, 1
  11              		.eabi_attribute 26, 1
  12              		.eabi_attribute 30, 1
  13              		.eabi_attribute 34, 1
  14              		.eabi_attribute 18, 4
  15              		.file	"lv_style_gen.c"
  16              		.text
  17              		.section	.text.lv_style_set_width,"ax",%progbits
  18              		.align	1
  19              		.global	lv_style_set_width
  20              		.syntax unified
  21              		.thumb
  22              		.thumb_func
  24              	lv_style_set_width:
  25              		@ args = 0, pretend = 0, frame = 0
  26              		@ frame_needed = 0, uses_anonymous_args = 0
  27 0000 08B5     		push	{r3, lr}
  28 0002 0A46     		mov	r2, r1
  29 0004 0121     		movs	r1, #1
  30 0006 FFF7FEFF 		bl	lv_style_set_prop
  31 000a 08BD     		pop	{r3, pc}
  33              		.section	.text.lv_style_set_min_width,"ax",%progbits
  34              		.align	1
  35              		.global	lv_style_set_min_width
  36              		.syntax unified
  37              		.thumb
  38              		.thumb_func
  40              	lv_style_set_min_width:
  41              		@ args = 0, pretend = 0, frame = 0
  42              		@ frame_needed = 0, uses_anonymous_args = 0
  43 0000 08B5     		push	{r3, lr}
  44 0002 0A46     		mov	r2, r1
  45 0004 0221     		movs	r1, #2
  46 0006 FFF7FEFF 		bl	lv_style_set_prop
  47 000a 08BD     		pop	{r3, pc}
  49              		.section	.text.lv_style_set_max_width,"ax",%progbits
  50              		.align	1
  51              		.global	lv_style_set_max_width
  52              		.syntax unified
  53              		.thumb
  54              		.thumb_func
  56              	lv_style_set_max_width:
  57              		@ args = 0, pretend = 0, frame = 0
  58              		@ frame_needed = 0, uses_anonymous_args = 0
  59 0000 08B5     		push	{r3, lr}
  60 0002 0A46     		mov	r2, r1
  61 0004 0321     		movs	r1, #3
  62 0006 FFF7FEFF 		bl	lv_style_set_prop
ARM GAS  /var/folders/lp/x54gwt890xv47sdkqj1k04q40000gn/T//ccr88gD4.s 			page 2


  63 000a 08BD     		pop	{r3, pc}
  65              		.section	.text.lv_style_set_height,"ax",%progbits
  66              		.align	1
  67              		.global	lv_style_set_height
  68              		.syntax unified
  69              		.thumb
  70              		.thumb_func
  72              	lv_style_set_height:
  73              		@ args = 0, pretend = 0, frame = 0
  74              		@ frame_needed = 0, uses_anonymous_args = 0
  75 0000 08B5     		push	{r3, lr}
  76 0002 0A46     		mov	r2, r1
  77 0004 0421     		movs	r1, #4
  78 0006 FFF7FEFF 		bl	lv_style_set_prop
  79 000a 08BD     		pop	{r3, pc}
  81              		.section	.text.lv_style_set_min_height,"ax",%progbits
  82              		.align	1
  83              		.global	lv_style_set_min_height
  84              		.syntax unified
  85              		.thumb
  86              		.thumb_func
  88              	lv_style_set_min_height:
  89              		@ args = 0, pretend = 0, frame = 0
  90              		@ frame_needed = 0, uses_anonymous_args = 0
  91 0000 08B5     		push	{r3, lr}
  92 0002 0A46     		mov	r2, r1
  93 0004 0521     		movs	r1, #5
  94 0006 FFF7FEFF 		bl	lv_style_set_prop
  95 000a 08BD     		pop	{r3, pc}
  97              		.section	.text.lv_style_set_max_height,"ax",%progbits
  98              		.align	1
  99              		.global	lv_style_set_max_height
 100              		.syntax unified
 101              		.thumb
 102              		.thumb_func
 104              	lv_style_set_max_height:
 105              		@ args = 0, pretend = 0, frame = 0
 106              		@ frame_needed = 0, uses_anonymous_args = 0
 107 0000 08B5     		push	{r3, lr}
 108 0002 0A46     		mov	r2, r1
 109 0004 0621     		movs	r1, #6
 110 0006 FFF7FEFF 		bl	lv_style_set_prop
 111 000a 08BD     		pop	{r3, pc}
 113              		.section	.text.lv_style_set_x,"ax",%progbits
 114              		.align	1
 115              		.global	lv_style_set_x
 116              		.syntax unified
 117              		.thumb
 118              		.thumb_func
 120              	lv_style_set_x:
 121              		@ args = 0, pretend = 0, frame = 0
 122              		@ frame_needed = 0, uses_anonymous_args = 0
 123 0000 08B5     		push	{r3, lr}
 124 0002 0A46     		mov	r2, r1
 125 0004 0721     		movs	r1, #7
 126 0006 FFF7FEFF 		bl	lv_style_set_prop
 127 000a 08BD     		pop	{r3, pc}
ARM GAS  /var/folders/lp/x54gwt890xv47sdkqj1k04q40000gn/T//ccr88gD4.s 			page 3


 129              		.section	.text.lv_style_set_y,"ax",%progbits
 130              		.align	1
 131              		.global	lv_style_set_y
 132              		.syntax unified
 133              		.thumb
 134              		.thumb_func
 136              	lv_style_set_y:
 137              		@ args = 0, pretend = 0, frame = 0
 138              		@ frame_needed = 0, uses_anonymous_args = 0
 139 0000 08B5     		push	{r3, lr}
 140 0002 0A46     		mov	r2, r1
 141 0004 0821     		movs	r1, #8
 142 0006 FFF7FEFF 		bl	lv_style_set_prop
 143 000a 08BD     		pop	{r3, pc}
 145              		.section	.text.lv_style_set_align,"ax",%progbits
 146              		.align	1
 147              		.global	lv_style_set_align
 148              		.syntax unified
 149              		.thumb
 150              		.thumb_func
 152              	lv_style_set_align:
 153              		@ args = 0, pretend = 0, frame = 0
 154              		@ frame_needed = 0, uses_anonymous_args = 0
 155 0000 08B5     		push	{r3, lr}
 156 0002 0A46     		mov	r2, r1
 157 0004 0921     		movs	r1, #9
 158 0006 FFF7FEFF 		bl	lv_style_set_prop
 159 000a 08BD     		pop	{r3, pc}
 161              		.section	.text.lv_style_set_transform_width,"ax",%progbits
 162              		.align	1
 163              		.global	lv_style_set_transform_width
 164              		.syntax unified
 165              		.thumb
 166              		.thumb_func
 168              	lv_style_set_transform_width:
 169              		@ args = 0, pretend = 0, frame = 0
 170              		@ frame_needed = 0, uses_anonymous_args = 0
 171 0000 08B5     		push	{r3, lr}
 172 0002 0A46     		mov	r2, r1
 173 0004 6921     		movs	r1, #105
 174 0006 FFF7FEFF 		bl	lv_style_set_prop
 175 000a 08BD     		pop	{r3, pc}
 177              		.section	.text.lv_style_set_transform_height,"ax",%progbits
 178              		.align	1
 179              		.global	lv_style_set_transform_height
 180              		.syntax unified
 181              		.thumb
 182              		.thumb_func
 184              	lv_style_set_transform_height:
 185              		@ args = 0, pretend = 0, frame = 0
 186              		@ frame_needed = 0, uses_anonymous_args = 0
 187 0000 08B5     		push	{r3, lr}
 188 0002 0A46     		mov	r2, r1
 189 0004 6A21     		movs	r1, #106
 190 0006 FFF7FEFF 		bl	lv_style_set_prop
 191 000a 08BD     		pop	{r3, pc}
 193              		.section	.text.lv_style_set_translate_x,"ax",%progbits
ARM GAS  /var/folders/lp/x54gwt890xv47sdkqj1k04q40000gn/T//ccr88gD4.s 			page 4


 194              		.align	1
 195              		.global	lv_style_set_translate_x
 196              		.syntax unified
 197              		.thumb
 198              		.thumb_func
 200              	lv_style_set_translate_x:
 201              		@ args = 0, pretend = 0, frame = 0
 202              		@ frame_needed = 0, uses_anonymous_args = 0
 203 0000 08B5     		push	{r3, lr}
 204 0002 0A46     		mov	r2, r1
 205 0004 6B21     		movs	r1, #107
 206 0006 FFF7FEFF 		bl	lv_style_set_prop
 207 000a 08BD     		pop	{r3, pc}
 209              		.section	.text.lv_style_set_translate_y,"ax",%progbits
 210              		.align	1
 211              		.global	lv_style_set_translate_y
 212              		.syntax unified
 213              		.thumb
 214              		.thumb_func
 216              	lv_style_set_translate_y:
 217              		@ args = 0, pretend = 0, frame = 0
 218              		@ frame_needed = 0, uses_anonymous_args = 0
 219 0000 08B5     		push	{r3, lr}
 220 0002 0A46     		mov	r2, r1
 221 0004 6C21     		movs	r1, #108
 222 0006 FFF7FEFF 		bl	lv_style_set_prop
 223 000a 08BD     		pop	{r3, pc}
 225              		.section	.text.lv_style_set_transform_zoom,"ax",%progbits
 226              		.align	1
 227              		.global	lv_style_set_transform_zoom
 228              		.syntax unified
 229              		.thumb
 230              		.thumb_func
 232              	lv_style_set_transform_zoom:
 233              		@ args = 0, pretend = 0, frame = 0
 234              		@ frame_needed = 0, uses_anonymous_args = 0
 235 0000 08B5     		push	{r3, lr}
 236 0002 0A46     		mov	r2, r1
 237 0004 6D21     		movs	r1, #109
 238 0006 FFF7FEFF 		bl	lv_style_set_prop
 239 000a 08BD     		pop	{r3, pc}
 241              		.section	.text.lv_style_set_transform_angle,"ax",%progbits
 242              		.align	1
 243              		.global	lv_style_set_transform_angle
 244              		.syntax unified
 245              		.thumb
 246              		.thumb_func
 248              	lv_style_set_transform_angle:
 249              		@ args = 0, pretend = 0, frame = 0
 250              		@ frame_needed = 0, uses_anonymous_args = 0
 251 0000 08B5     		push	{r3, lr}
 252 0002 0A46     		mov	r2, r1
 253 0004 6E21     		movs	r1, #110
 254 0006 FFF7FEFF 		bl	lv_style_set_prop
 255 000a 08BD     		pop	{r3, pc}
 257              		.section	.text.lv_style_set_transform_pivot_x,"ax",%progbits
 258              		.align	1
ARM GAS  /var/folders/lp/x54gwt890xv47sdkqj1k04q40000gn/T//ccr88gD4.s 			page 5


 259              		.global	lv_style_set_transform_pivot_x
 260              		.syntax unified
 261              		.thumb
 262              		.thumb_func
 264              	lv_style_set_transform_pivot_x:
 265              		@ args = 0, pretend = 0, frame = 0
 266              		@ frame_needed = 0, uses_anonymous_args = 0
 267 0000 08B5     		push	{r3, lr}
 268 0002 0A46     		mov	r2, r1
 269 0004 6F21     		movs	r1, #111
 270 0006 FFF7FEFF 		bl	lv_style_set_prop
 271 000a 08BD     		pop	{r3, pc}
 273              		.section	.text.lv_style_set_transform_pivot_y,"ax",%progbits
 274              		.align	1
 275              		.global	lv_style_set_transform_pivot_y
 276              		.syntax unified
 277              		.thumb
 278              		.thumb_func
 280              	lv_style_set_transform_pivot_y:
 281              		@ args = 0, pretend = 0, frame = 0
 282              		@ frame_needed = 0, uses_anonymous_args = 0
 283 0000 08B5     		push	{r3, lr}
 284 0002 0A46     		mov	r2, r1
 285 0004 7021     		movs	r1, #112
 286 0006 FFF7FEFF 		bl	lv_style_set_prop
 287 000a 08BD     		pop	{r3, pc}
 289              		.section	.text.lv_style_set_pad_top,"ax",%progbits
 290              		.align	1
 291              		.global	lv_style_set_pad_top
 292              		.syntax unified
 293              		.thumb
 294              		.thumb_func
 296              	lv_style_set_pad_top:
 297              		@ args = 0, pretend = 0, frame = 0
 298              		@ frame_needed = 0, uses_anonymous_args = 0
 299 0000 08B5     		push	{r3, lr}
 300 0002 0A46     		mov	r2, r1
 301 0004 1021     		movs	r1, #16
 302 0006 FFF7FEFF 		bl	lv_style_set_prop
 303 000a 08BD     		pop	{r3, pc}
 305              		.section	.text.lv_style_set_pad_bottom,"ax",%progbits
 306              		.align	1
 307              		.global	lv_style_set_pad_bottom
 308              		.syntax unified
 309              		.thumb
 310              		.thumb_func
 312              	lv_style_set_pad_bottom:
 313              		@ args = 0, pretend = 0, frame = 0
 314              		@ frame_needed = 0, uses_anonymous_args = 0
 315 0000 08B5     		push	{r3, lr}
 316 0002 0A46     		mov	r2, r1
 317 0004 1121     		movs	r1, #17
 318 0006 FFF7FEFF 		bl	lv_style_set_prop
 319 000a 08BD     		pop	{r3, pc}
 321              		.section	.text.lv_style_set_pad_left,"ax",%progbits
 322              		.align	1
 323              		.global	lv_style_set_pad_left
ARM GAS  /var/folders/lp/x54gwt890xv47sdkqj1k04q40000gn/T//ccr88gD4.s 			page 6


 324              		.syntax unified
 325              		.thumb
 326              		.thumb_func
 328              	lv_style_set_pad_left:
 329              		@ args = 0, pretend = 0, frame = 0
 330              		@ frame_needed = 0, uses_anonymous_args = 0
 331 0000 08B5     		push	{r3, lr}
 332 0002 0A46     		mov	r2, r1
 333 0004 1221     		movs	r1, #18
 334 0006 FFF7FEFF 		bl	lv_style_set_prop
 335 000a 08BD     		pop	{r3, pc}
 337              		.section	.text.lv_style_set_pad_right,"ax",%progbits
 338              		.align	1
 339              		.global	lv_style_set_pad_right
 340              		.syntax unified
 341              		.thumb
 342              		.thumb_func
 344              	lv_style_set_pad_right:
 345              		@ args = 0, pretend = 0, frame = 0
 346              		@ frame_needed = 0, uses_anonymous_args = 0
 347 0000 08B5     		push	{r3, lr}
 348 0002 0A46     		mov	r2, r1
 349 0004 1321     		movs	r1, #19
 350 0006 FFF7FEFF 		bl	lv_style_set_prop
 351 000a 08BD     		pop	{r3, pc}
 353              		.section	.text.lv_style_set_pad_row,"ax",%progbits
 354              		.align	1
 355              		.global	lv_style_set_pad_row
 356              		.syntax unified
 357              		.thumb
 358              		.thumb_func
 360              	lv_style_set_pad_row:
 361              		@ args = 0, pretend = 0, frame = 0
 362              		@ frame_needed = 0, uses_anonymous_args = 0
 363 0000 08B5     		push	{r3, lr}
 364 0002 0A46     		mov	r2, r1
 365 0004 1421     		movs	r1, #20
 366 0006 FFF7FEFF 		bl	lv_style_set_prop
 367 000a 08BD     		pop	{r3, pc}
 369              		.section	.text.lv_style_set_pad_column,"ax",%progbits
 370              		.align	1
 371              		.global	lv_style_set_pad_column
 372              		.syntax unified
 373              		.thumb
 374              		.thumb_func
 376              	lv_style_set_pad_column:
 377              		@ args = 0, pretend = 0, frame = 0
 378              		@ frame_needed = 0, uses_anonymous_args = 0
 379 0000 08B5     		push	{r3, lr}
 380 0002 0A46     		mov	r2, r1
 381 0004 1521     		movs	r1, #21
 382 0006 FFF7FEFF 		bl	lv_style_set_prop
 383 000a 08BD     		pop	{r3, pc}
 385              		.section	.text.lv_style_set_bg_color,"ax",%progbits
 386              		.align	1
 387              		.global	lv_style_set_bg_color
 388              		.syntax unified
ARM GAS  /var/folders/lp/x54gwt890xv47sdkqj1k04q40000gn/T//ccr88gD4.s 			page 7


 389              		.thumb
 390              		.thumb_func
 392              	lv_style_set_bg_color:
 393              		@ args = 0, pretend = 0, frame = 0
 394              		@ frame_needed = 0, uses_anonymous_args = 0
 395 0000 08B5     		push	{r3, lr}
 396 0002 8AB2     		uxth	r2, r1
 397 0004 2021     		movs	r1, #32
 398 0006 FFF7FEFF 		bl	lv_style_set_prop
 399 000a 08BD     		pop	{r3, pc}
 401              		.section	.text.lv_style_set_bg_opa,"ax",%progbits
 402              		.align	1
 403              		.global	lv_style_set_bg_opa
 404              		.syntax unified
 405              		.thumb
 406              		.thumb_func
 408              	lv_style_set_bg_opa:
 409              		@ args = 0, pretend = 0, frame = 0
 410              		@ frame_needed = 0, uses_anonymous_args = 0
 411 0000 08B5     		push	{r3, lr}
 412 0002 0A46     		mov	r2, r1
 413 0004 2121     		movs	r1, #33
 414 0006 FFF7FEFF 		bl	lv_style_set_prop
 415 000a 08BD     		pop	{r3, pc}
 417              		.section	.text.lv_style_set_bg_grad_color,"ax",%progbits
 418              		.align	1
 419              		.global	lv_style_set_bg_grad_color
 420              		.syntax unified
 421              		.thumb
 422              		.thumb_func
 424              	lv_style_set_bg_grad_color:
 425              		@ args = 0, pretend = 0, frame = 0
 426              		@ frame_needed = 0, uses_anonymous_args = 0
 427 0000 08B5     		push	{r3, lr}
 428 0002 8AB2     		uxth	r2, r1
 429 0004 2221     		movs	r1, #34
 430 0006 FFF7FEFF 		bl	lv_style_set_prop
 431 000a 08BD     		pop	{r3, pc}
 433              		.section	.text.lv_style_set_bg_grad_dir,"ax",%progbits
 434              		.align	1
 435              		.global	lv_style_set_bg_grad_dir
 436              		.syntax unified
 437              		.thumb
 438              		.thumb_func
 440              	lv_style_set_bg_grad_dir:
 441              		@ args = 0, pretend = 0, frame = 0
 442              		@ frame_needed = 0, uses_anonymous_args = 0
 443 0000 08B5     		push	{r3, lr}
 444 0002 0A46     		mov	r2, r1
 445 0004 2321     		movs	r1, #35
 446 0006 FFF7FEFF 		bl	lv_style_set_prop
 447 000a 08BD     		pop	{r3, pc}
 449              		.section	.text.lv_style_set_bg_main_stop,"ax",%progbits
 450              		.align	1
 451              		.global	lv_style_set_bg_main_stop
 452              		.syntax unified
 453              		.thumb
ARM GAS  /var/folders/lp/x54gwt890xv47sdkqj1k04q40000gn/T//ccr88gD4.s 			page 8


 454              		.thumb_func
 456              	lv_style_set_bg_main_stop:
 457              		@ args = 0, pretend = 0, frame = 0
 458              		@ frame_needed = 0, uses_anonymous_args = 0
 459 0000 08B5     		push	{r3, lr}
 460 0002 0A46     		mov	r2, r1
 461 0004 2421     		movs	r1, #36
 462 0006 FFF7FEFF 		bl	lv_style_set_prop
 463 000a 08BD     		pop	{r3, pc}
 465              		.section	.text.lv_style_set_bg_grad_stop,"ax",%progbits
 466              		.align	1
 467              		.global	lv_style_set_bg_grad_stop
 468              		.syntax unified
 469              		.thumb
 470              		.thumb_func
 472              	lv_style_set_bg_grad_stop:
 473              		@ args = 0, pretend = 0, frame = 0
 474              		@ frame_needed = 0, uses_anonymous_args = 0
 475 0000 08B5     		push	{r3, lr}
 476 0002 0A46     		mov	r2, r1
 477 0004 2521     		movs	r1, #37
 478 0006 FFF7FEFF 		bl	lv_style_set_prop
 479 000a 08BD     		pop	{r3, pc}
 481              		.section	.text.lv_style_set_bg_grad,"ax",%progbits
 482              		.align	1
 483              		.global	lv_style_set_bg_grad
 484              		.syntax unified
 485              		.thumb
 486              		.thumb_func
 488              	lv_style_set_bg_grad:
 489              		@ args = 0, pretend = 0, frame = 0
 490              		@ frame_needed = 0, uses_anonymous_args = 0
 491 0000 08B5     		push	{r3, lr}
 492 0002 0A46     		mov	r2, r1
 493 0004 2621     		movs	r1, #38
 494 0006 FFF7FEFF 		bl	lv_style_set_prop
 495 000a 08BD     		pop	{r3, pc}
 497              		.section	.text.lv_style_set_bg_dither_mode,"ax",%progbits
 498              		.align	1
 499              		.global	lv_style_set_bg_dither_mode
 500              		.syntax unified
 501              		.thumb
 502              		.thumb_func
 504              	lv_style_set_bg_dither_mode:
 505              		@ args = 0, pretend = 0, frame = 0
 506              		@ frame_needed = 0, uses_anonymous_args = 0
 507 0000 08B5     		push	{r3, lr}
 508 0002 0A46     		mov	r2, r1
 509 0004 2721     		movs	r1, #39
 510 0006 FFF7FEFF 		bl	lv_style_set_prop
 511 000a 08BD     		pop	{r3, pc}
 513              		.section	.text.lv_style_set_bg_img_src,"ax",%progbits
 514              		.align	1
 515              		.global	lv_style_set_bg_img_src
 516              		.syntax unified
 517              		.thumb
 518              		.thumb_func
ARM GAS  /var/folders/lp/x54gwt890xv47sdkqj1k04q40000gn/T//ccr88gD4.s 			page 9


 520              	lv_style_set_bg_img_src:
 521              		@ args = 0, pretend = 0, frame = 0
 522              		@ frame_needed = 0, uses_anonymous_args = 0
 523 0000 08B5     		push	{r3, lr}
 524 0002 0A46     		mov	r2, r1
 525 0004 2821     		movs	r1, #40
 526 0006 FFF7FEFF 		bl	lv_style_set_prop
 527 000a 08BD     		pop	{r3, pc}
 529              		.section	.text.lv_style_set_bg_img_opa,"ax",%progbits
 530              		.align	1
 531              		.global	lv_style_set_bg_img_opa
 532              		.syntax unified
 533              		.thumb
 534              		.thumb_func
 536              	lv_style_set_bg_img_opa:
 537              		@ args = 0, pretend = 0, frame = 0
 538              		@ frame_needed = 0, uses_anonymous_args = 0
 539 0000 08B5     		push	{r3, lr}
 540 0002 0A46     		mov	r2, r1
 541 0004 2921     		movs	r1, #41
 542 0006 FFF7FEFF 		bl	lv_style_set_prop
 543 000a 08BD     		pop	{r3, pc}
 545              		.section	.text.lv_style_set_bg_img_recolor,"ax",%progbits
 546              		.align	1
 547              		.global	lv_style_set_bg_img_recolor
 548              		.syntax unified
 549              		.thumb
 550              		.thumb_func
 552              	lv_style_set_bg_img_recolor:
 553              		@ args = 0, pretend = 0, frame = 0
 554              		@ frame_needed = 0, uses_anonymous_args = 0
 555 0000 08B5     		push	{r3, lr}
 556 0002 8AB2     		uxth	r2, r1
 557 0004 2A21     		movs	r1, #42
 558 0006 FFF7FEFF 		bl	lv_style_set_prop
 559 000a 08BD     		pop	{r3, pc}
 561              		.section	.text.lv_style_set_bg_img_recolor_opa,"ax",%progbits
 562              		.align	1
 563              		.global	lv_style_set_bg_img_recolor_opa
 564              		.syntax unified
 565              		.thumb
 566              		.thumb_func
 568              	lv_style_set_bg_img_recolor_opa:
 569              		@ args = 0, pretend = 0, frame = 0
 570              		@ frame_needed = 0, uses_anonymous_args = 0
 571 0000 08B5     		push	{r3, lr}
 572 0002 0A46     		mov	r2, r1
 573 0004 2B21     		movs	r1, #43
 574 0006 FFF7FEFF 		bl	lv_style_set_prop
 575 000a 08BD     		pop	{r3, pc}
 577              		.section	.text.lv_style_set_bg_img_tiled,"ax",%progbits
 578              		.align	1
 579              		.global	lv_style_set_bg_img_tiled
 580              		.syntax unified
 581              		.thumb
 582              		.thumb_func
 584              	lv_style_set_bg_img_tiled:
ARM GAS  /var/folders/lp/x54gwt890xv47sdkqj1k04q40000gn/T//ccr88gD4.s 			page 10


 585              		@ args = 0, pretend = 0, frame = 0
 586              		@ frame_needed = 0, uses_anonymous_args = 0
 587 0000 08B5     		push	{r3, lr}
 588 0002 0A46     		mov	r2, r1
 589 0004 2C21     		movs	r1, #44
 590 0006 FFF7FEFF 		bl	lv_style_set_prop
 591 000a 08BD     		pop	{r3, pc}
 593              		.section	.text.lv_style_set_border_color,"ax",%progbits
 594              		.align	1
 595              		.global	lv_style_set_border_color
 596              		.syntax unified
 597              		.thumb
 598              		.thumb_func
 600              	lv_style_set_border_color:
 601              		@ args = 0, pretend = 0, frame = 0
 602              		@ frame_needed = 0, uses_anonymous_args = 0
 603 0000 08B5     		push	{r3, lr}
 604 0002 8AB2     		uxth	r2, r1
 605 0004 3021     		movs	r1, #48
 606 0006 FFF7FEFF 		bl	lv_style_set_prop
 607 000a 08BD     		pop	{r3, pc}
 609              		.section	.text.lv_style_set_border_opa,"ax",%progbits
 610              		.align	1
 611              		.global	lv_style_set_border_opa
 612              		.syntax unified
 613              		.thumb
 614              		.thumb_func
 616              	lv_style_set_border_opa:
 617              		@ args = 0, pretend = 0, frame = 0
 618              		@ frame_needed = 0, uses_anonymous_args = 0
 619 0000 08B5     		push	{r3, lr}
 620 0002 0A46     		mov	r2, r1
 621 0004 3121     		movs	r1, #49
 622 0006 FFF7FEFF 		bl	lv_style_set_prop
 623 000a 08BD     		pop	{r3, pc}
 625              		.section	.text.lv_style_set_border_width,"ax",%progbits
 626              		.align	1
 627              		.global	lv_style_set_border_width
 628              		.syntax unified
 629              		.thumb
 630              		.thumb_func
 632              	lv_style_set_border_width:
 633              		@ args = 0, pretend = 0, frame = 0
 634              		@ frame_needed = 0, uses_anonymous_args = 0
 635 0000 08B5     		push	{r3, lr}
 636 0002 0A46     		mov	r2, r1
 637 0004 3221     		movs	r1, #50
 638 0006 FFF7FEFF 		bl	lv_style_set_prop
 639 000a 08BD     		pop	{r3, pc}
 641              		.section	.text.lv_style_set_border_side,"ax",%progbits
 642              		.align	1
 643              		.global	lv_style_set_border_side
 644              		.syntax unified
 645              		.thumb
 646              		.thumb_func
 648              	lv_style_set_border_side:
 649              		@ args = 0, pretend = 0, frame = 0
ARM GAS  /var/folders/lp/x54gwt890xv47sdkqj1k04q40000gn/T//ccr88gD4.s 			page 11


 650              		@ frame_needed = 0, uses_anonymous_args = 0
 651 0000 08B5     		push	{r3, lr}
 652 0002 0A46     		mov	r2, r1
 653 0004 3321     		movs	r1, #51
 654 0006 FFF7FEFF 		bl	lv_style_set_prop
 655 000a 08BD     		pop	{r3, pc}
 657              		.section	.text.lv_style_set_border_post,"ax",%progbits
 658              		.align	1
 659              		.global	lv_style_set_border_post
 660              		.syntax unified
 661              		.thumb
 662              		.thumb_func
 664              	lv_style_set_border_post:
 665              		@ args = 0, pretend = 0, frame = 0
 666              		@ frame_needed = 0, uses_anonymous_args = 0
 667 0000 08B5     		push	{r3, lr}
 668 0002 0A46     		mov	r2, r1
 669 0004 3421     		movs	r1, #52
 670 0006 FFF7FEFF 		bl	lv_style_set_prop
 671 000a 08BD     		pop	{r3, pc}
 673              		.section	.text.lv_style_set_outline_width,"ax",%progbits
 674              		.align	1
 675              		.global	lv_style_set_outline_width
 676              		.syntax unified
 677              		.thumb
 678              		.thumb_func
 680              	lv_style_set_outline_width:
 681              		@ args = 0, pretend = 0, frame = 0
 682              		@ frame_needed = 0, uses_anonymous_args = 0
 683 0000 08B5     		push	{r3, lr}
 684 0002 0A46     		mov	r2, r1
 685 0004 3521     		movs	r1, #53
 686 0006 FFF7FEFF 		bl	lv_style_set_prop
 687 000a 08BD     		pop	{r3, pc}
 689              		.section	.text.lv_style_set_outline_color,"ax",%progbits
 690              		.align	1
 691              		.global	lv_style_set_outline_color
 692              		.syntax unified
 693              		.thumb
 694              		.thumb_func
 696              	lv_style_set_outline_color:
 697              		@ args = 0, pretend = 0, frame = 0
 698              		@ frame_needed = 0, uses_anonymous_args = 0
 699 0000 08B5     		push	{r3, lr}
 700 0002 8AB2     		uxth	r2, r1
 701 0004 3621     		movs	r1, #54
 702 0006 FFF7FEFF 		bl	lv_style_set_prop
 703 000a 08BD     		pop	{r3, pc}
 705              		.section	.text.lv_style_set_outline_opa,"ax",%progbits
 706              		.align	1
 707              		.global	lv_style_set_outline_opa
 708              		.syntax unified
 709              		.thumb
 710              		.thumb_func
 712              	lv_style_set_outline_opa:
 713              		@ args = 0, pretend = 0, frame = 0
 714              		@ frame_needed = 0, uses_anonymous_args = 0
ARM GAS  /var/folders/lp/x54gwt890xv47sdkqj1k04q40000gn/T//ccr88gD4.s 			page 12


 715 0000 08B5     		push	{r3, lr}
 716 0002 0A46     		mov	r2, r1
 717 0004 3721     		movs	r1, #55
 718 0006 FFF7FEFF 		bl	lv_style_set_prop
 719 000a 08BD     		pop	{r3, pc}
 721              		.section	.text.lv_style_set_outline_pad,"ax",%progbits
 722              		.align	1
 723              		.global	lv_style_set_outline_pad
 724              		.syntax unified
 725              		.thumb
 726              		.thumb_func
 728              	lv_style_set_outline_pad:
 729              		@ args = 0, pretend = 0, frame = 0
 730              		@ frame_needed = 0, uses_anonymous_args = 0
 731 0000 08B5     		push	{r3, lr}
 732 0002 0A46     		mov	r2, r1
 733 0004 3821     		movs	r1, #56
 734 0006 FFF7FEFF 		bl	lv_style_set_prop
 735 000a 08BD     		pop	{r3, pc}
 737              		.section	.text.lv_style_set_shadow_width,"ax",%progbits
 738              		.align	1
 739              		.global	lv_style_set_shadow_width
 740              		.syntax unified
 741              		.thumb
 742              		.thumb_func
 744              	lv_style_set_shadow_width:
 745              		@ args = 0, pretend = 0, frame = 0
 746              		@ frame_needed = 0, uses_anonymous_args = 0
 747 0000 08B5     		push	{r3, lr}
 748 0002 0A46     		mov	r2, r1
 749 0004 4021     		movs	r1, #64
 750 0006 FFF7FEFF 		bl	lv_style_set_prop
 751 000a 08BD     		pop	{r3, pc}
 753              		.section	.text.lv_style_set_shadow_ofs_x,"ax",%progbits
 754              		.align	1
 755              		.global	lv_style_set_shadow_ofs_x
 756              		.syntax unified
 757              		.thumb
 758              		.thumb_func
 760              	lv_style_set_shadow_ofs_x:
 761              		@ args = 0, pretend = 0, frame = 0
 762              		@ frame_needed = 0, uses_anonymous_args = 0
 763 0000 08B5     		push	{r3, lr}
 764 0002 0A46     		mov	r2, r1
 765 0004 4121     		movs	r1, #65
 766 0006 FFF7FEFF 		bl	lv_style_set_prop
 767 000a 08BD     		pop	{r3, pc}
 769              		.section	.text.lv_style_set_shadow_ofs_y,"ax",%progbits
 770              		.align	1
 771              		.global	lv_style_set_shadow_ofs_y
 772              		.syntax unified
 773              		.thumb
 774              		.thumb_func
 776              	lv_style_set_shadow_ofs_y:
 777              		@ args = 0, pretend = 0, frame = 0
 778              		@ frame_needed = 0, uses_anonymous_args = 0
 779 0000 08B5     		push	{r3, lr}
ARM GAS  /var/folders/lp/x54gwt890xv47sdkqj1k04q40000gn/T//ccr88gD4.s 			page 13


 780 0002 0A46     		mov	r2, r1
 781 0004 4221     		movs	r1, #66
 782 0006 FFF7FEFF 		bl	lv_style_set_prop
 783 000a 08BD     		pop	{r3, pc}
 785              		.section	.text.lv_style_set_shadow_spread,"ax",%progbits
 786              		.align	1
 787              		.global	lv_style_set_shadow_spread
 788              		.syntax unified
 789              		.thumb
 790              		.thumb_func
 792              	lv_style_set_shadow_spread:
 793              		@ args = 0, pretend = 0, frame = 0
 794              		@ frame_needed = 0, uses_anonymous_args = 0
 795 0000 08B5     		push	{r3, lr}
 796 0002 0A46     		mov	r2, r1
 797 0004 4321     		movs	r1, #67
 798 0006 FFF7FEFF 		bl	lv_style_set_prop
 799 000a 08BD     		pop	{r3, pc}
 801              		.section	.text.lv_style_set_shadow_color,"ax",%progbits
 802              		.align	1
 803              		.global	lv_style_set_shadow_color
 804              		.syntax unified
 805              		.thumb
 806              		.thumb_func
 808              	lv_style_set_shadow_color:
 809              		@ args = 0, pretend = 0, frame = 0
 810              		@ frame_needed = 0, uses_anonymous_args = 0
 811 0000 08B5     		push	{r3, lr}
 812 0002 8AB2     		uxth	r2, r1
 813 0004 4421     		movs	r1, #68
 814 0006 FFF7FEFF 		bl	lv_style_set_prop
 815 000a 08BD     		pop	{r3, pc}
 817              		.section	.text.lv_style_set_shadow_opa,"ax",%progbits
 818              		.align	1
 819              		.global	lv_style_set_shadow_opa
 820              		.syntax unified
 821              		.thumb
 822              		.thumb_func
 824              	lv_style_set_shadow_opa:
 825              		@ args = 0, pretend = 0, frame = 0
 826              		@ frame_needed = 0, uses_anonymous_args = 0
 827 0000 08B5     		push	{r3, lr}
 828 0002 0A46     		mov	r2, r1
 829 0004 4521     		movs	r1, #69
 830 0006 FFF7FEFF 		bl	lv_style_set_prop
 831 000a 08BD     		pop	{r3, pc}
 833              		.section	.text.lv_style_set_img_opa,"ax",%progbits
 834              		.align	1
 835              		.global	lv_style_set_img_opa
 836              		.syntax unified
 837              		.thumb
 838              		.thumb_func
 840              	lv_style_set_img_opa:
 841              		@ args = 0, pretend = 0, frame = 0
 842              		@ frame_needed = 0, uses_anonymous_args = 0
 843 0000 08B5     		push	{r3, lr}
 844 0002 0A46     		mov	r2, r1
ARM GAS  /var/folders/lp/x54gwt890xv47sdkqj1k04q40000gn/T//ccr88gD4.s 			page 14


 845 0004 4621     		movs	r1, #70
 846 0006 FFF7FEFF 		bl	lv_style_set_prop
 847 000a 08BD     		pop	{r3, pc}
 849              		.section	.text.lv_style_set_img_recolor,"ax",%progbits
 850              		.align	1
 851              		.global	lv_style_set_img_recolor
 852              		.syntax unified
 853              		.thumb
 854              		.thumb_func
 856              	lv_style_set_img_recolor:
 857              		@ args = 0, pretend = 0, frame = 0
 858              		@ frame_needed = 0, uses_anonymous_args = 0
 859 0000 08B5     		push	{r3, lr}
 860 0002 8AB2     		uxth	r2, r1
 861 0004 4721     		movs	r1, #71
 862 0006 FFF7FEFF 		bl	lv_style_set_prop
 863 000a 08BD     		pop	{r3, pc}
 865              		.section	.text.lv_style_set_img_recolor_opa,"ax",%progbits
 866              		.align	1
 867              		.global	lv_style_set_img_recolor_opa
 868              		.syntax unified
 869              		.thumb
 870              		.thumb_func
 872              	lv_style_set_img_recolor_opa:
 873              		@ args = 0, pretend = 0, frame = 0
 874              		@ frame_needed = 0, uses_anonymous_args = 0
 875 0000 08B5     		push	{r3, lr}
 876 0002 0A46     		mov	r2, r1
 877 0004 4821     		movs	r1, #72
 878 0006 FFF7FEFF 		bl	lv_style_set_prop
 879 000a 08BD     		pop	{r3, pc}
 881              		.section	.text.lv_style_set_line_width,"ax",%progbits
 882              		.align	1
 883              		.global	lv_style_set_line_width
 884              		.syntax unified
 885              		.thumb
 886              		.thumb_func
 888              	lv_style_set_line_width:
 889              		@ args = 0, pretend = 0, frame = 0
 890              		@ frame_needed = 0, uses_anonymous_args = 0
 891 0000 08B5     		push	{r3, lr}
 892 0002 0A46     		mov	r2, r1
 893 0004 4921     		movs	r1, #73
 894 0006 FFF7FEFF 		bl	lv_style_set_prop
 895 000a 08BD     		pop	{r3, pc}
 897              		.section	.text.lv_style_set_line_dash_width,"ax",%progbits
 898              		.align	1
 899              		.global	lv_style_set_line_dash_width
 900              		.syntax unified
 901              		.thumb
 902              		.thumb_func
 904              	lv_style_set_line_dash_width:
 905              		@ args = 0, pretend = 0, frame = 0
 906              		@ frame_needed = 0, uses_anonymous_args = 0
 907 0000 08B5     		push	{r3, lr}
 908 0002 0A46     		mov	r2, r1
 909 0004 4A21     		movs	r1, #74
ARM GAS  /var/folders/lp/x54gwt890xv47sdkqj1k04q40000gn/T//ccr88gD4.s 			page 15


 910 0006 FFF7FEFF 		bl	lv_style_set_prop
 911 000a 08BD     		pop	{r3, pc}
 913              		.section	.text.lv_style_set_line_dash_gap,"ax",%progbits
 914              		.align	1
 915              		.global	lv_style_set_line_dash_gap
 916              		.syntax unified
 917              		.thumb
 918              		.thumb_func
 920              	lv_style_set_line_dash_gap:
 921              		@ args = 0, pretend = 0, frame = 0
 922              		@ frame_needed = 0, uses_anonymous_args = 0
 923 0000 08B5     		push	{r3, lr}
 924 0002 0A46     		mov	r2, r1
 925 0004 4B21     		movs	r1, #75
 926 0006 FFF7FEFF 		bl	lv_style_set_prop
 927 000a 08BD     		pop	{r3, pc}
 929              		.section	.text.lv_style_set_line_rounded,"ax",%progbits
 930              		.align	1
 931              		.global	lv_style_set_line_rounded
 932              		.syntax unified
 933              		.thumb
 934              		.thumb_func
 936              	lv_style_set_line_rounded:
 937              		@ args = 0, pretend = 0, frame = 0
 938              		@ frame_needed = 0, uses_anonymous_args = 0
 939 0000 08B5     		push	{r3, lr}
 940 0002 0A46     		mov	r2, r1
 941 0004 4C21     		movs	r1, #76
 942 0006 FFF7FEFF 		bl	lv_style_set_prop
 943 000a 08BD     		pop	{r3, pc}
 945              		.section	.text.lv_style_set_line_color,"ax",%progbits
 946              		.align	1
 947              		.global	lv_style_set_line_color
 948              		.syntax unified
 949              		.thumb
 950              		.thumb_func
 952              	lv_style_set_line_color:
 953              		@ args = 0, pretend = 0, frame = 0
 954              		@ frame_needed = 0, uses_anonymous_args = 0
 955 0000 08B5     		push	{r3, lr}
 956 0002 8AB2     		uxth	r2, r1
 957 0004 4D21     		movs	r1, #77
 958 0006 FFF7FEFF 		bl	lv_style_set_prop
 959 000a 08BD     		pop	{r3, pc}
 961              		.section	.text.lv_style_set_line_opa,"ax",%progbits
 962              		.align	1
 963              		.global	lv_style_set_line_opa
 964              		.syntax unified
 965              		.thumb
 966              		.thumb_func
 968              	lv_style_set_line_opa:
 969              		@ args = 0, pretend = 0, frame = 0
 970              		@ frame_needed = 0, uses_anonymous_args = 0
 971 0000 08B5     		push	{r3, lr}
 972 0002 0A46     		mov	r2, r1
 973 0004 4E21     		movs	r1, #78
 974 0006 FFF7FEFF 		bl	lv_style_set_prop
ARM GAS  /var/folders/lp/x54gwt890xv47sdkqj1k04q40000gn/T//ccr88gD4.s 			page 16


 975 000a 08BD     		pop	{r3, pc}
 977              		.section	.text.lv_style_set_arc_width,"ax",%progbits
 978              		.align	1
 979              		.global	lv_style_set_arc_width
 980              		.syntax unified
 981              		.thumb
 982              		.thumb_func
 984              	lv_style_set_arc_width:
 985              		@ args = 0, pretend = 0, frame = 0
 986              		@ frame_needed = 0, uses_anonymous_args = 0
 987 0000 08B5     		push	{r3, lr}
 988 0002 0A46     		mov	r2, r1
 989 0004 5021     		movs	r1, #80
 990 0006 FFF7FEFF 		bl	lv_style_set_prop
 991 000a 08BD     		pop	{r3, pc}
 993              		.section	.text.lv_style_set_arc_rounded,"ax",%progbits
 994              		.align	1
 995              		.global	lv_style_set_arc_rounded
 996              		.syntax unified
 997              		.thumb
 998              		.thumb_func
 1000              	lv_style_set_arc_rounded:
 1001              		@ args = 0, pretend = 0, frame = 0
 1002              		@ frame_needed = 0, uses_anonymous_args = 0
 1003 0000 08B5     		push	{r3, lr}
 1004 0002 0A46     		mov	r2, r1
 1005 0004 5121     		movs	r1, #81
 1006 0006 FFF7FEFF 		bl	lv_style_set_prop
 1007 000a 08BD     		pop	{r3, pc}
 1009              		.section	.text.lv_style_set_arc_color,"ax",%progbits
 1010              		.align	1
 1011              		.global	lv_style_set_arc_color
 1012              		.syntax unified
 1013              		.thumb
 1014              		.thumb_func
 1016              	lv_style_set_arc_color:
 1017              		@ args = 0, pretend = 0, frame = 0
 1018              		@ frame_needed = 0, uses_anonymous_args = 0
 1019 0000 08B5     		push	{r3, lr}
 1020 0002 8AB2     		uxth	r2, r1
 1021 0004 5221     		movs	r1, #82
 1022 0006 FFF7FEFF 		bl	lv_style_set_prop
 1023 000a 08BD     		pop	{r3, pc}
 1025              		.section	.text.lv_style_set_arc_opa,"ax",%progbits
 1026              		.align	1
 1027              		.global	lv_style_set_arc_opa
 1028              		.syntax unified
 1029              		.thumb
 1030              		.thumb_func
 1032              	lv_style_set_arc_opa:
 1033              		@ args = 0, pretend = 0, frame = 0
 1034              		@ frame_needed = 0, uses_anonymous_args = 0
 1035 0000 08B5     		push	{r3, lr}
 1036 0002 0A46     		mov	r2, r1
 1037 0004 5321     		movs	r1, #83
 1038 0006 FFF7FEFF 		bl	lv_style_set_prop
 1039 000a 08BD     		pop	{r3, pc}
ARM GAS  /var/folders/lp/x54gwt890xv47sdkqj1k04q40000gn/T//ccr88gD4.s 			page 17


 1041              		.section	.text.lv_style_set_arc_img_src,"ax",%progbits
 1042              		.align	1
 1043              		.global	lv_style_set_arc_img_src
 1044              		.syntax unified
 1045              		.thumb
 1046              		.thumb_func
 1048              	lv_style_set_arc_img_src:
 1049              		@ args = 0, pretend = 0, frame = 0
 1050              		@ frame_needed = 0, uses_anonymous_args = 0
 1051 0000 08B5     		push	{r3, lr}
 1052 0002 0A46     		mov	r2, r1
 1053 0004 5421     		movs	r1, #84
 1054 0006 FFF7FEFF 		bl	lv_style_set_prop
 1055 000a 08BD     		pop	{r3, pc}
 1057              		.section	.text.lv_style_set_text_color,"ax",%progbits
 1058              		.align	1
 1059              		.global	lv_style_set_text_color
 1060              		.syntax unified
 1061              		.thumb
 1062              		.thumb_func
 1064              	lv_style_set_text_color:
 1065              		@ args = 0, pretend = 0, frame = 0
 1066              		@ frame_needed = 0, uses_anonymous_args = 0
 1067 0000 08B5     		push	{r3, lr}
 1068 0002 8AB2     		uxth	r2, r1
 1069 0004 5521     		movs	r1, #85
 1070 0006 FFF7FEFF 		bl	lv_style_set_prop
 1071 000a 08BD     		pop	{r3, pc}
 1073              		.section	.text.lv_style_set_text_opa,"ax",%progbits
 1074              		.align	1
 1075              		.global	lv_style_set_text_opa
 1076              		.syntax unified
 1077              		.thumb
 1078              		.thumb_func
 1080              	lv_style_set_text_opa:
 1081              		@ args = 0, pretend = 0, frame = 0
 1082              		@ frame_needed = 0, uses_anonymous_args = 0
 1083 0000 08B5     		push	{r3, lr}
 1084 0002 0A46     		mov	r2, r1
 1085 0004 5621     		movs	r1, #86
 1086 0006 FFF7FEFF 		bl	lv_style_set_prop
 1087 000a 08BD     		pop	{r3, pc}
 1089              		.section	.text.lv_style_set_text_font,"ax",%progbits
 1090              		.align	1
 1091              		.global	lv_style_set_text_font
 1092              		.syntax unified
 1093              		.thumb
 1094              		.thumb_func
 1096              	lv_style_set_text_font:
 1097              		@ args = 0, pretend = 0, frame = 0
 1098              		@ frame_needed = 0, uses_anonymous_args = 0
 1099 0000 08B5     		push	{r3, lr}
 1100 0002 0A46     		mov	r2, r1
 1101 0004 5721     		movs	r1, #87
 1102 0006 FFF7FEFF 		bl	lv_style_set_prop
 1103 000a 08BD     		pop	{r3, pc}
 1105              		.section	.text.lv_style_set_text_letter_space,"ax",%progbits
ARM GAS  /var/folders/lp/x54gwt890xv47sdkqj1k04q40000gn/T//ccr88gD4.s 			page 18


 1106              		.align	1
 1107              		.global	lv_style_set_text_letter_space
 1108              		.syntax unified
 1109              		.thumb
 1110              		.thumb_func
 1112              	lv_style_set_text_letter_space:
 1113              		@ args = 0, pretend = 0, frame = 0
 1114              		@ frame_needed = 0, uses_anonymous_args = 0
 1115 0000 08B5     		push	{r3, lr}
 1116 0002 0A46     		mov	r2, r1
 1117 0004 5821     		movs	r1, #88
 1118 0006 FFF7FEFF 		bl	lv_style_set_prop
 1119 000a 08BD     		pop	{r3, pc}
 1121              		.section	.text.lv_style_set_text_line_space,"ax",%progbits
 1122              		.align	1
 1123              		.global	lv_style_set_text_line_space
 1124              		.syntax unified
 1125              		.thumb
 1126              		.thumb_func
 1128              	lv_style_set_text_line_space:
 1129              		@ args = 0, pretend = 0, frame = 0
 1130              		@ frame_needed = 0, uses_anonymous_args = 0
 1131 0000 08B5     		push	{r3, lr}
 1132 0002 0A46     		mov	r2, r1
 1133 0004 5921     		movs	r1, #89
 1134 0006 FFF7FEFF 		bl	lv_style_set_prop
 1135 000a 08BD     		pop	{r3, pc}
 1137              		.section	.text.lv_style_set_text_decor,"ax",%progbits
 1138              		.align	1
 1139              		.global	lv_style_set_text_decor
 1140              		.syntax unified
 1141              		.thumb
 1142              		.thumb_func
 1144              	lv_style_set_text_decor:
 1145              		@ args = 0, pretend = 0, frame = 0
 1146              		@ frame_needed = 0, uses_anonymous_args = 0
 1147 0000 08B5     		push	{r3, lr}
 1148 0002 0A46     		mov	r2, r1
 1149 0004 5A21     		movs	r1, #90
 1150 0006 FFF7FEFF 		bl	lv_style_set_prop
 1151 000a 08BD     		pop	{r3, pc}
 1153              		.section	.text.lv_style_set_text_align,"ax",%progbits
 1154              		.align	1
 1155              		.global	lv_style_set_text_align
 1156              		.syntax unified
 1157              		.thumb
 1158              		.thumb_func
 1160              	lv_style_set_text_align:
 1161              		@ args = 0, pretend = 0, frame = 0
 1162              		@ frame_needed = 0, uses_anonymous_args = 0
 1163 0000 08B5     		push	{r3, lr}
 1164 0002 0A46     		mov	r2, r1
 1165 0004 5B21     		movs	r1, #91
 1166 0006 FFF7FEFF 		bl	lv_style_set_prop
 1167 000a 08BD     		pop	{r3, pc}
 1169              		.section	.text.lv_style_set_radius,"ax",%progbits
 1170              		.align	1
ARM GAS  /var/folders/lp/x54gwt890xv47sdkqj1k04q40000gn/T//ccr88gD4.s 			page 19


 1171              		.global	lv_style_set_radius
 1172              		.syntax unified
 1173              		.thumb
 1174              		.thumb_func
 1176              	lv_style_set_radius:
 1177              		@ args = 0, pretend = 0, frame = 0
 1178              		@ frame_needed = 0, uses_anonymous_args = 0
 1179 0000 08B5     		push	{r3, lr}
 1180 0002 0A46     		mov	r2, r1
 1181 0004 0B21     		movs	r1, #11
 1182 0006 FFF7FEFF 		bl	lv_style_set_prop
 1183 000a 08BD     		pop	{r3, pc}
 1185              		.section	.text.lv_style_set_clip_corner,"ax",%progbits
 1186              		.align	1
 1187              		.global	lv_style_set_clip_corner
 1188              		.syntax unified
 1189              		.thumb
 1190              		.thumb_func
 1192              	lv_style_set_clip_corner:
 1193              		@ args = 0, pretend = 0, frame = 0
 1194              		@ frame_needed = 0, uses_anonymous_args = 0
 1195 0000 08B5     		push	{r3, lr}
 1196 0002 0A46     		mov	r2, r1
 1197 0004 1721     		movs	r1, #23
 1198 0006 FFF7FEFF 		bl	lv_style_set_prop
 1199 000a 08BD     		pop	{r3, pc}
 1201              		.section	.text.lv_style_set_opa,"ax",%progbits
 1202              		.align	1
 1203              		.global	lv_style_set_opa
 1204              		.syntax unified
 1205              		.thumb
 1206              		.thumb_func
 1208              	lv_style_set_opa:
 1209              		@ args = 0, pretend = 0, frame = 0
 1210              		@ frame_needed = 0, uses_anonymous_args = 0
 1211 0000 08B5     		push	{r3, lr}
 1212 0002 0A46     		mov	r2, r1
 1213 0004 6021     		movs	r1, #96
 1214 0006 FFF7FEFF 		bl	lv_style_set_prop
 1215 000a 08BD     		pop	{r3, pc}
 1217              		.section	.text.lv_style_set_opa_layered,"ax",%progbits
 1218              		.align	1
 1219              		.global	lv_style_set_opa_layered
 1220              		.syntax unified
 1221              		.thumb
 1222              		.thumb_func
 1224              	lv_style_set_opa_layered:
 1225              		@ args = 0, pretend = 0, frame = 0
 1226              		@ frame_needed = 0, uses_anonymous_args = 0
 1227 0000 08B5     		push	{r3, lr}
 1228 0002 0A46     		mov	r2, r1
 1229 0004 6121     		movs	r1, #97
 1230 0006 FFF7FEFF 		bl	lv_style_set_prop
 1231 000a 08BD     		pop	{r3, pc}
 1233              		.section	.text.lv_style_set_color_filter_dsc,"ax",%progbits
 1234              		.align	1
 1235              		.global	lv_style_set_color_filter_dsc
ARM GAS  /var/folders/lp/x54gwt890xv47sdkqj1k04q40000gn/T//ccr88gD4.s 			page 20


 1236              		.syntax unified
 1237              		.thumb
 1238              		.thumb_func
 1240              	lv_style_set_color_filter_dsc:
 1241              		@ args = 0, pretend = 0, frame = 0
 1242              		@ frame_needed = 0, uses_anonymous_args = 0
 1243 0000 08B5     		push	{r3, lr}
 1244 0002 0A46     		mov	r2, r1
 1245 0004 6221     		movs	r1, #98
 1246 0006 FFF7FEFF 		bl	lv_style_set_prop
 1247 000a 08BD     		pop	{r3, pc}
 1249              		.section	.text.lv_style_set_color_filter_opa,"ax",%progbits
 1250              		.align	1
 1251              		.global	lv_style_set_color_filter_opa
 1252              		.syntax unified
 1253              		.thumb
 1254              		.thumb_func
 1256              	lv_style_set_color_filter_opa:
 1257              		@ args = 0, pretend = 0, frame = 0
 1258              		@ frame_needed = 0, uses_anonymous_args = 0
 1259 0000 08B5     		push	{r3, lr}
 1260 0002 0A46     		mov	r2, r1
 1261 0004 6321     		movs	r1, #99
 1262 0006 FFF7FEFF 		bl	lv_style_set_prop
 1263 000a 08BD     		pop	{r3, pc}
 1265              		.section	.text.lv_style_set_anim,"ax",%progbits
 1266              		.align	1
 1267              		.global	lv_style_set_anim
 1268              		.syntax unified
 1269              		.thumb
 1270              		.thumb_func
 1272              	lv_style_set_anim:
 1273              		@ args = 0, pretend = 0, frame = 0
 1274              		@ frame_needed = 0, uses_anonymous_args = 0
 1275 0000 08B5     		push	{r3, lr}
 1276 0002 0A46     		mov	r2, r1
 1277 0004 6421     		movs	r1, #100
 1278 0006 FFF7FEFF 		bl	lv_style_set_prop
 1279 000a 08BD     		pop	{r3, pc}
 1281              		.section	.text.lv_style_set_anim_time,"ax",%progbits
 1282              		.align	1
 1283              		.global	lv_style_set_anim_time
 1284              		.syntax unified
 1285              		.thumb
 1286              		.thumb_func
 1288              	lv_style_set_anim_time:
 1289              		@ args = 0, pretend = 0, frame = 0
 1290              		@ frame_needed = 0, uses_anonymous_args = 0
 1291 0000 08B5     		push	{r3, lr}
 1292 0002 0A46     		mov	r2, r1
 1293 0004 6521     		movs	r1, #101
 1294 0006 FFF7FEFF 		bl	lv_style_set_prop
 1295 000a 08BD     		pop	{r3, pc}
 1297              		.section	.text.lv_style_set_anim_speed,"ax",%progbits
 1298              		.align	1
 1299              		.global	lv_style_set_anim_speed
 1300              		.syntax unified
ARM GAS  /var/folders/lp/x54gwt890xv47sdkqj1k04q40000gn/T//ccr88gD4.s 			page 21


 1301              		.thumb
 1302              		.thumb_func
 1304              	lv_style_set_anim_speed:
 1305              		@ args = 0, pretend = 0, frame = 0
 1306              		@ frame_needed = 0, uses_anonymous_args = 0
 1307 0000 08B5     		push	{r3, lr}
 1308 0002 0A46     		mov	r2, r1
 1309 0004 6621     		movs	r1, #102
 1310 0006 FFF7FEFF 		bl	lv_style_set_prop
 1311 000a 08BD     		pop	{r3, pc}
 1313              		.section	.text.lv_style_set_transition,"ax",%progbits
 1314              		.align	1
 1315              		.global	lv_style_set_transition
 1316              		.syntax unified
 1317              		.thumb
 1318              		.thumb_func
 1320              	lv_style_set_transition:
 1321              		@ args = 0, pretend = 0, frame = 0
 1322              		@ frame_needed = 0, uses_anonymous_args = 0
 1323 0000 08B5     		push	{r3, lr}
 1324 0002 0A46     		mov	r2, r1
 1325 0004 6721     		movs	r1, #103
 1326 0006 FFF7FEFF 		bl	lv_style_set_prop
 1327 000a 08BD     		pop	{r3, pc}
 1329              		.section	.text.lv_style_set_blend_mode,"ax",%progbits
 1330              		.align	1
 1331              		.global	lv_style_set_blend_mode
 1332              		.syntax unified
 1333              		.thumb
 1334              		.thumb_func
 1336              	lv_style_set_blend_mode:
 1337              		@ args = 0, pretend = 0, frame = 0
 1338              		@ frame_needed = 0, uses_anonymous_args = 0
 1339 0000 08B5     		push	{r3, lr}
 1340 0002 0A46     		mov	r2, r1
 1341 0004 6821     		movs	r1, #104
 1342 0006 FFF7FEFF 		bl	lv_style_set_prop
 1343 000a 08BD     		pop	{r3, pc}
 1345              		.section	.text.lv_style_set_layout,"ax",%progbits
 1346              		.align	1
 1347              		.global	lv_style_set_layout
 1348              		.syntax unified
 1349              		.thumb
 1350              		.thumb_func
 1352              	lv_style_set_layout:
 1353              		@ args = 0, pretend = 0, frame = 0
 1354              		@ frame_needed = 0, uses_anonymous_args = 0
 1355 0000 08B5     		push	{r3, lr}
 1356 0002 0A46     		mov	r2, r1
 1357 0004 0A21     		movs	r1, #10
 1358 0006 FFF7FEFF 		bl	lv_style_set_prop
 1359 000a 08BD     		pop	{r3, pc}
 1361              		.section	.text.lv_style_set_base_dir,"ax",%progbits
 1362              		.align	1
 1363              		.global	lv_style_set_base_dir
 1364              		.syntax unified
 1365              		.thumb
ARM GAS  /var/folders/lp/x54gwt890xv47sdkqj1k04q40000gn/T//ccr88gD4.s 			page 22


 1366              		.thumb_func
 1368              	lv_style_set_base_dir:
 1369              		@ args = 0, pretend = 0, frame = 0
 1370              		@ frame_needed = 0, uses_anonymous_args = 0
 1371 0000 08B5     		push	{r3, lr}
 1372 0002 0A46     		mov	r2, r1
 1373 0004 1621     		movs	r1, #22
 1374 0006 FFF7FEFF 		bl	lv_style_set_prop
 1375 000a 08BD     		pop	{r3, pc}
 1377              		.ident	"GCC: (xPack GNU Arm Embedded GCC arm64) 13.3.1 20240614"
ARM GAS  /var/folders/lp/x54gwt890xv47sdkqj1k04q40000gn/T//ccr88gD4.s 			page 23

