ARM GAS  /var/folders/lp/x54gwt890xv47sdkqj1k04q40000gn/T//ccr1r41z.s 			page 1


   1              		.cpu cortex-m4
   2              		.arch armv7e-m
   3              		.fpu fpv4-sp-d16
   4              		.eabi_attribute 27, 1
   5              		.eabi_attribute 28, 1
   6              		.eabi_attribute 20, 1
   7              		.eabi_attribute 21, 1
   8              		.eabi_attribute 23, 3
   9              		.eabi_attribute 24, 1
  10              		.eabi_attribute 25, 1
  11              		.eabi_attribute 26, 1
  12              		.eabi_attribute 30, 1
  13              		.eabi_attribute 34, 1
  14              		.eabi_attribute 18, 4
  15              		.file	"lv_span.c"
  16              		.text
  17              		.section	.text.lv_get_snippet_cnt,"ax",%progbits
  18              		.align	1
  19              		.syntax unified
  20              		.thumb
  21              		.thumb_func
  23              	lv_get_snippet_cnt:
  24              		@ args = 0, pretend = 0, frame = 0
  25              		@ frame_needed = 0, uses_anonymous_args = 0
  26              		@ link register save eliminated.
  27 0000 014B     		ldr	r3, .L2
  28 0002 B3F80005 		ldrh	r0, [r3, #1280]
  29 0006 7047     		bx	lr
  30              	.L3:
  31              		.align	2
  32              	.L2:
  33 0008 00000000 		.word	snippet_stack
  35              		.section	.text.lv_get_snippet,"ax",%progbits
  36              		.align	1
  37              		.syntax unified
  38              		.thumb
  39              		.thumb_func
  41              	lv_get_snippet:
  42              		@ args = 0, pretend = 0, frame = 0
  43              		@ frame_needed = 0, uses_anonymous_args = 0
  44              		@ link register save eliminated.
  45 0000 00EB8000 		add	r0, r0, r0, lsl #2
  46 0004 014B     		ldr	r3, .L5
  47 0006 03EB8000 		add	r0, r3, r0, lsl #2
  48 000a 7047     		bx	lr
  49              	.L6:
  50              		.align	2
  51              	.L5:
  52 000c 00000000 		.word	snippet_stack
  54              		.section	.text.lv_snippet_clear,"ax",%progbits
  55              		.align	1
  56              		.syntax unified
  57              		.thumb
  58              		.thumb_func
  60              	lv_snippet_clear:
  61              		@ args = 0, pretend = 0, frame = 0
  62              		@ frame_needed = 0, uses_anonymous_args = 0
ARM GAS  /var/folders/lp/x54gwt890xv47sdkqj1k04q40000gn/T//ccr1r41z.s 			page 2


  63              		@ link register save eliminated.
  64 0000 024B     		ldr	r3, .L8
  65 0002 0022     		movs	r2, #0
  66 0004 A3F80025 		strh	r2, [r3, #1280]	@ movhi
  67 0008 7047     		bx	lr
  68              	.L9:
  69 000a 00BF     		.align	2
  70              	.L8:
  71 000c 00000000 		.word	snippet_stack
  73              		.section	.text.convert_indent_pct,"ax",%progbits
  74              		.align	1
  75              		.syntax unified
  76              		.thumb
  77              		.thumb_func
  79              	convert_indent_pct:
  80              		@ args = 0, pretend = 0, frame = 0
  81              		@ frame_needed = 0, uses_anonymous_args = 0
  82              		@ link register save eliminated.
  83 0000 0346     		mov	r3, r0
  84 0002 B0F92800 		ldrsh	r0, [r0, #40]
  85 0006 00F4C042 		and	r2, r0, #24576
  86 000a B2F5005F 		cmp	r2, #8192
  87 000e 00D0     		beq	.L15
  88              	.L11:
  89 0010 7047     		bx	lr
  90              	.L15:
  91 0012 20F4C042 		bic	r2, r0, #24576
  92 0016 B2F5FA6F 		cmp	r2, #2000
  93 001a F9DC     		bgt	.L11
  94 001c 93F83C30 		ldrb	r3, [r3, #60]	@ zero_extendqisi2
  95 0020 03F00303 		and	r3, r3, #3
  96 0024 012B     		cmp	r3, #1
  97 0026 0ED0     		beq	.L14
  98 0028 B2F57A7F 		cmp	r2, #1000
  99 002c 01DD     		ble	.L13
 100 002e C2F57A72 		rsb	r2, r2, #1000
 101              	.L13:
 102 0032 02FB01F1 		mul	r1, r2, r1
 103 0036 054B     		ldr	r3, .L16
 104 0038 83FB0123 		smull	r2, r3, r3, r1
 105 003c C917     		asrs	r1, r1, #31
 106 003e C1EB6311 		rsb	r1, r1, r3, asr #5
 107 0042 08B2     		sxth	r0, r1
 108 0044 7047     		bx	lr
 109              	.L14:
 110 0046 0020     		movs	r0, #0
 111 0048 E2E7     		b	.L11
 112              	.L17:
 113 004a 00BF     		.align	2
 114              	.L16:
 115 004c 1F85EB51 		.word	1374389535
 117              		.section	.text.lv_span_get_style_text_letter_space,"ax",%progbits
 118              		.align	1
 119              		.syntax unified
 120              		.thumb
 121              		.thumb_func
 123              	lv_span_get_style_text_letter_space:
ARM GAS  /var/folders/lp/x54gwt890xv47sdkqj1k04q40000gn/T//ccr1r41z.s 			page 3


 124              		@ args = 0, pretend = 0, frame = 8
 125              		@ frame_needed = 0, uses_anonymous_args = 0
 126 0000 10B5     		push	{r4, lr}
 127 0002 82B0     		sub	sp, sp, #8
 128 0004 0446     		mov	r4, r0
 129 0006 0846     		mov	r0, r1
 130 0008 01AA     		add	r2, sp, #4
 131 000a 5821     		movs	r1, #88
 132 000c 0830     		adds	r0, r0, #8
 133 000e FFF7FEFF 		bl	lv_style_get_prop
 134 0012 0128     		cmp	r0, #1
 135 0014 03D1     		bne	.L22
 136 0016 BDF90400 		ldrsh	r0, [sp, #4]
 137              	.L20:
 138 001a 02B0     		add	sp, sp, #8
 139              		@ sp needed
 140 001c 10BD     		pop	{r4, pc}
 141              	.L22:
 142 001e 5822     		movs	r2, #88
 143 0020 0021     		movs	r1, #0
 144 0022 2046     		mov	r0, r4
 145 0024 FFF7FEFF 		bl	lv_obj_get_style_prop
 146 0028 00B2     		sxth	r0, r0
 147 002a F6E7     		b	.L20
 149              		.section	.text.lv_span_get_style_text_color,"ax",%progbits
 150              		.align	1
 151              		.syntax unified
 152              		.thumb
 153              		.thumb_func
 155              	lv_span_get_style_text_color:
 156              		@ args = 0, pretend = 0, frame = 8
 157              		@ frame_needed = 0, uses_anonymous_args = 0
 158 0000 10B5     		push	{r4, lr}
 159 0002 82B0     		sub	sp, sp, #8
 160 0004 0446     		mov	r4, r0
 161 0006 0846     		mov	r0, r1
 162 0008 01AA     		add	r2, sp, #4
 163 000a 5521     		movs	r1, #85
 164 000c 0830     		adds	r0, r0, #8
 165 000e FFF7FEFF 		bl	lv_style_get_prop
 166 0012 0128     		cmp	r0, #1
 167 0014 03D1     		bne	.L26
 168              	.L24:
 169 0016 BDF80400 		ldrh	r0, [sp, #4]
 170 001a 02B0     		add	sp, sp, #8
 171              		@ sp needed
 172 001c 10BD     		pop	{r4, pc}
 173              	.L26:
 174 001e 5522     		movs	r2, #85
 175 0020 0021     		movs	r1, #0
 176 0022 2046     		mov	r0, r4
 177 0024 FFF7FEFF 		bl	lv_obj_get_style_prop
 178 0028 ADF80400 		strh	r0, [sp, #4]	@ movhi
 179 002c F3E7     		b	.L24
 181              		.section	.text.lv_span_get_style_text_opa,"ax",%progbits
 182              		.align	1
 183              		.syntax unified
ARM GAS  /var/folders/lp/x54gwt890xv47sdkqj1k04q40000gn/T//ccr1r41z.s 			page 4


 184              		.thumb
 185              		.thumb_func
 187              	lv_span_get_style_text_opa:
 188              		@ args = 0, pretend = 0, frame = 8
 189              		@ frame_needed = 0, uses_anonymous_args = 0
 190 0000 10B5     		push	{r4, lr}
 191 0002 82B0     		sub	sp, sp, #8
 192 0004 0446     		mov	r4, r0
 193 0006 0846     		mov	r0, r1
 194 0008 01AA     		add	r2, sp, #4
 195 000a 5621     		movs	r1, #86
 196 000c 0830     		adds	r0, r0, #8
 197 000e FFF7FEFF 		bl	lv_style_get_prop
 198 0012 0128     		cmp	r0, #1
 199 0014 03D1     		bne	.L31
 200 0016 9DF80400 		ldrb	r0, [sp, #4]	@ zero_extendqisi2
 201              	.L29:
 202 001a 02B0     		add	sp, sp, #8
 203              		@ sp needed
 204 001c 10BD     		pop	{r4, pc}
 205              	.L31:
 206 001e 5622     		movs	r2, #86
 207 0020 0021     		movs	r1, #0
 208 0022 2046     		mov	r0, r4
 209 0024 FFF7FEFF 		bl	lv_obj_get_style_prop
 210 0028 C0B2     		uxtb	r0, r0
 211 002a F6E7     		b	.L29
 213              		.section	.text.lv_span_get_style_text_font,"ax",%progbits
 214              		.align	1
 215              		.syntax unified
 216              		.thumb
 217              		.thumb_func
 219              	lv_span_get_style_text_font:
 220              		@ args = 0, pretend = 0, frame = 8
 221              		@ frame_needed = 0, uses_anonymous_args = 0
 222 0000 10B5     		push	{r4, lr}
 223 0002 82B0     		sub	sp, sp, #8
 224 0004 0446     		mov	r4, r0
 225 0006 0846     		mov	r0, r1
 226 0008 01AA     		add	r2, sp, #4
 227 000a 5721     		movs	r1, #87
 228 000c 0830     		adds	r0, r0, #8
 229 000e FFF7FEFF 		bl	lv_style_get_prop
 230 0012 0128     		cmp	r0, #1
 231 0014 02D1     		bne	.L36
 232 0016 0198     		ldr	r0, [sp, #4]
 233              	.L32:
 234 0018 02B0     		add	sp, sp, #8
 235              		@ sp needed
 236 001a 10BD     		pop	{r4, pc}
 237              	.L36:
 238 001c 5722     		movs	r2, #87
 239 001e 0021     		movs	r1, #0
 240 0020 2046     		mov	r0, r4
 241 0022 FFF7FEFF 		bl	lv_obj_get_style_prop
 242 0026 F7E7     		b	.L32
 244              		.section	.text.lv_span_get_style_text_blend_mode,"ax",%progbits
ARM GAS  /var/folders/lp/x54gwt890xv47sdkqj1k04q40000gn/T//ccr1r41z.s 			page 5


 245              		.align	1
 246              		.syntax unified
 247              		.thumb
 248              		.thumb_func
 250              	lv_span_get_style_text_blend_mode:
 251              		@ args = 0, pretend = 0, frame = 8
 252              		@ frame_needed = 0, uses_anonymous_args = 0
 253 0000 10B5     		push	{r4, lr}
 254 0002 82B0     		sub	sp, sp, #8
 255 0004 0446     		mov	r4, r0
 256 0006 0846     		mov	r0, r1
 257 0008 01AA     		add	r2, sp, #4
 258 000a 6821     		movs	r1, #104
 259 000c 0830     		adds	r0, r0, #8
 260 000e FFF7FEFF 		bl	lv_style_get_prop
 261 0012 0128     		cmp	r0, #1
 262 0014 03D1     		bne	.L41
 263 0016 9DF80400 		ldrb	r0, [sp, #4]	@ zero_extendqisi2
 264              	.L39:
 265 001a 02B0     		add	sp, sp, #8
 266              		@ sp needed
 267 001c 10BD     		pop	{r4, pc}
 268              	.L41:
 269 001e 6822     		movs	r2, #104
 270 0020 0021     		movs	r1, #0
 271 0022 2046     		mov	r0, r4
 272 0024 FFF7FEFF 		bl	lv_obj_get_style_prop
 273 0028 C0B2     		uxtb	r0, r0
 274 002a F6E7     		b	.L39
 276              		.section	.text.lv_span_get_style_text_decor,"ax",%progbits
 277              		.align	1
 278              		.syntax unified
 279              		.thumb
 280              		.thumb_func
 282              	lv_span_get_style_text_decor:
 283              		@ args = 0, pretend = 0, frame = 8
 284              		@ frame_needed = 0, uses_anonymous_args = 0
 285 0000 10B5     		push	{r4, lr}
 286 0002 82B0     		sub	sp, sp, #8
 287 0004 0446     		mov	r4, r0
 288 0006 0846     		mov	r0, r1
 289 0008 01AA     		add	r2, sp, #4
 290 000a 5A21     		movs	r1, #90
 291 000c 0830     		adds	r0, r0, #8
 292 000e FFF7FEFF 		bl	lv_style_get_prop
 293 0012 0128     		cmp	r0, #1
 294 0014 02D1     		bne	.L46
 295 0016 0198     		ldr	r0, [sp, #4]
 296              	.L42:
 297 0018 02B0     		add	sp, sp, #8
 298              		@ sp needed
 299 001a 10BD     		pop	{r4, pc}
 300              	.L46:
 301 001c 5A22     		movs	r2, #90
 302 001e 0021     		movs	r1, #0
 303 0020 2046     		mov	r0, r4
 304 0022 FFF7FEFF 		bl	lv_obj_get_style_prop
ARM GAS  /var/folders/lp/x54gwt890xv47sdkqj1k04q40000gn/T//ccr1r41z.s 			page 6


 305 0026 C0B2     		uxtb	r0, r0
 306 0028 F6E7     		b	.L42
 308              		.section	.text.lv_txt_get_snippet,"ax",%progbits
 309              		.align	1
 310              		.syntax unified
 311              		.thumb
 312              		.thumb_func
 314              	lv_txt_get_snippet:
 315              		@ args = 12, pretend = 0, frame = 0
 316              		@ frame_needed = 0, uses_anonymous_args = 0
 317 0000 70B5     		push	{r4, r5, r6, lr}
 318 0002 82B0     		sub	sp, sp, #8
 319 0004 079C     		ldr	r4, [sp, #28]
 320 0006 18B1     		cbz	r0, .L48
 321 0008 1D46     		mov	r5, r3
 322 000a 0646     		mov	r6, r0
 323 000c 0378     		ldrb	r3, [r0]	@ zero_extendqisi2
 324 000e 2BB9     		cbnz	r3, .L49
 325              	.L48:
 326 0010 0020     		movs	r0, #0
 327 0012 089B     		ldr	r3, [sp, #32]
 328 0014 1860     		str	r0, [r3]
 329 0016 2080     		strh	r0, [r4]	@ movhi
 330              	.L50:
 331 0018 02B0     		add	sp, sp, #8
 332              		@ sp needed
 333 001a 70BD     		pop	{r4, r5, r6, pc}
 334              	.L49:
 335 001c 9DF81830 		ldrb	r3, [sp, #24]	@ zero_extendqisi2
 336 0020 0193     		str	r3, [sp, #4]
 337 0022 0094     		str	r4, [sp]
 338 0024 2B46     		mov	r3, r5
 339 0026 FFF7FEFF 		bl	_lv_txt_get_next_line
 340 002a 089B     		ldr	r3, [sp, #32]
 341 002c 1860     		str	r0, [r3]
 342 002e 335C     		ldrb	r3, [r6, r0]	@ zero_extendqisi2
 343 0030 2BB9     		cbnz	r3, .L51
 344 0032 B4F90030 		ldrsh	r3, [r4]
 345 0036 AB42     		cmp	r3, r5
 346 0038 03DB     		blt	.L52
 347 003a 0120     		movs	r0, #1
 348 003c ECE7     		b	.L50
 349              	.L51:
 350 003e 0120     		movs	r0, #1
 351 0040 EAE7     		b	.L50
 352              	.L52:
 353 0042 0020     		movs	r0, #0
 354 0044 E8E7     		b	.L50
 356              		.section	.text.lv_snippet_push,"ax",%progbits
 357              		.align	1
 358              		.syntax unified
 359              		.thumb
 360              		.thumb_func
 362              	lv_snippet_push:
 363              		@ args = 0, pretend = 0, frame = 0
 364              		@ frame_needed = 0, uses_anonymous_args = 0
 365 0000 104B     		ldr	r3, .L61
ARM GAS  /var/folders/lp/x54gwt890xv47sdkqj1k04q40000gn/T//ccr1r41z.s 			page 7


 366 0002 B3F80035 		ldrh	r3, [r3, #1280]
 367 0006 3F2B     		cmp	r3, #63
 368 0008 00D9     		bls	.L60
 369 000a 7047     		bx	lr
 370              	.L60:
 371 000c 30B5     		push	{r4, r5, lr}
 372 000e 03EB8303 		add	r3, r3, r3, lsl #2
 373 0012 0C4A     		ldr	r2, .L61
 374 0014 02EB8301 		add	r1, r2, r3, lsl #2
 375 0018 D0F800C0 		ldr	ip, [r0]	@ unaligned
 376 001c 4568     		ldr	r5, [r0, #4]	@ unaligned
 377 001e 8468     		ldr	r4, [r0, #8]	@ unaligned
 378 0020 D0F80CE0 		ldr	lr, [r0, #12]	@ unaligned
 379 0024 42F823C0 		str	ip, [r2, r3, lsl #2]	@ unaligned
 380 0028 4D60     		str	r5, [r1, #4]	@ unaligned
 381 002a 8C60     		str	r4, [r1, #8]	@ unaligned
 382 002c C1F80CE0 		str	lr, [r1, #12]	@ unaligned
 383 0030 D0F810C0 		ldr	ip, [r0, #16]	@ unaligned
 384 0034 C1F810C0 		str	ip, [r1, #16]	@ unaligned
 385 0038 B2F80035 		ldrh	r3, [r2, #1280]
 386 003c 0133     		adds	r3, r3, #1
 387 003e A2F80035 		strh	r3, [r2, #1280]	@ movhi
 388 0042 30BD     		pop	{r4, r5, pc}
 389              	.L62:
 390              		.align	2
 391              	.L61:
 392 0044 00000000 		.word	snippet_stack
 394              		.section	.rodata.lv_draw_span.str1.4,"aMS",%progbits,1
 395              		.align	2
 396              	.LC0:
 397 0000 00       		.ascii	"\000"
 398 0001 000000   		.align	2
 399              	.LC1:
 400 0004 202C2E3B 		.ascii	" ,.;:-_\000"
 400      3A2D5F00 
 401              		.section	.text.lv_draw_span,"ax",%progbits
 402              		.align	1
 403              		.syntax unified
 404              		.thumb
 405              		.thumb_func
 407              	lv_draw_span:
 408              		@ args = 0, pretend = 0, frame = 192
 409              		@ frame_needed = 0, uses_anonymous_args = 0
 410 0000 2DE9F04F 		push	{r4, r5, r6, r7, r8, r9, r10, fp, lr}
 411 0004 B5B0     		sub	sp, sp, #212
 412 0006 0446     		mov	r4, r0
 413 0008 0690     		str	r0, [sp, #24]
 414 000a 8B46     		mov	fp, r1
 415 000c 32A9     		add	r1, sp, #200
 416 000e FFF7FEFF 		bl	lv_obj_get_content_coords
 417 0012 04F13003 		add	r3, r4, #48
 418 0016 0C93     		str	r3, [sp, #48]
 419 0018 9846     		mov	r8, r3
 420 001a 1846     		mov	r0, r3
 421 001c FFF7FEFF 		bl	_lv_ll_get_head
 422 0020 38B1     		cbz	r0, .L63
 423 0022 DBF80820 		ldr	r2, [fp, #8]
ARM GAS  /var/folders/lp/x54gwt890xv47sdkqj1k04q40000gn/T//ccr1r41z.s 			page 8


 424 0026 32A9     		add	r1, sp, #200
 425 0028 30A8     		add	r0, sp, #192
 426 002a FFF7FEFF 		bl	_lv_area_intersect
 427 002e 1490     		str	r0, [sp, #80]
 428 0030 10B9     		cbnz	r0, .L134
 429              	.L63:
 430 0032 35B0     		add	sp, sp, #212
 431              		@ sp needed
 432 0034 BDE8F08F 		pop	{r4, r5, r6, r7, r8, r9, r10, fp, pc}
 433              	.L134:
 434 0038 DBF80860 		ldr	r6, [fp, #8]
 435 003c 30AB     		add	r3, sp, #192
 436 003e CBF80830 		str	r3, [fp, #8]
 437 0042 5922     		movs	r2, #89
 438 0044 0021     		movs	r1, #0
 439 0046 A146     		mov	r9, r4
 440 0048 2046     		mov	r0, r4
 441 004a FFF7FEFF 		bl	lv_obj_get_style_prop
 442 004e 1190     		str	r0, [sp, #68]
 443 0050 02B2     		sxth	r2, r0
 444 0052 1292     		str	r2, [sp, #72]
 445 0054 BDF8CC30 		ldrh	r3, [sp, #204]
 446 0058 BDF8C820 		ldrh	r2, [sp, #200]
 447 005c 9B1A     		subs	r3, r3, r2
 448 005e 9BB2     		uxth	r3, r3
 449 0060 0133     		adds	r3, r3, #1
 450 0062 9FB2     		uxth	r7, r3
 451 0064 0F97     		str	r7, [sp, #60]
 452 0066 1AB2     		sxth	r2, r3
 453 0068 1392     		str	r2, [sp, #76]
 454 006a 1146     		mov	r1, r2
 455 006c 2046     		mov	r0, r4
 456 006e FFF7FEFF 		bl	convert_indent_pct
 457 0072 1990     		str	r0, [sp, #100]
 458 0074 85B2     		uxth	r5, r0
 459 0076 7C1B     		subs	r4, r7, r5
 460 0078 24B2     		sxth	r4, r4
 461 007a 0021     		movs	r1, #0
 462 007c 4846     		mov	r0, r9
 463 007e FFF7FEFF 		bl	lv_obj_get_style_opa_recursive
 464 0082 1090     		str	r0, [sp, #64]
 465 0084 BDF9CA30 		ldrsh	r3, [sp, #202]
 466 0088 ADF8BE30 		strh	r3, [sp, #190]	@ movhi
 467 008c BDF8C830 		ldrh	r3, [sp, #200]
 468 0090 1D44     		add	r5, r5, r3
 469 0092 ADF8BC50 		strh	r5, [sp, #188]	@ movhi
 470 0096 4046     		mov	r0, r8
 471 0098 FFF7FEFF 		bl	_lv_ll_get_head
 472 009c 0790     		str	r0, [sp, #28]
 473 009e D0F80080 		ldr	r8, [r0]
 474 00a2 B8F1000F 		cmp	r8, #0
 475 00a6 0ED0     		beq	.L135
 476              	.L65:
 477 00a8 1421     		movs	r1, #20
 478 00aa 2AA8     		add	r0, sp, #168
 479 00ac FFF7FEFF 		bl	lv_memset_00
 480 00b0 22A8     		add	r0, sp, #136
ARM GAS  /var/folders/lp/x54gwt890xv47sdkqj1k04q40000gn/T//ccr1r41z.s 			page 9


 481 00b2 FFF7FEFF 		bl	lv_draw_label_dsc_init
 482 00b6 149B     		ldr	r3, [sp, #80]
 483 00b8 0593     		str	r3, [sp, #20]
 484 00ba 4FF00009 		mov	r9, #0
 485 00be 4F46     		mov	r7, r9
 486 00c0 1896     		str	r6, [sp, #96]
 487 00c2 4646     		mov	r6, r8
 488 00c4 0AE1     		b	.L66
 489              	.L135:
 490 00c6 DFF8A882 		ldr	r8, .L152
 491 00ca EDE7     		b	.L65
 492              	.L138:
 493 00cc 0799     		ldr	r1, [sp, #28]
 494 00ce 0C98     		ldr	r0, [sp, #48]
 495 00d0 FFF7FEFF 		bl	_lv_ll_get_next
 496 00d4 0790     		str	r0, [sp, #28]
 497 00d6 0028     		cmp	r0, #0
 498 00d8 00F0B780 		beq	.L69
 499 00dc 0668     		ldr	r6, [r0]
 500 00de 0EB1     		cbz	r6, .L136
 501              	.L70:
 502 00e0 0027     		movs	r7, #0
 503 00e2 42E0     		b	.L67
 504              	.L136:
 505 00e4 A24E     		ldr	r6, .L152
 506 00e6 FBE7     		b	.L70
 507              	.L139:
 508 00e8 079B     		ldr	r3, [sp, #28]
 509 00ea 2A93     		str	r3, [sp, #168]
 510 00ec 9946     		mov	r9, r3
 511 00ee 1946     		mov	r1, r3
 512 00f0 069D     		ldr	r5, [sp, #24]
 513 00f2 2846     		mov	r0, r5
 514 00f4 FFF7FEFF 		bl	lv_span_get_style_text_font
 515 00f8 2C90     		str	r0, [sp, #176]
 516 00fa 4946     		mov	r1, r9
 517 00fc 2846     		mov	r0, r5
 518 00fe FFF7FEFF 		bl	lv_span_get_style_text_letter_space
 519 0102 ADF8BA00 		strh	r0, [sp, #186]	@ movhi
 520 0106 2C9B     		ldr	r3, [sp, #176]
 521 0108 B3F90830 		ldrsh	r3, [r3, #8]
 522 010c 119A     		ldr	r2, [sp, #68]
 523 010e 12FA83F3 		uxtah	r3, r2, r3
 524 0112 ADF8B830 		strh	r3, [sp, #184]	@ movhi
 525 0116 2FE0     		b	.L72
 526              	.L75:
 527 0118 A0F59C42 		sub	r2, r0, #19968
 528 011c 45F2A513 		movw	r3, #20901
 529 0120 9A42     		cmp	r2, r3
 530 0122 5AD8     		bhi	.L137
 531              	.L73:
 532 0124 CDF8AC80 		str	r8, [sp, #172]
 533 0128 1E9B     		ldr	r3, [sp, #120]
 534 012a ADF8B430 		strh	r3, [sp, #180]	@ movhi
 535 012e BDF87420 		ldrh	r2, [sp, #116]
 536 0132 ADF8B620 		strh	r2, [sp, #182]	@ movhi
 537 0136 1F44     		add	r7, r7, r3
ARM GAS  /var/folders/lp/x54gwt890xv47sdkqj1k04q40000gn/T//ccr1r41z.s 			page 10


 538 0138 BDF9B830 		ldrsh	r3, [sp, #184]
 539 013c 049A     		ldr	r2, [sp, #16]
 540 013e 9342     		cmp	r3, r2
 541 0140 04DD     		ble	.L86
 542 0142 2C9A     		ldr	r2, [sp, #176]
 543 0144 B2F90A20 		ldrsh	r2, [r2, #10]
 544 0148 0892     		str	r2, [sp, #32]
 545 014a 0493     		str	r3, [sp, #16]
 546              	.L86:
 547 014c 2AA8     		add	r0, sp, #168
 548 014e FFF7FEFF 		bl	lv_snippet_push
 549 0152 BDF87430 		ldrh	r3, [sp, #116]
 550 0156 E41A     		subs	r4, r4, r3
 551 0158 A4B2     		uxth	r4, r4
 552 015a BDF8BA30 		ldrh	r3, [sp, #186]
 553 015e E41A     		subs	r4, r4, r3
 554 0160 24B2     		sxth	r4, r4
 555 0162 002D     		cmp	r5, #0
 556 0164 71D1     		bne	.L69
 557 0166 002C     		cmp	r4, #0
 558 0168 6FDD     		ble	.L69
 559              	.L67:
 560 016a 06EB0708 		add	r8, r6, r7
 561 016e F35D     		ldrb	r3, [r6, r7]	@ zero_extendqisi2
 562 0170 002B     		cmp	r3, #0
 563 0172 ABD0     		beq	.L138
 564 0174 002F     		cmp	r7, #0
 565 0176 B7D0     		beq	.L139
 566              	.L72:
 567 0178 0023     		movs	r3, #0
 568 017a 1E93     		str	r3, [sp, #120]
 569 017c ADF87430 		strh	r3, [sp, #116]	@ movhi
 570 0180 1EAA     		add	r2, sp, #120
 571 0182 0292     		str	r2, [sp, #8]
 572 0184 1DAA     		add	r2, sp, #116
 573 0186 0192     		str	r2, [sp, #4]
 574 0188 0093     		str	r3, [sp]
 575 018a 2346     		mov	r3, r4
 576 018c BDF9BA20 		ldrsh	r2, [sp, #186]
 577 0190 2C99     		ldr	r1, [sp, #176]
 578 0192 4046     		mov	r0, r8
 579 0194 FFF7FEFF 		bl	lv_txt_get_snippet
 580 0198 0546     		mov	r5, r0
 581 019a 0028     		cmp	r0, #0
 582 019c C2D0     		beq	.L73
 583 019e DDF87890 		ldr	r9, [sp, #120]
 584 01a2 B9F1000F 		cmp	r9, #0
 585 01a6 BDD0     		beq	.L73
 586 01a8 FFF7FEFF 		bl	lv_get_snippet_cnt
 587 01ac 0028     		cmp	r0, #0
 588 01ae B9D0     		beq	.L73
 589 01b0 BDF97430 		ldrsh	r3, [sp, #116]
 590 01b4 A342     		cmp	r3, r4
 591 01b6 48DC     		bgt	.L69
 592 01b8 CDF87C90 		str	r9, [sp, #124]
 593 01bc 6D4B     		ldr	r3, .L152+4
 594 01be 1B68     		ldr	r3, [r3]
ARM GAS  /var/folders/lp/x54gwt890xv47sdkqj1k04q40000gn/T//ccr1r41z.s 			page 11


 595 01c0 1FA9     		add	r1, sp, #124
 596 01c2 4046     		mov	r0, r8
 597 01c4 9847     		blx	r3
 598 01c6 0D28     		cmp	r0, #13
 599 01c8 A6D8     		bhi	.L75
 600 01ca 42F20143 		movw	r3, #9217
 601 01ce C340     		lsrs	r3, r3, r0
 602 01d0 13F0010F 		tst	r3, #1
 603 01d4 A6D1     		bne	.L73
 604 01d6 0023     		movs	r3, #0
 605 01d8 00E0     		b	.L79
 606              	.L137:
 607 01da 0023     		movs	r3, #0
 608              	.L79:
 609 01dc 664A     		ldr	r2, .L152+8
 610 01de D25C     		ldrb	r2, [r2, r3]	@ zero_extendqisi2
 611 01e0 22B1     		cbz	r2, .L140
 612 01e2 9042     		cmp	r0, r2
 613 01e4 1AD0     		beq	.L122
 614 01e6 0133     		adds	r3, r3, #1
 615 01e8 DBB2     		uxtb	r3, r3
 616 01ea F7E7     		b	.L79
 617              	.L140:
 618 01ec 4FF00009 		mov	r9, #0
 619              	.L78:
 620 01f0 B9F1000F 		cmp	r9, #0
 621 01f4 96D1     		bne	.L73
 622 01f6 0023     		movs	r3, #0
 623 01f8 1F93     		str	r3, [sp, #124]
 624 01fa 1E9B     		ldr	r3, [sp, #120]
 625 01fc 3B44     		add	r3, r3, r7
 626 01fe 5F4A     		ldr	r2, .L152+12
 627 0200 1268     		ldr	r2, [r2]
 628 0202 1FA9     		add	r1, sp, #124
 629 0204 F018     		adds	r0, r6, r3
 630 0206 9047     		blx	r2
 631 0208 0D28     		cmp	r0, #13
 632 020a 09D8     		bhi	.L81
 633 020c 42F20143 		movw	r3, #9217
 634 0210 C340     		lsrs	r3, r3, r0
 635 0212 13F0010F 		tst	r3, #1
 636 0216 85D1     		bne	.L73
 637 0218 0023     		movs	r3, #0
 638 021a 09E0     		b	.L84
 639              	.L122:
 640 021c A946     		mov	r9, r5
 641 021e E7E7     		b	.L78
 642              	.L81:
 643 0220 A0F59C42 		sub	r2, r0, #19968
 644 0224 45F2A513 		movw	r3, #20901
 645 0228 9A42     		cmp	r2, r3
 646 022a 7FF67BAF 		bls	.L73
 647 022e 0023     		movs	r3, #0
 648              	.L84:
 649 0230 514A     		ldr	r2, .L152+8
 650 0232 D25C     		ldrb	r2, [r2, r3]	@ zero_extendqisi2
 651 0234 2AB1     		cbz	r2, .L83
ARM GAS  /var/folders/lp/x54gwt890xv47sdkqj1k04q40000gn/T//ccr1r41z.s 			page 12


 652 0236 9042     		cmp	r0, r2
 653 0238 02D0     		beq	.L124
 654 023a 0133     		adds	r3, r3, #1
 655 023c DBB2     		uxtb	r3, r3
 656 023e F7E7     		b	.L84
 657              	.L124:
 658 0240 A946     		mov	r9, r5
 659              	.L83:
 660 0242 B9F1000F 		cmp	r9, #0
 661 0246 7FF46DAF 		bne	.L73
 662              	.L69:
 663 024a FFF7FEFF 		bl	lv_get_snippet_cnt
 664 024e 0A90     		str	r0, [sp, #40]
 665 0250 0028     		cmp	r0, #0
 666 0252 00F00882 		beq	.L87
 667 0256 0138     		subs	r0, r0, #1
 668 0258 80B2     		uxth	r0, r0
 669 025a FFF7FEFF 		bl	lv_get_snippet
 670 025e 0446     		mov	r4, r0
 671 0260 B0F91030 		ldrsh	r3, [r0, #16]
 672 0264 4168     		ldr	r1, [r0, #4]
 673 0266 8289     		ldrh	r2, [r0, #12]
 674 0268 8A5C     		ldrb	r2, [r1, r2]	@ zero_extendqisi2
 675 026a 002A     		cmp	r2, #0
 676 026c 40D0     		beq	.L141
 677              	.L88:
 678 026e BDF9BE20 		ldrsh	r2, [sp, #190]
 679 0272 0992     		str	r2, [sp, #36]
 680 0274 0499     		ldr	r1, [sp, #16]
 681 0276 8D18     		adds	r5, r1, r2
 682 0278 2B44     		add	r3, r3, r5
 683 027a 129A     		ldr	r2, [sp, #72]
 684 027c 9B1A     		subs	r3, r3, r2
 685 027e BDF9CE20 		ldrsh	r2, [sp, #206]
 686 0282 0132     		adds	r2, r2, #1
 687 0284 9342     		cmp	r3, r2
 688 0286 54DD     		ble	.L126
 689 0288 D4F80480 		ldr	r8, [r4, #4]
 690 028c A389     		ldrh	r3, [r4, #12]
 691 028e 18F80330 		ldrb	r3, [r8, r3]	@ zero_extendqisi2
 692 0292 002B     		cmp	r3, #0
 693 0294 3ED1     		bne	.L142
 694              	.L90:
 695 0296 069B     		ldr	r3, [sp, #24]
 696 0298 93F83C30 		ldrb	r3, [r3, #60]	@ zero_extendqisi2
 697 029c C3F3800A 		ubfx	r10, r3, #2, #1
 698 02a0 DDF85090 		ldr	r9, [sp, #80]
 699              	.L89:
 700 02a4 BDF9C230 		ldrsh	r3, [sp, #194]
 701 02a8 9D42     		cmp	r5, r3
 702 02aa 46DA     		bge	.L143
 703              	.L91:
 704 02ac BDF9C830 		ldrsh	r3, [sp, #200]
 705 02b0 ADF8BC30 		strh	r3, [sp, #188]	@ movhi
 706 02b4 099B     		ldr	r3, [sp, #36]
 707 02b6 049A     		ldr	r2, [sp, #16]
 708 02b8 12FA83F3 		uxtah	r3, r2, r3
ARM GAS  /var/folders/lp/x54gwt890xv47sdkqj1k04q40000gn/T//ccr1r41z.s 			page 13


 709 02bc 1BB2     		sxth	r3, r3
 710 02be ADF8BE30 		strh	r3, [sp, #190]	@ movhi
 711 02c2 B9F1000F 		cmp	r9, #0
 712 02c6 40F0CA81 		bne	.L116
 713 02ca BDF9C620 		ldrsh	r2, [sp, #198]
 714 02ce 0132     		adds	r2, r2, #1
 715 02d0 9342     		cmp	r3, r2
 716 02d2 00F3C481 		bgt	.L116
 717 02d6 CDF81490 		str	r9, [sp, #20]
 718 02da 139C     		ldr	r4, [sp, #76]
 719              	.L66:
 720 02dc 079B     		ldr	r3, [sp, #28]
 721 02de 002B     		cmp	r3, #0
 722 02e0 00F0C181 		beq	.L87
 723 02e4 FFF7FEFF 		bl	lv_snippet_clear
 724 02e8 0023     		movs	r3, #0
 725 02ea 0893     		str	r3, [sp, #32]
 726 02ec 0493     		str	r3, [sp, #16]
 727 02ee 3CE7     		b	.L67
 728              	.L141:
 729 02f0 0168     		ldr	r1, [r0]
 730 02f2 0C98     		ldr	r0, [sp, #48]
 731 02f4 FFF7FEFF 		bl	_lv_ll_get_next
 732 02f8 0146     		mov	r1, r0
 733 02fa 48B1     		cbz	r0, .L125
 734 02fc 0698     		ldr	r0, [sp, #24]
 735 02fe FFF7FEFF 		bl	lv_span_get_style_text_font
 736 0302 B0F90830 		ldrsh	r3, [r0, #8]
 737 0306 119A     		ldr	r2, [sp, #68]
 738 0308 12FA83F3 		uxtah	r3, r2, r3
 739 030c 1BB2     		sxth	r3, r3
 740 030e AEE7     		b	.L88
 741              	.L125:
 742 0310 0023     		movs	r3, #0
 743 0312 ACE7     		b	.L88
 744              	.L142:
 745 0314 4046     		mov	r0, r8
 746 0316 FFF7FEFF 		bl	strlen
 747 031a A081     		strh	r0, [r4, #12]	@ movhi
 748 031c B4F91230 		ldrsh	r3, [r4, #18]
 749 0320 A268     		ldr	r2, [r4, #8]
 750 0322 0021     		movs	r1, #0
 751 0324 0091     		str	r1, [sp]
 752 0326 81B2     		uxth	r1, r0
 753 0328 4046     		mov	r0, r8
 754 032a FFF7FEFF 		bl	lv_txt_get_width
 755 032e E081     		strh	r0, [r4, #14]	@ movhi
 756 0330 B1E7     		b	.L90
 757              	.L126:
 758 0332 4FF0000A 		mov	r10, #0
 759 0336 D146     		mov	r9, r10
 760 0338 B4E7     		b	.L89
 761              	.L143:
 762 033a 5B22     		movs	r2, #91
 763 033c 0021     		movs	r1, #0
 764 033e 0698     		ldr	r0, [sp, #24]
 765 0340 FFF7FEFF 		bl	lv_obj_get_style_prop
ARM GAS  /var/folders/lp/x54gwt890xv47sdkqj1k04q40000gn/T//ccr1r41z.s 			page 14


 766 0344 C0B2     		uxtb	r0, r0
 767 0346 821E     		subs	r2, r0, #2
 768 0348 D2B2     		uxtb	r2, r2
 769 034a 012A     		cmp	r2, #1
 770 034c 06D9     		bls	.L144
 771              	.L92:
 772 034e 0025     		movs	r5, #0
 773 0350 1596     		str	r6, [sp, #84]
 774 0352 1697     		str	r7, [sp, #88]
 775 0354 CDF85C90 		str	r9, [sp, #92]
 776 0358 0595     		str	r5, [sp, #20]
 777 035a B1E0     		b	.L114
 778              	.L144:
 779 035c 059B     		ldr	r3, [sp, #20]
 780 035e 63BB     		cbnz	r3, .L93
 781 0360 0025     		movs	r5, #0
 782              	.L94:
 783 0362 4FF00008 		mov	r8, #0
 784 0366 0596     		str	r6, [sp, #20]
 785 0368 0B97     		str	r7, [sp, #44]
 786 036a 0A9E     		ldr	r6, [sp, #40]
 787 036c 0746     		mov	r7, r0
 788 036e 13E0     		b	.L95
 789              	.L153:
 790              		.align	2
 791              	.L152:
 792 0370 00000000 		.word	.LC0
 793 0374 00000000 		.word	_lv_txt_encoded_prev
 794 0378 04000000 		.word	.LC1
 795 037c 00000000 		.word	_lv_txt_encoded_next
 796              	.L96:
 797 0380 1FFA88F0 		uxth	r0, r8
 798 0384 FFF7FEFF 		bl	lv_get_snippet
 799 0388 C389     		ldrh	r3, [r0, #14]
 800 038a 2B44     		add	r3, r3, r5
 801 038c 428A     		ldrh	r2, [r0, #18]
 802 038e 12FA83F3 		uxtah	r3, r2, r3
 803 0392 1DB2     		sxth	r5, r3
 804 0394 08F10108 		add	r8, r8, #1
 805              	.L95:
 806 0398 4645     		cmp	r6, r8
 807 039a F1DC     		bgt	.L96
 808 039c 059E     		ldr	r6, [sp, #20]
 809 039e 3846     		mov	r0, r7
 810 03a0 0B9F     		ldr	r7, [sp, #44]
 811 03a2 ADB2     		uxth	r5, r5
 812 03a4 628A     		ldrh	r2, [r4, #18]
 813 03a6 A91A     		subs	r1, r5, r2
 814 03a8 09B2     		sxth	r1, r1
 815 03aa 139B     		ldr	r3, [sp, #76]
 816 03ac 8B42     		cmp	r3, r1
 817 03ae 06DD     		ble	.L127
 818 03b0 521B     		subs	r2, r2, r5
 819 03b2 0F9B     		ldr	r3, [sp, #60]
 820 03b4 1A44     		add	r2, r2, r3
 821 03b6 12B2     		sxth	r2, r2
 822 03b8 02E0     		b	.L97
ARM GAS  /var/folders/lp/x54gwt890xv47sdkqj1k04q40000gn/T//ccr1r41z.s 			page 15


 823              	.L93:
 824 03ba 199D     		ldr	r5, [sp, #100]
 825 03bc D1E7     		b	.L94
 826              	.L127:
 827 03be 0022     		movs	r2, #0
 828              	.L97:
 829 03c0 0228     		cmp	r0, #2
 830 03c2 05D0     		beq	.L145
 831              	.L98:
 832 03c4 BDF8BC30 		ldrh	r3, [sp, #188]
 833 03c8 1344     		add	r3, r3, r2
 834 03ca ADF8BC30 		strh	r3, [sp, #188]	@ movhi
 835 03ce BEE7     		b	.L92
 836              	.L145:
 837 03d0 5210     		asrs	r2, r2, #1
 838 03d2 F7E7     		b	.L98
 839              	.L150:
 840 03d4 2E22     		movs	r2, #46
 841 03d6 1146     		mov	r1, r2
 842 03d8 B068     		ldr	r0, [r6, #8]
 843 03da FFF7FEFF 		bl	lv_font_get_glyph_width
 844 03de 0D90     		str	r0, [sp, #52]
 845 03e0 00EB4003 		add	r3, r0, r0, lsl #1
 846 03e4 9BB2     		uxth	r3, r3
 847 03e6 B9E0     		b	.L100
 848              	.L146:
 849 03e8 002C     		cmp	r4, #0
 850 03ea 06DD     		ble	.L101
 851 03ec 14FA82F2 		uxtah	r2, r4, r2
 852 03f0 89B2     		uxth	r1, r1
 853 03f2 11FA82F2 		uxtah	r2, r1, r2
 854 03f6 ADF86C20 		strh	r2, [sp, #108]	@ movhi
 855              	.L101:
 856 03fa 1C9B     		ldr	r3, [sp, #112]
 857 03fc 4B45     		cmp	r3, r9
 858 03fe 50D2     		bcs	.L102
 859 0400 BDF96C20 		ldrsh	r2, [sp, #108]
 860 0404 BDF9C430 		ldrsh	r3, [sp, #196]
 861 0408 9A42     		cmp	r2, r3
 862 040a 4ADC     		bgt	.L102
 863 040c 984C     		ldr	r4, .L154
 864 040e 2368     		ldr	r3, [r4]
 865 0410 1CA9     		add	r1, sp, #112
 866 0412 3846     		mov	r0, r7
 867 0414 9847     		blx	r3
 868 0416 0546     		mov	r5, r0
 869 0418 2368     		ldr	r3, [r4]
 870 041a 0021     		movs	r1, #0
 871 041c 1C98     		ldr	r0, [sp, #112]
 872 041e 3844     		add	r0, r0, r7
 873 0420 9847     		blx	r3
 874 0422 0246     		mov	r2, r0
 875 0424 2946     		mov	r1, r5
 876 0426 B068     		ldr	r0, [r6, #8]
 877 0428 FFF7FEFF 		bl	lv_font_get_glyph_width
 878 042c 0446     		mov	r4, r0
 879 042e BDF96C20 		ldrsh	r2, [sp, #108]
ARM GAS  /var/folders/lp/x54gwt890xv47sdkqj1k04q40000gn/T//ccr1r41z.s 			page 16


 880 0432 1318     		adds	r3, r2, r0
 881 0434 B6F91210 		ldrsh	r1, [r6, #18]
 882 0438 0B44     		add	r3, r3, r1
 883 043a BDF9C000 		ldrsh	r0, [sp, #192]
 884 043e 8342     		cmp	r3, r0
 885 0440 D2DB     		blt	.L146
 886 0442 BAF1000F 		cmp	r10, #0
 887 0446 02D0     		beq	.L106
 888 0448 4345     		cmp	r3, r8
 889 044a 00F39780 		bgt	.L147
 890              	.L106:
 891 044e 2B46     		mov	r3, r5
 892 0450 1BAA     		add	r2, sp, #108
 893 0452 22A9     		add	r1, sp, #136
 894 0454 5846     		mov	r0, fp
 895 0456 FFF7FEFF 		bl	lv_draw_letter
 896 045a 002C     		cmp	r4, #0
 897 045c CDDD     		ble	.L101
 898 045e BDF86C30 		ldrh	r3, [sp, #108]
 899 0462 1C44     		add	r4, r4, r3
 900 0464 738A     		ldrh	r3, [r6, #18]
 901 0466 13FA84F4 		uxtah	r4, r3, r4
 902 046a ADF86C40 		strh	r4, [sp, #108]	@ movhi
 903 046e C4E7     		b	.L101
 904              	.L108:
 905 0470 2E23     		movs	r3, #46
 906 0472 1BAA     		add	r2, sp, #108
 907 0474 22A9     		add	r1, sp, #136
 908 0476 5846     		mov	r0, fp
 909 0478 FFF7FEFF 		bl	lv_draw_letter
 910 047c BDF86C30 		ldrh	r3, [sp, #108]
 911 0480 3B44     		add	r3, r3, r7
 912 0482 728A     		ldrh	r2, [r6, #18]
 913 0484 12FA83F3 		uxtah	r3, r2, r3
 914 0488 ADF86C30 		strh	r3, [sp, #108]	@ movhi
 915 048c 0134     		adds	r4, r4, #1
 916              	.L107:
 917 048e 022C     		cmp	r4, #2
 918 0490 EEDD     		ble	.L108
 919 0492 BDF96C30 		ldrsh	r3, [sp, #108]
 920 0496 4345     		cmp	r3, r8
 921 0498 03DC     		bgt	.L102
 922 049a 0E9B     		ldr	r3, [sp, #56]
 923 049c 0133     		adds	r3, r3, #1
 924 049e ADF86C30 		strh	r3, [sp, #108]	@ movhi
 925              	.L102:
 926 04a2 3168     		ldr	r1, [r6]
 927 04a4 0698     		ldr	r0, [sp, #24]
 928 04a6 FFF7FEFF 		bl	lv_span_get_style_text_decor
 929 04aa 0446     		mov	r4, r0
 930 04ac 10F0FF0F 		tst	r0, #255
 931 04b0 67D1     		bne	.L148
 932              	.L110:
 933 04b2 BDF96C30 		ldrsh	r3, [sp, #108]
 934 04b6 ADF8BC30 		strh	r3, [sp, #188]	@ movhi
 935 04ba 059B     		ldr	r3, [sp, #20]
 936 04bc 0133     		adds	r3, r3, #1
ARM GAS  /var/folders/lp/x54gwt890xv47sdkqj1k04q40000gn/T//ccr1r41z.s 			page 17


 937 04be 0593     		str	r3, [sp, #20]
 938              	.L114:
 939 04c0 0A9B     		ldr	r3, [sp, #40]
 940 04c2 059A     		ldr	r2, [sp, #20]
 941 04c4 9342     		cmp	r3, r2
 942 04c6 40F3C580 		ble	.L149
 943 04ca BDF81400 		ldrh	r0, [sp, #20]
 944 04ce FFF7FEFF 		bl	lv_get_snippet
 945 04d2 0646     		mov	r6, r0
 946 04d4 4768     		ldr	r7, [r0, #4]
 947 04d6 BDF9BC30 		ldrsh	r3, [sp, #188]
 948 04da 0B93     		str	r3, [sp, #44]
 949 04dc ADF86C30 		strh	r3, [sp, #108]	@ movhi
 950 04e0 099B     		ldr	r3, [sp, #36]
 951 04e2 049A     		ldr	r2, [sp, #16]
 952 04e4 12FA83F3 		uxtah	r3, r2, r3
 953 04e8 9BB2     		uxth	r3, r3
 954 04ea 028A     		ldrh	r2, [r0, #16]
 955 04ec 9B1A     		subs	r3, r3, r2
 956 04ee 8268     		ldr	r2, [r0, #8]
 957 04f0 5289     		ldrh	r2, [r2, #10]
 958 04f2 0899     		ldr	r1, [sp, #32]
 959 04f4 521A     		subs	r2, r2, r1
 960 04f6 12FA83F3 		uxtah	r3, r2, r3
 961 04fa ADF86E30 		strh	r3, [sp, #110]	@ movhi
 962 04fe 0168     		ldr	r1, [r0]
 963 0500 069C     		ldr	r4, [sp, #24]
 964 0502 2046     		mov	r0, r4
 965 0504 FFF7FEFF 		bl	lv_span_get_style_text_color
 966 0508 ADF89400 		strh	r0, [sp, #148]	@ movhi
 967 050c 3168     		ldr	r1, [r6]
 968 050e 2046     		mov	r0, r4
 969 0510 FFF7FEFF 		bl	lv_span_get_style_text_opa
 970 0514 8DF8A200 		strb	r0, [sp, #162]
 971 0518 3168     		ldr	r1, [r6]
 972 051a 2046     		mov	r0, r4
 973 051c FFF7FEFF 		bl	lv_span_get_style_text_font
 974 0520 2290     		str	r0, [sp, #136]
 975 0522 3168     		ldr	r1, [r6]
 976 0524 2046     		mov	r0, r4
 977 0526 FFF7FEFF 		bl	lv_span_get_style_text_blend_mode
 978 052a 9DF8A630 		ldrb	r3, [sp, #166]	@ zero_extendqisi2
 979 052e 60F3C503 		bfi	r3, r0, #3, #3
 980 0532 8DF8A630 		strb	r3, [sp, #166]
 981 0536 109A     		ldr	r2, [sp, #64]
 982 0538 FC2A     		cmp	r2, #252
 983 053a 07D8     		bhi	.L99
 984 053c 9DF8A230 		ldrb	r3, [sp, #162]	@ zero_extendqisi2
 985 0540 12FB03F3 		smulbb	r3, r2, r3
 986 0544 C3F30723 		ubfx	r3, r3, #8, #8
 987 0548 8DF8A230 		strb	r3, [sp, #162]
 988              	.L99:
 989 054c B6F80C90 		ldrh	r9, [r6, #12]
 990 0550 BAF1000F 		cmp	r10, #0
 991 0554 7FF43EAF 		bne	.L150
 992 0558 0023     		movs	r3, #0
 993 055a 0D93     		str	r3, [sp, #52]
ARM GAS  /var/folders/lp/x54gwt890xv47sdkqj1k04q40000gn/T//ccr1r41z.s 			page 18


 994              	.L100:
 995 055c BDF8C880 		ldrh	r8, [sp, #200]
 996 0560 0F9A     		ldr	r2, [sp, #60]
 997 0562 9044     		add	r8, r8, r2
 998 0564 1FFA88F8 		uxth	r8, r8
 999 0568 A8EB0308 		sub	r8, r8, r3
 1000 056c 1FFA88F3 		uxth	r3, r8
 1001 0570 0E93     		str	r3, [sp, #56]
 1002 0572 0FFA88F8 		sxth	r8, r8
 1003 0576 0023     		movs	r3, #0
 1004 0578 1C93     		str	r3, [sp, #112]
 1005 057a 3EE7     		b	.L101
 1006              	.L147:
 1007 057c 0024     		movs	r4, #0
 1008 057e 0D9F     		ldr	r7, [sp, #52]
 1009 0580 85E7     		b	.L107
 1010              	.L148:
 1011 0582 1FA8     		add	r0, sp, #124
 1012 0584 FFF7FEFF 		bl	lv_draw_line_dsc_init
 1013 0588 BDF89430 		ldrh	r3, [sp, #148]
 1014 058c ADF87C30 		strh	r3, [sp, #124]	@ movhi
 1015 0590 229B     		ldr	r3, [sp, #136]
 1016 0592 93F90E30 		ldrsb	r3, [r3, #14]
 1017 0596 002B     		cmp	r3, #0
 1018 0598 3CD0     		beq	.L130
 1019 059a B368     		ldr	r3, [r6, #8]
 1020 059c 93F90E10 		ldrsb	r1, [r3, #14]
 1021              	.L111:
 1022 05a0 ADF87E10 		strh	r1, [sp, #126]	@ movhi
 1023 05a4 9DF8A230 		ldrb	r3, [sp, #162]	@ zero_extendqisi2
 1024 05a8 8DF88430 		strb	r3, [sp, #132]
 1025 05ac 9DF8A630 		ldrb	r3, [sp, #166]	@ zero_extendqisi2
 1026 05b0 C3F3C103 		ubfx	r3, r3, #3, #2
 1027 05b4 9DF88520 		ldrb	r2, [sp, #133]	@ zero_extendqisi2
 1028 05b8 63F30102 		bfi	r2, r3, #0, #2
 1029 05bc 8DF88520 		strb	r2, [sp, #133]
 1030 05c0 14F0020F 		tst	r4, #2
 1031 05c4 28D1     		bne	.L151
 1032              	.L112:
 1033 05c6 14F0010F 		tst	r4, #1
 1034 05ca 3FF472AF 		beq	.L110
 1035 05ce 0B9B     		ldr	r3, [sp, #44]
 1036 05d0 ADF87430 		strh	r3, [sp, #116]	@ movhi
 1037 05d4 BDF86E30 		ldrh	r3, [sp, #110]
 1038 05d8 328A     		ldrh	r2, [r6, #16]
 1039 05da 1344     		add	r3, r3, r2
 1040 05dc 9BB2     		uxth	r3, r3
 1041 05de 119A     		ldr	r2, [sp, #68]
 1042 05e0 9B1A     		subs	r3, r3, r2
 1043 05e2 9BB2     		uxth	r3, r3
 1044 05e4 B268     		ldr	r2, [r6, #8]
 1045 05e6 5189     		ldrh	r1, [r2, #10]
 1046 05e8 5B1A     		subs	r3, r3, r1
 1047 05ea 9BB2     		uxth	r3, r3
 1048 05ec 92F90D20 		ldrsb	r2, [r2, #13]
 1049 05f0 92B2     		uxth	r2, r2
 1050 05f2 9B1A     		subs	r3, r3, r2
ARM GAS  /var/folders/lp/x54gwt890xv47sdkqj1k04q40000gn/T//ccr1r41z.s 			page 19


 1051 05f4 1BB2     		sxth	r3, r3
 1052 05f6 ADF87630 		strh	r3, [sp, #118]	@ movhi
 1053 05fa BDF96C20 		ldrsh	r2, [sp, #108]
 1054 05fe ADF87820 		strh	r2, [sp, #120]	@ movhi
 1055 0602 ADF87A30 		strh	r3, [sp, #122]	@ movhi
 1056 0606 1EAB     		add	r3, sp, #120
 1057 0608 1DAA     		add	r2, sp, #116
 1058 060a 1FA9     		add	r1, sp, #124
 1059 060c 5846     		mov	r0, fp
 1060 060e FFF7FEFF 		bl	lv_draw_line
 1061 0612 4EE7     		b	.L110
 1062              	.L130:
 1063 0614 0121     		movs	r1, #1
 1064 0616 C3E7     		b	.L111
 1065              	.L151:
 1066 0618 0B9B     		ldr	r3, [sp, #44]
 1067 061a ADF87430 		strh	r3, [sp, #116]	@ movhi
 1068 061e BDF86E30 		ldrh	r3, [sp, #110]
 1069 0622 B6F91020 		ldrsh	r2, [r6, #16]
 1070 0626 1298     		ldr	r0, [sp, #72]
 1071 0628 121A     		subs	r2, r2, r0
 1072 062a 03EB6203 		add	r3, r3, r2, asr #1
 1073 062e 4910     		asrs	r1, r1, #1
 1074 0630 11FA83F3 		uxtah	r3, r1, r3
 1075 0634 1BB2     		sxth	r3, r3
 1076 0636 ADF87630 		strh	r3, [sp, #118]	@ movhi
 1077 063a BDF96C20 		ldrsh	r2, [sp, #108]
 1078 063e ADF87820 		strh	r2, [sp, #120]	@ movhi
 1079 0642 ADF87A30 		strh	r3, [sp, #122]	@ movhi
 1080 0646 1EAB     		add	r3, sp, #120
 1081 0648 1DAA     		add	r2, sp, #116
 1082 064a 1FA9     		add	r1, sp, #124
 1083 064c 5846     		mov	r0, fp
 1084 064e FFF7FEFF 		bl	lv_draw_line
 1085 0652 B8E7     		b	.L112
 1086              	.L149:
 1087 0654 159E     		ldr	r6, [sp, #84]
 1088 0656 169F     		ldr	r7, [sp, #88]
 1089 0658 DDF85C90 		ldr	r9, [sp, #92]
 1090 065c 26E6     		b	.L91
 1091              	.L116:
 1092 065e 189E     		ldr	r6, [sp, #96]
 1093 0660 CBF80860 		str	r6, [fp, #8]
 1094 0664 E5E4     		b	.L63
 1095              	.L87:
 1096 0666 189E     		ldr	r6, [sp, #96]
 1097 0668 CBF80860 		str	r6, [fp, #8]
 1098 066c E1E4     		b	.L63
 1099              	.L155:
 1100 066e 00BF     		.align	2
 1101              	.L154:
 1102 0670 00000000 		.word	_lv_txt_encoded_next
 1104              		.section	.text.draw_main,"ax",%progbits
 1105              		.align	1
 1106              		.syntax unified
 1107              		.thumb
 1108              		.thumb_func
ARM GAS  /var/folders/lp/x54gwt890xv47sdkqj1k04q40000gn/T//ccr1r41z.s 			page 20


 1110              	draw_main:
 1111              		@ args = 0, pretend = 0, frame = 0
 1112              		@ frame_needed = 0, uses_anonymous_args = 0
 1113 0000 38B5     		push	{r3, r4, r5, lr}
 1114 0002 0546     		mov	r5, r0
 1115 0004 FFF7FEFF 		bl	lv_event_get_target
 1116 0008 0446     		mov	r4, r0
 1117 000a 2846     		mov	r0, r5
 1118 000c FFF7FEFF 		bl	lv_event_get_draw_ctx
 1119 0010 0146     		mov	r1, r0
 1120 0012 2046     		mov	r0, r4
 1121 0014 FFF7FEFF 		bl	lv_draw_span
 1122 0018 38BD     		pop	{r3, r4, r5, pc}
 1124              		.section	.text.refresh_self_size,"ax",%progbits
 1125              		.align	1
 1126              		.syntax unified
 1127              		.thumb
 1128              		.thumb_func
 1130              	refresh_self_size:
 1131              		@ args = 0, pretend = 0, frame = 0
 1132              		@ frame_needed = 0, uses_anonymous_args = 0
 1133 0000 10B5     		push	{r4, lr}
 1134 0002 0446     		mov	r4, r0
 1135 0004 90F83C30 		ldrb	r3, [r0, #60]	@ zero_extendqisi2
 1136 0008 43F00803 		orr	r3, r3, #8
 1137 000c 80F83C30 		strb	r3, [r0, #60]
 1138 0010 FFF7FEFF 		bl	lv_obj_invalidate
 1139 0014 2046     		mov	r0, r4
 1140 0016 FFF7FEFF 		bl	lv_obj_refresh_self_size
 1141 001a 10BD     		pop	{r4, pc}
 1143              		.section	.text.lv_spangroup_destructor,"ax",%progbits
 1144              		.align	1
 1145              		.syntax unified
 1146              		.thumb
 1147              		.thumb_func
 1149              	lv_spangroup_destructor:
 1150              		@ args = 0, pretend = 0, frame = 0
 1151              		@ frame_needed = 0, uses_anonymous_args = 0
 1152 0000 38B5     		push	{r3, r4, r5, lr}
 1153 0002 01F13005 		add	r5, r1, #48
 1154 0006 2846     		mov	r0, r5
 1155 0008 FFF7FEFF 		bl	_lv_ll_get_head
 1156 000c 0446     		mov	r4, r0
 1157 000e 0AE0     		b	.L161
 1158              	.L162:
 1159 0010 04F10800 		add	r0, r4, #8
 1160 0014 FFF7FEFF 		bl	lv_style_reset
 1161 0018 2046     		mov	r0, r4
 1162 001a FFF7FEFF 		bl	lv_mem_free
 1163 001e 2846     		mov	r0, r5
 1164 0020 FFF7FEFF 		bl	_lv_ll_get_head
 1165 0024 0446     		mov	r4, r0
 1166              	.L161:
 1167 0026 6CB1     		cbz	r4, .L165
 1168 0028 2146     		mov	r1, r4
 1169 002a 2846     		mov	r0, r5
 1170 002c FFF7FEFF 		bl	_lv_ll_remove
ARM GAS  /var/folders/lp/x54gwt890xv47sdkqj1k04q40000gn/T//ccr1r41z.s 			page 21


 1171 0030 2068     		ldr	r0, [r4]
 1172 0032 0028     		cmp	r0, #0
 1173 0034 ECD0     		beq	.L162
 1174 0036 237C     		ldrb	r3, [r4, #16]	@ zero_extendqisi2
 1175 0038 13F0010F 		tst	r3, #1
 1176 003c E8D1     		bne	.L162
 1177 003e FFF7FEFF 		bl	lv_mem_free
 1178 0042 E5E7     		b	.L162
 1179              	.L165:
 1180 0044 38BD     		pop	{r3, r4, r5, pc}
 1182              		.section	.text.lv_spangroup_constructor,"ax",%progbits
 1183              		.align	1
 1184              		.syntax unified
 1185              		.thumb
 1186              		.thumb_func
 1188              	lv_spangroup_constructor:
 1189              		@ args = 0, pretend = 0, frame = 0
 1190              		@ frame_needed = 0, uses_anonymous_args = 0
 1191 0000 10B5     		push	{r4, lr}
 1192 0002 0C46     		mov	r4, r1
 1193 0004 1421     		movs	r1, #20
 1194 0006 04F13000 		add	r0, r4, #48
 1195 000a FFF7FEFF 		bl	_lv_ll_init
 1196 000e 0023     		movs	r3, #0
 1197 0010 2385     		strh	r3, [r4, #40]	@ movhi
 1198 0012 4FF0FF32 		mov	r2, #-1
 1199 0016 6262     		str	r2, [r4, #36]
 1200 0018 94F83C20 		ldrb	r2, [r4, #60]	@ zero_extendqisi2
 1201 001c 0121     		movs	r1, #1
 1202 001e 61F30102 		bfi	r2, r1, #0, #2
 1203 0022 84F83C20 		strb	r2, [r4, #60]
 1204 0026 D2B2     		uxtb	r2, r2
 1205 0028 63F38202 		bfi	r2, r3, #2, #1
 1206 002c 84F83C20 		strb	r2, [r4, #60]
 1207 0030 6385     		strh	r3, [r4, #42]	@ movhi
 1208 0032 A385     		strh	r3, [r4, #44]	@ movhi
 1209 0034 D3B2     		uxtb	r3, r2
 1210 0036 43F00803 		orr	r3, r3, #8
 1211 003a 84F83C30 		strb	r3, [r4, #60]
 1212 003e 10BD     		pop	{r4, pc}
 1214              		.section	.text.lv_spangroup_create,"ax",%progbits
 1215              		.align	1
 1216              		.global	lv_spangroup_create
 1217              		.syntax unified
 1218              		.thumb
 1219              		.thumb_func
 1221              	lv_spangroup_create:
 1222              		@ args = 0, pretend = 0, frame = 0
 1223              		@ frame_needed = 0, uses_anonymous_args = 0
 1224 0000 10B5     		push	{r4, lr}
 1225 0002 0146     		mov	r1, r0
 1226 0004 0348     		ldr	r0, .L170
 1227 0006 FFF7FEFF 		bl	lv_obj_class_create_obj
 1228 000a 0446     		mov	r4, r0
 1229 000c FFF7FEFF 		bl	lv_obj_class_init_obj
 1230 0010 2046     		mov	r0, r4
 1231 0012 10BD     		pop	{r4, pc}
ARM GAS  /var/folders/lp/x54gwt890xv47sdkqj1k04q40000gn/T//ccr1r41z.s 			page 22


 1232              	.L171:
 1233              		.align	2
 1234              	.L170:
 1235 0014 00000000 		.word	lv_spangroup_class
 1237              		.section	.text.lv_spangroup_new_span,"ax",%progbits
 1238              		.align	1
 1239              		.global	lv_spangroup_new_span
 1240              		.syntax unified
 1241              		.thumb
 1242              		.thumb_func
 1244              	lv_spangroup_new_span:
 1245              		@ args = 0, pretend = 0, frame = 0
 1246              		@ frame_needed = 0, uses_anonymous_args = 0
 1247 0000 38B5     		push	{r3, r4, r5, lr}
 1248 0002 0546     		mov	r5, r0
 1249 0004 A0B1     		cbz	r0, .L176
 1250 0006 3030     		adds	r0, r0, #48
 1251 0008 FFF7FEFF 		bl	_lv_ll_ins_tail
 1252 000c 0446     		mov	r4, r0
 1253 000e 70B1     		cbz	r0, .L175
 1254 0010 0830     		adds	r0, r0, #8
 1255 0012 FFF7FEFF 		bl	lv_style_init
 1256 0016 074B     		ldr	r3, .L178
 1257 0018 2360     		str	r3, [r4]
 1258 001a 237C     		ldrb	r3, [r4, #16]	@ zero_extendqisi2
 1259 001c 43F00103 		orr	r3, r3, #1
 1260 0020 2374     		strb	r3, [r4, #16]
 1261 0022 6560     		str	r5, [r4, #4]
 1262 0024 2846     		mov	r0, r5
 1263 0026 FFF7FEFF 		bl	refresh_self_size
 1264              	.L172:
 1265 002a 2046     		mov	r0, r4
 1266 002c 38BD     		pop	{r3, r4, r5, pc}
 1267              	.L175:
 1268 002e FEE7     		b	.L175
 1269              	.L176:
 1270 0030 0446     		mov	r4, r0
 1271 0032 FAE7     		b	.L172
 1272              	.L179:
 1273              		.align	2
 1274              	.L178:
 1275 0034 00000000 		.word	.LC0
 1277              		.section	.text.lv_spangroup_del_span,"ax",%progbits
 1278              		.align	1
 1279              		.global	lv_spangroup_del_span
 1280              		.syntax unified
 1281              		.thumb
 1282              		.thumb_func
 1284              	lv_spangroup_del_span:
 1285              		@ args = 0, pretend = 0, frame = 0
 1286              		@ frame_needed = 0, uses_anonymous_args = 0
 1287 0000 50B3     		cbz	r0, .L188
 1288 0002 F8B5     		push	{r3, r4, r5, r6, r7, lr}
 1289 0004 0D46     		mov	r5, r1
 1290 0006 0746     		mov	r7, r0
 1291 0008 29B3     		cbz	r1, .L180
 1292 000a 00F13006 		add	r6, r0, #48
ARM GAS  /var/folders/lp/x54gwt890xv47sdkqj1k04q40000gn/T//ccr1r41z.s 			page 23


 1293 000e 3046     		mov	r0, r6
 1294 0010 FFF7FEFF 		bl	_lv_ll_get_head
 1295 0014 0446     		mov	r4, r0
 1296 0016 07E0     		b	.L182
 1297              	.L191:
 1298 0018 FFF7FEFF 		bl	lv_mem_free
 1299 001c 11E0     		b	.L184
 1300              	.L183:
 1301 001e 2146     		mov	r1, r4
 1302 0020 3046     		mov	r0, r6
 1303 0022 FFF7FEFF 		bl	_lv_ll_get_next
 1304 0026 0446     		mov	r4, r0
 1305              	.L182:
 1306 0028 94B1     		cbz	r4, .L185
 1307 002a AC42     		cmp	r4, r5
 1308 002c F7D1     		bne	.L183
 1309 002e 2146     		mov	r1, r4
 1310 0030 3046     		mov	r0, r6
 1311 0032 FFF7FEFF 		bl	_lv_ll_remove
 1312 0036 2068     		ldr	r0, [r4]
 1313 0038 18B1     		cbz	r0, .L184
 1314 003a 237C     		ldrb	r3, [r4, #16]	@ zero_extendqisi2
 1315 003c 13F0010F 		tst	r3, #1
 1316 0040 EAD0     		beq	.L191
 1317              	.L184:
 1318 0042 04F10800 		add	r0, r4, #8
 1319 0046 FFF7FEFF 		bl	lv_style_reset
 1320 004a 2046     		mov	r0, r4
 1321 004c FFF7FEFF 		bl	lv_mem_free
 1322              	.L185:
 1323 0050 3846     		mov	r0, r7
 1324 0052 FFF7FEFF 		bl	refresh_self_size
 1325              	.L180:
 1326 0056 F8BD     		pop	{r3, r4, r5, r6, r7, pc}
 1327              	.L188:
 1328 0058 7047     		bx	lr
 1330              		.section	.text.lv_span_set_text,"ax",%progbits
 1331              		.align	1
 1332              		.global	lv_span_set_text
 1333              		.syntax unified
 1334              		.thumb
 1335              		.thumb_func
 1337              	lv_span_set_text:
 1338              		@ args = 0, pretend = 0, frame = 0
 1339              		@ frame_needed = 0, uses_anonymous_args = 0
 1340 0000 28B3     		cbz	r0, .L198
 1341 0002 70B5     		push	{r4, r5, r6, lr}
 1342 0004 0D46     		mov	r5, r1
 1343 0006 0446     		mov	r4, r0
 1344 0008 B9B1     		cbz	r1, .L192
 1345 000a 0668     		ldr	r6, [r0]
 1346 000c 1EB1     		cbz	r6, .L194
 1347 000e 037C     		ldrb	r3, [r0, #16]	@ zero_extendqisi2
 1348 0010 13F0010F 		tst	r3, #1
 1349 0014 12D0     		beq	.L195
 1350              	.L194:
 1351 0016 2846     		mov	r0, r5
ARM GAS  /var/folders/lp/x54gwt890xv47sdkqj1k04q40000gn/T//ccr1r41z.s 			page 24


 1352 0018 FFF7FEFF 		bl	strlen
 1353 001c 0130     		adds	r0, r0, #1
 1354 001e FFF7FEFF 		bl	lv_mem_alloc
 1355 0022 2060     		str	r0, [r4]
 1356              	.L196:
 1357 0024 237C     		ldrb	r3, [r4, #16]	@ zero_extendqisi2
 1358 0026 23F00103 		bic	r3, r3, #1
 1359 002a 2374     		strb	r3, [r4, #16]
 1360 002c 2946     		mov	r1, r5
 1361 002e 2068     		ldr	r0, [r4]
 1362 0030 FFF7FEFF 		bl	strcpy
 1363 0034 6068     		ldr	r0, [r4, #4]
 1364 0036 FFF7FEFF 		bl	refresh_self_size
 1365              	.L192:
 1366 003a 70BD     		pop	{r4, r5, r6, pc}
 1367              	.L195:
 1368 003c 0846     		mov	r0, r1
 1369 003e FFF7FEFF 		bl	strlen
 1370 0042 411C     		adds	r1, r0, #1
 1371 0044 3046     		mov	r0, r6
 1372 0046 FFF7FEFF 		bl	lv_mem_realloc
 1373 004a 2060     		str	r0, [r4]
 1374 004c EAE7     		b	.L196
 1375              	.L198:
 1376 004e 7047     		bx	lr
 1378              		.section	.text.lv_span_set_text_static,"ax",%progbits
 1379              		.align	1
 1380              		.global	lv_span_set_text_static
 1381              		.syntax unified
 1382              		.thumb
 1383              		.thumb_func
 1385              	lv_span_set_text_static:
 1386              		@ args = 0, pretend = 0, frame = 0
 1387              		@ frame_needed = 0, uses_anonymous_args = 0
 1388 0000 A8B1     		cbz	r0, .L205
 1389 0002 38B5     		push	{r3, r4, r5, lr}
 1390 0004 0D46     		mov	r5, r1
 1391 0006 0446     		mov	r4, r0
 1392 0008 69B1     		cbz	r1, .L201
 1393 000a 0068     		ldr	r0, [r0]
 1394 000c 18B1     		cbz	r0, .L203
 1395 000e 237C     		ldrb	r3, [r4, #16]	@ zero_extendqisi2
 1396 0010 13F0010F 		tst	r3, #1
 1397 0014 08D0     		beq	.L208
 1398              	.L203:
 1399 0016 237C     		ldrb	r3, [r4, #16]	@ zero_extendqisi2
 1400 0018 43F00103 		orr	r3, r3, #1
 1401 001c 2374     		strb	r3, [r4, #16]
 1402 001e 2560     		str	r5, [r4]
 1403 0020 6068     		ldr	r0, [r4, #4]
 1404 0022 FFF7FEFF 		bl	refresh_self_size
 1405              	.L201:
 1406 0026 38BD     		pop	{r3, r4, r5, pc}
 1407              	.L208:
 1408 0028 FFF7FEFF 		bl	lv_mem_free
 1409 002c F3E7     		b	.L203
 1410              	.L205:
ARM GAS  /var/folders/lp/x54gwt890xv47sdkqj1k04q40000gn/T//ccr1r41z.s 			page 25


 1411 002e 7047     		bx	lr
 1413              		.section	.text.lv_spangroup_set_align,"ax",%progbits
 1414              		.align	1
 1415              		.global	lv_spangroup_set_align
 1416              		.syntax unified
 1417              		.thumb
 1418              		.thumb_func
 1420              	lv_spangroup_set_align:
 1421              		@ args = 0, pretend = 0, frame = 0
 1422              		@ frame_needed = 0, uses_anonymous_args = 0
 1423 0000 08B5     		push	{r3, lr}
 1424 0002 0022     		movs	r2, #0
 1425 0004 FFF7FEFF 		bl	lv_obj_set_style_text_align
 1426 0008 08BD     		pop	{r3, pc}
 1428              		.section	.text.lv_spangroup_set_overflow,"ax",%progbits
 1429              		.align	1
 1430              		.global	lv_spangroup_set_overflow
 1431              		.syntax unified
 1432              		.thumb
 1433              		.thumb_func
 1435              	lv_spangroup_set_overflow:
 1436              		@ args = 0, pretend = 0, frame = 0
 1437              		@ frame_needed = 0, uses_anonymous_args = 0
 1438 0000 08B5     		push	{r3, lr}
 1439 0002 90F83C30 		ldrb	r3, [r0, #60]	@ zero_extendqisi2
 1440 0006 C3F38003 		ubfx	r3, r3, #2, #1
 1441 000a 8B42     		cmp	r3, r1
 1442 000c 07D0     		beq	.L211
 1443 000e 90F83C30 		ldrb	r3, [r0, #60]	@ zero_extendqisi2
 1444 0012 61F38203 		bfi	r3, r1, #2, #1
 1445 0016 80F83C30 		strb	r3, [r0, #60]
 1446 001a FFF7FEFF 		bl	lv_obj_invalidate
 1447              	.L211:
 1448 001e 08BD     		pop	{r3, pc}
 1450              		.section	.text.lv_spangroup_set_indent,"ax",%progbits
 1451              		.align	1
 1452              		.global	lv_spangroup_set_indent
 1453              		.syntax unified
 1454              		.thumb
 1455              		.thumb_func
 1457              	lv_spangroup_set_indent:
 1458              		@ args = 0, pretend = 0, frame = 0
 1459              		@ frame_needed = 0, uses_anonymous_args = 0
 1460 0000 08B5     		push	{r3, lr}
 1461 0002 B0F92830 		ldrsh	r3, [r0, #40]
 1462 0006 8B42     		cmp	r3, r1
 1463 0008 02D0     		beq	.L214
 1464 000a 0185     		strh	r1, [r0, #40]	@ movhi
 1465 000c FFF7FEFF 		bl	refresh_self_size
 1466              	.L214:
 1467 0010 08BD     		pop	{r3, pc}
 1469              		.section	.text.lv_spangroup_get_child,"ax",%progbits
 1470              		.align	1
 1471              		.global	lv_spangroup_get_child
 1472              		.syntax unified
 1473              		.thumb
 1474              		.thumb_func
ARM GAS  /var/folders/lp/x54gwt890xv47sdkqj1k04q40000gn/T//ccr1r41z.s 			page 26


 1476              	lv_spangroup_get_child:
 1477              		@ args = 0, pretend = 0, frame = 0
 1478              		@ frame_needed = 0, uses_anonymous_args = 0
 1479 0000 E0B1     		cbz	r0, .L224
 1480 0002 70B5     		push	{r4, r5, r6, lr}
 1481 0004 0D46     		mov	r5, r1
 1482 0006 00F13006 		add	r6, r0, #48
 1483 000a 416B     		ldr	r1, [r0, #52]
 1484 000c 002D     		cmp	r5, #0
 1485 000e 01DB     		blt	.L230
 1486 0010 0024     		movs	r4, #0
 1487 0012 08E0     		b	.L222
 1488              	.L230:
 1489 0014 816B     		ldr	r1, [r0, #56]
 1490 0016 4FF0FF34 		mov	r4, #-1
 1491 001a 04E0     		b	.L222
 1492              	.L231:
 1493 001c 3046     		mov	r0, r6
 1494 001e FFF7FEFF 		bl	_lv_ll_get_next
 1495 0022 0146     		mov	r1, r0
 1496 0024 0134     		adds	r4, r4, #1
 1497              	.L222:
 1498 0026 51B1     		cbz	r1, .L217
 1499 0028 AC42     		cmp	r4, r5
 1500 002a 08D0     		beq	.L217
 1501 002c 002D     		cmp	r5, #0
 1502 002e F5DA     		bge	.L231
 1503 0030 3046     		mov	r0, r6
 1504 0032 FFF7FEFF 		bl	_lv_ll_get_prev
 1505 0036 0146     		mov	r1, r0
 1506 0038 013C     		subs	r4, r4, #1
 1507 003a F4E7     		b	.L222
 1508              	.L224:
 1509 003c 7047     		bx	lr
 1510              	.L217:
 1511 003e 0846     		mov	r0, r1
 1512 0040 70BD     		pop	{r4, r5, r6, pc}
 1514              		.section	.text.lv_spangroup_get_child_cnt,"ax",%progbits
 1515              		.align	1
 1516              		.global	lv_spangroup_get_child_cnt
 1517              		.syntax unified
 1518              		.thumb
 1519              		.thumb_func
 1521              	lv_spangroup_get_child_cnt:
 1522              		@ args = 0, pretend = 0, frame = 0
 1523              		@ frame_needed = 0, uses_anonymous_args = 0
 1524 0000 20B1     		cbz	r0, .L234
 1525 0002 08B5     		push	{r3, lr}
 1526 0004 3030     		adds	r0, r0, #48
 1527 0006 FFF7FEFF 		bl	_lv_ll_get_len
 1528 000a 08BD     		pop	{r3, pc}
 1529              	.L234:
 1530 000c 0020     		movs	r0, #0
 1531 000e 7047     		bx	lr
 1533              		.section	.text.lv_spangroup_get_align,"ax",%progbits
 1534              		.align	1
 1535              		.global	lv_spangroup_get_align
ARM GAS  /var/folders/lp/x54gwt890xv47sdkqj1k04q40000gn/T//ccr1r41z.s 			page 27


 1536              		.syntax unified
 1537              		.thumb
 1538              		.thumb_func
 1540              	lv_spangroup_get_align:
 1541              		@ args = 0, pretend = 0, frame = 0
 1542              		@ frame_needed = 0, uses_anonymous_args = 0
 1543 0000 08B5     		push	{r3, lr}
 1544 0002 5B22     		movs	r2, #91
 1545 0004 0021     		movs	r1, #0
 1546 0006 FFF7FEFF 		bl	lv_obj_get_style_prop
 1547 000a C0B2     		uxtb	r0, r0
 1548 000c 08BD     		pop	{r3, pc}
 1550              		.section	.text.lv_spangroup_get_overflow,"ax",%progbits
 1551              		.align	1
 1552              		.global	lv_spangroup_get_overflow
 1553              		.syntax unified
 1554              		.thumb
 1555              		.thumb_func
 1557              	lv_spangroup_get_overflow:
 1558              		@ args = 0, pretend = 0, frame = 0
 1559              		@ frame_needed = 0, uses_anonymous_args = 0
 1560              		@ link register save eliminated.
 1561 0000 90F83C00 		ldrb	r0, [r0, #60]	@ zero_extendqisi2
 1562 0004 C0F38000 		ubfx	r0, r0, #2, #1
 1563 0008 7047     		bx	lr
 1565              		.section	.text.lv_spangroup_get_indent,"ax",%progbits
 1566              		.align	1
 1567              		.global	lv_spangroup_get_indent
 1568              		.syntax unified
 1569              		.thumb
 1570              		.thumb_func
 1572              	lv_spangroup_get_indent:
 1573              		@ args = 0, pretend = 0, frame = 0
 1574              		@ frame_needed = 0, uses_anonymous_args = 0
 1575              		@ link register save eliminated.
 1576 0000 B0F92800 		ldrsh	r0, [r0, #40]
 1577 0004 7047     		bx	lr
 1579              		.section	.text.lv_spangroup_get_mode,"ax",%progbits
 1580              		.align	1
 1581              		.global	lv_spangroup_get_mode
 1582              		.syntax unified
 1583              		.thumb
 1584              		.thumb_func
 1586              	lv_spangroup_get_mode:
 1587              		@ args = 0, pretend = 0, frame = 0
 1588              		@ frame_needed = 0, uses_anonymous_args = 0
 1589              		@ link register save eliminated.
 1590 0000 90F83C00 		ldrb	r0, [r0, #60]	@ zero_extendqisi2
 1591 0004 00F00300 		and	r0, r0, #3
 1592 0008 7047     		bx	lr
 1594              		.section	.text.lv_spangroup_get_lines,"ax",%progbits
 1595              		.align	1
 1596              		.global	lv_spangroup_get_lines
 1597              		.syntax unified
 1598              		.thumb
 1599              		.thumb_func
 1601              	lv_spangroup_get_lines:
ARM GAS  /var/folders/lp/x54gwt890xv47sdkqj1k04q40000gn/T//ccr1r41z.s 			page 28


 1602              		@ args = 0, pretend = 0, frame = 0
 1603              		@ frame_needed = 0, uses_anonymous_args = 0
 1604              		@ link register save eliminated.
 1605 0000 406A     		ldr	r0, [r0, #36]
 1606 0002 7047     		bx	lr
 1608              		.section	.text.lv_spangroup_get_max_line_h,"ax",%progbits
 1609              		.align	1
 1610              		.global	lv_spangroup_get_max_line_h
 1611              		.syntax unified
 1612              		.thumb
 1613              		.thumb_func
 1615              	lv_spangroup_get_max_line_h:
 1616              		@ args = 0, pretend = 0, frame = 0
 1617              		@ frame_needed = 0, uses_anonymous_args = 0
 1618 0000 F8B5     		push	{r3, r4, r5, r6, r7, lr}
 1619 0002 0646     		mov	r6, r0
 1620 0004 00F13007 		add	r7, r0, #48
 1621 0008 3846     		mov	r0, r7
 1622 000a FFF7FEFF 		bl	_lv_ll_get_head
 1623 000e 0446     		mov	r4, r0
 1624 0010 0025     		movs	r5, #0
 1625 0012 04E0     		b	.L246
 1626              	.L247:
 1627 0014 2146     		mov	r1, r4
 1628 0016 3846     		mov	r0, r7
 1629 0018 FFF7FEFF 		bl	_lv_ll_get_next
 1630 001c 0446     		mov	r4, r0
 1631              	.L246:
 1632 001e 4CB1     		cbz	r4, .L251
 1633 0020 2146     		mov	r1, r4
 1634 0022 3046     		mov	r0, r6
 1635 0024 FFF7FEFF 		bl	lv_span_get_style_text_font
 1636 0028 B0F90830 		ldrsh	r3, [r0, #8]
 1637 002c 9D42     		cmp	r5, r3
 1638 002e F1DA     		bge	.L247
 1639 0030 1D46     		mov	r5, r3
 1640 0032 EFE7     		b	.L247
 1641              	.L251:
 1642 0034 2846     		mov	r0, r5
 1643 0036 F8BD     		pop	{r3, r4, r5, r6, r7, pc}
 1645              		.section	.text.lv_spangroup_get_expand_width,"ax",%progbits
 1646              		.align	1
 1647              		.global	lv_spangroup_get_expand_width
 1648              		.syntax unified
 1649              		.thumb
 1650              		.thumb_func
 1652              	lv_spangroup_get_expand_width:
 1653              		@ args = 0, pretend = 0, frame = 16
 1654              		@ frame_needed = 0, uses_anonymous_args = 0
 1655 0000 2DE9F04F 		push	{r4, r5, r6, r7, r8, r9, r10, fp, lr}
 1656 0004 85B0     		sub	sp, sp, #20
 1657 0006 0446     		mov	r4, r0
 1658 0008 0190     		str	r0, [sp, #4]
 1659 000a 8846     		mov	r8, r1
 1660 000c 00F13003 		add	r3, r0, #48
 1661 0010 0093     		str	r3, [sp]
 1662 0012 1846     		mov	r0, r3
ARM GAS  /var/folders/lp/x54gwt890xv47sdkqj1k04q40000gn/T//ccr1r41z.s 			page 29


 1663 0014 FFF7FEFF 		bl	_lv_ll_get_head
 1664 0018 0028     		cmp	r0, #0
 1665 001a 51D0     		beq	.L262
 1666 001c B4F92870 		ldrsh	r7, [r4, #40]
 1667 0020 07F4C043 		and	r3, r7, #24576
 1668 0024 B3F5005F 		cmp	r3, #8192
 1669 0028 06D0     		beq	.L266
 1670              	.L255:
 1671 002a 0098     		ldr	r0, [sp]
 1672 002c FFF7FEFF 		bl	_lv_ll_get_head
 1673 0030 8346     		mov	fp, r0
 1674 0032 4FF00009 		mov	r9, #0
 1675 0036 2AE0     		b	.L256
 1676              	.L266:
 1677 0038 27F4C043 		bic	r3, r7, #24576
 1678 003c B3F5FA6F 		cmp	r3, #2000
 1679 0040 F3DC     		bgt	.L255
 1680 0042 0027     		movs	r7, #0
 1681 0044 F1E7     		b	.L255
 1682              	.L259:
 1683 0046 1F4E     		ldr	r6, .L269
 1684 0048 3368     		ldr	r3, [r6]
 1685 004a 03A9     		add	r1, sp, #12
 1686 004c 2846     		mov	r0, r5
 1687 004e 9847     		blx	r3
 1688 0050 0446     		mov	r4, r0
 1689 0052 3368     		ldr	r3, [r6]
 1690 0054 0021     		movs	r1, #0
 1691 0056 0398     		ldr	r0, [sp, #12]
 1692 0058 2844     		add	r0, r0, r5
 1693 005a 9847     		blx	r3
 1694 005c 0246     		mov	r2, r0
 1695 005e 2146     		mov	r1, r4
 1696 0060 5046     		mov	r0, r10
 1697 0062 FFF7FEFF 		bl	lv_font_get_glyph_width
 1698 0066 3844     		add	r0, r0, r7
 1699 0068 00EB0907 		add	r7, r0, r9
 1700              	.L258:
 1701 006c 039B     		ldr	r3, [sp, #12]
 1702 006e EB5C     		ldrb	r3, [r5, r3]	@ zero_extendqisi2
 1703 0070 43B1     		cbz	r3, .L267
 1704 0072 B8F1000F 		cmp	r8, #0
 1705 0076 E6D0     		beq	.L259
 1706 0078 4745     		cmp	r7, r8
 1707 007a E4D3     		bcc	.L259
 1708 007c 4046     		mov	r0, r8
 1709              	.L252:
 1710 007e 05B0     		add	sp, sp, #20
 1711              		@ sp needed
 1712 0080 BDE8F08F 		pop	{r4, r5, r6, r7, r8, r9, r10, fp, pc}
 1713              	.L267:
 1714 0084 5946     		mov	r1, fp
 1715 0086 0098     		ldr	r0, [sp]
 1716 0088 FFF7FEFF 		bl	_lv_ll_get_next
 1717 008c 8346     		mov	fp, r0
 1718              	.L256:
 1719 008e BBF1000F 		cmp	fp, #0
ARM GAS  /var/folders/lp/x54gwt890xv47sdkqj1k04q40000gn/T//ccr1r41z.s 			page 30


 1720 0092 12D0     		beq	.L268
 1721 0094 5946     		mov	r1, fp
 1722 0096 019C     		ldr	r4, [sp, #4]
 1723 0098 2046     		mov	r0, r4
 1724 009a FFF7FEFF 		bl	lv_span_get_style_text_font
 1725 009e 8246     		mov	r10, r0
 1726 00a0 5946     		mov	r1, fp
 1727 00a2 2046     		mov	r0, r4
 1728 00a4 FFF7FEFF 		bl	lv_span_get_style_text_letter_space
 1729 00a8 8146     		mov	r9, r0
 1730 00aa 0023     		movs	r3, #0
 1731 00ac 0393     		str	r3, [sp, #12]
 1732 00ae DBF80050 		ldr	r5, [fp]
 1733 00b2 002D     		cmp	r5, #0
 1734 00b4 DAD1     		bne	.L258
 1735 00b6 044D     		ldr	r5, .L269+4
 1736 00b8 D8E7     		b	.L258
 1737              	.L268:
 1738 00ba A7EB0900 		sub	r0, r7, r9
 1739 00be DEE7     		b	.L252
 1740              	.L262:
 1741 00c0 0020     		movs	r0, #0
 1742 00c2 DCE7     		b	.L252
 1743              	.L270:
 1744              		.align	2
 1745              	.L269:
 1746 00c4 00000000 		.word	_lv_txt_encoded_next
 1747 00c8 00000000 		.word	.LC0
 1749              		.section	.text.lv_spangroup_get_expand_height,"ax",%progbits
 1750              		.align	1
 1751              		.global	lv_spangroup_get_expand_height
 1752              		.syntax unified
 1753              		.thumb
 1754              		.thumb_func
 1756              	lv_spangroup_get_expand_height:
 1757              		@ args = 0, pretend = 0, frame = 72
 1758              		@ frame_needed = 0, uses_anonymous_args = 0
 1759 0000 2DE9F04F 		push	{r4, r5, r6, r7, r8, r9, r10, fp, lr}
 1760 0004 97B0     		sub	sp, sp, #92
 1761 0006 0446     		mov	r4, r0
 1762 0008 0690     		str	r0, [sp, #24]
 1763 000a 8B46     		mov	fp, r1
 1764 000c 00F13003 		add	r3, r0, #48
 1765 0010 1D46     		mov	r5, r3
 1766 0012 0793     		str	r3, [sp, #28]
 1767 0014 1846     		mov	r0, r3
 1768 0016 FFF7FEFF 		bl	_lv_ll_get_head
 1769 001a 0028     		cmp	r0, #0
 1770 001c 00F00D81 		beq	.L297
 1771 0020 BBF1000F 		cmp	fp, #0
 1772 0024 40F30B81 		ble	.L298
 1773 0028 5922     		movs	r2, #89
 1774 002a 0021     		movs	r1, #0
 1775 002c 2046     		mov	r0, r4
 1776 002e FFF7FEFF 		bl	lv_obj_get_style_prop
 1777 0032 0890     		str	r0, [sp, #32]
 1778 0034 5946     		mov	r1, fp
ARM GAS  /var/folders/lp/x54gwt890xv47sdkqj1k04q40000gn/T//ccr1r41z.s 			page 31


 1779 0036 2046     		mov	r0, r4
 1780 0038 FFF7FEFF 		bl	convert_indent_pct
 1781 003c ABEB0004 		sub	r4, fp, r0
 1782 0040 24B2     		sxth	r4, r4
 1783 0042 0023     		movs	r3, #0
 1784 0044 ADF85630 		strh	r3, [sp, #86]	@ movhi
 1785 0048 ADF85400 		strh	r0, [sp, #84]	@ movhi
 1786 004c 2846     		mov	r0, r5
 1787 004e FFF7FEFF 		bl	_lv_ll_get_head
 1788 0052 8246     		mov	r10, r0
 1789 0054 D0F80090 		ldr	r9, [r0]
 1790 0058 B9F1000F 		cmp	r9, #0
 1791 005c 10D0     		beq	.L312
 1792              	.L273:
 1793 005e 0023     		movs	r3, #0
 1794 0060 1093     		str	r3, [sp, #64]
 1795 0062 1193     		str	r3, [sp, #68]
 1796 0064 1293     		str	r3, [sp, #72]
 1797 0066 1393     		str	r3, [sp, #76]
 1798 0068 1493     		str	r3, [sp, #80]
 1799 006a 069B     		ldr	r3, [sp, #24]
 1800 006c 5A6A     		ldr	r2, [r3, #36]
 1801 006e 002A     		cmp	r2, #0
 1802 0070 09DB     		blt	.L313
 1803              	.L274:
 1804 0072 0026     		movs	r6, #0
 1805 0074 3546     		mov	r5, r6
 1806 0076 0992     		str	r2, [sp, #36]
 1807 0078 4F46     		mov	r7, r9
 1808 007a CDF828B0 		str	fp, [sp, #40]
 1809 007e C9E0     		b	.L275
 1810              	.L312:
 1811 0080 DFF8C091 		ldr	r9, .L319
 1812 0084 EBE7     		b	.L273
 1813              	.L313:
 1814 0086 6FF00042 		mvn	r2, #-2147483648
 1815 008a F2E7     		b	.L274
 1816              	.L316:
 1817 008c 5146     		mov	r1, r10
 1818 008e 0798     		ldr	r0, [sp, #28]
 1819 0090 FFF7FEFF 		bl	_lv_ll_get_next
 1820 0094 8246     		mov	r10, r0
 1821 0096 0028     		cmp	r0, #0
 1822 0098 00F0AF80 		beq	.L277
 1823 009c 0768     		ldr	r7, [r0]
 1824 009e 0FB1     		cbz	r7, .L314
 1825              	.L278:
 1826 00a0 0025     		movs	r5, #0
 1827 00a2 3BE0     		b	.L296
 1828              	.L314:
 1829 00a4 674F     		ldr	r7, .L319
 1830 00a6 FBE7     		b	.L278
 1831              	.L317:
 1832 00a8 CDF840A0 		str	r10, [sp, #64]
 1833 00ac 5146     		mov	r1, r10
 1834 00ae 0698     		ldr	r0, [sp, #24]
 1835 00b0 FFF7FEFF 		bl	lv_span_get_style_text_font
ARM GAS  /var/folders/lp/x54gwt890xv47sdkqj1k04q40000gn/T//ccr1r41z.s 			page 32


 1836 00b4 1290     		str	r0, [sp, #72]
 1837 00b6 5146     		mov	r1, r10
 1838 00b8 0698     		ldr	r0, [sp, #24]
 1839 00ba FFF7FEFF 		bl	lv_span_get_style_text_letter_space
 1840 00be ADF85200 		strh	r0, [sp, #82]	@ movhi
 1841 00c2 129B     		ldr	r3, [sp, #72]
 1842 00c4 B3F90830 		ldrsh	r3, [r3, #8]
 1843 00c8 089A     		ldr	r2, [sp, #32]
 1844 00ca 12FA83F3 		uxtah	r3, r2, r3
 1845 00ce ADF85030 		strh	r3, [sp, #80]	@ movhi
 1846 00d2 2AE0     		b	.L280
 1847              	.L283:
 1848 00d4 A0F59C42 		sub	r2, r0, #19968
 1849 00d8 45F2A513 		movw	r3, #20901
 1850 00dc 9A42     		cmp	r2, r3
 1851 00de 52D8     		bhi	.L315
 1852              	.L281:
 1853 00e0 CDF84490 		str	r9, [sp, #68]
 1854 00e4 0E9A     		ldr	r2, [sp, #56]
 1855 00e6 ADF84C20 		strh	r2, [sp, #76]	@ movhi
 1856 00ea BDF93630 		ldrsh	r3, [sp, #54]
 1857 00ee ADF84E30 		strh	r3, [sp, #78]	@ movhi
 1858 00f2 1544     		add	r5, r5, r2
 1859 00f4 BDF95020 		ldrsh	r2, [sp, #80]
 1860 00f8 5A45     		cmp	r2, fp
 1861 00fa 00DC     		bgt	.L294
 1862 00fc 5A46     		mov	r2, fp
 1863              	.L294:
 1864 00fe 08F10108 		add	r8, r8, #1
 1865 0102 E31A     		subs	r3, r4, r3
 1866 0104 9BB2     		uxth	r3, r3
 1867 0106 BDF85210 		ldrh	r1, [sp, #82]
 1868 010a 5B1A     		subs	r3, r3, r1
 1869 010c 1CB2     		sxth	r4, r3
 1870 010e 059B     		ldr	r3, [sp, #20]
 1871 0110 002B     		cmp	r3, #0
 1872 0112 71D1     		bne	.L305
 1873 0114 002C     		cmp	r4, #0
 1874 0116 40F38480 		ble	.L306
 1875 011a 9346     		mov	fp, r2
 1876              	.L296:
 1877 011c 07EB0509 		add	r9, r7, r5
 1878 0120 7B5D     		ldrb	r3, [r7, r5]	@ zero_extendqisi2
 1879 0122 002B     		cmp	r3, #0
 1880 0124 B2D0     		beq	.L316
 1881 0126 002D     		cmp	r5, #0
 1882 0128 BED0     		beq	.L317
 1883              	.L280:
 1884 012a 0023     		movs	r3, #0
 1885 012c 0E93     		str	r3, [sp, #56]
 1886 012e ADF83630 		strh	r3, [sp, #54]	@ movhi
 1887 0132 0EAA     		add	r2, sp, #56
 1888 0134 0292     		str	r2, [sp, #8]
 1889 0136 0DF13602 		add	r2, sp, #54
 1890 013a 0192     		str	r2, [sp, #4]
 1891 013c 0093     		str	r3, [sp]
 1892 013e 2346     		mov	r3, r4
ARM GAS  /var/folders/lp/x54gwt890xv47sdkqj1k04q40000gn/T//ccr1r41z.s 			page 33


 1893 0140 BDF95220 		ldrsh	r2, [sp, #82]
 1894 0144 1299     		ldr	r1, [sp, #72]
 1895 0146 4846     		mov	r0, r9
 1896 0148 FFF7FEFF 		bl	lv_txt_get_snippet
 1897 014c 0590     		str	r0, [sp, #20]
 1898 014e 0028     		cmp	r0, #0
 1899 0150 C6D0     		beq	.L281
 1900 0152 0E9B     		ldr	r3, [sp, #56]
 1901 0154 002B     		cmp	r3, #0
 1902 0156 C3D0     		beq	.L281
 1903 0158 B8F1000F 		cmp	r8, #0
 1904 015c C0DD     		ble	.L281
 1905 015e BDF93620 		ldrsh	r2, [sp, #54]
 1906 0162 A242     		cmp	r2, r4
 1907 0164 49DC     		bgt	.L277
 1908 0166 0F93     		str	r3, [sp, #60]
 1909 0168 374B     		ldr	r3, .L319+4
 1910 016a 1B68     		ldr	r3, [r3]
 1911 016c 0FA9     		add	r1, sp, #60
 1912 016e 4846     		mov	r0, r9
 1913 0170 9847     		blx	r3
 1914 0172 0D28     		cmp	r0, #13
 1915 0174 AED8     		bhi	.L283
 1916 0176 42F20143 		movw	r3, #9217
 1917 017a C340     		lsrs	r3, r3, r0
 1918 017c 13F0010F 		tst	r3, #1
 1919 0180 AED1     		bne	.L281
 1920 0182 0023     		movs	r3, #0
 1921 0184 00E0     		b	.L287
 1922              	.L315:
 1923 0186 0023     		movs	r3, #0
 1924              	.L287:
 1925 0188 304A     		ldr	r2, .L319+8
 1926 018a D25C     		ldrb	r2, [r2, r3]	@ zero_extendqisi2
 1927 018c 22B1     		cbz	r2, .L318
 1928 018e 9042     		cmp	r0, r2
 1929 0190 19D0     		beq	.L302
 1930 0192 0133     		adds	r3, r3, #1
 1931 0194 DBB2     		uxtb	r3, r3
 1932 0196 F7E7     		b	.L287
 1933              	.L318:
 1934 0198 0023     		movs	r3, #0
 1935 019a 0B93     		str	r3, [sp, #44]
 1936              	.L286:
 1937 019c 0B9B     		ldr	r3, [sp, #44]
 1938 019e 002B     		cmp	r3, #0
 1939 01a0 9ED1     		bne	.L281
 1940 01a2 0F93     		str	r3, [sp, #60]
 1941 01a4 0E9B     		ldr	r3, [sp, #56]
 1942 01a6 2B44     		add	r3, r3, r5
 1943 01a8 294A     		ldr	r2, .L319+12
 1944 01aa 1268     		ldr	r2, [r2]
 1945 01ac 0FA9     		add	r1, sp, #60
 1946 01ae F818     		adds	r0, r7, r3
 1947 01b0 9047     		blx	r2
 1948 01b2 0D28     		cmp	r0, #13
 1949 01b4 0AD8     		bhi	.L289
ARM GAS  /var/folders/lp/x54gwt890xv47sdkqj1k04q40000gn/T//ccr1r41z.s 			page 34


 1950 01b6 42F20143 		movw	r3, #9217
 1951 01ba C340     		lsrs	r3, r3, r0
 1952 01bc 13F0010F 		tst	r3, #1
 1953 01c0 8ED1     		bne	.L281
 1954 01c2 0023     		movs	r3, #0
 1955 01c4 09E0     		b	.L292
 1956              	.L302:
 1957 01c6 059B     		ldr	r3, [sp, #20]
 1958 01c8 0B93     		str	r3, [sp, #44]
 1959 01ca E7E7     		b	.L286
 1960              	.L289:
 1961 01cc A0F59C42 		sub	r2, r0, #19968
 1962 01d0 45F2A513 		movw	r3, #20901
 1963 01d4 9A42     		cmp	r2, r3
 1964 01d6 83D9     		bls	.L281
 1965 01d8 0023     		movs	r3, #0
 1966              	.L292:
 1967 01da 1C4A     		ldr	r2, .L319+8
 1968 01dc D25C     		ldrb	r2, [r2, r3]	@ zero_extendqisi2
 1969 01de 32B1     		cbz	r2, .L291
 1970 01e0 9042     		cmp	r0, r2
 1971 01e2 02D0     		beq	.L304
 1972 01e4 0133     		adds	r3, r3, #1
 1973 01e6 DBB2     		uxtb	r3, r3
 1974 01e8 F7E7     		b	.L292
 1975              	.L304:
 1976 01ea 059B     		ldr	r3, [sp, #20]
 1977 01ec 0B93     		str	r3, [sp, #44]
 1978              	.L291:
 1979 01ee 0B9B     		ldr	r3, [sp, #44]
 1980 01f0 002B     		cmp	r3, #0
 1981 01f2 7FF475AF 		bne	.L281
 1982 01f6 00E0     		b	.L277
 1983              	.L305:
 1984 01f8 9346     		mov	fp, r2
 1985              	.L277:
 1986 01fa 0023     		movs	r3, #0
 1987 01fc ADF85430 		strh	r3, [sp, #84]	@ movhi
 1988 0200 BDF85630 		ldrh	r3, [sp, #86]
 1989 0204 5B44     		add	r3, r3, fp
 1990 0206 ADF85630 		strh	r3, [sp, #86]	@ movhi
 1991 020a 0136     		adds	r6, r6, #1
 1992 020c 099B     		ldr	r3, [sp, #36]
 1993 020e B342     		cmp	r3, r6
 1994 0210 09DD     		ble	.L295
 1995 0212 0A9C     		ldr	r4, [sp, #40]
 1996              	.L275:
 1997 0214 BAF1000F 		cmp	r10, #0
 1998 0218 05D0     		beq	.L295
 1999 021a 4FF0000B 		mov	fp, #0
 2000 021e D846     		mov	r8, fp
 2001 0220 7CE7     		b	.L296
 2002              	.L306:
 2003 0222 9346     		mov	fp, r2
 2004 0224 E9E7     		b	.L277
 2005              	.L295:
 2006 0226 BDF85600 		ldrh	r0, [sp, #86]
ARM GAS  /var/folders/lp/x54gwt890xv47sdkqj1k04q40000gn/T//ccr1r41z.s 			page 35


 2007 022a 089B     		ldr	r3, [sp, #32]
 2008 022c C01A     		subs	r0, r0, r3
 2009 022e 00B2     		sxth	r0, r0
 2010 0230 ADF85600 		strh	r0, [sp, #86]	@ movhi
 2011              	.L272:
 2012 0234 17B0     		add	sp, sp, #92
 2013              		@ sp needed
 2014 0236 BDE8F08F 		pop	{r4, r5, r6, r7, r8, r9, r10, fp, pc}
 2015              	.L297:
 2016 023a 0020     		movs	r0, #0
 2017 023c FAE7     		b	.L272
 2018              	.L298:
 2019 023e 0020     		movs	r0, #0
 2020 0240 F8E7     		b	.L272
 2021              	.L320:
 2022 0242 00BF     		.align	2
 2023              	.L319:
 2024 0244 00000000 		.word	.LC0
 2025 0248 00000000 		.word	_lv_txt_encoded_prev
 2026 024c 04000000 		.word	.LC1
 2027 0250 00000000 		.word	_lv_txt_encoded_next
 2029              		.section	.text.lv_spangroup_event,"ax",%progbits
 2030              		.align	1
 2031              		.syntax unified
 2032              		.thumb
 2033              		.thumb_func
 2035              	lv_spangroup_event:
 2036              		@ args = 0, pretend = 0, frame = 0
 2037              		@ frame_needed = 0, uses_anonymous_args = 0
 2038 0000 70B5     		push	{r4, r5, r6, lr}
 2039 0002 0C46     		mov	r4, r1
 2040 0004 5D48     		ldr	r0, .L347
 2041 0006 FFF7FEFF 		bl	lv_obj_event_base
 2042 000a 0128     		cmp	r0, #1
 2043 000c 00D0     		beq	.L341
 2044              	.L321:
 2045 000e 70BD     		pop	{r4, r5, r6, pc}
 2046              	.L341:
 2047 0010 2046     		mov	r0, r4
 2048 0012 FFF7FEFF 		bl	lv_event_get_code
 2049 0016 0546     		mov	r5, r0
 2050 0018 2046     		mov	r0, r4
 2051 001a FFF7FEFF 		bl	lv_event_get_target
 2052 001e 0646     		mov	r6, r0
 2053 0020 A5F11503 		sub	r3, r5, #21
 2054 0024 172B     		cmp	r3, #23
 2055 0026 F2D8     		bhi	.L321
 2056 0028 01A2     		adr	r2, .L324
 2057 002a 52F823F0 		ldr	pc, [r2, r3, lsl #2]
 2058 002e 00BF     		.p2align 2
 2059              	.L324:
 2060 0030 91000000 		.word	.L327+1
 2061 0034 0F000000 		.word	.L321+1
 2062 0038 0F000000 		.word	.L321+1
 2063 003c 0F000000 		.word	.L321+1
 2064 0040 0F000000 		.word	.L321+1
 2065 0044 0F000000 		.word	.L321+1
ARM GAS  /var/folders/lp/x54gwt890xv47sdkqj1k04q40000gn/T//ccr1r41z.s 			page 36


 2066 0048 0F000000 		.word	.L321+1
 2067 004c 0F000000 		.word	.L321+1
 2068 0050 0F000000 		.word	.L321+1
 2069 0054 0F000000 		.word	.L321+1
 2070 0058 0F000000 		.word	.L321+1
 2071 005c 0F000000 		.word	.L321+1
 2072 0060 0F000000 		.word	.L321+1
 2073 0064 0F000000 		.word	.L321+1
 2074 0068 0F000000 		.word	.L321+1
 2075 006c 0F000000 		.word	.L321+1
 2076 0070 0F000000 		.word	.L321+1
 2077 0074 0F000000 		.word	.L321+1
 2078 0078 0F000000 		.word	.L321+1
 2079 007c 0F000000 		.word	.L321+1
 2080 0080 9F000000 		.word	.L326+1
 2081 0084 99000000 		.word	.L325+1
 2082 0088 0F000000 		.word	.L321+1
 2083 008c A5000000 		.word	.L323+1
 2084              		.p2align 1
 2085              	.L327:
 2086 0090 2046     		mov	r0, r4
 2087 0092 FFF7FEFF 		bl	draw_main
 2088 0096 BAE7     		b	.L321
 2089              	.L325:
 2090 0098 FFF7FEFF 		bl	refresh_self_size
 2091 009c B7E7     		b	.L321
 2092              	.L326:
 2093 009e FFF7FEFF 		bl	refresh_self_size
 2094 00a2 B4E7     		b	.L321
 2095              	.L323:
 2096 00a4 2046     		mov	r0, r4
 2097 00a6 FFF7FEFF 		bl	lv_event_get_param
 2098 00aa 0446     		mov	r4, r0
 2099 00ac 96F83C20 		ldrb	r2, [r6, #60]	@ zero_extendqisi2
 2100 00b0 02F00303 		and	r3, r2, #3
 2101 00b4 012B     		cmp	r3, #1
 2102 00b6 0ED0     		beq	.L342
 2103 00b8 022B     		cmp	r3, #2
 2104 00ba 30D0     		beq	.L343
 2105 00bc 002B     		cmp	r3, #0
 2106 00be 5AD1     		bne	.L336
 2107 00c0 B0F90030 		ldrsh	r3, [r0]
 2108 00c4 002B     		cmp	r3, #0
 2109 00c6 4BDA     		bge	.L344
 2110 00c8 0025     		movs	r5, #0
 2111              	.L334:
 2112 00ca B4F90230 		ldrsh	r3, [r4, #2]
 2113 00ce 002B     		cmp	r3, #0
 2114 00d0 4BDA     		bge	.L345
 2115 00d2 0020     		movs	r0, #0
 2116 00d4 06E0     		b	.L330
 2117              	.L342:
 2118 00d6 12F0080F 		tst	r2, #8
 2119 00da 10D1     		bne	.L346
 2120              	.L329:
 2121 00dc B6F92A50 		ldrsh	r5, [r6, #42]
 2122 00e0 B6F92C00 		ldrsh	r0, [r6, #44]
ARM GAS  /var/folders/lp/x54gwt890xv47sdkqj1k04q40000gn/T//ccr1r41z.s 			page 37


 2123              	.L330:
 2124 00e4 B4F90030 		ldrsh	r3, [r4]
 2125 00e8 AB42     		cmp	r3, r5
 2126 00ea B8BF     		it	lt
 2127 00ec 2B46     		movlt	r3, r5
 2128 00ee 2380     		strh	r3, [r4]	@ movhi
 2129 00f0 B4F90230 		ldrsh	r3, [r4, #2]
 2130 00f4 8342     		cmp	r3, r0
 2131 00f6 B8BF     		it	lt
 2132 00f8 0346     		movlt	r3, r0
 2133 00fa 6380     		strh	r3, [r4, #2]	@ movhi
 2134 00fc 87E7     		b	.L321
 2135              	.L346:
 2136 00fe 0021     		movs	r1, #0
 2137 0100 3046     		mov	r0, r6
 2138 0102 FFF7FEFF 		bl	lv_spangroup_get_expand_width
 2139 0106 7085     		strh	r0, [r6, #42]	@ movhi
 2140 0108 3046     		mov	r0, r6
 2141 010a FFF7FEFF 		bl	lv_spangroup_get_max_line_h
 2142 010e B085     		strh	r0, [r6, #44]	@ movhi
 2143 0110 96F83C30 		ldrb	r3, [r6, #60]	@ zero_extendqisi2
 2144 0114 23F00803 		bic	r3, r3, #8
 2145 0118 86F83C30 		strb	r3, [r6, #60]
 2146 011c DEE7     		b	.L329
 2147              	.L343:
 2148 011e 3046     		mov	r0, r6
 2149 0120 FFF7FEFF 		bl	lv_obj_get_content_width
 2150 0124 0546     		mov	r5, r0
 2151 0126 B4F90230 		ldrsh	r3, [r4, #2]
 2152 012a 002B     		cmp	r3, #0
 2153 012c 21DB     		blt	.L335
 2154 012e B6F92A30 		ldrsh	r3, [r6, #42]
 2155 0132 8342     		cmp	r3, r0
 2156 0134 04D1     		bne	.L332
 2157 0136 96F83C30 		ldrb	r3, [r6, #60]	@ zero_extendqisi2
 2158 013a 13F0080F 		tst	r3, #8
 2159 013e 0CD0     		beq	.L333
 2160              	.L332:
 2161 0140 2946     		mov	r1, r5
 2162 0142 3046     		mov	r0, r6
 2163 0144 FFF7FEFF 		bl	lv_spangroup_get_expand_height
 2164 0148 7585     		strh	r5, [r6, #42]	@ movhi
 2165 014a B085     		strh	r0, [r6, #44]	@ movhi
 2166 014c 96F83C30 		ldrb	r3, [r6, #60]	@ zero_extendqisi2
 2167 0150 23F00803 		bic	r3, r3, #8
 2168 0154 86F83C30 		strb	r3, [r6, #60]
 2169 0158 C4E7     		b	.L330
 2170              	.L333:
 2171 015a B6F92C00 		ldrsh	r0, [r6, #44]
 2172 015e C1E7     		b	.L330
 2173              	.L344:
 2174 0160 3046     		mov	r0, r6
 2175 0162 FFF7FEFF 		bl	lv_obj_get_content_width
 2176 0166 0546     		mov	r5, r0
 2177 0168 AFE7     		b	.L334
 2178              	.L345:
 2179 016a 3046     		mov	r0, r6
ARM GAS  /var/folders/lp/x54gwt890xv47sdkqj1k04q40000gn/T//ccr1r41z.s 			page 38


 2180 016c FFF7FEFF 		bl	lv_obj_get_content_height
 2181 0170 B8E7     		b	.L330
 2182              	.L335:
 2183 0172 0020     		movs	r0, #0
 2184 0174 B6E7     		b	.L330
 2185              	.L336:
 2186 0176 0020     		movs	r0, #0
 2187 0178 0546     		mov	r5, r0
 2188 017a B3E7     		b	.L330
 2189              	.L348:
 2190              		.align	2
 2191              	.L347:
 2192 017c 00000000 		.word	lv_spangroup_class
 2194              		.section	.text.lv_spangroup_refr_mode,"ax",%progbits
 2195              		.align	1
 2196              		.global	lv_spangroup_refr_mode
 2197              		.syntax unified
 2198              		.thumb
 2199              		.thumb_func
 2201              	lv_spangroup_refr_mode:
 2202              		@ args = 0, pretend = 0, frame = 0
 2203              		@ frame_needed = 0, uses_anonymous_args = 0
 2204 0000 10B5     		push	{r4, lr}
 2205 0002 0446     		mov	r4, r0
 2206 0004 90F83C30 		ldrb	r3, [r0, #60]	@ zero_extendqisi2
 2207 0008 03F00303 		and	r3, r3, #3
 2208 000c 012B     		cmp	r3, #1
 2209 000e 06D0     		beq	.L358
 2210 0010 022B     		cmp	r3, #2
 2211 0012 0ED0     		beq	.L359
 2212 0014 0BB3     		cbz	r3, .L360
 2213              	.L351:
 2214 0016 2046     		mov	r0, r4
 2215 0018 FFF7FEFF 		bl	refresh_self_size
 2216 001c 10BD     		pop	{r4, pc}
 2217              	.L358:
 2218 001e 42F2D171 		movw	r1, #10193
 2219 0022 FFF7FEFF 		bl	lv_obj_set_width
 2220 0026 42F2D171 		movw	r1, #10193
 2221 002a 2046     		mov	r0, r4
 2222 002c FFF7FEFF 		bl	lv_obj_set_height
 2223 0030 F1E7     		b	.L351
 2224              	.L359:
 2225 0032 0122     		movs	r2, #1
 2226 0034 0021     		movs	r1, #0
 2227 0036 FFF7FEFF 		bl	lv_obj_get_style_prop
 2228 003a 00B2     		sxth	r0, r0
 2229 003c 42F2D173 		movw	r3, #10193
 2230 0040 9842     		cmp	r0, r3
 2231 0042 05D0     		beq	.L361
 2232              	.L353:
 2233 0044 42F2D171 		movw	r1, #10193
 2234 0048 2046     		mov	r0, r4
 2235 004a FFF7FEFF 		bl	lv_obj_set_height
 2236 004e E2E7     		b	.L351
 2237              	.L361:
 2238 0050 6421     		movs	r1, #100
ARM GAS  /var/folders/lp/x54gwt890xv47sdkqj1k04q40000gn/T//ccr1r41z.s 			page 39


 2239 0052 2046     		mov	r0, r4
 2240 0054 FFF7FEFF 		bl	lv_obj_set_width
 2241 0058 F4E7     		b	.L353
 2242              	.L360:
 2243 005a 0122     		movs	r2, #1
 2244 005c 0021     		movs	r1, #0
 2245 005e FFF7FEFF 		bl	lv_obj_get_style_prop
 2246 0062 00B2     		sxth	r0, r0
 2247 0064 42F2D173 		movw	r3, #10193
 2248 0068 9842     		cmp	r0, r3
 2249 006a 1CD0     		beq	.L362
 2250              	.L354:
 2251 006c 0422     		movs	r2, #4
 2252 006e 0021     		movs	r1, #0
 2253 0070 2046     		mov	r0, r4
 2254 0072 FFF7FEFF 		bl	lv_obj_get_style_prop
 2255 0076 00B2     		sxth	r0, r0
 2256 0078 42F2D173 		movw	r3, #10193
 2257 007c 9842     		cmp	r0, r3
 2258 007e CAD1     		bne	.L351
 2259 0080 0122     		movs	r2, #1
 2260 0082 0021     		movs	r1, #0
 2261 0084 2046     		mov	r0, r4
 2262 0086 FFF7FEFF 		bl	lv_obj_get_style_prop
 2263 008a 01B2     		sxth	r1, r0
 2264 008c 00F4C040 		and	r0, r0, #24576
 2265 0090 B0F5005F 		cmp	r0, #8192
 2266 0094 0CD0     		beq	.L363
 2267              	.L355:
 2268 0096 2046     		mov	r0, r4
 2269 0098 FFF7FEFF 		bl	lv_spangroup_get_expand_height
 2270 009c 0146     		mov	r1, r0
 2271 009e 2046     		mov	r0, r4
 2272 00a0 FFF7FEFF 		bl	lv_obj_set_content_height
 2273 00a4 B7E7     		b	.L351
 2274              	.L362:
 2275 00a6 6421     		movs	r1, #100
 2276 00a8 2046     		mov	r0, r4
 2277 00aa FFF7FEFF 		bl	lv_obj_set_width
 2278 00ae DDE7     		b	.L354
 2279              	.L363:
 2280 00b0 21F4C043 		bic	r3, r1, #24576
 2281 00b4 B3F5FA6F 		cmp	r3, #2000
 2282 00b8 EDDC     		bgt	.L355
 2283 00ba 6421     		movs	r1, #100
 2284 00bc EBE7     		b	.L355
 2286              		.section	.text.lv_spangroup_set_mode,"ax",%progbits
 2287              		.align	1
 2288              		.global	lv_spangroup_set_mode
 2289              		.syntax unified
 2290              		.thumb
 2291              		.thumb_func
 2293              	lv_spangroup_set_mode:
 2294              		@ args = 0, pretend = 0, frame = 0
 2295              		@ frame_needed = 0, uses_anonymous_args = 0
 2296 0000 08B5     		push	{r3, lr}
 2297 0002 90F83C20 		ldrb	r2, [r0, #60]	@ zero_extendqisi2
ARM GAS  /var/folders/lp/x54gwt890xv47sdkqj1k04q40000gn/T//ccr1r41z.s 			page 40


 2298 0006 61F30102 		bfi	r2, r1, #0, #2
 2299 000a 80F83C20 		strb	r2, [r0, #60]
 2300 000e FFF7FEFF 		bl	lv_spangroup_refr_mode
 2301 0012 08BD     		pop	{r3, pc}
 2303              		.section	.text.lv_spangroup_set_lines,"ax",%progbits
 2304              		.align	1
 2305              		.global	lv_spangroup_set_lines
 2306              		.syntax unified
 2307              		.thumb
 2308              		.thumb_func
 2310              	lv_spangroup_set_lines:
 2311              		@ args = 0, pretend = 0, frame = 0
 2312              		@ frame_needed = 0, uses_anonymous_args = 0
 2313 0000 08B5     		push	{r3, lr}
 2314 0002 4162     		str	r1, [r0, #36]
 2315 0004 FFF7FEFF 		bl	lv_spangroup_refr_mode
 2316 0008 08BD     		pop	{r3, pc}
 2318              		.global	lv_spangroup_class
 2319              		.section	.rodata.lv_spangroup_class,"a"
 2320              		.align	2
 2323              	lv_spangroup_class:
 2324 0000 00000000 		.word	lv_obj_class
 2325 0004 00000000 		.word	lv_spangroup_constructor
 2326 0008 00000000 		.word	lv_spangroup_destructor
 2327 000c 00000000 		.space	4
 2328 0010 00000000 		.word	lv_spangroup_event
 2329 0014 D127     		.short	10193
 2330 0016 D127     		.short	10193
 2331 0018 00       		.byte	0
 2332 0019 04       		.byte	4
 2333 001a 00       		.byte	0
 2334 001b 00       		.space	1
 2335              		.section	.bss.snippet_stack,"aw",%nobits
 2336              		.align	2
 2339              	snippet_stack:
 2340 0000 00000000 		.space	1284
 2340      00000000 
 2340      00000000 
 2340      00000000 
 2340      00000000 
 2341              		.ident	"GCC: (xPack GNU Arm Embedded GCC arm64) 13.3.1 20240614"
ARM GAS  /var/folders/lp/x54gwt890xv47sdkqj1k04q40000gn/T//ccr1r41z.s 			page 41

