ARM GAS  /var/folders/lp/x54gwt890xv47sdkqj1k04q40000gn/T//ccFLvW72.s 			page 1


   1              		.cpu cortex-m4
   2              		.arch armv7e-m
   3              		.fpu fpv4-sp-d16
   4              		.eabi_attribute 27, 1
   5              		.eabi_attribute 28, 1
   6              		.eabi_attribute 20, 1
   7              		.eabi_attribute 21, 1
   8              		.eabi_attribute 23, 3
   9              		.eabi_attribute 24, 1
  10              		.eabi_attribute 25, 1
  11              		.eabi_attribute 26, 1
  12              		.eabi_attribute 30, 1
  13              		.eabi_attribute 34, 1
  14              		.eabi_attribute 18, 4
  15              		.file	"lv_style.c"
  16              		.text
  17              		.section	.text.lv_style_set_prop_helper,"ax",%progbits
  18              		.align	1
  19              		.syntax unified
  20              		.thumb
  21              		.thumb_func
  23              	lv_style_set_prop_helper:
  24              		@ args = 0, pretend = 0, frame = 0
  25              		@ frame_needed = 0, uses_anonymous_args = 0
  26              		@ link register save eliminated.
  27 0000 1080     		strh	r0, [r2]	@ movhi
  28 0002 1960     		str	r1, [r3]
  29 0004 7047     		bx	lr
  31              		.section	.text.lv_style_set_prop_meta_helper,"ax",%progbits
  32              		.align	1
  33              		.syntax unified
  34              		.thumb
  35              		.thumb_func
  37              	lv_style_set_prop_meta_helper:
  38              		@ args = 0, pretend = 0, frame = 0
  39              		@ frame_needed = 0, uses_anonymous_args = 0
  40              		@ link register save eliminated.
  41 0000 1080     		strh	r0, [r2]	@ movhi
  42 0002 7047     		bx	lr
  44              		.section	.text.lv_style_init,"ax",%progbits
  45              		.align	1
  46              		.global	lv_style_init
  47              		.syntax unified
  48              		.thumb
  49              		.thumb_func
  51              	lv_style_init:
  52              		@ args = 0, pretend = 0, frame = 0
  53              		@ frame_needed = 0, uses_anonymous_args = 0
  54 0000 08B5     		push	{r3, lr}
  55 0002 0821     		movs	r1, #8
  56 0004 FFF7FEFF 		bl	lv_memset_00
  57 0008 08BD     		pop	{r3, pc}
  59              		.section	.text.lv_style_reset,"ax",%progbits
  60              		.align	1
  61              		.global	lv_style_reset
  62              		.syntax unified
  63              		.thumb
ARM GAS  /var/folders/lp/x54gwt890xv47sdkqj1k04q40000gn/T//ccFLvW72.s 			page 2


  64              		.thumb_func
  66              	lv_style_reset:
  67              		@ args = 0, pretend = 0, frame = 0
  68              		@ frame_needed = 0, uses_anonymous_args = 0
  69 0000 8288     		ldrh	r2, [r0, #4]
  70 0002 4FF6FF73 		movw	r3, #65535
  71 0006 9A42     		cmp	r2, r3
  72 0008 0DD0     		beq	.L9
  73 000a 10B5     		push	{r4, lr}
  74 000c 0446     		mov	r4, r0
  75 000e C379     		ldrb	r3, [r0, #7]	@ zero_extendqisi2
  76 0010 012B     		cmp	r3, #1
  77 0012 04D8     		bhi	.L12
  78              	.L7:
  79 0014 0821     		movs	r1, #8
  80 0016 2046     		mov	r0, r4
  81 0018 FFF7FEFF 		bl	lv_memset_00
  82 001c 10BD     		pop	{r4, pc}
  83              	.L12:
  84 001e 0068     		ldr	r0, [r0]
  85 0020 FFF7FEFF 		bl	lv_mem_free
  86 0024 F6E7     		b	.L7
  87              	.L9:
  88 0026 7047     		bx	lr
  90              		.section	.text.lv_style_register_prop,"ax",%progbits
  91              		.align	1
  92              		.global	lv_style_register_prop
  93              		.syntax unified
  94              		.thumb
  95              		.thumb_func
  97              	lv_style_register_prop:
  98              		@ args = 0, pretend = 0, frame = 0
  99              		@ frame_needed = 0, uses_anonymous_args = 0
 100 0000 38B5     		push	{r3, r4, r5, lr}
 101 0002 0546     		mov	r5, r0
 102 0004 194B     		ldr	r3, .L25
 103 0006 1868     		ldr	r0, [r3]
 104 0008 80B1     		cbz	r0, .L24
 105              	.L14:
 106 000a 194B     		ldr	r3, .L25+4
 107 000c 1B88     		ldrh	r3, [r3]
 108 000e 5A1C     		adds	r2, r3, #1
 109 0010 12F4404F 		tst	r2, #49152
 110 0014 26D1     		bne	.L21
 111 0016 A3F16F02 		sub	r2, r3, #111
 112 001a 1649     		ldr	r1, .L25+8
 113 001c 0968     		ldr	r1, [r1]
 114 001e 9142     		cmp	r1, r2
 115 0020 13D2     		bcs	.L16
 116 0022 503B     		subs	r3, r3, #80
 117 0024 33F01F04 		bics	r4, r3, #31
 118 0028 07D1     		bne	.L17
 119              	.L18:
 120 002a FEE7     		b	.L18
 121              	.L24:
 122 002c 114B     		ldr	r3, .L25+8
 123 002e 0022     		movs	r2, #0
ARM GAS  /var/folders/lp/x54gwt890xv47sdkqj1k04q40000gn/T//ccFLvW72.s 			page 3


 124 0030 1A60     		str	r2, [r3]
 125 0032 0F4B     		ldr	r3, .L25+4
 126 0034 7022     		movs	r2, #112
 127 0036 1A80     		strh	r2, [r3]	@ movhi
 128 0038 E7E7     		b	.L14
 129              	.L17:
 130 003a 2146     		mov	r1, r4
 131 003c FFF7FEFF 		bl	lv_mem_realloc
 132 0040 90B1     		cbz	r0, .L22
 133 0042 0A4B     		ldr	r3, .L25
 134 0044 1860     		str	r0, [r3]
 135 0046 0B4B     		ldr	r3, .L25+8
 136 0048 1C60     		str	r4, [r3]
 137              	.L16:
 138 004a 094A     		ldr	r2, .L25+4
 139 004c 1388     		ldrh	r3, [r2]
 140 004e 0133     		adds	r3, r3, #1
 141 0050 98B2     		uxth	r0, r3
 142 0052 1080     		strh	r0, [r2]	@ movhi
 143 0054 054B     		ldr	r3, .L25
 144 0056 1B68     		ldr	r3, [r3]
 145 0058 1BB1     		cbz	r3, .L20
 146 005a A0F17102 		sub	r2, r0, #113
 147 005e 9D54     		strb	r5, [r3, r2]
 148 0060 01E0     		b	.L15
 149              	.L20:
 150 0062 FEE7     		b	.L20
 151              	.L21:
 152 0064 0020     		movs	r0, #0
 153              	.L15:
 154 0066 38BD     		pop	{r3, r4, r5, pc}
 155              	.L22:
 156 0068 0020     		movs	r0, #0
 157 006a FCE7     		b	.L15
 158              	.L26:
 159              		.align	2
 160              	.L25:
 161 006c 00000000 		.word	_lv_style_custom_prop_flag_lookup_table
 162 0070 00000000 		.word	last_custom_prop_id
 163 0074 00000000 		.word	_lv_style_custom_prop_flag_lookup_table_size
 165              		.section	.text.lv_style_get_num_custom_props,"ax",%progbits
 166              		.align	1
 167              		.global	lv_style_get_num_custom_props
 168              		.syntax unified
 169              		.thumb
 170              		.thumb_func
 172              	lv_style_get_num_custom_props:
 173              		@ args = 0, pretend = 0, frame = 0
 174              		@ frame_needed = 0, uses_anonymous_args = 0
 175              		@ link register save eliminated.
 176 0000 024B     		ldr	r3, .L28
 177 0002 1888     		ldrh	r0, [r3]
 178 0004 7038     		subs	r0, r0, #112
 179 0006 80B2     		uxth	r0, r0
 180 0008 7047     		bx	lr
 181              	.L29:
 182 000a 00BF     		.align	2
ARM GAS  /var/folders/lp/x54gwt890xv47sdkqj1k04q40000gn/T//ccFLvW72.s 			page 4


 183              	.L28:
 184 000c 00000000 		.word	last_custom_prop_id
 186              		.section	.text.lv_style_remove_prop,"ax",%progbits
 187              		.align	1
 188              		.global	lv_style_remove_prop
 189              		.syntax unified
 190              		.thumb
 191              		.thumb_func
 193              	lv_style_remove_prop:
 194              		@ args = 0, pretend = 0, frame = 0
 195              		@ frame_needed = 0, uses_anonymous_args = 0
 196 0000 F8B5     		push	{r3, r4, r5, r6, r7, lr}
 197 0002 8388     		ldrh	r3, [r0, #4]
 198 0004 4FF6FF72 		movw	r2, #65535
 199 0008 9342     		cmp	r3, r2
 200 000a 5BD0     		beq	.L44
 201 000c 0546     		mov	r5, r0
 202 000e 0C46     		mov	r4, r1
 203 0010 C179     		ldrb	r1, [r0, #7]	@ zero_extendqisi2
 204 0012 0029     		cmp	r1, #0
 205 0014 58D0     		beq	.L45
 206 0016 0129     		cmp	r1, #1
 207 0018 0DD0     		beq	.L49
 208 001a 0768     		ldr	r7, [r0]
 209 001c 07EB8106 		add	r6, r7, r1, lsl #2
 210 0020 0023     		movs	r3, #0
 211              	.L33:
 212 0022 9942     		cmp	r1, r3
 213 0024 4CD9     		bls	.L50
 214 0026 36F81320 		ldrh	r2, [r6, r3, lsl #1]
 215 002a C2F30D02 		ubfx	r2, r2, #0, #14
 216 002e A242     		cmp	r2, r4
 217 0030 0CD0     		beq	.L51
 218 0032 0133     		adds	r3, r3, #1
 219 0034 F5E7     		b	.L33
 220              	.L49:
 221 0036 C3F30D03 		ubfx	r3, r3, #0, #14
 222 003a A342     		cmp	r3, r4
 223 003c 01D0     		beq	.L52
 224 003e 0020     		movs	r0, #0
 225 0040 43E0     		b	.L31
 226              	.L52:
 227 0042 0023     		movs	r3, #0
 228 0044 8380     		strh	r3, [r0, #4]	@ movhi
 229 0046 C371     		strb	r3, [r0, #7]
 230 0048 0120     		movs	r0, #1
 231 004a 3EE0     		b	.L31
 232              	.L51:
 233 004c 0229     		cmp	r1, #2
 234 004e 10D0     		beq	.L53
 235 0050 0139     		subs	r1, r1, #1
 236 0052 01EB4101 		add	r1, r1, r1, lsl #1
 237 0056 4800     		lsls	r0, r1, #1
 238 0058 FFF7FEFF 		bl	lv_mem_alloc
 239 005c 8446     		mov	ip, r0
 240 005e A8B3     		cbz	r0, .L47
 241 0060 2860     		str	r0, [r5]
ARM GAS  /var/folders/lp/x54gwt890xv47sdkqj1k04q40000gn/T//ccFLvW72.s 			page 5


 242 0062 E879     		ldrb	r0, [r5, #7]	@ zero_extendqisi2
 243 0064 0138     		subs	r0, r0, #1
 244 0066 C0B2     		uxtb	r0, r0
 245 0068 E871     		strb	r0, [r5, #7]
 246 006a 8000     		lsls	r0, r0, #2
 247 006c 0023     		movs	r3, #0
 248 006e 1A46     		mov	r2, r3
 249 0070 13E0     		b	.L40
 250              	.L53:
 251 0072 0122     		movs	r2, #1
 252 0074 EA71     		strb	r2, [r5, #7]
 253 0076 4BB9     		cbnz	r3, .L36
 254 0078 7288     		ldrh	r2, [r6, #2]
 255              	.L37:
 256 007a AA80     		strh	r2, [r5, #4]	@ movhi
 257 007c 4BB9     		cbnz	r3, .L38
 258 007e 7B68     		ldr	r3, [r7, #4]
 259 0080 2B60     		str	r3, [r5]
 260              	.L39:
 261 0082 3846     		mov	r0, r7
 262 0084 FFF7FEFF 		bl	lv_mem_free
 263 0088 0120     		movs	r0, #1
 264 008a 1EE0     		b	.L31
 265              	.L36:
 266 008c 37F82120 		ldrh	r2, [r7, r1, lsl #2]
 267 0090 F3E7     		b	.L37
 268              	.L38:
 269 0092 3B68     		ldr	r3, [r7]
 270 0094 2B60     		str	r3, [r5]
 271 0096 F4E7     		b	.L39
 272              	.L41:
 273 0098 0133     		adds	r3, r3, #1
 274              	.L40:
 275 009a E979     		ldrb	r1, [r5, #7]	@ zero_extendqisi2
 276 009c 9942     		cmp	r1, r3
 277 009e F0D3     		bcc	.L39
 278 00a0 36F81310 		ldrh	r1, [r6, r3, lsl #1]
 279 00a4 A142     		cmp	r1, r4
 280 00a6 F7D0     		beq	.L41
 281 00a8 57F82310 		ldr	r1, [r7, r3, lsl #2]
 282 00ac 4CF82210 		str	r1, [ip, r2, lsl #2]
 283 00b0 00EB4201 		add	r1, r0, r2, lsl #1
 284 00b4 36F813E0 		ldrh	lr, [r6, r3, lsl #1]
 285 00b8 2CF801E0 		strh	lr, [ip, r1]	@ movhi
 286 00bc 0132     		adds	r2, r2, #1
 287 00be EBE7     		b	.L41
 288              	.L50:
 289 00c0 0020     		movs	r0, #0
 290 00c2 02E0     		b	.L31
 291              	.L44:
 292 00c4 0020     		movs	r0, #0
 293 00c6 00E0     		b	.L31
 294              	.L45:
 295 00c8 0020     		movs	r0, #0
 296              	.L31:
 297 00ca F8BD     		pop	{r3, r4, r5, r6, r7, pc}
 298              	.L47:
ARM GAS  /var/folders/lp/x54gwt890xv47sdkqj1k04q40000gn/T//ccFLvW72.s 			page 6


 299 00cc 0020     		movs	r0, #0
 300 00ce FCE7     		b	.L31
 302              		.section	.text.lv_style_transition_dsc_init,"ax",%progbits
 303              		.align	1
 304              		.global	lv_style_transition_dsc_init
 305              		.syntax unified
 306              		.thumb
 307              		.thumb_func
 309              	lv_style_transition_dsc_init:
 310              		@ args = 8, pretend = 0, frame = 0
 311              		@ frame_needed = 0, uses_anonymous_args = 0
 312 0000 F8B5     		push	{r3, r4, r5, r6, r7, lr}
 313 0002 0446     		mov	r4, r0
 314 0004 0F46     		mov	r7, r1
 315 0006 1546     		mov	r5, r2
 316 0008 1E46     		mov	r6, r3
 317 000a 1421     		movs	r1, #20
 318 000c FFF7FEFF 		bl	lv_memset_00
 319 0010 2760     		str	r7, [r4]
 320 0012 35B1     		cbz	r5, .L58
 321              	.L55:
 322 0014 A560     		str	r5, [r4, #8]
 323 0016 E660     		str	r6, [r4, #12]
 324 0018 069B     		ldr	r3, [sp, #24]
 325 001a 2361     		str	r3, [r4, #16]
 326 001c 079B     		ldr	r3, [sp, #28]
 327 001e 6360     		str	r3, [r4, #4]
 328 0020 F8BD     		pop	{r3, r4, r5, r6, r7, pc}
 329              	.L58:
 330 0022 014D     		ldr	r5, .L59
 331 0024 F6E7     		b	.L55
 332              	.L60:
 333 0026 00BF     		.align	2
 334              	.L59:
 335 0028 00000000 		.word	lv_anim_path_linear
 337              		.section	.text.lv_style_prop_get_default,"ax",%progbits
 338              		.align	1
 339              		.global	lv_style_prop_get_default
 340              		.syntax unified
 341              		.thumb
 342              		.thumb_func
 344              	lv_style_prop_get_default:
 345              		@ args = 0, pretend = 0, frame = 0
 346              		@ frame_needed = 0, uses_anonymous_args = 0
 347              		@ link register save eliminated.
 348 0000 3628     		cmp	r0, #54
 349 0002 20D8     		bhi	.L62
 350 0004 0328     		cmp	r0, #3
 351 0006 63D3     		bcc	.L64
 352 0008 0338     		subs	r0, r0, #3
 353 000a 3328     		cmp	r0, #51
 354 000c 60D8     		bhi	.L64
 355 000e DFE800F0 		tbb	[pc, r0]
 356              	.L70:
 357 0012 5C       		.byte	(.L74-.L70)/2
 358 0013 5F       		.byte	(.L64-.L70)/2
 359 0014 5F       		.byte	(.L64-.L70)/2
ARM GAS  /var/folders/lp/x54gwt890xv47sdkqj1k04q40000gn/T//ccFLvW72.s 			page 7


 360 0015 5C       		.byte	(.L74-.L70)/2
 361 0016 5F       		.byte	(.L64-.L70)/2
 362 0017 5F       		.byte	(.L64-.L70)/2
 363 0018 5F       		.byte	(.L64-.L70)/2
 364 0019 5F       		.byte	(.L64-.L70)/2
 365 001a 5F       		.byte	(.L64-.L70)/2
 366 001b 5F       		.byte	(.L64-.L70)/2
 367 001c 5F       		.byte	(.L64-.L70)/2
 368 001d 5F       		.byte	(.L64-.L70)/2
 369 001e 5F       		.byte	(.L64-.L70)/2
 370 001f 5F       		.byte	(.L64-.L70)/2
 371 0020 5F       		.byte	(.L64-.L70)/2
 372 0021 5F       		.byte	(.L64-.L70)/2
 373 0022 5F       		.byte	(.L64-.L70)/2
 374 0023 5F       		.byte	(.L64-.L70)/2
 375 0024 5F       		.byte	(.L64-.L70)/2
 376 0025 5F       		.byte	(.L64-.L70)/2
 377 0026 5F       		.byte	(.L64-.L70)/2
 378 0027 5F       		.byte	(.L64-.L70)/2
 379 0028 5F       		.byte	(.L64-.L70)/2
 380 0029 5F       		.byte	(.L64-.L70)/2
 381 002a 5F       		.byte	(.L64-.L70)/2
 382 002b 5F       		.byte	(.L64-.L70)/2
 383 002c 5F       		.byte	(.L64-.L70)/2
 384 002d 5F       		.byte	(.L64-.L70)/2
 385 002e 5F       		.byte	(.L64-.L70)/2
 386 002f 42       		.byte	(.L73-.L70)/2
 387 0030 5F       		.byte	(.L64-.L70)/2
 388 0031 48       		.byte	(.L69-.L70)/2
 389 0032 5F       		.byte	(.L64-.L70)/2
 390 0033 5F       		.byte	(.L64-.L70)/2
 391 0034 56       		.byte	(.L72-.L70)/2
 392 0035 5F       		.byte	(.L64-.L70)/2
 393 0036 5F       		.byte	(.L64-.L70)/2
 394 0037 5F       		.byte	(.L64-.L70)/2
 395 0038 3D       		.byte	(.L67-.L70)/2
 396 0039 5F       		.byte	(.L64-.L70)/2
 397 003a 5F       		.byte	(.L64-.L70)/2
 398 003b 5F       		.byte	(.L64-.L70)/2
 399 003c 5F       		.byte	(.L64-.L70)/2
 400 003d 5F       		.byte	(.L64-.L70)/2
 401 003e 5F       		.byte	(.L64-.L70)/2
 402 003f 48       		.byte	(.L69-.L70)/2
 403 0040 3D       		.byte	(.L67-.L70)/2
 404 0041 5F       		.byte	(.L64-.L70)/2
 405 0042 58       		.byte	(.L71-.L70)/2
 406 0043 5F       		.byte	(.L64-.L70)/2
 407 0044 5F       		.byte	(.L64-.L70)/2
 408 0045 48       		.byte	(.L69-.L70)/2
 409              		.p2align 1
 410              	.L62:
 411 0046 5528     		cmp	r0, #85
 412 0048 14D9     		bls	.L84
 413 004a 6D28     		cmp	r0, #109
 414 004c 40D8     		bhi	.L64
 415 004e 5628     		cmp	r0, #86
 416 0050 3ED3     		bcc	.L64
ARM GAS  /var/folders/lp/x54gwt890xv47sdkqj1k04q40000gn/T//ccFLvW72.s 			page 8


 417 0052 5638     		subs	r0, r0, #86
 418 0054 1728     		cmp	r0, #23
 419 0056 3BD8     		bhi	.L64
 420 0058 DFE800F0 		tbb	[pc, r0]
 421              	.L66:
 422 005c 18       		.byte	(.L67-.L66)/2
 423 005d 35       		.byte	(.L68-.L66)/2
 424 005e 3A       		.byte	(.L64-.L66)/2
 425 005f 3A       		.byte	(.L64-.L66)/2
 426 0060 3A       		.byte	(.L64-.L66)/2
 427 0061 3A       		.byte	(.L64-.L66)/2
 428 0062 3A       		.byte	(.L64-.L66)/2
 429 0063 3A       		.byte	(.L64-.L66)/2
 430 0064 3A       		.byte	(.L64-.L66)/2
 431 0065 3A       		.byte	(.L64-.L66)/2
 432 0066 18       		.byte	(.L67-.L66)/2
 433 0067 18       		.byte	(.L67-.L66)/2
 434 0068 3A       		.byte	(.L64-.L66)/2
 435 0069 3A       		.byte	(.L64-.L66)/2
 436 006a 3A       		.byte	(.L64-.L66)/2
 437 006b 3A       		.byte	(.L64-.L66)/2
 438 006c 3A       		.byte	(.L64-.L66)/2
 439 006d 3A       		.byte	(.L64-.L66)/2
 440 006e 3A       		.byte	(.L64-.L66)/2
 441 006f 3A       		.byte	(.L64-.L66)/2
 442 0070 3A       		.byte	(.L64-.L66)/2
 443 0071 3A       		.byte	(.L64-.L66)/2
 444 0072 3A       		.byte	(.L64-.L66)/2
 445 0073 1A       		.byte	(.L65-.L66)/2
 446              		.p2align 1
 447              	.L84:
 448 0074 3728     		cmp	r0, #55
 449 0076 2BD3     		bcc	.L64
 450 0078 3738     		subs	r0, r0, #55
 451 007a 80B2     		uxth	r0, r0
 452 007c 0123     		movs	r3, #1
 453 007e 8340     		lsls	r3, r3, r0
 454 0080 144A     		ldr	r2, .L85
 455 0082 1A40     		ands	r2, r2, r3
 456 0084 6AB9     		cbnz	r2, .L69
 457 0086 144A     		ldr	r2, .L85+4
 458 0088 1A40     		ands	r2, r2, r3
 459 008a 0AB3     		cbz	r2, .L64
 460              	.L67:
 461 008c FF20     		movs	r0, #255
 462 008e 7047     		bx	lr
 463              	.L65:
 464 0090 4FF48070 		mov	r0, #256
 465 0094 7047     		bx	lr
 466              	.L73:
 467 0096 0020     		movs	r0, #0
 468 0098 4FF6FF73 		movw	r3, #65535
 469 009c 63F30F00 		bfi	r0, r3, #0, #16
 470 00a0 7047     		bx	lr
 471              	.L69:
 472 00a2 4FF00003 		mov	r3, #0	@ movhi
 473 00a6 23F00703 		bic	r3, r3, #7
ARM GAS  /var/folders/lp/x54gwt890xv47sdkqj1k04q40000gn/T//ccFLvW72.s 			page 9


 474 00aa 23F0F803 		bic	r3, r3, #248
 475 00ae 23F4F853 		bic	r3, r3, #7936
 476 00b2 23F46043 		bic	r3, r3, #57344
 477 00b6 0020     		movs	r0, #0
 478 00b8 63F30F00 		bfi	r0, r3, #0, #16
 479 00bc 7047     		bx	lr
 480              	.L72:
 481 00be FF20     		movs	r0, #255
 482 00c0 7047     		bx	lr
 483              	.L71:
 484 00c2 0F20     		movs	r0, #15
 485 00c4 7047     		bx	lr
 486              	.L68:
 487 00c6 0548     		ldr	r0, .L85+8
 488 00c8 7047     		bx	lr
 489              	.L74:
 490 00ca 41F6FF70 		movw	r0, #8191
 491 00ce 7047     		bx	lr
 492              	.L64:
 493 00d0 0020     		movs	r0, #0
 494 00d2 7047     		bx	lr
 495              	.L86:
 496              		.align	2
 497              	.L85:
 498 00d4 00204148 		.word	1212227584
 499 00d8 01C08010 		.word	276873217
 500 00dc 00000000 		.word	lv_font_montserrat_14
 502              		.section	.text.lv_style_get_prop_inlined,"ax",%progbits
 503              		.align	1
 504              		.syntax unified
 505              		.thumb
 506              		.thumb_func
 508              	lv_style_get_prop_inlined:
 509              		@ args = 0, pretend = 0, frame = 0
 510              		@ frame_needed = 0, uses_anonymous_args = 0
 511 0000 38B5     		push	{r3, r4, r5, lr}
 512 0002 8446     		mov	ip, r0
 513 0004 1446     		mov	r4, r2
 514 0006 8388     		ldrh	r3, [r0, #4]
 515 0008 4FF6FF72 		movw	r2, #65535
 516 000c 9342     		cmp	r3, r2
 517 000e 19D0     		beq	.L110
 518 0010 C079     		ldrb	r0, [r0, #7]	@ zero_extendqisi2
 519 0012 48B3     		cbz	r0, .L91
 520 0014 0128     		cmp	r0, #1
 521 0016 42D9     		bls	.L95
 522 0018 DCF80050 		ldr	r5, [ip]
 523 001c 8646     		mov	lr, r0
 524 001e 05EB800C 		add	ip, r5, r0, lsl #2
 525 0022 0023     		movs	r3, #0
 526 0024 26E0     		b	.L96
 527              	.L112:
 528 0026 12F4004F 		tst	r2, #32768
 529 002a 4DD1     		bne	.L104
 530 002c 12F4804F 		tst	r2, #16384
 531 0030 04D0     		beq	.L92
 532 0032 FFF7FEFF 		bl	lv_style_prop_get_default
ARM GAS  /var/folders/lp/x54gwt890xv47sdkqj1k04q40000gn/T//ccFLvW72.s 			page 10


 533 0036 2060     		str	r0, [r4]
 534              	.L93:
 535 0038 0120     		movs	r0, #1
 536 003a 15E0     		b	.L91
 537              	.L92:
 538 003c DEF80430 		ldr	r3, [lr, #4]
 539 0040 2360     		str	r3, [r4]
 540 0042 F9E7     		b	.L93
 541              	.L110:
 542 0044 0023     		movs	r3, #0
 543              	.L88:
 544 0046 9CF80720 		ldrb	r2, [ip, #7]	@ zero_extendqisi2
 545 004a 9A42     		cmp	r2, r3
 546 004c 0BD9     		bls	.L111
 547 004e DCF80000 		ldr	r0, [ip]
 548 0052 00EBC30E 		add	lr, r0, r3, lsl #3
 549 0056 30F83320 		ldrh	r2, [r0, r3, lsl #3]
 550 005a C2F30D00 		ubfx	r0, r2, #0, #14
 551 005e 8142     		cmp	r1, r0
 552 0060 E1D0     		beq	.L112
 553 0062 0133     		adds	r3, r3, #1
 554 0064 EFE7     		b	.L88
 555              	.L111:
 556 0066 0020     		movs	r0, #0
 557              	.L91:
 558 0068 38BD     		pop	{r3, r4, r5, pc}
 559              	.L98:
 560 006a 55F82330 		ldr	r3, [r5, r3, lsl #2]
 561 006e 2360     		str	r3, [r4]
 562 0070 11E0     		b	.L99
 563              	.L97:
 564 0072 0133     		adds	r3, r3, #1
 565              	.L96:
 566 0074 9E45     		cmp	lr, r3
 567 0076 10D9     		bls	.L113
 568 0078 3CF81320 		ldrh	r2, [ip, r3, lsl #1]
 569 007c C2F30D00 		ubfx	r0, r2, #0, #14
 570 0080 8142     		cmp	r1, r0
 571 0082 F6D1     		bne	.L97
 572 0084 12F4004F 		tst	r2, #32768
 573 0088 20D1     		bne	.L105
 574 008a 12F4804F 		tst	r2, #16384
 575 008e ECD0     		beq	.L98
 576 0090 FFF7FEFF 		bl	lv_style_prop_get_default
 577 0094 2060     		str	r0, [r4]
 578              	.L99:
 579 0096 0120     		movs	r0, #1
 580 0098 E6E7     		b	.L91
 581              	.L113:
 582 009a 0020     		movs	r0, #0
 583 009c E4E7     		b	.L91
 584              	.L95:
 585 009e C3F30D00 		ubfx	r0, r3, #0, #14
 586 00a2 8142     		cmp	r1, r0
 587 00a4 01D0     		beq	.L114
 588 00a6 0020     		movs	r0, #0
 589 00a8 DEE7     		b	.L91
ARM GAS  /var/folders/lp/x54gwt890xv47sdkqj1k04q40000gn/T//ccFLvW72.s 			page 11


 590              	.L114:
 591 00aa 13F4004F 		tst	r3, #32768
 592 00ae 0FD1     		bne	.L107
 593 00b0 13F4804F 		tst	r3, #16384
 594 00b4 04D0     		beq	.L101
 595 00b6 FFF7FEFF 		bl	lv_style_prop_get_default
 596 00ba 2060     		str	r0, [r4]
 597              	.L102:
 598 00bc 0120     		movs	r0, #1
 599 00be D3E7     		b	.L91
 600              	.L101:
 601 00c0 DCF80030 		ldr	r3, [ip]
 602 00c4 2360     		str	r3, [r4]
 603 00c6 F9E7     		b	.L102
 604              	.L104:
 605 00c8 0220     		movs	r0, #2
 606 00ca CDE7     		b	.L91
 607              	.L105:
 608 00cc 0220     		movs	r0, #2
 609 00ce CBE7     		b	.L91
 610              	.L107:
 611 00d0 0220     		movs	r0, #2
 612 00d2 C9E7     		b	.L91
 614              		.section	.text.lv_style_get_prop,"ax",%progbits
 615              		.align	1
 616              		.global	lv_style_get_prop
 617              		.syntax unified
 618              		.thumb
 619              		.thumb_func
 621              	lv_style_get_prop:
 622              		@ args = 0, pretend = 0, frame = 0
 623              		@ frame_needed = 0, uses_anonymous_args = 0
 624 0000 08B5     		push	{r3, lr}
 625 0002 FFF7FEFF 		bl	lv_style_get_prop_inlined
 626 0006 08BD     		pop	{r3, pc}
 628              		.section	.text.lv_style_is_empty,"ax",%progbits
 629              		.align	1
 630              		.global	lv_style_is_empty
 631              		.syntax unified
 632              		.thumb
 633              		.thumb_func
 635              	lv_style_is_empty:
 636              		@ args = 0, pretend = 0, frame = 0
 637              		@ frame_needed = 0, uses_anonymous_args = 0
 638              		@ link register save eliminated.
 639 0000 C079     		ldrb	r0, [r0, #7]	@ zero_extendqisi2
 640 0002 B0FA80F0 		clz	r0, r0
 641 0006 4009     		lsrs	r0, r0, #5
 642 0008 7047     		bx	lr
 644              		.section	.text._lv_style_get_prop_group,"ax",%progbits
 645              		.align	1
 646              		.global	_lv_style_get_prop_group
 647              		.syntax unified
 648              		.thumb
 649              		.thumb_func
 651              	_lv_style_get_prop_group:
 652              		@ args = 0, pretend = 0, frame = 0
ARM GAS  /var/folders/lp/x54gwt890xv47sdkqj1k04q40000gn/T//ccFLvW72.s 			page 12


 653              		@ frame_needed = 0, uses_anonymous_args = 0
 654              		@ link register save eliminated.
 655 0000 0309     		lsrs	r3, r0, #4
 656 0002 C0F30410 		ubfx	r0, r0, #4, #5
 657 0006 13F0180F 		tst	r3, #24
 658 000a 00D0     		beq	.L119
 659 000c 0720     		movs	r0, #7
 660              	.L119:
 661 000e 7047     		bx	lr
 663              		.section	.text.lv_style_set_prop_internal,"ax",%progbits
 664              		.align	1
 665              		.syntax unified
 666              		.thumb
 667              		.thumb_func
 669              	lv_style_set_prop_internal:
 670              		@ args = 0, pretend = 0, frame = 0
 671              		@ frame_needed = 0, uses_anonymous_args = 0
 672 0000 2DE9F041 		push	{r4, r5, r6, r7, r8, lr}
 673 0004 9046     		mov	r8, r2
 674 0006 1F46     		mov	r7, r3
 675 0008 8288     		ldrh	r2, [r0, #4]
 676 000a 4FF6FF73 		movw	r3, #65535
 677 000e 9A42     		cmp	r2, r3
 678 0010 5AD0     		beq	.L121
 679 0012 0446     		mov	r4, r0
 680 0014 0E46     		mov	r6, r1
 681 0016 C1F30D05 		ubfx	r5, r1, #0, #14
 682 001a C379     		ldrb	r3, [r0, #7]	@ zero_extendqisi2
 683 001c 012B     		cmp	r3, #1
 684 001e 42D9     		bls	.L123
 685 0020 0068     		ldr	r0, [r0]
 686 0022 00EB8301 		add	r1, r0, r3, lsl #2
 687 0026 03F1FF3C 		add	ip, r3, #-1
 688              	.L124:
 689 002a BCF1000F 		cmp	ip, #0
 690 002e 10DB     		blt	.L134
 691 0030 01EB4C02 		add	r2, r1, ip, lsl #1
 692 0034 31F81CE0 		ldrh	lr, [r1, ip, lsl #1]
 693 0038 CEF30D0E 		ubfx	lr, lr, #0, #14
 694 003c 7545     		cmp	r5, lr
 695 003e 02D0     		beq	.L135
 696 0040 0CF1FF3C 		add	ip, ip, #-1
 697 0044 F1E7     		b	.L124
 698              	.L135:
 699 0046 00EB8C03 		add	r3, r0, ip, lsl #2
 700 004a 4146     		mov	r1, r8
 701 004c 3046     		mov	r0, r6
 702 004e B847     		blx	r7
 703 0050 3AE0     		b	.L121
 704              	.L134:
 705 0052 591C     		adds	r1, r3, #1
 706 0054 01EB4101 		add	r1, r1, r1, lsl #1
 707 0058 4900     		lsls	r1, r1, #1
 708 005a FFF7FEFF 		bl	lv_mem_realloc
 709 005e 0246     		mov	r2, r0
 710 0060 90B3     		cbz	r0, .L121
 711 0062 2060     		str	r0, [r4]
ARM GAS  /var/folders/lp/x54gwt890xv47sdkqj1k04q40000gn/T//ccFLvW72.s 			page 13


 712 0064 E379     		ldrb	r3, [r4, #7]	@ zero_extendqisi2
 713 0066 00EB8301 		add	r1, r0, r3, lsl #2
 714 006a 013B     		subs	r3, r3, #1
 715 006c 05E0     		b	.L127
 716              	.L128:
 717 006e 981C     		adds	r0, r3, #2
 718 0070 31F813C0 		ldrh	ip, [r1, r3, lsl #1]
 719 0074 21F810C0 		strh	ip, [r1, r0, lsl #1]	@ movhi
 720 0078 013B     		subs	r3, r3, #1
 721              	.L127:
 722 007a 002B     		cmp	r3, #0
 723 007c F7DA     		bge	.L128
 724 007e E179     		ldrb	r1, [r4, #7]	@ zero_extendqisi2
 725 0080 0131     		adds	r1, r1, #1
 726 0082 C9B2     		uxtb	r1, r1
 727 0084 E171     		strb	r1, [r4, #7]
 728 0086 01F10043 		add	r3, r1, #-2147483648
 729 008a 013B     		subs	r3, r3, #1
 730 008c 5B00     		lsls	r3, r3, #1
 731 008e 01F18040 		add	r0, r1, #1073741824
 732 0092 0138     		subs	r0, r0, #1
 733 0094 03EB8101 		add	r1, r3, r1, lsl #2
 734 0098 02EB8003 		add	r3, r2, r0, lsl #2
 735 009c 0A44     		add	r2, r2, r1
 736 009e 4146     		mov	r1, r8
 737 00a0 3046     		mov	r0, r6
 738 00a2 B847     		blx	r7
 739 00a4 08E0     		b	.L129
 740              	.L123:
 741 00a6 012B     		cmp	r3, #1
 742 00a8 10D0     		beq	.L136
 743 00aa 0123     		movs	r3, #1
 744 00ac C371     		strb	r3, [r0, #7]
 745 00ae 0346     		mov	r3, r0
 746 00b0 021D     		adds	r2, r0, #4
 747 00b2 4146     		mov	r1, r8
 748 00b4 3046     		mov	r0, r6
 749 00b6 B847     		blx	r7
 750              	.L129:
 751 00b8 2846     		mov	r0, r5
 752 00ba FFF7FEFF 		bl	_lv_style_get_prop_group
 753 00be A379     		ldrb	r3, [r4, #6]	@ zero_extendqisi2
 754 00c0 0122     		movs	r2, #1
 755 00c2 8240     		lsls	r2, r2, r0
 756 00c4 1343     		orrs	r3, r3, r2
 757 00c6 A371     		strb	r3, [r4, #6]
 758              	.L121:
 759 00c8 BDE8F081 		pop	{r4, r5, r6, r7, r8, pc}
 760              	.L136:
 761 00cc C2F30D02 		ubfx	r2, r2, #0, #14
 762 00d0 AA42     		cmp	r2, r5
 763 00d2 1BD0     		beq	.L137
 764 00d4 0133     		adds	r3, r3, #1
 765 00d6 03EB4303 		add	r3, r3, r3, lsl #1
 766 00da 5800     		lsls	r0, r3, #1
 767 00dc FFF7FEFF 		bl	lv_mem_alloc
 768 00e0 0346     		mov	r3, r0
ARM GAS  /var/folders/lp/x54gwt890xv47sdkqj1k04q40000gn/T//ccFLvW72.s 			page 14


 769 00e2 0028     		cmp	r0, #0
 770 00e4 F0D0     		beq	.L121
 771 00e6 2068     		ldr	r0, [r4]
 772 00e8 2360     		str	r3, [r4]
 773 00ea E179     		ldrb	r1, [r4, #7]	@ zero_extendqisi2
 774 00ec 0131     		adds	r1, r1, #1
 775 00ee C9B2     		uxtb	r1, r1
 776 00f0 E171     		strb	r1, [r4, #7]
 777 00f2 03EB8102 		add	r2, r3, r1, lsl #2
 778 00f6 B4F804C0 		ldrh	ip, [r4, #4]
 779 00fa 23F821C0 		strh	ip, [r3, r1, lsl #2]	@ movhi
 780 00fe 43F8040B 		str	r0, [r3], #4
 781 0102 0232     		adds	r2, r2, #2
 782 0104 4146     		mov	r1, r8
 783 0106 3046     		mov	r0, r6
 784 0108 B847     		blx	r7
 785 010a D5E7     		b	.L129
 786              	.L137:
 787 010c 0346     		mov	r3, r0
 788 010e 021D     		adds	r2, r0, #4
 789 0110 4146     		mov	r1, r8
 790 0112 3046     		mov	r0, r6
 791 0114 B847     		blx	r7
 792 0116 D7E7     		b	.L121
 794              		.section	.text.lv_style_set_prop,"ax",%progbits
 795              		.align	1
 796              		.global	lv_style_set_prop
 797              		.syntax unified
 798              		.thumb
 799              		.thumb_func
 801              	lv_style_set_prop:
 802              		@ args = 0, pretend = 0, frame = 0
 803              		@ frame_needed = 0, uses_anonymous_args = 0
 804 0000 08B5     		push	{r3, lr}
 805 0002 024B     		ldr	r3, .L140
 806 0004 FFF7FEFF 		bl	lv_style_set_prop_internal
 807 0008 08BD     		pop	{r3, pc}
 808              	.L141:
 809 000a 00BF     		.align	2
 810              	.L140:
 811 000c 00000000 		.word	lv_style_set_prop_helper
 813              		.section	.text.lv_style_set_prop_meta,"ax",%progbits
 814              		.align	1
 815              		.global	lv_style_set_prop_meta
 816              		.syntax unified
 817              		.thumb
 818              		.thumb_func
 820              	lv_style_set_prop_meta:
 821              		@ args = 0, pretend = 0, frame = 0
 822              		@ frame_needed = 0, uses_anonymous_args = 0
 823 0000 08B5     		push	{r3, lr}
 824 0002 9446     		mov	ip, r2
 825 0004 034B     		ldr	r3, .L144
 826 0006 0022     		movs	r2, #0
 827 0008 41EA0C01 		orr	r1, r1, ip
 828 000c FFF7FEFF 		bl	lv_style_set_prop_internal
 829 0010 08BD     		pop	{r3, pc}
ARM GAS  /var/folders/lp/x54gwt890xv47sdkqj1k04q40000gn/T//ccFLvW72.s 			page 15


 830              	.L145:
 831 0012 00BF     		.align	2
 832              	.L144:
 833 0014 00000000 		.word	lv_style_set_prop_meta_helper
 835              		.section	.text._lv_style_prop_lookup_flags,"ax",%progbits
 836              		.align	1
 837              		.global	_lv_style_prop_lookup_flags
 838              		.syntax unified
 839              		.thumb
 840              		.thumb_func
 842              	_lv_style_prop_lookup_flags:
 843              		@ args = 0, pretend = 0, frame = 0
 844              		@ frame_needed = 0, uses_anonymous_args = 0
 845              		@ link register save eliminated.
 846 0000 4FF6FF73 		movw	r3, #65535
 847 0004 9842     		cmp	r0, r3
 848 0006 12D0     		beq	.L149
 849 0008 98B1     		cbz	r0, .L150
 850 000a 7028     		cmp	r0, #112
 851 000c 0AD9     		bls	.L153
 852 000e 7138     		subs	r0, r0, #113
 853 0010 80B2     		uxth	r0, r0
 854 0012 0A4B     		ldr	r3, .L155
 855 0014 1B68     		ldr	r3, [r3]
 856 0016 73B1     		cbz	r3, .L151
 857 0018 094A     		ldr	r2, .L155+4
 858 001a 1268     		ldr	r2, [r2]
 859 001c 9042     		cmp	r0, r2
 860 001e 04D3     		bcc	.L154
 861 0020 0020     		movs	r0, #0
 862 0022 7047     		bx	lr
 863              	.L153:
 864 0024 074B     		ldr	r3, .L155+8
 865 0026 185C     		ldrb	r0, [r3, r0]	@ zero_extendqisi2
 866 0028 7047     		bx	lr
 867              	.L154:
 868 002a 185C     		ldrb	r0, [r3, r0]	@ zero_extendqisi2
 869 002c 7047     		bx	lr
 870              	.L149:
 871 002e 1F20     		movs	r0, #31
 872 0030 7047     		bx	lr
 873              	.L150:
 874 0032 0020     		movs	r0, #0
 875 0034 7047     		bx	lr
 876              	.L151:
 877 0036 0020     		movs	r0, #0
 878 0038 7047     		bx	lr
 879              	.L156:
 880 003a 00BF     		.align	2
 881              	.L155:
 882 003c 00000000 		.word	_lv_style_custom_prop_flag_lookup_table
 883 0040 00000000 		.word	_lv_style_custom_prop_flag_lookup_table_size
 884 0044 00000000 		.word	_lv_style_builtin_prop_flag_lookup_table
 886              		.section	.data.last_custom_prop_id,"aw"
 887              		.align	1
 890              	last_custom_prop_id:
 891 0000 7000     		.short	112
ARM GAS  /var/folders/lp/x54gwt890xv47sdkqj1k04q40000gn/T//ccFLvW72.s 			page 16


 892              		.global	_lv_style_custom_prop_flag_lookup_table_size
 893              		.section	.bss._lv_style_custom_prop_flag_lookup_table_size,"aw",%nobits
 894              		.align	2
 897              	_lv_style_custom_prop_flag_lookup_table_size:
 898 0000 00000000 		.space	4
 899              		.global	_lv_style_builtin_prop_flag_lookup_table
 900              		.section	.rodata._lv_style_builtin_prop_flag_lookup_table,"a"
 901              		.align	2
 904              	_lv_style_builtin_prop_flag_lookup_table:
 905 0000 00040404 		.ascii	"\000\004\004\004\004\004\004\004\004\004\004\000\000"
 905      04040404 
 905      04040400 
 905      00
 906 000d 00000006 		.ascii	"\000\000\000\006\006\006\006\006\006\005\000\000\000"
 906      06060606 
 906      06050000 
 906      00
 907 001a 00000000 		.ascii	"\000\000\000\000\000\000\000\000\000\000\000\000\000"
 907      00000000 
 907      00000000 
 907      00
 908 0027 00020000 		.ascii	"\000\002\000\000\000\000\000\000\000\000\000\004\000"
 908      00000000 
 908      00000004 
 908      00
 909 0034 00020002 		.ascii	"\000\002\000\002\002\000\000\000\000\000\000\000\002"
 909      02000000 
 909      00000000 
 909      02
 910 0041 02020200 		.ascii	"\002\002\002\000\002\000\000\000\002\000\000\000\000"
 910      02000000 
 910      02000000 
 910      00
 911 004e 00000200 		.ascii	"\000\000\002\000\000\000\000\001\001\005\005\005\001"
 911      00000001 
 911      01050505 
 911      01
 912 005b 05000000 		.ascii	"\005\000\000\000\000\000\020\001\001\000\000\000\000"
 912      00001001 
 912      01000000 
 912      00
 913 0068 1002020C 		.ascii	"\020\002\002\014\014\022\022\000"
 913      0C121200 
 914 0070 00       		.space	1
 915              		.ident	"GCC: (xPack GNU Arm Embedded GCC arm64) 13.3.1 20240614"
ARM GAS  /var/folders/lp/x54gwt890xv47sdkqj1k04q40000gn/T//ccFLvW72.s 			page 17

