ARM GAS  /var/folders/lp/x54gwt890xv47sdkqj1k04q40000gn/T//ccLz1S2I.s 			page 1


   1              		.cpu cortex-m4
   2              		.arch armv7e-m
   3              		.fpu fpv4-sp-d16
   4              		.eabi_attribute 27, 1
   5              		.eabi_attribute 28, 1
   6              		.eabi_attribute 20, 1
   7              		.eabi_attribute 21, 1
   8              		.eabi_attribute 23, 3
   9              		.eabi_attribute 24, 1
  10              		.eabi_attribute 25, 1
  11              		.eabi_attribute 26, 1
  12              		.eabi_attribute 30, 1
  13              		.eabi_attribute 34, 1
  14              		.eabi_attribute 18, 4
  15              		.file	"lv_theme.c"
  16              		.text
  17              		.section	.text.apply_theme,"ax",%progbits
  18              		.align	1
  19              		.syntax unified
  20              		.thumb
  21              		.thumb_func
  23              	apply_theme:
  24              		@ args = 0, pretend = 0, frame = 0
  25              		@ frame_needed = 0, uses_anonymous_args = 0
  26 0000 38B5     		push	{r3, r4, r5, lr}
  27 0002 0446     		mov	r4, r0
  28 0004 0D46     		mov	r5, r1
  29 0006 4068     		ldr	r0, [r0, #4]
  30 0008 08B1     		cbz	r0, .L2
  31 000a FFF7F9FF 		bl	apply_theme
  32              	.L2:
  33 000e 2368     		ldr	r3, [r4]
  34 0010 13B1     		cbz	r3, .L1
  35 0012 2946     		mov	r1, r5
  36 0014 2046     		mov	r0, r4
  37 0016 9847     		blx	r3
  38              	.L1:
  39 0018 38BD     		pop	{r3, r4, r5, pc}
  41              		.section	.text.lv_theme_get_from_obj,"ax",%progbits
  42              		.align	1
  43              		.global	lv_theme_get_from_obj
  44              		.syntax unified
  45              		.thumb
  46              		.thumb_func
  48              	lv_theme_get_from_obj:
  49              		@ args = 0, pretend = 0, frame = 0
  50              		@ frame_needed = 0, uses_anonymous_args = 0
  51 0000 08B5     		push	{r3, lr}
  52 0002 20B1     		cbz	r0, .L6
  53 0004 FFF7FEFF 		bl	lv_obj_get_disp
  54              	.L7:
  55 0008 FFF7FEFF 		bl	lv_disp_get_theme
  56 000c 08BD     		pop	{r3, pc}
  57              	.L6:
  58 000e FFF7FEFF 		bl	lv_disp_get_default
  59 0012 F9E7     		b	.L7
  61              		.section	.text.lv_theme_apply,"ax",%progbits
ARM GAS  /var/folders/lp/x54gwt890xv47sdkqj1k04q40000gn/T//ccLz1S2I.s 			page 2


  62              		.align	1
  63              		.global	lv_theme_apply
  64              		.syntax unified
  65              		.thumb
  66              		.thumb_func
  68              	lv_theme_apply:
  69              		@ args = 0, pretend = 0, frame = 0
  70              		@ frame_needed = 0, uses_anonymous_args = 0
  71 0000 38B5     		push	{r3, r4, r5, lr}
  72 0002 0446     		mov	r4, r0
  73 0004 FFF7FEFF 		bl	lv_theme_get_from_obj
  74 0008 48B1     		cbz	r0, .L9
  75 000a 0546     		mov	r5, r0
  76 000c 044A     		ldr	r2, .L12
  77 000e 0021     		movs	r1, #0
  78 0010 2046     		mov	r0, r4
  79 0012 FFF7FEFF 		bl	lv_obj_remove_style
  80 0016 2146     		mov	r1, r4
  81 0018 2846     		mov	r0, r5
  82 001a FFF7FEFF 		bl	apply_theme
  83              	.L9:
  84 001e 38BD     		pop	{r3, r4, r5, pc}
  85              	.L13:
  86              		.align	2
  87              	.L12:
  88 0020 FFFF0F00 		.word	1048575
  90              		.section	.text.lv_theme_set_parent,"ax",%progbits
  91              		.align	1
  92              		.global	lv_theme_set_parent
  93              		.syntax unified
  94              		.thumb
  95              		.thumb_func
  97              	lv_theme_set_parent:
  98              		@ args = 0, pretend = 0, frame = 0
  99              		@ frame_needed = 0, uses_anonymous_args = 0
 100              		@ link register save eliminated.
 101 0000 4160     		str	r1, [r0, #4]
 102 0002 7047     		bx	lr
 104              		.section	.text.lv_theme_set_apply_cb,"ax",%progbits
 105              		.align	1
 106              		.global	lv_theme_set_apply_cb
 107              		.syntax unified
 108              		.thumb
 109              		.thumb_func
 111              	lv_theme_set_apply_cb:
 112              		@ args = 0, pretend = 0, frame = 0
 113              		@ frame_needed = 0, uses_anonymous_args = 0
 114              		@ link register save eliminated.
 115 0000 0160     		str	r1, [r0]
 116 0002 7047     		bx	lr
 118              		.section	.text.lv_theme_get_font_small,"ax",%progbits
 119              		.align	1
 120              		.global	lv_theme_get_font_small
 121              		.syntax unified
 122              		.thumb
 123              		.thumb_func
 125              	lv_theme_get_font_small:
ARM GAS  /var/folders/lp/x54gwt890xv47sdkqj1k04q40000gn/T//ccLz1S2I.s 			page 3


 126              		@ args = 0, pretend = 0, frame = 0
 127              		@ frame_needed = 0, uses_anonymous_args = 0
 128 0000 08B5     		push	{r3, lr}
 129 0002 FFF7FEFF 		bl	lv_theme_get_from_obj
 130 0006 08B1     		cbz	r0, .L18
 131 0008 4069     		ldr	r0, [r0, #20]
 132              	.L16:
 133 000a 08BD     		pop	{r3, pc}
 134              	.L18:
 135 000c 0048     		ldr	r0, .L20
 136 000e FCE7     		b	.L16
 137              	.L21:
 138              		.align	2
 139              	.L20:
 140 0010 00000000 		.word	lv_font_montserrat_14
 142              		.section	.text.lv_theme_get_font_normal,"ax",%progbits
 143              		.align	1
 144              		.global	lv_theme_get_font_normal
 145              		.syntax unified
 146              		.thumb
 147              		.thumb_func
 149              	lv_theme_get_font_normal:
 150              		@ args = 0, pretend = 0, frame = 0
 151              		@ frame_needed = 0, uses_anonymous_args = 0
 152 0000 08B5     		push	{r3, lr}
 153 0002 FFF7FEFF 		bl	lv_theme_get_from_obj
 154 0006 08B1     		cbz	r0, .L24
 155 0008 8069     		ldr	r0, [r0, #24]
 156              	.L22:
 157 000a 08BD     		pop	{r3, pc}
 158              	.L24:
 159 000c 0048     		ldr	r0, .L26
 160 000e FCE7     		b	.L22
 161              	.L27:
 162              		.align	2
 163              	.L26:
 164 0010 00000000 		.word	lv_font_montserrat_14
 166              		.section	.text.lv_theme_get_font_large,"ax",%progbits
 167              		.align	1
 168              		.global	lv_theme_get_font_large
 169              		.syntax unified
 170              		.thumb
 171              		.thumb_func
 173              	lv_theme_get_font_large:
 174              		@ args = 0, pretend = 0, frame = 0
 175              		@ frame_needed = 0, uses_anonymous_args = 0
 176 0000 08B5     		push	{r3, lr}
 177 0002 FFF7FEFF 		bl	lv_theme_get_from_obj
 178 0006 08B1     		cbz	r0, .L30
 179 0008 C069     		ldr	r0, [r0, #28]
 180              	.L28:
 181 000a 08BD     		pop	{r3, pc}
 182              	.L30:
 183 000c 0048     		ldr	r0, .L32
 184 000e FCE7     		b	.L28
 185              	.L33:
 186              		.align	2
ARM GAS  /var/folders/lp/x54gwt890xv47sdkqj1k04q40000gn/T//ccLz1S2I.s 			page 4


 187              	.L32:
 188 0010 00000000 		.word	lv_font_montserrat_14
 190              		.section	.text.lv_theme_get_color_primary,"ax",%progbits
 191              		.align	1
 192              		.global	lv_theme_get_color_primary
 193              		.syntax unified
 194              		.thumb
 195              		.thumb_func
 197              	lv_theme_get_color_primary:
 198              		@ args = 0, pretend = 0, frame = 0
 199              		@ frame_needed = 0, uses_anonymous_args = 0
 200 0000 08B5     		push	{r3, lr}
 201 0002 FFF7FEFF 		bl	lv_theme_get_from_obj
 202 0006 08B1     		cbz	r0, .L35
 203 0008 008A     		ldrh	r0, [r0, #16]
 204              	.L36:
 205 000a 08BD     		pop	{r3, pc}
 206              	.L35:
 207 000c 1120     		movs	r0, #17
 208 000e FFF7FEFF 		bl	lv_palette_main
 209 0012 FAE7     		b	.L36
 211              		.section	.text.lv_theme_get_color_secondary,"ax",%progbits
 212              		.align	1
 213              		.global	lv_theme_get_color_secondary
 214              		.syntax unified
 215              		.thumb
 216              		.thumb_func
 218              	lv_theme_get_color_secondary:
 219              		@ args = 0, pretend = 0, frame = 0
 220              		@ frame_needed = 0, uses_anonymous_args = 0
 221 0000 08B5     		push	{r3, lr}
 222 0002 FFF7FEFF 		bl	lv_theme_get_from_obj
 223 0006 08B1     		cbz	r0, .L39
 224 0008 408A     		ldrh	r0, [r0, #18]
 225              	.L40:
 226 000a 08BD     		pop	{r3, pc}
 227              	.L39:
 228 000c 0520     		movs	r0, #5
 229 000e FFF7FEFF 		bl	lv_palette_main
 230 0012 FAE7     		b	.L40
 232              		.ident	"GCC: (xPack GNU Arm Embedded GCC arm64) 13.3.1 20240614"
ARM GAS  /var/folders/lp/x54gwt890xv47sdkqj1k04q40000gn/T//ccLz1S2I.s 			page 5

