ARM GAS  /var/folders/lp/x54gwt890xv47sdkqj1k04q40000gn/T//cctahADp.s 			page 1


   1              		.cpu cortex-m4
   2              		.arch armv7e-m
   3              		.fpu fpv4-sp-d16
   4              		.eabi_attribute 27, 1
   5              		.eabi_attribute 28, 1
   6              		.eabi_attribute 20, 1
   7              		.eabi_attribute 21, 1
   8              		.eabi_attribute 23, 3
   9              		.eabi_attribute 24, 1
  10              		.eabi_attribute 25, 1
  11              		.eabi_attribute 26, 1
  12              		.eabi_attribute 30, 1
  13              		.eabi_attribute 34, 1
  14              		.eabi_attribute 18, 4
  15              		.file	"lv_theme_basic.c"
  16              		.text
  17              		.section	.text.theme_apply,"ax",%progbits
  18              		.align	1
  19              		.syntax unified
  20              		.thumb
  21              		.thumb_func
  23              	theme_apply:
  24              		@ args = 0, pretend = 0, frame = 0
  25              		@ frame_needed = 0, uses_anonymous_args = 0
  26 0000 38B5     		push	{r3, r4, r5, lr}
  27 0002 0C46     		mov	r4, r1
  28 0004 0846     		mov	r0, r1
  29 0006 FFF7FEFF 		bl	lv_obj_get_parent
  30 000a A0B3     		cbz	r0, .L37
  31 000c B649     		ldr	r1, .L46
  32 000e 2046     		mov	r0, r4
  33 0010 FFF7FEFF 		bl	lv_obj_check_type
  34 0014 0028     		cmp	r0, #0
  35 0016 70D0     		beq	.L4
  36 0018 2046     		mov	r0, r4
  37 001a FFF7FEFF 		bl	lv_obj_get_parent
  38 001e 0546     		mov	r5, r0
  39 0020 B249     		ldr	r1, .L46+4
  40 0022 FFF7FEFF 		bl	lv_obj_check_type
  41 0026 A0BB     		cbnz	r0, .L38
  42 0028 2846     		mov	r0, r5
  43 002a FFF7FEFF 		bl	lv_obj_get_parent
  44 002e AF49     		ldr	r1, .L46+4
  45 0030 FFF7FEFF 		bl	lv_obj_check_type
  46 0034 A0BB     		cbnz	r0, .L39
  47 0036 2046     		mov	r0, r4
  48 0038 FFF7FEFF 		bl	lv_obj_get_index
  49 003c 38B9     		cbnz	r0, .L7
  50 003e 2046     		mov	r0, r4
  51 0040 FFF7FEFF 		bl	lv_obj_get_parent
  52 0044 AA49     		ldr	r1, .L46+8
  53 0046 FFF7FEFF 		bl	lv_obj_check_type
  54 004a 0028     		cmp	r0, #0
  55 004c 36D1     		bne	.L40
  56              	.L7:
  57 004e 2046     		mov	r0, r4
  58 0050 FFF7FEFF 		bl	lv_obj_get_index
ARM GAS  /var/folders/lp/x54gwt890xv47sdkqj1k04q40000gn/T//cctahADp.s 			page 2


  59 0054 0128     		cmp	r0, #1
  60 0056 39D0     		beq	.L41
  61              	.L8:
  62 0058 A64D     		ldr	r5, .L46+12
  63 005a 2968     		ldr	r1, [r5]
  64 005c 0022     		movs	r2, #0
  65 005e 1031     		adds	r1, r1, #16
  66 0060 2046     		mov	r0, r4
  67 0062 FFF7FEFF 		bl	lv_obj_add_style
  68 0066 2968     		ldr	r1, [r5]
  69 0068 4FF48032 		mov	r2, #65536
  70 006c 3031     		adds	r1, r1, #48
  71 006e 2046     		mov	r0, r4
  72 0070 FFF7FEFF 		bl	lv_obj_add_style
  73 0074 4DE0     		b	.L1
  74              	.L37:
  75 0076 9F4D     		ldr	r5, .L46+12
  76 0078 0022     		movs	r2, #0
  77 007a 2968     		ldr	r1, [r5]
  78 007c 2046     		mov	r0, r4
  79 007e FFF7FEFF 		bl	lv_obj_add_style
  80 0082 2968     		ldr	r1, [r5]
  81 0084 4FF48032 		mov	r2, #65536
  82 0088 3031     		adds	r1, r1, #48
  83 008a 2046     		mov	r0, r4
  84 008c FFF7FEFF 		bl	lv_obj_add_style
  85 0090 3FE0     		b	.L1
  86              	.L38:
  87 0092 0022     		movs	r2, #0
  88 0094 974B     		ldr	r3, .L46+12
  89 0096 1968     		ldr	r1, [r3]
  90 0098 2046     		mov	r0, r4
  91 009a FFF7FEFF 		bl	lv_obj_add_style
  92 009e 38E0     		b	.L1
  93              	.L39:
  94 00a0 944D     		ldr	r5, .L46+12
  95 00a2 0022     		movs	r2, #0
  96 00a4 2968     		ldr	r1, [r5]
  97 00a6 2046     		mov	r0, r4
  98 00a8 FFF7FEFF 		bl	lv_obj_add_style
  99 00ac 2968     		ldr	r1, [r5]
 100 00ae 4FF48032 		mov	r2, #65536
 101 00b2 3031     		adds	r1, r1, #48
 102 00b4 2046     		mov	r0, r4
 103 00b6 FFF7FEFF 		bl	lv_obj_add_style
 104 00ba 2AE0     		b	.L1
 105              	.L40:
 106 00bc 8D4B     		ldr	r3, .L46+12
 107 00be 1968     		ldr	r1, [r3]
 108 00c0 0022     		movs	r2, #0
 109 00c2 1831     		adds	r1, r1, #24
 110 00c4 2046     		mov	r0, r4
 111 00c6 FFF7FEFF 		bl	lv_obj_add_style
 112 00ca 22E0     		b	.L1
 113              	.L41:
 114 00cc 2046     		mov	r0, r4
 115 00ce FFF7FEFF 		bl	lv_obj_get_parent
ARM GAS  /var/folders/lp/x54gwt890xv47sdkqj1k04q40000gn/T//cctahADp.s 			page 3


 116 00d2 8749     		ldr	r1, .L46+8
 117 00d4 FFF7FEFF 		bl	lv_obj_check_type
 118 00d8 0028     		cmp	r0, #0
 119 00da BDD0     		beq	.L8
 120 00dc 854D     		ldr	r5, .L46+12
 121 00de 2968     		ldr	r1, [r5]
 122 00e0 0022     		movs	r2, #0
 123 00e2 1831     		adds	r1, r1, #24
 124 00e4 2046     		mov	r0, r4
 125 00e6 FFF7FEFF 		bl	lv_obj_add_style
 126 00ea 2968     		ldr	r1, [r5]
 127 00ec 4FF48032 		mov	r2, #65536
 128 00f0 3031     		adds	r1, r1, #48
 129 00f2 2046     		mov	r0, r4
 130 00f4 FFF7FEFF 		bl	lv_obj_add_style
 131 00f8 0BE0     		b	.L1
 132              	.L4:
 133 00fa 7F49     		ldr	r1, .L46+16
 134 00fc 2046     		mov	r0, r4
 135 00fe FFF7FEFF 		bl	lv_obj_check_type
 136 0102 38B1     		cbz	r0, .L9
 137 0104 7B4B     		ldr	r3, .L46+12
 138 0106 1968     		ldr	r1, [r3]
 139 0108 0022     		movs	r2, #0
 140 010a 2031     		adds	r1, r1, #32
 141 010c 2046     		mov	r0, r4
 142 010e FFF7FEFF 		bl	lv_obj_add_style
 143              	.L1:
 144 0112 38BD     		pop	{r3, r4, r5, pc}
 145              	.L9:
 146 0114 7949     		ldr	r1, .L46+20
 147 0116 2046     		mov	r0, r4
 148 0118 FFF7FEFF 		bl	lv_obj_check_type
 149 011c 70B3     		cbz	r0, .L10
 150 011e 2046     		mov	r0, r4
 151 0120 FFF7FEFF 		bl	lv_obj_get_parent
 152 0124 7649     		ldr	r1, .L46+24
 153 0126 FFF7FEFF 		bl	lv_obj_check_type
 154 012a A8B9     		cbnz	r0, .L42
 155 012c 2046     		mov	r0, r4
 156 012e FFF7FEFF 		bl	lv_obj_get_parent
 157 0132 6E49     		ldr	r1, .L46+4
 158 0134 FFF7FEFF 		bl	lv_obj_check_type
 159 0138 B8B9     		cbnz	r0, .L43
 160 013a 6E4D     		ldr	r5, .L46+12
 161 013c 2968     		ldr	r1, [r5]
 162 013e 0022     		movs	r2, #0
 163 0140 1031     		adds	r1, r1, #16
 164 0142 2046     		mov	r0, r4
 165 0144 FFF7FEFF 		bl	lv_obj_add_style
 166 0148 2968     		ldr	r1, [r5]
 167 014a 4FF4A022 		mov	r2, #327680
 168 014e 1831     		adds	r1, r1, #24
 169 0150 2046     		mov	r0, r4
 170 0152 FFF7FEFF 		bl	lv_obj_add_style
 171 0156 DCE7     		b	.L1
 172              	.L42:
ARM GAS  /var/folders/lp/x54gwt890xv47sdkqj1k04q40000gn/T//cctahADp.s 			page 4


 173 0158 664B     		ldr	r3, .L46+12
 174 015a 1968     		ldr	r1, [r3]
 175 015c 4FF4A022 		mov	r2, #327680
 176 0160 1831     		adds	r1, r1, #24
 177 0162 2046     		mov	r0, r4
 178 0164 FFF7FEFF 		bl	lv_obj_add_style
 179 0168 D3E7     		b	.L1
 180              	.L43:
 181 016a 624B     		ldr	r3, .L46+12
 182 016c 1968     		ldr	r1, [r3]
 183 016e 4FF4A022 		mov	r2, #327680
 184 0172 1831     		adds	r1, r1, #24
 185 0174 2046     		mov	r0, r4
 186 0176 FFF7FEFF 		bl	lv_obj_add_style
 187 017a CAE7     		b	.L1
 188              	.L10:
 189 017c 6149     		ldr	r1, .L46+28
 190 017e 2046     		mov	r0, r4
 191 0180 FFF7FEFF 		bl	lv_obj_check_type
 192 0184 70B1     		cbz	r0, .L13
 193 0186 5B4D     		ldr	r5, .L46+12
 194 0188 2968     		ldr	r1, [r5]
 195 018a 0022     		movs	r2, #0
 196 018c 1831     		adds	r1, r1, #24
 197 018e 2046     		mov	r0, r4
 198 0190 FFF7FEFF 		bl	lv_obj_add_style
 199 0194 2968     		ldr	r1, [r5]
 200 0196 4FF40032 		mov	r2, #131072
 201 019a 2031     		adds	r1, r1, #32
 202 019c 2046     		mov	r0, r4
 203 019e FFF7FEFF 		bl	lv_obj_add_style
 204 01a2 B6E7     		b	.L1
 205              	.L13:
 206 01a4 5849     		ldr	r1, .L46+32
 207 01a6 2046     		mov	r0, r4
 208 01a8 FFF7FEFF 		bl	lv_obj_check_type
 209 01ac A8B1     		cbz	r0, .L14
 210 01ae 514D     		ldr	r5, .L46+12
 211 01b0 2968     		ldr	r1, [r5]
 212 01b2 0022     		movs	r2, #0
 213 01b4 1831     		adds	r1, r1, #24
 214 01b6 2046     		mov	r0, r4
 215 01b8 FFF7FEFF 		bl	lv_obj_add_style
 216 01bc 2968     		ldr	r1, [r5]
 217 01be 4FF40032 		mov	r2, #131072
 218 01c2 2031     		adds	r1, r1, #32
 219 01c4 2046     		mov	r0, r4
 220 01c6 FFF7FEFF 		bl	lv_obj_add_style
 221 01ca 2968     		ldr	r1, [r5]
 222 01cc 4FF44032 		mov	r2, #196608
 223 01d0 2831     		adds	r1, r1, #40
 224 01d2 2046     		mov	r0, r4
 225 01d4 FFF7FEFF 		bl	lv_obj_add_style
 226 01d8 9BE7     		b	.L1
 227              	.L14:
 228 01da 4C49     		ldr	r1, .L46+36
 229 01dc 2046     		mov	r0, r4
ARM GAS  /var/folders/lp/x54gwt890xv47sdkqj1k04q40000gn/T//cctahADp.s 			page 5


 230 01de FFF7FEFF 		bl	lv_obj_check_type
 231 01e2 78B1     		cbz	r0, .L15
 232 01e4 434D     		ldr	r5, .L46+12
 233 01e6 2968     		ldr	r1, [r5]
 234 01e8 4FF48032 		mov	r2, #65536
 235 01ec 3031     		adds	r1, r1, #48
 236 01ee 2046     		mov	r0, r4
 237 01f0 FFF7FEFF 		bl	lv_obj_add_style
 238 01f4 2968     		ldr	r1, [r5]
 239 01f6 4FF4A022 		mov	r2, #327680
 240 01fa 1831     		adds	r1, r1, #24
 241 01fc 2046     		mov	r0, r4
 242 01fe FFF7FEFF 		bl	lv_obj_add_style
 243 0202 86E7     		b	.L1
 244              	.L15:
 245 0204 4249     		ldr	r1, .L46+40
 246 0206 2046     		mov	r0, r4
 247 0208 FFF7FEFF 		bl	lv_obj_check_type
 248 020c 70B1     		cbz	r0, .L16
 249 020e 394D     		ldr	r5, .L46+12
 250 0210 2968     		ldr	r1, [r5]
 251 0212 4FF40032 		mov	r2, #131072
 252 0216 1831     		adds	r1, r1, #24
 253 0218 2046     		mov	r0, r4
 254 021a FFF7FEFF 		bl	lv_obj_add_style
 255 021e 2968     		ldr	r1, [r5]
 256 0220 3C4A     		ldr	r2, .L46+44
 257 0222 2031     		adds	r1, r1, #32
 258 0224 2046     		mov	r0, r4
 259 0226 FFF7FEFF 		bl	lv_obj_add_style
 260 022a 72E7     		b	.L1
 261              	.L16:
 262 022c 3A49     		ldr	r1, .L46+48
 263 022e 2046     		mov	r0, r4
 264 0230 FFF7FEFF 		bl	lv_obj_check_type
 265 0234 70B1     		cbz	r0, .L17
 266 0236 2F4D     		ldr	r5, .L46+12
 267 0238 2968     		ldr	r1, [r5]
 268 023a 0022     		movs	r2, #0
 269 023c 1831     		adds	r1, r1, #24
 270 023e 2046     		mov	r0, r4
 271 0240 FFF7FEFF 		bl	lv_obj_add_style
 272 0244 2968     		ldr	r1, [r5]
 273 0246 4FF44032 		mov	r2, #196608
 274 024a 2831     		adds	r1, r1, #40
 275 024c 2046     		mov	r0, r4
 276 024e FFF7FEFF 		bl	lv_obj_add_style
 277 0252 5EE7     		b	.L1
 278              	.L17:
 279 0254 3149     		ldr	r1, .L46+52
 280 0256 2046     		mov	r0, r4
 281 0258 FFF7FEFF 		bl	lv_obj_check_type
 282 025c 18B3     		cbz	r0, .L18
 283 025e 254D     		ldr	r5, .L46+12
 284 0260 2968     		ldr	r1, [r5]
 285 0262 0022     		movs	r2, #0
 286 0264 1031     		adds	r1, r1, #16
ARM GAS  /var/folders/lp/x54gwt890xv47sdkqj1k04q40000gn/T//cctahADp.s 			page 6


 287 0266 2046     		mov	r0, r4
 288 0268 FFF7FEFF 		bl	lv_obj_add_style
 289 026c 2968     		ldr	r1, [r5]
 290 026e 4FF48032 		mov	r2, #65536
 291 0272 3031     		adds	r1, r1, #48
 292 0274 2046     		mov	r0, r4
 293 0276 FFF7FEFF 		bl	lv_obj_add_style
 294 027a 2968     		ldr	r1, [r5]
 295 027c 4FF4A022 		mov	r2, #327680
 296 0280 1831     		adds	r1, r1, #24
 297 0282 2046     		mov	r0, r4
 298 0284 FFF7FEFF 		bl	lv_obj_add_style
 299 0288 2968     		ldr	r1, [r5]
 300 028a 4FF4C022 		mov	r2, #393216
 301 028e 2031     		adds	r1, r1, #32
 302 0290 2046     		mov	r0, r4
 303 0292 FFF7FEFF 		bl	lv_obj_add_style
 304 0296 2968     		ldr	r1, [r5]
 305 0298 4FF4E022 		mov	r2, #458752
 306 029c 2031     		adds	r1, r1, #32
 307 029e 2046     		mov	r0, r4
 308 02a0 FFF7FEFF 		bl	lv_obj_add_style
 309 02a4 35E7     		b	.L1
 310              	.L18:
 311 02a6 1E49     		ldr	r1, .L46+56
 312 02a8 2046     		mov	r0, r4
 313 02aa FFF7FEFF 		bl	lv_obj_check_type
 314 02ae 70B1     		cbz	r0, .L19
 315 02b0 104D     		ldr	r5, .L46+12
 316 02b2 2968     		ldr	r1, [r5]
 317 02b4 0022     		movs	r2, #0
 318 02b6 1831     		adds	r1, r1, #24
 319 02b8 2046     		mov	r0, r4
 320 02ba FFF7FEFF 		bl	lv_obj_add_style
 321 02be 2968     		ldr	r1, [r5]
 322 02c0 4FF48022 		mov	r2, #262144
 323 02c4 2031     		adds	r1, r1, #32
 324 02c6 2046     		mov	r0, r4
 325 02c8 FFF7FEFF 		bl	lv_obj_add_style
 326 02cc 21E7     		b	.L1
 327              	.L19:
 328 02ce 1549     		ldr	r1, .L46+60
 329 02d0 2046     		mov	r0, r4
 330 02d2 FFF7FEFF 		bl	lv_obj_check_type
 331 02d6 38B3     		cbz	r0, .L20
 332 02d8 064B     		ldr	r3, .L46+12
 333 02da 1968     		ldr	r1, [r3]
 334 02dc 0022     		movs	r2, #0
 335 02de 1031     		adds	r1, r1, #16
 336 02e0 2046     		mov	r0, r4
 337 02e2 FFF7FEFF 		bl	lv_obj_add_style
 338 02e6 14E7     		b	.L1
 339              	.L47:
 340              		.align	2
 341              	.L46:
 342 02e8 00000000 		.word	lv_obj_class
 343 02ec 00000000 		.word	lv_tabview_class
ARM GAS  /var/folders/lp/x54gwt890xv47sdkqj1k04q40000gn/T//cctahADp.s 			page 7


 344 02f0 00000000 		.word	lv_win_class
 345 02f4 00000000 		.word	styles
 346 02f8 00000000 		.word	lv_btn_class
 347 02fc 00000000 		.word	lv_btnmatrix_class
 348 0300 00000000 		.word	lv_msgbox_class
 349 0304 00000000 		.word	lv_bar_class
 350 0308 00000000 		.word	lv_slider_class
 351 030c 00000000 		.word	lv_table_class
 352 0310 00000000 		.word	lv_checkbox_class
 353 0314 01000200 		.word	131073
 354 0318 00000000 		.word	lv_switch_class
 355 031c 00000000 		.word	lv_chart_class
 356 0320 00000000 		.word	lv_roller_class
 357 0324 00000000 		.word	lv_dropdown_class
 358              	.L20:
 359 0328 B749     		ldr	r1, .L48
 360 032a 2046     		mov	r0, r4
 361 032c FFF7FEFF 		bl	lv_obj_check_type
 362 0330 D8B1     		cbz	r0, .L21
 363 0332 B64D     		ldr	r5, .L48+4
 364 0334 2968     		ldr	r1, [r5]
 365 0336 0022     		movs	r2, #0
 366 0338 1031     		adds	r1, r1, #16
 367 033a 2046     		mov	r0, r4
 368 033c FFF7FEFF 		bl	lv_obj_add_style
 369 0340 2968     		ldr	r1, [r5]
 370 0342 4FF48032 		mov	r2, #65536
 371 0346 3031     		adds	r1, r1, #48
 372 0348 2046     		mov	r0, r4
 373 034a FFF7FEFF 		bl	lv_obj_add_style
 374 034e 2968     		ldr	r1, [r5]
 375 0350 4FF48022 		mov	r2, #262144
 376 0354 1831     		adds	r1, r1, #24
 377 0356 2046     		mov	r0, r4
 378 0358 FFF7FEFF 		bl	lv_obj_add_style
 379 035c 2968     		ldr	r1, [r5]
 380 035e AC4A     		ldr	r2, .L48+8
 381 0360 2031     		adds	r1, r1, #32
 382 0362 2046     		mov	r0, r4
 383 0364 FFF7FEFF 		bl	lv_obj_add_style
 384 0368 D3E6     		b	.L1
 385              	.L21:
 386 036a AA49     		ldr	r1, .L48+12
 387 036c 2046     		mov	r0, r4
 388 036e FFF7FEFF 		bl	lv_obj_check_type
 389 0372 78B3     		cbz	r0, .L22
 390 0374 A54D     		ldr	r5, .L48+4
 391 0376 2968     		ldr	r1, [r5]
 392 0378 0022     		movs	r2, #0
 393 037a 1831     		adds	r1, r1, #24
 394 037c 2046     		mov	r0, r4
 395 037e FFF7FEFF 		bl	lv_obj_add_style
 396 0382 2968     		ldr	r1, [r5]
 397 0384 0022     		movs	r2, #0
 398 0386 0831     		adds	r1, r1, #8
 399 0388 2046     		mov	r0, r4
 400 038a FFF7FEFF 		bl	lv_obj_add_style
ARM GAS  /var/folders/lp/x54gwt890xv47sdkqj1k04q40000gn/T//cctahADp.s 			page 8


 401 038e 2968     		ldr	r1, [r5]
 402 0390 0022     		movs	r2, #0
 403 0392 3831     		adds	r1, r1, #56
 404 0394 2046     		mov	r0, r4
 405 0396 FFF7FEFF 		bl	lv_obj_add_style
 406 039a 2968     		ldr	r1, [r5]
 407 039c 4FF40032 		mov	r2, #131072
 408 03a0 2031     		adds	r1, r1, #32
 409 03a2 2046     		mov	r0, r4
 410 03a4 FFF7FEFF 		bl	lv_obj_add_style
 411 03a8 2968     		ldr	r1, [r5]
 412 03aa 4FF40032 		mov	r2, #131072
 413 03ae 3831     		adds	r1, r1, #56
 414 03b0 2046     		mov	r0, r4
 415 03b2 FFF7FEFF 		bl	lv_obj_add_style
 416 03b6 2968     		ldr	r1, [r5]
 417 03b8 4FF44032 		mov	r2, #196608
 418 03bc 2831     		adds	r1, r1, #40
 419 03be 2046     		mov	r0, r4
 420 03c0 FFF7FEFF 		bl	lv_obj_add_style
 421 03c4 2968     		ldr	r1, [r5]
 422 03c6 4FF44032 		mov	r2, #196608
 423 03ca 4031     		adds	r1, r1, #64
 424 03cc 2046     		mov	r0, r4
 425 03ce FFF7FEFF 		bl	lv_obj_add_style
 426 03d2 9EE6     		b	.L1
 427              	.L22:
 428 03d4 9049     		ldr	r1, .L48+16
 429 03d6 2046     		mov	r0, r4
 430 03d8 FFF7FEFF 		bl	lv_obj_check_type
 431 03dc 08B3     		cbz	r0, .L23
 432 03de 8B4D     		ldr	r5, .L48+4
 433 03e0 2968     		ldr	r1, [r5]
 434 03e2 0022     		movs	r2, #0
 435 03e4 1831     		adds	r1, r1, #24
 436 03e6 2046     		mov	r0, r4
 437 03e8 FFF7FEFF 		bl	lv_obj_add_style
 438 03ec 2968     		ldr	r1, [r5]
 439 03ee 0022     		movs	r2, #0
 440 03f0 0831     		adds	r1, r1, #8
 441 03f2 2046     		mov	r0, r4
 442 03f4 FFF7FEFF 		bl	lv_obj_add_style
 443 03f8 2968     		ldr	r1, [r5]
 444 03fa 0022     		movs	r2, #0
 445 03fc 3831     		adds	r1, r1, #56
 446 03fe 2046     		mov	r0, r4
 447 0400 FFF7FEFF 		bl	lv_obj_add_style
 448 0404 2968     		ldr	r1, [r5]
 449 0406 4FF40032 		mov	r2, #131072
 450 040a 2031     		adds	r1, r1, #32
 451 040c 2046     		mov	r0, r4
 452 040e FFF7FEFF 		bl	lv_obj_add_style
 453 0412 2968     		ldr	r1, [r5]
 454 0414 4FF40032 		mov	r2, #131072
 455 0418 3831     		adds	r1, r1, #56
 456 041a 2046     		mov	r0, r4
 457 041c FFF7FEFF 		bl	lv_obj_add_style
ARM GAS  /var/folders/lp/x54gwt890xv47sdkqj1k04q40000gn/T//cctahADp.s 			page 9


 458 0420 77E6     		b	.L1
 459              	.L23:
 460 0422 7E49     		ldr	r1, .L48+20
 461 0424 2046     		mov	r0, r4
 462 0426 FFF7FEFF 		bl	lv_obj_check_type
 463 042a 08B3     		cbz	r0, .L24
 464 042c 774D     		ldr	r5, .L48+4
 465 042e 2968     		ldr	r1, [r5]
 466 0430 0022     		movs	r2, #0
 467 0432 1831     		adds	r1, r1, #24
 468 0434 2046     		mov	r0, r4
 469 0436 FFF7FEFF 		bl	lv_obj_add_style
 470 043a 2968     		ldr	r1, [r5]
 471 043c 0022     		movs	r2, #0
 472 043e 0831     		adds	r1, r1, #8
 473 0440 2046     		mov	r0, r4
 474 0442 FFF7FEFF 		bl	lv_obj_add_style
 475 0446 2968     		ldr	r1, [r5]
 476 0448 0022     		movs	r2, #0
 477 044a 3831     		adds	r1, r1, #56
 478 044c 2046     		mov	r0, r4
 479 044e FFF7FEFF 		bl	lv_obj_add_style
 480 0452 2968     		ldr	r1, [r5]
 481 0454 4FF44032 		mov	r2, #196608
 482 0458 2831     		adds	r1, r1, #40
 483 045a 2046     		mov	r0, r4
 484 045c FFF7FEFF 		bl	lv_obj_add_style
 485 0460 2968     		ldr	r1, [r5]
 486 0462 4FF44032 		mov	r2, #196608
 487 0466 4031     		adds	r1, r1, #64
 488 0468 2046     		mov	r0, r4
 489 046a FFF7FEFF 		bl	lv_obj_add_style
 490 046e 50E6     		b	.L1
 491              	.L24:
 492 0470 6B49     		ldr	r1, .L48+24
 493 0472 2046     		mov	r0, r4
 494 0474 FFF7FEFF 		bl	lv_obj_check_type
 495 0478 38B1     		cbz	r0, .L25
 496 047a 644B     		ldr	r3, .L48+4
 497 047c 1968     		ldr	r1, [r3]
 498 047e 0022     		movs	r2, #0
 499 0480 1831     		adds	r1, r1, #24
 500 0482 2046     		mov	r0, r4
 501 0484 FFF7FEFF 		bl	lv_obj_add_style
 502 0488 43E6     		b	.L1
 503              	.L25:
 504 048a 6649     		ldr	r1, .L48+28
 505 048c 2046     		mov	r0, r4
 506 048e FFF7FEFF 		bl	lv_obj_check_type
 507 0492 A0B1     		cbz	r0, .L26
 508 0494 5D4D     		ldr	r5, .L48+4
 509 0496 2968     		ldr	r1, [r5]
 510 0498 0022     		movs	r2, #0
 511 049a 1031     		adds	r1, r1, #16
 512 049c 2046     		mov	r0, r4
 513 049e FFF7FEFF 		bl	lv_obj_add_style
 514 04a2 2968     		ldr	r1, [r5]
ARM GAS  /var/folders/lp/x54gwt890xv47sdkqj1k04q40000gn/T//cctahADp.s 			page 10


 515 04a4 4FF48032 		mov	r2, #65536
 516 04a8 3031     		adds	r1, r1, #48
 517 04aa 2046     		mov	r0, r4
 518 04ac FFF7FEFF 		bl	lv_obj_add_style
 519 04b0 2968     		ldr	r1, [r5]
 520 04b2 5D4A     		ldr	r2, .L48+32
 521 04b4 4831     		adds	r1, r1, #72
 522 04b6 2046     		mov	r0, r4
 523 04b8 FFF7FEFF 		bl	lv_obj_add_style
 524 04bc 29E6     		b	.L1
 525              	.L26:
 526 04be 5B49     		ldr	r1, .L48+36
 527 04c0 2046     		mov	r0, r4
 528 04c2 FFF7FEFF 		bl	lv_obj_check_type
 529 04c6 38B1     		cbz	r0, .L27
 530 04c8 504B     		ldr	r3, .L48+4
 531 04ca 1968     		ldr	r1, [r3]
 532 04cc 0022     		movs	r2, #0
 533 04ce 1831     		adds	r1, r1, #24
 534 04d0 2046     		mov	r0, r4
 535 04d2 FFF7FEFF 		bl	lv_obj_add_style
 536 04d6 1CE6     		b	.L1
 537              	.L27:
 538 04d8 5549     		ldr	r1, .L48+40
 539 04da 2046     		mov	r0, r4
 540 04dc FFF7FEFF 		bl	lv_obj_check_type
 541 04e0 98B1     		cbz	r0, .L28
 542 04e2 4A4D     		ldr	r5, .L48+4
 543 04e4 0022     		movs	r2, #0
 544 04e6 2968     		ldr	r1, [r5]
 545 04e8 2046     		mov	r0, r4
 546 04ea FFF7FEFF 		bl	lv_obj_add_style
 547 04ee 2968     		ldr	r1, [r5]
 548 04f0 4FF4A022 		mov	r2, #327680
 549 04f4 1031     		adds	r1, r1, #16
 550 04f6 2046     		mov	r0, r4
 551 04f8 FFF7FEFF 		bl	lv_obj_add_style
 552 04fc 2968     		ldr	r1, [r5]
 553 04fe 4D4A     		ldr	r2, .L48+44
 554 0500 1831     		adds	r1, r1, #24
 555 0502 2046     		mov	r0, r4
 556 0504 FFF7FEFF 		bl	lv_obj_add_style
 557 0508 03E6     		b	.L1
 558              	.L28:
 559 050a 4B49     		ldr	r1, .L48+48
 560 050c 2046     		mov	r0, r4
 561 050e FFF7FEFF 		bl	lv_obj_check_type
 562 0512 98B9     		cbnz	r0, .L44
 563 0514 4949     		ldr	r1, .L48+52
 564 0516 2046     		mov	r0, r4
 565 0518 FFF7FEFF 		bl	lv_obj_check_type
 566 051c 0028     		cmp	r0, #0
 567 051e 7FF4F8AD 		bne	.L1
 568 0522 4749     		ldr	r1, .L48+56
 569 0524 2046     		mov	r0, r4
 570 0526 FFF7FEFF 		bl	lv_obj_check_type
 571 052a B0B1     		cbz	r0, .L30
ARM GAS  /var/folders/lp/x54gwt890xv47sdkqj1k04q40000gn/T//cctahADp.s 			page 11


 572 052c 374B     		ldr	r3, .L48+4
 573 052e 1968     		ldr	r1, [r3]
 574 0530 0022     		movs	r2, #0
 575 0532 2031     		adds	r1, r1, #32
 576 0534 2046     		mov	r0, r4
 577 0536 FFF7FEFF 		bl	lv_obj_add_style
 578 053a EAE5     		b	.L1
 579              	.L44:
 580 053c 334D     		ldr	r5, .L48+4
 581 053e 2968     		ldr	r1, [r5]
 582 0540 0022     		movs	r2, #0
 583 0542 1831     		adds	r1, r1, #24
 584 0544 2046     		mov	r0, r4
 585 0546 FFF7FEFF 		bl	lv_obj_add_style
 586 054a 2968     		ldr	r1, [r5]
 587 054c 4FF48032 		mov	r2, #65536
 588 0550 3031     		adds	r1, r1, #48
 589 0552 2046     		mov	r0, r4
 590 0554 FFF7FEFF 		bl	lv_obj_add_style
 591 0558 DBE5     		b	.L1
 592              	.L30:
 593 055a 3A49     		ldr	r1, .L48+60
 594 055c 2046     		mov	r0, r4
 595 055e FFF7FEFF 		bl	lv_obj_check_type
 596 0562 98B9     		cbnz	r0, .L45
 597 0564 3849     		ldr	r1, .L48+64
 598 0566 2046     		mov	r0, r4
 599 0568 FFF7FEFF 		bl	lv_obj_check_type
 600 056c B0B1     		cbz	r0, .L32
 601 056e 274D     		ldr	r5, .L48+4
 602 0570 2968     		ldr	r1, [r5]
 603 0572 0022     		movs	r2, #0
 604 0574 1831     		adds	r1, r1, #24
 605 0576 2046     		mov	r0, r4
 606 0578 FFF7FEFF 		bl	lv_obj_add_style
 607 057c 2968     		ldr	r1, [r5]
 608 057e 4FF4E022 		mov	r2, #458752
 609 0582 2031     		adds	r1, r1, #32
 610 0584 2046     		mov	r0, r4
 611 0586 FFF7FEFF 		bl	lv_obj_add_style
 612 058a C2E5     		b	.L1
 613              	.L45:
 614 058c 1F4B     		ldr	r3, .L48+4
 615 058e 1968     		ldr	r1, [r3]
 616 0590 0022     		movs	r2, #0
 617 0592 1831     		adds	r1, r1, #24
 618 0594 2046     		mov	r0, r4
 619 0596 FFF7FEFF 		bl	lv_obj_add_style
 620 059a BAE5     		b	.L1
 621              	.L32:
 622 059c 2B49     		ldr	r1, .L48+68
 623 059e 2046     		mov	r0, r4
 624 05a0 FFF7FEFF 		bl	lv_obj_check_type
 625 05a4 68B1     		cbz	r0, .L33
 626 05a6 194D     		ldr	r5, .L48+4
 627 05a8 0022     		movs	r2, #0
 628 05aa 2968     		ldr	r1, [r5]
ARM GAS  /var/folders/lp/x54gwt890xv47sdkqj1k04q40000gn/T//cctahADp.s 			page 12


 629 05ac 2046     		mov	r0, r4
 630 05ae FFF7FEFF 		bl	lv_obj_add_style
 631 05b2 2968     		ldr	r1, [r5]
 632 05b4 4FF48032 		mov	r2, #65536
 633 05b8 3031     		adds	r1, r1, #48
 634 05ba 2046     		mov	r0, r4
 635 05bc FFF7FEFF 		bl	lv_obj_add_style
 636 05c0 A7E5     		b	.L1
 637              	.L33:
 638 05c2 2349     		ldr	r1, .L48+72
 639 05c4 2046     		mov	r0, r4
 640 05c6 FFF7FEFF 		bl	lv_obj_check_type
 641 05ca 40B1     		cbz	r0, .L34
 642 05cc 0F4B     		ldr	r3, .L48+4
 643 05ce 1968     		ldr	r1, [r3]
 644 05d0 4FF48032 		mov	r2, #65536
 645 05d4 3031     		adds	r1, r1, #48
 646 05d6 2046     		mov	r0, r4
 647 05d8 FFF7FEFF 		bl	lv_obj_add_style
 648 05dc 99E5     		b	.L1
 649              	.L34:
 650 05de 0F49     		ldr	r1, .L48+20
 651 05e0 2046     		mov	r0, r4
 652 05e2 FFF7FEFF 		bl	lv_obj_check_type
 653 05e6 A8B3     		cbz	r0, .L35
 654 05e8 084D     		ldr	r5, .L48+4
 655 05ea 2968     		ldr	r1, [r5]
 656 05ec 0022     		movs	r2, #0
 657 05ee 1831     		adds	r1, r1, #24
 658 05f0 2046     		mov	r0, r4
 659 05f2 FFF7FEFF 		bl	lv_obj_add_style
 660 05f6 2968     		ldr	r1, [r5]
 661 05f8 4FF44032 		mov	r2, #196608
 662 05fc 1831     		adds	r1, r1, #24
 663 05fe 2046     		mov	r0, r4
 664 0600 FFF7FEFF 		bl	lv_obj_add_style
 665 0604 85E5     		b	.L1
 666              	.L49:
 667 0606 00BF     		.align	2
 668              	.L48:
 669 0608 00000000 		.word	lv_dropdownlist_class
 670 060c 00000000 		.word	styles
 671 0610 01000400 		.word	262145
 672 0614 00000000 		.word	lv_arc_class
 673 0618 00000000 		.word	lv_spinner_class
 674 061c 00000000 		.word	lv_colorwheel_class
 675 0620 00000000 		.word	lv_meter_class
 676 0624 00000000 		.word	lv_textarea_class
 677 0628 02000700 		.word	458754
 678 062c 00000000 		.word	lv_calendar_class
 679 0630 00000000 		.word	lv_keyboard_class
 680 0634 01000500 		.word	327681
 681 0638 00000000 		.word	lv_list_class
 682 063c 00000000 		.word	lv_list_text_class
 683 0640 00000000 		.word	lv_list_btn_class
 684 0644 00000000 		.word	lv_msgbox_class
 685 0648 00000000 		.word	lv_spinbox_class
ARM GAS  /var/folders/lp/x54gwt890xv47sdkqj1k04q40000gn/T//cctahADp.s 			page 13


 686 064c 00000000 		.word	lv_tileview_class
 687 0650 00000000 		.word	lv_tileview_tile_class
 688              	.L35:
 689 0654 0749     		ldr	r1, .L50
 690 0656 2046     		mov	r0, r4
 691 0658 FFF7FEFF 		bl	lv_obj_check_type
 692 065c 0028     		cmp	r0, #0
 693 065e 3FF458AD 		beq	.L1
 694 0662 054B     		ldr	r3, .L50+4
 695 0664 1968     		ldr	r1, [r3]
 696 0666 0022     		movs	r2, #0
 697 0668 1831     		adds	r1, r1, #24
 698 066a 2046     		mov	r0, r4
 699 066c FFF7FEFF 		bl	lv_obj_add_style
 700 0670 4FE5     		b	.L1
 701              	.L51:
 702 0672 00BF     		.align	2
 703              	.L50:
 704 0674 00000000 		.word	lv_led_class
 705 0678 00000000 		.word	styles
 707              		.section	.text.lv_style_set_pad_all,"ax",%progbits
 708              		.align	1
 709              		.syntax unified
 710              		.thumb
 711              		.thumb_func
 713              	lv_style_set_pad_all:
 714              		@ args = 0, pretend = 0, frame = 0
 715              		@ frame_needed = 0, uses_anonymous_args = 0
 716 0000 38B5     		push	{r3, r4, r5, lr}
 717 0002 0446     		mov	r4, r0
 718 0004 0D46     		mov	r5, r1
 719 0006 FFF7FEFF 		bl	lv_style_set_pad_left
 720 000a 2946     		mov	r1, r5
 721 000c 2046     		mov	r0, r4
 722 000e FFF7FEFF 		bl	lv_style_set_pad_right
 723 0012 2946     		mov	r1, r5
 724 0014 2046     		mov	r0, r4
 725 0016 FFF7FEFF 		bl	lv_style_set_pad_top
 726 001a 2946     		mov	r1, r5
 727 001c 2046     		mov	r0, r4
 728 001e FFF7FEFF 		bl	lv_style_set_pad_bottom
 729 0022 38BD     		pop	{r3, r4, r5, pc}
 731              		.section	.text.style_init_reset,"ax",%progbits
 732              		.align	1
 733              		.syntax unified
 734              		.thumb
 735              		.thumb_func
 737              	style_init_reset:
 738              		@ args = 0, pretend = 0, frame = 0
 739              		@ frame_needed = 0, uses_anonymous_args = 0
 740 0000 08B5     		push	{r3, lr}
 741 0002 044B     		ldr	r3, .L58
 742 0004 1B78     		ldrb	r3, [r3]	@ zero_extendqisi2
 743 0006 13B1     		cbz	r3, .L55
 744 0008 FFF7FEFF 		bl	lv_style_reset
 745              	.L54:
 746 000c 08BD     		pop	{r3, pc}
ARM GAS  /var/folders/lp/x54gwt890xv47sdkqj1k04q40000gn/T//cctahADp.s 			page 14


 747              	.L55:
 748 000e FFF7FEFF 		bl	lv_style_init
 749 0012 FBE7     		b	.L54
 750              	.L59:
 751              		.align	2
 752              	.L58:
 753 0014 00000000 		.word	inited
 755              		.section	.text.style_init,"ax",%progbits
 756              		.align	1
 757              		.syntax unified
 758              		.thumb
 759              		.thumb_func
 761              	style_init:
 762              		@ args = 0, pretend = 0, frame = 0
 763              		@ frame_needed = 0, uses_anonymous_args = 0
 764 0000 38B5     		push	{r3, r4, r5, lr}
 765 0002 924C     		ldr	r4, .L62
 766 0004 2068     		ldr	r0, [r4]
 767 0006 3030     		adds	r0, r0, #48
 768 0008 FFF7FEFF 		bl	style_init_reset
 769 000c 2068     		ldr	r0, [r4]
 770 000e FF21     		movs	r1, #255
 771 0010 3030     		adds	r0, r0, #48
 772 0012 FFF7FEFF 		bl	lv_style_set_bg_opa
 773 0016 2568     		ldr	r5, [r4]
 774 0018 1220     		movs	r0, #18
 775 001a FFF7FEFF 		bl	lv_palette_main
 776 001e 0146     		mov	r1, r0	@ movhi
 777 0020 05F13000 		add	r0, r5, #48
 778 0024 FFF7FEFF 		bl	lv_style_set_bg_color
 779 0028 2068     		ldr	r0, [r4]
 780 002a 0221     		movs	r1, #2
 781 002c 3030     		adds	r0, r0, #48
 782 002e FFF7FEFF 		bl	lv_style_set_width
 783 0032 2068     		ldr	r0, [r4]
 784 0034 FFF7FEFF 		bl	style_init_reset
 785 0038 FF21     		movs	r1, #255
 786 003a 2068     		ldr	r0, [r4]
 787 003c FFF7FEFF 		bl	lv_style_set_bg_opa
 788 0040 2568     		ldr	r5, [r4]
 789 0042 0421     		movs	r1, #4
 790 0044 1220     		movs	r0, #18
 791 0046 FFF7FEFF 		bl	lv_palette_lighten
 792 004a 0146     		mov	r1, r0	@ movhi
 793 004c 2846     		mov	r0, r5
 794 004e FFF7FEFF 		bl	lv_style_set_bg_color
 795 0052 2568     		ldr	r5, [r4]
 796 0054 0221     		movs	r1, #2
 797 0056 1220     		movs	r0, #18
 798 0058 FFF7FEFF 		bl	lv_palette_darken
 799 005c 0146     		mov	r1, r0	@ movhi
 800 005e 2846     		mov	r0, r5
 801 0060 FFF7FEFF 		bl	lv_style_set_text_color
 802 0064 2068     		ldr	r0, [r4]
 803 0066 0830     		adds	r0, r0, #8
 804 0068 FFF7FEFF 		bl	style_init_reset
 805 006c 2068     		ldr	r0, [r4]
ARM GAS  /var/folders/lp/x54gwt890xv47sdkqj1k04q40000gn/T//cctahADp.s 			page 15


 806 006e 0021     		movs	r1, #0
 807 0070 0830     		adds	r0, r0, #8
 808 0072 FFF7FEFF 		bl	lv_style_set_bg_opa
 809 0076 2068     		ldr	r0, [r4]
 810 0078 1030     		adds	r0, r0, #16
 811 007a FFF7FEFF 		bl	style_init_reset
 812 007e 2068     		ldr	r0, [r4]
 813 0080 FF21     		movs	r1, #255
 814 0082 1030     		adds	r0, r0, #16
 815 0084 FFF7FEFF 		bl	lv_style_set_bg_opa
 816 0088 2068     		ldr	r0, [r4]
 817 008a 4FF0FF31 		mov	r1, #-1	@ movhi
 818 008e 1030     		adds	r0, r0, #16
 819 0090 FFF7FEFF 		bl	lv_style_set_bg_color
 820 0094 2068     		ldr	r0, [r4]
 821 0096 0121     		movs	r1, #1
 822 0098 1030     		adds	r0, r0, #16
 823 009a FFF7FEFF 		bl	lv_style_set_line_width
 824 009e 2068     		ldr	r0, [r4]
 825 00a0 4FF0FF31 		mov	r1, #-1	@ movhi
 826 00a4 1030     		adds	r0, r0, #16
 827 00a6 FFF7FEFF 		bl	lv_style_set_line_color
 828 00aa 2068     		ldr	r0, [r4]
 829 00ac 0221     		movs	r1, #2
 830 00ae 1030     		adds	r0, r0, #16
 831 00b0 FFF7FEFF 		bl	lv_style_set_arc_width
 832 00b4 2068     		ldr	r0, [r4]
 833 00b6 4FF0FF31 		mov	r1, #-1	@ movhi
 834 00ba 1030     		adds	r0, r0, #16
 835 00bc FFF7FEFF 		bl	lv_style_set_arc_color
 836 00c0 2068     		ldr	r0, [r4]
 837 00c2 1830     		adds	r0, r0, #24
 838 00c4 FFF7FEFF 		bl	style_init_reset
 839 00c8 2068     		ldr	r0, [r4]
 840 00ca FF21     		movs	r1, #255
 841 00cc 1830     		adds	r0, r0, #24
 842 00ce FFF7FEFF 		bl	lv_style_set_bg_opa
 843 00d2 2568     		ldr	r5, [r4]
 844 00d4 0221     		movs	r1, #2
 845 00d6 1220     		movs	r0, #18
 846 00d8 FFF7FEFF 		bl	lv_palette_lighten
 847 00dc 0146     		mov	r1, r0	@ movhi
 848 00de 05F11800 		add	r0, r5, #24
 849 00e2 FFF7FEFF 		bl	lv_style_set_bg_color
 850 00e6 2068     		ldr	r0, [r4]
 851 00e8 0121     		movs	r1, #1
 852 00ea 1830     		adds	r0, r0, #24
 853 00ec FFF7FEFF 		bl	lv_style_set_line_width
 854 00f0 2568     		ldr	r5, [r4]
 855 00f2 0221     		movs	r1, #2
 856 00f4 1220     		movs	r0, #18
 857 00f6 FFF7FEFF 		bl	lv_palette_lighten
 858 00fa 0146     		mov	r1, r0	@ movhi
 859 00fc 05F11800 		add	r0, r5, #24
 860 0100 FFF7FEFF 		bl	lv_style_set_line_color
 861 0104 2068     		ldr	r0, [r4]
 862 0106 0221     		movs	r1, #2
ARM GAS  /var/folders/lp/x54gwt890xv47sdkqj1k04q40000gn/T//cctahADp.s 			page 16


 863 0108 1830     		adds	r0, r0, #24
 864 010a FFF7FEFF 		bl	lv_style_set_arc_width
 865 010e 2568     		ldr	r5, [r4]
 866 0110 0221     		movs	r1, #2
 867 0112 1220     		movs	r0, #18
 868 0114 FFF7FEFF 		bl	lv_palette_lighten
 869 0118 0146     		mov	r1, r0	@ movhi
 870 011a 05F11800 		add	r0, r5, #24
 871 011e FFF7FEFF 		bl	lv_style_set_arc_color
 872 0122 2068     		ldr	r0, [r4]
 873 0124 2030     		adds	r0, r0, #32
 874 0126 FFF7FEFF 		bl	style_init_reset
 875 012a 2068     		ldr	r0, [r4]
 876 012c FF21     		movs	r1, #255
 877 012e 2030     		adds	r0, r0, #32
 878 0130 FFF7FEFF 		bl	lv_style_set_bg_opa
 879 0134 2568     		ldr	r5, [r4]
 880 0136 1220     		movs	r0, #18
 881 0138 FFF7FEFF 		bl	lv_palette_main
 882 013c 0146     		mov	r1, r0	@ movhi
 883 013e 05F12000 		add	r0, r5, #32
 884 0142 FFF7FEFF 		bl	lv_style_set_bg_color
 885 0146 2068     		ldr	r0, [r4]
 886 0148 0121     		movs	r1, #1
 887 014a 2030     		adds	r0, r0, #32
 888 014c FFF7FEFF 		bl	lv_style_set_line_width
 889 0150 2568     		ldr	r5, [r4]
 890 0152 1220     		movs	r0, #18
 891 0154 FFF7FEFF 		bl	lv_palette_main
 892 0158 0146     		mov	r1, r0	@ movhi
 893 015a 05F12000 		add	r0, r5, #32
 894 015e FFF7FEFF 		bl	lv_style_set_line_color
 895 0162 2068     		ldr	r0, [r4]
 896 0164 0221     		movs	r1, #2
 897 0166 2030     		adds	r0, r0, #32
 898 0168 FFF7FEFF 		bl	lv_style_set_arc_width
 899 016c 2568     		ldr	r5, [r4]
 900 016e 1220     		movs	r0, #18
 901 0170 FFF7FEFF 		bl	lv_palette_main
 902 0174 0146     		mov	r1, r0	@ movhi
 903 0176 05F12000 		add	r0, r5, #32
 904 017a FFF7FEFF 		bl	lv_style_set_arc_color
 905 017e 2068     		ldr	r0, [r4]
 906 0180 2830     		adds	r0, r0, #40
 907 0182 FFF7FEFF 		bl	style_init_reset
 908 0186 2068     		ldr	r0, [r4]
 909 0188 FF21     		movs	r1, #255
 910 018a 2830     		adds	r0, r0, #40
 911 018c FFF7FEFF 		bl	lv_style_set_bg_opa
 912 0190 2568     		ldr	r5, [r4]
 913 0192 0221     		movs	r1, #2
 914 0194 1220     		movs	r0, #18
 915 0196 FFF7FEFF 		bl	lv_palette_darken
 916 019a 0146     		mov	r1, r0	@ movhi
 917 019c 05F12800 		add	r0, r5, #40
 918 01a0 FFF7FEFF 		bl	lv_style_set_bg_color
 919 01a4 2068     		ldr	r0, [r4]
ARM GAS  /var/folders/lp/x54gwt890xv47sdkqj1k04q40000gn/T//cctahADp.s 			page 17


 920 01a6 0121     		movs	r1, #1
 921 01a8 2830     		adds	r0, r0, #40
 922 01aa FFF7FEFF 		bl	lv_style_set_line_width
 923 01ae 2568     		ldr	r5, [r4]
 924 01b0 0221     		movs	r1, #2
 925 01b2 1220     		movs	r0, #18
 926 01b4 FFF7FEFF 		bl	lv_palette_darken
 927 01b8 0146     		mov	r1, r0	@ movhi
 928 01ba 05F12800 		add	r0, r5, #40
 929 01be FFF7FEFF 		bl	lv_style_set_line_color
 930 01c2 2068     		ldr	r0, [r4]
 931 01c4 0221     		movs	r1, #2
 932 01c6 2830     		adds	r0, r0, #40
 933 01c8 FFF7FEFF 		bl	lv_style_set_arc_width
 934 01cc 2568     		ldr	r5, [r4]
 935 01ce 0221     		movs	r1, #2
 936 01d0 1220     		movs	r0, #18
 937 01d2 FFF7FEFF 		bl	lv_palette_darken
 938 01d6 0146     		mov	r1, r0	@ movhi
 939 01d8 05F12800 		add	r0, r5, #40
 940 01dc FFF7FEFF 		bl	lv_style_set_arc_color
 941 01e0 2068     		ldr	r0, [r4]
 942 01e2 3830     		adds	r0, r0, #56
 943 01e4 FFF7FEFF 		bl	style_init_reset
 944 01e8 2068     		ldr	r0, [r4]
 945 01ea 0621     		movs	r1, #6
 946 01ec 3830     		adds	r0, r0, #56
 947 01ee FFF7FEFF 		bl	lv_style_set_arc_width
 948 01f2 2068     		ldr	r0, [r4]
 949 01f4 4030     		adds	r0, r0, #64
 950 01f6 FFF7FEFF 		bl	style_init_reset
 951 01fa 2068     		ldr	r0, [r4]
 952 01fc 0521     		movs	r1, #5
 953 01fe 4030     		adds	r0, r0, #64
 954 0200 FFF7FEFF 		bl	lv_style_set_pad_all
 955 0204 2068     		ldr	r0, [r4]
 956 0206 4830     		adds	r0, r0, #72
 957 0208 FFF7FEFF 		bl	style_init_reset
 958 020c 2068     		ldr	r0, [r4]
 959 020e 0421     		movs	r1, #4
 960 0210 4830     		adds	r0, r0, #72
 961 0212 FFF7FEFF 		bl	lv_style_set_border_side
 962 0216 2568     		ldr	r5, [r4]
 963 0218 0221     		movs	r1, #2
 964 021a 1220     		movs	r0, #18
 965 021c FFF7FEFF 		bl	lv_palette_darken
 966 0220 0146     		mov	r1, r0	@ movhi
 967 0222 05F14800 		add	r0, r5, #72
 968 0226 FFF7FEFF 		bl	lv_style_set_border_color
 969 022a 2068     		ldr	r0, [r4]
 970 022c 0221     		movs	r1, #2
 971 022e 4830     		adds	r0, r0, #72
 972 0230 FFF7FEFF 		bl	lv_style_set_border_width
 973 0234 2068     		ldr	r0, [r4]
 974 0236 0021     		movs	r1, #0
 975 0238 4830     		adds	r0, r0, #72
 976 023a FFF7FEFF 		bl	lv_style_set_bg_opa
ARM GAS  /var/folders/lp/x54gwt890xv47sdkqj1k04q40000gn/T//cctahADp.s 			page 18


 977 023e 2068     		ldr	r0, [r4]
 978 0240 4FF4FA71 		mov	r1, #500
 979 0244 4830     		adds	r0, r0, #72
 980 0246 FFF7FEFF 		bl	lv_style_set_anim_time
 981 024a 38BD     		pop	{r3, r4, r5, pc}
 982              	.L63:
 983              		.align	2
 984              	.L62:
 985 024c 00000000 		.word	styles
 987              		.section	.text.lv_theme_basic_is_inited,"ax",%progbits
 988              		.align	1
 989              		.global	lv_theme_basic_is_inited
 990              		.syntax unified
 991              		.thumb
 992              		.thumb_func
 994              	lv_theme_basic_is_inited:
 995              		@ args = 0, pretend = 0, frame = 0
 996              		@ frame_needed = 0, uses_anonymous_args = 0
 997              		@ link register save eliminated.
 998 0000 024B     		ldr	r3, .L65
 999 0002 1868     		ldr	r0, [r3]
 1000 0004 0038     		subs	r0, r0, #0
 1001 0006 18BF     		it	ne
 1002 0008 0120     		movne	r0, #1
 1003 000a 7047     		bx	lr
 1004              	.L66:
 1005              		.align	2
 1006              	.L65:
 1007 000c 00000000 		.word	_lv_theme_basic_styles
 1009              		.section	.text.lv_theme_basic_init,"ax",%progbits
 1010              		.align	1
 1011              		.global	lv_theme_basic_init
 1012              		.syntax unified
 1013              		.thumb
 1014              		.thumb_func
 1016              	lv_theme_basic_init:
 1017              		@ args = 0, pretend = 0, frame = 0
 1018              		@ frame_needed = 0, uses_anonymous_args = 0
 1019 0000 10B5     		push	{r4, lr}
 1020 0002 0446     		mov	r4, r0
 1021 0004 FFF7FEFF 		bl	lv_theme_basic_is_inited
 1022 0008 C0B1     		cbz	r0, .L72
 1023              	.L68:
 1024 000a 124B     		ldr	r3, .L73
 1025 000c DC60     		str	r4, [r3, #12]
 1026 000e 124A     		ldr	r2, .L73+4
 1027 0010 5A61     		str	r2, [r3, #20]
 1028 0012 9A61     		str	r2, [r3, #24]
 1029 0014 DA61     		str	r2, [r3, #28]
 1030 0016 114A     		ldr	r2, .L73+8
 1031 0018 1A60     		str	r2, [r3]
 1032 001a FFF7FEFF 		bl	style_init
 1033 001e 2CB1     		cbz	r4, .L69
 1034 0020 2046     		mov	r0, r4
 1035 0022 FFF7FEFF 		bl	lv_disp_get_theme
 1036 0026 0B4B     		ldr	r3, .L73
 1037 0028 8342     		cmp	r3, r0
ARM GAS  /var/folders/lp/x54gwt890xv47sdkqj1k04q40000gn/T//cctahADp.s 			page 19


 1038 002a 02D1     		bne	.L70
 1039              	.L69:
 1040 002c 0020     		movs	r0, #0
 1041 002e FFF7FEFF 		bl	lv_obj_report_style_change
 1042              	.L70:
 1043 0032 0B4B     		ldr	r3, .L73+12
 1044 0034 0122     		movs	r2, #1
 1045 0036 1A70     		strb	r2, [r3]
 1046 0038 0648     		ldr	r0, .L73
 1047 003a 10BD     		pop	{r4, pc}
 1048              	.L72:
 1049 003c 084B     		ldr	r3, .L73+12
 1050 003e 0022     		movs	r2, #0
 1051 0040 1A70     		strb	r2, [r3]
 1052 0042 5020     		movs	r0, #80
 1053 0044 FFF7FEFF 		bl	lv_mem_alloc
 1054 0048 064B     		ldr	r3, .L73+16
 1055 004a 1860     		str	r0, [r3]
 1056 004c 064B     		ldr	r3, .L73+20
 1057 004e 1860     		str	r0, [r3]
 1058 0050 DBE7     		b	.L68
 1059              	.L74:
 1060 0052 00BF     		.align	2
 1061              	.L73:
 1062 0054 00000000 		.word	theme
 1063 0058 00000000 		.word	lv_font_montserrat_14
 1064 005c 00000000 		.word	theme_apply
 1065 0060 00000000 		.word	inited
 1066 0064 00000000 		.word	_lv_theme_basic_styles
 1067 0068 00000000 		.word	styles
 1069              		.section	.bss.inited,"aw",%nobits
 1072              	inited:
 1073 0000 00       		.space	1
 1074              		.section	.bss.theme,"aw",%nobits
 1075              		.align	2
 1078              	theme:
 1079 0000 00000000 		.space	36
 1079      00000000 
 1079      00000000 
 1079      00000000 
 1079      00000000 
 1080              		.section	.bss.styles,"aw",%nobits
 1081              		.align	2
 1084              	styles:
 1085 0000 00000000 		.space	4
 1086              		.ident	"GCC: (xPack GNU Arm Embedded GCC arm64) 13.3.1 20240614"
ARM GAS  /var/folders/lp/x54gwt890xv47sdkqj1k04q40000gn/T//cctahADp.s 			page 20

