ARM GAS  /var/folders/lp/x54gwt890xv47sdkqj1k04q40000gn/T//ccgnHJHb.s 			page 1


   1              		.cpu cortex-m4
   2              		.arch armv7e-m
   3              		.fpu fpv4-sp-d16
   4              		.eabi_attribute 27, 1
   5              		.eabi_attribute 28, 1
   6              		.eabi_attribute 20, 1
   7              		.eabi_attribute 21, 1
   8              		.eabi_attribute 23, 3
   9              		.eabi_attribute 24, 1
  10              		.eabi_attribute 25, 1
  11              		.eabi_attribute 26, 1
  12              		.eabi_attribute 30, 1
  13              		.eabi_attribute 34, 1
  14              		.eabi_attribute 18, 4
  15              		.file	"lv_theme_mono.c"
  16              		.text
  17              		.section	.text.theme_apply,"ax",%progbits
  18              		.align	1
  19              		.syntax unified
  20              		.thumb
  21              		.thumb_func
  23              	theme_apply:
  24              		@ args = 0, pretend = 0, frame = 0
  25              		@ frame_needed = 0, uses_anonymous_args = 0
  26 0000 70B5     		push	{r4, r5, r6, lr}
  27 0002 0C46     		mov	r4, r1
  28 0004 0846     		mov	r0, r1
  29 0006 FFF7FEFF 		bl	lv_obj_get_parent
  30 000a 70B1     		cbz	r0, .L33
  31 000c BA49     		ldr	r1, .L42
  32 000e 2046     		mov	r0, r4
  33 0010 FFF7FEFF 		bl	lv_obj_check_type
  34 0014 0028     		cmp	r0, #0
  35 0016 7CD0     		beq	.L4
  36 0018 2046     		mov	r0, r4
  37 001a FFF7FEFF 		bl	lv_obj_get_parent
  38 001e 0546     		mov	r5, r0
  39 0020 B649     		ldr	r1, .L42+4
  40 0022 FFF7FEFF 		bl	lv_obj_check_type
  41 0026 70B1     		cbz	r0, .L34
  42              	.L1:
  43 0028 70BD     		pop	{r4, r5, r6, pc}
  44              	.L33:
  45 002a B54D     		ldr	r5, .L42+8
  46 002c 0022     		movs	r2, #0
  47 002e 2968     		ldr	r1, [r5]
  48 0030 2046     		mov	r0, r4
  49 0032 FFF7FEFF 		bl	lv_obj_add_style
  50 0036 2968     		ldr	r1, [r5]
  51 0038 4FF48032 		mov	r2, #65536
  52 003c 1031     		adds	r1, r1, #16
  53 003e 2046     		mov	r0, r4
  54 0040 FFF7FEFF 		bl	lv_obj_add_style
  55 0044 F0E7     		b	.L1
  56              	.L34:
  57 0046 2846     		mov	r0, r5
  58 0048 FFF7FEFF 		bl	lv_obj_get_parent
ARM GAS  /var/folders/lp/x54gwt890xv47sdkqj1k04q40000gn/T//ccgnHJHb.s 			page 2


  59 004c AB49     		ldr	r1, .L42+4
  60 004e FFF7FEFF 		bl	lv_obj_check_type
  61 0052 F0B9     		cbnz	r0, .L35
  62 0054 2046     		mov	r0, r4
  63 0056 FFF7FEFF 		bl	lv_obj_get_index
  64 005a 30B9     		cbnz	r0, .L6
  65 005c 2046     		mov	r0, r4
  66 005e FFF7FEFF 		bl	lv_obj_get_parent
  67 0062 A849     		ldr	r1, .L42+12
  68 0064 FFF7FEFF 		bl	lv_obj_check_type
  69 0068 40BB     		cbnz	r0, .L36
  70              	.L6:
  71 006a 2046     		mov	r0, r4
  72 006c FFF7FEFF 		bl	lv_obj_get_index
  73 0070 0128     		cmp	r0, #1
  74 0072 31D0     		beq	.L37
  75              	.L7:
  76 0074 A24D     		ldr	r5, .L42+8
  77 0076 2968     		ldr	r1, [r5]
  78 0078 0022     		movs	r2, #0
  79 007a 0831     		adds	r1, r1, #8
  80 007c 2046     		mov	r0, r4
  81 007e FFF7FEFF 		bl	lv_obj_add_style
  82 0082 2968     		ldr	r1, [r5]
  83 0084 4FF48032 		mov	r2, #65536
  84 0088 1031     		adds	r1, r1, #16
  85 008a 2046     		mov	r0, r4
  86 008c FFF7FEFF 		bl	lv_obj_add_style
  87 0090 CAE7     		b	.L1
  88              	.L35:
  89 0092 9B4D     		ldr	r5, .L42+8
  90 0094 2968     		ldr	r1, [r5]
  91 0096 0022     		movs	r2, #0
  92 0098 0831     		adds	r1, r1, #8
  93 009a 2046     		mov	r0, r4
  94 009c FFF7FEFF 		bl	lv_obj_add_style
  95 00a0 2968     		ldr	r1, [r5]
  96 00a2 0022     		movs	r2, #0
  97 00a4 5831     		adds	r1, r1, #88
  98 00a6 2046     		mov	r0, r4
  99 00a8 FFF7FEFF 		bl	lv_obj_add_style
 100 00ac 2968     		ldr	r1, [r5]
 101 00ae 4FF48032 		mov	r2, #65536
 102 00b2 1031     		adds	r1, r1, #16
 103 00b4 2046     		mov	r0, r4
 104 00b6 FFF7FEFF 		bl	lv_obj_add_style
 105 00ba B5E7     		b	.L1
 106              	.L36:
 107 00bc 904D     		ldr	r5, .L42+8
 108 00be 2968     		ldr	r1, [r5]
 109 00c0 0022     		movs	r2, #0
 110 00c2 0831     		adds	r1, r1, #8
 111 00c4 2046     		mov	r0, r4
 112 00c6 FFF7FEFF 		bl	lv_obj_add_style
 113 00ca 2968     		ldr	r1, [r5]
 114 00cc 0022     		movs	r2, #0
 115 00ce 5831     		adds	r1, r1, #88
ARM GAS  /var/folders/lp/x54gwt890xv47sdkqj1k04q40000gn/T//ccgnHJHb.s 			page 3


 116 00d0 2046     		mov	r0, r4
 117 00d2 FFF7FEFF 		bl	lv_obj_add_style
 118 00d6 A7E7     		b	.L1
 119              	.L37:
 120 00d8 2046     		mov	r0, r4
 121 00da FFF7FEFF 		bl	lv_obj_get_parent
 122 00de 8949     		ldr	r1, .L42+12
 123 00e0 FFF7FEFF 		bl	lv_obj_check_type
 124 00e4 0028     		cmp	r0, #0
 125 00e6 C5D0     		beq	.L7
 126 00e8 854D     		ldr	r5, .L42+8
 127 00ea 2968     		ldr	r1, [r5]
 128 00ec 0022     		movs	r2, #0
 129 00ee 0831     		adds	r1, r1, #8
 130 00f0 2046     		mov	r0, r4
 131 00f2 FFF7FEFF 		bl	lv_obj_add_style
 132 00f6 2968     		ldr	r1, [r5]
 133 00f8 0022     		movs	r2, #0
 134 00fa 5831     		adds	r1, r1, #88
 135 00fc 2046     		mov	r0, r4
 136 00fe FFF7FEFF 		bl	lv_obj_add_style
 137 0102 2968     		ldr	r1, [r5]
 138 0104 4FF48032 		mov	r2, #65536
 139 0108 1031     		adds	r1, r1, #16
 140 010a 2046     		mov	r0, r4
 141 010c FFF7FEFF 		bl	lv_obj_add_style
 142 0110 8AE7     		b	.L1
 143              	.L4:
 144 0112 7D49     		ldr	r1, .L42+16
 145 0114 2046     		mov	r0, r4
 146 0116 FFF7FEFF 		bl	lv_obj_check_type
 147 011a 28B3     		cbz	r0, .L8
 148 011c 784D     		ldr	r5, .L42+8
 149 011e 2968     		ldr	r1, [r5]
 150 0120 0022     		movs	r2, #0
 151 0122 0831     		adds	r1, r1, #8
 152 0124 2046     		mov	r0, r4
 153 0126 FFF7FEFF 		bl	lv_obj_add_style
 154 012a 2968     		ldr	r1, [r5]
 155 012c 2022     		movs	r2, #32
 156 012e 1144     		add	r1, r1, r2
 157 0130 2046     		mov	r0, r4
 158 0132 FFF7FEFF 		bl	lv_obj_add_style
 159 0136 2968     		ldr	r1, [r5]
 160 0138 0122     		movs	r2, #1
 161 013a 2831     		adds	r1, r1, #40
 162 013c 2046     		mov	r0, r4
 163 013e FFF7FEFF 		bl	lv_obj_add_style
 164 0142 2968     		ldr	r1, [r5]
 165 0144 8022     		movs	r2, #128
 166 0146 3031     		adds	r1, r1, #48
 167 0148 2046     		mov	r0, r4
 168 014a FFF7FEFF 		bl	lv_obj_add_style
 169 014e 2968     		ldr	r1, [r5]
 170 0150 0422     		movs	r2, #4
 171 0152 3831     		adds	r1, r1, #56
 172 0154 2046     		mov	r0, r4
ARM GAS  /var/folders/lp/x54gwt890xv47sdkqj1k04q40000gn/T//ccgnHJHb.s 			page 4


 173 0156 FFF7FEFF 		bl	lv_obj_add_style
 174 015a 2968     		ldr	r1, [r5]
 175 015c 0822     		movs	r2, #8
 176 015e 4031     		adds	r1, r1, #64
 177 0160 2046     		mov	r0, r4
 178 0162 FFF7FEFF 		bl	lv_obj_add_style
 179 0166 5FE7     		b	.L1
 180              	.L8:
 181 0168 6849     		ldr	r1, .L42+20
 182 016a 2046     		mov	r0, r4
 183 016c FFF7FEFF 		bl	lv_obj_check_type
 184 0170 0028     		cmp	r0, #0
 185 0172 00F0A080 		beq	.L9
 186 0176 2046     		mov	r0, r4
 187 0178 FFF7FEFF 		bl	lv_obj_get_parent
 188 017c 6449     		ldr	r1, .L42+24
 189 017e FFF7FEFF 		bl	lv_obj_check_type
 190 0182 0028     		cmp	r0, #0
 191 0184 3BD1     		bne	.L38
 192 0186 2046     		mov	r0, r4
 193 0188 FFF7FEFF 		bl	lv_obj_get_parent
 194 018c 5B49     		ldr	r1, .L42+4
 195 018e FFF7FEFF 		bl	lv_obj_check_type
 196 0192 0028     		cmp	r0, #0
 197 0194 5BD1     		bne	.L39
 198 0196 5A4D     		ldr	r5, .L42+8
 199 0198 2968     		ldr	r1, [r5]
 200 019a 0022     		movs	r2, #0
 201 019c 0831     		adds	r1, r1, #8
 202 019e 2046     		mov	r0, r4
 203 01a0 FFF7FEFF 		bl	lv_obj_add_style
 204 01a4 2968     		ldr	r1, [r5]
 205 01a6 0422     		movs	r2, #4
 206 01a8 3831     		adds	r1, r1, #56
 207 01aa 2046     		mov	r0, r4
 208 01ac FFF7FEFF 		bl	lv_obj_add_style
 209 01b0 2968     		ldr	r1, [r5]
 210 01b2 4FF4A022 		mov	r2, #327680
 211 01b6 0831     		adds	r1, r1, #8
 212 01b8 2046     		mov	r0, r4
 213 01ba FFF7FEFF 		bl	lv_obj_add_style
 214 01be 2968     		ldr	r1, [r5]
 215 01c0 544A     		ldr	r2, .L42+28
 216 01c2 2031     		adds	r1, r1, #32
 217 01c4 2046     		mov	r0, r4
 218 01c6 FFF7FEFF 		bl	lv_obj_add_style
 219 01ca 2968     		ldr	r1, [r5]
 220 01cc 524A     		ldr	r2, .L42+32
 221 01ce 2831     		adds	r1, r1, #40
 222 01d0 2046     		mov	r0, r4
 223 01d2 FFF7FEFF 		bl	lv_obj_add_style
 224 01d6 2968     		ldr	r1, [r5]
 225 01d8 504A     		ldr	r2, .L42+36
 226 01da 3031     		adds	r1, r1, #48
 227 01dc 2046     		mov	r0, r4
 228 01de FFF7FEFF 		bl	lv_obj_add_style
 229 01e2 2968     		ldr	r1, [r5]
ARM GAS  /var/folders/lp/x54gwt890xv47sdkqj1k04q40000gn/T//ccgnHJHb.s 			page 5


 230 01e4 4E4E     		ldr	r6, .L42+40
 231 01e6 3246     		mov	r2, r6
 232 01e8 7831     		adds	r1, r1, #120
 233 01ea 2046     		mov	r0, r4
 234 01ec FFF7FEFF 		bl	lv_obj_add_style
 235 01f0 2968     		ldr	r1, [r5]
 236 01f2 3246     		mov	r2, r6
 237 01f4 6831     		adds	r1, r1, #104
 238 01f6 2046     		mov	r0, r4
 239 01f8 FFF7FEFF 		bl	lv_obj_add_style
 240 01fc 14E7     		b	.L1
 241              	.L38:
 242 01fe 404D     		ldr	r5, .L42+8
 243 0200 2968     		ldr	r1, [r5]
 244 0202 0022     		movs	r2, #0
 245 0204 4831     		adds	r1, r1, #72
 246 0206 2046     		mov	r0, r4
 247 0208 FFF7FEFF 		bl	lv_obj_add_style
 248 020c 2968     		ldr	r1, [r5]
 249 020e 4FF4A022 		mov	r2, #327680
 250 0212 0831     		adds	r1, r1, #8
 251 0214 2046     		mov	r0, r4
 252 0216 FFF7FEFF 		bl	lv_obj_add_style
 253 021a 2968     		ldr	r1, [r5]
 254 021c 3D4A     		ldr	r2, .L42+28
 255 021e 2031     		adds	r1, r1, #32
 256 0220 2046     		mov	r0, r4
 257 0222 FFF7FEFF 		bl	lv_obj_add_style
 258 0226 2968     		ldr	r1, [r5]
 259 0228 3C4A     		ldr	r2, .L42+36
 260 022a 3031     		adds	r1, r1, #48
 261 022c 2046     		mov	r0, r4
 262 022e FFF7FEFF 		bl	lv_obj_add_style
 263 0232 2968     		ldr	r1, [r5]
 264 0234 3A4E     		ldr	r6, .L42+40
 265 0236 3246     		mov	r2, r6
 266 0238 7831     		adds	r1, r1, #120
 267 023a 2046     		mov	r0, r4
 268 023c FFF7FEFF 		bl	lv_obj_add_style
 269 0240 2968     		ldr	r1, [r5]
 270 0242 3246     		mov	r2, r6
 271 0244 6831     		adds	r1, r1, #104
 272 0246 2046     		mov	r0, r4
 273 0248 FFF7FEFF 		bl	lv_obj_add_style
 274 024c ECE6     		b	.L1
 275              	.L39:
 276 024e 2C4D     		ldr	r5, .L42+8
 277 0250 2968     		ldr	r1, [r5]
 278 0252 0022     		movs	r2, #0
 279 0254 4831     		adds	r1, r1, #72
 280 0256 2046     		mov	r0, r4
 281 0258 FFF7FEFF 		bl	lv_obj_add_style
 282 025c 2968     		ldr	r1, [r5]
 283 025e 4FF4A022 		mov	r2, #327680
 284 0262 0831     		adds	r1, r1, #8
 285 0264 2046     		mov	r0, r4
 286 0266 FFF7FEFF 		bl	lv_obj_add_style
ARM GAS  /var/folders/lp/x54gwt890xv47sdkqj1k04q40000gn/T//ccgnHJHb.s 			page 6


 287 026a 2968     		ldr	r1, [r5]
 288 026c 294A     		ldr	r2, .L42+28
 289 026e 2031     		adds	r1, r1, #32
 290 0270 2046     		mov	r0, r4
 291 0272 FFF7FEFF 		bl	lv_obj_add_style
 292 0276 2968     		ldr	r1, [r5]
 293 0278 274A     		ldr	r2, .L42+32
 294 027a 2831     		adds	r1, r1, #40
 295 027c 2046     		mov	r0, r4
 296 027e FFF7FEFF 		bl	lv_obj_add_style
 297 0282 2968     		ldr	r1, [r5]
 298 0284 254A     		ldr	r2, .L42+36
 299 0286 3031     		adds	r1, r1, #48
 300 0288 2046     		mov	r0, r4
 301 028a FFF7FEFF 		bl	lv_obj_add_style
 302 028e 2968     		ldr	r1, [r5]
 303 0290 0422     		movs	r2, #4
 304 0292 3831     		adds	r1, r1, #56
 305 0294 2046     		mov	r0, r4
 306 0296 FFF7FEFF 		bl	lv_obj_add_style
 307 029a 2968     		ldr	r1, [r5]
 308 029c 204E     		ldr	r6, .L42+40
 309 029e 3246     		mov	r2, r6
 310 02a0 7831     		adds	r1, r1, #120
 311 02a2 2046     		mov	r0, r4
 312 02a4 FFF7FEFF 		bl	lv_obj_add_style
 313 02a8 2968     		ldr	r1, [r5]
 314 02aa 3246     		mov	r2, r6
 315 02ac 6831     		adds	r1, r1, #104
 316 02ae 2046     		mov	r0, r4
 317 02b0 FFF7FEFF 		bl	lv_obj_add_style
 318 02b4 B8E6     		b	.L1
 319              	.L9:
 320 02b6 1B49     		ldr	r1, .L42+44
 321 02b8 2046     		mov	r0, r4
 322 02ba FFF7FEFF 		bl	lv_obj_check_type
 323 02be 98B3     		cbz	r0, .L12
 324 02c0 0F4D     		ldr	r5, .L42+8
 325 02c2 2968     		ldr	r1, [r5]
 326 02c4 0022     		movs	r2, #0
 327 02c6 0831     		adds	r1, r1, #8
 328 02c8 2046     		mov	r0, r4
 329 02ca FFF7FEFF 		bl	lv_obj_add_style
 330 02ce 2968     		ldr	r1, [r5]
 331 02d0 0022     		movs	r2, #0
 332 02d2 5031     		adds	r1, r1, #80
 333 02d4 2046     		mov	r0, r4
 334 02d6 FFF7FEFF 		bl	lv_obj_add_style
 335 02da 2968     		ldr	r1, [r5]
 336 02dc 4FF40032 		mov	r2, #131072
 337 02e0 2831     		adds	r1, r1, #40
 338 02e2 2046     		mov	r0, r4
 339 02e4 FFF7FEFF 		bl	lv_obj_add_style
 340 02e8 2968     		ldr	r1, [r5]
 341 02ea 0422     		movs	r2, #4
 342 02ec 3831     		adds	r1, r1, #56
 343 02ee 2046     		mov	r0, r4
ARM GAS  /var/folders/lp/x54gwt890xv47sdkqj1k04q40000gn/T//ccgnHJHb.s 			page 7


 344 02f0 FFF7FEFF 		bl	lv_obj_add_style
 345 02f4 98E6     		b	.L1
 346              	.L43:
 347 02f6 00BF     		.align	2
 348              	.L42:
 349 02f8 00000000 		.word	lv_obj_class
 350 02fc 00000000 		.word	lv_tabview_class
 351 0300 00000000 		.word	styles
 352 0304 00000000 		.word	lv_win_class
 353 0308 00000000 		.word	lv_btn_class
 354 030c 00000000 		.word	lv_btnmatrix_class
 355 0310 00000000 		.word	lv_msgbox_class
 356 0314 20000500 		.word	327712
 357 0318 01000500 		.word	327681
 358 031c 80000500 		.word	327808
 359 0320 04000500 		.word	327684
 360 0324 00000000 		.word	lv_bar_class
 361              	.L12:
 362 0328 C449     		ldr	r1, .L44
 363 032a 2046     		mov	r0, r4
 364 032c FFF7FEFF 		bl	lv_obj_check_type
 365 0330 70B3     		cbz	r0, .L13
 366 0332 C34D     		ldr	r5, .L44+4
 367 0334 2968     		ldr	r1, [r5]
 368 0336 0022     		movs	r2, #0
 369 0338 0831     		adds	r1, r1, #8
 370 033a 2046     		mov	r0, r4
 371 033c FFF7FEFF 		bl	lv_obj_add_style
 372 0340 2968     		ldr	r1, [r5]
 373 0342 0022     		movs	r2, #0
 374 0344 5031     		adds	r1, r1, #80
 375 0346 2046     		mov	r0, r4
 376 0348 FFF7FEFF 		bl	lv_obj_add_style
 377 034c 2968     		ldr	r1, [r5]
 378 034e 4FF40032 		mov	r2, #131072
 379 0352 2831     		adds	r1, r1, #40
 380 0354 2046     		mov	r0, r4
 381 0356 FFF7FEFF 		bl	lv_obj_add_style
 382 035a 2968     		ldr	r1, [r5]
 383 035c 4FF44032 		mov	r2, #196608
 384 0360 0831     		adds	r1, r1, #8
 385 0362 2046     		mov	r0, r4
 386 0364 FFF7FEFF 		bl	lv_obj_add_style
 387 0368 2968     		ldr	r1, [r5]
 388 036a 4FF44032 		mov	r2, #196608
 389 036e 6031     		adds	r1, r1, #96
 390 0370 2046     		mov	r0, r4
 391 0372 FFF7FEFF 		bl	lv_obj_add_style
 392 0376 2968     		ldr	r1, [r5]
 393 0378 0422     		movs	r2, #4
 394 037a 3831     		adds	r1, r1, #56
 395 037c 2046     		mov	r0, r4
 396 037e FFF7FEFF 		bl	lv_obj_add_style
 397 0382 2968     		ldr	r1, [r5]
 398 0384 0822     		movs	r2, #8
 399 0386 4031     		adds	r1, r1, #64
 400 0388 2046     		mov	r0, r4
ARM GAS  /var/folders/lp/x54gwt890xv47sdkqj1k04q40000gn/T//ccgnHJHb.s 			page 8


 401 038a FFF7FEFF 		bl	lv_obj_add_style
 402 038e 4BE6     		b	.L1
 403              	.L13:
 404 0390 AC49     		ldr	r1, .L44+8
 405 0392 2046     		mov	r0, r4
 406 0394 FFF7FEFF 		bl	lv_obj_check_type
 407 0398 70B3     		cbz	r0, .L14
 408 039a A94D     		ldr	r5, .L44+4
 409 039c 2968     		ldr	r1, [r5]
 410 039e 4FF48032 		mov	r2, #65536
 411 03a2 1031     		adds	r1, r1, #16
 412 03a4 2046     		mov	r0, r4
 413 03a6 FFF7FEFF 		bl	lv_obj_add_style
 414 03aa 2968     		ldr	r1, [r5]
 415 03ac 4FF4A022 		mov	r2, #327680
 416 03b0 0831     		adds	r1, r1, #8
 417 03b2 2046     		mov	r0, r4
 418 03b4 FFF7FEFF 		bl	lv_obj_add_style
 419 03b8 2968     		ldr	r1, [r5]
 420 03ba 4FF4A022 		mov	r2, #327680
 421 03be 5831     		adds	r1, r1, #88
 422 03c0 2046     		mov	r0, r4
 423 03c2 FFF7FEFF 		bl	lv_obj_add_style
 424 03c6 2968     		ldr	r1, [r5]
 425 03c8 9F4A     		ldr	r2, .L44+12
 426 03ca 2031     		adds	r1, r1, #32
 427 03cc 2046     		mov	r0, r4
 428 03ce FFF7FEFF 		bl	lv_obj_add_style
 429 03d2 2968     		ldr	r1, [r5]
 430 03d4 0422     		movs	r2, #4
 431 03d6 3831     		adds	r1, r1, #56
 432 03d8 2046     		mov	r0, r4
 433 03da FFF7FEFF 		bl	lv_obj_add_style
 434 03de 2968     		ldr	r1, [r5]
 435 03e0 9A4A     		ldr	r2, .L44+16
 436 03e2 2831     		adds	r1, r1, #40
 437 03e4 2046     		mov	r0, r4
 438 03e6 FFF7FEFF 		bl	lv_obj_add_style
 439 03ea 2968     		ldr	r1, [r5]
 440 03ec 0822     		movs	r2, #8
 441 03ee 4031     		adds	r1, r1, #64
 442 03f0 2046     		mov	r0, r4
 443 03f2 FFF7FEFF 		bl	lv_obj_add_style
 444 03f6 17E6     		b	.L1
 445              	.L14:
 446 03f8 9549     		ldr	r1, .L44+20
 447 03fa 2046     		mov	r0, r4
 448 03fc FFF7FEFF 		bl	lv_obj_check_type
 449 0400 60B3     		cbz	r0, .L15
 450 0402 8F4D     		ldr	r5, .L44+4
 451 0404 2968     		ldr	r1, [r5]
 452 0406 0022     		movs	r2, #0
 453 0408 4831     		adds	r1, r1, #72
 454 040a 2046     		mov	r0, r4
 455 040c FFF7FEFF 		bl	lv_obj_add_style
 456 0410 2968     		ldr	r1, [r5]
 457 0412 4FF40032 		mov	r2, #131072
ARM GAS  /var/folders/lp/x54gwt890xv47sdkqj1k04q40000gn/T//ccgnHJHb.s 			page 9


 458 0416 0831     		adds	r1, r1, #8
 459 0418 2046     		mov	r0, r4
 460 041a FFF7FEFF 		bl	lv_obj_add_style
 461 041e 2968     		ldr	r1, [r5]
 462 0420 8C4A     		ldr	r2, .L44+24
 463 0422 3031     		adds	r1, r1, #48
 464 0424 2046     		mov	r0, r4
 465 0426 FFF7FEFF 		bl	lv_obj_add_style
 466 042a 2968     		ldr	r1, [r5]
 467 042c 8A4A     		ldr	r2, .L44+28
 468 042e 2831     		adds	r1, r1, #40
 469 0430 2046     		mov	r0, r4
 470 0432 FFF7FEFF 		bl	lv_obj_add_style
 471 0436 2968     		ldr	r1, [r5]
 472 0438 884A     		ldr	r2, .L44+32
 473 043a 2031     		adds	r1, r1, #32
 474 043c 2046     		mov	r0, r4
 475 043e FFF7FEFF 		bl	lv_obj_add_style
 476 0442 2968     		ldr	r1, [r5]
 477 0444 0422     		movs	r2, #4
 478 0446 3831     		adds	r1, r1, #56
 479 0448 2046     		mov	r0, r4
 480 044a FFF7FEFF 		bl	lv_obj_add_style
 481 044e 2968     		ldr	r1, [r5]
 482 0450 0822     		movs	r2, #8
 483 0452 4031     		adds	r1, r1, #64
 484 0454 2046     		mov	r0, r4
 485 0456 FFF7FEFF 		bl	lv_obj_add_style
 486 045a E5E5     		b	.L1
 487              	.L15:
 488 045c 8049     		ldr	r1, .L44+36
 489 045e 2046     		mov	r0, r4
 490 0460 FFF7FEFF 		bl	lv_obj_check_type
 491 0464 0028     		cmp	r0, #0
 492 0466 42D0     		beq	.L16
 493 0468 754D     		ldr	r5, .L44+4
 494 046a 2968     		ldr	r1, [r5]
 495 046c 0022     		movs	r2, #0
 496 046e 0831     		adds	r1, r1, #8
 497 0470 2046     		mov	r0, r4
 498 0472 FFF7FEFF 		bl	lv_obj_add_style
 499 0476 2968     		ldr	r1, [r5]
 500 0478 0022     		movs	r2, #0
 501 047a 6031     		adds	r1, r1, #96
 502 047c 2046     		mov	r0, r4
 503 047e FFF7FEFF 		bl	lv_obj_add_style
 504 0482 2968     		ldr	r1, [r5]
 505 0484 0022     		movs	r2, #0
 506 0486 5031     		adds	r1, r1, #80
 507 0488 2046     		mov	r0, r4
 508 048a FFF7FEFF 		bl	lv_obj_add_style
 509 048e 2968     		ldr	r1, [r5]
 510 0490 4FF40032 		mov	r2, #131072
 511 0494 2831     		adds	r1, r1, #40
 512 0496 2046     		mov	r0, r4
 513 0498 FFF7FEFF 		bl	lv_obj_add_style
 514 049c 2968     		ldr	r1, [r5]
ARM GAS  /var/folders/lp/x54gwt890xv47sdkqj1k04q40000gn/T//ccgnHJHb.s 			page 10


 515 049e 4FF40032 		mov	r2, #131072
 516 04a2 6031     		adds	r1, r1, #96
 517 04a4 2046     		mov	r0, r4
 518 04a6 FFF7FEFF 		bl	lv_obj_add_style
 519 04aa 2968     		ldr	r1, [r5]
 520 04ac 4FF44032 		mov	r2, #196608
 521 04b0 0831     		adds	r1, r1, #8
 522 04b2 2046     		mov	r0, r4
 523 04b4 FFF7FEFF 		bl	lv_obj_add_style
 524 04b8 2968     		ldr	r1, [r5]
 525 04ba 4FF44032 		mov	r2, #196608
 526 04be 6031     		adds	r1, r1, #96
 527 04c0 2046     		mov	r0, r4
 528 04c2 FFF7FEFF 		bl	lv_obj_add_style
 529 04c6 2968     		ldr	r1, [r5]
 530 04c8 4FF44032 		mov	r2, #196608
 531 04cc 5031     		adds	r1, r1, #80
 532 04ce 2046     		mov	r0, r4
 533 04d0 FFF7FEFF 		bl	lv_obj_add_style
 534 04d4 2968     		ldr	r1, [r5]
 535 04d6 0422     		movs	r2, #4
 536 04d8 3831     		adds	r1, r1, #56
 537 04da 2046     		mov	r0, r4
 538 04dc FFF7FEFF 		bl	lv_obj_add_style
 539 04e0 2968     		ldr	r1, [r5]
 540 04e2 0822     		movs	r2, #8
 541 04e4 4031     		adds	r1, r1, #64
 542 04e6 2046     		mov	r0, r4
 543 04e8 FFF7FEFF 		bl	lv_obj_add_style
 544 04ec 9CE5     		b	.L1
 545              	.L16:
 546 04ee 5D49     		ldr	r1, .L44+40
 547 04f0 2046     		mov	r0, r4
 548 04f2 FFF7FEFF 		bl	lv_obj_check_type
 549 04f6 48B3     		cbz	r0, .L17
 550 04f8 514D     		ldr	r5, .L44+4
 551 04fa 2968     		ldr	r1, [r5]
 552 04fc 0022     		movs	r2, #0
 553 04fe 0831     		adds	r1, r1, #8
 554 0500 2046     		mov	r0, r4
 555 0502 FFF7FEFF 		bl	lv_obj_add_style
 556 0506 2968     		ldr	r1, [r5]
 557 0508 4FF48032 		mov	r2, #65536
 558 050c 1031     		adds	r1, r1, #16
 559 050e 2046     		mov	r0, r4
 560 0510 FFF7FEFF 		bl	lv_obj_add_style
 561 0514 2968     		ldr	r1, [r5]
 562 0516 4FF4A022 		mov	r2, #327680
 563 051a 0831     		adds	r1, r1, #8
 564 051c 2046     		mov	r0, r4
 565 051e FFF7FEFF 		bl	lv_obj_add_style
 566 0522 2968     		ldr	r1, [r5]
 567 0524 4FF4C022 		mov	r2, #393216
 568 0528 0831     		adds	r1, r1, #8
 569 052a 2046     		mov	r0, r4
 570 052c FFF7FEFF 		bl	lv_obj_add_style
 571 0530 2968     		ldr	r1, [r5]
ARM GAS  /var/folders/lp/x54gwt890xv47sdkqj1k04q40000gn/T//ccgnHJHb.s 			page 11


 572 0532 4FF4E022 		mov	r2, #458752
 573 0536 0831     		adds	r1, r1, #8
 574 0538 2046     		mov	r0, r4
 575 053a FFF7FEFF 		bl	lv_obj_add_style
 576 053e 2968     		ldr	r1, [r5]
 577 0540 0422     		movs	r2, #4
 578 0542 3831     		adds	r1, r1, #56
 579 0544 2046     		mov	r0, r4
 580 0546 FFF7FEFF 		bl	lv_obj_add_style
 581 054a 6DE5     		b	.L1
 582              	.L17:
 583 054c 4649     		ldr	r1, .L44+44
 584 054e 2046     		mov	r0, r4
 585 0550 FFF7FEFF 		bl	lv_obj_check_type
 586 0554 00B3     		cbz	r0, .L18
 587 0556 3A4D     		ldr	r5, .L44+4
 588 0558 2968     		ldr	r1, [r5]
 589 055a 0022     		movs	r2, #0
 590 055c 0831     		adds	r1, r1, #8
 591 055e 2046     		mov	r0, r4
 592 0560 FFF7FEFF 		bl	lv_obj_add_style
 593 0564 2968     		ldr	r1, [r5]
 594 0566 0022     		movs	r2, #0
 595 0568 7031     		adds	r1, r1, #112
 596 056a 2046     		mov	r0, r4
 597 056c FFF7FEFF 		bl	lv_obj_add_style
 598 0570 2968     		ldr	r1, [r5]
 599 0572 4FF48022 		mov	r2, #262144
 600 0576 2831     		adds	r1, r1, #40
 601 0578 2046     		mov	r0, r4
 602 057a FFF7FEFF 		bl	lv_obj_add_style
 603 057e 2968     		ldr	r1, [r5]
 604 0580 0422     		movs	r2, #4
 605 0582 3831     		adds	r1, r1, #56
 606 0584 2046     		mov	r0, r4
 607 0586 FFF7FEFF 		bl	lv_obj_add_style
 608 058a 2968     		ldr	r1, [r5]
 609 058c 0822     		movs	r2, #8
 610 058e 4031     		adds	r1, r1, #64
 611 0590 2046     		mov	r0, r4
 612 0592 FFF7FEFF 		bl	lv_obj_add_style
 613 0596 47E5     		b	.L1
 614              	.L18:
 615 0598 3449     		ldr	r1, .L44+48
 616 059a 2046     		mov	r0, r4
 617 059c FFF7FEFF 		bl	lv_obj_check_type
 618 05a0 C8B1     		cbz	r0, .L19
 619 05a2 274D     		ldr	r5, .L44+4
 620 05a4 2968     		ldr	r1, [r5]
 621 05a6 0022     		movs	r2, #0
 622 05a8 0831     		adds	r1, r1, #8
 623 05aa 2046     		mov	r0, r4
 624 05ac FFF7FEFF 		bl	lv_obj_add_style
 625 05b0 2968     		ldr	r1, [r5]
 626 05b2 2022     		movs	r2, #32
 627 05b4 1144     		add	r1, r1, r2
 628 05b6 2046     		mov	r0, r4
ARM GAS  /var/folders/lp/x54gwt890xv47sdkqj1k04q40000gn/T//ccgnHJHb.s 			page 12


 629 05b8 FFF7FEFF 		bl	lv_obj_add_style
 630 05bc 2968     		ldr	r1, [r5]
 631 05be 0422     		movs	r2, #4
 632 05c0 3831     		adds	r1, r1, #56
 633 05c2 2046     		mov	r0, r4
 634 05c4 FFF7FEFF 		bl	lv_obj_add_style
 635 05c8 2968     		ldr	r1, [r5]
 636 05ca 0822     		movs	r2, #8
 637 05cc 4031     		adds	r1, r1, #64
 638 05ce 2046     		mov	r0, r4
 639 05d0 FFF7FEFF 		bl	lv_obj_add_style
 640 05d4 28E5     		b	.L1
 641              	.L19:
 642 05d6 2649     		ldr	r1, .L44+52
 643 05d8 2046     		mov	r0, r4
 644 05da FFF7FEFF 		bl	lv_obj_check_type
 645 05de 0028     		cmp	r0, #0
 646 05e0 4CD0     		beq	.L20
 647 05e2 174D     		ldr	r5, .L44+4
 648 05e4 2968     		ldr	r1, [r5]
 649 05e6 0022     		movs	r2, #0
 650 05e8 0831     		adds	r1, r1, #8
 651 05ea 2046     		mov	r0, r4
 652 05ec FFF7FEFF 		bl	lv_obj_add_style
 653 05f0 2968     		ldr	r1, [r5]
 654 05f2 0022     		movs	r2, #0
 655 05f4 7031     		adds	r1, r1, #112
 656 05f6 2046     		mov	r0, r4
 657 05f8 FFF7FEFF 		bl	lv_obj_add_style
 658 05fc 2968     		ldr	r1, [r5]
 659 05fe 4FF48032 		mov	r2, #65536
 660 0602 1031     		adds	r1, r1, #16
 661 0604 2046     		mov	r0, r4
 662 0606 FFF7FEFF 		bl	lv_obj_add_style
 663 060a 2968     		ldr	r1, [r5]
 664 060c 194A     		ldr	r2, .L44+56
 665 060e 2831     		adds	r1, r1, #40
 666 0610 2046     		mov	r0, r4
 667 0612 FFF7FEFF 		bl	lv_obj_add_style
 668 0616 2968     		ldr	r1, [r5]
 669 0618 174A     		ldr	r2, .L44+60
 670 061a 2031     		adds	r1, r1, #32
 671 061c 2046     		mov	r0, r4
 672 061e FFF7FEFF 		bl	lv_obj_add_style
 673 0622 2968     		ldr	r1, [r5]
 674 0624 0422     		movs	r2, #4
 675 0626 3831     		adds	r1, r1, #56
 676 0628 2046     		mov	r0, r4
 677 062a FFF7FEFF 		bl	lv_obj_add_style
 678 062e 2968     		ldr	r1, [r5]
 679 0630 0822     		movs	r2, #8
 680 0632 4031     		adds	r1, r1, #64
 681 0634 2046     		mov	r0, r4
 682 0636 FFF7FEFF 		bl	lv_obj_add_style
 683 063a F5E4     		b	.L1
 684              	.L45:
 685              		.align	2
ARM GAS  /var/folders/lp/x54gwt890xv47sdkqj1k04q40000gn/T//ccgnHJHb.s 			page 13


 686              	.L44:
 687 063c 00000000 		.word	lv_slider_class
 688 0640 00000000 		.word	styles
 689 0644 00000000 		.word	lv_table_class
 690 0648 20000500 		.word	327712
 691 064c 04000500 		.word	327684
 692 0650 00000000 		.word	lv_checkbox_class
 693 0654 80000200 		.word	131200
 694 0658 01000200 		.word	131073
 695 065c 20000200 		.word	131104
 696 0660 00000000 		.word	lv_switch_class
 697 0664 00000000 		.word	lv_chart_class
 698 0668 00000000 		.word	lv_roller_class
 699 066c 00000000 		.word	lv_dropdown_class
 700 0670 00000000 		.word	lv_dropdownlist_class
 701 0674 01000400 		.word	262145
 702 0678 20000400 		.word	262176
 703              	.L20:
 704 067c B449     		ldr	r1, .L46
 705 067e 2046     		mov	r0, r4
 706 0680 FFF7FEFF 		bl	lv_obj_check_type
 707 0684 78B3     		cbz	r0, .L21
 708 0686 B34D     		ldr	r5, .L46+4
 709 0688 2968     		ldr	r1, [r5]
 710 068a 0022     		movs	r2, #0
 711 068c 0831     		adds	r1, r1, #8
 712 068e 2046     		mov	r0, r4
 713 0690 FFF7FEFF 		bl	lv_obj_add_style
 714 0694 2968     		ldr	r1, [r5]
 715 0696 4FF40032 		mov	r2, #131072
 716 069a 2831     		adds	r1, r1, #40
 717 069c 2046     		mov	r0, r4
 718 069e FFF7FEFF 		bl	lv_obj_add_style
 719 06a2 2968     		ldr	r1, [r5]
 720 06a4 4FF40032 		mov	r2, #131072
 721 06a8 5031     		adds	r1, r1, #80
 722 06aa 2046     		mov	r0, r4
 723 06ac FFF7FEFF 		bl	lv_obj_add_style
 724 06b0 2968     		ldr	r1, [r5]
 725 06b2 4FF44032 		mov	r2, #196608
 726 06b6 0831     		adds	r1, r1, #8
 727 06b8 2046     		mov	r0, r4
 728 06ba FFF7FEFF 		bl	lv_obj_add_style
 729 06be 2968     		ldr	r1, [r5]
 730 06c0 4FF44032 		mov	r2, #196608
 731 06c4 6031     		adds	r1, r1, #96
 732 06c6 2046     		mov	r0, r4
 733 06c8 FFF7FEFF 		bl	lv_obj_add_style
 734 06cc 2968     		ldr	r1, [r5]
 735 06ce 0422     		movs	r2, #4
 736 06d0 3831     		adds	r1, r1, #56
 737 06d2 2046     		mov	r0, r4
 738 06d4 FFF7FEFF 		bl	lv_obj_add_style
 739 06d8 2968     		ldr	r1, [r5]
 740 06da 0822     		movs	r2, #8
 741 06dc 4031     		adds	r1, r1, #64
 742 06de 2046     		mov	r0, r4
ARM GAS  /var/folders/lp/x54gwt890xv47sdkqj1k04q40000gn/T//ccgnHJHb.s 			page 14


 743 06e0 FFF7FEFF 		bl	lv_obj_add_style
 744 06e4 A0E4     		b	.L1
 745              	.L21:
 746 06e6 9C49     		ldr	r1, .L46+8
 747 06e8 2046     		mov	r0, r4
 748 06ea FFF7FEFF 		bl	lv_obj_check_type
 749 06ee 38B1     		cbz	r0, .L22
 750 06f0 984B     		ldr	r3, .L46+4
 751 06f2 1968     		ldr	r1, [r3]
 752 06f4 0022     		movs	r2, #0
 753 06f6 0831     		adds	r1, r1, #8
 754 06f8 2046     		mov	r0, r4
 755 06fa FFF7FEFF 		bl	lv_obj_add_style
 756 06fe 93E4     		b	.L1
 757              	.L22:
 758 0700 9649     		ldr	r1, .L46+12
 759 0702 2046     		mov	r0, r4
 760 0704 FFF7FEFF 		bl	lv_obj_check_type
 761 0708 00B3     		cbz	r0, .L23
 762 070a 924D     		ldr	r5, .L46+4
 763 070c 2968     		ldr	r1, [r5]
 764 070e 0022     		movs	r2, #0
 765 0710 0831     		adds	r1, r1, #8
 766 0712 2046     		mov	r0, r4
 767 0714 FFF7FEFF 		bl	lv_obj_add_style
 768 0718 2968     		ldr	r1, [r5]
 769 071a 4FF48032 		mov	r2, #65536
 770 071e 1031     		adds	r1, r1, #16
 771 0720 2046     		mov	r0, r4
 772 0722 FFF7FEFF 		bl	lv_obj_add_style
 773 0726 2968     		ldr	r1, [r5]
 774 0728 8D4A     		ldr	r2, .L46+16
 775 072a 8031     		adds	r1, r1, #128
 776 072c 2046     		mov	r0, r4
 777 072e FFF7FEFF 		bl	lv_obj_add_style
 778 0732 2968     		ldr	r1, [r5]
 779 0734 0222     		movs	r2, #2
 780 0736 3831     		adds	r1, r1, #56
 781 0738 2046     		mov	r0, r4
 782 073a FFF7FEFF 		bl	lv_obj_add_style
 783 073e 2968     		ldr	r1, [r5]
 784 0740 0822     		movs	r2, #8
 785 0742 4031     		adds	r1, r1, #64
 786 0744 2046     		mov	r0, r4
 787 0746 FFF7FEFF 		bl	lv_obj_add_style
 788 074a 6DE4     		b	.L1
 789              	.L23:
 790 074c 8549     		ldr	r1, .L46+20
 791 074e 2046     		mov	r0, r4
 792 0750 FFF7FEFF 		bl	lv_obj_check_type
 793 0754 58B3     		cbz	r0, .L24
 794 0756 7F4D     		ldr	r5, .L46+4
 795 0758 2968     		ldr	r1, [r5]
 796 075a 0022     		movs	r2, #0
 797 075c 0831     		adds	r1, r1, #8
 798 075e 2046     		mov	r0, r4
 799 0760 FFF7FEFF 		bl	lv_obj_add_style
ARM GAS  /var/folders/lp/x54gwt890xv47sdkqj1k04q40000gn/T//ccgnHJHb.s 			page 15


 800 0764 2968     		ldr	r1, [r5]
 801 0766 0022     		movs	r2, #0
 802 0768 5831     		adds	r1, r1, #88
 803 076a 2046     		mov	r0, r4
 804 076c FFF7FEFF 		bl	lv_obj_add_style
 805 0770 2968     		ldr	r1, [r5]
 806 0772 7D4A     		ldr	r2, .L46+24
 807 0774 2031     		adds	r1, r1, #32
 808 0776 2046     		mov	r0, r4
 809 0778 FFF7FEFF 		bl	lv_obj_add_style
 810 077c 2968     		ldr	r1, [r5]
 811 077e 7B4A     		ldr	r2, .L46+28
 812 0780 3031     		adds	r1, r1, #48
 813 0782 2046     		mov	r0, r4
 814 0784 FFF7FEFF 		bl	lv_obj_add_style
 815 0788 2968     		ldr	r1, [r5]
 816 078a 0422     		movs	r2, #4
 817 078c 3831     		adds	r1, r1, #56
 818 078e 2046     		mov	r0, r4
 819 0790 FFF7FEFF 		bl	lv_obj_add_style
 820 0794 2968     		ldr	r1, [r5]
 821 0796 0822     		movs	r2, #8
 822 0798 4031     		adds	r1, r1, #64
 823 079a 2046     		mov	r0, r4
 824 079c FFF7FEFF 		bl	lv_obj_add_style
 825 07a0 2968     		ldr	r1, [r5]
 826 07a2 734A     		ldr	r2, .L46+32
 827 07a4 6831     		adds	r1, r1, #104
 828 07a6 2046     		mov	r0, r4
 829 07a8 FFF7FEFF 		bl	lv_obj_add_style
 830 07ac 3CE4     		b	.L1
 831              	.L24:
 832 07ae 7149     		ldr	r1, .L46+36
 833 07b0 2046     		mov	r0, r4
 834 07b2 FFF7FEFF 		bl	lv_obj_check_type
 835 07b6 60B3     		cbz	r0, .L25
 836 07b8 664D     		ldr	r5, .L46+4
 837 07ba 2968     		ldr	r1, [r5]
 838 07bc 0022     		movs	r2, #0
 839 07be 0831     		adds	r1, r1, #8
 840 07c0 2046     		mov	r0, r4
 841 07c2 FFF7FEFF 		bl	lv_obj_add_style
 842 07c6 2968     		ldr	r1, [r5]
 843 07c8 4FF4A022 		mov	r2, #327680
 844 07cc 0831     		adds	r1, r1, #8
 845 07ce 2046     		mov	r0, r4
 846 07d0 FFF7FEFF 		bl	lv_obj_add_style
 847 07d4 2968     		ldr	r1, [r5]
 848 07d6 644A     		ldr	r2, .L46+24
 849 07d8 2031     		adds	r1, r1, #32
 850 07da 2046     		mov	r0, r4
 851 07dc FFF7FEFF 		bl	lv_obj_add_style
 852 07e0 2968     		ldr	r1, [r5]
 853 07e2 654A     		ldr	r2, .L46+40
 854 07e4 2831     		adds	r1, r1, #40
 855 07e6 2046     		mov	r0, r4
 856 07e8 FFF7FEFF 		bl	lv_obj_add_style
ARM GAS  /var/folders/lp/x54gwt890xv47sdkqj1k04q40000gn/T//ccgnHJHb.s 			page 16


 857 07ec 2968     		ldr	r1, [r5]
 858 07ee 0422     		movs	r2, #4
 859 07f0 3831     		adds	r1, r1, #56
 860 07f2 2046     		mov	r0, r4
 861 07f4 FFF7FEFF 		bl	lv_obj_add_style
 862 07f8 2968     		ldr	r1, [r5]
 863 07fa 0822     		movs	r2, #8
 864 07fc 4031     		adds	r1, r1, #64
 865 07fe 2046     		mov	r0, r4
 866 0800 FFF7FEFF 		bl	lv_obj_add_style
 867 0804 2968     		ldr	r1, [r5]
 868 0806 5D4A     		ldr	r2, .L46+44
 869 0808 6831     		adds	r1, r1, #104
 870 080a 2046     		mov	r0, r4
 871 080c FFF7FEFF 		bl	lv_obj_add_style
 872 0810 0AE4     		b	.L1
 873              	.L25:
 874 0812 5B49     		ldr	r1, .L46+48
 875 0814 2046     		mov	r0, r4
 876 0816 FFF7FEFF 		bl	lv_obj_check_type
 877 081a 30BB     		cbnz	r0, .L40
 878 081c 5949     		ldr	r1, .L46+52
 879 081e 2046     		mov	r0, r4
 880 0820 FFF7FEFF 		bl	lv_obj_check_type
 881 0824 0028     		cmp	r0, #0
 882 0826 7FF4FFAB 		bne	.L1
 883 082a 5749     		ldr	r1, .L46+56
 884 082c 2046     		mov	r0, r4
 885 082e FFF7FEFF 		bl	lv_obj_check_type
 886 0832 50B3     		cbz	r0, .L27
 887 0834 474D     		ldr	r5, .L46+4
 888 0836 2968     		ldr	r1, [r5]
 889 0838 0022     		movs	r2, #0
 890 083a 0831     		adds	r1, r1, #8
 891 083c 2046     		mov	r0, r4
 892 083e FFF7FEFF 		bl	lv_obj_add_style
 893 0842 2968     		ldr	r1, [r5]
 894 0844 2022     		movs	r2, #32
 895 0846 1144     		add	r1, r1, r2
 896 0848 2046     		mov	r0, r4
 897 084a FFF7FEFF 		bl	lv_obj_add_style
 898 084e 2968     		ldr	r1, [r5]
 899 0850 0422     		movs	r2, #4
 900 0852 3831     		adds	r1, r1, #56
 901 0854 2046     		mov	r0, r4
 902 0856 FFF7FEFF 		bl	lv_obj_add_style
 903 085a 2968     		ldr	r1, [r5]
 904 085c 0822     		movs	r2, #8
 905 085e 6831     		adds	r1, r1, #104
 906 0860 2046     		mov	r0, r4
 907 0862 FFF7FEFF 		bl	lv_obj_add_style
 908 0866 FFF7DFBB 		b	.L1
 909              	.L40:
 910 086a 3A4D     		ldr	r5, .L46+4
 911 086c 2968     		ldr	r1, [r5]
 912 086e 0022     		movs	r2, #0
 913 0870 0831     		adds	r1, r1, #8
ARM GAS  /var/folders/lp/x54gwt890xv47sdkqj1k04q40000gn/T//ccgnHJHb.s 			page 17


 914 0872 2046     		mov	r0, r4
 915 0874 FFF7FEFF 		bl	lv_obj_add_style
 916 0878 2968     		ldr	r1, [r5]
 917 087a 4FF48032 		mov	r2, #65536
 918 087e 1031     		adds	r1, r1, #16
 919 0880 2046     		mov	r0, r4
 920 0882 FFF7FEFF 		bl	lv_obj_add_style
 921 0886 FFF7CFBB 		b	.L1
 922              	.L27:
 923 088a 4049     		ldr	r1, .L46+60
 924 088c 2046     		mov	r0, r4
 925 088e FFF7FEFF 		bl	lv_obj_check_type
 926 0892 00BB     		cbnz	r0, .L41
 927 0894 3E49     		ldr	r1, .L46+64
 928 0896 2046     		mov	r0, r4
 929 0898 FFF7FEFF 		bl	lv_obj_check_type
 930 089c 20B3     		cbz	r0, .L29
 931 089e 2D4D     		ldr	r5, .L46+4
 932 08a0 2968     		ldr	r1, [r5]
 933 08a2 0022     		movs	r2, #0
 934 08a4 0831     		adds	r1, r1, #8
 935 08a6 2046     		mov	r0, r4
 936 08a8 FFF7FEFF 		bl	lv_obj_add_style
 937 08ac 2968     		ldr	r1, [r5]
 938 08ae 4FF4E022 		mov	r2, #458752
 939 08b2 2831     		adds	r1, r1, #40
 940 08b4 2046     		mov	r0, r4
 941 08b6 FFF7FEFF 		bl	lv_obj_add_style
 942 08ba 2968     		ldr	r1, [r5]
 943 08bc 0422     		movs	r2, #4
 944 08be 3831     		adds	r1, r1, #56
 945 08c0 2046     		mov	r0, r4
 946 08c2 FFF7FEFF 		bl	lv_obj_add_style
 947 08c6 2968     		ldr	r1, [r5]
 948 08c8 0822     		movs	r2, #8
 949 08ca 4031     		adds	r1, r1, #64
 950 08cc 2046     		mov	r0, r4
 951 08ce FFF7FEFF 		bl	lv_obj_add_style
 952 08d2 FFF7A9BB 		b	.L1
 953              	.L41:
 954 08d6 1F4B     		ldr	r3, .L46+4
 955 08d8 1968     		ldr	r1, [r3]
 956 08da 0022     		movs	r2, #0
 957 08dc 0831     		adds	r1, r1, #8
 958 08de 2046     		mov	r0, r4
 959 08e0 FFF7FEFF 		bl	lv_obj_add_style
 960 08e4 FFF7A0BB 		b	.L1
 961              	.L29:
 962 08e8 2A49     		ldr	r1, .L46+68
 963 08ea 2046     		mov	r0, r4
 964 08ec FFF7FEFF 		bl	lv_obj_check_type
 965 08f0 70B1     		cbz	r0, .L30
 966 08f2 184D     		ldr	r5, .L46+4
 967 08f4 0022     		movs	r2, #0
 968 08f6 2968     		ldr	r1, [r5]
 969 08f8 2046     		mov	r0, r4
 970 08fa FFF7FEFF 		bl	lv_obj_add_style
ARM GAS  /var/folders/lp/x54gwt890xv47sdkqj1k04q40000gn/T//ccgnHJHb.s 			page 18


 971 08fe 2968     		ldr	r1, [r5]
 972 0900 4FF48032 		mov	r2, #65536
 973 0904 1031     		adds	r1, r1, #16
 974 0906 2046     		mov	r0, r4
 975 0908 FFF7FEFF 		bl	lv_obj_add_style
 976 090c FFF78CBB 		b	.L1
 977              	.L30:
 978 0910 2149     		ldr	r1, .L46+72
 979 0912 2046     		mov	r0, r4
 980 0914 FFF7FEFF 		bl	lv_obj_check_type
 981 0918 48B1     		cbz	r0, .L31
 982 091a 0E4B     		ldr	r3, .L46+4
 983 091c 1968     		ldr	r1, [r3]
 984 091e 4FF48032 		mov	r2, #65536
 985 0922 1031     		adds	r1, r1, #16
 986 0924 2046     		mov	r0, r4
 987 0926 FFF7FEFF 		bl	lv_obj_add_style
 988 092a FFF77DBB 		b	.L1
 989              	.L31:
 990 092e 1B49     		ldr	r1, .L46+76
 991 0930 2046     		mov	r0, r4
 992 0932 FFF7FEFF 		bl	lv_obj_check_type
 993 0936 0028     		cmp	r0, #0
 994 0938 3FF476AB 		beq	.L1
 995 093c 054B     		ldr	r3, .L46+4
 996 093e 1968     		ldr	r1, [r3]
 997 0940 0022     		movs	r2, #0
 998 0942 0831     		adds	r1, r1, #8
 999 0944 2046     		mov	r0, r4
 1000 0946 FFF7FEFF 		bl	lv_obj_add_style
 1001 094a FFF76DBB 		b	.L1
 1002              	.L47:
 1003 094e 00BF     		.align	2
 1004              	.L46:
 1005 0950 00000000 		.word	lv_arc_class
 1006 0954 00000000 		.word	styles
 1007 0958 00000000 		.word	lv_meter_class
 1008 095c 00000000 		.word	lv_textarea_class
 1009 0960 02000700 		.word	458754
 1010 0964 00000000 		.word	lv_calendar_class
 1011 0968 20000500 		.word	327712
 1012 096c 80000500 		.word	327808
 1013 0970 04000500 		.word	327684
 1014 0974 00000000 		.word	lv_keyboard_class
 1015 0978 01000500 		.word	327681
 1016 097c 08000500 		.word	327688
 1017 0980 00000000 		.word	lv_list_class
 1018 0984 00000000 		.word	lv_list_text_class
 1019 0988 00000000 		.word	lv_list_btn_class
 1020 098c 00000000 		.word	lv_msgbox_class
 1021 0990 00000000 		.word	lv_spinbox_class
 1022 0994 00000000 		.word	lv_tileview_class
 1023 0998 00000000 		.word	lv_tileview_tile_class
 1024 099c 00000000 		.word	lv_led_class
 1026              		.section	.text.lv_style_set_pad_gap,"ax",%progbits
 1027              		.align	1
 1028              		.syntax unified
ARM GAS  /var/folders/lp/x54gwt890xv47sdkqj1k04q40000gn/T//ccgnHJHb.s 			page 19


 1029              		.thumb
 1030              		.thumb_func
 1032              	lv_style_set_pad_gap:
 1033              		@ args = 0, pretend = 0, frame = 0
 1034              		@ frame_needed = 0, uses_anonymous_args = 0
 1035 0000 38B5     		push	{r3, r4, r5, lr}
 1036 0002 0446     		mov	r4, r0
 1037 0004 0D46     		mov	r5, r1
 1038 0006 FFF7FEFF 		bl	lv_style_set_pad_row
 1039 000a 2946     		mov	r1, r5
 1040 000c 2046     		mov	r0, r4
 1041 000e FFF7FEFF 		bl	lv_style_set_pad_column
 1042 0012 38BD     		pop	{r3, r4, r5, pc}
 1044              		.section	.text.lv_style_set_pad_all,"ax",%progbits
 1045              		.align	1
 1046              		.syntax unified
 1047              		.thumb
 1048              		.thumb_func
 1050              	lv_style_set_pad_all:
 1051              		@ args = 0, pretend = 0, frame = 0
 1052              		@ frame_needed = 0, uses_anonymous_args = 0
 1053 0000 38B5     		push	{r3, r4, r5, lr}
 1054 0002 0446     		mov	r4, r0
 1055 0004 0D46     		mov	r5, r1
 1056 0006 FFF7FEFF 		bl	lv_style_set_pad_left
 1057 000a 2946     		mov	r1, r5
 1058 000c 2046     		mov	r0, r4
 1059 000e FFF7FEFF 		bl	lv_style_set_pad_right
 1060 0012 2946     		mov	r1, r5
 1061 0014 2046     		mov	r0, r4
 1062 0016 FFF7FEFF 		bl	lv_style_set_pad_top
 1063 001a 2946     		mov	r1, r5
 1064 001c 2046     		mov	r0, r4
 1065 001e FFF7FEFF 		bl	lv_style_set_pad_bottom
 1066 0022 38BD     		pop	{r3, r4, r5, pc}
 1068              		.section	.text.style_init_reset,"ax",%progbits
 1069              		.align	1
 1070              		.syntax unified
 1071              		.thumb
 1072              		.thumb_func
 1074              	style_init_reset:
 1075              		@ args = 0, pretend = 0, frame = 0
 1076              		@ frame_needed = 0, uses_anonymous_args = 0
 1077 0000 08B5     		push	{r3, lr}
 1078 0002 044B     		ldr	r3, .L56
 1079 0004 1B78     		ldrb	r3, [r3]	@ zero_extendqisi2
 1080 0006 13B1     		cbz	r3, .L53
 1081 0008 FFF7FEFF 		bl	lv_style_reset
 1082              	.L52:
 1083 000c 08BD     		pop	{r3, pc}
 1084              	.L53:
 1085 000e FFF7FEFF 		bl	lv_style_init
 1086 0012 FBE7     		b	.L52
 1087              	.L57:
 1088              		.align	2
 1089              	.L56:
 1090 0014 00000000 		.word	inited
ARM GAS  /var/folders/lp/x54gwt890xv47sdkqj1k04q40000gn/T//ccgnHJHb.s 			page 20


 1092              		.section	.text.style_init,"ax",%progbits
 1093              		.align	1
 1094              		.syntax unified
 1095              		.thumb
 1096              		.thumb_func
 1098              	style_init:
 1099              		@ args = 0, pretend = 0, frame = 0
 1100              		@ frame_needed = 0, uses_anonymous_args = 0
 1101 0000 70B5     		push	{r4, r5, r6, lr}
 1102 0002 0546     		mov	r5, r0
 1103 0004 0E46     		mov	r6, r1
 1104 0006 CF4C     		ldr	r4, .L92
 1105 0008 2068     		ldr	r0, [r4]
 1106 000a 1030     		adds	r0, r0, #16
 1107 000c FFF7FEFF 		bl	style_init_reset
 1108 0010 2068     		ldr	r0, [r4]
 1109 0012 FF21     		movs	r1, #255
 1110 0014 1030     		adds	r0, r0, #16
 1111 0016 FFF7FEFF 		bl	lv_style_set_bg_opa
 1112 001a 2068     		ldr	r0, [r4]
 1113 001c 1030     		adds	r0, r0, #16
 1114 001e 002D     		cmp	r5, #0
 1115 0020 00F0AB81 		beq	.L59
 1116 0024 4FF0FF31 		mov	r1, #-1	@ movhi
 1117              	.L60:
 1118 0028 FFF7FEFF 		bl	lv_style_set_bg_color
 1119 002c C54C     		ldr	r4, .L92
 1120 002e 2068     		ldr	r0, [r4]
 1121 0030 0421     		movs	r1, #4
 1122 0032 1030     		adds	r0, r0, #16
 1123 0034 FFF7FEFF 		bl	lv_style_set_width
 1124 0038 2068     		ldr	r0, [r4]
 1125 003a FFF7FEFF 		bl	style_init_reset
 1126 003e FF21     		movs	r1, #255
 1127 0040 2068     		ldr	r0, [r4]
 1128 0042 FFF7FEFF 		bl	lv_style_set_bg_opa
 1129 0046 2068     		ldr	r0, [r4]
 1130 0048 002D     		cmp	r5, #0
 1131 004a 00F0A281 		beq	.L61
 1132 004e 4FF00003 		mov	r3, #0	@ movhi
 1133 0052 23F00703 		bic	r3, r3, #7
 1134 0056 23F0F803 		bic	r3, r3, #248
 1135 005a 23F4F853 		bic	r3, r3, #7936
 1136 005e 23F46043 		bic	r3, r3, #57344
 1137 0062 1946     		mov	r1, r3	@ movhi
 1138              	.L62:
 1139 0064 FFF7FEFF 		bl	lv_style_set_bg_color
 1140 0068 B64B     		ldr	r3, .L92
 1141 006a 1868     		ldr	r0, [r3]
 1142 006c 002D     		cmp	r5, #0
 1143 006e 00F09381 		beq	.L63
 1144 0072 4FF0FF31 		mov	r1, #-1	@ movhi
 1145              	.L64:
 1146 0076 FFF7FEFF 		bl	lv_style_set_text_color
 1147 007a B24C     		ldr	r4, .L92
 1148 007c 0421     		movs	r1, #4
 1149 007e 2068     		ldr	r0, [r4]
ARM GAS  /var/folders/lp/x54gwt890xv47sdkqj1k04q40000gn/T//ccgnHJHb.s 			page 21


 1150 0080 FFF7FEFF 		bl	lv_style_set_pad_row
 1151 0084 0421     		movs	r1, #4
 1152 0086 2068     		ldr	r0, [r4]
 1153 0088 FFF7FEFF 		bl	lv_style_set_pad_column
 1154 008c 3146     		mov	r1, r6
 1155 008e 2068     		ldr	r0, [r4]
 1156 0090 FFF7FEFF 		bl	lv_style_set_text_font
 1157 0094 2068     		ldr	r0, [r4]
 1158 0096 0830     		adds	r0, r0, #8
 1159 0098 FFF7FEFF 		bl	style_init_reset
 1160 009c 2068     		ldr	r0, [r4]
 1161 009e FF21     		movs	r1, #255
 1162 00a0 0830     		adds	r0, r0, #8
 1163 00a2 FFF7FEFF 		bl	lv_style_set_bg_opa
 1164 00a6 2068     		ldr	r0, [r4]
 1165 00a8 0830     		adds	r0, r0, #8
 1166 00aa 002D     		cmp	r5, #0
 1167 00ac 00F08081 		beq	.L65
 1168 00b0 4FF00001 		mov	r1, #0	@ movhi
 1169 00b4 21F00701 		bic	r1, r1, #7
 1170 00b8 21F0F801 		bic	r1, r1, #248
 1171 00bc 21F4F851 		bic	r1, r1, #7936
 1172 00c0 21F46041 		bic	r1, r1, #57344
 1173              	.L66:
 1174 00c4 FFF7FEFF 		bl	lv_style_set_bg_color
 1175 00c8 9E4B     		ldr	r3, .L92
 1176 00ca 1868     		ldr	r0, [r3]
 1177 00cc 0830     		adds	r0, r0, #8
 1178 00ce 002D     		cmp	r5, #0
 1179 00d0 00F07181 		beq	.L67
 1180 00d4 4FF0FF31 		mov	r1, #-1	@ movhi
 1181              	.L68:
 1182 00d8 FFF7FEFF 		bl	lv_style_set_border_color
 1183 00dc 994C     		ldr	r4, .L92
 1184 00de 2068     		ldr	r0, [r4]
 1185 00e0 0221     		movs	r1, #2
 1186 00e2 0830     		adds	r0, r0, #8
 1187 00e4 FFF7FEFF 		bl	lv_style_set_radius
 1188 00e8 2068     		ldr	r0, [r4]
 1189 00ea 0121     		movs	r1, #1
 1190 00ec 0830     		adds	r0, r0, #8
 1191 00ee FFF7FEFF 		bl	lv_style_set_border_width
 1192 00f2 2068     		ldr	r0, [r4]
 1193 00f4 0421     		movs	r1, #4
 1194 00f6 0830     		adds	r0, r0, #8
 1195 00f8 FFF7FEFF 		bl	lv_style_set_pad_all
 1196 00fc 2068     		ldr	r0, [r4]
 1197 00fe 0421     		movs	r1, #4
 1198 0100 0830     		adds	r0, r0, #8
 1199 0102 FFF7FEFF 		bl	lv_style_set_pad_gap
 1200 0106 2068     		ldr	r0, [r4]
 1201 0108 0830     		adds	r0, r0, #8
 1202 010a 002D     		cmp	r5, #0
 1203 010c 00F05E81 		beq	.L69
 1204 0110 4FF0FF31 		mov	r1, #-1	@ movhi
 1205              	.L70:
 1206 0114 FFF7FEFF 		bl	lv_style_set_text_color
ARM GAS  /var/folders/lp/x54gwt890xv47sdkqj1k04q40000gn/T//ccgnHJHb.s 			page 22


 1207 0118 8A4C     		ldr	r4, .L92
 1208 011a 2068     		ldr	r0, [r4]
 1209 011c 0221     		movs	r1, #2
 1210 011e 0830     		adds	r0, r0, #8
 1211 0120 FFF7FEFF 		bl	lv_style_set_line_width
 1212 0124 2068     		ldr	r0, [r4]
 1213 0126 0830     		adds	r0, r0, #8
 1214 0128 002D     		cmp	r5, #0
 1215 012a 00F05A81 		beq	.L71
 1216 012e 4FF0FF31 		mov	r1, #-1	@ movhi
 1217              	.L72:
 1218 0132 FFF7FEFF 		bl	lv_style_set_line_color
 1219 0136 834C     		ldr	r4, .L92
 1220 0138 2068     		ldr	r0, [r4]
 1221 013a 0221     		movs	r1, #2
 1222 013c 0830     		adds	r0, r0, #8
 1223 013e FFF7FEFF 		bl	lv_style_set_arc_width
 1224 0142 2068     		ldr	r0, [r4]
 1225 0144 0830     		adds	r0, r0, #8
 1226 0146 002D     		cmp	r5, #0
 1227 0148 00F05681 		beq	.L73
 1228 014c 4FF0FF31 		mov	r1, #-1	@ movhi
 1229              	.L74:
 1230 0150 FFF7FEFF 		bl	lv_style_set_arc_color
 1231 0154 7B4B     		ldr	r3, .L92
 1232 0156 1868     		ldr	r0, [r3]
 1233 0158 0830     		adds	r0, r0, #8
 1234 015a 002D     		cmp	r5, #0
 1235 015c 00F05781 		beq	.L75
 1236 0160 4FF0FF31 		mov	r1, #-1	@ movhi
 1237              	.L76:
 1238 0164 FFF7FEFF 		bl	lv_style_set_outline_color
 1239 0168 764C     		ldr	r4, .L92
 1240 016a 2068     		ldr	r0, [r4]
 1241 016c 4FF49671 		mov	r1, #300
 1242 0170 0830     		adds	r0, r0, #8
 1243 0172 FFF7FEFF 		bl	lv_style_set_anim_time
 1244 0176 2068     		ldr	r0, [r4]
 1245 0178 2030     		adds	r0, r0, #32
 1246 017a FFF7FEFF 		bl	style_init_reset
 1247 017e 2068     		ldr	r0, [r4]
 1248 0180 0321     		movs	r1, #3
 1249 0182 2030     		adds	r0, r0, #32
 1250 0184 FFF7FEFF 		bl	lv_style_set_border_width
 1251 0188 2068     		ldr	r0, [r4]
 1252 018a 2830     		adds	r0, r0, #40
 1253 018c FFF7FEFF 		bl	style_init_reset
 1254 0190 2068     		ldr	r0, [r4]
 1255 0192 FF21     		movs	r1, #255
 1256 0194 2830     		adds	r0, r0, #40
 1257 0196 FFF7FEFF 		bl	lv_style_set_bg_opa
 1258 019a 2068     		ldr	r0, [r4]
 1259 019c 2830     		adds	r0, r0, #40
 1260 019e 002D     		cmp	r5, #0
 1261 01a0 00F04081 		beq	.L77
 1262 01a4 4FF0FF31 		mov	r1, #-1	@ movhi
 1263              	.L78:
ARM GAS  /var/folders/lp/x54gwt890xv47sdkqj1k04q40000gn/T//ccgnHJHb.s 			page 23


 1264 01a8 FFF7FEFF 		bl	lv_style_set_bg_color
 1265 01ac 654B     		ldr	r3, .L92
 1266 01ae 1868     		ldr	r0, [r3]
 1267 01b0 2830     		adds	r0, r0, #40
 1268 01b2 002D     		cmp	r5, #0
 1269 01b4 00F04181 		beq	.L79
 1270 01b8 4FF00001 		mov	r1, #0	@ movhi
 1271 01bc 21F00701 		bic	r1, r1, #7
 1272 01c0 21F0F801 		bic	r1, r1, #248
 1273 01c4 21F4F851 		bic	r1, r1, #7936
 1274 01c8 21F46041 		bic	r1, r1, #57344
 1275              	.L80:
 1276 01cc FFF7FEFF 		bl	lv_style_set_border_color
 1277 01d0 5C4B     		ldr	r3, .L92
 1278 01d2 1868     		ldr	r0, [r3]
 1279 01d4 2830     		adds	r0, r0, #40
 1280 01d6 002D     		cmp	r5, #0
 1281 01d8 00F03281 		beq	.L81
 1282 01dc 4FF00001 		mov	r1, #0	@ movhi
 1283 01e0 21F00701 		bic	r1, r1, #7
 1284 01e4 21F0F801 		bic	r1, r1, #248
 1285 01e8 21F4F851 		bic	r1, r1, #7936
 1286 01ec 21F46041 		bic	r1, r1, #57344
 1287              	.L82:
 1288 01f0 FFF7FEFF 		bl	lv_style_set_line_color
 1289 01f4 534B     		ldr	r3, .L92
 1290 01f6 1868     		ldr	r0, [r3]
 1291 01f8 2830     		adds	r0, r0, #40
 1292 01fa 002D     		cmp	r5, #0
 1293 01fc 00F02381 		beq	.L83
 1294 0200 4FF00001 		mov	r1, #0	@ movhi
 1295 0204 21F00701 		bic	r1, r1, #7
 1296 0208 21F0F801 		bic	r1, r1, #248
 1297 020c 21F4F851 		bic	r1, r1, #7936
 1298 0210 21F46041 		bic	r1, r1, #57344
 1299              	.L84:
 1300 0214 FFF7FEFF 		bl	lv_style_set_arc_color
 1301 0218 4A4B     		ldr	r3, .L92
 1302 021a 1868     		ldr	r0, [r3]
 1303 021c 2830     		adds	r0, r0, #40
 1304 021e 002D     		cmp	r5, #0
 1305 0220 00F01481 		beq	.L85
 1306 0224 4FF00001 		mov	r1, #0	@ movhi
 1307 0228 21F00701 		bic	r1, r1, #7
 1308 022c 21F0F801 		bic	r1, r1, #248
 1309 0230 21F4F851 		bic	r1, r1, #7936
 1310 0234 21F46041 		bic	r1, r1, #57344
 1311              	.L86:
 1312 0238 FFF7FEFF 		bl	lv_style_set_text_color
 1313 023c 414B     		ldr	r3, .L92
 1314 023e 1868     		ldr	r0, [r3]
 1315 0240 2830     		adds	r0, r0, #40
 1316 0242 002D     		cmp	r5, #0
 1317 0244 00F00581 		beq	.L87
 1318 0248 4FF00001 		mov	r1, #0	@ movhi
 1319 024c 21F00701 		bic	r1, r1, #7
 1320 0250 21F0F801 		bic	r1, r1, #248
ARM GAS  /var/folders/lp/x54gwt890xv47sdkqj1k04q40000gn/T//ccgnHJHb.s 			page 24


 1321 0254 21F4F851 		bic	r1, r1, #7936
 1322 0258 21F46041 		bic	r1, r1, #57344
 1323              	.L88:
 1324 025c FFF7FEFF 		bl	lv_style_set_outline_color
 1325 0260 384C     		ldr	r4, .L92
 1326 0262 2068     		ldr	r0, [r4]
 1327 0264 3030     		adds	r0, r0, #48
 1328 0266 FFF7FEFF 		bl	style_init_reset
 1329 026a 2068     		ldr	r0, [r4]
 1330 026c 0021     		movs	r1, #0
 1331 026e 3030     		adds	r0, r0, #48
 1332 0270 FFF7FEFF 		bl	lv_style_set_border_width
 1333 0274 2068     		ldr	r0, [r4]
 1334 0276 3830     		adds	r0, r0, #56
 1335 0278 FFF7FEFF 		bl	style_init_reset
 1336 027c 2068     		ldr	r0, [r4]
 1337 027e 0121     		movs	r1, #1
 1338 0280 3830     		adds	r0, r0, #56
 1339 0282 FFF7FEFF 		bl	lv_style_set_outline_width
 1340 0286 2068     		ldr	r0, [r4]
 1341 0288 0121     		movs	r1, #1
 1342 028a 3830     		adds	r0, r0, #56
 1343 028c FFF7FEFF 		bl	lv_style_set_outline_pad
 1344 0290 2068     		ldr	r0, [r4]
 1345 0292 4030     		adds	r0, r0, #64
 1346 0294 FFF7FEFF 		bl	style_init_reset
 1347 0298 2068     		ldr	r0, [r4]
 1348 029a 0221     		movs	r1, #2
 1349 029c 4030     		adds	r0, r0, #64
 1350 029e FFF7FEFF 		bl	lv_style_set_outline_width
 1351 02a2 2068     		ldr	r0, [r4]
 1352 02a4 6830     		adds	r0, r0, #104
 1353 02a6 FFF7FEFF 		bl	style_init_reset
 1354 02aa 2068     		ldr	r0, [r4]
 1355 02ac 0221     		movs	r1, #2
 1356 02ae 6830     		adds	r0, r0, #104
 1357 02b0 FFF7FEFF 		bl	lv_style_set_border_width
 1358 02b4 2068     		ldr	r0, [r4]
 1359 02b6 4830     		adds	r0, r0, #72
 1360 02b8 FFF7FEFF 		bl	style_init_reset
 1361 02bc 2068     		ldr	r0, [r4]
 1362 02be 0421     		movs	r1, #4
 1363 02c0 4830     		adds	r0, r0, #72
 1364 02c2 FFF7FEFF 		bl	lv_style_set_pad_gap
 1365 02c6 2068     		ldr	r0, [r4]
 1366 02c8 5030     		adds	r0, r0, #80
 1367 02ca FFF7FEFF 		bl	style_init_reset
 1368 02ce 2068     		ldr	r0, [r4]
 1369 02d0 0021     		movs	r1, #0
 1370 02d2 5030     		adds	r0, r0, #80
 1371 02d4 FFF7FEFF 		bl	lv_style_set_pad_all
 1372 02d8 2068     		ldr	r0, [r4]
 1373 02da 0021     		movs	r1, #0
 1374 02dc 5030     		adds	r0, r0, #80
 1375 02de FFF7FEFF 		bl	lv_style_set_pad_gap
 1376 02e2 2068     		ldr	r0, [r4]
 1377 02e4 5830     		adds	r0, r0, #88
ARM GAS  /var/folders/lp/x54gwt890xv47sdkqj1k04q40000gn/T//ccgnHJHb.s 			page 25


 1378 02e6 FFF7FEFF 		bl	style_init_reset
 1379 02ea 2068     		ldr	r0, [r4]
 1380 02ec 0021     		movs	r1, #0
 1381 02ee 5830     		adds	r0, r0, #88
 1382 02f0 FFF7FEFF 		bl	lv_style_set_radius
 1383 02f4 2068     		ldr	r0, [r4]
 1384 02f6 6030     		adds	r0, r0, #96
 1385 02f8 FFF7FEFF 		bl	style_init_reset
 1386 02fc 2068     		ldr	r0, [r4]
 1387 02fe 47F6FF71 		movw	r1, #32767
 1388 0302 6030     		adds	r0, r0, #96
 1389 0304 FFF7FEFF 		bl	lv_style_set_radius
 1390 0308 2068     		ldr	r0, [r4]
 1391 030a 7030     		adds	r0, r0, #112
 1392 030c FFF7FEFF 		bl	style_init_reset
 1393 0310 2068     		ldr	r0, [r4]
 1394 0312 0621     		movs	r1, #6
 1395 0314 7030     		adds	r0, r0, #112
 1396 0316 FFF7FEFF 		bl	lv_style_set_text_line_space
 1397 031a 2068     		ldr	r0, [r4]
 1398 031c 7830     		adds	r0, r0, #120
 1399 031e FFF7FEFF 		bl	style_init_reset
 1400 0322 2068     		ldr	r0, [r4]
 1401 0324 0121     		movs	r1, #1
 1402 0326 7830     		adds	r0, r0, #120
 1403 0328 FFF7FEFF 		bl	lv_style_set_text_decor
 1404 032c 2068     		ldr	r0, [r4]
 1405 032e 8030     		adds	r0, r0, #128
 1406 0330 FFF7FEFF 		bl	style_init_reset
 1407 0334 2068     		ldr	r0, [r4]
 1408 0336 0421     		movs	r1, #4
 1409 0338 8030     		adds	r0, r0, #128
 1410 033a FFF7FEFF 		bl	lv_style_set_border_side
 1411 033e 2068     		ldr	r0, [r4]
 1412 0340 8030     		adds	r0, r0, #128
 1413 0342 01E0     		b	.L93
 1414              	.L94:
 1415              		.align	2
 1416              	.L92:
 1417 0344 00000000 		.word	styles
 1418              	.L93:
 1419 0348 002D     		cmp	r5, #0
 1420 034a 00F08580 		beq	.L89
 1421 034e 4FF0FF31 		mov	r1, #-1	@ movhi
 1422              	.L90:
 1423 0352 FFF7FEFF 		bl	lv_style_set_border_color
 1424 0356 464C     		ldr	r4, .L95
 1425 0358 2068     		ldr	r0, [r4]
 1426 035a 0221     		movs	r1, #2
 1427 035c 8030     		adds	r0, r0, #128
 1428 035e FFF7FEFF 		bl	lv_style_set_border_width
 1429 0362 2068     		ldr	r0, [r4]
 1430 0364 0021     		movs	r1, #0
 1431 0366 8030     		adds	r0, r0, #128
 1432 0368 FFF7FEFF 		bl	lv_style_set_bg_opa
 1433 036c 2068     		ldr	r0, [r4]
 1434 036e 4FF4FA71 		mov	r1, #500
ARM GAS  /var/folders/lp/x54gwt890xv47sdkqj1k04q40000gn/T//ccgnHJHb.s 			page 26


 1435 0372 8030     		adds	r0, r0, #128
 1436 0374 FFF7FEFF 		bl	lv_style_set_anim_time
 1437 0378 70BD     		pop	{r4, r5, r6, pc}
 1438              	.L59:
 1439 037a 4FF00003 		mov	r3, #0	@ movhi
 1440 037e 23F00703 		bic	r3, r3, #7
 1441 0382 23F0F803 		bic	r3, r3, #248
 1442 0386 23F4F853 		bic	r3, r3, #7936
 1443 038a 23F46043 		bic	r3, r3, #57344
 1444 038e 1946     		mov	r1, r3	@ movhi
 1445 0390 4AE6     		b	.L60
 1446              	.L61:
 1447 0392 4FF0FF31 		mov	r1, #-1	@ movhi
 1448 0396 65E6     		b	.L62
 1449              	.L63:
 1450 0398 4FF00003 		mov	r3, #0	@ movhi
 1451 039c 23F00703 		bic	r3, r3, #7
 1452 03a0 23F0F803 		bic	r3, r3, #248
 1453 03a4 23F4F853 		bic	r3, r3, #7936
 1454 03a8 23F46043 		bic	r3, r3, #57344
 1455 03ac 1946     		mov	r1, r3	@ movhi
 1456 03ae 62E6     		b	.L64
 1457              	.L65:
 1458 03b0 4FF0FF31 		mov	r1, #-1	@ movhi
 1459 03b4 86E6     		b	.L66
 1460              	.L67:
 1461 03b6 4FF00001 		mov	r1, #0	@ movhi
 1462 03ba 21F00701 		bic	r1, r1, #7
 1463 03be 21F0F801 		bic	r1, r1, #248
 1464 03c2 21F4F851 		bic	r1, r1, #7936
 1465 03c6 21F46041 		bic	r1, r1, #57344
 1466 03ca 85E6     		b	.L68
 1467              	.L69:
 1468 03cc 4FF00001 		mov	r1, #0	@ movhi
 1469 03d0 21F00701 		bic	r1, r1, #7
 1470 03d4 21F0F801 		bic	r1, r1, #248
 1471 03d8 21F4F851 		bic	r1, r1, #7936
 1472 03dc 21F46041 		bic	r1, r1, #57344
 1473 03e0 98E6     		b	.L70
 1474              	.L71:
 1475 03e2 4FF00001 		mov	r1, #0	@ movhi
 1476 03e6 21F00701 		bic	r1, r1, #7
 1477 03ea 21F0F801 		bic	r1, r1, #248
 1478 03ee 21F4F851 		bic	r1, r1, #7936
 1479 03f2 21F46041 		bic	r1, r1, #57344
 1480 03f6 9CE6     		b	.L72
 1481              	.L73:
 1482 03f8 4FF00001 		mov	r1, #0	@ movhi
 1483 03fc 21F00701 		bic	r1, r1, #7
 1484 0400 21F0F801 		bic	r1, r1, #248
 1485 0404 21F4F851 		bic	r1, r1, #7936
 1486 0408 21F46041 		bic	r1, r1, #57344
 1487 040c A0E6     		b	.L74
 1488              	.L75:
 1489 040e 4FF00001 		mov	r1, #0	@ movhi
 1490 0412 21F00701 		bic	r1, r1, #7
 1491 0416 21F0F801 		bic	r1, r1, #248
ARM GAS  /var/folders/lp/x54gwt890xv47sdkqj1k04q40000gn/T//ccgnHJHb.s 			page 27


 1492 041a 21F4F851 		bic	r1, r1, #7936
 1493 041e 21F46041 		bic	r1, r1, #57344
 1494 0422 9FE6     		b	.L76
 1495              	.L77:
 1496 0424 4FF00001 		mov	r1, #0	@ movhi
 1497 0428 21F00701 		bic	r1, r1, #7
 1498 042c 21F0F801 		bic	r1, r1, #248
 1499 0430 21F4F851 		bic	r1, r1, #7936
 1500 0434 21F46041 		bic	r1, r1, #57344
 1501 0438 B6E6     		b	.L78
 1502              	.L79:
 1503 043a 4FF0FF31 		mov	r1, #-1	@ movhi
 1504 043e C5E6     		b	.L80
 1505              	.L81:
 1506 0440 4FF0FF31 		mov	r1, #-1	@ movhi
 1507 0444 D4E6     		b	.L82
 1508              	.L83:
 1509 0446 4FF0FF31 		mov	r1, #-1	@ movhi
 1510 044a E3E6     		b	.L84
 1511              	.L85:
 1512 044c 4FF0FF31 		mov	r1, #-1	@ movhi
 1513 0450 F2E6     		b	.L86
 1514              	.L87:
 1515 0452 4FF0FF31 		mov	r1, #-1	@ movhi
 1516 0456 01E7     		b	.L88
 1517              	.L89:
 1518 0458 4FF00001 		mov	r1, #0	@ movhi
 1519 045c 21F00701 		bic	r1, r1, #7
 1520 0460 21F0F801 		bic	r1, r1, #248
 1521 0464 21F4F851 		bic	r1, r1, #7936
 1522 0468 21F46041 		bic	r1, r1, #57344
 1523 046c 71E7     		b	.L90
 1524              	.L96:
 1525 046e 00BF     		.align	2
 1526              	.L95:
 1527 0470 00000000 		.word	styles
 1529              		.section	.text.lv_theme_mono_is_inited,"ax",%progbits
 1530              		.align	1
 1531              		.global	lv_theme_mono_is_inited
 1532              		.syntax unified
 1533              		.thumb
 1534              		.thumb_func
 1536              	lv_theme_mono_is_inited:
 1537              		@ args = 0, pretend = 0, frame = 0
 1538              		@ frame_needed = 0, uses_anonymous_args = 0
 1539              		@ link register save eliminated.
 1540 0000 024B     		ldr	r3, .L98
 1541 0002 1868     		ldr	r0, [r3]
 1542 0004 0038     		subs	r0, r0, #0
 1543 0006 18BF     		it	ne
 1544 0008 0120     		movne	r0, #1
 1545 000a 7047     		bx	lr
 1546              	.L99:
 1547              		.align	2
 1548              	.L98:
 1549 000c 00000000 		.word	_lv_theme_default_styles
 1551              		.section	.text.lv_theme_mono_init,"ax",%progbits
ARM GAS  /var/folders/lp/x54gwt890xv47sdkqj1k04q40000gn/T//ccgnHJHb.s 			page 28


 1552              		.align	1
 1553              		.global	lv_theme_mono_init
 1554              		.syntax unified
 1555              		.thumb
 1556              		.thumb_func
 1558              	lv_theme_mono_init:
 1559              		@ args = 0, pretend = 0, frame = 0
 1560              		@ frame_needed = 0, uses_anonymous_args = 0
 1561 0000 70B5     		push	{r4, r5, r6, lr}
 1562 0002 0446     		mov	r4, r0
 1563 0004 0D46     		mov	r5, r1
 1564 0006 1646     		mov	r6, r2
 1565 0008 144B     		ldr	r3, .L106
 1566 000a 1B78     		ldrb	r3, [r3]	@ zero_extendqisi2
 1567 000c D3B1     		cbz	r3, .L105
 1568              	.L101:
 1569 000e 144B     		ldr	r3, .L106+4
 1570 0010 DC60     		str	r4, [r3, #12]
 1571 0012 144A     		ldr	r2, .L106+8
 1572 0014 5A61     		str	r2, [r3, #20]
 1573 0016 9A61     		str	r2, [r3, #24]
 1574 0018 DA61     		str	r2, [r3, #28]
 1575 001a 134A     		ldr	r2, .L106+12
 1576 001c 1A60     		str	r2, [r3]
 1577 001e 3146     		mov	r1, r6
 1578 0020 2846     		mov	r0, r5
 1579 0022 FFF7FEFF 		bl	style_init
 1580 0026 2CB1     		cbz	r4, .L102
 1581 0028 2046     		mov	r0, r4
 1582 002a FFF7FEFF 		bl	lv_disp_get_theme
 1583 002e 0C4B     		ldr	r3, .L106+4
 1584 0030 8342     		cmp	r3, r0
 1585 0032 02D1     		bne	.L103
 1586              	.L102:
 1587 0034 0020     		movs	r0, #0
 1588 0036 FFF7FEFF 		bl	lv_obj_report_style_change
 1589              	.L103:
 1590 003a 084B     		ldr	r3, .L106
 1591 003c 0122     		movs	r2, #1
 1592 003e 1A70     		strb	r2, [r3]
 1593 0040 0748     		ldr	r0, .L106+4
 1594 0042 70BD     		pop	{r4, r5, r6, pc}
 1595              	.L105:
 1596 0044 054B     		ldr	r3, .L106
 1597 0046 0022     		movs	r2, #0
 1598 0048 1A70     		strb	r2, [r3]
 1599 004a 8820     		movs	r0, #136
 1600 004c FFF7FEFF 		bl	lv_mem_alloc
 1601 0050 064B     		ldr	r3, .L106+16
 1602 0052 1860     		str	r0, [r3]
 1603 0054 064B     		ldr	r3, .L106+20
 1604 0056 1860     		str	r0, [r3]
 1605 0058 D9E7     		b	.L101
 1606              	.L107:
 1607 005a 00BF     		.align	2
 1608              	.L106:
 1609 005c 00000000 		.word	inited
ARM GAS  /var/folders/lp/x54gwt890xv47sdkqj1k04q40000gn/T//ccgnHJHb.s 			page 29


 1610 0060 00000000 		.word	theme
 1611 0064 00000000 		.word	lv_font_montserrat_14
 1612 0068 00000000 		.word	theme_apply
 1613 006c 00000000 		.word	_lv_theme_default_styles
 1614 0070 00000000 		.word	styles
 1616              		.section	.bss.inited,"aw",%nobits
 1619              	inited:
 1620 0000 00       		.space	1
 1621              		.section	.bss.theme,"aw",%nobits
 1622              		.align	2
 1625              	theme:
 1626 0000 00000000 		.space	36
 1626      00000000 
 1626      00000000 
 1626      00000000 
 1626      00000000 
 1627              		.section	.bss.styles,"aw",%nobits
 1628              		.align	2
 1631              	styles:
 1632 0000 00000000 		.space	4
 1633              		.ident	"GCC: (xPack GNU Arm Embedded GCC arm64) 13.3.1 20240614"
ARM GAS  /var/folders/lp/x54gwt890xv47sdkqj1k04q40000gn/T//ccgnHJHb.s 			page 30

