ARM GAS  /var/folders/lp/x54gwt890xv47sdkqj1k04q40000gn/T//ccyxAmDN.s 			page 1


   1              		.cpu cortex-m4
   2              		.arch armv7e-m
   3              		.fpu fpv4-sp-d16
   4              		.eabi_attribute 27, 1
   5              		.eabi_attribute 28, 1
   6              		.eabi_attribute 20, 1
   7              		.eabi_attribute 21, 1
   8              		.eabi_attribute 23, 3
   9              		.eabi_attribute 24, 1
  10              		.eabi_attribute 25, 1
  11              		.eabi_attribute 26, 1
  12              		.eabi_attribute 30, 1
  13              		.eabi_attribute 34, 1
  14              		.eabi_attribute 18, 4
  15              		.file	"lv_theme_default.c"
  16              		.text
  17              		.section	.text.lv_color_mix,"ax",%progbits
  18              		.align	1
  19              		.syntax unified
  20              		.thumb
  21              		.thumb_func
  23              	lv_color_mix:
  24              		@ args = 0, pretend = 0, frame = 0
  25              		@ frame_needed = 0, uses_anonymous_args = 0
  26              		@ link register save eliminated.
  27 0000 83B2     		uxth	r3, r0
  28 0002 C0F30720 		ubfx	r0, r0, #8, #8
  29 0006 40EA0320 		orr	r0, r0, r3, lsl #8
  30 000a 8BB2     		uxth	r3, r1
  31 000c C1F30721 		ubfx	r1, r1, #8, #8
  32 0010 41EA0321 		orr	r1, r1, r3, lsl #8
  33 0014 0432     		adds	r2, r2, #4
  34 0016 0B04     		lsls	r3, r1, #16
  35 0018 13FA81F1 		uxtah	r1, r3, r1
  36 001c 0A4B     		ldr	r3, .L2
  37 001e 1940     		ands	r1, r1, r3
  38 0020 4FEA004C 		lsl	ip, r0, #16
  39 0024 1CFA80F0 		uxtah	r0, ip, r0
  40 0028 1840     		ands	r0, r0, r3
  41 002a 401A     		subs	r0, r0, r1
  42 002c D208     		lsrs	r2, r2, #3
  43 002e 00FB02F2 		mul	r2, r0, r2
  44 0032 01EB5211 		add	r1, r1, r2, lsr #5
  45 0036 1940     		ands	r1, r1, r3
  46 0038 41EA1141 		orr	r1, r1, r1, lsr #16
  47 003c 88B2     		uxth	r0, r1
  48 003e C1F30721 		ubfx	r1, r1, #8, #8
  49 0042 41EA0020 		orr	r0, r1, r0, lsl #8
  50 0046 7047     		bx	lr
  51              	.L3:
  52              		.align	2
  53              	.L2:
  54 0048 1FF8E007 		.word	132184095
  56              		.section	.text.theme_apply,"ax",%progbits
  57              		.align	1
  58              		.syntax unified
  59              		.thumb
ARM GAS  /var/folders/lp/x54gwt890xv47sdkqj1k04q40000gn/T//ccyxAmDN.s 			page 2


  60              		.thumb_func
  62              	theme_apply:
  63              		@ args = 0, pretend = 0, frame = 0
  64              		@ frame_needed = 0, uses_anonymous_args = 0
  65 0000 70B5     		push	{r4, r5, r6, lr}
  66 0002 0C46     		mov	r4, r1
  67 0004 0846     		mov	r0, r1
  68 0006 FFF7FEFF 		bl	lv_obj_get_parent
  69 000a 78B1     		cbz	r0, .L58
  70 000c B149     		ldr	r1, .L68
  71 000e 2046     		mov	r0, r4
  72 0010 FFF7FEFF 		bl	lv_obj_check_type
  73 0014 0028     		cmp	r0, #0
  74 0016 00F09780 		beq	.L7
  75 001a 2046     		mov	r0, r4
  76 001c FFF7FEFF 		bl	lv_obj_get_parent
  77 0020 0546     		mov	r5, r0
  78 0022 AD49     		ldr	r1, .L68+4
  79 0024 FFF7FEFF 		bl	lv_obj_check_type
  80 0028 A0B1     		cbz	r0, .L59
  81              	.L4:
  82 002a 70BD     		pop	{r4, r5, r6, pc}
  83              	.L58:
  84 002c AB4D     		ldr	r5, .L68+8
  85 002e 0022     		movs	r2, #0
  86 0030 2968     		ldr	r1, [r5]
  87 0032 2046     		mov	r0, r4
  88 0034 FFF7FEFF 		bl	lv_obj_add_style
  89 0038 2968     		ldr	r1, [r5]
  90 003a 4FF48032 		mov	r2, #65536
  91 003e 0831     		adds	r1, r1, #8
  92 0040 2046     		mov	r0, r4
  93 0042 FFF7FEFF 		bl	lv_obj_add_style
  94 0046 2968     		ldr	r1, [r5]
  95 0048 A54A     		ldr	r2, .L68+12
  96 004a 1031     		adds	r1, r1, #16
  97 004c 2046     		mov	r0, r4
  98 004e FFF7FEFF 		bl	lv_obj_add_style
  99 0052 EAE7     		b	.L4
 100              	.L59:
 101 0054 2846     		mov	r0, r5
 102 0056 FFF7FEFF 		bl	lv_obj_get_parent
 103 005a 9F49     		ldr	r1, .L68+4
 104 005c FFF7FEFF 		bl	lv_obj_check_type
 105 0060 68BB     		cbnz	r0, .L60
 106 0062 2046     		mov	r0, r4
 107 0064 FFF7FEFF 		bl	lv_obj_get_index
 108 0068 38B9     		cbnz	r0, .L9
 109 006a 2046     		mov	r0, r4
 110 006c FFF7FEFF 		bl	lv_obj_get_parent
 111 0070 9C49     		ldr	r1, .L68+16
 112 0072 FFF7FEFF 		bl	lv_obj_check_type
 113 0076 0028     		cmp	r0, #0
 114 0078 36D1     		bne	.L61
 115              	.L9:
 116 007a 2046     		mov	r0, r4
 117 007c FFF7FEFF 		bl	lv_obj_get_index
ARM GAS  /var/folders/lp/x54gwt890xv47sdkqj1k04q40000gn/T//ccyxAmDN.s 			page 3


 118 0080 0128     		cmp	r0, #1
 119 0082 3FD0     		beq	.L62
 120              	.L10:
 121 0084 2046     		mov	r0, r4
 122 0086 FFF7FEFF 		bl	lv_obj_get_parent
 123 008a 9749     		ldr	r1, .L68+20
 124 008c FFF7FEFF 		bl	lv_obj_check_type
 125 0090 0028     		cmp	r0, #0
 126 0092 CAD1     		bne	.L4
 127 0094 914D     		ldr	r5, .L68+8
 128 0096 2968     		ldr	r1, [r5]
 129 0098 0022     		movs	r2, #0
 130 009a 1831     		adds	r1, r1, #24
 131 009c 2046     		mov	r0, r4
 132 009e FFF7FEFF 		bl	lv_obj_add_style
 133 00a2 2968     		ldr	r1, [r5]
 134 00a4 4FF48032 		mov	r2, #65536
 135 00a8 0831     		adds	r1, r1, #8
 136 00aa 2046     		mov	r0, r4
 137 00ac FFF7FEFF 		bl	lv_obj_add_style
 138 00b0 2968     		ldr	r1, [r5]
 139 00b2 8B4A     		ldr	r2, .L68+12
 140 00b4 1031     		adds	r1, r1, #16
 141 00b6 2046     		mov	r0, r4
 142 00b8 FFF7FEFF 		bl	lv_obj_add_style
 143 00bc B5E7     		b	.L4
 144              	.L60:
 145 00be 874D     		ldr	r5, .L68+8
 146 00c0 2968     		ldr	r1, [r5]
 147 00c2 0022     		movs	r2, #0
 148 00c4 8031     		adds	r1, r1, #128
 149 00c6 2046     		mov	r0, r4
 150 00c8 FFF7FEFF 		bl	lv_obj_add_style
 151 00cc 2968     		ldr	r1, [r5]
 152 00ce 4FF48032 		mov	r2, #65536
 153 00d2 0831     		adds	r1, r1, #8
 154 00d4 2046     		mov	r0, r4
 155 00d6 FFF7FEFF 		bl	lv_obj_add_style
 156 00da 2968     		ldr	r1, [r5]
 157 00dc 804A     		ldr	r2, .L68+12
 158 00de 1031     		adds	r1, r1, #16
 159 00e0 2046     		mov	r0, r4
 160 00e2 FFF7FEFF 		bl	lv_obj_add_style
 161 00e6 A0E7     		b	.L4
 162              	.L61:
 163 00e8 7C4D     		ldr	r5, .L68+8
 164 00ea 2968     		ldr	r1, [r5]
 165 00ec 0022     		movs	r2, #0
 166 00ee 4831     		adds	r1, r1, #72
 167 00f0 2046     		mov	r0, r4
 168 00f2 FFF7FEFF 		bl	lv_obj_add_style
 169 00f6 2968     		ldr	r1, [r5]
 170 00f8 0022     		movs	r2, #0
 171 00fa 7031     		adds	r1, r1, #112
 172 00fc 2046     		mov	r0, r4
 173 00fe FFF7FEFF 		bl	lv_obj_add_style
 174 0102 92E7     		b	.L4
ARM GAS  /var/folders/lp/x54gwt890xv47sdkqj1k04q40000gn/T//ccyxAmDN.s 			page 4


 175              	.L62:
 176 0104 2046     		mov	r0, r4
 177 0106 FFF7FEFF 		bl	lv_obj_get_parent
 178 010a 7649     		ldr	r1, .L68+16
 179 010c FFF7FEFF 		bl	lv_obj_check_type
 180 0110 0028     		cmp	r0, #0
 181 0112 B7D0     		beq	.L10
 182 0114 714D     		ldr	r5, .L68+8
 183 0116 0022     		movs	r2, #0
 184 0118 2968     		ldr	r1, [r5]
 185 011a 2046     		mov	r0, r4
 186 011c FFF7FEFF 		bl	lv_obj_add_style
 187 0120 2968     		ldr	r1, [r5]
 188 0122 0022     		movs	r2, #0
 189 0124 8031     		adds	r1, r1, #128
 190 0126 2046     		mov	r0, r4
 191 0128 FFF7FEFF 		bl	lv_obj_add_style
 192 012c 2968     		ldr	r1, [r5]
 193 012e 4FF48032 		mov	r2, #65536
 194 0132 0831     		adds	r1, r1, #8
 195 0134 2046     		mov	r0, r4
 196 0136 FFF7FEFF 		bl	lv_obj_add_style
 197 013a 2968     		ldr	r1, [r5]
 198 013c 684A     		ldr	r2, .L68+12
 199 013e 1031     		adds	r1, r1, #16
 200 0140 2046     		mov	r0, r4
 201 0142 FFF7FEFF 		bl	lv_obj_add_style
 202 0146 70E7     		b	.L4
 203              	.L7:
 204 0148 6849     		ldr	r1, .L68+24
 205 014a 2046     		mov	r0, r4
 206 014c FFF7FEFF 		bl	lv_obj_check_type
 207 0150 0028     		cmp	r0, #0
 208 0152 56D0     		beq	.L11
 209 0154 614D     		ldr	r5, .L68+8
 210 0156 2968     		ldr	r1, [r5]
 211 0158 0022     		movs	r2, #0
 212 015a 2031     		adds	r1, r1, #32
 213 015c 2046     		mov	r0, r4
 214 015e FFF7FEFF 		bl	lv_obj_add_style
 215 0162 2968     		ldr	r1, [r5]
 216 0164 0022     		movs	r2, #0
 217 0166 2831     		adds	r1, r1, #40
 218 0168 2046     		mov	r0, r4
 219 016a FFF7FEFF 		bl	lv_obj_add_style
 220 016e 2968     		ldr	r1, [r5]
 221 0170 0022     		movs	r2, #0
 222 0172 D031     		adds	r1, r1, #208
 223 0174 2046     		mov	r0, r4
 224 0176 FFF7FEFF 		bl	lv_obj_add_style
 225 017a 2968     		ldr	r1, [r5]
 226 017c 2022     		movs	r2, #32
 227 017e 5831     		adds	r1, r1, #88
 228 0180 2046     		mov	r0, r4
 229 0182 FFF7FEFF 		bl	lv_obj_add_style
 230 0186 2968     		ldr	r1, [r5]
 231 0188 2022     		movs	r2, #32
ARM GAS  /var/folders/lp/x54gwt890xv47sdkqj1k04q40000gn/T//ccyxAmDN.s 			page 5


 232 018a D831     		adds	r1, r1, #216
 233 018c 2046     		mov	r0, r4
 234 018e FFF7FEFF 		bl	lv_obj_add_style
 235 0192 2968     		ldr	r1, [r5]
 236 0194 0422     		movs	r2, #4
 237 0196 A031     		adds	r1, r1, #160
 238 0198 2046     		mov	r0, r4
 239 019a FFF7FEFF 		bl	lv_obj_add_style
 240 019e 2968     		ldr	r1, [r5]
 241 01a0 2022     		movs	r2, #32
 242 01a2 C831     		adds	r1, r1, #200
 243 01a4 2046     		mov	r0, r4
 244 01a6 FFF7FEFF 		bl	lv_obj_add_style
 245 01aa 2968     		ldr	r1, [r5]
 246 01ac 0122     		movs	r2, #1
 247 01ae 3831     		adds	r1, r1, #56
 248 01b0 2046     		mov	r0, r4
 249 01b2 FFF7FEFF 		bl	lv_obj_add_style
 250 01b6 2968     		ldr	r1, [r5]
 251 01b8 8022     		movs	r2, #128
 252 01ba 6031     		adds	r1, r1, #96
 253 01bc 2046     		mov	r0, r4
 254 01be FFF7FEFF 		bl	lv_obj_add_style
 255 01c2 2046     		mov	r0, r4
 256 01c4 FFF7FEFF 		bl	lv_obj_get_parent
 257 01c8 4949     		ldr	r1, .L68+28
 258 01ca FFF7FEFF 		bl	lv_obj_check_type
 259 01ce 40B9     		cbnz	r0, .L12
 260 01d0 2046     		mov	r0, r4
 261 01d2 FFF7FEFF 		bl	lv_obj_get_parent
 262 01d6 4749     		ldr	r1, .L68+32
 263 01d8 FFF7FEFF 		bl	lv_obj_check_type
 264 01dc 0028     		cmp	r0, #0
 265 01de 3FF424AF 		beq	.L4
 266              	.L12:
 267 01e2 3E4D     		ldr	r5, .L68+8
 268 01e4 2968     		ldr	r1, [r5]
 269 01e6 0022     		movs	r2, #0
 270 01e8 01F5E871 		add	r1, r1, #464
 271 01ec 2046     		mov	r0, r4
 272 01ee FFF7FEFF 		bl	lv_obj_add_style
 273 01f2 2968     		ldr	r1, [r5]
 274 01f4 2022     		movs	r2, #32
 275 01f6 01F5F071 		add	r1, r1, #480
 276 01fa 2046     		mov	r0, r4
 277 01fc FFF7FEFF 		bl	lv_obj_add_style
 278 0200 13E7     		b	.L4
 279              	.L11:
 280 0202 3D49     		ldr	r1, .L68+36
 281 0204 2046     		mov	r0, r4
 282 0206 FFF7FEFF 		bl	lv_obj_check_type
 283 020a 40B1     		cbz	r0, .L13
 284 020c 334B     		ldr	r3, .L68+8
 285 020e 1968     		ldr	r1, [r3]
 286 0210 0022     		movs	r2, #0
 287 0212 01F5A871 		add	r1, r1, #336
 288 0216 2046     		mov	r0, r4
ARM GAS  /var/folders/lp/x54gwt890xv47sdkqj1k04q40000gn/T//ccyxAmDN.s 			page 6


 289 0218 FFF7FEFF 		bl	lv_obj_add_style
 290 021c 05E7     		b	.L4
 291              	.L13:
 292 021e 3749     		ldr	r1, .L68+40
 293 0220 2046     		mov	r0, r4
 294 0222 FFF7FEFF 		bl	lv_obj_check_type
 295 0226 0028     		cmp	r0, #0
 296 0228 00F01C81 		beq	.L14
 297 022c 2046     		mov	r0, r4
 298 022e FFF7FEFF 		bl	lv_obj_get_parent
 299 0232 3349     		ldr	r1, .L68+44
 300 0234 FFF7FEFF 		bl	lv_obj_check_type
 301 0238 0028     		cmp	r0, #0
 302 023a 6DD1     		bne	.L63
 303 023c 2046     		mov	r0, r4
 304 023e FFF7FEFF 		bl	lv_obj_get_parent
 305 0242 2549     		ldr	r1, .L68+4
 306 0244 FFF7FEFF 		bl	lv_obj_check_type
 307 0248 0028     		cmp	r0, #0
 308 024a 40F09980 		bne	.L64
 309 024e 2046     		mov	r0, r4
 310 0250 FFF7FEFF 		bl	lv_obj_get_parent
 311 0254 2449     		ldr	r1, .L68+20
 312 0256 FFF7FEFF 		bl	lv_obj_check_type
 313 025a 0028     		cmp	r0, #0
 314 025c 40F0CD80 		bne	.L65
 315 0260 1E4D     		ldr	r5, .L68+8
 316 0262 2968     		ldr	r1, [r5]
 317 0264 0022     		movs	r2, #0
 318 0266 1831     		adds	r1, r1, #24
 319 0268 2046     		mov	r0, r4
 320 026a FFF7FEFF 		bl	lv_obj_add_style
 321 026e 2968     		ldr	r1, [r5]
 322 0270 0422     		movs	r2, #4
 323 0272 A031     		adds	r1, r1, #160
 324 0274 2046     		mov	r0, r4
 325 0276 FFF7FEFF 		bl	lv_obj_add_style
 326 027a 2968     		ldr	r1, [r5]
 327 027c 0822     		movs	r2, #8
 328 027e A831     		adds	r1, r1, #168
 329 0280 2046     		mov	r0, r4
 330 0282 FFF7FEFF 		bl	lv_obj_add_style
 331 0286 2968     		ldr	r1, [r5]
 332 0288 4FF4A022 		mov	r2, #327680
 333 028c 2031     		adds	r1, r1, #32
 334 028e 2046     		mov	r0, r4
 335 0290 FFF7FEFF 		bl	lv_obj_add_style
 336 0294 2968     		ldr	r1, [r5]
 337 0296 1B4A     		ldr	r2, .L68+48
 338 0298 6031     		adds	r1, r1, #96
 339 029a 2046     		mov	r0, r4
 340 029c FFF7FEFF 		bl	lv_obj_add_style
 341 02a0 2968     		ldr	r1, [r5]
 342 02a2 194A     		ldr	r2, .L68+52
 343 02a4 5831     		adds	r1, r1, #88
 344 02a6 2046     		mov	r0, r4
 345 02a8 FFF7FEFF 		bl	lv_obj_add_style
ARM GAS  /var/folders/lp/x54gwt890xv47sdkqj1k04q40000gn/T//ccyxAmDN.s 			page 7


 346 02ac 2968     		ldr	r1, [r5]
 347 02ae 174A     		ldr	r2, .L68+56
 348 02b0 2831     		adds	r1, r1, #40
 349 02b2 2046     		mov	r0, r4
 350 02b4 FFF7FEFF 		bl	lv_obj_add_style
 351 02b8 2968     		ldr	r1, [r5]
 352 02ba 154A     		ldr	r2, .L68+60
 353 02bc A031     		adds	r1, r1, #160
 354 02be 2046     		mov	r0, r4
 355 02c0 FFF7FEFF 		bl	lv_obj_add_style
 356 02c4 2968     		ldr	r1, [r5]
 357 02c6 134A     		ldr	r2, .L68+64
 358 02c8 A831     		adds	r1, r1, #168
 359 02ca 2046     		mov	r0, r4
 360 02cc FFF7FEFF 		bl	lv_obj_add_style
 361 02d0 ABE6     		b	.L4
 362              	.L69:
 363 02d2 00BF     		.align	2
 364              	.L68:
 365 02d4 00000000 		.word	lv_obj_class
 366 02d8 00000000 		.word	lv_tabview_class
 367 02dc 00000000 		.word	styles
 368 02e0 40000100 		.word	65600
 369 02e4 00000000 		.word	lv_win_class
 370 02e8 00000000 		.word	lv_calendar_class
 371 02ec 00000000 		.word	lv_btn_class
 372 02f0 00000000 		.word	lv_menu_sidebar_header_cont_class
 373 02f4 00000000 		.word	lv_menu_main_header_cont_class
 374 02f8 00000000 		.word	lv_line_class
 375 02fc 00000000 		.word	lv_btnmatrix_class
 376 0300 00000000 		.word	lv_msgbox_class
 377 0304 80000500 		.word	327808
 378 0308 20000500 		.word	327712
 379 030c 01000500 		.word	327681
 380 0310 04000500 		.word	327684
 381 0314 08000500 		.word	327688
 382              	.L63:
 383 0318 BB4D     		ldr	r5, .L70
 384 031a 2968     		ldr	r1, [r5]
 385 031c 0022     		movs	r2, #0
 386 031e 01F5FC71 		add	r1, r1, #504
 387 0322 2046     		mov	r0, r4
 388 0324 FFF7FEFF 		bl	lv_obj_add_style
 389 0328 2968     		ldr	r1, [r5]
 390 032a 0022     		movs	r2, #0
 391 032c 8831     		adds	r1, r1, #136
 392 032e 2046     		mov	r0, r4
 393 0330 FFF7FEFF 		bl	lv_obj_add_style
 394 0334 2968     		ldr	r1, [r5]
 395 0336 4FF4A022 		mov	r2, #327680
 396 033a 2031     		adds	r1, r1, #32
 397 033c 2046     		mov	r0, r4
 398 033e FFF7FEFF 		bl	lv_obj_add_style
 399 0342 2968     		ldr	r1, [r5]
 400 0344 B14A     		ldr	r2, .L70+4
 401 0346 5831     		adds	r1, r1, #88
 402 0348 2046     		mov	r0, r4
ARM GAS  /var/folders/lp/x54gwt890xv47sdkqj1k04q40000gn/T//ccyxAmDN.s 			page 8


 403 034a FFF7FEFF 		bl	lv_obj_add_style
 404 034e 2968     		ldr	r1, [r5]
 405 0350 AF4A     		ldr	r2, .L70+8
 406 0352 6031     		adds	r1, r1, #96
 407 0354 2046     		mov	r0, r4
 408 0356 FFF7FEFF 		bl	lv_obj_add_style
 409 035a 2968     		ldr	r1, [r5]
 410 035c AD4A     		ldr	r2, .L70+12
 411 035e 2831     		adds	r1, r1, #40
 412 0360 2046     		mov	r0, r4
 413 0362 FFF7FEFF 		bl	lv_obj_add_style
 414 0366 2968     		ldr	r1, [r5]
 415 0368 AB4A     		ldr	r2, .L70+16
 416 036a 3031     		adds	r1, r1, #48
 417 036c 2046     		mov	r0, r4
 418 036e FFF7FEFF 		bl	lv_obj_add_style
 419 0372 2968     		ldr	r1, [r5]
 420 0374 A94A     		ldr	r2, .L70+20
 421 0376 4031     		adds	r1, r1, #64
 422 0378 2046     		mov	r0, r4
 423 037a FFF7FEFF 		bl	lv_obj_add_style
 424 037e 54E6     		b	.L4
 425              	.L64:
 426 0380 A14D     		ldr	r5, .L70
 427 0382 2968     		ldr	r1, [r5]
 428 0384 0022     		movs	r2, #0
 429 0386 5031     		adds	r1, r1, #80
 430 0388 2046     		mov	r0, r4
 431 038a FFF7FEFF 		bl	lv_obj_add_style
 432 038e 2968     		ldr	r1, [r5]
 433 0390 0422     		movs	r2, #4
 434 0392 A031     		adds	r1, r1, #160
 435 0394 2046     		mov	r0, r4
 436 0396 FFF7FEFF 		bl	lv_obj_add_style
 437 039a 2968     		ldr	r1, [r5]
 438 039c 0422     		movs	r2, #4
 439 039e 01F50C71 		add	r1, r1, #560
 440 03a2 2046     		mov	r0, r4
 441 03a4 FFF7FEFF 		bl	lv_obj_add_style
 442 03a8 2968     		ldr	r1, [r5]
 443 03aa 984A     		ldr	r2, .L70+4
 444 03ac 5831     		adds	r1, r1, #88
 445 03ae 2046     		mov	r0, r4
 446 03b0 FFF7FEFF 		bl	lv_obj_add_style
 447 03b4 2968     		ldr	r1, [r5]
 448 03b6 974E     		ldr	r6, .L70+12
 449 03b8 3246     		mov	r2, r6
 450 03ba 3031     		adds	r1, r1, #48
 451 03bc 2046     		mov	r0, r4
 452 03be FFF7FEFF 		bl	lv_obj_add_style
 453 03c2 2968     		ldr	r1, [r5]
 454 03c4 3246     		mov	r2, r6
 455 03c6 01F50E71 		add	r1, r1, #568
 456 03ca 2046     		mov	r0, r4
 457 03cc FFF7FEFF 		bl	lv_obj_add_style
 458 03d0 2968     		ldr	r1, [r5]
 459 03d2 0336     		adds	r6, r6, #3
ARM GAS  /var/folders/lp/x54gwt890xv47sdkqj1k04q40000gn/T//ccyxAmDN.s 			page 9


 460 03d4 3246     		mov	r2, r6
 461 03d6 A031     		adds	r1, r1, #160
 462 03d8 2046     		mov	r0, r4
 463 03da FFF7FEFF 		bl	lv_obj_add_style
 464 03de 2968     		ldr	r1, [r5]
 465 03e0 8E4A     		ldr	r2, .L70+20
 466 03e2 A831     		adds	r1, r1, #168
 467 03e4 2046     		mov	r0, r4
 468 03e6 FFF7FEFF 		bl	lv_obj_add_style
 469 03ea 2968     		ldr	r1, [r5]
 470 03ec 3246     		mov	r2, r6
 471 03ee 01F50C71 		add	r1, r1, #560
 472 03f2 2046     		mov	r0, r4
 473 03f4 FFF7FEFF 		bl	lv_obj_add_style
 474 03f8 17E6     		b	.L4
 475              	.L65:
 476 03fa 834D     		ldr	r5, .L70
 477 03fc 2968     		ldr	r1, [r5]
 478 03fe 0022     		movs	r2, #0
 479 0400 01F5C071 		add	r1, r1, #384
 480 0404 2046     		mov	r0, r4
 481 0406 FFF7FEFF 		bl	lv_obj_add_style
 482 040a 2968     		ldr	r1, [r5]
 483 040c 0422     		movs	r2, #4
 484 040e A031     		adds	r1, r1, #160
 485 0410 2046     		mov	r0, r4
 486 0412 FFF7FEFF 		bl	lv_obj_add_style
 487 0416 2968     		ldr	r1, [r5]
 488 0418 0822     		movs	r2, #8
 489 041a A831     		adds	r1, r1, #168
 490 041c 2046     		mov	r0, r4
 491 041e FFF7FEFF 		bl	lv_obj_add_style
 492 0422 2968     		ldr	r1, [r5]
 493 0424 4FF4A022 		mov	r2, #327680
 494 0428 01F5C471 		add	r1, r1, #392
 495 042c 2046     		mov	r0, r4
 496 042e FFF7FEFF 		bl	lv_obj_add_style
 497 0432 2968     		ldr	r1, [r5]
 498 0434 754A     		ldr	r2, .L70+4
 499 0436 5831     		adds	r1, r1, #88
 500 0438 2046     		mov	r0, r4
 501 043a FFF7FEFF 		bl	lv_obj_add_style
 502 043e 2968     		ldr	r1, [r5]
 503 0440 734A     		ldr	r2, .L70+8
 504 0442 6031     		adds	r1, r1, #96
 505 0444 2046     		mov	r0, r4
 506 0446 FFF7FEFF 		bl	lv_obj_add_style
 507 044a 2968     		ldr	r1, [r5]
 508 044c 724A     		ldr	r2, .L70+16
 509 044e A031     		adds	r1, r1, #160
 510 0450 2046     		mov	r0, r4
 511 0452 FFF7FEFF 		bl	lv_obj_add_style
 512 0456 2968     		ldr	r1, [r5]
 513 0458 704A     		ldr	r2, .L70+20
 514 045a A831     		adds	r1, r1, #168
 515 045c 2046     		mov	r0, r4
 516 045e FFF7FEFF 		bl	lv_obj_add_style
ARM GAS  /var/folders/lp/x54gwt890xv47sdkqj1k04q40000gn/T//ccyxAmDN.s 			page 10


 517 0462 E2E5     		b	.L4
 518              	.L14:
 519 0464 6E49     		ldr	r1, .L70+24
 520 0466 2046     		mov	r0, r4
 521 0468 FFF7FEFF 		bl	lv_obj_check_type
 522 046c 38B3     		cbz	r0, .L18
 523 046e 664D     		ldr	r5, .L70
 524 0470 2968     		ldr	r1, [r5]
 525 0472 0022     		movs	r2, #0
 526 0474 3031     		adds	r1, r1, #48
 527 0476 2046     		mov	r0, r4
 528 0478 FFF7FEFF 		bl	lv_obj_add_style
 529 047c 2968     		ldr	r1, [r5]
 530 047e 0022     		movs	r2, #0
 531 0480 B031     		adds	r1, r1, #176
 532 0482 2046     		mov	r0, r4
 533 0484 FFF7FEFF 		bl	lv_obj_add_style
 534 0488 2968     		ldr	r1, [r5]
 535 048a 0422     		movs	r2, #4
 536 048c A031     		adds	r1, r1, #160
 537 048e 2046     		mov	r0, r4
 538 0490 FFF7FEFF 		bl	lv_obj_add_style
 539 0494 2968     		ldr	r1, [r5]
 540 0496 0822     		movs	r2, #8
 541 0498 A831     		adds	r1, r1, #168
 542 049a 2046     		mov	r0, r4
 543 049c FFF7FEFF 		bl	lv_obj_add_style
 544 04a0 2968     		ldr	r1, [r5]
 545 04a2 4FF40032 		mov	r2, #131072
 546 04a6 2831     		adds	r1, r1, #40
 547 04a8 2046     		mov	r0, r4
 548 04aa FFF7FEFF 		bl	lv_obj_add_style
 549 04ae 2968     		ldr	r1, [r5]
 550 04b0 4FF40032 		mov	r2, #131072
 551 04b4 B031     		adds	r1, r1, #176
 552 04b6 2046     		mov	r0, r4
 553 04b8 FFF7FEFF 		bl	lv_obj_add_style
 554 04bc B5E5     		b	.L4
 555              	.L18:
 556 04be 5949     		ldr	r1, .L70+28
 557 04c0 2046     		mov	r0, r4
 558 04c2 FFF7FEFF 		bl	lv_obj_check_type
 559 04c6 0028     		cmp	r0, #0
 560 04c8 42D0     		beq	.L19
 561 04ca 4F4D     		ldr	r5, .L70
 562 04cc 2968     		ldr	r1, [r5]
 563 04ce 0022     		movs	r2, #0
 564 04d0 3031     		adds	r1, r1, #48
 565 04d2 2046     		mov	r0, r4
 566 04d4 FFF7FEFF 		bl	lv_obj_add_style
 567 04d8 2968     		ldr	r1, [r5]
 568 04da 0022     		movs	r2, #0
 569 04dc B031     		adds	r1, r1, #176
 570 04de 2046     		mov	r0, r4
 571 04e0 FFF7FEFF 		bl	lv_obj_add_style
 572 04e4 2968     		ldr	r1, [r5]
 573 04e6 0422     		movs	r2, #4
ARM GAS  /var/folders/lp/x54gwt890xv47sdkqj1k04q40000gn/T//ccyxAmDN.s 			page 11


 574 04e8 A031     		adds	r1, r1, #160
 575 04ea 2046     		mov	r0, r4
 576 04ec FFF7FEFF 		bl	lv_obj_add_style
 577 04f0 2968     		ldr	r1, [r5]
 578 04f2 0822     		movs	r2, #8
 579 04f4 A831     		adds	r1, r1, #168
 580 04f6 2046     		mov	r0, r4
 581 04f8 FFF7FEFF 		bl	lv_obj_add_style
 582 04fc 2968     		ldr	r1, [r5]
 583 04fe 4FF40032 		mov	r2, #131072
 584 0502 2831     		adds	r1, r1, #40
 585 0504 2046     		mov	r0, r4
 586 0506 FFF7FEFF 		bl	lv_obj_add_style
 587 050a 2968     		ldr	r1, [r5]
 588 050c 4FF40032 		mov	r2, #131072
 589 0510 B031     		adds	r1, r1, #176
 590 0512 2046     		mov	r0, r4
 591 0514 FFF7FEFF 		bl	lv_obj_add_style
 592 0518 2968     		ldr	r1, [r5]
 593 051a 4FF44032 		mov	r2, #196608
 594 051e F031     		adds	r1, r1, #240
 595 0520 2046     		mov	r0, r4
 596 0522 FFF7FEFF 		bl	lv_obj_add_style
 597 0526 2968     		ldr	r1, [r5]
 598 0528 3F4E     		ldr	r6, .L70+32
 599 052a 3246     		mov	r2, r6
 600 052c C831     		adds	r1, r1, #200
 601 052e 2046     		mov	r0, r4
 602 0530 FFF7FEFF 		bl	lv_obj_add_style
 603 0534 2968     		ldr	r1, [r5]
 604 0536 4FF44032 		mov	r2, #196608
 605 053a D031     		adds	r1, r1, #208
 606 053c 2046     		mov	r0, r4
 607 053e FFF7FEFF 		bl	lv_obj_add_style
 608 0542 2968     		ldr	r1, [r5]
 609 0544 3246     		mov	r2, r6
 610 0546 D831     		adds	r1, r1, #216
 611 0548 2046     		mov	r0, r4
 612 054a FFF7FEFF 		bl	lv_obj_add_style
 613 054e 6CE5     		b	.L4
 614              	.L19:
 615 0550 3649     		ldr	r1, .L70+36
 616 0552 2046     		mov	r0, r4
 617 0554 FFF7FEFF 		bl	lv_obj_check_type
 618 0558 0028     		cmp	r0, #0
 619 055a 6BD0     		beq	.L20
 620 055c 2A4D     		ldr	r5, .L70
 621 055e 2968     		ldr	r1, [r5]
 622 0560 0022     		movs	r2, #0
 623 0562 1831     		adds	r1, r1, #24
 624 0564 2046     		mov	r0, r4
 625 0566 FFF7FEFF 		bl	lv_obj_add_style
 626 056a 2968     		ldr	r1, [r5]
 627 056c 0022     		movs	r2, #0
 628 056e 6831     		adds	r1, r1, #104
 629 0570 2046     		mov	r0, r4
 630 0572 FFF7FEFF 		bl	lv_obj_add_style
ARM GAS  /var/folders/lp/x54gwt890xv47sdkqj1k04q40000gn/T//ccyxAmDN.s 			page 12


 631 0576 2968     		ldr	r1, [r5]
 632 0578 0022     		movs	r2, #0
 633 057a B831     		adds	r1, r1, #184
 634 057c 2046     		mov	r0, r4
 635 057e FFF7FEFF 		bl	lv_obj_add_style
 636 0582 2968     		ldr	r1, [r5]
 637 0584 0422     		movs	r2, #4
 638 0586 A031     		adds	r1, r1, #160
 639 0588 2046     		mov	r0, r4
 640 058a FFF7FEFF 		bl	lv_obj_add_style
 641 058e 2968     		ldr	r1, [r5]
 642 0590 0822     		movs	r2, #8
 643 0592 A831     		adds	r1, r1, #168
 644 0594 2046     		mov	r0, r4
 645 0596 FFF7FEFF 		bl	lv_obj_add_style
 646 059a 2968     		ldr	r1, [r5]
 647 059c 4FF48032 		mov	r2, #65536
 648 05a0 0831     		adds	r1, r1, #8
 649 05a2 2046     		mov	r0, r4
 650 05a4 FFF7FEFF 		bl	lv_obj_add_style
 651 05a8 2968     		ldr	r1, [r5]
 652 05aa 214A     		ldr	r2, .L70+40
 653 05ac 1031     		adds	r1, r1, #16
 654 05ae 2046     		mov	r0, r4
 655 05b0 FFF7FEFF 		bl	lv_obj_add_style
 656 05b4 2968     		ldr	r1, [r5]
 657 05b6 4FF4A022 		mov	r2, #327680
 658 05ba 5031     		adds	r1, r1, #80
 659 05bc 2046     		mov	r0, r4
 660 05be FFF7FEFF 		bl	lv_obj_add_style
 661 05c2 2968     		ldr	r1, [r5]
 662 05c4 4FF4A022 		mov	r2, #327680
 663 05c8 01F5AC71 		add	r1, r1, #344
 664 05cc 2046     		mov	r0, r4
 665 05ce FFF7FEFF 		bl	lv_obj_add_style
 666 05d2 2968     		ldr	r1, [r5]
 667 05d4 4FF4A022 		mov	r2, #327680
 668 05d8 8031     		adds	r1, r1, #128
 669 05da 2046     		mov	r0, r4
 670 05dc FFF7FEFF 		bl	lv_obj_add_style
 671 05e0 2968     		ldr	r1, [r5]
 672 05e2 0A4A     		ldr	r2, .L70+4
 673 05e4 5831     		adds	r1, r1, #88
 674 05e6 2046     		mov	r0, r4
 675 05e8 FFF7FEFF 		bl	lv_obj_add_style
 676 05ec 2968     		ldr	r1, [r5]
 677 05ee 0A4A     		ldr	r2, .L70+16
 678 05f0 2831     		adds	r1, r1, #40
 679 05f2 2046     		mov	r0, r4
 680 05f4 FFF7FEFF 		bl	lv_obj_add_style
 681 05f8 2968     		ldr	r1, [r5]
 682 05fa 084A     		ldr	r2, .L70+20
 683 05fc 3831     		adds	r1, r1, #56
 684 05fe 2046     		mov	r0, r4
 685 0600 FFF7FEFF 		bl	lv_obj_add_style
 686 0604 11E5     		b	.L4
 687              	.L71:
ARM GAS  /var/folders/lp/x54gwt890xv47sdkqj1k04q40000gn/T//ccyxAmDN.s 			page 13


 688 0606 00BF     		.align	2
 689              	.L70:
 690 0608 00000000 		.word	styles
 691 060c 20000500 		.word	327712
 692 0610 80000500 		.word	327808
 693 0614 01000500 		.word	327681
 694 0618 04000500 		.word	327684
 695 061c 08000500 		.word	327688
 696 0620 00000000 		.word	lv_bar_class
 697 0624 00000000 		.word	lv_slider_class
 698 0628 20000300 		.word	196640
 699 062c 00000000 		.word	lv_table_class
 700 0630 40000100 		.word	65600
 701              	.L20:
 702 0634 B049     		ldr	r1, .L72
 703 0636 2046     		mov	r0, r4
 704 0638 FFF7FEFF 		bl	lv_obj_check_type
 705 063c 0028     		cmp	r0, #0
 706 063e 43D0     		beq	.L21
 707 0640 AE4D     		ldr	r5, .L72+4
 708 0642 2968     		ldr	r1, [r5]
 709 0644 0022     		movs	r2, #0
 710 0646 8831     		adds	r1, r1, #136
 711 0648 2046     		mov	r0, r4
 712 064a FFF7FEFF 		bl	lv_obj_add_style
 713 064e 2968     		ldr	r1, [r5]
 714 0650 0422     		movs	r2, #4
 715 0652 A031     		adds	r1, r1, #160
 716 0654 2046     		mov	r0, r4
 717 0656 FFF7FEFF 		bl	lv_obj_add_style
 718 065a 2968     		ldr	r1, [r5]
 719 065c A84A     		ldr	r2, .L72+8
 720 065e 6031     		adds	r1, r1, #96
 721 0660 2046     		mov	r0, r4
 722 0662 FFF7FEFF 		bl	lv_obj_add_style
 723 0666 2968     		ldr	r1, [r5]
 724 0668 4FF40032 		mov	r2, #131072
 725 066c 01F59C71 		add	r1, r1, #312
 726 0670 2046     		mov	r0, r4
 727 0672 FFF7FEFF 		bl	lv_obj_add_style
 728 0676 2968     		ldr	r1, [r5]
 729 0678 A24E     		ldr	r6, .L72+12
 730 067a 3246     		mov	r2, r6
 731 067c 2831     		adds	r1, r1, #40
 732 067e 2046     		mov	r0, r4
 733 0680 FFF7FEFF 		bl	lv_obj_add_style
 734 0684 2968     		ldr	r1, [r5]
 735 0686 3246     		mov	r2, r6
 736 0688 01F5A071 		add	r1, r1, #320
 737 068c 2046     		mov	r0, r4
 738 068e FFF7FEFF 		bl	lv_obj_add_style
 739 0692 2968     		ldr	r1, [r5]
 740 0694 1F36     		adds	r6, r6, #31
 741 0696 3246     		mov	r2, r6
 742 0698 5831     		adds	r1, r1, #88
 743 069a 2046     		mov	r0, r4
 744 069c FFF7FEFF 		bl	lv_obj_add_style
ARM GAS  /var/folders/lp/x54gwt890xv47sdkqj1k04q40000gn/T//ccyxAmDN.s 			page 14


 745 06a0 2968     		ldr	r1, [r5]
 746 06a2 3246     		mov	r2, r6
 747 06a4 C831     		adds	r1, r1, #200
 748 06a6 2046     		mov	r0, r4
 749 06a8 FFF7FEFF 		bl	lv_obj_add_style
 750 06ac 2968     		ldr	r1, [r5]
 751 06ae 3246     		mov	r2, r6
 752 06b0 D831     		adds	r1, r1, #216
 753 06b2 2046     		mov	r0, r4
 754 06b4 FFF7FEFF 		bl	lv_obj_add_style
 755 06b8 2968     		ldr	r1, [r5]
 756 06ba 4FF40032 		mov	r2, #131072
 757 06be D031     		adds	r1, r1, #208
 758 06c0 2046     		mov	r0, r4
 759 06c2 FFF7FEFF 		bl	lv_obj_add_style
 760 06c6 B0E4     		b	.L4
 761              	.L21:
 762 06c8 8F49     		ldr	r1, .L72+16
 763 06ca 2046     		mov	r0, r4
 764 06cc FFF7FEFF 		bl	lv_obj_check_type
 765 06d0 0028     		cmp	r0, #0
 766 06d2 5CD0     		beq	.L22
 767 06d4 894D     		ldr	r5, .L72+4
 768 06d6 2968     		ldr	r1, [r5]
 769 06d8 0022     		movs	r2, #0
 770 06da 4831     		adds	r1, r1, #72
 771 06dc 2046     		mov	r0, r4
 772 06de FFF7FEFF 		bl	lv_obj_add_style
 773 06e2 2968     		ldr	r1, [r5]
 774 06e4 0022     		movs	r2, #0
 775 06e6 B031     		adds	r1, r1, #176
 776 06e8 2046     		mov	r0, r4
 777 06ea FFF7FEFF 		bl	lv_obj_add_style
 778 06ee 2968     		ldr	r1, [r5]
 779 06f0 0022     		movs	r2, #0
 780 06f2 E831     		adds	r1, r1, #232
 781 06f4 2046     		mov	r0, r4
 782 06f6 FFF7FEFF 		bl	lv_obj_add_style
 783 06fa 2968     		ldr	r1, [r5]
 784 06fc 8022     		movs	r2, #128
 785 06fe 6031     		adds	r1, r1, #96
 786 0700 2046     		mov	r0, r4
 787 0702 FFF7FEFF 		bl	lv_obj_add_style
 788 0706 2968     		ldr	r1, [r5]
 789 0708 0422     		movs	r2, #4
 790 070a A031     		adds	r1, r1, #160
 791 070c 2046     		mov	r0, r4
 792 070e FFF7FEFF 		bl	lv_obj_add_style
 793 0712 2968     		ldr	r1, [r5]
 794 0714 7B4E     		ldr	r6, .L72+12
 795 0716 3246     		mov	r2, r6
 796 0718 2831     		adds	r1, r1, #40
 797 071a 2046     		mov	r0, r4
 798 071c FFF7FEFF 		bl	lv_obj_add_style
 799 0720 2968     		ldr	r1, [r5]
 800 0722 4FF40032 		mov	r2, #131072
 801 0726 B031     		adds	r1, r1, #176
ARM GAS  /var/folders/lp/x54gwt890xv47sdkqj1k04q40000gn/T//ccyxAmDN.s 			page 15


 802 0728 2046     		mov	r0, r4
 803 072a FFF7FEFF 		bl	lv_obj_add_style
 804 072e 2968     		ldr	r1, [r5]
 805 0730 734A     		ldr	r2, .L72+8
 806 0732 6031     		adds	r1, r1, #96
 807 0734 2046     		mov	r0, r4
 808 0736 FFF7FEFF 		bl	lv_obj_add_style
 809 073a 2968     		ldr	r1, [r5]
 810 073c 4FF44032 		mov	r2, #196608
 811 0740 F031     		adds	r1, r1, #240
 812 0742 2046     		mov	r0, r4
 813 0744 FFF7FEFF 		bl	lv_obj_add_style
 814 0748 2968     		ldr	r1, [r5]
 815 074a 4FF44032 		mov	r2, #196608
 816 074e 5031     		adds	r1, r1, #80
 817 0750 2046     		mov	r0, r4
 818 0752 FFF7FEFF 		bl	lv_obj_add_style
 819 0756 2968     		ldr	r1, [r5]
 820 0758 4FF44032 		mov	r2, #196608
 821 075c 01F5A471 		add	r1, r1, #328
 822 0760 2046     		mov	r0, r4
 823 0762 FFF7FEFF 		bl	lv_obj_add_style
 824 0766 2968     		ldr	r1, [r5]
 825 0768 684A     		ldr	r2, .L72+20
 826 076a 6031     		adds	r1, r1, #96
 827 076c 2046     		mov	r0, r4
 828 076e FFF7FEFF 		bl	lv_obj_add_style
 829 0772 2968     		ldr	r1, [r5]
 830 0774 3246     		mov	r2, r6
 831 0776 D831     		adds	r1, r1, #216
 832 0778 2046     		mov	r0, r4
 833 077a FFF7FEFF 		bl	lv_obj_add_style
 834 077e 2968     		ldr	r1, [r5]
 835 0780 4FF40032 		mov	r2, #131072
 836 0784 D831     		adds	r1, r1, #216
 837 0786 2046     		mov	r0, r4
 838 0788 FFF7FEFF 		bl	lv_obj_add_style
 839 078c 4DE4     		b	.L4
 840              	.L22:
 841 078e 6049     		ldr	r1, .L72+24
 842 0790 2046     		mov	r0, r4
 843 0792 FFF7FEFF 		bl	lv_obj_check_type
 844 0796 0028     		cmp	r0, #0
 845 0798 41D0     		beq	.L23
 846 079a 584D     		ldr	r5, .L72+4
 847 079c 2968     		ldr	r1, [r5]
 848 079e 0022     		movs	r2, #0
 849 07a0 1831     		adds	r1, r1, #24
 850 07a2 2046     		mov	r0, r4
 851 07a4 FFF7FEFF 		bl	lv_obj_add_style
 852 07a8 2968     		ldr	r1, [r5]
 853 07aa 0022     		movs	r2, #0
 854 07ac 7831     		adds	r1, r1, #120
 855 07ae 2046     		mov	r0, r4
 856 07b0 FFF7FEFF 		bl	lv_obj_add_style
 857 07b4 2968     		ldr	r1, [r5]
 858 07b6 0022     		movs	r2, #0
ARM GAS  /var/folders/lp/x54gwt890xv47sdkqj1k04q40000gn/T//ccyxAmDN.s 			page 16


 859 07b8 01F59471 		add	r1, r1, #296
 860 07bc 2046     		mov	r0, r4
 861 07be FFF7FEFF 		bl	lv_obj_add_style
 862 07c2 2968     		ldr	r1, [r5]
 863 07c4 4FF48032 		mov	r2, #65536
 864 07c8 0831     		adds	r1, r1, #8
 865 07ca 2046     		mov	r0, r4
 866 07cc FFF7FEFF 		bl	lv_obj_add_style
 867 07d0 2968     		ldr	r1, [r5]
 868 07d2 504A     		ldr	r2, .L72+28
 869 07d4 1031     		adds	r1, r1, #16
 870 07d6 2046     		mov	r0, r4
 871 07d8 FFF7FEFF 		bl	lv_obj_add_style
 872 07dc 2968     		ldr	r1, [r5]
 873 07de 4FF4A022 		mov	r2, #327680
 874 07e2 01F58871 		add	r1, r1, #272
 875 07e6 2046     		mov	r0, r4
 876 07e8 FFF7FEFF 		bl	lv_obj_add_style
 877 07ec 2968     		ldr	r1, [r5]
 878 07ee 4FF40032 		mov	r2, #131072
 879 07f2 01F58C71 		add	r1, r1, #280
 880 07f6 2046     		mov	r0, r4
 881 07f8 FFF7FEFF 		bl	lv_obj_add_style
 882 07fc 2968     		ldr	r1, [r5]
 883 07fe 4FF4C022 		mov	r2, #393216
 884 0802 01F59071 		add	r1, r1, #288
 885 0806 2046     		mov	r0, r4
 886 0808 FFF7FEFF 		bl	lv_obj_add_style
 887 080c 2968     		ldr	r1, [r5]
 888 080e 4FF4E022 		mov	r2, #458752
 889 0812 01F58871 		add	r1, r1, #272
 890 0816 2046     		mov	r0, r4
 891 0818 FFF7FEFF 		bl	lv_obj_add_style
 892 081c 05E4     		b	.L4
 893              	.L23:
 894 081e 3E49     		ldr	r1, .L72+32
 895 0820 2046     		mov	r0, r4
 896 0822 FFF7FEFF 		bl	lv_obj_check_type
 897 0826 68B3     		cbz	r0, .L24
 898 0828 344D     		ldr	r5, .L72+4
 899 082a 2968     		ldr	r1, [r5]
 900 082c 0022     		movs	r2, #0
 901 082e 1831     		adds	r1, r1, #24
 902 0830 2046     		mov	r0, r4
 903 0832 FFF7FEFF 		bl	lv_obj_add_style
 904 0836 2968     		ldr	r1, [r5]
 905 0838 0022     		movs	r2, #0
 906 083a E031     		adds	r1, r1, #224
 907 083c 2046     		mov	r0, r4
 908 083e FFF7FEFF 		bl	lv_obj_add_style
 909 0842 2968     		ldr	r1, [r5]
 910 0844 0022     		movs	r2, #0
 911 0846 9031     		adds	r1, r1, #144
 912 0848 2046     		mov	r0, r4
 913 084a FFF7FEFF 		bl	lv_obj_add_style
 914 084e 2968     		ldr	r1, [r5]
 915 0850 0022     		movs	r2, #0
ARM GAS  /var/folders/lp/x54gwt890xv47sdkqj1k04q40000gn/T//ccyxAmDN.s 			page 17


 916 0852 9831     		adds	r1, r1, #152
 917 0854 2046     		mov	r0, r4
 918 0856 FFF7FEFF 		bl	lv_obj_add_style
 919 085a 2968     		ldr	r1, [r5]
 920 085c 0422     		movs	r2, #4
 921 085e A031     		adds	r1, r1, #160
 922 0860 2046     		mov	r0, r4
 923 0862 FFF7FEFF 		bl	lv_obj_add_style
 924 0866 2968     		ldr	r1, [r5]
 925 0868 0822     		movs	r2, #8
 926 086a A831     		adds	r1, r1, #168
 927 086c 2046     		mov	r0, r4
 928 086e FFF7FEFF 		bl	lv_obj_add_style
 929 0872 2968     		ldr	r1, [r5]
 930 0874 4FF48022 		mov	r2, #262144
 931 0878 2831     		adds	r1, r1, #40
 932 087a 2046     		mov	r0, r4
 933 087c FFF7FEFF 		bl	lv_obj_add_style
 934 0880 FFF7D3BB 		b	.L4
 935              	.L24:
 936 0884 2549     		ldr	r1, .L72+36
 937 0886 2046     		mov	r0, r4
 938 0888 FFF7FEFF 		bl	lv_obj_check_type
 939 088c 0028     		cmp	r0, #0
 940 088e 47D0     		beq	.L25
 941 0890 1A4D     		ldr	r5, .L72+4
 942 0892 2968     		ldr	r1, [r5]
 943 0894 0022     		movs	r2, #0
 944 0896 1831     		adds	r1, r1, #24
 945 0898 2046     		mov	r0, r4
 946 089a FFF7FEFF 		bl	lv_obj_add_style
 947 089e 2968     		ldr	r1, [r5]
 948 08a0 0022     		movs	r2, #0
 949 08a2 7831     		adds	r1, r1, #120
 950 08a4 2046     		mov	r0, r4
 951 08a6 FFF7FEFF 		bl	lv_obj_add_style
 952 08aa 2968     		ldr	r1, [r5]
 953 08ac 0022     		movs	r2, #0
 954 08ae D031     		adds	r1, r1, #208
 955 08b0 2046     		mov	r0, r4
 956 08b2 FFF7FEFF 		bl	lv_obj_add_style
 957 08b6 2968     		ldr	r1, [r5]
 958 08b8 2022     		movs	r2, #32
 959 08ba D831     		adds	r1, r1, #216
 960 08bc 2046     		mov	r0, r4
 961 08be FFF7FEFF 		bl	lv_obj_add_style
 962 08c2 2968     		ldr	r1, [r5]
 963 08c4 2022     		movs	r2, #32
 964 08c6 5831     		adds	r1, r1, #88
 965 08c8 2046     		mov	r0, r4
 966 08ca FFF7FEFF 		bl	lv_obj_add_style
 967 08ce 2968     		ldr	r1, [r5]
 968 08d0 0422     		movs	r2, #4
 969 08d2 A031     		adds	r1, r1, #160
 970 08d4 2046     		mov	r0, r4
 971 08d6 FFF7FEFF 		bl	lv_obj_add_style
 972 08da 2968     		ldr	r1, [r5]
ARM GAS  /var/folders/lp/x54gwt890xv47sdkqj1k04q40000gn/T//ccyxAmDN.s 			page 18


 973 08dc 0822     		movs	r2, #8
 974 08de A831     		adds	r1, r1, #168
 975 08e0 2046     		mov	r0, r4
 976 08e2 FFF7FEFF 		bl	lv_obj_add_style
 977 08e6 2968     		ldr	r1, [r5]
 978 08e8 4FF40032 		mov	r2, #131072
 979 08ec D831     		adds	r1, r1, #216
 980 08ee 2046     		mov	r0, r4
 981 08f0 FFF7FEFF 		bl	lv_obj_add_style
 982 08f4 FFF799BB 		b	.L4
 983              	.L73:
 984              		.align	2
 985              	.L72:
 986 08f8 00000000 		.word	lv_checkbox_class
 987 08fc 00000000 		.word	styles
 988 0900 80000200 		.word	131200
 989 0904 01000200 		.word	131073
 990 0908 00000000 		.word	lv_switch_class
 991 090c 80000300 		.word	196736
 992 0910 00000000 		.word	lv_chart_class
 993 0914 40000100 		.word	65600
 994 0918 00000000 		.word	lv_roller_class
 995 091c 00000000 		.word	lv_dropdown_class
 996              	.L25:
 997 0920 BA49     		ldr	r1, .L74
 998 0922 2046     		mov	r0, r4
 999 0924 FFF7FEFF 		bl	lv_obj_check_type
 1000 0928 0028     		cmp	r0, #0
 1001 092a 3BD0     		beq	.L26
 1002 092c B84D     		ldr	r5, .L74+4
 1003 092e 2968     		ldr	r1, [r5]
 1004 0930 0022     		movs	r2, #0
 1005 0932 1831     		adds	r1, r1, #24
 1006 0934 2046     		mov	r0, r4
 1007 0936 FFF7FEFF 		bl	lv_obj_add_style
 1008 093a 2968     		ldr	r1, [r5]
 1009 093c 0022     		movs	r2, #0
 1010 093e C031     		adds	r1, r1, #192
 1011 0940 2046     		mov	r0, r4
 1012 0942 FFF7FEFF 		bl	lv_obj_add_style
 1013 0946 2968     		ldr	r1, [r5]
 1014 0948 0022     		movs	r2, #0
 1015 094a 9031     		adds	r1, r1, #144
 1016 094c 2046     		mov	r0, r4
 1017 094e FFF7FEFF 		bl	lv_obj_add_style
 1018 0952 2968     		ldr	r1, [r5]
 1019 0954 0022     		movs	r2, #0
 1020 0956 01F59871 		add	r1, r1, #304
 1021 095a 2046     		mov	r0, r4
 1022 095c FFF7FEFF 		bl	lv_obj_add_style
 1023 0960 2968     		ldr	r1, [r5]
 1024 0962 4FF48032 		mov	r2, #65536
 1025 0966 0831     		adds	r1, r1, #8
 1026 0968 2046     		mov	r0, r4
 1027 096a FFF7FEFF 		bl	lv_obj_add_style
 1028 096e 2968     		ldr	r1, [r5]
 1029 0970 A84A     		ldr	r2, .L74+8
ARM GAS  /var/folders/lp/x54gwt890xv47sdkqj1k04q40000gn/T//ccyxAmDN.s 			page 19


 1030 0972 1031     		adds	r1, r1, #16
 1031 0974 2046     		mov	r0, r4
 1032 0976 FFF7FEFF 		bl	lv_obj_add_style
 1033 097a 2968     		ldr	r1, [r5]
 1034 097c 4FF48022 		mov	r2, #262144
 1035 0980 5031     		adds	r1, r1, #80
 1036 0982 2046     		mov	r0, r4
 1037 0984 FFF7FEFF 		bl	lv_obj_add_style
 1038 0988 2968     		ldr	r1, [r5]
 1039 098a A34A     		ldr	r2, .L74+12
 1040 098c 2831     		adds	r1, r1, #40
 1041 098e 2046     		mov	r0, r4
 1042 0990 FFF7FEFF 		bl	lv_obj_add_style
 1043 0994 2968     		ldr	r1, [r5]
 1044 0996 A14A     		ldr	r2, .L74+16
 1045 0998 5831     		adds	r1, r1, #88
 1046 099a 2046     		mov	r0, r4
 1047 099c FFF7FEFF 		bl	lv_obj_add_style
 1048 09a0 FFF743BB 		b	.L4
 1049              	.L26:
 1050 09a4 9E49     		ldr	r1, .L74+20
 1051 09a6 2046     		mov	r0, r4
 1052 09a8 FFF7FEFF 		bl	lv_obj_check_type
 1053 09ac 00B3     		cbz	r0, .L27
 1054 09ae 984D     		ldr	r5, .L74+4
 1055 09b0 2968     		ldr	r1, [r5]
 1056 09b2 0022     		movs	r2, #0
 1057 09b4 01F58071 		add	r1, r1, #256
 1058 09b8 2046     		mov	r0, r4
 1059 09ba FFF7FEFF 		bl	lv_obj_add_style
 1060 09be 2968     		ldr	r1, [r5]
 1061 09c0 4FF40032 		mov	r2, #131072
 1062 09c4 01F58071 		add	r1, r1, #256
 1063 09c8 2046     		mov	r0, r4
 1064 09ca FFF7FEFF 		bl	lv_obj_add_style
 1065 09ce 2968     		ldr	r1, [r5]
 1066 09d0 4FF40032 		mov	r2, #131072
 1067 09d4 01F58471 		add	r1, r1, #264
 1068 09d8 2046     		mov	r0, r4
 1069 09da FFF7FEFF 		bl	lv_obj_add_style
 1070 09de 2968     		ldr	r1, [r5]
 1071 09e0 4FF44032 		mov	r2, #196608
 1072 09e4 F031     		adds	r1, r1, #240
 1073 09e6 2046     		mov	r0, r4
 1074 09e8 FFF7FEFF 		bl	lv_obj_add_style
 1075 09ec FFF71DBB 		b	.L4
 1076              	.L27:
 1077 09f0 8C49     		ldr	r1, .L74+24
 1078 09f2 2046     		mov	r0, r4
 1079 09f4 FFF7FEFF 		bl	lv_obj_check_type
 1080 09f8 C8B1     		cbz	r0, .L28
 1081 09fa 854D     		ldr	r5, .L74+4
 1082 09fc 2968     		ldr	r1, [r5]
 1083 09fe 0022     		movs	r2, #0
 1084 0a00 01F58071 		add	r1, r1, #256
 1085 0a04 2046     		mov	r0, r4
 1086 0a06 FFF7FEFF 		bl	lv_obj_add_style
ARM GAS  /var/folders/lp/x54gwt890xv47sdkqj1k04q40000gn/T//ccyxAmDN.s 			page 20


 1087 0a0a 2968     		ldr	r1, [r5]
 1088 0a0c 4FF40032 		mov	r2, #131072
 1089 0a10 01F58071 		add	r1, r1, #256
 1090 0a14 2046     		mov	r0, r4
 1091 0a16 FFF7FEFF 		bl	lv_obj_add_style
 1092 0a1a 2968     		ldr	r1, [r5]
 1093 0a1c 4FF40032 		mov	r2, #131072
 1094 0a20 01F58471 		add	r1, r1, #264
 1095 0a24 2046     		mov	r0, r4
 1096 0a26 FFF7FEFF 		bl	lv_obj_add_style
 1097 0a2a FFF7FEBA 		b	.L4
 1098              	.L28:
 1099 0a2e 7E49     		ldr	r1, .L74+28
 1100 0a30 2046     		mov	r0, r4
 1101 0a32 FFF7FEFF 		bl	lv_obj_check_type
 1102 0a36 B0B1     		cbz	r0, .L29
 1103 0a38 754D     		ldr	r5, .L74+4
 1104 0a3a 2968     		ldr	r1, [r5]
 1105 0a3c 0022     		movs	r2, #0
 1106 0a3e 1831     		adds	r1, r1, #24
 1107 0a40 2046     		mov	r0, r4
 1108 0a42 FFF7FEFF 		bl	lv_obj_add_style
 1109 0a46 2968     		ldr	r1, [r5]
 1110 0a48 0022     		movs	r2, #0
 1111 0a4a B031     		adds	r1, r1, #176
 1112 0a4c 2046     		mov	r0, r4
 1113 0a4e FFF7FEFF 		bl	lv_obj_add_style
 1114 0a52 2968     		ldr	r1, [r5]
 1115 0a54 4FF40032 		mov	r2, #131072
 1116 0a58 01F5B471 		add	r1, r1, #360
 1117 0a5c 2046     		mov	r0, r4
 1118 0a5e FFF7FEFF 		bl	lv_obj_add_style
 1119 0a62 FFF7E2BA 		b	.L4
 1120              	.L29:
 1121 0a66 7149     		ldr	r1, .L74+32
 1122 0a68 2046     		mov	r0, r4
 1123 0a6a FFF7FEFF 		bl	lv_obj_check_type
 1124 0a6e 0028     		cmp	r0, #0
 1125 0a70 3CD0     		beq	.L30
 1126 0a72 674D     		ldr	r5, .L74+4
 1127 0a74 2968     		ldr	r1, [r5]
 1128 0a76 0022     		movs	r2, #0
 1129 0a78 1831     		adds	r1, r1, #24
 1130 0a7a 2046     		mov	r0, r4
 1131 0a7c FFF7FEFF 		bl	lv_obj_add_style
 1132 0a80 2968     		ldr	r1, [r5]
 1133 0a82 0022     		movs	r2, #0
 1134 0a84 7831     		adds	r1, r1, #120
 1135 0a86 2046     		mov	r0, r4
 1136 0a88 FFF7FEFF 		bl	lv_obj_add_style
 1137 0a8c 2968     		ldr	r1, [r5]
 1138 0a8e 8022     		movs	r2, #128
 1139 0a90 6031     		adds	r1, r1, #96
 1140 0a92 2046     		mov	r0, r4
 1141 0a94 FFF7FEFF 		bl	lv_obj_add_style
 1142 0a98 2968     		ldr	r1, [r5]
 1143 0a9a 0422     		movs	r2, #4
ARM GAS  /var/folders/lp/x54gwt890xv47sdkqj1k04q40000gn/T//ccyxAmDN.s 			page 21


 1144 0a9c A031     		adds	r1, r1, #160
 1145 0a9e 2046     		mov	r0, r4
 1146 0aa0 FFF7FEFF 		bl	lv_obj_add_style
 1147 0aa4 2968     		ldr	r1, [r5]
 1148 0aa6 0822     		movs	r2, #8
 1149 0aa8 A831     		adds	r1, r1, #168
 1150 0aaa 2046     		mov	r0, r4
 1151 0aac FFF7FEFF 		bl	lv_obj_add_style
 1152 0ab0 2968     		ldr	r1, [r5]
 1153 0ab2 4FF48032 		mov	r2, #65536
 1154 0ab6 0831     		adds	r1, r1, #8
 1155 0ab8 2046     		mov	r0, r4
 1156 0aba FFF7FEFF 		bl	lv_obj_add_style
 1157 0abe 2968     		ldr	r1, [r5]
 1158 0ac0 544A     		ldr	r2, .L74+8
 1159 0ac2 1031     		adds	r1, r1, #16
 1160 0ac4 2046     		mov	r0, r4
 1161 0ac6 FFF7FEFF 		bl	lv_obj_add_style
 1162 0aca 2968     		ldr	r1, [r5]
 1163 0acc 584A     		ldr	r2, .L74+36
 1164 0ace 01F5B871 		add	r1, r1, #368
 1165 0ad2 2046     		mov	r0, r4
 1166 0ad4 FFF7FEFF 		bl	lv_obj_add_style
 1167 0ad8 2968     		ldr	r1, [r5]
 1168 0ada 4FF40022 		mov	r2, #524288
 1169 0ade 01F5BC71 		add	r1, r1, #376
 1170 0ae2 2046     		mov	r0, r4
 1171 0ae4 FFF7FEFF 		bl	lv_obj_add_style
 1172 0ae8 FFF79FBA 		b	.L4
 1173              	.L30:
 1174 0aec 5149     		ldr	r1, .L74+40
 1175 0aee 2046     		mov	r0, r4
 1176 0af0 FFF7FEFF 		bl	lv_obj_check_type
 1177 0af4 70B1     		cbz	r0, .L31
 1178 0af6 464D     		ldr	r5, .L74+4
 1179 0af8 2968     		ldr	r1, [r5]
 1180 0afa 0022     		movs	r2, #0
 1181 0afc 1831     		adds	r1, r1, #24
 1182 0afe 2046     		mov	r0, r4
 1183 0b00 FFF7FEFF 		bl	lv_obj_add_style
 1184 0b04 2968     		ldr	r1, [r5]
 1185 0b06 0022     		movs	r2, #0
 1186 0b08 6831     		adds	r1, r1, #104
 1187 0b0a 2046     		mov	r0, r4
 1188 0b0c FFF7FEFF 		bl	lv_obj_add_style
 1189 0b10 FFF78BBA 		b	.L4
 1190              	.L31:
 1191 0b14 4849     		ldr	r1, .L74+44
 1192 0b16 2046     		mov	r0, r4
 1193 0b18 FFF7FEFF 		bl	lv_obj_check_type
 1194 0b1c 48B1     		cbz	r0, .L32
 1195 0b1e 3C4B     		ldr	r3, .L74+4
 1196 0b20 1968     		ldr	r1, [r3]
 1197 0b22 0022     		movs	r2, #0
 1198 0b24 01F5C871 		add	r1, r1, #400
 1199 0b28 2046     		mov	r0, r4
 1200 0b2a FFF7FEFF 		bl	lv_obj_add_style
ARM GAS  /var/folders/lp/x54gwt890xv47sdkqj1k04q40000gn/T//ccyxAmDN.s 			page 22


 1201 0b2e FFF77CBA 		b	.L4
 1202              	.L32:
 1203 0b32 4249     		ldr	r1, .L74+48
 1204 0b34 2046     		mov	r0, r4
 1205 0b36 FFF7FEFF 		bl	lv_obj_check_type
 1206 0b3a 48B1     		cbz	r0, .L33
 1207 0b3c 344B     		ldr	r3, .L74+4
 1208 0b3e 1968     		ldr	r1, [r3]
 1209 0b40 0022     		movs	r2, #0
 1210 0b42 01F5C871 		add	r1, r1, #400
 1211 0b46 2046     		mov	r0, r4
 1212 0b48 FFF7FEFF 		bl	lv_obj_add_style
 1213 0b4c FFF76DBA 		b	.L4
 1214              	.L33:
 1215 0b50 3B49     		ldr	r1, .L74+52
 1216 0b52 2046     		mov	r0, r4
 1217 0b54 FFF7FEFF 		bl	lv_obj_check_type
 1218 0b58 0028     		cmp	r0, #0
 1219 0b5a 7FD0     		beq	.L34
 1220 0b5c 0022     		movs	r2, #0
 1221 0b5e 2C4B     		ldr	r3, .L74+4
 1222 0b60 1968     		ldr	r1, [r3]
 1223 0b62 2046     		mov	r0, r4
 1224 0b64 FFF7FEFF 		bl	lv_obj_add_style
 1225 0b68 364B     		ldr	r3, .L74+56
 1226 0b6a 1B78     		ldrb	r3, [r3]	@ zero_extendqisi2
 1227 0b6c 012B     		cmp	r3, #1
 1228 0b6e 49D0     		beq	.L66
 1229 0b70 274B     		ldr	r3, .L74+4
 1230 0b72 1968     		ldr	r1, [r3]
 1231 0b74 7031     		adds	r1, r1, #112
 1232              	.L36:
 1233 0b76 0022     		movs	r2, #0
 1234 0b78 2046     		mov	r0, r4
 1235 0b7a FFF7FEFF 		bl	lv_obj_add_style
 1236 0b7e 244D     		ldr	r5, .L74+4
 1237 0b80 2968     		ldr	r1, [r5]
 1238 0b82 0422     		movs	r2, #4
 1239 0b84 A031     		adds	r1, r1, #160
 1240 0b86 2046     		mov	r0, r4
 1241 0b88 FFF7FEFF 		bl	lv_obj_add_style
 1242 0b8c 2968     		ldr	r1, [r5]
 1243 0b8e 0822     		movs	r2, #8
 1244 0b90 A831     		adds	r1, r1, #168
 1245 0b92 2046     		mov	r0, r4
 1246 0b94 FFF7FEFF 		bl	lv_obj_add_style
 1247 0b98 2968     		ldr	r1, [r5]
 1248 0b9a 4FF4A022 		mov	r2, #327680
 1249 0b9e 2031     		adds	r1, r1, #32
 1250 0ba0 2046     		mov	r0, r4
 1251 0ba2 FFF7FEFF 		bl	lv_obj_add_style
 1252 0ba6 2968     		ldr	r1, [r5]
 1253 0ba8 274A     		ldr	r2, .L74+60
 1254 0baa 6031     		adds	r1, r1, #96
 1255 0bac 2046     		mov	r0, r4
 1256 0bae FFF7FEFF 		bl	lv_obj_add_style
 1257 0bb2 2968     		ldr	r1, [r5]
ARM GAS  /var/folders/lp/x54gwt890xv47sdkqj1k04q40000gn/T//ccyxAmDN.s 			page 23


 1258 0bb4 4FF4A022 		mov	r2, #327680
 1259 0bb8 5031     		adds	r1, r1, #80
 1260 0bba 2046     		mov	r0, r4
 1261 0bbc FFF7FEFF 		bl	lv_obj_add_style
 1262 0bc0 2968     		ldr	r1, [r5]
 1263 0bc2 4FF4A022 		mov	r2, #327680
 1264 0bc6 01F50271 		add	r1, r1, #520
 1265 0bca 2046     		mov	r0, r4
 1266 0bcc FFF7FEFF 		bl	lv_obj_add_style
 1267 0bd0 2968     		ldr	r1, [r5]
 1268 0bd2 1E4A     		ldr	r2, .L74+64
 1269 0bd4 5831     		adds	r1, r1, #88
 1270 0bd6 2046     		mov	r0, r4
 1271 0bd8 FFF7FEFF 		bl	lv_obj_add_style
 1272 0bdc 2968     		ldr	r1, [r5]
 1273 0bde 1C4A     		ldr	r2, .L74+68
 1274 0be0 4831     		adds	r1, r1, #72
 1275 0be2 2046     		mov	r0, r4
 1276 0be4 FFF7FEFF 		bl	lv_obj_add_style
 1277 0be8 2968     		ldr	r1, [r5]
 1278 0bea 1A4A     		ldr	r2, .L74+72
 1279 0bec 3031     		adds	r1, r1, #48
 1280 0bee 2046     		mov	r0, r4
 1281 0bf0 FFF7FEFF 		bl	lv_obj_add_style
 1282 0bf4 2968     		ldr	r1, [r5]
 1283 0bf6 184A     		ldr	r2, .L74+76
 1284 0bf8 4031     		adds	r1, r1, #64
 1285 0bfa 2046     		mov	r0, r4
 1286 0bfc FFF7FEFF 		bl	lv_obj_add_style
 1287 0c00 FFF713BA 		b	.L4
 1288              	.L66:
 1289 0c04 024B     		ldr	r3, .L74+4
 1290 0c06 1968     		ldr	r1, [r3]
 1291 0c08 7831     		adds	r1, r1, #120
 1292 0c0a B4E7     		b	.L36
 1293              	.L75:
 1294              		.align	2
 1295              	.L74:
 1296 0c0c 00000000 		.word	lv_dropdownlist_class
 1297 0c10 00000000 		.word	styles
 1298 0c14 40000100 		.word	65600
 1299 0c18 01000400 		.word	262145
 1300 0c1c 20000400 		.word	262176
 1301 0c20 00000000 		.word	lv_arc_class
 1302 0c24 00000000 		.word	lv_spinner_class
 1303 0c28 00000000 		.word	lv_meter_class
 1304 0c2c 00000000 		.word	lv_textarea_class
 1305 0c30 02000700 		.word	458754
 1306 0c34 00000000 		.word	lv_calendar_class
 1307 0c38 00000000 		.word	lv_calendar_header_arrow_class
 1308 0c3c 00000000 		.word	lv_calendar_header_dropdown_class
 1309 0c40 00000000 		.word	lv_keyboard_class
 1310 0c44 00000000 		.word	disp_size
 1311 0c48 80000500 		.word	327808
 1312 0c4c 20000500 		.word	327712
 1313 0c50 01000500 		.word	327681
 1314 0c54 04000500 		.word	327684
ARM GAS  /var/folders/lp/x54gwt890xv47sdkqj1k04q40000gn/T//ccyxAmDN.s 			page 24


 1315 0c58 08000500 		.word	327688
 1316              	.L34:
 1317 0c5c BA49     		ldr	r1, .L76
 1318 0c5e 2046     		mov	r0, r4
 1319 0c60 FFF7FEFF 		bl	lv_obj_check_type
 1320 0c64 A0B9     		cbnz	r0, .L67
 1321 0c66 B949     		ldr	r1, .L76+4
 1322 0c68 2046     		mov	r0, r4
 1323 0c6a FFF7FEFF 		bl	lv_obj_check_type
 1324 0c6e 60B3     		cbz	r0, .L38
 1325 0c70 B74D     		ldr	r5, .L76+8
 1326 0c72 2968     		ldr	r1, [r5]
 1327 0c74 0022     		movs	r2, #0
 1328 0c76 4831     		adds	r1, r1, #72
 1329 0c78 2046     		mov	r0, r4
 1330 0c7a FFF7FEFF 		bl	lv_obj_add_style
 1331 0c7e 2968     		ldr	r1, [r5]
 1332 0c80 0022     		movs	r2, #0
 1333 0c82 01F50871 		add	r1, r1, #544
 1334 0c86 2046     		mov	r0, r4
 1335 0c88 FFF7FEFF 		bl	lv_obj_add_style
 1336 0c8c FFF7CDB9 		b	.L4
 1337              	.L67:
 1338 0c90 AF4D     		ldr	r5, .L76+8
 1339 0c92 2968     		ldr	r1, [r5]
 1340 0c94 0022     		movs	r2, #0
 1341 0c96 1831     		adds	r1, r1, #24
 1342 0c98 2046     		mov	r0, r4
 1343 0c9a FFF7FEFF 		bl	lv_obj_add_style
 1344 0c9e 2968     		ldr	r1, [r5]
 1345 0ca0 0022     		movs	r2, #0
 1346 0ca2 01F50471 		add	r1, r1, #528
 1347 0ca6 2046     		mov	r0, r4
 1348 0ca8 FFF7FEFF 		bl	lv_obj_add_style
 1349 0cac 2968     		ldr	r1, [r5]
 1350 0cae 4FF48032 		mov	r2, #65536
 1351 0cb2 0831     		adds	r1, r1, #8
 1352 0cb4 2046     		mov	r0, r4
 1353 0cb6 FFF7FEFF 		bl	lv_obj_add_style
 1354 0cba 2968     		ldr	r1, [r5]
 1355 0cbc A54A     		ldr	r2, .L76+12
 1356 0cbe 1031     		adds	r1, r1, #16
 1357 0cc0 2046     		mov	r0, r4
 1358 0cc2 FFF7FEFF 		bl	lv_obj_add_style
 1359 0cc6 FFF7B0B9 		b	.L4
 1360              	.L38:
 1361 0cca A349     		ldr	r1, .L76+16
 1362 0ccc 2046     		mov	r0, r4
 1363 0cce FFF7FEFF 		bl	lv_obj_check_type
 1364 0cd2 48B3     		cbz	r0, .L39
 1365 0cd4 9E4D     		ldr	r5, .L76+8
 1366 0cd6 2968     		ldr	r1, [r5]
 1367 0cd8 0022     		movs	r2, #0
 1368 0cda 5031     		adds	r1, r1, #80
 1369 0cdc 2046     		mov	r0, r4
 1370 0cde FFF7FEFF 		bl	lv_obj_add_style
 1371 0ce2 2968     		ldr	r1, [r5]
ARM GAS  /var/folders/lp/x54gwt890xv47sdkqj1k04q40000gn/T//ccyxAmDN.s 			page 25


 1372 0ce4 0022     		movs	r2, #0
 1373 0ce6 01F50671 		add	r1, r1, #536
 1374 0cea 2046     		mov	r0, r4
 1375 0cec FFF7FEFF 		bl	lv_obj_add_style
 1376 0cf0 2968     		ldr	r1, [r5]
 1377 0cf2 0422     		movs	r2, #4
 1378 0cf4 2831     		adds	r1, r1, #40
 1379 0cf6 2046     		mov	r0, r4
 1380 0cf8 FFF7FEFF 		bl	lv_obj_add_style
 1381 0cfc 2968     		ldr	r1, [r5]
 1382 0cfe 0422     		movs	r2, #4
 1383 0d00 01F50871 		add	r1, r1, #544
 1384 0d04 2046     		mov	r0, r4
 1385 0d06 FFF7FEFF 		bl	lv_obj_add_style
 1386 0d0a 2968     		ldr	r1, [r5]
 1387 0d0c 2022     		movs	r2, #32
 1388 0d0e 01F50871 		add	r1, r1, #544
 1389 0d12 2046     		mov	r0, r4
 1390 0d14 FFF7FEFF 		bl	lv_obj_add_style
 1391 0d18 2968     		ldr	r1, [r5]
 1392 0d1a 2022     		movs	r2, #32
 1393 0d1c 5831     		adds	r1, r1, #88
 1394 0d1e 2046     		mov	r0, r4
 1395 0d20 FFF7FEFF 		bl	lv_obj_add_style
 1396 0d24 FFF781B9 		b	.L4
 1397              	.L39:
 1398 0d28 8C49     		ldr	r1, .L76+20
 1399 0d2a 2046     		mov	r0, r4
 1400 0d2c FFF7FEFF 		bl	lv_obj_check_type
 1401 0d30 78B1     		cbz	r0, .L40
 1402 0d32 874D     		ldr	r5, .L76+8
 1403 0d34 2968     		ldr	r1, [r5]
 1404 0d36 0022     		movs	r2, #0
 1405 0d38 1831     		adds	r1, r1, #24
 1406 0d3a 2046     		mov	r0, r4
 1407 0d3c FFF7FEFF 		bl	lv_obj_add_style
 1408 0d40 2968     		ldr	r1, [r5]
 1409 0d42 0022     		movs	r2, #0
 1410 0d44 01F5D071 		add	r1, r1, #416
 1411 0d48 2046     		mov	r0, r4
 1412 0d4a FFF7FEFF 		bl	lv_obj_add_style
 1413 0d4e FFF76CB9 		b	.L4
 1414              	.L40:
 1415 0d52 8349     		ldr	r1, .L76+24
 1416 0d54 2046     		mov	r0, r4
 1417 0d56 FFF7FEFF 		bl	lv_obj_check_type
 1418 0d5a B0B1     		cbz	r0, .L41
 1419 0d5c 7C4D     		ldr	r5, .L76+8
 1420 0d5e 2968     		ldr	r1, [r5]
 1421 0d60 0022     		movs	r2, #0
 1422 0d62 01F5D871 		add	r1, r1, #432
 1423 0d66 2046     		mov	r0, r4
 1424 0d68 FFF7FEFF 		bl	lv_obj_add_style
 1425 0d6c 2968     		ldr	r1, [r5]
 1426 0d6e 4FF48032 		mov	r2, #65536
 1427 0d72 0831     		adds	r1, r1, #8
 1428 0d74 2046     		mov	r0, r4
ARM GAS  /var/folders/lp/x54gwt890xv47sdkqj1k04q40000gn/T//ccyxAmDN.s 			page 26


 1429 0d76 FFF7FEFF 		bl	lv_obj_add_style
 1430 0d7a 2968     		ldr	r1, [r5]
 1431 0d7c 754A     		ldr	r2, .L76+12
 1432 0d7e 1031     		adds	r1, r1, #16
 1433 0d80 2046     		mov	r0, r4
 1434 0d82 FFF7FEFF 		bl	lv_obj_add_style
 1435 0d86 FFF750B9 		b	.L4
 1436              	.L41:
 1437 0d8a 7649     		ldr	r1, .L76+28
 1438 0d8c 2046     		mov	r0, r4
 1439 0d8e FFF7FEFF 		bl	lv_obj_check_type
 1440 0d92 B0B1     		cbz	r0, .L42
 1441 0d94 6E4D     		ldr	r5, .L76+8
 1442 0d96 2968     		ldr	r1, [r5]
 1443 0d98 0022     		movs	r2, #0
 1444 0d9a 01F5DC71 		add	r1, r1, #440
 1445 0d9e 2046     		mov	r0, r4
 1446 0da0 FFF7FEFF 		bl	lv_obj_add_style
 1447 0da4 2968     		ldr	r1, [r5]
 1448 0da6 4FF48032 		mov	r2, #65536
 1449 0daa 0831     		adds	r1, r1, #8
 1450 0dac 2046     		mov	r0, r4
 1451 0dae FFF7FEFF 		bl	lv_obj_add_style
 1452 0db2 2968     		ldr	r1, [r5]
 1453 0db4 674A     		ldr	r2, .L76+12
 1454 0db6 1031     		adds	r1, r1, #16
 1455 0db8 2046     		mov	r0, r4
 1456 0dba FFF7FEFF 		bl	lv_obj_add_style
 1457 0dbe FFF734B9 		b	.L4
 1458              	.L42:
 1459 0dc2 6949     		ldr	r1, .L76+32
 1460 0dc4 2046     		mov	r0, r4
 1461 0dc6 FFF7FEFF 		bl	lv_obj_check_type
 1462 0dca 10B3     		cbz	r0, .L43
 1463 0dcc 604D     		ldr	r5, .L76+8
 1464 0dce 2968     		ldr	r1, [r5]
 1465 0dd0 0022     		movs	r2, #0
 1466 0dd2 01F5D471 		add	r1, r1, #424
 1467 0dd6 2046     		mov	r0, r4
 1468 0dd8 FFF7FEFF 		bl	lv_obj_add_style
 1469 0ddc 2968     		ldr	r1, [r5]
 1470 0dde 2022     		movs	r2, #32
 1471 0de0 01F5F071 		add	r1, r1, #480
 1472 0de4 2046     		mov	r0, r4
 1473 0de6 FFF7FEFF 		bl	lv_obj_add_style
 1474 0dea 2968     		ldr	r1, [r5]
 1475 0dec 2122     		movs	r2, #33
 1476 0dee 3031     		adds	r1, r1, #48
 1477 0df0 2046     		mov	r0, r4
 1478 0df2 FFF7FEFF 		bl	lv_obj_add_style
 1479 0df6 2968     		ldr	r1, [r5]
 1480 0df8 0122     		movs	r2, #1
 1481 0dfa 3031     		adds	r1, r1, #48
 1482 0dfc 2046     		mov	r0, r4
 1483 0dfe FFF7FEFF 		bl	lv_obj_add_style
 1484 0e02 2968     		ldr	r1, [r5]
 1485 0e04 0422     		movs	r2, #4
ARM GAS  /var/folders/lp/x54gwt890xv47sdkqj1k04q40000gn/T//ccyxAmDN.s 			page 27


 1486 0e06 2831     		adds	r1, r1, #40
 1487 0e08 2046     		mov	r0, r4
 1488 0e0a FFF7FEFF 		bl	lv_obj_add_style
 1489 0e0e FFF70CB9 		b	.L4
 1490              	.L43:
 1491 0e12 5649     		ldr	r1, .L76+36
 1492 0e14 2046     		mov	r0, r4
 1493 0e16 FFF7FEFF 		bl	lv_obj_check_type
 1494 0e1a 20B9     		cbnz	r0, .L44
 1495 0e1c 5449     		ldr	r1, .L76+40
 1496 0e1e 2046     		mov	r0, r4
 1497 0e20 FFF7FEFF 		bl	lv_obj_check_type
 1498 0e24 48B1     		cbz	r0, .L45
 1499              	.L44:
 1500 0e26 4A4B     		ldr	r3, .L76+8
 1501 0e28 1968     		ldr	r1, [r3]
 1502 0e2a 0022     		movs	r2, #0
 1503 0e2c 01F5E471 		add	r1, r1, #456
 1504 0e30 2046     		mov	r0, r4
 1505 0e32 FFF7FEFF 		bl	lv_obj_add_style
 1506 0e36 FFF7F8B8 		b	.L4
 1507              	.L45:
 1508 0e3a 4E49     		ldr	r1, .L76+44
 1509 0e3c 2046     		mov	r0, r4
 1510 0e3e FFF7FEFF 		bl	lv_obj_check_type
 1511 0e42 B0B1     		cbz	r0, .L46
 1512 0e44 424D     		ldr	r5, .L76+8
 1513 0e46 2968     		ldr	r1, [r5]
 1514 0e48 0022     		movs	r2, #0
 1515 0e4a 01F5E071 		add	r1, r1, #448
 1516 0e4e 2046     		mov	r0, r4
 1517 0e50 FFF7FEFF 		bl	lv_obj_add_style
 1518 0e54 2968     		ldr	r1, [r5]
 1519 0e56 4FF48032 		mov	r2, #65536
 1520 0e5a 0831     		adds	r1, r1, #8
 1521 0e5c 2046     		mov	r0, r4
 1522 0e5e FFF7FEFF 		bl	lv_obj_add_style
 1523 0e62 2968     		ldr	r1, [r5]
 1524 0e64 3B4A     		ldr	r2, .L76+12
 1525 0e66 1031     		adds	r1, r1, #16
 1526 0e68 2046     		mov	r0, r4
 1527 0e6a FFF7FEFF 		bl	lv_obj_add_style
 1528 0e6e FFF7DCB8 		b	.L4
 1529              	.L46:
 1530 0e72 4149     		ldr	r1, .L76+48
 1531 0e74 2046     		mov	r0, r4
 1532 0e76 FFF7FEFF 		bl	lv_obj_check_type
 1533 0e7a 48B1     		cbz	r0, .L47
 1534 0e7c 344B     		ldr	r3, .L76+8
 1535 0e7e 1968     		ldr	r1, [r3]
 1536 0e80 0022     		movs	r2, #0
 1537 0e82 01F5EC71 		add	r1, r1, #472
 1538 0e86 2046     		mov	r0, r4
 1539 0e88 FFF7FEFF 		bl	lv_obj_add_style
 1540 0e8c FFF7CDB8 		b	.L4
 1541              	.L47:
 1542 0e90 3A49     		ldr	r1, .L76+52
ARM GAS  /var/folders/lp/x54gwt890xv47sdkqj1k04q40000gn/T//ccyxAmDN.s 			page 28


 1543 0e92 2046     		mov	r0, r4
 1544 0e94 FFF7FEFF 		bl	lv_obj_check_type
 1545 0e98 48B1     		cbz	r0, .L48
 1546 0e9a 2D4B     		ldr	r3, .L76+8
 1547 0e9c 1968     		ldr	r1, [r3]
 1548 0e9e 0022     		movs	r2, #0
 1549 0ea0 01F5F471 		add	r1, r1, #488
 1550 0ea4 2046     		mov	r0, r4
 1551 0ea6 FFF7FEFF 		bl	lv_obj_add_style
 1552 0eaa FFF7BEB8 		b	.L4
 1553              	.L48:
 1554 0eae 3449     		ldr	r1, .L76+56
 1555 0eb0 2046     		mov	r0, r4
 1556 0eb2 FFF7FEFF 		bl	lv_obj_check_type
 1557 0eb6 78B1     		cbz	r0, .L49
 1558 0eb8 254D     		ldr	r5, .L76+8
 1559 0eba 2968     		ldr	r1, [r5]
 1560 0ebc 0022     		movs	r2, #0
 1561 0ebe 1831     		adds	r1, r1, #24
 1562 0ec0 2046     		mov	r0, r4
 1563 0ec2 FFF7FEFF 		bl	lv_obj_add_style
 1564 0ec6 2968     		ldr	r1, [r5]
 1565 0ec8 0022     		movs	r2, #0
 1566 0eca 01F5F871 		add	r1, r1, #496
 1567 0ece 2046     		mov	r0, r4
 1568 0ed0 FFF7FEFF 		bl	lv_obj_add_style
 1569 0ed4 FFF7A9B8 		b	.L4
 1570              	.L49:
 1571 0ed8 2A49     		ldr	r1, .L76+60
 1572 0eda 2046     		mov	r0, r4
 1573 0edc FFF7FEFF 		bl	lv_obj_check_type
 1574 0ee0 48B1     		cbz	r0, .L50
 1575 0ee2 1B4B     		ldr	r3, .L76+8
 1576 0ee4 1968     		ldr	r1, [r3]
 1577 0ee6 0022     		movs	r2, #0
 1578 0ee8 01F50071 		add	r1, r1, #512
 1579 0eec 2046     		mov	r0, r4
 1580 0eee FFF7FEFF 		bl	lv_obj_add_style
 1581 0ef2 FFF79AB8 		b	.L4
 1582              	.L50:
 1583 0ef6 2449     		ldr	r1, .L76+64
 1584 0ef8 2046     		mov	r0, r4
 1585 0efa FFF7FEFF 		bl	lv_obj_check_type
 1586 0efe 0028     		cmp	r0, #0
 1587 0f00 44D0     		beq	.L51
 1588 0f02 134D     		ldr	r5, .L76+8
 1589 0f04 2968     		ldr	r1, [r5]
 1590 0f06 0022     		movs	r2, #0
 1591 0f08 1831     		adds	r1, r1, #24
 1592 0f0a 2046     		mov	r0, r4
 1593 0f0c FFF7FEFF 		bl	lv_obj_add_style
 1594 0f10 2968     		ldr	r1, [r5]
 1595 0f12 0022     		movs	r2, #0
 1596 0f14 7831     		adds	r1, r1, #120
 1597 0f16 2046     		mov	r0, r4
 1598 0f18 FFF7FEFF 		bl	lv_obj_add_style
 1599 0f1c 2968     		ldr	r1, [r5]
ARM GAS  /var/folders/lp/x54gwt890xv47sdkqj1k04q40000gn/T//ccyxAmDN.s 			page 29


 1600 0f1e 0422     		movs	r2, #4
 1601 0f20 A031     		adds	r1, r1, #160
 1602 0f22 2046     		mov	r0, r4
 1603 0f24 FFF7FEFF 		bl	lv_obj_add_style
 1604 0f28 2968     		ldr	r1, [r5]
 1605 0f2a 0822     		movs	r2, #8
 1606 0f2c A831     		adds	r1, r1, #168
 1607 0f2e 2046     		mov	r0, r4
 1608 0f30 FFF7FEFF 		bl	lv_obj_add_style
 1609 0f34 2968     		ldr	r1, [r5]
 1610 0f36 4FF4E022 		mov	r2, #458752
 1611 0f3a 2831     		adds	r1, r1, #40
 1612 0f3c 2046     		mov	r0, r4
 1613 0f3e FFF7FEFF 		bl	lv_obj_add_style
 1614 0f42 FFF772B8 		b	.L4
 1615              	.L77:
 1616 0f46 00BF     		.align	2
 1617              	.L76:
 1618 0f48 00000000 		.word	lv_list_class
 1619 0f4c 00000000 		.word	lv_list_text_class
 1620 0f50 00000000 		.word	styles
 1621 0f54 40000100 		.word	65600
 1622 0f58 00000000 		.word	lv_list_btn_class
 1623 0f5c 00000000 		.word	lv_menu_class
 1624 0f60 00000000 		.word	lv_menu_sidebar_cont_class
 1625 0f64 00000000 		.word	lv_menu_main_cont_class
 1626 0f68 00000000 		.word	lv_menu_cont_class
 1627 0f6c 00000000 		.word	lv_menu_sidebar_header_cont_class
 1628 0f70 00000000 		.word	lv_menu_main_header_cont_class
 1629 0f74 00000000 		.word	lv_menu_page_class
 1630 0f78 00000000 		.word	lv_menu_section_class
 1631 0f7c 00000000 		.word	lv_menu_separator_class
 1632 0f80 00000000 		.word	lv_msgbox_class
 1633 0f84 00000000 		.word	lv_msgbox_backdrop_class
 1634 0f88 00000000 		.word	lv_spinbox_class
 1635              	.L51:
 1636 0f8c 4149     		ldr	r1, .L78
 1637 0f8e 2046     		mov	r0, r4
 1638 0f90 FFF7FEFF 		bl	lv_obj_check_type
 1639 0f94 A0B1     		cbz	r0, .L52
 1640 0f96 404D     		ldr	r5, .L78+4
 1641 0f98 0022     		movs	r2, #0
 1642 0f9a 2968     		ldr	r1, [r5]
 1643 0f9c 2046     		mov	r0, r4
 1644 0f9e FFF7FEFF 		bl	lv_obj_add_style
 1645 0fa2 2968     		ldr	r1, [r5]
 1646 0fa4 4FF48032 		mov	r2, #65536
 1647 0fa8 0831     		adds	r1, r1, #8
 1648 0faa 2046     		mov	r0, r4
 1649 0fac FFF7FEFF 		bl	lv_obj_add_style
 1650 0fb0 2968     		ldr	r1, [r5]
 1651 0fb2 3A4A     		ldr	r2, .L78+8
 1652 0fb4 1031     		adds	r1, r1, #16
 1653 0fb6 2046     		mov	r0, r4
 1654 0fb8 FFF7FEFF 		bl	lv_obj_add_style
 1655 0fbc FFF735B8 		b	.L4
 1656              	.L52:
ARM GAS  /var/folders/lp/x54gwt890xv47sdkqj1k04q40000gn/T//ccyxAmDN.s 			page 30


 1657 0fc0 3749     		ldr	r1, .L78+12
 1658 0fc2 2046     		mov	r0, r4
 1659 0fc4 FFF7FEFF 		bl	lv_obj_check_type
 1660 0fc8 78B1     		cbz	r0, .L53
 1661 0fca 334D     		ldr	r5, .L78+4
 1662 0fcc 2968     		ldr	r1, [r5]
 1663 0fce 4FF48032 		mov	r2, #65536
 1664 0fd2 0831     		adds	r1, r1, #8
 1665 0fd4 2046     		mov	r0, r4
 1666 0fd6 FFF7FEFF 		bl	lv_obj_add_style
 1667 0fda 2968     		ldr	r1, [r5]
 1668 0fdc 2F4A     		ldr	r2, .L78+8
 1669 0fde 1031     		adds	r1, r1, #16
 1670 0fe0 2046     		mov	r0, r4
 1671 0fe2 FFF7FEFF 		bl	lv_obj_add_style
 1672 0fe6 FFF720B8 		b	.L4
 1673              	.L53:
 1674 0fea 2E49     		ldr	r1, .L78+16
 1675 0fec 2046     		mov	r0, r4
 1676 0fee FFF7FEFF 		bl	lv_obj_check_type
 1677 0ff2 68B1     		cbz	r0, .L54
 1678 0ff4 284D     		ldr	r5, .L78+4
 1679 0ff6 0022     		movs	r2, #0
 1680 0ff8 2968     		ldr	r1, [r5]
 1681 0ffa 2046     		mov	r0, r4
 1682 0ffc FFF7FEFF 		bl	lv_obj_add_style
 1683 1000 2968     		ldr	r1, [r5]
 1684 1002 0022     		movs	r2, #0
 1685 1004 6831     		adds	r1, r1, #104
 1686 1006 2046     		mov	r0, r4
 1687 1008 FFF7FEFF 		bl	lv_obj_add_style
 1688 100c FFF70DB8 		b	.L4
 1689              	.L54:
 1690 1010 2549     		ldr	r1, .L78+20
 1691 1012 2046     		mov	r0, r4
 1692 1014 FFF7FEFF 		bl	lv_obj_check_type
 1693 1018 40B1     		cbz	r0, .L55
 1694 101a 1F4B     		ldr	r3, .L78+4
 1695 101c 1968     		ldr	r1, [r3]
 1696 101e 0022     		movs	r2, #0
 1697 1020 C031     		adds	r1, r1, #192
 1698 1022 2046     		mov	r0, r4
 1699 1024 FFF7FEFF 		bl	lv_obj_add_style
 1700 1028 FEF7FFBF 		b	.L4
 1701              	.L55:
 1702 102c 1F49     		ldr	r1, .L78+24
 1703 102e 2046     		mov	r0, r4
 1704 1030 FFF7FEFF 		bl	lv_obj_check_type
 1705 1034 E8B1     		cbz	r0, .L56
 1706 1036 184D     		ldr	r5, .L78+4
 1707 1038 2968     		ldr	r1, [r5]
 1708 103a 0022     		movs	r2, #0
 1709 103c 01F5CC71 		add	r1, r1, #408
 1710 1040 2046     		mov	r0, r4
 1711 1042 FFF7FEFF 		bl	lv_obj_add_style
 1712 1046 2968     		ldr	r1, [r5]
 1713 1048 0022     		movs	r2, #0
ARM GAS  /var/folders/lp/x54gwt890xv47sdkqj1k04q40000gn/T//ccyxAmDN.s 			page 31


 1714 104a 8031     		adds	r1, r1, #128
 1715 104c 2046     		mov	r0, r4
 1716 104e FFF7FEFF 		bl	lv_obj_add_style
 1717 1052 2968     		ldr	r1, [r5]
 1718 1054 4FF44032 		mov	r2, #196608
 1719 1058 5031     		adds	r1, r1, #80
 1720 105a 2046     		mov	r0, r4
 1721 105c FFF7FEFF 		bl	lv_obj_add_style
 1722 1060 2968     		ldr	r1, [r5]
 1723 1062 4FF44032 		mov	r2, #196608
 1724 1066 8031     		adds	r1, r1, #128
 1725 1068 2046     		mov	r0, r4
 1726 106a FFF7FEFF 		bl	lv_obj_add_style
 1727 106e FEF7DCBF 		b	.L4
 1728              	.L56:
 1729 1072 0F49     		ldr	r1, .L78+28
 1730 1074 2046     		mov	r0, r4
 1731 1076 FFF7FEFF 		bl	lv_obj_check_type
 1732 107a 0028     		cmp	r0, #0
 1733 107c 3EF4D5AF 		beq	.L4
 1734 1080 054B     		ldr	r3, .L78+4
 1735 1082 1968     		ldr	r1, [r3]
 1736 1084 0022     		movs	r2, #0
 1737 1086 01F51071 		add	r1, r1, #576
 1738 108a 2046     		mov	r0, r4
 1739 108c FFF7FEFF 		bl	lv_obj_add_style
 1740 1090 FEF7CBBF 		b	.L4
 1741              	.L79:
 1742              		.align	2
 1743              	.L78:
 1744 1094 00000000 		.word	lv_tileview_class
 1745 1098 00000000 		.word	styles
 1746 109c 40000100 		.word	65600
 1747 10a0 00000000 		.word	lv_tileview_tile_class
 1748 10a4 00000000 		.word	lv_tabview_class
 1749 10a8 00000000 		.word	lv_win_class
 1750 10ac 00000000 		.word	lv_colorwheel_class
 1751 10b0 00000000 		.word	lv_led_class
 1753              		.section	.text.grey_filter_cb,"ax",%progbits
 1754              		.align	1
 1755              		.syntax unified
 1756              		.thumb
 1757              		.thumb_func
 1759              	grey_filter_cb:
 1760              		@ args = 0, pretend = 0, frame = 0
 1761              		@ frame_needed = 0, uses_anonymous_args = 0
 1762 0000 38B5     		push	{r3, r4, r5, lr}
 1763 0002 0C46     		mov	r4, r1	@ movhi
 1764 0004 1546     		mov	r5, r2
 1765 0006 0B4B     		ldr	r3, .L84
 1766 0008 1B6A     		ldr	r3, [r3, #32]
 1767 000a 13F0010F 		tst	r3, #1
 1768 000e 08D0     		beq	.L81
 1769 0010 0221     		movs	r1, #2
 1770 0012 1220     		movs	r0, #18
 1771 0014 FFF7FEFF 		bl	lv_palette_darken
 1772 0018 2A46     		mov	r2, r5
ARM GAS  /var/folders/lp/x54gwt890xv47sdkqj1k04q40000gn/T//ccyxAmDN.s 			page 32


 1773 001a 2146     		mov	r1, r4	@ movhi
 1774 001c FFF7FEFF 		bl	lv_color_mix
 1775              	.L82:
 1776 0020 38BD     		pop	{r3, r4, r5, pc}
 1777              	.L81:
 1778 0022 0221     		movs	r1, #2
 1779 0024 1220     		movs	r0, #18
 1780 0026 FFF7FEFF 		bl	lv_palette_lighten
 1781 002a 2A46     		mov	r2, r5
 1782 002c 2146     		mov	r1, r4	@ movhi
 1783 002e FFF7FEFF 		bl	lv_color_mix
 1784 0032 F5E7     		b	.L82
 1785              	.L85:
 1786              		.align	2
 1787              	.L84:
 1788 0034 00000000 		.word	theme
 1790              		.section	.text.lv_style_set_pad_gap,"ax",%progbits
 1791              		.align	1
 1792              		.syntax unified
 1793              		.thumb
 1794              		.thumb_func
 1796              	lv_style_set_pad_gap:
 1797              		@ args = 0, pretend = 0, frame = 0
 1798              		@ frame_needed = 0, uses_anonymous_args = 0
 1799 0000 38B5     		push	{r3, r4, r5, lr}
 1800 0002 0446     		mov	r4, r0
 1801 0004 0D46     		mov	r5, r1
 1802 0006 FFF7FEFF 		bl	lv_style_set_pad_row
 1803 000a 2946     		mov	r1, r5
 1804 000c 2046     		mov	r0, r4
 1805 000e FFF7FEFF 		bl	lv_style_set_pad_column
 1806 0012 38BD     		pop	{r3, r4, r5, pc}
 1808              		.section	.text.lv_disp_dpx,"ax",%progbits
 1809              		.align	1
 1810              		.syntax unified
 1811              		.thumb
 1812              		.thumb_func
 1814              	lv_disp_dpx:
 1815              		@ args = 0, pretend = 0, frame = 0
 1816              		@ frame_needed = 0, uses_anonymous_args = 0
 1817 0000 38B5     		push	{r3, r4, r5, lr}
 1818 0002 0C46     		mov	r4, r1
 1819 0004 09B9     		cbnz	r1, .L92
 1820              	.L89:
 1821 0006 2046     		mov	r0, r4
 1822 0008 38BD     		pop	{r3, r4, r5, pc}
 1823              	.L92:
 1824 000a 0546     		mov	r5, r0
 1825 000c FFF7FEFF 		bl	lv_disp_get_dpi
 1826 0010 04FB00F0 		mul	r0, r4, r0
 1827 0014 EF28     		cmp	r0, #239
 1828 0016 01DC     		bgt	.L93
 1829 0018 0124     		movs	r4, #1
 1830 001a F4E7     		b	.L89
 1831              	.L93:
 1832 001c 2846     		mov	r0, r5
 1833 001e FFF7FEFF 		bl	lv_disp_get_dpi
ARM GAS  /var/folders/lp/x54gwt890xv47sdkqj1k04q40000gn/T//ccyxAmDN.s 			page 33


 1834 0022 00FB04F4 		mul	r4, r0, r4
 1835 0026 5034     		adds	r4, r4, #80
 1836 0028 034B     		ldr	r3, .L94
 1837 002a 83FB0423 		smull	r2, r3, r3, r4
 1838 002e E417     		asrs	r4, r4, #31
 1839 0030 C4EBA314 		rsb	r4, r4, r3, asr #6
 1840 0034 24B2     		sxth	r4, r4
 1841 0036 E6E7     		b	.L89
 1842              	.L95:
 1843              		.align	2
 1844              	.L94:
 1845 0038 67666666 		.word	1717986919
 1847              		.section	.text.lv_style_set_pad_ver,"ax",%progbits
 1848              		.align	1
 1849              		.syntax unified
 1850              		.thumb
 1851              		.thumb_func
 1853              	lv_style_set_pad_ver:
 1854              		@ args = 0, pretend = 0, frame = 0
 1855              		@ frame_needed = 0, uses_anonymous_args = 0
 1856 0000 38B5     		push	{r3, r4, r5, lr}
 1857 0002 0446     		mov	r4, r0
 1858 0004 0D46     		mov	r5, r1
 1859 0006 FFF7FEFF 		bl	lv_style_set_pad_top
 1860 000a 2946     		mov	r1, r5
 1861 000c 2046     		mov	r0, r4
 1862 000e FFF7FEFF 		bl	lv_style_set_pad_bottom
 1863 0012 38BD     		pop	{r3, r4, r5, pc}
 1865              		.section	.text.dark_color_filter_cb,"ax",%progbits
 1866              		.align	1
 1867              		.syntax unified
 1868              		.thumb
 1869              		.thumb_func
 1871              	dark_color_filter_cb:
 1872              		@ args = 0, pretend = 0, frame = 0
 1873              		@ frame_needed = 0, uses_anonymous_args = 0
 1874 0000 08B5     		push	{r3, lr}
 1875 0002 0846     		mov	r0, r1	@ movhi
 1876 0004 1146     		mov	r1, r2
 1877 0006 FFF7FEFF 		bl	lv_color_darken
 1878 000a 08BD     		pop	{r3, pc}
 1880              		.section	.text.lv_style_set_size,"ax",%progbits
 1881              		.align	1
 1882              		.syntax unified
 1883              		.thumb
 1884              		.thumb_func
 1886              	lv_style_set_size:
 1887              		@ args = 0, pretend = 0, frame = 0
 1888              		@ frame_needed = 0, uses_anonymous_args = 0
 1889 0000 38B5     		push	{r3, r4, r5, lr}
 1890 0002 0446     		mov	r4, r0
 1891 0004 0D46     		mov	r5, r1
 1892 0006 FFF7FEFF 		bl	lv_style_set_width
 1893 000a 2946     		mov	r1, r5
 1894 000c 2046     		mov	r0, r4
 1895 000e FFF7FEFF 		bl	lv_style_set_height
 1896 0012 38BD     		pop	{r3, r4, r5, pc}
ARM GAS  /var/folders/lp/x54gwt890xv47sdkqj1k04q40000gn/T//ccyxAmDN.s 			page 34


 1898              		.section	.text.lv_style_set_pad_hor,"ax",%progbits
 1899              		.align	1
 1900              		.syntax unified
 1901              		.thumb
 1902              		.thumb_func
 1904              	lv_style_set_pad_hor:
 1905              		@ args = 0, pretend = 0, frame = 0
 1906              		@ frame_needed = 0, uses_anonymous_args = 0
 1907 0000 38B5     		push	{r3, r4, r5, lr}
 1908 0002 0446     		mov	r4, r0
 1909 0004 0D46     		mov	r5, r1
 1910 0006 FFF7FEFF 		bl	lv_style_set_pad_left
 1911 000a 2946     		mov	r1, r5
 1912 000c 2046     		mov	r0, r4
 1913 000e FFF7FEFF 		bl	lv_style_set_pad_right
 1914 0012 38BD     		pop	{r3, r4, r5, pc}
 1916              		.section	.text.lv_style_set_pad_all,"ax",%progbits
 1917              		.align	1
 1918              		.syntax unified
 1919              		.thumb
 1920              		.thumb_func
 1922              	lv_style_set_pad_all:
 1923              		@ args = 0, pretend = 0, frame = 0
 1924              		@ frame_needed = 0, uses_anonymous_args = 0
 1925 0000 38B5     		push	{r3, r4, r5, lr}
 1926 0002 0446     		mov	r4, r0
 1927 0004 0D46     		mov	r5, r1
 1928 0006 FFF7FEFF 		bl	lv_style_set_pad_left
 1929 000a 2946     		mov	r1, r5
 1930 000c 2046     		mov	r0, r4
 1931 000e FFF7FEFF 		bl	lv_style_set_pad_right
 1932 0012 2946     		mov	r1, r5
 1933 0014 2046     		mov	r0, r4
 1934 0016 FFF7FEFF 		bl	lv_style_set_pad_top
 1935 001a 2946     		mov	r1, r5
 1936 001c 2046     		mov	r0, r4
 1937 001e FFF7FEFF 		bl	lv_style_set_pad_bottom
 1938 0022 38BD     		pop	{r3, r4, r5, pc}
 1940              		.section	.text.style_init_reset,"ax",%progbits
 1941              		.align	1
 1942              		.syntax unified
 1943              		.thumb
 1944              		.thumb_func
 1946              	style_init_reset:
 1947              		@ args = 0, pretend = 0, frame = 0
 1948              		@ frame_needed = 0, uses_anonymous_args = 0
 1949 0000 08B5     		push	{r3, lr}
 1950 0002 044B     		ldr	r3, .L110
 1951 0004 1B78     		ldrb	r3, [r3]	@ zero_extendqisi2
 1952 0006 13B1     		cbz	r3, .L107
 1953 0008 FFF7FEFF 		bl	lv_style_reset
 1954              	.L106:
 1955 000c 08BD     		pop	{r3, pc}
 1956              	.L107:
 1957 000e FFF7FEFF 		bl	lv_style_init
 1958 0012 FBE7     		b	.L106
 1959              	.L111:
ARM GAS  /var/folders/lp/x54gwt890xv47sdkqj1k04q40000gn/T//ccyxAmDN.s 			page 35


 1960              		.align	2
 1961              	.L110:
 1962 0014 00000000 		.word	inited
 1964              		.section	.rodata.style_init.str1.4,"aMS",%progbits,1
 1965              		.align	2
 1966              	.LC0:
 1967 0000 EF808C00 		.ascii	"\357\200\214\000"
 1968              		.section	.text.style_init,"ax",%progbits
 1969              		.align	1
 1970              		.syntax unified
 1971              		.thumb
 1972              		.thumb_func
 1974              	style_init:
 1975              		@ args = 0, pretend = 0, frame = 0
 1976              		@ frame_needed = 0, uses_anonymous_args = 0
 1977 0000 2DE9F043 		push	{r4, r5, r6, r7, r8, r9, lr}
 1978 0004 83B0     		sub	sp, sp, #12
 1979 0006 BE4B     		ldr	r3, .L325
 1980 0008 1B6A     		ldr	r3, [r3, #32]
 1981 000a 13F0010F 		tst	r3, #1
 1982 000e 01F00C82 		beq	.L113
 1983 0012 4AF21032 		movw	r2, #41744
 1984 0016 BB4B     		ldr	r3, .L325+4
 1985 0018 1A80     		strh	r2, [r3]	@ movhi
 1986              	.L114:
 1987 001a B94B     		ldr	r3, .L325
 1988 001c 1B6A     		ldr	r3, [r3, #32]
 1989 001e 13F0010F 		tst	r3, #1
 1990 0022 01F00A82 		beq	.L115
 1991 0026 0521     		movs	r1, #5
 1992 0028 1220     		movs	r0, #18
 1993 002a FFF7FEFF 		bl	lv_palette_lighten
 1994 002e B64B     		ldr	r3, .L325+8
 1995 0030 1880     		strh	r0, [r3]	@ movhi
 1996              	.L116:
 1997 0032 B34B     		ldr	r3, .L325
 1998 0034 1B6A     		ldr	r3, [r3, #32]
 1999 0036 13F00103 		ands	r3, r3, #1
 2000 003a 01F00682 		beq	.L117
 2001 003e 44F22961 		movw	r1, #17961
 2002 0042 B24A     		ldr	r2, .L325+12
 2003 0044 1180     		strh	r1, [r2]	@ movhi
 2004              	.L118:
 2005 0046 002B     		cmp	r3, #0
 2006 0048 01F00582 		beq	.L119
 2007 004c 48F22962 		movw	r2, #34345
 2008 0050 AF4B     		ldr	r3, .L325+16
 2009 0052 1A80     		strh	r2, [r3]	@ movhi
 2010              	.L120:
 2011 0054 AF4C     		ldr	r4, .L325+20
 2012 0056 2068     		ldr	r0, [r4]
 2013 0058 D030     		adds	r0, r0, #208
 2014 005a FFF7FEFF 		bl	style_init_reset
 2015 005e 2068     		ldr	r0, [r4]
 2016 0060 D830     		adds	r0, r0, #216
 2017 0062 FFF7FEFF 		bl	style_init_reset
 2018 0066 DFF8BC92 		ldr	r9, .L325+36
ARM GAS  /var/folders/lp/x54gwt890xv47sdkqj1k04q40000gn/T//ccyxAmDN.s 			page 36


 2019 006a DFF8BC82 		ldr	r8, .L325+40
 2020 006e AA4F     		ldr	r7, .L325+24
 2021 0070 0025     		movs	r5, #0
 2022 0072 0195     		str	r5, [sp, #4]
 2023 0074 4623     		movs	r3, #70
 2024 0076 0093     		str	r3, [sp]
 2025 0078 5023     		movs	r3, #80
 2026 007a 4A46     		mov	r2, r9
 2027 007c 4146     		mov	r1, r8
 2028 007e 3846     		mov	r0, r7
 2029 0080 FFF7FEFF 		bl	lv_style_transition_dsc_init
 2030 0084 A54E     		ldr	r6, .L325+28
 2031 0086 0195     		str	r5, [sp, #4]
 2032 0088 0095     		str	r5, [sp]
 2033 008a 5023     		movs	r3, #80
 2034 008c 4A46     		mov	r2, r9
 2035 008e 4146     		mov	r1, r8
 2036 0090 3046     		mov	r0, r6
 2037 0092 FFF7FEFF 		bl	lv_style_transition_dsc_init
 2038 0096 2068     		ldr	r0, [r4]
 2039 0098 3946     		mov	r1, r7
 2040 009a D030     		adds	r0, r0, #208
 2041 009c FFF7FEFF 		bl	lv_style_set_transition
 2042 00a0 2068     		ldr	r0, [r4]
 2043 00a2 3146     		mov	r1, r6
 2044 00a4 D830     		adds	r0, r0, #216
 2045 00a6 FFF7FEFF 		bl	lv_style_set_transition
 2046 00aa 2068     		ldr	r0, [r4]
 2047 00ac 0830     		adds	r0, r0, #8
 2048 00ae FFF7FEFF 		bl	style_init_reset
 2049 00b2 934B     		ldr	r3, .L325
 2050 00b4 1B6A     		ldr	r3, [r3, #32]
 2051 00b6 13F0010F 		tst	r3, #1
 2052 00ba 01F0D481 		beq	.L121
 2053 00be 0221     		movs	r1, #2
 2054 00c0 1220     		movs	r0, #18
 2055 00c2 FFF7FEFF 		bl	lv_palette_darken
 2056 00c6 0146     		mov	r1, r0	@ movhi
 2057              	.L122:
 2058 00c8 924C     		ldr	r4, .L325+20
 2059 00ca 2068     		ldr	r0, [r4]
 2060 00cc 0830     		adds	r0, r0, #8
 2061 00ce FFF7FEFF 		bl	lv_style_set_bg_color
 2062 00d2 2068     		ldr	r0, [r4]
 2063 00d4 47F6FF71 		movw	r1, #32767
 2064 00d8 0830     		adds	r0, r0, #8
 2065 00da FFF7FEFF 		bl	lv_style_set_radius
 2066 00de 2668     		ldr	r6, [r4]
 2067 00e0 874D     		ldr	r5, .L325
 2068 00e2 0721     		movs	r1, #7
 2069 00e4 E868     		ldr	r0, [r5, #12]
 2070 00e6 FFF7FEFF 		bl	lv_disp_dpx
 2071 00ea 0146     		mov	r1, r0
 2072 00ec 06F10800 		add	r0, r6, #8
 2073 00f0 FFF7FEFF 		bl	lv_style_set_pad_all
 2074 00f4 2668     		ldr	r6, [r4]
 2075 00f6 0521     		movs	r1, #5
ARM GAS  /var/folders/lp/x54gwt890xv47sdkqj1k04q40000gn/T//ccyxAmDN.s 			page 37


 2076 00f8 E868     		ldr	r0, [r5, #12]
 2077 00fa FFF7FEFF 		bl	lv_disp_dpx
 2078 00fe 0146     		mov	r1, r0
 2079 0100 06F10800 		add	r0, r6, #8
 2080 0104 FFF7FEFF 		bl	lv_style_set_width
 2081 0108 2068     		ldr	r0, [r4]
 2082 010a 6621     		movs	r1, #102
 2083 010c 0830     		adds	r0, r0, #8
 2084 010e FFF7FEFF 		bl	lv_style_set_bg_opa
 2085 0112 2068     		ldr	r0, [r4]
 2086 0114 8149     		ldr	r1, .L325+28
 2087 0116 0830     		adds	r0, r0, #8
 2088 0118 FFF7FEFF 		bl	lv_style_set_transition
 2089 011c 2068     		ldr	r0, [r4]
 2090 011e 1030     		adds	r0, r0, #16
 2091 0120 FFF7FEFF 		bl	style_init_reset
 2092 0124 2068     		ldr	r0, [r4]
 2093 0126 FF21     		movs	r1, #255
 2094 0128 1030     		adds	r0, r0, #16
 2095 012a FFF7FEFF 		bl	lv_style_set_bg_opa
 2096 012e 2068     		ldr	r0, [r4]
 2097 0130 FFF7FEFF 		bl	style_init_reset
 2098 0134 FF21     		movs	r1, #255
 2099 0136 2068     		ldr	r0, [r4]
 2100 0138 FFF7FEFF 		bl	lv_style_set_bg_opa
 2101 013c 714B     		ldr	r3, .L325+4
 2102 013e 1988     		ldrh	r1, [r3]
 2103 0140 2068     		ldr	r0, [r4]
 2104 0142 FFF7FEFF 		bl	lv_style_set_bg_color
 2105 0146 704B     		ldr	r3, .L325+8
 2106 0148 1988     		ldrh	r1, [r3]
 2107 014a 2068     		ldr	r0, [r4]
 2108 014c FFF7FEFF 		bl	lv_style_set_text_color
 2109 0150 2468     		ldr	r4, [r4]
 2110 0152 734B     		ldr	r3, .L325+32
 2111 0154 1B78     		ldrb	r3, [r3]	@ zero_extendqisi2
 2112 0156 012B     		cmp	r3, #1
 2113 0158 01F08B81 		beq	.L246
 2114 015c 022B     		cmp	r3, #2
 2115 015e 01F08F81 		beq	.L247
 2116 0162 0A21     		movs	r1, #10
 2117 0164 664B     		ldr	r3, .L325
 2118 0166 D868     		ldr	r0, [r3, #12]
 2119 0168 FFF7FEFF 		bl	lv_disp_dpx
 2120 016c 0146     		mov	r1, r0
 2121              	.L124:
 2122 016e 2046     		mov	r0, r4
 2123 0170 FFF7FEFF 		bl	lv_style_set_pad_row
 2124 0174 674B     		ldr	r3, .L325+20
 2125 0176 1C68     		ldr	r4, [r3]
 2126 0178 694B     		ldr	r3, .L325+32
 2127 017a 1B78     		ldrb	r3, [r3]	@ zero_extendqisi2
 2128 017c 012B     		cmp	r3, #1
 2129 017e 01F08781 		beq	.L248
 2130 0182 022B     		cmp	r3, #2
 2131 0184 01F08C81 		beq	.L249
 2132 0188 0A21     		movs	r1, #10
ARM GAS  /var/folders/lp/x54gwt890xv47sdkqj1k04q40000gn/T//ccyxAmDN.s 			page 38


 2133 018a 5D4B     		ldr	r3, .L325
 2134 018c D868     		ldr	r0, [r3, #12]
 2135 018e FFF7FEFF 		bl	lv_disp_dpx
 2136 0192 0146     		mov	r1, r0
 2137              	.L127:
 2138 0194 2046     		mov	r0, r4
 2139 0196 FFF7FEFF 		bl	lv_style_set_pad_column
 2140 019a 5E4C     		ldr	r4, .L325+20
 2141 019c 2068     		ldr	r0, [r4]
 2142 019e 1830     		adds	r0, r0, #24
 2143 01a0 FFF7FEFF 		bl	style_init_reset
 2144 01a4 2468     		ldr	r4, [r4]
 2145 01a6 1834     		adds	r4, r4, #24
 2146 01a8 5D4B     		ldr	r3, .L325+32
 2147 01aa 1B78     		ldrb	r3, [r3]	@ zero_extendqisi2
 2148 01ac 012B     		cmp	r3, #1
 2149 01ae 01F07F81 		beq	.L250
 2150 01b2 0821     		movs	r1, #8
 2151 01b4 524B     		ldr	r3, .L325
 2152 01b6 D868     		ldr	r0, [r3, #12]
 2153 01b8 FFF7FEFF 		bl	lv_disp_dpx
 2154 01bc 0146     		mov	r1, r0
 2155              	.L130:
 2156 01be 2046     		mov	r0, r4
 2157 01c0 FFF7FEFF 		bl	lv_style_set_radius
 2158 01c4 534C     		ldr	r4, .L325+20
 2159 01c6 2068     		ldr	r0, [r4]
 2160 01c8 FF21     		movs	r1, #255
 2161 01ca 1830     		adds	r0, r0, #24
 2162 01cc FFF7FEFF 		bl	lv_style_set_bg_opa
 2163 01d0 2068     		ldr	r0, [r4]
 2164 01d2 4E4B     		ldr	r3, .L325+12
 2165 01d4 1988     		ldrh	r1, [r3]
 2166 01d6 1830     		adds	r0, r0, #24
 2167 01d8 FFF7FEFF 		bl	lv_style_set_bg_color
 2168 01dc 2068     		ldr	r0, [r4]
 2169 01de 4C4B     		ldr	r3, .L325+16
 2170 01e0 1988     		ldrh	r1, [r3]
 2171 01e2 1830     		adds	r0, r0, #24
 2172 01e4 FFF7FEFF 		bl	lv_style_set_border_color
 2173 01e8 2568     		ldr	r5, [r4]
 2174 01ea 0221     		movs	r1, #2
 2175 01ec 444B     		ldr	r3, .L325
 2176 01ee D868     		ldr	r0, [r3, #12]
 2177 01f0 FFF7FEFF 		bl	lv_disp_dpx
 2178 01f4 0146     		mov	r1, r0
 2179 01f6 05F11800 		add	r0, r5, #24
 2180 01fa FFF7FEFF 		bl	lv_style_set_border_width
 2181 01fe 2068     		ldr	r0, [r4]
 2182 0200 0121     		movs	r1, #1
 2183 0202 1830     		adds	r0, r0, #24
 2184 0204 FFF7FEFF 		bl	lv_style_set_border_post
 2185 0208 2068     		ldr	r0, [r4]
 2186 020a 3F4B     		ldr	r3, .L325+8
 2187 020c 1988     		ldrh	r1, [r3]
 2188 020e 1830     		adds	r0, r0, #24
 2189 0210 FFF7FEFF 		bl	lv_style_set_text_color
ARM GAS  /var/folders/lp/x54gwt890xv47sdkqj1k04q40000gn/T//ccyxAmDN.s 			page 39


 2190 0214 2468     		ldr	r4, [r4]
 2191 0216 1834     		adds	r4, r4, #24
 2192 0218 414B     		ldr	r3, .L325+32
 2193 021a 1B78     		ldrb	r3, [r3]	@ zero_extendqisi2
 2194 021c 012B     		cmp	r3, #1
 2195 021e 01F04F81 		beq	.L251
 2196 0222 022B     		cmp	r3, #2
 2197 0224 01F05481 		beq	.L252
 2198 0228 1021     		movs	r1, #16
 2199 022a 354B     		ldr	r3, .L325
 2200 022c D868     		ldr	r0, [r3, #12]
 2201 022e FFF7FEFF 		bl	lv_disp_dpx
 2202 0232 0146     		mov	r1, r0
 2203              	.L132:
 2204 0234 2046     		mov	r0, r4
 2205 0236 FFF7FEFF 		bl	lv_style_set_pad_all
 2206 023a 364B     		ldr	r3, .L325+20
 2207 023c 1C68     		ldr	r4, [r3]
 2208 023e 1834     		adds	r4, r4, #24
 2209 0240 374B     		ldr	r3, .L325+32
 2210 0242 1B78     		ldrb	r3, [r3]	@ zero_extendqisi2
 2211 0244 012B     		cmp	r3, #1
 2212 0246 01F04B81 		beq	.L253
 2213 024a 022B     		cmp	r3, #2
 2214 024c 01F05081 		beq	.L254
 2215 0250 0A21     		movs	r1, #10
 2216 0252 2B4B     		ldr	r3, .L325
 2217 0254 D868     		ldr	r0, [r3, #12]
 2218 0256 FFF7FEFF 		bl	lv_disp_dpx
 2219 025a 0146     		mov	r1, r0
 2220              	.L135:
 2221 025c 2046     		mov	r0, r4
 2222 025e FFF7FEFF 		bl	lv_style_set_pad_row
 2223 0262 2C4B     		ldr	r3, .L325+20
 2224 0264 1C68     		ldr	r4, [r3]
 2225 0266 1834     		adds	r4, r4, #24
 2226 0268 2D4B     		ldr	r3, .L325+32
 2227 026a 1B78     		ldrb	r3, [r3]	@ zero_extendqisi2
 2228 026c 012B     		cmp	r3, #1
 2229 026e 01F04781 		beq	.L255
 2230 0272 022B     		cmp	r3, #2
 2231 0274 01F04C81 		beq	.L256
 2232 0278 0A21     		movs	r1, #10
 2233 027a 214B     		ldr	r3, .L325
 2234 027c D868     		ldr	r0, [r3, #12]
 2235 027e FFF7FEFF 		bl	lv_disp_dpx
 2236 0282 0146     		mov	r1, r0
 2237              	.L138:
 2238 0284 2046     		mov	r0, r4
 2239 0286 FFF7FEFF 		bl	lv_style_set_pad_column
 2240 028a 224C     		ldr	r4, .L325+20
 2241 028c 2568     		ldr	r5, [r4]
 2242 028e 1220     		movs	r0, #18
 2243 0290 FFF7FEFF 		bl	lv_palette_main
 2244 0294 0146     		mov	r1, r0	@ movhi
 2245 0296 05F11800 		add	r0, r5, #24
 2246 029a FFF7FEFF 		bl	lv_style_set_line_color
ARM GAS  /var/folders/lp/x54gwt890xv47sdkqj1k04q40000gn/T//ccyxAmDN.s 			page 40


 2247 029e 2668     		ldr	r6, [r4]
 2248 02a0 174D     		ldr	r5, .L325
 2249 02a2 0121     		movs	r1, #1
 2250 02a4 E868     		ldr	r0, [r5, #12]
 2251 02a6 FFF7FEFF 		bl	lv_disp_dpx
 2252 02aa 0146     		mov	r1, r0
 2253 02ac 06F11800 		add	r0, r6, #24
 2254 02b0 FFF7FEFF 		bl	lv_style_set_line_width
 2255 02b4 2068     		ldr	r0, [r4]
 2256 02b6 A030     		adds	r0, r0, #160
 2257 02b8 FFF7FEFF 		bl	style_init_reset
 2258 02bc 2068     		ldr	r0, [r4]
 2259 02be 298A     		ldrh	r1, [r5, #16]
 2260 02c0 A030     		adds	r0, r0, #160
 2261 02c2 FFF7FEFF 		bl	lv_style_set_outline_color
 2262 02c6 2668     		ldr	r6, [r4]
 2263 02c8 0321     		movs	r1, #3
 2264 02ca E868     		ldr	r0, [r5, #12]
 2265 02cc FFF7FEFF 		bl	lv_disp_dpx
 2266 02d0 0146     		mov	r1, r0
 2267 02d2 06F1A000 		add	r0, r6, #160
 2268 02d6 FFF7FEFF 		bl	lv_style_set_outline_width
 2269 02da 2668     		ldr	r6, [r4]
 2270 02dc 0321     		movs	r1, #3
 2271 02de E868     		ldr	r0, [r5, #12]
 2272 02e0 FFF7FEFF 		bl	lv_disp_dpx
 2273 02e4 0146     		mov	r1, r0
 2274 02e6 06F1A000 		add	r0, r6, #160
 2275 02ea FFF7FEFF 		bl	lv_style_set_outline_pad
 2276 02ee 2068     		ldr	r0, [r4]
 2277 02f0 7F21     		movs	r1, #127
 2278 02f2 A030     		adds	r0, r0, #160
 2279 02f4 FFF7FEFF 		bl	lv_style_set_outline_opa
 2280 02f8 2068     		ldr	r0, [r4]
 2281 02fa A830     		adds	r0, r0, #168
 2282 02fc 16E0     		b	.L326
 2283              	.L327:
 2284 02fe 00BF     		.align	2
 2285              	.L325:
 2286 0300 00000000 		.word	theme
 2287 0304 00000000 		.word	color_scr
 2288 0308 00000000 		.word	color_text
 2289 030c 00000000 		.word	color_card
 2290 0310 00000000 		.word	color_grey
 2291 0314 00000000 		.word	styles
 2292 0318 00000000 		.word	trans_delayed.4
 2293 031c 00000000 		.word	trans_normal.2
 2294 0320 00000000 		.word	disp_size
 2295 0324 00000000 		.word	lv_anim_path_linear
 2296 0328 00000000 		.word	trans_props.3
 2297              	.L326:
 2298 032c FFF7FEFF 		bl	style_init_reset
 2299 0330 2068     		ldr	r0, [r4]
 2300 0332 698A     		ldrh	r1, [r5, #18]
 2301 0334 A830     		adds	r0, r0, #168
 2302 0336 FFF7FEFF 		bl	lv_style_set_outline_color
 2303 033a 2668     		ldr	r6, [r4]
ARM GAS  /var/folders/lp/x54gwt890xv47sdkqj1k04q40000gn/T//ccyxAmDN.s 			page 41


 2304 033c 0321     		movs	r1, #3
 2305 033e E868     		ldr	r0, [r5, #12]
 2306 0340 FFF7FEFF 		bl	lv_disp_dpx
 2307 0344 0146     		mov	r1, r0
 2308 0346 06F1A800 		add	r0, r6, #168
 2309 034a FFF7FEFF 		bl	lv_style_set_outline_width
 2310 034e 2068     		ldr	r0, [r4]
 2311 0350 7F21     		movs	r1, #127
 2312 0352 A830     		adds	r0, r0, #168
 2313 0354 FFF7FEFF 		bl	lv_style_set_outline_opa
 2314 0358 2068     		ldr	r0, [r4]
 2315 035a 2030     		adds	r0, r0, #32
 2316 035c FFF7FEFF 		bl	style_init_reset
 2317 0360 2468     		ldr	r4, [r4]
 2318 0362 2034     		adds	r4, r4, #32
 2319 0364 BB4B     		ldr	r3, .L328
 2320 0366 1B78     		ldrb	r3, [r3]	@ zero_extendqisi2
 2321 0368 012B     		cmp	r3, #1
 2322 036a 01F0D980 		beq	.L257
 2323 036e 022B     		cmp	r3, #2
 2324 0370 01F0DD80 		beq	.L258
 2325 0374 0821     		movs	r1, #8
 2326 0376 B84B     		ldr	r3, .L328+4
 2327 0378 D868     		ldr	r0, [r3, #12]
 2328 037a FFF7FEFF 		bl	lv_disp_dpx
 2329 037e 0146     		mov	r1, r0
 2330              	.L141:
 2331 0380 2046     		mov	r0, r4
 2332 0382 FFF7FEFF 		bl	lv_style_set_radius
 2333 0386 B54C     		ldr	r4, .L328+8
 2334 0388 2068     		ldr	r0, [r4]
 2335 038a FF21     		movs	r1, #255
 2336 038c 2030     		adds	r0, r0, #32
 2337 038e FFF7FEFF 		bl	lv_style_set_bg_opa
 2338 0392 2068     		ldr	r0, [r4]
 2339 0394 B24B     		ldr	r3, .L328+12
 2340 0396 1988     		ldrh	r1, [r3]
 2341 0398 2030     		adds	r0, r0, #32
 2342 039a FFF7FEFF 		bl	lv_style_set_bg_color
 2343 039e AE4B     		ldr	r3, .L328+4
 2344 03a0 1B6A     		ldr	r3, [r3, #32]
 2345 03a2 13F0010F 		tst	r3, #1
 2346 03a6 01F0CA80 		beq	.L259
 2347              	.L143:
 2348 03aa AC4C     		ldr	r4, .L328+8
 2349 03ac 2068     		ldr	r0, [r4]
 2350 03ae AD4B     		ldr	r3, .L328+16
 2351 03b0 1988     		ldrh	r1, [r3]
 2352 03b2 2030     		adds	r0, r0, #32
 2353 03b4 FFF7FEFF 		bl	lv_style_set_text_color
 2354 03b8 2468     		ldr	r4, [r4]
 2355 03ba 2034     		adds	r4, r4, #32
 2356 03bc A54B     		ldr	r3, .L328
 2357 03be 1B78     		ldrb	r3, [r3]	@ zero_extendqisi2
 2358 03c0 012B     		cmp	r3, #1
 2359 03c2 01F00681 		beq	.L260
 2360 03c6 022B     		cmp	r3, #2
ARM GAS  /var/folders/lp/x54gwt890xv47sdkqj1k04q40000gn/T//ccyxAmDN.s 			page 42


 2361 03c8 01F00B81 		beq	.L261
 2362 03cc 1021     		movs	r1, #16
 2363 03ce A24B     		ldr	r3, .L328+4
 2364 03d0 D868     		ldr	r0, [r3, #12]
 2365 03d2 FFF7FEFF 		bl	lv_disp_dpx
 2366 03d6 0146     		mov	r1, r0
 2367              	.L147:
 2368 03d8 2046     		mov	r0, r4
 2369 03da FFF7FEFF 		bl	lv_style_set_pad_hor
 2370 03de 9F4B     		ldr	r3, .L328+8
 2371 03e0 1C68     		ldr	r4, [r3]
 2372 03e2 2034     		adds	r4, r4, #32
 2373 03e4 9B4B     		ldr	r3, .L328
 2374 03e6 1B78     		ldrb	r3, [r3]	@ zero_extendqisi2
 2375 03e8 012B     		cmp	r3, #1
 2376 03ea 01F00281 		beq	.L262
 2377 03ee 022B     		cmp	r3, #2
 2378 03f0 01F00781 		beq	.L263
 2379 03f4 0A21     		movs	r1, #10
 2380 03f6 984B     		ldr	r3, .L328+4
 2381 03f8 D868     		ldr	r0, [r3, #12]
 2382 03fa FFF7FEFF 		bl	lv_disp_dpx
 2383 03fe 0146     		mov	r1, r0
 2384              	.L150:
 2385 0400 2046     		mov	r0, r4
 2386 0402 FFF7FEFF 		bl	lv_style_set_pad_ver
 2387 0406 954C     		ldr	r4, .L328+8
 2388 0408 2668     		ldr	r6, [r4]
 2389 040a 934D     		ldr	r5, .L328+4
 2390 040c 0521     		movs	r1, #5
 2391 040e E868     		ldr	r0, [r5, #12]
 2392 0410 FFF7FEFF 		bl	lv_disp_dpx
 2393 0414 0146     		mov	r1, r0
 2394 0416 06F12000 		add	r0, r6, #32
 2395 041a FFF7FEFF 		bl	lv_style_set_pad_column
 2396 041e 2668     		ldr	r6, [r4]
 2397 0420 0521     		movs	r1, #5
 2398 0422 E868     		ldr	r0, [r5, #12]
 2399 0424 FFF7FEFF 		bl	lv_disp_dpx
 2400 0428 0146     		mov	r1, r0
 2401 042a 06F12000 		add	r0, r6, #32
 2402 042e FFF7FEFF 		bl	lv_style_set_pad_row
 2403 0432 8D4D     		ldr	r5, .L328+20
 2404 0434 8D4B     		ldr	r3, .L328+24
 2405 0436 2B60     		str	r3, [r5]
 2406 0438 8D4E     		ldr	r6, .L328+28
 2407 043a 8E4B     		ldr	r3, .L328+32
 2408 043c 3360     		str	r3, [r6]
 2409 043e 2068     		ldr	r0, [r4]
 2410 0440 5830     		adds	r0, r0, #88
 2411 0442 FFF7FEFF 		bl	style_init_reset
 2412 0446 2068     		ldr	r0, [r4]
 2413 0448 2946     		mov	r1, r5
 2414 044a 5830     		adds	r0, r0, #88
 2415 044c FFF7FEFF 		bl	lv_style_set_color_filter_dsc
 2416 0450 2068     		ldr	r0, [r4]
 2417 0452 2321     		movs	r1, #35
ARM GAS  /var/folders/lp/x54gwt890xv47sdkqj1k04q40000gn/T//ccyxAmDN.s 			page 43


 2418 0454 5830     		adds	r0, r0, #88
 2419 0456 FFF7FEFF 		bl	lv_style_set_color_filter_opa
 2420 045a 2068     		ldr	r0, [r4]
 2421 045c 6030     		adds	r0, r0, #96
 2422 045e FFF7FEFF 		bl	style_init_reset
 2423 0462 2068     		ldr	r0, [r4]
 2424 0464 3146     		mov	r1, r6
 2425 0466 6030     		adds	r0, r0, #96
 2426 0468 FFF7FEFF 		bl	lv_style_set_color_filter_dsc
 2427 046c 2068     		ldr	r0, [r4]
 2428 046e 7F21     		movs	r1, #127
 2429 0470 6030     		adds	r0, r0, #96
 2430 0472 FFF7FEFF 		bl	lv_style_set_color_filter_opa
 2431 0476 2068     		ldr	r0, [r4]
 2432 0478 C030     		adds	r0, r0, #192
 2433 047a FFF7FEFF 		bl	style_init_reset
 2434 047e 2068     		ldr	r0, [r4]
 2435 0480 0121     		movs	r1, #1
 2436 0482 C030     		adds	r0, r0, #192
 2437 0484 FFF7FEFF 		bl	lv_style_set_clip_corner
 2438 0488 2068     		ldr	r0, [r4]
 2439 048a 0121     		movs	r1, #1
 2440 048c C030     		adds	r0, r0, #192
 2441 048e FFF7FEFF 		bl	lv_style_set_border_post
 2442 0492 2068     		ldr	r0, [r4]
 2443 0494 8030     		adds	r0, r0, #128
 2444 0496 FFF7FEFF 		bl	style_init_reset
 2445 049a 2468     		ldr	r4, [r4]
 2446 049c 8034     		adds	r4, r4, #128
 2447 049e 6D4B     		ldr	r3, .L328
 2448 04a0 1B78     		ldrb	r3, [r3]	@ zero_extendqisi2
 2449 04a2 012B     		cmp	r3, #1
 2450 04a4 01F0B580 		beq	.L264
 2451 04a8 022B     		cmp	r3, #2
 2452 04aa 01F0BA80 		beq	.L265
 2453 04ae 1021     		movs	r1, #16
 2454 04b0 694B     		ldr	r3, .L328+4
 2455 04b2 D868     		ldr	r0, [r3, #12]
 2456 04b4 FFF7FEFF 		bl	lv_disp_dpx
 2457 04b8 0146     		mov	r1, r0
 2458              	.L153:
 2459 04ba 2046     		mov	r0, r4
 2460 04bc FFF7FEFF 		bl	lv_style_set_pad_all
 2461 04c0 664B     		ldr	r3, .L328+8
 2462 04c2 1C68     		ldr	r4, [r3]
 2463 04c4 8034     		adds	r4, r4, #128
 2464 04c6 634B     		ldr	r3, .L328
 2465 04c8 1B78     		ldrb	r3, [r3]	@ zero_extendqisi2
 2466 04ca 012B     		cmp	r3, #1
 2467 04cc 01F0B180 		beq	.L266
 2468 04d0 022B     		cmp	r3, #2
 2469 04d2 01F0B680 		beq	.L267
 2470 04d6 1021     		movs	r1, #16
 2471 04d8 5F4B     		ldr	r3, .L328+4
 2472 04da D868     		ldr	r0, [r3, #12]
 2473 04dc FFF7FEFF 		bl	lv_disp_dpx
 2474 04e0 0146     		mov	r1, r0
ARM GAS  /var/folders/lp/x54gwt890xv47sdkqj1k04q40000gn/T//ccyxAmDN.s 			page 44


 2475              	.L156:
 2476 04e2 2046     		mov	r0, r4
 2477 04e4 FFF7FEFF 		bl	lv_style_set_pad_row
 2478 04e8 5C4B     		ldr	r3, .L328+8
 2479 04ea 1C68     		ldr	r4, [r3]
 2480 04ec 8034     		adds	r4, r4, #128
 2481 04ee 594B     		ldr	r3, .L328
 2482 04f0 1B78     		ldrb	r3, [r3]	@ zero_extendqisi2
 2483 04f2 012B     		cmp	r3, #1
 2484 04f4 01F0AD80 		beq	.L268
 2485 04f8 022B     		cmp	r3, #2
 2486 04fa 01F0B280 		beq	.L269
 2487 04fe 1021     		movs	r1, #16
 2488 0500 554B     		ldr	r3, .L328+4
 2489 0502 D868     		ldr	r0, [r3, #12]
 2490 0504 FFF7FEFF 		bl	lv_disp_dpx
 2491 0508 0146     		mov	r1, r0
 2492              	.L159:
 2493 050a 2046     		mov	r0, r4
 2494 050c FFF7FEFF 		bl	lv_style_set_pad_column
 2495 0510 524C     		ldr	r4, .L328+8
 2496 0512 2068     		ldr	r0, [r4]
 2497 0514 7830     		adds	r0, r0, #120
 2498 0516 FFF7FEFF 		bl	style_init_reset
 2499 051a 2468     		ldr	r4, [r4]
 2500 051c 7834     		adds	r4, r4, #120
 2501 051e 4D4B     		ldr	r3, .L328
 2502 0520 1B78     		ldrb	r3, [r3]	@ zero_extendqisi2
 2503 0522 012B     		cmp	r3, #1
 2504 0524 01F0A580 		beq	.L270
 2505 0528 022B     		cmp	r3, #2
 2506 052a 01F0AA80 		beq	.L271
 2507 052e 0A21     		movs	r1, #10
 2508 0530 494B     		ldr	r3, .L328+4
 2509 0532 D868     		ldr	r0, [r3, #12]
 2510 0534 FFF7FEFF 		bl	lv_disp_dpx
 2511 0538 0146     		mov	r1, r0
 2512              	.L162:
 2513 053a 2046     		mov	r0, r4
 2514 053c FFF7FEFF 		bl	lv_style_set_pad_all
 2515 0540 464B     		ldr	r3, .L328+8
 2516 0542 1C68     		ldr	r4, [r3]
 2517 0544 7834     		adds	r4, r4, #120
 2518 0546 434B     		ldr	r3, .L328
 2519 0548 1B78     		ldrb	r3, [r3]	@ zero_extendqisi2
 2520 054a 012B     		cmp	r3, #1
 2521 054c 01F0A180 		beq	.L272
 2522 0550 022B     		cmp	r3, #2
 2523 0552 01F0A680 		beq	.L273
 2524 0556 0A21     		movs	r1, #10
 2525 0558 3F4B     		ldr	r3, .L328+4
 2526 055a D868     		ldr	r0, [r3, #12]
 2527 055c FFF7FEFF 		bl	lv_disp_dpx
 2528 0560 0146     		mov	r1, r0
 2529              	.L165:
 2530 0562 2046     		mov	r0, r4
 2531 0564 FFF7FEFF 		bl	lv_style_set_pad_gap
ARM GAS  /var/folders/lp/x54gwt890xv47sdkqj1k04q40000gn/T//ccyxAmDN.s 			page 45


 2532 0568 3C4C     		ldr	r4, .L328+8
 2533 056a 2068     		ldr	r0, [r4]
 2534 056c 8830     		adds	r0, r0, #136
 2535 056e FFF7FEFF 		bl	style_init_reset
 2536 0572 2668     		ldr	r6, [r4]
 2537 0574 384D     		ldr	r5, .L328+4
 2538 0576 0A21     		movs	r1, #10
 2539 0578 E868     		ldr	r0, [r5, #12]
 2540 057a FFF7FEFF 		bl	lv_disp_dpx
 2541 057e 0146     		mov	r1, r0
 2542 0580 06F18800 		add	r0, r6, #136
 2543 0584 FFF7FEFF 		bl	lv_style_set_pad_row
 2544 0588 2668     		ldr	r6, [r4]
 2545 058a 0A21     		movs	r1, #10
 2546 058c E868     		ldr	r0, [r5, #12]
 2547 058e FFF7FEFF 		bl	lv_disp_dpx
 2548 0592 0146     		mov	r1, r0
 2549 0594 06F18800 		add	r0, r6, #136
 2550 0598 FFF7FEFF 		bl	lv_style_set_pad_column
 2551 059c 2068     		ldr	r0, [r4]
 2552 059e 9030     		adds	r0, r0, #144
 2553 05a0 FFF7FEFF 		bl	style_init_reset
 2554 05a4 2668     		ldr	r6, [r4]
 2555 05a6 1421     		movs	r1, #20
 2556 05a8 E868     		ldr	r0, [r5, #12]
 2557 05aa FFF7FEFF 		bl	lv_disp_dpx
 2558 05ae 0146     		mov	r1, r0
 2559 05b0 06F19000 		add	r0, r6, #144
 2560 05b4 FFF7FEFF 		bl	lv_style_set_text_line_space
 2561 05b8 2068     		ldr	r0, [r4]
 2562 05ba 9830     		adds	r0, r0, #152
 2563 05bc FFF7FEFF 		bl	style_init_reset
 2564 05c0 2068     		ldr	r0, [r4]
 2565 05c2 0221     		movs	r1, #2
 2566 05c4 9830     		adds	r0, r0, #152
 2567 05c6 FFF7FEFF 		bl	lv_style_set_text_align
 2568 05ca 2068     		ldr	r0, [r4]
 2569 05cc 6830     		adds	r0, r0, #104
 2570 05ce FFF7FEFF 		bl	style_init_reset
 2571 05d2 2068     		ldr	r0, [r4]
 2572 05d4 0021     		movs	r1, #0
 2573 05d6 6830     		adds	r0, r0, #104
 2574 05d8 FFF7FEFF 		bl	lv_style_set_pad_all
 2575 05dc 2068     		ldr	r0, [r4]
 2576 05de 0021     		movs	r1, #0
 2577 05e0 6830     		adds	r0, r0, #104
 2578 05e2 FFF7FEFF 		bl	lv_style_set_pad_row
 2579 05e6 2068     		ldr	r0, [r4]
 2580 05e8 0021     		movs	r1, #0
 2581 05ea 6830     		adds	r0, r0, #104
 2582 05ec FFF7FEFF 		bl	lv_style_set_pad_column
 2583 05f0 2068     		ldr	r0, [r4]
 2584 05f2 7030     		adds	r0, r0, #112
 2585 05f4 FFF7FEFF 		bl	style_init_reset
 2586 05f8 2468     		ldr	r4, [r4]
 2587 05fa 7034     		adds	r4, r4, #112
 2588 05fc 154B     		ldr	r3, .L328
ARM GAS  /var/folders/lp/x54gwt890xv47sdkqj1k04q40000gn/T//ccyxAmDN.s 			page 46


 2589 05fe 1B78     		ldrb	r3, [r3]	@ zero_extendqisi2
 2590 0600 012B     		cmp	r3, #1
 2591 0602 01F05680 		beq	.L274
 2592 0606 022B     		cmp	r3, #2
 2593 0608 01F05A80 		beq	.L275
 2594 060c 0221     		movs	r1, #2
 2595 060e 124B     		ldr	r3, .L328+4
 2596 0610 D868     		ldr	r0, [r3, #12]
 2597 0612 FFF7FEFF 		bl	lv_disp_dpx
 2598 0616 0146     		mov	r1, r0
 2599              	.L168:
 2600 0618 2046     		mov	r0, r4
 2601 061a FFF7FEFF 		bl	lv_style_set_pad_all
 2602 061e 0F4B     		ldr	r3, .L328+8
 2603 0620 1C68     		ldr	r4, [r3]
 2604 0622 7034     		adds	r4, r4, #112
 2605 0624 0B4B     		ldr	r3, .L328
 2606 0626 1B78     		ldrb	r3, [r3]	@ zero_extendqisi2
 2607 0628 012B     		cmp	r3, #1
 2608 062a 01F05180 		beq	.L276
 2609 062e 022B     		cmp	r3, #2
 2610 0630 01F06480 		beq	.L277
 2611 0634 0221     		movs	r1, #2
 2612 0636 084B     		ldr	r3, .L328+4
 2613 0638 D868     		ldr	r0, [r3, #12]
 2614 063a FFF7FEFF 		bl	lv_disp_dpx
 2615 063e 0146     		mov	r1, r0
 2616              	.L171:
 2617 0640 2046     		mov	r0, r4
 2618 0642 FFF7FEFF 		bl	lv_style_set_pad_row
 2619 0646 054B     		ldr	r3, .L328+8
 2620 0648 1C68     		ldr	r4, [r3]
 2621 064a 7034     		adds	r4, r4, #112
 2622 064c 014B     		ldr	r3, .L328
 2623 064e 1B78     		ldrb	r3, [r3]	@ zero_extendqisi2
 2624 0650 012B     		cmp	r3, #1
 2625 0652 11E0     		b	.L329
 2626              	.L330:
 2627              		.align	2
 2628              	.L328:
 2629 0654 00000000 		.word	disp_size
 2630 0658 00000000 		.word	theme
 2631 065c 00000000 		.word	styles
 2632 0660 00000000 		.word	color_grey
 2633 0664 00000000 		.word	color_text
 2634 0668 00000000 		.word	dark_filter.1
 2635 066c 00000000 		.word	dark_color_filter_cb
 2636 0670 00000000 		.word	grey_filter.0
 2637 0674 00000000 		.word	grey_filter_cb
 2638              	.L329:
 2639 0678 01F04880 		beq	.L278
 2640 067c 022B     		cmp	r3, #2
 2641 067e 01F04D80 		beq	.L279
 2642 0682 0221     		movs	r1, #2
 2643 0684 CB4B     		ldr	r3, .L331
 2644 0686 D868     		ldr	r0, [r3, #12]
 2645 0688 FFF7FEFF 		bl	lv_disp_dpx
ARM GAS  /var/folders/lp/x54gwt890xv47sdkqj1k04q40000gn/T//ccyxAmDN.s 			page 47


 2646 068c 0146     		mov	r1, r0
 2647              	.L174:
 2648 068e 2046     		mov	r0, r4
 2649 0690 FFF7FEFF 		bl	lv_style_set_pad_column
 2650 0694 C84C     		ldr	r4, .L331+4
 2651 0696 2068     		ldr	r0, [r4]
 2652 0698 2830     		adds	r0, r0, #40
 2653 069a FFF7FEFF 		bl	style_init_reset
 2654 069e 2068     		ldr	r0, [r4]
 2655 06a0 C44D     		ldr	r5, .L331
 2656 06a2 298A     		ldrh	r1, [r5, #16]
 2657 06a4 2830     		adds	r0, r0, #40
 2658 06a6 FFF7FEFF 		bl	lv_style_set_bg_color
 2659 06aa 2068     		ldr	r0, [r4]
 2660 06ac 4FF0FF31 		mov	r1, #-1	@ movhi
 2661 06b0 2830     		adds	r0, r0, #40
 2662 06b2 FFF7FEFF 		bl	lv_style_set_text_color
 2663 06b6 2068     		ldr	r0, [r4]
 2664 06b8 FF21     		movs	r1, #255
 2665 06ba 2830     		adds	r0, r0, #40
 2666 06bc FFF7FEFF 		bl	lv_style_set_bg_opa
 2667 06c0 2068     		ldr	r0, [r4]
 2668 06c2 3030     		adds	r0, r0, #48
 2669 06c4 FFF7FEFF 		bl	style_init_reset
 2670 06c8 2068     		ldr	r0, [r4]
 2671 06ca 298A     		ldrh	r1, [r5, #16]
 2672 06cc 3030     		adds	r0, r0, #48
 2673 06ce FFF7FEFF 		bl	lv_style_set_bg_color
 2674 06d2 2068     		ldr	r0, [r4]
 2675 06d4 298A     		ldrh	r1, [r5, #16]
 2676 06d6 3030     		adds	r0, r0, #48
 2677 06d8 FFF7FEFF 		bl	lv_style_set_text_color
 2678 06dc 2068     		ldr	r0, [r4]
 2679 06de 3321     		movs	r1, #51
 2680 06e0 3030     		adds	r0, r0, #48
 2681 06e2 FFF7FEFF 		bl	lv_style_set_bg_opa
 2682 06e6 2068     		ldr	r0, [r4]
 2683 06e8 3830     		adds	r0, r0, #56
 2684 06ea FFF7FEFF 		bl	style_init_reset
 2685 06ee 2068     		ldr	r0, [r4]
 2686 06f0 698A     		ldrh	r1, [r5, #18]
 2687 06f2 3830     		adds	r0, r0, #56
 2688 06f4 FFF7FEFF 		bl	lv_style_set_bg_color
 2689 06f8 2068     		ldr	r0, [r4]
 2690 06fa 4FF0FF31 		mov	r1, #-1	@ movhi
 2691 06fe 3830     		adds	r0, r0, #56
 2692 0700 FFF7FEFF 		bl	lv_style_set_text_color
 2693 0704 2068     		ldr	r0, [r4]
 2694 0706 FF21     		movs	r1, #255
 2695 0708 3830     		adds	r0, r0, #56
 2696 070a FFF7FEFF 		bl	lv_style_set_bg_opa
 2697 070e 2068     		ldr	r0, [r4]
 2698 0710 4030     		adds	r0, r0, #64
 2699 0712 FFF7FEFF 		bl	style_init_reset
 2700 0716 2068     		ldr	r0, [r4]
 2701 0718 698A     		ldrh	r1, [r5, #18]
 2702 071a 4030     		adds	r0, r0, #64
ARM GAS  /var/folders/lp/x54gwt890xv47sdkqj1k04q40000gn/T//ccyxAmDN.s 			page 48


 2703 071c FFF7FEFF 		bl	lv_style_set_bg_color
 2704 0720 2068     		ldr	r0, [r4]
 2705 0722 698A     		ldrh	r1, [r5, #18]
 2706 0724 4030     		adds	r0, r0, #64
 2707 0726 FFF7FEFF 		bl	lv_style_set_text_color
 2708 072a 2068     		ldr	r0, [r4]
 2709 072c 3321     		movs	r1, #51
 2710 072e 4030     		adds	r0, r0, #64
 2711 0730 FFF7FEFF 		bl	lv_style_set_bg_opa
 2712 0734 2068     		ldr	r0, [r4]
 2713 0736 4830     		adds	r0, r0, #72
 2714 0738 FFF7FEFF 		bl	style_init_reset
 2715 073c 2068     		ldr	r0, [r4]
 2716 073e 9F4F     		ldr	r7, .L331+8
 2717 0740 3988     		ldrh	r1, [r7]
 2718 0742 4830     		adds	r0, r0, #72
 2719 0744 FFF7FEFF 		bl	lv_style_set_bg_color
 2720 0748 2068     		ldr	r0, [r4]
 2721 074a FF21     		movs	r1, #255
 2722 074c 4830     		adds	r0, r0, #72
 2723 074e FFF7FEFF 		bl	lv_style_set_bg_opa
 2724 0752 2068     		ldr	r0, [r4]
 2725 0754 DFF87482 		ldr	r8, .L331+24
 2726 0758 B8F80010 		ldrh	r1, [r8]
 2727 075c 4830     		adds	r0, r0, #72
 2728 075e FFF7FEFF 		bl	lv_style_set_text_color
 2729 0762 2068     		ldr	r0, [r4]
 2730 0764 5030     		adds	r0, r0, #80
 2731 0766 FFF7FEFF 		bl	style_init_reset
 2732 076a 2068     		ldr	r0, [r4]
 2733 076c 944E     		ldr	r6, .L331+12
 2734 076e 3188     		ldrh	r1, [r6]
 2735 0770 5030     		adds	r0, r0, #80
 2736 0772 FFF7FEFF 		bl	lv_style_set_bg_color
 2737 0776 2068     		ldr	r0, [r4]
 2738 0778 FF21     		movs	r1, #255
 2739 077a 5030     		adds	r0, r0, #80
 2740 077c FFF7FEFF 		bl	lv_style_set_bg_opa
 2741 0780 2068     		ldr	r0, [r4]
 2742 0782 B8F80010 		ldrh	r1, [r8]
 2743 0786 5030     		adds	r0, r0, #80
 2744 0788 FFF7FEFF 		bl	lv_style_set_text_color
 2745 078c 2068     		ldr	r0, [r4]
 2746 078e B030     		adds	r0, r0, #176
 2747 0790 FFF7FEFF 		bl	style_init_reset
 2748 0794 2068     		ldr	r0, [r4]
 2749 0796 47F6FF71 		movw	r1, #32767
 2750 079a B030     		adds	r0, r0, #176
 2751 079c FFF7FEFF 		bl	lv_style_set_radius
 2752 07a0 2068     		ldr	r0, [r4]
 2753 07a2 B830     		adds	r0, r0, #184
 2754 07a4 FFF7FEFF 		bl	style_init_reset
 2755 07a8 2068     		ldr	r0, [r4]
 2756 07aa 0021     		movs	r1, #0
 2757 07ac B830     		adds	r0, r0, #184
 2758 07ae FFF7FEFF 		bl	lv_style_set_radius
 2759 07b2 2068     		ldr	r0, [r4]
ARM GAS  /var/folders/lp/x54gwt890xv47sdkqj1k04q40000gn/T//ccyxAmDN.s 			page 49


 2760 07b4 C830     		adds	r0, r0, #200
 2761 07b6 FFF7FEFF 		bl	style_init_reset
 2762 07ba D4F80080 		ldr	r8, [r4]
 2763 07be 0321     		movs	r1, #3
 2764 07c0 E868     		ldr	r0, [r5, #12]
 2765 07c2 FFF7FEFF 		bl	lv_disp_dpx
 2766 07c6 0146     		mov	r1, r0
 2767 07c8 08F1C800 		add	r0, r8, #200
 2768 07cc FFF7FEFF 		bl	lv_style_set_transform_width
 2769 07d0 D4F80080 		ldr	r8, [r4]
 2770 07d4 0321     		movs	r1, #3
 2771 07d6 E868     		ldr	r0, [r5, #12]
 2772 07d8 FFF7FEFF 		bl	lv_disp_dpx
 2773 07dc 0146     		mov	r1, r0
 2774 07de 08F1C800 		add	r0, r8, #200
 2775 07e2 FFF7FEFF 		bl	lv_style_set_transform_height
 2776 07e6 2068     		ldr	r0, [r4]
 2777 07e8 F030     		adds	r0, r0, #240
 2778 07ea FFF7FEFF 		bl	style_init_reset
 2779 07ee 2068     		ldr	r0, [r4]
 2780 07f0 298A     		ldrh	r1, [r5, #16]
 2781 07f2 F030     		adds	r0, r0, #240
 2782 07f4 FFF7FEFF 		bl	lv_style_set_bg_color
 2783 07f8 2068     		ldr	r0, [r4]
 2784 07fa FF21     		movs	r1, #255
 2785 07fc F030     		adds	r0, r0, #240
 2786 07fe FFF7FEFF 		bl	lv_style_set_bg_opa
 2787 0802 D4F80080 		ldr	r8, [r4]
 2788 0806 0621     		movs	r1, #6
 2789 0808 E868     		ldr	r0, [r5, #12]
 2790 080a FFF7FEFF 		bl	lv_disp_dpx
 2791 080e 0146     		mov	r1, r0
 2792 0810 08F1F000 		add	r0, r8, #240
 2793 0814 FFF7FEFF 		bl	lv_style_set_pad_all
 2794 0818 2068     		ldr	r0, [r4]
 2795 081a 47F6FF71 		movw	r1, #32767
 2796 081e F030     		adds	r0, r0, #240
 2797 0820 FFF7FEFF 		bl	lv_style_set_radius
 2798 0824 2068     		ldr	r0, [r4]
 2799 0826 E030     		adds	r0, r0, #224
 2800 0828 FFF7FEFF 		bl	style_init_reset
 2801 082c 2068     		ldr	r0, [r4]
 2802 082e C821     		movs	r1, #200
 2803 0830 E030     		adds	r0, r0, #224
 2804 0832 FFF7FEFF 		bl	lv_style_set_anim_time
 2805 0836 2068     		ldr	r0, [r4]
 2806 0838 E830     		adds	r0, r0, #232
 2807 083a FFF7FEFF 		bl	style_init_reset
 2808 083e 2068     		ldr	r0, [r4]
 2809 0840 7821     		movs	r1, #120
 2810 0842 E830     		adds	r0, r0, #232
 2811 0844 FFF7FEFF 		bl	lv_style_set_anim_time
 2812 0848 2068     		ldr	r0, [r4]
 2813 084a 00F58070 		add	r0, r0, #256
 2814 084e FFF7FEFF 		bl	style_init_reset
 2815 0852 2068     		ldr	r0, [r4]
 2816 0854 3988     		ldrh	r1, [r7]
ARM GAS  /var/folders/lp/x54gwt890xv47sdkqj1k04q40000gn/T//ccyxAmDN.s 			page 50


 2817 0856 00F58070 		add	r0, r0, #256
 2818 085a FFF7FEFF 		bl	lv_style_set_arc_color
 2819 085e 2768     		ldr	r7, [r4]
 2820 0860 0F21     		movs	r1, #15
 2821 0862 E868     		ldr	r0, [r5, #12]
 2822 0864 FFF7FEFF 		bl	lv_disp_dpx
 2823 0868 0146     		mov	r1, r0
 2824 086a 07F58070 		add	r0, r7, #256
 2825 086e FFF7FEFF 		bl	lv_style_set_arc_width
 2826 0872 2068     		ldr	r0, [r4]
 2827 0874 0121     		movs	r1, #1
 2828 0876 00F58070 		add	r0, r0, #256
 2829 087a FFF7FEFF 		bl	lv_style_set_arc_rounded
 2830 087e 2068     		ldr	r0, [r4]
 2831 0880 00F58470 		add	r0, r0, #264
 2832 0884 FFF7FEFF 		bl	style_init_reset
 2833 0888 2068     		ldr	r0, [r4]
 2834 088a 298A     		ldrh	r1, [r5, #16]
 2835 088c 00F58470 		add	r0, r0, #264
 2836 0890 FFF7FEFF 		bl	lv_style_set_arc_color
 2837 0894 2068     		ldr	r0, [r4]
 2838 0896 00F59870 		add	r0, r0, #304
 2839 089a FFF7FEFF 		bl	style_init_reset
 2840 089e 2068     		ldr	r0, [r4]
 2841 08a0 4FF48271 		mov	r1, #260
 2842 08a4 00F59870 		add	r0, r0, #304
 2843 08a8 FFF7FEFF 		bl	lv_style_set_max_height
 2844 08ac 2068     		ldr	r0, [r4]
 2845 08ae 00F59C70 		add	r0, r0, #312
 2846 08b2 FFF7FEFF 		bl	style_init_reset
 2847 08b6 2768     		ldr	r7, [r4]
 2848 08b8 0321     		movs	r1, #3
 2849 08ba E868     		ldr	r0, [r5, #12]
 2850 08bc FFF7FEFF 		bl	lv_disp_dpx
 2851 08c0 0146     		mov	r1, r0
 2852 08c2 07F59C70 		add	r0, r7, #312
 2853 08c6 FFF7FEFF 		bl	lv_style_set_pad_all
 2854 08ca 2768     		ldr	r7, [r4]
 2855 08cc 0221     		movs	r1, #2
 2856 08ce E868     		ldr	r0, [r5, #12]
 2857 08d0 FFF7FEFF 		bl	lv_disp_dpx
 2858 08d4 0146     		mov	r1, r0
 2859 08d6 07F59C70 		add	r0, r7, #312
 2860 08da FFF7FEFF 		bl	lv_style_set_border_width
 2861 08de 2068     		ldr	r0, [r4]
 2862 08e0 298A     		ldrh	r1, [r5, #16]
 2863 08e2 00F59C70 		add	r0, r0, #312
 2864 08e6 FFF7FEFF 		bl	lv_style_set_border_color
 2865 08ea 2068     		ldr	r0, [r4]
 2866 08ec 3188     		ldrh	r1, [r6]
 2867 08ee 00F59C70 		add	r0, r0, #312
 2868 08f2 FFF7FEFF 		bl	lv_style_set_bg_color
 2869 08f6 2068     		ldr	r0, [r4]
 2870 08f8 FF21     		movs	r1, #255
 2871 08fa 00F59C70 		add	r0, r0, #312
 2872 08fe FFF7FEFF 		bl	lv_style_set_bg_opa
 2873 0902 2468     		ldr	r4, [r4]
ARM GAS  /var/folders/lp/x54gwt890xv47sdkqj1k04q40000gn/T//ccyxAmDN.s 			page 51


 2874 0904 04F59C74 		add	r4, r4, #312
 2875 0908 2E4B     		ldr	r3, .L331+16
 2876 090a 1B78     		ldrb	r3, [r3]	@ zero_extendqisi2
 2877 090c 012B     		cmp	r3, #1
 2878 090e 00F00D87 		beq	.L280
 2879 0912 0821     		movs	r1, #8
 2880 0914 274B     		ldr	r3, .L331
 2881 0916 D868     		ldr	r0, [r3, #12]
 2882 0918 FFF7FEFF 		bl	lv_disp_dpx
 2883 091c 00EBD070 		add	r0, r0, r0, lsr #31
 2884 0920 40F34F01 		sbfx	r1, r0, #1, #16
 2885              	.L177:
 2886 0924 2046     		mov	r0, r4
 2887 0926 FFF7FEFF 		bl	lv_style_set_radius
 2888 092a 234C     		ldr	r4, .L331+4
 2889 092c 2068     		ldr	r0, [r4]
 2890 092e 00F5A070 		add	r0, r0, #320
 2891 0932 FFF7FEFF 		bl	style_init_reset
 2892 0936 2068     		ldr	r0, [r4]
 2893 0938 2349     		ldr	r1, .L331+20
 2894 093a 00F5A070 		add	r0, r0, #320
 2895 093e FFF7FEFF 		bl	lv_style_set_bg_img_src
 2896 0942 2068     		ldr	r0, [r4]
 2897 0944 4FF0FF31 		mov	r1, #-1	@ movhi
 2898 0948 00F5A070 		add	r0, r0, #320
 2899 094c FFF7FEFF 		bl	lv_style_set_text_color
 2900 0950 2068     		ldr	r0, [r4]
 2901 0952 184D     		ldr	r5, .L331
 2902 0954 6969     		ldr	r1, [r5, #20]
 2903 0956 00F5A070 		add	r0, r0, #320
 2904 095a FFF7FEFF 		bl	lv_style_set_text_font
 2905 095e 2068     		ldr	r0, [r4]
 2906 0960 00F5A470 		add	r0, r0, #328
 2907 0964 FFF7FEFF 		bl	style_init_reset
 2908 0968 2668     		ldr	r6, [r4]
 2909 096a 0421     		movs	r1, #4
 2910 096c E868     		ldr	r0, [r5, #12]
 2911 096e FFF7FEFF 		bl	lv_disp_dpx
 2912 0972 81B2     		uxth	r1, r0
 2913 0974 4942     		rsbs	r1, r1, #0
 2914 0976 09B2     		sxth	r1, r1
 2915 0978 06F5A470 		add	r0, r6, #328
 2916 097c FFF7FEFF 		bl	lv_style_set_pad_all
 2917 0980 2068     		ldr	r0, [r4]
 2918 0982 4FF0FF31 		mov	r1, #-1	@ movhi
 2919 0986 00F5A470 		add	r0, r0, #328
 2920 098a FFF7FEFF 		bl	lv_style_set_bg_color
 2921 098e 2068     		ldr	r0, [r4]
 2922 0990 00F5A870 		add	r0, r0, #336
 2923 0994 FFF7FEFF 		bl	style_init_reset
 2924 0998 2068     		ldr	r0, [r4]
 2925 099a 0121     		movs	r1, #1
 2926 099c 00F5A870 		add	r0, r0, #336
 2927 09a0 FFF7FEFF 		bl	lv_style_set_line_width
 2928 09a4 2068     		ldr	r0, [r4]
 2929 09a6 094E     		ldr	r6, .L331+24
 2930 09a8 3188     		ldrh	r1, [r6]
ARM GAS  /var/folders/lp/x54gwt890xv47sdkqj1k04q40000gn/T//ccyxAmDN.s 			page 52


 2931 09aa 00F5A870 		add	r0, r0, #336
 2932 09ae FFF7FEFF 		bl	lv_style_set_line_color
 2933 09b2 0DE0     		b	.L332
 2934              	.L333:
 2935              		.align	2
 2936              	.L331:
 2937 09b4 00000000 		.word	theme
 2938 09b8 00000000 		.word	styles
 2939 09bc 00000000 		.word	color_grey
 2940 09c0 00000000 		.word	color_card
 2941 09c4 00000000 		.word	disp_size
 2942 09c8 00000000 		.word	.LC0
 2943 09cc 00000000 		.word	color_text
 2944              	.L332:
 2945 09d0 2068     		ldr	r0, [r4]
 2946 09d2 00F59470 		add	r0, r0, #296
 2947 09d6 FFF7FEFF 		bl	style_init_reset
 2948 09da 2068     		ldr	r0, [r4]
 2949 09dc 0021     		movs	r1, #0
 2950 09de 00F59470 		add	r0, r0, #296
 2951 09e2 FFF7FEFF 		bl	lv_style_set_border_post
 2952 09e6 2768     		ldr	r7, [r4]
 2953 09e8 0A21     		movs	r1, #10
 2954 09ea E868     		ldr	r0, [r5, #12]
 2955 09ec FFF7FEFF 		bl	lv_disp_dpx
 2956 09f0 0146     		mov	r1, r0
 2957 09f2 07F59470 		add	r0, r7, #296
 2958 09f6 FFF7FEFF 		bl	lv_style_set_pad_column
 2959 09fa 2068     		ldr	r0, [r4]
 2960 09fc C84B     		ldr	r3, .L334
 2961 09fe 1988     		ldrh	r1, [r3]
 2962 0a00 00F59470 		add	r0, r0, #296
 2963 0a04 FFF7FEFF 		bl	lv_style_set_line_color
 2964 0a08 2068     		ldr	r0, [r4]
 2965 0a0a 00F58870 		add	r0, r0, #272
 2966 0a0e FFF7FEFF 		bl	style_init_reset
 2967 0a12 2768     		ldr	r7, [r4]
 2968 0a14 0321     		movs	r1, #3
 2969 0a16 E868     		ldr	r0, [r5, #12]
 2970 0a18 FFF7FEFF 		bl	lv_disp_dpx
 2971 0a1c 0146     		mov	r1, r0
 2972 0a1e 07F58870 		add	r0, r7, #272
 2973 0a22 FFF7FEFF 		bl	lv_style_set_line_width
 2974 0a26 2768     		ldr	r7, [r4]
 2975 0a28 0321     		movs	r1, #3
 2976 0a2a E868     		ldr	r0, [r5, #12]
 2977 0a2c FFF7FEFF 		bl	lv_disp_dpx
 2978 0a30 0146     		mov	r1, r0
 2979 0a32 07F58870 		add	r0, r7, #272
 2980 0a36 FFF7FEFF 		bl	lv_style_set_radius
 2981 0a3a 2768     		ldr	r7, [r4]
 2982 0a3c 0821     		movs	r1, #8
 2983 0a3e E868     		ldr	r0, [r5, #12]
 2984 0a40 FFF7FEFF 		bl	lv_disp_dpx
 2985 0a44 0146     		mov	r1, r0
 2986 0a46 07F58870 		add	r0, r7, #272
 2987 0a4a FFF7FEFF 		bl	lv_style_set_size
ARM GAS  /var/folders/lp/x54gwt890xv47sdkqj1k04q40000gn/T//ccyxAmDN.s 			page 53


 2988 0a4e 2768     		ldr	r7, [r4]
 2989 0a50 0221     		movs	r1, #2
 2990 0a52 E868     		ldr	r0, [r5, #12]
 2991 0a54 FFF7FEFF 		bl	lv_disp_dpx
 2992 0a58 0146     		mov	r1, r0
 2993 0a5a 07F58870 		add	r0, r7, #272
 2994 0a5e FFF7FEFF 		bl	lv_style_set_pad_column
 2995 0a62 2068     		ldr	r0, [r4]
 2996 0a64 00F58C70 		add	r0, r0, #280
 2997 0a68 FFF7FEFF 		bl	style_init_reset
 2998 0a6c 2068     		ldr	r0, [r4]
 2999 0a6e 47F6FF71 		movw	r1, #32767
 3000 0a72 00F58C70 		add	r0, r0, #280
 3001 0a76 FFF7FEFF 		bl	lv_style_set_radius
 3002 0a7a 2768     		ldr	r7, [r4]
 3003 0a7c 0821     		movs	r1, #8
 3004 0a7e E868     		ldr	r0, [r5, #12]
 3005 0a80 FFF7FEFF 		bl	lv_disp_dpx
 3006 0a84 0146     		mov	r1, r0
 3007 0a86 07F58C70 		add	r0, r7, #280
 3008 0a8a FFF7FEFF 		bl	lv_style_set_size
 3009 0a8e 2068     		ldr	r0, [r4]
 3010 0a90 298A     		ldrh	r1, [r5, #16]
 3011 0a92 00F58C70 		add	r0, r0, #280
 3012 0a96 FFF7FEFF 		bl	lv_style_set_bg_color
 3013 0a9a 2068     		ldr	r0, [r4]
 3014 0a9c FF21     		movs	r1, #255
 3015 0a9e 00F58C70 		add	r0, r0, #280
 3016 0aa2 FFF7FEFF 		bl	lv_style_set_bg_opa
 3017 0aa6 2068     		ldr	r0, [r4]
 3018 0aa8 00F59070 		add	r0, r0, #288
 3019 0aac FFF7FEFF 		bl	style_init_reset
 3020 0ab0 2768     		ldr	r7, [r4]
 3021 0ab2 0121     		movs	r1, #1
 3022 0ab4 E868     		ldr	r0, [r5, #12]
 3023 0ab6 FFF7FEFF 		bl	lv_disp_dpx
 3024 0aba 0146     		mov	r1, r0
 3025 0abc 07F59070 		add	r0, r7, #288
 3026 0ac0 FFF7FEFF 		bl	lv_style_set_line_width
 3027 0ac4 2068     		ldr	r0, [r4]
 3028 0ac6 3188     		ldrh	r1, [r6]
 3029 0ac8 00F59070 		add	r0, r0, #288
 3030 0acc FFF7FEFF 		bl	lv_style_set_line_color
 3031 0ad0 2668     		ldr	r6, [r4]
 3032 0ad2 0221     		movs	r1, #2
 3033 0ad4 E868     		ldr	r0, [r5, #12]
 3034 0ad6 FFF7FEFF 		bl	lv_disp_dpx
 3035 0ada 0146     		mov	r1, r0
 3036 0adc 06F59070 		add	r0, r6, #288
 3037 0ae0 FFF7FEFF 		bl	lv_style_set_pad_all
 3038 0ae4 2568     		ldr	r5, [r4]
 3039 0ae6 1220     		movs	r0, #18
 3040 0ae8 FFF7FEFF 		bl	lv_palette_main
 3041 0aec 0146     		mov	r1, r0	@ movhi
 3042 0aee 05F59070 		add	r0, r5, #288
 3043 0af2 FFF7FEFF 		bl	lv_style_set_text_color
 3044 0af6 2068     		ldr	r0, [r4]
ARM GAS  /var/folders/lp/x54gwt890xv47sdkqj1k04q40000gn/T//ccyxAmDN.s 			page 54


 3045 0af8 00F5D070 		add	r0, r0, #416
 3046 0afc FFF7FEFF 		bl	style_init_reset
 3047 0b00 2068     		ldr	r0, [r4]
 3048 0b02 0021     		movs	r1, #0
 3049 0b04 00F5D070 		add	r0, r0, #416
 3050 0b08 FFF7FEFF 		bl	lv_style_set_pad_all
 3051 0b0c 2068     		ldr	r0, [r4]
 3052 0b0e 0021     		movs	r1, #0
 3053 0b10 00F5D070 		add	r0, r0, #416
 3054 0b14 FFF7FEFF 		bl	lv_style_set_pad_gap
 3055 0b18 2068     		ldr	r0, [r4]
 3056 0b1a 0021     		movs	r1, #0
 3057 0b1c 00F5D070 		add	r0, r0, #416
 3058 0b20 FFF7FEFF 		bl	lv_style_set_radius
 3059 0b24 2068     		ldr	r0, [r4]
 3060 0b26 0121     		movs	r1, #1
 3061 0b28 00F5D070 		add	r0, r0, #416
 3062 0b2c FFF7FEFF 		bl	lv_style_set_clip_corner
 3063 0b30 2068     		ldr	r0, [r4]
 3064 0b32 0021     		movs	r1, #0
 3065 0b34 00F5D070 		add	r0, r0, #416
 3066 0b38 FFF7FEFF 		bl	lv_style_set_border_side
 3067 0b3c 2068     		ldr	r0, [r4]
 3068 0b3e 00F5EC70 		add	r0, r0, #472
 3069 0b42 FFF7FEFF 		bl	style_init_reset
 3070 0b46 2468     		ldr	r4, [r4]
 3071 0b48 04F5EC74 		add	r4, r4, #472
 3072 0b4c 754B     		ldr	r3, .L334+4
 3073 0b4e 1B78     		ldrb	r3, [r3]	@ zero_extendqisi2
 3074 0b50 012B     		cmp	r3, #1
 3075 0b52 00F0F585 		beq	.L281
 3076 0b56 0821     		movs	r1, #8
 3077 0b58 734B     		ldr	r3, .L334+8
 3078 0b5a D868     		ldr	r0, [r3, #12]
 3079 0b5c FFF7FEFF 		bl	lv_disp_dpx
 3080 0b60 0146     		mov	r1, r0
 3081              	.L179:
 3082 0b62 2046     		mov	r0, r4
 3083 0b64 FFF7FEFF 		bl	lv_style_set_radius
 3084 0b68 704C     		ldr	r4, .L334+12
 3085 0b6a 2068     		ldr	r0, [r4]
 3086 0b6c 0121     		movs	r1, #1
 3087 0b6e 00F5EC70 		add	r0, r0, #472
 3088 0b72 FFF7FEFF 		bl	lv_style_set_clip_corner
 3089 0b76 2068     		ldr	r0, [r4]
 3090 0b78 FF21     		movs	r1, #255
 3091 0b7a 00F5EC70 		add	r0, r0, #472
 3092 0b7e FFF7FEFF 		bl	lv_style_set_bg_opa
 3093 0b82 2068     		ldr	r0, [r4]
 3094 0b84 6A4B     		ldr	r3, .L334+16
 3095 0b86 1988     		ldrh	r1, [r3]
 3096 0b88 00F5EC70 		add	r0, r0, #472
 3097 0b8c FFF7FEFF 		bl	lv_style_set_bg_color
 3098 0b90 2068     		ldr	r0, [r4]
 3099 0b92 684B     		ldr	r3, .L334+20
 3100 0b94 1988     		ldrh	r1, [r3]
 3101 0b96 00F5EC70 		add	r0, r0, #472
ARM GAS  /var/folders/lp/x54gwt890xv47sdkqj1k04q40000gn/T//ccyxAmDN.s 			page 55


 3102 0b9a FFF7FEFF 		bl	lv_style_set_text_color
 3103 0b9e 2068     		ldr	r0, [r4]
 3104 0ba0 00F5D470 		add	r0, r0, #424
 3105 0ba4 FFF7FEFF 		bl	style_init_reset
 3106 0ba8 2468     		ldr	r4, [r4]
 3107 0baa 04F5D474 		add	r4, r4, #424
 3108 0bae 5D4B     		ldr	r3, .L334+4
 3109 0bb0 1B78     		ldrb	r3, [r3]	@ zero_extendqisi2
 3110 0bb2 012B     		cmp	r3, #1
 3111 0bb4 00F0CC85 		beq	.L282
 3112 0bb8 022B     		cmp	r3, #2
 3113 0bba 00F0D185 		beq	.L283
 3114 0bbe 0A21     		movs	r1, #10
 3115 0bc0 594B     		ldr	r3, .L334+8
 3116 0bc2 D868     		ldr	r0, [r3, #12]
 3117 0bc4 FFF7FEFF 		bl	lv_disp_dpx
 3118 0bc8 0146     		mov	r1, r0
 3119              	.L181:
 3120 0bca 2046     		mov	r0, r4
 3121 0bcc FFF7FEFF 		bl	lv_style_set_pad_hor
 3122 0bd0 564B     		ldr	r3, .L334+12
 3123 0bd2 1C68     		ldr	r4, [r3]
 3124 0bd4 04F5D474 		add	r4, r4, #424
 3125 0bd8 524B     		ldr	r3, .L334+4
 3126 0bda 1B78     		ldrb	r3, [r3]	@ zero_extendqisi2
 3127 0bdc 012B     		cmp	r3, #1
 3128 0bde 00F0C785 		beq	.L284
 3129 0be2 022B     		cmp	r3, #2
 3130 0be4 00F0CC85 		beq	.L285
 3131 0be8 0A21     		movs	r1, #10
 3132 0bea 4F4B     		ldr	r3, .L334+8
 3133 0bec D868     		ldr	r0, [r3, #12]
 3134 0bee FFF7FEFF 		bl	lv_disp_dpx
 3135 0bf2 0146     		mov	r1, r0
 3136              	.L184:
 3137 0bf4 2046     		mov	r0, r4
 3138 0bf6 FFF7FEFF 		bl	lv_style_set_pad_ver
 3139 0bfa 4C4B     		ldr	r3, .L334+12
 3140 0bfc 1C68     		ldr	r4, [r3]
 3141 0bfe 04F5D474 		add	r4, r4, #424
 3142 0c02 484B     		ldr	r3, .L334+4
 3143 0c04 1B78     		ldrb	r3, [r3]	@ zero_extendqisi2
 3144 0c06 012B     		cmp	r3, #1
 3145 0c08 00F0C285 		beq	.L286
 3146 0c0c 022B     		cmp	r3, #2
 3147 0c0e 00F0C785 		beq	.L287
 3148 0c12 0A21     		movs	r1, #10
 3149 0c14 444B     		ldr	r3, .L334+8
 3150 0c16 D868     		ldr	r0, [r3, #12]
 3151 0c18 FFF7FEFF 		bl	lv_disp_dpx
 3152 0c1c 0146     		mov	r1, r0
 3153              	.L187:
 3154 0c1e 2046     		mov	r0, r4
 3155 0c20 FFF7FEFF 		bl	lv_style_set_pad_gap
 3156 0c24 414C     		ldr	r4, .L334+12
 3157 0c26 2568     		ldr	r5, [r4]
 3158 0c28 3F4E     		ldr	r6, .L334+8
ARM GAS  /var/folders/lp/x54gwt890xv47sdkqj1k04q40000gn/T//ccyxAmDN.s 			page 56


 3159 0c2a 0121     		movs	r1, #1
 3160 0c2c F068     		ldr	r0, [r6, #12]
 3161 0c2e FFF7FEFF 		bl	lv_disp_dpx
 3162 0c32 0146     		mov	r1, r0
 3163 0c34 05F5D470 		add	r0, r5, #424
 3164 0c38 FFF7FEFF 		bl	lv_style_set_border_width
 3165 0c3c 2068     		ldr	r0, [r4]
 3166 0c3e 1921     		movs	r1, #25
 3167 0c40 00F5D470 		add	r0, r0, #424
 3168 0c44 FFF7FEFF 		bl	lv_style_set_border_opa
 3169 0c48 2068     		ldr	r0, [r4]
 3170 0c4a 3A4D     		ldr	r5, .L334+20
 3171 0c4c 2988     		ldrh	r1, [r5]
 3172 0c4e 00F5D470 		add	r0, r0, #424
 3173 0c52 FFF7FEFF 		bl	lv_style_set_border_color
 3174 0c56 2068     		ldr	r0, [r4]
 3175 0c58 0021     		movs	r1, #0
 3176 0c5a 00F5D470 		add	r0, r0, #424
 3177 0c5e FFF7FEFF 		bl	lv_style_set_border_side
 3178 0c62 2068     		ldr	r0, [r4]
 3179 0c64 00F5D870 		add	r0, r0, #432
 3180 0c68 FFF7FEFF 		bl	style_init_reset
 3181 0c6c 2068     		ldr	r0, [r4]
 3182 0c6e 0021     		movs	r1, #0
 3183 0c70 00F5D870 		add	r0, r0, #432
 3184 0c74 FFF7FEFF 		bl	lv_style_set_pad_all
 3185 0c78 2068     		ldr	r0, [r4]
 3186 0c7a 0021     		movs	r1, #0
 3187 0c7c 00F5D870 		add	r0, r0, #432
 3188 0c80 FFF7FEFF 		bl	lv_style_set_pad_gap
 3189 0c84 2768     		ldr	r7, [r4]
 3190 0c86 0121     		movs	r1, #1
 3191 0c88 F068     		ldr	r0, [r6, #12]
 3192 0c8a FFF7FEFF 		bl	lv_disp_dpx
 3193 0c8e 0146     		mov	r1, r0
 3194 0c90 07F5D870 		add	r0, r7, #432
 3195 0c94 FFF7FEFF 		bl	lv_style_set_border_width
 3196 0c98 2068     		ldr	r0, [r4]
 3197 0c9a 1921     		movs	r1, #25
 3198 0c9c 00F5D870 		add	r0, r0, #432
 3199 0ca0 FFF7FEFF 		bl	lv_style_set_border_opa
 3200 0ca4 2068     		ldr	r0, [r4]
 3201 0ca6 2988     		ldrh	r1, [r5]
 3202 0ca8 00F5D870 		add	r0, r0, #432
 3203 0cac FFF7FEFF 		bl	lv_style_set_border_color
 3204 0cb0 2068     		ldr	r0, [r4]
 3205 0cb2 0821     		movs	r1, #8
 3206 0cb4 00F5D870 		add	r0, r0, #432
 3207 0cb8 FFF7FEFF 		bl	lv_style_set_border_side
 3208 0cbc 2068     		ldr	r0, [r4]
 3209 0cbe 00F5DC70 		add	r0, r0, #440
 3210 0cc2 FFF7FEFF 		bl	style_init_reset
 3211 0cc6 2068     		ldr	r0, [r4]
 3212 0cc8 0021     		movs	r1, #0
 3213 0cca 00F5DC70 		add	r0, r0, #440
 3214 0cce FFF7FEFF 		bl	lv_style_set_pad_all
 3215 0cd2 2068     		ldr	r0, [r4]
ARM GAS  /var/folders/lp/x54gwt890xv47sdkqj1k04q40000gn/T//ccyxAmDN.s 			page 57


 3216 0cd4 0021     		movs	r1, #0
 3217 0cd6 00F5DC70 		add	r0, r0, #440
 3218 0cda FFF7FEFF 		bl	lv_style_set_pad_gap
 3219 0cde 2068     		ldr	r0, [r4]
 3220 0ce0 00F5E470 		add	r0, r0, #456
 3221 0ce4 FFF7FEFF 		bl	style_init_reset
 3222 0ce8 2468     		ldr	r4, [r4]
 3223 0cea 04F5E474 		add	r4, r4, #456
 3224 0cee 0D4B     		ldr	r3, .L334+4
 3225 0cf0 1B78     		ldrb	r3, [r3]	@ zero_extendqisi2
 3226 0cf2 012B     		cmp	r3, #1
 3227 0cf4 00F05C85 		beq	.L288
 3228 0cf8 022B     		cmp	r3, #2
 3229 0cfa 00F06085 		beq	.L289
 3230 0cfe 0A21     		movs	r1, #10
 3231 0d00 094B     		ldr	r3, .L334+8
 3232 0d02 D868     		ldr	r0, [r3, #12]
 3233 0d04 FFF7FEFF 		bl	lv_disp_dpx
 3234 0d08 0146     		mov	r1, r0
 3235              	.L190:
 3236 0d0a 2046     		mov	r0, r4
 3237 0d0c FFF7FEFF 		bl	lv_style_set_pad_hor
 3238 0d10 064B     		ldr	r3, .L334+12
 3239 0d12 1C68     		ldr	r4, [r3]
 3240 0d14 04F5E474 		add	r4, r4, #456
 3241 0d18 024B     		ldr	r3, .L334+4
 3242 0d1a 1B78     		ldrb	r3, [r3]	@ zero_extendqisi2
 3243 0d1c 012B     		cmp	r3, #1
 3244 0d1e 0BE0     		b	.L335
 3245              	.L336:
 3246              		.align	2
 3247              	.L334:
 3248 0d20 00000000 		.word	color_grey
 3249 0d24 00000000 		.word	disp_size
 3250 0d28 00000000 		.word	theme
 3251 0d2c 00000000 		.word	styles
 3252 0d30 00000000 		.word	color_card
 3253 0d34 00000000 		.word	color_text
 3254              	.L335:
 3255 0d38 00F04985 		beq	.L290
 3256 0d3c 022B     		cmp	r3, #2
 3257 0d3e 00F04E85 		beq	.L291
 3258 0d42 0221     		movs	r1, #2
 3259 0d44 C64B     		ldr	r3, .L337
 3260 0d46 D868     		ldr	r0, [r3, #12]
 3261 0d48 FFF7FEFF 		bl	lv_disp_dpx
 3262 0d4c 0146     		mov	r1, r0
 3263              	.L193:
 3264 0d4e 2046     		mov	r0, r4
 3265 0d50 FFF7FEFF 		bl	lv_style_set_pad_ver
 3266 0d54 C34B     		ldr	r3, .L337+4
 3267 0d56 1C68     		ldr	r4, [r3]
 3268 0d58 04F5E474 		add	r4, r4, #456
 3269 0d5c C24B     		ldr	r3, .L337+8
 3270 0d5e 1B78     		ldrb	r3, [r3]	@ zero_extendqisi2
 3271 0d60 012B     		cmp	r3, #1
 3272 0d62 00F04485 		beq	.L292
ARM GAS  /var/folders/lp/x54gwt890xv47sdkqj1k04q40000gn/T//ccyxAmDN.s 			page 58


 3273 0d66 022B     		cmp	r3, #2
 3274 0d68 00F04985 		beq	.L293
 3275 0d6c 0A21     		movs	r1, #10
 3276 0d6e BC4B     		ldr	r3, .L337
 3277 0d70 D868     		ldr	r0, [r3, #12]
 3278 0d72 FFF7FEFF 		bl	lv_disp_dpx
 3279 0d76 0146     		mov	r1, r0
 3280              	.L196:
 3281 0d78 2046     		mov	r0, r4
 3282 0d7a FFF7FEFF 		bl	lv_style_set_pad_gap
 3283 0d7e B94C     		ldr	r4, .L337+4
 3284 0d80 2068     		ldr	r0, [r4]
 3285 0d82 00F5E870 		add	r0, r0, #464
 3286 0d86 FFF7FEFF 		bl	style_init_reset
 3287 0d8a 2468     		ldr	r4, [r4]
 3288 0d8c 04F5E874 		add	r4, r4, #464
 3289 0d90 B54B     		ldr	r3, .L337+8
 3290 0d92 1B78     		ldrb	r3, [r3]	@ zero_extendqisi2
 3291 0d94 012B     		cmp	r3, #1
 3292 0d96 00F03A85 		beq	.L294
 3293 0d9a 022B     		cmp	r3, #2
 3294 0d9c 00F03F85 		beq	.L295
 3295 0da0 0221     		movs	r1, #2
 3296 0da2 AF4B     		ldr	r3, .L337
 3297 0da4 D868     		ldr	r0, [r3, #12]
 3298 0da6 FFF7FEFF 		bl	lv_disp_dpx
 3299 0daa 0146     		mov	r1, r0
 3300              	.L199:
 3301 0dac 2046     		mov	r0, r4
 3302 0dae FFF7FEFF 		bl	lv_style_set_pad_hor
 3303 0db2 AC4B     		ldr	r3, .L337+4
 3304 0db4 1C68     		ldr	r4, [r3]
 3305 0db6 04F5E874 		add	r4, r4, #464
 3306 0dba AB4B     		ldr	r3, .L337+8
 3307 0dbc 1B78     		ldrb	r3, [r3]	@ zero_extendqisi2
 3308 0dbe 012B     		cmp	r3, #1
 3309 0dc0 00F03585 		beq	.L296
 3310 0dc4 022B     		cmp	r3, #2
 3311 0dc6 00F03A85 		beq	.L297
 3312 0dca 0221     		movs	r1, #2
 3313 0dcc A44B     		ldr	r3, .L337
 3314 0dce D868     		ldr	r0, [r3, #12]
 3315 0dd0 FFF7FEFF 		bl	lv_disp_dpx
 3316 0dd4 0146     		mov	r1, r0
 3317              	.L202:
 3318 0dd6 2046     		mov	r0, r4
 3319 0dd8 FFF7FEFF 		bl	lv_style_set_pad_ver
 3320 0ddc A14C     		ldr	r4, .L337+4
 3321 0dde 2068     		ldr	r0, [r4]
 3322 0de0 0021     		movs	r1, #0
 3323 0de2 00F5E870 		add	r0, r0, #464
 3324 0de6 FFF7FEFF 		bl	lv_style_set_shadow_opa
 3325 0dea 2068     		ldr	r0, [r4]
 3326 0dec 0021     		movs	r1, #0
 3327 0dee 00F5E870 		add	r0, r0, #464
 3328 0df2 FFF7FEFF 		bl	lv_style_set_bg_opa
 3329 0df6 2068     		ldr	r0, [r4]
ARM GAS  /var/folders/lp/x54gwt890xv47sdkqj1k04q40000gn/T//ccyxAmDN.s 			page 59


 3330 0df8 9C4B     		ldr	r3, .L337+12
 3331 0dfa 1988     		ldrh	r1, [r3]
 3332 0dfc 00F5E870 		add	r0, r0, #464
 3333 0e00 FFF7FEFF 		bl	lv_style_set_text_color
 3334 0e04 2068     		ldr	r0, [r4]
 3335 0e06 00F5E070 		add	r0, r0, #448
 3336 0e0a FFF7FEFF 		bl	style_init_reset
 3337 0e0e 2068     		ldr	r0, [r4]
 3338 0e10 0021     		movs	r1, #0
 3339 0e12 00F5E070 		add	r0, r0, #448
 3340 0e16 FFF7FEFF 		bl	lv_style_set_pad_hor
 3341 0e1a 2068     		ldr	r0, [r4]
 3342 0e1c 0021     		movs	r1, #0
 3343 0e1e 00F5E070 		add	r0, r0, #448
 3344 0e22 FFF7FEFF 		bl	lv_style_set_pad_gap
 3345 0e26 2068     		ldr	r0, [r4]
 3346 0e28 00F5F070 		add	r0, r0, #480
 3347 0e2c FFF7FEFF 		bl	style_init_reset
 3348 0e30 2068     		ldr	r0, [r4]
 3349 0e32 3321     		movs	r1, #51
 3350 0e34 00F5F070 		add	r0, r0, #480
 3351 0e38 FFF7FEFF 		bl	lv_style_set_bg_opa
 3352 0e3c 2568     		ldr	r5, [r4]
 3353 0e3e 1220     		movs	r0, #18
 3354 0e40 FFF7FEFF 		bl	lv_palette_main
 3355 0e44 0146     		mov	r1, r0	@ movhi
 3356 0e46 05F5F070 		add	r0, r5, #480
 3357 0e4a FFF7FEFF 		bl	lv_style_set_bg_color
 3358 0e4e 2068     		ldr	r0, [r4]
 3359 0e50 00F5F470 		add	r0, r0, #488
 3360 0e54 FFF7FEFF 		bl	style_init_reset
 3361 0e58 2068     		ldr	r0, [r4]
 3362 0e5a 0021     		movs	r1, #0
 3363 0e5c 00F5F470 		add	r0, r0, #488
 3364 0e60 FFF7FEFF 		bl	lv_style_set_bg_opa
 3365 0e64 2468     		ldr	r4, [r4]
 3366 0e66 04F5F474 		add	r4, r4, #488
 3367 0e6a 7F4B     		ldr	r3, .L337+8
 3368 0e6c 1B78     		ldrb	r3, [r3]	@ zero_extendqisi2
 3369 0e6e 012B     		cmp	r3, #1
 3370 0e70 00F0ED84 		beq	.L298
 3371 0e74 022B     		cmp	r3, #2
 3372 0e76 00F0F284 		beq	.L299
 3373 0e7a 0221     		movs	r1, #2
 3374 0e7c 784B     		ldr	r3, .L337
 3375 0e7e D868     		ldr	r0, [r3, #12]
 3376 0e80 FFF7FEFF 		bl	lv_disp_dpx
 3377 0e84 0146     		mov	r1, r0
 3378              	.L205:
 3379 0e86 2046     		mov	r0, r4
 3380 0e88 FFF7FEFF 		bl	lv_style_set_pad_ver
 3381 0e8c 754C     		ldr	r4, .L337+4
 3382 0e8e 2068     		ldr	r0, [r4]
 3383 0e90 00F5B070 		add	r0, r0, #352
 3384 0e94 FFF7FEFF 		bl	style_init_reset
 3385 0e98 2668     		ldr	r6, [r4]
 3386 0e9a 714D     		ldr	r5, .L337
ARM GAS  /var/folders/lp/x54gwt890xv47sdkqj1k04q40000gn/T//ccyxAmDN.s 			page 60


 3387 0e9c 0521     		movs	r1, #5
 3388 0e9e E868     		ldr	r0, [r5, #12]
 3389 0ea0 FFF7FEFF 		bl	lv_disp_dpx
 3390 0ea4 0146     		mov	r1, r0
 3391 0ea6 06F5B070 		add	r0, r6, #352
 3392 0eaa FFF7FEFF 		bl	lv_style_set_line_width
 3393 0eae 2068     		ldr	r0, [r4]
 3394 0eb0 6E4E     		ldr	r6, .L337+12
 3395 0eb2 3188     		ldrh	r1, [r6]
 3396 0eb4 00F5B070 		add	r0, r0, #352
 3397 0eb8 FFF7FEFF 		bl	lv_style_set_line_color
 3398 0ebc 2768     		ldr	r7, [r4]
 3399 0ebe 1421     		movs	r1, #20
 3400 0ec0 E868     		ldr	r0, [r5, #12]
 3401 0ec2 FFF7FEFF 		bl	lv_disp_dpx
 3402 0ec6 0146     		mov	r1, r0
 3403 0ec8 07F5B070 		add	r0, r7, #352
 3404 0ecc FFF7FEFF 		bl	lv_style_set_size
 3405 0ed0 2768     		ldr	r7, [r4]
 3406 0ed2 0F21     		movs	r1, #15
 3407 0ed4 E868     		ldr	r0, [r5, #12]
 3408 0ed6 FFF7FEFF 		bl	lv_disp_dpx
 3409 0eda 0146     		mov	r1, r0
 3410 0edc 07F5B070 		add	r0, r7, #352
 3411 0ee0 FFF7FEFF 		bl	lv_style_set_pad_left
 3412 0ee4 2068     		ldr	r0, [r4]
 3413 0ee6 00F5B470 		add	r0, r0, #360
 3414 0eea FFF7FEFF 		bl	style_init_reset
 3415 0eee 2068     		ldr	r0, [r4]
 3416 0ef0 47F6FF71 		movw	r1, #32767
 3417 0ef4 00F5B470 		add	r0, r0, #360
 3418 0ef8 FFF7FEFF 		bl	lv_style_set_radius
 3419 0efc 2068     		ldr	r0, [r4]
 3420 0efe 3188     		ldrh	r1, [r6]
 3421 0f00 00F5B470 		add	r0, r0, #360
 3422 0f04 FFF7FEFF 		bl	lv_style_set_bg_color
 3423 0f08 2068     		ldr	r0, [r4]
 3424 0f0a FF21     		movs	r1, #255
 3425 0f0c 00F5B470 		add	r0, r0, #360
 3426 0f10 FFF7FEFF 		bl	lv_style_set_bg_opa
 3427 0f14 2768     		ldr	r7, [r4]
 3428 0f16 0F21     		movs	r1, #15
 3429 0f18 E868     		ldr	r0, [r5, #12]
 3430 0f1a FFF7FEFF 		bl	lv_disp_dpx
 3431 0f1e 0146     		mov	r1, r0
 3432 0f20 07F5B470 		add	r0, r7, #360
 3433 0f24 FFF7FEFF 		bl	lv_style_set_size
 3434 0f28 2068     		ldr	r0, [r4]
 3435 0f2a 00F5AC70 		add	r0, r0, #344
 3436 0f2e FFF7FEFF 		bl	style_init_reset
 3437 0f32 2768     		ldr	r7, [r4]
 3438 0f34 0121     		movs	r1, #1
 3439 0f36 E868     		ldr	r0, [r5, #12]
 3440 0f38 FFF7FEFF 		bl	lv_disp_dpx
 3441 0f3c 0146     		mov	r1, r0
 3442 0f3e 07F5AC70 		add	r0, r7, #344
 3443 0f42 FFF7FEFF 		bl	lv_style_set_border_width
ARM GAS  /var/folders/lp/x54gwt890xv47sdkqj1k04q40000gn/T//ccyxAmDN.s 			page 61


 3444 0f46 2068     		ldr	r0, [r4]
 3445 0f48 494B     		ldr	r3, .L337+16
 3446 0f4a 1988     		ldrh	r1, [r3]
 3447 0f4c 00F5AC70 		add	r0, r0, #344
 3448 0f50 FFF7FEFF 		bl	lv_style_set_border_color
 3449 0f54 2068     		ldr	r0, [r4]
 3450 0f56 0321     		movs	r1, #3
 3451 0f58 00F5AC70 		add	r0, r0, #344
 3452 0f5c FFF7FEFF 		bl	lv_style_set_border_side
 3453 0f60 2068     		ldr	r0, [r4]
 3454 0f62 00F5B870 		add	r0, r0, #368
 3455 0f66 FFF7FEFF 		bl	style_init_reset
 3456 0f6a 2068     		ldr	r0, [r4]
 3457 0f6c 3188     		ldrh	r1, [r6]
 3458 0f6e 00F5B870 		add	r0, r0, #368
 3459 0f72 FFF7FEFF 		bl	lv_style_set_border_color
 3460 0f76 2668     		ldr	r6, [r4]
 3461 0f78 0221     		movs	r1, #2
 3462 0f7a E868     		ldr	r0, [r5, #12]
 3463 0f7c FFF7FEFF 		bl	lv_disp_dpx
 3464 0f80 0146     		mov	r1, r0
 3465 0f82 06F5B870 		add	r0, r6, #368
 3466 0f86 FFF7FEFF 		bl	lv_style_set_border_width
 3467 0f8a 2668     		ldr	r6, [r4]
 3468 0f8c 0121     		movs	r1, #1
 3469 0f8e E868     		ldr	r0, [r5, #12]
 3470 0f90 FFF7FEFF 		bl	lv_disp_dpx
 3471 0f94 81B2     		uxth	r1, r0
 3472 0f96 4942     		rsbs	r1, r1, #0
 3473 0f98 09B2     		sxth	r1, r1
 3474 0f9a 06F5B870 		add	r0, r6, #368
 3475 0f9e FFF7FEFF 		bl	lv_style_set_pad_left
 3476 0fa2 2068     		ldr	r0, [r4]
 3477 0fa4 0421     		movs	r1, #4
 3478 0fa6 00F5B870 		add	r0, r0, #368
 3479 0faa FFF7FEFF 		bl	lv_style_set_border_side
 3480 0fae 2068     		ldr	r0, [r4]
 3481 0fb0 4FF4C871 		mov	r1, #400
 3482 0fb4 00F5B870 		add	r0, r0, #368
 3483 0fb8 FFF7FEFF 		bl	lv_style_set_anim_time
 3484 0fbc 2068     		ldr	r0, [r4]
 3485 0fbe 00F5BC70 		add	r0, r0, #376
 3486 0fc2 FFF7FEFF 		bl	style_init_reset
 3487 0fc6 2468     		ldr	r4, [r4]
 3488 0fc8 04F5BC74 		add	r4, r4, #376
 3489 0fcc 2B6A     		ldr	r3, [r5, #32]
 3490 0fce 13F0010F 		tst	r3, #1
 3491 0fd2 00F04C84 		beq	.L207
 3492 0fd6 0221     		movs	r1, #2
 3493 0fd8 1220     		movs	r0, #18
 3494 0fda FFF7FEFF 		bl	lv_palette_darken
 3495 0fde 0146     		mov	r1, r0	@ movhi
 3496              	.L208:
 3497 0fe0 2046     		mov	r0, r4
 3498 0fe2 FFF7FEFF 		bl	lv_style_set_text_color
 3499 0fe6 1F4C     		ldr	r4, .L337+4
 3500 0fe8 2068     		ldr	r0, [r4]
ARM GAS  /var/folders/lp/x54gwt890xv47sdkqj1k04q40000gn/T//ccyxAmDN.s 			page 62


 3501 0fea 00F5C070 		add	r0, r0, #384
 3502 0fee FFF7FEFF 		bl	style_init_reset
 3503 0ff2 2468     		ldr	r4, [r4]
 3504 0ff4 04F5C074 		add	r4, r4, #384
 3505 0ff8 1B4B     		ldr	r3, .L337+8
 3506 0ffa 1B78     		ldrb	r3, [r3]	@ zero_extendqisi2
 3507 0ffc 012B     		cmp	r3, #1
 3508 0ffe 00F03D84 		beq	.L300
 3509 1002 022B     		cmp	r3, #2
 3510 1004 00F04284 		beq	.L301
 3511 1008 0A21     		movs	r1, #10
 3512 100a 154B     		ldr	r3, .L337
 3513 100c D868     		ldr	r0, [r3, #12]
 3514 100e FFF7FEFF 		bl	lv_disp_dpx
 3515 1012 0146     		mov	r1, r0
 3516              	.L210:
 3517 1014 2046     		mov	r0, r4
 3518 1016 FFF7FEFF 		bl	lv_style_set_pad_all
 3519 101a 124B     		ldr	r3, .L337+4
 3520 101c 1C68     		ldr	r4, [r3]
 3521 101e 04F5C074 		add	r4, r4, #384
 3522 1022 114B     		ldr	r3, .L337+8
 3523 1024 1B78     		ldrb	r3, [r3]	@ zero_extendqisi2
 3524 1026 012B     		cmp	r3, #1
 3525 1028 00F03884 		beq	.L302
 3526 102c 022B     		cmp	r3, #2
 3527 102e 00F04084 		beq	.L303
 3528 1032 0A21     		movs	r1, #10
 3529 1034 0A4B     		ldr	r3, .L337
 3530 1036 D868     		ldr	r0, [r3, #12]
 3531 1038 FFF7FEFF 		bl	lv_disp_dpx
 3532 103c 00EBD070 		add	r0, r0, r0, lsr #31
 3533 1040 40F34F01 		sbfx	r1, r0, #1, #16
 3534              	.L213:
 3535 1044 2046     		mov	r0, r4
 3536 1046 FFF7FEFF 		bl	lv_style_set_pad_gap
 3537 104a 064C     		ldr	r4, .L337+4
 3538 104c 2068     		ldr	r0, [r4]
 3539 104e 00F5C470 		add	r0, r0, #392
 3540 1052 FFF7FEFF 		bl	style_init_reset
 3541 1056 2568     		ldr	r5, [r4]
 3542 1058 0121     		movs	r1, #1
 3543 105a 014B     		ldr	r3, .L337
 3544 105c D868     		ldr	r0, [r3, #12]
 3545 105e 09E0     		b	.L338
 3546              	.L339:
 3547              		.align	2
 3548              	.L337:
 3549 1060 00000000 		.word	theme
 3550 1064 00000000 		.word	styles
 3551 1068 00000000 		.word	disp_size
 3552 106c 00000000 		.word	color_text
 3553 1070 00000000 		.word	color_grey
 3554              	.L338:
 3555 1074 FFF7FEFF 		bl	lv_disp_dpx
 3556 1078 0146     		mov	r1, r0
 3557 107a 05F5C470 		add	r0, r5, #392
ARM GAS  /var/folders/lp/x54gwt890xv47sdkqj1k04q40000gn/T//ccyxAmDN.s 			page 63


 3558 107e FFF7FEFF 		bl	lv_style_set_border_width
 3559 1082 2068     		ldr	r0, [r4]
 3560 1084 C14B     		ldr	r3, .L340
 3561 1086 1988     		ldrh	r1, [r3]
 3562 1088 00F5C470 		add	r0, r0, #392
 3563 108c FFF7FEFF 		bl	lv_style_set_border_color
 3564 1090 2068     		ldr	r0, [r4]
 3565 1092 BF4B     		ldr	r3, .L340+4
 3566 1094 1988     		ldrh	r1, [r3]
 3567 1096 00F5C470 		add	r0, r0, #392
 3568 109a FFF7FEFF 		bl	lv_style_set_bg_color
 3569 109e 2068     		ldr	r0, [r4]
 3570 10a0 3321     		movs	r1, #51
 3571 10a2 00F5C470 		add	r0, r0, #392
 3572 10a6 FFF7FEFF 		bl	lv_style_set_bg_opa
 3573 10aa 2068     		ldr	r0, [r4]
 3574 10ac 00F5C870 		add	r0, r0, #400
 3575 10b0 FFF7FEFF 		bl	style_init_reset
 3576 10b4 2468     		ldr	r4, [r4]
 3577 10b6 04F5C874 		add	r4, r4, #400
 3578 10ba B64B     		ldr	r3, .L340+8
 3579 10bc 1B78     		ldrb	r3, [r3]	@ zero_extendqisi2
 3580 10be 012B     		cmp	r3, #1
 3581 10c0 00F00284 		beq	.L304
 3582 10c4 022B     		cmp	r3, #2
 3583 10c6 00F00784 		beq	.L305
 3584 10ca 0A21     		movs	r1, #10
 3585 10cc B24B     		ldr	r3, .L340+12
 3586 10ce D868     		ldr	r0, [r3, #12]
 3587 10d0 FFF7FEFF 		bl	lv_disp_dpx
 3588 10d4 0146     		mov	r1, r0
 3589              	.L216:
 3590 10d6 2046     		mov	r0, r4
 3591 10d8 FFF7FEFF 		bl	lv_style_set_pad_hor
 3592 10dc AF4B     		ldr	r3, .L340+16
 3593 10de 1C68     		ldr	r4, [r3]
 3594 10e0 04F5C874 		add	r4, r4, #400
 3595 10e4 AB4B     		ldr	r3, .L340+8
 3596 10e6 1B78     		ldrb	r3, [r3]	@ zero_extendqisi2
 3597 10e8 012B     		cmp	r3, #1
 3598 10ea 00F0FD83 		beq	.L306
 3599 10ee 022B     		cmp	r3, #2
 3600 10f0 00F00184 		beq	.L307
 3601 10f4 0A21     		movs	r1, #10
 3602 10f6 A84B     		ldr	r3, .L340+12
 3603 10f8 D868     		ldr	r0, [r3, #12]
 3604 10fa FFF7FEFF 		bl	lv_disp_dpx
 3605 10fe 0146     		mov	r1, r0
 3606              	.L219:
 3607 1100 2046     		mov	r0, r4
 3608 1102 FFF7FEFF 		bl	lv_style_set_pad_top
 3609 1106 A54B     		ldr	r3, .L340+16
 3610 1108 1C68     		ldr	r4, [r3]
 3611 110a 04F5C874 		add	r4, r4, #400
 3612 110e A14B     		ldr	r3, .L340+8
 3613 1110 1B78     		ldrb	r3, [r3]	@ zero_extendqisi2
 3614 1112 012B     		cmp	r3, #1
ARM GAS  /var/folders/lp/x54gwt890xv47sdkqj1k04q40000gn/T//ccyxAmDN.s 			page 64


 3615 1114 00F0F783 		beq	.L308
 3616 1118 022B     		cmp	r3, #2
 3617 111a 00F0FB83 		beq	.L309
 3618 111e 0221     		movs	r1, #2
 3619 1120 9D4B     		ldr	r3, .L340+12
 3620 1122 D868     		ldr	r0, [r3, #12]
 3621 1124 FFF7FEFF 		bl	lv_disp_dpx
 3622 1128 0146     		mov	r1, r0
 3623              	.L222:
 3624 112a 2046     		mov	r0, r4
 3625 112c FFF7FEFF 		bl	lv_style_set_pad_bottom
 3626 1130 9A4B     		ldr	r3, .L340+16
 3627 1132 1C68     		ldr	r4, [r3]
 3628 1134 04F5C874 		add	r4, r4, #400
 3629 1138 964B     		ldr	r3, .L340+8
 3630 113a 1B78     		ldrb	r3, [r3]	@ zero_extendqisi2
 3631 113c 012B     		cmp	r3, #1
 3632 113e 00F0F083 		beq	.L310
 3633 1142 022B     		cmp	r3, #2
 3634 1144 00F0F483 		beq	.L311
 3635 1148 0A21     		movs	r1, #10
 3636 114a 934B     		ldr	r3, .L340+12
 3637 114c D868     		ldr	r0, [r3, #12]
 3638 114e FFF7FEFF 		bl	lv_disp_dpx
 3639 1152 0146     		mov	r1, r0
 3640              	.L225:
 3641 1154 2046     		mov	r0, r4
 3642 1156 FFF7FEFF 		bl	lv_style_set_pad_gap
 3643 115a 904C     		ldr	r4, .L340+16
 3644 115c 2068     		ldr	r0, [r4]
 3645 115e 00F5CC70 		add	r0, r0, #408
 3646 1162 FFF7FEFF 		bl	style_init_reset
 3647 1166 2668     		ldr	r6, [r4]
 3648 1168 8B4D     		ldr	r5, .L340+12
 3649 116a 0A21     		movs	r1, #10
 3650 116c E868     		ldr	r0, [r5, #12]
 3651 116e FFF7FEFF 		bl	lv_disp_dpx
 3652 1172 0146     		mov	r1, r0
 3653 1174 06F5CC70 		add	r0, r6, #408
 3654 1178 FFF7FEFF 		bl	lv_style_set_arc_width
 3655 117c 2068     		ldr	r0, [r4]
 3656 117e 00F5FC70 		add	r0, r0, #504
 3657 1182 FFF7FEFF 		bl	style_init_reset
 3658 1186 2668     		ldr	r6, [r4]
 3659 1188 0421     		movs	r1, #4
 3660 118a E868     		ldr	r0, [r5, #12]
 3661 118c FFF7FEFF 		bl	lv_disp_dpx
 3662 1190 0146     		mov	r1, r0
 3663 1192 06F5FC70 		add	r0, r6, #504
 3664 1196 FFF7FEFF 		bl	lv_style_set_pad_all
 3665 119a 2068     		ldr	r0, [r4]
 3666 119c 00F5F870 		add	r0, r0, #496
 3667 11a0 FFF7FEFF 		bl	style_init_reset
 3668 11a4 2068     		ldr	r0, [r4]
 3669 11a6 42F26401 		movw	r1, #8292
 3670 11aa 00F5F870 		add	r0, r0, #496
 3671 11ae FFF7FEFF 		bl	lv_style_set_max_width
ARM GAS  /var/folders/lp/x54gwt890xv47sdkqj1k04q40000gn/T//ccyxAmDN.s 			page 65


 3672 11b2 2068     		ldr	r0, [r4]
 3673 11b4 00F50070 		add	r0, r0, #512
 3674 11b8 FFF7FEFF 		bl	style_init_reset
 3675 11bc 2568     		ldr	r5, [r4]
 3676 11be 1220     		movs	r0, #18
 3677 11c0 FFF7FEFF 		bl	lv_palette_main
 3678 11c4 0146     		mov	r1, r0	@ movhi
 3679 11c6 05F50070 		add	r0, r5, #512
 3680 11ca FFF7FEFF 		bl	lv_style_set_bg_color
 3681 11ce 2068     		ldr	r0, [r4]
 3682 11d0 7F21     		movs	r1, #127
 3683 11d2 00F50070 		add	r0, r0, #512
 3684 11d6 FFF7FEFF 		bl	lv_style_set_bg_opa
 3685 11da 2068     		ldr	r0, [r4]
 3686 11dc 00F50270 		add	r0, r0, #520
 3687 11e0 FFF7FEFF 		bl	style_init_reset
 3688 11e4 2068     		ldr	r0, [r4]
 3689 11e6 0021     		movs	r1, #0
 3690 11e8 00F50270 		add	r0, r0, #520
 3691 11ec FFF7FEFF 		bl	lv_style_set_shadow_width
 3692 11f0 2468     		ldr	r4, [r4]
 3693 11f2 04F50274 		add	r4, r4, #520
 3694 11f6 674B     		ldr	r3, .L340+8
 3695 11f8 1B78     		ldrb	r3, [r3]	@ zero_extendqisi2
 3696 11fa 032B     		cmp	r3, #3
 3697 11fc 00F09F83 		beq	.L312
 3698 1200 012B     		cmp	r3, #1
 3699 1202 00F0B283 		beq	.L313
 3700 1206 0821     		movs	r1, #8
 3701 1208 634B     		ldr	r3, .L340+12
 3702 120a D868     		ldr	r0, [r3, #12]
 3703 120c FFF7FEFF 		bl	lv_disp_dpx
 3704 1210 0146     		mov	r1, r0
 3705              	.L229:
 3706 1212 2046     		mov	r0, r4
 3707 1214 FFF7FEFF 		bl	lv_style_set_radius
 3708 1218 604C     		ldr	r4, .L340+16
 3709 121a 2068     		ldr	r0, [r4]
 3710 121c 00F50E70 		add	r0, r0, #568
 3711 1220 FFF7FEFF 		bl	style_init_reset
 3712 1224 2068     		ldr	r0, [r4]
 3713 1226 5C4D     		ldr	r5, .L340+12
 3714 1228 298A     		ldrh	r1, [r5, #16]
 3715 122a 00F50E70 		add	r0, r0, #568
 3716 122e FFF7FEFF 		bl	lv_style_set_border_color
 3717 1232 2668     		ldr	r6, [r4]
 3718 1234 0221     		movs	r1, #2
 3719 1236 E868     		ldr	r0, [r5, #12]
 3720 1238 FFF7FEFF 		bl	lv_disp_dpx
 3721 123c 81B2     		uxth	r1, r0
 3722 123e 4900     		lsls	r1, r1, #1
 3723 1240 09B2     		sxth	r1, r1
 3724 1242 06F50E70 		add	r0, r6, #568
 3725 1246 FFF7FEFF 		bl	lv_style_set_border_width
 3726 124a 2068     		ldr	r0, [r4]
 3727 124c 0121     		movs	r1, #1
 3728 124e 00F50E70 		add	r0, r0, #568
ARM GAS  /var/folders/lp/x54gwt890xv47sdkqj1k04q40000gn/T//ccyxAmDN.s 			page 66


 3729 1252 FFF7FEFF 		bl	lv_style_set_border_side
 3730 1256 2068     		ldr	r0, [r4]
 3731 1258 00F50C70 		add	r0, r0, #560
 3732 125c FFF7FEFF 		bl	style_init_reset
 3733 1260 2668     		ldr	r6, [r4]
 3734 1262 0221     		movs	r1, #2
 3735 1264 E868     		ldr	r0, [r5, #12]
 3736 1266 FFF7FEFF 		bl	lv_disp_dpx
 3737 126a 81B2     		uxth	r1, r0
 3738 126c 4942     		rsbs	r1, r1, #0
 3739 126e 09B2     		sxth	r1, r1
 3740 1270 06F50C70 		add	r0, r6, #560
 3741 1274 FFF7FEFF 		bl	lv_style_set_outline_pad
 3742 1278 2068     		ldr	r0, [r4]
 3743 127a 00F50470 		add	r0, r0, #528
 3744 127e FFF7FEFF 		bl	style_init_reset
 3745 1282 2468     		ldr	r4, [r4]
 3746 1284 04F50474 		add	r4, r4, #528
 3747 1288 424B     		ldr	r3, .L340+8
 3748 128a 1B78     		ldrb	r3, [r3]	@ zero_extendqisi2
 3749 128c 012B     		cmp	r3, #1
 3750 128e 00F07383 		beq	.L314
 3751 1292 022B     		cmp	r3, #2
 3752 1294 00F07683 		beq	.L315
 3753 1298 1021     		movs	r1, #16
 3754 129a 3F4B     		ldr	r3, .L340+12
 3755 129c D868     		ldr	r0, [r3, #12]
 3756 129e FFF7FEFF 		bl	lv_disp_dpx
 3757 12a2 0146     		mov	r1, r0
 3758              	.L232:
 3759 12a4 2046     		mov	r0, r4
 3760 12a6 FFF7FEFF 		bl	lv_style_set_pad_hor
 3761 12aa 3C4C     		ldr	r4, .L340+16
 3762 12ac 2068     		ldr	r0, [r4]
 3763 12ae 0021     		movs	r1, #0
 3764 12b0 00F50470 		add	r0, r0, #528
 3765 12b4 FFF7FEFF 		bl	lv_style_set_pad_ver
 3766 12b8 2068     		ldr	r0, [r4]
 3767 12ba 0021     		movs	r1, #0
 3768 12bc 00F50470 		add	r0, r0, #528
 3769 12c0 FFF7FEFF 		bl	lv_style_set_pad_gap
 3770 12c4 2068     		ldr	r0, [r4]
 3771 12c6 0121     		movs	r1, #1
 3772 12c8 00F50470 		add	r0, r0, #528
 3773 12cc FFF7FEFF 		bl	lv_style_set_clip_corner
 3774 12d0 2068     		ldr	r0, [r4]
 3775 12d2 00F50670 		add	r0, r0, #536
 3776 12d6 FFF7FEFF 		bl	style_init_reset
 3777 12da 2568     		ldr	r5, [r4]
 3778 12dc 0121     		movs	r1, #1
 3779 12de 2E4B     		ldr	r3, .L340+12
 3780 12e0 D868     		ldr	r0, [r3, #12]
 3781 12e2 FFF7FEFF 		bl	lv_disp_dpx
 3782 12e6 0146     		mov	r1, r0
 3783 12e8 05F50670 		add	r0, r5, #536
 3784 12ec FFF7FEFF 		bl	lv_style_set_border_width
 3785 12f0 2068     		ldr	r0, [r4]
ARM GAS  /var/folders/lp/x54gwt890xv47sdkqj1k04q40000gn/T//ccyxAmDN.s 			page 67


 3786 12f2 264B     		ldr	r3, .L340
 3787 12f4 1988     		ldrh	r1, [r3]
 3788 12f6 00F50670 		add	r0, r0, #536
 3789 12fa FFF7FEFF 		bl	lv_style_set_border_color
 3790 12fe 2068     		ldr	r0, [r4]
 3791 1300 0121     		movs	r1, #1
 3792 1302 00F50670 		add	r0, r0, #536
 3793 1306 FFF7FEFF 		bl	lv_style_set_border_side
 3794 130a 2468     		ldr	r4, [r4]
 3795 130c 04F50674 		add	r4, r4, #536
 3796 1310 204B     		ldr	r3, .L340+8
 3797 1312 1B78     		ldrb	r3, [r3]	@ zero_extendqisi2
 3798 1314 012B     		cmp	r3, #1
 3799 1316 00F03C83 		beq	.L316
 3800 131a 022B     		cmp	r3, #2
 3801 131c 00F04083 		beq	.L317
 3802 1320 0A21     		movs	r1, #10
 3803 1322 1D4B     		ldr	r3, .L340+12
 3804 1324 D868     		ldr	r0, [r3, #12]
 3805 1326 FFF7FEFF 		bl	lv_disp_dpx
 3806 132a 0146     		mov	r1, r0
 3807              	.L235:
 3808 132c 2046     		mov	r0, r4
 3809 132e FFF7FEFF 		bl	lv_style_set_pad_all
 3810 1332 1A4B     		ldr	r3, .L340+16
 3811 1334 1C68     		ldr	r4, [r3]
 3812 1336 04F50674 		add	r4, r4, #536
 3813 133a 164B     		ldr	r3, .L340+8
 3814 133c 1B78     		ldrb	r3, [r3]	@ zero_extendqisi2
 3815 133e 012B     		cmp	r3, #1
 3816 1340 00F03583 		beq	.L318
 3817 1344 022B     		cmp	r3, #2
 3818 1346 00F03983 		beq	.L319
 3819 134a 0A21     		movs	r1, #10
 3820 134c 124B     		ldr	r3, .L340+12
 3821 134e D868     		ldr	r0, [r3, #12]
 3822 1350 FFF7FEFF 		bl	lv_disp_dpx
 3823 1354 0146     		mov	r1, r0
 3824              	.L238:
 3825 1356 2046     		mov	r0, r4
 3826 1358 FFF7FEFF 		bl	lv_style_set_pad_column
 3827 135c 0F4C     		ldr	r4, .L340+16
 3828 135e 2068     		ldr	r0, [r4]
 3829 1360 00F50870 		add	r0, r0, #544
 3830 1364 FFF7FEFF 		bl	style_init_reset
 3831 1368 2468     		ldr	r4, [r4]
 3832 136a 04F50874 		add	r4, r4, #544
 3833 136e 094B     		ldr	r3, .L340+8
 3834 1370 1B78     		ldrb	r3, [r3]	@ zero_extendqisi2
 3835 1372 012B     		cmp	r3, #1
 3836 1374 00F02983 		beq	.L320
 3837 1378 022B     		cmp	r3, #2
 3838 137a 00F02D83 		beq	.L321
 3839 137e 1021     		movs	r1, #16
 3840 1380 054B     		ldr	r3, .L340+12
 3841 1382 D868     		ldr	r0, [r3, #12]
 3842 1384 FFF7FEFF 		bl	lv_disp_dpx
ARM GAS  /var/folders/lp/x54gwt890xv47sdkqj1k04q40000gn/T//ccyxAmDN.s 			page 68


 3843 1388 0146     		mov	r1, r0
 3844 138a 09E0     		b	.L341
 3845              	.L342:
 3846              		.align	2
 3847              	.L340:
 3848 138c 00000000 		.word	color_grey
 3849 1390 00000000 		.word	color_card
 3850 1394 00000000 		.word	disp_size
 3851 1398 00000000 		.word	theme
 3852 139c 00000000 		.word	styles
 3853              	.L341:
 3854              	.L241:
 3855 13a0 2046     		mov	r0, r4
 3856 13a2 FFF7FEFF 		bl	lv_style_set_transform_width
 3857 13a6 CE4C     		ldr	r4, .L343
 3858 13a8 2068     		ldr	r0, [r4]
 3859 13aa 00F51070 		add	r0, r0, #576
 3860 13ae FFF7FEFF 		bl	style_init_reset
 3861 13b2 2068     		ldr	r0, [r4]
 3862 13b4 FF21     		movs	r1, #255
 3863 13b6 00F51070 		add	r0, r0, #576
 3864 13ba FFF7FEFF 		bl	lv_style_set_bg_opa
 3865 13be 2068     		ldr	r0, [r4]
 3866 13c0 4FF0FF31 		mov	r1, #-1	@ movhi
 3867 13c4 00F51070 		add	r0, r0, #576
 3868 13c8 FFF7FEFF 		bl	lv_style_set_bg_color
 3869 13cc 2568     		ldr	r5, [r4]
 3870 13ce 1220     		movs	r0, #18
 3871 13d0 FFF7FEFF 		bl	lv_palette_main
 3872 13d4 0146     		mov	r1, r0	@ movhi
 3873 13d6 05F51070 		add	r0, r5, #576
 3874 13da FFF7FEFF 		bl	lv_style_set_bg_grad_color
 3875 13de 2068     		ldr	r0, [r4]
 3876 13e0 47F6FF71 		movw	r1, #32767
 3877 13e4 00F51070 		add	r0, r0, #576
 3878 13e8 FFF7FEFF 		bl	lv_style_set_radius
 3879 13ec 2668     		ldr	r6, [r4]
 3880 13ee BD4D     		ldr	r5, .L343+4
 3881 13f0 0F21     		movs	r1, #15
 3882 13f2 E868     		ldr	r0, [r5, #12]
 3883 13f4 FFF7FEFF 		bl	lv_disp_dpx
 3884 13f8 0146     		mov	r1, r0
 3885 13fa 06F51070 		add	r0, r6, #576
 3886 13fe FFF7FEFF 		bl	lv_style_set_shadow_width
 3887 1402 2068     		ldr	r0, [r4]
 3888 1404 4FF0FF31 		mov	r1, #-1	@ movhi
 3889 1408 00F51070 		add	r0, r0, #576
 3890 140c FFF7FEFF 		bl	lv_style_set_shadow_color
 3891 1410 2468     		ldr	r4, [r4]
 3892 1412 0521     		movs	r1, #5
 3893 1414 E868     		ldr	r0, [r5, #12]
 3894 1416 FFF7FEFF 		bl	lv_disp_dpx
 3895 141a 0146     		mov	r1, r0
 3896 141c 04F51070 		add	r0, r4, #576
 3897 1420 FFF7FEFF 		bl	lv_style_set_shadow_spread
 3898 1424 03B0     		add	sp, sp, #12
 3899              		@ sp needed
ARM GAS  /var/folders/lp/x54gwt890xv47sdkqj1k04q40000gn/T//ccyxAmDN.s 			page 69


 3900 1426 BDE8F083 		pop	{r4, r5, r6, r7, r8, r9, pc}
 3901              	.L113:
 3902 142a 0421     		movs	r1, #4
 3903 142c 1220     		movs	r0, #18
 3904 142e FFF7FEFF 		bl	lv_palette_lighten
 3905 1432 AD4B     		ldr	r3, .L343+8
 3906 1434 1880     		strh	r0, [r3]	@ movhi
 3907 1436 FEF7F0BD 		b	.L114
 3908              	.L115:
 3909 143a 0421     		movs	r1, #4
 3910 143c 1220     		movs	r0, #18
 3911 143e FFF7FEFF 		bl	lv_palette_darken
 3912 1442 AA4B     		ldr	r3, .L343+12
 3913 1444 1880     		strh	r0, [r3]	@ movhi
 3914 1446 FEF7F4BD 		b	.L116
 3915              	.L117:
 3916 144a 4FF6FF71 		movw	r1, #65535
 3917 144e A84A     		ldr	r2, .L343+16
 3918 1450 1180     		strh	r1, [r2]	@ movhi
 3919 1452 FEF7F8BD 		b	.L118
 3920              	.L119:
 3921 1456 0221     		movs	r1, #2
 3922 1458 1220     		movs	r0, #18
 3923 145a FFF7FEFF 		bl	lv_palette_lighten
 3924 145e A54B     		ldr	r3, .L343+20
 3925 1460 1880     		strh	r0, [r3]	@ movhi
 3926 1462 FEF7F7BD 		b	.L120
 3927              	.L121:
 3928 1466 1220     		movs	r0, #18
 3929 1468 FFF7FEFF 		bl	lv_palette_main
 3930 146c 0146     		mov	r1, r0	@ movhi
 3931 146e FEF72BBE 		b	.L122
 3932              	.L246:
 3933 1472 0E21     		movs	r1, #14
 3934 1474 E868     		ldr	r0, [r5, #12]
 3935 1476 FFF7FEFF 		bl	lv_disp_dpx
 3936 147a 0146     		mov	r1, r0
 3937 147c FEF777BE 		b	.L124
 3938              	.L247:
 3939 1480 0C21     		movs	r1, #12
 3940 1482 984B     		ldr	r3, .L343+4
 3941 1484 D868     		ldr	r0, [r3, #12]
 3942 1486 FFF7FEFF 		bl	lv_disp_dpx
 3943 148a 0146     		mov	r1, r0
 3944 148c FEF76FBE 		b	.L124
 3945              	.L248:
 3946 1490 0E21     		movs	r1, #14
 3947 1492 944B     		ldr	r3, .L343+4
 3948 1494 D868     		ldr	r0, [r3, #12]
 3949 1496 FFF7FEFF 		bl	lv_disp_dpx
 3950 149a 0146     		mov	r1, r0
 3951 149c FEF77ABE 		b	.L127
 3952              	.L249:
 3953 14a0 0C21     		movs	r1, #12
 3954 14a2 904B     		ldr	r3, .L343+4
 3955 14a4 D868     		ldr	r0, [r3, #12]
 3956 14a6 FFF7FEFF 		bl	lv_disp_dpx
ARM GAS  /var/folders/lp/x54gwt890xv47sdkqj1k04q40000gn/T//ccyxAmDN.s 			page 70


 3957 14aa 0146     		mov	r1, r0
 3958 14ac FEF772BE 		b	.L127
 3959              	.L250:
 3960 14b0 0C21     		movs	r1, #12
 3961 14b2 8C4B     		ldr	r3, .L343+4
 3962 14b4 D868     		ldr	r0, [r3, #12]
 3963 14b6 FFF7FEFF 		bl	lv_disp_dpx
 3964 14ba 0146     		mov	r1, r0
 3965 14bc FEF77FBE 		b	.L130
 3966              	.L251:
 3967 14c0 1821     		movs	r1, #24
 3968 14c2 884B     		ldr	r3, .L343+4
 3969 14c4 D868     		ldr	r0, [r3, #12]
 3970 14c6 FFF7FEFF 		bl	lv_disp_dpx
 3971 14ca 0146     		mov	r1, r0
 3972 14cc FEF7B2BE 		b	.L132
 3973              	.L252:
 3974 14d0 1421     		movs	r1, #20
 3975 14d2 844B     		ldr	r3, .L343+4
 3976 14d4 D868     		ldr	r0, [r3, #12]
 3977 14d6 FFF7FEFF 		bl	lv_disp_dpx
 3978 14da 0146     		mov	r1, r0
 3979 14dc FEF7AABE 		b	.L132
 3980              	.L253:
 3981 14e0 0E21     		movs	r1, #14
 3982 14e2 804B     		ldr	r3, .L343+4
 3983 14e4 D868     		ldr	r0, [r3, #12]
 3984 14e6 FFF7FEFF 		bl	lv_disp_dpx
 3985 14ea 0146     		mov	r1, r0
 3986 14ec FEF7B6BE 		b	.L135
 3987              	.L254:
 3988 14f0 0C21     		movs	r1, #12
 3989 14f2 7C4B     		ldr	r3, .L343+4
 3990 14f4 D868     		ldr	r0, [r3, #12]
 3991 14f6 FFF7FEFF 		bl	lv_disp_dpx
 3992 14fa 0146     		mov	r1, r0
 3993 14fc FEF7AEBE 		b	.L135
 3994              	.L255:
 3995 1500 0E21     		movs	r1, #14
 3996 1502 784B     		ldr	r3, .L343+4
 3997 1504 D868     		ldr	r0, [r3, #12]
 3998 1506 FFF7FEFF 		bl	lv_disp_dpx
 3999 150a 0146     		mov	r1, r0
 4000 150c FEF7BABE 		b	.L138
 4001              	.L256:
 4002 1510 0C21     		movs	r1, #12
 4003 1512 744B     		ldr	r3, .L343+4
 4004 1514 D868     		ldr	r0, [r3, #12]
 4005 1516 FFF7FEFF 		bl	lv_disp_dpx
 4006 151a 0146     		mov	r1, r0
 4007 151c FEF7B2BE 		b	.L138
 4008              	.L257:
 4009 1520 1021     		movs	r1, #16
 4010 1522 E868     		ldr	r0, [r5, #12]
 4011 1524 FFF7FEFF 		bl	lv_disp_dpx
 4012 1528 0146     		mov	r1, r0
 4013 152a FEF729BF 		b	.L141
ARM GAS  /var/folders/lp/x54gwt890xv47sdkqj1k04q40000gn/T//ccyxAmDN.s 			page 71


 4014              	.L258:
 4015 152e 0C21     		movs	r1, #12
 4016 1530 6C4B     		ldr	r3, .L343+4
 4017 1532 D868     		ldr	r0, [r3, #12]
 4018 1534 FFF7FEFF 		bl	lv_disp_dpx
 4019 1538 0146     		mov	r1, r0
 4020 153a FEF721BF 		b	.L141
 4021              	.L259:
 4022 153e 2568     		ldr	r5, [r4]
 4023 1540 1220     		movs	r0, #18
 4024 1542 FFF7FEFF 		bl	lv_palette_main
 4025 1546 0146     		mov	r1, r0	@ movhi
 4026 1548 05F12000 		add	r0, r5, #32
 4027 154c FFF7FEFF 		bl	lv_style_set_shadow_color
 4028 1550 2468     		ldr	r4, [r4]
 4029 1552 2034     		adds	r4, r4, #32
 4030 1554 0020     		movs	r0, #0
 4031 1556 FFF7FEFF 		bl	lv_disp_get_dpi
 4032 155a 00EB4000 		add	r0, r0, r0, lsl #1
 4033 155e EF28     		cmp	r0, #239
 4034 1560 1CDC     		bgt	.L322
 4035 1562 0121     		movs	r1, #1
 4036              	.L144:
 4037 1564 2046     		mov	r0, r4
 4038 1566 FFF7FEFF 		bl	lv_style_set_shadow_width
 4039 156a 5D4C     		ldr	r4, .L343
 4040 156c 2068     		ldr	r0, [r4]
 4041 156e 7F21     		movs	r1, #127
 4042 1570 2030     		adds	r0, r0, #32
 4043 1572 FFF7FEFF 		bl	lv_style_set_shadow_opa
 4044 1576 2468     		ldr	r4, [r4]
 4045 1578 2034     		adds	r4, r4, #32
 4046 157a 5A4B     		ldr	r3, .L343+4
 4047 157c DD68     		ldr	r5, [r3, #12]
 4048 157e 0020     		movs	r0, #0
 4049 1580 FFF7FEFF 		bl	lv_disp_get_dpi
 4050 1584 3B28     		cmp	r0, #59
 4051 1586 18DC     		bgt	.L323
 4052 1588 0121     		movs	r1, #1
 4053              	.L145:
 4054 158a 2846     		mov	r0, r5
 4055 158c FFF7FEFF 		bl	lv_disp_dpx
 4056 1590 0146     		mov	r1, r0
 4057 1592 2046     		mov	r0, r4
 4058 1594 FFF7FEFF 		bl	lv_style_set_shadow_ofs_y
 4059 1598 FEF707BF 		b	.L143
 4060              	.L322:
 4061 159c 0020     		movs	r0, #0
 4062 159e FFF7FEFF 		bl	lv_disp_get_dpi
 4063 15a2 00EB4000 		add	r0, r0, r0, lsl #1
 4064 15a6 00F15001 		add	r1, r0, #80
 4065 15aa 534B     		ldr	r3, .L343+24
 4066 15ac 83FB0123 		smull	r2, r3, r3, r1
 4067 15b0 C917     		asrs	r1, r1, #31
 4068 15b2 C1EBA311 		rsb	r1, r1, r3, asr #6
 4069 15b6 09B2     		sxth	r1, r1
 4070 15b8 D4E7     		b	.L144
ARM GAS  /var/folders/lp/x54gwt890xv47sdkqj1k04q40000gn/T//ccyxAmDN.s 			page 72


 4071              	.L323:
 4072 15ba 0020     		movs	r0, #0
 4073 15bc FFF7FEFF 		bl	lv_disp_get_dpi
 4074 15c0 1430     		adds	r0, r0, #20
 4075 15c2 4D4B     		ldr	r3, .L343+24
 4076 15c4 83FB0023 		smull	r2, r3, r3, r0
 4077 15c8 C117     		asrs	r1, r0, #31
 4078 15ca C1EB2311 		rsb	r1, r1, r3, asr #4
 4079 15ce 09B2     		sxth	r1, r1
 4080 15d0 DBE7     		b	.L145
 4081              	.L260:
 4082 15d2 1821     		movs	r1, #24
 4083 15d4 434B     		ldr	r3, .L343+4
 4084 15d6 D868     		ldr	r0, [r3, #12]
 4085 15d8 FFF7FEFF 		bl	lv_disp_dpx
 4086 15dc 0146     		mov	r1, r0
 4087 15de FEF7FBBE 		b	.L147
 4088              	.L261:
 4089 15e2 1421     		movs	r1, #20
 4090 15e4 3F4B     		ldr	r3, .L343+4
 4091 15e6 D868     		ldr	r0, [r3, #12]
 4092 15e8 FFF7FEFF 		bl	lv_disp_dpx
 4093 15ec 0146     		mov	r1, r0
 4094 15ee FEF7F3BE 		b	.L147
 4095              	.L262:
 4096 15f2 0E21     		movs	r1, #14
 4097 15f4 3B4B     		ldr	r3, .L343+4
 4098 15f6 D868     		ldr	r0, [r3, #12]
 4099 15f8 FFF7FEFF 		bl	lv_disp_dpx
 4100 15fc 0146     		mov	r1, r0
 4101 15fe FEF7FFBE 		b	.L150
 4102              	.L263:
 4103 1602 0C21     		movs	r1, #12
 4104 1604 374B     		ldr	r3, .L343+4
 4105 1606 D868     		ldr	r0, [r3, #12]
 4106 1608 FFF7FEFF 		bl	lv_disp_dpx
 4107 160c 0146     		mov	r1, r0
 4108 160e FEF7F7BE 		b	.L150
 4109              	.L264:
 4110 1612 1821     		movs	r1, #24
 4111 1614 334B     		ldr	r3, .L343+4
 4112 1616 D868     		ldr	r0, [r3, #12]
 4113 1618 FFF7FEFF 		bl	lv_disp_dpx
 4114 161c 0146     		mov	r1, r0
 4115 161e FEF74CBF 		b	.L153
 4116              	.L265:
 4117 1622 1421     		movs	r1, #20
 4118 1624 2F4B     		ldr	r3, .L343+4
 4119 1626 D868     		ldr	r0, [r3, #12]
 4120 1628 FFF7FEFF 		bl	lv_disp_dpx
 4121 162c 0146     		mov	r1, r0
 4122 162e FEF744BF 		b	.L153
 4123              	.L266:
 4124 1632 1821     		movs	r1, #24
 4125 1634 2B4B     		ldr	r3, .L343+4
 4126 1636 D868     		ldr	r0, [r3, #12]
 4127 1638 FFF7FEFF 		bl	lv_disp_dpx
ARM GAS  /var/folders/lp/x54gwt890xv47sdkqj1k04q40000gn/T//ccyxAmDN.s 			page 73


 4128 163c 0146     		mov	r1, r0
 4129 163e FEF750BF 		b	.L156
 4130              	.L267:
 4131 1642 1421     		movs	r1, #20
 4132 1644 274B     		ldr	r3, .L343+4
 4133 1646 D868     		ldr	r0, [r3, #12]
 4134 1648 FFF7FEFF 		bl	lv_disp_dpx
 4135 164c 0146     		mov	r1, r0
 4136 164e FEF748BF 		b	.L156
 4137              	.L268:
 4138 1652 1821     		movs	r1, #24
 4139 1654 234B     		ldr	r3, .L343+4
 4140 1656 D868     		ldr	r0, [r3, #12]
 4141 1658 FFF7FEFF 		bl	lv_disp_dpx
 4142 165c 0146     		mov	r1, r0
 4143 165e FEF754BF 		b	.L159
 4144              	.L269:
 4145 1662 1421     		movs	r1, #20
 4146 1664 1F4B     		ldr	r3, .L343+4
 4147 1666 D868     		ldr	r0, [r3, #12]
 4148 1668 FFF7FEFF 		bl	lv_disp_dpx
 4149 166c 0146     		mov	r1, r0
 4150 166e FEF74CBF 		b	.L159
 4151              	.L270:
 4152 1672 0E21     		movs	r1, #14
 4153 1674 1B4B     		ldr	r3, .L343+4
 4154 1676 D868     		ldr	r0, [r3, #12]
 4155 1678 FFF7FEFF 		bl	lv_disp_dpx
 4156 167c 0146     		mov	r1, r0
 4157 167e FEF75CBF 		b	.L162
 4158              	.L271:
 4159 1682 0C21     		movs	r1, #12
 4160 1684 174B     		ldr	r3, .L343+4
 4161 1686 D868     		ldr	r0, [r3, #12]
 4162 1688 FFF7FEFF 		bl	lv_disp_dpx
 4163 168c 0146     		mov	r1, r0
 4164 168e FEF754BF 		b	.L162
 4165              	.L272:
 4166 1692 0E21     		movs	r1, #14
 4167 1694 134B     		ldr	r3, .L343+4
 4168 1696 D868     		ldr	r0, [r3, #12]
 4169 1698 FFF7FEFF 		bl	lv_disp_dpx
 4170 169c 0146     		mov	r1, r0
 4171 169e FEF760BF 		b	.L165
 4172              	.L273:
 4173 16a2 0C21     		movs	r1, #12
 4174 16a4 0F4B     		ldr	r3, .L343+4
 4175 16a6 D868     		ldr	r0, [r3, #12]
 4176 16a8 FFF7FEFF 		bl	lv_disp_dpx
 4177 16ac 0146     		mov	r1, r0
 4178 16ae FEF758BF 		b	.L165
 4179              	.L274:
 4180 16b2 0821     		movs	r1, #8
 4181 16b4 E868     		ldr	r0, [r5, #12]
 4182 16b6 FFF7FEFF 		bl	lv_disp_dpx
 4183 16ba 0146     		mov	r1, r0
 4184 16bc FEF7ACBF 		b	.L168
ARM GAS  /var/folders/lp/x54gwt890xv47sdkqj1k04q40000gn/T//ccyxAmDN.s 			page 74


 4185              	.L275:
 4186 16c0 0621     		movs	r1, #6
 4187 16c2 084B     		ldr	r3, .L343+4
 4188 16c4 D868     		ldr	r0, [r3, #12]
 4189 16c6 FFF7FEFF 		bl	lv_disp_dpx
 4190 16ca 0146     		mov	r1, r0
 4191 16cc FEF7A4BF 		b	.L168
 4192              	.L276:
 4193 16d0 0821     		movs	r1, #8
 4194 16d2 044B     		ldr	r3, .L343+4
 4195 16d4 D868     		ldr	r0, [r3, #12]
 4196 16d6 FFF7FEFF 		bl	lv_disp_dpx
 4197 16da 0146     		mov	r1, r0
 4198 16dc FEF7B0BF 		b	.L171
 4199              	.L344:
 4200              		.align	2
 4201              	.L343:
 4202 16e0 00000000 		.word	styles
 4203 16e4 00000000 		.word	theme
 4204 16e8 00000000 		.word	color_scr
 4205 16ec 00000000 		.word	color_text
 4206 16f0 00000000 		.word	color_card
 4207 16f4 00000000 		.word	color_grey
 4208 16f8 67666666 		.word	1717986919
 4209              	.L277:
 4210 16fc 0621     		movs	r1, #6
 4211 16fe BA4B     		ldr	r3, .L345
 4212 1700 D868     		ldr	r0, [r3, #12]
 4213 1702 FFF7FEFF 		bl	lv_disp_dpx
 4214 1706 0146     		mov	r1, r0
 4215 1708 FEF79ABF 		b	.L171
 4216              	.L278:
 4217 170c 0821     		movs	r1, #8
 4218 170e B64B     		ldr	r3, .L345
 4219 1710 D868     		ldr	r0, [r3, #12]
 4220 1712 FFF7FEFF 		bl	lv_disp_dpx
 4221 1716 0146     		mov	r1, r0
 4222 1718 FEF7B9BF 		b	.L174
 4223              	.L279:
 4224 171c 0621     		movs	r1, #6
 4225 171e B24B     		ldr	r3, .L345
 4226 1720 D868     		ldr	r0, [r3, #12]
 4227 1722 FFF7FEFF 		bl	lv_disp_dpx
 4228 1726 0146     		mov	r1, r0
 4229 1728 FEF7B1BF 		b	.L174
 4230              	.L280:
 4231 172c 0C21     		movs	r1, #12
 4232 172e E868     		ldr	r0, [r5, #12]
 4233 1730 FFF7FEFF 		bl	lv_disp_dpx
 4234 1734 00EBD070 		add	r0, r0, r0, lsr #31
 4235 1738 40F34F01 		sbfx	r1, r0, #1, #16
 4236 173c FFF7F2B8 		b	.L177
 4237              	.L281:
 4238 1740 0C21     		movs	r1, #12
 4239 1742 A94B     		ldr	r3, .L345
 4240 1744 D868     		ldr	r0, [r3, #12]
 4241 1746 FFF7FEFF 		bl	lv_disp_dpx
ARM GAS  /var/folders/lp/x54gwt890xv47sdkqj1k04q40000gn/T//ccyxAmDN.s 			page 75


 4242 174a 0146     		mov	r1, r0
 4243 174c FFF709BA 		b	.L179
 4244              	.L282:
 4245 1750 0E21     		movs	r1, #14
 4246 1752 A54B     		ldr	r3, .L345
 4247 1754 D868     		ldr	r0, [r3, #12]
 4248 1756 FFF7FEFF 		bl	lv_disp_dpx
 4249 175a 0146     		mov	r1, r0
 4250 175c FFF735BA 		b	.L181
 4251              	.L283:
 4252 1760 0C21     		movs	r1, #12
 4253 1762 A14B     		ldr	r3, .L345
 4254 1764 D868     		ldr	r0, [r3, #12]
 4255 1766 FFF7FEFF 		bl	lv_disp_dpx
 4256 176a 0146     		mov	r1, r0
 4257 176c FFF72DBA 		b	.L181
 4258              	.L284:
 4259 1770 0E21     		movs	r1, #14
 4260 1772 9D4B     		ldr	r3, .L345
 4261 1774 D868     		ldr	r0, [r3, #12]
 4262 1776 FFF7FEFF 		bl	lv_disp_dpx
 4263 177a 0146     		mov	r1, r0
 4264 177c FFF73ABA 		b	.L184
 4265              	.L285:
 4266 1780 0C21     		movs	r1, #12
 4267 1782 994B     		ldr	r3, .L345
 4268 1784 D868     		ldr	r0, [r3, #12]
 4269 1786 FFF7FEFF 		bl	lv_disp_dpx
 4270 178a 0146     		mov	r1, r0
 4271 178c FFF732BA 		b	.L184
 4272              	.L286:
 4273 1790 0E21     		movs	r1, #14
 4274 1792 954B     		ldr	r3, .L345
 4275 1794 D868     		ldr	r0, [r3, #12]
 4276 1796 FFF7FEFF 		bl	lv_disp_dpx
 4277 179a 0146     		mov	r1, r0
 4278 179c FFF73FBA 		b	.L187
 4279              	.L287:
 4280 17a0 0C21     		movs	r1, #12
 4281 17a2 914B     		ldr	r3, .L345
 4282 17a4 D868     		ldr	r0, [r3, #12]
 4283 17a6 FFF7FEFF 		bl	lv_disp_dpx
 4284 17aa 0146     		mov	r1, r0
 4285 17ac FFF737BA 		b	.L187
 4286              	.L288:
 4287 17b0 0E21     		movs	r1, #14
 4288 17b2 F068     		ldr	r0, [r6, #12]
 4289 17b4 FFF7FEFF 		bl	lv_disp_dpx
 4290 17b8 0146     		mov	r1, r0
 4291 17ba FFF7A6BA 		b	.L190
 4292              	.L289:
 4293 17be 0C21     		movs	r1, #12
 4294 17c0 894B     		ldr	r3, .L345
 4295 17c2 D868     		ldr	r0, [r3, #12]
 4296 17c4 FFF7FEFF 		bl	lv_disp_dpx
 4297 17c8 0146     		mov	r1, r0
 4298 17ca FFF79EBA 		b	.L190
ARM GAS  /var/folders/lp/x54gwt890xv47sdkqj1k04q40000gn/T//ccyxAmDN.s 			page 76


 4299              	.L290:
 4300 17ce 0821     		movs	r1, #8
 4301 17d0 854B     		ldr	r3, .L345
 4302 17d2 D868     		ldr	r0, [r3, #12]
 4303 17d4 FFF7FEFF 		bl	lv_disp_dpx
 4304 17d8 0146     		mov	r1, r0
 4305 17da FFF7B8BA 		b	.L193
 4306              	.L291:
 4307 17de 0621     		movs	r1, #6
 4308 17e0 814B     		ldr	r3, .L345
 4309 17e2 D868     		ldr	r0, [r3, #12]
 4310 17e4 FFF7FEFF 		bl	lv_disp_dpx
 4311 17e8 0146     		mov	r1, r0
 4312 17ea FFF7B0BA 		b	.L193
 4313              	.L292:
 4314 17ee 0E21     		movs	r1, #14
 4315 17f0 7D4B     		ldr	r3, .L345
 4316 17f2 D868     		ldr	r0, [r3, #12]
 4317 17f4 FFF7FEFF 		bl	lv_disp_dpx
 4318 17f8 0146     		mov	r1, r0
 4319 17fa FFF7BDBA 		b	.L196
 4320              	.L293:
 4321 17fe 0C21     		movs	r1, #12
 4322 1800 794B     		ldr	r3, .L345
 4323 1802 D868     		ldr	r0, [r3, #12]
 4324 1804 FFF7FEFF 		bl	lv_disp_dpx
 4325 1808 0146     		mov	r1, r0
 4326 180a FFF7B5BA 		b	.L196
 4327              	.L294:
 4328 180e 0821     		movs	r1, #8
 4329 1810 754B     		ldr	r3, .L345
 4330 1812 D868     		ldr	r0, [r3, #12]
 4331 1814 FFF7FEFF 		bl	lv_disp_dpx
 4332 1818 0146     		mov	r1, r0
 4333 181a FFF7C7BA 		b	.L199
 4334              	.L295:
 4335 181e 0621     		movs	r1, #6
 4336 1820 714B     		ldr	r3, .L345
 4337 1822 D868     		ldr	r0, [r3, #12]
 4338 1824 FFF7FEFF 		bl	lv_disp_dpx
 4339 1828 0146     		mov	r1, r0
 4340 182a FFF7BFBA 		b	.L199
 4341              	.L296:
 4342 182e 0821     		movs	r1, #8
 4343 1830 6D4B     		ldr	r3, .L345
 4344 1832 D868     		ldr	r0, [r3, #12]
 4345 1834 FFF7FEFF 		bl	lv_disp_dpx
 4346 1838 0146     		mov	r1, r0
 4347 183a FFF7CCBA 		b	.L202
 4348              	.L297:
 4349 183e 0621     		movs	r1, #6
 4350 1840 694B     		ldr	r3, .L345
 4351 1842 D868     		ldr	r0, [r3, #12]
 4352 1844 FFF7FEFF 		bl	lv_disp_dpx
 4353 1848 0146     		mov	r1, r0
 4354 184a FFF7C4BA 		b	.L202
 4355              	.L298:
ARM GAS  /var/folders/lp/x54gwt890xv47sdkqj1k04q40000gn/T//ccyxAmDN.s 			page 77


 4356 184e 0821     		movs	r1, #8
 4357 1850 654B     		ldr	r3, .L345
 4358 1852 D868     		ldr	r0, [r3, #12]
 4359 1854 FFF7FEFF 		bl	lv_disp_dpx
 4360 1858 0146     		mov	r1, r0
 4361 185a FFF714BB 		b	.L205
 4362              	.L299:
 4363 185e 0621     		movs	r1, #6
 4364 1860 614B     		ldr	r3, .L345
 4365 1862 D868     		ldr	r0, [r3, #12]
 4366 1864 FFF7FEFF 		bl	lv_disp_dpx
 4367 1868 0146     		mov	r1, r0
 4368 186a FFF70CBB 		b	.L205
 4369              	.L207:
 4370 186e 0121     		movs	r1, #1
 4371 1870 1220     		movs	r0, #18
 4372 1872 FFF7FEFF 		bl	lv_palette_lighten
 4373 1876 0146     		mov	r1, r0	@ movhi
 4374 1878 FFF7B2BB 		b	.L208
 4375              	.L300:
 4376 187c 0E21     		movs	r1, #14
 4377 187e 5A4B     		ldr	r3, .L345
 4378 1880 D868     		ldr	r0, [r3, #12]
 4379 1882 FFF7FEFF 		bl	lv_disp_dpx
 4380 1886 0146     		mov	r1, r0
 4381 1888 FFF7C4BB 		b	.L210
 4382              	.L301:
 4383 188c 0C21     		movs	r1, #12
 4384 188e 564B     		ldr	r3, .L345
 4385 1890 D868     		ldr	r0, [r3, #12]
 4386 1892 FFF7FEFF 		bl	lv_disp_dpx
 4387 1896 0146     		mov	r1, r0
 4388 1898 FFF7BCBB 		b	.L210
 4389              	.L302:
 4390 189c 0E21     		movs	r1, #14
 4391 189e 524B     		ldr	r3, .L345
 4392 18a0 D868     		ldr	r0, [r3, #12]
 4393 18a2 FFF7FEFF 		bl	lv_disp_dpx
 4394 18a6 00EBD070 		add	r0, r0, r0, lsr #31
 4395 18aa 40F34F01 		sbfx	r1, r0, #1, #16
 4396 18ae FFF7C9BB 		b	.L213
 4397              	.L303:
 4398 18b2 0C21     		movs	r1, #12
 4399 18b4 4C4B     		ldr	r3, .L345
 4400 18b6 D868     		ldr	r0, [r3, #12]
 4401 18b8 FFF7FEFF 		bl	lv_disp_dpx
 4402 18bc 00EBD070 		add	r0, r0, r0, lsr #31
 4403 18c0 40F34F01 		sbfx	r1, r0, #1, #16
 4404 18c4 FFF7BEBB 		b	.L213
 4405              	.L304:
 4406 18c8 0E21     		movs	r1, #14
 4407 18ca 474B     		ldr	r3, .L345
 4408 18cc D868     		ldr	r0, [r3, #12]
 4409 18ce FFF7FEFF 		bl	lv_disp_dpx
 4410 18d2 0146     		mov	r1, r0
 4411 18d4 FFF7FFBB 		b	.L216
 4412              	.L305:
ARM GAS  /var/folders/lp/x54gwt890xv47sdkqj1k04q40000gn/T//ccyxAmDN.s 			page 78


 4413 18d8 0C21     		movs	r1, #12
 4414 18da 434B     		ldr	r3, .L345
 4415 18dc D868     		ldr	r0, [r3, #12]
 4416 18de FFF7FEFF 		bl	lv_disp_dpx
 4417 18e2 0146     		mov	r1, r0
 4418 18e4 FFF7F7BB 		b	.L216
 4419              	.L306:
 4420 18e8 0E21     		movs	r1, #14
 4421 18ea 3F4B     		ldr	r3, .L345
 4422 18ec D868     		ldr	r0, [r3, #12]
 4423 18ee FFF7FEFF 		bl	lv_disp_dpx
 4424 18f2 0146     		mov	r1, r0
 4425 18f4 04E4     		b	.L219
 4426              	.L307:
 4427 18f6 0C21     		movs	r1, #12
 4428 18f8 3B4B     		ldr	r3, .L345
 4429 18fa D868     		ldr	r0, [r3, #12]
 4430 18fc FFF7FEFF 		bl	lv_disp_dpx
 4431 1900 0146     		mov	r1, r0
 4432 1902 FFF7FDBB 		b	.L219
 4433              	.L308:
 4434 1906 0821     		movs	r1, #8
 4435 1908 374B     		ldr	r3, .L345
 4436 190a D868     		ldr	r0, [r3, #12]
 4437 190c FFF7FEFF 		bl	lv_disp_dpx
 4438 1910 0146     		mov	r1, r0
 4439 1912 0AE4     		b	.L222
 4440              	.L309:
 4441 1914 0621     		movs	r1, #6
 4442 1916 344B     		ldr	r3, .L345
 4443 1918 D868     		ldr	r0, [r3, #12]
 4444 191a FFF7FEFF 		bl	lv_disp_dpx
 4445 191e 0146     		mov	r1, r0
 4446 1920 03E4     		b	.L222
 4447              	.L310:
 4448 1922 0E21     		movs	r1, #14
 4449 1924 304B     		ldr	r3, .L345
 4450 1926 D868     		ldr	r0, [r3, #12]
 4451 1928 FFF7FEFF 		bl	lv_disp_dpx
 4452 192c 0146     		mov	r1, r0
 4453 192e 11E4     		b	.L225
 4454              	.L311:
 4455 1930 0C21     		movs	r1, #12
 4456 1932 2D4B     		ldr	r3, .L345
 4457 1934 D868     		ldr	r0, [r3, #12]
 4458 1936 FFF7FEFF 		bl	lv_disp_dpx
 4459 193a 0146     		mov	r1, r0
 4460 193c 0AE4     		b	.L225
 4461              	.L312:
 4462 193e 012B     		cmp	r3, #1
 4463 1940 09D0     		beq	.L324
 4464 1942 0821     		movs	r1, #8
 4465 1944 284B     		ldr	r3, .L345
 4466 1946 D868     		ldr	r0, [r3, #12]
 4467 1948 FFF7FEFF 		bl	lv_disp_dpx
 4468 194c 00EBD070 		add	r0, r0, r0, lsr #31
 4469 1950 40F34F01 		sbfx	r1, r0, #1, #16
ARM GAS  /var/folders/lp/x54gwt890xv47sdkqj1k04q40000gn/T//ccyxAmDN.s 			page 79


 4470 1954 5DE4     		b	.L229
 4471              	.L324:
 4472 1956 0C21     		movs	r1, #12
 4473 1958 234B     		ldr	r3, .L345
 4474 195a D868     		ldr	r0, [r3, #12]
 4475 195c FFF7FEFF 		bl	lv_disp_dpx
 4476 1960 00EBD070 		add	r0, r0, r0, lsr #31
 4477 1964 40F34F01 		sbfx	r1, r0, #1, #16
 4478 1968 53E4     		b	.L229
 4479              	.L313:
 4480 196a 0C21     		movs	r1, #12
 4481 196c 1E4B     		ldr	r3, .L345
 4482 196e D868     		ldr	r0, [r3, #12]
 4483 1970 FFF7FEFF 		bl	lv_disp_dpx
 4484 1974 0146     		mov	r1, r0
 4485 1976 4CE4     		b	.L229
 4486              	.L314:
 4487 1978 1821     		movs	r1, #24
 4488 197a E868     		ldr	r0, [r5, #12]
 4489 197c FFF7FEFF 		bl	lv_disp_dpx
 4490 1980 0146     		mov	r1, r0
 4491 1982 8FE4     		b	.L232
 4492              	.L315:
 4493 1984 1421     		movs	r1, #20
 4494 1986 184B     		ldr	r3, .L345
 4495 1988 D868     		ldr	r0, [r3, #12]
 4496 198a FFF7FEFF 		bl	lv_disp_dpx
 4497 198e 0146     		mov	r1, r0
 4498 1990 88E4     		b	.L232
 4499              	.L316:
 4500 1992 0E21     		movs	r1, #14
 4501 1994 144B     		ldr	r3, .L345
 4502 1996 D868     		ldr	r0, [r3, #12]
 4503 1998 FFF7FEFF 		bl	lv_disp_dpx
 4504 199c 0146     		mov	r1, r0
 4505 199e C5E4     		b	.L235
 4506              	.L317:
 4507 19a0 0C21     		movs	r1, #12
 4508 19a2 114B     		ldr	r3, .L345
 4509 19a4 D868     		ldr	r0, [r3, #12]
 4510 19a6 FFF7FEFF 		bl	lv_disp_dpx
 4511 19aa 0146     		mov	r1, r0
 4512 19ac BEE4     		b	.L235
 4513              	.L318:
 4514 19ae 0E21     		movs	r1, #14
 4515 19b0 0D4B     		ldr	r3, .L345
 4516 19b2 D868     		ldr	r0, [r3, #12]
 4517 19b4 FFF7FEFF 		bl	lv_disp_dpx
 4518 19b8 0146     		mov	r1, r0
 4519 19ba CCE4     		b	.L238
 4520              	.L319:
 4521 19bc 0C21     		movs	r1, #12
 4522 19be 0A4B     		ldr	r3, .L345
 4523 19c0 D868     		ldr	r0, [r3, #12]
 4524 19c2 FFF7FEFF 		bl	lv_disp_dpx
 4525 19c6 0146     		mov	r1, r0
 4526 19c8 C5E4     		b	.L238
ARM GAS  /var/folders/lp/x54gwt890xv47sdkqj1k04q40000gn/T//ccyxAmDN.s 			page 80


 4527              	.L320:
 4528 19ca 1821     		movs	r1, #24
 4529 19cc 064B     		ldr	r3, .L345
 4530 19ce D868     		ldr	r0, [r3, #12]
 4531 19d0 FFF7FEFF 		bl	lv_disp_dpx
 4532 19d4 0146     		mov	r1, r0
 4533 19d6 E3E4     		b	.L241
 4534              	.L321:
 4535 19d8 1421     		movs	r1, #20
 4536 19da 034B     		ldr	r3, .L345
 4537 19dc D868     		ldr	r0, [r3, #12]
 4538 19de FFF7FEFF 		bl	lv_disp_dpx
 4539 19e2 0146     		mov	r1, r0
 4540 19e4 DCE4     		b	.L241
 4541              	.L346:
 4542 19e6 00BF     		.align	2
 4543              	.L345:
 4544 19e8 00000000 		.word	theme
 4546              		.section	.text.lv_theme_default_is_inited,"ax",%progbits
 4547              		.align	1
 4548              		.global	lv_theme_default_is_inited
 4549              		.syntax unified
 4550              		.thumb
 4551              		.thumb_func
 4553              	lv_theme_default_is_inited:
 4554              		@ args = 0, pretend = 0, frame = 0
 4555              		@ frame_needed = 0, uses_anonymous_args = 0
 4556              		@ link register save eliminated.
 4557 0000 024B     		ldr	r3, .L348
 4558 0002 1868     		ldr	r0, [r3]
 4559 0004 0038     		subs	r0, r0, #0
 4560 0006 18BF     		it	ne
 4561 0008 0120     		movne	r0, #1
 4562 000a 7047     		bx	lr
 4563              	.L349:
 4564              		.align	2
 4565              	.L348:
 4566 000c 00000000 		.word	_lv_theme_default_styles
 4568              		.section	.text.lv_theme_default_init,"ax",%progbits
 4569              		.align	1
 4570              		.global	lv_theme_default_init
 4571              		.syntax unified
 4572              		.thumb
 4573              		.thumb_func
 4575              	lv_theme_default_init:
 4576              		@ args = 4, pretend = 0, frame = 0
 4577              		@ frame_needed = 0, uses_anonymous_args = 0
 4578 0000 2DE9F843 		push	{r3, r4, r5, r6, r7, r8, r9, lr}
 4579 0004 0546     		mov	r5, r0
 4580 0006 8946     		mov	r9, r1	@ movhi
 4581 0008 9046     		mov	r8, r2	@ movhi
 4582 000a 1E46     		mov	r6, r3
 4583 000c 089F     		ldr	r7, [sp, #32]
 4584 000e FFF7FEFF 		bl	lv_theme_default_is_inited
 4585 0012 30B3     		cbz	r0, .L358
 4586              	.L351:
 4587 0014 FFF7FEFF 		bl	lv_disp_get_default
ARM GAS  /var/folders/lp/x54gwt890xv47sdkqj1k04q40000gn/T//ccyxAmDN.s 			page 81


 4588 0018 FFF7FEFF 		bl	lv_disp_get_hor_res
 4589 001c B0F5A07F 		cmp	r0, #320
 4590 0020 2BDC     		bgt	.L352
 4591 0022 1D4B     		ldr	r3, .L359
 4592 0024 0322     		movs	r2, #3
 4593 0026 1A70     		strb	r2, [r3]
 4594              	.L353:
 4595 0028 1C4C     		ldr	r4, .L359+4
 4596 002a E560     		str	r5, [r4, #12]
 4597 002c A4F81090 		strh	r9, [r4, #16]	@ movhi
 4598 0030 A4F81280 		strh	r8, [r4, #18]	@ movhi
 4599 0034 6761     		str	r7, [r4, #20]
 4600 0036 A761     		str	r7, [r4, #24]
 4601 0038 E761     		str	r7, [r4, #28]
 4602 003a 194B     		ldr	r3, .L359+8
 4603 003c 2360     		str	r3, [r4]
 4604 003e 2662     		str	r6, [r4, #32]
 4605 0040 FFF7FEFF 		bl	style_init
 4606 0044 25B1     		cbz	r5, .L355
 4607 0046 2846     		mov	r0, r5
 4608 0048 FFF7FEFF 		bl	lv_disp_get_theme
 4609 004c 8442     		cmp	r4, r0
 4610 004e 02D1     		bne	.L356
 4611              	.L355:
 4612 0050 0020     		movs	r0, #0
 4613 0052 FFF7FEFF 		bl	lv_obj_report_style_change
 4614              	.L356:
 4615 0056 134B     		ldr	r3, .L359+12
 4616 0058 0122     		movs	r2, #1
 4617 005a 1A70     		strb	r2, [r3]
 4618 005c 0F48     		ldr	r0, .L359+4
 4619 005e BDE8F883 		pop	{r3, r4, r5, r6, r7, r8, r9, pc}
 4620              	.L358:
 4621 0062 104B     		ldr	r3, .L359+12
 4622 0064 0022     		movs	r2, #0
 4623 0066 1A70     		strb	r2, [r3]
 4624 0068 4FF41270 		mov	r0, #584
 4625 006c FFF7FEFF 		bl	lv_mem_alloc
 4626 0070 0D4B     		ldr	r3, .L359+16
 4627 0072 1860     		str	r0, [r3]
 4628 0074 0D4B     		ldr	r3, .L359+20
 4629 0076 1860     		str	r0, [r3]
 4630 0078 CCE7     		b	.L351
 4631              	.L352:
 4632 007a FFF7FEFF 		bl	lv_disp_get_default
 4633 007e FFF7FEFF 		bl	lv_disp_get_hor_res
 4634 0082 B0F5347F 		cmp	r0, #720
 4635 0086 03DA     		bge	.L354
 4636 0088 034B     		ldr	r3, .L359
 4637 008a 0222     		movs	r2, #2
 4638 008c 1A70     		strb	r2, [r3]
 4639 008e CBE7     		b	.L353
 4640              	.L354:
 4641 0090 014B     		ldr	r3, .L359
 4642 0092 0122     		movs	r2, #1
 4643 0094 1A70     		strb	r2, [r3]
 4644 0096 C7E7     		b	.L353
ARM GAS  /var/folders/lp/x54gwt890xv47sdkqj1k04q40000gn/T//ccyxAmDN.s 			page 82


 4645              	.L360:
 4646              		.align	2
 4647              	.L359:
 4648 0098 00000000 		.word	disp_size
 4649 009c 00000000 		.word	theme
 4650 00a0 00000000 		.word	theme_apply
 4651 00a4 00000000 		.word	inited
 4652 00a8 00000000 		.word	_lv_theme_default_styles
 4653 00ac 00000000 		.word	styles
 4655              		.section	.text.lv_theme_default_get,"ax",%progbits
 4656              		.align	1
 4657              		.global	lv_theme_default_get
 4658              		.syntax unified
 4659              		.thumb
 4660              		.thumb_func
 4662              	lv_theme_default_get:
 4663              		@ args = 0, pretend = 0, frame = 0
 4664              		@ frame_needed = 0, uses_anonymous_args = 0
 4665 0000 08B5     		push	{r3, lr}
 4666 0002 FFF7FEFF 		bl	lv_theme_default_is_inited
 4667 0006 08B1     		cbz	r0, .L363
 4668 0008 0148     		ldr	r0, .L365
 4669              	.L361:
 4670 000a 08BD     		pop	{r3, pc}
 4671              	.L363:
 4672 000c 0020     		movs	r0, #0
 4673 000e FCE7     		b	.L361
 4674              	.L366:
 4675              		.align	2
 4676              	.L365:
 4677 0010 00000000 		.word	theme
 4679              		.section	.bss.grey_filter.0,"aw",%nobits
 4680              		.align	2
 4683              	grey_filter.0:
 4684 0000 00000000 		.space	8
 4684      00000000 
 4685              		.section	.bss.dark_filter.1,"aw",%nobits
 4686              		.align	2
 4689              	dark_filter.1:
 4690 0000 00000000 		.space	8
 4690      00000000 
 4691              		.section	.bss.trans_normal.2,"aw",%nobits
 4692              		.align	2
 4695              	trans_normal.2:
 4696 0000 00000000 		.space	20
 4696      00000000 
 4696      00000000 
 4696      00000000 
 4696      00000000 
 4697              		.section	.rodata.trans_props.3,"a"
 4698              		.align	2
 4701              	trans_props.3:
 4702 0000 2100     		.short	33
 4703 0002 2000     		.short	32
 4704 0004 6900     		.short	105
 4705 0006 6A00     		.short	106
 4706 0008 6C00     		.short	108
ARM GAS  /var/folders/lp/x54gwt890xv47sdkqj1k04q40000gn/T//ccyxAmDN.s 			page 83


 4707 000a 6B00     		.short	107
 4708 000c 6D00     		.short	109
 4709 000e 6E00     		.short	110
 4710 0010 6300     		.short	99
 4711 0012 6200     		.short	98
 4712 0014 0000     		.short	0
 4713              		.section	.bss.trans_delayed.4,"aw",%nobits
 4714              		.align	2
 4717              	trans_delayed.4:
 4718 0000 00000000 		.space	20
 4718      00000000 
 4718      00000000 
 4718      00000000 
 4718      00000000 
 4719              		.section	.bss.inited,"aw",%nobits
 4722              	inited:
 4723 0000 00       		.space	1
 4724              		.section	.bss.color_grey,"aw",%nobits
 4725              		.align	2
 4728              	color_grey:
 4729 0000 0000     		.space	2
 4730              		.section	.bss.color_card,"aw",%nobits
 4731              		.align	2
 4734              	color_card:
 4735 0000 0000     		.space	2
 4736              		.section	.bss.color_text,"aw",%nobits
 4737              		.align	2
 4740              	color_text:
 4741 0000 0000     		.space	2
 4742              		.section	.bss.color_scr,"aw",%nobits
 4743              		.align	2
 4746              	color_scr:
 4747 0000 0000     		.space	2
 4748              		.section	.bss.disp_size,"aw",%nobits
 4751              	disp_size:
 4752 0000 00       		.space	1
 4753              		.section	.bss.theme,"aw",%nobits
 4754              		.align	2
 4757              	theme:
 4758 0000 00000000 		.space	36
 4758      00000000 
 4758      00000000 
 4758      00000000 
 4758      00000000 
 4759              		.section	.bss.styles,"aw",%nobits
 4760              		.align	2
 4763              	styles:
 4764 0000 00000000 		.space	4
 4765              		.ident	"GCC: (xPack GNU Arm Embedded GCC arm64) 13.3.1 20240614"
ARM GAS  /var/folders/lp/x54gwt890xv47sdkqj1k04q40000gn/T//ccyxAmDN.s 			page 84

