ARM GAS  /var/folders/lp/x54gwt890xv47sdkqj1k04q40000gn/T//ccsFfJ2E.s 			page 1


   1              		.cpu cortex-m4
   2              		.arch armv7e-m
   3              		.fpu fpv4-sp-d16
   4              		.eabi_attribute 27, 1
   5              		.eabi_attribute 28, 1
   6              		.eabi_attribute 20, 1
   7              		.eabi_attribute 21, 1
   8              		.eabi_attribute 23, 3
   9              		.eabi_attribute 24, 1
  10              		.eabi_attribute 25, 1
  11              		.eabi_attribute 26, 1
  12              		.eabi_attribute 30, 1
  13              		.eabi_attribute 34, 1
  14              		.eabi_attribute 18, 4
  15              		.file	"lv_textarea.c"
  16              		.text
  17              		.section	.text.pwd_char_hider_anim,"ax",%progbits
  18              		.align	1
  19              		.syntax unified
  20              		.thumb
  21              		.thumb_func
  23              	pwd_char_hider_anim:
  24              		@ args = 0, pretend = 0, frame = 0
  25              		@ frame_needed = 0, uses_anonymous_args = 0
  26              		@ link register save eliminated.
  27 0000 7047     		bx	lr
  29              		.section	.text.cursor_blink_anim_cb,"ax",%progbits
  30              		.align	1
  31              		.syntax unified
  32              		.thumb
  33              		.thumb_func
  35              	cursor_blink_anim_cb:
  36              		@ args = 0, pretend = 0, frame = 8
  37              		@ frame_needed = 0, uses_anonymous_args = 0
  38 0000 90F85430 		ldrb	r3, [r0, #84]	@ zero_extendqisi2
  39 0004 03F00103 		and	r3, r3, #1
  40 0008 8B42     		cmp	r3, r1
  41 000a 35D0     		beq	.L7
  42 000c 10B5     		push	{r4, lr}
  43 000e 82B0     		sub	sp, sp, #8
  44 0010 81B3     		cbz	r1, .L5
  45 0012 0122     		movs	r2, #1
  46              	.L4:
  47 0014 90F85430 		ldrb	r3, [r0, #84]	@ zero_extendqisi2
  48 0018 62F30003 		bfi	r3, r2, #0, #1
  49 001c 80F85430 		strb	r3, [r0, #84]
  50 0020 B0F948C0 		ldrsh	ip, [r0, #72]
  51 0024 ADF800C0 		strh	ip, [sp]	@ movhi
  52 0028 B0F94A10 		ldrsh	r1, [r0, #74]
  53 002c ADF80210 		strh	r1, [sp, #2]	@ movhi
  54 0030 B0F94C20 		ldrsh	r2, [r0, #76]
  55 0034 ADF80420 		strh	r2, [sp, #4]	@ movhi
  56 0038 B0F94E30 		ldrsh	r3, [r0, #78]
  57 003c ADF80630 		strh	r3, [sp, #6]	@ movhi
  58 0040 446A     		ldr	r4, [r0, #36]
  59 0042 B4F814E0 		ldrh	lr, [r4, #20]
  60 0046 1EFA8CFC 		uxtah	ip, lr, ip
ARM GAS  /var/folders/lp/x54gwt890xv47sdkqj1k04q40000gn/T//ccsFfJ2E.s 			page 2


  61 004a ADF800C0 		strh	ip, [sp]	@ movhi
  62 004e B4F816C0 		ldrh	ip, [r4, #22]
  63 0052 1CFA81F1 		uxtah	r1, ip, r1
  64 0056 ADF80210 		strh	r1, [sp, #2]	@ movhi
  65 005a 1EFA82F2 		uxtah	r2, lr, r2
  66 005e ADF80420 		strh	r2, [sp, #4]	@ movhi
  67 0062 1CFA83F3 		uxtah	r3, ip, r3
  68 0066 ADF80630 		strh	r3, [sp, #6]	@ movhi
  69 006a 6946     		mov	r1, sp
  70 006c FFF7FEFF 		bl	lv_obj_invalidate_area
  71 0070 02B0     		add	sp, sp, #8
  72              		@ sp needed
  73 0072 10BD     		pop	{r4, pc}
  74              	.L5:
  75 0074 0022     		movs	r2, #0
  76 0076 CDE7     		b	.L4
  77              	.L7:
  78 0078 7047     		bx	lr
  80              		.section	.text.start_cursor_blink,"ax",%progbits
  81              		.align	1
  82              		.syntax unified
  83              		.thumb
  84              		.thumb_func
  86              	start_cursor_blink:
  87              		@ args = 0, pretend = 0, frame = 72
  88              		@ frame_needed = 0, uses_anonymous_args = 0
  89 0000 30B5     		push	{r4, r5, lr}
  90 0002 93B0     		sub	sp, sp, #76
  91 0004 0446     		mov	r4, r0
  92 0006 6522     		movs	r2, #101
  93 0008 4FF4E021 		mov	r1, #458752
  94 000c FFF7FEFF 		bl	lv_obj_get_style_prop
  95 0010 58B9     		cbnz	r0, .L11
  96 0012 1249     		ldr	r1, .L14
  97 0014 2046     		mov	r0, r4
  98 0016 FFF7FEFF 		bl	lv_anim_del
  99 001a 94F85430 		ldrb	r3, [r4, #84]	@ zero_extendqisi2
 100 001e 43F00103 		orr	r3, r3, #1
 101 0022 84F85430 		strb	r3, [r4, #84]
 102              	.L10:
 103 0026 13B0     		add	sp, sp, #76
 104              		@ sp needed
 105 0028 30BD     		pop	{r4, r5, pc}
 106              	.L11:
 107 002a 0546     		mov	r5, r0
 108 002c 01A8     		add	r0, sp, #4
 109 002e FFF7FEFF 		bl	lv_anim_init
 110 0032 0194     		str	r4, [sp, #4]
 111 0034 094B     		ldr	r3, .L14
 112 0036 0293     		str	r3, [sp, #8]
 113 0038 0C95     		str	r5, [sp, #48]
 114 003a 0F95     		str	r5, [sp, #60]
 115 003c 0123     		movs	r3, #1
 116 003e 0993     		str	r3, [sp, #36]
 117 0040 0A93     		str	r3, [sp, #40]
 118 0042 0023     		movs	r3, #0
 119 0044 0B93     		str	r3, [sp, #44]
ARM GAS  /var/folders/lp/x54gwt890xv47sdkqj1k04q40000gn/T//ccsFfJ2E.s 			page 3


 120 0046 064B     		ldr	r3, .L14+4
 121 0048 0893     		str	r3, [sp, #32]
 122 004a 4FF6FF73 		movw	r3, #65535
 123 004e ADF84430 		strh	r3, [sp, #68]	@ movhi
 124 0052 01A8     		add	r0, sp, #4
 125 0054 FFF7FEFF 		bl	lv_anim_start
 126 0058 E5E7     		b	.L10
 127              	.L15:
 128 005a 00BF     		.align	2
 129              	.L14:
 130 005c 00000000 		.word	cursor_blink_anim_cb
 131 0060 00000000 		.word	lv_anim_path_step
 133              		.section	.text.draw_placeholder,"ax",%progbits
 134              		.align	1
 135              		.syntax unified
 136              		.thumb
 137              		.thumb_func
 139              	draw_placeholder:
 140              		@ args = 0, pretend = 0, frame = 40
 141              		@ frame_needed = 0, uses_anonymous_args = 0
 142 0000 F0B5     		push	{r4, r5, r6, r7, lr}
 143 0002 8DB0     		sub	sp, sp, #52
 144 0004 0546     		mov	r5, r0
 145 0006 FFF7FEFF 		bl	lv_event_get_target
 146 000a 0446     		mov	r4, r0
 147 000c 2846     		mov	r0, r5
 148 000e FFF7FEFF 		bl	lv_event_get_draw_ctx
 149 0012 0546     		mov	r5, r0
 150 0014 606A     		ldr	r0, [r4, #36]
 151 0016 FFF7FEFF 		bl	lv_label_get_text
 152 001a 0378     		ldrb	r3, [r0]	@ zero_extendqisi2
 153 001c 1BB9     		cbnz	r3, .L16
 154 001e A36A     		ldr	r3, [r4, #40]
 155 0020 0BB1     		cbz	r3, .L16
 156 0022 1B78     		ldrb	r3, [r3]	@ zero_extendqisi2
 157 0024 0BB9     		cbnz	r3, .L20
 158              	.L16:
 159 0026 0DB0     		add	sp, sp, #52
 160              		@ sp needed
 161 0028 F0BD     		pop	{r4, r5, r6, r7, pc}
 162              	.L20:
 163 002a 04A8     		add	r0, sp, #16
 164 002c FFF7FEFF 		bl	lv_draw_label_dsc_init
 165 0030 04AA     		add	r2, sp, #16
 166 0032 4FF40021 		mov	r1, #524288
 167 0036 2046     		mov	r0, r4
 168 0038 FFF7FEFF 		bl	lv_obj_init_draw_label_dsc
 169 003c 94F86030 		ldrb	r3, [r4, #96]	@ zero_extendqisi2
 170 0040 13F0080F 		tst	r3, #8
 171 0044 05D0     		beq	.L18
 172 0046 9DF82D30 		ldrb	r3, [sp, #45]	@ zero_extendqisi2
 173 004a 43F00203 		orr	r3, r3, #2
 174 004e 8DF82D30 		strb	r3, [sp, #45]
 175              	.L18:
 176 0052 1222     		movs	r2, #18
 177 0054 0021     		movs	r1, #0
 178 0056 2046     		mov	r0, r4
ARM GAS  /var/folders/lp/x54gwt890xv47sdkqj1k04q40000gn/T//ccsFfJ2E.s 			page 4


 179 0058 FFF7FEFF 		bl	lv_obj_get_style_prop
 180 005c 0646     		mov	r6, r0
 181 005e 1022     		movs	r2, #16
 182 0060 0021     		movs	r1, #0
 183 0062 2046     		mov	r0, r4
 184 0064 FFF7FEFF 		bl	lv_obj_get_style_prop
 185 0068 0746     		mov	r7, r0
 186 006a 3222     		movs	r2, #50
 187 006c 0021     		movs	r1, #0
 188 006e 2046     		mov	r0, r4
 189 0070 FFF7FEFF 		bl	lv_obj_get_style_prop
 190 0074 B4F91430 		ldrsh	r3, [r4, #20]
 191 0078 ADF80830 		strh	r3, [sp, #8]	@ movhi
 192 007c B4F91630 		ldrsh	r3, [r4, #22]
 193 0080 ADF80A30 		strh	r3, [sp, #10]	@ movhi
 194 0084 B4F91830 		ldrsh	r3, [r4, #24]
 195 0088 ADF80C30 		strh	r3, [sp, #12]	@ movhi
 196 008c B4F91A30 		ldrsh	r3, [r4, #26]
 197 0090 ADF80E30 		strh	r3, [sp, #14]	@ movhi
 198 0094 82B2     		uxth	r2, r0
 199 0096 9119     		adds	r1, r2, r6
 200 0098 3A44     		add	r2, r2, r7
 201 009a 12B2     		sxth	r2, r2
 202 009c 09B2     		sxth	r1, r1
 203 009e 02A8     		add	r0, sp, #8
 204 00a0 FFF7FEFF 		bl	lv_area_move
 205 00a4 A36A     		ldr	r3, [r4, #40]
 206 00a6 0022     		movs	r2, #0
 207 00a8 0092     		str	r2, [sp]
 208 00aa 02AA     		add	r2, sp, #8
 209 00ac 04A9     		add	r1, sp, #16
 210 00ae 2846     		mov	r0, r5
 211 00b0 FFF7FEFF 		bl	lv_draw_label
 212 00b4 B7E7     		b	.L16
 214              		.section	.text.draw_cursor,"ax",%progbits
 215              		.align	1
 216              		.syntax unified
 217              		.thumb
 218              		.thumb_func
 220              	draw_cursor:
 221              		@ args = 0, pretend = 0, frame = 104
 222              		@ frame_needed = 0, uses_anonymous_args = 0
 223 0000 2DE9F043 		push	{r4, r5, r6, r7, r8, r9, lr}
 224 0004 9DB0     		sub	sp, sp, #116
 225 0006 0546     		mov	r5, r0
 226 0008 FFF7FEFF 		bl	lv_event_get_target
 227 000c 0446     		mov	r4, r0
 228 000e 2846     		mov	r0, r5
 229 0010 FFF7FEFF 		bl	lv_event_get_draw_ctx
 230 0014 0646     		mov	r6, r0
 231 0016 606A     		ldr	r0, [r4, #36]
 232 0018 FFF7FEFF 		bl	lv_label_get_text
 233 001c 94F85430 		ldrb	r3, [r4, #84]	@ zero_extendqisi2
 234 0020 13F0010F 		tst	r3, #1
 235 0024 02D1     		bne	.L27
 236              	.L21:
 237 0026 1DB0     		add	sp, sp, #116
ARM GAS  /var/folders/lp/x54gwt890xv47sdkqj1k04q40000gn/T//ccsFfJ2E.s 			page 5


 238              		@ sp needed
 239 0028 BDE8F083 		pop	{r4, r5, r6, r7, r8, r9, pc}
 240              	.L27:
 241 002c 0746     		mov	r7, r0
 242 002e 0EA8     		add	r0, sp, #56
 243 0030 FFF7FEFF 		bl	lv_draw_rect_dsc_init
 244 0034 0EAA     		add	r2, sp, #56
 245 0036 4FF4E021 		mov	r1, #458752
 246 003a 2046     		mov	r0, r4
 247 003c FFF7FEFF 		bl	lv_obj_init_draw_rect_dsc
 248 0040 B4F94800 		ldrsh	r0, [r4, #72]
 249 0044 ADF83000 		strh	r0, [sp, #48]	@ movhi
 250 0048 B4F94A10 		ldrsh	r1, [r4, #74]
 251 004c ADF83210 		strh	r1, [sp, #50]	@ movhi
 252 0050 B4F94C20 		ldrsh	r2, [r4, #76]
 253 0054 ADF83420 		strh	r2, [sp, #52]	@ movhi
 254 0058 B4F94E30 		ldrsh	r3, [r4, #78]
 255 005c ADF83630 		strh	r3, [sp, #54]	@ movhi
 256 0060 D4F824C0 		ldr	ip, [r4, #36]
 257 0064 BCF81450 		ldrh	r5, [ip, #20]
 258 0068 15FA80F0 		uxtah	r0, r5, r0
 259 006c ADF83000 		strh	r0, [sp, #48]	@ movhi
 260 0070 BCF81600 		ldrh	r0, [ip, #22]
 261 0074 10FA81F1 		uxtah	r1, r0, r1
 262 0078 ADF83210 		strh	r1, [sp, #50]	@ movhi
 263 007c 15FA82F2 		uxtah	r2, r5, r2
 264 0080 ADF83420 		strh	r2, [sp, #52]	@ movhi
 265 0084 10FA83F3 		uxtah	r3, r0, r3
 266 0088 ADF83630 		strh	r3, [sp, #54]	@ movhi
 267 008c 0CAA     		add	r2, sp, #48
 268 008e 0EA9     		add	r1, sp, #56
 269 0090 3046     		mov	r0, r6
 270 0092 FFF7FEFF 		bl	lv_draw_rect
 271 0096 3222     		movs	r2, #50
 272 0098 4FF4E021 		mov	r1, #458752
 273 009c 2046     		mov	r0, r4
 274 009e FFF7FEFF 		bl	lv_obj_get_style_prop
 275 00a2 8046     		mov	r8, r0
 276 00a4 1222     		movs	r2, #18
 277 00a6 4FF4E021 		mov	r1, #458752
 278 00aa 2046     		mov	r0, r4
 279 00ac FFF7FEFF 		bl	lv_obj_get_style_prop
 280 00b0 1FFA88F8 		uxth	r8, r8
 281 00b4 18FA80F9 		uxtah	r9, r8, r0
 282 00b8 1FFA89F9 		uxth	r9, r9
 283 00bc 1022     		movs	r2, #16
 284 00be 4FF4E021 		mov	r1, #458752
 285 00c2 2046     		mov	r0, r4
 286 00c4 FFF7FEFF 		bl	lv_obj_get_style_prop
 287 00c8 18FA80F5 		uxtah	r5, r8, r0
 288 00cc ADB2     		uxth	r5, r5
 289 00ce 4FF00008 		mov	r8, #0
 290 00d2 CDF82880 		str	r8, [sp, #40]
 291 00d6 CDF82C80 		str	r8, [sp, #44]
 292 00da 236D     		ldr	r3, [r4, #80]
 293 00dc 1F44     		add	r7, r7, r3
 294 00de 1A4B     		ldr	r3, .L28
ARM GAS  /var/folders/lp/x54gwt890xv47sdkqj1k04q40000gn/T//ccsFfJ2E.s 			page 6


 295 00e0 1B68     		ldr	r3, [r3]
 296 00e2 3846     		mov	r0, r7
 297 00e4 9847     		blx	r3
 298 00e6 0246     		mov	r2, r0
 299 00e8 3946     		mov	r1, r7
 300 00ea 0AA8     		add	r0, sp, #40
 301 00ec FFF7FEFF 		bl	lv_memcpy
 302 00f0 BDF83030 		ldrh	r3, [sp, #48]
 303 00f4 9944     		add	r9, r9, r3
 304 00f6 ADF83090 		strh	r9, [sp, #48]	@ movhi
 305 00fa BDF83230 		ldrh	r3, [sp, #50]
 306 00fe 1D44     		add	r5, r5, r3
 307 0100 ADF83250 		strh	r5, [sp, #50]	@ movhi
 308 0104 5522     		movs	r2, #85
 309 0106 4146     		mov	r1, r8
 310 0108 606A     		ldr	r0, [r4, #36]
 311 010a FFF7FEFF 		bl	lv_obj_get_style_prop
 312 010e 0546     		mov	r5, r0
 313 0110 02A8     		add	r0, sp, #8
 314 0112 FFF7FEFF 		bl	lv_draw_label_dsc_init
 315 0116 02AA     		add	r2, sp, #8
 316 0118 4FF4E021 		mov	r1, #458752
 317 011c 2046     		mov	r0, r4
 318 011e FFF7FEFF 		bl	lv_obj_init_draw_label_dsc
 319 0122 9DF83B30 		ldrb	r3, [sp, #59]	@ zero_extendqisi2
 320 0126 022B     		cmp	r3, #2
 321 0128 05D8     		bhi	.L24
 322 012a BDF81430 		ldrh	r3, [sp, #20]
 323 012e A8B2     		uxth	r0, r5
 324 0130 8342     		cmp	r3, r0
 325 0132 3FF478AF 		beq	.L21
 326              	.L24:
 327 0136 0023     		movs	r3, #0
 328 0138 0093     		str	r3, [sp]
 329 013a 0AAB     		add	r3, sp, #40
 330 013c 0CAA     		add	r2, sp, #48
 331 013e 02A9     		add	r1, sp, #8
 332 0140 3046     		mov	r0, r6
 333 0142 FFF7FEFF 		bl	lv_draw_label
 334 0146 6EE7     		b	.L21
 335              	.L29:
 336              		.align	2
 337              	.L28:
 338 0148 00000000 		.word	_lv_txt_encoded_size
 340              		.section	.text.lv_textarea_destructor,"ax",%progbits
 341              		.align	1
 342              		.syntax unified
 343              		.thumb
 344              		.thumb_func
 346              	lv_textarea_destructor:
 347              		@ args = 0, pretend = 0, frame = 0
 348              		@ frame_needed = 0, uses_anonymous_args = 0
 349 0000 10B5     		push	{r4, lr}
 350 0002 0C46     		mov	r4, r1
 351 0004 C86A     		ldr	r0, [r1, #44]
 352 0006 18B1     		cbz	r0, .L31
 353 0008 FFF7FEFF 		bl	lv_mem_free
ARM GAS  /var/folders/lp/x54gwt890xv47sdkqj1k04q40000gn/T//ccsFfJ2E.s 			page 7


 354 000c 0023     		movs	r3, #0
 355 000e E362     		str	r3, [r4, #44]
 356              	.L31:
 357 0010 206B     		ldr	r0, [r4, #48]
 358 0012 18B1     		cbz	r0, .L32
 359 0014 FFF7FEFF 		bl	lv_mem_free
 360 0018 0023     		movs	r3, #0
 361 001a 2363     		str	r3, [r4, #48]
 362              	.L32:
 363 001c A06A     		ldr	r0, [r4, #40]
 364 001e 18B1     		cbz	r0, .L30
 365 0020 FFF7FEFF 		bl	lv_mem_free
 366 0024 0023     		movs	r3, #0
 367 0026 A362     		str	r3, [r4, #40]
 368              	.L30:
 369 0028 10BD     		pop	{r4, pc}
 371              		.section	.text.lv_textarea_create,"ax",%progbits
 372              		.align	1
 373              		.global	lv_textarea_create
 374              		.syntax unified
 375              		.thumb
 376              		.thumb_func
 378              	lv_textarea_create:
 379              		@ args = 0, pretend = 0, frame = 0
 380              		@ frame_needed = 0, uses_anonymous_args = 0
 381 0000 10B5     		push	{r4, lr}
 382 0002 0146     		mov	r1, r0
 383 0004 0348     		ldr	r0, .L37
 384 0006 FFF7FEFF 		bl	lv_obj_class_create_obj
 385 000a 0446     		mov	r4, r0
 386 000c FFF7FEFF 		bl	lv_obj_class_init_obj
 387 0010 2046     		mov	r0, r4
 388 0012 10BD     		pop	{r4, pc}
 389              	.L38:
 390              		.align	2
 391              	.L37:
 392 0014 00000000 		.word	lv_textarea_class
 394              		.section	.text.lv_textarea_set_placeholder_text,"ax",%progbits
 395              		.align	1
 396              		.global	lv_textarea_set_placeholder_text
 397              		.syntax unified
 398              		.thumb
 399              		.thumb_func
 401              	lv_textarea_set_placeholder_text:
 402              		@ args = 0, pretend = 0, frame = 0
 403              		@ frame_needed = 0, uses_anonymous_args = 0
 404 0000 89B1     		cbz	r1, .L41
 405 0002 70B5     		push	{r4, r5, r6, lr}
 406 0004 0446     		mov	r4, r0
 407 0006 0D46     		mov	r5, r1
 408 0008 0846     		mov	r0, r1
 409 000a FFF7FEFF 		bl	strlen
 410 000e 0646     		mov	r6, r0
 411 0010 50B9     		cbnz	r0, .L42
 412 0012 A06A     		ldr	r0, [r4, #40]
 413 0014 40B1     		cbz	r0, .L42
 414 0016 FFF7FEFF 		bl	lv_mem_free
ARM GAS  /var/folders/lp/x54gwt890xv47sdkqj1k04q40000gn/T//ccsFfJ2E.s 			page 8


 415 001a 0023     		movs	r3, #0
 416 001c A362     		str	r3, [r4, #40]
 417              	.L43:
 418 001e 2046     		mov	r0, r4
 419 0020 FFF7FEFF 		bl	lv_obj_invalidate
 420 0024 70BD     		pop	{r4, r5, r6, pc}
 421              	.L41:
 422 0026 FEE7     		b	.L41
 423              	.L42:
 424 0028 711C     		adds	r1, r6, #1
 425 002a A06A     		ldr	r0, [r4, #40]
 426 002c FFF7FEFF 		bl	lv_mem_realloc
 427 0030 A062     		str	r0, [r4, #40]
 428 0032 30B1     		cbz	r0, .L45
 429 0034 2946     		mov	r1, r5
 430 0036 FFF7FEFF 		bl	strcpy
 431 003a A36A     		ldr	r3, [r4, #40]
 432 003c 0022     		movs	r2, #0
 433 003e 9A55     		strb	r2, [r3, r6]
 434 0040 EDE7     		b	.L43
 435              	.L45:
 436 0042 FEE7     		b	.L45
 438              		.section	.text.lv_textarea_set_cursor_click_pos,"ax",%progbits
 439              		.align	1
 440              		.global	lv_textarea_set_cursor_click_pos
 441              		.syntax unified
 442              		.thumb
 443              		.thumb_func
 445              	lv_textarea_set_cursor_click_pos:
 446              		@ args = 0, pretend = 0, frame = 0
 447              		@ frame_needed = 0, uses_anonymous_args = 0
 448              		@ link register save eliminated.
 449 0000 90F85430 		ldrb	r3, [r0, #84]	@ zero_extendqisi2
 450 0004 61F34103 		bfi	r3, r1, #1, #1
 451 0008 80F85430 		strb	r3, [r0, #84]
 452 000c 7047     		bx	lr
 454              		.section	.text.lv_textarea_set_password_bullet,"ax",%progbits
 455              		.align	1
 456              		.global	lv_textarea_set_password_bullet
 457              		.syntax unified
 458              		.thumb
 459              		.thumb_func
 461              	lv_textarea_set_password_bullet:
 462              		@ args = 0, pretend = 0, frame = 0
 463              		@ frame_needed = 0, uses_anonymous_args = 0
 464 0000 B1B1     		cbz	r1, .L51
 465 0002 70B5     		push	{r4, r5, r6, lr}
 466 0004 0446     		mov	r4, r0
 467 0006 0E46     		mov	r6, r1
 468 0008 0846     		mov	r0, r1
 469 000a FFF7FEFF 		bl	strlen
 470 000e 0546     		mov	r5, r0
 471 0010 411C     		adds	r1, r0, #1
 472 0012 206B     		ldr	r0, [r4, #48]
 473 0014 FFF7FEFF 		bl	lv_mem_realloc
 474 0018 2063     		str	r0, [r4, #48]
 475 001a 50B1     		cbz	r0, .L53
ARM GAS  /var/folders/lp/x54gwt890xv47sdkqj1k04q40000gn/T//ccsFfJ2E.s 			page 9


 476 001c 3146     		mov	r1, r6
 477 001e FFF7FEFF 		bl	strcpy
 478 0022 236B     		ldr	r3, [r4, #48]
 479 0024 0022     		movs	r2, #0
 480 0026 5A55     		strb	r2, [r3, r5]
 481 0028 2046     		mov	r0, r4
 482 002a FFF7FEFF 		bl	lv_obj_invalidate
 483 002e 70BD     		pop	{r4, r5, r6, pc}
 484              	.L51:
 485 0030 FEE7     		b	.L51
 486              	.L53:
 487 0032 FEE7     		b	.L53
 489              		.section	.text.lv_textarea_set_one_line,"ax",%progbits
 490              		.align	1
 491              		.global	lv_textarea_set_one_line
 492              		.syntax unified
 493              		.thumb
 494              		.thumb_func
 496              	lv_textarea_set_one_line:
 497              		@ args = 0, pretend = 0, frame = 0
 498              		@ frame_needed = 0, uses_anonymous_args = 0
 499 0000 90F86030 		ldrb	r3, [r0, #96]	@ zero_extendqisi2
 500 0004 C3F3C003 		ubfx	r3, r3, #3, #1
 501 0008 8B42     		cmp	r3, r1
 502 000a 2CD0     		beq	.L63
 503 000c 70B5     		push	{r4, r5, r6, lr}
 504 000e 0446     		mov	r4, r0
 505 0010 0D46     		mov	r5, r1
 506 0012 90F86030 		ldrb	r3, [r0, #96]	@ zero_extendqisi2
 507 0016 61F3C303 		bfi	r3, r1, #3, #1
 508 001a 80F86030 		strb	r3, [r0, #96]
 509 001e C1B1     		cbz	r1, .L61
 510 0020 42F2D171 		movw	r1, #10193
 511 0024 42F26406 		movw	r6, #8292
 512              	.L58:
 513 0028 606A     		ldr	r0, [r4, #36]
 514 002a FFF7FEFF 		bl	lv_obj_set_width
 515 002e 0022     		movs	r2, #0
 516 0030 3146     		mov	r1, r6
 517 0032 606A     		ldr	r0, [r4, #36]
 518 0034 FFF7FEFF 		bl	lv_obj_set_style_min_width
 519 0038 7DB1     		cbz	r5, .L59
 520 003a 42F2D171 		movw	r1, #10193
 521 003e 2046     		mov	r0, r4
 522 0040 FFF7FEFF 		bl	lv_obj_set_height
 523              	.L60:
 524 0044 0023     		movs	r3, #0
 525 0046 1A46     		mov	r2, r3
 526 0048 1946     		mov	r1, r3
 527 004a 2046     		mov	r0, r4
 528 004c FFF7FEFF 		bl	lv_obj_scroll_to
 529 0050 70BD     		pop	{r4, r5, r6, pc}
 530              	.L61:
 531 0052 42F26401 		movw	r1, #8292
 532 0056 0026     		movs	r6, #0
 533 0058 E6E7     		b	.L58
 534              	.L59:
ARM GAS  /var/folders/lp/x54gwt890xv47sdkqj1k04q40000gn/T//ccsFfJ2E.s 			page 10


 535 005a 0022     		movs	r2, #0
 536 005c 0421     		movs	r1, #4
 537 005e 2046     		mov	r0, r4
 538 0060 FFF7FEFF 		bl	lv_obj_remove_local_style_prop
 539 0064 EEE7     		b	.L60
 540              	.L63:
 541 0066 7047     		bx	lr
 543              		.section	.text.lv_textarea_set_accepted_chars,"ax",%progbits
 544              		.align	1
 545              		.global	lv_textarea_set_accepted_chars
 546              		.syntax unified
 547              		.thumb
 548              		.thumb_func
 550              	lv_textarea_set_accepted_chars:
 551              		@ args = 0, pretend = 0, frame = 0
 552              		@ frame_needed = 0, uses_anonymous_args = 0
 553              		@ link register save eliminated.
 554 0000 4163     		str	r1, [r0, #52]
 555 0002 7047     		bx	lr
 557              		.section	.text.lv_textarea_set_max_length,"ax",%progbits
 558              		.align	1
 559              		.global	lv_textarea_set_max_length
 560              		.syntax unified
 561              		.thumb
 562              		.thumb_func
 564              	lv_textarea_set_max_length:
 565              		@ args = 0, pretend = 0, frame = 0
 566              		@ frame_needed = 0, uses_anonymous_args = 0
 567              		@ link register save eliminated.
 568 0000 8163     		str	r1, [r0, #56]
 569 0002 7047     		bx	lr
 571              		.section	.text.lv_textarea_set_insert_replace,"ax",%progbits
 572              		.align	1
 573              		.global	lv_textarea_set_insert_replace
 574              		.syntax unified
 575              		.thumb
 576              		.thumb_func
 578              	lv_textarea_set_insert_replace:
 579              		@ args = 0, pretend = 0, frame = 0
 580              		@ frame_needed = 0, uses_anonymous_args = 0
 581              		@ link register save eliminated.
 582 0000 014B     		ldr	r3, .L69
 583 0002 1960     		str	r1, [r3]
 584 0004 7047     		bx	lr
 585              	.L70:
 586 0006 00BF     		.align	2
 587              	.L69:
 588 0008 00000000 		.word	ta_insert_replace
 590              		.section	.text.lv_textarea_set_password_show_time,"ax",%progbits
 591              		.align	1
 592              		.global	lv_textarea_set_password_show_time
 593              		.syntax unified
 594              		.thumb
 595              		.thumb_func
 597              	lv_textarea_set_password_show_time:
 598              		@ args = 0, pretend = 0, frame = 0
 599              		@ frame_needed = 0, uses_anonymous_args = 0
ARM GAS  /var/folders/lp/x54gwt890xv47sdkqj1k04q40000gn/T//ccsFfJ2E.s 			page 11


 600              		@ link register save eliminated.
 601 0000 8187     		strh	r1, [r0, #60]	@ movhi
 602 0002 7047     		bx	lr
 604              		.section	.text.lv_textarea_get_text,"ax",%progbits
 605              		.align	1
 606              		.global	lv_textarea_get_text
 607              		.syntax unified
 608              		.thumb
 609              		.thumb_func
 611              	lv_textarea_get_text:
 612              		@ args = 0, pretend = 0, frame = 0
 613              		@ frame_needed = 0, uses_anonymous_args = 0
 614 0000 08B5     		push	{r3, lr}
 615 0002 90F86030 		ldrb	r3, [r0, #96]	@ zero_extendqisi2
 616 0006 13F0040F 		tst	r3, #4
 617 000a 01D0     		beq	.L76
 618 000c C06A     		ldr	r0, [r0, #44]
 619              	.L72:
 620 000e 08BD     		pop	{r3, pc}
 621              	.L76:
 622 0010 406A     		ldr	r0, [r0, #36]
 623 0012 FFF7FEFF 		bl	lv_label_get_text
 624 0016 FAE7     		b	.L72
 626              		.section	.text.char_is_accepted,"ax",%progbits
 627              		.align	1
 628              		.syntax unified
 629              		.thumb
 630              		.thumb_func
 632              	char_is_accepted:
 633              		@ args = 0, pretend = 0, frame = 8
 634              		@ frame_needed = 0, uses_anonymous_args = 0
 635 0000 70B5     		push	{r4, r5, r6, lr}
 636 0002 82B0     		sub	sp, sp, #8
 637 0004 0446     		mov	r4, r0
 638 0006 0D46     		mov	r5, r1
 639 0008 836B     		ldr	r3, [r0, #56]
 640 000a 8BB9     		cbnz	r3, .L87
 641              	.L78:
 642 000c 636B     		ldr	r3, [r4, #52]
 643 000e DBB1     		cbz	r3, .L83
 644 0010 1B78     		ldrb	r3, [r3]	@ zero_extendqisi2
 645 0012 DBB1     		cbz	r3, .L84
 646 0014 0023     		movs	r3, #0
 647 0016 0193     		str	r3, [sp, #4]
 648              	.L80:
 649 0018 606B     		ldr	r0, [r4, #52]
 650 001a 019B     		ldr	r3, [sp, #4]
 651 001c C35C     		ldrb	r3, [r0, r3]	@ zero_extendqisi2
 652 001e 8BB1     		cbz	r3, .L88
 653 0020 0C4B     		ldr	r3, .L89
 654 0022 1B68     		ldr	r3, [r3]
 655 0024 01A9     		add	r1, sp, #4
 656 0026 9847     		blx	r3
 657 0028 A842     		cmp	r0, r5
 658 002a F5D1     		bne	.L80
 659 002c 0120     		movs	r0, #1
 660 002e 0EE0     		b	.L79
ARM GAS  /var/folders/lp/x54gwt890xv47sdkqj1k04q40000gn/T//ccsFfJ2E.s 			page 12


 661              	.L87:
 662 0030 094B     		ldr	r3, .L89+4
 663 0032 1E68     		ldr	r6, [r3]
 664 0034 FFF7FEFF 		bl	lv_textarea_get_text
 665 0038 B047     		blx	r6
 666 003a A36B     		ldr	r3, [r4, #56]
 667 003c 9842     		cmp	r0, r3
 668 003e E5D3     		bcc	.L78
 669 0040 0020     		movs	r0, #0
 670 0042 04E0     		b	.L79
 671              	.L88:
 672 0044 0020     		movs	r0, #0
 673 0046 02E0     		b	.L79
 674              	.L83:
 675 0048 0120     		movs	r0, #1
 676 004a 00E0     		b	.L79
 677              	.L84:
 678 004c 0120     		movs	r0, #1
 679              	.L79:
 680 004e 02B0     		add	sp, sp, #8
 681              		@ sp needed
 682 0050 70BD     		pop	{r4, r5, r6, pc}
 683              	.L90:
 684 0052 00BF     		.align	2
 685              	.L89:
 686 0054 00000000 		.word	_lv_txt_encoded_next
 687 0058 00000000 		.word	_lv_txt_get_encoded_length
 689              		.section	.rodata.lv_textarea_get_placeholder_text.str1.4,"aMS",%progbits,1
 690              		.align	2
 691              	.LC0:
 692 0000 00       		.ascii	"\000"
 693              		.section	.text.lv_textarea_get_placeholder_text,"ax",%progbits
 694              		.align	1
 695              		.global	lv_textarea_get_placeholder_text
 696              		.syntax unified
 697              		.thumb
 698              		.thumb_func
 700              	lv_textarea_get_placeholder_text:
 701              		@ args = 0, pretend = 0, frame = 0
 702              		@ frame_needed = 0, uses_anonymous_args = 0
 703              		@ link register save eliminated.
 704 0000 806A     		ldr	r0, [r0, #40]
 705 0002 00B1     		cbz	r0, .L94
 706              	.L91:
 707 0004 7047     		bx	lr
 708              	.L94:
 709 0006 0148     		ldr	r0, .L95
 710 0008 FCE7     		b	.L91
 711              	.L96:
 712 000a 00BF     		.align	2
 713              	.L95:
 714 000c 00000000 		.word	.LC0
 716              		.section	.text.lv_textarea_get_label,"ax",%progbits
 717              		.align	1
 718              		.global	lv_textarea_get_label
 719              		.syntax unified
 720              		.thumb
ARM GAS  /var/folders/lp/x54gwt890xv47sdkqj1k04q40000gn/T//ccsFfJ2E.s 			page 13


 721              		.thumb_func
 723              	lv_textarea_get_label:
 724              		@ args = 0, pretend = 0, frame = 0
 725              		@ frame_needed = 0, uses_anonymous_args = 0
 726              		@ link register save eliminated.
 727 0000 406A     		ldr	r0, [r0, #36]
 728 0002 7047     		bx	lr
 730              		.section	.text.lv_textarea_set_align,"ax",%progbits
 731              		.align	1
 732              		.global	lv_textarea_set_align
 733              		.syntax unified
 734              		.thumb
 735              		.thumb_func
 737              	lv_textarea_set_align:
 738              		@ args = 0, pretend = 0, frame = 0
 739              		@ frame_needed = 0, uses_anonymous_args = 0
 740 0000 38B5     		push	{r3, r4, r5, lr}
 741 0002 0546     		mov	r5, r0
 742 0004 0C46     		mov	r4, r1
 743 0006 0022     		movs	r2, #0
 744 0008 FFF7FEFF 		bl	lv_obj_set_style_text_align
 745 000c 022C     		cmp	r4, #2
 746 000e 13D0     		beq	.L99
 747 0010 032C     		cmp	r4, #3
 748 0012 08D0     		beq	.L100
 749 0014 2846     		mov	r0, r5
 750 0016 FFF7FEFF 		bl	lv_textarea_get_label
 751 001a 0023     		movs	r3, #0
 752 001c 1A46     		mov	r2, r3
 753 001e 0121     		movs	r1, #1
 754 0020 FFF7FEFF 		bl	lv_obj_align
 755              	.L98:
 756 0024 38BD     		pop	{r3, r4, r5, pc}
 757              	.L100:
 758 0026 2846     		mov	r0, r5
 759 0028 FFF7FEFF 		bl	lv_textarea_get_label
 760 002c 0023     		movs	r3, #0
 761 002e 1A46     		mov	r2, r3
 762 0030 0321     		movs	r1, #3
 763 0032 FFF7FEFF 		bl	lv_obj_align
 764 0036 F5E7     		b	.L98
 765              	.L99:
 766 0038 2846     		mov	r0, r5
 767 003a FFF7FEFF 		bl	lv_textarea_get_label
 768 003e 0023     		movs	r3, #0
 769 0040 1A46     		mov	r2, r3
 770 0042 0221     		movs	r1, #2
 771 0044 FFF7FEFF 		bl	lv_obj_align
 772 0048 ECE7     		b	.L98
 774              		.section	.text.lv_textarea_get_cursor_pos,"ax",%progbits
 775              		.align	1
 776              		.global	lv_textarea_get_cursor_pos
 777              		.syntax unified
 778              		.thumb
 779              		.thumb_func
 781              	lv_textarea_get_cursor_pos:
 782              		@ args = 0, pretend = 0, frame = 0
ARM GAS  /var/folders/lp/x54gwt890xv47sdkqj1k04q40000gn/T//ccsFfJ2E.s 			page 14


 783              		@ frame_needed = 0, uses_anonymous_args = 0
 784              		@ link register save eliminated.
 785 0000 406C     		ldr	r0, [r0, #68]
 786 0002 7047     		bx	lr
 788              		.section	.text.refr_cursor_area,"ax",%progbits
 789              		.align	1
 790              		.syntax unified
 791              		.thumb
 792              		.thumb_func
 794              	refr_cursor_area:
 795              		@ args = 0, pretend = 0, frame = 32
 796              		@ frame_needed = 0, uses_anonymous_args = 0
 797 0000 2DE9F04F 		push	{r4, r5, r6, r7, r8, r9, r10, fp, lr}
 798 0004 89B0     		sub	sp, sp, #36
 799 0006 0446     		mov	r4, r0
 800 0008 5722     		movs	r2, #87
 801 000a 0021     		movs	r1, #0
 802 000c FFF7FEFF 		bl	lv_obj_get_style_prop
 803 0010 8046     		mov	r8, r0
 804 0012 5922     		movs	r2, #89
 805 0014 0021     		movs	r1, #0
 806 0016 2046     		mov	r0, r4
 807 0018 FFF7FEFF 		bl	lv_obj_get_style_prop
 808 001c 0090     		str	r0, [sp]
 809 001e 2046     		mov	r0, r4
 810 0020 FFF7FEFF 		bl	lv_textarea_get_cursor_pos
 811 0024 8146     		mov	r9, r0
 812 0026 606A     		ldr	r0, [r4, #36]
 813 0028 FFF7FEFF 		bl	lv_label_get_text
 814 002c 0546     		mov	r5, r0
 815 002e 0190     		str	r0, [sp, #4]
 816 0030 884B     		ldr	r3, .L112
 817 0032 1B68     		ldr	r3, [r3]
 818 0034 4946     		mov	r1, r9
 819 0036 9847     		blx	r3
 820 0038 0746     		mov	r7, r0
 821 003a 05EB000B 		add	fp, r5, r0
 822 003e 864B     		ldr	r3, .L112+4
 823 0040 1B68     		ldr	r3, [r3]
 824 0042 0021     		movs	r1, #0
 825 0044 5846     		mov	r0, fp
 826 0046 9847     		blx	r3
 827 0048 0646     		mov	r6, r0
 828 004a B8F908A0 		ldrsh	r10, [r8, #8]
 829 004e 0D28     		cmp	r0, #13
 830 0050 4ED8     		bhi	.L108
 831 0052 42F20143 		movw	r3, #9217
 832 0056 C340     		lsrs	r3, r3, r0
 833 0058 13F0010F 		tst	r3, #1
 834 005c 4AD0     		beq	.L109
 835 005e 2021     		movs	r1, #32
 836              	.L105:
 837 0060 0022     		movs	r2, #0
 838 0062 4046     		mov	r0, r8
 839 0064 FFF7FEFF 		bl	lv_font_get_glyph_width
 840 0068 05B2     		sxth	r5, r0
 841 006a 07AA     		add	r2, sp, #28
ARM GAS  /var/folders/lp/x54gwt890xv47sdkqj1k04q40000gn/T//ccsFfJ2E.s 			page 15


 842 006c 4946     		mov	r1, r9
 843 006e 606A     		ldr	r0, [r4, #36]
 844 0070 FFF7FEFF 		bl	lv_label_get_letter_pos
 845 0074 D4F82490 		ldr	r9, [r4, #36]
 846 0078 4846     		mov	r0, r9
 847 007a FFF7FEFF 		bl	lv_label_get_text
 848 007e 0246     		mov	r2, r0
 849 0080 0021     		movs	r1, #0
 850 0082 4846     		mov	r0, r9
 851 0084 FFF7FEFF 		bl	lv_obj_calculate_style_text_align
 852 0088 BDF91C30 		ldrsh	r3, [sp, #28]
 853 008c 626A     		ldr	r2, [r4, #36]
 854 008e B2F91410 		ldrsh	r1, [r2, #20]
 855 0092 0B44     		add	r3, r3, r1
 856 0094 2B44     		add	r3, r3, r5
 857 0096 B2F91820 		ldrsh	r2, [r2, #24]
 858 009a 9342     		cmp	r3, r2
 859 009c 32DD     		ble	.L106
 860 009e 94F86030 		ldrb	r3, [r4, #96]	@ zero_extendqisi2
 861 00a2 13F0080F 		tst	r3, #8
 862 00a6 2DD1     		bne	.L106
 863 00a8 0328     		cmp	r0, #3
 864 00aa 2BD0     		beq	.L106
 865 00ac 0023     		movs	r3, #0
 866 00ae ADF81C30 		strh	r3, [sp, #28]	@ movhi
 867 00b2 BDF81E20 		ldrh	r2, [sp, #30]
 868 00b6 009B     		ldr	r3, [sp]
 869 00b8 5344     		add	r3, r3, r10
 870 00ba 12FA83F3 		uxtah	r3, r2, r3
 871 00be ADF81E30 		strh	r3, [sp, #30]	@ movhi
 872 00c2 CEB1     		cbz	r6, .L110
 873 00c4 654B     		ldr	r3, .L112+8
 874 00c6 1B68     		ldr	r3, [r3]
 875 00c8 5846     		mov	r0, fp
 876 00ca 9847     		blx	r3
 877 00cc 0744     		add	r7, r7, r0
 878 00ce 624B     		ldr	r3, .L112+4
 879 00d0 1B68     		ldr	r3, [r3]
 880 00d2 0021     		movs	r1, #0
 881 00d4 0198     		ldr	r0, [sp, #4]
 882 00d6 3844     		add	r0, r0, r7
 883 00d8 9847     		blx	r3
 884 00da 0146     		mov	r1, r0
 885 00dc 0D28     		cmp	r0, #13
 886 00de 0CD8     		bhi	.L107
 887 00e0 42F20143 		movw	r3, #9217
 888 00e4 C340     		lsrs	r3, r3, r0
 889 00e6 13F0010F 		tst	r3, #1
 890 00ea 06D0     		beq	.L107
 891 00ec 2021     		movs	r1, #32
 892 00ee 04E0     		b	.L107
 893              	.L108:
 894 00f0 0146     		mov	r1, r0
 895 00f2 B5E7     		b	.L105
 896              	.L109:
 897 00f4 0146     		mov	r1, r0
 898 00f6 B3E7     		b	.L105
ARM GAS  /var/folders/lp/x54gwt890xv47sdkqj1k04q40000gn/T//ccsFfJ2E.s 			page 16


 899              	.L110:
 900 00f8 2021     		movs	r1, #32
 901              	.L107:
 902 00fa 0022     		movs	r2, #0
 903 00fc 4046     		mov	r0, r8
 904 00fe FFF7FEFF 		bl	lv_font_get_glyph_width
 905 0102 05B2     		sxth	r5, r0
 906              	.L106:
 907 0104 2765     		str	r7, [r4, #80]
 908 0106 3222     		movs	r2, #50
 909 0108 4FF4E021 		mov	r1, #458752
 910 010c 2046     		mov	r0, r4
 911 010e FFF7FEFF 		bl	lv_obj_get_style_prop
 912 0112 8146     		mov	r9, r0
 913 0114 1022     		movs	r2, #16
 914 0116 4FF4E021 		mov	r1, #458752
 915 011a 2046     		mov	r0, r4
 916 011c FFF7FEFF 		bl	lv_obj_get_style_prop
 917 0120 1FFA89F9 		uxth	r9, r9
 918 0124 19FA80F7 		uxtah	r7, r9, r0
 919 0128 BFB2     		uxth	r7, r7
 920 012a 1122     		movs	r2, #17
 921 012c 4FF4E021 		mov	r1, #458752
 922 0130 2046     		mov	r0, r4
 923 0132 FFF7FEFF 		bl	lv_obj_get_style_prop
 924 0136 19FA80F6 		uxtah	r6, r9, r0
 925 013a B6B2     		uxth	r6, r6
 926 013c 1222     		movs	r2, #18
 927 013e 4FF4E021 		mov	r1, #458752
 928 0142 2046     		mov	r0, r4
 929 0144 FFF7FEFF 		bl	lv_obj_get_style_prop
 930 0148 19FA80F8 		uxtah	r8, r9, r0
 931 014c 1FFA88F8 		uxth	r8, r8
 932 0150 1322     		movs	r2, #19
 933 0152 4FF4E021 		mov	r1, #458752
 934 0156 2046     		mov	r0, r4
 935 0158 FFF7FEFF 		bl	lv_obj_get_style_prop
 936 015c 19FA80F0 		uxtah	r0, r9, r0
 937 0160 BDF81C20 		ldrh	r2, [sp, #28]
 938 0164 A2EB0808 		sub	r8, r2, r8
 939 0168 1FFA88FB 		uxth	fp, r8
 940 016c 0FFA88F8 		sxth	r8, r8
 941 0170 ADF81480 		strh	r8, [sp, #20]	@ movhi
 942 0174 BDF81E30 		ldrh	r3, [sp, #30]
 943 0178 DF1B     		subs	r7, r3, r7
 944 017a 1FFA87F9 		uxth	r9, r7
 945 017e 3FB2     		sxth	r7, r7
 946 0180 ADF81670 		strh	r7, [sp, #22]	@ movhi
 947 0184 12FA80F0 		uxtah	r0, r2, r0
 948 0188 15FA80F5 		uxtah	r5, r5, r0
 949 018c ADB2     		uxth	r5, r5
 950 018e 013D     		subs	r5, r5, #1
 951 0190 AAB2     		uxth	r2, r5
 952 0192 0092     		str	r2, [sp]
 953 0194 2DB2     		sxth	r5, r5
 954 0196 ADF81850 		strh	r5, [sp, #24]	@ movhi
 955 019a 1E44     		add	r6, r6, r3
ARM GAS  /var/folders/lp/x54gwt890xv47sdkqj1k04q40000gn/T//ccsFfJ2E.s 			page 17


 956 019c 1AFA86F6 		uxtah	r6, r10, r6
 957 01a0 B6B2     		uxth	r6, r6
 958 01a2 013E     		subs	r6, r6, #1
 959 01a4 1FFA86FA 		uxth	r10, r6
 960 01a8 36B2     		sxth	r6, r6
 961 01aa ADF81A60 		strh	r6, [sp, #26]	@ movhi
 962 01ae B4F94800 		ldrsh	r0, [r4, #72]
 963 01b2 ADF80C00 		strh	r0, [sp, #12]	@ movhi
 964 01b6 B4F94A10 		ldrsh	r1, [r4, #74]
 965 01ba ADF80E10 		strh	r1, [sp, #14]	@ movhi
 966 01be B4F94C20 		ldrsh	r2, [r4, #76]
 967 01c2 ADF81020 		strh	r2, [sp, #16]	@ movhi
 968 01c6 B4F94E30 		ldrsh	r3, [r4, #78]
 969 01ca ADF81230 		strh	r3, [sp, #18]	@ movhi
 970 01ce D4F824E0 		ldr	lr, [r4, #36]
 971 01d2 BEF814C0 		ldrh	ip, [lr, #20]
 972 01d6 1CFA80F0 		uxtah	r0, ip, r0
 973 01da ADF80C00 		strh	r0, [sp, #12]	@ movhi
 974 01de BEF81600 		ldrh	r0, [lr, #22]
 975 01e2 10FA81F1 		uxtah	r1, r0, r1
 976 01e6 ADF80E10 		strh	r1, [sp, #14]	@ movhi
 977 01ea 1CFA82F2 		uxtah	r2, ip, r2
 978 01ee ADF81020 		strh	r2, [sp, #16]	@ movhi
 979 01f2 10FA83F3 		uxtah	r3, r0, r3
 980 01f6 ADF81230 		strh	r3, [sp, #18]	@ movhi
 981 01fa 03AB     		add	r3, sp, #12
 982 01fc 1946     		mov	r1, r3
 983 01fe 2046     		mov	r0, r4
 984 0200 FFF7FEFF 		bl	lv_obj_invalidate_area
 985 0204 A4F84880 		strh	r8, [r4, #72]	@ movhi
 986 0208 A4F84A70 		strh	r7, [r4, #74]	@ movhi
 987 020c A4F84C50 		strh	r5, [r4, #76]	@ movhi
 988 0210 A4F84E60 		strh	r6, [r4, #78]	@ movhi
 989 0214 ADF80C80 		strh	r8, [sp, #12]	@ movhi
 990 0218 ADF80E70 		strh	r7, [sp, #14]	@ movhi
 991 021c ADF81050 		strh	r5, [sp, #16]	@ movhi
 992 0220 ADF81260 		strh	r6, [sp, #18]	@ movhi
 993 0224 626A     		ldr	r2, [r4, #36]
 994 0226 938A     		ldrh	r3, [r2, #20]
 995 0228 9B44     		add	fp, fp, r3
 996 022a ADF80CB0 		strh	fp, [sp, #12]	@ movhi
 997 022e D28A     		ldrh	r2, [r2, #22]
 998 0230 9144     		add	r9, r9, r2
 999 0232 ADF80E90 		strh	r9, [sp, #14]	@ movhi
 1000 0236 0099     		ldr	r1, [sp]
 1001 0238 0B44     		add	r3, r3, r1
 1002 023a ADF81030 		strh	r3, [sp, #16]	@ movhi
 1003 023e 9244     		add	r10, r10, r2
 1004 0240 ADF812A0 		strh	r10, [sp, #18]	@ movhi
 1005 0244 03A9     		add	r1, sp, #12
 1006 0246 2046     		mov	r0, r4
 1007 0248 FFF7FEFF 		bl	lv_obj_invalidate_area
 1008 024c 09B0     		add	sp, sp, #36
 1009              		@ sp needed
 1010 024e BDE8F08F 		pop	{r4, r5, r6, r7, r8, r9, r10, fp, pc}
 1011              	.L113:
 1012 0252 00BF     		.align	2
ARM GAS  /var/folders/lp/x54gwt890xv47sdkqj1k04q40000gn/T//ccsFfJ2E.s 			page 18


 1013              	.L112:
 1014 0254 00000000 		.word	_lv_txt_encoded_get_byte_id
 1015 0258 00000000 		.word	_lv_txt_encoded_next
 1016 025c 00000000 		.word	_lv_txt_encoded_size
 1018              		.section	.text.label_event_cb,"ax",%progbits
 1019              		.align	1
 1020              		.syntax unified
 1021              		.thumb
 1022              		.thumb_func
 1024              	label_event_cb:
 1025              		@ args = 0, pretend = 0, frame = 0
 1026              		@ frame_needed = 0, uses_anonymous_args = 0
 1027 0000 70B5     		push	{r4, r5, r6, lr}
 1028 0002 0546     		mov	r5, r0
 1029 0004 FFF7FEFF 		bl	lv_event_get_code
 1030 0008 0446     		mov	r4, r0
 1031 000a 2846     		mov	r0, r5
 1032 000c FFF7FEFF 		bl	lv_event_get_target
 1033 0010 0646     		mov	r6, r0
 1034 0012 FFF7FEFF 		bl	lv_obj_get_parent
 1035 0016 293C     		subs	r4, r4, #41
 1036 0018 E4B2     		uxtb	r4, r4
 1037 001a 012C     		cmp	r4, #1
 1038 001c 00D9     		bls	.L117
 1039              	.L114:
 1040 001e 70BD     		pop	{r4, r5, r6, pc}
 1041              	.L117:
 1042 0020 0546     		mov	r5, r0
 1043 0022 0021     		movs	r1, #0
 1044 0024 3046     		mov	r0, r6
 1045 0026 FFF7FEFF 		bl	lv_label_set_text
 1046 002a 2846     		mov	r0, r5
 1047 002c FFF7FEFF 		bl	refr_cursor_area
 1048 0030 2846     		mov	r0, r5
 1049 0032 FFF7FEFF 		bl	start_cursor_blink
 1050 0036 F2E7     		b	.L114
 1052              		.section	.text.lv_textarea_set_cursor_pos,"ax",%progbits
 1053              		.align	1
 1054              		.global	lv_textarea_set_cursor_pos
 1055              		.syntax unified
 1056              		.thumb
 1057              		.thumb_func
 1059              	lv_textarea_set_cursor_pos:
 1060              		@ args = 0, pretend = 0, frame = 8
 1061              		@ frame_needed = 0, uses_anonymous_args = 0
 1062 0000 436C     		ldr	r3, [r0, #68]
 1063 0002 8B42     		cmp	r3, r1
 1064 0004 7ED0     		beq	.L128
 1065 0006 F0B5     		push	{r4, r5, r6, r7, lr}
 1066 0008 83B0     		sub	sp, sp, #12
 1067 000a 0446     		mov	r4, r0
 1068 000c 0D46     		mov	r5, r1
 1069 000e 3E4B     		ldr	r3, .L136
 1070 0010 1E68     		ldr	r6, [r3]
 1071 0012 406A     		ldr	r0, [r0, #36]
 1072 0014 FFF7FEFF 		bl	lv_label_get_text
 1073 0018 B047     		blx	r6
ARM GAS  /var/folders/lp/x54gwt890xv47sdkqj1k04q40000gn/T//ccsFfJ2E.s 			page 19


 1074 001a 002D     		cmp	r5, #0
 1075 001c 4CDB     		blt	.L131
 1076              	.L121:
 1077 001e 0646     		mov	r6, r0
 1078 0020 A842     		cmp	r0, r5
 1079 0022 04DB     		blt	.L122
 1080 0024 47F6FF73 		movw	r3, #32767
 1081 0028 9D42     		cmp	r5, r3
 1082 002a 00D0     		beq	.L122
 1083 002c 2E46     		mov	r6, r5
 1084              	.L122:
 1085 002e 6664     		str	r6, [r4, #68]
 1086 0030 2046     		mov	r0, r4
 1087 0032 FFF7FEFF 		bl	lv_obj_update_layout
 1088 0036 5722     		movs	r2, #87
 1089 0038 0021     		movs	r1, #0
 1090 003a 2046     		mov	r0, r4
 1091 003c FFF7FEFF 		bl	lv_obj_get_style_prop
 1092 0040 0546     		mov	r5, r0
 1093 0042 01AA     		add	r2, sp, #4
 1094 0044 3146     		mov	r1, r6
 1095 0046 606A     		ldr	r0, [r4, #36]
 1096 0048 FFF7FEFF 		bl	lv_label_get_letter_pos
 1097 004c B5F90860 		ldrsh	r6, [r5, #8]
 1098 0050 BDF90650 		ldrsh	r5, [sp, #6]
 1099 0054 2046     		mov	r0, r4
 1100 0056 FFF7FEFF 		bl	lv_obj_get_scroll_top
 1101 005a 8542     		cmp	r5, r0
 1102 005c 2EDB     		blt	.L132
 1103              	.L123:
 1104 005e 2046     		mov	r0, r4
 1105 0060 FFF7FEFF 		bl	lv_obj_get_content_height
 1106 0064 0746     		mov	r7, r0
 1107 0066 BDF90650 		ldrsh	r5, [sp, #6]
 1108 006a 3544     		add	r5, r5, r6
 1109 006c 2046     		mov	r0, r4
 1110 006e FFF7FEFF 		bl	lv_obj_get_scroll_top
 1111 0072 2D1A     		subs	r5, r5, r0
 1112 0074 BD42     		cmp	r5, r7
 1113 0076 28DC     		bgt	.L133
 1114              	.L124:
 1115 0078 BDF90450 		ldrsh	r5, [sp, #4]
 1116 007c 2046     		mov	r0, r4
 1117 007e FFF7FEFF 		bl	lv_obj_get_scroll_left
 1118 0082 8542     		cmp	r5, r0
 1119 0084 2CDB     		blt	.L134
 1120              	.L125:
 1121 0086 2046     		mov	r0, r4
 1122 0088 FFF7FEFF 		bl	lv_obj_get_content_width
 1123 008c 0746     		mov	r7, r0
 1124 008e BDF90450 		ldrsh	r5, [sp, #4]
 1125 0092 3544     		add	r5, r5, r6
 1126 0094 2046     		mov	r0, r4
 1127 0096 FFF7FEFF 		bl	lv_obj_get_scroll_left
 1128 009a 2D1A     		subs	r5, r5, r0
 1129 009c BD42     		cmp	r5, r7
 1130 009e 26DC     		bgt	.L135
ARM GAS  /var/folders/lp/x54gwt890xv47sdkqj1k04q40000gn/T//ccsFfJ2E.s 			page 20


 1131              	.L126:
 1132 00a0 BDF90430 		ldrsh	r3, [sp, #4]
 1133 00a4 A4F84030 		strh	r3, [r4, #64]	@ movhi
 1134 00a8 2046     		mov	r0, r4
 1135 00aa FFF7FEFF 		bl	start_cursor_blink
 1136 00ae 2046     		mov	r0, r4
 1137 00b0 FFF7FEFF 		bl	refr_cursor_area
 1138 00b4 03B0     		add	sp, sp, #12
 1139              		@ sp needed
 1140 00b6 F0BD     		pop	{r4, r5, r6, r7, pc}
 1141              	.L131:
 1142 00b8 0544     		add	r5, r5, r0
 1143 00ba B0E7     		b	.L121
 1144              	.L132:
 1145 00bc 0122     		movs	r2, #1
 1146 00be BDF90610 		ldrsh	r1, [sp, #6]
 1147 00c2 2046     		mov	r0, r4
 1148 00c4 FFF7FEFF 		bl	lv_obj_scroll_to_y
 1149 00c8 C9E7     		b	.L123
 1150              	.L133:
 1151 00ca BDF80610 		ldrh	r1, [sp, #6]
 1152 00ce C91B     		subs	r1, r1, r7
 1153 00d0 16FA81F1 		uxtah	r1, r6, r1
 1154 00d4 0122     		movs	r2, #1
 1155 00d6 09B2     		sxth	r1, r1
 1156 00d8 2046     		mov	r0, r4
 1157 00da FFF7FEFF 		bl	lv_obj_scroll_to_y
 1158 00de CBE7     		b	.L124
 1159              	.L134:
 1160 00e0 0122     		movs	r2, #1
 1161 00e2 BDF90410 		ldrsh	r1, [sp, #4]
 1162 00e6 2046     		mov	r0, r4
 1163 00e8 FFF7FEFF 		bl	lv_obj_scroll_to_x
 1164 00ec CBE7     		b	.L125
 1165              	.L135:
 1166 00ee BDF80410 		ldrh	r1, [sp, #4]
 1167 00f2 C91B     		subs	r1, r1, r7
 1168 00f4 16FA81F1 		uxtah	r1, r6, r1
 1169 00f8 0122     		movs	r2, #1
 1170 00fa 09B2     		sxth	r1, r1
 1171 00fc 2046     		mov	r0, r4
 1172 00fe FFF7FEFF 		bl	lv_obj_scroll_to_x
 1173 0102 CDE7     		b	.L126
 1174              	.L128:
 1175 0104 7047     		bx	lr
 1176              	.L137:
 1177 0106 00BF     		.align	2
 1178              	.L136:
 1179 0108 00000000 		.word	_lv_txt_get_encoded_length
 1181              		.section	.text.update_cursor_position_on_click,"ax",%progbits
 1182              		.align	1
 1183              		.syntax unified
 1184              		.thumb
 1185              		.thumb_func
 1187              	update_cursor_position_on_click:
 1188              		@ args = 0, pretend = 0, frame = 24
 1189              		@ frame_needed = 0, uses_anonymous_args = 0
ARM GAS  /var/folders/lp/x54gwt890xv47sdkqj1k04q40000gn/T//ccsFfJ2E.s 			page 21


 1190 0000 F0B5     		push	{r4, r5, r6, r7, lr}
 1191 0002 87B0     		sub	sp, sp, #28
 1192 0004 0546     		mov	r5, r0
 1193 0006 FFF7FEFF 		bl	lv_indev_get_act
 1194 000a 48B1     		cbz	r0, .L138
 1195 000c 0646     		mov	r6, r0
 1196 000e 2846     		mov	r0, r5
 1197 0010 FFF7FEFF 		bl	lv_event_get_target
 1198 0014 0446     		mov	r4, r0
 1199 0016 90F85430 		ldrb	r3, [r0, #84]	@ zero_extendqisi2
 1200 001a 13F0020F 		tst	r3, #2
 1201 001e 01D1     		bne	.L161
 1202              	.L138:
 1203 0020 07B0     		add	sp, sp, #28
 1204              		@ sp needed
 1205 0022 F0BD     		pop	{r4, r5, r6, r7, pc}
 1206              	.L161:
 1207 0024 3046     		mov	r0, r6
 1208 0026 FFF7FEFF 		bl	lv_indev_get_type
 1209 002a 0228     		cmp	r0, #2
 1210 002c F8D0     		beq	.L138
 1211 002e 3046     		mov	r0, r6
 1212 0030 FFF7FEFF 		bl	lv_indev_get_type
 1213 0034 0428     		cmp	r0, #4
 1214 0036 F3D0     		beq	.L138
 1215 0038 04A9     		add	r1, sp, #16
 1216 003a 606A     		ldr	r0, [r4, #36]
 1217 003c FFF7FEFF 		bl	lv_obj_get_coords
 1218 0040 03A9     		add	r1, sp, #12
 1219 0042 3046     		mov	r0, r6
 1220 0044 FFF7FEFF 		bl	lv_indev_get_point
 1221 0048 02A9     		add	r1, sp, #8
 1222 004a 3046     		mov	r0, r6
 1223 004c FFF7FEFF 		bl	lv_indev_get_vect
 1224 0050 BDF90C30 		ldrsh	r3, [sp, #12]
 1225 0054 002B     		cmp	r3, #0
 1226 0056 E3DB     		blt	.L138
 1227 0058 BDF90E20 		ldrsh	r2, [sp, #14]
 1228 005c 002A     		cmp	r2, #0
 1229 005e DFDB     		blt	.L138
 1230 0060 9BB2     		uxth	r3, r3
 1231 0062 BDF81010 		ldrh	r1, [sp, #16]
 1232 0066 5B1A     		subs	r3, r3, r1
 1233 0068 ADF80430 		strh	r3, [sp, #4]	@ movhi
 1234 006c 92B2     		uxth	r2, r2
 1235 006e BDF81230 		ldrh	r3, [sp, #18]
 1236 0072 D21A     		subs	r2, r2, r3
 1237 0074 ADF80620 		strh	r2, [sp, #6]	@ movhi
 1238 0078 2846     		mov	r0, r5
 1239 007a FFF7FEFF 		bl	lv_event_get_code
 1240 007e 0546     		mov	r5, r0
 1241 0080 606A     		ldr	r0, [r4, #36]
 1242 0082 FFF7FEFF 		bl	lv_obj_get_width
 1243 0086 666A     		ldr	r6, [r4, #36]
 1244 0088 BDF90430 		ldrsh	r3, [sp, #4]
 1245 008c 002B     		cmp	r3, #0
 1246 008e 12DB     		blt	.L158
ARM GAS  /var/folders/lp/x54gwt890xv47sdkqj1k04q40000gn/T//ccsFfJ2E.s 			page 22


 1247 0090 8342     		cmp	r3, r0
 1248 0092 03DB     		blt	.L162
 1249 0094 0122     		movs	r2, #1
 1250 0096 47F6FF77 		movw	r7, #32767
 1251 009a 0EE0     		b	.L142
 1252              	.L162:
 1253 009c 01A9     		add	r1, sp, #4
 1254 009e 3046     		mov	r0, r6
 1255 00a0 FFF7FEFF 		bl	lv_label_get_letter_on
 1256 00a4 87B2     		uxth	r7, r0
 1257 00a6 01A9     		add	r1, sp, #4
 1258 00a8 606A     		ldr	r0, [r4, #36]
 1259 00aa FFF7FEFF 		bl	lv_label_is_char_under_pos
 1260 00ae 80F00102 		eor	r2, r0, #1
 1261 00b2 D2B2     		uxtb	r2, r2
 1262 00b4 01E0     		b	.L142
 1263              	.L158:
 1264 00b6 0122     		movs	r2, #1
 1265 00b8 0027     		movs	r7, #0
 1266              	.L142:
 1267 00ba 94F86030 		ldrb	r3, [r4, #96]	@ zero_extendqisi2
 1268 00be 13F0020F 		tst	r3, #2
 1269 00c2 0DD0     		beq	.L143
 1270 00c4 13F00103 		ands	r3, r3, #1
 1271 00c8 02D1     		bne	.L144
 1272 00ca 0AB9     		cbnz	r2, .L144
 1273 00cc 012D     		cmp	r5, #1
 1274 00ce 33D0     		beq	.L163
 1275              	.L144:
 1276 00d0 0BB1     		cbz	r3, .L145
 1277 00d2 022D     		cmp	r5, #2
 1278 00d4 40D0     		beq	.L164
 1279              	.L145:
 1280 00d6 1BB1     		cbz	r3, .L143
 1281 00d8 032D     		cmp	r5, #3
 1282 00da 3FD0     		beq	.L146
 1283 00dc 082D     		cmp	r5, #8
 1284 00de 3DD0     		beq	.L146
 1285              	.L143:
 1286 00e0 94F86030 		ldrb	r3, [r4, #96]	@ zero_extendqisi2
 1287 00e4 13F0010F 		tst	r3, #1
 1288 00e8 01D1     		bne	.L147
 1289 00ea 012D     		cmp	r5, #1
 1290 00ec 03D1     		bne	.L148
 1291              	.L147:
 1292 00ee 3946     		mov	r1, r7
 1293 00f0 2046     		mov	r0, r4
 1294 00f2 FFF7FEFF 		bl	lv_textarea_set_cursor_pos
 1295              	.L148:
 1296 00f6 94F86030 		ldrb	r3, [r4, #96]	@ zero_extendqisi2
 1297 00fa 13F0010F 		tst	r3, #1
 1298 00fe 8FD0     		beq	.L138
 1299 0100 A26D     		ldr	r2, [r4, #88]
 1300 0102 E36D     		ldr	r3, [r4, #92]
 1301 0104 9A42     		cmp	r2, r3
 1302 0106 2FD9     		bls	.L150
 1303 0108 F16B     		ldr	r1, [r6, #60]
ARM GAS  /var/folders/lp/x54gwt890xv47sdkqj1k04q40000gn/T//ccsFfJ2E.s 			page 23


 1304 010a 8B42     		cmp	r3, r1
 1305 010c 02D1     		bne	.L151
 1306 010e 316C     		ldr	r1, [r6, #64]
 1307 0110 8A42     		cmp	r2, r1
 1308 0112 05D0     		beq	.L152
 1309              	.L151:
 1310 0114 F363     		str	r3, [r6, #60]
 1311 0116 A36D     		ldr	r3, [r4, #88]
 1312 0118 3364     		str	r3, [r6, #64]
 1313 011a 2046     		mov	r0, r4
 1314 011c FFF7FEFF 		bl	lv_obj_invalidate
 1315              	.L152:
 1316 0120 032D     		cmp	r5, #3
 1317 0122 02D0     		beq	.L156
 1318 0124 082D     		cmp	r5, #8
 1319 0126 7FF47BAF 		bne	.L138
 1320              	.L156:
 1321 012a 94F86030 		ldrb	r3, [r4, #96]	@ zero_extendqisi2
 1322 012e 23F00103 		bic	r3, r3, #1
 1323 0132 84F86030 		strb	r3, [r4, #96]
 1324 0136 73E7     		b	.L138
 1325              	.L163:
 1326 0138 A765     		str	r7, [r4, #88]
 1327 013a 4FF6FF73 		movw	r3, #65535
 1328 013e E365     		str	r3, [r4, #92]
 1329 0140 94F86030 		ldrb	r3, [r4, #96]	@ zero_extendqisi2
 1330 0144 43F00103 		orr	r3, r3, #1
 1331 0148 84F86030 		strb	r3, [r4, #96]
 1332 014c 4FF44071 		mov	r1, #768
 1333 0150 2046     		mov	r0, r4
 1334 0152 FFF7FEFF 		bl	lv_obj_clear_flag
 1335 0156 C3E7     		b	.L143
 1336              	.L164:
 1337 0158 E765     		str	r7, [r4, #92]
 1338 015a C1E7     		b	.L143
 1339              	.L146:
 1340 015c 4FF44071 		mov	r1, #768
 1341 0160 2046     		mov	r0, r4
 1342 0162 FFF7FEFF 		bl	lv_obj_add_flag
 1343 0166 BBE7     		b	.L143
 1344              	.L150:
 1345 0168 9A42     		cmp	r2, r3
 1346 016a 0CD2     		bcs	.L153
 1347 016c F16B     		ldr	r1, [r6, #60]
 1348 016e 8A42     		cmp	r2, r1
 1349 0170 02D1     		bne	.L154
 1350 0172 316C     		ldr	r1, [r6, #64]
 1351 0174 8B42     		cmp	r3, r1
 1352 0176 D3D0     		beq	.L152
 1353              	.L154:
 1354 0178 F263     		str	r2, [r6, #60]
 1355 017a E36D     		ldr	r3, [r4, #92]
 1356 017c 3364     		str	r3, [r6, #64]
 1357 017e 2046     		mov	r0, r4
 1358 0180 FFF7FEFF 		bl	lv_obj_invalidate
 1359 0184 CCE7     		b	.L152
 1360              	.L153:
ARM GAS  /var/folders/lp/x54gwt890xv47sdkqj1k04q40000gn/T//ccsFfJ2E.s 			page 24


 1361 0186 F26B     		ldr	r2, [r6, #60]
 1362 0188 4FF6FF73 		movw	r3, #65535
 1363 018c 9A42     		cmp	r2, r3
 1364 018e 02D1     		bne	.L155
 1365 0190 326C     		ldr	r2, [r6, #64]
 1366 0192 9A42     		cmp	r2, r3
 1367 0194 C4D0     		beq	.L152
 1368              	.L155:
 1369 0196 4FF6FF73 		movw	r3, #65535
 1370 019a F363     		str	r3, [r6, #60]
 1371 019c 3364     		str	r3, [r6, #64]
 1372 019e 2046     		mov	r0, r4
 1373 01a0 FFF7FEFF 		bl	lv_obj_invalidate
 1374 01a4 BCE7     		b	.L152
 1376              		.section	.text.lv_textarea_constructor,"ax",%progbits
 1377              		.align	1
 1378              		.syntax unified
 1379              		.thumb
 1380              		.thumb_func
 1382              	lv_textarea_constructor:
 1383              		@ args = 0, pretend = 0, frame = 0
 1384              		@ frame_needed = 0, uses_anonymous_args = 0
 1385 0000 38B5     		push	{r3, r4, r5, lr}
 1386 0002 0C46     		mov	r4, r1
 1387 0004 91F86030 		ldrb	r3, [r1, #96]	@ zero_extendqisi2
 1388 0008 23F00403 		bic	r3, r3, #4
 1389 000c 81F86030 		strb	r3, [r1, #96]
 1390 0010 0025     		movs	r5, #0
 1391 0012 CD62     		str	r5, [r1, #44]
 1392 0014 0D63     		str	r5, [r1, #48]
 1393 0016 40F2DC53 		movw	r3, #1500
 1394 001a 8B87     		strh	r3, [r1, #60]	@ movhi
 1395 001c 4D63     		str	r5, [r1, #52]
 1396 001e 8D63     		str	r5, [r1, #56]
 1397 0020 91F85430 		ldrb	r3, [r1, #84]	@ zero_extendqisi2
 1398 0024 43F00103 		orr	r3, r3, #1
 1399 0028 81F85430 		strb	r3, [r1, #84]
 1400 002c 0123     		movs	r3, #1
 1401 002e 4B64     		str	r3, [r1, #68]
 1402 0030 91F85430 		ldrb	r3, [r1, #84]	@ zero_extendqisi2
 1403 0034 43F00203 		orr	r3, r3, #2
 1404 0038 81F85430 		strb	r3, [r1, #84]
 1405 003c A1F84050 		strh	r5, [r1, #64]	@ movhi
 1406 0040 91F86030 		ldrb	r3, [r1, #96]	@ zero_extendqisi2
 1407 0044 65F3C303 		bfi	r3, r5, #3, #1
 1408 0048 81F86030 		strb	r3, [r1, #96]
 1409 004c DBB2     		uxtb	r3, r3
 1410 004e 65F34103 		bfi	r3, r5, #1, #1
 1411 0052 81F86030 		strb	r3, [r1, #96]
 1412 0056 4D62     		str	r5, [r1, #36]
 1413 0058 8D62     		str	r5, [r1, #40]
 1414 005a 0846     		mov	r0, r1
 1415 005c FFF7FEFF 		bl	lv_label_create
 1416 0060 6062     		str	r0, [r4, #36]
 1417 0062 42F26401 		movw	r1, #8292
 1418 0066 FFF7FEFF 		bl	lv_obj_set_width
 1419 006a 0B49     		ldr	r1, .L167
ARM GAS  /var/folders/lp/x54gwt890xv47sdkqj1k04q40000gn/T//ccsFfJ2E.s 			page 25


 1420 006c 606A     		ldr	r0, [r4, #36]
 1421 006e FFF7FEFF 		bl	lv_label_set_text
 1422 0072 2B46     		mov	r3, r5
 1423 0074 2A46     		mov	r2, r5
 1424 0076 0949     		ldr	r1, .L167+4
 1425 0078 606A     		ldr	r0, [r4, #36]
 1426 007a FFF7FEFF 		bl	lv_obj_add_event_cb
 1427 007e 4FF48061 		mov	r1, #1024
 1428 0082 2046     		mov	r0, r4
 1429 0084 FFF7FEFF 		bl	lv_obj_add_flag
 1430 0088 2946     		mov	r1, r5
 1431 008a 2046     		mov	r0, r4
 1432 008c FFF7FEFF 		bl	lv_textarea_set_cursor_pos
 1433 0090 2046     		mov	r0, r4
 1434 0092 FFF7FEFF 		bl	start_cursor_blink
 1435 0096 38BD     		pop	{r3, r4, r5, pc}
 1436              	.L168:
 1437              		.align	2
 1438              	.L167:
 1439 0098 00000000 		.word	.LC0
 1440 009c 00000000 		.word	label_event_cb
 1442              		.section	.text.lv_textarea_get_cursor_click_pos,"ax",%progbits
 1443              		.align	1
 1444              		.global	lv_textarea_get_cursor_click_pos
 1445              		.syntax unified
 1446              		.thumb
 1447              		.thumb_func
 1449              	lv_textarea_get_cursor_click_pos:
 1450              		@ args = 0, pretend = 0, frame = 0
 1451              		@ frame_needed = 0, uses_anonymous_args = 0
 1452              		@ link register save eliminated.
 1453 0000 90F85400 		ldrb	r0, [r0, #84]	@ zero_extendqisi2
 1454 0004 C0F34000 		ubfx	r0, r0, #1, #1
 1455 0008 7047     		bx	lr
 1457              		.section	.text.lv_textarea_get_password_mode,"ax",%progbits
 1458              		.align	1
 1459              		.global	lv_textarea_get_password_mode
 1460              		.syntax unified
 1461              		.thumb
 1462              		.thumb_func
 1464              	lv_textarea_get_password_mode:
 1465              		@ args = 0, pretend = 0, frame = 0
 1466              		@ frame_needed = 0, uses_anonymous_args = 0
 1467              		@ link register save eliminated.
 1468 0000 90F86000 		ldrb	r0, [r0, #96]	@ zero_extendqisi2
 1469 0004 C0F38000 		ubfx	r0, r0, #2, #1
 1470 0008 7047     		bx	lr
 1472              		.section	.rodata.lv_textarea_get_password_bullet.str1.4,"aMS",%progbits,1
 1473              		.align	2
 1474              	.LC1:
 1475 0000 E280A200 		.ascii	"\342\200\242\000"
 1476              		.align	2
 1477              	.LC2:
 1478 0004 2A00     		.ascii	"*\000"
 1479              		.section	.text.lv_textarea_get_password_bullet,"ax",%progbits
 1480              		.align	1
 1481              		.global	lv_textarea_get_password_bullet
ARM GAS  /var/folders/lp/x54gwt890xv47sdkqj1k04q40000gn/T//ccsFfJ2E.s 			page 26


 1482              		.syntax unified
 1483              		.thumb
 1484              		.thumb_func
 1486              	lv_textarea_get_password_bullet:
 1487              		@ args = 0, pretend = 0, frame = 16
 1488              		@ frame_needed = 0, uses_anonymous_args = 0
 1489 0000 0346     		mov	r3, r0
 1490 0002 006B     		ldr	r0, [r0, #48]
 1491 0004 00B1     		cbz	r0, .L178
 1492 0006 7047     		bx	lr
 1493              	.L178:
 1494 0008 00B5     		push	{lr}
 1495 000a 85B0     		sub	sp, sp, #20
 1496 000c 5722     		movs	r2, #87
 1497 000e 0021     		movs	r1, #0
 1498 0010 1846     		mov	r0, r3
 1499 0012 FFF7FEFF 		bl	lv_obj_get_style_prop
 1500 0016 0023     		movs	r3, #0
 1501 0018 42F22202 		movw	r2, #8226
 1502 001c 6946     		mov	r1, sp
 1503 001e FFF7FEFF 		bl	lv_font_get_glyph_dsc
 1504 0022 18B9     		cbnz	r0, .L173
 1505 0024 0248     		ldr	r0, .L179
 1506              	.L171:
 1507 0026 05B0     		add	sp, sp, #20
 1508              		@ sp needed
 1509 0028 5DF804FB 		ldr	pc, [sp], #4
 1510              	.L173:
 1511 002c 0148     		ldr	r0, .L179+4
 1512 002e FAE7     		b	.L171
 1513              	.L180:
 1514              		.align	2
 1515              	.L179:
 1516 0030 04000000 		.word	.LC2
 1517 0034 00000000 		.word	.LC1
 1519              		.section	.text.pwd_char_hider,"ax",%progbits
 1520              		.align	1
 1521              		.syntax unified
 1522              		.thumb
 1523              		.thumb_func
 1525              	pwd_char_hider:
 1526              		@ args = 0, pretend = 0, frame = 0
 1527              		@ frame_needed = 0, uses_anonymous_args = 0
 1528 0000 2DE9F843 		push	{r3, r4, r5, r6, r7, r8, r9, lr}
 1529 0004 90F86030 		ldrb	r3, [r0, #96]	@ zero_extendqisi2
 1530 0008 13F0040F 		tst	r3, #4
 1531 000c 01D1     		bne	.L186
 1532              	.L181:
 1533 000e BDE8F883 		pop	{r3, r4, r5, r6, r7, r8, r9, pc}
 1534              	.L186:
 1535 0012 0546     		mov	r5, r0
 1536 0014 406A     		ldr	r0, [r0, #36]
 1537 0016 FFF7FEFF 		bl	lv_label_get_text
 1538 001a 164B     		ldr	r3, .L187
 1539 001c 1B68     		ldr	r3, [r3]
 1540 001e 9847     		blx	r3
 1541 0020 8046     		mov	r8, r0
ARM GAS  /var/folders/lp/x54gwt890xv47sdkqj1k04q40000gn/T//ccsFfJ2E.s 			page 27


 1542 0022 0028     		cmp	r0, #0
 1543 0024 F3D0     		beq	.L181
 1544 0026 2846     		mov	r0, r5
 1545 0028 FFF7FEFF 		bl	lv_textarea_get_password_bullet
 1546 002c 8146     		mov	r9, r0
 1547 002e FFF7FEFF 		bl	strlen
 1548 0032 0646     		mov	r6, r0
 1549 0034 00FB08F0 		mul	r0, r0, r8
 1550 0038 0130     		adds	r0, r0, #1
 1551 003a FFF7FEFF 		bl	lv_mem_buf_get
 1552 003e 0746     		mov	r7, r0
 1553 0040 0024     		movs	r4, #0
 1554 0042 06E0     		b	.L183
 1555              	.L184:
 1556 0044 3246     		mov	r2, r6
 1557 0046 4946     		mov	r1, r9
 1558 0048 06FB0470 		mla	r0, r6, r4, r7
 1559 004c FFF7FEFF 		bl	lv_memcpy
 1560 0050 0134     		adds	r4, r4, #1
 1561              	.L183:
 1562 0052 4445     		cmp	r4, r8
 1563 0054 F6D3     		bcc	.L184
 1564 0056 06FB04F4 		mul	r4, r6, r4
 1565 005a 0023     		movs	r3, #0
 1566 005c 3B55     		strb	r3, [r7, r4]
 1567 005e 3946     		mov	r1, r7
 1568 0060 686A     		ldr	r0, [r5, #36]
 1569 0062 FFF7FEFF 		bl	lv_label_set_text
 1570 0066 3846     		mov	r0, r7
 1571 0068 FFF7FEFF 		bl	lv_mem_buf_release
 1572 006c 2846     		mov	r0, r5
 1573 006e FFF7FEFF 		bl	refr_cursor_area
 1574 0072 CCE7     		b	.L181
 1575              	.L188:
 1576              		.align	2
 1577              	.L187:
 1578 0074 00000000 		.word	_lv_txt_get_encoded_length
 1580              		.section	.text.auto_hide_characters,"ax",%progbits
 1581              		.align	1
 1582              		.syntax unified
 1583              		.thumb
 1584              		.thumb_func
 1586              	auto_hide_characters:
 1587              		@ args = 0, pretend = 0, frame = 72
 1588              		@ frame_needed = 0, uses_anonymous_args = 0
 1589 0000 10B5     		push	{r4, lr}
 1590 0002 92B0     		sub	sp, sp, #72
 1591 0004 0446     		mov	r4, r0
 1592 0006 838F     		ldrh	r3, [r0, #60]
 1593 0008 1BB9     		cbnz	r3, .L190
 1594 000a FFF7FEFF 		bl	pwd_char_hider
 1595              	.L189:
 1596 000e 12B0     		add	sp, sp, #72
 1597              		@ sp needed
 1598 0010 10BD     		pop	{r4, pc}
 1599              	.L190:
 1600 0012 01A8     		add	r0, sp, #4
ARM GAS  /var/folders/lp/x54gwt890xv47sdkqj1k04q40000gn/T//ccsFfJ2E.s 			page 28


 1601 0014 FFF7FEFF 		bl	lv_anim_init
 1602 0018 0194     		str	r4, [sp, #4]
 1603 001a 084B     		ldr	r3, .L193
 1604 001c 0293     		str	r3, [sp, #8]
 1605 001e A38F     		ldrh	r3, [r4, #60]
 1606 0020 0C93     		str	r3, [sp, #48]
 1607 0022 0023     		movs	r3, #0
 1608 0024 0993     		str	r3, [sp, #36]
 1609 0026 0A93     		str	r3, [sp, #40]
 1610 0028 0123     		movs	r3, #1
 1611 002a 0B93     		str	r3, [sp, #44]
 1612 002c 044B     		ldr	r3, .L193+4
 1613 002e 0893     		str	r3, [sp, #32]
 1614 0030 044B     		ldr	r3, .L193+8
 1615 0032 0493     		str	r3, [sp, #16]
 1616 0034 01A8     		add	r0, sp, #4
 1617 0036 FFF7FEFF 		bl	lv_anim_start
 1618 003a E8E7     		b	.L189
 1619              	.L194:
 1620              		.align	2
 1621              	.L193:
 1622 003c 00000000 		.word	pwd_char_hider_anim
 1623 0040 00000000 		.word	lv_anim_path_step
 1624 0044 00000000 		.word	pwd_char_hider_anim_ready
 1626              		.section	.text.pwd_char_hider_anim_ready,"ax",%progbits
 1627              		.align	1
 1628              		.syntax unified
 1629              		.thumb
 1630              		.thumb_func
 1632              	pwd_char_hider_anim_ready:
 1633              		@ args = 0, pretend = 0, frame = 0
 1634              		@ frame_needed = 0, uses_anonymous_args = 0
 1635 0000 08B5     		push	{r3, lr}
 1636 0002 0068     		ldr	r0, [r0]
 1637 0004 FFF7FEFF 		bl	pwd_char_hider
 1638 0008 08BD     		pop	{r3, pc}
 1640              		.section	.text.lv_textarea_get_one_line,"ax",%progbits
 1641              		.align	1
 1642              		.global	lv_textarea_get_one_line
 1643              		.syntax unified
 1644              		.thumb
 1645              		.thumb_func
 1647              	lv_textarea_get_one_line:
 1648              		@ args = 0, pretend = 0, frame = 0
 1649              		@ frame_needed = 0, uses_anonymous_args = 0
 1650              		@ link register save eliminated.
 1651 0000 90F86000 		ldrb	r0, [r0, #96]	@ zero_extendqisi2
 1652 0004 C0F3C000 		ubfx	r0, r0, #3, #1
 1653 0008 7047     		bx	lr
 1655              		.section	.text.lv_textarea_get_accepted_chars,"ax",%progbits
 1656              		.align	1
 1657              		.global	lv_textarea_get_accepted_chars
 1658              		.syntax unified
 1659              		.thumb
 1660              		.thumb_func
 1662              	lv_textarea_get_accepted_chars:
 1663              		@ args = 0, pretend = 0, frame = 0
ARM GAS  /var/folders/lp/x54gwt890xv47sdkqj1k04q40000gn/T//ccsFfJ2E.s 			page 29


 1664              		@ frame_needed = 0, uses_anonymous_args = 0
 1665              		@ link register save eliminated.
 1666 0000 406B     		ldr	r0, [r0, #52]
 1667 0002 7047     		bx	lr
 1669              		.section	.text.lv_textarea_get_max_length,"ax",%progbits
 1670              		.align	1
 1671              		.global	lv_textarea_get_max_length
 1672              		.syntax unified
 1673              		.thumb
 1674              		.thumb_func
 1676              	lv_textarea_get_max_length:
 1677              		@ args = 0, pretend = 0, frame = 0
 1678              		@ frame_needed = 0, uses_anonymous_args = 0
 1679              		@ link register save eliminated.
 1680 0000 806B     		ldr	r0, [r0, #56]
 1681 0002 7047     		bx	lr
 1683              		.section	.text.lv_textarea_text_is_selected,"ax",%progbits
 1684              		.align	1
 1685              		.global	lv_textarea_text_is_selected
 1686              		.syntax unified
 1687              		.thumb
 1688              		.thumb_func
 1690              	lv_textarea_text_is_selected:
 1691              		@ args = 0, pretend = 0, frame = 0
 1692              		@ frame_needed = 0, uses_anonymous_args = 0
 1693 0000 10B5     		push	{r4, lr}
 1694 0002 0446     		mov	r4, r0
 1695 0004 406A     		ldr	r0, [r0, #36]
 1696 0006 FFF7FEFF 		bl	lv_label_get_text_selection_start
 1697 000a 4FF6FF73 		movw	r3, #65535
 1698 000e 9842     		cmp	r0, r3
 1699 0010 01D0     		beq	.L205
 1700              	.L201:
 1701 0012 0120     		movs	r0, #1
 1702              	.L202:
 1703 0014 10BD     		pop	{r4, pc}
 1704              	.L205:
 1705 0016 606A     		ldr	r0, [r4, #36]
 1706 0018 FFF7FEFF 		bl	lv_label_get_text_selection_end
 1707 001c 4FF6FF73 		movw	r3, #65535
 1708 0020 9842     		cmp	r0, r3
 1709 0022 F6D1     		bne	.L201
 1710 0024 0020     		movs	r0, #0
 1711 0026 F5E7     		b	.L202
 1713              		.section	.text.lv_textarea_get_text_selection,"ax",%progbits
 1714              		.align	1
 1715              		.global	lv_textarea_get_text_selection
 1716              		.syntax unified
 1717              		.thumb
 1718              		.thumb_func
 1720              	lv_textarea_get_text_selection:
 1721              		@ args = 0, pretend = 0, frame = 0
 1722              		@ frame_needed = 0, uses_anonymous_args = 0
 1723              		@ link register save eliminated.
 1724 0000 90F86000 		ldrb	r0, [r0, #96]	@ zero_extendqisi2
 1725 0004 C0F34000 		ubfx	r0, r0, #1, #1
 1726 0008 7047     		bx	lr
ARM GAS  /var/folders/lp/x54gwt890xv47sdkqj1k04q40000gn/T//ccsFfJ2E.s 			page 30


 1728              		.section	.text.lv_textarea_get_password_show_time,"ax",%progbits
 1729              		.align	1
 1730              		.global	lv_textarea_get_password_show_time
 1731              		.syntax unified
 1732              		.thumb
 1733              		.thumb_func
 1735              	lv_textarea_get_password_show_time:
 1736              		@ args = 0, pretend = 0, frame = 0
 1737              		@ frame_needed = 0, uses_anonymous_args = 0
 1738              		@ link register save eliminated.
 1739 0000 808F     		ldrh	r0, [r0, #60]
 1740 0002 7047     		bx	lr
 1742              		.section	.text.lv_textarea_clear_selection,"ax",%progbits
 1743              		.align	1
 1744              		.global	lv_textarea_clear_selection
 1745              		.syntax unified
 1746              		.thumb
 1747              		.thumb_func
 1749              	lv_textarea_clear_selection:
 1750              		@ args = 0, pretend = 0, frame = 0
 1751              		@ frame_needed = 0, uses_anonymous_args = 0
 1752 0000 10B5     		push	{r4, lr}
 1753 0002 0446     		mov	r4, r0
 1754 0004 406A     		ldr	r0, [r0, #36]
 1755 0006 FFF7FEFF 		bl	lv_label_get_text_selection_start
 1756 000a 4FF6FF73 		movw	r3, #65535
 1757 000e 9842     		cmp	r0, r3
 1758 0010 0AD0     		beq	.L212
 1759              	.L209:
 1760 0012 4FF6FF71 		movw	r1, #65535
 1761 0016 606A     		ldr	r0, [r4, #36]
 1762 0018 FFF7FEFF 		bl	lv_label_set_text_sel_start
 1763 001c 4FF6FF71 		movw	r1, #65535
 1764 0020 606A     		ldr	r0, [r4, #36]
 1765 0022 FFF7FEFF 		bl	lv_label_set_text_sel_end
 1766              	.L208:
 1767 0026 10BD     		pop	{r4, pc}
 1768              	.L212:
 1769 0028 606A     		ldr	r0, [r4, #36]
 1770 002a FFF7FEFF 		bl	lv_label_get_text_selection_end
 1771 002e 4FF6FF73 		movw	r3, #65535
 1772 0032 9842     		cmp	r0, r3
 1773 0034 EDD1     		bne	.L209
 1774 0036 F6E7     		b	.L208
 1776              		.section	.text.lv_textarea_add_text,"ax",%progbits
 1777              		.align	1
 1778              		.global	lv_textarea_add_text
 1779              		.syntax unified
 1780              		.thumb
 1781              		.thumb_func
 1783              	lv_textarea_add_text:
 1784              		@ args = 0, pretend = 0, frame = 8
 1785              		@ frame_needed = 0, uses_anonymous_args = 0
 1786 0000 79B1     		cbz	r1, .L215
 1787 0002 F0B5     		push	{r4, r5, r6, r7, lr}
 1788 0004 83B0     		sub	sp, sp, #12
 1789 0006 0546     		mov	r5, r0
ARM GAS  /var/folders/lp/x54gwt890xv47sdkqj1k04q40000gn/T//ccsFfJ2E.s 			page 31


 1790 0008 0C46     		mov	r4, r1
 1791 000a 90F86030 		ldrb	r3, [r0, #96]	@ zero_extendqisi2
 1792 000e 13F0040F 		tst	r3, #4
 1793 0012 07D1     		bne	.L228
 1794              	.L216:
 1795 0014 2846     		mov	r0, r5
 1796 0016 FFF7FEFF 		bl	lv_textarea_get_accepted_chars
 1797 001a 30B1     		cbz	r0, .L229
 1798              	.L217:
 1799 001c 0023     		movs	r3, #0
 1800 001e 0193     		str	r3, [sp, #4]
 1801 0020 41E0     		b	.L219
 1802              	.L215:
 1803 0022 FEE7     		b	.L215
 1804              	.L228:
 1805 0024 FFF7FEFF 		bl	pwd_char_hider
 1806 0028 F4E7     		b	.L216
 1807              	.L229:
 1808 002a 2846     		mov	r0, r5
 1809 002c FFF7FEFF 		bl	lv_textarea_get_max_length
 1810 0030 0028     		cmp	r0, #0
 1811 0032 F3D1     		bne	.L217
 1812 0034 2146     		mov	r1, r4
 1813 0036 2846     		mov	r0, r5
 1814 0038 FFF7FEFF 		bl	insert_handler
 1815 003c 0128     		cmp	r0, #1
 1816 003e 36D1     		bne	.L213
 1817 0040 AB6A     		ldr	r3, [r5, #40]
 1818 0042 2BB1     		cbz	r3, .L222
 1819 0044 686A     		ldr	r0, [r5, #36]
 1820 0046 FFF7FEFF 		bl	lv_label_get_text
 1821 004a 0378     		ldrb	r3, [r0]	@ zero_extendqisi2
 1822 004c 002B     		cmp	r3, #0
 1823 004e 30D0     		beq	.L230
 1824              	.L222:
 1825 0050 2246     		mov	r2, r4
 1826 0052 696C     		ldr	r1, [r5, #68]
 1827 0054 686A     		ldr	r0, [r5, #36]
 1828 0056 FFF7FEFF 		bl	lv_label_ins_text
 1829 005a 2846     		mov	r0, r5
 1830 005c FFF7FEFF 		bl	lv_textarea_clear_selection
 1831 0060 95F86030 		ldrb	r3, [r5, #96]	@ zero_extendqisi2
 1832 0064 13F0040F 		tst	r3, #4
 1833 0068 27D1     		bne	.L231
 1834              	.L223:
 1835 006a 2846     		mov	r0, r5
 1836 006c FFF7FEFF 		bl	lv_textarea_get_cursor_pos
 1837 0070 0646     		mov	r6, r0
 1838 0072 1E4B     		ldr	r3, .L232
 1839 0074 1B68     		ldr	r3, [r3]
 1840 0076 2046     		mov	r0, r4
 1841 0078 9847     		blx	r3
 1842 007a 3118     		adds	r1, r6, r0
 1843 007c 2846     		mov	r0, r5
 1844 007e FFF7FEFF 		bl	lv_textarea_set_cursor_pos
 1845 0082 0022     		movs	r2, #0
 1846 0084 1C21     		movs	r1, #28
ARM GAS  /var/folders/lp/x54gwt890xv47sdkqj1k04q40000gn/T//ccsFfJ2E.s 			page 32


 1847 0086 2846     		mov	r0, r5
 1848 0088 FFF7FEFF 		bl	lv_event_send
 1849 008c 0FE0     		b	.L213
 1850              	.L220:
 1851 008e 184B     		ldr	r3, .L232+4
 1852 0090 1B68     		ldr	r3, [r3]
 1853 0092 01A9     		add	r1, sp, #4
 1854 0094 2046     		mov	r0, r4
 1855 0096 9847     		blx	r3
 1856 0098 164B     		ldr	r3, .L232+8
 1857 009a 1B68     		ldr	r3, [r3]
 1858 009c 9847     		blx	r3
 1859 009e 0146     		mov	r1, r0
 1860 00a0 2846     		mov	r0, r5
 1861 00a2 FFF7FEFF 		bl	lv_textarea_add_char
 1862              	.L219:
 1863 00a6 019B     		ldr	r3, [sp, #4]
 1864 00a8 E35C     		ldrb	r3, [r4, r3]	@ zero_extendqisi2
 1865 00aa 002B     		cmp	r3, #0
 1866 00ac EFD1     		bne	.L220
 1867              	.L213:
 1868 00ae 03B0     		add	sp, sp, #12
 1869              		@ sp needed
 1870 00b0 F0BD     		pop	{r4, r5, r6, r7, pc}
 1871              	.L230:
 1872 00b2 2846     		mov	r0, r5
 1873 00b4 FFF7FEFF 		bl	lv_obj_invalidate
 1874 00b8 CAE7     		b	.L222
 1875              	.L231:
 1876 00ba EF6A     		ldr	r7, [r5, #44]
 1877 00bc 3846     		mov	r0, r7
 1878 00be FFF7FEFF 		bl	strlen
 1879 00c2 0646     		mov	r6, r0
 1880 00c4 2046     		mov	r0, r4
 1881 00c6 FFF7FEFF 		bl	strlen
 1882 00ca 3118     		adds	r1, r6, r0
 1883 00cc 0131     		adds	r1, r1, #1
 1884 00ce 3846     		mov	r0, r7
 1885 00d0 FFF7FEFF 		bl	lv_mem_realloc
 1886 00d4 E862     		str	r0, [r5, #44]
 1887 00d6 38B1     		cbz	r0, .L225
 1888 00d8 2246     		mov	r2, r4
 1889 00da 696C     		ldr	r1, [r5, #68]
 1890 00dc FFF7FEFF 		bl	_lv_txt_ins
 1891 00e0 2846     		mov	r0, r5
 1892 00e2 FFF7FEFF 		bl	auto_hide_characters
 1893 00e6 C0E7     		b	.L223
 1894              	.L225:
 1895 00e8 FEE7     		b	.L225
 1896              	.L233:
 1897 00ea 00BF     		.align	2
 1898              	.L232:
 1899 00ec 00000000 		.word	_lv_txt_get_encoded_length
 1900 00f0 00000000 		.word	_lv_txt_encoded_next
 1901 00f4 00000000 		.word	_lv_txt_unicode_to_encoded
 1903              		.section	.text.insert_handler,"ax",%progbits
 1904              		.align	1
ARM GAS  /var/folders/lp/x54gwt890xv47sdkqj1k04q40000gn/T//ccsFfJ2E.s 			page 33


 1905              		.syntax unified
 1906              		.thumb
 1907              		.thumb_func
 1909              	insert_handler:
 1910              		@ args = 0, pretend = 0, frame = 0
 1911              		@ frame_needed = 0, uses_anonymous_args = 0
 1912 0000 70B5     		push	{r4, r5, r6, lr}
 1913 0002 0646     		mov	r6, r0
 1914 0004 0C46     		mov	r4, r1
 1915 0006 0D4D     		ldr	r5, .L241
 1916 0008 0023     		movs	r3, #0
 1917 000a 2B60     		str	r3, [r5]
 1918 000c 0A46     		mov	r2, r1
 1919 000e 1D21     		movs	r1, #29
 1920 0010 FFF7FEFF 		bl	lv_event_send
 1921 0014 2D68     		ldr	r5, [r5]
 1922 0016 0DB1     		cbz	r5, .L235
 1923 0018 2878     		ldrb	r0, [r5]	@ zero_extendqisi2
 1924 001a 30B1     		cbz	r0, .L236
 1925              	.L235:
 1926 001c 65B1     		cbz	r5, .L237
 1927 001e 2146     		mov	r1, r4
 1928 0020 2846     		mov	r0, r5
 1929 0022 FFF7FEFF 		bl	strcmp
 1930 0026 08B9     		cbnz	r0, .L240
 1931 0028 0120     		movs	r0, #1
 1932              	.L236:
 1933 002a 70BD     		pop	{r4, r5, r6, pc}
 1934              	.L240:
 1935 002c 2946     		mov	r1, r5
 1936 002e 3046     		mov	r0, r6
 1937 0030 FFF7FEFF 		bl	lv_textarea_add_text
 1938 0034 0020     		movs	r0, #0
 1939 0036 F8E7     		b	.L236
 1940              	.L237:
 1941 0038 0120     		movs	r0, #1
 1942 003a F6E7     		b	.L236
 1943              	.L242:
 1944              		.align	2
 1945              	.L241:
 1946 003c 00000000 		.word	ta_insert_replace
 1948              		.section	.text.lv_textarea_add_char,"ax",%progbits
 1949              		.align	1
 1950              		.global	lv_textarea_add_char
 1951              		.syntax unified
 1952              		.thumb
 1953              		.thumb_func
 1955              	lv_textarea_add_char:
 1956              		@ args = 0, pretend = 0, frame = 16
 1957              		@ frame_needed = 0, uses_anonymous_args = 0
 1958 0000 70B5     		push	{r4, r5, r6, lr}
 1959 0002 84B0     		sub	sp, sp, #16
 1960 0004 0446     		mov	r4, r0
 1961 0006 0191     		str	r1, [sp, #4]
 1962 0008 90F86030 		ldrb	r3, [r0, #96]	@ zero_extendqisi2
 1963 000c 13F0080F 		tst	r3, #8
 1964 0010 03D0     		beq	.L244
ARM GAS  /var/folders/lp/x54gwt890xv47sdkqj1k04q40000gn/T//ccsFfJ2E.s 			page 34


 1965 0012 0A29     		cmp	r1, #10
 1966 0014 51D0     		beq	.L243
 1967 0016 0D29     		cmp	r1, #13
 1968 0018 4FD0     		beq	.L243
 1969              	.L244:
 1970 001a 019B     		ldr	r3, [sp, #4]
 1971 001c 0293     		str	r3, [sp, #8]
 1972 001e 0023     		movs	r3, #0
 1973 0020 0393     		str	r3, [sp, #12]
 1974 0022 02A9     		add	r1, sp, #8
 1975 0024 2046     		mov	r0, r4
 1976 0026 FFF7FEFF 		bl	insert_handler
 1977 002a 0128     		cmp	r0, #1
 1978 002c 45D1     		bne	.L243
 1979 002e 284B     		ldr	r3, .L255
 1980 0030 1B68     		ldr	r3, [r3]
 1981 0032 0021     		movs	r1, #0
 1982 0034 01A8     		add	r0, sp, #4
 1983 0036 9847     		blx	r3
 1984 0038 0146     		mov	r1, r0
 1985 003a 2046     		mov	r0, r4
 1986 003c FFF7FEFF 		bl	char_is_accepted
 1987 0040 0028     		cmp	r0, #0
 1988 0042 3AD0     		beq	.L243
 1989 0044 94F86030 		ldrb	r3, [r4, #96]	@ zero_extendqisi2
 1990 0048 13F0040F 		tst	r3, #4
 1991 004c 37D1     		bne	.L253
 1992              	.L246:
 1993 004e A36A     		ldr	r3, [r4, #40]
 1994 0050 23B1     		cbz	r3, .L247
 1995 0052 606A     		ldr	r0, [r4, #36]
 1996 0054 FFF7FEFF 		bl	lv_label_get_text
 1997 0058 0378     		ldrb	r3, [r0]	@ zero_extendqisi2
 1998 005a A3B3     		cbz	r3, .L254
 1999              	.L247:
 2000 005c 02AA     		add	r2, sp, #8
 2001 005e 616C     		ldr	r1, [r4, #68]
 2002 0060 606A     		ldr	r0, [r4, #36]
 2003 0062 FFF7FEFF 		bl	lv_label_ins_text
 2004 0066 2046     		mov	r0, r4
 2005 0068 FFF7FEFF 		bl	lv_textarea_clear_selection
 2006 006c 94F86030 		ldrb	r3, [r4, #96]	@ zero_extendqisi2
 2007 0070 13F0040F 		tst	r3, #4
 2008 0074 15D0     		beq	.L248
 2009 0076 E66A     		ldr	r6, [r4, #44]
 2010 0078 3046     		mov	r0, r6
 2011 007a FFF7FEFF 		bl	strlen
 2012 007e 0546     		mov	r5, r0
 2013 0080 02A8     		add	r0, sp, #8
 2014 0082 FFF7FEFF 		bl	strlen
 2015 0086 2918     		adds	r1, r5, r0
 2016 0088 0131     		adds	r1, r1, #1
 2017 008a 3046     		mov	r0, r6
 2018 008c FFF7FEFF 		bl	lv_mem_realloc
 2019 0090 E062     		str	r0, [r4, #44]
 2020 0092 E0B1     		cbz	r0, .L250
 2021 0094 02AA     		add	r2, sp, #8
ARM GAS  /var/folders/lp/x54gwt890xv47sdkqj1k04q40000gn/T//ccsFfJ2E.s 			page 35


 2022 0096 616C     		ldr	r1, [r4, #68]
 2023 0098 FFF7FEFF 		bl	_lv_txt_ins
 2024 009c 2046     		mov	r0, r4
 2025 009e FFF7FEFF 		bl	auto_hide_characters
 2026              	.L248:
 2027 00a2 2046     		mov	r0, r4
 2028 00a4 FFF7FEFF 		bl	lv_textarea_get_cursor_pos
 2029 00a8 411C     		adds	r1, r0, #1
 2030 00aa 2046     		mov	r0, r4
 2031 00ac FFF7FEFF 		bl	lv_textarea_set_cursor_pos
 2032 00b0 0022     		movs	r2, #0
 2033 00b2 1C21     		movs	r1, #28
 2034 00b4 2046     		mov	r0, r4
 2035 00b6 FFF7FEFF 		bl	lv_event_send
 2036              	.L243:
 2037 00ba 04B0     		add	sp, sp, #16
 2038              		@ sp needed
 2039 00bc 70BD     		pop	{r4, r5, r6, pc}
 2040              	.L253:
 2041 00be 2046     		mov	r0, r4
 2042 00c0 FFF7FEFF 		bl	pwd_char_hider
 2043 00c4 C3E7     		b	.L246
 2044              	.L254:
 2045 00c6 2046     		mov	r0, r4
 2046 00c8 FFF7FEFF 		bl	lv_obj_invalidate
 2047 00cc C6E7     		b	.L247
 2048              	.L250:
 2049 00ce FEE7     		b	.L250
 2050              	.L256:
 2051              		.align	2
 2052              	.L255:
 2053 00d0 00000000 		.word	_lv_txt_encoded_next
 2055              		.section	.text.lv_textarea_del_char,"ax",%progbits
 2056              		.align	1
 2057              		.global	lv_textarea_del_char
 2058              		.syntax unified
 2059              		.thumb
 2060              		.thumb_func
 2062              	lv_textarea_del_char:
 2063              		@ args = 0, pretend = 0, frame = 8
 2064              		@ frame_needed = 0, uses_anonymous_args = 0
 2065 0000 436C     		ldr	r3, [r0, #68]
 2066 0002 03B9     		cbnz	r3, .L267
 2067 0004 7047     		bx	lr
 2068              	.L267:
 2069 0006 30B5     		push	{r4, r5, lr}
 2070 0008 83B0     		sub	sp, sp, #12
 2071 000a 0446     		mov	r4, r0
 2072 000c 7F23     		movs	r3, #127
 2073 000e ADF80430 		strh	r3, [sp, #4]	@ movhi
 2074 0012 01A9     		add	r1, sp, #4
 2075 0014 FFF7FEFF 		bl	insert_handler
 2076 0018 0128     		cmp	r0, #1
 2077 001a 01D0     		beq	.L268
 2078              	.L257:
 2079 001c 03B0     		add	sp, sp, #12
 2080              		@ sp needed
ARM GAS  /var/folders/lp/x54gwt890xv47sdkqj1k04q40000gn/T//ccsFfJ2E.s 			page 36


 2081 001e 30BD     		pop	{r4, r5, pc}
 2082              	.L268:
 2083 0020 606A     		ldr	r0, [r4, #36]
 2084 0022 FFF7FEFF 		bl	lv_label_get_text
 2085 0026 0546     		mov	r5, r0
 2086 0028 616C     		ldr	r1, [r4, #68]
 2087 002a 0122     		movs	r2, #1
 2088 002c 0139     		subs	r1, r1, #1
 2089 002e FFF7FEFF 		bl	_lv_txt_cut
 2090 0032 2946     		mov	r1, r5
 2091 0034 606A     		ldr	r0, [r4, #36]
 2092 0036 FFF7FEFF 		bl	lv_label_set_text
 2093 003a 2046     		mov	r0, r4
 2094 003c FFF7FEFF 		bl	lv_textarea_clear_selection
 2095 0040 A36A     		ldr	r3, [r4, #40]
 2096 0042 23B1     		cbz	r3, .L259
 2097 0044 606A     		ldr	r0, [r4, #36]
 2098 0046 FFF7FEFF 		bl	lv_label_get_text
 2099 004a 0378     		ldrb	r3, [r0]	@ zero_extendqisi2
 2100 004c FBB1     		cbz	r3, .L269
 2101              	.L259:
 2102 004e 94F86030 		ldrb	r3, [r4, #96]	@ zero_extendqisi2
 2103 0052 13F0040F 		tst	r3, #4
 2104 0056 0FD0     		beq	.L260
 2105 0058 616C     		ldr	r1, [r4, #68]
 2106 005a 0122     		movs	r2, #1
 2107 005c 0139     		subs	r1, r1, #1
 2108 005e E06A     		ldr	r0, [r4, #44]
 2109 0060 FFF7FEFF 		bl	_lv_txt_cut
 2110 0064 E56A     		ldr	r5, [r4, #44]
 2111 0066 2846     		mov	r0, r5
 2112 0068 FFF7FEFF 		bl	strlen
 2113 006c 411C     		adds	r1, r0, #1
 2114 006e 2846     		mov	r0, r5
 2115 0070 FFF7FEFF 		bl	lv_mem_realloc
 2116 0074 E062     		str	r0, [r4, #44]
 2117 0076 70B1     		cbz	r0, .L261
 2118              	.L260:
 2119 0078 616C     		ldr	r1, [r4, #68]
 2120 007a 0139     		subs	r1, r1, #1
 2121 007c 2046     		mov	r0, r4
 2122 007e FFF7FEFF 		bl	lv_textarea_set_cursor_pos
 2123 0082 0022     		movs	r2, #0
 2124 0084 1C21     		movs	r1, #28
 2125 0086 2046     		mov	r0, r4
 2126 0088 FFF7FEFF 		bl	lv_event_send
 2127 008c C6E7     		b	.L257
 2128              	.L269:
 2129 008e 2046     		mov	r0, r4
 2130 0090 FFF7FEFF 		bl	lv_obj_invalidate
 2131 0094 DBE7     		b	.L259
 2132              	.L261:
 2133 0096 FEE7     		b	.L261
 2135              		.section	.text.lv_textarea_del_char_forward,"ax",%progbits
 2136              		.align	1
 2137              		.global	lv_textarea_del_char_forward
 2138              		.syntax unified
ARM GAS  /var/folders/lp/x54gwt890xv47sdkqj1k04q40000gn/T//ccsFfJ2E.s 			page 37


 2139              		.thumb
 2140              		.thumb_func
 2142              	lv_textarea_del_char_forward:
 2143              		@ args = 0, pretend = 0, frame = 0
 2144              		@ frame_needed = 0, uses_anonymous_args = 0
 2145 0000 38B5     		push	{r3, r4, r5, lr}
 2146 0002 0446     		mov	r4, r0
 2147 0004 FFF7FEFF 		bl	lv_textarea_get_cursor_pos
 2148 0008 0546     		mov	r5, r0
 2149 000a 411C     		adds	r1, r0, #1
 2150 000c 2046     		mov	r0, r4
 2151 000e FFF7FEFF 		bl	lv_textarea_set_cursor_pos
 2152 0012 2046     		mov	r0, r4
 2153 0014 FFF7FEFF 		bl	lv_textarea_get_cursor_pos
 2154 0018 A842     		cmp	r0, r5
 2155 001a 00D1     		bne	.L273
 2156              	.L270:
 2157 001c 38BD     		pop	{r3, r4, r5, pc}
 2158              	.L273:
 2159 001e 2046     		mov	r0, r4
 2160 0020 FFF7FEFF 		bl	lv_textarea_del_char
 2161 0024 FAE7     		b	.L270
 2163              		.section	.text.lv_textarea_set_text,"ax",%progbits
 2164              		.align	1
 2165              		.global	lv_textarea_set_text
 2166              		.syntax unified
 2167              		.thumb
 2168              		.thumb_func
 2170              	lv_textarea_set_text:
 2171              		@ args = 0, pretend = 0, frame = 8
 2172              		@ frame_needed = 0, uses_anonymous_args = 0
 2173 0000 E9B1     		cbz	r1, .L276
 2174 0002 70B5     		push	{r4, r5, r6, lr}
 2175 0004 82B0     		sub	sp, sp, #8
 2176 0006 0446     		mov	r4, r0
 2177 0008 0D46     		mov	r5, r1
 2178 000a FFF7FEFF 		bl	lv_textarea_clear_selection
 2179 000e 2046     		mov	r0, r4
 2180 0010 FFF7FEFF 		bl	lv_textarea_get_accepted_chars
 2181 0014 A0B1     		cbz	r0, .L289
 2182              	.L277:
 2183 0016 2E49     		ldr	r1, .L291
 2184 0018 606A     		ldr	r0, [r4, #36]
 2185 001a FFF7FEFF 		bl	lv_label_set_text
 2186 001e 47F6FF71 		movw	r1, #32767
 2187 0022 2046     		mov	r0, r4
 2188 0024 FFF7FEFF 		bl	lv_textarea_set_cursor_pos
 2189 0028 94F86030 		ldrb	r3, [r4, #96]	@ zero_extendqisi2
 2190 002c 13F0040F 		tst	r3, #4
 2191 0030 02D0     		beq	.L279
 2192 0032 E36A     		ldr	r3, [r4, #44]
 2193 0034 0022     		movs	r2, #0
 2194 0036 1A70     		strb	r2, [r3]
 2195              	.L279:
 2196 0038 0023     		movs	r3, #0
 2197 003a 0193     		str	r3, [sp, #4]
 2198 003c 1BE0     		b	.L280
ARM GAS  /var/folders/lp/x54gwt890xv47sdkqj1k04q40000gn/T//ccsFfJ2E.s 			page 38


 2199              	.L276:
 2200 003e FEE7     		b	.L276
 2201              	.L289:
 2202 0040 2046     		mov	r0, r4
 2203 0042 FFF7FEFF 		bl	lv_textarea_get_max_length
 2204 0046 0028     		cmp	r0, #0
 2205 0048 E5D1     		bne	.L277
 2206 004a 2946     		mov	r1, r5
 2207 004c 606A     		ldr	r0, [r4, #36]
 2208 004e FFF7FEFF 		bl	lv_label_set_text
 2209 0052 47F6FF71 		movw	r1, #32767
 2210 0056 2046     		mov	r0, r4
 2211 0058 FFF7FEFF 		bl	lv_textarea_set_cursor_pos
 2212 005c 0FE0     		b	.L282
 2213              	.L281:
 2214 005e 1D4B     		ldr	r3, .L291+4
 2215 0060 1B68     		ldr	r3, [r3]
 2216 0062 01A9     		add	r1, sp, #4
 2217 0064 2846     		mov	r0, r5
 2218 0066 9847     		blx	r3
 2219 0068 1B4B     		ldr	r3, .L291+8
 2220 006a 1B68     		ldr	r3, [r3]
 2221 006c 9847     		blx	r3
 2222 006e 0146     		mov	r1, r0
 2223 0070 2046     		mov	r0, r4
 2224 0072 FFF7FEFF 		bl	lv_textarea_add_char
 2225              	.L280:
 2226 0076 019B     		ldr	r3, [sp, #4]
 2227 0078 EB5C     		ldrb	r3, [r5, r3]	@ zero_extendqisi2
 2228 007a 002B     		cmp	r3, #0
 2229 007c EFD1     		bne	.L281
 2230              	.L282:
 2231 007e A36A     		ldr	r3, [r4, #40]
 2232 0080 23B1     		cbz	r3, .L283
 2233 0082 606A     		ldr	r0, [r4, #36]
 2234 0084 FFF7FEFF 		bl	lv_label_get_text
 2235 0088 0378     		ldrb	r3, [r0]	@ zero_extendqisi2
 2236 008a DBB1     		cbz	r3, .L290
 2237              	.L283:
 2238 008c 94F86030 		ldrb	r3, [r4, #96]	@ zero_extendqisi2
 2239 0090 13F0040F 		tst	r3, #4
 2240 0094 0FD0     		beq	.L284
 2241 0096 E66A     		ldr	r6, [r4, #44]
 2242 0098 2846     		mov	r0, r5
 2243 009a FFF7FEFF 		bl	strlen
 2244 009e 411C     		adds	r1, r0, #1
 2245 00a0 3046     		mov	r0, r6
 2246 00a2 FFF7FEFF 		bl	lv_mem_realloc
 2247 00a6 E062     		str	r0, [r4, #44]
 2248 00a8 80B1     		cbz	r0, .L286
 2249 00aa 2946     		mov	r1, r5
 2250 00ac FFF7FEFF 		bl	strcpy
 2251 00b0 2046     		mov	r0, r4
 2252 00b2 FFF7FEFF 		bl	auto_hide_characters
 2253              	.L284:
 2254 00b6 0022     		movs	r2, #0
 2255 00b8 1C21     		movs	r1, #28
ARM GAS  /var/folders/lp/x54gwt890xv47sdkqj1k04q40000gn/T//ccsFfJ2E.s 			page 39


 2256 00ba 2046     		mov	r0, r4
 2257 00bc FFF7FEFF 		bl	lv_event_send
 2258 00c0 02B0     		add	sp, sp, #8
 2259              		@ sp needed
 2260 00c2 70BD     		pop	{r4, r5, r6, pc}
 2261              	.L290:
 2262 00c4 2046     		mov	r0, r4
 2263 00c6 FFF7FEFF 		bl	lv_obj_invalidate
 2264 00ca DFE7     		b	.L283
 2265              	.L286:
 2266 00cc FEE7     		b	.L286
 2267              	.L292:
 2268 00ce 00BF     		.align	2
 2269              	.L291:
 2270 00d0 00000000 		.word	.LC0
 2271 00d4 00000000 		.word	_lv_txt_encoded_next
 2272 00d8 00000000 		.word	_lv_txt_unicode_to_encoded
 2274              		.section	.text.lv_textarea_set_password_mode,"ax",%progbits
 2275              		.align	1
 2276              		.global	lv_textarea_set_password_mode
 2277              		.syntax unified
 2278              		.thumb
 2279              		.thumb_func
 2281              	lv_textarea_set_password_mode:
 2282              		@ args = 0, pretend = 0, frame = 0
 2283              		@ frame_needed = 0, uses_anonymous_args = 0
 2284 0000 38B5     		push	{r3, r4, r5, lr}
 2285 0002 90F86030 		ldrb	r3, [r0, #96]	@ zero_extendqisi2
 2286 0006 C3F38003 		ubfx	r3, r3, #2, #1
 2287 000a 8B42     		cmp	r3, r1
 2288 000c 2BD0     		beq	.L293
 2289 000e 0446     		mov	r4, r0
 2290 0010 90F86030 		ldrb	r3, [r0, #96]	@ zero_extendqisi2
 2291 0014 61F38203 		bfi	r3, r1, #2, #1
 2292 0018 80F86030 		strb	r3, [r0, #96]
 2293 001c A9B1     		cbz	r1, .L295
 2294 001e 406A     		ldr	r0, [r0, #36]
 2295 0020 FFF7FEFF 		bl	lv_label_get_text
 2296 0024 0546     		mov	r5, r0
 2297 0026 FFF7FEFF 		bl	strlen
 2298 002a 0130     		adds	r0, r0, #1
 2299 002c FFF7FEFF 		bl	lv_mem_alloc
 2300 0030 E062     		str	r0, [r4, #44]
 2301 0032 48B1     		cbz	r0, .L297
 2302 0034 2946     		mov	r1, r5
 2303 0036 FFF7FEFF 		bl	strcpy
 2304 003a 2046     		mov	r0, r4
 2305 003c FFF7FEFF 		bl	pwd_char_hider
 2306 0040 2046     		mov	r0, r4
 2307 0042 FFF7FEFF 		bl	lv_textarea_clear_selection
 2308 0046 0BE0     		b	.L298
 2309              	.L297:
 2310 0048 FEE7     		b	.L297
 2311              	.L295:
 2312 004a FFF7FEFF 		bl	lv_textarea_clear_selection
 2313 004e E16A     		ldr	r1, [r4, #44]
 2314 0050 606A     		ldr	r0, [r4, #36]
ARM GAS  /var/folders/lp/x54gwt890xv47sdkqj1k04q40000gn/T//ccsFfJ2E.s 			page 40


 2315 0052 FFF7FEFF 		bl	lv_label_set_text
 2316 0056 E06A     		ldr	r0, [r4, #44]
 2317 0058 FFF7FEFF 		bl	lv_mem_free
 2318 005c 0023     		movs	r3, #0
 2319 005e E362     		str	r3, [r4, #44]
 2320              	.L298:
 2321 0060 2046     		mov	r0, r4
 2322 0062 FFF7FEFF 		bl	refr_cursor_area
 2323              	.L293:
 2324 0066 38BD     		pop	{r3, r4, r5, pc}
 2326              		.section	.text.lv_textarea_set_text_selection,"ax",%progbits
 2327              		.align	1
 2328              		.global	lv_textarea_set_text_selection
 2329              		.syntax unified
 2330              		.thumb
 2331              		.thumb_func
 2333              	lv_textarea_set_text_selection:
 2334              		@ args = 0, pretend = 0, frame = 0
 2335              		@ frame_needed = 0, uses_anonymous_args = 0
 2336 0000 08B5     		push	{r3, lr}
 2337 0002 90F86030 		ldrb	r3, [r0, #96]	@ zero_extendqisi2
 2338 0006 61F34103 		bfi	r3, r1, #1, #1
 2339 000a 80F86030 		strb	r3, [r0, #96]
 2340 000e 01B1     		cbz	r1, .L303
 2341              	.L300:
 2342 0010 08BD     		pop	{r3, pc}
 2343              	.L303:
 2344 0012 FFF7FEFF 		bl	lv_textarea_clear_selection
 2345 0016 FBE7     		b	.L300
 2347              		.section	.text.lv_textarea_cursor_right,"ax",%progbits
 2348              		.align	1
 2349              		.global	lv_textarea_cursor_right
 2350              		.syntax unified
 2351              		.thumb
 2352              		.thumb_func
 2354              	lv_textarea_cursor_right:
 2355              		@ args = 0, pretend = 0, frame = 0
 2356              		@ frame_needed = 0, uses_anonymous_args = 0
 2357 0000 10B5     		push	{r4, lr}
 2358 0002 0446     		mov	r4, r0
 2359 0004 FFF7FEFF 		bl	lv_textarea_get_cursor_pos
 2360 0008 411C     		adds	r1, r0, #1
 2361 000a 2046     		mov	r0, r4
 2362 000c FFF7FEFF 		bl	lv_textarea_set_cursor_pos
 2363 0010 10BD     		pop	{r4, pc}
 2365              		.section	.text.lv_textarea_cursor_left,"ax",%progbits
 2366              		.align	1
 2367              		.global	lv_textarea_cursor_left
 2368              		.syntax unified
 2369              		.thumb
 2370              		.thumb_func
 2372              	lv_textarea_cursor_left:
 2373              		@ args = 0, pretend = 0, frame = 0
 2374              		@ frame_needed = 0, uses_anonymous_args = 0
 2375 0000 10B5     		push	{r4, lr}
 2376 0002 0446     		mov	r4, r0
 2377 0004 FFF7FEFF 		bl	lv_textarea_get_cursor_pos
ARM GAS  /var/folders/lp/x54gwt890xv47sdkqj1k04q40000gn/T//ccsFfJ2E.s 			page 41


 2378 0008 00B9     		cbnz	r0, .L309
 2379              	.L306:
 2380 000a 10BD     		pop	{r4, pc}
 2381              	.L309:
 2382 000c 411E     		subs	r1, r0, #1
 2383 000e 2046     		mov	r0, r4
 2384 0010 FFF7FEFF 		bl	lv_textarea_set_cursor_pos
 2385 0014 F9E7     		b	.L306
 2387              		.section	.text.lv_textarea_cursor_down,"ax",%progbits
 2388              		.align	1
 2389              		.global	lv_textarea_cursor_down
 2390              		.syntax unified
 2391              		.thumb
 2392              		.thumb_func
 2394              	lv_textarea_cursor_down:
 2395              		@ args = 0, pretend = 0, frame = 8
 2396              		@ frame_needed = 0, uses_anonymous_args = 0
 2397 0000 70B5     		push	{r4, r5, r6, lr}
 2398 0002 82B0     		sub	sp, sp, #8
 2399 0004 0546     		mov	r5, r0
 2400 0006 446A     		ldr	r4, [r0, #36]
 2401 0008 FFF7FEFF 		bl	lv_textarea_get_cursor_pos
 2402 000c 0146     		mov	r1, r0
 2403 000e 01AA     		add	r2, sp, #4
 2404 0010 2046     		mov	r0, r4
 2405 0012 FFF7FEFF 		bl	lv_label_get_letter_pos
 2406 0016 5922     		movs	r2, #89
 2407 0018 0021     		movs	r1, #0
 2408 001a 2846     		mov	r0, r5
 2409 001c FFF7FEFF 		bl	lv_obj_get_style_prop
 2410 0020 0646     		mov	r6, r0
 2411 0022 5722     		movs	r2, #87
 2412 0024 0021     		movs	r1, #0
 2413 0026 2846     		mov	r0, r5
 2414 0028 FFF7FEFF 		bl	lv_obj_get_style_prop
 2415 002c B0F90840 		ldrsh	r4, [r0, #8]
 2416 0030 BDF90630 		ldrsh	r3, [sp, #6]
 2417 0034 3444     		add	r4, r4, r6
 2418 0036 13FA84F4 		uxtah	r4, r3, r4
 2419 003a 0134     		adds	r4, r4, #1
 2420 003c 24B2     		sxth	r4, r4
 2421 003e ADF80640 		strh	r4, [sp, #6]	@ movhi
 2422 0042 B5F94030 		ldrsh	r3, [r5, #64]
 2423 0046 ADF80430 		strh	r3, [sp, #4]	@ movhi
 2424 004a 686A     		ldr	r0, [r5, #36]
 2425 004c FFF7FEFF 		bl	lv_obj_get_height
 2426 0050 8442     		cmp	r4, r0
 2427 0052 01DB     		blt	.L313
 2428              	.L310:
 2429 0054 02B0     		add	sp, sp, #8
 2430              		@ sp needed
 2431 0056 70BD     		pop	{r4, r5, r6, pc}
 2432              	.L313:
 2433 0058 01A9     		add	r1, sp, #4
 2434 005a 686A     		ldr	r0, [r5, #36]
 2435 005c FFF7FEFF 		bl	lv_label_get_letter_on
 2436 0060 0146     		mov	r1, r0
ARM GAS  /var/folders/lp/x54gwt890xv47sdkqj1k04q40000gn/T//ccsFfJ2E.s 			page 42


 2437 0062 B5F94040 		ldrsh	r4, [r5, #64]
 2438 0066 2846     		mov	r0, r5
 2439 0068 FFF7FEFF 		bl	lv_textarea_set_cursor_pos
 2440 006c A5F84040 		strh	r4, [r5, #64]	@ movhi
 2441 0070 F0E7     		b	.L310
 2443              		.section	.text.lv_textarea_cursor_up,"ax",%progbits
 2444              		.align	1
 2445              		.global	lv_textarea_cursor_up
 2446              		.syntax unified
 2447              		.thumb
 2448              		.thumb_func
 2450              	lv_textarea_cursor_up:
 2451              		@ args = 0, pretend = 0, frame = 8
 2452              		@ frame_needed = 0, uses_anonymous_args = 0
 2453 0000 30B5     		push	{r4, r5, lr}
 2454 0002 83B0     		sub	sp, sp, #12
 2455 0004 0446     		mov	r4, r0
 2456 0006 456A     		ldr	r5, [r0, #36]
 2457 0008 FFF7FEFF 		bl	lv_textarea_get_cursor_pos
 2458 000c 0146     		mov	r1, r0
 2459 000e 01AA     		add	r2, sp, #4
 2460 0010 2846     		mov	r0, r5
 2461 0012 FFF7FEFF 		bl	lv_label_get_letter_pos
 2462 0016 5922     		movs	r2, #89
 2463 0018 0021     		movs	r1, #0
 2464 001a 2046     		mov	r0, r4
 2465 001c FFF7FEFF 		bl	lv_obj_get_style_prop
 2466 0020 0546     		mov	r5, r0
 2467 0022 5722     		movs	r2, #87
 2468 0024 0021     		movs	r1, #0
 2469 0026 2046     		mov	r0, r4
 2470 0028 FFF7FEFF 		bl	lv_obj_get_style_prop
 2471 002c B0F90800 		ldrsh	r0, [r0, #8]
 2472 0030 BDF90630 		ldrsh	r3, [sp, #6]
 2473 0034 2844     		add	r0, r0, r5
 2474 0036 80B2     		uxth	r0, r0
 2475 0038 1B1A     		subs	r3, r3, r0
 2476 003a 0133     		adds	r3, r3, #1
 2477 003c ADF80630 		strh	r3, [sp, #6]	@ movhi
 2478 0040 B4F94030 		ldrsh	r3, [r4, #64]
 2479 0044 ADF80430 		strh	r3, [sp, #4]	@ movhi
 2480 0048 01A9     		add	r1, sp, #4
 2481 004a 606A     		ldr	r0, [r4, #36]
 2482 004c FFF7FEFF 		bl	lv_label_get_letter_on
 2483 0050 0146     		mov	r1, r0
 2484 0052 B4F94050 		ldrsh	r5, [r4, #64]
 2485 0056 2046     		mov	r0, r4
 2486 0058 FFF7FEFF 		bl	lv_textarea_set_cursor_pos
 2487 005c A4F84050 		strh	r5, [r4, #64]	@ movhi
 2488 0060 03B0     		add	sp, sp, #12
 2489              		@ sp needed
 2490 0062 30BD     		pop	{r4, r5, pc}
 2492              		.section	.text.lv_textarea_event,"ax",%progbits
 2493              		.align	1
 2494              		.syntax unified
 2495              		.thumb
 2496              		.thumb_func
ARM GAS  /var/folders/lp/x54gwt890xv47sdkqj1k04q40000gn/T//ccsFfJ2E.s 			page 43


 2498              	lv_textarea_event:
 2499              		@ args = 0, pretend = 0, frame = 0
 2500              		@ frame_needed = 0, uses_anonymous_args = 0
 2501 0000 70B5     		push	{r4, r5, r6, lr}
 2502 0002 0C46     		mov	r4, r1
 2503 0004 4E48     		ldr	r0, .L341
 2504 0006 FFF7FEFF 		bl	lv_obj_event_base
 2505 000a 0128     		cmp	r0, #1
 2506 000c 00D0     		beq	.L339
 2507              	.L316:
 2508 000e 70BD     		pop	{r4, r5, r6, pc}
 2509              	.L339:
 2510 0010 2046     		mov	r0, r4
 2511 0012 FFF7FEFF 		bl	lv_event_get_code
 2512 0016 0546     		mov	r5, r0
 2513 0018 2046     		mov	r0, r4
 2514 001a FFF7FEFF 		bl	lv_event_get_target
 2515 001e 0646     		mov	r6, r0
 2516 0020 6B1E     		subs	r3, r5, #1
 2517 0022 172B     		cmp	r3, #23
 2518 0024 F3D8     		bhi	.L316
 2519 0026 01A2     		adr	r2, .L319
 2520 0028 52F823F0 		ldr	pc, [r2, r3, lsl #2]
 2521              		.p2align 2
 2522              	.L319:
 2523 002c 29010000 		.word	.L323+1
 2524 0030 29010000 		.word	.L323+1
 2525 0034 29010000 		.word	.L323+1
 2526 0038 0F000000 		.word	.L316+1
 2527 003c 0F000000 		.word	.L316+1
 2528 0040 0F000000 		.word	.L316+1
 2529 0044 0F000000 		.word	.L316+1
 2530 0048 29010000 		.word	.L323+1
 2531 004c 0F000000 		.word	.L316+1
 2532 0050 0F000000 		.word	.L316+1
 2533 0054 0F000000 		.word	.L316+1
 2534 0058 0F000000 		.word	.L316+1
 2535 005c 93000000 		.word	.L322+1
 2536 0060 8D000000 		.word	.L321+1
 2537 0064 0F000000 		.word	.L316+1
 2538 0068 0F000000 		.word	.L316+1
 2539 006c 0F000000 		.word	.L316+1
 2540 0070 0F000000 		.word	.L316+1
 2541 0074 0F000000 		.word	.L316+1
 2542 0078 0F000000 		.word	.L316+1
 2543 007c 31010000 		.word	.L320+1
 2544 0080 0F000000 		.word	.L316+1
 2545 0084 0F000000 		.word	.L316+1
 2546 0088 39010000 		.word	.L318+1
 2547              		.p2align 1
 2548              	.L321:
 2549 008c FFF7FEFF 		bl	start_cursor_blink
 2550 0090 BDE7     		b	.L316
 2551              	.L322:
 2552 0092 2046     		mov	r0, r4
 2553 0094 FFF7FEFF 		bl	lv_event_get_param
 2554 0098 0468     		ldr	r4, [r0]
ARM GAS  /var/folders/lp/x54gwt890xv47sdkqj1k04q40000gn/T//ccsFfJ2E.s 			page 44


 2555 009a 142C     		cmp	r4, #20
 2556 009c 10D8     		bhi	.L324
 2557 009e 022C     		cmp	r4, #2
 2558 00a0 37D3     		bcc	.L325
 2559 00a2 A31E     		subs	r3, r4, #2
 2560 00a4 122B     		cmp	r3, #18
 2561 00a6 34D8     		bhi	.L325
 2562 00a8 DFE803F0 		tbb	[pc, r3]
 2563              	.L327:
 2564 00ac 24       		.byte	(.L334-.L327)/2
 2565 00ad 29       		.byte	(.L333-.L327)/2
 2566 00ae 33       		.byte	(.L325-.L327)/2
 2567 00af 33       		.byte	(.L325-.L327)/2
 2568 00b0 33       		.byte	(.L325-.L327)/2
 2569 00b1 33       		.byte	(.L325-.L327)/2
 2570 00b2 20       		.byte	(.L332-.L327)/2
 2571 00b3 33       		.byte	(.L325-.L327)/2
 2572 00b4 2F       		.byte	(.L331-.L327)/2
 2573 00b5 33       		.byte	(.L325-.L327)/2
 2574 00b6 33       		.byte	(.L325-.L327)/2
 2575 00b7 33       		.byte	(.L325-.L327)/2
 2576 00b8 33       		.byte	(.L325-.L327)/2
 2577 00b9 33       		.byte	(.L325-.L327)/2
 2578 00ba 33       		.byte	(.L325-.L327)/2
 2579 00bb 18       		.byte	(.L330-.L327)/2
 2580 00bc 1C       		.byte	(.L329-.L327)/2
 2581 00bd 10       		.byte	(.L328-.L327)/2
 2582 00be 14       		.byte	(.L326-.L327)/2
 2583 00bf 00       		.p2align 1
 2584              	.L324:
 2585 00c0 7F2C     		cmp	r4, #127
 2586 00c2 26D1     		bne	.L325
 2587 00c4 3046     		mov	r0, r6
 2588 00c6 FFF7FEFF 		bl	lv_textarea_del_char_forward
 2589 00ca A0E7     		b	.L316
 2590              	.L328:
 2591 00cc 3046     		mov	r0, r6
 2592 00ce FFF7FEFF 		bl	lv_textarea_cursor_right
 2593 00d2 9CE7     		b	.L316
 2594              	.L326:
 2595 00d4 3046     		mov	r0, r6
 2596 00d6 FFF7FEFF 		bl	lv_textarea_cursor_left
 2597 00da 98E7     		b	.L316
 2598              	.L330:
 2599 00dc 3046     		mov	r0, r6
 2600 00de FFF7FEFF 		bl	lv_textarea_cursor_up
 2601 00e2 94E7     		b	.L316
 2602              	.L329:
 2603 00e4 3046     		mov	r0, r6
 2604 00e6 FFF7FEFF 		bl	lv_textarea_cursor_down
 2605 00ea 90E7     		b	.L316
 2606              	.L332:
 2607 00ec 3046     		mov	r0, r6
 2608 00ee FFF7FEFF 		bl	lv_textarea_del_char
 2609 00f2 8CE7     		b	.L316
 2610              	.L334:
 2611 00f4 0021     		movs	r1, #0
ARM GAS  /var/folders/lp/x54gwt890xv47sdkqj1k04q40000gn/T//ccsFfJ2E.s 			page 45


 2612 00f6 3046     		mov	r0, r6
 2613 00f8 FFF7FEFF 		bl	lv_textarea_set_cursor_pos
 2614 00fc 87E7     		b	.L316
 2615              	.L333:
 2616 00fe 47F6FF71 		movw	r1, #32767
 2617 0102 3046     		mov	r0, r6
 2618 0104 FFF7FEFF 		bl	lv_textarea_set_cursor_pos
 2619 0108 81E7     		b	.L316
 2620              	.L331:
 2621 010a 3046     		mov	r0, r6
 2622 010c FFF7FEFF 		bl	lv_textarea_get_one_line
 2623 0110 20B9     		cbnz	r0, .L340
 2624              	.L325:
 2625 0112 2146     		mov	r1, r4
 2626 0114 3046     		mov	r0, r6
 2627 0116 FFF7FEFF 		bl	lv_textarea_add_char
 2628 011a 78E7     		b	.L316
 2629              	.L340:
 2630 011c 0022     		movs	r2, #0
 2631 011e 1F21     		movs	r1, #31
 2632 0120 3046     		mov	r0, r6
 2633 0122 FFF7FEFF 		bl	lv_event_send
 2634 0126 72E7     		b	.L316
 2635              	.L323:
 2636 0128 2046     		mov	r0, r4
 2637 012a FFF7FEFF 		bl	update_cursor_position_on_click
 2638 012e 6EE7     		b	.L316
 2639              	.L320:
 2640 0130 2046     		mov	r0, r4
 2641 0132 FFF7FEFF 		bl	draw_placeholder
 2642 0136 6AE7     		b	.L316
 2643              	.L318:
 2644 0138 2046     		mov	r0, r4
 2645 013a FFF7FEFF 		bl	draw_cursor
 2646 013e 66E7     		b	.L316
 2647              	.L342:
 2648              		.align	2
 2649              	.L341:
 2650 0140 00000000 		.word	lv_textarea_class
 2652              		.section	.bss.ta_insert_replace,"aw",%nobits
 2653              		.align	2
 2656              	ta_insert_replace:
 2657 0000 00000000 		.space	4
 2658              		.global	lv_textarea_class
 2659              		.section	.rodata.lv_textarea_class,"a"
 2660              		.align	2
 2663              	lv_textarea_class:
 2664 0000 00000000 		.word	lv_obj_class
 2665 0004 00000000 		.word	lv_textarea_constructor
 2666 0008 00000000 		.word	lv_textarea_destructor
 2667 000c 00000000 		.space	4
 2668 0010 00000000 		.word	lv_textarea_event
 2669 0014 0401     		.short	260
 2670 0016 8200     		.short	130
 2671 0018 44       		.byte	68
 2672 0019 06       		.byte	6
 2673 001a 00       		.byte	0
ARM GAS  /var/folders/lp/x54gwt890xv47sdkqj1k04q40000gn/T//ccsFfJ2E.s 			page 46


 2674 001b 00       		.space	1
 2675              		.ident	"GCC: (xPack GNU Arm Embedded GCC arm64) 13.3.1 20240614"
ARM GAS  /var/folders/lp/x54gwt890xv47sdkqj1k04q40000gn/T//ccsFfJ2E.s 			page 47

