ARM GAS  /var/folders/lp/x54gwt890xv47sdkqj1k04q40000gn/T//ccga5Emc.s 			page 1


   1              		.cpu cortex-m4
   2              		.arch armv7e-m
   3              		.fpu fpv4-sp-d16
   4              		.eabi_attribute 27, 1
   5              		.eabi_attribute 28, 1
   6              		.eabi_attribute 20, 1
   7              		.eabi_attribute 21, 1
   8              		.eabi_attribute 23, 3
   9              		.eabi_attribute 24, 1
  10              		.eabi_attribute 25, 1
  11              		.eabi_attribute 26, 1
  12              		.eabi_attribute 30, 1
  13              		.eabi_attribute 34, 1
  14              		.eabi_attribute 18, 4
  15              		.file	"lv_table.c"
  16              		.text
  17              		.section	.text.get_row_height,"ax",%progbits
  18              		.align	1
  19              		.syntax unified
  20              		.thumb
  21              		.thumb_func
  23              	get_row_height:
  24              		@ args = 20, pretend = 0, frame = 48
  25              		@ frame_needed = 0, uses_anonymous_args = 0
  26 0000 2DE9F04F 		push	{r4, r5, r6, r7, r8, r9, r10, fp, lr}
  27 0004 91B0     		sub	sp, sp, #68
  28 0006 8046     		mov	r8, r0
  29 0008 0692     		str	r2, [sp, #24]
  30 000a 0A93     		str	r3, [sp, #40]
  31 000c BDF96830 		ldrsh	r3, [sp, #104]
  32 0010 0B93     		str	r3, [sp, #44]
  33 0012 BDF96C30 		ldrsh	r3, [sp, #108]
  34 0016 0C93     		str	r3, [sp, #48]
  35 0018 BDF97030 		ldrsh	r3, [sp, #112]
  36 001c 0D93     		str	r3, [sp, #52]
  37 001e BDF974B0 		ldrsh	fp, [sp, #116]
  38 0022 BDF97830 		ldrsh	r3, [sp, #120]
  39 0026 0793     		str	r3, [sp, #28]
  40 0028 B2F90870 		ldrsh	r7, [r2, #8]
  41 002c 1FFA8BF2 		uxth	r2, fp
  42 0030 0892     		str	r2, [sp, #32]
  43 0032 12FA87F7 		uxtah	r7, r2, r7
  44 0036 9BB2     		uxth	r3, r3
  45 0038 0993     		str	r3, [sp, #36]
  46 003a 13FA87F7 		uxtah	r7, r3, r7
  47 003e 3FB2     		sxth	r7, r7
  48 0040 B0F82490 		ldrh	r9, [r0, #36]
  49 0044 19FB01F9 		smulbb	r9, r9, r1
  50 0048 1FFA89F9 		uxth	r9, r9
  51 004c 4E46     		mov	r6, r9
  52 004e 0025     		movs	r5, #0
  53 0050 18E0     		b	.L2
  54              	.L5:
  55 0052 059E     		ldr	r6, [sp, #20]
  56 0054 0278     		ldrb	r2, [r0]	@ zero_extendqisi2
  57 0056 12F0020F 		tst	r2, #2
  58 005a 3DD0     		beq	.L7
ARM GAS  /var/folders/lp/x54gwt890xv47sdkqj1k04q40000gn/T//ccga5Emc.s 			page 2


  59 005c 069B     		ldr	r3, [sp, #24]
  60 005e B3F90830 		ldrsh	r3, [r3, #8]
  61 0062 0BEB0302 		add	r2, fp, r3
  62 0066 0799     		ldr	r1, [sp, #28]
  63 0068 0A44     		add	r2, r2, r1
  64 006a BA42     		cmp	r2, r7
  65 006c 06DD     		ble	.L3
  66 006e 089A     		ldr	r2, [sp, #32]
  67 0070 12FA83F3 		uxtah	r3, r2, r3
  68 0074 099A     		ldr	r2, [sp, #36]
  69 0076 12FA83F3 		uxtah	r3, r2, r3
  70 007a 1FB2     		sxth	r7, r3
  71              	.L3:
  72 007c 0136     		adds	r6, r6, #1
  73 007e B6B2     		uxth	r6, r6
  74 0080 0135     		adds	r5, r5, #1
  75 0082 ADB2     		uxth	r5, r5
  76              	.L2:
  77 0084 B646     		mov	lr, r6
  78 0086 B8F824C0 		ldrh	ip, [r8, #36]
  79 008a 09EB0C03 		add	r3, r9, ip
  80 008e 9E42     		cmp	r6, r3
  81 0090 42DA     		bge	.L10
  82 0092 D8F82810 		ldr	r1, [r8, #40]
  83 0096 51F82600 		ldr	r0, [r1, r6, lsl #2]
  84 009a 0028     		cmp	r0, #0
  85 009c EED0     		beq	.L3
  86 009e D8F830A0 		ldr	r10, [r8, #48]
  87 00a2 3AF91530 		ldrsh	r3, [r10, r5, lsl #1]
  88 00a6 0024     		movs	r4, #0
  89 00a8 0596     		str	r6, [sp, #20]
  90              	.L4:
  91 00aa 2A19     		adds	r2, r5, r4
  92 00ac 0CF1FF36 		add	r6, ip, #-1
  93 00b0 B242     		cmp	r2, r6
  94 00b2 CEDA     		bge	.L5
  95 00b4 04EB0E06 		add	r6, r4, lr
  96 00b8 51F82660 		ldr	r6, [r1, r6, lsl #2]
  97 00bc 002E     		cmp	r6, #0
  98 00be C8D0     		beq	.L5
  99 00c0 3678     		ldrb	r6, [r6]	@ zero_extendqisi2
 100 00c2 16F0010F 		tst	r6, #1
 101 00c6 C4D0     		beq	.L5
 102 00c8 0132     		adds	r2, r2, #1
 103 00ca 3AF81220 		ldrh	r2, [r10, r2, lsl #1]
 104 00ce 1344     		add	r3, r3, r2
 105 00d0 1BB2     		sxth	r3, r3
 106 00d2 0134     		adds	r4, r4, #1
 107 00d4 A4B2     		uxth	r4, r4
 108 00d6 E8E7     		b	.L4
 109              	.L7:
 110 00d8 0C9A     		ldr	r2, [sp, #48]
 111 00da 0D99     		ldr	r1, [sp, #52]
 112 00dc 0A44     		add	r2, r2, r1
 113 00de 92B2     		uxth	r2, r2
 114 00e0 9B1A     		subs	r3, r3, r2
 115 00e2 1BB2     		sxth	r3, r3
ARM GAS  /var/folders/lp/x54gwt890xv47sdkqj1k04q40000gn/T//ccga5Emc.s 			page 3


 116 00e4 0022     		movs	r2, #0
 117 00e6 0292     		str	r2, [sp, #8]
 118 00e8 0193     		str	r3, [sp, #4]
 119 00ea 0B9B     		ldr	r3, [sp, #44]
 120 00ec 0093     		str	r3, [sp]
 121 00ee 0A9B     		ldr	r3, [sp, #40]
 122 00f0 069A     		ldr	r2, [sp, #24]
 123 00f2 00F10801 		add	r1, r0, #8
 124 00f6 0FA8     		add	r0, sp, #60
 125 00f8 FFF7FEFF 		bl	lv_txt_get_size
 126 00fc BDF93E30 		ldrsh	r3, [sp, #62]
 127 0100 5B44     		add	r3, r3, fp
 128 0102 079A     		ldr	r2, [sp, #28]
 129 0104 1344     		add	r3, r3, r2
 130 0106 BB42     		cmp	r3, r7
 131 0108 B8BF     		it	lt
 132 010a 3B46     		movlt	r3, r7
 133 010c 1FB2     		sxth	r7, r3
 134 010e 2644     		add	r6, r6, r4
 135 0110 B6B2     		uxth	r6, r6
 136 0112 2C44     		add	r4, r4, r5
 137 0114 A5B2     		uxth	r5, r4
 138 0116 B1E7     		b	.L3
 139              	.L10:
 140 0118 3846     		mov	r0, r7
 141 011a 11B0     		add	sp, sp, #68
 142              		@ sp needed
 143 011c BDE8F08F 		pop	{r4, r5, r6, r7, r8, r9, r10, fp, pc}
 145              		.section	.text.refr_size_form_row,"ax",%progbits
 146              		.align	1
 147              		.syntax unified
 148              		.thumb
 149              		.thumb_func
 151              	refr_size_form_row:
 152              		@ args = 0, pretend = 0, frame = 16
 153              		@ frame_needed = 0, uses_anonymous_args = 0
 154 0000 2DE9F04F 		push	{r4, r5, r6, r7, r8, r9, r10, fp, lr}
 155 0004 8BB0     		sub	sp, sp, #44
 156 0006 0546     		mov	r5, r0
 157 0008 0C46     		mov	r4, r1
 158 000a 1222     		movs	r2, #18
 159 000c 4FF4A021 		mov	r1, #327680
 160 0010 FFF7FEFF 		bl	lv_obj_get_style_prop
 161 0014 0FFA80FB 		sxth	fp, r0
 162 0018 1322     		movs	r2, #19
 163 001a 4FF4A021 		mov	r1, #327680
 164 001e 2846     		mov	r0, r5
 165 0020 FFF7FEFF 		bl	lv_obj_get_style_prop
 166 0024 0FFA80FA 		sxth	r10, r0
 167 0028 1022     		movs	r2, #16
 168 002a 4FF4A021 		mov	r1, #327680
 169 002e 2846     		mov	r0, r5
 170 0030 FFF7FEFF 		bl	lv_obj_get_style_prop
 171 0034 0FFA80F9 		sxth	r9, r0
 172 0038 1122     		movs	r2, #17
 173 003a 4FF4A021 		mov	r1, #327680
 174 003e 2846     		mov	r0, r5
ARM GAS  /var/folders/lp/x54gwt890xv47sdkqj1k04q40000gn/T//ccga5Emc.s 			page 4


 175 0040 FFF7FEFF 		bl	lv_obj_get_style_prop
 176 0044 03B2     		sxth	r3, r0
 177 0046 0993     		str	r3, [sp, #36]
 178 0048 5822     		movs	r2, #88
 179 004a 4FF4A021 		mov	r1, #327680
 180 004e 2846     		mov	r0, r5
 181 0050 FFF7FEFF 		bl	lv_obj_get_style_prop
 182 0054 03B2     		sxth	r3, r0
 183 0056 0893     		str	r3, [sp, #32]
 184 0058 5922     		movs	r2, #89
 185 005a 4FF4A021 		mov	r1, #327680
 186 005e 2846     		mov	r0, r5
 187 0060 FFF7FEFF 		bl	lv_obj_get_style_prop
 188 0064 07B2     		sxth	r7, r0
 189 0066 5722     		movs	r2, #87
 190 0068 4FF4A021 		mov	r1, #327680
 191 006c 2846     		mov	r0, r5
 192 006e FFF7FEFF 		bl	lv_obj_get_style_prop
 193 0072 0790     		str	r0, [sp, #28]
 194 0074 0522     		movs	r2, #5
 195 0076 4FF4A021 		mov	r1, #327680
 196 007a 2846     		mov	r0, r5
 197 007c FFF7FEFF 		bl	lv_obj_get_style_prop
 198 0080 0FFA80F8 		sxth	r8, r0
 199 0084 0622     		movs	r2, #6
 200 0086 4FF4A021 		mov	r1, #327680
 201 008a 2846     		mov	r0, r5
 202 008c FFF7FEFF 		bl	lv_obj_get_style_prop
 203 0090 06B2     		sxth	r6, r0
 204 0092 19E0     		b	.L12
 205              	.L13:
 206 0094 099B     		ldr	r3, [sp, #36]
 207 0096 0493     		str	r3, [sp, #16]
 208 0098 CDF80C90 		str	r9, [sp, #12]
 209 009c CDF808A0 		str	r10, [sp, #8]
 210 00a0 CDF804B0 		str	fp, [sp, #4]
 211 00a4 0097     		str	r7, [sp]
 212 00a6 089B     		ldr	r3, [sp, #32]
 213 00a8 079A     		ldr	r2, [sp, #28]
 214 00aa A1B2     		uxth	r1, r4
 215 00ac 2846     		mov	r0, r5
 216 00ae FFF7FEFF 		bl	get_row_height
 217 00b2 B042     		cmp	r0, r6
 218 00b4 A8BF     		it	ge
 219 00b6 3046     		movge	r0, r6
 220 00b8 00B2     		sxth	r0, r0
 221 00ba EB6A     		ldr	r3, [r5, #44]
 222 00bc 4045     		cmp	r0, r8
 223 00be B8BF     		it	lt
 224 00c0 4046     		movlt	r0, r8
 225 00c2 23F81400 		strh	r0, [r3, r4, lsl #1]	@ movhi
 226 00c6 0134     		adds	r4, r4, #1
 227              	.L12:
 228 00c8 EB8C     		ldrh	r3, [r5, #38]
 229 00ca A342     		cmp	r3, r4
 230 00cc E2D8     		bhi	.L13
 231 00ce 2846     		mov	r0, r5
ARM GAS  /var/folders/lp/x54gwt890xv47sdkqj1k04q40000gn/T//ccga5Emc.s 			page 5


 232 00d0 FFF7FEFF 		bl	lv_obj_refresh_self_size
 233 00d4 2846     		mov	r0, r5
 234 00d6 FFF7FEFF 		bl	lv_obj_invalidate
 235 00da 0BB0     		add	sp, sp, #44
 236              		@ sp needed
 237 00dc BDE8F08F 		pop	{r4, r5, r6, r7, r8, r9, r10, fp, pc}
 239              		.section	.text.get_pressed_cell,"ax",%progbits
 240              		.align	1
 241              		.syntax unified
 242              		.thumb
 243              		.thumb_func
 245              	get_pressed_cell:
 246              		@ args = 0, pretend = 0, frame = 8
 247              		@ frame_needed = 0, uses_anonymous_args = 0
 248 0000 2DE9F041 		push	{r4, r5, r6, r7, r8, lr}
 249 0004 82B0     		sub	sp, sp, #8
 250 0006 0446     		mov	r4, r0
 251 0008 0D46     		mov	r5, r1
 252 000a 1646     		mov	r6, r2
 253 000c FFF7FEFF 		bl	lv_indev_get_act
 254 0010 FFF7FEFF 		bl	lv_indev_get_type
 255 0014 0128     		cmp	r0, #1
 256 0016 0DD0     		beq	.L16
 257 0018 0328     		cmp	r0, #3
 258 001a 0BD0     		beq	.L16
 259 001c 16B1     		cbz	r6, .L17
 260 001e 4FF6FF73 		movw	r3, #65535
 261 0022 3380     		strh	r3, [r6]	@ movhi
 262              	.L17:
 263 0024 15B1     		cbz	r5, .L18
 264 0026 4FF6FF73 		movw	r3, #65535
 265 002a 2B80     		strh	r3, [r5]	@ movhi
 266              	.L18:
 267 002c 0020     		movs	r0, #0
 268              	.L19:
 269 002e 02B0     		add	sp, sp, #8
 270              		@ sp needed
 271 0030 BDE8F081 		pop	{r4, r5, r6, r7, r8, pc}
 272              	.L16:
 273 0034 FFF7FEFF 		bl	lv_indev_get_act
 274 0038 01A9     		add	r1, sp, #4
 275 003a FFF7FEFF 		bl	lv_indev_get_point
 276 003e 002E     		cmp	r6, #0
 277 0040 38D0     		beq	.L20
 278 0042 BDF80470 		ldrh	r7, [sp, #4]
 279 0046 2046     		mov	r0, r4
 280 0048 FFF7FEFF 		bl	lv_obj_get_scroll_x
 281 004c 17FA80F7 		uxtah	r7, r7, r0
 282 0050 BFB2     		uxth	r7, r7
 283 0052 1622     		movs	r2, #22
 284 0054 0021     		movs	r1, #0
 285 0056 2046     		mov	r0, r4
 286 0058 FFF7FEFF 		bl	lv_obj_get_style_prop
 287 005c C0B2     		uxtb	r0, r0
 288 005e 0128     		cmp	r0, #1
 289 0060 1AD0     		beq	.L30
 290 0062 A38A     		ldrh	r3, [r4, #20]
ARM GAS  /var/folders/lp/x54gwt890xv47sdkqj1k04q40000gn/T//ccga5Emc.s 			page 6


 291 0064 FF1A     		subs	r7, r7, r3
 292 0066 BFB2     		uxth	r7, r7
 293 0068 1222     		movs	r2, #18
 294 006a 0021     		movs	r1, #0
 295 006c 2046     		mov	r0, r4
 296 006e FFF7FEFF 		bl	lv_obj_get_style_prop
 297 0072 80B2     		uxth	r0, r0
 298 0074 381A     		subs	r0, r7, r0
 299 0076 00B2     		sxth	r0, r0
 300              	.L22:
 301 0078 0021     		movs	r1, #0
 302 007a 3180     		strh	r1, [r6]	@ movhi
 303              	.L23:
 304 007c 3388     		ldrh	r3, [r6]
 305 007e A28C     		ldrh	r2, [r4, #36]
 306 0080 9342     		cmp	r3, r2
 307 0082 17D2     		bcs	.L20
 308 0084 226B     		ldr	r2, [r4, #48]
 309 0086 32F81320 		ldrh	r2, [r2, r3, lsl #1]
 310 008a 1144     		add	r1, r1, r2
 311 008c 09B2     		sxth	r1, r1
 312 008e 8842     		cmp	r0, r1
 313 0090 10DB     		blt	.L20
 314 0092 0133     		adds	r3, r3, #1
 315 0094 3380     		strh	r3, [r6]	@ movhi
 316 0096 F1E7     		b	.L23
 317              	.L30:
 318 0098 B4F81880 		ldrh	r8, [r4, #24]
 319 009c 1322     		movs	r2, #19
 320 009e 0021     		movs	r1, #0
 321 00a0 2046     		mov	r0, r4
 322 00a2 FFF7FEFF 		bl	lv_obj_get_style_prop
 323 00a6 80B2     		uxth	r0, r0
 324 00a8 A8EB0003 		sub	r3, r8, r0
 325 00ac 9BB2     		uxth	r3, r3
 326 00ae DB1B     		subs	r3, r3, r7
 327 00b0 18B2     		sxth	r0, r3
 328 00b2 E1E7     		b	.L22
 329              	.L20:
 330 00b4 25B3     		cbz	r5, .L27
 331 00b6 BDF80660 		ldrh	r6, [sp, #6]
 332 00ba 2046     		mov	r0, r4
 333 00bc FFF7FEFF 		bl	lv_obj_get_scroll_y
 334 00c0 16FA80F6 		uxtah	r6, r6, r0
 335 00c4 B6B2     		uxth	r6, r6
 336 00c6 E38A     		ldrh	r3, [r4, #22]
 337 00c8 F61A     		subs	r6, r6, r3
 338 00ca B6B2     		uxth	r6, r6
 339 00cc 1022     		movs	r2, #16
 340 00ce 0021     		movs	r1, #0
 341 00d0 2046     		mov	r0, r4
 342 00d2 FFF7FEFF 		bl	lv_obj_get_style_prop
 343 00d6 80B2     		uxth	r0, r0
 344 00d8 311A     		subs	r1, r6, r0
 345 00da 09B2     		sxth	r1, r1
 346 00dc 0022     		movs	r2, #0
 347 00de 2A80     		strh	r2, [r5]	@ movhi
ARM GAS  /var/folders/lp/x54gwt890xv47sdkqj1k04q40000gn/T//ccga5Emc.s 			page 7


 348              	.L25:
 349 00e0 2B88     		ldrh	r3, [r5]
 350 00e2 E08C     		ldrh	r0, [r4, #38]
 351 00e4 8342     		cmp	r3, r0
 352 00e6 09D2     		bcs	.L31
 353 00e8 E06A     		ldr	r0, [r4, #44]
 354 00ea 30F81300 		ldrh	r0, [r0, r3, lsl #1]
 355 00ee 0244     		add	r2, r2, r0
 356 00f0 12B2     		sxth	r2, r2
 357 00f2 9142     		cmp	r1, r2
 358 00f4 06DB     		blt	.L28
 359 00f6 0133     		adds	r3, r3, #1
 360 00f8 2B80     		strh	r3, [r5]	@ movhi
 361 00fa F1E7     		b	.L25
 362              	.L31:
 363 00fc 0120     		movs	r0, #1
 364 00fe 96E7     		b	.L19
 365              	.L27:
 366 0100 0120     		movs	r0, #1
 367 0102 94E7     		b	.L19
 368              	.L28:
 369 0104 0120     		movs	r0, #1
 370 0106 92E7     		b	.L19
 372              		.section	.text.get_cell_area,"ax",%progbits
 373              		.align	1
 374              		.syntax unified
 375              		.thumb
 376              		.thumb_func
 378              	get_cell_area:
 379              		@ args = 0, pretend = 0, frame = 0
 380              		@ frame_needed = 0, uses_anonymous_args = 0
 381 0000 2DE9F041 		push	{r4, r5, r6, r7, r8, lr}
 382 0004 0546     		mov	r5, r0
 383 0006 0E46     		mov	r6, r1
 384 0008 1746     		mov	r7, r2
 385 000a 1C46     		mov	r4, r3
 386 000c 0023     		movs	r3, #0
 387 000e 2380     		strh	r3, [r4]	@ movhi
 388 0010 06E0     		b	.L33
 389              	.L34:
 390 0012 2188     		ldrh	r1, [r4]
 391 0014 2A6B     		ldr	r2, [r5, #48]
 392 0016 32F81320 		ldrh	r2, [r2, r3, lsl #1]
 393 001a 1144     		add	r1, r1, r2
 394 001c 2180     		strh	r1, [r4]	@ movhi
 395 001e 0133     		adds	r3, r3, #1
 396              	.L33:
 397 0020 9F42     		cmp	r7, r3
 398 0022 F6D8     		bhi	.L34
 399 0024 1622     		movs	r2, #22
 400 0026 0021     		movs	r1, #0
 401 0028 2846     		mov	r0, r5
 402 002a FFF7FEFF 		bl	lv_obj_get_style_prop
 403 002e C0B2     		uxtb	r0, r0
 404 0030 0128     		cmp	r0, #1
 405 0032 1AD0     		beq	.L40
 406 0034 2846     		mov	r0, r5
ARM GAS  /var/folders/lp/x54gwt890xv47sdkqj1k04q40000gn/T//ccga5Emc.s 			page 8


 407 0036 FFF7FEFF 		bl	lv_obj_get_scroll_x
 408 003a 2388     		ldrh	r3, [r4]
 409 003c 80B2     		uxth	r0, r0
 410 003e 1B1A     		subs	r3, r3, r0
 411 0040 2380     		strh	r3, [r4]	@ movhi
 412 0042 1222     		movs	r2, #18
 413 0044 0021     		movs	r1, #0
 414 0046 2846     		mov	r0, r5
 415 0048 FFF7FEFF 		bl	lv_obj_get_style_prop
 416 004c 2388     		ldrh	r3, [r4]
 417 004e 13FA80F0 		uxtah	r0, r3, r0
 418 0052 80B2     		uxth	r0, r0
 419 0054 2080     		strh	r0, [r4]	@ movhi
 420 0056 2B6B     		ldr	r3, [r5, #48]
 421 0058 33F81730 		ldrh	r3, [r3, r7, lsl #1]
 422 005c 1844     		add	r0, r0, r3
 423 005e 80B2     		uxth	r0, r0
 424 0060 0138     		subs	r0, r0, #1
 425 0062 A080     		strh	r0, [r4, #4]	@ movhi
 426              	.L36:
 427 0064 0023     		movs	r3, #0
 428 0066 6380     		strh	r3, [r4, #2]	@ movhi
 429 0068 24E0     		b	.L37
 430              	.L40:
 431 006a 2846     		mov	r0, r5
 432 006c FFF7FEFF 		bl	lv_obj_get_scroll_x
 433 0070 2388     		ldrh	r3, [r4]
 434 0072 13FA80F0 		uxtah	r0, r3, r0
 435 0076 2080     		strh	r0, [r4]	@ movhi
 436 0078 2846     		mov	r0, r5
 437 007a FFF7FEFF 		bl	lv_obj_get_width
 438 007e 2388     		ldrh	r3, [r4]
 439 0080 C31A     		subs	r3, r0, r3
 440 0082 1FFA83F8 		uxth	r8, r3
 441 0086 1322     		movs	r2, #19
 442 0088 0021     		movs	r1, #0
 443 008a 2846     		mov	r0, r5
 444 008c FFF7FEFF 		bl	lv_obj_get_style_prop
 445 0090 80B2     		uxth	r0, r0
 446 0092 A8EB0003 		sub	r3, r8, r0
 447 0096 9AB2     		uxth	r2, r3
 448 0098 A380     		strh	r3, [r4, #4]	@ movhi
 449 009a 2B6B     		ldr	r3, [r5, #48]
 450 009c 33F81730 		ldrh	r3, [r3, r7, lsl #1]
 451 00a0 D31A     		subs	r3, r2, r3
 452 00a2 2380     		strh	r3, [r4]	@ movhi
 453 00a4 DEE7     		b	.L36
 454              	.L38:
 455 00a6 6288     		ldrh	r2, [r4, #2]
 456 00a8 E96A     		ldr	r1, [r5, #44]
 457 00aa 31F81310 		ldrh	r1, [r1, r3, lsl #1]
 458 00ae 0A44     		add	r2, r2, r1
 459 00b0 6280     		strh	r2, [r4, #2]	@ movhi
 460 00b2 0133     		adds	r3, r3, #1
 461              	.L37:
 462 00b4 9E42     		cmp	r6, r3
 463 00b6 F6D8     		bhi	.L38
ARM GAS  /var/folders/lp/x54gwt890xv47sdkqj1k04q40000gn/T//ccga5Emc.s 			page 9


 464 00b8 1022     		movs	r2, #16
 465 00ba 0021     		movs	r1, #0
 466 00bc 2846     		mov	r0, r5
 467 00be FFF7FEFF 		bl	lv_obj_get_style_prop
 468 00c2 6388     		ldrh	r3, [r4, #2]
 469 00c4 13FA80F0 		uxtah	r0, r3, r0
 470 00c8 6080     		strh	r0, [r4, #2]	@ movhi
 471 00ca 2846     		mov	r0, r5
 472 00cc FFF7FEFF 		bl	lv_obj_get_scroll_y
 473 00d0 6388     		ldrh	r3, [r4, #2]
 474 00d2 80B2     		uxth	r0, r0
 475 00d4 1B1A     		subs	r3, r3, r0
 476 00d6 9BB2     		uxth	r3, r3
 477 00d8 6380     		strh	r3, [r4, #2]	@ movhi
 478 00da EA6A     		ldr	r2, [r5, #44]
 479 00dc 32F81620 		ldrh	r2, [r2, r6, lsl #1]
 480 00e0 1344     		add	r3, r3, r2
 481 00e2 9BB2     		uxth	r3, r3
 482 00e4 013B     		subs	r3, r3, #1
 483 00e6 E380     		strh	r3, [r4, #6]	@ movhi
 484 00e8 BDE8F081 		pop	{r4, r5, r6, r7, r8, pc}
 486              		.section	.text.scroll_to_selected_cell,"ax",%progbits
 487              		.align	1
 488              		.syntax unified
 489              		.thumb
 490              		.thumb_func
 492              	scroll_to_selected_cell:
 493              		@ args = 0, pretend = 0, frame = 8
 494              		@ frame_needed = 0, uses_anonymous_args = 0
 495 0000 30B5     		push	{r4, r5, lr}
 496 0002 83B0     		sub	sp, sp, #12
 497 0004 0446     		mov	r4, r0
 498 0006 6B46     		mov	r3, sp
 499 0008 828E     		ldrh	r2, [r0, #52]
 500 000a C18E     		ldrh	r1, [r0, #54]
 501 000c FFF7FEFF 		bl	get_cell_area
 502 0010 BDF90010 		ldrsh	r1, [sp]
 503 0014 0029     		cmp	r1, #0
 504 0016 14DB     		blt	.L47
 505 0018 BDF90450 		ldrsh	r5, [sp, #4]
 506 001c 2046     		mov	r0, r4
 507 001e FFF7FEFF 		bl	lv_obj_get_width
 508 0022 8542     		cmp	r5, r0
 509 0024 15DD     		ble	.L43
 510 0026 2046     		mov	r0, r4
 511 0028 FFF7FEFF 		bl	lv_obj_get_width
 512 002c 81B2     		uxth	r1, r0
 513 002e BDF80430 		ldrh	r3, [sp, #4]
 514 0032 C91A     		subs	r1, r1, r3
 515 0034 0123     		movs	r3, #1
 516 0036 0022     		movs	r2, #0
 517 0038 09B2     		sxth	r1, r1
 518 003a 2046     		mov	r0, r4
 519 003c FFF7FEFF 		bl	lv_obj_scroll_by_bounded
 520 0040 07E0     		b	.L43
 521              	.L47:
 522 0042 89B2     		uxth	r1, r1
ARM GAS  /var/folders/lp/x54gwt890xv47sdkqj1k04q40000gn/T//ccga5Emc.s 			page 10


 523 0044 4942     		rsbs	r1, r1, #0
 524 0046 0123     		movs	r3, #1
 525 0048 0022     		movs	r2, #0
 526 004a 09B2     		sxth	r1, r1
 527 004c 2046     		mov	r0, r4
 528 004e FFF7FEFF 		bl	lv_obj_scroll_by_bounded
 529              	.L43:
 530 0052 BDF90220 		ldrsh	r2, [sp, #2]
 531 0056 002A     		cmp	r2, #0
 532 0058 14DB     		blt	.L48
 533 005a BDF90650 		ldrsh	r5, [sp, #6]
 534 005e 2046     		mov	r0, r4
 535 0060 FFF7FEFF 		bl	lv_obj_get_height
 536 0064 8542     		cmp	r5, r0
 537 0066 15DD     		ble	.L41
 538 0068 2046     		mov	r0, r4
 539 006a FFF7FEFF 		bl	lv_obj_get_height
 540 006e 82B2     		uxth	r2, r0
 541 0070 BDF80630 		ldrh	r3, [sp, #6]
 542 0074 D21A     		subs	r2, r2, r3
 543 0076 0123     		movs	r3, #1
 544 0078 12B2     		sxth	r2, r2
 545 007a 0021     		movs	r1, #0
 546 007c 2046     		mov	r0, r4
 547 007e FFF7FEFF 		bl	lv_obj_scroll_by_bounded
 548 0082 07E0     		b	.L41
 549              	.L48:
 550 0084 92B2     		uxth	r2, r2
 551 0086 5242     		rsbs	r2, r2, #0
 552 0088 0123     		movs	r3, #1
 553 008a 12B2     		sxth	r2, r2
 554 008c 0021     		movs	r1, #0
 555 008e 2046     		mov	r0, r4
 556 0090 FFF7FEFF 		bl	lv_obj_scroll_by_bounded
 557              	.L41:
 558 0094 03B0     		add	sp, sp, #12
 559              		@ sp needed
 560 0096 30BD     		pop	{r4, r5, pc}
 562              		.section	.text.draw_main,"ax",%progbits
 563              		.align	1
 564              		.syntax unified
 565              		.thumb
 566              		.thumb_func
 568              	draw_main:
 569              		@ args = 0, pretend = 0, frame = 360
 570              		@ frame_needed = 0, uses_anonymous_args = 0
 571 0000 2DE9F04F 		push	{r4, r5, r6, r7, r8, r9, r10, fp, lr}
 572 0004 DFB0     		sub	sp, sp, #380
 573 0006 0446     		mov	r4, r0
 574 0008 FFF7FEFF 		bl	lv_event_get_target
 575 000c 0646     		mov	r6, r0
 576 000e 2046     		mov	r0, r4
 577 0010 FFF7FEFF 		bl	lv_event_get_draw_ctx
 578 0014 0446     		mov	r4, r0
 579 0016 8268     		ldr	r2, [r0, #8]
 580 0018 06F11401 		add	r1, r6, #20
 581 001c 5CA8     		add	r0, sp, #368
ARM GAS  /var/folders/lp/x54gwt890xv47sdkqj1k04q40000gn/T//ccga5Emc.s 			page 11


 582 001e FFF7FEFF 		bl	_lv_area_intersect
 583 0022 10B9     		cbnz	r0, .L87
 584              	.L49:
 585 0024 5FB0     		add	sp, sp, #380
 586              		@ sp needed
 587 0026 BDE8F08F 		pop	{r4, r5, r6, r7, r8, r9, r10, fp, pc}
 588              	.L87:
 589 002a A368     		ldr	r3, [r4, #8]
 590 002c 1393     		str	r3, [sp, #76]
 591 002e 5CAB     		add	r3, sp, #368
 592 0030 0894     		str	r4, [sp, #32]
 593 0032 A360     		str	r3, [r4, #8]
 594 0034 3222     		movs	r2, #50
 595 0036 0021     		movs	r1, #0
 596 0038 3046     		mov	r0, r6
 597 003a FFF7FEFF 		bl	lv_obj_get_style_prop
 598 003e 0746     		mov	r7, r0
 599 0040 1022     		movs	r2, #16
 600 0042 0021     		movs	r1, #0
 601 0044 3046     		mov	r0, r6
 602 0046 FFF7FEFF 		bl	lv_obj_get_style_prop
 603 004a 0546     		mov	r5, r0
 604 004c 03B2     		sxth	r3, r0
 605 004e 0C93     		str	r3, [sp, #48]
 606 0050 1122     		movs	r2, #17
 607 0052 0021     		movs	r1, #0
 608 0054 3046     		mov	r0, r6
 609 0056 FFF7FEFF 		bl	lv_obj_get_style_prop
 610 005a 03B2     		sxth	r3, r0
 611 005c 0B93     		str	r3, [sp, #44]
 612 005e 1222     		movs	r2, #18
 613 0060 0021     		movs	r1, #0
 614 0062 3046     		mov	r0, r6
 615 0064 FFF7FEFF 		bl	lv_obj_get_style_prop
 616 0068 8246     		mov	r10, r0
 617 006a 03B2     		sxth	r3, r0
 618 006c 0A93     		str	r3, [sp, #40]
 619 006e 1322     		movs	r2, #19
 620 0070 0021     		movs	r1, #0
 621 0072 3046     		mov	r0, r6
 622 0074 FFF7FEFF 		bl	lv_obj_get_style_prop
 623 0078 1290     		str	r0, [sp, #72]
 624 007a 03B2     		sxth	r3, r0
 625 007c 0993     		str	r3, [sp, #36]
 626 007e 338C     		ldrh	r3, [r6, #32]
 627 0080 1093     		str	r3, [sp, #64]
 628 0082 0024     		movs	r4, #0
 629 0084 3484     		strh	r4, [r6, #32]	@ movhi
 630 0086 96F82230 		ldrb	r3, [r6, #34]	@ zero_extendqisi2
 631 008a 43F00803 		orr	r3, r3, #8
 632 008e 86F82230 		strb	r3, [r6, #34]
 633 0092 4BA8     		add	r0, sp, #300
 634 0094 FFF7FEFF 		bl	lv_draw_rect_dsc_init
 635 0098 4BA8     		add	r0, sp, #300
 636 009a 0246     		mov	r2, r0
 637 009c 4FF4A021 		mov	r1, #327680
 638 00a0 3046     		mov	r0, r6
ARM GAS  /var/folders/lp/x54gwt890xv47sdkqj1k04q40000gn/T//ccga5Emc.s 			page 12


 639 00a2 FFF7FEFF 		bl	lv_obj_init_draw_rect_dsc
 640 00a6 35A8     		add	r0, sp, #212
 641 00a8 FFF7FEFF 		bl	lv_draw_label_dsc_init
 642 00ac 35A8     		add	r0, sp, #212
 643 00ae 0246     		mov	r2, r0
 644 00b0 4FF4A021 		mov	r1, #327680
 645 00b4 3046     		mov	r0, r6
 646 00b6 FFF7FEFF 		bl	lv_obj_init_draw_label_dsc
 647 00ba 109B     		ldr	r3, [sp, #64]
 648 00bc 3384     		strh	r3, [r6, #32]	@ movhi
 649 00be 96F82230 		ldrb	r3, [r6, #34]	@ zero_extendqisi2
 650 00c2 64F3C303 		bfi	r3, r4, #3, #1
 651 00c6 86F82230 		strb	r3, [r6, #34]
 652 00ca F38A     		ldrh	r3, [r6, #22]
 653 00cc 1D44     		add	r5, r5, r3
 654 00ce ADB2     		uxth	r5, r5
 655 00d0 3046     		mov	r0, r6
 656 00d2 FFF7FEFF 		bl	lv_obj_get_scroll_y
 657 00d6 2B1A     		subs	r3, r5, r0
 658 00d8 BFB2     		uxth	r7, r7
 659 00da 17FA83F3 		uxtah	r3, r7, r3
 660 00de 013B     		subs	r3, r3, #1
 661 00e0 ADF86A31 		strh	r3, [sp, #362]	@ movhi
 662 00e4 3046     		mov	r0, r6
 663 00e6 FFF7FEFF 		bl	lv_obj_get_scroll_x
 664 00ea 8046     		mov	r8, r0
 665 00ec 1622     		movs	r2, #22
 666 00ee 2146     		mov	r1, r4
 667 00f0 3046     		mov	r0, r6
 668 00f2 FFF7FEFF 		bl	lv_obj_get_style_prop
 669 00f6 5FFA80F9 		uxtb	r9, r0
 670 00fa 0899     		ldr	r1, [sp, #32]
 671 00fc 1BA8     		add	r0, sp, #108
 672 00fe FFF7FEFF 		bl	lv_obj_draw_dsc_init
 673 0102 4FF4A023 		mov	r3, #327680
 674 0106 2893     		str	r3, [sp, #160]
 675 0108 C14B     		ldr	r3, .L95
 676 010a 1C93     		str	r3, [sp, #112]
 677 010c 1D94     		str	r4, [sp, #116]
 678 010e 3DAB     		add	r3, sp, #244
 679 0110 1F93     		str	r3, [sp, #124]
 680 0112 2DAB     		add	r3, sp, #180
 681 0114 2093     		str	r3, [sp, #128]
 682 0116 A346     		mov	fp, r4
 683 0118 0594     		str	r4, [sp, #20]
 684 011a 0E97     		str	r7, [sp, #56]
 685 011c CDF83C80 		str	r8, [sp, #60]
 686 0120 CDF844A0 		str	r10, [sp, #68]
 687 0124 D1E1     		b	.L52
 688              	.L94:
 689 0126 338B     		ldrh	r3, [r6, #24]
 690 0128 129A     		ldr	r2, [sp, #72]
 691 012a 9B1A     		subs	r3, r3, r2
 692 012c 9BB2     		uxth	r3, r3
 693 012e 0F9A     		ldr	r2, [sp, #60]
 694 0130 9B1A     		subs	r3, r3, r2
 695 0132 9BB2     		uxth	r3, r3
ARM GAS  /var/folders/lp/x54gwt890xv47sdkqj1k04q40000gn/T//ccga5Emc.s 			page 13


 696 0134 0E9A     		ldr	r2, [sp, #56]
 697 0136 9B1A     		subs	r3, r3, r2
 698 0138 013B     		subs	r3, r3, #1
 699 013a ADF86431 		strh	r3, [sp, #356]	@ movhi
 700 013e EDE1     		b	.L55
 701              	.L84:
 702 0140 0023     		movs	r3, #0
 703 0142 0793     		str	r3, [sp, #28]
 704 0144 4FE1     		b	.L56
 705              	.L93:
 706 0146 BDF86421 		ldrh	r2, [sp, #356]
 707 014a 013A     		subs	r2, r2, #1
 708 014c 93B2     		uxth	r3, r2
 709 014e ADF86821 		strh	r2, [sp, #360]	@ movhi
 710 0152 326B     		ldr	r2, [r6, #48]
 711 0154 32F81520 		ldrh	r2, [r2, r5, lsl #1]
 712 0158 9B1A     		subs	r3, r3, r2
 713 015a 9BB2     		uxth	r3, r3
 714 015c 0133     		adds	r3, r3, #1
 715 015e ADF86431 		strh	r3, [sp, #356]	@ movhi
 716 0162 52E1     		b	.L58
 717              	.L88:
 718 0164 BDF86431 		ldrh	r3, [sp, #356]
 719 0168 9B1A     		subs	r3, r3, r2
 720 016a ADF86431 		strh	r3, [sp, #356]	@ movhi
 721              	.L61:
 722 016e 0134     		adds	r4, r4, #1
 723 0170 A4B2     		uxth	r4, r4
 724              	.L62:
 725 0172 2F46     		mov	r7, r5
 726 0174 6319     		adds	r3, r4, r5
 727 0176 4A1E     		subs	r2, r1, #1
 728 0178 9342     		cmp	r3, r2
 729 017a 15DA     		bge	.L59
 730 017c 0BEB0402 		add	r2, fp, r4
 731 0180 50F82220 		ldr	r2, [r0, r2, lsl #2]
 732 0184 82B1     		cbz	r2, .L59
 733 0186 1278     		ldrb	r2, [r2]	@ zero_extendqisi2
 734 0188 12F0010F 		tst	r2, #1
 735 018c 0CD0     		beq	.L59
 736 018e 326B     		ldr	r2, [r6, #48]
 737 0190 0133     		adds	r3, r3, #1
 738 0192 32F91320 		ldrsh	r2, [r2, r3, lsl #1]
 739 0196 B9F1010F 		cmp	r9, #1
 740 019a E3D0     		beq	.L88
 741 019c BDF86831 		ldrh	r3, [sp, #360]
 742 01a0 1344     		add	r3, r3, r2
 743 01a2 ADF86831 		strh	r3, [sp, #360]	@ movhi
 744 01a6 E2E7     		b	.L61
 745              	.L59:
 746 01a8 0697     		str	r7, [sp, #24]
 747 01aa BDF96A31 		ldrsh	r3, [sp, #362]
 748 01ae BDF97221 		ldrsh	r2, [sp, #370]
 749 01b2 9342     		cmp	r3, r2
 750 01b4 C0F22E81 		blt	.L89
 751 01b8 BDF964C1 		ldrsh	ip, [sp, #356]
 752 01bc ADF854C0 		strh	ip, [sp, #84]	@ movhi
ARM GAS  /var/folders/lp/x54gwt890xv47sdkqj1k04q40000gn/T//ccga5Emc.s 			page 14


 753 01c0 BDF96611 		ldrsh	r1, [sp, #358]
 754 01c4 ADF85610 		strh	r1, [sp, #86]	@ movhi
 755 01c8 BDF96801 		ldrsh	r0, [sp, #360]
 756 01cc ADF85800 		strh	r0, [sp, #88]	@ movhi
 757 01d0 ADF85A30 		strh	r3, [sp, #90]	@ movhi
 758 01d4 9DF84FE1 		ldrb	lr, [sp, #335]	@ zero_extendqisi2
 759 01d8 CEF34402 		ubfx	r2, lr, #1, #5
 760 01dc 1EF0080F 		tst	lr, #8
 761 01e0 0FD0     		beq	.L66
 762 01e2 B6F914E0 		ldrsh	lr, [r6, #20]
 763 01e6 0A9F     		ldr	r7, [sp, #40]
 764 01e8 BE44     		add	lr, lr, r7
 765 01ea F445     		cmp	ip, lr
 766 01ec 09DD     		ble	.L66
 767 01ee 1FFA8CFC 		uxth	ip, ip
 768 01f2 BDF94CE1 		ldrsh	lr, [sp, #332]
 769 01f6 0EEBDE7E 		add	lr, lr, lr, lsr #31
 770 01fa ACEB6E0C 		sub	ip, ip, lr, asr #1
 771 01fe ADF854C0 		strh	ip, [sp, #84]	@ movhi
 772              	.L66:
 773 0202 12F0020F 		tst	r2, #2
 774 0206 0ED0     		beq	.L67
 775 0208 B6F916C0 		ldrsh	ip, [r6, #22]
 776 020c 0C9F     		ldr	r7, [sp, #48]
 777 020e BC44     		add	ip, ip, r7
 778 0210 6145     		cmp	r1, ip
 779 0212 08DD     		ble	.L67
 780 0214 89B2     		uxth	r1, r1
 781 0216 BDF94CC1 		ldrsh	ip, [sp, #332]
 782 021a 0CEBDC7C 		add	ip, ip, ip, lsr #31
 783 021e A1EB6C01 		sub	r1, r1, ip, asr #1
 784 0222 ADF85610 		strh	r1, [sp, #86]	@ movhi
 785              	.L67:
 786 0226 12F0080F 		tst	r2, #8
 787 022a 13D0     		beq	.L68
 788 022c B6F91810 		ldrsh	r1, [r6, #24]
 789 0230 099F     		ldr	r7, [sp, #36]
 790 0232 C91B     		subs	r1, r1, r7
 791 0234 0139     		subs	r1, r1, #1
 792 0236 8842     		cmp	r0, r1
 793 0238 0CDA     		bge	.L68
 794 023a BDF94CC1 		ldrsh	ip, [sp, #332]
 795 023e 0CF00101 		and	r1, ip, #1
 796 0242 0CEBDC7C 		add	ip, ip, ip, lsr #31
 797 0246 01EB6C01 		add	r1, r1, ip, asr #1
 798 024a 89B2     		uxth	r1, r1
 799 024c 11FA80F0 		uxtah	r0, r1, r0
 800 0250 ADF85800 		strh	r0, [sp, #88]	@ movhi
 801              	.L68:
 802 0254 12F0010F 		tst	r2, #1
 803 0258 13D0     		beq	.L69
 804 025a B6F91A20 		ldrsh	r2, [r6, #26]
 805 025e 0B99     		ldr	r1, [sp, #44]
 806 0260 521A     		subs	r2, r2, r1
 807 0262 013A     		subs	r2, r2, #1
 808 0264 9342     		cmp	r3, r2
 809 0266 0CDA     		bge	.L69
ARM GAS  /var/folders/lp/x54gwt890xv47sdkqj1k04q40000gn/T//ccga5Emc.s 			page 15


 810 0268 BDF94C11 		ldrsh	r1, [sp, #332]
 811 026c 01F00102 		and	r2, r1, #1
 812 0270 01EBD171 		add	r1, r1, r1, lsr #31
 813 0274 02EB6102 		add	r2, r2, r1, asr #1
 814 0278 92B2     		uxth	r2, r2
 815 027a 12FA83F3 		uxtah	r3, r2, r3
 816 027e ADF85A30 		strh	r3, [sp, #90]	@ movhi
 817              	.L69:
 818 0282 F38E     		ldrh	r3, [r6, #54]
 819 0284 059A     		ldr	r2, [sp, #20]
 820 0286 9342     		cmp	r3, r2
 821 0288 03D1     		bne	.L70
 822 028a B38E     		ldrh	r3, [r6, #52]
 823 028c AB42     		cmp	r3, r5
 824 028e 00F0CB80 		beq	.L90
 825              	.L70:
 826 0292 3822     		movs	r2, #56
 827 0294 4BA9     		add	r1, sp, #300
 828 0296 3DA8     		add	r0, sp, #244
 829 0298 FFF7FEFF 		bl	lv_memcpy
 830 029c 2022     		movs	r2, #32
 831 029e 35A9     		add	r1, sp, #212
 832 02a0 2DA8     		add	r0, sp, #180
 833 02a2 FFF7FEFF 		bl	lv_memcpy
 834              	.L76:
 835 02a6 0DF15408 		add	r8, sp, #84
 836 02aa CDF87880 		str	r8, [sp, #120]
 837 02ae B38C     		ldrh	r3, [r6, #36]
 838 02b0 059A     		ldr	r2, [sp, #20]
 839 02b2 0699     		ldr	r1, [sp, #24]
 840 02b4 03FB0217 		mla	r7, r3, r2, r1
 841 02b8 2997     		str	r7, [sp, #164]
 842 02ba 1BAA     		add	r2, sp, #108
 843 02bc 1A21     		movs	r1, #26
 844 02be 3046     		mov	r0, r6
 845 02c0 FFF7FEFF 		bl	lv_event_send
 846 02c4 4246     		mov	r2, r8
 847 02c6 3DA9     		add	r1, sp, #244
 848 02c8 0898     		ldr	r0, [sp, #32]
 849 02ca FFF7FEFF 		bl	lv_draw_rect
 850 02ce B36A     		ldr	r3, [r6, #40]
 851 02d0 53F80A30 		ldr	r3, [r3, r10]
 852 02d4 002B     		cmp	r3, #0
 853 02d6 69D0     		beq	.L77
 854 02d8 1222     		movs	r2, #18
 855 02da 4FF4A021 		mov	r1, #327680
 856 02de 3046     		mov	r0, r6
 857 02e0 FFF7FEFF 		bl	lv_obj_get_style_prop
 858 02e4 0690     		str	r0, [sp, #24]
 859 02e6 1322     		movs	r2, #19
 860 02e8 4FF4A021 		mov	r1, #327680
 861 02ec 3046     		mov	r0, r6
 862 02ee FFF7FEFF 		bl	lv_obj_get_style_prop
 863 02f2 8046     		mov	r8, r0
 864 02f4 1022     		movs	r2, #16
 865 02f6 4FF4A021 		mov	r1, #327680
 866 02fa 3046     		mov	r0, r6
ARM GAS  /var/folders/lp/x54gwt890xv47sdkqj1k04q40000gn/T//ccga5Emc.s 			page 16


 867 02fc FFF7FEFF 		bl	lv_obj_get_style_prop
 868 0300 0746     		mov	r7, r0
 869 0302 1122     		movs	r2, #17
 870 0304 4FF4A021 		mov	r1, #327680
 871 0308 3046     		mov	r0, r6
 872 030a FFF7FEFF 		bl	lv_obj_get_style_prop
 873 030e BDF86431 		ldrh	r3, [sp, #356]
 874 0312 069A     		ldr	r2, [sp, #24]
 875 0314 1344     		add	r3, r3, r2
 876 0316 1FFA83FC 		uxth	ip, r3
 877 031a ADF85C30 		strh	r3, [sp, #92]	@ movhi
 878 031e BDF86821 		ldrh	r2, [sp, #360]
 879 0322 A2EB0802 		sub	r2, r2, r8
 880 0326 93B2     		uxth	r3, r2
 881 0328 ADF86020 		strh	r2, [sp, #96]	@ movhi
 882 032c BDF86621 		ldrh	r2, [sp, #358]
 883 0330 3A44     		add	r2, r2, r7
 884 0332 ADF85E20 		strh	r2, [sp, #94]	@ movhi
 885 0336 BDF86A21 		ldrh	r2, [sp, #362]
 886 033a 121A     		subs	r2, r2, r0
 887 033c ADF86220 		strh	r2, [sp, #98]	@ movhi
 888 0340 079A     		ldr	r2, [sp, #28]
 889 0342 12F00207 		ands	r7, r2, #2
 890 0346 40F0A980 		bne	.L85
 891 034a 3A46     		mov	r2, r7
 892              	.L78:
 893 034c B16A     		ldr	r1, [r6, #40]
 894 034e 51F80A10 		ldr	r1, [r1, r10]
 895 0352 A3EB0C03 		sub	r3, r3, ip
 896 0356 9BB2     		uxth	r3, r3
 897 0358 0133     		adds	r3, r3, #1
 898 035a 1BB2     		sxth	r3, r3
 899 035c 0292     		str	r2, [sp, #8]
 900 035e 0193     		str	r3, [sp, #4]
 901 0360 BDF9C630 		ldrsh	r3, [sp, #198]
 902 0364 0093     		str	r3, [sp]
 903 0366 BDF9C830 		ldrsh	r3, [sp, #200]
 904 036a 359A     		ldr	r2, [sp, #212]
 905 036c 0831     		adds	r1, r1, #8
 906 036e 5BA8     		add	r0, sp, #364
 907 0370 FFF7FEFF 		bl	lv_txt_get_size
 908 0374 9FB9     		cbnz	r7, .L79
 909 0376 BDF86631 		ldrh	r3, [sp, #358]
 910 037a 0D9A     		ldr	r2, [sp, #52]
 911 037c 02EBD272 		add	r2, r2, r2, lsr #31
 912 0380 03EB6203 		add	r3, r3, r2, asr #1
 913 0384 9BB2     		uxth	r3, r3
 914 0386 BDF96E21 		ldrsh	r2, [sp, #366]
 915 038a 02EBD272 		add	r2, r2, r2, lsr #31
 916 038e C2F34F02 		ubfx	r2, r2, #1, #16
 917 0392 991A     		subs	r1, r3, r2
 918 0394 ADF85E10 		strh	r1, [sp, #94]	@ movhi
 919 0398 1344     		add	r3, r3, r2
 920 039a ADF86230 		strh	r3, [sp, #98]	@ movhi
 921              	.L79:
 922 039e 59AA     		add	r2, sp, #356
 923 03a0 5CA9     		add	r1, sp, #368
ARM GAS  /var/folders/lp/x54gwt890xv47sdkqj1k04q40000gn/T//ccga5Emc.s 			page 17


 924 03a2 19A8     		add	r0, sp, #100
 925 03a4 FFF7FEFF 		bl	_lv_area_intersect
 926 03a8 0028     		cmp	r0, #0
 927 03aa 79D1     		bne	.L91
 928              	.L77:
 929 03ac 1BAA     		add	r2, sp, #108
 930 03ae 1B21     		movs	r1, #27
 931 03b0 3046     		mov	r0, r6
 932 03b2 FFF7FEFF 		bl	lv_event_send
 933 03b6 A344     		add	fp, fp, r4
 934 03b8 1FFA8BFB 		uxth	fp, fp
 935 03bc 0BF1010B 		add	fp, fp, #1
 936 03c0 1FFA8BFB 		uxth	fp, fp
 937 03c4 2C44     		add	r4, r4, r5
 938 03c6 A4B2     		uxth	r4, r4
 939              	.L65:
 940 03c8 0134     		adds	r4, r4, #1
 941 03ca A5B2     		uxth	r5, r4
 942              	.L81:
 943 03cc B18C     		ldrh	r1, [r6, #36]
 944 03ce A942     		cmp	r1, r5
 945 03d0 77D9     		bls	.L92
 946 03d2 B06A     		ldr	r0, [r6, #40]
 947 03d4 4FEA8B0A 		lsl	r10, fp, #2
 948 03d8 50F82B30 		ldr	r3, [r0, fp, lsl #2]
 949 03dc 002B     		cmp	r3, #0
 950 03de 3FF4AFAE 		beq	.L84
 951 03e2 1B78     		ldrb	r3, [r3]	@ zero_extendqisi2
 952 03e4 0793     		str	r3, [sp, #28]
 953              	.L56:
 954 03e6 B9F1010F 		cmp	r9, #1
 955 03ea 3FF4ACAE 		beq	.L93
 956 03ee BDF86831 		ldrh	r3, [sp, #360]
 957 03f2 0133     		adds	r3, r3, #1
 958 03f4 ADF86431 		strh	r3, [sp, #356]	@ movhi
 959 03f8 326B     		ldr	r2, [r6, #48]
 960 03fa 32F81520 		ldrh	r2, [r2, r5, lsl #1]
 961 03fe 12FA83F3 		uxtah	r3, r2, r3
 962 0402 9BB2     		uxth	r3, r3
 963 0404 013B     		subs	r3, r3, #1
 964 0406 ADF86831 		strh	r3, [sp, #360]	@ movhi
 965              	.L58:
 966 040a 0024     		movs	r4, #0
 967 040c B1E6     		b	.L62
 968              	.L96:
 969 040e 00BF     		.align	2
 970              	.L95:
 971 0410 00000000 		.word	lv_table_class
 972              	.L89:
 973 0414 A344     		add	fp, fp, r4
 974 0416 1FFA8BFB 		uxth	fp, fp
 975 041a 0BF1010B 		add	fp, fp, #1
 976 041e 1FFA8BFB 		uxth	fp, fp
 977 0422 2C44     		add	r4, r4, r5
 978 0424 A4B2     		uxth	r4, r4
 979 0426 CFE7     		b	.L65
 980              	.L90:
ARM GAS  /var/folders/lp/x54gwt890xv47sdkqj1k04q40000gn/T//ccga5Emc.s 			page 18


 981 0428 328C     		ldrh	r2, [r6, #32]
 982 042a 02F06003 		and	r3, r2, #96
 983 042e 202B     		cmp	r3, #32
 984 0430 00D0     		beq	.L71
 985 0432 0023     		movs	r3, #0
 986              	.L71:
 987 0434 12F0020F 		tst	r2, #2
 988 0438 01D0     		beq	.L72
 989 043a 43F00203 		orr	r3, r3, #2
 990              	.L72:
 991 043e 12F0040F 		tst	r2, #4
 992 0442 01D0     		beq	.L73
 993 0444 43F00403 		orr	r3, r3, #4
 994              	.L73:
 995 0448 12F0080F 		tst	r2, #8
 996 044c 23D0     		beq	.L74
 997 044e 43F00803 		orr	r3, r3, #8
 998              	.L75:
 999 0452 3384     		strh	r3, [r6, #32]	@ movhi
 1000 0454 96F82230 		ldrb	r3, [r6, #34]	@ zero_extendqisi2
 1001 0458 43F00803 		orr	r3, r3, #8
 1002 045c 86F82230 		strb	r3, [r6, #34]
 1003 0460 3DA8     		add	r0, sp, #244
 1004 0462 FFF7FEFF 		bl	lv_draw_rect_dsc_init
 1005 0466 2DA8     		add	r0, sp, #180
 1006 0468 FFF7FEFF 		bl	lv_draw_label_dsc_init
 1007 046c 3DAA     		add	r2, sp, #244
 1008 046e 4FF4A021 		mov	r1, #327680
 1009 0472 3046     		mov	r0, r6
 1010 0474 FFF7FEFF 		bl	lv_obj_init_draw_rect_dsc
 1011 0478 2DAA     		add	r2, sp, #180
 1012 047a 4FF4A021 		mov	r1, #327680
 1013 047e 3046     		mov	r0, r6
 1014 0480 FFF7FEFF 		bl	lv_obj_init_draw_label_dsc
 1015 0484 109B     		ldr	r3, [sp, #64]
 1016 0486 3384     		strh	r3, [r6, #32]	@ movhi
 1017 0488 96F82230 		ldrb	r3, [r6, #34]	@ zero_extendqisi2
 1018 048c 23F00803 		bic	r3, r3, #8
 1019 0490 86F82230 		strb	r3, [r6, #34]
 1020 0494 07E7     		b	.L76
 1021              	.L74:
 1022 0496 002B     		cmp	r3, #0
 1023 0498 DBD1     		bne	.L75
 1024 049a FAE6     		b	.L70
 1025              	.L85:
 1026 049c 0222     		movs	r2, #2
 1027 049e 55E7     		b	.L78
 1028              	.L91:
 1029 04a0 19AB     		add	r3, sp, #100
 1030 04a2 089F     		ldr	r7, [sp, #32]
 1031 04a4 3846     		mov	r0, r7
 1032 04a6 BB60     		str	r3, [r7, #8]
 1033 04a8 B36A     		ldr	r3, [r6, #40]
 1034 04aa 53F80A30 		ldr	r3, [r3, r10]
 1035 04ae 0022     		movs	r2, #0
 1036 04b0 0092     		str	r2, [sp]
 1037 04b2 0833     		adds	r3, r3, #8
ARM GAS  /var/folders/lp/x54gwt890xv47sdkqj1k04q40000gn/T//ccga5Emc.s 			page 19


 1038 04b4 17AA     		add	r2, sp, #92
 1039 04b6 2DA9     		add	r1, sp, #180
 1040 04b8 FFF7FEFF 		bl	lv_draw_label
 1041 04bc 5CAB     		add	r3, sp, #368
 1042 04be BB60     		str	r3, [r7, #8]
 1043 04c0 74E7     		b	.L77
 1044              	.L92:
 1045 04c2 059B     		ldr	r3, [sp, #20]
 1046 04c4 0133     		adds	r3, r3, #1
 1047 04c6 9BB2     		uxth	r3, r3
 1048 04c8 0593     		str	r3, [sp, #20]
 1049              	.L52:
 1050 04ca F38C     		ldrh	r3, [r6, #38]
 1051 04cc 059A     		ldr	r2, [sp, #20]
 1052 04ce 9342     		cmp	r3, r2
 1053 04d0 26D9     		bls	.L53
 1054 04d2 F36A     		ldr	r3, [r6, #44]
 1055 04d4 059A     		ldr	r2, [sp, #20]
 1056 04d6 33F91210 		ldrsh	r1, [r3, r2, lsl #1]
 1057 04da 0D91     		str	r1, [sp, #52]
 1058 04dc BDF86A31 		ldrh	r3, [sp, #362]
 1059 04e0 0133     		adds	r3, r3, #1
 1060 04e2 1AB2     		sxth	r2, r3
 1061 04e4 ADF86621 		strh	r2, [sp, #358]	@ movhi
 1062 04e8 11FA83F3 		uxtah	r3, r1, r3
 1063 04ec 9BB2     		uxth	r3, r3
 1064 04ee 013B     		subs	r3, r3, #1
 1065 04f0 ADF86A31 		strh	r3, [sp, #362]	@ movhi
 1066 04f4 BDF97631 		ldrsh	r3, [sp, #374]
 1067 04f8 9A42     		cmp	r2, r3
 1068 04fa 11DC     		bgt	.L53
 1069 04fc B9F1010F 		cmp	r9, #1
 1070 0500 3FF411AE 		beq	.L94
 1071 0504 B38A     		ldrh	r3, [r6, #20]
 1072 0506 119A     		ldr	r2, [sp, #68]
 1073 0508 1344     		add	r3, r3, r2
 1074 050a 9BB2     		uxth	r3, r3
 1075 050c 0F9A     		ldr	r2, [sp, #60]
 1076 050e 9B1A     		subs	r3, r3, r2
 1077 0510 0E9A     		ldr	r2, [sp, #56]
 1078 0512 12FA83F3 		uxtah	r3, r2, r3
 1079 0516 013B     		subs	r3, r3, #1
 1080 0518 ADF86831 		strh	r3, [sp, #360]	@ movhi
 1081              	.L55:
 1082 051c 0025     		movs	r5, #0
 1083 051e 55E7     		b	.L81
 1084              	.L53:
 1085 0520 089B     		ldr	r3, [sp, #32]
 1086 0522 139A     		ldr	r2, [sp, #76]
 1087 0524 9A60     		str	r2, [r3, #8]
 1088 0526 7DE5     		b	.L49
 1090              		.section	.text.lv_table_event,"ax",%progbits
 1091              		.align	1
 1092              		.syntax unified
 1093              		.thumb
 1094              		.thumb_func
 1096              	lv_table_event:
ARM GAS  /var/folders/lp/x54gwt890xv47sdkqj1k04q40000gn/T//ccga5Emc.s 			page 20


 1097              		@ args = 0, pretend = 0, frame = 8
 1098              		@ frame_needed = 0, uses_anonymous_args = 0
 1099 0000 70B5     		push	{r4, r5, r6, lr}
 1100 0002 82B0     		sub	sp, sp, #8
 1101 0004 0C46     		mov	r4, r1
 1102 0006 9E48     		ldr	r0, .L141
 1103 0008 FFF7FEFF 		bl	lv_obj_event_base
 1104 000c 0128     		cmp	r0, #1
 1105 000e 01D0     		beq	.L138
 1106              	.L97:
 1107 0010 02B0     		add	sp, sp, #8
 1108              		@ sp needed
 1109 0012 70BD     		pop	{r4, r5, r6, pc}
 1110              	.L138:
 1111 0014 2046     		mov	r0, r4
 1112 0016 FFF7FEFF 		bl	lv_event_get_code
 1113 001a 0646     		mov	r6, r0
 1114 001c 2046     		mov	r0, r4
 1115 001e FFF7FEFF 		bl	lv_event_get_target
 1116 0022 0546     		mov	r5, r0
 1117 0024 701E     		subs	r0, r6, #1
 1118 0026 2B28     		cmp	r0, #43
 1119 0028 F2D8     		bhi	.L97
 1120 002a 01A3     		adr	r3, .L100
 1121 002c 53F820F0 		ldr	pc, [r3, r0, lsl #2]
 1122              		.p2align 2
 1123              	.L100:
 1124 0030 2B010000 		.word	.L106+1
 1125 0034 2B010000 		.word	.L106+1
 1126 0038 11000000 		.word	.L97+1
 1127 003c 11000000 		.word	.L97+1
 1128 0040 11000000 		.word	.L97+1
 1129 0044 11000000 		.word	.L97+1
 1130 0048 11000000 		.word	.L97+1
 1131 004c 63010000 		.word	.L105+1
 1132 0050 11000000 		.word	.L97+1
 1133 0054 11000000 		.word	.L97+1
 1134 0058 11000000 		.word	.L97+1
 1135 005c 11000000 		.word	.L97+1
 1136 0060 B9010000 		.word	.L104+1
 1137 0064 B1010000 		.word	.L103+1
 1138 0068 11000000 		.word	.L97+1
 1139 006c 11000000 		.word	.L97+1
 1140 0070 11000000 		.word	.L97+1
 1141 0074 11000000 		.word	.L97+1
 1142 0078 11000000 		.word	.L97+1
 1143 007c 11000000 		.word	.L97+1
 1144 0080 79020000 		.word	.L102+1
 1145 0084 11000000 		.word	.L97+1
 1146 0088 11000000 		.word	.L97+1
 1147 008c 11000000 		.word	.L97+1
 1148 0090 11000000 		.word	.L97+1
 1149 0094 11000000 		.word	.L97+1
 1150 0098 11000000 		.word	.L97+1
 1151 009c 11000000 		.word	.L97+1
 1152 00a0 11000000 		.word	.L97+1
 1153 00a4 11000000 		.word	.L97+1
ARM GAS  /var/folders/lp/x54gwt890xv47sdkqj1k04q40000gn/T//ccga5Emc.s 			page 21


 1154 00a8 11000000 		.word	.L97+1
 1155 00ac 11000000 		.word	.L97+1
 1156 00b0 11000000 		.word	.L97+1
 1157 00b4 11000000 		.word	.L97+1
 1158 00b8 11000000 		.word	.L97+1
 1159 00bc 11000000 		.word	.L97+1
 1160 00c0 11000000 		.word	.L97+1
 1161 00c4 11000000 		.word	.L97+1
 1162 00c8 11000000 		.word	.L97+1
 1163 00cc 11000000 		.word	.L97+1
 1164 00d0 11000000 		.word	.L97+1
 1165 00d4 E1000000 		.word	.L101+1
 1166 00d8 11000000 		.word	.L97+1
 1167 00dc EB000000 		.word	.L99+1
 1168              		.p2align 1
 1169              	.L101:
 1170 00e0 0021     		movs	r1, #0
 1171 00e2 2846     		mov	r0, r5
 1172 00e4 FFF7FEFF 		bl	refr_size_form_row
 1173 00e8 92E7     		b	.L97
 1174              	.L99:
 1175 00ea 2046     		mov	r0, r4
 1176 00ec FFF7FEFF 		bl	lv_event_get_param
 1177 00f0 0022     		movs	r2, #0
 1178 00f2 1346     		mov	r3, r2
 1179 00f4 05E0     		b	.L107
 1180              	.L108:
 1181 00f6 296B     		ldr	r1, [r5, #48]
 1182 00f8 31F81310 		ldrh	r1, [r1, r3, lsl #1]
 1183 00fc 0A44     		add	r2, r2, r1
 1184 00fe 12B2     		sxth	r2, r2
 1185 0100 0133     		adds	r3, r3, #1
 1186              	.L107:
 1187 0102 A98C     		ldrh	r1, [r5, #36]
 1188 0104 9942     		cmp	r1, r3
 1189 0106 F6D8     		bhi	.L108
 1190 0108 0023     		movs	r3, #0
 1191 010a 1946     		mov	r1, r3
 1192 010c 05E0     		b	.L109
 1193              	.L110:
 1194 010e EC6A     		ldr	r4, [r5, #44]
 1195 0110 34F81140 		ldrh	r4, [r4, r1, lsl #1]
 1196 0114 2344     		add	r3, r3, r4
 1197 0116 1BB2     		sxth	r3, r3
 1198 0118 0131     		adds	r1, r1, #1
 1199              	.L109:
 1200 011a EC8C     		ldrh	r4, [r5, #38]
 1201 011c 8C42     		cmp	r4, r1
 1202 011e F6D8     		bhi	.L110
 1203 0120 013A     		subs	r2, r2, #1
 1204 0122 0280     		strh	r2, [r0]	@ movhi
 1205 0124 013B     		subs	r3, r3, #1
 1206 0126 4380     		strh	r3, [r0, #2]	@ movhi
 1207 0128 72E7     		b	.L97
 1208              	.L106:
 1209 012a 01AA     		add	r2, sp, #4
 1210 012c 0DF10601 		add	r1, sp, #6
ARM GAS  /var/folders/lp/x54gwt890xv47sdkqj1k04q40000gn/T//ccga5Emc.s 			page 22


 1211 0130 2846     		mov	r0, r5
 1212 0132 FFF7FEFF 		bl	get_pressed_cell
 1213 0136 0128     		cmp	r0, #1
 1214 0138 7FF46AAF 		bne	.L97
 1215 013c AA8E     		ldrh	r2, [r5, #52]
 1216 013e BDF80430 		ldrh	r3, [sp, #4]
 1217 0142 9A42     		cmp	r2, r3
 1218 0144 05D1     		bne	.L112
 1219 0146 E98E     		ldrh	r1, [r5, #54]
 1220 0148 BDF80620 		ldrh	r2, [sp, #6]
 1221 014c 9142     		cmp	r1, r2
 1222 014e 3FF45FAF 		beq	.L97
 1223              	.L112:
 1224 0152 AB86     		strh	r3, [r5, #52]	@ movhi
 1225 0154 BDF80630 		ldrh	r3, [sp, #6]
 1226 0158 EB86     		strh	r3, [r5, #54]	@ movhi
 1227 015a 2846     		mov	r0, r5
 1228 015c FFF7FEFF 		bl	lv_obj_invalidate
 1229 0160 56E7     		b	.L97
 1230              	.L105:
 1231 0162 2846     		mov	r0, r5
 1232 0164 FFF7FEFF 		bl	lv_obj_invalidate
 1233 0168 FFF7FEFF 		bl	lv_indev_get_act
 1234 016c FFF7FEFF 		bl	lv_indev_get_scroll_obj
 1235 0170 AA8E     		ldrh	r2, [r5, #52]
 1236 0172 4FF6FF73 		movw	r3, #65535
 1237 0176 9A42     		cmp	r2, r3
 1238 0178 03D0     		beq	.L113
 1239 017a EA8E     		ldrh	r2, [r5, #54]
 1240 017c 9A42     		cmp	r2, r3
 1241 017e 00D0     		beq	.L113
 1242 0180 68B1     		cbz	r0, .L139
 1243              	.L113:
 1244 0182 FFF7FEFF 		bl	lv_indev_get_act
 1245 0186 FFF7FEFF 		bl	lv_indev_get_type
 1246 018a 0128     		cmp	r0, #1
 1247 018c 02D0     		beq	.L114
 1248 018e 0328     		cmp	r0, #3
 1249 0190 7FF43EAF 		bne	.L97
 1250              	.L114:
 1251 0194 4FF6FF73 		movw	r3, #65535
 1252 0198 AB86     		strh	r3, [r5, #52]	@ movhi
 1253 019a EB86     		strh	r3, [r5, #54]	@ movhi
 1254 019c 38E7     		b	.L97
 1255              	.L139:
 1256 019e 0022     		movs	r2, #0
 1257 01a0 1C21     		movs	r1, #28
 1258 01a2 2846     		mov	r0, r5
 1259 01a4 FFF7FEFF 		bl	lv_event_send
 1260 01a8 0128     		cmp	r0, #1
 1261 01aa 7FF431AF 		bne	.L97
 1262 01ae E8E7     		b	.L113
 1263              	.L103:
 1264 01b0 2846     		mov	r0, r5
 1265 01b2 FFF7FEFF 		bl	lv_obj_invalidate
 1266 01b6 2BE7     		b	.L97
 1267              	.L104:
ARM GAS  /var/folders/lp/x54gwt890xv47sdkqj1k04q40000gn/T//ccga5Emc.s 			page 23


 1268 01b8 2046     		mov	r0, r4
 1269 01ba FFF7FEFF 		bl	lv_event_get_param
 1270 01be 0268     		ldr	r2, [r0]
 1271 01c0 A98E     		ldrh	r1, [r5, #52]
 1272 01c2 EC8E     		ldrh	r4, [r5, #54]
 1273 01c4 4FF6FF73 		movw	r3, #65535
 1274 01c8 9942     		cmp	r1, r3
 1275 01ca 12D0     		beq	.L115
 1276 01cc 9C42     		cmp	r4, r3
 1277 01ce 10D0     		beq	.L115
 1278 01d0 B5F824C0 		ldrh	ip, [r5, #36]
 1279 01d4 6145     		cmp	r1, ip
 1280 01d6 16D2     		bcs	.L131
 1281 01d8 0846     		mov	r0, r1
 1282              	.L117:
 1283 01da EE8C     		ldrh	r6, [r5, #38]
 1284 01dc B442     		cmp	r4, r6
 1285 01de 14D2     		bcs	.L132
 1286 01e0 2346     		mov	r3, r4
 1287              	.L118:
 1288 01e2 113A     		subs	r2, r2, #17
 1289 01e4 032A     		cmp	r2, #3
 1290 01e6 3FF613AF 		bhi	.L97
 1291 01ea DFE802F0 		tbb	[pc, r2]
 1292              	.L120:
 1293 01ee 1B       		.byte	(.L123-.L120)/2
 1294 01ef 1D       		.byte	(.L122-.L120)/2
 1295 01f0 19       		.byte	(.L121-.L120)/2
 1296 01f1 10       		.byte	(.L119-.L120)/2
 1297              		.p2align 1
 1298              	.L115:
 1299 01f2 0023     		movs	r3, #0
 1300 01f4 AB86     		strh	r3, [r5, #52]	@ movhi
 1301 01f6 EB86     		strh	r3, [r5, #54]	@ movhi
 1302 01f8 2846     		mov	r0, r5
 1303 01fa FFF7FEFF 		bl	scroll_to_selected_cell
 1304 01fe 2846     		mov	r0, r5
 1305 0200 FFF7FEFF 		bl	lv_obj_invalidate
 1306 0204 04E7     		b	.L97
 1307              	.L131:
 1308 0206 0020     		movs	r0, #0
 1309 0208 E7E7     		b	.L117
 1310              	.L132:
 1311 020a 0023     		movs	r3, #0
 1312 020c E9E7     		b	.L118
 1313              	.L119:
 1314 020e 0138     		subs	r0, r0, #1
 1315              	.L124:
 1316 0210 8445     		cmp	ip, r0
 1317 0212 0EDC     		bgt	.L125
 1318 0214 721E     		subs	r2, r6, #1
 1319 0216 9A42     		cmp	r2, r3
 1320 0218 08DD     		ble	.L126
 1321 021a 0133     		adds	r3, r3, #1
 1322 021c 0020     		movs	r0, #0
 1323 021e 0AE0     		b	.L127
 1324              	.L121:
ARM GAS  /var/folders/lp/x54gwt890xv47sdkqj1k04q40000gn/T//ccga5Emc.s 			page 24


 1325 0220 0130     		adds	r0, r0, #1
 1326 0222 F5E7     		b	.L124
 1327              	.L123:
 1328 0224 013B     		subs	r3, r3, #1
 1329 0226 F3E7     		b	.L124
 1330              	.L122:
 1331 0228 0133     		adds	r3, r3, #1
 1332 022a F1E7     		b	.L124
 1333              	.L126:
 1334 022c 0CF1FF30 		add	r0, ip, #-1
 1335 0230 01E0     		b	.L127
 1336              	.L125:
 1337 0232 0028     		cmp	r0, #0
 1338 0234 15DB     		blt	.L140
 1339              	.L127:
 1340 0236 9E42     		cmp	r6, r3
 1341 0238 1ADC     		bgt	.L128
 1342 023a 731E     		subs	r3, r6, #1
 1343              	.L129:
 1344 023c 8842     		cmp	r0, r1
 1345 023e 02D1     		bne	.L130
 1346 0240 A342     		cmp	r3, r4
 1347 0242 3FF4E5AE 		beq	.L97
 1348              	.L130:
 1349 0246 A886     		strh	r0, [r5, #52]	@ movhi
 1350 0248 EB86     		strh	r3, [r5, #54]	@ movhi
 1351 024a 2846     		mov	r0, r5
 1352 024c FFF7FEFF 		bl	lv_obj_invalidate
 1353 0250 2846     		mov	r0, r5
 1354 0252 FFF7FEFF 		bl	scroll_to_selected_cell
 1355 0256 0022     		movs	r2, #0
 1356 0258 1C21     		movs	r1, #28
 1357 025a 2846     		mov	r0, r5
 1358 025c FFF7FEFF 		bl	lv_event_send
 1359 0260 D6E6     		b	.L97
 1360              	.L140:
 1361 0262 1BB1     		cbz	r3, .L133
 1362 0264 0CF1FF30 		add	r0, ip, #-1
 1363 0268 013B     		subs	r3, r3, #1
 1364 026a E4E7     		b	.L127
 1365              	.L133:
 1366 026c 1846     		mov	r0, r3
 1367 026e E2E7     		b	.L127
 1368              	.L128:
 1369 0270 002B     		cmp	r3, #0
 1370 0272 E3DA     		bge	.L129
 1371 0274 0023     		movs	r3, #0
 1372 0276 E1E7     		b	.L129
 1373              	.L102:
 1374 0278 2046     		mov	r0, r4
 1375 027a FFF7FEFF 		bl	draw_main
 1376 027e C7E6     		b	.L97
 1377              	.L142:
 1378              		.align	2
 1379              	.L141:
 1380 0280 00000000 		.word	lv_table_class
 1382              		.section	.text.lv_table_destructor,"ax",%progbits
ARM GAS  /var/folders/lp/x54gwt890xv47sdkqj1k04q40000gn/T//ccga5Emc.s 			page 25


 1383              		.align	1
 1384              		.syntax unified
 1385              		.thumb
 1386              		.thumb_func
 1388              	lv_table_destructor:
 1389              		@ args = 0, pretend = 0, frame = 0
 1390              		@ frame_needed = 0, uses_anonymous_args = 0
 1391 0000 70B5     		push	{r4, r5, r6, lr}
 1392 0002 0E46     		mov	r6, r1
 1393 0004 0024     		movs	r4, #0
 1394 0006 08E0     		b	.L144
 1395              	.L146:
 1396 0008 B36A     		ldr	r3, [r6, #40]
 1397 000a 5859     		ldr	r0, [r3, r5]
 1398 000c FFF7FEFF 		bl	lv_mem_free
 1399 0010 B36A     		ldr	r3, [r6, #40]
 1400 0012 0022     		movs	r2, #0
 1401 0014 5A51     		str	r2, [r3, r5]
 1402              	.L145:
 1403 0016 0134     		adds	r4, r4, #1
 1404 0018 A4B2     		uxth	r4, r4
 1405              	.L144:
 1406 001a B38C     		ldrh	r3, [r6, #36]
 1407 001c F28C     		ldrh	r2, [r6, #38]
 1408 001e 02FB03F3 		mul	r3, r2, r3
 1409 0022 9C42     		cmp	r4, r3
 1410 0024 0FDA     		bge	.L152
 1411 0026 B36A     		ldr	r3, [r6, #40]
 1412 0028 A500     		lsls	r5, r4, #2
 1413 002a 53F82430 		ldr	r3, [r3, r4, lsl #2]
 1414 002e 002B     		cmp	r3, #0
 1415 0030 F1D0     		beq	.L145
 1416 0032 5868     		ldr	r0, [r3, #4]
 1417 0034 0028     		cmp	r0, #0
 1418 0036 E7D0     		beq	.L146
 1419 0038 FFF7FEFF 		bl	lv_mem_free
 1420 003c B36A     		ldr	r3, [r6, #40]
 1421 003e 5B59     		ldr	r3, [r3, r5]
 1422 0040 0022     		movs	r2, #0
 1423 0042 5A60     		str	r2, [r3, #4]
 1424 0044 E0E7     		b	.L146
 1425              	.L152:
 1426 0046 B06A     		ldr	r0, [r6, #40]
 1427 0048 08B1     		cbz	r0, .L148
 1428 004a FFF7FEFF 		bl	lv_mem_free
 1429              	.L148:
 1430 004e F06A     		ldr	r0, [r6, #44]
 1431 0050 08B1     		cbz	r0, .L149
 1432 0052 FFF7FEFF 		bl	lv_mem_free
 1433              	.L149:
 1434 0056 306B     		ldr	r0, [r6, #48]
 1435 0058 08B1     		cbz	r0, .L143
 1436 005a FFF7FEFF 		bl	lv_mem_free
 1437              	.L143:
 1438 005e 70BD     		pop	{r4, r5, r6, pc}
 1440              		.section	.text.lv_table_constructor,"ax",%progbits
 1441              		.align	1
ARM GAS  /var/folders/lp/x54gwt890xv47sdkqj1k04q40000gn/T//ccga5Emc.s 			page 26


 1442              		.syntax unified
 1443              		.thumb
 1444              		.thumb_func
 1446              	lv_table_constructor:
 1447              		@ args = 0, pretend = 0, frame = 0
 1448              		@ frame_needed = 0, uses_anonymous_args = 0
 1449 0000 10B5     		push	{r4, lr}
 1450 0002 0C46     		mov	r4, r1
 1451 0004 0123     		movs	r3, #1
 1452 0006 8B84     		strh	r3, [r1, #36]	@ movhi
 1453 0008 CB84     		strh	r3, [r1, #38]	@ movhi
 1454 000a 0220     		movs	r0, #2
 1455 000c FFF7FEFF 		bl	lv_mem_alloc
 1456 0010 2063     		str	r0, [r4, #48]
 1457 0012 E08C     		ldrh	r0, [r4, #38]
 1458 0014 4000     		lsls	r0, r0, #1
 1459 0016 FFF7FEFF 		bl	lv_mem_alloc
 1460 001a E062     		str	r0, [r4, #44]
 1461 001c 226B     		ldr	r2, [r4, #48]
 1462 001e 8223     		movs	r3, #130
 1463 0020 1380     		strh	r3, [r2]	@ movhi
 1464 0022 E26A     		ldr	r2, [r4, #44]
 1465 0024 1380     		strh	r3, [r2]	@ movhi
 1466 0026 E18C     		ldrh	r1, [r4, #38]
 1467 0028 A38C     		ldrh	r3, [r4, #36]
 1468 002a 03FB01F1 		mul	r1, r3, r1
 1469 002e 8900     		lsls	r1, r1, #2
 1470 0030 A06A     		ldr	r0, [r4, #40]
 1471 0032 FFF7FEFF 		bl	lv_mem_realloc
 1472 0036 A062     		str	r0, [r4, #40]
 1473 0038 0023     		movs	r3, #0
 1474 003a 0360     		str	r3, [r0]
 1475 003c 10BD     		pop	{r4, pc}
 1477              		.section	.text.get_cell_txt_len,"ax",%progbits
 1478              		.align	1
 1479              		.syntax unified
 1480              		.thumb
 1481              		.thumb_func
 1483              	get_cell_txt_len:
 1484              		@ args = 0, pretend = 0, frame = 0
 1485              		@ frame_needed = 0, uses_anonymous_args = 0
 1486 0000 08B5     		push	{r3, lr}
 1487 0002 FFF7FEFF 		bl	strlen
 1488 0006 0930     		adds	r0, r0, #9
 1489 0008 08BD     		pop	{r3, pc}
 1491              		.section	.text.copy_cell_txt,"ax",%progbits
 1492              		.align	1
 1493              		.syntax unified
 1494              		.thumb
 1495              		.thumb_func
 1497              	copy_cell_txt:
 1498              		@ args = 0, pretend = 0, frame = 0
 1499              		@ frame_needed = 0, uses_anonymous_args = 0
 1500 0000 08B5     		push	{r3, lr}
 1501 0002 0830     		adds	r0, r0, #8
 1502 0004 FFF7FEFF 		bl	strcpy
 1503 0008 08BD     		pop	{r3, pc}
ARM GAS  /var/folders/lp/x54gwt890xv47sdkqj1k04q40000gn/T//ccga5Emc.s 			page 27


 1505              		.section	.text.refr_cell_size,"ax",%progbits
 1506              		.align	1
 1507              		.syntax unified
 1508              		.thumb
 1509              		.thumb_func
 1511              	refr_cell_size:
 1512              		@ args = 0, pretend = 0, frame = 32
 1513              		@ frame_needed = 0, uses_anonymous_args = 0
 1514 0000 2DE9F04F 		push	{r4, r5, r6, r7, r8, r9, r10, fp, lr}
 1515 0004 8FB0     		sub	sp, sp, #60
 1516 0006 0446     		mov	r4, r0
 1517 0008 0D46     		mov	r5, r1
 1518 000a 0B92     		str	r2, [sp, #44]
 1519 000c 1222     		movs	r2, #18
 1520 000e 4FF4A021 		mov	r1, #327680
 1521 0012 FFF7FEFF 		bl	lv_obj_get_style_prop
 1522 0016 03B2     		sxth	r3, r0
 1523 0018 0993     		str	r3, [sp, #36]
 1524 001a 1322     		movs	r2, #19
 1525 001c 4FF4A021 		mov	r1, #327680
 1526 0020 2046     		mov	r0, r4
 1527 0022 FFF7FEFF 		bl	lv_obj_get_style_prop
 1528 0026 0FFA80F8 		sxth	r8, r0
 1529 002a 1022     		movs	r2, #16
 1530 002c 4FF4A021 		mov	r1, #327680
 1531 0030 2046     		mov	r0, r4
 1532 0032 FFF7FEFF 		bl	lv_obj_get_style_prop
 1533 0036 0FFA80F9 		sxth	r9, r0
 1534 003a 1122     		movs	r2, #17
 1535 003c 4FF4A021 		mov	r1, #327680
 1536 0040 2046     		mov	r0, r4
 1537 0042 FFF7FEFF 		bl	lv_obj_get_style_prop
 1538 0046 0FFA80FA 		sxth	r10, r0
 1539 004a 5822     		movs	r2, #88
 1540 004c 4FF4A021 		mov	r1, #327680
 1541 0050 2046     		mov	r0, r4
 1542 0052 FFF7FEFF 		bl	lv_obj_get_style_prop
 1543 0056 02B2     		sxth	r2, r0
 1544 0058 0892     		str	r2, [sp, #32]
 1545 005a 5922     		movs	r2, #89
 1546 005c 4FF4A021 		mov	r1, #327680
 1547 0060 2046     		mov	r0, r4
 1548 0062 FFF7FEFF 		bl	lv_obj_get_style_prop
 1549 0066 00B2     		sxth	r0, r0
 1550 0068 0790     		str	r0, [sp, #28]
 1551 006a 5722     		movs	r2, #87
 1552 006c 4FF4A021 		mov	r1, #327680
 1553 0070 2046     		mov	r0, r4
 1554 0072 FFF7FEFF 		bl	lv_obj_get_style_prop
 1555 0076 0A90     		str	r0, [sp, #40]
 1556 0078 0522     		movs	r2, #5
 1557 007a 4FF4A021 		mov	r1, #327680
 1558 007e 2046     		mov	r0, r4
 1559 0080 FFF7FEFF 		bl	lv_obj_get_style_prop
 1560 0084 06B2     		sxth	r6, r0
 1561 0086 0622     		movs	r2, #6
 1562 0088 4FF4A021 		mov	r1, #327680
ARM GAS  /var/folders/lp/x54gwt890xv47sdkqj1k04q40000gn/T//ccga5Emc.s 			page 28


 1563 008c 2046     		mov	r0, r4
 1564 008e FFF7FEFF 		bl	lv_obj_get_style_prop
 1565 0092 07B2     		sxth	r7, r0
 1566 0094 1FFA85FB 		uxth	fp, r5
 1567 0098 CDF810A0 		str	r10, [sp, #16]
 1568 009c CDF80C90 		str	r9, [sp, #12]
 1569 00a0 CDF80880 		str	r8, [sp, #8]
 1570 00a4 0999     		ldr	r1, [sp, #36]
 1571 00a6 0191     		str	r1, [sp, #4]
 1572 00a8 0799     		ldr	r1, [sp, #28]
 1573 00aa 0091     		str	r1, [sp]
 1574 00ac 089B     		ldr	r3, [sp, #32]
 1575 00ae 0A9A     		ldr	r2, [sp, #40]
 1576 00b0 5946     		mov	r1, fp
 1577 00b2 2046     		mov	r0, r4
 1578 00b4 FFF7FEFF 		bl	get_row_height
 1579 00b8 E36A     		ldr	r3, [r4, #44]
 1580 00ba 33F91520 		ldrsh	r2, [r3, r5, lsl #1]
 1581 00be B842     		cmp	r0, r7
 1582 00c0 A8BF     		it	ge
 1583 00c2 3846     		movge	r0, r7
 1584 00c4 00B2     		sxth	r0, r0
 1585 00c6 B042     		cmp	r0, r6
 1586 00c8 B8BF     		it	lt
 1587 00ca 3046     		movlt	r0, r6
 1588 00cc 23F81500 		strh	r0, [r3, r5, lsl #1]	@ movhi
 1589 00d0 E36A     		ldr	r3, [r4, #44]
 1590 00d2 33F91530 		ldrsh	r3, [r3, r5, lsl #1]
 1591 00d6 9342     		cmp	r3, r2
 1592 00d8 08D0     		beq	.L163
 1593 00da 2046     		mov	r0, r4
 1594 00dc FFF7FEFF 		bl	lv_obj_refresh_self_size
 1595 00e0 2046     		mov	r0, r4
 1596 00e2 FFF7FEFF 		bl	lv_obj_invalidate
 1597              	.L159:
 1598 00e6 0FB0     		add	sp, sp, #60
 1599              		@ sp needed
 1600 00e8 BDE8F08F 		pop	{r4, r5, r6, r7, r8, r9, r10, fp, pc}
 1601              	.L163:
 1602 00ec 0CAB     		add	r3, sp, #48
 1603 00ee BDF82C20 		ldrh	r2, [sp, #44]
 1604 00f2 5946     		mov	r1, fp
 1605 00f4 2046     		mov	r0, r4
 1606 00f6 FFF7FEFF 		bl	get_cell_area
 1607 00fa B4F91620 		ldrsh	r2, [r4, #22]
 1608 00fe B4F91410 		ldrsh	r1, [r4, #20]
 1609 0102 0CA8     		add	r0, sp, #48
 1610 0104 FFF7FEFF 		bl	lv_area_move
 1611 0108 0CA9     		add	r1, sp, #48
 1612 010a 2046     		mov	r0, r4
 1613 010c FFF7FEFF 		bl	lv_obj_invalidate_area
 1614 0110 E9E7     		b	.L159
 1616              		.section	.text.lv_table_create,"ax",%progbits
 1617              		.align	1
 1618              		.global	lv_table_create
 1619              		.syntax unified
 1620              		.thumb
ARM GAS  /var/folders/lp/x54gwt890xv47sdkqj1k04q40000gn/T//ccga5Emc.s 			page 29


 1621              		.thumb_func
 1623              	lv_table_create:
 1624              		@ args = 0, pretend = 0, frame = 0
 1625              		@ frame_needed = 0, uses_anonymous_args = 0
 1626 0000 10B5     		push	{r4, lr}
 1627 0002 0146     		mov	r1, r0
 1628 0004 0348     		ldr	r0, .L166
 1629 0006 FFF7FEFF 		bl	lv_obj_class_create_obj
 1630 000a 0446     		mov	r4, r0
 1631 000c FFF7FEFF 		bl	lv_obj_class_init_obj
 1632 0010 2046     		mov	r0, r4
 1633 0012 10BD     		pop	{r4, pc}
 1634              	.L167:
 1635              		.align	2
 1636              	.L166:
 1637 0014 00000000 		.word	lv_table_class
 1639              		.section	.text.lv_table_set_row_cnt,"ax",%progbits
 1640              		.align	1
 1641              		.global	lv_table_set_row_cnt
 1642              		.syntax unified
 1643              		.thumb
 1644              		.thumb_func
 1646              	lv_table_set_row_cnt:
 1647              		@ args = 0, pretend = 0, frame = 0
 1648              		@ frame_needed = 0, uses_anonymous_args = 0
 1649 0000 2DE9F843 		push	{r3, r4, r5, r6, r7, r8, r9, lr}
 1650 0004 B0F82680 		ldrh	r8, [r0, #38]
 1651 0008 8845     		cmp	r8, r1
 1652 000a 3AD0     		beq	.L168
 1653 000c 0446     		mov	r4, r0
 1654 000e 0E46     		mov	r6, r1
 1655 0010 C184     		strh	r1, [r0, #38]	@ movhi
 1656 0012 4900     		lsls	r1, r1, #1
 1657 0014 C06A     		ldr	r0, [r0, #44]
 1658 0016 FFF7FEFF 		bl	lv_mem_realloc
 1659 001a E062     		str	r0, [r4, #44]
 1660 001c 50B1     		cbz	r0, .L171
 1661 001e B045     		cmp	r8, r6
 1662 0020 1FD9     		bls	.L172
 1663 0022 A58C     		ldrh	r5, [r4, #36]
 1664 0024 18FB05F9 		smulbb	r9, r8, r5
 1665 0028 1FFA89F9 		uxth	r9, r9
 1666 002c E38C     		ldrh	r3, [r4, #38]
 1667 002e 03FB05F5 		mul	r5, r3, r5
 1668 0032 05E0     		b	.L173
 1669              	.L171:
 1670 0034 FEE7     		b	.L171
 1671              	.L174:
 1672 0036 A36A     		ldr	r3, [r4, #40]
 1673 0038 D859     		ldr	r0, [r3, r7]
 1674 003a FFF7FEFF 		bl	lv_mem_free
 1675 003e 0135     		adds	r5, r5, #1
 1676              	.L173:
 1677 0040 A945     		cmp	r9, r5
 1678 0042 0ED9     		bls	.L172
 1679 0044 A36A     		ldr	r3, [r4, #40]
 1680 0046 AF00     		lsls	r7, r5, #2
ARM GAS  /var/folders/lp/x54gwt890xv47sdkqj1k04q40000gn/T//ccga5Emc.s 			page 30


 1681 0048 53F82530 		ldr	r3, [r3, r5, lsl #2]
 1682 004c 5868     		ldr	r0, [r3, #4]
 1683 004e 0028     		cmp	r0, #0
 1684 0050 F1D0     		beq	.L174
 1685 0052 FFF7FEFF 		bl	lv_mem_free
 1686 0056 A36A     		ldr	r3, [r4, #40]
 1687 0058 53F82530 		ldr	r3, [r3, r5, lsl #2]
 1688 005c 0022     		movs	r2, #0
 1689 005e 5A60     		str	r2, [r3, #4]
 1690 0060 E9E7     		b	.L174
 1691              	.L172:
 1692 0062 E18C     		ldrh	r1, [r4, #38]
 1693 0064 A38C     		ldrh	r3, [r4, #36]
 1694 0066 03FB01F1 		mul	r1, r3, r1
 1695 006a 8900     		lsls	r1, r1, #2
 1696 006c A06A     		ldr	r0, [r4, #40]
 1697 006e FFF7FEFF 		bl	lv_mem_realloc
 1698 0072 A062     		str	r0, [r4, #40]
 1699 0074 38B1     		cbz	r0, .L177
 1700 0076 B045     		cmp	r8, r6
 1701 0078 06D3     		bcc	.L180
 1702              	.L178:
 1703 007a 0021     		movs	r1, #0
 1704 007c 2046     		mov	r0, r4
 1705 007e FFF7FEFF 		bl	refr_size_form_row
 1706              	.L168:
 1707 0082 BDE8F883 		pop	{r3, r4, r5, r6, r7, r8, r9, pc}
 1708              	.L177:
 1709 0086 FEE7     		b	.L177
 1710              	.L180:
 1711 0088 A38C     		ldrh	r3, [r4, #36]
 1712 008a 03FB08F8 		mul	r8, r3, r8
 1713 008e E28C     		ldrh	r2, [r4, #38]
 1714 0090 02FB03F3 		mul	r3, r2, r3
 1715 0094 A3EB0801 		sub	r1, r3, r8
 1716 0098 8900     		lsls	r1, r1, #2
 1717 009a 00EB8800 		add	r0, r0, r8, lsl #2
 1718 009e FFF7FEFF 		bl	lv_memset_00
 1719 00a2 EAE7     		b	.L178
 1721              		.section	.text.lv_table_set_col_cnt,"ax",%progbits
 1722              		.align	1
 1723              		.global	lv_table_set_col_cnt
 1724              		.syntax unified
 1725              		.thumb
 1726              		.thumb_func
 1728              	lv_table_set_col_cnt:
 1729              		@ args = 0, pretend = 0, frame = 8
 1730              		@ frame_needed = 0, uses_anonymous_args = 0
 1731 0000 2DE9F04F 		push	{r4, r5, r6, r7, r8, r9, r10, fp, lr}
 1732 0004 83B0     		sub	sp, sp, #12
 1733 0006 878C     		ldrh	r7, [r0, #36]
 1734 0008 8F42     		cmp	r7, r1
 1735 000a 6CD0     		beq	.L181
 1736 000c 0646     		mov	r6, r0
 1737 000e 8846     		mov	r8, r1
 1738 0010 8184     		strh	r1, [r0, #36]	@ movhi
 1739 0012 C08C     		ldrh	r0, [r0, #38]
ARM GAS  /var/folders/lp/x54gwt890xv47sdkqj1k04q40000gn/T//ccga5Emc.s 			page 31


 1740 0014 01FB00F0 		mul	r0, r1, r0
 1741 0018 8000     		lsls	r0, r0, #2
 1742 001a FFF7FEFF 		bl	lv_mem_alloc
 1743 001e 0190     		str	r0, [sp, #4]
 1744 0020 70B1     		cbz	r0, .L184
 1745 0022 B18C     		ldrh	r1, [r6, #36]
 1746 0024 F38C     		ldrh	r3, [r6, #38]
 1747 0026 03FB01F1 		mul	r1, r3, r1
 1748 002a 8900     		lsls	r1, r1, #2
 1749 002c 0198     		ldr	r0, [sp, #4]
 1750 002e FFF7FEFF 		bl	lv_memset_00
 1751 0032 BA46     		mov	r10, r7
 1752 0034 4745     		cmp	r7, r8
 1753 0036 28BF     		it	cs
 1754 0038 C246     		movcs	r10, r8
 1755 003a 4FF0000B 		mov	fp, #0
 1756 003e 2AE0     		b	.L185
 1757              	.L184:
 1758 0040 FEE7     		b	.L184
 1759              	.L187:
 1760 0042 12F8010B 		ldrb	r0, [r2], #1	@ zero_extendqisi2
 1761 0046 01F8010B 		strb	r0, [r1], #1
 1762 004a 013B     		subs	r3, r3, #1
 1763              	.L186:
 1764 004c 002B     		cmp	r3, #0
 1765 004e F8D1     		bne	.L187
 1766 0050 0025     		movs	r5, #0
 1767 0052 09E0     		b	.L188
 1768              	.L189:
 1769 0054 B36A     		ldr	r3, [r6, #40]
 1770 0056 53F82400 		ldr	r0, [r3, r4, lsl #2]
 1771 005a FFF7FEFF 		bl	lv_mem_free
 1772 005e B36A     		ldr	r3, [r6, #40]
 1773 0060 0022     		movs	r2, #0
 1774 0062 43F82420 		str	r2, [r3, r4, lsl #2]
 1775 0066 0135     		adds	r5, r5, #1
 1776              	.L188:
 1777 0068 A7EB0803 		sub	r3, r7, r8
 1778 006c AB42     		cmp	r3, r5
 1779 006e 10DD     		ble	.L197
 1780 0070 0AEB0904 		add	r4, r10, r9
 1781 0074 2C44     		add	r4, r4, r5
 1782 0076 B36A     		ldr	r3, [r6, #40]
 1783 0078 53F82430 		ldr	r3, [r3, r4, lsl #2]
 1784 007c 5868     		ldr	r0, [r3, #4]
 1785 007e 0028     		cmp	r0, #0
 1786 0080 E8D0     		beq	.L189
 1787 0082 FFF7FEFF 		bl	lv_mem_free
 1788 0086 B36A     		ldr	r3, [r6, #40]
 1789 0088 53F82430 		ldr	r3, [r3, r4, lsl #2]
 1790 008c 0022     		movs	r2, #0
 1791 008e 5A60     		str	r2, [r3, #4]
 1792 0090 E0E7     		b	.L189
 1793              	.L197:
 1794 0092 0BF1010B 		add	fp, fp, #1
 1795              	.L185:
 1796 0096 F38C     		ldrh	r3, [r6, #38]
ARM GAS  /var/folders/lp/x54gwt890xv47sdkqj1k04q40000gn/T//ccga5Emc.s 			page 32


 1797 0098 5B45     		cmp	r3, fp
 1798 009a 0CD9     		bls	.L198
 1799 009c 0BFB07F9 		mul	r9, fp, r7
 1800 00a0 0BFB08F1 		mul	r1, fp, r8
 1801 00a4 019B     		ldr	r3, [sp, #4]
 1802 00a6 03EB8101 		add	r1, r3, r1, lsl #2
 1803 00aa B26A     		ldr	r2, [r6, #40]
 1804 00ac 02EB8902 		add	r2, r2, r9, lsl #2
 1805 00b0 4FEA8A03 		lsl	r3, r10, #2
 1806 00b4 CAE7     		b	.L186
 1807              	.L198:
 1808 00b6 B06A     		ldr	r0, [r6, #40]
 1809 00b8 FFF7FEFF 		bl	lv_mem_free
 1810 00bc 019B     		ldr	r3, [sp, #4]
 1811 00be B362     		str	r3, [r6, #40]
 1812 00c0 4FEA4801 		lsl	r1, r8, #1
 1813 00c4 306B     		ldr	r0, [r6, #48]
 1814 00c6 FFF7FEFF 		bl	lv_mem_realloc
 1815 00ca 3063     		str	r0, [r6, #48]
 1816 00cc 28B9     		cbnz	r0, .L194
 1817              	.L193:
 1818 00ce FEE7     		b	.L193
 1819              	.L195:
 1820 00d0 336B     		ldr	r3, [r6, #48]
 1821 00d2 8222     		movs	r2, #130
 1822 00d4 23F81720 		strh	r2, [r3, r7, lsl #1]	@ movhi
 1823 00d8 0137     		adds	r7, r7, #1
 1824              	.L194:
 1825 00da B845     		cmp	r8, r7
 1826 00dc F8D8     		bhi	.L195
 1827 00de 0021     		movs	r1, #0
 1828 00e0 3046     		mov	r0, r6
 1829 00e2 FFF7FEFF 		bl	refr_size_form_row
 1830              	.L181:
 1831 00e6 03B0     		add	sp, sp, #12
 1832              		@ sp needed
 1833 00e8 BDE8F08F 		pop	{r4, r5, r6, r7, r8, r9, r10, fp, pc}
 1835              		.section	.text.lv_table_set_cell_value,"ax",%progbits
 1836              		.align	1
 1837              		.global	lv_table_set_cell_value
 1838              		.syntax unified
 1839              		.thumb
 1840              		.thumb_func
 1842              	lv_table_set_cell_value:
 1843              		@ args = 0, pretend = 0, frame = 8
 1844              		@ frame_needed = 0, uses_anonymous_args = 0
 1845 0000 002B     		cmp	r3, #0
 1846 0002 40D0     		beq	.L201
 1847 0004 2DE9F04F 		push	{r4, r5, r6, r7, r8, r9, r10, fp, lr}
 1848 0008 83B0     		sub	sp, sp, #12
 1849 000a 0446     		mov	r4, r0
 1850 000c 0D46     		mov	r5, r1
 1851 000e 1646     		mov	r6, r2
 1852 0010 9A46     		mov	r10, r3
 1853 0012 838C     		ldrh	r3, [r0, #36]
 1854 0014 9342     		cmp	r3, r2
 1855 0016 37D9     		bls	.L212
ARM GAS  /var/folders/lp/x54gwt890xv47sdkqj1k04q40000gn/T//ccga5Emc.s 			page 33


 1856              	.L202:
 1857 0018 E38C     		ldrh	r3, [r4, #38]
 1858 001a AB42     		cmp	r3, r5
 1859 001c 39D9     		bls	.L213
 1860              	.L203:
 1861 001e A78C     		ldrh	r7, [r4, #36]
 1862 0020 07FB0567 		mla	r7, r7, r5, r6
 1863 0024 D4F82890 		ldr	r9, [r4, #40]
 1864 0028 59F82780 		ldr	r8, [r9, r7, lsl #2]
 1865 002c B8F1000F 		cmp	r8, #0
 1866 0030 35D0     		beq	.L208
 1867 0032 98F800B0 		ldrb	fp, [r8]	@ zero_extendqisi2
 1868              	.L204:
 1869 0036 B8F1000F 		cmp	r8, #0
 1870 003a 33D0     		beq	.L209
 1871 003c D8F80430 		ldr	r3, [r8, #4]
 1872 0040 0193     		str	r3, [sp, #4]
 1873              	.L205:
 1874 0042 5046     		mov	r0, r10
 1875 0044 FFF7FEFF 		bl	get_cell_txt_len
 1876 0048 0146     		mov	r1, r0
 1877 004a 4046     		mov	r0, r8
 1878 004c FFF7FEFF 		bl	lv_mem_realloc
 1879 0050 49F82700 		str	r0, [r9, r7, lsl #2]
 1880 0054 A36A     		ldr	r3, [r4, #40]
 1881 0056 53F82700 		ldr	r0, [r3, r7, lsl #2]
 1882 005a 30B3     		cbz	r0, .L207
 1883 005c 5146     		mov	r1, r10
 1884 005e FFF7FEFF 		bl	copy_cell_txt
 1885 0062 A36A     		ldr	r3, [r4, #40]
 1886 0064 53F82730 		ldr	r3, [r3, r7, lsl #2]
 1887 0068 83F800B0 		strb	fp, [r3]
 1888 006c A36A     		ldr	r3, [r4, #40]
 1889 006e 53F82730 		ldr	r3, [r3, r7, lsl #2]
 1890 0072 019A     		ldr	r2, [sp, #4]
 1891 0074 5A60     		str	r2, [r3, #4]
 1892 0076 3246     		mov	r2, r6
 1893 0078 2946     		mov	r1, r5
 1894 007a 2046     		mov	r0, r4
 1895 007c FFF7FEFF 		bl	refr_cell_size
 1896 0080 03B0     		add	sp, sp, #12
 1897              		@ sp needed
 1898 0082 BDE8F08F 		pop	{r4, r5, r6, r7, r8, r9, r10, fp, pc}
 1899              	.L201:
 1900 0086 FEE7     		b	.L201
 1901              	.L212:
 1902 0088 511C     		adds	r1, r2, #1
 1903 008a 89B2     		uxth	r1, r1
 1904 008c FFF7FEFF 		bl	lv_table_set_col_cnt
 1905 0090 C2E7     		b	.L202
 1906              	.L213:
 1907 0092 691C     		adds	r1, r5, #1
 1908 0094 89B2     		uxth	r1, r1
 1909 0096 2046     		mov	r0, r4
 1910 0098 FFF7FEFF 		bl	lv_table_set_row_cnt
 1911 009c BFE7     		b	.L203
 1912              	.L208:
ARM GAS  /var/folders/lp/x54gwt890xv47sdkqj1k04q40000gn/T//ccga5Emc.s 			page 34


 1913 009e 4FF0000B 		mov	fp, #0
 1914 00a2 C8E7     		b	.L204
 1915              	.L209:
 1916 00a4 CDF80480 		str	r8, [sp, #4]
 1917 00a8 CBE7     		b	.L205
 1918              	.L207:
 1919 00aa FEE7     		b	.L207
 1921              		.section	.text.lv_table_set_cell_value_fmt,"ax",%progbits
 1922              		.align	1
 1923              		.global	lv_table_set_cell_value_fmt
 1924              		.syntax unified
 1925              		.thumb
 1926              		.thumb_func
 1928              	lv_table_set_cell_value_fmt:
 1929              		@ args = 4, pretend = 4, frame = 8
 1930              		@ frame_needed = 0, uses_anonymous_args = 1
 1931 0000 08B4     		push	{r3}
 1932 0002 2DE9F04F 		push	{r4, r5, r6, r7, r8, r9, r10, fp, lr}
 1933 0006 82B0     		sub	sp, sp, #8
 1934 0008 0B9B     		ldr	r3, [sp, #44]
 1935 000a 002B     		cmp	r3, #0
 1936 000c 50D0     		beq	.L216
 1937 000e 0446     		mov	r4, r0
 1938 0010 0E46     		mov	r6, r1
 1939 0012 1746     		mov	r7, r2
 1940 0014 838C     		ldrh	r3, [r0, #36]
 1941 0016 9342     		cmp	r3, r2
 1942 0018 4BD9     		bls	.L225
 1943              	.L217:
 1944 001a E38C     		ldrh	r3, [r4, #38]
 1945 001c B342     		cmp	r3, r6
 1946 001e 4DD9     		bls	.L226
 1947              	.L218:
 1948 0020 A58C     		ldrh	r5, [r4, #36]
 1949 0022 05FB0675 		mla	r5, r5, r6, r7
 1950 0026 A36A     		ldr	r3, [r4, #40]
 1951 0028 53F82580 		ldr	r8, [r3, r5, lsl #2]
 1952 002c B8F1000F 		cmp	r8, #0
 1953 0030 4AD0     		beq	.L223
 1954 0032 98F800B0 		ldrb	fp, [r8]	@ zero_extendqisi2
 1955              	.L219:
 1956 0036 B8F1000F 		cmp	r8, #0
 1957 003a 01D0     		beq	.L220
 1958 003c D8F80480 		ldr	r8, [r8, #4]
 1959              	.L220:
 1960 0040 0CAB     		add	r3, sp, #48
 1961 0042 0193     		str	r3, [sp, #4]
 1962 0044 0093     		str	r3, [sp]
 1963 0046 0B9A     		ldr	r2, [sp, #44]
 1964 0048 0021     		movs	r1, #0
 1965 004a 0846     		mov	r0, r1
 1966 004c FFF7FEFF 		bl	lv_vsnprintf
 1967 0050 8146     		mov	r9, r0
 1968 0052 D4F828A0 		ldr	r10, [r4, #40]
 1969 0056 00F10901 		add	r1, r0, #9
 1970 005a 5AF82500 		ldr	r0, [r10, r5, lsl #2]
 1971 005e FFF7FEFF 		bl	lv_mem_realloc
ARM GAS  /var/folders/lp/x54gwt890xv47sdkqj1k04q40000gn/T//ccga5Emc.s 			page 35


 1972 0062 4AF82500 		str	r0, [r10, r5, lsl #2]
 1973 0066 A36A     		ldr	r3, [r4, #40]
 1974 0068 53F82530 		ldr	r3, [r3, r5, lsl #2]
 1975 006c 7BB3     		cbz	r3, .L222
 1976 006e 4B44     		add	r3, r3, r9
 1977 0070 0022     		movs	r2, #0
 1978 0072 1A72     		strb	r2, [r3, #8]
 1979 0074 A36A     		ldr	r3, [r4, #40]
 1980 0076 53F82500 		ldr	r0, [r3, r5, lsl #2]
 1981 007a 009B     		ldr	r3, [sp]
 1982 007c 0B9A     		ldr	r2, [sp, #44]
 1983 007e 09F10101 		add	r1, r9, #1
 1984 0082 0830     		adds	r0, r0, #8
 1985 0084 FFF7FEFF 		bl	lv_vsnprintf
 1986 0088 A36A     		ldr	r3, [r4, #40]
 1987 008a 53F82530 		ldr	r3, [r3, r5, lsl #2]
 1988 008e 83F800B0 		strb	fp, [r3]
 1989 0092 A36A     		ldr	r3, [r4, #40]
 1990 0094 53F82530 		ldr	r3, [r3, r5, lsl #2]
 1991 0098 C3F80480 		str	r8, [r3, #4]
 1992 009c 3A46     		mov	r2, r7
 1993 009e 3146     		mov	r1, r6
 1994 00a0 2046     		mov	r0, r4
 1995 00a2 FFF7FEFF 		bl	refr_cell_size
 1996 00a6 02B0     		add	sp, sp, #8
 1997              		@ sp needed
 1998 00a8 BDE8F04F 		pop	{r4, r5, r6, r7, r8, r9, r10, fp, lr}
 1999 00ac 01B0     		add	sp, sp, #4
 2000 00ae 7047     		bx	lr
 2001              	.L216:
 2002 00b0 FEE7     		b	.L216
 2003              	.L225:
 2004 00b2 511C     		adds	r1, r2, #1
 2005 00b4 89B2     		uxth	r1, r1
 2006 00b6 FFF7FEFF 		bl	lv_table_set_col_cnt
 2007 00ba AEE7     		b	.L217
 2008              	.L226:
 2009 00bc 711C     		adds	r1, r6, #1
 2010 00be 89B2     		uxth	r1, r1
 2011 00c0 2046     		mov	r0, r4
 2012 00c2 FFF7FEFF 		bl	lv_table_set_row_cnt
 2013 00c6 ABE7     		b	.L218
 2014              	.L223:
 2015 00c8 4FF0000B 		mov	fp, #0
 2016 00cc B3E7     		b	.L219
 2017              	.L222:
 2018 00ce FEE7     		b	.L222
 2020              		.section	.text.lv_table_set_col_width,"ax",%progbits
 2021              		.align	1
 2022              		.global	lv_table_set_col_width
 2023              		.syntax unified
 2024              		.thumb
 2025              		.thumb_func
 2027              	lv_table_set_col_width:
 2028              		@ args = 0, pretend = 0, frame = 0
 2029              		@ frame_needed = 0, uses_anonymous_args = 0
 2030 0000 70B5     		push	{r4, r5, r6, lr}
ARM GAS  /var/folders/lp/x54gwt890xv47sdkqj1k04q40000gn/T//ccga5Emc.s 			page 36


 2031 0002 0446     		mov	r4, r0
 2032 0004 0D46     		mov	r5, r1
 2033 0006 1646     		mov	r6, r2
 2034 0008 838C     		ldrh	r3, [r0, #36]
 2035 000a 8B42     		cmp	r3, r1
 2036 000c 07D9     		bls	.L230
 2037              	.L228:
 2038 000e 236B     		ldr	r3, [r4, #48]
 2039 0010 23F81560 		strh	r6, [r3, r5, lsl #1]	@ movhi
 2040 0014 0021     		movs	r1, #0
 2041 0016 2046     		mov	r0, r4
 2042 0018 FFF7FEFF 		bl	refr_size_form_row
 2043 001c 70BD     		pop	{r4, r5, r6, pc}
 2044              	.L230:
 2045 001e 0131     		adds	r1, r1, #1
 2046 0020 89B2     		uxth	r1, r1
 2047 0022 FFF7FEFF 		bl	lv_table_set_col_cnt
 2048 0026 F2E7     		b	.L228
 2050              		.section	.text.lv_table_add_cell_ctrl,"ax",%progbits
 2051              		.align	1
 2052              		.global	lv_table_add_cell_ctrl
 2053              		.syntax unified
 2054              		.thumb
 2055              		.thumb_func
 2057              	lv_table_add_cell_ctrl:
 2058              		@ args = 0, pretend = 0, frame = 0
 2059              		@ frame_needed = 0, uses_anonymous_args = 0
 2060 0000 2DE9F041 		push	{r4, r5, r6, r7, r8, lr}
 2061 0004 0446     		mov	r4, r0
 2062 0006 8846     		mov	r8, r1
 2063 0008 1646     		mov	r6, r2
 2064 000a 1F46     		mov	r7, r3
 2065 000c 838C     		ldrh	r3, [r0, #36]
 2066 000e 9342     		cmp	r3, r2
 2067 0010 12D9     		bls	.L238
 2068              	.L232:
 2069 0012 E38C     		ldrh	r3, [r4, #38]
 2070 0014 4345     		cmp	r3, r8
 2071 0016 14D9     		bls	.L239
 2072              	.L233:
 2073 0018 A58C     		ldrh	r5, [r4, #36]
 2074 001a 05FB0865 		mla	r5, r5, r8, r6
 2075 001e A66A     		ldr	r6, [r4, #40]
 2076 0020 56F82520 		ldr	r2, [r6, r5, lsl #2]
 2077 0024 A2B1     		cbz	r2, .L240
 2078              	.L234:
 2079 0026 A36A     		ldr	r3, [r4, #40]
 2080 0028 53F82510 		ldr	r1, [r3, r5, lsl #2]
 2081 002c 0A78     		ldrb	r2, [r1]	@ zero_extendqisi2
 2082 002e 42EA0703 		orr	r3, r2, r7
 2083 0032 0B70     		strb	r3, [r1]
 2084 0034 BDE8F081 		pop	{r4, r5, r6, r7, r8, pc}
 2085              	.L238:
 2086 0038 511C     		adds	r1, r2, #1
 2087 003a 89B2     		uxth	r1, r1
 2088 003c FFF7FEFF 		bl	lv_table_set_col_cnt
 2089 0040 E7E7     		b	.L232
ARM GAS  /var/folders/lp/x54gwt890xv47sdkqj1k04q40000gn/T//ccga5Emc.s 			page 37


 2090              	.L239:
 2091 0042 08F10101 		add	r1, r8, #1
 2092 0046 89B2     		uxth	r1, r1
 2093 0048 2046     		mov	r0, r4
 2094 004a FFF7FEFF 		bl	lv_table_set_row_cnt
 2095 004e E3E7     		b	.L233
 2096              	.L240:
 2097 0050 0920     		movs	r0, #9
 2098 0052 FFF7FEFF 		bl	lv_mem_alloc
 2099 0056 46F82500 		str	r0, [r6, r5, lsl #2]
 2100 005a A36A     		ldr	r3, [r4, #40]
 2101 005c 53F82520 		ldr	r2, [r3, r5, lsl #2]
 2102 0060 52B1     		cbz	r2, .L236
 2103 0062 0023     		movs	r3, #0
 2104 0064 1370     		strb	r3, [r2]
 2105 0066 A26A     		ldr	r2, [r4, #40]
 2106 0068 52F82520 		ldr	r2, [r2, r5, lsl #2]
 2107 006c 5360     		str	r3, [r2, #4]
 2108 006e A26A     		ldr	r2, [r4, #40]
 2109 0070 52F82520 		ldr	r2, [r2, r5, lsl #2]
 2110 0074 1372     		strb	r3, [r2, #8]
 2111 0076 D6E7     		b	.L234
 2112              	.L236:
 2113 0078 FEE7     		b	.L236
 2115              		.section	.text.lv_table_clear_cell_ctrl,"ax",%progbits
 2116              		.align	1
 2117              		.global	lv_table_clear_cell_ctrl
 2118              		.syntax unified
 2119              		.thumb
 2120              		.thumb_func
 2122              	lv_table_clear_cell_ctrl:
 2123              		@ args = 0, pretend = 0, frame = 0
 2124              		@ frame_needed = 0, uses_anonymous_args = 0
 2125 0000 2DE9F041 		push	{r4, r5, r6, r7, r8, lr}
 2126 0004 0446     		mov	r4, r0
 2127 0006 8846     		mov	r8, r1
 2128 0008 1746     		mov	r7, r2
 2129 000a 1D46     		mov	r5, r3
 2130 000c 838C     		ldrh	r3, [r0, #36]
 2131 000e 9342     		cmp	r3, r2
 2132 0010 13D9     		bls	.L248
 2133              	.L242:
 2134 0012 E38C     		ldrh	r3, [r4, #38]
 2135 0014 4345     		cmp	r3, r8
 2136 0016 15D9     		bls	.L249
 2137              	.L243:
 2138 0018 A68C     		ldrh	r6, [r4, #36]
 2139 001a 06FB0876 		mla	r6, r6, r8, r7
 2140 001e A76A     		ldr	r7, [r4, #40]
 2141 0020 57F82630 		ldr	r3, [r7, r6, lsl #2]
 2142 0024 ABB1     		cbz	r3, .L250
 2143              	.L244:
 2144 0026 A36A     		ldr	r3, [r4, #40]
 2145 0028 53F82620 		ldr	r2, [r3, r6, lsl #2]
 2146 002c 1378     		ldrb	r3, [r2]	@ zero_extendqisi2
 2147 002e ED43     		mvns	r5, r5
 2148 0030 6DB2     		sxtb	r5, r5
ARM GAS  /var/folders/lp/x54gwt890xv47sdkqj1k04q40000gn/T//ccga5Emc.s 			page 38


 2149 0032 2B40     		ands	r3, r3, r5
 2150 0034 1370     		strb	r3, [r2]
 2151 0036 BDE8F081 		pop	{r4, r5, r6, r7, r8, pc}
 2152              	.L248:
 2153 003a 511C     		adds	r1, r2, #1
 2154 003c 89B2     		uxth	r1, r1
 2155 003e FFF7FEFF 		bl	lv_table_set_col_cnt
 2156 0042 E6E7     		b	.L242
 2157              	.L249:
 2158 0044 08F10101 		add	r1, r8, #1
 2159 0048 89B2     		uxth	r1, r1
 2160 004a 2046     		mov	r0, r4
 2161 004c FFF7FEFF 		bl	lv_table_set_row_cnt
 2162 0050 E2E7     		b	.L243
 2163              	.L250:
 2164 0052 0920     		movs	r0, #9
 2165 0054 FFF7FEFF 		bl	lv_mem_alloc
 2166 0058 47F82600 		str	r0, [r7, r6, lsl #2]
 2167 005c A36A     		ldr	r3, [r4, #40]
 2168 005e 53F82620 		ldr	r2, [r3, r6, lsl #2]
 2169 0062 52B1     		cbz	r2, .L246
 2170 0064 0023     		movs	r3, #0
 2171 0066 1370     		strb	r3, [r2]
 2172 0068 A26A     		ldr	r2, [r4, #40]
 2173 006a 52F82620 		ldr	r2, [r2, r6, lsl #2]
 2174 006e 5360     		str	r3, [r2, #4]
 2175 0070 A26A     		ldr	r2, [r4, #40]
 2176 0072 52F82620 		ldr	r2, [r2, r6, lsl #2]
 2177 0076 1372     		strb	r3, [r2, #8]
 2178 0078 D5E7     		b	.L244
 2179              	.L246:
 2180 007a FEE7     		b	.L246
 2182              		.section	.text.lv_table_set_cell_user_data,"ax",%progbits
 2183              		.align	1
 2184              		.global	lv_table_set_cell_user_data
 2185              		.syntax unified
 2186              		.thumb
 2187              		.thumb_func
 2189              	lv_table_set_cell_user_data:
 2190              		@ args = 0, pretend = 0, frame = 0
 2191              		@ frame_needed = 0, uses_anonymous_args = 0
 2192 0000 F8B5     		push	{r3, r4, r5, r6, r7, lr}
 2193 0002 0446     		mov	r4, r0
 2194 0004 0E46     		mov	r6, r1
 2195 0006 1546     		mov	r5, r2
 2196 0008 1F46     		mov	r7, r3
 2197 000a 838C     		ldrh	r3, [r0, #36]
 2198 000c 9342     		cmp	r3, r2
 2199 000e 15D9     		bls	.L259
 2200              	.L252:
 2201 0010 E38C     		ldrh	r3, [r4, #38]
 2202 0012 B342     		cmp	r3, r6
 2203 0014 17D9     		bls	.L260
 2204              	.L253:
 2205 0016 A38C     		ldrh	r3, [r4, #36]
 2206 0018 03FB0655 		mla	r5, r3, r6, r5
 2207 001c A66A     		ldr	r6, [r4, #40]
ARM GAS  /var/folders/lp/x54gwt890xv47sdkqj1k04q40000gn/T//ccga5Emc.s 			page 39


 2208 001e 56F82530 		ldr	r3, [r6, r5, lsl #2]
 2209 0022 B3B1     		cbz	r3, .L261
 2210              	.L254:
 2211 0024 A36A     		ldr	r3, [r4, #40]
 2212 0026 53F82530 		ldr	r3, [r3, r5, lsl #2]
 2213 002a 5868     		ldr	r0, [r3, #4]
 2214 002c 08B1     		cbz	r0, .L257
 2215 002e FFF7FEFF 		bl	lv_mem_free
 2216              	.L257:
 2217 0032 A36A     		ldr	r3, [r4, #40]
 2218 0034 53F82530 		ldr	r3, [r3, r5, lsl #2]
 2219 0038 5F60     		str	r7, [r3, #4]
 2220 003a F8BD     		pop	{r3, r4, r5, r6, r7, pc}
 2221              	.L259:
 2222 003c 511C     		adds	r1, r2, #1
 2223 003e 89B2     		uxth	r1, r1
 2224 0040 FFF7FEFF 		bl	lv_table_set_col_cnt
 2225 0044 E4E7     		b	.L252
 2226              	.L260:
 2227 0046 711C     		adds	r1, r6, #1
 2228 0048 89B2     		uxth	r1, r1
 2229 004a 2046     		mov	r0, r4
 2230 004c FFF7FEFF 		bl	lv_table_set_row_cnt
 2231 0050 E1E7     		b	.L253
 2232              	.L261:
 2233 0052 0920     		movs	r0, #9
 2234 0054 FFF7FEFF 		bl	lv_mem_alloc
 2235 0058 46F82500 		str	r0, [r6, r5, lsl #2]
 2236 005c A36A     		ldr	r3, [r4, #40]
 2237 005e 53F82520 		ldr	r2, [r3, r5, lsl #2]
 2238 0062 52B1     		cbz	r2, .L256
 2239 0064 0023     		movs	r3, #0
 2240 0066 1370     		strb	r3, [r2]
 2241 0068 A26A     		ldr	r2, [r4, #40]
 2242 006a 52F82520 		ldr	r2, [r2, r5, lsl #2]
 2243 006e 5360     		str	r3, [r2, #4]
 2244 0070 A26A     		ldr	r2, [r4, #40]
 2245 0072 52F82520 		ldr	r2, [r2, r5, lsl #2]
 2246 0076 1372     		strb	r3, [r2, #8]
 2247 0078 D4E7     		b	.L254
 2248              	.L256:
 2249 007a FEE7     		b	.L256
 2251              		.section	.rodata.lv_table_get_cell_value.str1.4,"aMS",%progbits,1
 2252              		.align	2
 2253              	.LC0:
 2254 0000 00       		.ascii	"\000"
 2255              		.section	.text.lv_table_get_cell_value,"ax",%progbits
 2256              		.align	1
 2257              		.global	lv_table_get_cell_value
 2258              		.syntax unified
 2259              		.thumb
 2260              		.thumb_func
 2262              	lv_table_get_cell_value:
 2263              		@ args = 0, pretend = 0, frame = 0
 2264              		@ frame_needed = 0, uses_anonymous_args = 0
 2265              		@ link register save eliminated.
 2266 0000 C38C     		ldrh	r3, [r0, #38]
ARM GAS  /var/folders/lp/x54gwt890xv47sdkqj1k04q40000gn/T//ccga5Emc.s 			page 40


 2267 0002 8B42     		cmp	r3, r1
 2268 0004 0AD9     		bls	.L264
 2269 0006 838C     		ldrh	r3, [r0, #36]
 2270 0008 9342     		cmp	r3, r2
 2271 000a 09D9     		bls	.L265
 2272 000c 03FB0122 		mla	r2, r3, r1, r2
 2273 0010 836A     		ldr	r3, [r0, #40]
 2274 0012 53F82200 		ldr	r0, [r3, r2, lsl #2]
 2275 0016 28B1     		cbz	r0, .L266
 2276 0018 0830     		adds	r0, r0, #8
 2277 001a 7047     		bx	lr
 2278              	.L264:
 2279 001c 0248     		ldr	r0, .L267
 2280 001e 7047     		bx	lr
 2281              	.L265:
 2282 0020 0148     		ldr	r0, .L267
 2283 0022 7047     		bx	lr
 2284              	.L266:
 2285 0024 0048     		ldr	r0, .L267
 2286 0026 7047     		bx	lr
 2287              	.L268:
 2288              		.align	2
 2289              	.L267:
 2290 0028 00000000 		.word	.LC0
 2292              		.section	.text.lv_table_get_row_cnt,"ax",%progbits
 2293              		.align	1
 2294              		.global	lv_table_get_row_cnt
 2295              		.syntax unified
 2296              		.thumb
 2297              		.thumb_func
 2299              	lv_table_get_row_cnt:
 2300              		@ args = 0, pretend = 0, frame = 0
 2301              		@ frame_needed = 0, uses_anonymous_args = 0
 2302              		@ link register save eliminated.
 2303 0000 C08C     		ldrh	r0, [r0, #38]
 2304 0002 7047     		bx	lr
 2306              		.section	.text.lv_table_get_col_cnt,"ax",%progbits
 2307              		.align	1
 2308              		.global	lv_table_get_col_cnt
 2309              		.syntax unified
 2310              		.thumb
 2311              		.thumb_func
 2313              	lv_table_get_col_cnt:
 2314              		@ args = 0, pretend = 0, frame = 0
 2315              		@ frame_needed = 0, uses_anonymous_args = 0
 2316              		@ link register save eliminated.
 2317 0000 808C     		ldrh	r0, [r0, #36]
 2318 0002 7047     		bx	lr
 2320              		.section	.text.lv_table_get_col_width,"ax",%progbits
 2321              		.align	1
 2322              		.global	lv_table_get_col_width
 2323              		.syntax unified
 2324              		.thumb
 2325              		.thumb_func
 2327              	lv_table_get_col_width:
 2328              		@ args = 0, pretend = 0, frame = 0
 2329              		@ frame_needed = 0, uses_anonymous_args = 0
ARM GAS  /var/folders/lp/x54gwt890xv47sdkqj1k04q40000gn/T//ccga5Emc.s 			page 41


 2330              		@ link register save eliminated.
 2331 0000 838C     		ldrh	r3, [r0, #36]
 2332 0002 8B42     		cmp	r3, r1
 2333 0004 03D9     		bls	.L273
 2334 0006 036B     		ldr	r3, [r0, #48]
 2335 0008 33F91100 		ldrsh	r0, [r3, r1, lsl #1]
 2336 000c 7047     		bx	lr
 2337              	.L273:
 2338 000e 0020     		movs	r0, #0
 2339 0010 7047     		bx	lr
 2341              		.section	.text.lv_table_has_cell_ctrl,"ax",%progbits
 2342              		.align	1
 2343              		.global	lv_table_has_cell_ctrl
 2344              		.syntax unified
 2345              		.thumb
 2346              		.thumb_func
 2348              	lv_table_has_cell_ctrl:
 2349              		@ args = 0, pretend = 0, frame = 0
 2350              		@ frame_needed = 0, uses_anonymous_args = 0
 2351              		@ link register save eliminated.
 2352 0000 B0F826C0 		ldrh	ip, [r0, #38]
 2353 0004 8C45     		cmp	ip, r1
 2354 0006 0FD9     		bls	.L276
 2355 0008 B0F824C0 		ldrh	ip, [r0, #36]
 2356 000c 9445     		cmp	ip, r2
 2357 000e 0DD9     		bls	.L277
 2358 0010 0CFB0122 		mla	r2, ip, r1, r2
 2359 0014 816A     		ldr	r1, [r0, #40]
 2360 0016 51F82220 		ldr	r2, [r1, r2, lsl #2]
 2361 001a 4AB1     		cbz	r2, .L278
 2362 001c 1278     		ldrb	r2, [r2]	@ zero_extendqisi2
 2363 001e 9343     		bics	r3, r3, r2
 2364 0020 0CBF     		ite	eq
 2365 0022 0120     		moveq	r0, #1
 2366 0024 0020     		movne	r0, #0
 2367 0026 7047     		bx	lr
 2368              	.L276:
 2369 0028 0020     		movs	r0, #0
 2370 002a 7047     		bx	lr
 2371              	.L277:
 2372 002c 0020     		movs	r0, #0
 2373 002e 7047     		bx	lr
 2374              	.L278:
 2375 0030 0020     		movs	r0, #0
 2376 0032 7047     		bx	lr
 2378              		.section	.text.lv_table_get_selected_cell,"ax",%progbits
 2379              		.align	1
 2380              		.global	lv_table_get_selected_cell
 2381              		.syntax unified
 2382              		.thumb
 2383              		.thumb_func
 2385              	lv_table_get_selected_cell:
 2386              		@ args = 0, pretend = 0, frame = 0
 2387              		@ frame_needed = 0, uses_anonymous_args = 0
 2388              		@ link register save eliminated.
 2389 0000 C38E     		ldrh	r3, [r0, #54]
 2390 0002 0B80     		strh	r3, [r1]	@ movhi
ARM GAS  /var/folders/lp/x54gwt890xv47sdkqj1k04q40000gn/T//ccga5Emc.s 			page 42


 2391 0004 838E     		ldrh	r3, [r0, #52]
 2392 0006 1380     		strh	r3, [r2]	@ movhi
 2393 0008 7047     		bx	lr
 2395              		.section	.text.lv_table_get_cell_user_data,"ax",%progbits
 2396              		.align	1
 2397              		.global	lv_table_get_cell_user_data
 2398              		.syntax unified
 2399              		.thumb
 2400              		.thumb_func
 2402              	lv_table_get_cell_user_data:
 2403              		@ args = 0, pretend = 0, frame = 0
 2404              		@ frame_needed = 0, uses_anonymous_args = 0
 2405              		@ link register save eliminated.
 2406 0000 C38C     		ldrh	r3, [r0, #38]
 2407 0002 8B42     		cmp	r3, r1
 2408 0004 0AD9     		bls	.L282
 2409 0006 838C     		ldrh	r3, [r0, #36]
 2410 0008 9342     		cmp	r3, r2
 2411 000a 09D9     		bls	.L283
 2412 000c 03FB0122 		mla	r2, r3, r1, r2
 2413 0010 836A     		ldr	r3, [r0, #40]
 2414 0012 53F82200 		ldr	r0, [r3, r2, lsl #2]
 2415 0016 20B1     		cbz	r0, .L280
 2416 0018 4068     		ldr	r0, [r0, #4]
 2417 001a 7047     		bx	lr
 2418              	.L282:
 2419 001c 0020     		movs	r0, #0
 2420 001e 7047     		bx	lr
 2421              	.L283:
 2422 0020 0020     		movs	r0, #0
 2423              	.L280:
 2424 0022 7047     		bx	lr
 2426              		.global	lv_table_class
 2427              		.section	.rodata.lv_table_class,"a"
 2428              		.align	2
 2431              	lv_table_class:
 2432 0000 00000000 		.word	lv_obj_class
 2433 0004 00000000 		.word	lv_table_constructor
 2434 0008 00000000 		.word	lv_table_destructor
 2435 000c 00000000 		.space	4
 2436 0010 00000000 		.word	lv_table_event
 2437 0014 D127     		.short	10193
 2438 0016 D127     		.short	10193
 2439 0018 85       		.byte	133
 2440 0019 03       		.byte	3
 2441 001a 00       		.byte	0
 2442 001b 00       		.space	1
 2443              		.ident	"GCC: (xPack GNU Arm Embedded GCC arm64) 13.3.1 20240614"
ARM GAS  /var/folders/lp/x54gwt890xv47sdkqj1k04q40000gn/T//ccga5Emc.s 			page 43

