ARM GAS  /var/folders/lp/x54gwt890xv47sdkqj1k04q40000gn/T//ccGkd8Cp.s 			page 1


   1              		.cpu cortex-m4
   2              		.arch armv7e-m
   3              		.fpu fpv4-sp-d16
   4              		.eabi_attribute 27, 1
   5              		.eabi_attribute 28, 1
   6              		.eabi_attribute 20, 1
   7              		.eabi_attribute 21, 1
   8              		.eabi_attribute 23, 3
   9              		.eabi_attribute 24, 1
  10              		.eabi_attribute 25, 1
  11              		.eabi_attribute 26, 1
  12              		.eabi_attribute 30, 1
  13              		.eabi_attribute 34, 1
  14              		.eabi_attribute 18, 4
  15              		.file	"lv_tabview.c"
  16              		.text
  17              		.section	.text.lv_tabview_destructor,"ax",%progbits
  18              		.align	1
  19              		.syntax unified
  20              		.thumb
  21              		.thumb_func
  23              	lv_tabview_destructor:
  24              		@ args = 0, pretend = 0, frame = 0
  25              		@ frame_needed = 0, uses_anonymous_args = 0
  26 0000 38B5     		push	{r3, r4, r5, lr}
  27 0002 0C46     		mov	r4, r1
  28 0004 91F82C30 		ldrb	r3, [r1, #44]	@ zero_extendqisi2
  29 0008 13F00C0F 		tst	r3, #12
  30 000c 18D1     		bne	.L8
  31              	.L3:
  32 000e 94F82C30 		ldrb	r3, [r4, #44]	@ zero_extendqisi2
  33 0012 13F0030F 		tst	r3, #3
  34 0016 23D1     		bne	.L9
  35              	.L6:
  36 0018 606A     		ldr	r0, [r4, #36]
  37 001a FFF7FEFF 		bl	lv_mem_free
  38 001e 0023     		movs	r3, #0
  39 0020 6362     		str	r3, [r4, #36]
  40 0022 38BD     		pop	{r3, r4, r5, pc}
  41              	.L4:
  42 0024 636A     		ldr	r3, [r4, #36]
  43 0026 53F82500 		ldr	r0, [r3, r5, lsl #2]
  44 002a FFF7FEFF 		bl	lv_mem_free
  45 002e 636A     		ldr	r3, [r4, #36]
  46 0030 0022     		movs	r2, #0
  47 0032 43F82520 		str	r2, [r3, r5, lsl #2]
  48 0036 0135     		adds	r5, r5, #1
  49              	.L2:
  50 0038 238D     		ldrh	r3, [r4, #40]
  51 003a AB42     		cmp	r3, r5
  52 003c F2D8     		bhi	.L4
  53 003e E6E7     		b	.L3
  54              	.L8:
  55 0040 0025     		movs	r5, #0
  56 0042 F9E7     		b	.L2
  57              	.L7:
  58 0044 636A     		ldr	r3, [r4, #36]
ARM GAS  /var/folders/lp/x54gwt890xv47sdkqj1k04q40000gn/T//ccGkd8Cp.s 			page 2


  59 0046 53F83500 		ldr	r0, [r3, r5, lsl #3]
  60 004a FFF7FEFF 		bl	lv_mem_free
  61 004e 636A     		ldr	r3, [r4, #36]
  62 0050 0022     		movs	r2, #0
  63 0052 43F83520 		str	r2, [r3, r5, lsl #3]
  64 0056 0135     		adds	r5, r5, #1
  65              	.L5:
  66 0058 238D     		ldrh	r3, [r4, #40]
  67 005a AB42     		cmp	r3, r5
  68 005c F2D8     		bhi	.L7
  69 005e DBE7     		b	.L6
  70              	.L9:
  71 0060 0025     		movs	r5, #0
  72 0062 F9E7     		b	.L5
  74              		.section	.rodata.lv_tabview_constructor.str1.4,"aMS",%progbits,1
  75              		.align	2
  76              	.LC0:
  77 0000 00       		.ascii	"\000"
  78              		.section	.text.lv_tabview_constructor,"ax",%progbits
  79              		.align	1
  80              		.syntax unified
  81              		.thumb
  82              		.thumb_func
  84              	lv_tabview_constructor:
  85              		@ args = 0, pretend = 0, frame = 0
  86              		@ frame_needed = 0, uses_anonymous_args = 0
  87 0000 70B5     		push	{r4, r5, r6, lr}
  88 0002 0C46     		mov	r4, r1
  89 0004 524B     		ldr	r3, .L28
  90 0006 1B78     		ldrb	r3, [r3]	@ zero_extendqisi2
  91 0008 81F82C30 		strb	r3, [r1, #44]
  92 000c 013B     		subs	r3, r3, #1
  93 000e 072B     		cmp	r3, #7
  94 0010 09D8     		bhi	.L12
  95 0012 DFE803F0 		tbb	[pc, r3]
  96              	.L14:
  97 0016 59       		.byte	(.L17-.L14)/2
  98 0017 5E       		.byte	(.L16-.L14)/2
  99 0018 08       		.byte	(.L12-.L14)/2
 100 0019 04       		.byte	(.L15-.L14)/2
 101 001a 08       		.byte	(.L12-.L14)/2
 102 001b 08       		.byte	(.L12-.L14)/2
 103 001c 08       		.byte	(.L12-.L14)/2
 104 001d 54       		.byte	(.L13-.L14)/2
 105              		.p2align 1
 106              	.L15:
 107 001e 0121     		movs	r1, #1
 108 0020 2046     		mov	r0, r4
 109 0022 FFF7FEFF 		bl	lv_obj_set_flex_flow
 110              	.L12:
 111 0026 42F26402 		movw	r2, #8292
 112 002a 1146     		mov	r1, r2
 113 002c 2046     		mov	r0, r4
 114 002e FFF7FEFF 		bl	lv_obj_set_size
 115 0032 2046     		mov	r0, r4
 116 0034 FFF7FEFF 		bl	lv_btnmatrix_create
 117 0038 0646     		mov	r6, r0
ARM GAS  /var/folders/lp/x54gwt890xv47sdkqj1k04q40000gn/T//ccGkd8Cp.s 			page 3


 118 003a 2046     		mov	r0, r4
 119 003c FFF7FEFF 		bl	lv_obj_create
 120 0040 0546     		mov	r5, r0
 121 0042 0121     		movs	r1, #1
 122 0044 3046     		mov	r0, r6
 123 0046 FFF7FEFF 		bl	lv_btnmatrix_set_one_checked
 124 004a 0420     		movs	r0, #4
 125 004c FFF7FEFF 		bl	lv_mem_alloc
 126 0050 6062     		str	r0, [r4, #36]
 127 0052 404B     		ldr	r3, .L28+4
 128 0054 0360     		str	r3, [r0]
 129 0056 616A     		ldr	r1, [r4, #36]
 130 0058 3046     		mov	r0, r6
 131 005a FFF7FEFF 		bl	lv_btnmatrix_set_map
 132 005e 0023     		movs	r3, #0
 133 0060 1C22     		movs	r2, #28
 134 0062 3D49     		ldr	r1, .L28+8
 135 0064 3046     		mov	r0, r6
 136 0066 FFF7FEFF 		bl	lv_obj_add_event_cb
 137 006a 4FF48041 		mov	r1, #16384
 138 006e 3046     		mov	r0, r6
 139 0070 FFF7FEFF 		bl	lv_obj_add_flag
 140 0074 0023     		movs	r3, #0
 141 0076 1A46     		mov	r2, r3
 142 0078 3849     		ldr	r1, .L28+12
 143 007a 2846     		mov	r0, r5
 144 007c FFF7FEFF 		bl	lv_obj_add_event_cb
 145 0080 0021     		movs	r1, #0
 146 0082 2846     		mov	r0, r5
 147 0084 FFF7FEFF 		bl	lv_obj_set_scrollbar_mode
 148 0088 94F82C30 		ldrb	r3, [r4, #44]	@ zero_extendqisi2
 149 008c 042B     		cmp	r3, #4
 150 008e 27D0     		beq	.L18
 151 0090 24D8     		bhi	.L19
 152 0092 013B     		subs	r3, r3, #1
 153 0094 DBB2     		uxtb	r3, r3
 154 0096 012B     		cmp	r3, #1
 155 0098 33D8     		bhi	.L20
 156 009a 42F26402 		movw	r2, #8292
 157 009e 304B     		ldr	r3, .L28+16
 158 00a0 B3F90010 		ldrsh	r1, [r3]
 159 00a4 3046     		mov	r0, r6
 160 00a6 FFF7FEFF 		bl	lv_obj_set_size
 161 00aa 42F26401 		movw	r1, #8292
 162 00ae 2846     		mov	r0, r5
 163 00b0 FFF7FEFF 		bl	lv_obj_set_height
 164 00b4 0121     		movs	r1, #1
 165 00b6 2846     		mov	r0, r5
 166 00b8 FFF7FEFF 		bl	lv_obj_set_flex_grow
 167 00bc 21E0     		b	.L20
 168              	.L13:
 169 00be 0921     		movs	r1, #9
 170 00c0 2046     		mov	r0, r4
 171 00c2 FFF7FEFF 		bl	lv_obj_set_flex_flow
 172 00c6 AEE7     		b	.L12
 173              	.L17:
 174 00c8 0021     		movs	r1, #0
ARM GAS  /var/folders/lp/x54gwt890xv47sdkqj1k04q40000gn/T//ccGkd8Cp.s 			page 4


 175 00ca 2046     		mov	r0, r4
 176 00cc FFF7FEFF 		bl	lv_obj_set_flex_flow
 177 00d0 A9E7     		b	.L12
 178              	.L16:
 179 00d2 0821     		movs	r1, #8
 180 00d4 2046     		mov	r0, r4
 181 00d6 FFF7FEFF 		bl	lv_obj_set_flex_flow
 182 00da A4E7     		b	.L12
 183              	.L19:
 184 00dc 082B     		cmp	r3, #8
 185 00de 10D1     		bne	.L20
 186              	.L18:
 187 00e0 1F4B     		ldr	r3, .L28+16
 188 00e2 B3F90020 		ldrsh	r2, [r3]
 189 00e6 42F26401 		movw	r1, #8292
 190 00ea 3046     		mov	r0, r6
 191 00ec FFF7FEFF 		bl	lv_obj_set_size
 192 00f0 42F26401 		movw	r1, #8292
 193 00f4 2846     		mov	r0, r5
 194 00f6 FFF7FEFF 		bl	lv_obj_set_width
 195 00fa 0121     		movs	r1, #1
 196 00fc 2846     		mov	r0, r5
 197 00fe FFF7FEFF 		bl	lv_obj_set_flex_grow
 198              	.L20:
 199 0102 FFF7FEFF 		bl	lv_group_get_default
 200 0106 10B1     		cbz	r0, .L22
 201 0108 3146     		mov	r1, r6
 202 010a FFF7FEFF 		bl	lv_group_add_obj
 203              	.L22:
 204 010e 94F82C30 		ldrb	r3, [r4, #44]	@ zero_extendqisi2
 205 0112 13F00C0F 		tst	r3, #12
 206 0116 11D0     		beq	.L23
 207 0118 0021     		movs	r1, #0
 208 011a 2846     		mov	r0, r5
 209 011c FFF7FEFF 		bl	lv_obj_set_flex_flow
 210 0120 0321     		movs	r1, #3
 211 0122 2846     		mov	r0, r5
 212 0124 FFF7FEFF 		bl	lv_obj_set_scroll_snap_x
 213              	.L24:
 214 0128 8021     		movs	r1, #128
 215 012a 2846     		mov	r0, r5
 216 012c FFF7FEFF 		bl	lv_obj_add_flag
 217 0130 4FF48061 		mov	r1, #1024
 218 0134 2846     		mov	r0, r5
 219 0136 FFF7FEFF 		bl	lv_obj_clear_flag
 220 013a 70BD     		pop	{r4, r5, r6, pc}
 221              	.L23:
 222 013c 0121     		movs	r1, #1
 223 013e 2846     		mov	r0, r5
 224 0140 FFF7FEFF 		bl	lv_obj_set_flex_flow
 225 0144 0321     		movs	r1, #3
 226 0146 2846     		mov	r0, r5
 227 0148 FFF7FEFF 		bl	lv_obj_set_scroll_snap_y
 228 014c ECE7     		b	.L24
 229              	.L29:
 230 014e 00BF     		.align	2
 231              	.L28:
ARM GAS  /var/folders/lp/x54gwt890xv47sdkqj1k04q40000gn/T//ccGkd8Cp.s 			page 5


 232 0150 00000000 		.word	tabpos_create
 233 0154 00000000 		.word	.LC0
 234 0158 00000000 		.word	btns_value_changed_event_cb
 235 015c 00000000 		.word	cont_scroll_end_event_cb
 236 0160 00000000 		.word	tabsize_create
 238              		.section	.text.lv_tabview_create,"ax",%progbits
 239              		.align	1
 240              		.global	lv_tabview_create
 241              		.syntax unified
 242              		.thumb
 243              		.thumb_func
 245              	lv_tabview_create:
 246              		@ args = 0, pretend = 0, frame = 0
 247              		@ frame_needed = 0, uses_anonymous_args = 0
 248 0000 10B5     		push	{r4, lr}
 249 0002 064B     		ldr	r3, .L32
 250 0004 1970     		strb	r1, [r3]
 251 0006 064B     		ldr	r3, .L32+4
 252 0008 1A80     		strh	r2, [r3]	@ movhi
 253 000a 0146     		mov	r1, r0
 254 000c 0548     		ldr	r0, .L32+8
 255 000e FFF7FEFF 		bl	lv_obj_class_create_obj
 256 0012 0446     		mov	r4, r0
 257 0014 FFF7FEFF 		bl	lv_obj_class_init_obj
 258 0018 2046     		mov	r0, r4
 259 001a 10BD     		pop	{r4, pc}
 260              	.L33:
 261              		.align	2
 262              	.L32:
 263 001c 00000000 		.word	tabpos_create
 264 0020 00000000 		.word	tabsize_create
 265 0024 00000000 		.word	lv_tabview_class
 267              		.section	.text.lv_tabview_rename_tab,"ax",%progbits
 268              		.align	1
 269              		.global	lv_tabview_rename_tab
 270              		.syntax unified
 271              		.thumb
 272              		.thumb_func
 274              	lv_tabview_rename_tab:
 275              		@ args = 0, pretend = 0, frame = 0
 276              		@ frame_needed = 0, uses_anonymous_args = 0
 277 0000 F8B5     		push	{r3, r4, r5, r6, r7, lr}
 278 0002 038D     		ldrh	r3, [r0, #40]
 279 0004 8B42     		cmp	r3, r1
 280 0006 1FD9     		bls	.L34
 281 0008 0446     		mov	r4, r0
 282 000a 0D46     		mov	r5, r1
 283 000c 1646     		mov	r6, r2
 284 000e 90F82C30 		ldrb	r3, [r0, #44]	@ zero_extendqisi2
 285 0012 13F0030F 		tst	r3, #3
 286 0016 00D0     		beq	.L36
 287 0018 4D00     		lsls	r5, r1, #1
 288              	.L36:
 289 001a 636A     		ldr	r3, [r4, #36]
 290 001c 53F82500 		ldr	r0, [r3, r5, lsl #2]
 291 0020 FFF7FEFF 		bl	lv_mem_free
 292 0024 3046     		mov	r0, r6
ARM GAS  /var/folders/lp/x54gwt890xv47sdkqj1k04q40000gn/T//ccGkd8Cp.s 			page 6


 293 0026 FFF7FEFF 		bl	strlen
 294 002a 676A     		ldr	r7, [r4, #36]
 295 002c 0130     		adds	r0, r0, #1
 296 002e FFF7FEFF 		bl	lv_mem_alloc
 297 0032 47F82500 		str	r0, [r7, r5, lsl #2]
 298 0036 636A     		ldr	r3, [r4, #36]
 299 0038 3146     		mov	r1, r6
 300 003a 53F82500 		ldr	r0, [r3, r5, lsl #2]
 301 003e FFF7FEFF 		bl	strcpy
 302 0042 2046     		mov	r0, r4
 303 0044 FFF7FEFF 		bl	lv_obj_invalidate
 304              	.L34:
 305 0048 F8BD     		pop	{r3, r4, r5, r6, r7, pc}
 307              		.section	.text.lv_tabview_get_tab_act,"ax",%progbits
 308              		.align	1
 309              		.global	lv_tabview_get_tab_act
 310              		.syntax unified
 311              		.thumb
 312              		.thumb_func
 314              	lv_tabview_get_tab_act:
 315              		@ args = 0, pretend = 0, frame = 0
 316              		@ frame_needed = 0, uses_anonymous_args = 0
 317              		@ link register save eliminated.
 318 0000 408D     		ldrh	r0, [r0, #42]
 319 0002 7047     		bx	lr
 321              		.section	.text.lv_tabview_get_content,"ax",%progbits
 322              		.align	1
 323              		.global	lv_tabview_get_content
 324              		.syntax unified
 325              		.thumb
 326              		.thumb_func
 328              	lv_tabview_get_content:
 329              		@ args = 0, pretend = 0, frame = 0
 330              		@ frame_needed = 0, uses_anonymous_args = 0
 331 0000 08B5     		push	{r3, lr}
 332 0002 0121     		movs	r1, #1
 333 0004 FFF7FEFF 		bl	lv_obj_get_child
 334 0008 08BD     		pop	{r3, pc}
 336              		.section	.text.lv_tabview_get_tab_btns,"ax",%progbits
 337              		.align	1
 338              		.global	lv_tabview_get_tab_btns
 339              		.syntax unified
 340              		.thumb
 341              		.thumb_func
 343              	lv_tabview_get_tab_btns:
 344              		@ args = 0, pretend = 0, frame = 0
 345              		@ frame_needed = 0, uses_anonymous_args = 0
 346 0000 08B5     		push	{r3, lr}
 347 0002 0021     		movs	r1, #0
 348 0004 FFF7FEFF 		bl	lv_obj_get_child
 349 0008 08BD     		pop	{r3, pc}
 351              		.section	.text.lv_tabview_set_act,"ax",%progbits
 352              		.align	1
 353              		.global	lv_tabview_set_act
 354              		.syntax unified
 355              		.thumb
 356              		.thumb_func
ARM GAS  /var/folders/lp/x54gwt890xv47sdkqj1k04q40000gn/T//ccGkd8Cp.s 			page 7


 358              	lv_tabview_set_act:
 359              		@ args = 0, pretend = 0, frame = 0
 360              		@ frame_needed = 0, uses_anonymous_args = 0
 361 0000 2DE9F843 		push	{r3, r4, r5, r6, r7, r8, r9, lr}
 362 0004 90F82330 		ldrb	r3, [r0, #35]	@ zero_extendqisi2
 363 0008 13F0100F 		tst	r3, #16
 364 000c 57D1     		bne	.L43
 365 000e 0446     		mov	r4, r0
 366 0010 0D46     		mov	r5, r1
 367 0012 1646     		mov	r6, r2
 368 0014 038D     		ldrh	r3, [r0, #40]
 369 0016 8B42     		cmp	r3, r1
 370 0018 00D8     		bhi	.L45
 371 001a 5D1E     		subs	r5, r3, #1
 372              	.L45:
 373 001c 2046     		mov	r0, r4
 374 001e FFF7FEFF 		bl	lv_obj_update_layout
 375 0022 2046     		mov	r0, r4
 376 0024 FFF7FEFF 		bl	lv_tabview_get_content
 377 0028 0746     		mov	r7, r0
 378 002a 0028     		cmp	r0, #0
 379 002c 47D0     		beq	.L43
 380 002e 94F82C30 		ldrb	r3, [r4, #44]	@ zero_extendqisi2
 381 0032 13F00C0F 		tst	r3, #12
 382 0036 26D0     		beq	.L46
 383 0038 1522     		movs	r2, #21
 384 003a 0021     		movs	r1, #0
 385 003c FFF7FEFF 		bl	lv_obj_get_style_prop
 386 0040 0FFA80F8 		sxth	r8, r0
 387 0044 3846     		mov	r0, r7
 388 0046 FFF7FEFF 		bl	lv_obj_get_content_width
 389 004a 8146     		mov	r9, r0
 390 004c 1622     		movs	r2, #22
 391 004e 0021     		movs	r1, #0
 392 0050 2046     		mov	r0, r4
 393 0052 FFF7FEFF 		bl	lv_obj_get_style_prop
 394 0056 C3B2     		uxtb	r3, r0
 395 0058 012B     		cmp	r3, #1
 396 005a 09D0     		beq	.L47
 397 005c 08EB0901 		add	r1, r8, r9
 398 0060 11FB05F1 		smulbb	r1, r1, r5
 399 0064 3246     		mov	r2, r6
 400 0066 09B2     		sxth	r1, r1
 401 0068 3846     		mov	r0, r7
 402 006a FFF7FEFF 		bl	lv_obj_scroll_to_x
 403 006e 1CE0     		b	.L48
 404              	.L47:
 405 0070 6B42     		rsbs	r3, r5, #0
 406 0072 08EB0900 		add	r0, r8, r9
 407 0076 10FB03F1 		smulbb	r1, r0, r3
 408 007a 3246     		mov	r2, r6
 409 007c 09B2     		sxth	r1, r1
 410 007e 3846     		mov	r0, r7
 411 0080 FFF7FEFF 		bl	lv_obj_scroll_to_x
 412 0084 11E0     		b	.L48
 413              	.L46:
 414 0086 1422     		movs	r2, #20
ARM GAS  /var/folders/lp/x54gwt890xv47sdkqj1k04q40000gn/T//ccGkd8Cp.s 			page 8


 415 0088 0021     		movs	r1, #0
 416 008a FFF7FEFF 		bl	lv_obj_get_style_prop
 417 008e 0FFA80F8 		sxth	r8, r0
 418 0092 3846     		mov	r0, r7
 419 0094 FFF7FEFF 		bl	lv_obj_get_content_height
 420 0098 08EB0001 		add	r1, r8, r0
 421 009c 11FB05F1 		smulbb	r1, r1, r5
 422 00a0 3246     		mov	r2, r6
 423 00a2 09B2     		sxth	r1, r1
 424 00a4 3846     		mov	r0, r7
 425 00a6 FFF7FEFF 		bl	lv_obj_scroll_to_y
 426              	.L48:
 427 00aa 2046     		mov	r0, r4
 428 00ac FFF7FEFF 		bl	lv_tabview_get_tab_btns
 429 00b0 ADB2     		uxth	r5, r5
 430 00b2 4FF48072 		mov	r2, #256
 431 00b6 2946     		mov	r1, r5
 432 00b8 FFF7FEFF 		bl	lv_btnmatrix_set_btn_ctrl
 433 00bc 6585     		strh	r5, [r4, #42]	@ movhi
 434              	.L43:
 435 00be BDE8F883 		pop	{r3, r4, r5, r6, r7, r8, r9, pc}
 437              		.section	.text.lv_tabview_event,"ax",%progbits
 438              		.align	1
 439              		.syntax unified
 440              		.thumb
 441              		.thumb_func
 443              	lv_tabview_event:
 444              		@ args = 0, pretend = 0, frame = 0
 445              		@ frame_needed = 0, uses_anonymous_args = 0
 446 0000 38B5     		push	{r3, r4, r5, lr}
 447 0002 0C46     		mov	r4, r1
 448 0004 0B48     		ldr	r0, .L54
 449 0006 FFF7FEFF 		bl	lv_obj_event_base
 450 000a 0128     		cmp	r0, #1
 451 000c 00D0     		beq	.L53
 452              	.L50:
 453 000e 38BD     		pop	{r3, r4, r5, pc}
 454              	.L53:
 455 0010 2046     		mov	r0, r4
 456 0012 FFF7FEFF 		bl	lv_event_get_code
 457 0016 0546     		mov	r5, r0
 458 0018 2046     		mov	r0, r4
 459 001a FFF7FEFF 		bl	lv_event_get_target
 460 001e 0446     		mov	r4, r0
 461 0020 292D     		cmp	r5, #41
 462 0022 F4D1     		bne	.L50
 463 0024 FFF7FEFF 		bl	lv_tabview_get_tab_act
 464 0028 0146     		mov	r1, r0
 465 002a 0022     		movs	r2, #0
 466 002c 2046     		mov	r0, r4
 467 002e FFF7FEFF 		bl	lv_tabview_set_act
 468 0032 ECE7     		b	.L50
 469              	.L55:
 470              		.align	2
 471              	.L54:
 472 0034 00000000 		.word	lv_tabview_class
 474              		.section	.text.cont_scroll_end_event_cb,"ax",%progbits
ARM GAS  /var/folders/lp/x54gwt890xv47sdkqj1k04q40000gn/T//ccGkd8Cp.s 			page 9


 475              		.align	1
 476              		.syntax unified
 477              		.thumb
 478              		.thumb_func
 480              	cont_scroll_end_event_cb:
 481              		@ args = 0, pretend = 0, frame = 8
 482              		@ frame_needed = 0, uses_anonymous_args = 0
 483 0000 70B5     		push	{r4, r5, r6, lr}
 484 0002 82B0     		sub	sp, sp, #8
 485 0004 0446     		mov	r4, r0
 486 0006 FFF7FEFF 		bl	lv_event_get_target
 487 000a 0546     		mov	r5, r0
 488 000c 2046     		mov	r0, r4
 489 000e FFF7FEFF 		bl	lv_event_get_code
 490 0012 0446     		mov	r4, r0
 491 0014 2846     		mov	r0, r5
 492 0016 FFF7FEFF 		bl	lv_obj_get_parent
 493 001a 0646     		mov	r6, r0
 494 001c 2B2C     		cmp	r4, #43
 495 001e 03D0     		beq	.L69
 496 0020 0A2C     		cmp	r4, #10
 497 0022 09D0     		beq	.L70
 498              	.L56:
 499 0024 02B0     		add	sp, sp, #8
 500              		@ sp needed
 501 0026 70BD     		pop	{r4, r5, r6, pc}
 502              	.L69:
 503 0028 FFF7FEFF 		bl	lv_tabview_get_tab_act
 504 002c 0146     		mov	r1, r0
 505 002e 0022     		movs	r2, #0
 506 0030 3046     		mov	r0, r6
 507 0032 FFF7FEFF 		bl	lv_tabview_set_act
 508 0036 F5E7     		b	.L56
 509              	.L70:
 510 0038 FFF7FEFF 		bl	lv_indev_get_act
 511 003c 10B1     		cbz	r0, .L59
 512 003e 0379     		ldrb	r3, [r0, #4]	@ zero_extendqisi2
 513 0040 012B     		cmp	r3, #1
 514 0042 EFD0     		beq	.L56
 515              	.L59:
 516 0044 01A9     		add	r1, sp, #4
 517 0046 2846     		mov	r0, r5
 518 0048 FFF7FEFF 		bl	lv_obj_get_scroll_end
 519 004c 96F82C30 		ldrb	r3, [r6, #44]	@ zero_extendqisi2
 520 0050 13F00C0F 		tst	r3, #12
 521 0054 21D0     		beq	.L60
 522 0056 2846     		mov	r0, r5
 523 0058 FFF7FEFF 		bl	lv_obj_get_content_width
 524 005c 0546     		mov	r5, r0
 525 005e 1622     		movs	r2, #22
 526 0060 0021     		movs	r1, #0
 527 0062 3046     		mov	r0, r6
 528 0064 FFF7FEFF 		bl	lv_obj_get_style_prop
 529 0068 C0B2     		uxtb	r0, r0
 530 006a 0128     		cmp	r0, #1
 531 006c 0AD0     		beq	.L71
 532 006e BDF90440 		ldrsh	r4, [sp, #4]
ARM GAS  /var/folders/lp/x54gwt890xv47sdkqj1k04q40000gn/T//ccGkd8Cp.s 			page 10


 533 0072 05EBD573 		add	r3, r5, r5, lsr #31
 534 0076 43F34F03 		sbfx	r3, r3, #1, #16
 535 007a 1C44     		add	r4, r4, r3
 536 007c 94FBF5F4 		sdiv	r4, r4, r5
 537 0080 24B2     		sxth	r4, r4
 538 0082 17E0     		b	.L62
 539              	.L71:
 540 0084 05EBD574 		add	r4, r5, r5, lsr #31
 541 0088 44F34F04 		sbfx	r4, r4, #1, #16
 542 008c BDF90430 		ldrsh	r3, [sp, #4]
 543 0090 E41A     		subs	r4, r4, r3
 544 0092 94FBF5F0 		sdiv	r0, r4, r5
 545 0096 04B2     		sxth	r4, r0
 546 0098 0CE0     		b	.L62
 547              	.L60:
 548 009a 2846     		mov	r0, r5
 549 009c FFF7FEFF 		bl	lv_obj_get_content_height
 550 00a0 BDF90640 		ldrsh	r4, [sp, #6]
 551 00a4 00EBD073 		add	r3, r0, r0, lsr #31
 552 00a8 43F34F03 		sbfx	r3, r3, #1, #16
 553 00ac 1C44     		add	r4, r4, r3
 554 00ae 94FBF0F4 		sdiv	r4, r4, r0
 555 00b2 24B2     		sxth	r4, r4
 556              	.L62:
 557 00b4 002C     		cmp	r4, #0
 558 00b6 12DB     		blt	.L72
 559              	.L63:
 560 00b8 3046     		mov	r0, r6
 561 00ba FFF7FEFF 		bl	lv_tabview_get_tab_act
 562 00be 8442     		cmp	r4, r0
 563 00c0 0FD0     		beq	.L73
 564 00c2 0125     		movs	r5, #1
 565              	.L64:
 566 00c4 0122     		movs	r2, #1
 567 00c6 2146     		mov	r1, r4
 568 00c8 3046     		mov	r0, r6
 569 00ca FFF7FEFF 		bl	lv_tabview_set_act
 570 00ce 002D     		cmp	r5, #0
 571 00d0 A8D0     		beq	.L56
 572 00d2 0022     		movs	r2, #0
 573 00d4 1C21     		movs	r1, #28
 574 00d6 3046     		mov	r0, r6
 575 00d8 FFF7FEFF 		bl	lv_event_send
 576 00dc A2E7     		b	.L56
 577              	.L72:
 578 00de 0024     		movs	r4, #0
 579 00e0 EAE7     		b	.L63
 580              	.L73:
 581 00e2 0025     		movs	r5, #0
 582 00e4 EEE7     		b	.L64
 584              		.section	.text.btns_value_changed_event_cb,"ax",%progbits
 585              		.align	1
 586              		.syntax unified
 587              		.thumb
 588              		.thumb_func
 590              	btns_value_changed_event_cb:
 591              		@ args = 0, pretend = 0, frame = 0
ARM GAS  /var/folders/lp/x54gwt890xv47sdkqj1k04q40000gn/T//ccGkd8Cp.s 			page 11


 592              		@ frame_needed = 0, uses_anonymous_args = 0
 593 0000 38B5     		push	{r3, r4, r5, lr}
 594 0002 FFF7FEFF 		bl	lv_event_get_target
 595 0006 0546     		mov	r5, r0
 596 0008 FFF7FEFF 		bl	lv_obj_get_parent
 597 000c 0446     		mov	r4, r0
 598 000e 2846     		mov	r0, r5
 599 0010 FFF7FEFF 		bl	lv_btnmatrix_get_selected_btn
 600 0014 0146     		mov	r1, r0
 601 0016 0022     		movs	r2, #0
 602 0018 2046     		mov	r0, r4
 603 001a FFF7FEFF 		bl	lv_tabview_set_act
 604 001e 38BD     		pop	{r3, r4, r5, pc}
 606              		.section	.rodata.lv_tabview_add_tab.str1.4,"aMS",%progbits,1
 607              		.align	2
 608              	.LC1:
 609 0000 0A00     		.ascii	"\012\000"
 610              		.section	.text.lv_tabview_add_tab,"ax",%progbits
 611              		.align	1
 612              		.global	lv_tabview_add_tab
 613              		.syntax unified
 614              		.thumb
 615              		.thumb_func
 617              	lv_tabview_add_tab:
 618              		@ args = 0, pretend = 0, frame = 0
 619              		@ frame_needed = 0, uses_anonymous_args = 0
 620 0000 2DE9F84F 		push	{r3, r4, r5, r6, r7, r8, r9, r10, fp, lr}
 621 0004 0446     		mov	r4, r0
 622 0006 8946     		mov	r9, r1
 623 0008 FFF7FEFF 		bl	lv_tabview_get_content
 624 000c 0546     		mov	r5, r0
 625 000e FFF7FEFF 		bl	lv_obj_create
 626 0012 8046     		mov	r8, r0
 627 0014 42F26402 		movw	r2, #8292
 628 0018 1146     		mov	r1, r2
 629 001a FFF7FEFF 		bl	lv_obj_set_size
 630 001e 0421     		movs	r1, #4
 631 0020 4046     		mov	r0, r8
 632 0022 FFF7FEFF 		bl	lv_obj_clear_flag
 633 0026 2846     		mov	r0, r5
 634 0028 FFF7FEFF 		bl	lv_obj_get_child_cnt
 635 002c 0646     		mov	r6, r0
 636 002e 2046     		mov	r0, r4
 637 0030 FFF7FEFF 		bl	lv_tabview_get_tab_btns
 638 0034 0746     		mov	r7, r0
 639 0036 D4F824A0 		ldr	r10, [r4, #36]
 640 003a 94F82C30 		ldrb	r3, [r4, #44]	@ zero_extendqisi2
 641 003e 13F00C0F 		tst	r3, #12
 642 0042 3ED0     		beq	.L77
 643 0044 701C     		adds	r0, r6, #1
 644 0046 8000     		lsls	r0, r0, #2
 645 0048 FFF7FEFF 		bl	lv_mem_alloc
 646 004c 0546     		mov	r5, r0
 647 004e 731E     		subs	r3, r6, #1
 648 0050 9B00     		lsls	r3, r3, #2
 649 0052 5146     		mov	r1, r10
 650 0054 0246     		mov	r2, r0
ARM GAS  /var/folders/lp/x54gwt890xv47sdkqj1k04q40000gn/T//ccGkd8Cp.s 			page 12


 651 0056 04E0     		b	.L78
 652              	.L79:
 653 0058 11F8010B 		ldrb	r0, [r1], #1	@ zero_extendqisi2
 654 005c 02F8010B 		strb	r0, [r2], #1
 655 0060 013B     		subs	r3, r3, #1
 656              	.L78:
 657 0062 002B     		cmp	r3, #0
 658 0064 F8D1     		bne	.L79
 659 0066 4846     		mov	r0, r9
 660 0068 FFF7FEFF 		bl	strlen
 661 006c 06F1804B 		add	fp, r6, #1073741824
 662 0070 0BF1FF3B 		add	fp, fp, #-1
 663 0074 0130     		adds	r0, r0, #1
 664 0076 FFF7FEFF 		bl	lv_mem_alloc
 665 007a 45F82B00 		str	r0, [r5, fp, lsl #2]
 666 007e 4946     		mov	r1, r9
 667 0080 FFF7FEFF 		bl	strcpy
 668 0084 2F4B     		ldr	r3, .L87
 669 0086 45F82630 		str	r3, [r5, r6, lsl #2]
 670              	.L80:
 671 008a 6562     		str	r5, [r4, #36]
 672 008c 2946     		mov	r1, r5
 673 008e 3846     		mov	r0, r7
 674 0090 FFF7FEFF 		bl	lv_btnmatrix_set_map
 675 0094 5046     		mov	r0, r10
 676 0096 FFF7FEFF 		bl	lv_mem_free
 677 009a 4FF42871 		mov	r1, #672
 678 009e 3846     		mov	r0, r7
 679 00a0 FFF7FEFF 		bl	lv_btnmatrix_set_btn_ctrl_all
 680 00a4 238D     		ldrh	r3, [r4, #40]
 681 00a6 0133     		adds	r3, r3, #1
 682 00a8 9BB2     		uxth	r3, r3
 683 00aa 2385     		strh	r3, [r4, #40]	@ movhi
 684 00ac 012B     		cmp	r3, #1
 685 00ae 43D0     		beq	.L86
 686              	.L84:
 687 00b0 4FF48072 		mov	r2, #256
 688 00b4 618D     		ldrh	r1, [r4, #42]
 689 00b6 3846     		mov	r0, r7
 690 00b8 FFF7FEFF 		bl	lv_btnmatrix_set_btn_ctrl
 691 00bc 4046     		mov	r0, r8
 692 00be BDE8F88F 		pop	{r3, r4, r5, r6, r7, r8, r9, r10, fp, pc}
 693              	.L77:
 694 00c2 4FEAC60B 		lsl	fp, r6, #3
 695 00c6 5846     		mov	r0, fp
 696 00c8 FFF7FEFF 		bl	lv_mem_alloc
 697 00cc 0546     		mov	r5, r0
 698 00ce 731E     		subs	r3, r6, #1
 699 00d0 DB00     		lsls	r3, r3, #3
 700 00d2 5146     		mov	r1, r10
 701 00d4 0246     		mov	r2, r0
 702 00d6 04E0     		b	.L81
 703              	.L82:
 704 00d8 11F8010B 		ldrb	r0, [r1], #1	@ zero_extendqisi2
 705 00dc 02F8010B 		strb	r0, [r2], #1
 706 00e0 013B     		subs	r3, r3, #1
 707              	.L81:
ARM GAS  /var/folders/lp/x54gwt890xv47sdkqj1k04q40000gn/T//ccGkd8Cp.s 			page 13


 708 00e2 002B     		cmp	r3, #0
 709 00e4 F8D1     		bne	.L82
 710 00e6 238D     		ldrh	r3, [r4, #40]
 711 00e8 63B9     		cbnz	r3, .L83
 712 00ea 4846     		mov	r0, r9
 713 00ec FFF7FEFF 		bl	strlen
 714 00f0 0130     		adds	r0, r0, #1
 715 00f2 FFF7FEFF 		bl	lv_mem_alloc
 716 00f6 2860     		str	r0, [r5]
 717 00f8 4946     		mov	r1, r9
 718 00fa FFF7FEFF 		bl	strcpy
 719 00fe 114B     		ldr	r3, .L87
 720 0100 6B60     		str	r3, [r5, #4]
 721 0102 C2E7     		b	.L80
 722              	.L83:
 723 0104 ABF10C03 		sub	r3, fp, #12
 724 0108 0F4A     		ldr	r2, .L87+4
 725 010a EA50     		str	r2, [r5, r3]
 726 010c 4846     		mov	r0, r9
 727 010e FFF7FEFF 		bl	strlen
 728 0112 06F10056 		add	r6, r6, #536870912
 729 0116 013E     		subs	r6, r6, #1
 730 0118 0130     		adds	r0, r0, #1
 731 011a FFF7FEFF 		bl	lv_mem_alloc
 732 011e 45F83600 		str	r0, [r5, r6, lsl #3]
 733 0122 ABF1040B 		sub	fp, fp, #4
 734 0126 074B     		ldr	r3, .L87
 735 0128 45F80B30 		str	r3, [r5, fp]
 736 012c 4946     		mov	r1, r9
 737 012e 55F83600 		ldr	r0, [r5, r6, lsl #3]
 738 0132 FFF7FEFF 		bl	strcpy
 739 0136 A8E7     		b	.L80
 740              	.L86:
 741 0138 0022     		movs	r2, #0
 742 013a 1146     		mov	r1, r2
 743 013c 2046     		mov	r0, r4
 744 013e FFF7FEFF 		bl	lv_tabview_set_act
 745 0142 B5E7     		b	.L84
 746              	.L88:
 747              		.align	2
 748              	.L87:
 749 0144 00000000 		.word	.LC0
 750 0148 00000000 		.word	.LC1
 752              		.section	.bss.tabsize_create,"aw",%nobits
 753              		.align	1
 756              	tabsize_create:
 757 0000 0000     		.space	2
 758              		.section	.bss.tabpos_create,"aw",%nobits
 761              	tabpos_create:
 762 0000 00       		.space	1
 763              		.global	lv_tabview_class
 764              		.section	.rodata.lv_tabview_class,"a"
 765              		.align	2
 768              	lv_tabview_class:
 769 0000 00000000 		.word	lv_obj_class
 770 0004 00000000 		.word	lv_tabview_constructor
 771 0008 00000000 		.word	lv_tabview_destructor
ARM GAS  /var/folders/lp/x54gwt890xv47sdkqj1k04q40000gn/T//ccGkd8Cp.s 			page 14


 772 000c 00000000 		.space	4
 773 0010 00000000 		.word	lv_tabview_event
 774 0014 6420     		.short	8292
 775 0016 6420     		.short	8292
 776 0018 00       		.byte	0
 777 0019 03       		.byte	3
 778 001a 00       		.byte	0
 779 001b 00       		.space	1
 780              		.ident	"GCC: (xPack GNU Arm Embedded GCC arm64) 13.3.1 20240614"
ARM GAS  /var/folders/lp/x54gwt890xv47sdkqj1k04q40000gn/T//ccGkd8Cp.s 			page 15

