ARM GAS  /var/folders/lp/x54gwt890xv47sdkqj1k04q40000gn/T//ccubb3Th.s 			page 1


   1              		.cpu cortex-m4
   2              		.arch armv7e-m
   3              		.fpu fpv4-sp-d16
   4              		.eabi_attribute 27, 1
   5              		.eabi_attribute 28, 1
   6              		.eabi_attribute 20, 1
   7              		.eabi_attribute 21, 1
   8              		.eabi_attribute 23, 3
   9              		.eabi_attribute 24, 1
  10              		.eabi_attribute 25, 1
  11              		.eabi_attribute 26, 1
  12              		.eabi_attribute 30, 1
  13              		.eabi_attribute 34, 1
  14              		.eabi_attribute 18, 4
  15              		.file	"main.c"
  16              		.text
  17              		.section	.text.lv_scr_act,"ax",%progbits
  18              		.align	1
  19              		.syntax unified
  20              		.thumb
  21              		.thumb_func
  23              	lv_scr_act:
  24              		@ args = 0, pretend = 0, frame = 0
  25              		@ frame_needed = 0, uses_anonymous_args = 0
  26 0000 08B5     		push	{r3, lr}
  27 0002 FFF7FEFF 		bl	lv_disp_get_default
  28 0006 FFF7FEFF 		bl	lv_disp_get_scr_act
  29 000a 08BD     		pop	{r3, pc}
  31              		.section	.text.Error_Handler,"ax",%progbits
  32              		.align	1
  33              		.global	Error_Handler
  34              		.syntax unified
  35              		.thumb
  36              		.thumb_func
  38              	Error_Handler:
  39              		@ Volatile: function does not return.
  40              		@ args = 0, pretend = 0, frame = 0
  41              		@ frame_needed = 0, uses_anonymous_args = 0
  42              		@ link register save eliminated.
  43              		.syntax unified
  44              	@ 142 "Drivers/CMSIS/Include/cmsis_gcc.h" 1
  45 0000 72B6     		cpsid i
  46              	@ 0 "" 2
  47              		.thumb
  48              		.syntax unified
  49              	.L4:
  50 0002 FEE7     		b	.L4
  52              		.section	.text.SystemClock_Config,"ax",%progbits
  53              		.align	1
  54              		.global	SystemClock_Config
  55              		.syntax unified
  56              		.thumb
  57              		.thumb_func
  59              	SystemClock_Config:
  60              		@ args = 0, pretend = 0, frame = 80
  61              		@ frame_needed = 0, uses_anonymous_args = 0
  62 0000 00B5     		push	{lr}
ARM GAS  /var/folders/lp/x54gwt890xv47sdkqj1k04q40000gn/T//ccubb3Th.s 			page 2


  63 0002 95B0     		sub	sp, sp, #84
  64 0004 3022     		movs	r2, #48
  65 0006 0021     		movs	r1, #0
  66 0008 08A8     		add	r0, sp, #32
  67 000a FFF7FEFF 		bl	memset
  68 000e 0023     		movs	r3, #0
  69 0010 0393     		str	r3, [sp, #12]
  70 0012 0493     		str	r3, [sp, #16]
  71 0014 0593     		str	r3, [sp, #20]
  72 0016 0693     		str	r3, [sp, #24]
  73 0018 0793     		str	r3, [sp, #28]
  74 001a 0193     		str	r3, [sp, #4]
  75 001c 214A     		ldr	r2, .L11
  76 001e 116C     		ldr	r1, [r2, #64]
  77 0020 41F08051 		orr	r1, r1, #268435456
  78 0024 1164     		str	r1, [r2, #64]
  79 0026 126C     		ldr	r2, [r2, #64]
  80 0028 02F08052 		and	r2, r2, #268435456
  81 002c 0192     		str	r2, [sp, #4]
  82 002e 019A     		ldr	r2, [sp, #4]
  83 0030 0293     		str	r3, [sp, #8]
  84 0032 1D4B     		ldr	r3, .L11+4
  85 0034 1A68     		ldr	r2, [r3]
  86 0036 42F48042 		orr	r2, r2, #16384
  87 003a 1A60     		str	r2, [r3]
  88 003c 1B68     		ldr	r3, [r3]
  89 003e 03F48043 		and	r3, r3, #16384
  90 0042 0293     		str	r3, [sp, #8]
  91 0044 029B     		ldr	r3, [sp, #8]
  92 0046 0123     		movs	r3, #1
  93 0048 0893     		str	r3, [sp, #32]
  94 004a 4FF48033 		mov	r3, #65536
  95 004e 0993     		str	r3, [sp, #36]
  96 0050 0223     		movs	r3, #2
  97 0052 0E93     		str	r3, [sp, #56]
  98 0054 4FF48002 		mov	r2, #4194304
  99 0058 0F92     		str	r2, [sp, #60]
 100 005a 0822     		movs	r2, #8
 101 005c 1092     		str	r2, [sp, #64]
 102 005e 4FF4A872 		mov	r2, #336
 103 0062 1192     		str	r2, [sp, #68]
 104 0064 1293     		str	r3, [sp, #72]
 105 0066 0723     		movs	r3, #7
 106 0068 1393     		str	r3, [sp, #76]
 107 006a 08A8     		add	r0, sp, #32
 108 006c FFF7FEFF 		bl	HAL_RCC_OscConfig
 109 0070 98B9     		cbnz	r0, .L9
 110 0072 0F23     		movs	r3, #15
 111 0074 0393     		str	r3, [sp, #12]
 112 0076 0223     		movs	r3, #2
 113 0078 0493     		str	r3, [sp, #16]
 114 007a 0023     		movs	r3, #0
 115 007c 0593     		str	r3, [sp, #20]
 116 007e 4FF4A053 		mov	r3, #5120
 117 0082 0693     		str	r3, [sp, #24]
 118 0084 4FF48053 		mov	r3, #4096
 119 0088 0793     		str	r3, [sp, #28]
ARM GAS  /var/folders/lp/x54gwt890xv47sdkqj1k04q40000gn/T//ccubb3Th.s 			page 3


 120 008a 0521     		movs	r1, #5
 121 008c 03A8     		add	r0, sp, #12
 122 008e FFF7FEFF 		bl	HAL_RCC_ClockConfig
 123 0092 20B9     		cbnz	r0, .L10
 124 0094 15B0     		add	sp, sp, #84
 125              		@ sp needed
 126 0096 5DF804FB 		ldr	pc, [sp], #4
 127              	.L9:
 128 009a FFF7FEFF 		bl	Error_Handler
 129              	.L10:
 130 009e FFF7FEFF 		bl	Error_Handler
 131              	.L12:
 132 00a2 00BF     		.align	2
 133              	.L11:
 134 00a4 00380240 		.word	1073887232
 135 00a8 00700040 		.word	1073770496
 137              		.section	.text.main,"ax",%progbits
 138              		.align	1
 139              		.global	main
 140              		.syntax unified
 141              		.thumb
 142              		.thumb_func
 144              	main:
 145              		@ args = 0, pretend = 0, frame = 0
 146              		@ frame_needed = 0, uses_anonymous_args = 0
 147 0000 10B5     		push	{r4, lr}
 148 0002 FFF7FEFF 		bl	HAL_Init
 149 0006 FFF7FEFF 		bl	SystemClock_Config
 150 000a FFF7FEFF 		bl	MX_GPIO_Init
 151 000e FFF7FEFF 		bl	MX_DMA_Init
 152 0012 FFF7FEFF 		bl	MX_SPI1_Init
 153 0016 FFF7FEFF 		bl	lv_init
 154 001a FFF7FEFF 		bl	lv_port_disp_init
 155 001e FFF7FEFF 		bl	lv_scr_act
 156 0022 0022     		movs	r2, #0
 157 0024 4CF60121 		movw	r1, 51713	@ movhi
 158 0028 FFF7FEFF 		bl	lv_obj_set_style_bg_color
 159 002c FFF7FEFF 		bl	lv_scr_act
 160 0030 0022     		movs	r2, #0
 161 0032 4FF0FF31 		mov	r1, #-1	@ movhi
 162 0036 FFF7FEFF 		bl	lv_obj_set_style_text_color
 163 003a FFF7FEFF 		bl	lv_scr_act
 164 003e 3C22     		movs	r2, #60
 165 0040 4FF47A71 		mov	r1, #1000
 166 0044 FFF7FEFF 		bl	lv_spinner_create
 167 0048 0446     		mov	r4, r0
 168 004a 4022     		movs	r2, #64
 169 004c 1146     		mov	r1, r2
 170 004e FFF7FEFF 		bl	lv_obj_set_size
 171 0052 0023     		movs	r3, #0
 172 0054 1A46     		mov	r2, r3
 173 0056 0521     		movs	r1, #5
 174 0058 2046     		mov	r0, r4
 175 005a FFF7FEFF 		bl	lv_obj_align
 176              	.L14:
 177 005e FFF7FEFF 		bl	lv_timer_handler
 178 0062 0520     		movs	r0, #5
ARM GAS  /var/folders/lp/x54gwt890xv47sdkqj1k04q40000gn/T//ccubb3Th.s 			page 4


 179 0064 FFF7FEFF 		bl	HAL_Delay
 180 0068 F9E7     		b	.L14
 182              		.ident	"GCC: (xPack GNU Arm Embedded GCC arm64) 13.3.1 20240614"
ARM GAS  /var/folders/lp/x54gwt890xv47sdkqj1k04q40000gn/T//ccubb3Th.s 			page 5

