ARM GAS  /var/folders/lp/x54gwt890xv47sdkqj1k04q40000gn/T//cc9ezdCv.s 			page 1


   1              		.cpu cortex-m4
   2              		.arch armv7e-m
   3              		.fpu fpv4-sp-d16
   4              		.eabi_attribute 27, 1
   5              		.eabi_attribute 28, 1
   6              		.eabi_attribute 20, 1
   7              		.eabi_attribute 21, 1
   8              		.eabi_attribute 23, 3
   9              		.eabi_attribute 24, 1
  10              		.eabi_attribute 25, 1
  11              		.eabi_attribute 26, 1
  12              		.eabi_attribute 30, 1
  13              		.eabi_attribute 34, 1
  14              		.eabi_attribute 18, 4
  15              		.file	"spi.c"
  16              		.text
  17              		.section	.text.MX_SPI1_Init,"ax",%progbits
  18              		.align	1
  19              		.global	MX_SPI1_Init
  20              		.syntax unified
  21              		.thumb
  22              		.thumb_func
  24              	MX_SPI1_Init:
  25              		@ args = 0, pretend = 0, frame = 0
  26              		@ frame_needed = 0, uses_anonymous_args = 0
  27 0000 08B5     		push	{r3, lr}
  28 0002 0F48     		ldr	r0, .L5
  29 0004 0F4B     		ldr	r3, .L5+4
  30 0006 0360     		str	r3, [r0]
  31 0008 4FF48273 		mov	r3, #260
  32 000c 4360     		str	r3, [r0, #4]
  33 000e 4FF40043 		mov	r3, #32768
  34 0012 8360     		str	r3, [r0, #8]
  35 0014 0023     		movs	r3, #0
  36 0016 C360     		str	r3, [r0, #12]
  37 0018 0361     		str	r3, [r0, #16]
  38 001a 4361     		str	r3, [r0, #20]
  39 001c 4FF40072 		mov	r2, #512
  40 0020 8261     		str	r2, [r0, #24]
  41 0022 0822     		movs	r2, #8
  42 0024 C261     		str	r2, [r0, #28]
  43 0026 0362     		str	r3, [r0, #32]
  44 0028 4362     		str	r3, [r0, #36]
  45 002a 8362     		str	r3, [r0, #40]
  46 002c 0A23     		movs	r3, #10
  47 002e C362     		str	r3, [r0, #44]
  48 0030 FFF7FEFF 		bl	HAL_SPI_Init
  49 0034 00B9     		cbnz	r0, .L4
  50              	.L1:
  51 0036 08BD     		pop	{r3, pc}
  52              	.L4:
  53 0038 FFF7FEFF 		bl	Error_Handler
  54 003c FBE7     		b	.L1
  55              	.L6:
  56 003e 00BF     		.align	2
  57              	.L5:
  58 0040 00000000 		.word	hspi1
ARM GAS  /var/folders/lp/x54gwt890xv47sdkqj1k04q40000gn/T//cc9ezdCv.s 			page 2


  59 0044 00300140 		.word	1073819648
  61              		.section	.text.HAL_SPI_MspInit,"ax",%progbits
  62              		.align	1
  63              		.global	HAL_SPI_MspInit
  64              		.syntax unified
  65              		.thumb
  66              		.thumb_func
  68              	HAL_SPI_MspInit:
  69              		@ args = 0, pretend = 0, frame = 32
  70              		@ frame_needed = 0, uses_anonymous_args = 0
  71 0000 30B5     		push	{r4, r5, lr}
  72 0002 89B0     		sub	sp, sp, #36
  73 0004 0023     		movs	r3, #0
  74 0006 0393     		str	r3, [sp, #12]
  75 0008 0493     		str	r3, [sp, #16]
  76 000a 0593     		str	r3, [sp, #20]
  77 000c 0693     		str	r3, [sp, #24]
  78 000e 0793     		str	r3, [sp, #28]
  79 0010 0268     		ldr	r2, [r0]
  80 0012 254B     		ldr	r3, .L13
  81 0014 9A42     		cmp	r2, r3
  82 0016 01D0     		beq	.L11
  83              	.L7:
  84 0018 09B0     		add	sp, sp, #36
  85              		@ sp needed
  86 001a 30BD     		pop	{r4, r5, pc}
  87              	.L11:
  88 001c 0446     		mov	r4, r0
  89 001e 0025     		movs	r5, #0
  90 0020 0195     		str	r5, [sp, #4]
  91 0022 03F58433 		add	r3, r3, #67584
  92 0026 5A6C     		ldr	r2, [r3, #68]
  93 0028 42F48052 		orr	r2, r2, #4096
  94 002c 5A64     		str	r2, [r3, #68]
  95 002e 5A6C     		ldr	r2, [r3, #68]
  96 0030 02F48052 		and	r2, r2, #4096
  97 0034 0192     		str	r2, [sp, #4]
  98 0036 019A     		ldr	r2, [sp, #4]
  99 0038 0295     		str	r5, [sp, #8]
 100 003a 1A6B     		ldr	r2, [r3, #48]
 101 003c 42F00102 		orr	r2, r2, #1
 102 0040 1A63     		str	r2, [r3, #48]
 103 0042 1B6B     		ldr	r3, [r3, #48]
 104 0044 03F00103 		and	r3, r3, #1
 105 0048 0293     		str	r3, [sp, #8]
 106 004a 029B     		ldr	r3, [sp, #8]
 107 004c E023     		movs	r3, #224
 108 004e 0393     		str	r3, [sp, #12]
 109 0050 0223     		movs	r3, #2
 110 0052 0493     		str	r3, [sp, #16]
 111 0054 0523     		movs	r3, #5
 112 0056 0793     		str	r3, [sp, #28]
 113 0058 03A9     		add	r1, sp, #12
 114 005a 1448     		ldr	r0, .L13+4
 115 005c FFF7FEFF 		bl	HAL_GPIO_Init
 116 0060 1348     		ldr	r0, .L13+8
 117 0062 144B     		ldr	r3, .L13+12
ARM GAS  /var/folders/lp/x54gwt890xv47sdkqj1k04q40000gn/T//cc9ezdCv.s 			page 3


 118 0064 0360     		str	r3, [r0]
 119 0066 4FF0C063 		mov	r3, #100663296
 120 006a 4360     		str	r3, [r0, #4]
 121 006c 4023     		movs	r3, #64
 122 006e 8360     		str	r3, [r0, #8]
 123 0070 C560     		str	r5, [r0, #12]
 124 0072 4FF48063 		mov	r3, #1024
 125 0076 0361     		str	r3, [r0, #16]
 126 0078 4561     		str	r5, [r0, #20]
 127 007a 8561     		str	r5, [r0, #24]
 128 007c C561     		str	r5, [r0, #28]
 129 007e 0562     		str	r5, [r0, #32]
 130 0080 4562     		str	r5, [r0, #36]
 131 0082 FFF7FEFF 		bl	HAL_DMA_Init
 132 0086 58B9     		cbnz	r0, .L12
 133              	.L9:
 134 0088 094B     		ldr	r3, .L13+8
 135 008a A364     		str	r3, [r4, #72]
 136 008c 9C63     		str	r4, [r3, #56]
 137 008e 0022     		movs	r2, #0
 138 0090 1146     		mov	r1, r2
 139 0092 2320     		movs	r0, #35
 140 0094 FFF7FEFF 		bl	HAL_NVIC_SetPriority
 141 0098 2320     		movs	r0, #35
 142 009a FFF7FEFF 		bl	HAL_NVIC_EnableIRQ
 143 009e BBE7     		b	.L7
 144              	.L12:
 145 00a0 FFF7FEFF 		bl	Error_Handler
 146 00a4 F0E7     		b	.L9
 147              	.L14:
 148 00a6 00BF     		.align	2
 149              	.L13:
 150 00a8 00300140 		.word	1073819648
 151 00ac 00000240 		.word	1073872896
 152 00b0 00000000 		.word	hdma_spi1_tx
 153 00b4 58640240 		.word	1073898584
 155              		.section	.text.HAL_SPI_MspDeInit,"ax",%progbits
 156              		.align	1
 157              		.global	HAL_SPI_MspDeInit
 158              		.syntax unified
 159              		.thumb
 160              		.thumb_func
 162              	HAL_SPI_MspDeInit:
 163              		@ args = 0, pretend = 0, frame = 0
 164              		@ frame_needed = 0, uses_anonymous_args = 0
 165 0000 0268     		ldr	r2, [r0]
 166 0002 0B4B     		ldr	r3, .L22
 167 0004 9A42     		cmp	r2, r3
 168 0006 00D0     		beq	.L21
 169 0008 7047     		bx	lr
 170              	.L21:
 171 000a 10B5     		push	{r4, lr}
 172 000c 0446     		mov	r4, r0
 173 000e 094A     		ldr	r2, .L22+4
 174 0010 536C     		ldr	r3, [r2, #68]
 175 0012 23F48053 		bic	r3, r3, #4096
 176 0016 5364     		str	r3, [r2, #68]
ARM GAS  /var/folders/lp/x54gwt890xv47sdkqj1k04q40000gn/T//cc9ezdCv.s 			page 4


 177 0018 E021     		movs	r1, #224
 178 001a 0748     		ldr	r0, .L22+8
 179 001c FFF7FEFF 		bl	HAL_GPIO_DeInit
 180 0020 A06C     		ldr	r0, [r4, #72]
 181 0022 FFF7FEFF 		bl	HAL_DMA_DeInit
 182 0026 2320     		movs	r0, #35
 183 0028 FFF7FEFF 		bl	HAL_NVIC_DisableIRQ
 184 002c 10BD     		pop	{r4, pc}
 185              	.L23:
 186 002e 00BF     		.align	2
 187              	.L22:
 188 0030 00300140 		.word	1073819648
 189 0034 00380240 		.word	1073887232
 190 0038 00000240 		.word	1073872896
 192              		.global	hdma_spi1_tx
 193              		.section	.bss.hdma_spi1_tx,"aw",%nobits
 194              		.align	2
 197              	hdma_spi1_tx:
 198 0000 00000000 		.space	96
 198      00000000 
 198      00000000 
 198      00000000 
 198      00000000 
 199              		.global	hspi1
 200              		.section	.bss.hspi1,"aw",%nobits
 201              		.align	2
 204              	hspi1:
 205 0000 00000000 		.space	88
 205      00000000 
 205      00000000 
 205      00000000 
 205      00000000 
 206              		.ident	"GCC: (xPack GNU Arm Embedded GCC arm64) 13.3.1 20240614"
ARM GAS  /var/folders/lp/x54gwt890xv47sdkqj1k04q40000gn/T//cc9ezdCv.s 			page 5

