ARM GAS  /var/folders/lp/x54gwt890xv47sdkqj1k04q40000gn/T//ccINM1Nx.s 			page 1


   1              		.cpu cortex-m4
   2              		.arch armv7e-m
   3              		.fpu fpv4-sp-d16
   4              		.eabi_attribute 27, 1
   5              		.eabi_attribute 28, 1
   6              		.eabi_attribute 20, 1
   7              		.eabi_attribute 21, 1
   8              		.eabi_attribute 23, 3
   9              		.eabi_attribute 24, 1
  10              		.eabi_attribute 25, 1
  11              		.eabi_attribute 26, 1
  12              		.eabi_attribute 30, 1
  13              		.eabi_attribute 34, 1
  14              		.eabi_attribute 18, 4
  15              		.file	"stm32f4xx_hal_exti.c"
  16              		.text
  17              		.section	.text.HAL_EXTI_SetConfigLine,"ax",%progbits
  18              		.align	1
  19              		.global	HAL_EXTI_SetConfigLine
  20              		.syntax unified
  21              		.thumb
  22              		.thumb_func
  24              	HAL_EXTI_SetConfigLine:
  25              		@ args = 0, pretend = 0, frame = 0
  26              		@ frame_needed = 0, uses_anonymous_args = 0
  27              		@ link register save eliminated.
  28 0000 0028     		cmp	r0, #0
  29 0002 60D0     		beq	.L11
  30 0004 0029     		cmp	r1, #0
  31 0006 60D0     		beq	.L12
  32 0008 70B4     		push	{r4, r5, r6}
  33 000a 0B68     		ldr	r3, [r1]
  34 000c 0360     		str	r3, [r0]
  35 000e 03F01F02 		and	r2, r3, #31
  36 0012 0120     		movs	r0, #1
  37 0014 9040     		lsls	r0, r0, r2
  38 0016 13F0007F 		tst	r3, #33554432
  39 001a 15D0     		beq	.L3
  40 001c 8C68     		ldr	r4, [r1, #8]
  41 001e 14F0010F 		tst	r4, #1
  42 0022 24D0     		beq	.L4
  43 0024 2A4D     		ldr	r5, .L18
  44 0026 AC68     		ldr	r4, [r5, #8]
  45 0028 0443     		orrs	r4, r4, r0
  46 002a AC60     		str	r4, [r5, #8]
  47              	.L5:
  48 002c 8C68     		ldr	r4, [r1, #8]
  49 002e 14F0020F 		tst	r4, #2
  50 0032 22D0     		beq	.L6
  51 0034 264D     		ldr	r5, .L18
  52 0036 EC68     		ldr	r4, [r5, #12]
  53 0038 0443     		orrs	r4, r4, r0
  54 003a EC60     		str	r4, [r5, #12]
  55              	.L7:
  56 003c 0C68     		ldr	r4, [r1]
  57 003e 04F0C06C 		and	ip, r4, #100663296
  58 0042 BCF1C06F 		cmp	ip, #100663296
ARM GAS  /var/folders/lp/x54gwt890xv47sdkqj1k04q40000gn/T//ccINM1Nx.s 			page 2


  59 0046 1ED0     		beq	.L17
  60              	.L3:
  61 0048 4B68     		ldr	r3, [r1, #4]
  62 004a 13F0010F 		tst	r3, #1
  63 004e 2DD0     		beq	.L8
  64 0050 1F4A     		ldr	r2, .L18
  65 0052 1368     		ldr	r3, [r2]
  66 0054 0343     		orrs	r3, r3, r0
  67 0056 1360     		str	r3, [r2]
  68              	.L9:
  69 0058 4B68     		ldr	r3, [r1, #4]
  70 005a 13F0020F 		tst	r3, #2
  71 005e 2BD0     		beq	.L10
  72 0060 1B4A     		ldr	r2, .L18
  73 0062 5368     		ldr	r3, [r2, #4]
  74 0064 0343     		orrs	r3, r3, r0
  75 0066 5360     		str	r3, [r2, #4]
  76 0068 0020     		movs	r0, #0
  77              	.L2:
  78 006a 70BC     		pop	{r4, r5, r6}
  79 006c 7047     		bx	lr
  80              	.L4:
  81 006e 184D     		ldr	r5, .L18
  82 0070 AC68     		ldr	r4, [r5, #8]
  83 0072 24EA0004 		bic	r4, r4, r0
  84 0076 AC60     		str	r4, [r5, #8]
  85 0078 D8E7     		b	.L5
  86              	.L6:
  87 007a 154D     		ldr	r5, .L18
  88 007c EC68     		ldr	r4, [r5, #12]
  89 007e 24EA0004 		bic	r4, r4, r0
  90 0082 EC60     		str	r4, [r5, #12]
  91 0084 DAE7     		b	.L7
  92              	.L17:
  93 0086 9208     		lsrs	r2, r2, #2
  94 0088 124E     		ldr	r6, .L18+4
  95 008a 0232     		adds	r2, r2, #2
  96 008c 56F82240 		ldr	r4, [r6, r2, lsl #2]
  97 0090 03F00303 		and	r3, r3, #3
  98 0094 9B00     		lsls	r3, r3, #2
  99 0096 0F25     		movs	r5, #15
 100 0098 9D40     		lsls	r5, r5, r3
 101 009a 24EA0504 		bic	r4, r4, r5
 102 009e CD68     		ldr	r5, [r1, #12]
 103 00a0 05FA03F3 		lsl	r3, r5, r3
 104 00a4 2343     		orrs	r3, r3, r4
 105 00a6 46F82230 		str	r3, [r6, r2, lsl #2]
 106 00aa CDE7     		b	.L3
 107              	.L8:
 108 00ac 084A     		ldr	r2, .L18
 109 00ae 1368     		ldr	r3, [r2]
 110 00b0 23EA0003 		bic	r3, r3, r0
 111 00b4 1360     		str	r3, [r2]
 112 00b6 CFE7     		b	.L9
 113              	.L10:
 114 00b8 054A     		ldr	r2, .L18
 115 00ba 5368     		ldr	r3, [r2, #4]
ARM GAS  /var/folders/lp/x54gwt890xv47sdkqj1k04q40000gn/T//ccINM1Nx.s 			page 3


 116 00bc 23EA0003 		bic	r3, r3, r0
 117 00c0 5360     		str	r3, [r2, #4]
 118 00c2 0020     		movs	r0, #0
 119 00c4 D1E7     		b	.L2
 120              	.L11:
 121 00c6 0120     		movs	r0, #1
 122 00c8 7047     		bx	lr
 123              	.L12:
 124 00ca 0120     		movs	r0, #1
 125 00cc 7047     		bx	lr
 126              	.L19:
 127 00ce 00BF     		.align	2
 128              	.L18:
 129 00d0 003C0140 		.word	1073822720
 130 00d4 00380140 		.word	1073821696
 132              		.section	.text.HAL_EXTI_GetConfigLine,"ax",%progbits
 133              		.align	1
 134              		.global	HAL_EXTI_GetConfigLine
 135              		.syntax unified
 136              		.thumb
 137              		.thumb_func
 139              	HAL_EXTI_GetConfigLine:
 140              		@ args = 0, pretend = 0, frame = 0
 141              		@ frame_needed = 0, uses_anonymous_args = 0
 142              		@ link register save eliminated.
 143 0000 0028     		cmp	r0, #0
 144 0002 46D0     		beq	.L27
 145 0004 0029     		cmp	r1, #0
 146 0006 46D0     		beq	.L28
 147 0008 0068     		ldr	r0, [r0]
 148 000a 0860     		str	r0, [r1]
 149 000c 00F01F0C 		and	ip, r0, #31
 150 0010 0123     		movs	r3, #1
 151 0012 03FA0CF3 		lsl	r3, r3, ip
 152 0016 224A     		ldr	r2, .L32
 153 0018 1268     		ldr	r2, [r2]
 154 001a 1A42     		tst	r2, r3
 155 001c 24D0     		beq	.L22
 156 001e 0122     		movs	r2, #1
 157 0020 4A60     		str	r2, [r1, #4]
 158              	.L23:
 159 0022 1F4A     		ldr	r2, .L32
 160 0024 5268     		ldr	r2, [r2, #4]
 161 0026 1A42     		tst	r2, r3
 162 0028 03D0     		beq	.L24
 163 002a 4A68     		ldr	r2, [r1, #4]
 164 002c 42F00202 		orr	r2, r2, #2
 165 0030 4A60     		str	r2, [r1, #4]
 166              	.L24:
 167 0032 0022     		movs	r2, #0
 168 0034 8A60     		str	r2, [r1, #8]
 169 0036 CA60     		str	r2, [r1, #12]
 170 0038 10F0007F 		tst	r0, #33554432
 171 003c 2DD0     		beq	.L29
 172 003e 184A     		ldr	r2, .L32
 173 0040 9268     		ldr	r2, [r2, #8]
 174 0042 1A42     		tst	r2, r3
ARM GAS  /var/folders/lp/x54gwt890xv47sdkqj1k04q40000gn/T//ccINM1Nx.s 			page 4


 175 0044 01D0     		beq	.L25
 176 0046 0122     		movs	r2, #1
 177 0048 8A60     		str	r2, [r1, #8]
 178              	.L25:
 179 004a 154A     		ldr	r2, .L32
 180 004c D268     		ldr	r2, [r2, #12]
 181 004e 1A42     		tst	r2, r3
 182 0050 03D0     		beq	.L26
 183 0052 8B68     		ldr	r3, [r1, #8]
 184 0054 43F00203 		orr	r3, r3, #2
 185 0058 8B60     		str	r3, [r1, #8]
 186              	.L26:
 187 005a 00F0C063 		and	r3, r0, #100663296
 188 005e B3F1C06F 		cmp	r3, #100663296
 189 0062 04D0     		beq	.L31
 190 0064 0020     		movs	r0, #0
 191 0066 7047     		bx	lr
 192              	.L22:
 193 0068 0022     		movs	r2, #0
 194 006a 4A60     		str	r2, [r1, #4]
 195 006c D9E7     		b	.L23
 196              	.L31:
 197 006e 4FEA9C03 		lsr	r3, ip, #2
 198 0072 0233     		adds	r3, r3, #2
 199 0074 0B4A     		ldr	r2, .L32+4
 200 0076 52F82320 		ldr	r2, [r2, r3, lsl #2]
 201 007a 1204     		lsls	r2, r2, #16
 202 007c 6FEA0C03 		mvn	r3, ip
 203 0080 03F00303 		and	r3, r3, #3
 204 0084 9B00     		lsls	r3, r3, #2
 205 0086 02FA03F3 		lsl	r3, r2, r3
 206 008a 1B0F     		lsrs	r3, r3, #28
 207 008c CB60     		str	r3, [r1, #12]
 208 008e 0020     		movs	r0, #0
 209 0090 7047     		bx	lr
 210              	.L27:
 211 0092 0120     		movs	r0, #1
 212 0094 7047     		bx	lr
 213              	.L28:
 214 0096 0120     		movs	r0, #1
 215 0098 7047     		bx	lr
 216              	.L29:
 217 009a 0020     		movs	r0, #0
 218 009c 7047     		bx	lr
 219              	.L33:
 220 009e 00BF     		.align	2
 221              	.L32:
 222 00a0 003C0140 		.word	1073822720
 223 00a4 00380140 		.word	1073821696
 225              		.section	.text.HAL_EXTI_ClearConfigLine,"ax",%progbits
 226              		.align	1
 227              		.global	HAL_EXTI_ClearConfigLine
 228              		.syntax unified
 229              		.thumb
 230              		.thumb_func
 232              	HAL_EXTI_ClearConfigLine:
 233              		@ args = 0, pretend = 0, frame = 0
ARM GAS  /var/folders/lp/x54gwt890xv47sdkqj1k04q40000gn/T//ccINM1Nx.s 			page 5


 234              		@ frame_needed = 0, uses_anonymous_args = 0
 235 0000 0028     		cmp	r0, #0
 236 0002 37D0     		beq	.L36
 237 0004 10B5     		push	{r4, lr}
 238 0006 8446     		mov	ip, r0
 239 0008 0468     		ldr	r4, [r0]
 240 000a 04F01F00 		and	r0, r4, #31
 241 000e 0123     		movs	r3, #1
 242 0010 8340     		lsls	r3, r3, r0
 243 0012 1A4A     		ldr	r2, .L44
 244 0014 1168     		ldr	r1, [r2]
 245 0016 6FEA030E 		mvn	lr, r3
 246 001a 21EA0301 		bic	r1, r1, r3
 247 001e 1160     		str	r1, [r2]
 248 0020 5168     		ldr	r1, [r2, #4]
 249 0022 21EA0303 		bic	r3, r1, r3
 250 0026 5360     		str	r3, [r2, #4]
 251 0028 DCF80030 		ldr	r3, [ip]
 252 002c 13F0007F 		tst	r3, #33554432
 253 0030 22D0     		beq	.L37
 254 0032 9368     		ldr	r3, [r2, #8]
 255 0034 0EEA0303 		and	r3, lr, r3
 256 0038 9360     		str	r3, [r2, #8]
 257 003a D368     		ldr	r3, [r2, #12]
 258 003c 0EEA0303 		and	r3, lr, r3
 259 0040 D360     		str	r3, [r2, #12]
 260 0042 DCF80030 		ldr	r3, [ip]
 261 0046 03F0C063 		and	r3, r3, #100663296
 262 004a B3F1C06F 		cmp	r3, #100663296
 263 004e 01D0     		beq	.L43
 264 0050 0020     		movs	r0, #0
 265 0052 12E0     		b	.L35
 266              	.L43:
 267 0054 8008     		lsrs	r0, r0, #2
 268 0056 0A49     		ldr	r1, .L44+4
 269 0058 0230     		adds	r0, r0, #2
 270 005a 51F82030 		ldr	r3, [r1, r0, lsl #2]
 271 005e 04F00304 		and	r4, r4, #3
 272 0062 A400     		lsls	r4, r4, #2
 273 0064 0F22     		movs	r2, #15
 274 0066 A240     		lsls	r2, r2, r4
 275 0068 23EA0203 		bic	r3, r3, r2
 276 006c 41F82030 		str	r3, [r1, r0, lsl #2]
 277 0070 0020     		movs	r0, #0
 278 0072 02E0     		b	.L35
 279              	.L36:
 280 0074 0120     		movs	r0, #1
 281 0076 7047     		bx	lr
 282              	.L37:
 283 0078 0020     		movs	r0, #0
 284              	.L35:
 285 007a 10BD     		pop	{r4, pc}
 286              	.L45:
 287              		.align	2
 288              	.L44:
 289 007c 003C0140 		.word	1073822720
 290 0080 00380140 		.word	1073821696
ARM GAS  /var/folders/lp/x54gwt890xv47sdkqj1k04q40000gn/T//ccINM1Nx.s 			page 6


 292              		.section	.text.HAL_EXTI_RegisterCallback,"ax",%progbits
 293              		.align	1
 294              		.global	HAL_EXTI_RegisterCallback
 295              		.syntax unified
 296              		.thumb
 297              		.thumb_func
 299              	HAL_EXTI_RegisterCallback:
 300              		@ args = 0, pretend = 0, frame = 0
 301              		@ frame_needed = 0, uses_anonymous_args = 0
 302              		@ link register save eliminated.
 303 0000 0346     		mov	r3, r0
 304 0002 0846     		mov	r0, r1
 305 0004 09B9     		cbnz	r1, .L48
 306 0006 5A60     		str	r2, [r3, #4]
 307 0008 7047     		bx	lr
 308              	.L48:
 309 000a 0120     		movs	r0, #1
 310 000c 7047     		bx	lr
 312              		.section	.text.HAL_EXTI_GetHandle,"ax",%progbits
 313              		.align	1
 314              		.global	HAL_EXTI_GetHandle
 315              		.syntax unified
 316              		.thumb
 317              		.thumb_func
 319              	HAL_EXTI_GetHandle:
 320              		@ args = 0, pretend = 0, frame = 0
 321              		@ frame_needed = 0, uses_anonymous_args = 0
 322              		@ link register save eliminated.
 323 0000 10B1     		cbz	r0, .L51
 324 0002 0160     		str	r1, [r0]
 325 0004 0020     		movs	r0, #0
 326 0006 7047     		bx	lr
 327              	.L51:
 328 0008 0120     		movs	r0, #1
 329 000a 7047     		bx	lr
 331              		.section	.text.HAL_EXTI_IRQHandler,"ax",%progbits
 332              		.align	1
 333              		.global	HAL_EXTI_IRQHandler
 334              		.syntax unified
 335              		.thumb
 336              		.thumb_func
 338              	HAL_EXTI_IRQHandler:
 339              		@ args = 0, pretend = 0, frame = 0
 340              		@ frame_needed = 0, uses_anonymous_args = 0
 341 0000 08B5     		push	{r3, lr}
 342 0002 0368     		ldr	r3, [r0]
 343 0004 03F01F02 		and	r2, r3, #31
 344 0008 0123     		movs	r3, #1
 345 000a 9340     		lsls	r3, r3, r2
 346 000c 044A     		ldr	r2, .L55
 347 000e 5269     		ldr	r2, [r2, #20]
 348 0010 1A42     		tst	r2, r3
 349 0012 04D0     		beq	.L52
 350 0014 024A     		ldr	r2, .L55
 351 0016 5361     		str	r3, [r2, #20]
 352 0018 4368     		ldr	r3, [r0, #4]
 353 001a 03B1     		cbz	r3, .L52
ARM GAS  /var/folders/lp/x54gwt890xv47sdkqj1k04q40000gn/T//ccINM1Nx.s 			page 7


 354 001c 9847     		blx	r3
 355              	.L52:
 356 001e 08BD     		pop	{r3, pc}
 357              	.L56:
 358              		.align	2
 359              	.L55:
 360 0020 003C0140 		.word	1073822720
 362              		.section	.text.HAL_EXTI_GetPending,"ax",%progbits
 363              		.align	1
 364              		.global	HAL_EXTI_GetPending
 365              		.syntax unified
 366              		.thumb
 367              		.thumb_func
 369              	HAL_EXTI_GetPending:
 370              		@ args = 0, pretend = 0, frame = 0
 371              		@ frame_needed = 0, uses_anonymous_args = 0
 372              		@ link register save eliminated.
 373 0000 0368     		ldr	r3, [r0]
 374 0002 03F01F03 		and	r3, r3, #31
 375 0006 0122     		movs	r2, #1
 376 0008 9A40     		lsls	r2, r2, r3
 377 000a 0249     		ldr	r1, .L58
 378 000c 4869     		ldr	r0, [r1, #20]
 379 000e 1040     		ands	r0, r0, r2
 380 0010 D840     		lsrs	r0, r0, r3
 381 0012 7047     		bx	lr
 382              	.L59:
 383              		.align	2
 384              	.L58:
 385 0014 003C0140 		.word	1073822720
 387              		.section	.text.HAL_EXTI_ClearPending,"ax",%progbits
 388              		.align	1
 389              		.global	HAL_EXTI_ClearPending
 390              		.syntax unified
 391              		.thumb
 392              		.thumb_func
 394              	HAL_EXTI_ClearPending:
 395              		@ args = 0, pretend = 0, frame = 0
 396              		@ frame_needed = 0, uses_anonymous_args = 0
 397              		@ link register save eliminated.
 398 0000 0268     		ldr	r2, [r0]
 399 0002 02F01F02 		and	r2, r2, #31
 400 0006 0123     		movs	r3, #1
 401 0008 9340     		lsls	r3, r3, r2
 402 000a 014A     		ldr	r2, .L61
 403 000c 5361     		str	r3, [r2, #20]
 404 000e 7047     		bx	lr
 405              	.L62:
 406              		.align	2
 407              	.L61:
 408 0010 003C0140 		.word	1073822720
 410              		.section	.text.HAL_EXTI_GenerateSWI,"ax",%progbits
 411              		.align	1
 412              		.global	HAL_EXTI_GenerateSWI
 413              		.syntax unified
 414              		.thumb
 415              		.thumb_func
ARM GAS  /var/folders/lp/x54gwt890xv47sdkqj1k04q40000gn/T//ccINM1Nx.s 			page 8


 417              	HAL_EXTI_GenerateSWI:
 418              		@ args = 0, pretend = 0, frame = 0
 419              		@ frame_needed = 0, uses_anonymous_args = 0
 420              		@ link register save eliminated.
 421 0000 0268     		ldr	r2, [r0]
 422 0002 02F01F02 		and	r2, r2, #31
 423 0006 0123     		movs	r3, #1
 424 0008 9340     		lsls	r3, r3, r2
 425 000a 014A     		ldr	r2, .L64
 426 000c 1361     		str	r3, [r2, #16]
 427 000e 7047     		bx	lr
 428              	.L65:
 429              		.align	2
 430              	.L64:
 431 0010 003C0140 		.word	1073822720
 433              		.ident	"GCC: (xPack GNU Arm Embedded GCC arm64) 13.3.1 20240614"
ARM GAS  /var/folders/lp/x54gwt890xv47sdkqj1k04q40000gn/T//ccINM1Nx.s 			page 9

