ARM GAS  /var/folders/lp/x54gwt890xv47sdkqj1k04q40000gn/T//cctQ6ZKf.s 			page 1


   1              		.cpu cortex-m4
   2              		.arch armv7e-m
   3              		.fpu fpv4-sp-d16
   4              		.eabi_attribute 27, 1
   5              		.eabi_attribute 28, 1
   6              		.eabi_attribute 20, 1
   7              		.eabi_attribute 21, 1
   8              		.eabi_attribute 23, 3
   9              		.eabi_attribute 24, 1
  10              		.eabi_attribute 25, 1
  11              		.eabi_attribute 26, 1
  12              		.eabi_attribute 30, 1
  13              		.eabi_attribute 34, 1
  14              		.eabi_attribute 18, 4
  15              		.file	"stm32f4xx_hal_rcc_ex.c"
  16              		.text
  17              		.section	.text.HAL_RCCEx_PeriphCLKConfig,"ax",%progbits
  18              		.align	1
  19              		.global	HAL_RCCEx_PeriphCLKConfig
  20              		.syntax unified
  21              		.thumb
  22              		.thumb_func
  24              	HAL_RCCEx_PeriphCLKConfig:
  25              		@ args = 0, pretend = 0, frame = 8
  26              		@ frame_needed = 0, uses_anonymous_args = 0
  27 0000 30B5     		push	{r4, r5, lr}
  28 0002 83B0     		sub	sp, sp, #12
  29 0004 0446     		mov	r4, r0
  30 0006 0368     		ldr	r3, [r0]
  31 0008 13F0050F 		tst	r3, #5
  32 000c 06D1     		bne	.L21
  33              	.L2:
  34 000e 2368     		ldr	r3, [r4]
  35 0010 13F0020F 		tst	r3, #2
  36 0014 2ED1     		bne	.L22
  37 0016 0020     		movs	r0, #0
  38              	.L4:
  39 0018 03B0     		add	sp, sp, #12
  40              		@ sp needed
  41 001a 30BD     		pop	{r4, r5, pc}
  42              	.L21:
  43 001c 4A4B     		ldr	r3, .L27
  44 001e 0022     		movs	r2, #0
  45 0020 9A66     		str	r2, [r3, #104]
  46 0022 FFF7FEFF 		bl	HAL_GetTick
  47 0026 0546     		mov	r5, r0
  48              	.L3:
  49 0028 484B     		ldr	r3, .L27+4
  50 002a 1B68     		ldr	r3, [r3]
  51 002c 13F0006F 		tst	r3, #134217728
  52 0030 06D0     		beq	.L23
  53 0032 FFF7FEFF 		bl	HAL_GetTick
  54 0036 431B     		subs	r3, r0, r5
  55 0038 022B     		cmp	r3, #2
  56 003a F5D9     		bls	.L3
  57 003c 0320     		movs	r0, #3
  58 003e EBE7     		b	.L4
ARM GAS  /var/folders/lp/x54gwt890xv47sdkqj1k04q40000gn/T//cctQ6ZKf.s 			page 2


  59              	.L23:
  60 0040 6268     		ldr	r2, [r4, #4]
  61 0042 A368     		ldr	r3, [r4, #8]
  62 0044 1B07     		lsls	r3, r3, #28
  63 0046 43EA8213 		orr	r3, r3, r2, lsl #6
  64 004a 404A     		ldr	r2, .L27+4
  65 004c C2F88430 		str	r3, [r2, #132]
  66 0050 3D4B     		ldr	r3, .L27
  67 0052 0122     		movs	r2, #1
  68 0054 9A66     		str	r2, [r3, #104]
  69 0056 FFF7FEFF 		bl	HAL_GetTick
  70 005a 0546     		mov	r5, r0
  71              	.L6:
  72 005c 3B4B     		ldr	r3, .L27+4
  73 005e 1B68     		ldr	r3, [r3]
  74 0060 13F0006F 		tst	r3, #134217728
  75 0064 D3D1     		bne	.L2
  76 0066 FFF7FEFF 		bl	HAL_GetTick
  77 006a 431B     		subs	r3, r0, r5
  78 006c 022B     		cmp	r3, #2
  79 006e F5D9     		bls	.L6
  80 0070 0320     		movs	r0, #3
  81 0072 D1E7     		b	.L4
  82              	.L22:
  83 0074 0023     		movs	r3, #0
  84 0076 0193     		str	r3, [sp, #4]
  85 0078 344B     		ldr	r3, .L27+4
  86 007a 1A6C     		ldr	r2, [r3, #64]
  87 007c 42F08052 		orr	r2, r2, #268435456
  88 0080 1A64     		str	r2, [r3, #64]
  89 0082 1B6C     		ldr	r3, [r3, #64]
  90 0084 03F08053 		and	r3, r3, #268435456
  91 0088 0193     		str	r3, [sp, #4]
  92 008a 019B     		ldr	r3, [sp, #4]
  93 008c 304A     		ldr	r2, .L27+8
  94 008e 1368     		ldr	r3, [r2]
  95 0090 43F48073 		orr	r3, r3, #256
  96 0094 1360     		str	r3, [r2]
  97 0096 FFF7FEFF 		bl	HAL_GetTick
  98 009a 0546     		mov	r5, r0
  99              	.L8:
 100 009c 2C4B     		ldr	r3, .L27+8
 101 009e 1B68     		ldr	r3, [r3]
 102 00a0 13F4807F 		tst	r3, #256
 103 00a4 06D1     		bne	.L24
 104 00a6 FFF7FEFF 		bl	HAL_GetTick
 105 00aa 431B     		subs	r3, r0, r5
 106 00ac 022B     		cmp	r3, #2
 107 00ae F5D9     		bls	.L8
 108 00b0 0320     		movs	r0, #3
 109 00b2 B1E7     		b	.L4
 110              	.L24:
 111 00b4 254B     		ldr	r3, .L27+4
 112 00b6 1B6F     		ldr	r3, [r3, #112]
 113 00b8 13F44073 		ands	r3, r3, #768
 114 00bc 14D0     		beq	.L10
 115 00be E268     		ldr	r2, [r4, #12]
ARM GAS  /var/folders/lp/x54gwt890xv47sdkqj1k04q40000gn/T//cctQ6ZKf.s 			page 3


 116 00c0 02F44072 		and	r2, r2, #768
 117 00c4 9A42     		cmp	r2, r3
 118 00c6 0FD0     		beq	.L10
 119 00c8 204B     		ldr	r3, .L27+4
 120 00ca 1A6F     		ldr	r2, [r3, #112]
 121 00cc 22F44072 		bic	r2, r2, #768
 122 00d0 1D49     		ldr	r1, .L27
 123 00d2 0120     		movs	r0, #1
 124 00d4 C1F8400E 		str	r0, [r1, #3648]
 125 00d8 0020     		movs	r0, #0
 126 00da C1F8400E 		str	r0, [r1, #3648]
 127 00de 1A67     		str	r2, [r3, #112]
 128 00e0 1B6F     		ldr	r3, [r3, #112]
 129 00e2 13F0010F 		tst	r3, #1
 130 00e6 13D1     		bne	.L25
 131              	.L10:
 132 00e8 E368     		ldr	r3, [r4, #12]
 133 00ea 03F44072 		and	r2, r3, #768
 134 00ee B2F5407F 		cmp	r2, #768
 135 00f2 1ED0     		beq	.L26
 136 00f4 154A     		ldr	r2, .L27+4
 137 00f6 9368     		ldr	r3, [r2, #8]
 138 00f8 23F4F813 		bic	r3, r3, #2031616
 139 00fc 9360     		str	r3, [r2, #8]
 140              	.L14:
 141 00fe 1349     		ldr	r1, .L27+4
 142 0100 0B6F     		ldr	r3, [r1, #112]
 143 0102 E268     		ldr	r2, [r4, #12]
 144 0104 C2F30B02 		ubfx	r2, r2, #0, #12
 145 0108 1343     		orrs	r3, r3, r2
 146 010a 0B67     		str	r3, [r1, #112]
 147 010c 0020     		movs	r0, #0
 148 010e 83E7     		b	.L4
 149              	.L25:
 150 0110 FFF7FEFF 		bl	HAL_GetTick
 151 0114 0546     		mov	r5, r0
 152              	.L11:
 153 0116 0D4B     		ldr	r3, .L27+4
 154 0118 1B6F     		ldr	r3, [r3, #112]
 155 011a 13F0020F 		tst	r3, #2
 156 011e E3D1     		bne	.L10
 157 0120 FFF7FEFF 		bl	HAL_GetTick
 158 0124 401B     		subs	r0, r0, r5
 159 0126 41F28833 		movw	r3, #5000
 160 012a 9842     		cmp	r0, r3
 161 012c F3D9     		bls	.L11
 162 012e 0320     		movs	r0, #3
 163 0130 72E7     		b	.L4
 164              	.L26:
 165 0132 0649     		ldr	r1, .L27+4
 166 0134 8A68     		ldr	r2, [r1, #8]
 167 0136 22F4F812 		bic	r2, r2, #2031616
 168 013a 23F07043 		bic	r3, r3, #-268435456
 169 013e 23F44073 		bic	r3, r3, #768
 170 0142 1343     		orrs	r3, r3, r2
 171 0144 8B60     		str	r3, [r1, #8]
 172 0146 DAE7     		b	.L14
ARM GAS  /var/folders/lp/x54gwt890xv47sdkqj1k04q40000gn/T//cctQ6ZKf.s 			page 4


 173              	.L28:
 174              		.align	2
 175              	.L27:
 176 0148 00004742 		.word	1111949312
 177 014c 00380240 		.word	1073887232
 178 0150 00700040 		.word	1073770496
 180              		.section	.text.HAL_RCCEx_GetPeriphCLKConfig,"ax",%progbits
 181              		.align	1
 182              		.global	HAL_RCCEx_GetPeriphCLKConfig
 183              		.syntax unified
 184              		.thumb
 185              		.thumb_func
 187              	HAL_RCCEx_GetPeriphCLKConfig:
 188              		@ args = 0, pretend = 0, frame = 0
 189              		@ frame_needed = 0, uses_anonymous_args = 0
 190              		@ link register save eliminated.
 191 0000 0323     		movs	r3, #3
 192 0002 0360     		str	r3, [r0]
 193 0004 094B     		ldr	r3, .L30
 194 0006 D3F88420 		ldr	r2, [r3, #132]
 195 000a C2F38812 		ubfx	r2, r2, #6, #9
 196 000e 4260     		str	r2, [r0, #4]
 197 0010 D3F88420 		ldr	r2, [r3, #132]
 198 0014 C2F30272 		ubfx	r2, r2, #28, #3
 199 0018 8260     		str	r2, [r0, #8]
 200 001a 9A68     		ldr	r2, [r3, #8]
 201 001c 02F4F812 		and	r2, r2, #2031616
 202 0020 1B6F     		ldr	r3, [r3, #112]
 203 0022 03F44073 		and	r3, r3, #768
 204 0026 1343     		orrs	r3, r3, r2
 205 0028 C360     		str	r3, [r0, #12]
 206 002a 7047     		bx	lr
 207              	.L31:
 208              		.align	2
 209              	.L30:
 210 002c 00380240 		.word	1073887232
 212              		.section	.text.HAL_RCCEx_GetPeriphCLKFreq,"ax",%progbits
 213              		.align	1
 214              		.global	HAL_RCCEx_GetPeriphCLKFreq
 215              		.syntax unified
 216              		.thumb
 217              		.thumb_func
 219              	HAL_RCCEx_GetPeriphCLKFreq:
 220              		@ args = 0, pretend = 0, frame = 0
 221              		@ frame_needed = 0, uses_anonymous_args = 0
 222              		@ link register save eliminated.
 223 0000 0128     		cmp	r0, #1
 224 0002 01D0     		beq	.L39
 225 0004 0020     		movs	r0, #0
 226 0006 7047     		bx	lr
 227              	.L39:
 228 0008 164B     		ldr	r3, .L40
 229 000a 9B68     		ldr	r3, [r3, #8]
 230 000c 13F40003 		ands	r3, r3, #8388608
 231 0010 03D0     		beq	.L34
 232 0012 012B     		cmp	r3, #1
 233 0014 23D1     		bne	.L38
ARM GAS  /var/folders/lp/x54gwt890xv47sdkqj1k04q40000gn/T//cctQ6ZKf.s 			page 5


 234 0016 1448     		ldr	r0, .L40+4
 235 0018 7047     		bx	lr
 236              	.L34:
 237 001a 124B     		ldr	r3, .L40
 238 001c 5B68     		ldr	r3, [r3, #4]
 239 001e 13F4800F 		tst	r3, #4194304
 240 0022 14D0     		beq	.L35
 241 0024 0F4B     		ldr	r3, .L40
 242 0026 5A68     		ldr	r2, [r3, #4]
 243 0028 02F03F02 		and	r2, r2, #63
 244 002c 0F4B     		ldr	r3, .L40+8
 245 002e B3FBF2F3 		udiv	r3, r3, r2
 246              	.L36:
 247 0032 0C4A     		ldr	r2, .L40
 248 0034 D2F88400 		ldr	r0, [r2, #132]
 249 0038 C0F38810 		ubfx	r0, r0, #6, #9
 250 003c 03FB00F0 		mul	r0, r3, r0
 251 0040 D2F88430 		ldr	r3, [r2, #132]
 252 0044 C3F30273 		ubfx	r3, r3, #28, #3
 253 0048 B0FBF3F0 		udiv	r0, r0, r3
 254 004c 7047     		bx	lr
 255              	.L35:
 256 004e 054B     		ldr	r3, .L40
 257 0050 5A68     		ldr	r2, [r3, #4]
 258 0052 02F03F02 		and	r2, r2, #63
 259 0056 064B     		ldr	r3, .L40+12
 260 0058 B3FBF2F3 		udiv	r3, r3, r2
 261 005c E9E7     		b	.L36
 262              	.L38:
 263 005e 0020     		movs	r0, #0
 264 0060 7047     		bx	lr
 265              	.L41:
 266 0062 00BF     		.align	2
 267              	.L40:
 268 0064 00380240 		.word	1073887232
 269 0068 0080BB00 		.word	12288000
 270 006c 00127A00 		.word	8000000
 271 0070 0024F400 		.word	16000000
 273              		.section	.text.HAL_RCCEx_EnablePLLI2S,"ax",%progbits
 274              		.align	1
 275              		.global	HAL_RCCEx_EnablePLLI2S
 276              		.syntax unified
 277              		.thumb
 278              		.thumb_func
 280              	HAL_RCCEx_EnablePLLI2S:
 281              		@ args = 0, pretend = 0, frame = 0
 282              		@ frame_needed = 0, uses_anonymous_args = 0
 283 0000 38B5     		push	{r3, r4, r5, lr}
 284 0002 0546     		mov	r5, r0
 285 0004 164B     		ldr	r3, .L53
 286 0006 0022     		movs	r2, #0
 287 0008 9A66     		str	r2, [r3, #104]
 288 000a FFF7FEFF 		bl	HAL_GetTick
 289 000e 0446     		mov	r4, r0
 290              	.L43:
 291 0010 144B     		ldr	r3, .L53+4
 292 0012 1B68     		ldr	r3, [r3]
ARM GAS  /var/folders/lp/x54gwt890xv47sdkqj1k04q40000gn/T//cctQ6ZKf.s 			page 6


 293 0014 13F0006F 		tst	r3, #134217728
 294 0018 06D0     		beq	.L51
 295 001a FFF7FEFF 		bl	HAL_GetTick
 296 001e 001B     		subs	r0, r0, r4
 297 0020 0228     		cmp	r0, #2
 298 0022 F5D9     		bls	.L43
 299 0024 0320     		movs	r0, #3
 300              	.L44:
 301 0026 38BD     		pop	{r3, r4, r5, pc}
 302              	.L51:
 303 0028 2A68     		ldr	r2, [r5]
 304 002a 6B68     		ldr	r3, [r5, #4]
 305 002c 1B07     		lsls	r3, r3, #28
 306 002e 43EA8213 		orr	r3, r3, r2, lsl #6
 307 0032 0C4A     		ldr	r2, .L53+4
 308 0034 C2F88430 		str	r3, [r2, #132]
 309 0038 094B     		ldr	r3, .L53
 310 003a 0122     		movs	r2, #1
 311 003c 9A66     		str	r2, [r3, #104]
 312 003e FFF7FEFF 		bl	HAL_GetTick
 313 0042 0446     		mov	r4, r0
 314              	.L46:
 315 0044 074B     		ldr	r3, .L53+4
 316 0046 1B68     		ldr	r3, [r3]
 317 0048 13F0006F 		tst	r3, #134217728
 318 004c 06D1     		bne	.L52
 319 004e FFF7FEFF 		bl	HAL_GetTick
 320 0052 001B     		subs	r0, r0, r4
 321 0054 0228     		cmp	r0, #2
 322 0056 F5D9     		bls	.L46
 323 0058 0320     		movs	r0, #3
 324 005a E4E7     		b	.L44
 325              	.L52:
 326 005c 0020     		movs	r0, #0
 327 005e E2E7     		b	.L44
 328              	.L54:
 329              		.align	2
 330              	.L53:
 331 0060 00004742 		.word	1111949312
 332 0064 00380240 		.word	1073887232
 334              		.section	.text.HAL_RCCEx_DisablePLLI2S,"ax",%progbits
 335              		.align	1
 336              		.global	HAL_RCCEx_DisablePLLI2S
 337              		.syntax unified
 338              		.thumb
 339              		.thumb_func
 341              	HAL_RCCEx_DisablePLLI2S:
 342              		@ args = 0, pretend = 0, frame = 0
 343              		@ frame_needed = 0, uses_anonymous_args = 0
 344 0000 10B5     		push	{r4, lr}
 345 0002 0A4B     		ldr	r3, .L62
 346 0004 0022     		movs	r2, #0
 347 0006 9A66     		str	r2, [r3, #104]
 348 0008 FFF7FEFF 		bl	HAL_GetTick
 349 000c 0446     		mov	r4, r0
 350              	.L56:
 351 000e 084B     		ldr	r3, .L62+4
ARM GAS  /var/folders/lp/x54gwt890xv47sdkqj1k04q40000gn/T//cctQ6ZKf.s 			page 7


 352 0010 1B68     		ldr	r3, [r3]
 353 0012 13F0006F 		tst	r3, #134217728
 354 0016 06D0     		beq	.L61
 355 0018 FFF7FEFF 		bl	HAL_GetTick
 356 001c 001B     		subs	r0, r0, r4
 357 001e 0228     		cmp	r0, #2
 358 0020 F5D9     		bls	.L56
 359 0022 0320     		movs	r0, #3
 360 0024 00E0     		b	.L57
 361              	.L61:
 362 0026 0020     		movs	r0, #0
 363              	.L57:
 364 0028 10BD     		pop	{r4, pc}
 365              	.L63:
 366 002a 00BF     		.align	2
 367              	.L62:
 368 002c 00004742 		.word	1111949312
 369 0030 00380240 		.word	1073887232
 371              		.section	.text.HAL_RCC_DeInit,"ax",%progbits
 372              		.align	1
 373              		.global	HAL_RCC_DeInit
 374              		.syntax unified
 375              		.thumb
 376              		.thumb_func
 378              	HAL_RCC_DeInit:
 379              		@ args = 0, pretend = 0, frame = 0
 380              		@ frame_needed = 0, uses_anonymous_args = 0
 381 0000 38B5     		push	{r3, r4, r5, lr}
 382 0002 FFF7FEFF 		bl	HAL_GetTick
 383 0006 0446     		mov	r4, r0
 384 0008 464A     		ldr	r2, .L87
 385 000a 1368     		ldr	r3, [r2]
 386 000c 43F00103 		orr	r3, r3, #1
 387 0010 1360     		str	r3, [r2]
 388              	.L65:
 389 0012 444B     		ldr	r3, .L87
 390 0014 1B68     		ldr	r3, [r3]
 391 0016 13F0020F 		tst	r3, #2
 392 001a 06D1     		bne	.L82
 393 001c FFF7FEFF 		bl	HAL_GetTick
 394 0020 001B     		subs	r0, r0, r4
 395 0022 0228     		cmp	r0, #2
 396 0024 F5D9     		bls	.L65
 397 0026 0320     		movs	r0, #3
 398              	.L66:
 399 0028 38BD     		pop	{r3, r4, r5, pc}
 400              	.L82:
 401 002a 3E4D     		ldr	r5, .L87
 402 002c 2B68     		ldr	r3, [r5]
 403 002e 43F08003 		orr	r3, r3, #128
 404 0032 2B60     		str	r3, [r5]
 405 0034 FFF7FEFF 		bl	HAL_GetTick
 406 0038 0446     		mov	r4, r0
 407 003a 0023     		movs	r3, #0
 408 003c AB60     		str	r3, [r5, #8]
 409              	.L68:
 410 003e 394B     		ldr	r3, .L87
ARM GAS  /var/folders/lp/x54gwt890xv47sdkqj1k04q40000gn/T//cctQ6ZKf.s 			page 8


 411 0040 9B68     		ldr	r3, [r3, #8]
 412 0042 13F00C0F 		tst	r3, #12
 413 0046 08D0     		beq	.L83
 414 0048 FFF7FEFF 		bl	HAL_GetTick
 415 004c 001B     		subs	r0, r0, r4
 416 004e 41F28833 		movw	r3, #5000
 417 0052 9842     		cmp	r0, r3
 418 0054 F3D9     		bls	.L68
 419 0056 0320     		movs	r0, #3
 420 0058 E6E7     		b	.L66
 421              	.L83:
 422 005a FFF7FEFF 		bl	HAL_GetTick
 423 005e 0446     		mov	r4, r0
 424 0060 304A     		ldr	r2, .L87
 425 0062 1368     		ldr	r3, [r2]
 426 0064 23F45023 		bic	r3, r3, #851968
 427 0068 1360     		str	r3, [r2]
 428              	.L70:
 429 006a 2E4B     		ldr	r3, .L87
 430 006c 1B68     		ldr	r3, [r3]
 431 006e 13F4003F 		tst	r3, #131072
 432 0072 06D0     		beq	.L84
 433 0074 FFF7FEFF 		bl	HAL_GetTick
 434 0078 001B     		subs	r0, r0, r4
 435 007a 6428     		cmp	r0, #100
 436 007c F5D9     		bls	.L70
 437 007e 0320     		movs	r0, #3
 438 0080 D2E7     		b	.L66
 439              	.L84:
 440 0082 FFF7FEFF 		bl	HAL_GetTick
 441 0086 0446     		mov	r4, r0
 442 0088 264A     		ldr	r2, .L87
 443 008a 1368     		ldr	r3, [r2]
 444 008c 23F08073 		bic	r3, r3, #16777216
 445 0090 1360     		str	r3, [r2]
 446              	.L72:
 447 0092 244B     		ldr	r3, .L87
 448 0094 1B68     		ldr	r3, [r3]
 449 0096 13F0007F 		tst	r3, #33554432
 450 009a 06D0     		beq	.L85
 451 009c FFF7FEFF 		bl	HAL_GetTick
 452 00a0 001B     		subs	r0, r0, r4
 453 00a2 0228     		cmp	r0, #2
 454 00a4 F5D9     		bls	.L72
 455 00a6 0320     		movs	r0, #3
 456 00a8 BEE7     		b	.L66
 457              	.L85:
 458 00aa FFF7FEFF 		bl	HAL_GetTick
 459 00ae 0446     		mov	r4, r0
 460 00b0 1C4A     		ldr	r2, .L87
 461 00b2 1368     		ldr	r3, [r2]
 462 00b4 23F08063 		bic	r3, r3, #67108864
 463 00b8 1360     		str	r3, [r2]
 464              	.L74:
 465 00ba 1A4B     		ldr	r3, .L87
 466 00bc 1B68     		ldr	r3, [r3]
 467 00be 13F0006F 		tst	r3, #134217728
ARM GAS  /var/folders/lp/x54gwt890xv47sdkqj1k04q40000gn/T//cctQ6ZKf.s 			page 9


 468 00c2 06D0     		beq	.L86
 469 00c4 FFF7FEFF 		bl	HAL_GetTick
 470 00c8 001B     		subs	r0, r0, r4
 471 00ca 0228     		cmp	r0, #2
 472 00cc F5D9     		bls	.L74
 473 00ce 0320     		movs	r0, #3
 474 00d0 AAE7     		b	.L66
 475              	.L86:
 476 00d2 144B     		ldr	r3, .L87
 477 00d4 144A     		ldr	r2, .L87+4
 478 00d6 5A60     		str	r2, [r3, #4]
 479 00d8 144A     		ldr	r2, .L87+8
 480 00da C3F88420 		str	r2, [r3, #132]
 481 00de DA68     		ldr	r2, [r3, #12]
 482 00e0 22F4F852 		bic	r2, r2, #7936
 483 00e4 DA60     		str	r2, [r3, #12]
 484 00e6 DA68     		ldr	r2, [r3, #12]
 485 00e8 22F40052 		bic	r2, r2, #8192
 486 00ec DA60     		str	r2, [r3, #12]
 487 00ee DA68     		ldr	r2, [r3, #12]
 488 00f0 42F41F02 		orr	r2, r2, #10420224
 489 00f4 DA60     		str	r2, [r3, #12]
 490 00f6 DA68     		ldr	r2, [r3, #12]
 491 00f8 42F40012 		orr	r2, r2, #2097152
 492 00fc DA60     		str	r2, [r3, #12]
 493 00fe 5A6F     		ldr	r2, [r3, #116]
 494 0100 22F00102 		bic	r2, r2, #1
 495 0104 5A67     		str	r2, [r3, #116]
 496 0106 5A6F     		ldr	r2, [r3, #116]
 497 0108 42F08072 		orr	r2, r2, #16777216
 498 010c 5A67     		str	r2, [r3, #116]
 499 010e 084B     		ldr	r3, .L87+12
 500 0110 084A     		ldr	r2, .L87+16
 501 0112 1A60     		str	r2, [r3]
 502 0114 084B     		ldr	r3, .L87+20
 503 0116 1868     		ldr	r0, [r3]
 504 0118 FFF7FEFF 		bl	HAL_InitTick
 505 011c 0028     		cmp	r0, #0
 506 011e 83D0     		beq	.L66
 507 0120 0120     		movs	r0, #1
 508 0122 81E7     		b	.L66
 509              	.L88:
 510              		.align	2
 511              	.L87:
 512 0124 00380240 		.word	1073887232
 513 0128 10300004 		.word	67121168
 514 012c 00300020 		.word	536883200
 515 0130 00000000 		.word	SystemCoreClock
 516 0134 0024F400 		.word	16000000
 517 0138 00000000 		.word	uwTickPrio
 519              		.ident	"GCC: (xPack GNU Arm Embedded GCC arm64) 13.3.1 20240614"
ARM GAS  /var/folders/lp/x54gwt890xv47sdkqj1k04q40000gn/T//cctQ6ZKf.s 			page 10

