ARM GAS  /var/folders/lp/x54gwt890xv47sdkqj1k04q40000gn/T//cc4eSJBI.s 			page 1


   1              		.cpu cortex-m4
   2              		.arch armv7e-m
   3              		.fpu fpv4-sp-d16
   4              		.eabi_attribute 27, 1
   5              		.eabi_attribute 28, 1
   6              		.eabi_attribute 20, 1
   7              		.eabi_attribute 21, 1
   8              		.eabi_attribute 23, 3
   9              		.eabi_attribute 24, 1
  10              		.eabi_attribute 25, 1
  11              		.eabi_attribute 26, 1
  12              		.eabi_attribute 30, 1
  13              		.eabi_attribute 34, 1
  14              		.eabi_attribute 18, 4
  15              		.file	"stm32f4xx_hal_cortex.c"
  16              		.text
  17              		.section	.text.__NVIC_DisableIRQ,"ax",%progbits
  18              		.align	1
  19              		.syntax unified
  20              		.thumb
  21              		.thumb_func
  23              	__NVIC_DisableIRQ:
  24              		@ args = 0, pretend = 0, frame = 0
  25              		@ frame_needed = 0, uses_anonymous_args = 0
  26              		@ link register save eliminated.
  27 0000 0028     		cmp	r0, #0
  28 0002 0CDB     		blt	.L1
  29 0004 00F01F02 		and	r2, r0, #31
  30 0008 4009     		lsrs	r0, r0, #5
  31 000a 0123     		movs	r3, #1
  32 000c 9340     		lsls	r3, r3, r2
  33 000e 2030     		adds	r0, r0, #32
  34 0010 034A     		ldr	r2, .L3
  35 0012 42F82030 		str	r3, [r2, r0, lsl #2]
  36              		.syntax unified
  37              	@ 879 "Drivers/CMSIS/Include/cmsis_gcc.h" 1
  38 0016 BFF34F8F 		dsb 0xF
  39              	@ 0 "" 2
  40              	@ 868 "Drivers/CMSIS/Include/cmsis_gcc.h" 1
  41 001a BFF36F8F 		isb 0xF
  42              	@ 0 "" 2
  43              		.thumb
  44              		.syntax unified
  45              	.L1:
  46 001e 7047     		bx	lr
  47              	.L4:
  48              		.align	2
  49              	.L3:
  50 0020 00E100E0 		.word	-536813312
  52              		.section	.text.__NVIC_SetPriority,"ax",%progbits
  53              		.align	1
  54              		.syntax unified
  55              		.thumb
  56              		.thumb_func
  58              	__NVIC_SetPriority:
  59              		@ args = 0, pretend = 0, frame = 0
  60              		@ frame_needed = 0, uses_anonymous_args = 0
ARM GAS  /var/folders/lp/x54gwt890xv47sdkqj1k04q40000gn/T//cc4eSJBI.s 			page 2


  61              		@ link register save eliminated.
  62 0000 0028     		cmp	r0, #0
  63 0002 08DB     		blt	.L6
  64 0004 0901     		lsls	r1, r1, #4
  65 0006 C9B2     		uxtb	r1, r1
  66 0008 00F16040 		add	r0, r0, #-536870912
  67 000c 00F56140 		add	r0, r0, #57600
  68 0010 80F80013 		strb	r1, [r0, #768]
  69 0014 7047     		bx	lr
  70              	.L6:
  71 0016 00F00F00 		and	r0, r0, #15
  72 001a 0901     		lsls	r1, r1, #4
  73 001c C9B2     		uxtb	r1, r1
  74 001e 014B     		ldr	r3, .L8
  75 0020 1954     		strb	r1, [r3, r0]
  76 0022 7047     		bx	lr
  77              	.L9:
  78              		.align	2
  79              	.L8:
  80 0024 14ED00E0 		.word	-536810220
  82              		.section	.text.__NVIC_GetPriority,"ax",%progbits
  83              		.align	1
  84              		.syntax unified
  85              		.thumb
  86              		.thumb_func
  88              	__NVIC_GetPriority:
  89              		@ args = 0, pretend = 0, frame = 0
  90              		@ frame_needed = 0, uses_anonymous_args = 0
  91              		@ link register save eliminated.
  92 0000 0028     		cmp	r0, #0
  93 0002 07DB     		blt	.L11
  94 0004 00F16040 		add	r0, r0, #-536870912
  95 0008 00F56140 		add	r0, r0, #57600
  96 000c 90F80003 		ldrb	r0, [r0, #768]	@ zero_extendqisi2
  97 0010 0009     		lsrs	r0, r0, #4
  98 0012 7047     		bx	lr
  99              	.L11:
 100 0014 00F00F00 		and	r0, r0, #15
 101 0018 014B     		ldr	r3, .L13
 102 001a 185C     		ldrb	r0, [r3, r0]	@ zero_extendqisi2
 103 001c 0009     		lsrs	r0, r0, #4
 104 001e 7047     		bx	lr
 105              	.L14:
 106              		.align	2
 107              	.L13:
 108 0020 14ED00E0 		.word	-536810220
 110              		.section	.text.NVIC_EncodePriority,"ax",%progbits
 111              		.align	1
 112              		.syntax unified
 113              		.thumb
 114              		.thumb_func
 116              	NVIC_EncodePriority:
 117              		@ args = 0, pretend = 0, frame = 0
 118              		@ frame_needed = 0, uses_anonymous_args = 0
 119 0000 00B5     		push	{lr}
 120 0002 00F00700 		and	r0, r0, #7
 121 0006 C0F1070C 		rsb	ip, r0, #7
ARM GAS  /var/folders/lp/x54gwt890xv47sdkqj1k04q40000gn/T//cc4eSJBI.s 			page 3


 122 000a BCF1040F 		cmp	ip, #4
 123 000e 28BF     		it	cs
 124 0010 4FF0040C 		movcs	ip, #4
 125 0014 031D     		adds	r3, r0, #4
 126 0016 062B     		cmp	r3, #6
 127 0018 0FD9     		bls	.L17
 128 001a C31E     		subs	r3, r0, #3
 129              	.L16:
 130 001c 4FF0FF3E 		mov	lr, #-1
 131 0020 0EFA0CF0 		lsl	r0, lr, ip
 132 0024 21EA0001 		bic	r1, r1, r0
 133 0028 9940     		lsls	r1, r1, r3
 134 002a 0EFA03FE 		lsl	lr, lr, r3
 135 002e 22EA0E02 		bic	r2, r2, lr
 136 0032 41EA0200 		orr	r0, r1, r2
 137 0036 5DF804FB 		ldr	pc, [sp], #4
 138              	.L17:
 139 003a 0023     		movs	r3, #0
 140 003c EEE7     		b	.L16
 142              		.section	.text.NVIC_DecodePriority,"ax",%progbits
 143              		.align	1
 144              		.syntax unified
 145              		.thumb
 146              		.thumb_func
 148              	NVIC_DecodePriority:
 149              		@ args = 0, pretend = 0, frame = 0
 150              		@ frame_needed = 0, uses_anonymous_args = 0
 151 0000 10B5     		push	{r4, lr}
 152 0002 01F00701 		and	r1, r1, #7
 153 0006 C1F1070C 		rsb	ip, r1, #7
 154 000a BCF1040F 		cmp	ip, #4
 155 000e 28BF     		it	cs
 156 0010 4FF0040C 		movcs	ip, #4
 157 0014 0C1D     		adds	r4, r1, #4
 158 0016 062C     		cmp	r4, #6
 159 0018 0FD9     		bls	.L21
 160 001a 0339     		subs	r1, r1, #3
 161              	.L20:
 162 001c 20FA01F4 		lsr	r4, r0, r1
 163 0020 4FF0FF3E 		mov	lr, #-1
 164 0024 0EFA0CFC 		lsl	ip, lr, ip
 165 0028 24EA0C04 		bic	r4, r4, ip
 166 002c 1460     		str	r4, [r2]
 167 002e 0EFA01FE 		lsl	lr, lr, r1
 168 0032 20EA0E00 		bic	r0, r0, lr
 169 0036 1860     		str	r0, [r3]
 170 0038 10BD     		pop	{r4, pc}
 171              	.L21:
 172 003a 0021     		movs	r1, #0
 173 003c EEE7     		b	.L20
 175              		.section	.text.__NVIC_SystemReset,"ax",%progbits
 176              		.align	1
 177              		.syntax unified
 178              		.thumb
 179              		.thumb_func
 181              	__NVIC_SystemReset:
 182              		@ Volatile: function does not return.
ARM GAS  /var/folders/lp/x54gwt890xv47sdkqj1k04q40000gn/T//cc4eSJBI.s 			page 4


 183              		@ args = 0, pretend = 0, frame = 0
 184              		@ frame_needed = 0, uses_anonymous_args = 0
 185              		@ link register save eliminated.
 186              		.syntax unified
 187              	@ 879 "Drivers/CMSIS/Include/cmsis_gcc.h" 1
 188 0000 BFF34F8F 		dsb 0xF
 189              	@ 0 "" 2
 190              		.thumb
 191              		.syntax unified
 192 0004 0549     		ldr	r1, .L25
 193 0006 CA68     		ldr	r2, [r1, #12]
 194 0008 02F4E062 		and	r2, r2, #1792
 195 000c 044B     		ldr	r3, .L25+4
 196 000e 1343     		orrs	r3, r3, r2
 197 0010 CB60     		str	r3, [r1, #12]
 198              		.syntax unified
 199              	@ 879 "Drivers/CMSIS/Include/cmsis_gcc.h" 1
 200 0012 BFF34F8F 		dsb 0xF
 201              	@ 0 "" 2
 202              		.thumb
 203              		.syntax unified
 204              	.L24:
 205              		.syntax unified
 206              	@ 1950 "Drivers/CMSIS/Include/core_cm4.h" 1
 207 0016 00BF     		nop
 208              	@ 0 "" 2
 209              		.thumb
 210              		.syntax unified
 211 0018 FDE7     		b	.L24
 212              	.L26:
 213 001a 00BF     		.align	2
 214              	.L25:
 215 001c 00ED00E0 		.word	-536810240
 216 0020 0400FA05 		.word	100270084
 218              		.section	.text.HAL_NVIC_SetPriorityGrouping,"ax",%progbits
 219              		.align	1
 220              		.global	HAL_NVIC_SetPriorityGrouping
 221              		.syntax unified
 222              		.thumb
 223              		.thumb_func
 225              	HAL_NVIC_SetPriorityGrouping:
 226              		@ args = 0, pretend = 0, frame = 0
 227              		@ frame_needed = 0, uses_anonymous_args = 0
 228              		@ link register save eliminated.
 229 0000 074A     		ldr	r2, .L28
 230 0002 D368     		ldr	r3, [r2, #12]
 231 0004 23F4E063 		bic	r3, r3, #1792
 232 0008 1B04     		lsls	r3, r3, #16
 233 000a 1B0C     		lsrs	r3, r3, #16
 234 000c 0002     		lsls	r0, r0, #8
 235 000e 00F4E060 		and	r0, r0, #1792
 236 0012 0343     		orrs	r3, r3, r0
 237 0014 43F0BF63 		orr	r3, r3, #100139008
 238 0018 43F40033 		orr	r3, r3, #131072
 239 001c D360     		str	r3, [r2, #12]
 240 001e 7047     		bx	lr
 241              	.L29:
ARM GAS  /var/folders/lp/x54gwt890xv47sdkqj1k04q40000gn/T//cc4eSJBI.s 			page 5


 242              		.align	2
 243              	.L28:
 244 0020 00ED00E0 		.word	-536810240
 246              		.section	.text.HAL_NVIC_SetPriority,"ax",%progbits
 247              		.align	1
 248              		.global	HAL_NVIC_SetPriority
 249              		.syntax unified
 250              		.thumb
 251              		.thumb_func
 253              	HAL_NVIC_SetPriority:
 254              		@ args = 0, pretend = 0, frame = 0
 255              		@ frame_needed = 0, uses_anonymous_args = 0
 256 0000 10B5     		push	{r4, lr}
 257 0002 0446     		mov	r4, r0
 258 0004 054B     		ldr	r3, .L32
 259 0006 D868     		ldr	r0, [r3, #12]
 260 0008 C0F30220 		ubfx	r0, r0, #8, #3
 261 000c FFF7FEFF 		bl	NVIC_EncodePriority
 262 0010 0146     		mov	r1, r0
 263 0012 2046     		mov	r0, r4
 264 0014 FFF7FEFF 		bl	__NVIC_SetPriority
 265 0018 10BD     		pop	{r4, pc}
 266              	.L33:
 267 001a 00BF     		.align	2
 268              	.L32:
 269 001c 00ED00E0 		.word	-536810240
 271              		.section	.text.HAL_NVIC_EnableIRQ,"ax",%progbits
 272              		.align	1
 273              		.global	HAL_NVIC_EnableIRQ
 274              		.syntax unified
 275              		.thumb
 276              		.thumb_func
 278              	HAL_NVIC_EnableIRQ:
 279              		@ args = 0, pretend = 0, frame = 0
 280              		@ frame_needed = 0, uses_anonymous_args = 0
 281              		@ link register save eliminated.
 282 0000 0028     		cmp	r0, #0
 283 0002 07DB     		blt	.L34
 284 0004 00F01F02 		and	r2, r0, #31
 285 0008 4009     		lsrs	r0, r0, #5
 286 000a 0123     		movs	r3, #1
 287 000c 9340     		lsls	r3, r3, r2
 288 000e 024A     		ldr	r2, .L36
 289 0010 42F82030 		str	r3, [r2, r0, lsl #2]
 290              	.L34:
 291 0014 7047     		bx	lr
 292              	.L37:
 293 0016 00BF     		.align	2
 294              	.L36:
 295 0018 00E100E0 		.word	-536813312
 297              		.section	.text.HAL_NVIC_DisableIRQ,"ax",%progbits
 298              		.align	1
 299              		.global	HAL_NVIC_DisableIRQ
 300              		.syntax unified
 301              		.thumb
 302              		.thumb_func
 304              	HAL_NVIC_DisableIRQ:
ARM GAS  /var/folders/lp/x54gwt890xv47sdkqj1k04q40000gn/T//cc4eSJBI.s 			page 6


 305              		@ args = 0, pretend = 0, frame = 0
 306              		@ frame_needed = 0, uses_anonymous_args = 0
 307 0000 08B5     		push	{r3, lr}
 308 0002 FFF7FEFF 		bl	__NVIC_DisableIRQ
 309 0006 08BD     		pop	{r3, pc}
 311              		.section	.text.HAL_NVIC_SystemReset,"ax",%progbits
 312              		.align	1
 313              		.global	HAL_NVIC_SystemReset
 314              		.syntax unified
 315              		.thumb
 316              		.thumb_func
 318              	HAL_NVIC_SystemReset:
 319              		@ Volatile: function does not return.
 320              		@ args = 0, pretend = 0, frame = 0
 321              		@ frame_needed = 0, uses_anonymous_args = 0
 322 0000 08B5     		push	{r3, lr}
 323 0002 FFF7FEFF 		bl	__NVIC_SystemReset
 325              		.section	.text.HAL_SYSTICK_Config,"ax",%progbits
 326              		.align	1
 327              		.global	HAL_SYSTICK_Config
 328              		.syntax unified
 329              		.thumb
 330              		.thumb_func
 332              	HAL_SYSTICK_Config:
 333              		@ args = 0, pretend = 0, frame = 0
 334              		@ frame_needed = 0, uses_anonymous_args = 0
 335              		@ link register save eliminated.
 336 0000 0138     		subs	r0, r0, #1
 337 0002 B0F1807F 		cmp	r0, #16777216
 338 0006 0BD2     		bcs	.L44
 339 0008 4FF0E023 		mov	r3, #-536813568
 340 000c 5861     		str	r0, [r3, #20]
 341 000e 054A     		ldr	r2, .L45
 342 0010 F021     		movs	r1, #240
 343 0012 82F82310 		strb	r1, [r2, #35]
 344 0016 0020     		movs	r0, #0
 345 0018 9861     		str	r0, [r3, #24]
 346 001a 0722     		movs	r2, #7
 347 001c 1A61     		str	r2, [r3, #16]
 348 001e 7047     		bx	lr
 349              	.L44:
 350 0020 0120     		movs	r0, #1
 351 0022 7047     		bx	lr
 352              	.L46:
 353              		.align	2
 354              	.L45:
 355 0024 00ED00E0 		.word	-536810240
 357              		.section	.text.HAL_MPU_Disable,"ax",%progbits
 358              		.align	1
 359              		.global	HAL_MPU_Disable
 360              		.syntax unified
 361              		.thumb
 362              		.thumb_func
 364              	HAL_MPU_Disable:
 365              		@ args = 0, pretend = 0, frame = 0
 366              		@ frame_needed = 0, uses_anonymous_args = 0
 367              		@ link register save eliminated.
ARM GAS  /var/folders/lp/x54gwt890xv47sdkqj1k04q40000gn/T//cc4eSJBI.s 			page 7


 368              		.syntax unified
 369              	@ 890 "Drivers/CMSIS/Include/cmsis_gcc.h" 1
 370 0000 BFF35F8F 		dmb 0xF
 371              	@ 0 "" 2
 372              		.thumb
 373              		.syntax unified
 374 0004 044B     		ldr	r3, .L48
 375 0006 5A6A     		ldr	r2, [r3, #36]
 376 0008 22F48032 		bic	r2, r2, #65536
 377 000c 5A62     		str	r2, [r3, #36]
 378 000e 0022     		movs	r2, #0
 379 0010 C3F89420 		str	r2, [r3, #148]
 380 0014 7047     		bx	lr
 381              	.L49:
 382 0016 00BF     		.align	2
 383              	.L48:
 384 0018 00ED00E0 		.word	-536810240
 386              		.section	.text.HAL_MPU_Enable,"ax",%progbits
 387              		.align	1
 388              		.global	HAL_MPU_Enable
 389              		.syntax unified
 390              		.thumb
 391              		.thumb_func
 393              	HAL_MPU_Enable:
 394              		@ args = 0, pretend = 0, frame = 0
 395              		@ frame_needed = 0, uses_anonymous_args = 0
 396              		@ link register save eliminated.
 397 0000 40F00100 		orr	r0, r0, #1
 398 0004 054B     		ldr	r3, .L51
 399 0006 C3F89400 		str	r0, [r3, #148]
 400 000a 5A6A     		ldr	r2, [r3, #36]
 401 000c 42F48032 		orr	r2, r2, #65536
 402 0010 5A62     		str	r2, [r3, #36]
 403              		.syntax unified
 404              	@ 879 "Drivers/CMSIS/Include/cmsis_gcc.h" 1
 405 0012 BFF34F8F 		dsb 0xF
 406              	@ 0 "" 2
 407              	@ 868 "Drivers/CMSIS/Include/cmsis_gcc.h" 1
 408 0016 BFF36F8F 		isb 0xF
 409              	@ 0 "" 2
 410              		.thumb
 411              		.syntax unified
 412 001a 7047     		bx	lr
 413              	.L52:
 414              		.align	2
 415              	.L51:
 416 001c 00ED00E0 		.word	-536810240
 418              		.section	.text.HAL_MPU_ConfigRegion,"ax",%progbits
 419              		.align	1
 420              		.global	HAL_MPU_ConfigRegion
 421              		.syntax unified
 422              		.thumb
 423              		.thumb_func
 425              	HAL_MPU_ConfigRegion:
 426              		@ args = 0, pretend = 0, frame = 0
 427              		@ frame_needed = 0, uses_anonymous_args = 0
 428              		@ link register save eliminated.
ARM GAS  /var/folders/lp/x54gwt890xv47sdkqj1k04q40000gn/T//cc4eSJBI.s 			page 8


 429 0000 4278     		ldrb	r2, [r0, #1]	@ zero_extendqisi2
 430 0002 164B     		ldr	r3, .L56
 431 0004 C3F89820 		str	r2, [r3, #152]
 432 0008 0378     		ldrb	r3, [r0]	@ zero_extendqisi2
 433 000a FBB1     		cbz	r3, .L54
 434 000c 4368     		ldr	r3, [r0, #4]
 435 000e 134A     		ldr	r2, .L56
 436 0010 C2F89C30 		str	r3, [r2, #156]
 437 0014 017B     		ldrb	r1, [r0, #12]	@ zero_extendqisi2
 438 0016 C37A     		ldrb	r3, [r0, #11]	@ zero_extendqisi2
 439 0018 1B06     		lsls	r3, r3, #24
 440 001a 43EA0173 		orr	r3, r3, r1, lsl #28
 441 001e 817A     		ldrb	r1, [r0, #10]	@ zero_extendqisi2
 442 0020 43EAC143 		orr	r3, r3, r1, lsl #19
 443 0024 417B     		ldrb	r1, [r0, #13]	@ zero_extendqisi2
 444 0026 43EA8143 		orr	r3, r3, r1, lsl #18
 445 002a 817B     		ldrb	r1, [r0, #14]	@ zero_extendqisi2
 446 002c 43EA4143 		orr	r3, r3, r1, lsl #17
 447 0030 C17B     		ldrb	r1, [r0, #15]	@ zero_extendqisi2
 448 0032 43EA0143 		orr	r3, r3, r1, lsl #16
 449 0036 417A     		ldrb	r1, [r0, #9]	@ zero_extendqisi2
 450 0038 43EA0123 		orr	r3, r3, r1, lsl #8
 451 003c 017A     		ldrb	r1, [r0, #8]	@ zero_extendqisi2
 452 003e 43EA4103 		orr	r3, r3, r1, lsl #1
 453 0042 0178     		ldrb	r1, [r0]	@ zero_extendqisi2
 454 0044 0B43     		orrs	r3, r3, r1
 455 0046 C2F8A030 		str	r3, [r2, #160]
 456 004a 7047     		bx	lr
 457              	.L54:
 458 004c 034B     		ldr	r3, .L56
 459 004e 0022     		movs	r2, #0
 460 0050 C3F89C20 		str	r2, [r3, #156]
 461 0054 C3F8A020 		str	r2, [r3, #160]
 462 0058 7047     		bx	lr
 463              	.L57:
 464 005a 00BF     		.align	2
 465              	.L56:
 466 005c 00ED00E0 		.word	-536810240
 468              		.section	.text.HAL_NVIC_GetPriorityGrouping,"ax",%progbits
 469              		.align	1
 470              		.global	HAL_NVIC_GetPriorityGrouping
 471              		.syntax unified
 472              		.thumb
 473              		.thumb_func
 475              	HAL_NVIC_GetPriorityGrouping:
 476              		@ args = 0, pretend = 0, frame = 0
 477              		@ frame_needed = 0, uses_anonymous_args = 0
 478              		@ link register save eliminated.
 479 0000 024B     		ldr	r3, .L59
 480 0002 D868     		ldr	r0, [r3, #12]
 481 0004 C0F30220 		ubfx	r0, r0, #8, #3
 482 0008 7047     		bx	lr
 483              	.L60:
 484 000a 00BF     		.align	2
 485              	.L59:
 486 000c 00ED00E0 		.word	-536810240
 488              		.section	.text.HAL_NVIC_GetPriority,"ax",%progbits
ARM GAS  /var/folders/lp/x54gwt890xv47sdkqj1k04q40000gn/T//cc4eSJBI.s 			page 9


 489              		.align	1
 490              		.global	HAL_NVIC_GetPriority
 491              		.syntax unified
 492              		.thumb
 493              		.thumb_func
 495              	HAL_NVIC_GetPriority:
 496              		@ args = 0, pretend = 0, frame = 0
 497              		@ frame_needed = 0, uses_anonymous_args = 0
 498 0000 70B5     		push	{r4, r5, r6, lr}
 499 0002 0C46     		mov	r4, r1
 500 0004 1546     		mov	r5, r2
 501 0006 1E46     		mov	r6, r3
 502 0008 FFF7FEFF 		bl	__NVIC_GetPriority
 503 000c 3346     		mov	r3, r6
 504 000e 2A46     		mov	r2, r5
 505 0010 2146     		mov	r1, r4
 506 0012 FFF7FEFF 		bl	NVIC_DecodePriority
 507 0016 70BD     		pop	{r4, r5, r6, pc}
 509              		.section	.text.HAL_NVIC_SetPendingIRQ,"ax",%progbits
 510              		.align	1
 511              		.global	HAL_NVIC_SetPendingIRQ
 512              		.syntax unified
 513              		.thumb
 514              		.thumb_func
 516              	HAL_NVIC_SetPendingIRQ:
 517              		@ args = 0, pretend = 0, frame = 0
 518              		@ frame_needed = 0, uses_anonymous_args = 0
 519              		@ link register save eliminated.
 520 0000 0028     		cmp	r0, #0
 521 0002 08DB     		blt	.L63
 522 0004 00F01F02 		and	r2, r0, #31
 523 0008 4009     		lsrs	r0, r0, #5
 524 000a 0123     		movs	r3, #1
 525 000c 9340     		lsls	r3, r3, r2
 526 000e 4030     		adds	r0, r0, #64
 527 0010 014A     		ldr	r2, .L65
 528 0012 42F82030 		str	r3, [r2, r0, lsl #2]
 529              	.L63:
 530 0016 7047     		bx	lr
 531              	.L66:
 532              		.align	2
 533              	.L65:
 534 0018 00E100E0 		.word	-536813312
 536              		.section	.text.HAL_NVIC_GetPendingIRQ,"ax",%progbits
 537              		.align	1
 538              		.global	HAL_NVIC_GetPendingIRQ
 539              		.syntax unified
 540              		.thumb
 541              		.thumb_func
 543              	HAL_NVIC_GetPendingIRQ:
 544              		@ args = 0, pretend = 0, frame = 0
 545              		@ frame_needed = 0, uses_anonymous_args = 0
 546              		@ link register save eliminated.
 547 0000 0028     		cmp	r0, #0
 548 0002 0BDB     		blt	.L69
 549 0004 4309     		lsrs	r3, r0, #5
 550 0006 4033     		adds	r3, r3, #64
ARM GAS  /var/folders/lp/x54gwt890xv47sdkqj1k04q40000gn/T//cc4eSJBI.s 			page 10


 551 0008 054A     		ldr	r2, .L70
 552 000a 52F82330 		ldr	r3, [r2, r3, lsl #2]
 553 000e 00F01F00 		and	r0, r0, #31
 554 0012 23FA00F0 		lsr	r0, r3, r0
 555 0016 00F00100 		and	r0, r0, #1
 556 001a 7047     		bx	lr
 557              	.L69:
 558 001c 0020     		movs	r0, #0
 559 001e 7047     		bx	lr
 560              	.L71:
 561              		.align	2
 562              	.L70:
 563 0020 00E100E0 		.word	-536813312
 565              		.section	.text.HAL_NVIC_ClearPendingIRQ,"ax",%progbits
 566              		.align	1
 567              		.global	HAL_NVIC_ClearPendingIRQ
 568              		.syntax unified
 569              		.thumb
 570              		.thumb_func
 572              	HAL_NVIC_ClearPendingIRQ:
 573              		@ args = 0, pretend = 0, frame = 0
 574              		@ frame_needed = 0, uses_anonymous_args = 0
 575              		@ link register save eliminated.
 576 0000 0028     		cmp	r0, #0
 577 0002 08DB     		blt	.L72
 578 0004 00F01F02 		and	r2, r0, #31
 579 0008 4009     		lsrs	r0, r0, #5
 580 000a 0123     		movs	r3, #1
 581 000c 9340     		lsls	r3, r3, r2
 582 000e 6030     		adds	r0, r0, #96
 583 0010 014A     		ldr	r2, .L74
 584 0012 42F82030 		str	r3, [r2, r0, lsl #2]
 585              	.L72:
 586 0016 7047     		bx	lr
 587              	.L75:
 588              		.align	2
 589              	.L74:
 590 0018 00E100E0 		.word	-536813312
 592              		.section	.text.HAL_NVIC_GetActive,"ax",%progbits
 593              		.align	1
 594              		.global	HAL_NVIC_GetActive
 595              		.syntax unified
 596              		.thumb
 597              		.thumb_func
 599              	HAL_NVIC_GetActive:
 600              		@ args = 0, pretend = 0, frame = 0
 601              		@ frame_needed = 0, uses_anonymous_args = 0
 602              		@ link register save eliminated.
 603 0000 0028     		cmp	r0, #0
 604 0002 0BDB     		blt	.L78
 605 0004 4309     		lsrs	r3, r0, #5
 606 0006 8033     		adds	r3, r3, #128
 607 0008 054A     		ldr	r2, .L79
 608 000a 52F82330 		ldr	r3, [r2, r3, lsl #2]
 609 000e 00F01F00 		and	r0, r0, #31
 610 0012 23FA00F0 		lsr	r0, r3, r0
 611 0016 00F00100 		and	r0, r0, #1
ARM GAS  /var/folders/lp/x54gwt890xv47sdkqj1k04q40000gn/T//cc4eSJBI.s 			page 11


 612 001a 7047     		bx	lr
 613              	.L78:
 614 001c 0020     		movs	r0, #0
 615 001e 7047     		bx	lr
 616              	.L80:
 617              		.align	2
 618              	.L79:
 619 0020 00E100E0 		.word	-536813312
 621              		.section	.text.HAL_SYSTICK_CLKSourceConfig,"ax",%progbits
 622              		.align	1
 623              		.global	HAL_SYSTICK_CLKSourceConfig
 624              		.syntax unified
 625              		.thumb
 626              		.thumb_func
 628              	HAL_SYSTICK_CLKSourceConfig:
 629              		@ args = 0, pretend = 0, frame = 0
 630              		@ frame_needed = 0, uses_anonymous_args = 0
 631              		@ link register save eliminated.
 632 0000 0428     		cmp	r0, #4
 633 0002 06D0     		beq	.L84
 634 0004 4FF0E022 		mov	r2, #-536813568
 635 0008 1369     		ldr	r3, [r2, #16]
 636 000a 23F00403 		bic	r3, r3, #4
 637 000e 1361     		str	r3, [r2, #16]
 638 0010 7047     		bx	lr
 639              	.L84:
 640 0012 4FF0E022 		mov	r2, #-536813568
 641 0016 1369     		ldr	r3, [r2, #16]
 642 0018 43F00403 		orr	r3, r3, #4
 643 001c 1361     		str	r3, [r2, #16]
 644 001e 7047     		bx	lr
 646              		.section	.text.HAL_SYSTICK_Callback,"ax",%progbits
 647              		.align	1
 648              		.weak	HAL_SYSTICK_Callback
 649              		.syntax unified
 650              		.thumb
 651              		.thumb_func
 653              	HAL_SYSTICK_Callback:
 654              		@ args = 0, pretend = 0, frame = 0
 655              		@ frame_needed = 0, uses_anonymous_args = 0
 656              		@ link register save eliminated.
 657 0000 7047     		bx	lr
 659              		.section	.text.HAL_SYSTICK_IRQHandler,"ax",%progbits
 660              		.align	1
 661              		.global	HAL_SYSTICK_IRQHandler
 662              		.syntax unified
 663              		.thumb
 664              		.thumb_func
 666              	HAL_SYSTICK_IRQHandler:
 667              		@ args = 0, pretend = 0, frame = 0
 668              		@ frame_needed = 0, uses_anonymous_args = 0
 669 0000 08B5     		push	{r3, lr}
 670 0002 FFF7FEFF 		bl	HAL_SYSTICK_Callback
 671 0006 08BD     		pop	{r3, pc}
 673              		.ident	"GCC: (xPack GNU Arm Embedded GCC arm64) 13.3.1 20240614"
ARM GAS  /var/folders/lp/x54gwt890xv47sdkqj1k04q40000gn/T//cc4eSJBI.s 			page 12

