ARM GAS  /var/folders/lp/x54gwt890xv47sdkqj1k04q40000gn/T//ccuufEt5.s 			page 1


   1              		.cpu cortex-m4
   2              		.arch armv7e-m
   3              		.fpu fpv4-sp-d16
   4              		.eabi_attribute 27, 1
   5              		.eabi_attribute 28, 1
   6              		.eabi_attribute 20, 1
   7              		.eabi_attribute 21, 1
   8              		.eabi_attribute 23, 3
   9              		.eabi_attribute 24, 1
  10              		.eabi_attribute 25, 1
  11              		.eabi_attribute 26, 1
  12              		.eabi_attribute 30, 1
  13              		.eabi_attribute 34, 1
  14              		.eabi_attribute 18, 4
  15              		.file	"stm32f4xx_hal_i2s_ex.c"
  16              		.text
  17              		.section	.text.I2SEx_FullDuplexWaitFlagStateUntilTimeout,"ax",%progbits
  18              		.align	1
  19              		.syntax unified
  20              		.thumb
  21              		.thumb_func
  23              	I2SEx_FullDuplexWaitFlagStateUntilTimeout:
  24              		@ args = 4, pretend = 0, frame = 0
  25              		@ frame_needed = 0, uses_anonymous_args = 0
  26 0000 2DE9F047 		push	{r4, r5, r6, r7, r8, r9, r10, lr}
  27 0004 0646     		mov	r6, r0
  28 0006 0F46     		mov	r7, r1
  29 0008 9046     		mov	r8, r2
  30 000a 1D46     		mov	r5, r3
  31 000c 9DF820A0 		ldrb	r10, [sp, #32]	@ zero_extendqisi2
  32 0010 FFF7FEFF 		bl	HAL_GetTick
  33 0014 8146     		mov	r9, r0
  34 0016 BAF1000F 		cmp	r10, #0
  35 001a 15D0     		beq	.L4
  36 001c 36E0     		b	.L9
  37              	.L19:
  38 001e 2DB1     		cbz	r5, .L5
  39 0020 FFF7FEFF 		bl	HAL_GetTick
  40 0024 A0EB0900 		sub	r0, r0, r9
  41 0028 A842     		cmp	r0, r5
  42 002a 0DD9     		bls	.L4
  43              	.L5:
  44 002c 0123     		movs	r3, #1
  45 002e 86F84130 		strb	r3, [r6, #65]
  46 0032 0023     		movs	r3, #0
  47 0034 86F84030 		strb	r3, [r6, #64]
  48 0038 0320     		movs	r0, #3
  49 003a 0DE0     		b	.L6
  50              	.L20:
  51 003c 0123     		movs	r3, #1
  52              	.L7:
  53 003e 4345     		cmp	r3, r8
  54 0040 09D0     		beq	.L18
  55 0042 B5F1FF3F 		cmp	r5, #-1
  56 0046 EAD1     		bne	.L19
  57              	.L4:
  58 0048 3368     		ldr	r3, [r6]
ARM GAS  /var/folders/lp/x54gwt890xv47sdkqj1k04q40000gn/T//ccuufEt5.s 			page 2


  59 004a 9C68     		ldr	r4, [r3, #8]
  60 004c 37EA0404 		bics	r4, r7, r4
  61 0050 F4D0     		beq	.L20
  62 0052 0023     		movs	r3, #0
  63 0054 F3E7     		b	.L7
  64              	.L18:
  65 0056 5046     		mov	r0, r10
  66              	.L6:
  67 0058 BDE8F087 		pop	{r4, r5, r6, r7, r8, r9, r10, pc}
  68              	.L22:
  69 005c 2DB1     		cbz	r5, .L10
  70 005e FFF7FEFF 		bl	HAL_GetTick
  71 0062 A0EB0900 		sub	r0, r0, r9
  72 0066 A842     		cmp	r0, r5
  73 0068 10D9     		bls	.L9
  74              	.L10:
  75 006a 0123     		movs	r3, #1
  76 006c 86F84130 		strb	r3, [r6, #65]
  77 0070 0023     		movs	r3, #0
  78 0072 86F84030 		strb	r3, [r6, #64]
  79 0076 0320     		movs	r0, #3
  80 0078 EEE7     		b	.L6
  81              	.L23:
  82 007a A3F58063 		sub	r3, r3, #1024
  83 007e 0BE0     		b	.L11
  84              	.L24:
  85 0080 0123     		movs	r3, #1
  86              	.L12:
  87 0082 4345     		cmp	r3, r8
  88 0084 0ED0     		beq	.L21
  89 0086 B5F1FF3F 		cmp	r5, #-1
  90 008a E7D1     		bne	.L22
  91              	.L9:
  92 008c 3268     		ldr	r2, [r6]
  93 008e 064B     		ldr	r3, .L25
  94 0090 9A42     		cmp	r2, r3
  95 0092 F2D0     		beq	.L23
  96 0094 4FF04023 		mov	r3, #1073758208
  97              	.L11:
  98 0098 9C68     		ldr	r4, [r3, #8]
  99 009a 37EA0404 		bics	r4, r7, r4
 100 009e EFD0     		beq	.L24
 101 00a0 0023     		movs	r3, #0
 102 00a2 EEE7     		b	.L12
 103              	.L21:
 104 00a4 0020     		movs	r0, #0
 105 00a6 D7E7     		b	.L6
 106              	.L26:
 107              		.align	2
 108              	.L25:
 109 00a8 00380040 		.word	1073756160
 111              		.section	.text.I2SEx_TxRxDMAError,"ax",%progbits
 112              		.align	1
 113              		.syntax unified
 114              		.thumb
 115              		.thumb_func
 117              	I2SEx_TxRxDMAError:
ARM GAS  /var/folders/lp/x54gwt890xv47sdkqj1k04q40000gn/T//ccuufEt5.s 			page 3


 118              		@ args = 0, pretend = 0, frame = 0
 119              		@ frame_needed = 0, uses_anonymous_args = 0
 120 0000 08B5     		push	{r3, lr}
 121 0002 806B     		ldr	r0, [r0, #56]
 122 0004 0268     		ldr	r2, [r0]
 123 0006 5368     		ldr	r3, [r2, #4]
 124 0008 23F00303 		bic	r3, r3, #3
 125 000c 5360     		str	r3, [r2, #4]
 126 000e 0268     		ldr	r2, [r0]
 127 0010 0B4B     		ldr	r3, .L32
 128 0012 9A42     		cmp	r2, r3
 129 0014 12D0     		beq	.L31
 130 0016 4FF04022 		mov	r2, #1073758208
 131              	.L28:
 132 001a 5368     		ldr	r3, [r2, #4]
 133 001c 23F00303 		bic	r3, r3, #3
 134 0020 5360     		str	r3, [r2, #4]
 135 0022 0023     		movs	r3, #0
 136 0024 4385     		strh	r3, [r0, #42]	@ movhi
 137 0026 4386     		strh	r3, [r0, #50]	@ movhi
 138 0028 0123     		movs	r3, #1
 139 002a 80F84130 		strb	r3, [r0, #65]
 140 002e 436C     		ldr	r3, [r0, #68]
 141 0030 43F00803 		orr	r3, r3, #8
 142 0034 4364     		str	r3, [r0, #68]
 143 0036 FFF7FEFF 		bl	HAL_I2S_ErrorCallback
 144 003a 08BD     		pop	{r3, pc}
 145              	.L31:
 146 003c 014A     		ldr	r2, .L32+4
 147 003e ECE7     		b	.L28
 148              	.L33:
 149              		.align	2
 150              	.L32:
 151 0040 00380040 		.word	1073756160
 152 0044 00340040 		.word	1073755136
 154              		.section	.text.HAL_I2SEx_TransmitReceive,"ax",%progbits
 155              		.align	1
 156              		.global	HAL_I2SEx_TransmitReceive
 157              		.syntax unified
 158              		.thumb
 159              		.thumb_func
 161              	HAL_I2SEx_TransmitReceive:
 162              		@ args = 4, pretend = 0, frame = 24
 163              		@ frame_needed = 0, uses_anonymous_args = 0
 164 0000 2DE9F043 		push	{r4, r5, r6, r7, r8, r9, lr}
 165 0004 89B0     		sub	sp, sp, #36
 166 0006 0446     		mov	r4, r0
 167 0008 DDF84080 		ldr	r8, [sp, #64]
 168 000c 90F84170 		ldrb	r7, [r0, #65]	@ zero_extendqisi2
 169 0010 FFB2     		uxtb	r7, r7
 170 0012 012F     		cmp	r7, #1
 171 0014 40F08081 		bne	.L65
 172 0018 1646     		mov	r6, r2
 173 001a 0029     		cmp	r1, #0
 174 001c 00F08381 		beq	.L36
 175 0020 002A     		cmp	r2, #0
 176 0022 00F08081 		beq	.L36
ARM GAS  /var/folders/lp/x54gwt890xv47sdkqj1k04q40000gn/T//ccuufEt5.s 			page 4


 177 0026 002B     		cmp	r3, #0
 178 0028 00F07D81 		beq	.L36
 179 002c 90F84020 		ldrb	r2, [r0, #64]	@ zero_extendqisi2
 180 0030 D2B2     		uxtb	r2, r2
 181 0032 012A     		cmp	r2, #1
 182 0034 00F07B81 		beq	.L66
 183 0038 0122     		movs	r2, #1
 184 003a 80F84020 		strb	r2, [r0, #64]
 185 003e 0068     		ldr	r0, [r0]
 186 0040 C269     		ldr	r2, [r0, #28]
 187 0042 02F00702 		and	r2, r2, #7
 188 0046 032A     		cmp	r2, #3
 189 0048 06D0     		beq	.L37
 190 004a 052A     		cmp	r2, #5
 191 004c 04D0     		beq	.L37
 192 004e 2385     		strh	r3, [r4, #40]	@ movhi
 193 0050 6385     		strh	r3, [r4, #42]	@ movhi
 194 0052 2386     		strh	r3, [r4, #48]	@ movhi
 195 0054 6386     		strh	r3, [r4, #50]	@ movhi
 196 0056 05E0     		b	.L39
 197              	.L37:
 198 0058 5B00     		lsls	r3, r3, #1
 199 005a 9BB2     		uxth	r3, r3
 200 005c 2385     		strh	r3, [r4, #40]	@ movhi
 201 005e 6385     		strh	r3, [r4, #42]	@ movhi
 202 0060 2386     		strh	r3, [r4, #48]	@ movhi
 203 0062 6386     		strh	r3, [r4, #50]	@ movhi
 204              	.L39:
 205 0064 0023     		movs	r3, #0
 206 0066 6364     		str	r3, [r4, #68]
 207 0068 0523     		movs	r3, #5
 208 006a 84F84130 		strb	r3, [r4, #65]
 209 006e C369     		ldr	r3, [r0, #28]
 210 0070 03F44079 		and	r9, r3, #768
 211 0074 B9F5007F 		cmp	r9, #512
 212 0078 03D0     		beq	.L40
 213 007a B9F1000F 		cmp	r9, #0
 214 007e 40F0A680 		bne	.L41
 215              	.L40:
 216 0082 0D46     		mov	r5, r1
 217 0084 35F8023B 		ldrh	r3, [r5], #2
 218 0088 C360     		str	r3, [r0, #12]
 219 008a 638D     		ldrh	r3, [r4, #42]
 220 008c 9BB2     		uxth	r3, r3
 221 008e 013B     		subs	r3, r3, #1
 222 0090 9BB2     		uxth	r3, r3
 223 0092 6385     		strh	r3, [r4, #42]	@ movhi
 224 0094 2268     		ldr	r2, [r4]
 225 0096 8A4B     		ldr	r3, .L98
 226 0098 9A42     		cmp	r2, r3
 227 009a 1ED0     		beq	.L82
 228 009c 4FF04022 		mov	r2, #1073758208
 229              	.L42:
 230 00a0 D369     		ldr	r3, [r2, #28]
 231 00a2 43F48063 		orr	r3, r3, #1024
 232 00a6 D361     		str	r3, [r2, #28]
 233 00a8 2268     		ldr	r2, [r4]
ARM GAS  /var/folders/lp/x54gwt890xv47sdkqj1k04q40000gn/T//ccuufEt5.s 			page 5


 234 00aa D369     		ldr	r3, [r2, #28]
 235 00ac 43F48063 		orr	r3, r3, #1024
 236 00b0 D361     		str	r3, [r2, #28]
 237 00b2 2268     		ldr	r2, [r4]
 238 00b4 D369     		ldr	r3, [r2, #28]
 239 00b6 03F44073 		and	r3, r3, #768
 240 00ba B3F5007F 		cmp	r3, #512
 241 00be 18D1     		bne	.L45
 242 00c0 0023     		movs	r3, #0
 243 00c2 0293     		str	r3, [sp, #8]
 244 00c4 7E4B     		ldr	r3, .L98
 245 00c6 9A42     		cmp	r2, r3
 246 00c8 09D0     		beq	.L83
 247 00ca 4FF04023 		mov	r3, #1073758208
 248              	.L44:
 249 00ce DA68     		ldr	r2, [r3, #12]
 250 00d0 0292     		str	r2, [sp, #8]
 251 00d2 9B68     		ldr	r3, [r3, #8]
 252 00d4 0293     		str	r3, [sp, #8]
 253 00d6 029B     		ldr	r3, [sp, #8]
 254 00d8 0BE0     		b	.L45
 255              	.L82:
 256 00da 7A4A     		ldr	r2, .L98+4
 257 00dc E0E7     		b	.L42
 258              	.L83:
 259 00de A3F58063 		sub	r3, r3, #1024
 260 00e2 F4E7     		b	.L44
 261              	.L52:
 262 00e4 638D     		ldrh	r3, [r4, #42]
 263 00e6 9BB2     		uxth	r3, r3
 264 00e8 8BB9     		cbnz	r3, .L84
 265              	.L46:
 266 00ea 638E     		ldrh	r3, [r4, #50]
 267 00ec 9BB2     		uxth	r3, r3
 268 00ee 002B     		cmp	r3, #0
 269 00f0 36D1     		bne	.L85
 270              	.L45:
 271 00f2 638E     		ldrh	r3, [r4, #50]
 272 00f4 9BB2     		uxth	r3, r3
 273 00f6 002B     		cmp	r3, #0
 274 00f8 F4D1     		bne	.L52
 275 00fa 638D     		ldrh	r3, [r4, #42]
 276 00fc 9BB2     		uxth	r3, r3
 277 00fe 002B     		cmp	r3, #0
 278 0100 F0D1     		bne	.L52
 279              	.L53:
 280 0102 636C     		ldr	r3, [r4, #68]
 281 0104 002B     		cmp	r3, #0
 282 0106 40F00881 		bne	.L35
 283 010a 0027     		movs	r7, #0
 284 010c 05E1     		b	.L35
 285              	.L84:
 286 010e 0023     		movs	r3, #0
 287 0110 0093     		str	r3, [sp]
 288 0112 4346     		mov	r3, r8
 289 0114 0122     		movs	r2, #1
 290 0116 0221     		movs	r1, #2
ARM GAS  /var/folders/lp/x54gwt890xv47sdkqj1k04q40000gn/T//ccuufEt5.s 			page 6


 291 0118 2046     		mov	r0, r4
 292 011a FFF7FEFF 		bl	I2SEx_FullDuplexWaitFlagStateUntilTimeout
 293 011e D0B9     		cbnz	r0, .L86
 294 0120 2368     		ldr	r3, [r4]
 295 0122 35F8022B 		ldrh	r2, [r5], #2
 296 0126 DA60     		str	r2, [r3, #12]
 297 0128 638D     		ldrh	r3, [r4, #42]
 298 012a 9BB2     		uxth	r3, r3
 299 012c 013B     		subs	r3, r3, #1
 300 012e 9BB2     		uxth	r3, r3
 301 0130 6385     		strh	r3, [r4, #42]	@ movhi
 302 0132 2368     		ldr	r3, [r4]
 303 0134 9A68     		ldr	r2, [r3, #8]
 304 0136 12F0080F 		tst	r2, #8
 305 013a D6D0     		beq	.L46
 306 013c B9F1000F 		cmp	r9, #0
 307 0140 D3D1     		bne	.L46
 308 0142 0022     		movs	r2, #0
 309 0144 0392     		str	r2, [sp, #12]
 310 0146 9B68     		ldr	r3, [r3, #8]
 311 0148 0393     		str	r3, [sp, #12]
 312 014a 039B     		ldr	r3, [sp, #12]
 313 014c 636C     		ldr	r3, [r4, #68]
 314 014e 43F00403 		orr	r3, r3, #4
 315 0152 6364     		str	r3, [r4, #68]
 316 0154 C9E7     		b	.L46
 317              	.L86:
 318 0156 636C     		ldr	r3, [r4, #68]
 319 0158 43F00103 		orr	r3, r3, #1
 320 015c 6364     		str	r3, [r4, #68]
 321 015e DCE0     		b	.L35
 322              	.L85:
 323 0160 0121     		movs	r1, #1
 324 0162 0091     		str	r1, [sp]
 325 0164 4346     		mov	r3, r8
 326 0166 0A46     		mov	r2, r1
 327 0168 2046     		mov	r0, r4
 328 016a FFF7FEFF 		bl	I2SEx_FullDuplexWaitFlagStateUntilTimeout
 329 016e 18BB     		cbnz	r0, .L87
 330 0170 2268     		ldr	r2, [r4]
 331 0172 534B     		ldr	r3, .L98
 332 0174 9A42     		cmp	r2, r3
 333 0176 24D0     		beq	.L88
 334 0178 4FF04023 		mov	r3, #1073758208
 335              	.L50:
 336 017c DB68     		ldr	r3, [r3, #12]
 337 017e 26F8023B 		strh	r3, [r6], #2	@ movhi
 338 0182 638E     		ldrh	r3, [r4, #50]
 339 0184 9BB2     		uxth	r3, r3
 340 0186 013B     		subs	r3, r3, #1
 341 0188 9BB2     		uxth	r3, r3
 342 018a 6386     		strh	r3, [r4, #50]	@ movhi
 343 018c 2368     		ldr	r3, [r4]
 344 018e 4C4A     		ldr	r2, .L98
 345 0190 9342     		cmp	r3, r2
 346 0192 19D0     		beq	.L89
 347 0194 4FF04022 		mov	r2, #1073758208
ARM GAS  /var/folders/lp/x54gwt890xv47sdkqj1k04q40000gn/T//ccuufEt5.s 			page 7


 348              	.L51:
 349 0198 9268     		ldr	r2, [r2, #8]
 350 019a 12F0400F 		tst	r2, #64
 351 019e A8D0     		beq	.L45
 352 01a0 0022     		movs	r2, #0
 353 01a2 0492     		str	r2, [sp, #16]
 354 01a4 DA68     		ldr	r2, [r3, #12]
 355 01a6 0492     		str	r2, [sp, #16]
 356 01a8 9B68     		ldr	r3, [r3, #8]
 357 01aa 0493     		str	r3, [sp, #16]
 358 01ac 049B     		ldr	r3, [sp, #16]
 359 01ae 636C     		ldr	r3, [r4, #68]
 360 01b0 43F00203 		orr	r3, r3, #2
 361 01b4 6364     		str	r3, [r4, #68]
 362 01b6 9CE7     		b	.L45
 363              	.L87:
 364 01b8 636C     		ldr	r3, [r4, #68]
 365 01ba 43F00103 		orr	r3, r3, #1
 366 01be 6364     		str	r3, [r4, #68]
 367 01c0 ABE0     		b	.L35
 368              	.L88:
 369 01c2 A3F58063 		sub	r3, r3, #1024
 370 01c6 D9E7     		b	.L50
 371              	.L89:
 372 01c8 A2F58062 		sub	r2, r2, #1024
 373 01cc E4E7     		b	.L51
 374              	.L41:
 375 01ce 0D46     		mov	r5, r1
 376 01d0 35F8022B 		ldrh	r2, [r5], #2
 377 01d4 3A4B     		ldr	r3, .L98
 378 01d6 9842     		cmp	r0, r3
 379 01d8 25D0     		beq	.L90
 380 01da 4FF04023 		mov	r3, #1073758208
 381              	.L54:
 382 01de DA60     		str	r2, [r3, #12]
 383 01e0 638D     		ldrh	r3, [r4, #42]
 384 01e2 9BB2     		uxth	r3, r3
 385 01e4 013B     		subs	r3, r3, #1
 386 01e6 9BB2     		uxth	r3, r3
 387 01e8 6385     		strh	r3, [r4, #42]	@ movhi
 388 01ea 2268     		ldr	r2, [r4]
 389 01ec 344B     		ldr	r3, .L98
 390 01ee 9A42     		cmp	r2, r3
 391 01f0 1CD0     		beq	.L91
 392 01f2 4FF04022 		mov	r2, #1073758208
 393              	.L55:
 394 01f6 D369     		ldr	r3, [r2, #28]
 395 01f8 43F48063 		orr	r3, r3, #1024
 396 01fc D361     		str	r3, [r2, #28]
 397 01fe 2268     		ldr	r2, [r4]
 398 0200 D369     		ldr	r3, [r2, #28]
 399 0202 43F48063 		orr	r3, r3, #1024
 400 0206 D361     		str	r3, [r2, #28]
 401 0208 2268     		ldr	r2, [r4]
 402 020a D369     		ldr	r3, [r2, #28]
 403 020c 03F44073 		and	r3, r3, #768
 404 0210 B3F5407F 		cmp	r3, #768
ARM GAS  /var/folders/lp/x54gwt890xv47sdkqj1k04q40000gn/T//ccuufEt5.s 			page 8


 405 0214 13D1     		bne	.L57
 406 0216 0023     		movs	r3, #0
 407 0218 0593     		str	r3, [sp, #20]
 408 021a D368     		ldr	r3, [r2, #12]
 409 021c 0593     		str	r3, [sp, #20]
 410 021e 9368     		ldr	r3, [r2, #8]
 411 0220 0593     		str	r3, [sp, #20]
 412 0222 059B     		ldr	r3, [sp, #20]
 413 0224 0BE0     		b	.L57
 414              	.L90:
 415 0226 A3F58063 		sub	r3, r3, #1024
 416 022a D8E7     		b	.L54
 417              	.L91:
 418 022c 254A     		ldr	r2, .L98+4
 419 022e E2E7     		b	.L55
 420              	.L64:
 421 0230 638D     		ldrh	r3, [r4, #42]
 422 0232 9BB2     		uxth	r3, r3
 423 0234 63B9     		cbnz	r3, .L92
 424              	.L58:
 425 0236 638E     		ldrh	r3, [r4, #50]
 426 0238 9BB2     		uxth	r3, r3
 427 023a 002B     		cmp	r3, #0
 428 023c 44D1     		bne	.L93
 429              	.L57:
 430 023e 638E     		ldrh	r3, [r4, #50]
 431 0240 9BB2     		uxth	r3, r3
 432 0242 002B     		cmp	r3, #0
 433 0244 F4D1     		bne	.L64
 434 0246 638D     		ldrh	r3, [r4, #42]
 435 0248 9BB2     		uxth	r3, r3
 436 024a 002B     		cmp	r3, #0
 437 024c F0D1     		bne	.L64
 438 024e 58E7     		b	.L53
 439              	.L92:
 440 0250 0122     		movs	r2, #1
 441 0252 0092     		str	r2, [sp]
 442 0254 4346     		mov	r3, r8
 443 0256 0221     		movs	r1, #2
 444 0258 2046     		mov	r0, r4
 445 025a FFF7FEFF 		bl	I2SEx_FullDuplexWaitFlagStateUntilTimeout
 446 025e 20BB     		cbnz	r0, .L94
 447 0260 35F8022B 		ldrh	r2, [r5], #2
 448 0264 2168     		ldr	r1, [r4]
 449 0266 164B     		ldr	r3, .L98
 450 0268 9942     		cmp	r1, r3
 451 026a 23D0     		beq	.L95
 452 026c 4FF04023 		mov	r3, #1073758208
 453              	.L60:
 454 0270 DA60     		str	r2, [r3, #12]
 455 0272 638D     		ldrh	r3, [r4, #42]
 456 0274 9BB2     		uxth	r3, r3
 457 0276 013B     		subs	r3, r3, #1
 458 0278 9BB2     		uxth	r3, r3
 459 027a 6385     		strh	r3, [r4, #42]	@ movhi
 460 027c 2368     		ldr	r3, [r4]
 461 027e 104A     		ldr	r2, .L98
ARM GAS  /var/folders/lp/x54gwt890xv47sdkqj1k04q40000gn/T//ccuufEt5.s 			page 9


 462 0280 9342     		cmp	r3, r2
 463 0282 1AD0     		beq	.L96
 464 0284 4FF04022 		mov	r2, #1073758208
 465              	.L61:
 466 0288 9268     		ldr	r2, [r2, #8]
 467 028a 12F0080F 		tst	r2, #8
 468 028e D2D0     		beq	.L58
 469 0290 B9F5807F 		cmp	r9, #256
 470 0294 CFD1     		bne	.L58
 471 0296 0022     		movs	r2, #0
 472 0298 0692     		str	r2, [sp, #24]
 473 029a 9B68     		ldr	r3, [r3, #8]
 474 029c 0693     		str	r3, [sp, #24]
 475 029e 069B     		ldr	r3, [sp, #24]
 476 02a0 636C     		ldr	r3, [r4, #68]
 477 02a2 43F00403 		orr	r3, r3, #4
 478 02a6 6364     		str	r3, [r4, #68]
 479 02a8 C5E7     		b	.L58
 480              	.L94:
 481 02aa 636C     		ldr	r3, [r4, #68]
 482 02ac 43F00103 		orr	r3, r3, #1
 483 02b0 6364     		str	r3, [r4, #68]
 484 02b2 32E0     		b	.L35
 485              	.L95:
 486 02b4 A3F58063 		sub	r3, r3, #1024
 487 02b8 DAE7     		b	.L60
 488              	.L96:
 489 02ba A2F58062 		sub	r2, r2, #1024
 490 02be E3E7     		b	.L61
 491              	.L99:
 492              		.align	2
 493              	.L98:
 494 02c0 00380040 		.word	1073756160
 495 02c4 00340040 		.word	1073755136
 496              	.L93:
 497 02c8 0023     		movs	r3, #0
 498 02ca 0093     		str	r3, [sp]
 499 02cc 4346     		mov	r3, r8
 500 02ce 0122     		movs	r2, #1
 501 02d0 1146     		mov	r1, r2
 502 02d2 2046     		mov	r0, r4
 503 02d4 FFF7FEFF 		bl	I2SEx_FullDuplexWaitFlagStateUntilTimeout
 504 02d8 C8B9     		cbnz	r0, .L97
 505 02da 2368     		ldr	r3, [r4]
 506 02dc DB68     		ldr	r3, [r3, #12]
 507 02de 26F8023B 		strh	r3, [r6], #2	@ movhi
 508 02e2 638E     		ldrh	r3, [r4, #50]
 509 02e4 9BB2     		uxth	r3, r3
 510 02e6 013B     		subs	r3, r3, #1
 511 02e8 9BB2     		uxth	r3, r3
 512 02ea 6386     		strh	r3, [r4, #50]	@ movhi
 513 02ec 2368     		ldr	r3, [r4]
 514 02ee 9A68     		ldr	r2, [r3, #8]
 515 02f0 12F0400F 		tst	r2, #64
 516 02f4 A3D0     		beq	.L57
 517 02f6 0022     		movs	r2, #0
 518 02f8 0792     		str	r2, [sp, #28]
ARM GAS  /var/folders/lp/x54gwt890xv47sdkqj1k04q40000gn/T//ccuufEt5.s 			page 10


 519 02fa DA68     		ldr	r2, [r3, #12]
 520 02fc 0792     		str	r2, [sp, #28]
 521 02fe 9B68     		ldr	r3, [r3, #8]
 522 0300 0793     		str	r3, [sp, #28]
 523 0302 079B     		ldr	r3, [sp, #28]
 524 0304 636C     		ldr	r3, [r4, #68]
 525 0306 43F00203 		orr	r3, r3, #2
 526 030a 6364     		str	r3, [r4, #68]
 527 030c 97E7     		b	.L57
 528              	.L97:
 529 030e 636C     		ldr	r3, [r4, #68]
 530 0310 43F00103 		orr	r3, r3, #1
 531 0314 6364     		str	r3, [r4, #68]
 532 0316 00E0     		b	.L35
 533              	.L65:
 534 0318 0227     		movs	r7, #2
 535              	.L35:
 536 031a 0123     		movs	r3, #1
 537 031c 84F84130 		strb	r3, [r4, #65]
 538 0320 0023     		movs	r3, #0
 539 0322 84F84030 		strb	r3, [r4, #64]
 540              	.L36:
 541 0326 3846     		mov	r0, r7
 542 0328 09B0     		add	sp, sp, #36
 543              		@ sp needed
 544 032a BDE8F083 		pop	{r4, r5, r6, r7, r8, r9, pc}
 545              	.L66:
 546 032e 0227     		movs	r7, #2
 547 0330 F9E7     		b	.L36
 549 0332 00BF     		.section	.text.HAL_I2SEx_TransmitReceive_IT,"ax",%progbits
 550              		.align	1
 551              		.global	HAL_I2SEx_TransmitReceive_IT
 552              		.syntax unified
 553              		.thumb
 554              		.thumb_func
 556              	HAL_I2SEx_TransmitReceive_IT:
 557              		@ args = 0, pretend = 0, frame = 0
 558              		@ frame_needed = 0, uses_anonymous_args = 0
 559              		@ link register save eliminated.
 560 0000 8446     		mov	ip, r0
 561 0002 90F84100 		ldrb	r0, [r0, #65]	@ zero_extendqisi2
 562 0006 C0B2     		uxtb	r0, r0
 563 0008 0128     		cmp	r0, #1
 564 000a 40F0BB80 		bne	.L114
 565 000e 0029     		cmp	r1, #0
 566 0010 00F0BE80 		beq	.L102
 567 0014 002A     		cmp	r2, #0
 568 0016 00F0BB80 		beq	.L102
 569 001a 002B     		cmp	r3, #0
 570 001c 00F0B880 		beq	.L102
 571 0020 9CF84000 		ldrb	r0, [ip, #64]	@ zero_extendqisi2
 572 0024 C0B2     		uxtb	r0, r0
 573 0026 0128     		cmp	r0, #1
 574 0028 00F0B180 		beq	.L115
 575 002c 0120     		movs	r0, #1
 576 002e 8CF84000 		strb	r0, [ip, #64]
 577 0032 CCF82410 		str	r1, [ip, #36]
ARM GAS  /var/folders/lp/x54gwt890xv47sdkqj1k04q40000gn/T//ccuufEt5.s 			page 11


 578 0036 CCF82C20 		str	r2, [ip, #44]
 579 003a DCF80010 		ldr	r1, [ip]
 580 003e CA69     		ldr	r2, [r1, #28]
 581 0040 02F00702 		and	r2, r2, #7
 582 0044 032A     		cmp	r2, #3
 583 0046 0AD0     		beq	.L103
 584 0048 052A     		cmp	r2, #5
 585 004a 08D0     		beq	.L103
 586 004c ACF82830 		strh	r3, [ip, #40]	@ movhi
 587 0050 ACF82A30 		strh	r3, [ip, #42]	@ movhi
 588 0054 ACF83030 		strh	r3, [ip, #48]	@ movhi
 589 0058 ACF83230 		strh	r3, [ip, #50]	@ movhi
 590 005c 09E0     		b	.L105
 591              	.L103:
 592 005e 5B00     		lsls	r3, r3, #1
 593 0060 9BB2     		uxth	r3, r3
 594 0062 ACF82830 		strh	r3, [ip, #40]	@ movhi
 595 0066 ACF82A30 		strh	r3, [ip, #42]	@ movhi
 596 006a ACF83030 		strh	r3, [ip, #48]	@ movhi
 597 006e ACF83230 		strh	r3, [ip, #50]	@ movhi
 598              	.L105:
 599 0072 0023     		movs	r3, #0
 600 0074 CCF84430 		str	r3, [ip, #68]
 601 0078 0523     		movs	r3, #5
 602 007a 8CF84130 		strb	r3, [ip, #65]
 603 007e DCF80430 		ldr	r3, [ip, #4]
 604 0082 B3F5007F 		cmp	r3, #512
 605 0086 01D0     		beq	.L106
 606 0088 002B     		cmp	r3, #0
 607 008a 3DD1     		bne	.L107
 608              	.L106:
 609 008c 414B     		ldr	r3, .L126
 610 008e 9942     		cmp	r1, r3
 611 0090 38D0     		beq	.L121
 612 0092 4FF04022 		mov	r2, #1073758208
 613              	.L108:
 614 0096 5368     		ldr	r3, [r2, #4]
 615 0098 43F06003 		orr	r3, r3, #96
 616 009c 5360     		str	r3, [r2, #4]
 617 009e DCF80020 		ldr	r2, [ip]
 618 00a2 5368     		ldr	r3, [r2, #4]
 619 00a4 43F0A003 		orr	r3, r3, #160
 620 00a8 5360     		str	r3, [r2, #4]
 621 00aa DCF82430 		ldr	r3, [ip, #36]
 622 00ae 9A1C     		adds	r2, r3, #2
 623 00b0 CCF82420 		str	r2, [ip, #36]
 624 00b4 DCF80020 		ldr	r2, [ip]
 625 00b8 1B88     		ldrh	r3, [r3]
 626 00ba D360     		str	r3, [r2, #12]
 627 00bc BCF82A30 		ldrh	r3, [ip, #42]
 628 00c0 9BB2     		uxth	r3, r3
 629 00c2 013B     		subs	r3, r3, #1
 630 00c4 9BB2     		uxth	r3, r3
 631 00c6 ACF82A30 		strh	r3, [ip, #42]	@ movhi
 632 00ca BCF82A30 		ldrh	r3, [ip, #42]
 633 00ce 9BB2     		uxth	r3, r3
 634 00d0 2BB9     		cbnz	r3, .L109
ARM GAS  /var/folders/lp/x54gwt890xv47sdkqj1k04q40000gn/T//ccuufEt5.s 			page 12


 635 00d2 DCF80020 		ldr	r2, [ip]
 636 00d6 5368     		ldr	r3, [r2, #4]
 637 00d8 23F0A003 		bic	r3, r3, #160
 638 00dc 5360     		str	r3, [r2, #4]
 639              	.L109:
 640 00de DCF80020 		ldr	r2, [ip]
 641 00e2 2C4B     		ldr	r3, .L126
 642 00e4 9A42     		cmp	r2, r3
 643 00e6 4BD0     		beq	.L122
 644 00e8 4FF04022 		mov	r2, #1073758208
 645              	.L113:
 646 00ec D369     		ldr	r3, [r2, #28]
 647 00ee 43F48063 		orr	r3, r3, #1024
 648 00f2 D361     		str	r3, [r2, #28]
 649 00f4 DCF80020 		ldr	r2, [ip]
 650 00f8 D369     		ldr	r3, [r2, #28]
 651 00fa 43F48063 		orr	r3, r3, #1024
 652 00fe D361     		str	r3, [r2, #28]
 653 0100 0020     		movs	r0, #0
 654 0102 40E0     		b	.L101
 655              	.L121:
 656 0104 244A     		ldr	r2, .L126+4
 657 0106 C6E7     		b	.L108
 658              	.L107:
 659 0108 224B     		ldr	r3, .L126
 660 010a 9942     		cmp	r1, r3
 661 010c 31D0     		beq	.L123
 662 010e 4FF04022 		mov	r2, #1073758208
 663              	.L110:
 664 0112 5368     		ldr	r3, [r2, #4]
 665 0114 43F0A003 		orr	r3, r3, #160
 666 0118 5360     		str	r3, [r2, #4]
 667 011a DCF80020 		ldr	r2, [ip]
 668 011e 5368     		ldr	r3, [r2, #4]
 669 0120 43F06003 		orr	r3, r3, #96
 670 0124 5360     		str	r3, [r2, #4]
 671 0126 DCF82430 		ldr	r3, [ip, #36]
 672 012a 9A1C     		adds	r2, r3, #2
 673 012c CCF82420 		str	r2, [ip, #36]
 674 0130 1A88     		ldrh	r2, [r3]
 675 0132 DCF80010 		ldr	r1, [ip]
 676 0136 174B     		ldr	r3, .L126
 677 0138 9942     		cmp	r1, r3
 678 013a 1CD0     		beq	.L124
 679 013c 4FF04023 		mov	r3, #1073758208
 680              	.L111:
 681 0140 DA60     		str	r2, [r3, #12]
 682 0142 BCF82A30 		ldrh	r3, [ip, #42]
 683 0146 9BB2     		uxth	r3, r3
 684 0148 013B     		subs	r3, r3, #1
 685 014a 9BB2     		uxth	r3, r3
 686 014c ACF82A30 		strh	r3, [ip, #42]	@ movhi
 687 0150 BCF82A30 		ldrh	r3, [ip, #42]
 688 0154 9BB2     		uxth	r3, r3
 689 0156 002B     		cmp	r3, #0
 690 0158 C1D1     		bne	.L109
 691 015a DCF80020 		ldr	r2, [ip]
ARM GAS  /var/folders/lp/x54gwt890xv47sdkqj1k04q40000gn/T//ccuufEt5.s 			page 13


 692 015e 0D4B     		ldr	r3, .L126
 693 0160 9A42     		cmp	r2, r3
 694 0162 0BD0     		beq	.L125
 695 0164 4FF04022 		mov	r2, #1073758208
 696              	.L112:
 697 0168 5368     		ldr	r3, [r2, #4]
 698 016a 23F0A003 		bic	r3, r3, #160
 699 016e 5360     		str	r3, [r2, #4]
 700 0170 B5E7     		b	.L109
 701              	.L123:
 702 0172 094A     		ldr	r2, .L126+4
 703 0174 CDE7     		b	.L110
 704              	.L124:
 705 0176 A3F58063 		sub	r3, r3, #1024
 706 017a E1E7     		b	.L111
 707              	.L125:
 708 017c 064A     		ldr	r2, .L126+4
 709 017e F3E7     		b	.L112
 710              	.L122:
 711 0180 054A     		ldr	r2, .L126+4
 712 0182 B3E7     		b	.L113
 713              	.L114:
 714 0184 0220     		movs	r0, #2
 715              	.L101:
 716 0186 0023     		movs	r3, #0
 717 0188 8CF84030 		strb	r3, [ip, #64]
 718 018c 7047     		bx	lr
 719              	.L115:
 720 018e 0220     		movs	r0, #2
 721              	.L102:
 722 0190 7047     		bx	lr
 723              	.L127:
 724 0192 00BF     		.align	2
 725              	.L126:
 726 0194 00380040 		.word	1073756160
 727 0198 00340040 		.word	1073755136
 729              		.section	.text.HAL_I2SEx_TransmitReceive_DMA,"ax",%progbits
 730              		.align	1
 731              		.global	HAL_I2SEx_TransmitReceive_DMA
 732              		.syntax unified
 733              		.thumb
 734              		.thumb_func
 736              	HAL_I2SEx_TransmitReceive_DMA:
 737              		@ args = 0, pretend = 0, frame = 8
 738              		@ frame_needed = 0, uses_anonymous_args = 0
 739 0000 70B5     		push	{r4, r5, r6, lr}
 740 0002 82B0     		sub	sp, sp, #8
 741 0004 0446     		mov	r4, r0
 742 0006 90F84100 		ldrb	r0, [r0, #65]	@ zero_extendqisi2
 743 000a C0B2     		uxtb	r0, r0
 744 000c 0128     		cmp	r0, #1
 745 000e 40F0D280 		bne	.L143
 746 0012 0D46     		mov	r5, r1
 747 0014 1646     		mov	r6, r2
 748 0016 0029     		cmp	r1, #0
 749 0018 00F0D180 		beq	.L130
 750 001c 002A     		cmp	r2, #0
ARM GAS  /var/folders/lp/x54gwt890xv47sdkqj1k04q40000gn/T//ccuufEt5.s 			page 14


 751 001e 00F0CE80 		beq	.L130
 752 0022 002B     		cmp	r3, #0
 753 0024 00F0CB80 		beq	.L130
 754 0028 94F84020 		ldrb	r2, [r4, #64]	@ zero_extendqisi2
 755 002c D2B2     		uxtb	r2, r2
 756 002e 012A     		cmp	r2, #1
 757 0030 00F0CB80 		beq	.L144
 758 0034 0122     		movs	r2, #1
 759 0036 84F84020 		strb	r2, [r4, #64]
 760 003a 6162     		str	r1, [r4, #36]
 761 003c E662     		str	r6, [r4, #44]
 762 003e 2268     		ldr	r2, [r4]
 763 0040 D269     		ldr	r2, [r2, #28]
 764 0042 02F00702 		and	r2, r2, #7
 765 0046 032A     		cmp	r2, #3
 766 0048 06D0     		beq	.L131
 767 004a 052A     		cmp	r2, #5
 768 004c 04D0     		beq	.L131
 769 004e 2385     		strh	r3, [r4, #40]	@ movhi
 770 0050 6385     		strh	r3, [r4, #42]	@ movhi
 771 0052 2386     		strh	r3, [r4, #48]	@ movhi
 772 0054 6386     		strh	r3, [r4, #50]	@ movhi
 773 0056 05E0     		b	.L133
 774              	.L131:
 775 0058 5B00     		lsls	r3, r3, #1
 776 005a 9BB2     		uxth	r3, r3
 777 005c 2385     		strh	r3, [r4, #40]	@ movhi
 778 005e 6385     		strh	r3, [r4, #42]	@ movhi
 779 0060 2386     		strh	r3, [r4, #48]	@ movhi
 780 0062 6386     		strh	r3, [r4, #50]	@ movhi
 781              	.L133:
 782 0064 0023     		movs	r3, #0
 783 0066 6364     		str	r3, [r4, #68]
 784 0068 0522     		movs	r2, #5
 785 006a 84F84120 		strb	r2, [r4, #65]
 786 006e E26B     		ldr	r2, [r4, #60]
 787 0070 5749     		ldr	r1, .L161
 788 0072 1164     		str	r1, [r2, #64]
 789 0074 E26B     		ldr	r2, [r4, #60]
 790 0076 5749     		ldr	r1, .L161+4
 791 0078 D163     		str	r1, [r2, #60]
 792 007a E16B     		ldr	r1, [r4, #60]
 793 007c 564A     		ldr	r2, .L161+8
 794 007e CA64     		str	r2, [r1, #76]
 795 0080 A16B     		ldr	r1, [r4, #56]
 796 0082 0B64     		str	r3, [r1, #64]
 797 0084 A16B     		ldr	r1, [r4, #56]
 798 0086 CB63     		str	r3, [r1, #60]
 799 0088 A36B     		ldr	r3, [r4, #56]
 800 008a DA64     		str	r2, [r3, #76]
 801 008c 2268     		ldr	r2, [r4]
 802 008e D369     		ldr	r3, [r2, #28]
 803 0090 03F44073 		and	r3, r3, #768
 804 0094 B3F5007F 		cmp	r3, #512
 805 0098 01D0     		beq	.L134
 806 009a 002B     		cmp	r3, #0
 807 009c 3ED1     		bne	.L135
ARM GAS  /var/folders/lp/x54gwt890xv47sdkqj1k04q40000gn/T//ccuufEt5.s 			page 15


 808              	.L134:
 809 009e E06B     		ldr	r0, [r4, #60]
 810 00a0 4E4B     		ldr	r3, .L161+12
 811 00a2 9A42     		cmp	r2, r3
 812 00a4 33D0     		beq	.L154
 813 00a6 4FF04021 		mov	r1, #1073758208
 814              	.L136:
 815 00aa 238E     		ldrh	r3, [r4, #48]
 816 00ac 9BB2     		uxth	r3, r3
 817 00ae 3246     		mov	r2, r6
 818 00b0 0C31     		adds	r1, r1, #12
 819 00b2 FFF7FEFF 		bl	HAL_DMA_Start_IT
 820 00b6 2268     		ldr	r2, [r4]
 821 00b8 484B     		ldr	r3, .L161+12
 822 00ba 9A42     		cmp	r2, r3
 823 00bc 29D0     		beq	.L155
 824 00be 4FF04022 		mov	r2, #1073758208
 825              	.L137:
 826 00c2 5368     		ldr	r3, [r2, #4]
 827 00c4 43F00103 		orr	r3, r3, #1
 828 00c8 5360     		str	r3, [r2, #4]
 829 00ca 2268     		ldr	r2, [r4]
 830 00cc 238D     		ldrh	r3, [r4, #40]
 831 00ce 9BB2     		uxth	r3, r3
 832 00d0 0C32     		adds	r2, r2, #12
 833 00d2 2946     		mov	r1, r5
 834 00d4 A06B     		ldr	r0, [r4, #56]
 835 00d6 FFF7FEFF 		bl	HAL_DMA_Start_IT
 836 00da 2268     		ldr	r2, [r4]
 837 00dc 5368     		ldr	r3, [r2, #4]
 838 00de 43F00203 		orr	r3, r3, #2
 839 00e2 5360     		str	r3, [r2, #4]
 840 00e4 2368     		ldr	r3, [r4]
 841 00e6 DA69     		ldr	r2, [r3, #28]
 842 00e8 12F4806F 		tst	r2, #1024
 843 00ec 69D1     		bne	.L147
 844 00ee 3B4A     		ldr	r2, .L161+12
 845 00f0 9342     		cmp	r3, r2
 846 00f2 10D0     		beq	.L156
 847 00f4 4FF04022 		mov	r2, #1073758208
 848              	.L138:
 849 00f8 D369     		ldr	r3, [r2, #28]
 850 00fa 43F48063 		orr	r3, r3, #1024
 851 00fe D361     		str	r3, [r2, #28]
 852 0100 2268     		ldr	r2, [r4]
 853 0102 D369     		ldr	r3, [r2, #28]
 854 0104 43F48063 		orr	r3, r3, #1024
 855 0108 D361     		str	r3, [r2, #28]
 856 010a 0020     		movs	r0, #0
 857 010c 54E0     		b	.L129
 858              	.L154:
 859 010e 3449     		ldr	r1, .L161+16
 860 0110 CBE7     		b	.L136
 861              	.L155:
 862 0112 334A     		ldr	r2, .L161+16
 863 0114 D5E7     		b	.L137
 864              	.L156:
ARM GAS  /var/folders/lp/x54gwt890xv47sdkqj1k04q40000gn/T//ccuufEt5.s 			page 16


 865 0116 A2F58062 		sub	r2, r2, #1024
 866 011a EDE7     		b	.L138
 867              	.L135:
 868 011c D369     		ldr	r3, [r2, #28]
 869 011e 03F44073 		and	r3, r3, #768
 870 0122 B3F5407F 		cmp	r3, #768
 871 0126 37D0     		beq	.L157
 872              	.L139:
 873 0128 A06B     		ldr	r0, [r4, #56]
 874 012a 2C4B     		ldr	r3, .L161+12
 875 012c 9A42     		cmp	r2, r3
 876 012e 3BD0     		beq	.L158
 877 0130 4FF04022 		mov	r2, #1073758208
 878              	.L140:
 879 0134 238D     		ldrh	r3, [r4, #40]
 880 0136 9BB2     		uxth	r3, r3
 881 0138 0C32     		adds	r2, r2, #12
 882 013a 2946     		mov	r1, r5
 883 013c FFF7FEFF 		bl	HAL_DMA_Start_IT
 884 0140 2268     		ldr	r2, [r4]
 885 0142 264B     		ldr	r3, .L161+12
 886 0144 9A42     		cmp	r2, r3
 887 0146 31D0     		beq	.L159
 888 0148 4FF04022 		mov	r2, #1073758208
 889              	.L141:
 890 014c 5368     		ldr	r3, [r2, #4]
 891 014e 43F00203 		orr	r3, r3, #2
 892 0152 5360     		str	r3, [r2, #4]
 893 0154 2168     		ldr	r1, [r4]
 894 0156 238E     		ldrh	r3, [r4, #48]
 895 0158 9BB2     		uxth	r3, r3
 896 015a 3246     		mov	r2, r6
 897 015c 0C31     		adds	r1, r1, #12
 898 015e E06B     		ldr	r0, [r4, #60]
 899 0160 FFF7FEFF 		bl	HAL_DMA_Start_IT
 900 0164 2268     		ldr	r2, [r4]
 901 0166 5368     		ldr	r3, [r2, #4]
 902 0168 43F00103 		orr	r3, r3, #1
 903 016c 5360     		str	r3, [r2, #4]
 904 016e 2368     		ldr	r3, [r4]
 905 0170 DA69     		ldr	r2, [r3, #28]
 906 0172 12F4806F 		tst	r2, #1024
 907 0176 26D1     		bne	.L151
 908 0178 184A     		ldr	r2, .L161+12
 909 017a 9342     		cmp	r3, r2
 910 017c 18D0     		beq	.L160
 911 017e 4FF04022 		mov	r2, #1073758208
 912              	.L142:
 913 0182 D369     		ldr	r3, [r2, #28]
 914 0184 43F48063 		orr	r3, r3, #1024
 915 0188 D361     		str	r3, [r2, #28]
 916 018a 2268     		ldr	r2, [r4]
 917 018c D369     		ldr	r3, [r2, #28]
 918 018e 43F48063 		orr	r3, r3, #1024
 919 0192 D361     		str	r3, [r2, #28]
 920 0194 0020     		movs	r0, #0
 921 0196 0FE0     		b	.L129
ARM GAS  /var/folders/lp/x54gwt890xv47sdkqj1k04q40000gn/T//ccuufEt5.s 			page 17


 922              	.L157:
 923 0198 0023     		movs	r3, #0
 924 019a 0193     		str	r3, [sp, #4]
 925 019c D368     		ldr	r3, [r2, #12]
 926 019e 0193     		str	r3, [sp, #4]
 927 01a0 9368     		ldr	r3, [r2, #8]
 928 01a2 0193     		str	r3, [sp, #4]
 929 01a4 019B     		ldr	r3, [sp, #4]
 930 01a6 BFE7     		b	.L139
 931              	.L158:
 932 01a8 0D4A     		ldr	r2, .L161+16
 933 01aa C3E7     		b	.L140
 934              	.L159:
 935 01ac 0C4A     		ldr	r2, .L161+16
 936 01ae CDE7     		b	.L141
 937              	.L160:
 938 01b0 A2F58062 		sub	r2, r2, #1024
 939 01b4 E5E7     		b	.L142
 940              	.L143:
 941 01b6 0220     		movs	r0, #2
 942              	.L129:
 943 01b8 0023     		movs	r3, #0
 944 01ba 84F84030 		strb	r3, [r4, #64]
 945              	.L130:
 946 01be 02B0     		add	sp, sp, #8
 947              		@ sp needed
 948 01c0 70BD     		pop	{r4, r5, r6, pc}
 949              	.L147:
 950 01c2 0020     		movs	r0, #0
 951 01c4 F8E7     		b	.L129
 952              	.L151:
 953 01c6 0020     		movs	r0, #0
 954 01c8 F6E7     		b	.L129
 955              	.L144:
 956 01ca 0220     		movs	r0, #2
 957 01cc F7E7     		b	.L130
 958              	.L162:
 959 01ce 00BF     		.align	2
 960              	.L161:
 961 01d0 00000000 		.word	I2SEx_TxRxDMAHalfCplt
 962 01d4 00000000 		.word	I2SEx_TxRxDMACplt
 963 01d8 00000000 		.word	I2SEx_TxRxDMAError
 964 01dc 00380040 		.word	1073756160
 965 01e0 00340040 		.word	1073755136
 967              		.section	.text.HAL_I2SEx_TxRxHalfCpltCallback,"ax",%progbits
 968              		.align	1
 969              		.weak	HAL_I2SEx_TxRxHalfCpltCallback
 970              		.syntax unified
 971              		.thumb
 972              		.thumb_func
 974              	HAL_I2SEx_TxRxHalfCpltCallback:
 975              		@ args = 0, pretend = 0, frame = 0
 976              		@ frame_needed = 0, uses_anonymous_args = 0
 977              		@ link register save eliminated.
 978 0000 7047     		bx	lr
 980              		.section	.text.I2SEx_TxRxDMAHalfCplt,"ax",%progbits
 981              		.align	1
ARM GAS  /var/folders/lp/x54gwt890xv47sdkqj1k04q40000gn/T//ccuufEt5.s 			page 18


 982              		.syntax unified
 983              		.thumb
 984              		.thumb_func
 986              	I2SEx_TxRxDMAHalfCplt:
 987              		@ args = 0, pretend = 0, frame = 0
 988              		@ frame_needed = 0, uses_anonymous_args = 0
 989 0000 08B5     		push	{r3, lr}
 990 0002 806B     		ldr	r0, [r0, #56]
 991 0004 FFF7FEFF 		bl	HAL_I2SEx_TxRxHalfCpltCallback
 992 0008 08BD     		pop	{r3, pc}
 994              		.section	.text.HAL_I2SEx_TxRxCpltCallback,"ax",%progbits
 995              		.align	1
 996              		.weak	HAL_I2SEx_TxRxCpltCallback
 997              		.syntax unified
 998              		.thumb
 999              		.thumb_func
 1001              	HAL_I2SEx_TxRxCpltCallback:
 1002              		@ args = 0, pretend = 0, frame = 0
 1003              		@ frame_needed = 0, uses_anonymous_args = 0
 1004              		@ link register save eliminated.
 1005 0000 7047     		bx	lr
 1007              		.section	.text.I2SEx_TxRxDMACplt,"ax",%progbits
 1008              		.align	1
 1009              		.syntax unified
 1010              		.thumb
 1011              		.thumb_func
 1013              	I2SEx_TxRxDMACplt:
 1014              		@ args = 0, pretend = 0, frame = 0
 1015              		@ frame_needed = 0, uses_anonymous_args = 0
 1016 0000 08B5     		push	{r3, lr}
 1017 0002 0346     		mov	r3, r0
 1018 0004 806B     		ldr	r0, [r0, #56]
 1019 0006 DB69     		ldr	r3, [r3, #28]
 1020 0008 F3B9     		cbnz	r3, .L168
 1021 000a 0268     		ldr	r2, [r0]
 1022 000c D369     		ldr	r3, [r2, #28]
 1023 000e 03F44073 		and	r3, r3, #768
 1024 0012 B3F5007F 		cmp	r3, #512
 1025 0016 03D0     		beq	.L169
 1026 0018 D369     		ldr	r3, [r2, #28]
 1027 001a 13F4407F 		tst	r3, #768
 1028 001e 18D1     		bne	.L170
 1029              	.L169:
 1030 0020 144B     		ldr	r3, .L179
 1031 0022 9A42     		cmp	r2, r3
 1032 0024 13D0     		beq	.L177
 1033 0026 4FF04022 		mov	r2, #1073758208
 1034              	.L171:
 1035 002a 5368     		ldr	r3, [r2, #4]
 1036 002c 23F00103 		bic	r3, r3, #1
 1037 0030 5360     		str	r3, [r2, #4]
 1038 0032 0268     		ldr	r2, [r0]
 1039 0034 5368     		ldr	r3, [r2, #4]
 1040 0036 23F00203 		bic	r3, r3, #2
 1041 003a 5360     		str	r3, [r2, #4]
 1042              	.L172:
 1043 003c 0023     		movs	r3, #0
ARM GAS  /var/folders/lp/x54gwt890xv47sdkqj1k04q40000gn/T//ccuufEt5.s 			page 19


 1044 003e 4386     		strh	r3, [r0, #50]	@ movhi
 1045 0040 4385     		strh	r3, [r0, #42]	@ movhi
 1046 0042 0123     		movs	r3, #1
 1047 0044 80F84130 		strb	r3, [r0, #65]
 1048              	.L168:
 1049 0048 FFF7FEFF 		bl	HAL_I2SEx_TxRxCpltCallback
 1050 004c 08BD     		pop	{r3, pc}
 1051              	.L177:
 1052 004e 0A4A     		ldr	r2, .L179+4
 1053 0050 EBE7     		b	.L171
 1054              	.L170:
 1055 0052 5368     		ldr	r3, [r2, #4]
 1056 0054 23F00103 		bic	r3, r3, #1
 1057 0058 5360     		str	r3, [r2, #4]
 1058 005a 0268     		ldr	r2, [r0]
 1059 005c 054B     		ldr	r3, .L179
 1060 005e 9A42     		cmp	r2, r3
 1061 0060 06D0     		beq	.L178
 1062 0062 4FF04022 		mov	r2, #1073758208
 1063              	.L173:
 1064 0066 5368     		ldr	r3, [r2, #4]
 1065 0068 23F00203 		bic	r3, r3, #2
 1066 006c 5360     		str	r3, [r2, #4]
 1067 006e E5E7     		b	.L172
 1068              	.L178:
 1069 0070 014A     		ldr	r2, .L179+4
 1070 0072 F8E7     		b	.L173
 1071              	.L180:
 1072              		.align	2
 1073              	.L179:
 1074 0074 00380040 		.word	1073756160
 1075 0078 00340040 		.word	1073755136
 1077              		.section	.text.I2SEx_TxISR_I2S,"ax",%progbits
 1078              		.align	1
 1079              		.syntax unified
 1080              		.thumb
 1081              		.thumb_func
 1083              	I2SEx_TxISR_I2S:
 1084              		@ args = 0, pretend = 0, frame = 0
 1085              		@ frame_needed = 0, uses_anonymous_args = 0
 1086 0000 08B5     		push	{r3, lr}
 1087 0002 436A     		ldr	r3, [r0, #36]
 1088 0004 9A1C     		adds	r2, r3, #2
 1089 0006 4262     		str	r2, [r0, #36]
 1090 0008 0268     		ldr	r2, [r0]
 1091 000a 1B88     		ldrh	r3, [r3]
 1092 000c D360     		str	r3, [r2, #12]
 1093 000e 438D     		ldrh	r3, [r0, #42]
 1094 0010 9BB2     		uxth	r3, r3
 1095 0012 013B     		subs	r3, r3, #1
 1096 0014 9BB2     		uxth	r3, r3
 1097 0016 4385     		strh	r3, [r0, #42]	@ movhi
 1098 0018 438D     		ldrh	r3, [r0, #42]
 1099 001a 9BB2     		uxth	r3, r3
 1100 001c 3BB9     		cbnz	r3, .L181
 1101 001e 0268     		ldr	r2, [r0]
 1102 0020 5368     		ldr	r3, [r2, #4]
ARM GAS  /var/folders/lp/x54gwt890xv47sdkqj1k04q40000gn/T//ccuufEt5.s 			page 20


 1103 0022 23F0A003 		bic	r3, r3, #160
 1104 0026 5360     		str	r3, [r2, #4]
 1105 0028 438E     		ldrh	r3, [r0, #50]
 1106 002a 9BB2     		uxth	r3, r3
 1107 002c 03B1     		cbz	r3, .L184
 1108              	.L181:
 1109 002e 08BD     		pop	{r3, pc}
 1110              	.L184:
 1111 0030 0123     		movs	r3, #1
 1112 0032 80F84130 		strb	r3, [r0, #65]
 1113 0036 FFF7FEFF 		bl	HAL_I2SEx_TxRxCpltCallback
 1114 003a F8E7     		b	.L181
 1116              		.section	.text.I2SEx_RxISR_I2SExt,"ax",%progbits
 1117              		.align	1
 1118              		.syntax unified
 1119              		.thumb
 1120              		.thumb_func
 1122              	I2SEx_RxISR_I2SExt:
 1123              		@ args = 0, pretend = 0, frame = 0
 1124              		@ frame_needed = 0, uses_anonymous_args = 0
 1125 0000 08B5     		push	{r3, lr}
 1126 0002 0268     		ldr	r2, [r0]
 1127 0004 154B     		ldr	r3, .L195
 1128 0006 9A42     		cmp	r2, r3
 1129 0008 1CD0     		beq	.L192
 1130 000a 4FF04023 		mov	r3, #1073758208
 1131              	.L186:
 1132 000e DA68     		ldr	r2, [r3, #12]
 1133 0010 C36A     		ldr	r3, [r0, #44]
 1134 0012 991C     		adds	r1, r3, #2
 1135 0014 C162     		str	r1, [r0, #44]
 1136 0016 1A80     		strh	r2, [r3]	@ movhi
 1137 0018 438E     		ldrh	r3, [r0, #50]
 1138 001a 9BB2     		uxth	r3, r3
 1139 001c 013B     		subs	r3, r3, #1
 1140 001e 9BB2     		uxth	r3, r3
 1141 0020 4386     		strh	r3, [r0, #50]	@ movhi
 1142 0022 438E     		ldrh	r3, [r0, #50]
 1143 0024 9BB2     		uxth	r3, r3
 1144 0026 63B9     		cbnz	r3, .L185
 1145 0028 0268     		ldr	r2, [r0]
 1146 002a 0C4B     		ldr	r3, .L195
 1147 002c 9A42     		cmp	r2, r3
 1148 002e 0CD0     		beq	.L193
 1149 0030 4FF04022 		mov	r2, #1073758208
 1150              	.L188:
 1151 0034 5368     		ldr	r3, [r2, #4]
 1152 0036 23F06003 		bic	r3, r3, #96
 1153 003a 5360     		str	r3, [r2, #4]
 1154 003c 438D     		ldrh	r3, [r0, #42]
 1155 003e 9BB2     		uxth	r3, r3
 1156 0040 2BB1     		cbz	r3, .L194
 1157              	.L185:
 1158 0042 08BD     		pop	{r3, pc}
 1159              	.L192:
 1160 0044 A3F58063 		sub	r3, r3, #1024
 1161 0048 E1E7     		b	.L186
ARM GAS  /var/folders/lp/x54gwt890xv47sdkqj1k04q40000gn/T//ccuufEt5.s 			page 21


 1162              	.L193:
 1163 004a 054A     		ldr	r2, .L195+4
 1164 004c F2E7     		b	.L188
 1165              	.L194:
 1166 004e 0123     		movs	r3, #1
 1167 0050 80F84130 		strb	r3, [r0, #65]
 1168 0054 FFF7FEFF 		bl	HAL_I2SEx_TxRxCpltCallback
 1169 0058 F3E7     		b	.L185
 1170              	.L196:
 1171 005a 00BF     		.align	2
 1172              	.L195:
 1173 005c 00380040 		.word	1073756160
 1174 0060 00340040 		.word	1073755136
 1176              		.section	.text.I2SEx_TxISR_I2SExt,"ax",%progbits
 1177              		.align	1
 1178              		.syntax unified
 1179              		.thumb
 1180              		.thumb_func
 1182              	I2SEx_TxISR_I2SExt:
 1183              		@ args = 0, pretend = 0, frame = 0
 1184              		@ frame_needed = 0, uses_anonymous_args = 0
 1185 0000 08B5     		push	{r3, lr}
 1186 0002 436A     		ldr	r3, [r0, #36]
 1187 0004 9A1C     		adds	r2, r3, #2
 1188 0006 4262     		str	r2, [r0, #36]
 1189 0008 1A88     		ldrh	r2, [r3]
 1190 000a 0168     		ldr	r1, [r0]
 1191 000c 134B     		ldr	r3, .L207
 1192 000e 9942     		cmp	r1, r3
 1193 0010 18D0     		beq	.L204
 1194 0012 4FF04023 		mov	r3, #1073758208
 1195              	.L198:
 1196 0016 DA60     		str	r2, [r3, #12]
 1197 0018 438D     		ldrh	r3, [r0, #42]
 1198 001a 9BB2     		uxth	r3, r3
 1199 001c 013B     		subs	r3, r3, #1
 1200 001e 9BB2     		uxth	r3, r3
 1201 0020 4385     		strh	r3, [r0, #42]	@ movhi
 1202 0022 438D     		ldrh	r3, [r0, #42]
 1203 0024 9BB2     		uxth	r3, r3
 1204 0026 63B9     		cbnz	r3, .L197
 1205 0028 0268     		ldr	r2, [r0]
 1206 002a 0C4B     		ldr	r3, .L207
 1207 002c 9A42     		cmp	r2, r3
 1208 002e 0CD0     		beq	.L205
 1209 0030 4FF04022 		mov	r2, #1073758208
 1210              	.L200:
 1211 0034 5368     		ldr	r3, [r2, #4]
 1212 0036 23F0A003 		bic	r3, r3, #160
 1213 003a 5360     		str	r3, [r2, #4]
 1214 003c 438E     		ldrh	r3, [r0, #50]
 1215 003e 9BB2     		uxth	r3, r3
 1216 0040 2BB1     		cbz	r3, .L206
 1217              	.L197:
 1218 0042 08BD     		pop	{r3, pc}
 1219              	.L204:
 1220 0044 A3F58063 		sub	r3, r3, #1024
ARM GAS  /var/folders/lp/x54gwt890xv47sdkqj1k04q40000gn/T//ccuufEt5.s 			page 22


 1221 0048 E5E7     		b	.L198
 1222              	.L205:
 1223 004a 054A     		ldr	r2, .L207+4
 1224 004c F2E7     		b	.L200
 1225              	.L206:
 1226 004e 0123     		movs	r3, #1
 1227 0050 80F84130 		strb	r3, [r0, #65]
 1228 0054 FFF7FEFF 		bl	HAL_I2SEx_TxRxCpltCallback
 1229 0058 F3E7     		b	.L197
 1230              	.L208:
 1231 005a 00BF     		.align	2
 1232              	.L207:
 1233 005c 00380040 		.word	1073756160
 1234 0060 00340040 		.word	1073755136
 1236              		.section	.text.I2SEx_RxISR_I2S,"ax",%progbits
 1237              		.align	1
 1238              		.syntax unified
 1239              		.thumb
 1240              		.thumb_func
 1242              	I2SEx_RxISR_I2S:
 1243              		@ args = 0, pretend = 0, frame = 0
 1244              		@ frame_needed = 0, uses_anonymous_args = 0
 1245 0000 08B5     		push	{r3, lr}
 1246 0002 0368     		ldr	r3, [r0]
 1247 0004 DA68     		ldr	r2, [r3, #12]
 1248 0006 C36A     		ldr	r3, [r0, #44]
 1249 0008 991C     		adds	r1, r3, #2
 1250 000a C162     		str	r1, [r0, #44]
 1251 000c 1A80     		strh	r2, [r3]	@ movhi
 1252 000e 438E     		ldrh	r3, [r0, #50]
 1253 0010 9BB2     		uxth	r3, r3
 1254 0012 013B     		subs	r3, r3, #1
 1255 0014 9BB2     		uxth	r3, r3
 1256 0016 4386     		strh	r3, [r0, #50]	@ movhi
 1257 0018 438E     		ldrh	r3, [r0, #50]
 1258 001a 9BB2     		uxth	r3, r3
 1259 001c 3BB9     		cbnz	r3, .L209
 1260 001e 0268     		ldr	r2, [r0]
 1261 0020 5368     		ldr	r3, [r2, #4]
 1262 0022 23F06003 		bic	r3, r3, #96
 1263 0026 5360     		str	r3, [r2, #4]
 1264 0028 438D     		ldrh	r3, [r0, #42]
 1265 002a 9BB2     		uxth	r3, r3
 1266 002c 03B1     		cbz	r3, .L212
 1267              	.L209:
 1268 002e 08BD     		pop	{r3, pc}
 1269              	.L212:
 1270 0030 0123     		movs	r3, #1
 1271 0032 80F84130 		strb	r3, [r0, #65]
 1272 0036 FFF7FEFF 		bl	HAL_I2SEx_TxRxCpltCallback
 1273 003a F8E7     		b	.L209
 1275              		.section	.text.HAL_I2SEx_FullDuplex_IRQHandler,"ax",%progbits
 1276              		.align	1
 1277              		.global	HAL_I2SEx_FullDuplex_IRQHandler
 1278              		.syntax unified
 1279              		.thumb
 1280              		.thumb_func
ARM GAS  /var/folders/lp/x54gwt890xv47sdkqj1k04q40000gn/T//ccuufEt5.s 			page 23


 1282              	HAL_I2SEx_FullDuplex_IRQHandler:
 1283              		@ args = 0, pretend = 0, frame = 24
 1284              		@ frame_needed = 0, uses_anonymous_args = 0
 1285 0000 10B5     		push	{r4, lr}
 1286 0002 86B0     		sub	sp, sp, #24
 1287 0004 0446     		mov	r4, r0
 1288 0006 0368     		ldr	r3, [r0]
 1289 0008 9A68     		ldr	r2, [r3, #8]
 1290 000a 0592     		str	r2, [sp, #20]
 1291 000c 704A     		ldr	r2, .L243
 1292 000e 9342     		cmp	r3, r2
 1293 0010 6FD0     		beq	.L234
 1294 0012 4FF04022 		mov	r2, #1073758208
 1295              	.L214:
 1296 0016 9168     		ldr	r1, [r2, #8]
 1297 0018 0491     		str	r1, [sp, #16]
 1298 001a 5B68     		ldr	r3, [r3, #4]
 1299 001c 0393     		str	r3, [sp, #12]
 1300 001e 5368     		ldr	r3, [r2, #4]
 1301 0020 0293     		str	r3, [sp, #8]
 1302 0022 6368     		ldr	r3, [r4, #4]
 1303 0024 B3F5007F 		cmp	r3, #512
 1304 0028 01D0     		beq	.L215
 1305 002a 002B     		cmp	r3, #0
 1306 002c 70D1     		bne	.L216
 1307              	.L215:
 1308 002e 059B     		ldr	r3, [sp, #20]
 1309 0030 13F0020F 		tst	r3, #2
 1310 0034 03D0     		beq	.L217
 1311 0036 039B     		ldr	r3, [sp, #12]
 1312 0038 13F0800F 		tst	r3, #128
 1313 003c 5CD1     		bne	.L235
 1314              	.L217:
 1315 003e 049B     		ldr	r3, [sp, #16]
 1316 0040 13F0010F 		tst	r3, #1
 1317 0044 03D0     		beq	.L218
 1318 0046 029B     		ldr	r3, [sp, #8]
 1319 0048 13F0400F 		tst	r3, #64
 1320 004c 58D1     		bne	.L236
 1321              	.L218:
 1322 004e 049B     		ldr	r3, [sp, #16]
 1323 0050 13F0400F 		tst	r3, #64
 1324 0054 24D0     		beq	.L219
 1325 0056 029B     		ldr	r3, [sp, #8]
 1326 0058 13F0200F 		tst	r3, #32
 1327 005c 20D0     		beq	.L219
 1328 005e 2268     		ldr	r2, [r4]
 1329 0060 5B4B     		ldr	r3, .L243
 1330 0062 9A42     		cmp	r2, r3
 1331 0064 50D0     		beq	.L237
 1332 0066 4FF04022 		mov	r2, #1073758208
 1333              	.L220:
 1334 006a 5368     		ldr	r3, [r2, #4]
 1335 006c 23F06003 		bic	r3, r3, #96
 1336 0070 5360     		str	r3, [r2, #4]
 1337 0072 2268     		ldr	r2, [r4]
 1338 0074 5368     		ldr	r3, [r2, #4]
ARM GAS  /var/folders/lp/x54gwt890xv47sdkqj1k04q40000gn/T//ccuufEt5.s 			page 24


 1339 0076 23F0A003 		bic	r3, r3, #160
 1340 007a 5360     		str	r3, [r2, #4]
 1341 007c 0023     		movs	r3, #0
 1342 007e 0093     		str	r3, [sp]
 1343 0080 2368     		ldr	r3, [r4]
 1344 0082 DA68     		ldr	r2, [r3, #12]
 1345 0084 0092     		str	r2, [sp]
 1346 0086 9B68     		ldr	r3, [r3, #8]
 1347 0088 0093     		str	r3, [sp]
 1348 008a 009B     		ldr	r3, [sp]
 1349 008c 0123     		movs	r3, #1
 1350 008e 84F84130 		strb	r3, [r4, #65]
 1351 0092 636C     		ldr	r3, [r4, #68]
 1352 0094 43F00203 		orr	r3, r3, #2
 1353 0098 6364     		str	r3, [r4, #68]
 1354 009a 2046     		mov	r0, r4
 1355 009c FFF7FEFF 		bl	HAL_I2S_ErrorCallback
 1356              	.L219:
 1357 00a0 059B     		ldr	r3, [sp, #20]
 1358 00a2 13F0080F 		tst	r3, #8
 1359 00a6 22D0     		beq	.L213
 1360 00a8 039B     		ldr	r3, [sp, #12]
 1361 00aa 13F0200F 		tst	r3, #32
 1362 00ae 1ED0     		beq	.L213
 1363 00b0 2268     		ldr	r2, [r4]
 1364 00b2 5368     		ldr	r3, [r2, #4]
 1365 00b4 23F0A003 		bic	r3, r3, #160
 1366 00b8 5360     		str	r3, [r2, #4]
 1367 00ba 2268     		ldr	r2, [r4]
 1368 00bc 444B     		ldr	r3, .L243
 1369 00be 9A42     		cmp	r2, r3
 1370 00c0 24D0     		beq	.L238
 1371 00c2 4FF04022 		mov	r2, #1073758208
 1372              	.L222:
 1373 00c6 5368     		ldr	r3, [r2, #4]
 1374 00c8 23F06003 		bic	r3, r3, #96
 1375 00cc 5360     		str	r3, [r2, #4]
 1376 00ce 0023     		movs	r3, #0
 1377 00d0 0193     		str	r3, [sp, #4]
 1378 00d2 2368     		ldr	r3, [r4]
 1379 00d4 9B68     		ldr	r3, [r3, #8]
 1380 00d6 0193     		str	r3, [sp, #4]
 1381 00d8 019B     		ldr	r3, [sp, #4]
 1382 00da 0123     		movs	r3, #1
 1383 00dc 84F84130 		strb	r3, [r4, #65]
 1384 00e0 636C     		ldr	r3, [r4, #68]
 1385 00e2 43F00403 		orr	r3, r3, #4
 1386 00e6 6364     		str	r3, [r4, #68]
 1387 00e8 2046     		mov	r0, r4
 1388 00ea FFF7FEFF 		bl	HAL_I2S_ErrorCallback
 1389              	.L213:
 1390 00ee 06B0     		add	sp, sp, #24
 1391              		@ sp needed
 1392 00f0 10BD     		pop	{r4, pc}
 1393              	.L234:
 1394 00f2 A2F58062 		sub	r2, r2, #1024
 1395 00f6 8EE7     		b	.L214
ARM GAS  /var/folders/lp/x54gwt890xv47sdkqj1k04q40000gn/T//ccuufEt5.s 			page 25


 1396              	.L235:
 1397 00f8 2046     		mov	r0, r4
 1398 00fa FFF7FEFF 		bl	I2SEx_TxISR_I2S
 1399 00fe 9EE7     		b	.L217
 1400              	.L236:
 1401 0100 2046     		mov	r0, r4
 1402 0102 FFF7FEFF 		bl	I2SEx_RxISR_I2SExt
 1403 0106 A2E7     		b	.L218
 1404              	.L237:
 1405 0108 324A     		ldr	r2, .L243+4
 1406 010a AEE7     		b	.L220
 1407              	.L238:
 1408 010c 314A     		ldr	r2, .L243+4
 1409 010e DAE7     		b	.L222
 1410              	.L216:
 1411 0110 049B     		ldr	r3, [sp, #16]
 1412 0112 13F0020F 		tst	r3, #2
 1413 0116 03D0     		beq	.L223
 1414 0118 029B     		ldr	r3, [sp, #8]
 1415 011a 13F0800F 		tst	r3, #128
 1416 011e 4AD1     		bne	.L239
 1417              	.L223:
 1418 0120 059B     		ldr	r3, [sp, #20]
 1419 0122 13F0010F 		tst	r3, #1
 1420 0126 03D0     		beq	.L224
 1421 0128 039B     		ldr	r3, [sp, #12]
 1422 012a 13F0400F 		tst	r3, #64
 1423 012e 46D1     		bne	.L240
 1424              	.L224:
 1425 0130 059B     		ldr	r3, [sp, #20]
 1426 0132 13F0400F 		tst	r3, #64
 1427 0136 1CD0     		beq	.L225
 1428 0138 039B     		ldr	r3, [sp, #12]
 1429 013a 13F0200F 		tst	r3, #32
 1430 013e 18D0     		beq	.L225
 1431 0140 2268     		ldr	r2, [r4]
 1432 0142 5368     		ldr	r3, [r2, #4]
 1433 0144 23F06003 		bic	r3, r3, #96
 1434 0148 5360     		str	r3, [r2, #4]
 1435 014a 2268     		ldr	r2, [r4]
 1436 014c 204B     		ldr	r3, .L243
 1437 014e 9A42     		cmp	r2, r3
 1438 0150 39D0     		beq	.L241
 1439 0152 4FF04022 		mov	r2, #1073758208
 1440              	.L226:
 1441 0156 5368     		ldr	r3, [r2, #4]
 1442 0158 23F0A003 		bic	r3, r3, #160
 1443 015c 5360     		str	r3, [r2, #4]
 1444 015e 0123     		movs	r3, #1
 1445 0160 84F84130 		strb	r3, [r4, #65]
 1446 0164 636C     		ldr	r3, [r4, #68]
 1447 0166 43F00203 		orr	r3, r3, #2
 1448 016a 6364     		str	r3, [r4, #68]
 1449 016c 2046     		mov	r0, r4
 1450 016e FFF7FEFF 		bl	HAL_I2S_ErrorCallback
 1451              	.L225:
 1452 0172 049B     		ldr	r3, [sp, #16]
ARM GAS  /var/folders/lp/x54gwt890xv47sdkqj1k04q40000gn/T//ccuufEt5.s 			page 26


 1453 0174 13F0080F 		tst	r3, #8
 1454 0178 B9D0     		beq	.L213
 1455 017a 029B     		ldr	r3, [sp, #8]
 1456 017c 13F0200F 		tst	r3, #32
 1457 0180 B5D0     		beq	.L213
 1458 0182 2268     		ldr	r2, [r4]
 1459 0184 124B     		ldr	r3, .L243
 1460 0186 9A42     		cmp	r2, r3
 1461 0188 1FD0     		beq	.L242
 1462 018a 4FF04022 		mov	r2, #1073758208
 1463              	.L227:
 1464 018e 5368     		ldr	r3, [r2, #4]
 1465 0190 23F0A003 		bic	r3, r3, #160
 1466 0194 5360     		str	r3, [r2, #4]
 1467 0196 2268     		ldr	r2, [r4]
 1468 0198 5368     		ldr	r3, [r2, #4]
 1469 019a 23F06003 		bic	r3, r3, #96
 1470 019e 5360     		str	r3, [r2, #4]
 1471 01a0 0123     		movs	r3, #1
 1472 01a2 84F84130 		strb	r3, [r4, #65]
 1473 01a6 636C     		ldr	r3, [r4, #68]
 1474 01a8 43F00403 		orr	r3, r3, #4
 1475 01ac 6364     		str	r3, [r4, #68]
 1476 01ae 2046     		mov	r0, r4
 1477 01b0 FFF7FEFF 		bl	HAL_I2S_ErrorCallback
 1478 01b4 9BE7     		b	.L213
 1479              	.L239:
 1480 01b6 2046     		mov	r0, r4
 1481 01b8 FFF7FEFF 		bl	I2SEx_TxISR_I2SExt
 1482 01bc B0E7     		b	.L223
 1483              	.L240:
 1484 01be 2046     		mov	r0, r4
 1485 01c0 FFF7FEFF 		bl	I2SEx_RxISR_I2S
 1486 01c4 B4E7     		b	.L224
 1487              	.L241:
 1488 01c6 034A     		ldr	r2, .L243+4
 1489 01c8 C5E7     		b	.L226
 1490              	.L242:
 1491 01ca 024A     		ldr	r2, .L243+4
 1492 01cc DFE7     		b	.L227
 1493              	.L244:
 1494 01ce 00BF     		.align	2
 1495              	.L243:
 1496 01d0 00380040 		.word	1073756160
 1497 01d4 00340040 		.word	1073755136
 1499              		.ident	"GCC: (xPack GNU Arm Embedded GCC arm64) 13.3.1 20240614"
ARM GAS  /var/folders/lp/x54gwt890xv47sdkqj1k04q40000gn/T//ccuufEt5.s 			page 27

