ARM GAS  /var/folders/lp/x54gwt890xv47sdkqj1k04q40000gn/T//ccOEbxaP.s 			page 1


   1              		.cpu cortex-m4
   2              		.arch armv7e-m
   3              		.fpu fpv4-sp-d16
   4              		.eabi_attribute 27, 1
   5              		.eabi_attribute 28, 1
   6              		.eabi_attribute 20, 1
   7              		.eabi_attribute 21, 1
   8              		.eabi_attribute 23, 3
   9              		.eabi_attribute 24, 1
  10              		.eabi_attribute 25, 1
  11              		.eabi_attribute 26, 1
  12              		.eabi_attribute 30, 1
  13              		.eabi_attribute 34, 1
  14              		.eabi_attribute 18, 4
  15              		.file	"stm32f4xx_hal_gpio.c"
  16              		.text
  17              		.section	.text.HAL_GPIO_Init,"ax",%progbits
  18              		.align	1
  19              		.global	HAL_GPIO_Init
  20              		.syntax unified
  21              		.thumb
  22              		.thumb_func
  24              	HAL_GPIO_Init:
  25              		@ args = 0, pretend = 0, frame = 8
  26              		@ frame_needed = 0, uses_anonymous_args = 0
  27 0000 0023     		movs	r3, #0
  28 0002 0F2B     		cmp	r3, #15
  29 0004 00F2E980 		bhi	.L24
  30 0008 70B5     		push	{r4, r5, r6, lr}
  31 000a 82B0     		sub	sp, sp, #8
  32 000c 65E0     		b	.L12
  33              	.L26:
  34 000e 8568     		ldr	r5, [r0, #8]
  35 0010 4FEA430E 		lsl	lr, r3, #1
  36 0014 0324     		movs	r4, #3
  37 0016 04FA0EF4 		lsl	r4, r4, lr
  38 001a 25EA0405 		bic	r5, r5, r4
  39 001e CC68     		ldr	r4, [r1, #12]
  40 0020 04FA0EF4 		lsl	r4, r4, lr
  41 0024 2C43     		orrs	r4, r4, r5
  42 0026 8460     		str	r4, [r0, #8]
  43 0028 4468     		ldr	r4, [r0, #4]
  44 002a 24EA0204 		bic	r4, r4, r2
  45 002e 4A68     		ldr	r2, [r1, #4]
  46 0030 C2F30012 		ubfx	r2, r2, #4, #1
  47 0034 9A40     		lsls	r2, r2, r3
  48 0036 2243     		orrs	r2, r2, r4
  49 0038 4260     		str	r2, [r0, #4]
  50 003a 5CE0     		b	.L4
  51              	.L27:
  52 003c DC08     		lsrs	r4, r3, #3
  53 003e 0834     		adds	r4, r4, #8
  54 0040 50F82420 		ldr	r2, [r0, r4, lsl #2]
  55 0044 03F00705 		and	r5, r3, #7
  56 0048 AD00     		lsls	r5, r5, #2
  57 004a 4FF00F0E 		mov	lr, #15
  58 004e 0EFA05FE 		lsl	lr, lr, r5
ARM GAS  /var/folders/lp/x54gwt890xv47sdkqj1k04q40000gn/T//ccOEbxaP.s 			page 2


  59 0052 22EA0E0E 		bic	lr, r2, lr
  60 0056 0A69     		ldr	r2, [r1, #16]
  61 0058 AA40     		lsls	r2, r2, r5
  62 005a 42EA0E02 		orr	r2, r2, lr
  63 005e 40F82420 		str	r2, [r0, r4, lsl #2]
  64 0062 5CE0     		b	.L6
  65              	.L28:
  66 0064 0722     		movs	r2, #7
  67 0066 00E0     		b	.L7
  68              	.L13:
  69 0068 0022     		movs	r2, #0
  70              	.L7:
  71 006a 02FA0EF2 		lsl	r2, r2, lr
  72 006e 2A43     		orrs	r2, r2, r5
  73 0070 0234     		adds	r4, r4, #2
  74 0072 5A4D     		ldr	r5, .L29
  75 0074 45F82420 		str	r2, [r5, r4, lsl #2]
  76 0078 594A     		ldr	r2, .L29+4
  77 007a 9468     		ldr	r4, [r2, #8]
  78 007c 6FEA0C02 		mvn	r2, ip
  79 0080 24EA0C05 		bic	r5, r4, ip
  80 0084 4E68     		ldr	r6, [r1, #4]
  81 0086 16F4801F 		tst	r6, #1048576
  82 008a 01D0     		beq	.L8
  83 008c 4CEA0405 		orr	r5, ip, r4
  84              	.L8:
  85 0090 534C     		ldr	r4, .L29+4
  86 0092 A560     		str	r5, [r4, #8]
  87 0094 E468     		ldr	r4, [r4, #12]
  88 0096 02EA0405 		and	r5, r2, r4
  89 009a 4E68     		ldr	r6, [r1, #4]
  90 009c 16F4001F 		tst	r6, #2097152
  91 00a0 01D0     		beq	.L9
  92 00a2 4CEA0405 		orr	r5, ip, r4
  93              	.L9:
  94 00a6 4E4C     		ldr	r4, .L29+4
  95 00a8 E560     		str	r5, [r4, #12]
  96 00aa 6468     		ldr	r4, [r4, #4]
  97 00ac 02EA0405 		and	r5, r2, r4
  98 00b0 4E68     		ldr	r6, [r1, #4]
  99 00b2 16F4003F 		tst	r6, #131072
 100 00b6 01D0     		beq	.L10
 101 00b8 4CEA0405 		orr	r5, ip, r4
 102              	.L10:
 103 00bc 484C     		ldr	r4, .L29+4
 104 00be 6560     		str	r5, [r4, #4]
 105 00c0 2468     		ldr	r4, [r4]
 106 00c2 2240     		ands	r2, r2, r4
 107 00c4 4D68     		ldr	r5, [r1, #4]
 108 00c6 15F4803F 		tst	r5, #65536
 109 00ca 01D0     		beq	.L11
 110 00cc 4CEA0402 		orr	r2, ip, r4
 111              	.L11:
 112 00d0 434C     		ldr	r4, .L29+4
 113 00d2 2260     		str	r2, [r4]
 114              	.L3:
 115 00d4 0133     		adds	r3, r3, #1
ARM GAS  /var/folders/lp/x54gwt890xv47sdkqj1k04q40000gn/T//ccOEbxaP.s 			page 3


 116 00d6 0F2B     		cmp	r3, #15
 117 00d8 7DD8     		bhi	.L25
 118              	.L12:
 119 00da 0122     		movs	r2, #1
 120 00dc 9A40     		lsls	r2, r2, r3
 121 00de 0C68     		ldr	r4, [r1]
 122 00e0 04EA020C 		and	ip, r4, r2
 123 00e4 32EA0404 		bics	r4, r2, r4
 124 00e8 F4D1     		bne	.L3
 125 00ea 4C68     		ldr	r4, [r1, #4]
 126 00ec 04F00304 		and	r4, r4, #3
 127 00f0 013C     		subs	r4, r4, #1
 128 00f2 012C     		cmp	r4, #1
 129 00f4 8BD9     		bls	.L26
 130              	.L4:
 131 00f6 4A68     		ldr	r2, [r1, #4]
 132 00f8 02F00302 		and	r2, r2, #3
 133 00fc 032A     		cmp	r2, #3
 134 00fe 09D0     		beq	.L5
 135 0100 C468     		ldr	r4, [r0, #12]
 136 0102 5D00     		lsls	r5, r3, #1
 137 0104 0322     		movs	r2, #3
 138 0106 AA40     		lsls	r2, r2, r5
 139 0108 24EA0204 		bic	r4, r4, r2
 140 010c 8A68     		ldr	r2, [r1, #8]
 141 010e AA40     		lsls	r2, r2, r5
 142 0110 2243     		orrs	r2, r2, r4
 143 0112 C260     		str	r2, [r0, #12]
 144              	.L5:
 145 0114 4A68     		ldr	r2, [r1, #4]
 146 0116 02F00302 		and	r2, r2, #3
 147 011a 022A     		cmp	r2, #2
 148 011c 8ED0     		beq	.L27
 149              	.L6:
 150 011e 0468     		ldr	r4, [r0]
 151 0120 4FEA430E 		lsl	lr, r3, #1
 152 0124 0322     		movs	r2, #3
 153 0126 02FA0EF2 		lsl	r2, r2, lr
 154 012a 24EA0204 		bic	r4, r4, r2
 155 012e 4A68     		ldr	r2, [r1, #4]
 156 0130 02F00302 		and	r2, r2, #3
 157 0134 02FA0EF2 		lsl	r2, r2, lr
 158 0138 2243     		orrs	r2, r2, r4
 159 013a 0260     		str	r2, [r0]
 160 013c 4A68     		ldr	r2, [r1, #4]
 161 013e 12F4403F 		tst	r2, #196608
 162 0142 C7D0     		beq	.L3
 163 0144 0022     		movs	r2, #0
 164 0146 0192     		str	r2, [sp, #4]
 165 0148 264A     		ldr	r2, .L29+8
 166 014a 546C     		ldr	r4, [r2, #68]
 167 014c 44F48044 		orr	r4, r4, #16384
 168 0150 5464     		str	r4, [r2, #68]
 169 0152 526C     		ldr	r2, [r2, #68]
 170 0154 02F48042 		and	r2, r2, #16384
 171 0158 0192     		str	r2, [sp, #4]
 172 015a 019A     		ldr	r2, [sp, #4]
ARM GAS  /var/folders/lp/x54gwt890xv47sdkqj1k04q40000gn/T//ccOEbxaP.s 			page 4


 173 015c 9C08     		lsrs	r4, r3, #2
 174 015e A51C     		adds	r5, r4, #2
 175 0160 1E4A     		ldr	r2, .L29
 176 0162 52F82550 		ldr	r5, [r2, r5, lsl #2]
 177 0166 03F0030E 		and	lr, r3, #3
 178 016a 4FEA8E0E 		lsl	lr, lr, #2
 179 016e 0F22     		movs	r2, #15
 180 0170 02FA0EF2 		lsl	r2, r2, lr
 181 0174 25EA0205 		bic	r5, r5, r2
 182 0178 1B4A     		ldr	r2, .L29+12
 183 017a 9042     		cmp	r0, r2
 184 017c 3FF474AF 		beq	.L13
 185 0180 02F58062 		add	r2, r2, #1024
 186 0184 9042     		cmp	r0, r2
 187 0186 1AD0     		beq	.L14
 188 0188 02F58062 		add	r2, r2, #1024
 189 018c 9042     		cmp	r0, r2
 190 018e 18D0     		beq	.L15
 191 0190 02F58062 		add	r2, r2, #1024
 192 0194 9042     		cmp	r0, r2
 193 0196 16D0     		beq	.L16
 194 0198 02F58062 		add	r2, r2, #1024
 195 019c 9042     		cmp	r0, r2
 196 019e 14D0     		beq	.L17
 197 01a0 02F58062 		add	r2, r2, #1024
 198 01a4 9042     		cmp	r0, r2
 199 01a6 12D0     		beq	.L18
 200 01a8 02F58062 		add	r2, r2, #1024
 201 01ac 9042     		cmp	r0, r2
 202 01ae 10D0     		beq	.L19
 203 01b0 02F58062 		add	r2, r2, #1024
 204 01b4 9042     		cmp	r0, r2
 205 01b6 3FF455AF 		beq	.L28
 206 01ba 0822     		movs	r2, #8
 207 01bc 55E7     		b	.L7
 208              	.L14:
 209 01be 0122     		movs	r2, #1
 210 01c0 53E7     		b	.L7
 211              	.L15:
 212 01c2 0222     		movs	r2, #2
 213 01c4 51E7     		b	.L7
 214              	.L16:
 215 01c6 0322     		movs	r2, #3
 216 01c8 4FE7     		b	.L7
 217              	.L17:
 218 01ca 0422     		movs	r2, #4
 219 01cc 4DE7     		b	.L7
 220              	.L18:
 221 01ce 0522     		movs	r2, #5
 222 01d0 4BE7     		b	.L7
 223              	.L19:
 224 01d2 0622     		movs	r2, #6
 225 01d4 49E7     		b	.L7
 226              	.L25:
 227 01d6 02B0     		add	sp, sp, #8
 228              		@ sp needed
 229 01d8 70BD     		pop	{r4, r5, r6, pc}
ARM GAS  /var/folders/lp/x54gwt890xv47sdkqj1k04q40000gn/T//ccOEbxaP.s 			page 5


 230              	.L24:
 231 01da 7047     		bx	lr
 232              	.L30:
 233              		.align	2
 234              	.L29:
 235 01dc 00380140 		.word	1073821696
 236 01e0 003C0140 		.word	1073822720
 237 01e4 00380240 		.word	1073887232
 238 01e8 00000240 		.word	1073872896
 240              		.section	.text.HAL_GPIO_DeInit,"ax",%progbits
 241              		.align	1
 242              		.global	HAL_GPIO_DeInit
 243              		.syntax unified
 244              		.thumb
 245              		.thumb_func
 247              	HAL_GPIO_DeInit:
 248              		@ args = 0, pretend = 0, frame = 0
 249              		@ frame_needed = 0, uses_anonymous_args = 0
 250 0000 0023     		movs	r3, #0
 251 0002 0F2B     		cmp	r3, #15
 252 0004 00F28F80 		bhi	.L48
 253 0008 F0B5     		push	{r4, r5, r6, r7, lr}
 254 000a 2DE0     		b	.L36
 255              	.L51:
 256 000c 0725     		movs	r5, #7
 257 000e 00E0     		b	.L34
 258              	.L37:
 259 0010 0025     		movs	r5, #0
 260              	.L34:
 261 0012 05FA0CF5 		lsl	r5, r5, ip
 262 0016 A542     		cmp	r5, r4
 263 0018 69D0     		beq	.L49
 264              	.L35:
 265 001a 0468     		ldr	r4, [r0]
 266 001c 5D00     		lsls	r5, r3, #1
 267 001e 4FF0030C 		mov	ip, #3
 268 0022 0CFA05FC 		lsl	ip, ip, r5
 269 0026 24EA0C04 		bic	r4, r4, ip
 270 002a 0460     		str	r4, [r0]
 271 002c 4FEAD30E 		lsr	lr, r3, #3
 272 0030 0EF1080E 		add	lr, lr, #8
 273 0034 50F82E40 		ldr	r4, [r0, lr, lsl #2]
 274 0038 03F00706 		and	r6, r3, #7
 275 003c B600     		lsls	r6, r6, #2
 276 003e 0F25     		movs	r5, #15
 277 0040 B540     		lsls	r5, r5, r6
 278 0042 24EA0504 		bic	r4, r4, r5
 279 0046 40F82E40 		str	r4, [r0, lr, lsl #2]
 280 004a C468     		ldr	r4, [r0, #12]
 281 004c 24EA0C04 		bic	r4, r4, ip
 282 0050 C460     		str	r4, [r0, #12]
 283 0052 4468     		ldr	r4, [r0, #4]
 284 0054 24EA0202 		bic	r2, r4, r2
 285 0058 4260     		str	r2, [r0, #4]
 286 005a 8268     		ldr	r2, [r0, #8]
 287 005c 22EA0C02 		bic	r2, r2, ip
 288 0060 8260     		str	r2, [r0, #8]
ARM GAS  /var/folders/lp/x54gwt890xv47sdkqj1k04q40000gn/T//ccOEbxaP.s 			page 6


 289              	.L33:
 290 0062 0133     		adds	r3, r3, #1
 291 0064 0F2B     		cmp	r3, #15
 292 0066 5DD8     		bhi	.L50
 293              	.L36:
 294 0068 0122     		movs	r2, #1
 295 006a 9A40     		lsls	r2, r2, r3
 296 006c 02EA0106 		and	r6, r2, r1
 297 0070 32EA0104 		bics	r4, r2, r1
 298 0074 F5D1     		bne	.L33
 299 0076 4FEA930E 		lsr	lr, r3, #2
 300 007a 0EF10205 		add	r5, lr, #2
 301 007e 2A4C     		ldr	r4, .L52
 302 0080 54F82540 		ldr	r4, [r4, r5, lsl #2]
 303 0084 03F0030C 		and	ip, r3, #3
 304 0088 4FEA8C0C 		lsl	ip, ip, #2
 305 008c 0F25     		movs	r5, #15
 306 008e 05FA0CF7 		lsl	r7, r5, ip
 307 0092 3C40     		ands	r4, r4, r7
 308 0094 254D     		ldr	r5, .L52+4
 309 0096 A842     		cmp	r0, r5
 310 0098 BAD0     		beq	.L37
 311 009a 05F58065 		add	r5, r5, #1024
 312 009e A842     		cmp	r0, r5
 313 00a0 19D0     		beq	.L38
 314 00a2 05F58065 		add	r5, r5, #1024
 315 00a6 A842     		cmp	r0, r5
 316 00a8 17D0     		beq	.L39
 317 00aa 05F58065 		add	r5, r5, #1024
 318 00ae A842     		cmp	r0, r5
 319 00b0 15D0     		beq	.L40
 320 00b2 05F58065 		add	r5, r5, #1024
 321 00b6 A842     		cmp	r0, r5
 322 00b8 13D0     		beq	.L41
 323 00ba 05F58065 		add	r5, r5, #1024
 324 00be A842     		cmp	r0, r5
 325 00c0 11D0     		beq	.L42
 326 00c2 05F58065 		add	r5, r5, #1024
 327 00c6 A842     		cmp	r0, r5
 328 00c8 0FD0     		beq	.L43
 329 00ca 05F58065 		add	r5, r5, #1024
 330 00ce A842     		cmp	r0, r5
 331 00d0 9CD0     		beq	.L51
 332 00d2 0825     		movs	r5, #8
 333 00d4 9DE7     		b	.L34
 334              	.L38:
 335 00d6 0125     		movs	r5, #1
 336 00d8 9BE7     		b	.L34
 337              	.L39:
 338 00da 0225     		movs	r5, #2
 339 00dc 99E7     		b	.L34
 340              	.L40:
 341 00de 0325     		movs	r5, #3
 342 00e0 97E7     		b	.L34
 343              	.L41:
 344 00e2 0425     		movs	r5, #4
 345 00e4 95E7     		b	.L34
ARM GAS  /var/folders/lp/x54gwt890xv47sdkqj1k04q40000gn/T//ccOEbxaP.s 			page 7


 346              	.L42:
 347 00e6 0525     		movs	r5, #5
 348 00e8 93E7     		b	.L34
 349              	.L43:
 350 00ea 0625     		movs	r5, #6
 351 00ec 91E7     		b	.L34
 352              	.L49:
 353 00ee 104C     		ldr	r4, .L52+8
 354 00f0 2568     		ldr	r5, [r4]
 355 00f2 25EA0605 		bic	r5, r5, r6
 356 00f6 2560     		str	r5, [r4]
 357 00f8 6568     		ldr	r5, [r4, #4]
 358 00fa 25EA0605 		bic	r5, r5, r6
 359 00fe 6560     		str	r5, [r4, #4]
 360 0100 E568     		ldr	r5, [r4, #12]
 361 0102 25EA0605 		bic	r5, r5, r6
 362 0106 E560     		str	r5, [r4, #12]
 363 0108 A568     		ldr	r5, [r4, #8]
 364 010a 25EA0605 		bic	r5, r5, r6
 365 010e A560     		str	r5, [r4, #8]
 366 0110 054E     		ldr	r6, .L52
 367 0112 0EF10204 		add	r4, lr, #2
 368 0116 56F82450 		ldr	r5, [r6, r4, lsl #2]
 369 011a 25EA0705 		bic	r5, r5, r7
 370 011e 46F82450 		str	r5, [r6, r4, lsl #2]
 371 0122 7AE7     		b	.L35
 372              	.L50:
 373 0124 F0BD     		pop	{r4, r5, r6, r7, pc}
 374              	.L48:
 375 0126 7047     		bx	lr
 376              	.L53:
 377              		.align	2
 378              	.L52:
 379 0128 00380140 		.word	1073821696
 380 012c 00000240 		.word	1073872896
 381 0130 003C0140 		.word	1073822720
 383              		.section	.text.HAL_GPIO_ReadPin,"ax",%progbits
 384              		.align	1
 385              		.global	HAL_GPIO_ReadPin
 386              		.syntax unified
 387              		.thumb
 388              		.thumb_func
 390              	HAL_GPIO_ReadPin:
 391              		@ args = 0, pretend = 0, frame = 0
 392              		@ frame_needed = 0, uses_anonymous_args = 0
 393              		@ link register save eliminated.
 394 0000 0369     		ldr	r3, [r0, #16]
 395 0002 1942     		tst	r1, r3
 396 0004 01D0     		beq	.L56
 397 0006 0120     		movs	r0, #1
 398 0008 7047     		bx	lr
 399              	.L56:
 400 000a 0020     		movs	r0, #0
 401 000c 7047     		bx	lr
 403              		.section	.text.HAL_GPIO_WritePin,"ax",%progbits
 404              		.align	1
 405              		.global	HAL_GPIO_WritePin
ARM GAS  /var/folders/lp/x54gwt890xv47sdkqj1k04q40000gn/T//ccOEbxaP.s 			page 8


 406              		.syntax unified
 407              		.thumb
 408              		.thumb_func
 410              	HAL_GPIO_WritePin:
 411              		@ args = 0, pretend = 0, frame = 0
 412              		@ frame_needed = 0, uses_anonymous_args = 0
 413              		@ link register save eliminated.
 414 0000 0AB1     		cbz	r2, .L58
 415 0002 8161     		str	r1, [r0, #24]
 416 0004 7047     		bx	lr
 417              	.L58:
 418 0006 0904     		lsls	r1, r1, #16
 419 0008 8161     		str	r1, [r0, #24]
 420 000a 7047     		bx	lr
 422              		.section	.text.HAL_GPIO_TogglePin,"ax",%progbits
 423              		.align	1
 424              		.global	HAL_GPIO_TogglePin
 425              		.syntax unified
 426              		.thumb
 427              		.thumb_func
 429              	HAL_GPIO_TogglePin:
 430              		@ args = 0, pretend = 0, frame = 0
 431              		@ frame_needed = 0, uses_anonymous_args = 0
 432              		@ link register save eliminated.
 433 0000 4369     		ldr	r3, [r0, #20]
 434 0002 01EA0302 		and	r2, r1, r3
 435 0006 21EA0301 		bic	r1, r1, r3
 436 000a 41EA0241 		orr	r1, r1, r2, lsl #16
 437 000e 8161     		str	r1, [r0, #24]
 438 0010 7047     		bx	lr
 440              		.section	.text.HAL_GPIO_LockPin,"ax",%progbits
 441              		.align	1
 442              		.global	HAL_GPIO_LockPin
 443              		.syntax unified
 444              		.thumb
 445              		.thumb_func
 447              	HAL_GPIO_LockPin:
 448              		@ args = 0, pretend = 0, frame = 8
 449              		@ frame_needed = 0, uses_anonymous_args = 0
 450              		@ link register save eliminated.
 451 0000 82B0     		sub	sp, sp, #8
 452 0002 4FF48033 		mov	r3, #65536
 453 0006 0193     		str	r3, [sp, #4]
 454 0008 019B     		ldr	r3, [sp, #4]
 455 000a 0B43     		orrs	r3, r3, r1
 456 000c 0193     		str	r3, [sp, #4]
 457 000e 019B     		ldr	r3, [sp, #4]
 458 0010 C361     		str	r3, [r0, #28]
 459 0012 C161     		str	r1, [r0, #28]
 460 0014 019B     		ldr	r3, [sp, #4]
 461 0016 C361     		str	r3, [r0, #28]
 462 0018 C369     		ldr	r3, [r0, #28]
 463 001a 0193     		str	r3, [sp, #4]
 464 001c C369     		ldr	r3, [r0, #28]
 465 001e 13F4803F 		tst	r3, #65536
 466 0022 02D0     		beq	.L63
 467 0024 0020     		movs	r0, #0
ARM GAS  /var/folders/lp/x54gwt890xv47sdkqj1k04q40000gn/T//ccOEbxaP.s 			page 9


 468              	.L62:
 469 0026 02B0     		add	sp, sp, #8
 470              		@ sp needed
 471 0028 7047     		bx	lr
 472              	.L63:
 473 002a 0120     		movs	r0, #1
 474 002c FBE7     		b	.L62
 476              		.section	.text.HAL_GPIO_EXTI_Callback,"ax",%progbits
 477              		.align	1
 478              		.weak	HAL_GPIO_EXTI_Callback
 479              		.syntax unified
 480              		.thumb
 481              		.thumb_func
 483              	HAL_GPIO_EXTI_Callback:
 484              		@ args = 0, pretend = 0, frame = 0
 485              		@ frame_needed = 0, uses_anonymous_args = 0
 486              		@ link register save eliminated.
 487 0000 7047     		bx	lr
 489              		.section	.text.HAL_GPIO_EXTI_IRQHandler,"ax",%progbits
 490              		.align	1
 491              		.global	HAL_GPIO_EXTI_IRQHandler
 492              		.syntax unified
 493              		.thumb
 494              		.thumb_func
 496              	HAL_GPIO_EXTI_IRQHandler:
 497              		@ args = 0, pretend = 0, frame = 0
 498              		@ frame_needed = 0, uses_anonymous_args = 0
 499 0000 08B5     		push	{r3, lr}
 500 0002 054B     		ldr	r3, .L70
 501 0004 5B69     		ldr	r3, [r3, #20]
 502 0006 0342     		tst	r3, r0
 503 0008 00D1     		bne	.L69
 504              	.L66:
 505 000a 08BD     		pop	{r3, pc}
 506              	.L69:
 507 000c 024B     		ldr	r3, .L70
 508 000e 5861     		str	r0, [r3, #20]
 509 0010 FFF7FEFF 		bl	HAL_GPIO_EXTI_Callback
 510 0014 F9E7     		b	.L66
 511              	.L71:
 512 0016 00BF     		.align	2
 513              	.L70:
 514 0018 003C0140 		.word	1073822720
 516              		.ident	"GCC: (xPack GNU Arm Embedded GCC arm64) 13.3.1 20240614"
ARM GAS  /var/folders/lp/x54gwt890xv47sdkqj1k04q40000gn/T//ccOEbxaP.s 			page 10

