ARM GAS  /var/folders/lp/x54gwt890xv47sdkqj1k04q40000gn/T//ccDINcsG.s 			page 1


   1              		.cpu cortex-m4
   2              		.arch armv7e-m
   3              		.fpu fpv4-sp-d16
   4              		.eabi_attribute 27, 1
   5              		.eabi_attribute 28, 1
   6              		.eabi_attribute 20, 1
   7              		.eabi_attribute 21, 1
   8              		.eabi_attribute 23, 3
   9              		.eabi_attribute 24, 1
  10              		.eabi_attribute 25, 1
  11              		.eabi_attribute 26, 1
  12              		.eabi_attribute 30, 1
  13              		.eabi_attribute 34, 1
  14              		.eabi_attribute 18, 4
  15              		.file	"stm32f4xx_hal_pwr.c"
  16              		.text
  17              		.section	.text.HAL_PWR_DeInit,"ax",%progbits
  18              		.align	1
  19              		.global	HAL_PWR_DeInit
  20              		.syntax unified
  21              		.thumb
  22              		.thumb_func
  24              	HAL_PWR_DeInit:
  25              		@ args = 0, pretend = 0, frame = 0
  26              		@ frame_needed = 0, uses_anonymous_args = 0
  27              		@ link register save eliminated.
  28 0000 044B     		ldr	r3, .L2
  29 0002 1A6A     		ldr	r2, [r3, #32]
  30 0004 42F08052 		orr	r2, r2, #268435456
  31 0008 1A62     		str	r2, [r3, #32]
  32 000a 1A6A     		ldr	r2, [r3, #32]
  33 000c 22F08052 		bic	r2, r2, #268435456
  34 0010 1A62     		str	r2, [r3, #32]
  35 0012 7047     		bx	lr
  36              	.L3:
  37              		.align	2
  38              	.L2:
  39 0014 00380240 		.word	1073887232
  41              		.section	.text.HAL_PWR_EnableBkUpAccess,"ax",%progbits
  42              		.align	1
  43              		.global	HAL_PWR_EnableBkUpAccess
  44              		.syntax unified
  45              		.thumb
  46              		.thumb_func
  48              	HAL_PWR_EnableBkUpAccess:
  49              		@ args = 0, pretend = 0, frame = 8
  50              		@ frame_needed = 0, uses_anonymous_args = 0
  51              		@ link register save eliminated.
  52 0000 82B0     		sub	sp, sp, #8
  53 0002 044B     		ldr	r3, .L6
  54 0004 0122     		movs	r2, #1
  55 0006 1A62     		str	r2, [r3, #32]
  56 0008 034B     		ldr	r3, .L6+4
  57 000a 1B68     		ldr	r3, [r3]
  58 000c 0193     		str	r3, [sp, #4]
  59 000e 019B     		ldr	r3, [sp, #4]
  60 0010 02B0     		add	sp, sp, #8
ARM GAS  /var/folders/lp/x54gwt890xv47sdkqj1k04q40000gn/T//ccDINcsG.s 			page 2


  61              		@ sp needed
  62 0012 7047     		bx	lr
  63              	.L7:
  64              		.align	2
  65              	.L6:
  66 0014 00000E42 		.word	1108213760
  67 0018 00700040 		.word	1073770496
  69              		.section	.text.HAL_PWR_DisableBkUpAccess,"ax",%progbits
  70              		.align	1
  71              		.global	HAL_PWR_DisableBkUpAccess
  72              		.syntax unified
  73              		.thumb
  74              		.thumb_func
  76              	HAL_PWR_DisableBkUpAccess:
  77              		@ args = 0, pretend = 0, frame = 8
  78              		@ frame_needed = 0, uses_anonymous_args = 0
  79              		@ link register save eliminated.
  80 0000 82B0     		sub	sp, sp, #8
  81 0002 044B     		ldr	r3, .L10
  82 0004 0022     		movs	r2, #0
  83 0006 1A62     		str	r2, [r3, #32]
  84 0008 034B     		ldr	r3, .L10+4
  85 000a 1B68     		ldr	r3, [r3]
  86 000c 0193     		str	r3, [sp, #4]
  87 000e 019B     		ldr	r3, [sp, #4]
  88 0010 02B0     		add	sp, sp, #8
  89              		@ sp needed
  90 0012 7047     		bx	lr
  91              	.L11:
  92              		.align	2
  93              	.L10:
  94 0014 00000E42 		.word	1108213760
  95 0018 00700040 		.word	1073770496
  97              		.section	.text.HAL_PWR_ConfigPVD,"ax",%progbits
  98              		.align	1
  99              		.global	HAL_PWR_ConfigPVD
 100              		.syntax unified
 101              		.thumb
 102              		.thumb_func
 104              	HAL_PWR_ConfigPVD:
 105              		@ args = 0, pretend = 0, frame = 0
 106              		@ frame_needed = 0, uses_anonymous_args = 0
 107              		@ link register save eliminated.
 108 0000 1E4A     		ldr	r2, .L17
 109 0002 1368     		ldr	r3, [r2]
 110 0004 23F0E003 		bic	r3, r3, #224
 111 0008 0168     		ldr	r1, [r0]
 112 000a 0B43     		orrs	r3, r3, r1
 113 000c 1360     		str	r3, [r2]
 114 000e 1C4B     		ldr	r3, .L17+4
 115 0010 5A68     		ldr	r2, [r3, #4]
 116 0012 22F48032 		bic	r2, r2, #65536
 117 0016 5A60     		str	r2, [r3, #4]
 118 0018 1A68     		ldr	r2, [r3]
 119 001a 22F48032 		bic	r2, r2, #65536
 120 001e 1A60     		str	r2, [r3]
 121 0020 9A68     		ldr	r2, [r3, #8]
ARM GAS  /var/folders/lp/x54gwt890xv47sdkqj1k04q40000gn/T//ccDINcsG.s 			page 3


 122 0022 22F48032 		bic	r2, r2, #65536
 123 0026 9A60     		str	r2, [r3, #8]
 124 0028 DA68     		ldr	r2, [r3, #12]
 125 002a 22F48032 		bic	r2, r2, #65536
 126 002e DA60     		str	r2, [r3, #12]
 127 0030 4368     		ldr	r3, [r0, #4]
 128 0032 13F4803F 		tst	r3, #65536
 129 0036 04D0     		beq	.L13
 130 0038 114A     		ldr	r2, .L17+4
 131 003a 1368     		ldr	r3, [r2]
 132 003c 43F48033 		orr	r3, r3, #65536
 133 0040 1360     		str	r3, [r2]
 134              	.L13:
 135 0042 4368     		ldr	r3, [r0, #4]
 136 0044 13F4003F 		tst	r3, #131072
 137 0048 04D0     		beq	.L14
 138 004a 0D4A     		ldr	r2, .L17+4
 139 004c 5368     		ldr	r3, [r2, #4]
 140 004e 43F48033 		orr	r3, r3, #65536
 141 0052 5360     		str	r3, [r2, #4]
 142              	.L14:
 143 0054 4368     		ldr	r3, [r0, #4]
 144 0056 13F0010F 		tst	r3, #1
 145 005a 04D0     		beq	.L15
 146 005c 084A     		ldr	r2, .L17+4
 147 005e 9368     		ldr	r3, [r2, #8]
 148 0060 43F48033 		orr	r3, r3, #65536
 149 0064 9360     		str	r3, [r2, #8]
 150              	.L15:
 151 0066 4368     		ldr	r3, [r0, #4]
 152 0068 13F0020F 		tst	r3, #2
 153 006c 04D0     		beq	.L12
 154 006e 044A     		ldr	r2, .L17+4
 155 0070 D368     		ldr	r3, [r2, #12]
 156 0072 43F48033 		orr	r3, r3, #65536
 157 0076 D360     		str	r3, [r2, #12]
 158              	.L12:
 159 0078 7047     		bx	lr
 160              	.L18:
 161 007a 00BF     		.align	2
 162              	.L17:
 163 007c 00700040 		.word	1073770496
 164 0080 003C0140 		.word	1073822720
 166              		.section	.text.HAL_PWR_EnablePVD,"ax",%progbits
 167              		.align	1
 168              		.global	HAL_PWR_EnablePVD
 169              		.syntax unified
 170              		.thumb
 171              		.thumb_func
 173              	HAL_PWR_EnablePVD:
 174              		@ args = 0, pretend = 0, frame = 0
 175              		@ frame_needed = 0, uses_anonymous_args = 0
 176              		@ link register save eliminated.
 177 0000 014B     		ldr	r3, .L20
 178 0002 0122     		movs	r2, #1
 179 0004 1A61     		str	r2, [r3, #16]
 180 0006 7047     		bx	lr
ARM GAS  /var/folders/lp/x54gwt890xv47sdkqj1k04q40000gn/T//ccDINcsG.s 			page 4


 181              	.L21:
 182              		.align	2
 183              	.L20:
 184 0008 00000E42 		.word	1108213760
 186              		.section	.text.HAL_PWR_DisablePVD,"ax",%progbits
 187              		.align	1
 188              		.global	HAL_PWR_DisablePVD
 189              		.syntax unified
 190              		.thumb
 191              		.thumb_func
 193              	HAL_PWR_DisablePVD:
 194              		@ args = 0, pretend = 0, frame = 0
 195              		@ frame_needed = 0, uses_anonymous_args = 0
 196              		@ link register save eliminated.
 197 0000 014B     		ldr	r3, .L23
 198 0002 0022     		movs	r2, #0
 199 0004 1A61     		str	r2, [r3, #16]
 200 0006 7047     		bx	lr
 201              	.L24:
 202              		.align	2
 203              	.L23:
 204 0008 00000E42 		.word	1108213760
 206              		.section	.text.HAL_PWR_EnableWakeUpPin,"ax",%progbits
 207              		.align	1
 208              		.global	HAL_PWR_EnableWakeUpPin
 209              		.syntax unified
 210              		.thumb
 211              		.thumb_func
 213              	HAL_PWR_EnableWakeUpPin:
 214              		@ args = 0, pretend = 0, frame = 0
 215              		@ frame_needed = 0, uses_anonymous_args = 0
 216              		@ link register save eliminated.
 217 0000 024A     		ldr	r2, .L26
 218 0002 5368     		ldr	r3, [r2, #4]
 219 0004 0343     		orrs	r3, r3, r0
 220 0006 5360     		str	r3, [r2, #4]
 221 0008 7047     		bx	lr
 222              	.L27:
 223 000a 00BF     		.align	2
 224              	.L26:
 225 000c 00700040 		.word	1073770496
 227              		.section	.text.HAL_PWR_DisableWakeUpPin,"ax",%progbits
 228              		.align	1
 229              		.global	HAL_PWR_DisableWakeUpPin
 230              		.syntax unified
 231              		.thumb
 232              		.thumb_func
 234              	HAL_PWR_DisableWakeUpPin:
 235              		@ args = 0, pretend = 0, frame = 0
 236              		@ frame_needed = 0, uses_anonymous_args = 0
 237              		@ link register save eliminated.
 238 0000 024A     		ldr	r2, .L29
 239 0002 5368     		ldr	r3, [r2, #4]
 240 0004 23EA0003 		bic	r3, r3, r0
 241 0008 5360     		str	r3, [r2, #4]
 242 000a 7047     		bx	lr
 243              	.L30:
ARM GAS  /var/folders/lp/x54gwt890xv47sdkqj1k04q40000gn/T//ccDINcsG.s 			page 5


 244              		.align	2
 245              	.L29:
 246 000c 00700040 		.word	1073770496
 248              		.section	.text.HAL_PWR_EnterSLEEPMode,"ax",%progbits
 249              		.align	1
 250              		.global	HAL_PWR_EnterSLEEPMode
 251              		.syntax unified
 252              		.thumb
 253              		.thumb_func
 255              	HAL_PWR_EnterSLEEPMode:
 256              		@ args = 0, pretend = 0, frame = 0
 257              		@ frame_needed = 0, uses_anonymous_args = 0
 258              		@ link register save eliminated.
 259 0000 064A     		ldr	r2, .L35
 260 0002 1369     		ldr	r3, [r2, #16]
 261 0004 23F00403 		bic	r3, r3, #4
 262 0008 1361     		str	r3, [r2, #16]
 263 000a 0129     		cmp	r1, #1
 264 000c 03D0     		beq	.L34
 265              		.syntax unified
 266              	@ 397 "Drivers/STM32F4xx_HAL_Driver/Src/stm32f4xx_hal_pwr.c" 1
 267 000e 40BF     		sev
 268              	@ 0 "" 2
 269              	@ 398 "Drivers/STM32F4xx_HAL_Driver/Src/stm32f4xx_hal_pwr.c" 1
 270 0010 20BF     		wfe
 271              	@ 0 "" 2
 272              	@ 399 "Drivers/STM32F4xx_HAL_Driver/Src/stm32f4xx_hal_pwr.c" 1
 273 0012 20BF     		wfe
 274              	@ 0 "" 2
 275              		.thumb
 276              		.syntax unified
 277 0014 7047     		bx	lr
 278              	.L34:
 279              		.syntax unified
 280              	@ 392 "Drivers/STM32F4xx_HAL_Driver/Src/stm32f4xx_hal_pwr.c" 1
 281 0016 30BF     		wfi
 282              	@ 0 "" 2
 283              		.thumb
 284              		.syntax unified
 285 0018 7047     		bx	lr
 286              	.L36:
 287 001a 00BF     		.align	2
 288              	.L35:
 289 001c 00ED00E0 		.word	-536810240
 291              		.section	.text.HAL_PWR_EnterSTOPMode,"ax",%progbits
 292              		.align	1
 293              		.global	HAL_PWR_EnterSTOPMode
 294              		.syntax unified
 295              		.thumb
 296              		.thumb_func
 298              	HAL_PWR_EnterSTOPMode:
 299              		@ args = 0, pretend = 0, frame = 0
 300              		@ frame_needed = 0, uses_anonymous_args = 0
 301              		@ link register save eliminated.
 302 0000 0B4A     		ldr	r2, .L41
 303 0002 1368     		ldr	r3, [r2]
 304 0004 23F00303 		bic	r3, r3, #3
ARM GAS  /var/folders/lp/x54gwt890xv47sdkqj1k04q40000gn/T//ccDINcsG.s 			page 6


 305 0008 0343     		orrs	r3, r3, r0
 306 000a 1360     		str	r3, [r2]
 307 000c 094A     		ldr	r2, .L41+4
 308 000e 1369     		ldr	r3, [r2, #16]
 309 0010 43F00403 		orr	r3, r3, #4
 310 0014 1361     		str	r3, [r2, #16]
 311 0016 0129     		cmp	r1, #1
 312 0018 08D0     		beq	.L40
 313              		.syntax unified
 314              	@ 443 "Drivers/STM32F4xx_HAL_Driver/Src/stm32f4xx_hal_pwr.c" 1
 315 001a 40BF     		sev
 316              	@ 0 "" 2
 317              	@ 444 "Drivers/STM32F4xx_HAL_Driver/Src/stm32f4xx_hal_pwr.c" 1
 318 001c 20BF     		wfe
 319              	@ 0 "" 2
 320              	@ 445 "Drivers/STM32F4xx_HAL_Driver/Src/stm32f4xx_hal_pwr.c" 1
 321 001e 20BF     		wfe
 322              	@ 0 "" 2
 323              		.thumb
 324              		.syntax unified
 325              	.L39:
 326 0020 044A     		ldr	r2, .L41+4
 327 0022 1369     		ldr	r3, [r2, #16]
 328 0024 23F00403 		bic	r3, r3, #4
 329 0028 1361     		str	r3, [r2, #16]
 330 002a 7047     		bx	lr
 331              	.L40:
 332              		.syntax unified
 333              	@ 438 "Drivers/STM32F4xx_HAL_Driver/Src/stm32f4xx_hal_pwr.c" 1
 334 002c 30BF     		wfi
 335              	@ 0 "" 2
 336              		.thumb
 337              		.syntax unified
 338 002e F7E7     		b	.L39
 339              	.L42:
 340              		.align	2
 341              	.L41:
 342 0030 00700040 		.word	1073770496
 343 0034 00ED00E0 		.word	-536810240
 345              		.section	.text.HAL_PWR_EnterSTANDBYMode,"ax",%progbits
 346              		.align	1
 347              		.global	HAL_PWR_EnterSTANDBYMode
 348              		.syntax unified
 349              		.thumb
 350              		.thumb_func
 352              	HAL_PWR_EnterSTANDBYMode:
 353              		@ args = 0, pretend = 0, frame = 0
 354              		@ frame_needed = 0, uses_anonymous_args = 0
 355              		@ link register save eliminated.
 356 0000 054A     		ldr	r2, .L44
 357 0002 1368     		ldr	r3, [r2]
 358 0004 43F00203 		orr	r3, r3, #2
 359 0008 1360     		str	r3, [r2]
 360 000a 044A     		ldr	r2, .L44+4
 361 000c 1369     		ldr	r3, [r2, #16]
 362 000e 43F00403 		orr	r3, r3, #4
 363 0012 1361     		str	r3, [r2, #16]
ARM GAS  /var/folders/lp/x54gwt890xv47sdkqj1k04q40000gn/T//ccDINcsG.s 			page 7


 364              		.syntax unified
 365              	@ 474 "Drivers/STM32F4xx_HAL_Driver/Src/stm32f4xx_hal_pwr.c" 1
 366 0014 30BF     		wfi
 367              	@ 0 "" 2
 368              		.thumb
 369              		.syntax unified
 370 0016 7047     		bx	lr
 371              	.L45:
 372              		.align	2
 373              	.L44:
 374 0018 00700040 		.word	1073770496
 375 001c 00ED00E0 		.word	-536810240
 377              		.section	.text.HAL_PWR_PVDCallback,"ax",%progbits
 378              		.align	1
 379              		.weak	HAL_PWR_PVDCallback
 380              		.syntax unified
 381              		.thumb
 382              		.thumb_func
 384              	HAL_PWR_PVDCallback:
 385              		@ args = 0, pretend = 0, frame = 0
 386              		@ frame_needed = 0, uses_anonymous_args = 0
 387              		@ link register save eliminated.
 388 0000 7047     		bx	lr
 390              		.section	.text.HAL_PWR_PVD_IRQHandler,"ax",%progbits
 391              		.align	1
 392              		.global	HAL_PWR_PVD_IRQHandler
 393              		.syntax unified
 394              		.thumb
 395              		.thumb_func
 397              	HAL_PWR_PVD_IRQHandler:
 398              		@ args = 0, pretend = 0, frame = 0
 399              		@ frame_needed = 0, uses_anonymous_args = 0
 400 0000 08B5     		push	{r3, lr}
 401 0002 064B     		ldr	r3, .L51
 402 0004 5B69     		ldr	r3, [r3, #20]
 403 0006 13F4803F 		tst	r3, #65536
 404 000a 00D1     		bne	.L50
 405              	.L47:
 406 000c 08BD     		pop	{r3, pc}
 407              	.L50:
 408 000e FFF7FEFF 		bl	HAL_PWR_PVDCallback
 409 0012 024B     		ldr	r3, .L51
 410 0014 4FF48032 		mov	r2, #65536
 411 0018 5A61     		str	r2, [r3, #20]
 412 001a F7E7     		b	.L47
 413              	.L52:
 414              		.align	2
 415              	.L51:
 416 001c 003C0140 		.word	1073822720
 418              		.section	.text.HAL_PWR_EnableSleepOnExit,"ax",%progbits
 419              		.align	1
 420              		.global	HAL_PWR_EnableSleepOnExit
 421              		.syntax unified
 422              		.thumb
 423              		.thumb_func
 425              	HAL_PWR_EnableSleepOnExit:
 426              		@ args = 0, pretend = 0, frame = 0
ARM GAS  /var/folders/lp/x54gwt890xv47sdkqj1k04q40000gn/T//ccDINcsG.s 			page 8


 427              		@ frame_needed = 0, uses_anonymous_args = 0
 428              		@ link register save eliminated.
 429 0000 024A     		ldr	r2, .L54
 430 0002 1369     		ldr	r3, [r2, #16]
 431 0004 43F00203 		orr	r3, r3, #2
 432 0008 1361     		str	r3, [r2, #16]
 433 000a 7047     		bx	lr
 434              	.L55:
 435              		.align	2
 436              	.L54:
 437 000c 00ED00E0 		.word	-536810240
 439              		.section	.text.HAL_PWR_DisableSleepOnExit,"ax",%progbits
 440              		.align	1
 441              		.global	HAL_PWR_DisableSleepOnExit
 442              		.syntax unified
 443              		.thumb
 444              		.thumb_func
 446              	HAL_PWR_DisableSleepOnExit:
 447              		@ args = 0, pretend = 0, frame = 0
 448              		@ frame_needed = 0, uses_anonymous_args = 0
 449              		@ link register save eliminated.
 450 0000 024A     		ldr	r2, .L57
 451 0002 1369     		ldr	r3, [r2, #16]
 452 0004 23F00203 		bic	r3, r3, #2
 453 0008 1361     		str	r3, [r2, #16]
 454 000a 7047     		bx	lr
 455              	.L58:
 456              		.align	2
 457              	.L57:
 458 000c 00ED00E0 		.word	-536810240
 460              		.section	.text.HAL_PWR_EnableSEVOnPend,"ax",%progbits
 461              		.align	1
 462              		.global	HAL_PWR_EnableSEVOnPend
 463              		.syntax unified
 464              		.thumb
 465              		.thumb_func
 467              	HAL_PWR_EnableSEVOnPend:
 468              		@ args = 0, pretend = 0, frame = 0
 469              		@ frame_needed = 0, uses_anonymous_args = 0
 470              		@ link register save eliminated.
 471 0000 024A     		ldr	r2, .L60
 472 0002 1369     		ldr	r3, [r2, #16]
 473 0004 43F01003 		orr	r3, r3, #16
 474 0008 1361     		str	r3, [r2, #16]
 475 000a 7047     		bx	lr
 476              	.L61:
 477              		.align	2
 478              	.L60:
 479 000c 00ED00E0 		.word	-536810240
 481              		.section	.text.HAL_PWR_DisableSEVOnPend,"ax",%progbits
 482              		.align	1
 483              		.global	HAL_PWR_DisableSEVOnPend
 484              		.syntax unified
 485              		.thumb
 486              		.thumb_func
 488              	HAL_PWR_DisableSEVOnPend:
 489              		@ args = 0, pretend = 0, frame = 0
ARM GAS  /var/folders/lp/x54gwt890xv47sdkqj1k04q40000gn/T//ccDINcsG.s 			page 9


 490              		@ frame_needed = 0, uses_anonymous_args = 0
 491              		@ link register save eliminated.
 492 0000 024A     		ldr	r2, .L63
 493 0002 1369     		ldr	r3, [r2, #16]
 494 0004 23F01003 		bic	r3, r3, #16
 495 0008 1361     		str	r3, [r2, #16]
 496 000a 7047     		bx	lr
 497              	.L64:
 498              		.align	2
 499              	.L63:
 500 000c 00ED00E0 		.word	-536810240
 502              		.ident	"GCC: (xPack GNU Arm Embedded GCC arm64) 13.3.1 20240614"
ARM GAS  /var/folders/lp/x54gwt890xv47sdkqj1k04q40000gn/T//ccDINcsG.s 			page 10

