ARM GAS  /var/folders/lp/x54gwt890xv47sdkqj1k04q40000gn/T//ccl3DrKl.s 			page 1


   1              		.cpu cortex-m4
   2              		.arch armv7e-m
   3              		.fpu fpv4-sp-d16
   4              		.eabi_attribute 27, 1
   5              		.eabi_attribute 28, 1
   6              		.eabi_attribute 20, 1
   7              		.eabi_attribute 21, 1
   8              		.eabi_attribute 23, 3
   9              		.eabi_attribute 24, 1
  10              		.eabi_attribute 25, 1
  11              		.eabi_attribute 26, 1
  12              		.eabi_attribute 30, 1
  13              		.eabi_attribute 34, 1
  14              		.eabi_attribute 18, 4
  15              		.file	"stm32f4xx_hal_pwr_ex.c"
  16              		.text
  17              		.section	.text.HAL_PWREx_EnableBkUpReg,"ax",%progbits
  18              		.align	1
  19              		.global	HAL_PWREx_EnableBkUpReg
  20              		.syntax unified
  21              		.thumb
  22              		.thumb_func
  24              	HAL_PWREx_EnableBkUpReg:
  25              		@ args = 0, pretend = 0, frame = 0
  26              		@ frame_needed = 0, uses_anonymous_args = 0
  27 0000 10B5     		push	{r4, lr}
  28 0002 0B4B     		ldr	r3, .L8
  29 0004 0122     		movs	r2, #1
  30 0006 C3F8A420 		str	r2, [r3, #164]
  31 000a FFF7FEFF 		bl	HAL_GetTick
  32 000e 0446     		mov	r4, r0
  33              	.L2:
  34 0010 084B     		ldr	r3, .L8+4
  35 0012 5B68     		ldr	r3, [r3, #4]
  36 0014 13F0080F 		tst	r3, #8
  37 0018 07D1     		bne	.L7
  38 001a FFF7FEFF 		bl	HAL_GetTick
  39 001e 001B     		subs	r0, r0, r4
  40 0020 B0F57A7F 		cmp	r0, #1000
  41 0024 F4D9     		bls	.L2
  42 0026 0320     		movs	r0, #3
  43 0028 00E0     		b	.L3
  44              	.L7:
  45 002a 0020     		movs	r0, #0
  46              	.L3:
  47 002c 10BD     		pop	{r4, pc}
  48              	.L9:
  49 002e 00BF     		.align	2
  50              	.L8:
  51 0030 00000E42 		.word	1108213760
  52 0034 00700040 		.word	1073770496
  54              		.section	.text.HAL_PWREx_DisableBkUpReg,"ax",%progbits
  55              		.align	1
  56              		.global	HAL_PWREx_DisableBkUpReg
  57              		.syntax unified
  58              		.thumb
  59              		.thumb_func
ARM GAS  /var/folders/lp/x54gwt890xv47sdkqj1k04q40000gn/T//ccl3DrKl.s 			page 2


  61              	HAL_PWREx_DisableBkUpReg:
  62              		@ args = 0, pretend = 0, frame = 0
  63              		@ frame_needed = 0, uses_anonymous_args = 0
  64 0000 10B5     		push	{r4, lr}
  65 0002 0B4B     		ldr	r3, .L17
  66 0004 0022     		movs	r2, #0
  67 0006 C3F8A420 		str	r2, [r3, #164]
  68 000a FFF7FEFF 		bl	HAL_GetTick
  69 000e 0446     		mov	r4, r0
  70              	.L11:
  71 0010 084B     		ldr	r3, .L17+4
  72 0012 5B68     		ldr	r3, [r3, #4]
  73 0014 13F0080F 		tst	r3, #8
  74 0018 07D0     		beq	.L16
  75 001a FFF7FEFF 		bl	HAL_GetTick
  76 001e 001B     		subs	r0, r0, r4
  77 0020 B0F57A7F 		cmp	r0, #1000
  78 0024 F4D9     		bls	.L11
  79 0026 0320     		movs	r0, #3
  80 0028 00E0     		b	.L12
  81              	.L16:
  82 002a 0020     		movs	r0, #0
  83              	.L12:
  84 002c 10BD     		pop	{r4, pc}
  85              	.L18:
  86 002e 00BF     		.align	2
  87              	.L17:
  88 0030 00000E42 		.word	1108213760
  89 0034 00700040 		.word	1073770496
  91              		.section	.text.HAL_PWREx_EnableFlashPowerDown,"ax",%progbits
  92              		.align	1
  93              		.global	HAL_PWREx_EnableFlashPowerDown
  94              		.syntax unified
  95              		.thumb
  96              		.thumb_func
  98              	HAL_PWREx_EnableFlashPowerDown:
  99              		@ args = 0, pretend = 0, frame = 0
 100              		@ frame_needed = 0, uses_anonymous_args = 0
 101              		@ link register save eliminated.
 102 0000 014B     		ldr	r3, .L20
 103 0002 0122     		movs	r2, #1
 104 0004 5A62     		str	r2, [r3, #36]
 105 0006 7047     		bx	lr
 106              	.L21:
 107              		.align	2
 108              	.L20:
 109 0008 00000E42 		.word	1108213760
 111              		.section	.text.HAL_PWREx_DisableFlashPowerDown,"ax",%progbits
 112              		.align	1
 113              		.global	HAL_PWREx_DisableFlashPowerDown
 114              		.syntax unified
 115              		.thumb
 116              		.thumb_func
 118              	HAL_PWREx_DisableFlashPowerDown:
 119              		@ args = 0, pretend = 0, frame = 0
 120              		@ frame_needed = 0, uses_anonymous_args = 0
 121              		@ link register save eliminated.
ARM GAS  /var/folders/lp/x54gwt890xv47sdkqj1k04q40000gn/T//ccl3DrKl.s 			page 3


 122 0000 014B     		ldr	r3, .L23
 123 0002 0022     		movs	r2, #0
 124 0004 5A62     		str	r2, [r3, #36]
 125 0006 7047     		bx	lr
 126              	.L24:
 127              		.align	2
 128              	.L23:
 129 0008 00000E42 		.word	1108213760
 131              		.section	.text.HAL_PWREx_GetVoltageRange,"ax",%progbits
 132              		.align	1
 133              		.global	HAL_PWREx_GetVoltageRange
 134              		.syntax unified
 135              		.thumb
 136              		.thumb_func
 138              	HAL_PWREx_GetVoltageRange:
 139              		@ args = 0, pretend = 0, frame = 0
 140              		@ frame_needed = 0, uses_anonymous_args = 0
 141              		@ link register save eliminated.
 142 0000 024B     		ldr	r3, .L26
 143 0002 1868     		ldr	r0, [r3]
 144 0004 00F48040 		and	r0, r0, #16384
 145 0008 7047     		bx	lr
 146              	.L27:
 147 000a 00BF     		.align	2
 148              	.L26:
 149 000c 00700040 		.word	1073770496
 151              		.section	.text.HAL_PWREx_ControlVoltageScaling,"ax",%progbits
 152              		.align	1
 153              		.global	HAL_PWREx_ControlVoltageScaling
 154              		.syntax unified
 155              		.thumb
 156              		.thumb_func
 158              	HAL_PWREx_ControlVoltageScaling:
 159              		@ args = 0, pretend = 0, frame = 8
 160              		@ frame_needed = 0, uses_anonymous_args = 0
 161 0000 10B5     		push	{r4, lr}
 162 0002 82B0     		sub	sp, sp, #8
 163 0004 0021     		movs	r1, #0
 164 0006 0091     		str	r1, [sp]
 165 0008 144B     		ldr	r3, .L35
 166 000a 1A6C     		ldr	r2, [r3, #64]
 167 000c 42F08052 		orr	r2, r2, #268435456
 168 0010 1A64     		str	r2, [r3, #64]
 169 0012 1B6C     		ldr	r3, [r3, #64]
 170 0014 03F08053 		and	r3, r3, #268435456
 171 0018 0093     		str	r3, [sp]
 172 001a 009B     		ldr	r3, [sp]
 173 001c 0191     		str	r1, [sp, #4]
 174 001e 104A     		ldr	r2, .L35+4
 175 0020 1368     		ldr	r3, [r2]
 176 0022 23F48043 		bic	r3, r3, #16384
 177 0026 0343     		orrs	r3, r3, r0
 178 0028 1360     		str	r3, [r2]
 179 002a 1368     		ldr	r3, [r2]
 180 002c 03F48043 		and	r3, r3, #16384
 181 0030 0193     		str	r3, [sp, #4]
 182 0032 019B     		ldr	r3, [sp, #4]
ARM GAS  /var/folders/lp/x54gwt890xv47sdkqj1k04q40000gn/T//ccl3DrKl.s 			page 4


 183 0034 FFF7FEFF 		bl	HAL_GetTick
 184 0038 0446     		mov	r4, r0
 185              	.L29:
 186 003a 094B     		ldr	r3, .L35+4
 187 003c 5B68     		ldr	r3, [r3, #4]
 188 003e 13F4804F 		tst	r3, #16384
 189 0042 07D1     		bne	.L34
 190 0044 FFF7FEFF 		bl	HAL_GetTick
 191 0048 001B     		subs	r0, r0, r4
 192 004a B0F57A7F 		cmp	r0, #1000
 193 004e F4D9     		bls	.L29
 194 0050 0320     		movs	r0, #3
 195 0052 00E0     		b	.L30
 196              	.L34:
 197 0054 0020     		movs	r0, #0
 198              	.L30:
 199 0056 02B0     		add	sp, sp, #8
 200              		@ sp needed
 201 0058 10BD     		pop	{r4, pc}
 202              	.L36:
 203 005a 00BF     		.align	2
 204              	.L35:
 205 005c 00380240 		.word	1073887232
 206 0060 00700040 		.word	1073770496
 208              		.ident	"GCC: (xPack GNU Arm Embedded GCC arm64) 13.3.1 20240614"
ARM GAS  /var/folders/lp/x54gwt890xv47sdkqj1k04q40000gn/T//ccl3DrKl.s 			page 5

