ARM GAS  /var/folders/0z/tsy30v1j4xl4_7kw94k978ww0000gn/T//ccXOXT9Z.s 			page 1


   1              		.cpu cortex-m4
   2              		.arch armv7e-m
   3              		.fpu fpv4-sp-d16
   4              		.eabi_attribute 27, 1
   5              		.eabi_attribute 28, 1
   6              		.eabi_attribute 20, 1
   7              		.eabi_attribute 21, 1
   8              		.eabi_attribute 23, 3
   9              		.eabi_attribute 24, 1
  10              		.eabi_attribute 25, 1
  11              		.eabi_attribute 26, 1
  12              		.eabi_attribute 30, 1
  13              		.eabi_attribute 34, 1
  14              		.eabi_attribute 18, 4
  15              		.file	"lv_anim.c"
  16              		.text
  17              	.Ltext0:
  18              		.cfi_sections	.debug_frame
  19              		.section	.text.anim_mark_list_change,"ax",%progbits
  20              		.align	1
  21              		.syntax unified
  22              		.thumb
  23              		.thumb_func
  25              	anim_mark_list_change:
  26              	.LFB65:
  27              		.file 1 "Drivers/lvgl/src/misc/lv_anim.c"
   1:Drivers/lvgl/src/misc/lv_anim.c **** /**
   2:Drivers/lvgl/src/misc/lv_anim.c ****  * @file lv_anim.c
   3:Drivers/lvgl/src/misc/lv_anim.c ****  *
   4:Drivers/lvgl/src/misc/lv_anim.c ****  */
   5:Drivers/lvgl/src/misc/lv_anim.c **** 
   6:Drivers/lvgl/src/misc/lv_anim.c **** /*********************
   7:Drivers/lvgl/src/misc/lv_anim.c ****  *      INCLUDES
   8:Drivers/lvgl/src/misc/lv_anim.c ****  *********************/
   9:Drivers/lvgl/src/misc/lv_anim.c **** #include "lv_anim.h"
  10:Drivers/lvgl/src/misc/lv_anim.c **** 
  11:Drivers/lvgl/src/misc/lv_anim.c **** #include "../hal/lv_hal_tick.h"
  12:Drivers/lvgl/src/misc/lv_anim.c **** #include "lv_assert.h"
  13:Drivers/lvgl/src/misc/lv_anim.c **** #include "lv_timer.h"
  14:Drivers/lvgl/src/misc/lv_anim.c **** #include "lv_math.h"
  15:Drivers/lvgl/src/misc/lv_anim.c **** #include "lv_mem.h"
  16:Drivers/lvgl/src/misc/lv_anim.c **** #include "lv_gc.h"
  17:Drivers/lvgl/src/misc/lv_anim.c **** 
  18:Drivers/lvgl/src/misc/lv_anim.c **** /*********************
  19:Drivers/lvgl/src/misc/lv_anim.c ****  *      DEFINES
  20:Drivers/lvgl/src/misc/lv_anim.c ****  *********************/
  21:Drivers/lvgl/src/misc/lv_anim.c **** #define LV_ANIM_RESOLUTION 1024
  22:Drivers/lvgl/src/misc/lv_anim.c **** #define LV_ANIM_RES_SHIFT 10
  23:Drivers/lvgl/src/misc/lv_anim.c **** 
  24:Drivers/lvgl/src/misc/lv_anim.c **** /**********************
  25:Drivers/lvgl/src/misc/lv_anim.c ****  *      TYPEDEFS
  26:Drivers/lvgl/src/misc/lv_anim.c ****  **********************/
  27:Drivers/lvgl/src/misc/lv_anim.c **** 
  28:Drivers/lvgl/src/misc/lv_anim.c **** /**********************
  29:Drivers/lvgl/src/misc/lv_anim.c ****  *  STATIC PROTOTYPES
  30:Drivers/lvgl/src/misc/lv_anim.c ****  **********************/
  31:Drivers/lvgl/src/misc/lv_anim.c **** static void anim_timer(lv_timer_t * param);
ARM GAS  /var/folders/0z/tsy30v1j4xl4_7kw94k978ww0000gn/T//ccXOXT9Z.s 			page 2


  32:Drivers/lvgl/src/misc/lv_anim.c **** static void anim_mark_list_change(void);
  33:Drivers/lvgl/src/misc/lv_anim.c **** static void anim_ready_handler(lv_anim_t * a);
  34:Drivers/lvgl/src/misc/lv_anim.c **** 
  35:Drivers/lvgl/src/misc/lv_anim.c **** /**********************
  36:Drivers/lvgl/src/misc/lv_anim.c ****  *  STATIC VARIABLES
  37:Drivers/lvgl/src/misc/lv_anim.c ****  **********************/
  38:Drivers/lvgl/src/misc/lv_anim.c **** static uint32_t last_timer_run;
  39:Drivers/lvgl/src/misc/lv_anim.c **** static bool anim_list_changed;
  40:Drivers/lvgl/src/misc/lv_anim.c **** static bool anim_run_round;
  41:Drivers/lvgl/src/misc/lv_anim.c **** static lv_timer_t * _lv_anim_tmr;
  42:Drivers/lvgl/src/misc/lv_anim.c **** 
  43:Drivers/lvgl/src/misc/lv_anim.c **** /**********************
  44:Drivers/lvgl/src/misc/lv_anim.c ****  *      MACROS
  45:Drivers/lvgl/src/misc/lv_anim.c ****  **********************/
  46:Drivers/lvgl/src/misc/lv_anim.c **** #if LV_LOG_TRACE_ANIM
  47:Drivers/lvgl/src/misc/lv_anim.c ****     #define TRACE_ANIM(...) LV_LOG_TRACE(__VA_ARGS__)
  48:Drivers/lvgl/src/misc/lv_anim.c **** #else
  49:Drivers/lvgl/src/misc/lv_anim.c ****     #define TRACE_ANIM(...)
  50:Drivers/lvgl/src/misc/lv_anim.c **** #endif
  51:Drivers/lvgl/src/misc/lv_anim.c **** 
  52:Drivers/lvgl/src/misc/lv_anim.c **** 
  53:Drivers/lvgl/src/misc/lv_anim.c **** /**********************
  54:Drivers/lvgl/src/misc/lv_anim.c ****  *   GLOBAL FUNCTIONS
  55:Drivers/lvgl/src/misc/lv_anim.c ****  **********************/
  56:Drivers/lvgl/src/misc/lv_anim.c **** 
  57:Drivers/lvgl/src/misc/lv_anim.c **** void _lv_anim_core_init(void)
  58:Drivers/lvgl/src/misc/lv_anim.c **** {
  59:Drivers/lvgl/src/misc/lv_anim.c ****     _lv_ll_init(&LV_GC_ROOT(_lv_anim_ll), sizeof(lv_anim_t));
  60:Drivers/lvgl/src/misc/lv_anim.c ****     _lv_anim_tmr = lv_timer_create(anim_timer, LV_DISP_DEF_REFR_PERIOD, NULL);
  61:Drivers/lvgl/src/misc/lv_anim.c ****     anim_mark_list_change(); /*Turn off the animation timer*/
  62:Drivers/lvgl/src/misc/lv_anim.c ****     anim_list_changed = false;
  63:Drivers/lvgl/src/misc/lv_anim.c **** }
  64:Drivers/lvgl/src/misc/lv_anim.c **** 
  65:Drivers/lvgl/src/misc/lv_anim.c **** void lv_anim_init(lv_anim_t * a)
  66:Drivers/lvgl/src/misc/lv_anim.c **** {
  67:Drivers/lvgl/src/misc/lv_anim.c ****     lv_memset_00(a, sizeof(lv_anim_t));
  68:Drivers/lvgl/src/misc/lv_anim.c ****     a->time = 500;
  69:Drivers/lvgl/src/misc/lv_anim.c ****     a->start_value = 0;
  70:Drivers/lvgl/src/misc/lv_anim.c ****     a->end_value = 100;
  71:Drivers/lvgl/src/misc/lv_anim.c ****     a->repeat_cnt = 1;
  72:Drivers/lvgl/src/misc/lv_anim.c ****     a->path_cb = lv_anim_path_linear;
  73:Drivers/lvgl/src/misc/lv_anim.c ****     a->early_apply = 1;
  74:Drivers/lvgl/src/misc/lv_anim.c **** }
  75:Drivers/lvgl/src/misc/lv_anim.c **** 
  76:Drivers/lvgl/src/misc/lv_anim.c **** lv_anim_t * lv_anim_start(const lv_anim_t * a)
  77:Drivers/lvgl/src/misc/lv_anim.c **** {
  78:Drivers/lvgl/src/misc/lv_anim.c ****     TRACE_ANIM("begin");
  79:Drivers/lvgl/src/misc/lv_anim.c **** 
  80:Drivers/lvgl/src/misc/lv_anim.c ****     /*Do not let two animations for the same 'var' with the same 'exec_cb'*/
  81:Drivers/lvgl/src/misc/lv_anim.c ****     if(a->exec_cb != NULL) lv_anim_del(a->var, a->exec_cb); /*exec_cb == NULL would delete all anim
  82:Drivers/lvgl/src/misc/lv_anim.c **** 
  83:Drivers/lvgl/src/misc/lv_anim.c ****     /*If the list is empty the anim timer was suspended and it's last run measure is invalid*/
  84:Drivers/lvgl/src/misc/lv_anim.c ****     if(_lv_ll_is_empty(&LV_GC_ROOT(_lv_anim_ll))) {
  85:Drivers/lvgl/src/misc/lv_anim.c ****         last_timer_run = lv_tick_get();
  86:Drivers/lvgl/src/misc/lv_anim.c ****     }
  87:Drivers/lvgl/src/misc/lv_anim.c **** 
  88:Drivers/lvgl/src/misc/lv_anim.c ****     /*Add the new animation to the animation linked list*/
ARM GAS  /var/folders/0z/tsy30v1j4xl4_7kw94k978ww0000gn/T//ccXOXT9Z.s 			page 3


  89:Drivers/lvgl/src/misc/lv_anim.c ****     lv_anim_t * new_anim = _lv_ll_ins_head(&LV_GC_ROOT(_lv_anim_ll));
  90:Drivers/lvgl/src/misc/lv_anim.c ****     LV_ASSERT_MALLOC(new_anim);
  91:Drivers/lvgl/src/misc/lv_anim.c ****     if(new_anim == NULL) return NULL;
  92:Drivers/lvgl/src/misc/lv_anim.c **** 
  93:Drivers/lvgl/src/misc/lv_anim.c ****     /*Initialize the animation descriptor*/
  94:Drivers/lvgl/src/misc/lv_anim.c ****     lv_memcpy(new_anim, a, sizeof(lv_anim_t));
  95:Drivers/lvgl/src/misc/lv_anim.c ****     if(a->var == a) new_anim->var = new_anim;
  96:Drivers/lvgl/src/misc/lv_anim.c ****     new_anim->run_round = anim_run_round;
  97:Drivers/lvgl/src/misc/lv_anim.c **** 
  98:Drivers/lvgl/src/misc/lv_anim.c ****     /*Set the start value*/
  99:Drivers/lvgl/src/misc/lv_anim.c ****     if(new_anim->early_apply) {
 100:Drivers/lvgl/src/misc/lv_anim.c ****         if(new_anim->get_value_cb) {
 101:Drivers/lvgl/src/misc/lv_anim.c ****             int32_t v_ofs = new_anim->get_value_cb(new_anim);
 102:Drivers/lvgl/src/misc/lv_anim.c ****             new_anim->start_value += v_ofs;
 103:Drivers/lvgl/src/misc/lv_anim.c ****             new_anim->end_value += v_ofs;
 104:Drivers/lvgl/src/misc/lv_anim.c ****         }
 105:Drivers/lvgl/src/misc/lv_anim.c **** 
 106:Drivers/lvgl/src/misc/lv_anim.c ****         if(new_anim->exec_cb && new_anim->var) new_anim->exec_cb(new_anim->var, new_anim->start_val
 107:Drivers/lvgl/src/misc/lv_anim.c ****     }
 108:Drivers/lvgl/src/misc/lv_anim.c **** 
 109:Drivers/lvgl/src/misc/lv_anim.c ****     /*Creating an animation changed the linked list.
 110:Drivers/lvgl/src/misc/lv_anim.c ****      *It's important if it happens in a ready callback. (see `anim_timer`)*/
 111:Drivers/lvgl/src/misc/lv_anim.c ****     anim_mark_list_change();
 112:Drivers/lvgl/src/misc/lv_anim.c **** 
 113:Drivers/lvgl/src/misc/lv_anim.c ****     TRACE_ANIM("finished");
 114:Drivers/lvgl/src/misc/lv_anim.c ****     return new_anim;
 115:Drivers/lvgl/src/misc/lv_anim.c **** }
 116:Drivers/lvgl/src/misc/lv_anim.c **** 
 117:Drivers/lvgl/src/misc/lv_anim.c **** uint32_t lv_anim_get_playtime(lv_anim_t * a)
 118:Drivers/lvgl/src/misc/lv_anim.c **** {
 119:Drivers/lvgl/src/misc/lv_anim.c ****     uint32_t playtime = LV_ANIM_PLAYTIME_INFINITE;
 120:Drivers/lvgl/src/misc/lv_anim.c **** 
 121:Drivers/lvgl/src/misc/lv_anim.c ****     if(a->repeat_cnt == LV_ANIM_REPEAT_INFINITE)
 122:Drivers/lvgl/src/misc/lv_anim.c ****         return playtime;
 123:Drivers/lvgl/src/misc/lv_anim.c **** 
 124:Drivers/lvgl/src/misc/lv_anim.c ****     playtime = a->time - a->act_time;
 125:Drivers/lvgl/src/misc/lv_anim.c ****     if(a->playback_now == 0)
 126:Drivers/lvgl/src/misc/lv_anim.c ****         playtime += a->playback_delay + a->playback_time;
 127:Drivers/lvgl/src/misc/lv_anim.c **** 
 128:Drivers/lvgl/src/misc/lv_anim.c ****     if(a->repeat_cnt <= 1)
 129:Drivers/lvgl/src/misc/lv_anim.c ****         return playtime;
 130:Drivers/lvgl/src/misc/lv_anim.c **** 
 131:Drivers/lvgl/src/misc/lv_anim.c ****     playtime += (a->repeat_delay + a->time +
 132:Drivers/lvgl/src/misc/lv_anim.c ****                  a->playback_delay + a->playback_time) *
 133:Drivers/lvgl/src/misc/lv_anim.c ****                 (a->repeat_cnt - 1);
 134:Drivers/lvgl/src/misc/lv_anim.c **** 
 135:Drivers/lvgl/src/misc/lv_anim.c ****     return playtime;
 136:Drivers/lvgl/src/misc/lv_anim.c **** }
 137:Drivers/lvgl/src/misc/lv_anim.c **** 
 138:Drivers/lvgl/src/misc/lv_anim.c **** bool lv_anim_del(void * var, lv_anim_exec_xcb_t exec_cb)
 139:Drivers/lvgl/src/misc/lv_anim.c **** {
 140:Drivers/lvgl/src/misc/lv_anim.c ****     lv_anim_t * a;
 141:Drivers/lvgl/src/misc/lv_anim.c ****     lv_anim_t * a_next;
 142:Drivers/lvgl/src/misc/lv_anim.c ****     bool del = false;
 143:Drivers/lvgl/src/misc/lv_anim.c ****     a        = _lv_ll_get_head(&LV_GC_ROOT(_lv_anim_ll));
 144:Drivers/lvgl/src/misc/lv_anim.c ****     while(a != NULL) {
 145:Drivers/lvgl/src/misc/lv_anim.c ****         /*'a' might be deleted, so get the next object while 'a' is valid*/
ARM GAS  /var/folders/0z/tsy30v1j4xl4_7kw94k978ww0000gn/T//ccXOXT9Z.s 			page 4


 146:Drivers/lvgl/src/misc/lv_anim.c ****         a_next = _lv_ll_get_next(&LV_GC_ROOT(_lv_anim_ll), a);
 147:Drivers/lvgl/src/misc/lv_anim.c **** 
 148:Drivers/lvgl/src/misc/lv_anim.c ****         if((a->var == var || var == NULL) && (a->exec_cb == exec_cb || exec_cb == NULL)) {
 149:Drivers/lvgl/src/misc/lv_anim.c ****             _lv_ll_remove(&LV_GC_ROOT(_lv_anim_ll), a);
 150:Drivers/lvgl/src/misc/lv_anim.c ****             if(a->deleted_cb != NULL) a->deleted_cb(a);
 151:Drivers/lvgl/src/misc/lv_anim.c ****             lv_mem_free(a);
 152:Drivers/lvgl/src/misc/lv_anim.c ****             anim_mark_list_change(); /*Read by `anim_timer`. It need to know if a delete occurred i
 153:Drivers/lvgl/src/misc/lv_anim.c ****                                        the linked list*/
 154:Drivers/lvgl/src/misc/lv_anim.c ****             del = true;
 155:Drivers/lvgl/src/misc/lv_anim.c ****         }
 156:Drivers/lvgl/src/misc/lv_anim.c **** 
 157:Drivers/lvgl/src/misc/lv_anim.c ****         a = a_next;
 158:Drivers/lvgl/src/misc/lv_anim.c ****     }
 159:Drivers/lvgl/src/misc/lv_anim.c **** 
 160:Drivers/lvgl/src/misc/lv_anim.c ****     return del;
 161:Drivers/lvgl/src/misc/lv_anim.c **** }
 162:Drivers/lvgl/src/misc/lv_anim.c **** 
 163:Drivers/lvgl/src/misc/lv_anim.c **** void lv_anim_del_all(void)
 164:Drivers/lvgl/src/misc/lv_anim.c **** {
 165:Drivers/lvgl/src/misc/lv_anim.c ****     _lv_ll_clear(&LV_GC_ROOT(_lv_anim_ll));
 166:Drivers/lvgl/src/misc/lv_anim.c ****     anim_mark_list_change();
 167:Drivers/lvgl/src/misc/lv_anim.c **** }
 168:Drivers/lvgl/src/misc/lv_anim.c **** 
 169:Drivers/lvgl/src/misc/lv_anim.c **** lv_anim_t * lv_anim_get(void * var, lv_anim_exec_xcb_t exec_cb)
 170:Drivers/lvgl/src/misc/lv_anim.c **** {
 171:Drivers/lvgl/src/misc/lv_anim.c ****     lv_anim_t * a;
 172:Drivers/lvgl/src/misc/lv_anim.c ****     _LV_LL_READ(&LV_GC_ROOT(_lv_anim_ll), a) {
 173:Drivers/lvgl/src/misc/lv_anim.c ****         if(a->var == var && (a->exec_cb == exec_cb || exec_cb == NULL)) {
 174:Drivers/lvgl/src/misc/lv_anim.c ****             return a;
 175:Drivers/lvgl/src/misc/lv_anim.c ****         }
 176:Drivers/lvgl/src/misc/lv_anim.c ****     }
 177:Drivers/lvgl/src/misc/lv_anim.c **** 
 178:Drivers/lvgl/src/misc/lv_anim.c ****     return NULL;
 179:Drivers/lvgl/src/misc/lv_anim.c **** }
 180:Drivers/lvgl/src/misc/lv_anim.c **** 
 181:Drivers/lvgl/src/misc/lv_anim.c **** struct _lv_timer_t * lv_anim_get_timer(void)
 182:Drivers/lvgl/src/misc/lv_anim.c **** {
 183:Drivers/lvgl/src/misc/lv_anim.c ****     return _lv_anim_tmr;
 184:Drivers/lvgl/src/misc/lv_anim.c **** }
 185:Drivers/lvgl/src/misc/lv_anim.c **** 
 186:Drivers/lvgl/src/misc/lv_anim.c **** uint16_t lv_anim_count_running(void)
 187:Drivers/lvgl/src/misc/lv_anim.c **** {
 188:Drivers/lvgl/src/misc/lv_anim.c ****     uint16_t cnt = 0;
 189:Drivers/lvgl/src/misc/lv_anim.c ****     lv_anim_t * a;
 190:Drivers/lvgl/src/misc/lv_anim.c ****     _LV_LL_READ(&LV_GC_ROOT(_lv_anim_ll), a) cnt++;
 191:Drivers/lvgl/src/misc/lv_anim.c **** 
 192:Drivers/lvgl/src/misc/lv_anim.c ****     return cnt;
 193:Drivers/lvgl/src/misc/lv_anim.c **** }
 194:Drivers/lvgl/src/misc/lv_anim.c **** 
 195:Drivers/lvgl/src/misc/lv_anim.c **** uint32_t lv_anim_speed_to_time(uint32_t speed, int32_t start, int32_t end)
 196:Drivers/lvgl/src/misc/lv_anim.c **** {
 197:Drivers/lvgl/src/misc/lv_anim.c ****     uint32_t d    = LV_ABS(start - end);
 198:Drivers/lvgl/src/misc/lv_anim.c ****     uint32_t time = (d * 1000) / speed;
 199:Drivers/lvgl/src/misc/lv_anim.c **** 
 200:Drivers/lvgl/src/misc/lv_anim.c ****     if(time == 0) {
 201:Drivers/lvgl/src/misc/lv_anim.c ****         time++;
 202:Drivers/lvgl/src/misc/lv_anim.c ****     }
ARM GAS  /var/folders/0z/tsy30v1j4xl4_7kw94k978ww0000gn/T//ccXOXT9Z.s 			page 5


 203:Drivers/lvgl/src/misc/lv_anim.c **** 
 204:Drivers/lvgl/src/misc/lv_anim.c ****     return time;
 205:Drivers/lvgl/src/misc/lv_anim.c **** }
 206:Drivers/lvgl/src/misc/lv_anim.c **** 
 207:Drivers/lvgl/src/misc/lv_anim.c **** void lv_anim_refr_now(void)
 208:Drivers/lvgl/src/misc/lv_anim.c **** {
 209:Drivers/lvgl/src/misc/lv_anim.c ****     anim_timer(NULL);
 210:Drivers/lvgl/src/misc/lv_anim.c **** }
 211:Drivers/lvgl/src/misc/lv_anim.c **** 
 212:Drivers/lvgl/src/misc/lv_anim.c **** int32_t lv_anim_path_linear(const lv_anim_t * a)
 213:Drivers/lvgl/src/misc/lv_anim.c **** {
 214:Drivers/lvgl/src/misc/lv_anim.c ****     /*Calculate the current step*/
 215:Drivers/lvgl/src/misc/lv_anim.c ****     int32_t step = lv_map(a->act_time, 0, a->time, 0, LV_ANIM_RESOLUTION);
 216:Drivers/lvgl/src/misc/lv_anim.c **** 
 217:Drivers/lvgl/src/misc/lv_anim.c ****     /*Get the new value which will be proportional to `step`
 218:Drivers/lvgl/src/misc/lv_anim.c ****      *and the `start` and `end` values*/
 219:Drivers/lvgl/src/misc/lv_anim.c ****     int32_t new_value;
 220:Drivers/lvgl/src/misc/lv_anim.c ****     new_value = step * (a->end_value - a->start_value);
 221:Drivers/lvgl/src/misc/lv_anim.c ****     new_value = new_value >> LV_ANIM_RES_SHIFT;
 222:Drivers/lvgl/src/misc/lv_anim.c ****     new_value += a->start_value;
 223:Drivers/lvgl/src/misc/lv_anim.c **** 
 224:Drivers/lvgl/src/misc/lv_anim.c ****     return new_value;
 225:Drivers/lvgl/src/misc/lv_anim.c **** }
 226:Drivers/lvgl/src/misc/lv_anim.c **** 
 227:Drivers/lvgl/src/misc/lv_anim.c **** int32_t lv_anim_path_ease_in(const lv_anim_t * a)
 228:Drivers/lvgl/src/misc/lv_anim.c **** {
 229:Drivers/lvgl/src/misc/lv_anim.c ****     /*Calculate the current step*/
 230:Drivers/lvgl/src/misc/lv_anim.c ****     uint32_t t = lv_map(a->act_time, 0, a->time, 0, LV_BEZIER_VAL_MAX);
 231:Drivers/lvgl/src/misc/lv_anim.c ****     int32_t step = lv_bezier3(t, 0, 50, 100, LV_BEZIER_VAL_MAX);
 232:Drivers/lvgl/src/misc/lv_anim.c **** 
 233:Drivers/lvgl/src/misc/lv_anim.c ****     int32_t new_value;
 234:Drivers/lvgl/src/misc/lv_anim.c ****     new_value = step * (a->end_value - a->start_value);
 235:Drivers/lvgl/src/misc/lv_anim.c ****     new_value = new_value >> LV_BEZIER_VAL_SHIFT;
 236:Drivers/lvgl/src/misc/lv_anim.c ****     new_value += a->start_value;
 237:Drivers/lvgl/src/misc/lv_anim.c **** 
 238:Drivers/lvgl/src/misc/lv_anim.c ****     return new_value;
 239:Drivers/lvgl/src/misc/lv_anim.c **** }
 240:Drivers/lvgl/src/misc/lv_anim.c **** 
 241:Drivers/lvgl/src/misc/lv_anim.c **** int32_t lv_anim_path_ease_out(const lv_anim_t * a)
 242:Drivers/lvgl/src/misc/lv_anim.c **** {
 243:Drivers/lvgl/src/misc/lv_anim.c ****     /*Calculate the current step*/
 244:Drivers/lvgl/src/misc/lv_anim.c ****     uint32_t t = lv_map(a->act_time, 0, a->time, 0, LV_BEZIER_VAL_MAX);
 245:Drivers/lvgl/src/misc/lv_anim.c ****     int32_t step = lv_bezier3(t, 0, 900, 950, LV_BEZIER_VAL_MAX);
 246:Drivers/lvgl/src/misc/lv_anim.c **** 
 247:Drivers/lvgl/src/misc/lv_anim.c ****     int32_t new_value;
 248:Drivers/lvgl/src/misc/lv_anim.c ****     new_value = step * (a->end_value - a->start_value);
 249:Drivers/lvgl/src/misc/lv_anim.c ****     new_value = new_value >> LV_BEZIER_VAL_SHIFT;
 250:Drivers/lvgl/src/misc/lv_anim.c ****     new_value += a->start_value;
 251:Drivers/lvgl/src/misc/lv_anim.c **** 
 252:Drivers/lvgl/src/misc/lv_anim.c ****     return new_value;
 253:Drivers/lvgl/src/misc/lv_anim.c **** }
 254:Drivers/lvgl/src/misc/lv_anim.c **** 
 255:Drivers/lvgl/src/misc/lv_anim.c **** int32_t lv_anim_path_ease_in_out(const lv_anim_t * a)
 256:Drivers/lvgl/src/misc/lv_anim.c **** {
 257:Drivers/lvgl/src/misc/lv_anim.c ****     /*Calculate the current step*/
 258:Drivers/lvgl/src/misc/lv_anim.c ****     uint32_t t = lv_map(a->act_time, 0, a->time, 0, LV_BEZIER_VAL_MAX);
 259:Drivers/lvgl/src/misc/lv_anim.c ****     int32_t step = lv_bezier3(t, 0, 50, 952, LV_BEZIER_VAL_MAX);
ARM GAS  /var/folders/0z/tsy30v1j4xl4_7kw94k978ww0000gn/T//ccXOXT9Z.s 			page 6


 260:Drivers/lvgl/src/misc/lv_anim.c **** 
 261:Drivers/lvgl/src/misc/lv_anim.c ****     int32_t new_value;
 262:Drivers/lvgl/src/misc/lv_anim.c ****     new_value = step * (a->end_value - a->start_value);
 263:Drivers/lvgl/src/misc/lv_anim.c ****     new_value = new_value >> LV_BEZIER_VAL_SHIFT;
 264:Drivers/lvgl/src/misc/lv_anim.c ****     new_value += a->start_value;
 265:Drivers/lvgl/src/misc/lv_anim.c **** 
 266:Drivers/lvgl/src/misc/lv_anim.c ****     return new_value;
 267:Drivers/lvgl/src/misc/lv_anim.c **** }
 268:Drivers/lvgl/src/misc/lv_anim.c **** 
 269:Drivers/lvgl/src/misc/lv_anim.c **** int32_t lv_anim_path_overshoot(const lv_anim_t * a)
 270:Drivers/lvgl/src/misc/lv_anim.c **** {
 271:Drivers/lvgl/src/misc/lv_anim.c ****     /*Calculate the current step*/
 272:Drivers/lvgl/src/misc/lv_anim.c ****     uint32_t t = lv_map(a->act_time, 0, a->time, 0, LV_BEZIER_VAL_MAX);
 273:Drivers/lvgl/src/misc/lv_anim.c ****     int32_t step = lv_bezier3(t, 0, 1000, 1300, LV_BEZIER_VAL_MAX);
 274:Drivers/lvgl/src/misc/lv_anim.c **** 
 275:Drivers/lvgl/src/misc/lv_anim.c ****     int32_t new_value;
 276:Drivers/lvgl/src/misc/lv_anim.c ****     new_value = step * (a->end_value - a->start_value);
 277:Drivers/lvgl/src/misc/lv_anim.c ****     new_value = new_value >> LV_BEZIER_VAL_SHIFT;
 278:Drivers/lvgl/src/misc/lv_anim.c ****     new_value += a->start_value;
 279:Drivers/lvgl/src/misc/lv_anim.c **** 
 280:Drivers/lvgl/src/misc/lv_anim.c ****     return new_value;
 281:Drivers/lvgl/src/misc/lv_anim.c **** }
 282:Drivers/lvgl/src/misc/lv_anim.c **** 
 283:Drivers/lvgl/src/misc/lv_anim.c **** int32_t lv_anim_path_bounce(const lv_anim_t * a)
 284:Drivers/lvgl/src/misc/lv_anim.c **** {
 285:Drivers/lvgl/src/misc/lv_anim.c ****     /*Calculate the current step*/
 286:Drivers/lvgl/src/misc/lv_anim.c ****     int32_t t = lv_map(a->act_time, 0, a->time, 0, LV_BEZIER_VAL_MAX);
 287:Drivers/lvgl/src/misc/lv_anim.c ****     int32_t diff = (a->end_value - a->start_value);
 288:Drivers/lvgl/src/misc/lv_anim.c **** 
 289:Drivers/lvgl/src/misc/lv_anim.c ****     /*3 bounces has 5 parts: 3 down and 2 up. One part is t / 5 long*/
 290:Drivers/lvgl/src/misc/lv_anim.c **** 
 291:Drivers/lvgl/src/misc/lv_anim.c ****     if(t < 408) {
 292:Drivers/lvgl/src/misc/lv_anim.c ****         /*Go down*/
 293:Drivers/lvgl/src/misc/lv_anim.c ****         t = (t * 2500) >> LV_BEZIER_VAL_SHIFT; /*[0..1024] range*/
 294:Drivers/lvgl/src/misc/lv_anim.c ****     }
 295:Drivers/lvgl/src/misc/lv_anim.c ****     else if(t >= 408 && t < 614) {
 296:Drivers/lvgl/src/misc/lv_anim.c ****         /*First bounce back*/
 297:Drivers/lvgl/src/misc/lv_anim.c ****         t -= 408;
 298:Drivers/lvgl/src/misc/lv_anim.c ****         t    = t * 5; /*to [0..1024] range*/
 299:Drivers/lvgl/src/misc/lv_anim.c ****         t    = LV_BEZIER_VAL_MAX - t;
 300:Drivers/lvgl/src/misc/lv_anim.c ****         diff = diff / 20;
 301:Drivers/lvgl/src/misc/lv_anim.c ****     }
 302:Drivers/lvgl/src/misc/lv_anim.c ****     else if(t >= 614 && t < 819) {
 303:Drivers/lvgl/src/misc/lv_anim.c ****         /*Fall back*/
 304:Drivers/lvgl/src/misc/lv_anim.c ****         t -= 614;
 305:Drivers/lvgl/src/misc/lv_anim.c ****         t    = t * 5; /*to [0..1024] range*/
 306:Drivers/lvgl/src/misc/lv_anim.c ****         diff = diff / 20;
 307:Drivers/lvgl/src/misc/lv_anim.c ****     }
 308:Drivers/lvgl/src/misc/lv_anim.c ****     else if(t >= 819 && t < 921) {
 309:Drivers/lvgl/src/misc/lv_anim.c ****         /*Second bounce back*/
 310:Drivers/lvgl/src/misc/lv_anim.c ****         t -= 819;
 311:Drivers/lvgl/src/misc/lv_anim.c ****         t    = t * 10; /*to [0..1024] range*/
 312:Drivers/lvgl/src/misc/lv_anim.c ****         t    = LV_BEZIER_VAL_MAX - t;
 313:Drivers/lvgl/src/misc/lv_anim.c ****         diff = diff / 40;
 314:Drivers/lvgl/src/misc/lv_anim.c ****     }
 315:Drivers/lvgl/src/misc/lv_anim.c ****     else if(t >= 921 && t <= LV_BEZIER_VAL_MAX) {
 316:Drivers/lvgl/src/misc/lv_anim.c ****         /*Fall back*/
ARM GAS  /var/folders/0z/tsy30v1j4xl4_7kw94k978ww0000gn/T//ccXOXT9Z.s 			page 7


 317:Drivers/lvgl/src/misc/lv_anim.c ****         t -= 921;
 318:Drivers/lvgl/src/misc/lv_anim.c ****         t    = t * 10; /*to [0..1024] range*/
 319:Drivers/lvgl/src/misc/lv_anim.c ****         diff = diff / 40;
 320:Drivers/lvgl/src/misc/lv_anim.c ****     }
 321:Drivers/lvgl/src/misc/lv_anim.c **** 
 322:Drivers/lvgl/src/misc/lv_anim.c ****     if(t > LV_BEZIER_VAL_MAX) t = LV_BEZIER_VAL_MAX;
 323:Drivers/lvgl/src/misc/lv_anim.c ****     if(t < 0) t = 0;
 324:Drivers/lvgl/src/misc/lv_anim.c ****     int32_t step = lv_bezier3(t, LV_BEZIER_VAL_MAX, 800, 500, 0);
 325:Drivers/lvgl/src/misc/lv_anim.c **** 
 326:Drivers/lvgl/src/misc/lv_anim.c ****     int32_t new_value;
 327:Drivers/lvgl/src/misc/lv_anim.c ****     new_value = step * diff;
 328:Drivers/lvgl/src/misc/lv_anim.c ****     new_value = new_value >> LV_BEZIER_VAL_SHIFT;
 329:Drivers/lvgl/src/misc/lv_anim.c ****     new_value = a->end_value - new_value;
 330:Drivers/lvgl/src/misc/lv_anim.c **** 
 331:Drivers/lvgl/src/misc/lv_anim.c ****     return new_value;
 332:Drivers/lvgl/src/misc/lv_anim.c **** }
 333:Drivers/lvgl/src/misc/lv_anim.c **** 
 334:Drivers/lvgl/src/misc/lv_anim.c **** int32_t lv_anim_path_step(const lv_anim_t * a)
 335:Drivers/lvgl/src/misc/lv_anim.c **** {
 336:Drivers/lvgl/src/misc/lv_anim.c ****     if(a->act_time >= a->time)
 337:Drivers/lvgl/src/misc/lv_anim.c ****         return a->end_value;
 338:Drivers/lvgl/src/misc/lv_anim.c ****     else
 339:Drivers/lvgl/src/misc/lv_anim.c ****         return a->start_value;
 340:Drivers/lvgl/src/misc/lv_anim.c **** }
 341:Drivers/lvgl/src/misc/lv_anim.c **** 
 342:Drivers/lvgl/src/misc/lv_anim.c **** /**********************
 343:Drivers/lvgl/src/misc/lv_anim.c ****  *   STATIC FUNCTIONS
 344:Drivers/lvgl/src/misc/lv_anim.c ****  **********************/
 345:Drivers/lvgl/src/misc/lv_anim.c **** 
 346:Drivers/lvgl/src/misc/lv_anim.c **** /**
 347:Drivers/lvgl/src/misc/lv_anim.c ****  * Periodically handle the animations.
 348:Drivers/lvgl/src/misc/lv_anim.c ****  * @param param unused
 349:Drivers/lvgl/src/misc/lv_anim.c ****  */
 350:Drivers/lvgl/src/misc/lv_anim.c **** static void anim_timer(lv_timer_t * param)
 351:Drivers/lvgl/src/misc/lv_anim.c **** {
 352:Drivers/lvgl/src/misc/lv_anim.c ****     LV_UNUSED(param);
 353:Drivers/lvgl/src/misc/lv_anim.c **** 
 354:Drivers/lvgl/src/misc/lv_anim.c ****     uint32_t elaps = lv_tick_elaps(last_timer_run);
 355:Drivers/lvgl/src/misc/lv_anim.c **** 
 356:Drivers/lvgl/src/misc/lv_anim.c ****     /*Flip the run round*/
 357:Drivers/lvgl/src/misc/lv_anim.c ****     anim_run_round = anim_run_round ? false : true;
 358:Drivers/lvgl/src/misc/lv_anim.c **** 
 359:Drivers/lvgl/src/misc/lv_anim.c ****     lv_anim_t * a = _lv_ll_get_head(&LV_GC_ROOT(_lv_anim_ll));
 360:Drivers/lvgl/src/misc/lv_anim.c **** 
 361:Drivers/lvgl/src/misc/lv_anim.c ****     while(a != NULL) {
 362:Drivers/lvgl/src/misc/lv_anim.c ****         /*It can be set by `lv_anim_del()` typically in `end_cb`. If set then an animation delete
 363:Drivers/lvgl/src/misc/lv_anim.c ****          * happened in `anim_ready_handler` which could make this linked list reading corrupt
 364:Drivers/lvgl/src/misc/lv_anim.c ****          * because the list is changed meanwhile
 365:Drivers/lvgl/src/misc/lv_anim.c ****          */
 366:Drivers/lvgl/src/misc/lv_anim.c ****         anim_list_changed = false;
 367:Drivers/lvgl/src/misc/lv_anim.c **** 
 368:Drivers/lvgl/src/misc/lv_anim.c ****         if(a->run_round != anim_run_round) {
 369:Drivers/lvgl/src/misc/lv_anim.c ****             a->run_round = anim_run_round; /*The list readying might be reset so need to know which
 370:Drivers/lvgl/src/misc/lv_anim.c **** 
 371:Drivers/lvgl/src/misc/lv_anim.c ****             /*The animation will run now for the first time. Call `start_cb`*/
 372:Drivers/lvgl/src/misc/lv_anim.c ****             int32_t new_act_time = a->act_time + elaps;
 373:Drivers/lvgl/src/misc/lv_anim.c ****             if(!a->start_cb_called && a->act_time <= 0 && new_act_time >= 0) {
ARM GAS  /var/folders/0z/tsy30v1j4xl4_7kw94k978ww0000gn/T//ccXOXT9Z.s 			page 8


 374:Drivers/lvgl/src/misc/lv_anim.c ****                 if(a->early_apply == 0 && a->get_value_cb) {
 375:Drivers/lvgl/src/misc/lv_anim.c ****                     int32_t v_ofs = a->get_value_cb(a);
 376:Drivers/lvgl/src/misc/lv_anim.c ****                     a->start_value += v_ofs;
 377:Drivers/lvgl/src/misc/lv_anim.c ****                     a->end_value += v_ofs;
 378:Drivers/lvgl/src/misc/lv_anim.c ****                 }
 379:Drivers/lvgl/src/misc/lv_anim.c ****                 if(a->start_cb) a->start_cb(a);
 380:Drivers/lvgl/src/misc/lv_anim.c ****                 a->start_cb_called = 1;
 381:Drivers/lvgl/src/misc/lv_anim.c ****             }
 382:Drivers/lvgl/src/misc/lv_anim.c ****             a->act_time += elaps;
 383:Drivers/lvgl/src/misc/lv_anim.c ****             if(a->act_time >= 0) {
 384:Drivers/lvgl/src/misc/lv_anim.c ****                 if(a->act_time > a->time) a->act_time = a->time;
 385:Drivers/lvgl/src/misc/lv_anim.c **** 
 386:Drivers/lvgl/src/misc/lv_anim.c ****                 int32_t new_value;
 387:Drivers/lvgl/src/misc/lv_anim.c ****                 new_value = a->path_cb(a);
 388:Drivers/lvgl/src/misc/lv_anim.c **** 
 389:Drivers/lvgl/src/misc/lv_anim.c ****                 if(new_value != a->current_value) {
 390:Drivers/lvgl/src/misc/lv_anim.c ****                     a->current_value = new_value;
 391:Drivers/lvgl/src/misc/lv_anim.c ****                     /*Apply the calculated value*/
 392:Drivers/lvgl/src/misc/lv_anim.c ****                     if(a->exec_cb) a->exec_cb(a->var, new_value);
 393:Drivers/lvgl/src/misc/lv_anim.c ****                 }
 394:Drivers/lvgl/src/misc/lv_anim.c **** 
 395:Drivers/lvgl/src/misc/lv_anim.c ****                 /*If the time is elapsed the animation is ready*/
 396:Drivers/lvgl/src/misc/lv_anim.c ****                 if(a->act_time >= a->time) {
 397:Drivers/lvgl/src/misc/lv_anim.c ****                     anim_ready_handler(a);
 398:Drivers/lvgl/src/misc/lv_anim.c ****                 }
 399:Drivers/lvgl/src/misc/lv_anim.c ****             }
 400:Drivers/lvgl/src/misc/lv_anim.c ****         }
 401:Drivers/lvgl/src/misc/lv_anim.c **** 
 402:Drivers/lvgl/src/misc/lv_anim.c ****         /*If the linked list changed due to anim. delete then it's not safe to continue
 403:Drivers/lvgl/src/misc/lv_anim.c ****          *the reading of the list from here -> start from the head*/
 404:Drivers/lvgl/src/misc/lv_anim.c ****         if(anim_list_changed)
 405:Drivers/lvgl/src/misc/lv_anim.c ****             a = _lv_ll_get_head(&LV_GC_ROOT(_lv_anim_ll));
 406:Drivers/lvgl/src/misc/lv_anim.c ****         else
 407:Drivers/lvgl/src/misc/lv_anim.c ****             a = _lv_ll_get_next(&LV_GC_ROOT(_lv_anim_ll), a);
 408:Drivers/lvgl/src/misc/lv_anim.c ****     }
 409:Drivers/lvgl/src/misc/lv_anim.c **** 
 410:Drivers/lvgl/src/misc/lv_anim.c ****     last_timer_run = lv_tick_get();
 411:Drivers/lvgl/src/misc/lv_anim.c **** }
 412:Drivers/lvgl/src/misc/lv_anim.c **** 
 413:Drivers/lvgl/src/misc/lv_anim.c **** /**
 414:Drivers/lvgl/src/misc/lv_anim.c ****  * Called when an animation is ready to do the necessary thinks
 415:Drivers/lvgl/src/misc/lv_anim.c ****  * e.g. repeat, play back, delete etc.
 416:Drivers/lvgl/src/misc/lv_anim.c ****  * @param a pointer to an animation descriptor
 417:Drivers/lvgl/src/misc/lv_anim.c ****  */
 418:Drivers/lvgl/src/misc/lv_anim.c **** static void anim_ready_handler(lv_anim_t * a)
 419:Drivers/lvgl/src/misc/lv_anim.c **** {
 420:Drivers/lvgl/src/misc/lv_anim.c ****     /*In the end of a forward anim decrement repeat cnt.*/
 421:Drivers/lvgl/src/misc/lv_anim.c ****     if(a->playback_now == 0 && a->repeat_cnt > 0 && a->repeat_cnt != LV_ANIM_REPEAT_INFINITE) {
 422:Drivers/lvgl/src/misc/lv_anim.c ****         a->repeat_cnt--;
 423:Drivers/lvgl/src/misc/lv_anim.c ****     }
 424:Drivers/lvgl/src/misc/lv_anim.c **** 
 425:Drivers/lvgl/src/misc/lv_anim.c ****     /*Delete the animation if
 426:Drivers/lvgl/src/misc/lv_anim.c ****      * - no repeat left and no play back (simple one shot animation)
 427:Drivers/lvgl/src/misc/lv_anim.c ****      * - no repeat, play back is enabled and play back is ready*/
 428:Drivers/lvgl/src/misc/lv_anim.c ****     if(a->repeat_cnt == 0 && (a->playback_time == 0 || a->playback_now == 1)) {
 429:Drivers/lvgl/src/misc/lv_anim.c **** 
 430:Drivers/lvgl/src/misc/lv_anim.c ****         /*Delete the animation from the list.
ARM GAS  /var/folders/0z/tsy30v1j4xl4_7kw94k978ww0000gn/T//ccXOXT9Z.s 			page 9


 431:Drivers/lvgl/src/misc/lv_anim.c ****          * This way the `ready_cb` will see the animations like it's animation is ready deleted*/
 432:Drivers/lvgl/src/misc/lv_anim.c ****         _lv_ll_remove(&LV_GC_ROOT(_lv_anim_ll), a);
 433:Drivers/lvgl/src/misc/lv_anim.c ****         /*Flag that the list has changed*/
 434:Drivers/lvgl/src/misc/lv_anim.c ****         anim_mark_list_change();
 435:Drivers/lvgl/src/misc/lv_anim.c **** 
 436:Drivers/lvgl/src/misc/lv_anim.c ****         /*Call the callback function at the end*/
 437:Drivers/lvgl/src/misc/lv_anim.c ****         if(a->ready_cb != NULL) a->ready_cb(a);
 438:Drivers/lvgl/src/misc/lv_anim.c ****         if(a->deleted_cb != NULL) a->deleted_cb(a);
 439:Drivers/lvgl/src/misc/lv_anim.c ****         lv_mem_free(a);
 440:Drivers/lvgl/src/misc/lv_anim.c ****     }
 441:Drivers/lvgl/src/misc/lv_anim.c ****     /*If the animation is not deleted then restart it*/
 442:Drivers/lvgl/src/misc/lv_anim.c ****     else {
 443:Drivers/lvgl/src/misc/lv_anim.c ****         a->act_time = -(int32_t)(a->repeat_delay); /*Restart the animation*/
 444:Drivers/lvgl/src/misc/lv_anim.c ****         /*Swap the start and end values in play back mode*/
 445:Drivers/lvgl/src/misc/lv_anim.c ****         if(a->playback_time != 0) {
 446:Drivers/lvgl/src/misc/lv_anim.c ****             /*If now turning back use the 'playback_pause*/
 447:Drivers/lvgl/src/misc/lv_anim.c ****             if(a->playback_now == 0) a->act_time = -(int32_t)(a->playback_delay);
 448:Drivers/lvgl/src/misc/lv_anim.c **** 
 449:Drivers/lvgl/src/misc/lv_anim.c ****             /*Toggle the play back state*/
 450:Drivers/lvgl/src/misc/lv_anim.c ****             a->playback_now = a->playback_now == 0 ? 1 : 0;
 451:Drivers/lvgl/src/misc/lv_anim.c ****             /*Swap the start and end values*/
 452:Drivers/lvgl/src/misc/lv_anim.c ****             int32_t tmp    = a->start_value;
 453:Drivers/lvgl/src/misc/lv_anim.c ****             a->start_value = a->end_value;
 454:Drivers/lvgl/src/misc/lv_anim.c ****             a->end_value   = tmp;
 455:Drivers/lvgl/src/misc/lv_anim.c ****             /*Swap the time and playback_time*/
 456:Drivers/lvgl/src/misc/lv_anim.c ****             tmp = a->time;
 457:Drivers/lvgl/src/misc/lv_anim.c ****             a->time = a->playback_time;
 458:Drivers/lvgl/src/misc/lv_anim.c ****             a->playback_time = tmp;
 459:Drivers/lvgl/src/misc/lv_anim.c ****         }
 460:Drivers/lvgl/src/misc/lv_anim.c ****     }
 461:Drivers/lvgl/src/misc/lv_anim.c **** }
 462:Drivers/lvgl/src/misc/lv_anim.c **** 
 463:Drivers/lvgl/src/misc/lv_anim.c **** static void anim_mark_list_change(void)
 464:Drivers/lvgl/src/misc/lv_anim.c **** {
  28              		.loc 1 464 1 view -0
  29              		.cfi_startproc
  30              		@ args = 0, pretend = 0, frame = 0
  31              		@ frame_needed = 0, uses_anonymous_args = 0
  32 0000 08B5     		push	{r3, lr}
  33              		.cfi_def_cfa_offset 8
  34              		.cfi_offset 3, -8
  35              		.cfi_offset 14, -4
 465:Drivers/lvgl/src/misc/lv_anim.c ****     anim_list_changed = true;
  36              		.loc 1 465 5 view .LVU1
  37              		.loc 1 465 23 is_stmt 0 view .LVU2
  38 0002 084B     		ldr	r3, .L6
  39 0004 0122     		movs	r2, #1
  40 0006 1A70     		strb	r2, [r3]
 466:Drivers/lvgl/src/misc/lv_anim.c ****     if(_lv_ll_get_head(&LV_GC_ROOT(_lv_anim_ll)) == NULL)
  41              		.loc 1 466 5 is_stmt 1 view .LVU3
  42              		.loc 1 466 8 is_stmt 0 view .LVU4
  43 0008 0748     		ldr	r0, .L6+4
  44 000a FFF7FEFF 		bl	_lv_ll_get_head
  45              	.LVL0:
  46              		.loc 1 466 7 view .LVU5
  47 000e 20B1     		cbz	r0, .L5
 467:Drivers/lvgl/src/misc/lv_anim.c ****         lv_timer_pause(_lv_anim_tmr);
ARM GAS  /var/folders/0z/tsy30v1j4xl4_7kw94k978ww0000gn/T//ccXOXT9Z.s 			page 10


 468:Drivers/lvgl/src/misc/lv_anim.c ****     else
 469:Drivers/lvgl/src/misc/lv_anim.c ****         lv_timer_resume(_lv_anim_tmr);
  48              		.loc 1 469 9 is_stmt 1 view .LVU6
  49 0010 064B     		ldr	r3, .L6+8
  50 0012 1868     		ldr	r0, [r3]
  51 0014 FFF7FEFF 		bl	lv_timer_resume
  52              	.LVL1:
  53              	.L1:
 470:Drivers/lvgl/src/misc/lv_anim.c **** }
  54              		.loc 1 470 1 is_stmt 0 view .LVU7
  55 0018 08BD     		pop	{r3, pc}
  56              	.L5:
 467:Drivers/lvgl/src/misc/lv_anim.c ****         lv_timer_pause(_lv_anim_tmr);
  57              		.loc 1 467 9 is_stmt 1 view .LVU8
  58 001a 044B     		ldr	r3, .L6+8
  59 001c 1868     		ldr	r0, [r3]
  60 001e FFF7FEFF 		bl	lv_timer_pause
  61              	.LVL2:
  62 0022 F9E7     		b	.L1
  63              	.L7:
  64              		.align	2
  65              	.L6:
  66 0024 00000000 		.word	.LANCHOR0
  67 0028 00000000 		.word	_lv_anim_ll
  68 002c 00000000 		.word	.LANCHOR1
  69              		.cfi_endproc
  70              	.LFE65:
  72              		.section	.text.anim_ready_handler,"ax",%progbits
  73              		.align	1
  74              		.syntax unified
  75              		.thumb
  76              		.thumb_func
  78              	anim_ready_handler:
  79              	.LVL3:
  80              	.LFB64:
 419:Drivers/lvgl/src/misc/lv_anim.c ****     /*In the end of a forward anim decrement repeat cnt.*/
  81              		.loc 1 419 1 view -0
  82              		.cfi_startproc
  83              		@ args = 0, pretend = 0, frame = 0
  84              		@ frame_needed = 0, uses_anonymous_args = 0
 419:Drivers/lvgl/src/misc/lv_anim.c ****     /*In the end of a forward anim decrement repeat cnt.*/
  85              		.loc 1 419 1 is_stmt 0 view .LVU10
  86 0000 10B5     		push	{r4, lr}
  87              		.cfi_def_cfa_offset 8
  88              		.cfi_offset 4, -8
  89              		.cfi_offset 14, -4
  90 0002 0446     		mov	r4, r0
 421:Drivers/lvgl/src/misc/lv_anim.c ****         a->repeat_cnt--;
  91              		.loc 1 421 5 is_stmt 1 view .LVU11
 421:Drivers/lvgl/src/misc/lv_anim.c ****         a->repeat_cnt--;
  92              		.loc 1 421 24 is_stmt 0 view .LVU12
  93 0004 90F84230 		ldrb	r3, [r0, #66]	@ zero_extendqisi2
 421:Drivers/lvgl/src/misc/lv_anim.c ****         a->repeat_cnt--;
  94              		.loc 1 421 7 view .LVU13
  95 0008 13F00203 		ands	r3, r3, #2
  96 000c 09D1     		bne	.L9
 421:Drivers/lvgl/src/misc/lv_anim.c ****         a->repeat_cnt--;
ARM GAS  /var/folders/0z/tsy30v1j4xl4_7kw94k978ww0000gn/T//ccXOXT9Z.s 			page 11


  97              		.loc 1 421 33 discriminator 1 view .LVU14
  98 000e B0F84020 		ldrh	r2, [r0, #64]
 421:Drivers/lvgl/src/misc/lv_anim.c ****         a->repeat_cnt--;
  99              		.loc 1 421 29 discriminator 1 view .LVU15
 100 0012 32B1     		cbz	r2, .L9
 421:Drivers/lvgl/src/misc/lv_anim.c ****         a->repeat_cnt--;
 101              		.loc 1 421 50 discriminator 2 view .LVU16
 102 0014 4FF6FF71 		movw	r1, #65535
 103 0018 8A42     		cmp	r2, r1
 104 001a 02D0     		beq	.L9
 422:Drivers/lvgl/src/misc/lv_anim.c ****     }
 105              		.loc 1 422 9 is_stmt 1 view .LVU17
 422:Drivers/lvgl/src/misc/lv_anim.c ****     }
 106              		.loc 1 422 22 is_stmt 0 view .LVU18
 107 001c 013A     		subs	r2, r2, #1
 108 001e A0F84020 		strh	r2, [r0, #64]	@ movhi
 109              	.L9:
 428:Drivers/lvgl/src/misc/lv_anim.c **** 
 110              		.loc 1 428 5 is_stmt 1 view .LVU19
 428:Drivers/lvgl/src/misc/lv_anim.c **** 
 111              		.loc 1 428 9 is_stmt 0 view .LVU20
 112 0022 B4F84020 		ldrh	r2, [r4, #64]
 428:Drivers/lvgl/src/misc/lv_anim.c **** 
 113              		.loc 1 428 7 view .LVU21
 114 0026 A2B9     		cbnz	r2, .L10
 428:Drivers/lvgl/src/misc/lv_anim.c **** 
 115              		.loc 1 428 32 discriminator 1 view .LVU22
 116 0028 A26B     		ldr	r2, [r4, #56]
 428:Drivers/lvgl/src/misc/lv_anim.c **** 
 117              		.loc 1 428 27 discriminator 1 view .LVU23
 118 002a 02B1     		cbz	r2, .L11
 428:Drivers/lvgl/src/misc/lv_anim.c **** 
 119              		.loc 1 428 53 discriminator 2 view .LVU24
 120 002c 8BB1     		cbz	r3, .L10
 121              	.L11:
 432:Drivers/lvgl/src/misc/lv_anim.c ****         /*Flag that the list has changed*/
 122              		.loc 1 432 9 is_stmt 1 view .LVU25
 123 002e 2146     		mov	r1, r4
 124 0030 1548     		ldr	r0, .L17
 125              	.LVL4:
 432:Drivers/lvgl/src/misc/lv_anim.c ****         /*Flag that the list has changed*/
 126              		.loc 1 432 9 is_stmt 0 view .LVU26
 127 0032 FFF7FEFF 		bl	_lv_ll_remove
 128              	.LVL5:
 434:Drivers/lvgl/src/misc/lv_anim.c **** 
 129              		.loc 1 434 9 is_stmt 1 view .LVU27
 130 0036 FFF7FEFF 		bl	anim_mark_list_change
 131              	.LVL6:
 437:Drivers/lvgl/src/misc/lv_anim.c ****         if(a->deleted_cb != NULL) a->deleted_cb(a);
 132              		.loc 1 437 9 view .LVU28
 437:Drivers/lvgl/src/misc/lv_anim.c ****         if(a->deleted_cb != NULL) a->deleted_cb(a);
 133              		.loc 1 437 13 is_stmt 0 view .LVU29
 134 003a E368     		ldr	r3, [r4, #12]
 437:Drivers/lvgl/src/misc/lv_anim.c ****         if(a->deleted_cb != NULL) a->deleted_cb(a);
 135              		.loc 1 437 11 view .LVU30
 136 003c 0BB1     		cbz	r3, .L12
 437:Drivers/lvgl/src/misc/lv_anim.c ****         if(a->deleted_cb != NULL) a->deleted_cb(a);
ARM GAS  /var/folders/0z/tsy30v1j4xl4_7kw94k978ww0000gn/T//ccXOXT9Z.s 			page 12


 137              		.loc 1 437 33 is_stmt 1 discriminator 1 view .LVU31
 138 003e 2046     		mov	r0, r4
 139 0040 9847     		blx	r3
 140              	.LVL7:
 141              	.L12:
 438:Drivers/lvgl/src/misc/lv_anim.c ****         lv_mem_free(a);
 142              		.loc 1 438 9 view .LVU32
 438:Drivers/lvgl/src/misc/lv_anim.c ****         lv_mem_free(a);
 143              		.loc 1 438 13 is_stmt 0 view .LVU33
 144 0042 2369     		ldr	r3, [r4, #16]
 438:Drivers/lvgl/src/misc/lv_anim.c ****         lv_mem_free(a);
 145              		.loc 1 438 11 view .LVU34
 146 0044 0BB1     		cbz	r3, .L13
 438:Drivers/lvgl/src/misc/lv_anim.c ****         lv_mem_free(a);
 147              		.loc 1 438 35 is_stmt 1 discriminator 1 view .LVU35
 148 0046 2046     		mov	r0, r4
 149 0048 9847     		blx	r3
 150              	.LVL8:
 151              	.L13:
 439:Drivers/lvgl/src/misc/lv_anim.c ****     }
 152              		.loc 1 439 9 view .LVU36
 153 004a 2046     		mov	r0, r4
 154 004c FFF7FEFF 		bl	lv_mem_free
 155              	.LVL9:
 156 0050 18E0     		b	.L8
 157              	.LVL10:
 158              	.L10:
 443:Drivers/lvgl/src/misc/lv_anim.c ****         /*Swap the start and end values in play back mode*/
 159              		.loc 1 443 9 view .LVU37
 443:Drivers/lvgl/src/misc/lv_anim.c ****         /*Swap the start and end values in play back mode*/
 160              		.loc 1 443 35 is_stmt 0 view .LVU38
 161 0052 E26B     		ldr	r2, [r4, #60]
 443:Drivers/lvgl/src/misc/lv_anim.c ****         /*Swap the start and end values in play back mode*/
 162              		.loc 1 443 23 view .LVU39
 163 0054 5242     		rsbs	r2, r2, #0
 443:Drivers/lvgl/src/misc/lv_anim.c ****         /*Swap the start and end values in play back mode*/
 164              		.loc 1 443 21 view .LVU40
 165 0056 2263     		str	r2, [r4, #48]
 445:Drivers/lvgl/src/misc/lv_anim.c ****             /*If now turning back use the 'playback_pause*/
 166              		.loc 1 445 9 is_stmt 1 view .LVU41
 445:Drivers/lvgl/src/misc/lv_anim.c ****             /*If now turning back use the 'playback_pause*/
 167              		.loc 1 445 13 is_stmt 0 view .LVU42
 168 0058 A26B     		ldr	r2, [r4, #56]
 445:Drivers/lvgl/src/misc/lv_anim.c ****             /*If now turning back use the 'playback_pause*/
 169              		.loc 1 445 11 view .LVU43
 170 005a 9AB1     		cbz	r2, .L8
 171              	.LBB2:
 447:Drivers/lvgl/src/misc/lv_anim.c **** 
 172              		.loc 1 447 13 is_stmt 1 view .LVU44
 447:Drivers/lvgl/src/misc/lv_anim.c **** 
 173              		.loc 1 447 15 is_stmt 0 view .LVU45
 174 005c 13B9     		cbnz	r3, .L15
 447:Drivers/lvgl/src/misc/lv_anim.c **** 
 175              		.loc 1 447 38 is_stmt 1 discriminator 1 view .LVU46
 447:Drivers/lvgl/src/misc/lv_anim.c **** 
 176              		.loc 1 447 64 is_stmt 0 discriminator 1 view .LVU47
 177 005e 616B     		ldr	r1, [r4, #52]
ARM GAS  /var/folders/0z/tsy30v1j4xl4_7kw94k978ww0000gn/T//ccXOXT9Z.s 			page 13


 447:Drivers/lvgl/src/misc/lv_anim.c **** 
 178              		.loc 1 447 52 discriminator 1 view .LVU48
 179 0060 4942     		rsbs	r1, r1, #0
 447:Drivers/lvgl/src/misc/lv_anim.c **** 
 180              		.loc 1 447 50 discriminator 1 view .LVU49
 181 0062 2163     		str	r1, [r4, #48]
 182              	.L15:
 450:Drivers/lvgl/src/misc/lv_anim.c ****             /*Swap the start and end values*/
 183              		.loc 1 450 13 is_stmt 1 view .LVU50
 450:Drivers/lvgl/src/misc/lv_anim.c ****             /*Swap the start and end values*/
 184              		.loc 1 450 56 is_stmt 0 view .LVU51
 185 0064 B3FA83F3 		clz	r3, r3
 186 0068 5B09     		lsrs	r3, r3, #5
 450:Drivers/lvgl/src/misc/lv_anim.c ****             /*Swap the start and end values*/
 187              		.loc 1 450 29 view .LVU52
 188 006a 94F84210 		ldrb	r1, [r4, #66]	@ zero_extendqisi2
 189 006e 63F34101 		bfi	r1, r3, #1, #1
 190 0072 84F84210 		strb	r1, [r4, #66]
 452:Drivers/lvgl/src/misc/lv_anim.c ****             a->start_value = a->end_value;
 191              		.loc 1 452 13 is_stmt 1 view .LVU53
 452:Drivers/lvgl/src/misc/lv_anim.c ****             a->start_value = a->end_value;
 192              		.loc 1 452 21 is_stmt 0 view .LVU54
 193 0076 236A     		ldr	r3, [r4, #32]
 194              	.LVL11:
 453:Drivers/lvgl/src/misc/lv_anim.c ****             a->end_value   = tmp;
 195              		.loc 1 453 13 is_stmt 1 view .LVU55
 453:Drivers/lvgl/src/misc/lv_anim.c ****             a->end_value   = tmp;
 196              		.loc 1 453 31 is_stmt 0 view .LVU56
 197 0078 A16A     		ldr	r1, [r4, #40]
 453:Drivers/lvgl/src/misc/lv_anim.c ****             a->end_value   = tmp;
 198              		.loc 1 453 28 view .LVU57
 199 007a 2162     		str	r1, [r4, #32]
 454:Drivers/lvgl/src/misc/lv_anim.c ****             /*Swap the time and playback_time*/
 200              		.loc 1 454 13 is_stmt 1 view .LVU58
 454:Drivers/lvgl/src/misc/lv_anim.c ****             /*Swap the time and playback_time*/
 201              		.loc 1 454 28 is_stmt 0 view .LVU59
 202 007c A362     		str	r3, [r4, #40]
 456:Drivers/lvgl/src/misc/lv_anim.c ****             a->time = a->playback_time;
 203              		.loc 1 456 13 is_stmt 1 view .LVU60
 456:Drivers/lvgl/src/misc/lv_anim.c ****             a->time = a->playback_time;
 204              		.loc 1 456 17 is_stmt 0 view .LVU61
 205 007e E36A     		ldr	r3, [r4, #44]
 206              	.LVL12:
 457:Drivers/lvgl/src/misc/lv_anim.c ****             a->playback_time = tmp;
 207              		.loc 1 457 13 is_stmt 1 view .LVU62
 457:Drivers/lvgl/src/misc/lv_anim.c ****             a->playback_time = tmp;
 208              		.loc 1 457 21 is_stmt 0 view .LVU63
 209 0080 E262     		str	r2, [r4, #44]
 458:Drivers/lvgl/src/misc/lv_anim.c ****         }
 210              		.loc 1 458 13 is_stmt 1 view .LVU64
 458:Drivers/lvgl/src/misc/lv_anim.c ****         }
 211              		.loc 1 458 30 is_stmt 0 view .LVU65
 212 0082 A363     		str	r3, [r4, #56]
 213              	.LVL13:
 214              	.L8:
 458:Drivers/lvgl/src/misc/lv_anim.c ****         }
 215              		.loc 1 458 30 view .LVU66
ARM GAS  /var/folders/0z/tsy30v1j4xl4_7kw94k978ww0000gn/T//ccXOXT9Z.s 			page 14


 216              	.LBE2:
 461:Drivers/lvgl/src/misc/lv_anim.c **** 
 217              		.loc 1 461 1 view .LVU67
 218 0084 10BD     		pop	{r4, pc}
 219              	.LVL14:
 220              	.L18:
 461:Drivers/lvgl/src/misc/lv_anim.c **** 
 221              		.loc 1 461 1 view .LVU68
 222 0086 00BF     		.align	2
 223              	.L17:
 224 0088 00000000 		.word	_lv_anim_ll
 225              		.cfi_endproc
 226              	.LFE64:
 228              		.section	.text.anim_timer,"ax",%progbits
 229              		.align	1
 230              		.syntax unified
 231              		.thumb
 232              		.thumb_func
 234              	anim_timer:
 235              	.LVL15:
 236              	.LFB63:
 351:Drivers/lvgl/src/misc/lv_anim.c ****     LV_UNUSED(param);
 237              		.loc 1 351 1 is_stmt 1 view -0
 238              		.cfi_startproc
 239              		@ args = 0, pretend = 0, frame = 0
 240              		@ frame_needed = 0, uses_anonymous_args = 0
 351:Drivers/lvgl/src/misc/lv_anim.c ****     LV_UNUSED(param);
 241              		.loc 1 351 1 is_stmt 0 view .LVU70
 242 0000 38B5     		push	{r3, r4, r5, lr}
 243              		.cfi_def_cfa_offset 16
 244              		.cfi_offset 3, -16
 245              		.cfi_offset 4, -12
 246              		.cfi_offset 5, -8
 247              		.cfi_offset 14, -4
 352:Drivers/lvgl/src/misc/lv_anim.c **** 
 248              		.loc 1 352 5 is_stmt 1 view .LVU71
 354:Drivers/lvgl/src/misc/lv_anim.c **** 
 249              		.loc 1 354 5 view .LVU72
 354:Drivers/lvgl/src/misc/lv_anim.c **** 
 250              		.loc 1 354 22 is_stmt 0 view .LVU73
 251 0002 3B4B     		ldr	r3, .L34
 252 0004 1868     		ldr	r0, [r3]
 253              	.LVL16:
 354:Drivers/lvgl/src/misc/lv_anim.c **** 
 254              		.loc 1 354 22 view .LVU74
 255 0006 FFF7FEFF 		bl	lv_tick_elaps
 256              	.LVL17:
 257 000a 0546     		mov	r5, r0
 258              	.LVL18:
 357:Drivers/lvgl/src/misc/lv_anim.c **** 
 259              		.loc 1 357 5 is_stmt 1 view .LVU75
 357:Drivers/lvgl/src/misc/lv_anim.c **** 
 260              		.loc 1 357 45 is_stmt 0 view .LVU76
 261 000c 394A     		ldr	r2, .L34+4
 262 000e 1378     		ldrb	r3, [r2]	@ zero_extendqisi2
 263 0010 83F00103 		eor	r3, r3, #1
 357:Drivers/lvgl/src/misc/lv_anim.c **** 
ARM GAS  /var/folders/0z/tsy30v1j4xl4_7kw94k978ww0000gn/T//ccXOXT9Z.s 			page 15


 264              		.loc 1 357 20 view .LVU77
 265 0014 1370     		strb	r3, [r2]
 359:Drivers/lvgl/src/misc/lv_anim.c **** 
 266              		.loc 1 359 5 is_stmt 1 view .LVU78
 359:Drivers/lvgl/src/misc/lv_anim.c **** 
 267              		.loc 1 359 21 is_stmt 0 view .LVU79
 268 0016 3848     		ldr	r0, .L34+8
 269              	.LVL19:
 359:Drivers/lvgl/src/misc/lv_anim.c **** 
 270              		.loc 1 359 21 view .LVU80
 271 0018 FFF7FEFF 		bl	_lv_ll_get_head
 272              	.LVL20:
 273 001c 0446     		mov	r4, r0
 274              	.LVL21:
 361:Drivers/lvgl/src/misc/lv_anim.c ****         /*It can be set by `lv_anim_del()` typically in `end_cb`. If set then an animation delete
 275              		.loc 1 361 5 is_stmt 1 view .LVU81
 361:Drivers/lvgl/src/misc/lv_anim.c ****         /*It can be set by `lv_anim_del()` typically in `end_cb`. If set then an animation delete
 276              		.loc 1 361 10 is_stmt 0 view .LVU82
 277 001e 25E0     		b	.L20
 278              	.LVL22:
 279              	.L33:
 280              	.LBB3:
 373:Drivers/lvgl/src/misc/lv_anim.c ****                 if(a->early_apply == 0 && a->get_value_cb) {
 281              		.loc 1 373 56 discriminator 2 view .LVU83
 282 0020 0029     		cmp	r1, #0
 283 0022 3FDB     		blt	.L22
 374:Drivers/lvgl/src/misc/lv_anim.c ****                     int32_t v_ofs = a->get_value_cb(a);
 284              		.loc 1 374 17 is_stmt 1 view .LVU84
 374:Drivers/lvgl/src/misc/lv_anim.c ****                     int32_t v_ofs = a->get_value_cb(a);
 285              		.loc 1 374 19 is_stmt 0 view .LVU85
 286 0024 12F0010F 		tst	r2, #1
 287 0028 09D1     		bne	.L23
 374:Drivers/lvgl/src/misc/lv_anim.c ****                     int32_t v_ofs = a->get_value_cb(a);
 288              		.loc 1 374 44 discriminator 1 view .LVU86
 289 002a 6369     		ldr	r3, [r4, #20]
 374:Drivers/lvgl/src/misc/lv_anim.c ****                     int32_t v_ofs = a->get_value_cb(a);
 290              		.loc 1 374 40 discriminator 1 view .LVU87
 291 002c 3BB1     		cbz	r3, .L23
 292              	.LBB4:
 375:Drivers/lvgl/src/misc/lv_anim.c ****                     a->start_value += v_ofs;
 293              		.loc 1 375 21 is_stmt 1 view .LVU88
 375:Drivers/lvgl/src/misc/lv_anim.c ****                     a->start_value += v_ofs;
 294              		.loc 1 375 37 is_stmt 0 view .LVU89
 295 002e 2046     		mov	r0, r4
 375:Drivers/lvgl/src/misc/lv_anim.c ****                     a->start_value += v_ofs;
 296              		.loc 1 375 37 view .LVU90
 297 0030 9847     		blx	r3
 298              	.LVL23:
 376:Drivers/lvgl/src/misc/lv_anim.c ****                     a->end_value += v_ofs;
 299              		.loc 1 376 21 is_stmt 1 view .LVU91
 376:Drivers/lvgl/src/misc/lv_anim.c ****                     a->end_value += v_ofs;
 300              		.loc 1 376 36 is_stmt 0 view .LVU92
 301 0032 236A     		ldr	r3, [r4, #32]
 302 0034 0344     		add	r3, r3, r0
 303 0036 2362     		str	r3, [r4, #32]
 377:Drivers/lvgl/src/misc/lv_anim.c ****                 }
 304              		.loc 1 377 21 is_stmt 1 view .LVU93
ARM GAS  /var/folders/0z/tsy30v1j4xl4_7kw94k978ww0000gn/T//ccXOXT9Z.s 			page 16


 377:Drivers/lvgl/src/misc/lv_anim.c ****                 }
 305              		.loc 1 377 34 is_stmt 0 view .LVU94
 306 0038 A36A     		ldr	r3, [r4, #40]
 307 003a 0344     		add	r3, r3, r0
 308 003c A362     		str	r3, [r4, #40]
 309              	.LVL24:
 310              	.L23:
 377:Drivers/lvgl/src/misc/lv_anim.c ****                 }
 311              		.loc 1 377 34 view .LVU95
 312              	.LBE4:
 379:Drivers/lvgl/src/misc/lv_anim.c ****                 a->start_cb_called = 1;
 313              		.loc 1 379 17 is_stmt 1 view .LVU96
 379:Drivers/lvgl/src/misc/lv_anim.c ****                 a->start_cb_called = 1;
 314              		.loc 1 379 21 is_stmt 0 view .LVU97
 315 003e A368     		ldr	r3, [r4, #8]
 379:Drivers/lvgl/src/misc/lv_anim.c ****                 a->start_cb_called = 1;
 316              		.loc 1 379 19 view .LVU98
 317 0040 0BB1     		cbz	r3, .L24
 379:Drivers/lvgl/src/misc/lv_anim.c ****                 a->start_cb_called = 1;
 318              		.loc 1 379 33 is_stmt 1 discriminator 1 view .LVU99
 319 0042 2046     		mov	r0, r4
 320 0044 9847     		blx	r3
 321              	.LVL25:
 322              	.L24:
 380:Drivers/lvgl/src/misc/lv_anim.c ****             }
 323              		.loc 1 380 17 view .LVU100
 380:Drivers/lvgl/src/misc/lv_anim.c ****             }
 324              		.loc 1 380 36 is_stmt 0 view .LVU101
 325 0046 94F84230 		ldrb	r3, [r4, #66]	@ zero_extendqisi2
 326 004a 43F00803 		orr	r3, r3, #8
 327 004e 84F84230 		strb	r3, [r4, #66]
 328 0052 27E0     		b	.L22
 329              	.LVL26:
 330              	.L26:
 331              	.LBB5:
 396:Drivers/lvgl/src/misc/lv_anim.c ****                     anim_ready_handler(a);
 332              		.loc 1 396 17 is_stmt 1 view .LVU102
 396:Drivers/lvgl/src/misc/lv_anim.c ****                     anim_ready_handler(a);
 333              		.loc 1 396 21 is_stmt 0 view .LVU103
 334 0054 226B     		ldr	r2, [r4, #48]
 396:Drivers/lvgl/src/misc/lv_anim.c ****                     anim_ready_handler(a);
 335              		.loc 1 396 36 view .LVU104
 336 0056 E36A     		ldr	r3, [r4, #44]
 396:Drivers/lvgl/src/misc/lv_anim.c ****                     anim_ready_handler(a);
 337              		.loc 1 396 19 view .LVU105
 338 0058 9A42     		cmp	r2, r3
 339 005a 3ADA     		bge	.L31
 340              	.L21:
 396:Drivers/lvgl/src/misc/lv_anim.c ****                     anim_ready_handler(a);
 341              		.loc 1 396 19 view .LVU106
 342              	.LBE5:
 343              	.LBE3:
 404:Drivers/lvgl/src/misc/lv_anim.c ****             a = _lv_ll_get_head(&LV_GC_ROOT(_lv_anim_ll));
 344              		.loc 1 404 9 is_stmt 1 view .LVU107
 404:Drivers/lvgl/src/misc/lv_anim.c ****             a = _lv_ll_get_head(&LV_GC_ROOT(_lv_anim_ll));
 345              		.loc 1 404 12 is_stmt 0 view .LVU108
 346 005c 274B     		ldr	r3, .L34+12
ARM GAS  /var/folders/0z/tsy30v1j4xl4_7kw94k978ww0000gn/T//ccXOXT9Z.s 			page 17


 347 005e 1B78     		ldrb	r3, [r3]	@ zero_extendqisi2
 404:Drivers/lvgl/src/misc/lv_anim.c ****             a = _lv_ll_get_head(&LV_GC_ROOT(_lv_anim_ll));
 348              		.loc 1 404 11 view .LVU109
 349 0060 002B     		cmp	r3, #0
 350 0062 3AD0     		beq	.L27
 405:Drivers/lvgl/src/misc/lv_anim.c ****         else
 351              		.loc 1 405 13 is_stmt 1 view .LVU110
 405:Drivers/lvgl/src/misc/lv_anim.c ****         else
 352              		.loc 1 405 17 is_stmt 0 view .LVU111
 353 0064 2448     		ldr	r0, .L34+8
 354 0066 FFF7FEFF 		bl	_lv_ll_get_head
 355              	.LVL27:
 356 006a 0446     		mov	r4, r0
 357              	.LVL28:
 358              	.L20:
 361:Drivers/lvgl/src/misc/lv_anim.c ****         /*It can be set by `lv_anim_del()` typically in `end_cb`. If set then an animation delete
 359              		.loc 1 361 13 is_stmt 1 view .LVU112
 360 006c 002C     		cmp	r4, #0
 361 006e 3AD0     		beq	.L32
 366:Drivers/lvgl/src/misc/lv_anim.c **** 
 362              		.loc 1 366 9 view .LVU113
 366:Drivers/lvgl/src/misc/lv_anim.c **** 
 363              		.loc 1 366 27 is_stmt 0 view .LVU114
 364 0070 224B     		ldr	r3, .L34+12
 365 0072 0022     		movs	r2, #0
 366 0074 1A70     		strb	r2, [r3]
 368:Drivers/lvgl/src/misc/lv_anim.c ****             a->run_round = anim_run_round; /*The list readying might be reset so need to know which
 367              		.loc 1 368 9 is_stmt 1 view .LVU115
 368:Drivers/lvgl/src/misc/lv_anim.c ****             a->run_round = anim_run_round; /*The list readying might be reset so need to know which
 368              		.loc 1 368 13 is_stmt 0 view .LVU116
 369 0076 94F84230 		ldrb	r3, [r4, #66]	@ zero_extendqisi2
 370 007a C3F38003 		ubfx	r3, r3, #2, #1
 368:Drivers/lvgl/src/misc/lv_anim.c ****             a->run_round = anim_run_round; /*The list readying might be reset so need to know which
 371              		.loc 1 368 25 view .LVU117
 372 007e 1D4A     		ldr	r2, .L34+4
 373 0080 1278     		ldrb	r2, [r2]	@ zero_extendqisi2
 368:Drivers/lvgl/src/misc/lv_anim.c ****             a->run_round = anim_run_round; /*The list readying might be reset so need to know which
 374              		.loc 1 368 11 view .LVU118
 375 0082 9342     		cmp	r3, r2
 376 0084 EAD0     		beq	.L21
 377              	.LBB7:
 369:Drivers/lvgl/src/misc/lv_anim.c **** 
 378              		.loc 1 369 13 is_stmt 1 view .LVU119
 369:Drivers/lvgl/src/misc/lv_anim.c **** 
 379              		.loc 1 369 26 is_stmt 0 view .LVU120
 380 0086 94F84230 		ldrb	r3, [r4, #66]	@ zero_extendqisi2
 381 008a 62F38203 		bfi	r3, r2, #2, #1
 382 008e 84F84230 		strb	r3, [r4, #66]
 372:Drivers/lvgl/src/misc/lv_anim.c ****             if(!a->start_cb_called && a->act_time <= 0 && new_act_time >= 0) {
 383              		.loc 1 372 13 is_stmt 1 view .LVU121
 372:Drivers/lvgl/src/misc/lv_anim.c ****             if(!a->start_cb_called && a->act_time <= 0 && new_act_time >= 0) {
 384              		.loc 1 372 37 is_stmt 0 view .LVU122
 385 0092 236B     		ldr	r3, [r4, #48]
 372:Drivers/lvgl/src/misc/lv_anim.c ****             if(!a->start_cb_called && a->act_time <= 0 && new_act_time >= 0) {
 386              		.loc 1 372 48 view .LVU123
 387 0094 5919     		adds	r1, r3, r5
 388              	.LVL29:
ARM GAS  /var/folders/0z/tsy30v1j4xl4_7kw94k978ww0000gn/T//ccXOXT9Z.s 			page 18


 373:Drivers/lvgl/src/misc/lv_anim.c ****                 if(a->early_apply == 0 && a->get_value_cb) {
 389              		.loc 1 373 13 is_stmt 1 view .LVU124
 373:Drivers/lvgl/src/misc/lv_anim.c ****                 if(a->early_apply == 0 && a->get_value_cb) {
 390              		.loc 1 373 16 is_stmt 0 view .LVU125
 391 0096 94F84220 		ldrb	r2, [r4, #66]	@ zero_extendqisi2
 373:Drivers/lvgl/src/misc/lv_anim.c ****                 if(a->early_apply == 0 && a->get_value_cb) {
 392              		.loc 1 373 15 view .LVU126
 393 009a 12F0080F 		tst	r2, #8
 394 009e 01D1     		bne	.L22
 373:Drivers/lvgl/src/misc/lv_anim.c ****                 if(a->early_apply == 0 && a->get_value_cb) {
 395              		.loc 1 373 36 discriminator 1 view .LVU127
 396 00a0 002B     		cmp	r3, #0
 397 00a2 BDDD     		ble	.L33
 398              	.LVL30:
 399              	.L22:
 382:Drivers/lvgl/src/misc/lv_anim.c ****             if(a->act_time >= 0) {
 400              		.loc 1 382 13 is_stmt 1 view .LVU128
 382:Drivers/lvgl/src/misc/lv_anim.c ****             if(a->act_time >= 0) {
 401              		.loc 1 382 25 is_stmt 0 view .LVU129
 402 00a4 236B     		ldr	r3, [r4, #48]
 403 00a6 2B44     		add	r3, r3, r5
 404 00a8 2363     		str	r3, [r4, #48]
 383:Drivers/lvgl/src/misc/lv_anim.c ****                 if(a->act_time > a->time) a->act_time = a->time;
 405              		.loc 1 383 13 is_stmt 1 view .LVU130
 383:Drivers/lvgl/src/misc/lv_anim.c ****                 if(a->act_time > a->time) a->act_time = a->time;
 406              		.loc 1 383 15 is_stmt 0 view .LVU131
 407 00aa 002B     		cmp	r3, #0
 408 00ac D6DB     		blt	.L21
 409              	.LBB6:
 384:Drivers/lvgl/src/misc/lv_anim.c **** 
 410              		.loc 1 384 17 is_stmt 1 view .LVU132
 384:Drivers/lvgl/src/misc/lv_anim.c **** 
 411              		.loc 1 384 35 is_stmt 0 view .LVU133
 412 00ae E26A     		ldr	r2, [r4, #44]
 384:Drivers/lvgl/src/misc/lv_anim.c **** 
 413              		.loc 1 384 19 view .LVU134
 414 00b0 9342     		cmp	r3, r2
 415 00b2 00DD     		ble	.L25
 384:Drivers/lvgl/src/misc/lv_anim.c **** 
 416              		.loc 1 384 43 is_stmt 1 discriminator 1 view .LVU135
 384:Drivers/lvgl/src/misc/lv_anim.c **** 
 417              		.loc 1 384 55 is_stmt 0 discriminator 1 view .LVU136
 418 00b4 2263     		str	r2, [r4, #48]
 419              	.L25:
 386:Drivers/lvgl/src/misc/lv_anim.c ****                 new_value = a->path_cb(a);
 420              		.loc 1 386 17 is_stmt 1 view .LVU137
 387:Drivers/lvgl/src/misc/lv_anim.c **** 
 421              		.loc 1 387 17 view .LVU138
 387:Drivers/lvgl/src/misc/lv_anim.c **** 
 422              		.loc 1 387 30 is_stmt 0 view .LVU139
 423 00b6 E369     		ldr	r3, [r4, #28]
 387:Drivers/lvgl/src/misc/lv_anim.c **** 
 424              		.loc 1 387 29 view .LVU140
 425 00b8 2046     		mov	r0, r4
 426 00ba 9847     		blx	r3
 427              	.LVL31:
 389:Drivers/lvgl/src/misc/lv_anim.c ****                     a->current_value = new_value;
ARM GAS  /var/folders/0z/tsy30v1j4xl4_7kw94k978ww0000gn/T//ccXOXT9Z.s 			page 19


 428              		.loc 1 389 17 is_stmt 1 view .LVU141
 389:Drivers/lvgl/src/misc/lv_anim.c ****                     a->current_value = new_value;
 429              		.loc 1 389 34 is_stmt 0 view .LVU142
 430 00bc 636A     		ldr	r3, [r4, #36]
 389:Drivers/lvgl/src/misc/lv_anim.c ****                     a->current_value = new_value;
 431              		.loc 1 389 19 view .LVU143
 432 00be 8342     		cmp	r3, r0
 433 00c0 C8D0     		beq	.L26
 390:Drivers/lvgl/src/misc/lv_anim.c ****                     /*Apply the calculated value*/
 434              		.loc 1 390 21 is_stmt 1 view .LVU144
 390:Drivers/lvgl/src/misc/lv_anim.c ****                     /*Apply the calculated value*/
 435              		.loc 1 390 38 is_stmt 0 view .LVU145
 436 00c2 6062     		str	r0, [r4, #36]
 392:Drivers/lvgl/src/misc/lv_anim.c ****                 }
 437              		.loc 1 392 21 is_stmt 1 view .LVU146
 392:Drivers/lvgl/src/misc/lv_anim.c ****                 }
 438              		.loc 1 392 25 is_stmt 0 view .LVU147
 439 00c4 6368     		ldr	r3, [r4, #4]
 392:Drivers/lvgl/src/misc/lv_anim.c ****                 }
 440              		.loc 1 392 23 view .LVU148
 441 00c6 002B     		cmp	r3, #0
 442 00c8 C4D0     		beq	.L26
 392:Drivers/lvgl/src/misc/lv_anim.c ****                 }
 443              		.loc 1 392 36 is_stmt 1 discriminator 1 view .LVU149
 444 00ca 0146     		mov	r1, r0
 445 00cc 2068     		ldr	r0, [r4]
 446              	.LVL32:
 392:Drivers/lvgl/src/misc/lv_anim.c ****                 }
 447              		.loc 1 392 36 is_stmt 0 discriminator 1 view .LVU150
 448 00ce 9847     		blx	r3
 449              	.LVL33:
 392:Drivers/lvgl/src/misc/lv_anim.c ****                 }
 450              		.loc 1 392 36 discriminator 1 view .LVU151
 451 00d0 C0E7     		b	.L26
 452              	.L31:
 397:Drivers/lvgl/src/misc/lv_anim.c ****                 }
 453              		.loc 1 397 21 is_stmt 1 view .LVU152
 454 00d2 2046     		mov	r0, r4
 455 00d4 FFF7FEFF 		bl	anim_ready_handler
 456              	.LVL34:
 457 00d8 C0E7     		b	.L21
 458              	.L27:
 397:Drivers/lvgl/src/misc/lv_anim.c ****                 }
 459              		.loc 1 397 21 is_stmt 0 view .LVU153
 460              	.LBE6:
 461              	.LBE7:
 407:Drivers/lvgl/src/misc/lv_anim.c ****     }
 462              		.loc 1 407 13 is_stmt 1 view .LVU154
 407:Drivers/lvgl/src/misc/lv_anim.c ****     }
 463              		.loc 1 407 17 is_stmt 0 view .LVU155
 464 00da 2146     		mov	r1, r4
 465 00dc 0648     		ldr	r0, .L34+8
 466 00de FFF7FEFF 		bl	_lv_ll_get_next
 467              	.LVL35:
 468 00e2 0446     		mov	r4, r0
 469              	.LVL36:
 407:Drivers/lvgl/src/misc/lv_anim.c ****     }
ARM GAS  /var/folders/0z/tsy30v1j4xl4_7kw94k978ww0000gn/T//ccXOXT9Z.s 			page 20


 470              		.loc 1 407 17 view .LVU156
 471 00e4 C2E7     		b	.L20
 472              	.L32:
 410:Drivers/lvgl/src/misc/lv_anim.c **** }
 473              		.loc 1 410 5 is_stmt 1 view .LVU157
 410:Drivers/lvgl/src/misc/lv_anim.c **** }
 474              		.loc 1 410 22 is_stmt 0 view .LVU158
 475 00e6 FFF7FEFF 		bl	lv_tick_get
 476              	.LVL37:
 410:Drivers/lvgl/src/misc/lv_anim.c **** }
 477              		.loc 1 410 20 view .LVU159
 478 00ea 014B     		ldr	r3, .L34
 479 00ec 1860     		str	r0, [r3]
 411:Drivers/lvgl/src/misc/lv_anim.c **** 
 480              		.loc 1 411 1 view .LVU160
 481 00ee 38BD     		pop	{r3, r4, r5, pc}
 482              	.LVL38:
 483              	.L35:
 411:Drivers/lvgl/src/misc/lv_anim.c **** 
 484              		.loc 1 411 1 view .LVU161
 485              		.align	2
 486              	.L34:
 487 00f0 00000000 		.word	.LANCHOR2
 488 00f4 00000000 		.word	.LANCHOR3
 489 00f8 00000000 		.word	_lv_anim_ll
 490 00fc 00000000 		.word	.LANCHOR0
 491              		.cfi_endproc
 492              	.LFE63:
 494              		.section	.text.lv_anim_path_linear,"ax",%progbits
 495              		.align	1
 496              		.global	lv_anim_path_linear
 497              		.syntax unified
 498              		.thumb
 499              		.thumb_func
 501              	lv_anim_path_linear:
 502              	.LVL39:
 503              	.LFB56:
 213:Drivers/lvgl/src/misc/lv_anim.c ****     /*Calculate the current step*/
 504              		.loc 1 213 1 is_stmt 1 view -0
 505              		.cfi_startproc
 506              		@ args = 0, pretend = 0, frame = 0
 507              		@ frame_needed = 0, uses_anonymous_args = 0
 213:Drivers/lvgl/src/misc/lv_anim.c ****     /*Calculate the current step*/
 508              		.loc 1 213 1 is_stmt 0 view .LVU163
 509 0000 10B5     		push	{r4, lr}
 510              		.cfi_def_cfa_offset 8
 511              		.cfi_offset 4, -8
 512              		.cfi_offset 14, -4
 513 0002 82B0     		sub	sp, sp, #8
 514              		.cfi_def_cfa_offset 16
 515 0004 0446     		mov	r4, r0
 215:Drivers/lvgl/src/misc/lv_anim.c **** 
 516              		.loc 1 215 5 is_stmt 1 view .LVU164
 215:Drivers/lvgl/src/misc/lv_anim.c **** 
 517              		.loc 1 215 20 is_stmt 0 view .LVU165
 518 0006 4FF48063 		mov	r3, #1024
 519 000a 0093     		str	r3, [sp]
ARM GAS  /var/folders/0z/tsy30v1j4xl4_7kw94k978ww0000gn/T//ccXOXT9Z.s 			page 21


 520 000c 0023     		movs	r3, #0
 521 000e C26A     		ldr	r2, [r0, #44]
 522 0010 1946     		mov	r1, r3
 523 0012 006B     		ldr	r0, [r0, #48]
 524              	.LVL40:
 215:Drivers/lvgl/src/misc/lv_anim.c **** 
 525              		.loc 1 215 20 view .LVU166
 526 0014 FFF7FEFF 		bl	lv_map
 527              	.LVL41:
 219:Drivers/lvgl/src/misc/lv_anim.c ****     new_value = step * (a->end_value - a->start_value);
 528              		.loc 1 219 5 is_stmt 1 view .LVU167
 220:Drivers/lvgl/src/misc/lv_anim.c ****     new_value = new_value >> LV_ANIM_RES_SHIFT;
 529              		.loc 1 220 5 view .LVU168
 220:Drivers/lvgl/src/misc/lv_anim.c ****     new_value = new_value >> LV_ANIM_RES_SHIFT;
 530              		.loc 1 220 26 is_stmt 0 view .LVU169
 531 0018 A36A     		ldr	r3, [r4, #40]
 220:Drivers/lvgl/src/misc/lv_anim.c ****     new_value = new_value >> LV_ANIM_RES_SHIFT;
 532              		.loc 1 220 41 view .LVU170
 533 001a 226A     		ldr	r2, [r4, #32]
 220:Drivers/lvgl/src/misc/lv_anim.c ****     new_value = new_value >> LV_ANIM_RES_SHIFT;
 534              		.loc 1 220 38 view .LVU171
 535 001c 9B1A     		subs	r3, r3, r2
 220:Drivers/lvgl/src/misc/lv_anim.c ****     new_value = new_value >> LV_ANIM_RES_SHIFT;
 536              		.loc 1 220 15 view .LVU172
 537 001e 03FB00F0 		mul	r0, r3, r0
 538              	.LVL42:
 221:Drivers/lvgl/src/misc/lv_anim.c ****     new_value += a->start_value;
 539              		.loc 1 221 5 is_stmt 1 view .LVU173
 222:Drivers/lvgl/src/misc/lv_anim.c **** 
 540              		.loc 1 222 5 view .LVU174
 224:Drivers/lvgl/src/misc/lv_anim.c **** }
 541              		.loc 1 224 5 view .LVU175
 225:Drivers/lvgl/src/misc/lv_anim.c **** 
 542              		.loc 1 225 1 is_stmt 0 view .LVU176
 543 0022 02EBA020 		add	r0, r2, r0, asr #10
 544              	.LVL43:
 225:Drivers/lvgl/src/misc/lv_anim.c **** 
 545              		.loc 1 225 1 view .LVU177
 546 0026 02B0     		add	sp, sp, #8
 547              		.cfi_def_cfa_offset 8
 548              		@ sp needed
 549 0028 10BD     		pop	{r4, pc}
 225:Drivers/lvgl/src/misc/lv_anim.c **** 
 550              		.loc 1 225 1 view .LVU178
 551              		.cfi_endproc
 552              	.LFE56:
 554              		.section	.text._lv_anim_core_init,"ax",%progbits
 555              		.align	1
 556              		.global	_lv_anim_core_init
 557              		.syntax unified
 558              		.thumb
 559              		.thumb_func
 561              	_lv_anim_core_init:
 562              	.LFB45:
  58:Drivers/lvgl/src/misc/lv_anim.c ****     _lv_ll_init(&LV_GC_ROOT(_lv_anim_ll), sizeof(lv_anim_t));
 563              		.loc 1 58 1 is_stmt 1 view -0
 564              		.cfi_startproc
ARM GAS  /var/folders/0z/tsy30v1j4xl4_7kw94k978ww0000gn/T//ccXOXT9Z.s 			page 22


 565              		@ args = 0, pretend = 0, frame = 0
 566              		@ frame_needed = 0, uses_anonymous_args = 0
 567 0000 08B5     		push	{r3, lr}
 568              		.cfi_def_cfa_offset 8
 569              		.cfi_offset 3, -8
 570              		.cfi_offset 14, -4
  59:Drivers/lvgl/src/misc/lv_anim.c ****     _lv_anim_tmr = lv_timer_create(anim_timer, LV_DISP_DEF_REFR_PERIOD, NULL);
 571              		.loc 1 59 5 view .LVU180
 572 0002 4421     		movs	r1, #68
 573 0004 0748     		ldr	r0, .L40
 574 0006 FFF7FEFF 		bl	_lv_ll_init
 575              	.LVL44:
  60:Drivers/lvgl/src/misc/lv_anim.c ****     anim_mark_list_change(); /*Turn off the animation timer*/
 576              		.loc 1 60 5 view .LVU181
  60:Drivers/lvgl/src/misc/lv_anim.c ****     anim_mark_list_change(); /*Turn off the animation timer*/
 577              		.loc 1 60 20 is_stmt 0 view .LVU182
 578 000a 0022     		movs	r2, #0
 579 000c 1E21     		movs	r1, #30
 580 000e 0648     		ldr	r0, .L40+4
 581 0010 FFF7FEFF 		bl	lv_timer_create
 582              	.LVL45:
  60:Drivers/lvgl/src/misc/lv_anim.c ****     anim_mark_list_change(); /*Turn off the animation timer*/
 583              		.loc 1 60 18 view .LVU183
 584 0014 054B     		ldr	r3, .L40+8
 585 0016 1860     		str	r0, [r3]
  61:Drivers/lvgl/src/misc/lv_anim.c ****     anim_list_changed = false;
 586              		.loc 1 61 5 is_stmt 1 view .LVU184
 587 0018 FFF7FEFF 		bl	anim_mark_list_change
 588              	.LVL46:
  62:Drivers/lvgl/src/misc/lv_anim.c **** }
 589              		.loc 1 62 5 view .LVU185
  62:Drivers/lvgl/src/misc/lv_anim.c **** }
 590              		.loc 1 62 23 is_stmt 0 view .LVU186
 591 001c 044B     		ldr	r3, .L40+12
 592 001e 0022     		movs	r2, #0
 593 0020 1A70     		strb	r2, [r3]
  63:Drivers/lvgl/src/misc/lv_anim.c **** 
 594              		.loc 1 63 1 view .LVU187
 595 0022 08BD     		pop	{r3, pc}
 596              	.L41:
 597              		.align	2
 598              	.L40:
 599 0024 00000000 		.word	_lv_anim_ll
 600 0028 00000000 		.word	anim_timer
 601 002c 00000000 		.word	.LANCHOR1
 602 0030 00000000 		.word	.LANCHOR0
 603              		.cfi_endproc
 604              	.LFE45:
 606              		.section	.text.lv_anim_init,"ax",%progbits
 607              		.align	1
 608              		.global	lv_anim_init
 609              		.syntax unified
 610              		.thumb
 611              		.thumb_func
 613              	lv_anim_init:
 614              	.LVL47:
 615              	.LFB46:
ARM GAS  /var/folders/0z/tsy30v1j4xl4_7kw94k978ww0000gn/T//ccXOXT9Z.s 			page 23


  66:Drivers/lvgl/src/misc/lv_anim.c ****     lv_memset_00(a, sizeof(lv_anim_t));
 616              		.loc 1 66 1 is_stmt 1 view -0
 617              		.cfi_startproc
 618              		@ args = 0, pretend = 0, frame = 0
 619              		@ frame_needed = 0, uses_anonymous_args = 0
  66:Drivers/lvgl/src/misc/lv_anim.c ****     lv_memset_00(a, sizeof(lv_anim_t));
 620              		.loc 1 66 1 is_stmt 0 view .LVU189
 621 0000 10B5     		push	{r4, lr}
 622              		.cfi_def_cfa_offset 8
 623              		.cfi_offset 4, -8
 624              		.cfi_offset 14, -4
 625 0002 0446     		mov	r4, r0
  67:Drivers/lvgl/src/misc/lv_anim.c ****     a->time = 500;
 626              		.loc 1 67 5 is_stmt 1 view .LVU190
 627 0004 4421     		movs	r1, #68
 628 0006 FFF7FEFF 		bl	lv_memset_00
 629              	.LVL48:
  68:Drivers/lvgl/src/misc/lv_anim.c ****     a->start_value = 0;
 630              		.loc 1 68 5 view .LVU191
  68:Drivers/lvgl/src/misc/lv_anim.c ****     a->start_value = 0;
 631              		.loc 1 68 13 is_stmt 0 view .LVU192
 632 000a 4FF4FA73 		mov	r3, #500
 633 000e E362     		str	r3, [r4, #44]
  69:Drivers/lvgl/src/misc/lv_anim.c ****     a->end_value = 100;
 634              		.loc 1 69 5 is_stmt 1 view .LVU193
  69:Drivers/lvgl/src/misc/lv_anim.c ****     a->end_value = 100;
 635              		.loc 1 69 20 is_stmt 0 view .LVU194
 636 0010 0023     		movs	r3, #0
 637 0012 2362     		str	r3, [r4, #32]
  70:Drivers/lvgl/src/misc/lv_anim.c ****     a->repeat_cnt = 1;
 638              		.loc 1 70 5 is_stmt 1 view .LVU195
  70:Drivers/lvgl/src/misc/lv_anim.c ****     a->repeat_cnt = 1;
 639              		.loc 1 70 18 is_stmt 0 view .LVU196
 640 0014 6423     		movs	r3, #100
 641 0016 A362     		str	r3, [r4, #40]
  71:Drivers/lvgl/src/misc/lv_anim.c ****     a->path_cb = lv_anim_path_linear;
 642              		.loc 1 71 5 is_stmt 1 view .LVU197
  71:Drivers/lvgl/src/misc/lv_anim.c ****     a->path_cb = lv_anim_path_linear;
 643              		.loc 1 71 19 is_stmt 0 view .LVU198
 644 0018 0123     		movs	r3, #1
 645 001a A4F84030 		strh	r3, [r4, #64]	@ movhi
  72:Drivers/lvgl/src/misc/lv_anim.c ****     a->early_apply = 1;
 646              		.loc 1 72 5 is_stmt 1 view .LVU199
  72:Drivers/lvgl/src/misc/lv_anim.c ****     a->early_apply = 1;
 647              		.loc 1 72 16 is_stmt 0 view .LVU200
 648 001e 044B     		ldr	r3, .L44
 649 0020 E361     		str	r3, [r4, #28]
  73:Drivers/lvgl/src/misc/lv_anim.c **** }
 650              		.loc 1 73 5 is_stmt 1 view .LVU201
  73:Drivers/lvgl/src/misc/lv_anim.c **** }
 651              		.loc 1 73 20 is_stmt 0 view .LVU202
 652 0022 94F84230 		ldrb	r3, [r4, #66]	@ zero_extendqisi2
 653 0026 43F00103 		orr	r3, r3, #1
 654 002a 84F84230 		strb	r3, [r4, #66]
  74:Drivers/lvgl/src/misc/lv_anim.c **** 
 655              		.loc 1 74 1 view .LVU203
 656 002e 10BD     		pop	{r4, pc}
ARM GAS  /var/folders/0z/tsy30v1j4xl4_7kw94k978ww0000gn/T//ccXOXT9Z.s 			page 24


 657              	.LVL49:
 658              	.L45:
  74:Drivers/lvgl/src/misc/lv_anim.c **** 
 659              		.loc 1 74 1 view .LVU204
 660              		.align	2
 661              	.L44:
 662 0030 00000000 		.word	lv_anim_path_linear
 663              		.cfi_endproc
 664              	.LFE46:
 666              		.section	.text.lv_anim_get_playtime,"ax",%progbits
 667              		.align	1
 668              		.global	lv_anim_get_playtime
 669              		.syntax unified
 670              		.thumb
 671              		.thumb_func
 673              	lv_anim_get_playtime:
 674              	.LVL50:
 675              	.LFB48:
 118:Drivers/lvgl/src/misc/lv_anim.c ****     uint32_t playtime = LV_ANIM_PLAYTIME_INFINITE;
 676              		.loc 1 118 1 is_stmt 1 view -0
 677              		.cfi_startproc
 678              		@ args = 0, pretend = 0, frame = 0
 679              		@ frame_needed = 0, uses_anonymous_args = 0
 680              		@ link register save eliminated.
 119:Drivers/lvgl/src/misc/lv_anim.c **** 
 681              		.loc 1 119 5 view .LVU206
 121:Drivers/lvgl/src/misc/lv_anim.c ****         return playtime;
 682              		.loc 1 121 5 view .LVU207
 121:Drivers/lvgl/src/misc/lv_anim.c ****         return playtime;
 683              		.loc 1 121 9 is_stmt 0 view .LVU208
 684 0000 B0F840C0 		ldrh	ip, [r0, #64]
 121:Drivers/lvgl/src/misc/lv_anim.c ****         return playtime;
 685              		.loc 1 121 7 view .LVU209
 686 0004 4FF6FF72 		movw	r2, #65535
 687 0008 9445     		cmp	ip, r2
 688 000a 1DD0     		beq	.L49
 118:Drivers/lvgl/src/misc/lv_anim.c ****     uint32_t playtime = LV_ANIM_PLAYTIME_INFINITE;
 689              		.loc 1 118 1 view .LVU210
 690 000c 10B4     		push	{r4}
 691              		.cfi_def_cfa_offset 4
 692              		.cfi_offset 4, -4
 693 000e 0346     		mov	r3, r0
 124:Drivers/lvgl/src/misc/lv_anim.c ****     if(a->playback_now == 0)
 694              		.loc 1 124 5 is_stmt 1 view .LVU211
 124:Drivers/lvgl/src/misc/lv_anim.c ****     if(a->playback_now == 0)
 695              		.loc 1 124 17 is_stmt 0 view .LVU212
 696 0010 C16A     		ldr	r1, [r0, #44]
 124:Drivers/lvgl/src/misc/lv_anim.c ****     if(a->playback_now == 0)
 697              		.loc 1 124 27 view .LVU213
 698 0012 006B     		ldr	r0, [r0, #48]
 699              	.LVL51:
 124:Drivers/lvgl/src/misc/lv_anim.c ****     if(a->playback_now == 0)
 700              		.loc 1 124 24 view .LVU214
 701 0014 081A     		subs	r0, r1, r0
 702              	.LVL52:
 125:Drivers/lvgl/src/misc/lv_anim.c ****         playtime += a->playback_delay + a->playback_time;
 703              		.loc 1 125 5 is_stmt 1 view .LVU215
ARM GAS  /var/folders/0z/tsy30v1j4xl4_7kw94k978ww0000gn/T//ccXOXT9Z.s 			page 25


 125:Drivers/lvgl/src/misc/lv_anim.c ****         playtime += a->playback_delay + a->playback_time;
 704              		.loc 1 125 24 is_stmt 0 view .LVU216
 705 0016 93F84220 		ldrb	r2, [r3, #66]	@ zero_extendqisi2
 125:Drivers/lvgl/src/misc/lv_anim.c ****         playtime += a->playback_delay + a->playback_time;
 706              		.loc 1 125 7 view .LVU217
 707 001a 12F0020F 		tst	r2, #2
 708 001e 03D1     		bne	.L48
 126:Drivers/lvgl/src/misc/lv_anim.c **** 
 709              		.loc 1 126 9 is_stmt 1 view .LVU218
 126:Drivers/lvgl/src/misc/lv_anim.c **** 
 710              		.loc 1 126 22 is_stmt 0 view .LVU219
 711 0020 5A6B     		ldr	r2, [r3, #52]
 126:Drivers/lvgl/src/misc/lv_anim.c **** 
 712              		.loc 1 126 39 view .LVU220
 713 0022 9C6B     		ldr	r4, [r3, #56]
 714 0024 2244     		add	r2, r2, r4
 126:Drivers/lvgl/src/misc/lv_anim.c **** 
 715              		.loc 1 126 18 view .LVU221
 716 0026 1044     		add	r0, r0, r2
 717              	.LVL53:
 718              	.L48:
 128:Drivers/lvgl/src/misc/lv_anim.c ****         return playtime;
 719              		.loc 1 128 5 is_stmt 1 view .LVU222
 128:Drivers/lvgl/src/misc/lv_anim.c ****         return playtime;
 720              		.loc 1 128 7 is_stmt 0 view .LVU223
 721 0028 BCF1010F 		cmp	ip, #1
 722 002c 09D9     		bls	.L46
 131:Drivers/lvgl/src/misc/lv_anim.c ****                  a->playback_delay + a->playback_time) *
 723              		.loc 1 131 5 is_stmt 1 view .LVU224
 131:Drivers/lvgl/src/misc/lv_anim.c ****                  a->playback_delay + a->playback_time) *
 724              		.loc 1 131 19 is_stmt 0 view .LVU225
 725 002e DA6B     		ldr	r2, [r3, #60]
 131:Drivers/lvgl/src/misc/lv_anim.c ****                  a->playback_delay + a->playback_time) *
 726              		.loc 1 131 34 view .LVU226
 727 0030 0A44     		add	r2, r2, r1
 132:Drivers/lvgl/src/misc/lv_anim.c ****                 (a->repeat_cnt - 1);
 728              		.loc 1 132 19 view .LVU227
 729 0032 596B     		ldr	r1, [r3, #52]
 131:Drivers/lvgl/src/misc/lv_anim.c ****                  a->playback_delay + a->playback_time) *
 730              		.loc 1 131 44 view .LVU228
 731 0034 0A44     		add	r2, r2, r1
 132:Drivers/lvgl/src/misc/lv_anim.c ****                 (a->repeat_cnt - 1);
 732              		.loc 1 132 39 view .LVU229
 733 0036 9B6B     		ldr	r3, [r3, #56]
 734              	.LVL54:
 132:Drivers/lvgl/src/misc/lv_anim.c ****                 (a->repeat_cnt - 1);
 735              		.loc 1 132 36 view .LVU230
 736 0038 1A44     		add	r2, r2, r3
 133:Drivers/lvgl/src/misc/lv_anim.c **** 
 737              		.loc 1 133 32 view .LVU231
 738 003a 0CF1FF33 		add	r3, ip, #-1
 131:Drivers/lvgl/src/misc/lv_anim.c ****                  a->playback_delay + a->playback_time) *
 739              		.loc 1 131 14 view .LVU232
 740 003e 03FB0200 		mla	r0, r3, r2, r0
 741              	.LVL55:
 135:Drivers/lvgl/src/misc/lv_anim.c **** }
 742              		.loc 1 135 5 is_stmt 1 view .LVU233
ARM GAS  /var/folders/0z/tsy30v1j4xl4_7kw94k978ww0000gn/T//ccXOXT9Z.s 			page 26


 743              	.L46:
 136:Drivers/lvgl/src/misc/lv_anim.c **** 
 744              		.loc 1 136 1 is_stmt 0 view .LVU234
 745 0042 5DF8044B 		ldr	r4, [sp], #4
 746              		.cfi_restore 4
 747              		.cfi_def_cfa_offset 0
 748 0046 7047     		bx	lr
 749              	.LVL56:
 750              	.L49:
 122:Drivers/lvgl/src/misc/lv_anim.c **** 
 751              		.loc 1 122 16 view .LVU235
 752 0048 4FF0FF30 		mov	r0, #-1
 753              	.LVL57:
 136:Drivers/lvgl/src/misc/lv_anim.c **** 
 754              		.loc 1 136 1 view .LVU236
 755 004c 7047     		bx	lr
 756              		.cfi_endproc
 757              	.LFE48:
 759              		.section	.text.lv_anim_del,"ax",%progbits
 760              		.align	1
 761              		.global	lv_anim_del
 762              		.syntax unified
 763              		.thumb
 764              		.thumb_func
 766              	lv_anim_del:
 767              	.LVL58:
 768              	.LFB49:
 139:Drivers/lvgl/src/misc/lv_anim.c ****     lv_anim_t * a;
 769              		.loc 1 139 1 is_stmt 1 view -0
 770              		.cfi_startproc
 771              		@ args = 0, pretend = 0, frame = 0
 772              		@ frame_needed = 0, uses_anonymous_args = 0
 139:Drivers/lvgl/src/misc/lv_anim.c ****     lv_anim_t * a;
 773              		.loc 1 139 1 is_stmt 0 view .LVU238
 774 0000 2DE9F041 		push	{r4, r5, r6, r7, r8, lr}
 775              		.cfi_def_cfa_offset 24
 776              		.cfi_offset 4, -24
 777              		.cfi_offset 5, -20
 778              		.cfi_offset 6, -16
 779              		.cfi_offset 7, -12
 780              		.cfi_offset 8, -8
 781              		.cfi_offset 14, -4
 782 0004 0646     		mov	r6, r0
 783 0006 0F46     		mov	r7, r1
 140:Drivers/lvgl/src/misc/lv_anim.c ****     lv_anim_t * a_next;
 784              		.loc 1 140 5 is_stmt 1 view .LVU239
 141:Drivers/lvgl/src/misc/lv_anim.c ****     bool del = false;
 785              		.loc 1 141 5 view .LVU240
 142:Drivers/lvgl/src/misc/lv_anim.c ****     a        = _lv_ll_get_head(&LV_GC_ROOT(_lv_anim_ll));
 786              		.loc 1 142 5 view .LVU241
 787              	.LVL59:
 143:Drivers/lvgl/src/misc/lv_anim.c ****     while(a != NULL) {
 788              		.loc 1 143 5 view .LVU242
 143:Drivers/lvgl/src/misc/lv_anim.c ****     while(a != NULL) {
 789              		.loc 1 143 16 is_stmt 0 view .LVU243
 790 0008 1548     		ldr	r0, .L63
 791              	.LVL60:
ARM GAS  /var/folders/0z/tsy30v1j4xl4_7kw94k978ww0000gn/T//ccXOXT9Z.s 			page 27


 143:Drivers/lvgl/src/misc/lv_anim.c ****     while(a != NULL) {
 792              		.loc 1 143 16 view .LVU244
 793 000a FFF7FEFF 		bl	_lv_ll_get_head
 794              	.LVL61:
 143:Drivers/lvgl/src/misc/lv_anim.c ****     while(a != NULL) {
 795              		.loc 1 143 16 view .LVU245
 796 000e 0446     		mov	r4, r0
 797              	.LVL62:
 144:Drivers/lvgl/src/misc/lv_anim.c ****         /*'a' might be deleted, so get the next object while 'a' is valid*/
 798              		.loc 1 144 5 is_stmt 1 view .LVU246
 142:Drivers/lvgl/src/misc/lv_anim.c ****     a        = _lv_ll_get_head(&LV_GC_ROOT(_lv_anim_ll));
 799              		.loc 1 142 10 is_stmt 0 view .LVU247
 800 0010 4FF00008 		mov	r8, #0
 144:Drivers/lvgl/src/misc/lv_anim.c ****         /*'a' might be deleted, so get the next object while 'a' is valid*/
 801              		.loc 1 144 10 view .LVU248
 802 0014 04E0     		b	.L55
 803              	.LVL63:
 804              	.L56:
 148:Drivers/lvgl/src/misc/lv_anim.c ****             _lv_ll_remove(&LV_GC_ROOT(_lv_anim_ll), a);
 805              		.loc 1 148 48 discriminator 3 view .LVU249
 806 0016 6368     		ldr	r3, [r4, #4]
 148:Drivers/lvgl/src/misc/lv_anim.c ****             _lv_ll_remove(&LV_GC_ROOT(_lv_anim_ll), a);
 807              		.loc 1 148 43 discriminator 3 view .LVU250
 808 0018 BB42     		cmp	r3, r7
 809 001a 0DD0     		beq	.L58
 148:Drivers/lvgl/src/misc/lv_anim.c ****             _lv_ll_remove(&LV_GC_ROOT(_lv_anim_ll), a);
 810              		.loc 1 148 69 discriminator 4 view .LVU251
 811 001c 67B1     		cbz	r7, .L58
 812              	.LVL64:
 813              	.L57:
 154:Drivers/lvgl/src/misc/lv_anim.c ****         }
 814              		.loc 1 154 17 view .LVU252
 815 001e 2C46     		mov	r4, r5
 816              	.LVL65:
 817              	.L55:
 144:Drivers/lvgl/src/misc/lv_anim.c ****         /*'a' might be deleted, so get the next object while 'a' is valid*/
 818              		.loc 1 144 13 is_stmt 1 view .LVU253
 819 0020 D4B1     		cbz	r4, .L62
 146:Drivers/lvgl/src/misc/lv_anim.c **** 
 820              		.loc 1 146 9 view .LVU254
 146:Drivers/lvgl/src/misc/lv_anim.c **** 
 821              		.loc 1 146 18 is_stmt 0 view .LVU255
 822 0022 2146     		mov	r1, r4
 823 0024 0E48     		ldr	r0, .L63
 824 0026 FFF7FEFF 		bl	_lv_ll_get_next
 825              	.LVL66:
 826 002a 0546     		mov	r5, r0
 827              	.LVL67:
 148:Drivers/lvgl/src/misc/lv_anim.c ****             _lv_ll_remove(&LV_GC_ROOT(_lv_anim_ll), a);
 828              		.loc 1 148 9 is_stmt 1 view .LVU256
 148:Drivers/lvgl/src/misc/lv_anim.c ****             _lv_ll_remove(&LV_GC_ROOT(_lv_anim_ll), a);
 829              		.loc 1 148 14 is_stmt 0 view .LVU257
 830 002c 2368     		ldr	r3, [r4]
 148:Drivers/lvgl/src/misc/lv_anim.c ****             _lv_ll_remove(&LV_GC_ROOT(_lv_anim_ll), a);
 831              		.loc 1 148 11 view .LVU258
 832 002e B342     		cmp	r3, r6
 833 0030 F1D0     		beq	.L56
ARM GAS  /var/folders/0z/tsy30v1j4xl4_7kw94k978ww0000gn/T//ccXOXT9Z.s 			page 28


 148:Drivers/lvgl/src/misc/lv_anim.c ****             _lv_ll_remove(&LV_GC_ROOT(_lv_anim_ll), a);
 834              		.loc 1 148 27 discriminator 2 view .LVU259
 835 0032 002E     		cmp	r6, #0
 836 0034 F3D1     		bne	.L57
 837 0036 EEE7     		b	.L56
 838              	.L58:
 149:Drivers/lvgl/src/misc/lv_anim.c ****             if(a->deleted_cb != NULL) a->deleted_cb(a);
 839              		.loc 1 149 13 is_stmt 1 view .LVU260
 840 0038 2146     		mov	r1, r4
 841 003a 0948     		ldr	r0, .L63
 842              	.LVL68:
 149:Drivers/lvgl/src/misc/lv_anim.c ****             if(a->deleted_cb != NULL) a->deleted_cb(a);
 843              		.loc 1 149 13 is_stmt 0 view .LVU261
 844 003c FFF7FEFF 		bl	_lv_ll_remove
 845              	.LVL69:
 150:Drivers/lvgl/src/misc/lv_anim.c ****             lv_mem_free(a);
 846              		.loc 1 150 13 is_stmt 1 view .LVU262
 150:Drivers/lvgl/src/misc/lv_anim.c ****             lv_mem_free(a);
 847              		.loc 1 150 17 is_stmt 0 view .LVU263
 848 0040 2369     		ldr	r3, [r4, #16]
 150:Drivers/lvgl/src/misc/lv_anim.c ****             lv_mem_free(a);
 849              		.loc 1 150 15 view .LVU264
 850 0042 0BB1     		cbz	r3, .L59
 150:Drivers/lvgl/src/misc/lv_anim.c ****             lv_mem_free(a);
 851              		.loc 1 150 39 is_stmt 1 discriminator 1 view .LVU265
 852 0044 2046     		mov	r0, r4
 853 0046 9847     		blx	r3
 854              	.LVL70:
 855              	.L59:
 151:Drivers/lvgl/src/misc/lv_anim.c ****             anim_mark_list_change(); /*Read by `anim_timer`. It need to know if a delete occurred i
 856              		.loc 1 151 13 view .LVU266
 857 0048 2046     		mov	r0, r4
 858 004a FFF7FEFF 		bl	lv_mem_free
 859              	.LVL71:
 152:Drivers/lvgl/src/misc/lv_anim.c ****                                        the linked list*/
 860              		.loc 1 152 13 view .LVU267
 861 004e FFF7FEFF 		bl	anim_mark_list_change
 862              	.LVL72:
 154:Drivers/lvgl/src/misc/lv_anim.c ****         }
 863              		.loc 1 154 13 view .LVU268
 154:Drivers/lvgl/src/misc/lv_anim.c ****         }
 864              		.loc 1 154 17 is_stmt 0 view .LVU269
 865 0052 4FF00108 		mov	r8, #1
 866 0056 E2E7     		b	.L57
 867              	.LVL73:
 868              	.L62:
 160:Drivers/lvgl/src/misc/lv_anim.c **** }
 869              		.loc 1 160 5 is_stmt 1 view .LVU270
 161:Drivers/lvgl/src/misc/lv_anim.c **** 
 870              		.loc 1 161 1 is_stmt 0 view .LVU271
 871 0058 4046     		mov	r0, r8
 872 005a BDE8F081 		pop	{r4, r5, r6, r7, r8, pc}
 873              	.LVL74:
 874              	.L64:
 161:Drivers/lvgl/src/misc/lv_anim.c **** 
 875              		.loc 1 161 1 view .LVU272
 876 005e 00BF     		.align	2
ARM GAS  /var/folders/0z/tsy30v1j4xl4_7kw94k978ww0000gn/T//ccXOXT9Z.s 			page 29


 877              	.L63:
 878 0060 00000000 		.word	_lv_anim_ll
 879              		.cfi_endproc
 880              	.LFE49:
 882              		.section	.text.lv_anim_start,"ax",%progbits
 883              		.align	1
 884              		.global	lv_anim_start
 885              		.syntax unified
 886              		.thumb
 887              		.thumb_func
 889              	lv_anim_start:
 890              	.LVL75:
 891              	.LFB47:
  77:Drivers/lvgl/src/misc/lv_anim.c ****     TRACE_ANIM("begin");
 892              		.loc 1 77 1 is_stmt 1 view -0
 893              		.cfi_startproc
 894              		@ args = 0, pretend = 0, frame = 0
 895              		@ frame_needed = 0, uses_anonymous_args = 0
  77:Drivers/lvgl/src/misc/lv_anim.c ****     TRACE_ANIM("begin");
 896              		.loc 1 77 1 is_stmt 0 view .LVU274
 897 0000 38B5     		push	{r3, r4, r5, lr}
 898              		.cfi_def_cfa_offset 16
 899              		.cfi_offset 3, -16
 900              		.cfi_offset 4, -12
 901              		.cfi_offset 5, -8
 902              		.cfi_offset 14, -4
 903 0002 0446     		mov	r4, r0
  78:Drivers/lvgl/src/misc/lv_anim.c **** 
 904              		.loc 1 78 24 is_stmt 1 view .LVU275
  81:Drivers/lvgl/src/misc/lv_anim.c **** 
 905              		.loc 1 81 5 view .LVU276
  81:Drivers/lvgl/src/misc/lv_anim.c **** 
 906              		.loc 1 81 9 is_stmt 0 view .LVU277
 907 0004 4168     		ldr	r1, [r0, #4]
  81:Drivers/lvgl/src/misc/lv_anim.c **** 
 908              		.loc 1 81 7 view .LVU278
 909 0006 11B1     		cbz	r1, .L66
  81:Drivers/lvgl/src/misc/lv_anim.c **** 
 910              		.loc 1 81 28 is_stmt 1 discriminator 1 view .LVU279
 911 0008 0068     		ldr	r0, [r0]
 912              	.LVL76:
  81:Drivers/lvgl/src/misc/lv_anim.c **** 
 913              		.loc 1 81 28 is_stmt 0 discriminator 1 view .LVU280
 914 000a FFF7FEFF 		bl	lv_anim_del
 915              	.LVL77:
 916              	.L66:
  84:Drivers/lvgl/src/misc/lv_anim.c ****         last_timer_run = lv_tick_get();
 917              		.loc 1 84 5 is_stmt 1 view .LVU281
  84:Drivers/lvgl/src/misc/lv_anim.c ****         last_timer_run = lv_tick_get();
 918              		.loc 1 84 8 is_stmt 0 view .LVU282
 919 000e 1C48     		ldr	r0, .L76
 920 0010 FFF7FEFF 		bl	_lv_ll_is_empty
 921              	.LVL78:
  84:Drivers/lvgl/src/misc/lv_anim.c ****         last_timer_run = lv_tick_get();
 922              		.loc 1 84 7 view .LVU283
 923 0014 58BB     		cbnz	r0, .L74
 924              	.L67:
ARM GAS  /var/folders/0z/tsy30v1j4xl4_7kw94k978ww0000gn/T//ccXOXT9Z.s 			page 30


  89:Drivers/lvgl/src/misc/lv_anim.c ****     LV_ASSERT_MALLOC(new_anim);
 925              		.loc 1 89 5 is_stmt 1 view .LVU284
  89:Drivers/lvgl/src/misc/lv_anim.c ****     LV_ASSERT_MALLOC(new_anim);
 926              		.loc 1 89 28 is_stmt 0 view .LVU285
 927 0016 1A48     		ldr	r0, .L76
 928 0018 FFF7FEFF 		bl	_lv_ll_ins_head
 929              	.LVL79:
  90:Drivers/lvgl/src/misc/lv_anim.c ****     if(new_anim == NULL) return NULL;
 930              		.loc 1 90 5 is_stmt 1 view .LVU286
  90:Drivers/lvgl/src/misc/lv_anim.c ****     if(new_anim == NULL) return NULL;
 931              		.loc 1 90 5 view .LVU287
 932 001c 0546     		mov	r5, r0
 933 001e 58B3     		cbz	r0, .L69
  90:Drivers/lvgl/src/misc/lv_anim.c ****     if(new_anim == NULL) return NULL;
 934              		.loc 1 90 5 view .LVU288
  90:Drivers/lvgl/src/misc/lv_anim.c ****     if(new_anim == NULL) return NULL;
 935              		.loc 1 90 31 view .LVU289
  91:Drivers/lvgl/src/misc/lv_anim.c **** 
 936              		.loc 1 91 5 view .LVU290
  94:Drivers/lvgl/src/misc/lv_anim.c ****     if(a->var == a) new_anim->var = new_anim;
 937              		.loc 1 94 5 view .LVU291
 938 0020 4422     		movs	r2, #68
 939 0022 2146     		mov	r1, r4
 940 0024 FFF7FEFF 		bl	lv_memcpy
 941              	.LVL80:
  95:Drivers/lvgl/src/misc/lv_anim.c ****     new_anim->run_round = anim_run_round;
 942              		.loc 1 95 5 view .LVU292
  95:Drivers/lvgl/src/misc/lv_anim.c ****     new_anim->run_round = anim_run_round;
 943              		.loc 1 95 9 is_stmt 0 view .LVU293
 944 0028 2368     		ldr	r3, [r4]
  95:Drivers/lvgl/src/misc/lv_anim.c ****     new_anim->run_round = anim_run_round;
 945              		.loc 1 95 7 view .LVU294
 946 002a A342     		cmp	r3, r4
 947 002c 25D0     		beq	.L75
 948              	.L70:
  96:Drivers/lvgl/src/misc/lv_anim.c **** 
 949              		.loc 1 96 5 is_stmt 1 view .LVU295
  96:Drivers/lvgl/src/misc/lv_anim.c **** 
 950              		.loc 1 96 25 is_stmt 0 view .LVU296
 951 002e 95F84230 		ldrb	r3, [r5, #66]	@ zero_extendqisi2
 952 0032 144A     		ldr	r2, .L76+4
 953 0034 1278     		ldrb	r2, [r2]	@ zero_extendqisi2
 954 0036 62F38203 		bfi	r3, r2, #2, #1
 955 003a 85F84230 		strb	r3, [r5, #66]
  99:Drivers/lvgl/src/misc/lv_anim.c ****         if(new_anim->get_value_cb) {
 956              		.loc 1 99 5 is_stmt 1 view .LVU297
  99:Drivers/lvgl/src/misc/lv_anim.c ****         if(new_anim->get_value_cb) {
 957              		.loc 1 99 8 is_stmt 0 view .LVU298
 958 003e DBB2     		uxtb	r3, r3
  99:Drivers/lvgl/src/misc/lv_anim.c ****         if(new_anim->get_value_cb) {
 959              		.loc 1 99 7 view .LVU299
 960 0040 13F0010F 		tst	r3, #1
 961 0044 0FD0     		beq	.L71
 100:Drivers/lvgl/src/misc/lv_anim.c ****             int32_t v_ofs = new_anim->get_value_cb(new_anim);
 962              		.loc 1 100 9 is_stmt 1 view .LVU300
 100:Drivers/lvgl/src/misc/lv_anim.c ****             int32_t v_ofs = new_anim->get_value_cb(new_anim);
 963              		.loc 1 100 20 is_stmt 0 view .LVU301
ARM GAS  /var/folders/0z/tsy30v1j4xl4_7kw94k978ww0000gn/T//ccXOXT9Z.s 			page 31


 964 0046 6B69     		ldr	r3, [r5, #20]
 100:Drivers/lvgl/src/misc/lv_anim.c ****             int32_t v_ofs = new_anim->get_value_cb(new_anim);
 965              		.loc 1 100 11 view .LVU302
 966 0048 3BB1     		cbz	r3, .L72
 967              	.LBB8:
 101:Drivers/lvgl/src/misc/lv_anim.c ****             new_anim->start_value += v_ofs;
 968              		.loc 1 101 13 is_stmt 1 view .LVU303
 101:Drivers/lvgl/src/misc/lv_anim.c ****             new_anim->start_value += v_ofs;
 969              		.loc 1 101 29 is_stmt 0 view .LVU304
 970 004a 2846     		mov	r0, r5
 971 004c 9847     		blx	r3
 972              	.LVL81:
 102:Drivers/lvgl/src/misc/lv_anim.c ****             new_anim->end_value += v_ofs;
 973              		.loc 1 102 13 is_stmt 1 view .LVU305
 102:Drivers/lvgl/src/misc/lv_anim.c ****             new_anim->end_value += v_ofs;
 974              		.loc 1 102 35 is_stmt 0 view .LVU306
 975 004e 2B6A     		ldr	r3, [r5, #32]
 976 0050 0344     		add	r3, r3, r0
 977 0052 2B62     		str	r3, [r5, #32]
 103:Drivers/lvgl/src/misc/lv_anim.c ****         }
 978              		.loc 1 103 13 is_stmt 1 view .LVU307
 103:Drivers/lvgl/src/misc/lv_anim.c ****         }
 979              		.loc 1 103 33 is_stmt 0 view .LVU308
 980 0054 AB6A     		ldr	r3, [r5, #40]
 981 0056 0344     		add	r3, r3, r0
 982 0058 AB62     		str	r3, [r5, #40]
 983              	.LVL82:
 984              	.L72:
 103:Drivers/lvgl/src/misc/lv_anim.c ****         }
 985              		.loc 1 103 33 view .LVU309
 986              	.LBE8:
 106:Drivers/lvgl/src/misc/lv_anim.c ****     }
 987              		.loc 1 106 9 is_stmt 1 view .LVU310
 106:Drivers/lvgl/src/misc/lv_anim.c ****     }
 988              		.loc 1 106 20 is_stmt 0 view .LVU311
 989 005a 6B68     		ldr	r3, [r5, #4]
 106:Drivers/lvgl/src/misc/lv_anim.c ****     }
 990              		.loc 1 106 11 view .LVU312
 991 005c 1BB1     		cbz	r3, .L71
 106:Drivers/lvgl/src/misc/lv_anim.c ****     }
 992              		.loc 1 106 41 discriminator 1 view .LVU313
 993 005e 2868     		ldr	r0, [r5]
 106:Drivers/lvgl/src/misc/lv_anim.c ****     }
 994              		.loc 1 106 30 discriminator 1 view .LVU314
 995 0060 08B1     		cbz	r0, .L71
 106:Drivers/lvgl/src/misc/lv_anim.c ****     }
 996              		.loc 1 106 48 is_stmt 1 discriminator 2 view .LVU315
 997 0062 296A     		ldr	r1, [r5, #32]
 998 0064 9847     		blx	r3
 999              	.LVL83:
 1000              	.L71:
 111:Drivers/lvgl/src/misc/lv_anim.c **** 
 1001              		.loc 1 111 5 view .LVU316
 1002 0066 FFF7FEFF 		bl	anim_mark_list_change
 1003              	.LVL84:
 113:Drivers/lvgl/src/misc/lv_anim.c ****     return new_anim;
 1004              		.loc 1 113 27 view .LVU317
ARM GAS  /var/folders/0z/tsy30v1j4xl4_7kw94k978ww0000gn/T//ccXOXT9Z.s 			page 32


 114:Drivers/lvgl/src/misc/lv_anim.c **** }
 1005              		.loc 1 114 5 view .LVU318
 115:Drivers/lvgl/src/misc/lv_anim.c **** 
 1006              		.loc 1 115 1 is_stmt 0 view .LVU319
 1007 006a 2846     		mov	r0, r5
 1008 006c 38BD     		pop	{r3, r4, r5, pc}
 1009              	.LVL85:
 1010              	.L74:
  85:Drivers/lvgl/src/misc/lv_anim.c ****     }
 1011              		.loc 1 85 9 is_stmt 1 view .LVU320
  85:Drivers/lvgl/src/misc/lv_anim.c ****     }
 1012              		.loc 1 85 26 is_stmt 0 view .LVU321
 1013 006e FFF7FEFF 		bl	lv_tick_get
 1014              	.LVL86:
  85:Drivers/lvgl/src/misc/lv_anim.c ****     }
 1015              		.loc 1 85 24 view .LVU322
 1016 0072 054B     		ldr	r3, .L76+8
 1017 0074 1860     		str	r0, [r3]
 1018 0076 CEE7     		b	.L67
 1019              	.LVL87:
 1020              	.L69:
  90:Drivers/lvgl/src/misc/lv_anim.c ****     if(new_anim == NULL) return NULL;
 1021              		.loc 1 90 5 is_stmt 1 discriminator 1 view .LVU323
  90:Drivers/lvgl/src/misc/lv_anim.c ****     if(new_anim == NULL) return NULL;
 1022              		.loc 1 90 5 discriminator 1 view .LVU324
  90:Drivers/lvgl/src/misc/lv_anim.c ****     if(new_anim == NULL) return NULL;
 1023              		.loc 1 90 5 discriminator 1 view .LVU325
  90:Drivers/lvgl/src/misc/lv_anim.c ****     if(new_anim == NULL) return NULL;
 1024              		.loc 1 90 5 discriminator 1 view .LVU326
  90:Drivers/lvgl/src/misc/lv_anim.c ****     if(new_anim == NULL) return NULL;
 1025              		.loc 1 90 5 discriminator 1 view .LVU327
 1026 0078 FEE7     		b	.L69
 1027              	.LVL88:
 1028              	.L75:
  95:Drivers/lvgl/src/misc/lv_anim.c ****     new_anim->run_round = anim_run_round;
 1029              		.loc 1 95 21 discriminator 1 view .LVU328
  95:Drivers/lvgl/src/misc/lv_anim.c ****     new_anim->run_round = anim_run_round;
 1030              		.loc 1 95 35 is_stmt 0 discriminator 1 view .LVU329
 1031 007a 2D60     		str	r5, [r5]
 1032 007c D7E7     		b	.L70
 1033              	.L77:
 1034 007e 00BF     		.align	2
 1035              	.L76:
 1036 0080 00000000 		.word	_lv_anim_ll
 1037 0084 00000000 		.word	.LANCHOR3
 1038 0088 00000000 		.word	.LANCHOR2
 1039              		.cfi_endproc
 1040              	.LFE47:
 1042              		.section	.text.lv_anim_del_all,"ax",%progbits
 1043              		.align	1
 1044              		.global	lv_anim_del_all
 1045              		.syntax unified
 1046              		.thumb
 1047              		.thumb_func
 1049              	lv_anim_del_all:
 1050              	.LFB50:
 164:Drivers/lvgl/src/misc/lv_anim.c ****     _lv_ll_clear(&LV_GC_ROOT(_lv_anim_ll));
ARM GAS  /var/folders/0z/tsy30v1j4xl4_7kw94k978ww0000gn/T//ccXOXT9Z.s 			page 33


 1051              		.loc 1 164 1 is_stmt 1 view -0
 1052              		.cfi_startproc
 1053              		@ args = 0, pretend = 0, frame = 0
 1054              		@ frame_needed = 0, uses_anonymous_args = 0
 1055 0000 08B5     		push	{r3, lr}
 1056              		.cfi_def_cfa_offset 8
 1057              		.cfi_offset 3, -8
 1058              		.cfi_offset 14, -4
 165:Drivers/lvgl/src/misc/lv_anim.c ****     anim_mark_list_change();
 1059              		.loc 1 165 5 view .LVU331
 1060 0002 0348     		ldr	r0, .L80
 1061 0004 FFF7FEFF 		bl	_lv_ll_clear
 1062              	.LVL89:
 166:Drivers/lvgl/src/misc/lv_anim.c **** }
 1063              		.loc 1 166 5 view .LVU332
 1064 0008 FFF7FEFF 		bl	anim_mark_list_change
 1065              	.LVL90:
 167:Drivers/lvgl/src/misc/lv_anim.c **** 
 1066              		.loc 1 167 1 is_stmt 0 view .LVU333
 1067 000c 08BD     		pop	{r3, pc}
 1068              	.L81:
 1069 000e 00BF     		.align	2
 1070              	.L80:
 1071 0010 00000000 		.word	_lv_anim_ll
 1072              		.cfi_endproc
 1073              	.LFE50:
 1075              		.section	.text.lv_anim_get,"ax",%progbits
 1076              		.align	1
 1077              		.global	lv_anim_get
 1078              		.syntax unified
 1079              		.thumb
 1080              		.thumb_func
 1082              	lv_anim_get:
 1083              	.LVL91:
 1084              	.LFB51:
 170:Drivers/lvgl/src/misc/lv_anim.c ****     lv_anim_t * a;
 1085              		.loc 1 170 1 is_stmt 1 view -0
 1086              		.cfi_startproc
 1087              		@ args = 0, pretend = 0, frame = 0
 1088              		@ frame_needed = 0, uses_anonymous_args = 0
 170:Drivers/lvgl/src/misc/lv_anim.c ****     lv_anim_t * a;
 1089              		.loc 1 170 1 is_stmt 0 view .LVU335
 1090 0000 38B5     		push	{r3, r4, r5, lr}
 1091              		.cfi_def_cfa_offset 16
 1092              		.cfi_offset 3, -16
 1093              		.cfi_offset 4, -12
 1094              		.cfi_offset 5, -8
 1095              		.cfi_offset 14, -4
 1096 0002 0446     		mov	r4, r0
 1097 0004 0D46     		mov	r5, r1
 171:Drivers/lvgl/src/misc/lv_anim.c ****     _LV_LL_READ(&LV_GC_ROOT(_lv_anim_ll), a) {
 1098              		.loc 1 171 5 is_stmt 1 view .LVU336
 172:Drivers/lvgl/src/misc/lv_anim.c ****         if(a->var == var && (a->exec_cb == exec_cb || exec_cb == NULL)) {
 1099              		.loc 1 172 5 view .LVU337
 1100 0006 0A48     		ldr	r0, .L88
 1101              	.LVL92:
 172:Drivers/lvgl/src/misc/lv_anim.c ****         if(a->var == var && (a->exec_cb == exec_cb || exec_cb == NULL)) {
ARM GAS  /var/folders/0z/tsy30v1j4xl4_7kw94k978ww0000gn/T//ccXOXT9Z.s 			page 34


 1102              		.loc 1 172 5 is_stmt 0 view .LVU338
 1103 0008 FFF7FEFF 		bl	_lv_ll_get_head
 1104              	.LVL93:
 172:Drivers/lvgl/src/misc/lv_anim.c ****         if(a->var == var && (a->exec_cb == exec_cb || exec_cb == NULL)) {
 1105              		.loc 1 172 5 view .LVU339
 1106 000c 0146     		mov	r1, r0
 1107              	.LVL94:
 172:Drivers/lvgl/src/misc/lv_anim.c ****         if(a->var == var && (a->exec_cb == exec_cb || exec_cb == NULL)) {
 1108              		.loc 1 172 5 view .LVU340
 1109 000e 03E0     		b	.L83
 1110              	.L84:
 172:Drivers/lvgl/src/misc/lv_anim.c ****         if(a->var == var && (a->exec_cb == exec_cb || exec_cb == NULL)) {
 1111              		.loc 1 172 5 is_stmt 1 discriminator 2 view .LVU341
 1112 0010 0748     		ldr	r0, .L88
 1113              	.LVL95:
 172:Drivers/lvgl/src/misc/lv_anim.c ****         if(a->var == var && (a->exec_cb == exec_cb || exec_cb == NULL)) {
 1114              		.loc 1 172 5 is_stmt 0 discriminator 2 view .LVU342
 1115 0012 FFF7FEFF 		bl	_lv_ll_get_next
 1116              	.LVL96:
 172:Drivers/lvgl/src/misc/lv_anim.c ****         if(a->var == var && (a->exec_cb == exec_cb || exec_cb == NULL)) {
 1117              		.loc 1 172 5 discriminator 2 view .LVU343
 1118 0016 0146     		mov	r1, r0
 1119              	.LVL97:
 1120              	.L83:
 172:Drivers/lvgl/src/misc/lv_anim.c ****         if(a->var == var && (a->exec_cb == exec_cb || exec_cb == NULL)) {
 1121              		.loc 1 172 5 is_stmt 1 discriminator 1 view .LVU344
 1122 0018 39B1     		cbz	r1, .L82
 173:Drivers/lvgl/src/misc/lv_anim.c ****             return a;
 1123              		.loc 1 173 9 view .LVU345
 173:Drivers/lvgl/src/misc/lv_anim.c ****             return a;
 1124              		.loc 1 173 13 is_stmt 0 view .LVU346
 1125 001a 0B68     		ldr	r3, [r1]
 173:Drivers/lvgl/src/misc/lv_anim.c ****             return a;
 1126              		.loc 1 173 11 view .LVU347
 1127 001c A342     		cmp	r3, r4
 1128 001e F7D1     		bne	.L84
 173:Drivers/lvgl/src/misc/lv_anim.c ****             return a;
 1129              		.loc 1 173 31 discriminator 1 view .LVU348
 1130 0020 4B68     		ldr	r3, [r1, #4]
 173:Drivers/lvgl/src/misc/lv_anim.c ****             return a;
 1131              		.loc 1 173 26 discriminator 1 view .LVU349
 1132 0022 AB42     		cmp	r3, r5
 1133 0024 01D0     		beq	.L82
 173:Drivers/lvgl/src/misc/lv_anim.c ****             return a;
 1134              		.loc 1 173 52 discriminator 2 view .LVU350
 1135 0026 002D     		cmp	r5, #0
 1136 0028 F2D1     		bne	.L84
 1137              	.L82:
 179:Drivers/lvgl/src/misc/lv_anim.c **** 
 1138              		.loc 1 179 1 view .LVU351
 1139 002a 0846     		mov	r0, r1
 1140              	.LVL98:
 179:Drivers/lvgl/src/misc/lv_anim.c **** 
 1141              		.loc 1 179 1 view .LVU352
 1142 002c 38BD     		pop	{r3, r4, r5, pc}
 1143              	.LVL99:
 1144              	.L89:
ARM GAS  /var/folders/0z/tsy30v1j4xl4_7kw94k978ww0000gn/T//ccXOXT9Z.s 			page 35


 179:Drivers/lvgl/src/misc/lv_anim.c **** 
 1145              		.loc 1 179 1 view .LVU353
 1146 002e 00BF     		.align	2
 1147              	.L88:
 1148 0030 00000000 		.word	_lv_anim_ll
 1149              		.cfi_endproc
 1150              	.LFE51:
 1152              		.section	.text.lv_anim_get_timer,"ax",%progbits
 1153              		.align	1
 1154              		.global	lv_anim_get_timer
 1155              		.syntax unified
 1156              		.thumb
 1157              		.thumb_func
 1159              	lv_anim_get_timer:
 1160              	.LFB52:
 182:Drivers/lvgl/src/misc/lv_anim.c ****     return _lv_anim_tmr;
 1161              		.loc 1 182 1 is_stmt 1 view -0
 1162              		.cfi_startproc
 1163              		@ args = 0, pretend = 0, frame = 0
 1164              		@ frame_needed = 0, uses_anonymous_args = 0
 1165              		@ link register save eliminated.
 183:Drivers/lvgl/src/misc/lv_anim.c **** }
 1166              		.loc 1 183 5 view .LVU355
 184:Drivers/lvgl/src/misc/lv_anim.c **** 
 1167              		.loc 1 184 1 is_stmt 0 view .LVU356
 1168 0000 014B     		ldr	r3, .L91
 1169 0002 1868     		ldr	r0, [r3]
 1170 0004 7047     		bx	lr
 1171              	.L92:
 1172 0006 00BF     		.align	2
 1173              	.L91:
 1174 0008 00000000 		.word	.LANCHOR1
 1175              		.cfi_endproc
 1176              	.LFE52:
 1178              		.section	.text.lv_anim_count_running,"ax",%progbits
 1179              		.align	1
 1180              		.global	lv_anim_count_running
 1181              		.syntax unified
 1182              		.thumb
 1183              		.thumb_func
 1185              	lv_anim_count_running:
 1186              	.LFB53:
 187:Drivers/lvgl/src/misc/lv_anim.c ****     uint16_t cnt = 0;
 1187              		.loc 1 187 1 is_stmt 1 view -0
 1188              		.cfi_startproc
 1189              		@ args = 0, pretend = 0, frame = 0
 1190              		@ frame_needed = 0, uses_anonymous_args = 0
 1191 0000 10B5     		push	{r4, lr}
 1192              		.cfi_def_cfa_offset 8
 1193              		.cfi_offset 4, -8
 1194              		.cfi_offset 14, -4
 188:Drivers/lvgl/src/misc/lv_anim.c ****     lv_anim_t * a;
 1195              		.loc 1 188 5 view .LVU358
 1196              	.LVL100:
 189:Drivers/lvgl/src/misc/lv_anim.c ****     _LV_LL_READ(&LV_GC_ROOT(_lv_anim_ll), a) cnt++;
 1197              		.loc 1 189 5 view .LVU359
 190:Drivers/lvgl/src/misc/lv_anim.c **** 
ARM GAS  /var/folders/0z/tsy30v1j4xl4_7kw94k978ww0000gn/T//ccXOXT9Z.s 			page 36


 1198              		.loc 1 190 5 view .LVU360
 1199 0002 0848     		ldr	r0, .L97
 1200 0004 FFF7FEFF 		bl	_lv_ll_get_head
 1201              	.LVL101:
 1202 0008 0146     		mov	r1, r0
 1203              	.LVL102:
 188:Drivers/lvgl/src/misc/lv_anim.c ****     lv_anim_t * a;
 1204              		.loc 1 188 14 is_stmt 0 view .LVU361
 1205 000a 0024     		movs	r4, #0
 190:Drivers/lvgl/src/misc/lv_anim.c **** 
 1206              		.loc 1 190 5 view .LVU362
 1207 000c 05E0     		b	.L94
 1208              	.LVL103:
 1209              	.L95:
 190:Drivers/lvgl/src/misc/lv_anim.c **** 
 1210              		.loc 1 190 46 is_stmt 1 discriminator 3 view .LVU363
 190:Drivers/lvgl/src/misc/lv_anim.c **** 
 1211              		.loc 1 190 49 is_stmt 0 discriminator 3 view .LVU364
 1212 000e 0134     		adds	r4, r4, #1
 1213              	.LVL104:
 190:Drivers/lvgl/src/misc/lv_anim.c **** 
 1214              		.loc 1 190 49 discriminator 3 view .LVU365
 1215 0010 A4B2     		uxth	r4, r4
 1216              	.LVL105:
 190:Drivers/lvgl/src/misc/lv_anim.c **** 
 1217              		.loc 1 190 5 is_stmt 1 discriminator 3 view .LVU366
 1218 0012 0448     		ldr	r0, .L97
 1219              	.LVL106:
 190:Drivers/lvgl/src/misc/lv_anim.c **** 
 1220              		.loc 1 190 5 is_stmt 0 discriminator 3 view .LVU367
 1221 0014 FFF7FEFF 		bl	_lv_ll_get_next
 1222              	.LVL107:
 190:Drivers/lvgl/src/misc/lv_anim.c **** 
 1223              		.loc 1 190 5 discriminator 3 view .LVU368
 1224 0018 0146     		mov	r1, r0
 1225              	.LVL108:
 1226              	.L94:
 190:Drivers/lvgl/src/misc/lv_anim.c **** 
 1227              		.loc 1 190 5 is_stmt 1 discriminator 1 view .LVU369
 1228 001a 0029     		cmp	r1, #0
 1229 001c F7D1     		bne	.L95
 192:Drivers/lvgl/src/misc/lv_anim.c **** }
 1230              		.loc 1 192 5 view .LVU370
 193:Drivers/lvgl/src/misc/lv_anim.c **** 
 1231              		.loc 1 193 1 is_stmt 0 view .LVU371
 1232 001e 2046     		mov	r0, r4
 1233              	.LVL109:
 193:Drivers/lvgl/src/misc/lv_anim.c **** 
 1234              		.loc 1 193 1 view .LVU372
 1235 0020 10BD     		pop	{r4, pc}
 1236              	.LVL110:
 1237              	.L98:
 193:Drivers/lvgl/src/misc/lv_anim.c **** 
 1238              		.loc 1 193 1 view .LVU373
 1239 0022 00BF     		.align	2
 1240              	.L97:
 1241 0024 00000000 		.word	_lv_anim_ll
ARM GAS  /var/folders/0z/tsy30v1j4xl4_7kw94k978ww0000gn/T//ccXOXT9Z.s 			page 37


 1242              		.cfi_endproc
 1243              	.LFE53:
 1245              		.section	.text.lv_anim_speed_to_time,"ax",%progbits
 1246              		.align	1
 1247              		.global	lv_anim_speed_to_time
 1248              		.syntax unified
 1249              		.thumb
 1250              		.thumb_func
 1252              	lv_anim_speed_to_time:
 1253              	.LVL111:
 1254              	.LFB54:
 196:Drivers/lvgl/src/misc/lv_anim.c ****     uint32_t d    = LV_ABS(start - end);
 1255              		.loc 1 196 1 is_stmt 1 view -0
 1256              		.cfi_startproc
 1257              		@ args = 0, pretend = 0, frame = 0
 1258              		@ frame_needed = 0, uses_anonymous_args = 0
 1259              		@ link register save eliminated.
 196:Drivers/lvgl/src/misc/lv_anim.c ****     uint32_t d    = LV_ABS(start - end);
 1260              		.loc 1 196 1 is_stmt 0 view .LVU375
 1261 0000 0346     		mov	r3, r0
 197:Drivers/lvgl/src/misc/lv_anim.c ****     uint32_t time = (d * 1000) / speed;
 1262              		.loc 1 197 5 is_stmt 1 view .LVU376
 197:Drivers/lvgl/src/misc/lv_anim.c ****     uint32_t time = (d * 1000) / speed;
 1263              		.loc 1 197 21 is_stmt 0 view .LVU377
 1264 0002 891A     		subs	r1, r1, r2
 1265              	.LVL112:
 197:Drivers/lvgl/src/misc/lv_anim.c ****     uint32_t time = (d * 1000) / speed;
 1266              		.loc 1 197 21 view .LVU378
 1267 0004 0029     		cmp	r1, #0
 1268 0006 B8BF     		it	lt
 1269 0008 4942     		rsblt	r1, r1, #0
 1270              	.LVL113:
 198:Drivers/lvgl/src/misc/lv_anim.c **** 
 1271              		.loc 1 198 5 is_stmt 1 view .LVU379
 198:Drivers/lvgl/src/misc/lv_anim.c **** 
 1272              		.loc 1 198 24 is_stmt 0 view .LVU380
 1273 000a 4FF47A72 		mov	r2, #1000
 1274              	.LVL114:
 198:Drivers/lvgl/src/misc/lv_anim.c **** 
 1275              		.loc 1 198 24 view .LVU381
 1276 000e 02FB01F1 		mul	r1, r2, r1
 1277              	.LVL115:
 198:Drivers/lvgl/src/misc/lv_anim.c **** 
 1278              		.loc 1 198 14 view .LVU382
 1279 0012 B1FBF0F0 		udiv	r0, r1, r0
 1280              	.LVL116:
 200:Drivers/lvgl/src/misc/lv_anim.c ****         time++;
 1281              		.loc 1 200 5 is_stmt 1 view .LVU383
 200:Drivers/lvgl/src/misc/lv_anim.c ****         time++;
 1282              		.loc 1 200 7 is_stmt 0 view .LVU384
 1283 0016 9942     		cmp	r1, r3
 1284              	.LVL117:
 200:Drivers/lvgl/src/misc/lv_anim.c ****         time++;
 1285              		.loc 1 200 7 view .LVU385
 1286 0018 00D2     		bcs	.L99
 201:Drivers/lvgl/src/misc/lv_anim.c ****     }
 1287              		.loc 1 201 9 is_stmt 1 view .LVU386
ARM GAS  /var/folders/0z/tsy30v1j4xl4_7kw94k978ww0000gn/T//ccXOXT9Z.s 			page 38


 201:Drivers/lvgl/src/misc/lv_anim.c ****     }
 1288              		.loc 1 201 13 is_stmt 0 view .LVU387
 1289 001a 0130     		adds	r0, r0, #1
 1290              	.LVL118:
 204:Drivers/lvgl/src/misc/lv_anim.c **** }
 1291              		.loc 1 204 5 is_stmt 1 view .LVU388
 1292              	.L99:
 205:Drivers/lvgl/src/misc/lv_anim.c **** 
 1293              		.loc 1 205 1 is_stmt 0 view .LVU389
 1294 001c 7047     		bx	lr
 1295              		.cfi_endproc
 1296              	.LFE54:
 1298              		.section	.text.lv_anim_refr_now,"ax",%progbits
 1299              		.align	1
 1300              		.global	lv_anim_refr_now
 1301              		.syntax unified
 1302              		.thumb
 1303              		.thumb_func
 1305              	lv_anim_refr_now:
 1306              	.LFB55:
 208:Drivers/lvgl/src/misc/lv_anim.c ****     anim_timer(NULL);
 1307              		.loc 1 208 1 is_stmt 1 view -0
 1308              		.cfi_startproc
 1309              		@ args = 0, pretend = 0, frame = 0
 1310              		@ frame_needed = 0, uses_anonymous_args = 0
 1311 0000 08B5     		push	{r3, lr}
 1312              		.cfi_def_cfa_offset 8
 1313              		.cfi_offset 3, -8
 1314              		.cfi_offset 14, -4
 209:Drivers/lvgl/src/misc/lv_anim.c **** }
 1315              		.loc 1 209 5 view .LVU391
 1316 0002 0020     		movs	r0, #0
 1317 0004 FFF7FEFF 		bl	anim_timer
 1318              	.LVL119:
 210:Drivers/lvgl/src/misc/lv_anim.c **** 
 1319              		.loc 1 210 1 is_stmt 0 view .LVU392
 1320 0008 08BD     		pop	{r3, pc}
 1321              		.cfi_endproc
 1322              	.LFE55:
 1324              		.section	.text.lv_anim_path_ease_in,"ax",%progbits
 1325              		.align	1
 1326              		.global	lv_anim_path_ease_in
 1327              		.syntax unified
 1328              		.thumb
 1329              		.thumb_func
 1331              	lv_anim_path_ease_in:
 1332              	.LVL120:
 1333              	.LFB57:
 228:Drivers/lvgl/src/misc/lv_anim.c ****     /*Calculate the current step*/
 1334              		.loc 1 228 1 is_stmt 1 view -0
 1335              		.cfi_startproc
 1336              		@ args = 0, pretend = 0, frame = 0
 1337              		@ frame_needed = 0, uses_anonymous_args = 0
 228:Drivers/lvgl/src/misc/lv_anim.c ****     /*Calculate the current step*/
 1338              		.loc 1 228 1 is_stmt 0 view .LVU394
 1339 0000 30B5     		push	{r4, r5, lr}
 1340              		.cfi_def_cfa_offset 12
ARM GAS  /var/folders/0z/tsy30v1j4xl4_7kw94k978ww0000gn/T//ccXOXT9Z.s 			page 39


 1341              		.cfi_offset 4, -12
 1342              		.cfi_offset 5, -8
 1343              		.cfi_offset 14, -4
 1344 0002 83B0     		sub	sp, sp, #12
 1345              		.cfi_def_cfa_offset 24
 1346 0004 0446     		mov	r4, r0
 230:Drivers/lvgl/src/misc/lv_anim.c ****     int32_t step = lv_bezier3(t, 0, 50, 100, LV_BEZIER_VAL_MAX);
 1347              		.loc 1 230 5 is_stmt 1 view .LVU395
 230:Drivers/lvgl/src/misc/lv_anim.c ****     int32_t step = lv_bezier3(t, 0, 50, 100, LV_BEZIER_VAL_MAX);
 1348              		.loc 1 230 18 is_stmt 0 view .LVU396
 1349 0006 4FF48065 		mov	r5, #1024
 1350 000a 0095     		str	r5, [sp]
 1351 000c 0023     		movs	r3, #0
 1352 000e C26A     		ldr	r2, [r0, #44]
 1353 0010 1946     		mov	r1, r3
 1354 0012 006B     		ldr	r0, [r0, #48]
 1355              	.LVL121:
 230:Drivers/lvgl/src/misc/lv_anim.c ****     int32_t step = lv_bezier3(t, 0, 50, 100, LV_BEZIER_VAL_MAX);
 1356              		.loc 1 230 18 view .LVU397
 1357 0014 FFF7FEFF 		bl	lv_map
 1358              	.LVL122:
 231:Drivers/lvgl/src/misc/lv_anim.c **** 
 1359              		.loc 1 231 5 is_stmt 1 view .LVU398
 231:Drivers/lvgl/src/misc/lv_anim.c **** 
 1360              		.loc 1 231 20 is_stmt 0 view .LVU399
 1361 0018 0095     		str	r5, [sp]
 1362 001a 6423     		movs	r3, #100
 1363 001c 3222     		movs	r2, #50
 1364 001e 0021     		movs	r1, #0
 1365 0020 FFF7FEFF 		bl	lv_bezier3
 1366              	.LVL123:
 233:Drivers/lvgl/src/misc/lv_anim.c ****     new_value = step * (a->end_value - a->start_value);
 1367              		.loc 1 233 5 is_stmt 1 view .LVU400
 234:Drivers/lvgl/src/misc/lv_anim.c ****     new_value = new_value >> LV_BEZIER_VAL_SHIFT;
 1368              		.loc 1 234 5 view .LVU401
 234:Drivers/lvgl/src/misc/lv_anim.c ****     new_value = new_value >> LV_BEZIER_VAL_SHIFT;
 1369              		.loc 1 234 26 is_stmt 0 view .LVU402
 1370 0024 A36A     		ldr	r3, [r4, #40]
 234:Drivers/lvgl/src/misc/lv_anim.c ****     new_value = new_value >> LV_BEZIER_VAL_SHIFT;
 1371              		.loc 1 234 41 view .LVU403
 1372 0026 226A     		ldr	r2, [r4, #32]
 234:Drivers/lvgl/src/misc/lv_anim.c ****     new_value = new_value >> LV_BEZIER_VAL_SHIFT;
 1373              		.loc 1 234 38 view .LVU404
 1374 0028 9B1A     		subs	r3, r3, r2
 234:Drivers/lvgl/src/misc/lv_anim.c ****     new_value = new_value >> LV_BEZIER_VAL_SHIFT;
 1375              		.loc 1 234 15 view .LVU405
 1376 002a 03FB00F0 		mul	r0, r3, r0
 1377              	.LVL124:
 235:Drivers/lvgl/src/misc/lv_anim.c ****     new_value += a->start_value;
 1378              		.loc 1 235 5 is_stmt 1 view .LVU406
 236:Drivers/lvgl/src/misc/lv_anim.c **** 
 1379              		.loc 1 236 5 view .LVU407
 238:Drivers/lvgl/src/misc/lv_anim.c **** }
 1380              		.loc 1 238 5 view .LVU408
 239:Drivers/lvgl/src/misc/lv_anim.c **** 
 1381              		.loc 1 239 1 is_stmt 0 view .LVU409
 1382 002e 02EBA020 		add	r0, r2, r0, asr #10
ARM GAS  /var/folders/0z/tsy30v1j4xl4_7kw94k978ww0000gn/T//ccXOXT9Z.s 			page 40


 1383              	.LVL125:
 239:Drivers/lvgl/src/misc/lv_anim.c **** 
 1384              		.loc 1 239 1 view .LVU410
 1385 0032 03B0     		add	sp, sp, #12
 1386              		.cfi_def_cfa_offset 12
 1387              		@ sp needed
 1388 0034 30BD     		pop	{r4, r5, pc}
 239:Drivers/lvgl/src/misc/lv_anim.c **** 
 1389              		.loc 1 239 1 view .LVU411
 1390              		.cfi_endproc
 1391              	.LFE57:
 1393              		.section	.text.lv_anim_path_ease_out,"ax",%progbits
 1394              		.align	1
 1395              		.global	lv_anim_path_ease_out
 1396              		.syntax unified
 1397              		.thumb
 1398              		.thumb_func
 1400              	lv_anim_path_ease_out:
 1401              	.LVL126:
 1402              	.LFB58:
 242:Drivers/lvgl/src/misc/lv_anim.c ****     /*Calculate the current step*/
 1403              		.loc 1 242 1 is_stmt 1 view -0
 1404              		.cfi_startproc
 1405              		@ args = 0, pretend = 0, frame = 0
 1406              		@ frame_needed = 0, uses_anonymous_args = 0
 242:Drivers/lvgl/src/misc/lv_anim.c ****     /*Calculate the current step*/
 1407              		.loc 1 242 1 is_stmt 0 view .LVU413
 1408 0000 30B5     		push	{r4, r5, lr}
 1409              		.cfi_def_cfa_offset 12
 1410              		.cfi_offset 4, -12
 1411              		.cfi_offset 5, -8
 1412              		.cfi_offset 14, -4
 1413 0002 83B0     		sub	sp, sp, #12
 1414              		.cfi_def_cfa_offset 24
 1415 0004 0446     		mov	r4, r0
 244:Drivers/lvgl/src/misc/lv_anim.c ****     int32_t step = lv_bezier3(t, 0, 900, 950, LV_BEZIER_VAL_MAX);
 1416              		.loc 1 244 5 is_stmt 1 view .LVU414
 244:Drivers/lvgl/src/misc/lv_anim.c ****     int32_t step = lv_bezier3(t, 0, 900, 950, LV_BEZIER_VAL_MAX);
 1417              		.loc 1 244 18 is_stmt 0 view .LVU415
 1418 0006 4FF48065 		mov	r5, #1024
 1419 000a 0095     		str	r5, [sp]
 1420 000c 0023     		movs	r3, #0
 1421 000e C26A     		ldr	r2, [r0, #44]
 1422 0010 1946     		mov	r1, r3
 1423 0012 006B     		ldr	r0, [r0, #48]
 1424              	.LVL127:
 244:Drivers/lvgl/src/misc/lv_anim.c ****     int32_t step = lv_bezier3(t, 0, 900, 950, LV_BEZIER_VAL_MAX);
 1425              		.loc 1 244 18 view .LVU416
 1426 0014 FFF7FEFF 		bl	lv_map
 1427              	.LVL128:
 245:Drivers/lvgl/src/misc/lv_anim.c **** 
 1428              		.loc 1 245 5 is_stmt 1 view .LVU417
 245:Drivers/lvgl/src/misc/lv_anim.c **** 
 1429              		.loc 1 245 20 is_stmt 0 view .LVU418
 1430 0018 0095     		str	r5, [sp]
 1431 001a 40F2B633 		movw	r3, #950
 1432 001e 4FF46172 		mov	r2, #900
ARM GAS  /var/folders/0z/tsy30v1j4xl4_7kw94k978ww0000gn/T//ccXOXT9Z.s 			page 41


 1433 0022 0021     		movs	r1, #0
 1434 0024 FFF7FEFF 		bl	lv_bezier3
 1435              	.LVL129:
 247:Drivers/lvgl/src/misc/lv_anim.c ****     new_value = step * (a->end_value - a->start_value);
 1436              		.loc 1 247 5 is_stmt 1 view .LVU419
 248:Drivers/lvgl/src/misc/lv_anim.c ****     new_value = new_value >> LV_BEZIER_VAL_SHIFT;
 1437              		.loc 1 248 5 view .LVU420
 248:Drivers/lvgl/src/misc/lv_anim.c ****     new_value = new_value >> LV_BEZIER_VAL_SHIFT;
 1438              		.loc 1 248 26 is_stmt 0 view .LVU421
 1439 0028 A36A     		ldr	r3, [r4, #40]
 248:Drivers/lvgl/src/misc/lv_anim.c ****     new_value = new_value >> LV_BEZIER_VAL_SHIFT;
 1440              		.loc 1 248 41 view .LVU422
 1441 002a 226A     		ldr	r2, [r4, #32]
 248:Drivers/lvgl/src/misc/lv_anim.c ****     new_value = new_value >> LV_BEZIER_VAL_SHIFT;
 1442              		.loc 1 248 38 view .LVU423
 1443 002c 9B1A     		subs	r3, r3, r2
 248:Drivers/lvgl/src/misc/lv_anim.c ****     new_value = new_value >> LV_BEZIER_VAL_SHIFT;
 1444              		.loc 1 248 15 view .LVU424
 1445 002e 03FB00F0 		mul	r0, r3, r0
 1446              	.LVL130:
 249:Drivers/lvgl/src/misc/lv_anim.c ****     new_value += a->start_value;
 1447              		.loc 1 249 5 is_stmt 1 view .LVU425
 250:Drivers/lvgl/src/misc/lv_anim.c **** 
 1448              		.loc 1 250 5 view .LVU426
 252:Drivers/lvgl/src/misc/lv_anim.c **** }
 1449              		.loc 1 252 5 view .LVU427
 253:Drivers/lvgl/src/misc/lv_anim.c **** 
 1450              		.loc 1 253 1 is_stmt 0 view .LVU428
 1451 0032 02EBA020 		add	r0, r2, r0, asr #10
 1452              	.LVL131:
 253:Drivers/lvgl/src/misc/lv_anim.c **** 
 1453              		.loc 1 253 1 view .LVU429
 1454 0036 03B0     		add	sp, sp, #12
 1455              		.cfi_def_cfa_offset 12
 1456              		@ sp needed
 1457 0038 30BD     		pop	{r4, r5, pc}
 253:Drivers/lvgl/src/misc/lv_anim.c **** 
 1458              		.loc 1 253 1 view .LVU430
 1459              		.cfi_endproc
 1460              	.LFE58:
 1462              		.section	.text.lv_anim_path_ease_in_out,"ax",%progbits
 1463              		.align	1
 1464              		.global	lv_anim_path_ease_in_out
 1465              		.syntax unified
 1466              		.thumb
 1467              		.thumb_func
 1469              	lv_anim_path_ease_in_out:
 1470              	.LVL132:
 1471              	.LFB59:
 256:Drivers/lvgl/src/misc/lv_anim.c ****     /*Calculate the current step*/
 1472              		.loc 1 256 1 is_stmt 1 view -0
 1473              		.cfi_startproc
 1474              		@ args = 0, pretend = 0, frame = 0
 1475              		@ frame_needed = 0, uses_anonymous_args = 0
 256:Drivers/lvgl/src/misc/lv_anim.c ****     /*Calculate the current step*/
 1476              		.loc 1 256 1 is_stmt 0 view .LVU432
 1477 0000 30B5     		push	{r4, r5, lr}
ARM GAS  /var/folders/0z/tsy30v1j4xl4_7kw94k978ww0000gn/T//ccXOXT9Z.s 			page 42


 1478              		.cfi_def_cfa_offset 12
 1479              		.cfi_offset 4, -12
 1480              		.cfi_offset 5, -8
 1481              		.cfi_offset 14, -4
 1482 0002 83B0     		sub	sp, sp, #12
 1483              		.cfi_def_cfa_offset 24
 1484 0004 0446     		mov	r4, r0
 258:Drivers/lvgl/src/misc/lv_anim.c ****     int32_t step = lv_bezier3(t, 0, 50, 952, LV_BEZIER_VAL_MAX);
 1485              		.loc 1 258 5 is_stmt 1 view .LVU433
 258:Drivers/lvgl/src/misc/lv_anim.c ****     int32_t step = lv_bezier3(t, 0, 50, 952, LV_BEZIER_VAL_MAX);
 1486              		.loc 1 258 18 is_stmt 0 view .LVU434
 1487 0006 4FF48065 		mov	r5, #1024
 1488 000a 0095     		str	r5, [sp]
 1489 000c 0023     		movs	r3, #0
 1490 000e C26A     		ldr	r2, [r0, #44]
 1491 0010 1946     		mov	r1, r3
 1492 0012 006B     		ldr	r0, [r0, #48]
 1493              	.LVL133:
 258:Drivers/lvgl/src/misc/lv_anim.c ****     int32_t step = lv_bezier3(t, 0, 50, 952, LV_BEZIER_VAL_MAX);
 1494              		.loc 1 258 18 view .LVU435
 1495 0014 FFF7FEFF 		bl	lv_map
 1496              	.LVL134:
 259:Drivers/lvgl/src/misc/lv_anim.c **** 
 1497              		.loc 1 259 5 is_stmt 1 view .LVU436
 259:Drivers/lvgl/src/misc/lv_anim.c **** 
 1498              		.loc 1 259 20 is_stmt 0 view .LVU437
 1499 0018 0095     		str	r5, [sp]
 1500 001a 4FF46E73 		mov	r3, #952
 1501 001e 3222     		movs	r2, #50
 1502 0020 0021     		movs	r1, #0
 1503 0022 FFF7FEFF 		bl	lv_bezier3
 1504              	.LVL135:
 261:Drivers/lvgl/src/misc/lv_anim.c ****     new_value = step * (a->end_value - a->start_value);
 1505              		.loc 1 261 5 is_stmt 1 view .LVU438
 262:Drivers/lvgl/src/misc/lv_anim.c ****     new_value = new_value >> LV_BEZIER_VAL_SHIFT;
 1506              		.loc 1 262 5 view .LVU439
 262:Drivers/lvgl/src/misc/lv_anim.c ****     new_value = new_value >> LV_BEZIER_VAL_SHIFT;
 1507              		.loc 1 262 26 is_stmt 0 view .LVU440
 1508 0026 A36A     		ldr	r3, [r4, #40]
 262:Drivers/lvgl/src/misc/lv_anim.c ****     new_value = new_value >> LV_BEZIER_VAL_SHIFT;
 1509              		.loc 1 262 41 view .LVU441
 1510 0028 226A     		ldr	r2, [r4, #32]
 262:Drivers/lvgl/src/misc/lv_anim.c ****     new_value = new_value >> LV_BEZIER_VAL_SHIFT;
 1511              		.loc 1 262 38 view .LVU442
 1512 002a 9B1A     		subs	r3, r3, r2
 262:Drivers/lvgl/src/misc/lv_anim.c ****     new_value = new_value >> LV_BEZIER_VAL_SHIFT;
 1513              		.loc 1 262 15 view .LVU443
 1514 002c 03FB00F0 		mul	r0, r3, r0
 1515              	.LVL136:
 263:Drivers/lvgl/src/misc/lv_anim.c ****     new_value += a->start_value;
 1516              		.loc 1 263 5 is_stmt 1 view .LVU444
 264:Drivers/lvgl/src/misc/lv_anim.c **** 
 1517              		.loc 1 264 5 view .LVU445
 266:Drivers/lvgl/src/misc/lv_anim.c **** }
 1518              		.loc 1 266 5 view .LVU446
 267:Drivers/lvgl/src/misc/lv_anim.c **** 
 1519              		.loc 1 267 1 is_stmt 0 view .LVU447
ARM GAS  /var/folders/0z/tsy30v1j4xl4_7kw94k978ww0000gn/T//ccXOXT9Z.s 			page 43


 1520 0030 02EBA020 		add	r0, r2, r0, asr #10
 1521              	.LVL137:
 267:Drivers/lvgl/src/misc/lv_anim.c **** 
 1522              		.loc 1 267 1 view .LVU448
 1523 0034 03B0     		add	sp, sp, #12
 1524              		.cfi_def_cfa_offset 12
 1525              		@ sp needed
 1526 0036 30BD     		pop	{r4, r5, pc}
 267:Drivers/lvgl/src/misc/lv_anim.c **** 
 1527              		.loc 1 267 1 view .LVU449
 1528              		.cfi_endproc
 1529              	.LFE59:
 1531              		.section	.text.lv_anim_path_overshoot,"ax",%progbits
 1532              		.align	1
 1533              		.global	lv_anim_path_overshoot
 1534              		.syntax unified
 1535              		.thumb
 1536              		.thumb_func
 1538              	lv_anim_path_overshoot:
 1539              	.LVL138:
 1540              	.LFB60:
 270:Drivers/lvgl/src/misc/lv_anim.c ****     /*Calculate the current step*/
 1541              		.loc 1 270 1 is_stmt 1 view -0
 1542              		.cfi_startproc
 1543              		@ args = 0, pretend = 0, frame = 0
 1544              		@ frame_needed = 0, uses_anonymous_args = 0
 270:Drivers/lvgl/src/misc/lv_anim.c ****     /*Calculate the current step*/
 1545              		.loc 1 270 1 is_stmt 0 view .LVU451
 1546 0000 30B5     		push	{r4, r5, lr}
 1547              		.cfi_def_cfa_offset 12
 1548              		.cfi_offset 4, -12
 1549              		.cfi_offset 5, -8
 1550              		.cfi_offset 14, -4
 1551 0002 83B0     		sub	sp, sp, #12
 1552              		.cfi_def_cfa_offset 24
 1553 0004 0446     		mov	r4, r0
 272:Drivers/lvgl/src/misc/lv_anim.c ****     int32_t step = lv_bezier3(t, 0, 1000, 1300, LV_BEZIER_VAL_MAX);
 1554              		.loc 1 272 5 is_stmt 1 view .LVU452
 272:Drivers/lvgl/src/misc/lv_anim.c ****     int32_t step = lv_bezier3(t, 0, 1000, 1300, LV_BEZIER_VAL_MAX);
 1555              		.loc 1 272 18 is_stmt 0 view .LVU453
 1556 0006 4FF48065 		mov	r5, #1024
 1557 000a 0095     		str	r5, [sp]
 1558 000c 0023     		movs	r3, #0
 1559 000e C26A     		ldr	r2, [r0, #44]
 1560 0010 1946     		mov	r1, r3
 1561 0012 006B     		ldr	r0, [r0, #48]
 1562              	.LVL139:
 272:Drivers/lvgl/src/misc/lv_anim.c ****     int32_t step = lv_bezier3(t, 0, 1000, 1300, LV_BEZIER_VAL_MAX);
 1563              		.loc 1 272 18 view .LVU454
 1564 0014 FFF7FEFF 		bl	lv_map
 1565              	.LVL140:
 273:Drivers/lvgl/src/misc/lv_anim.c **** 
 1566              		.loc 1 273 5 is_stmt 1 view .LVU455
 273:Drivers/lvgl/src/misc/lv_anim.c **** 
 1567              		.loc 1 273 20 is_stmt 0 view .LVU456
 1568 0018 0095     		str	r5, [sp]
 1569 001a 40F21453 		movw	r3, #1300
ARM GAS  /var/folders/0z/tsy30v1j4xl4_7kw94k978ww0000gn/T//ccXOXT9Z.s 			page 44


 1570 001e 4FF47A72 		mov	r2, #1000
 1571 0022 0021     		movs	r1, #0
 1572 0024 FFF7FEFF 		bl	lv_bezier3
 1573              	.LVL141:
 275:Drivers/lvgl/src/misc/lv_anim.c ****     new_value = step * (a->end_value - a->start_value);
 1574              		.loc 1 275 5 is_stmt 1 view .LVU457
 276:Drivers/lvgl/src/misc/lv_anim.c ****     new_value = new_value >> LV_BEZIER_VAL_SHIFT;
 1575              		.loc 1 276 5 view .LVU458
 276:Drivers/lvgl/src/misc/lv_anim.c ****     new_value = new_value >> LV_BEZIER_VAL_SHIFT;
 1576              		.loc 1 276 26 is_stmt 0 view .LVU459
 1577 0028 A36A     		ldr	r3, [r4, #40]
 276:Drivers/lvgl/src/misc/lv_anim.c ****     new_value = new_value >> LV_BEZIER_VAL_SHIFT;
 1578              		.loc 1 276 41 view .LVU460
 1579 002a 226A     		ldr	r2, [r4, #32]
 276:Drivers/lvgl/src/misc/lv_anim.c ****     new_value = new_value >> LV_BEZIER_VAL_SHIFT;
 1580              		.loc 1 276 38 view .LVU461
 1581 002c 9B1A     		subs	r3, r3, r2
 276:Drivers/lvgl/src/misc/lv_anim.c ****     new_value = new_value >> LV_BEZIER_VAL_SHIFT;
 1582              		.loc 1 276 15 view .LVU462
 1583 002e 03FB00F0 		mul	r0, r3, r0
 1584              	.LVL142:
 277:Drivers/lvgl/src/misc/lv_anim.c ****     new_value += a->start_value;
 1585              		.loc 1 277 5 is_stmt 1 view .LVU463
 278:Drivers/lvgl/src/misc/lv_anim.c **** 
 1586              		.loc 1 278 5 view .LVU464
 280:Drivers/lvgl/src/misc/lv_anim.c **** }
 1587              		.loc 1 280 5 view .LVU465
 281:Drivers/lvgl/src/misc/lv_anim.c **** 
 1588              		.loc 1 281 1 is_stmt 0 view .LVU466
 1589 0032 02EBA020 		add	r0, r2, r0, asr #10
 1590              	.LVL143:
 281:Drivers/lvgl/src/misc/lv_anim.c **** 
 1591              		.loc 1 281 1 view .LVU467
 1592 0036 03B0     		add	sp, sp, #12
 1593              		.cfi_def_cfa_offset 12
 1594              		@ sp needed
 1595 0038 30BD     		pop	{r4, r5, pc}
 281:Drivers/lvgl/src/misc/lv_anim.c **** 
 1596              		.loc 1 281 1 view .LVU468
 1597              		.cfi_endproc
 1598              	.LFE60:
 1600              		.section	.text.lv_anim_path_bounce,"ax",%progbits
 1601              		.align	1
 1602              		.global	lv_anim_path_bounce
 1603              		.syntax unified
 1604              		.thumb
 1605              		.thumb_func
 1607              	lv_anim_path_bounce:
 1608              	.LVL144:
 1609              	.LFB61:
 284:Drivers/lvgl/src/misc/lv_anim.c ****     /*Calculate the current step*/
 1610              		.loc 1 284 1 is_stmt 1 view -0
 1611              		.cfi_startproc
 1612              		@ args = 0, pretend = 0, frame = 0
 1613              		@ frame_needed = 0, uses_anonymous_args = 0
 284:Drivers/lvgl/src/misc/lv_anim.c ****     /*Calculate the current step*/
 1614              		.loc 1 284 1 is_stmt 0 view .LVU470
ARM GAS  /var/folders/0z/tsy30v1j4xl4_7kw94k978ww0000gn/T//ccXOXT9Z.s 			page 45


 1615 0000 30B5     		push	{r4, r5, lr}
 1616              		.cfi_def_cfa_offset 12
 1617              		.cfi_offset 4, -12
 1618              		.cfi_offset 5, -8
 1619              		.cfi_offset 14, -4
 1620 0002 83B0     		sub	sp, sp, #12
 1621              		.cfi_def_cfa_offset 24
 1622 0004 0446     		mov	r4, r0
 286:Drivers/lvgl/src/misc/lv_anim.c ****     int32_t diff = (a->end_value - a->start_value);
 1623              		.loc 1 286 5 is_stmt 1 view .LVU471
 286:Drivers/lvgl/src/misc/lv_anim.c ****     int32_t diff = (a->end_value - a->start_value);
 1624              		.loc 1 286 17 is_stmt 0 view .LVU472
 1625 0006 4FF48063 		mov	r3, #1024
 1626 000a 0093     		str	r3, [sp]
 1627 000c 0023     		movs	r3, #0
 1628 000e C26A     		ldr	r2, [r0, #44]
 1629 0010 1946     		mov	r1, r3
 1630 0012 006B     		ldr	r0, [r0, #48]
 1631              	.LVL145:
 286:Drivers/lvgl/src/misc/lv_anim.c ****     int32_t diff = (a->end_value - a->start_value);
 1632              		.loc 1 286 17 view .LVU473
 1633 0014 FFF7FEFF 		bl	lv_map
 1634              	.LVL146:
 287:Drivers/lvgl/src/misc/lv_anim.c **** 
 1635              		.loc 1 287 5 is_stmt 1 view .LVU474
 287:Drivers/lvgl/src/misc/lv_anim.c **** 
 1636              		.loc 1 287 22 is_stmt 0 view .LVU475
 1637 0018 A36A     		ldr	r3, [r4, #40]
 287:Drivers/lvgl/src/misc/lv_anim.c **** 
 1638              		.loc 1 287 37 view .LVU476
 1639 001a 226A     		ldr	r2, [r4, #32]
 287:Drivers/lvgl/src/misc/lv_anim.c **** 
 1640              		.loc 1 287 13 view .LVU477
 1641 001c 9D1A     		subs	r5, r3, r2
 1642              	.LVL147:
 291:Drivers/lvgl/src/misc/lv_anim.c ****         /*Go down*/
 1643              		.loc 1 291 5 is_stmt 1 view .LVU478
 291:Drivers/lvgl/src/misc/lv_anim.c ****         /*Go down*/
 1644              		.loc 1 291 7 is_stmt 0 view .LVU479
 1645 001e B0F5CC7F 		cmp	r0, #408
 1646 0022 0BDA     		bge	.L112
 293:Drivers/lvgl/src/misc/lv_anim.c ****     }
 1647              		.loc 1 293 9 is_stmt 1 view .LVU480
 293:Drivers/lvgl/src/misc/lv_anim.c ****     }
 1648              		.loc 1 293 16 is_stmt 0 view .LVU481
 1649 0024 40F6C413 		movw	r3, #2500
 1650 0028 00FB03F3 		mul	r3, r0, r3
 293:Drivers/lvgl/src/misc/lv_anim.c ****     }
 1651              		.loc 1 293 11 view .LVU482
 1652 002c 9812     		asrs	r0, r3, #10
 1653              	.LVL148:
 1654              	.L113:
 322:Drivers/lvgl/src/misc/lv_anim.c ****     if(t < 0) t = 0;
 1655              		.loc 1 322 5 is_stmt 1 view .LVU483
 322:Drivers/lvgl/src/misc/lv_anim.c ****     if(t < 0) t = 0;
 1656              		.loc 1 322 7 is_stmt 0 view .LVU484
 1657 002e B0F5806F 		cmp	r0, #1024
ARM GAS  /var/folders/0z/tsy30v1j4xl4_7kw94k978ww0000gn/T//ccXOXT9Z.s 			page 46


 1658 0032 41DC     		bgt	.L118
 323:Drivers/lvgl/src/misc/lv_anim.c ****     int32_t step = lv_bezier3(t, LV_BEZIER_VAL_MAX, 800, 500, 0);
 1659              		.loc 1 323 5 is_stmt 1 view .LVU485
 323:Drivers/lvgl/src/misc/lv_anim.c ****     int32_t step = lv_bezier3(t, LV_BEZIER_VAL_MAX, 800, 500, 0);
 1660              		.loc 1 323 7 is_stmt 0 view .LVU486
 1661 0034 0028     		cmp	r0, #0
 1662 0036 41DA     		bge	.L117
 323:Drivers/lvgl/src/misc/lv_anim.c ****     int32_t step = lv_bezier3(t, LV_BEZIER_VAL_MAX, 800, 500, 0);
 1663              		.loc 1 323 17 view .LVU487
 1664 0038 0020     		movs	r0, #0
 1665              	.LVL149:
 323:Drivers/lvgl/src/misc/lv_anim.c ****     int32_t step = lv_bezier3(t, LV_BEZIER_VAL_MAX, 800, 500, 0);
 1666              		.loc 1 323 17 view .LVU488
 1667 003a 3FE0     		b	.L117
 1668              	.LVL150:
 1669              	.L112:
 295:Drivers/lvgl/src/misc/lv_anim.c ****         /*First bounce back*/
 1670              		.loc 1 295 10 is_stmt 1 view .LVU489
 295:Drivers/lvgl/src/misc/lv_anim.c ****         /*First bounce back*/
 1671              		.loc 1 295 22 is_stmt 0 view .LVU490
 1672 003c A0F5CC73 		sub	r3, r0, #408
 295:Drivers/lvgl/src/misc/lv_anim.c ****         /*First bounce back*/
 1673              		.loc 1 295 12 view .LVU491
 1674 0040 CD2B     		cmp	r3, #205
 1675 0042 0AD8     		bhi	.L114
 297:Drivers/lvgl/src/misc/lv_anim.c ****         t    = t * 5; /*to [0..1024] range*/
 1676              		.loc 1 297 9 is_stmt 1 view .LVU492
 1677              	.LVL151:
 298:Drivers/lvgl/src/misc/lv_anim.c ****         t    = LV_BEZIER_VAL_MAX - t;
 1678              		.loc 1 298 9 view .LVU493
 298:Drivers/lvgl/src/misc/lv_anim.c ****         t    = LV_BEZIER_VAL_MAX - t;
 1679              		.loc 1 298 14 is_stmt 0 view .LVU494
 1680 0044 03EB8300 		add	r0, r3, r3, lsl #2
 1681              	.LVL152:
 299:Drivers/lvgl/src/misc/lv_anim.c ****         diff = diff / 20;
 1682              		.loc 1 299 9 is_stmt 1 view .LVU495
 299:Drivers/lvgl/src/misc/lv_anim.c ****         diff = diff / 20;
 1683              		.loc 1 299 14 is_stmt 0 view .LVU496
 1684 0048 C0F58060 		rsb	r0, r0, #1024
 1685              	.LVL153:
 300:Drivers/lvgl/src/misc/lv_anim.c ****     }
 1686              		.loc 1 300 9 is_stmt 1 view .LVU497
 300:Drivers/lvgl/src/misc/lv_anim.c ****     }
 1687              		.loc 1 300 14 is_stmt 0 view .LVU498
 1688 004c 244A     		ldr	r2, .L121
 1689 004e 82FB0532 		smull	r3, r2, r2, r5
 1690 0052 EB17     		asrs	r3, r5, #31
 1691 0054 C3EBE205 		rsb	r5, r3, r2, asr #3
 1692              	.LVL154:
 300:Drivers/lvgl/src/misc/lv_anim.c ****     }
 1693              		.loc 1 300 14 view .LVU499
 1694 0058 E9E7     		b	.L113
 1695              	.L114:
 302:Drivers/lvgl/src/misc/lv_anim.c ****         /*Fall back*/
 1696              		.loc 1 302 10 is_stmt 1 view .LVU500
 302:Drivers/lvgl/src/misc/lv_anim.c ****         /*Fall back*/
 1697              		.loc 1 302 22 is_stmt 0 view .LVU501
ARM GAS  /var/folders/0z/tsy30v1j4xl4_7kw94k978ww0000gn/T//ccXOXT9Z.s 			page 47


 1698 005a A0F26623 		subw	r3, r0, #614
 302:Drivers/lvgl/src/misc/lv_anim.c ****         /*Fall back*/
 1699              		.loc 1 302 12 view .LVU502
 1700 005e CC2B     		cmp	r3, #204
 1701 0060 08D8     		bhi	.L115
 304:Drivers/lvgl/src/misc/lv_anim.c ****         t    = t * 5; /*to [0..1024] range*/
 1702              		.loc 1 304 9 is_stmt 1 view .LVU503
 1703              	.LVL155:
 305:Drivers/lvgl/src/misc/lv_anim.c ****         diff = diff / 20;
 1704              		.loc 1 305 9 view .LVU504
 305:Drivers/lvgl/src/misc/lv_anim.c ****         diff = diff / 20;
 1705              		.loc 1 305 14 is_stmt 0 view .LVU505
 1706 0062 03EB8300 		add	r0, r3, r3, lsl #2
 1707              	.LVL156:
 306:Drivers/lvgl/src/misc/lv_anim.c ****     }
 1708              		.loc 1 306 9 is_stmt 1 view .LVU506
 306:Drivers/lvgl/src/misc/lv_anim.c ****     }
 1709              		.loc 1 306 14 is_stmt 0 view .LVU507
 1710 0066 1E4A     		ldr	r2, .L121
 1711 0068 82FB0532 		smull	r3, r2, r2, r5
 1712 006c EB17     		asrs	r3, r5, #31
 1713 006e C3EBE205 		rsb	r5, r3, r2, asr #3
 1714              	.LVL157:
 306:Drivers/lvgl/src/misc/lv_anim.c ****     }
 1715              		.loc 1 306 14 view .LVU508
 1716 0072 DCE7     		b	.L113
 1717              	.L115:
 308:Drivers/lvgl/src/misc/lv_anim.c ****         /*Second bounce back*/
 1718              		.loc 1 308 10 is_stmt 1 view .LVU509
 308:Drivers/lvgl/src/misc/lv_anim.c ****         /*Second bounce back*/
 1719              		.loc 1 308 22 is_stmt 0 view .LVU510
 1720 0074 A0F23333 		subw	r3, r0, #819
 308:Drivers/lvgl/src/misc/lv_anim.c ****         /*Second bounce back*/
 1721              		.loc 1 308 12 view .LVU511
 1722 0078 652B     		cmp	r3, #101
 1723 007a 0DD8     		bhi	.L116
 310:Drivers/lvgl/src/misc/lv_anim.c ****         t    = t * 10; /*to [0..1024] range*/
 1724              		.loc 1 310 9 is_stmt 1 view .LVU512
 310:Drivers/lvgl/src/misc/lv_anim.c ****         t    = t * 10; /*to [0..1024] range*/
 1725              		.loc 1 310 11 is_stmt 0 view .LVU513
 1726 007c A0F23330 		subw	r0, r0, #819
 1727              	.LVL158:
 311:Drivers/lvgl/src/misc/lv_anim.c ****         t    = LV_BEZIER_VAL_MAX - t;
 1728              		.loc 1 311 9 is_stmt 1 view .LVU514
 311:Drivers/lvgl/src/misc/lv_anim.c ****         t    = LV_BEZIER_VAL_MAX - t;
 1729              		.loc 1 311 14 is_stmt 0 view .LVU515
 1730 0080 00EB8000 		add	r0, r0, r0, lsl #2
 1731              	.LVL159:
 311:Drivers/lvgl/src/misc/lv_anim.c ****         t    = LV_BEZIER_VAL_MAX - t;
 1732              		.loc 1 311 14 view .LVU516
 1733 0084 4000     		lsls	r0, r0, #1
 1734              	.LVL160:
 312:Drivers/lvgl/src/misc/lv_anim.c ****         diff = diff / 40;
 1735              		.loc 1 312 9 is_stmt 1 view .LVU517
 312:Drivers/lvgl/src/misc/lv_anim.c ****         diff = diff / 40;
 1736              		.loc 1 312 14 is_stmt 0 view .LVU518
 1737 0086 C0F58060 		rsb	r0, r0, #1024
ARM GAS  /var/folders/0z/tsy30v1j4xl4_7kw94k978ww0000gn/T//ccXOXT9Z.s 			page 48


 1738              	.LVL161:
 313:Drivers/lvgl/src/misc/lv_anim.c ****     }
 1739              		.loc 1 313 9 is_stmt 1 view .LVU519
 313:Drivers/lvgl/src/misc/lv_anim.c ****     }
 1740              		.loc 1 313 14 is_stmt 0 view .LVU520
 1741 008a 154A     		ldr	r2, .L121
 1742 008c 82FB0532 		smull	r3, r2, r2, r5
 1743 0090 EB17     		asrs	r3, r5, #31
 1744 0092 C3EB2215 		rsb	r5, r3, r2, asr #4
 1745              	.LVL162:
 313:Drivers/lvgl/src/misc/lv_anim.c ****     }
 1746              		.loc 1 313 14 view .LVU521
 1747 0096 CAE7     		b	.L113
 1748              	.L116:
 315:Drivers/lvgl/src/misc/lv_anim.c ****         /*Fall back*/
 1749              		.loc 1 315 10 is_stmt 1 view .LVU522
 315:Drivers/lvgl/src/misc/lv_anim.c ****         /*Fall back*/
 1750              		.loc 1 315 22 is_stmt 0 view .LVU523
 1751 0098 A0F29932 		subw	r2, r0, #921
 315:Drivers/lvgl/src/misc/lv_anim.c ****         /*Fall back*/
 1752              		.loc 1 315 12 view .LVU524
 1753 009c 672A     		cmp	r2, #103
 1754 009e C6D8     		bhi	.L113
 317:Drivers/lvgl/src/misc/lv_anim.c ****         t    = t * 10; /*to [0..1024] range*/
 1755              		.loc 1 317 9 is_stmt 1 view .LVU525
 317:Drivers/lvgl/src/misc/lv_anim.c ****         t    = t * 10; /*to [0..1024] range*/
 1756              		.loc 1 317 11 is_stmt 0 view .LVU526
 1757 00a0 A0F29930 		subw	r0, r0, #921
 1758              	.LVL163:
 318:Drivers/lvgl/src/misc/lv_anim.c ****         diff = diff / 40;
 1759              		.loc 1 318 9 is_stmt 1 view .LVU527
 318:Drivers/lvgl/src/misc/lv_anim.c ****         diff = diff / 40;
 1760              		.loc 1 318 14 is_stmt 0 view .LVU528
 1761 00a4 00EB8000 		add	r0, r0, r0, lsl #2
 1762              	.LVL164:
 318:Drivers/lvgl/src/misc/lv_anim.c ****         diff = diff / 40;
 1763              		.loc 1 318 14 view .LVU529
 1764 00a8 4000     		lsls	r0, r0, #1
 1765              	.LVL165:
 319:Drivers/lvgl/src/misc/lv_anim.c ****     }
 1766              		.loc 1 319 9 is_stmt 1 view .LVU530
 319:Drivers/lvgl/src/misc/lv_anim.c ****     }
 1767              		.loc 1 319 14 is_stmt 0 view .LVU531
 1768 00aa 0D4A     		ldr	r2, .L121
 1769 00ac 82FB0532 		smull	r3, r2, r2, r5
 1770 00b0 EB17     		asrs	r3, r5, #31
 1771 00b2 C3EB2215 		rsb	r5, r3, r2, asr #4
 1772              	.LVL166:
 319:Drivers/lvgl/src/misc/lv_anim.c ****     }
 1773              		.loc 1 319 14 view .LVU532
 1774 00b6 BAE7     		b	.L113
 1775              	.L118:
 322:Drivers/lvgl/src/misc/lv_anim.c ****     if(t < 0) t = 0;
 1776              		.loc 1 322 33 view .LVU533
 1777 00b8 4FF48060 		mov	r0, #1024
 1778              	.LVL167:
 1779              	.L117:
ARM GAS  /var/folders/0z/tsy30v1j4xl4_7kw94k978ww0000gn/T//ccXOXT9Z.s 			page 49


 324:Drivers/lvgl/src/misc/lv_anim.c **** 
 1780              		.loc 1 324 5 is_stmt 1 view .LVU534
 324:Drivers/lvgl/src/misc/lv_anim.c **** 
 1781              		.loc 1 324 20 is_stmt 0 view .LVU535
 1782 00bc 0023     		movs	r3, #0
 1783 00be 0093     		str	r3, [sp]
 1784 00c0 4FF4FA73 		mov	r3, #500
 1785 00c4 4FF44872 		mov	r2, #800
 1786 00c8 4FF48061 		mov	r1, #1024
 1787 00cc FFF7FEFF 		bl	lv_bezier3
 1788              	.LVL168:
 326:Drivers/lvgl/src/misc/lv_anim.c ****     new_value = step * diff;
 1789              		.loc 1 326 5 is_stmt 1 view .LVU536
 327:Drivers/lvgl/src/misc/lv_anim.c ****     new_value = new_value >> LV_BEZIER_VAL_SHIFT;
 1790              		.loc 1 327 5 view .LVU537
 327:Drivers/lvgl/src/misc/lv_anim.c ****     new_value = new_value >> LV_BEZIER_VAL_SHIFT;
 1791              		.loc 1 327 15 is_stmt 0 view .LVU538
 1792 00d0 00FB05F5 		mul	r5, r0, r5
 1793              	.LVL169:
 328:Drivers/lvgl/src/misc/lv_anim.c ****     new_value = a->end_value - new_value;
 1794              		.loc 1 328 5 is_stmt 1 view .LVU539
 329:Drivers/lvgl/src/misc/lv_anim.c **** 
 1795              		.loc 1 329 5 view .LVU540
 329:Drivers/lvgl/src/misc/lv_anim.c **** 
 1796              		.loc 1 329 18 is_stmt 0 view .LVU541
 1797 00d4 A06A     		ldr	r0, [r4, #40]
 1798              	.LVL170:
 331:Drivers/lvgl/src/misc/lv_anim.c **** }
 1799              		.loc 1 331 5 is_stmt 1 view .LVU542
 332:Drivers/lvgl/src/misc/lv_anim.c **** 
 1800              		.loc 1 332 1 is_stmt 0 view .LVU543
 1801 00d6 A0EBA520 		sub	r0, r0, r5, asr #10
 1802              	.LVL171:
 332:Drivers/lvgl/src/misc/lv_anim.c **** 
 1803              		.loc 1 332 1 view .LVU544
 1804 00da 03B0     		add	sp, sp, #12
 1805              		.cfi_def_cfa_offset 12
 1806              		@ sp needed
 1807 00dc 30BD     		pop	{r4, r5, pc}
 1808              	.LVL172:
 1809              	.L122:
 332:Drivers/lvgl/src/misc/lv_anim.c **** 
 1810              		.loc 1 332 1 view .LVU545
 1811 00de 00BF     		.align	2
 1812              	.L121:
 1813 00e0 67666666 		.word	1717986919
 1814              		.cfi_endproc
 1815              	.LFE61:
 1817              		.section	.text.lv_anim_path_step,"ax",%progbits
 1818              		.align	1
 1819              		.global	lv_anim_path_step
 1820              		.syntax unified
 1821              		.thumb
 1822              		.thumb_func
 1824              	lv_anim_path_step:
 1825              	.LVL173:
 1826              	.LFB62:
ARM GAS  /var/folders/0z/tsy30v1j4xl4_7kw94k978ww0000gn/T//ccXOXT9Z.s 			page 50


 335:Drivers/lvgl/src/misc/lv_anim.c ****     if(a->act_time >= a->time)
 1827              		.loc 1 335 1 is_stmt 1 view -0
 1828              		.cfi_startproc
 1829              		@ args = 0, pretend = 0, frame = 0
 1830              		@ frame_needed = 0, uses_anonymous_args = 0
 1831              		@ link register save eliminated.
 336:Drivers/lvgl/src/misc/lv_anim.c ****         return a->end_value;
 1832              		.loc 1 336 5 view .LVU547
 336:Drivers/lvgl/src/misc/lv_anim.c ****         return a->end_value;
 1833              		.loc 1 336 9 is_stmt 0 view .LVU548
 1834 0000 026B     		ldr	r2, [r0, #48]
 336:Drivers/lvgl/src/misc/lv_anim.c ****         return a->end_value;
 1835              		.loc 1 336 24 view .LVU549
 1836 0002 C36A     		ldr	r3, [r0, #44]
 336:Drivers/lvgl/src/misc/lv_anim.c ****         return a->end_value;
 1837              		.loc 1 336 7 view .LVU550
 1838 0004 9A42     		cmp	r2, r3
 1839 0006 01DB     		blt	.L124
 337:Drivers/lvgl/src/misc/lv_anim.c ****     else
 1840              		.loc 1 337 9 is_stmt 1 view .LVU551
 337:Drivers/lvgl/src/misc/lv_anim.c ****     else
 1841              		.loc 1 337 17 is_stmt 0 view .LVU552
 1842 0008 806A     		ldr	r0, [r0, #40]
 1843              	.LVL174:
 337:Drivers/lvgl/src/misc/lv_anim.c ****     else
 1844              		.loc 1 337 17 view .LVU553
 1845 000a 7047     		bx	lr
 1846              	.LVL175:
 1847              	.L124:
 339:Drivers/lvgl/src/misc/lv_anim.c **** }
 1848              		.loc 1 339 9 is_stmt 1 view .LVU554
 339:Drivers/lvgl/src/misc/lv_anim.c **** }
 1849              		.loc 1 339 17 is_stmt 0 view .LVU555
 1850 000c 006A     		ldr	r0, [r0, #32]
 1851              	.LVL176:
 340:Drivers/lvgl/src/misc/lv_anim.c **** 
 1852              		.loc 1 340 1 view .LVU556
 1853 000e 7047     		bx	lr
 1854              		.cfi_endproc
 1855              	.LFE62:
 1857              		.section	.bss._lv_anim_tmr,"aw",%nobits
 1858              		.align	2
 1859              		.set	.LANCHOR1,. + 0
 1862              	_lv_anim_tmr:
 1863 0000 00000000 		.space	4
 1864              		.section	.bss.anim_list_changed,"aw",%nobits
 1865              		.set	.LANCHOR0,. + 0
 1868              	anim_list_changed:
 1869 0000 00       		.space	1
 1870              		.section	.bss.anim_run_round,"aw",%nobits
 1871              		.set	.LANCHOR3,. + 0
 1874              	anim_run_round:
 1875 0000 00       		.space	1
 1876              		.section	.bss.last_timer_run,"aw",%nobits
 1877              		.align	2
 1878              		.set	.LANCHOR2,. + 0
 1881              	last_timer_run:
ARM GAS  /var/folders/0z/tsy30v1j4xl4_7kw94k978ww0000gn/T//ccXOXT9Z.s 			page 51


 1882 0000 00000000 		.space	4
 1883              		.text
 1884              	.Letext0:
 1885              		.file 2 "/Users/johannes/Library/Application Support/Code/User/globalStorage/bmd.stm32-for-vscode/
 1886              		.file 3 "/Users/johannes/Library/Application Support/Code/User/globalStorage/bmd.stm32-for-vscode/
 1887              		.file 4 "/Users/johannes/Library/Application Support/Code/User/globalStorage/bmd.stm32-for-vscode/
 1888              		.file 5 "Drivers/lvgl/src/misc/lv_anim.h"
 1889              		.file 6 "Drivers/lvgl/src/misc/lv_timer.h"
 1890              		.file 7 "Drivers/lvgl/src/misc/lv_ll.h"
 1891              		.file 8 "Drivers/lvgl/src/misc/lv_math.h"
 1892              		.file 9 "Drivers/lvgl/src/misc/lv_mem.h"
 1893              		.file 10 "Drivers/lvgl/src/misc/../hal/lv_hal_tick.h"
 1894              		.file 11 "Drivers/lvgl/src/misc/lv_gc.h"
ARM GAS  /var/folders/0z/tsy30v1j4xl4_7kw94k978ww0000gn/T//ccXOXT9Z.s 			page 52

