ARM GAS  /var/folders/0z/tsy30v1j4xl4_7kw94k978ww0000gn/T//ccZBZI6H.s 			page 1


   1              		.cpu cortex-m4
   2              		.arch armv7e-m
   3              		.fpu fpv4-sp-d16
   4              		.eabi_attribute 27, 1
   5              		.eabi_attribute 28, 1
   6              		.eabi_attribute 20, 1
   7              		.eabi_attribute 21, 1
   8              		.eabi_attribute 23, 3
   9              		.eabi_attribute 24, 1
  10              		.eabi_attribute 25, 1
  11              		.eabi_attribute 26, 1
  12              		.eabi_attribute 30, 1
  13              		.eabi_attribute 34, 1
  14              		.eabi_attribute 18, 4
  15              		.file	"lv_btnmatrix.c"
  16              		.text
  17              	.Ltext0:
  18              		.cfi_sections	.debug_frame
  19              		.section	.text.get_button_width,"ax",%progbits
  20              		.align	1
  21              		.syntax unified
  22              		.thumb
  23              		.thumb_func
  25              	get_button_width:
  26              	.LVL0:
  27              	.LFB181:
  28              		.file 1 "Drivers/lvgl/src/widgets/lv_btnmatrix.c"
   1:Drivers/lvgl/src/widgets/lv_btnmatrix.c **** /**
   2:Drivers/lvgl/src/widgets/lv_btnmatrix.c ****  * @file lv_btnmatrix.c
   3:Drivers/lvgl/src/widgets/lv_btnmatrix.c ****  *
   4:Drivers/lvgl/src/widgets/lv_btnmatrix.c ****  */
   5:Drivers/lvgl/src/widgets/lv_btnmatrix.c **** 
   6:Drivers/lvgl/src/widgets/lv_btnmatrix.c **** /*********************
   7:Drivers/lvgl/src/widgets/lv_btnmatrix.c ****  *      INCLUDES
   8:Drivers/lvgl/src/widgets/lv_btnmatrix.c ****  *********************/
   9:Drivers/lvgl/src/widgets/lv_btnmatrix.c **** #include "lv_btnmatrix.h"
  10:Drivers/lvgl/src/widgets/lv_btnmatrix.c **** #if LV_USE_BTNMATRIX != 0
  11:Drivers/lvgl/src/widgets/lv_btnmatrix.c **** 
  12:Drivers/lvgl/src/widgets/lv_btnmatrix.c **** #include "../misc/lv_assert.h"
  13:Drivers/lvgl/src/widgets/lv_btnmatrix.c **** #include "../core/lv_indev.h"
  14:Drivers/lvgl/src/widgets/lv_btnmatrix.c **** #include "../core/lv_group.h"
  15:Drivers/lvgl/src/widgets/lv_btnmatrix.c **** #include "../draw/lv_draw.h"
  16:Drivers/lvgl/src/widgets/lv_btnmatrix.c **** #include "../core/lv_refr.h"
  17:Drivers/lvgl/src/widgets/lv_btnmatrix.c **** #include "../misc/lv_txt.h"
  18:Drivers/lvgl/src/widgets/lv_btnmatrix.c **** #include "../misc/lv_txt_ap.h"
  19:Drivers/lvgl/src/widgets/lv_btnmatrix.c **** 
  20:Drivers/lvgl/src/widgets/lv_btnmatrix.c **** /*********************
  21:Drivers/lvgl/src/widgets/lv_btnmatrix.c ****  *      DEFINES
  22:Drivers/lvgl/src/widgets/lv_btnmatrix.c ****  *********************/
  23:Drivers/lvgl/src/widgets/lv_btnmatrix.c **** #define MY_CLASS &lv_btnmatrix_class
  24:Drivers/lvgl/src/widgets/lv_btnmatrix.c **** 
  25:Drivers/lvgl/src/widgets/lv_btnmatrix.c **** #define BTN_EXTRA_CLICK_AREA_MAX (LV_DPI_DEF / 10)
  26:Drivers/lvgl/src/widgets/lv_btnmatrix.c **** #define LV_BTNMATRIX_WIDTH_MASK 0x000F
  27:Drivers/lvgl/src/widgets/lv_btnmatrix.c **** 
  28:Drivers/lvgl/src/widgets/lv_btnmatrix.c **** /**********************
  29:Drivers/lvgl/src/widgets/lv_btnmatrix.c ****  *      TYPEDEFS
  30:Drivers/lvgl/src/widgets/lv_btnmatrix.c ****  **********************/
ARM GAS  /var/folders/0z/tsy30v1j4xl4_7kw94k978ww0000gn/T//ccZBZI6H.s 			page 2


  31:Drivers/lvgl/src/widgets/lv_btnmatrix.c **** 
  32:Drivers/lvgl/src/widgets/lv_btnmatrix.c **** /**********************
  33:Drivers/lvgl/src/widgets/lv_btnmatrix.c ****  *  STATIC PROTOTYPES
  34:Drivers/lvgl/src/widgets/lv_btnmatrix.c ****  **********************/
  35:Drivers/lvgl/src/widgets/lv_btnmatrix.c **** static void lv_btnmatrix_constructor(const lv_obj_class_t * class_p, lv_obj_t * obj);
  36:Drivers/lvgl/src/widgets/lv_btnmatrix.c **** static void lv_btnmatrix_destructor(const lv_obj_class_t * class_p, lv_obj_t * obj);
  37:Drivers/lvgl/src/widgets/lv_btnmatrix.c **** static void lv_btnmatrix_event(const lv_obj_class_t * class_p, lv_event_t * e);
  38:Drivers/lvgl/src/widgets/lv_btnmatrix.c **** static void draw_main(lv_event_t * e);
  39:Drivers/lvgl/src/widgets/lv_btnmatrix.c **** 
  40:Drivers/lvgl/src/widgets/lv_btnmatrix.c **** static uint8_t get_button_width(lv_btnmatrix_ctrl_t ctrl_bits);
  41:Drivers/lvgl/src/widgets/lv_btnmatrix.c **** static bool button_is_hidden(lv_btnmatrix_ctrl_t ctrl_bits);
  42:Drivers/lvgl/src/widgets/lv_btnmatrix.c **** static bool button_is_checked(lv_btnmatrix_ctrl_t ctrl_bits);
  43:Drivers/lvgl/src/widgets/lv_btnmatrix.c **** static bool button_is_repeat_disabled(lv_btnmatrix_ctrl_t ctrl_bits);
  44:Drivers/lvgl/src/widgets/lv_btnmatrix.c **** static bool button_is_inactive(lv_btnmatrix_ctrl_t ctrl_bits);
  45:Drivers/lvgl/src/widgets/lv_btnmatrix.c **** static bool button_is_click_trig(lv_btnmatrix_ctrl_t ctrl_bits);
  46:Drivers/lvgl/src/widgets/lv_btnmatrix.c **** static bool button_is_popover(lv_btnmatrix_ctrl_t ctrl_bits);
  47:Drivers/lvgl/src/widgets/lv_btnmatrix.c **** static bool button_is_checkable(lv_btnmatrix_ctrl_t ctrl_bits);
  48:Drivers/lvgl/src/widgets/lv_btnmatrix.c **** static bool button_is_recolor(lv_btnmatrix_ctrl_t ctrl_bits);
  49:Drivers/lvgl/src/widgets/lv_btnmatrix.c **** static bool button_get_checked(lv_btnmatrix_ctrl_t ctrl_bits);
  50:Drivers/lvgl/src/widgets/lv_btnmatrix.c **** static uint16_t get_button_from_point(lv_obj_t * obj, lv_point_t * p);
  51:Drivers/lvgl/src/widgets/lv_btnmatrix.c **** static void allocate_btn_areas_and_controls(const lv_obj_t * obj, const char ** map);
  52:Drivers/lvgl/src/widgets/lv_btnmatrix.c **** static void invalidate_button_area(const lv_obj_t * obj, uint16_t btn_idx);
  53:Drivers/lvgl/src/widgets/lv_btnmatrix.c **** static void make_one_button_checked(lv_obj_t * obj, uint16_t btn_idx);
  54:Drivers/lvgl/src/widgets/lv_btnmatrix.c **** static bool has_popovers_in_top_row(lv_obj_t * obj);
  55:Drivers/lvgl/src/widgets/lv_btnmatrix.c **** 
  56:Drivers/lvgl/src/widgets/lv_btnmatrix.c **** /**********************
  57:Drivers/lvgl/src/widgets/lv_btnmatrix.c ****  *  STATIC VARIABLES
  58:Drivers/lvgl/src/widgets/lv_btnmatrix.c ****  **********************/
  59:Drivers/lvgl/src/widgets/lv_btnmatrix.c **** static const char * lv_btnmatrix_def_map[] = {"Btn1", "Btn2", "Btn3", "\n", "Btn4", "Btn5", ""};
  60:Drivers/lvgl/src/widgets/lv_btnmatrix.c **** 
  61:Drivers/lvgl/src/widgets/lv_btnmatrix.c **** const lv_obj_class_t lv_btnmatrix_class = {
  62:Drivers/lvgl/src/widgets/lv_btnmatrix.c ****     .constructor_cb = lv_btnmatrix_constructor,
  63:Drivers/lvgl/src/widgets/lv_btnmatrix.c ****     .destructor_cb = lv_btnmatrix_destructor,
  64:Drivers/lvgl/src/widgets/lv_btnmatrix.c ****     .event_cb = lv_btnmatrix_event,
  65:Drivers/lvgl/src/widgets/lv_btnmatrix.c ****     .width_def = LV_DPI_DEF * 2,
  66:Drivers/lvgl/src/widgets/lv_btnmatrix.c ****     .height_def = LV_DPI_DEF,
  67:Drivers/lvgl/src/widgets/lv_btnmatrix.c ****     .instance_size = sizeof(lv_btnmatrix_t),
  68:Drivers/lvgl/src/widgets/lv_btnmatrix.c ****     .editable = LV_OBJ_CLASS_EDITABLE_TRUE,
  69:Drivers/lvgl/src/widgets/lv_btnmatrix.c ****     .group_def = LV_OBJ_CLASS_GROUP_DEF_TRUE,
  70:Drivers/lvgl/src/widgets/lv_btnmatrix.c ****     .base_class = &lv_obj_class
  71:Drivers/lvgl/src/widgets/lv_btnmatrix.c **** };
  72:Drivers/lvgl/src/widgets/lv_btnmatrix.c **** 
  73:Drivers/lvgl/src/widgets/lv_btnmatrix.c **** /**********************
  74:Drivers/lvgl/src/widgets/lv_btnmatrix.c ****  *      MACROS
  75:Drivers/lvgl/src/widgets/lv_btnmatrix.c ****  **********************/
  76:Drivers/lvgl/src/widgets/lv_btnmatrix.c **** 
  77:Drivers/lvgl/src/widgets/lv_btnmatrix.c **** /**********************
  78:Drivers/lvgl/src/widgets/lv_btnmatrix.c ****  *   GLOBAL FUNCTIONS
  79:Drivers/lvgl/src/widgets/lv_btnmatrix.c ****  **********************/
  80:Drivers/lvgl/src/widgets/lv_btnmatrix.c **** 
  81:Drivers/lvgl/src/widgets/lv_btnmatrix.c **** lv_obj_t * lv_btnmatrix_create(lv_obj_t * parent)
  82:Drivers/lvgl/src/widgets/lv_btnmatrix.c **** {
  83:Drivers/lvgl/src/widgets/lv_btnmatrix.c ****     LV_LOG_INFO("begin");
  84:Drivers/lvgl/src/widgets/lv_btnmatrix.c ****     lv_obj_t * obj = lv_obj_class_create_obj(MY_CLASS, parent);
  85:Drivers/lvgl/src/widgets/lv_btnmatrix.c ****     lv_obj_class_init_obj(obj);
  86:Drivers/lvgl/src/widgets/lv_btnmatrix.c ****     return obj;
  87:Drivers/lvgl/src/widgets/lv_btnmatrix.c **** }
ARM GAS  /var/folders/0z/tsy30v1j4xl4_7kw94k978ww0000gn/T//ccZBZI6H.s 			page 3


  88:Drivers/lvgl/src/widgets/lv_btnmatrix.c **** 
  89:Drivers/lvgl/src/widgets/lv_btnmatrix.c **** /*=====================
  90:Drivers/lvgl/src/widgets/lv_btnmatrix.c ****  * Setter functions
  91:Drivers/lvgl/src/widgets/lv_btnmatrix.c ****  *====================*/
  92:Drivers/lvgl/src/widgets/lv_btnmatrix.c **** 
  93:Drivers/lvgl/src/widgets/lv_btnmatrix.c **** void lv_btnmatrix_set_map(lv_obj_t * obj, const char * map[])
  94:Drivers/lvgl/src/widgets/lv_btnmatrix.c **** {
  95:Drivers/lvgl/src/widgets/lv_btnmatrix.c ****     LV_ASSERT_OBJ(obj, MY_CLASS);
  96:Drivers/lvgl/src/widgets/lv_btnmatrix.c ****     if(map == NULL) return;
  97:Drivers/lvgl/src/widgets/lv_btnmatrix.c **** 
  98:Drivers/lvgl/src/widgets/lv_btnmatrix.c ****     lv_btnmatrix_t * btnm = (lv_btnmatrix_t *)obj;
  99:Drivers/lvgl/src/widgets/lv_btnmatrix.c **** 
 100:Drivers/lvgl/src/widgets/lv_btnmatrix.c ****     /*Analyze the map and create the required number of buttons*/
 101:Drivers/lvgl/src/widgets/lv_btnmatrix.c ****     allocate_btn_areas_and_controls(obj, map);
 102:Drivers/lvgl/src/widgets/lv_btnmatrix.c ****     btnm->map_p = map;
 103:Drivers/lvgl/src/widgets/lv_btnmatrix.c **** 
 104:Drivers/lvgl/src/widgets/lv_btnmatrix.c ****     lv_base_dir_t base_dir = lv_obj_get_style_base_dir(obj, LV_PART_MAIN);
 105:Drivers/lvgl/src/widgets/lv_btnmatrix.c **** 
 106:Drivers/lvgl/src/widgets/lv_btnmatrix.c ****     /*Set size and positions of the buttons*/
 107:Drivers/lvgl/src/widgets/lv_btnmatrix.c ****     lv_coord_t pleft = lv_obj_get_style_pad_left(obj, LV_PART_MAIN);
 108:Drivers/lvgl/src/widgets/lv_btnmatrix.c ****     lv_coord_t ptop = lv_obj_get_style_pad_top(obj, LV_PART_MAIN);
 109:Drivers/lvgl/src/widgets/lv_btnmatrix.c ****     lv_coord_t prow = lv_obj_get_style_pad_row(obj, LV_PART_MAIN);
 110:Drivers/lvgl/src/widgets/lv_btnmatrix.c ****     lv_coord_t pcol = lv_obj_get_style_pad_column(obj, LV_PART_MAIN);
 111:Drivers/lvgl/src/widgets/lv_btnmatrix.c **** 
 112:Drivers/lvgl/src/widgets/lv_btnmatrix.c ****     lv_coord_t max_w            = lv_obj_get_content_width(obj);
 113:Drivers/lvgl/src/widgets/lv_btnmatrix.c ****     lv_coord_t max_h            = lv_obj_get_content_height(obj);
 114:Drivers/lvgl/src/widgets/lv_btnmatrix.c **** 
 115:Drivers/lvgl/src/widgets/lv_btnmatrix.c ****     /*Calculate the position of each row*/
 116:Drivers/lvgl/src/widgets/lv_btnmatrix.c ****     lv_coord_t max_h_no_gap = max_h - (prow * (btnm->row_cnt - 1));
 117:Drivers/lvgl/src/widgets/lv_btnmatrix.c **** 
 118:Drivers/lvgl/src/widgets/lv_btnmatrix.c ****     /*Count the units and the buttons in a line
 119:Drivers/lvgl/src/widgets/lv_btnmatrix.c ****      *(A button can be 1,2,3... unit wide)*/
 120:Drivers/lvgl/src/widgets/lv_btnmatrix.c ****     uint32_t txt_tot_i = 0; /*Act. index in the str map*/
 121:Drivers/lvgl/src/widgets/lv_btnmatrix.c ****     uint32_t btn_tot_i = 0; /*Act. index of button areas*/
 122:Drivers/lvgl/src/widgets/lv_btnmatrix.c ****     const char ** map_row = map;
 123:Drivers/lvgl/src/widgets/lv_btnmatrix.c **** 
 124:Drivers/lvgl/src/widgets/lv_btnmatrix.c ****     /*Count the units and the buttons in a line*/
 125:Drivers/lvgl/src/widgets/lv_btnmatrix.c ****     uint32_t row;
 126:Drivers/lvgl/src/widgets/lv_btnmatrix.c ****     for(row = 0; row < btnm->row_cnt; row++) {
 127:Drivers/lvgl/src/widgets/lv_btnmatrix.c ****         uint16_t unit_cnt = 0;           /*Number of units in a row*/
 128:Drivers/lvgl/src/widgets/lv_btnmatrix.c ****         uint16_t btn_cnt = 0;            /*Number of buttons in a row*/
 129:Drivers/lvgl/src/widgets/lv_btnmatrix.c ****         /*Count the buttons and units in this row*/
 130:Drivers/lvgl/src/widgets/lv_btnmatrix.c ****         while(map_row[btn_cnt] && strcmp(map_row[btn_cnt], "\n") != 0 && map_row[btn_cnt][0] != '\0
 131:Drivers/lvgl/src/widgets/lv_btnmatrix.c ****             unit_cnt += get_button_width(btnm->ctrl_bits[btn_tot_i + btn_cnt]);
 132:Drivers/lvgl/src/widgets/lv_btnmatrix.c ****             btn_cnt++;
 133:Drivers/lvgl/src/widgets/lv_btnmatrix.c ****         }
 134:Drivers/lvgl/src/widgets/lv_btnmatrix.c **** 
 135:Drivers/lvgl/src/widgets/lv_btnmatrix.c ****         /*Only deal with the non empty lines*/
 136:Drivers/lvgl/src/widgets/lv_btnmatrix.c ****         if(btn_cnt == 0) {
 137:Drivers/lvgl/src/widgets/lv_btnmatrix.c ****             map_row = &map_row[btn_cnt + 1];       /*Set the map to the next row*/
 138:Drivers/lvgl/src/widgets/lv_btnmatrix.c ****             continue;
 139:Drivers/lvgl/src/widgets/lv_btnmatrix.c ****         }
 140:Drivers/lvgl/src/widgets/lv_btnmatrix.c **** 
 141:Drivers/lvgl/src/widgets/lv_btnmatrix.c ****         lv_coord_t row_y1 = ptop + (max_h_no_gap * row) / btnm->row_cnt + row * prow;
 142:Drivers/lvgl/src/widgets/lv_btnmatrix.c ****         lv_coord_t row_y2 = ptop + (max_h_no_gap * (row + 1)) / btnm->row_cnt + row * prow - 1;
 143:Drivers/lvgl/src/widgets/lv_btnmatrix.c **** 
 144:Drivers/lvgl/src/widgets/lv_btnmatrix.c ****         /*Set the button size and positions*/
ARM GAS  /var/folders/0z/tsy30v1j4xl4_7kw94k978ww0000gn/T//ccZBZI6H.s 			page 4


 145:Drivers/lvgl/src/widgets/lv_btnmatrix.c ****         lv_coord_t max_w_no_gap = max_w - (pcol * (btn_cnt - 1));
 146:Drivers/lvgl/src/widgets/lv_btnmatrix.c ****         if(max_w_no_gap < 0) max_w_no_gap = 0;
 147:Drivers/lvgl/src/widgets/lv_btnmatrix.c **** 
 148:Drivers/lvgl/src/widgets/lv_btnmatrix.c ****         uint32_t row_unit_cnt = 0;  /*The current unit position in the row*/
 149:Drivers/lvgl/src/widgets/lv_btnmatrix.c ****         uint32_t btn;
 150:Drivers/lvgl/src/widgets/lv_btnmatrix.c ****         for(btn = 0; btn < btn_cnt; btn++, btn_tot_i++, txt_tot_i++) {
 151:Drivers/lvgl/src/widgets/lv_btnmatrix.c ****             uint32_t btn_u = get_button_width(btnm->ctrl_bits[btn_tot_i]);
 152:Drivers/lvgl/src/widgets/lv_btnmatrix.c **** 
 153:Drivers/lvgl/src/widgets/lv_btnmatrix.c ****             lv_coord_t btn_x1 = (max_w_no_gap * row_unit_cnt) / unit_cnt + btn * pcol;
 154:Drivers/lvgl/src/widgets/lv_btnmatrix.c ****             lv_coord_t btn_x2 = (max_w_no_gap * (row_unit_cnt + btn_u)) / unit_cnt + btn * pcol - 1
 155:Drivers/lvgl/src/widgets/lv_btnmatrix.c **** 
 156:Drivers/lvgl/src/widgets/lv_btnmatrix.c ****             /*If RTL start from the right*/
 157:Drivers/lvgl/src/widgets/lv_btnmatrix.c ****             if(base_dir == LV_BASE_DIR_RTL) {
 158:Drivers/lvgl/src/widgets/lv_btnmatrix.c ****                 lv_coord_t tmp = btn_x1;
 159:Drivers/lvgl/src/widgets/lv_btnmatrix.c ****                 btn_x1 = btn_x2;
 160:Drivers/lvgl/src/widgets/lv_btnmatrix.c ****                 btn_x2 = tmp;
 161:Drivers/lvgl/src/widgets/lv_btnmatrix.c **** 
 162:Drivers/lvgl/src/widgets/lv_btnmatrix.c ****                 btn_x1 = max_w - btn_x1;
 163:Drivers/lvgl/src/widgets/lv_btnmatrix.c ****                 btn_x2 = max_w - btn_x2;
 164:Drivers/lvgl/src/widgets/lv_btnmatrix.c ****             }
 165:Drivers/lvgl/src/widgets/lv_btnmatrix.c **** 
 166:Drivers/lvgl/src/widgets/lv_btnmatrix.c ****             btn_x1 += pleft;
 167:Drivers/lvgl/src/widgets/lv_btnmatrix.c ****             btn_x2 += pleft;
 168:Drivers/lvgl/src/widgets/lv_btnmatrix.c **** 
 169:Drivers/lvgl/src/widgets/lv_btnmatrix.c ****             lv_area_set(&btnm->button_areas[btn_tot_i], btn_x1, row_y1, btn_x2, row_y2);
 170:Drivers/lvgl/src/widgets/lv_btnmatrix.c **** 
 171:Drivers/lvgl/src/widgets/lv_btnmatrix.c ****             row_unit_cnt += btn_u;
 172:Drivers/lvgl/src/widgets/lv_btnmatrix.c ****         }
 173:Drivers/lvgl/src/widgets/lv_btnmatrix.c **** 
 174:Drivers/lvgl/src/widgets/lv_btnmatrix.c ****         map_row = &map_row[btn_cnt + 1];       /*Set the map to the next line*/
 175:Drivers/lvgl/src/widgets/lv_btnmatrix.c ****     }
 176:Drivers/lvgl/src/widgets/lv_btnmatrix.c **** 
 177:Drivers/lvgl/src/widgets/lv_btnmatrix.c ****     /*Popovers in the top row will draw outside the widget and the extended draw size depends on
 178:Drivers/lvgl/src/widgets/lv_btnmatrix.c ****      *the row height which may have changed when setting the new map*/
 179:Drivers/lvgl/src/widgets/lv_btnmatrix.c ****     lv_obj_refresh_ext_draw_size(obj);
 180:Drivers/lvgl/src/widgets/lv_btnmatrix.c **** 
 181:Drivers/lvgl/src/widgets/lv_btnmatrix.c ****     lv_obj_invalidate(obj);
 182:Drivers/lvgl/src/widgets/lv_btnmatrix.c **** }
 183:Drivers/lvgl/src/widgets/lv_btnmatrix.c **** 
 184:Drivers/lvgl/src/widgets/lv_btnmatrix.c **** void lv_btnmatrix_set_ctrl_map(lv_obj_t * obj, const lv_btnmatrix_ctrl_t ctrl_map[])
 185:Drivers/lvgl/src/widgets/lv_btnmatrix.c **** {
 186:Drivers/lvgl/src/widgets/lv_btnmatrix.c ****     LV_ASSERT_OBJ(obj, MY_CLASS);
 187:Drivers/lvgl/src/widgets/lv_btnmatrix.c **** 
 188:Drivers/lvgl/src/widgets/lv_btnmatrix.c ****     lv_btnmatrix_t * btnm = (lv_btnmatrix_t *)obj;
 189:Drivers/lvgl/src/widgets/lv_btnmatrix.c ****     lv_memcpy(btnm->ctrl_bits, ctrl_map, sizeof(lv_btnmatrix_ctrl_t) * btnm->btn_cnt);
 190:Drivers/lvgl/src/widgets/lv_btnmatrix.c **** 
 191:Drivers/lvgl/src/widgets/lv_btnmatrix.c ****     lv_btnmatrix_set_map(obj, btnm->map_p);
 192:Drivers/lvgl/src/widgets/lv_btnmatrix.c **** }
 193:Drivers/lvgl/src/widgets/lv_btnmatrix.c **** 
 194:Drivers/lvgl/src/widgets/lv_btnmatrix.c **** void lv_btnmatrix_set_selected_btn(lv_obj_t * obj, uint16_t btn_id)
 195:Drivers/lvgl/src/widgets/lv_btnmatrix.c **** {
 196:Drivers/lvgl/src/widgets/lv_btnmatrix.c ****     LV_ASSERT_OBJ(obj, MY_CLASS);
 197:Drivers/lvgl/src/widgets/lv_btnmatrix.c **** 
 198:Drivers/lvgl/src/widgets/lv_btnmatrix.c ****     lv_btnmatrix_t * btnm = (lv_btnmatrix_t *)obj;
 199:Drivers/lvgl/src/widgets/lv_btnmatrix.c **** 
 200:Drivers/lvgl/src/widgets/lv_btnmatrix.c ****     if(btn_id >= btnm->btn_cnt && btn_id != LV_BTNMATRIX_BTN_NONE) return;
 201:Drivers/lvgl/src/widgets/lv_btnmatrix.c **** 
ARM GAS  /var/folders/0z/tsy30v1j4xl4_7kw94k978ww0000gn/T//ccZBZI6H.s 			page 5


 202:Drivers/lvgl/src/widgets/lv_btnmatrix.c ****     invalidate_button_area(obj, btnm->btn_id_sel);
 203:Drivers/lvgl/src/widgets/lv_btnmatrix.c ****     btnm->btn_id_sel = btn_id;
 204:Drivers/lvgl/src/widgets/lv_btnmatrix.c ****     invalidate_button_area(obj, btn_id);
 205:Drivers/lvgl/src/widgets/lv_btnmatrix.c **** }
 206:Drivers/lvgl/src/widgets/lv_btnmatrix.c **** 
 207:Drivers/lvgl/src/widgets/lv_btnmatrix.c **** void lv_btnmatrix_set_btn_ctrl(lv_obj_t * obj, uint16_t btn_id, lv_btnmatrix_ctrl_t ctrl)
 208:Drivers/lvgl/src/widgets/lv_btnmatrix.c **** {
 209:Drivers/lvgl/src/widgets/lv_btnmatrix.c ****     LV_ASSERT_OBJ(obj, MY_CLASS);
 210:Drivers/lvgl/src/widgets/lv_btnmatrix.c **** 
 211:Drivers/lvgl/src/widgets/lv_btnmatrix.c ****     lv_btnmatrix_t * btnm = (lv_btnmatrix_t *)obj;
 212:Drivers/lvgl/src/widgets/lv_btnmatrix.c **** 
 213:Drivers/lvgl/src/widgets/lv_btnmatrix.c ****     if(btn_id >= btnm->btn_cnt) return;
 214:Drivers/lvgl/src/widgets/lv_btnmatrix.c **** 
 215:Drivers/lvgl/src/widgets/lv_btnmatrix.c ****     if(btnm->one_check && (ctrl & LV_BTNMATRIX_CTRL_CHECKED)) {
 216:Drivers/lvgl/src/widgets/lv_btnmatrix.c ****         lv_btnmatrix_clear_btn_ctrl_all(obj, LV_BTNMATRIX_CTRL_CHECKED);
 217:Drivers/lvgl/src/widgets/lv_btnmatrix.c ****     }
 218:Drivers/lvgl/src/widgets/lv_btnmatrix.c **** 
 219:Drivers/lvgl/src/widgets/lv_btnmatrix.c ****     /* If we hide a button if all buttons are now hidden hide the whole button matrix to make focus
 220:Drivers/lvgl/src/widgets/lv_btnmatrix.c ****     if(ctrl & LV_BTNMATRIX_CTRL_HIDDEN) {
 221:Drivers/lvgl/src/widgets/lv_btnmatrix.c ****         bool all_buttons_hidden = true;
 222:Drivers/lvgl/src/widgets/lv_btnmatrix.c ****         if(btnm->btn_cnt > 1) {
 223:Drivers/lvgl/src/widgets/lv_btnmatrix.c ****             for(uint16_t btn_idx = 0; btn_idx < btnm->btn_cnt; btn_idx++) {
 224:Drivers/lvgl/src/widgets/lv_btnmatrix.c ****                 if(btn_idx == btn_id) continue;
 225:Drivers/lvgl/src/widgets/lv_btnmatrix.c ****                 if(!(btnm->ctrl_bits[btn_idx] & LV_BTNMATRIX_CTRL_HIDDEN)) all_buttons_hidden = fal
 226:Drivers/lvgl/src/widgets/lv_btnmatrix.c ****             }
 227:Drivers/lvgl/src/widgets/lv_btnmatrix.c **** 
 228:Drivers/lvgl/src/widgets/lv_btnmatrix.c ****         }
 229:Drivers/lvgl/src/widgets/lv_btnmatrix.c ****         if(all_buttons_hidden) lv_obj_add_flag(obj, LV_OBJ_FLAG_HIDDEN);
 230:Drivers/lvgl/src/widgets/lv_btnmatrix.c ****     }
 231:Drivers/lvgl/src/widgets/lv_btnmatrix.c **** 
 232:Drivers/lvgl/src/widgets/lv_btnmatrix.c ****     btnm->ctrl_bits[btn_id] |= ctrl;
 233:Drivers/lvgl/src/widgets/lv_btnmatrix.c ****     invalidate_button_area(obj, btn_id);
 234:Drivers/lvgl/src/widgets/lv_btnmatrix.c **** 
 235:Drivers/lvgl/src/widgets/lv_btnmatrix.c ****     if(ctrl & LV_BTNMATRIX_CTRL_POPOVER) {
 236:Drivers/lvgl/src/widgets/lv_btnmatrix.c ****         lv_obj_refresh_ext_draw_size(obj);
 237:Drivers/lvgl/src/widgets/lv_btnmatrix.c ****     }
 238:Drivers/lvgl/src/widgets/lv_btnmatrix.c **** }
 239:Drivers/lvgl/src/widgets/lv_btnmatrix.c **** 
 240:Drivers/lvgl/src/widgets/lv_btnmatrix.c **** void lv_btnmatrix_clear_btn_ctrl(lv_obj_t * obj, uint16_t btn_id, lv_btnmatrix_ctrl_t ctrl)
 241:Drivers/lvgl/src/widgets/lv_btnmatrix.c **** {
 242:Drivers/lvgl/src/widgets/lv_btnmatrix.c ****     LV_ASSERT_OBJ(obj, MY_CLASS);
 243:Drivers/lvgl/src/widgets/lv_btnmatrix.c **** 
 244:Drivers/lvgl/src/widgets/lv_btnmatrix.c ****     lv_btnmatrix_t * btnm = (lv_btnmatrix_t *)obj;
 245:Drivers/lvgl/src/widgets/lv_btnmatrix.c **** 
 246:Drivers/lvgl/src/widgets/lv_btnmatrix.c ****     if(btn_id >= btnm->btn_cnt) return;
 247:Drivers/lvgl/src/widgets/lv_btnmatrix.c **** 
 248:Drivers/lvgl/src/widgets/lv_btnmatrix.c ****     /* If all buttons were hidden the whole button matrix is hidden so we need to check and remove 
 249:Drivers/lvgl/src/widgets/lv_btnmatrix.c ****     if(ctrl & LV_BTNMATRIX_CTRL_HIDDEN) {
 250:Drivers/lvgl/src/widgets/lv_btnmatrix.c ****         if(lv_obj_has_flag(obj, LV_OBJ_FLAG_HIDDEN)) lv_obj_clear_flag(obj, LV_OBJ_FLAG_HIDDEN);
 251:Drivers/lvgl/src/widgets/lv_btnmatrix.c ****     }
 252:Drivers/lvgl/src/widgets/lv_btnmatrix.c **** 
 253:Drivers/lvgl/src/widgets/lv_btnmatrix.c ****     btnm->ctrl_bits[btn_id] &= (~ctrl);
 254:Drivers/lvgl/src/widgets/lv_btnmatrix.c ****     invalidate_button_area(obj, btn_id);
 255:Drivers/lvgl/src/widgets/lv_btnmatrix.c **** 
 256:Drivers/lvgl/src/widgets/lv_btnmatrix.c ****     if(ctrl & LV_BTNMATRIX_CTRL_POPOVER) {
 257:Drivers/lvgl/src/widgets/lv_btnmatrix.c ****         lv_obj_refresh_ext_draw_size(obj);
 258:Drivers/lvgl/src/widgets/lv_btnmatrix.c ****     }
ARM GAS  /var/folders/0z/tsy30v1j4xl4_7kw94k978ww0000gn/T//ccZBZI6H.s 			page 6


 259:Drivers/lvgl/src/widgets/lv_btnmatrix.c **** }
 260:Drivers/lvgl/src/widgets/lv_btnmatrix.c **** 
 261:Drivers/lvgl/src/widgets/lv_btnmatrix.c **** void lv_btnmatrix_set_btn_ctrl_all(lv_obj_t * obj, lv_btnmatrix_ctrl_t ctrl)
 262:Drivers/lvgl/src/widgets/lv_btnmatrix.c **** {
 263:Drivers/lvgl/src/widgets/lv_btnmatrix.c ****     LV_ASSERT_OBJ(obj, MY_CLASS);
 264:Drivers/lvgl/src/widgets/lv_btnmatrix.c **** 
 265:Drivers/lvgl/src/widgets/lv_btnmatrix.c ****     lv_btnmatrix_t * btnm = (lv_btnmatrix_t *)obj;;
 266:Drivers/lvgl/src/widgets/lv_btnmatrix.c ****     uint16_t i;
 267:Drivers/lvgl/src/widgets/lv_btnmatrix.c ****     for(i = 0; i < btnm->btn_cnt; i++) {
 268:Drivers/lvgl/src/widgets/lv_btnmatrix.c ****         lv_btnmatrix_set_btn_ctrl(obj, i, ctrl);
 269:Drivers/lvgl/src/widgets/lv_btnmatrix.c ****     }
 270:Drivers/lvgl/src/widgets/lv_btnmatrix.c **** }
 271:Drivers/lvgl/src/widgets/lv_btnmatrix.c **** 
 272:Drivers/lvgl/src/widgets/lv_btnmatrix.c **** void lv_btnmatrix_clear_btn_ctrl_all(lv_obj_t * obj, lv_btnmatrix_ctrl_t ctrl)
 273:Drivers/lvgl/src/widgets/lv_btnmatrix.c **** {
 274:Drivers/lvgl/src/widgets/lv_btnmatrix.c ****     LV_ASSERT_OBJ(obj, MY_CLASS);
 275:Drivers/lvgl/src/widgets/lv_btnmatrix.c **** 
 276:Drivers/lvgl/src/widgets/lv_btnmatrix.c ****     lv_btnmatrix_t * btnm = (lv_btnmatrix_t *)obj;;
 277:Drivers/lvgl/src/widgets/lv_btnmatrix.c ****     uint16_t i;
 278:Drivers/lvgl/src/widgets/lv_btnmatrix.c ****     for(i = 0; i < btnm->btn_cnt; i++) {
 279:Drivers/lvgl/src/widgets/lv_btnmatrix.c ****         lv_btnmatrix_clear_btn_ctrl(obj, i, ctrl);
 280:Drivers/lvgl/src/widgets/lv_btnmatrix.c ****     }
 281:Drivers/lvgl/src/widgets/lv_btnmatrix.c **** }
 282:Drivers/lvgl/src/widgets/lv_btnmatrix.c **** 
 283:Drivers/lvgl/src/widgets/lv_btnmatrix.c **** void lv_btnmatrix_set_btn_width(lv_obj_t * obj, uint16_t btn_id, uint8_t width)
 284:Drivers/lvgl/src/widgets/lv_btnmatrix.c **** {
 285:Drivers/lvgl/src/widgets/lv_btnmatrix.c ****     LV_ASSERT_OBJ(obj, MY_CLASS);
 286:Drivers/lvgl/src/widgets/lv_btnmatrix.c **** 
 287:Drivers/lvgl/src/widgets/lv_btnmatrix.c ****     lv_btnmatrix_t * btnm = (lv_btnmatrix_t *)obj;;
 288:Drivers/lvgl/src/widgets/lv_btnmatrix.c ****     if(btn_id >= btnm->btn_cnt) return;
 289:Drivers/lvgl/src/widgets/lv_btnmatrix.c ****     btnm->ctrl_bits[btn_id] &= (~LV_BTNMATRIX_WIDTH_MASK);
 290:Drivers/lvgl/src/widgets/lv_btnmatrix.c ****     btnm->ctrl_bits[btn_id] |= (LV_BTNMATRIX_WIDTH_MASK & width);
 291:Drivers/lvgl/src/widgets/lv_btnmatrix.c **** 
 292:Drivers/lvgl/src/widgets/lv_btnmatrix.c ****     lv_btnmatrix_set_map(obj, btnm->map_p);
 293:Drivers/lvgl/src/widgets/lv_btnmatrix.c **** }
 294:Drivers/lvgl/src/widgets/lv_btnmatrix.c **** 
 295:Drivers/lvgl/src/widgets/lv_btnmatrix.c **** void lv_btnmatrix_set_one_checked(lv_obj_t * obj, bool en)
 296:Drivers/lvgl/src/widgets/lv_btnmatrix.c **** {
 297:Drivers/lvgl/src/widgets/lv_btnmatrix.c ****     LV_ASSERT_OBJ(obj, MY_CLASS);
 298:Drivers/lvgl/src/widgets/lv_btnmatrix.c **** 
 299:Drivers/lvgl/src/widgets/lv_btnmatrix.c ****     lv_btnmatrix_t * btnm = (lv_btnmatrix_t *)obj;;
 300:Drivers/lvgl/src/widgets/lv_btnmatrix.c ****     btnm->one_check     = en;
 301:Drivers/lvgl/src/widgets/lv_btnmatrix.c **** 
 302:Drivers/lvgl/src/widgets/lv_btnmatrix.c ****     /*If more than one button is toggled only the first one should be*/
 303:Drivers/lvgl/src/widgets/lv_btnmatrix.c ****     make_one_button_checked(obj, 0);
 304:Drivers/lvgl/src/widgets/lv_btnmatrix.c **** }
 305:Drivers/lvgl/src/widgets/lv_btnmatrix.c **** 
 306:Drivers/lvgl/src/widgets/lv_btnmatrix.c **** /*=====================
 307:Drivers/lvgl/src/widgets/lv_btnmatrix.c ****  * Getter functions
 308:Drivers/lvgl/src/widgets/lv_btnmatrix.c ****  *====================*/
 309:Drivers/lvgl/src/widgets/lv_btnmatrix.c **** 
 310:Drivers/lvgl/src/widgets/lv_btnmatrix.c **** const char ** lv_btnmatrix_get_map(const lv_obj_t * obj)
 311:Drivers/lvgl/src/widgets/lv_btnmatrix.c **** {
 312:Drivers/lvgl/src/widgets/lv_btnmatrix.c ****     LV_ASSERT_OBJ(obj, MY_CLASS);
 313:Drivers/lvgl/src/widgets/lv_btnmatrix.c **** 
 314:Drivers/lvgl/src/widgets/lv_btnmatrix.c ****     lv_btnmatrix_t * btnm = (lv_btnmatrix_t *)obj;;
 315:Drivers/lvgl/src/widgets/lv_btnmatrix.c ****     return btnm->map_p;
ARM GAS  /var/folders/0z/tsy30v1j4xl4_7kw94k978ww0000gn/T//ccZBZI6H.s 			page 7


 316:Drivers/lvgl/src/widgets/lv_btnmatrix.c **** }
 317:Drivers/lvgl/src/widgets/lv_btnmatrix.c **** 
 318:Drivers/lvgl/src/widgets/lv_btnmatrix.c **** uint16_t lv_btnmatrix_get_selected_btn(const lv_obj_t * obj)
 319:Drivers/lvgl/src/widgets/lv_btnmatrix.c **** {
 320:Drivers/lvgl/src/widgets/lv_btnmatrix.c ****     LV_ASSERT_OBJ(obj, MY_CLASS);
 321:Drivers/lvgl/src/widgets/lv_btnmatrix.c **** 
 322:Drivers/lvgl/src/widgets/lv_btnmatrix.c ****     lv_btnmatrix_t * btnm = (lv_btnmatrix_t *)obj;;
 323:Drivers/lvgl/src/widgets/lv_btnmatrix.c ****     return btnm->btn_id_sel;
 324:Drivers/lvgl/src/widgets/lv_btnmatrix.c **** }
 325:Drivers/lvgl/src/widgets/lv_btnmatrix.c **** 
 326:Drivers/lvgl/src/widgets/lv_btnmatrix.c **** const char * lv_btnmatrix_get_btn_text(const lv_obj_t * obj, uint16_t btn_id)
 327:Drivers/lvgl/src/widgets/lv_btnmatrix.c **** {
 328:Drivers/lvgl/src/widgets/lv_btnmatrix.c ****     LV_ASSERT_OBJ(obj, MY_CLASS);
 329:Drivers/lvgl/src/widgets/lv_btnmatrix.c **** 
 330:Drivers/lvgl/src/widgets/lv_btnmatrix.c ****     if(btn_id == LV_BTNMATRIX_BTN_NONE) return NULL;
 331:Drivers/lvgl/src/widgets/lv_btnmatrix.c **** 
 332:Drivers/lvgl/src/widgets/lv_btnmatrix.c ****     lv_btnmatrix_t * btnm = (lv_btnmatrix_t *)obj;
 333:Drivers/lvgl/src/widgets/lv_btnmatrix.c ****     if(btn_id > btnm->btn_cnt) return NULL;
 334:Drivers/lvgl/src/widgets/lv_btnmatrix.c **** 
 335:Drivers/lvgl/src/widgets/lv_btnmatrix.c ****     uint16_t txt_i = 0;
 336:Drivers/lvgl/src/widgets/lv_btnmatrix.c ****     uint16_t btn_i = 0;
 337:Drivers/lvgl/src/widgets/lv_btnmatrix.c **** 
 338:Drivers/lvgl/src/widgets/lv_btnmatrix.c ****     /*Search the text of btnm->btn_pr the buttons text in the map
 339:Drivers/lvgl/src/widgets/lv_btnmatrix.c ****      *Skip "\n"-s*/
 340:Drivers/lvgl/src/widgets/lv_btnmatrix.c ****     while(btn_i != btn_id) {
 341:Drivers/lvgl/src/widgets/lv_btnmatrix.c ****         btn_i++;
 342:Drivers/lvgl/src/widgets/lv_btnmatrix.c ****         txt_i++;
 343:Drivers/lvgl/src/widgets/lv_btnmatrix.c ****         if(strcmp(btnm->map_p[txt_i], "\n") == 0) txt_i++;
 344:Drivers/lvgl/src/widgets/lv_btnmatrix.c ****     }
 345:Drivers/lvgl/src/widgets/lv_btnmatrix.c **** 
 346:Drivers/lvgl/src/widgets/lv_btnmatrix.c ****     if(btn_i == btnm->btn_cnt) return NULL;
 347:Drivers/lvgl/src/widgets/lv_btnmatrix.c **** 
 348:Drivers/lvgl/src/widgets/lv_btnmatrix.c ****     return btnm->map_p[txt_i];
 349:Drivers/lvgl/src/widgets/lv_btnmatrix.c **** }
 350:Drivers/lvgl/src/widgets/lv_btnmatrix.c **** 
 351:Drivers/lvgl/src/widgets/lv_btnmatrix.c **** bool lv_btnmatrix_has_btn_ctrl(lv_obj_t * obj, uint16_t btn_id, lv_btnmatrix_ctrl_t ctrl)
 352:Drivers/lvgl/src/widgets/lv_btnmatrix.c **** {
 353:Drivers/lvgl/src/widgets/lv_btnmatrix.c ****     LV_ASSERT_OBJ(obj, MY_CLASS);
 354:Drivers/lvgl/src/widgets/lv_btnmatrix.c **** 
 355:Drivers/lvgl/src/widgets/lv_btnmatrix.c ****     lv_btnmatrix_t * btnm = (lv_btnmatrix_t *)obj;;
 356:Drivers/lvgl/src/widgets/lv_btnmatrix.c ****     if(btn_id >= btnm->btn_cnt) return false;
 357:Drivers/lvgl/src/widgets/lv_btnmatrix.c **** 
 358:Drivers/lvgl/src/widgets/lv_btnmatrix.c ****     return ((btnm->ctrl_bits[btn_id] & ctrl) == ctrl) ? true : false;
 359:Drivers/lvgl/src/widgets/lv_btnmatrix.c **** }
 360:Drivers/lvgl/src/widgets/lv_btnmatrix.c **** 
 361:Drivers/lvgl/src/widgets/lv_btnmatrix.c **** bool lv_btnmatrix_get_one_checked(const lv_obj_t * obj)
 362:Drivers/lvgl/src/widgets/lv_btnmatrix.c **** {
 363:Drivers/lvgl/src/widgets/lv_btnmatrix.c ****     LV_ASSERT_OBJ(obj, MY_CLASS);
 364:Drivers/lvgl/src/widgets/lv_btnmatrix.c **** 
 365:Drivers/lvgl/src/widgets/lv_btnmatrix.c ****     lv_btnmatrix_t * btnm = (lv_btnmatrix_t *)obj;;
 366:Drivers/lvgl/src/widgets/lv_btnmatrix.c **** 
 367:Drivers/lvgl/src/widgets/lv_btnmatrix.c ****     return btnm->one_check;
 368:Drivers/lvgl/src/widgets/lv_btnmatrix.c **** }
 369:Drivers/lvgl/src/widgets/lv_btnmatrix.c **** 
 370:Drivers/lvgl/src/widgets/lv_btnmatrix.c **** /**********************
 371:Drivers/lvgl/src/widgets/lv_btnmatrix.c ****  *   STATIC FUNCTIONS
 372:Drivers/lvgl/src/widgets/lv_btnmatrix.c ****  **********************/
ARM GAS  /var/folders/0z/tsy30v1j4xl4_7kw94k978ww0000gn/T//ccZBZI6H.s 			page 8


 373:Drivers/lvgl/src/widgets/lv_btnmatrix.c **** 
 374:Drivers/lvgl/src/widgets/lv_btnmatrix.c **** static void lv_btnmatrix_constructor(const lv_obj_class_t * class_p, lv_obj_t * obj)
 375:Drivers/lvgl/src/widgets/lv_btnmatrix.c **** {
 376:Drivers/lvgl/src/widgets/lv_btnmatrix.c ****     LV_UNUSED(class_p);
 377:Drivers/lvgl/src/widgets/lv_btnmatrix.c ****     LV_TRACE_OBJ_CREATE("begin");
 378:Drivers/lvgl/src/widgets/lv_btnmatrix.c ****     lv_btnmatrix_t * btnm = (lv_btnmatrix_t *)obj;
 379:Drivers/lvgl/src/widgets/lv_btnmatrix.c ****     btnm->btn_cnt        = 0;
 380:Drivers/lvgl/src/widgets/lv_btnmatrix.c ****     btnm->row_cnt        = 0;
 381:Drivers/lvgl/src/widgets/lv_btnmatrix.c ****     btnm->btn_id_sel     = LV_BTNMATRIX_BTN_NONE;
 382:Drivers/lvgl/src/widgets/lv_btnmatrix.c ****     btnm->button_areas   = NULL;
 383:Drivers/lvgl/src/widgets/lv_btnmatrix.c ****     btnm->ctrl_bits      = NULL;
 384:Drivers/lvgl/src/widgets/lv_btnmatrix.c ****     btnm->map_p          = NULL;
 385:Drivers/lvgl/src/widgets/lv_btnmatrix.c ****     btnm->one_check      = 0;
 386:Drivers/lvgl/src/widgets/lv_btnmatrix.c **** 
 387:Drivers/lvgl/src/widgets/lv_btnmatrix.c ****     lv_btnmatrix_set_map(obj, lv_btnmatrix_def_map);
 388:Drivers/lvgl/src/widgets/lv_btnmatrix.c **** 
 389:Drivers/lvgl/src/widgets/lv_btnmatrix.c ****     LV_TRACE_OBJ_CREATE("finished");
 390:Drivers/lvgl/src/widgets/lv_btnmatrix.c **** }
 391:Drivers/lvgl/src/widgets/lv_btnmatrix.c **** 
 392:Drivers/lvgl/src/widgets/lv_btnmatrix.c **** static void lv_btnmatrix_destructor(const lv_obj_class_t * class_p, lv_obj_t * obj)
 393:Drivers/lvgl/src/widgets/lv_btnmatrix.c **** {
 394:Drivers/lvgl/src/widgets/lv_btnmatrix.c ****     LV_TRACE_OBJ_CREATE("begin");
 395:Drivers/lvgl/src/widgets/lv_btnmatrix.c ****     LV_UNUSED(class_p);
 396:Drivers/lvgl/src/widgets/lv_btnmatrix.c ****     lv_btnmatrix_t * btnm = (lv_btnmatrix_t *)obj;
 397:Drivers/lvgl/src/widgets/lv_btnmatrix.c ****     lv_mem_free(btnm->button_areas);
 398:Drivers/lvgl/src/widgets/lv_btnmatrix.c ****     lv_mem_free(btnm->ctrl_bits);
 399:Drivers/lvgl/src/widgets/lv_btnmatrix.c ****     btnm->button_areas = NULL;
 400:Drivers/lvgl/src/widgets/lv_btnmatrix.c ****     btnm->ctrl_bits = NULL;
 401:Drivers/lvgl/src/widgets/lv_btnmatrix.c ****     LV_TRACE_OBJ_CREATE("finished");
 402:Drivers/lvgl/src/widgets/lv_btnmatrix.c **** }
 403:Drivers/lvgl/src/widgets/lv_btnmatrix.c **** 
 404:Drivers/lvgl/src/widgets/lv_btnmatrix.c **** static void lv_btnmatrix_event(const lv_obj_class_t * class_p, lv_event_t * e)
 405:Drivers/lvgl/src/widgets/lv_btnmatrix.c **** {
 406:Drivers/lvgl/src/widgets/lv_btnmatrix.c ****     LV_UNUSED(class_p);
 407:Drivers/lvgl/src/widgets/lv_btnmatrix.c **** 
 408:Drivers/lvgl/src/widgets/lv_btnmatrix.c ****     lv_res_t res;
 409:Drivers/lvgl/src/widgets/lv_btnmatrix.c **** 
 410:Drivers/lvgl/src/widgets/lv_btnmatrix.c ****     /*Call the ancestor's event handler*/
 411:Drivers/lvgl/src/widgets/lv_btnmatrix.c ****     res = lv_obj_event_base(MY_CLASS, e);
 412:Drivers/lvgl/src/widgets/lv_btnmatrix.c ****     if(res != LV_RES_OK) return;
 413:Drivers/lvgl/src/widgets/lv_btnmatrix.c **** 
 414:Drivers/lvgl/src/widgets/lv_btnmatrix.c ****     lv_event_code_t code = lv_event_get_code(e);
 415:Drivers/lvgl/src/widgets/lv_btnmatrix.c ****     lv_obj_t * obj = lv_event_get_target(e);
 416:Drivers/lvgl/src/widgets/lv_btnmatrix.c ****     lv_btnmatrix_t * btnm = (lv_btnmatrix_t *)obj;
 417:Drivers/lvgl/src/widgets/lv_btnmatrix.c ****     lv_point_t p;
 418:Drivers/lvgl/src/widgets/lv_btnmatrix.c **** 
 419:Drivers/lvgl/src/widgets/lv_btnmatrix.c ****     if(code == LV_EVENT_REFR_EXT_DRAW_SIZE) {
 420:Drivers/lvgl/src/widgets/lv_btnmatrix.c ****         if(has_popovers_in_top_row(obj)) {
 421:Drivers/lvgl/src/widgets/lv_btnmatrix.c ****             /*reserve one row worth of extra space to account for popovers in the top row*/
 422:Drivers/lvgl/src/widgets/lv_btnmatrix.c ****             lv_coord_t s = btnm->row_cnt > 0 ? lv_obj_get_content_height(obj) / btnm->row_cnt : 0;
 423:Drivers/lvgl/src/widgets/lv_btnmatrix.c ****             lv_event_set_ext_draw_size(e, s);
 424:Drivers/lvgl/src/widgets/lv_btnmatrix.c ****         }
 425:Drivers/lvgl/src/widgets/lv_btnmatrix.c ****     }
 426:Drivers/lvgl/src/widgets/lv_btnmatrix.c ****     if(code == LV_EVENT_STYLE_CHANGED) {
 427:Drivers/lvgl/src/widgets/lv_btnmatrix.c ****         lv_btnmatrix_set_map(obj, btnm->map_p);
 428:Drivers/lvgl/src/widgets/lv_btnmatrix.c ****     }
 429:Drivers/lvgl/src/widgets/lv_btnmatrix.c ****     else if(code == LV_EVENT_SIZE_CHANGED) {
ARM GAS  /var/folders/0z/tsy30v1j4xl4_7kw94k978ww0000gn/T//ccZBZI6H.s 			page 9


 430:Drivers/lvgl/src/widgets/lv_btnmatrix.c ****         lv_btnmatrix_set_map(obj, btnm->map_p);
 431:Drivers/lvgl/src/widgets/lv_btnmatrix.c ****     }
 432:Drivers/lvgl/src/widgets/lv_btnmatrix.c ****     else if(code == LV_EVENT_PRESSED) {
 433:Drivers/lvgl/src/widgets/lv_btnmatrix.c ****         void * param = lv_event_get_param(e);
 434:Drivers/lvgl/src/widgets/lv_btnmatrix.c ****         invalidate_button_area(obj, btnm->btn_id_sel);
 435:Drivers/lvgl/src/widgets/lv_btnmatrix.c **** 
 436:Drivers/lvgl/src/widgets/lv_btnmatrix.c ****         lv_indev_type_t indev_type = lv_indev_get_type(lv_indev_get_act());
 437:Drivers/lvgl/src/widgets/lv_btnmatrix.c ****         if(indev_type == LV_INDEV_TYPE_POINTER || indev_type == LV_INDEV_TYPE_BUTTON) {
 438:Drivers/lvgl/src/widgets/lv_btnmatrix.c ****             uint16_t btn_pr;
 439:Drivers/lvgl/src/widgets/lv_btnmatrix.c ****             /*Search the pressed area*/
 440:Drivers/lvgl/src/widgets/lv_btnmatrix.c ****             lv_indev_get_point(param, &p);
 441:Drivers/lvgl/src/widgets/lv_btnmatrix.c ****             btn_pr = get_button_from_point(obj, &p);
 442:Drivers/lvgl/src/widgets/lv_btnmatrix.c ****             /*Handle the case where there is no button there*/
 443:Drivers/lvgl/src/widgets/lv_btnmatrix.c ****             btnm->btn_id_sel = LV_BTNMATRIX_BTN_NONE;
 444:Drivers/lvgl/src/widgets/lv_btnmatrix.c ****             if(btn_pr != LV_BTNMATRIX_BTN_NONE) {
 445:Drivers/lvgl/src/widgets/lv_btnmatrix.c ****                 if(button_is_inactive(btnm->ctrl_bits[btn_pr]) == false &&
 446:Drivers/lvgl/src/widgets/lv_btnmatrix.c ****                    button_is_hidden(btnm->ctrl_bits[btn_pr]) == false) {
 447:Drivers/lvgl/src/widgets/lv_btnmatrix.c ****                     btnm->btn_id_sel = btn_pr;
 448:Drivers/lvgl/src/widgets/lv_btnmatrix.c ****                     invalidate_button_area(obj, btnm->btn_id_sel); /*Invalidate the new area*/
 449:Drivers/lvgl/src/widgets/lv_btnmatrix.c ****                 }
 450:Drivers/lvgl/src/widgets/lv_btnmatrix.c ****             }
 451:Drivers/lvgl/src/widgets/lv_btnmatrix.c ****             else {
 452:Drivers/lvgl/src/widgets/lv_btnmatrix.c ****                 btnm->btn_id_sel = LV_BTNMATRIX_BTN_NONE;
 453:Drivers/lvgl/src/widgets/lv_btnmatrix.c ****             }
 454:Drivers/lvgl/src/widgets/lv_btnmatrix.c ****         }
 455:Drivers/lvgl/src/widgets/lv_btnmatrix.c **** 
 456:Drivers/lvgl/src/widgets/lv_btnmatrix.c ****         if(btnm->btn_id_sel != LV_BTNMATRIX_BTN_NONE) {
 457:Drivers/lvgl/src/widgets/lv_btnmatrix.c ****             if(button_is_click_trig(btnm->ctrl_bits[btnm->btn_id_sel]) == false &&
 458:Drivers/lvgl/src/widgets/lv_btnmatrix.c ****                button_is_popover(btnm->ctrl_bits[btnm->btn_id_sel]) == false &&
 459:Drivers/lvgl/src/widgets/lv_btnmatrix.c ****                button_is_inactive(btnm->ctrl_bits[btnm->btn_id_sel]) == false &&
 460:Drivers/lvgl/src/widgets/lv_btnmatrix.c ****                button_is_hidden(btnm->ctrl_bits[btnm->btn_id_sel]) == false) {
 461:Drivers/lvgl/src/widgets/lv_btnmatrix.c ****                 uint32_t b = btnm->btn_id_sel;
 462:Drivers/lvgl/src/widgets/lv_btnmatrix.c ****                 res        = lv_event_send(obj, LV_EVENT_VALUE_CHANGED, &b);
 463:Drivers/lvgl/src/widgets/lv_btnmatrix.c ****                 if(res != LV_RES_OK) return;
 464:Drivers/lvgl/src/widgets/lv_btnmatrix.c ****             }
 465:Drivers/lvgl/src/widgets/lv_btnmatrix.c ****         }
 466:Drivers/lvgl/src/widgets/lv_btnmatrix.c ****     }
 467:Drivers/lvgl/src/widgets/lv_btnmatrix.c ****     else if(code == LV_EVENT_PRESSING) {
 468:Drivers/lvgl/src/widgets/lv_btnmatrix.c ****         void * param = lv_event_get_param(e);
 469:Drivers/lvgl/src/widgets/lv_btnmatrix.c ****         uint16_t btn_pr = LV_BTNMATRIX_BTN_NONE;
 470:Drivers/lvgl/src/widgets/lv_btnmatrix.c ****         /*Search the pressed area*/
 471:Drivers/lvgl/src/widgets/lv_btnmatrix.c ****         lv_indev_t * indev = lv_indev_get_act();
 472:Drivers/lvgl/src/widgets/lv_btnmatrix.c ****         lv_indev_type_t indev_type = lv_indev_get_type(indev);
 473:Drivers/lvgl/src/widgets/lv_btnmatrix.c ****         if(indev_type == LV_INDEV_TYPE_ENCODER || indev_type == LV_INDEV_TYPE_KEYPAD) return;
 474:Drivers/lvgl/src/widgets/lv_btnmatrix.c **** 
 475:Drivers/lvgl/src/widgets/lv_btnmatrix.c ****         lv_indev_get_point(indev, &p);
 476:Drivers/lvgl/src/widgets/lv_btnmatrix.c ****         btn_pr = get_button_from_point(obj, &p);
 477:Drivers/lvgl/src/widgets/lv_btnmatrix.c ****         /*Invalidate to old and the new areas*/
 478:Drivers/lvgl/src/widgets/lv_btnmatrix.c ****         if(btn_pr != btnm->btn_id_sel) {
 479:Drivers/lvgl/src/widgets/lv_btnmatrix.c ****             if(btnm->btn_id_sel != LV_BTNMATRIX_BTN_NONE) {
 480:Drivers/lvgl/src/widgets/lv_btnmatrix.c ****                 invalidate_button_area(obj, btnm->btn_id_sel);
 481:Drivers/lvgl/src/widgets/lv_btnmatrix.c ****             }
 482:Drivers/lvgl/src/widgets/lv_btnmatrix.c **** 
 483:Drivers/lvgl/src/widgets/lv_btnmatrix.c ****             btnm->btn_id_sel = btn_pr;
 484:Drivers/lvgl/src/widgets/lv_btnmatrix.c **** 
 485:Drivers/lvgl/src/widgets/lv_btnmatrix.c ****             lv_indev_reset_long_press(param); /*Start the log press time again on the new button*/
 486:Drivers/lvgl/src/widgets/lv_btnmatrix.c ****             if(btn_pr != LV_BTNMATRIX_BTN_NONE &&
ARM GAS  /var/folders/0z/tsy30v1j4xl4_7kw94k978ww0000gn/T//ccZBZI6H.s 			page 10


 487:Drivers/lvgl/src/widgets/lv_btnmatrix.c ****                button_is_inactive(btnm->ctrl_bits[btn_pr]) == false &&
 488:Drivers/lvgl/src/widgets/lv_btnmatrix.c ****                button_is_hidden(btnm->ctrl_bits[btn_pr]) == false) {
 489:Drivers/lvgl/src/widgets/lv_btnmatrix.c ****                 invalidate_button_area(obj, btn_pr);
 490:Drivers/lvgl/src/widgets/lv_btnmatrix.c ****                 /*Send VALUE_CHANGED for the newly pressed button*/
 491:Drivers/lvgl/src/widgets/lv_btnmatrix.c ****                 if(button_is_click_trig(btnm->ctrl_bits[btn_pr]) == false &&
 492:Drivers/lvgl/src/widgets/lv_btnmatrix.c ****                    button_is_popover(btnm->ctrl_bits[btnm->btn_id_sel]) == false) {
 493:Drivers/lvgl/src/widgets/lv_btnmatrix.c ****                     uint32_t b = btn_pr;
 494:Drivers/lvgl/src/widgets/lv_btnmatrix.c ****                     res = lv_event_send(obj, LV_EVENT_VALUE_CHANGED, &b);
 495:Drivers/lvgl/src/widgets/lv_btnmatrix.c ****                     if(res != LV_RES_OK) return;
 496:Drivers/lvgl/src/widgets/lv_btnmatrix.c ****                 }
 497:Drivers/lvgl/src/widgets/lv_btnmatrix.c ****             }
 498:Drivers/lvgl/src/widgets/lv_btnmatrix.c ****         }
 499:Drivers/lvgl/src/widgets/lv_btnmatrix.c ****     }
 500:Drivers/lvgl/src/widgets/lv_btnmatrix.c ****     else if(code == LV_EVENT_RELEASED) {
 501:Drivers/lvgl/src/widgets/lv_btnmatrix.c ****         if(btnm->btn_id_sel != LV_BTNMATRIX_BTN_NONE) {
 502:Drivers/lvgl/src/widgets/lv_btnmatrix.c ****             /*Toggle the button if enabled*/
 503:Drivers/lvgl/src/widgets/lv_btnmatrix.c ****             if(button_is_checkable(btnm->ctrl_bits[btnm->btn_id_sel]) &&
 504:Drivers/lvgl/src/widgets/lv_btnmatrix.c ****                !button_is_inactive(btnm->ctrl_bits[btnm->btn_id_sel])) {
 505:Drivers/lvgl/src/widgets/lv_btnmatrix.c ****                 if(button_get_checked(btnm->ctrl_bits[btnm->btn_id_sel]) && !btnm->one_check) {
 506:Drivers/lvgl/src/widgets/lv_btnmatrix.c ****                     btnm->ctrl_bits[btnm->btn_id_sel] &= (~LV_BTNMATRIX_CTRL_CHECKED);
 507:Drivers/lvgl/src/widgets/lv_btnmatrix.c ****                 }
 508:Drivers/lvgl/src/widgets/lv_btnmatrix.c ****                 else {
 509:Drivers/lvgl/src/widgets/lv_btnmatrix.c ****                     btnm->ctrl_bits[btnm->btn_id_sel] |= LV_BTNMATRIX_CTRL_CHECKED;
 510:Drivers/lvgl/src/widgets/lv_btnmatrix.c ****                 }
 511:Drivers/lvgl/src/widgets/lv_btnmatrix.c ****                 if(btnm->one_check) make_one_button_checked(obj, btnm->btn_id_sel);
 512:Drivers/lvgl/src/widgets/lv_btnmatrix.c ****             }
 513:Drivers/lvgl/src/widgets/lv_btnmatrix.c **** 
 514:Drivers/lvgl/src/widgets/lv_btnmatrix.c **** 
 515:Drivers/lvgl/src/widgets/lv_btnmatrix.c ****             if((button_is_click_trig(btnm->ctrl_bits[btnm->btn_id_sel]) == true ||
 516:Drivers/lvgl/src/widgets/lv_btnmatrix.c ****                 button_is_popover(btnm->ctrl_bits[btnm->btn_id_sel]) == true) &&
 517:Drivers/lvgl/src/widgets/lv_btnmatrix.c ****                button_is_inactive(btnm->ctrl_bits[btnm->btn_id_sel]) == false &&
 518:Drivers/lvgl/src/widgets/lv_btnmatrix.c ****                button_is_hidden(btnm->ctrl_bits[btnm->btn_id_sel]) == false) {
 519:Drivers/lvgl/src/widgets/lv_btnmatrix.c ****                 uint32_t b = btnm->btn_id_sel;
 520:Drivers/lvgl/src/widgets/lv_btnmatrix.c ****                 res        = lv_event_send(obj, LV_EVENT_VALUE_CHANGED, &b);
 521:Drivers/lvgl/src/widgets/lv_btnmatrix.c ****                 if(res != LV_RES_OK) return;
 522:Drivers/lvgl/src/widgets/lv_btnmatrix.c ****             }
 523:Drivers/lvgl/src/widgets/lv_btnmatrix.c ****         }
 524:Drivers/lvgl/src/widgets/lv_btnmatrix.c **** 
 525:Drivers/lvgl/src/widgets/lv_btnmatrix.c ****         /*Invalidate to old pressed area*/;
 526:Drivers/lvgl/src/widgets/lv_btnmatrix.c ****         invalidate_button_area(obj, btnm->btn_id_sel);
 527:Drivers/lvgl/src/widgets/lv_btnmatrix.c **** 
 528:Drivers/lvgl/src/widgets/lv_btnmatrix.c ****     }
 529:Drivers/lvgl/src/widgets/lv_btnmatrix.c ****     else if(code == LV_EVENT_LONG_PRESSED_REPEAT) {
 530:Drivers/lvgl/src/widgets/lv_btnmatrix.c ****         if(btnm->btn_id_sel != LV_BTNMATRIX_BTN_NONE) {
 531:Drivers/lvgl/src/widgets/lv_btnmatrix.c ****             if(button_is_repeat_disabled(btnm->ctrl_bits[btnm->btn_id_sel]) == false &&
 532:Drivers/lvgl/src/widgets/lv_btnmatrix.c ****                button_is_inactive(btnm->ctrl_bits[btnm->btn_id_sel]) == false &&
 533:Drivers/lvgl/src/widgets/lv_btnmatrix.c ****                button_is_hidden(btnm->ctrl_bits[btnm->btn_id_sel]) == false) {
 534:Drivers/lvgl/src/widgets/lv_btnmatrix.c ****                 uint32_t b = btnm->btn_id_sel;
 535:Drivers/lvgl/src/widgets/lv_btnmatrix.c ****                 res        = lv_event_send(obj, LV_EVENT_VALUE_CHANGED, &b);
 536:Drivers/lvgl/src/widgets/lv_btnmatrix.c ****                 if(res != LV_RES_OK) return;
 537:Drivers/lvgl/src/widgets/lv_btnmatrix.c ****             }
 538:Drivers/lvgl/src/widgets/lv_btnmatrix.c ****         }
 539:Drivers/lvgl/src/widgets/lv_btnmatrix.c ****     }
 540:Drivers/lvgl/src/widgets/lv_btnmatrix.c ****     else if(code == LV_EVENT_PRESS_LOST) {
 541:Drivers/lvgl/src/widgets/lv_btnmatrix.c ****         invalidate_button_area(obj, btnm->btn_id_sel);
 542:Drivers/lvgl/src/widgets/lv_btnmatrix.c ****         btnm->btn_id_sel = LV_BTNMATRIX_BTN_NONE;
 543:Drivers/lvgl/src/widgets/lv_btnmatrix.c ****     }
ARM GAS  /var/folders/0z/tsy30v1j4xl4_7kw94k978ww0000gn/T//ccZBZI6H.s 			page 11


 544:Drivers/lvgl/src/widgets/lv_btnmatrix.c ****     else if(code == LV_EVENT_FOCUSED) {
 545:Drivers/lvgl/src/widgets/lv_btnmatrix.c ****         if(btnm->btn_cnt == 0) return;
 546:Drivers/lvgl/src/widgets/lv_btnmatrix.c **** 
 547:Drivers/lvgl/src/widgets/lv_btnmatrix.c ****         lv_indev_t * indev = lv_event_get_param(e);
 548:Drivers/lvgl/src/widgets/lv_btnmatrix.c ****         lv_indev_type_t indev_type = lv_indev_get_type(indev);
 549:Drivers/lvgl/src/widgets/lv_btnmatrix.c **** 
 550:Drivers/lvgl/src/widgets/lv_btnmatrix.c ****         /*If not focused by an input device assume the last input device*/
 551:Drivers/lvgl/src/widgets/lv_btnmatrix.c ****         if(indev == NULL) {
 552:Drivers/lvgl/src/widgets/lv_btnmatrix.c ****             indev = lv_indev_get_next(NULL);
 553:Drivers/lvgl/src/widgets/lv_btnmatrix.c ****             indev_type = lv_indev_get_type(indev);
 554:Drivers/lvgl/src/widgets/lv_btnmatrix.c ****         }
 555:Drivers/lvgl/src/widgets/lv_btnmatrix.c **** 
 556:Drivers/lvgl/src/widgets/lv_btnmatrix.c ****         bool editing = lv_group_get_editing(lv_obj_get_group(obj));
 557:Drivers/lvgl/src/widgets/lv_btnmatrix.c ****         /*Focus the first button if there is not selected button*/
 558:Drivers/lvgl/src/widgets/lv_btnmatrix.c ****         if(btnm->btn_id_sel == LV_BTNMATRIX_BTN_NONE) {
 559:Drivers/lvgl/src/widgets/lv_btnmatrix.c ****             if(indev_type == LV_INDEV_TYPE_KEYPAD || (indev_type == LV_INDEV_TYPE_ENCODER && editin
 560:Drivers/lvgl/src/widgets/lv_btnmatrix.c ****                 uint32_t b = 0;
 561:Drivers/lvgl/src/widgets/lv_btnmatrix.c ****                 if(btnm->one_check) {
 562:Drivers/lvgl/src/widgets/lv_btnmatrix.c ****                     while(button_is_hidden(btnm->ctrl_bits[b]) || button_is_inactive(btnm->ctrl_bit
 563:Drivers/lvgl/src/widgets/lv_btnmatrix.c ****                           button_is_checked(btnm->ctrl_bits[b]) == false) b++;
 564:Drivers/lvgl/src/widgets/lv_btnmatrix.c ****                 }
 565:Drivers/lvgl/src/widgets/lv_btnmatrix.c ****                 else {
 566:Drivers/lvgl/src/widgets/lv_btnmatrix.c ****                     while(button_is_hidden(btnm->ctrl_bits[b]) || button_is_inactive(btnm->ctrl_bit
 567:Drivers/lvgl/src/widgets/lv_btnmatrix.c ****                 }
 568:Drivers/lvgl/src/widgets/lv_btnmatrix.c **** 
 569:Drivers/lvgl/src/widgets/lv_btnmatrix.c ****                 btnm->btn_id_sel = b;
 570:Drivers/lvgl/src/widgets/lv_btnmatrix.c ****             }
 571:Drivers/lvgl/src/widgets/lv_btnmatrix.c ****             else {
 572:Drivers/lvgl/src/widgets/lv_btnmatrix.c ****                 btnm->btn_id_sel = LV_BTNMATRIX_BTN_NONE;
 573:Drivers/lvgl/src/widgets/lv_btnmatrix.c ****             }
 574:Drivers/lvgl/src/widgets/lv_btnmatrix.c ****         }
 575:Drivers/lvgl/src/widgets/lv_btnmatrix.c ****     }
 576:Drivers/lvgl/src/widgets/lv_btnmatrix.c ****     else if(code == LV_EVENT_DEFOCUSED || code == LV_EVENT_LEAVE) {
 577:Drivers/lvgl/src/widgets/lv_btnmatrix.c ****         if(btnm->btn_id_sel != LV_BTNMATRIX_BTN_NONE) invalidate_button_area(obj, btnm->btn_id_sel)
 578:Drivers/lvgl/src/widgets/lv_btnmatrix.c ****         btnm->btn_id_sel = LV_BTNMATRIX_BTN_NONE;
 579:Drivers/lvgl/src/widgets/lv_btnmatrix.c ****     }
 580:Drivers/lvgl/src/widgets/lv_btnmatrix.c ****     else if(code == LV_EVENT_KEY) {
 581:Drivers/lvgl/src/widgets/lv_btnmatrix.c **** 
 582:Drivers/lvgl/src/widgets/lv_btnmatrix.c ****         invalidate_button_area(obj, btnm->btn_id_sel);
 583:Drivers/lvgl/src/widgets/lv_btnmatrix.c **** 
 584:Drivers/lvgl/src/widgets/lv_btnmatrix.c ****         char c = *((char *)lv_event_get_param(e));
 585:Drivers/lvgl/src/widgets/lv_btnmatrix.c ****         if(c == LV_KEY_RIGHT) {
 586:Drivers/lvgl/src/widgets/lv_btnmatrix.c ****             if(btnm->btn_id_sel == LV_BTNMATRIX_BTN_NONE)  btnm->btn_id_sel = 0;
 587:Drivers/lvgl/src/widgets/lv_btnmatrix.c ****             else btnm->btn_id_sel++;
 588:Drivers/lvgl/src/widgets/lv_btnmatrix.c ****             if(btnm->btn_id_sel >= btnm->btn_cnt) btnm->btn_id_sel = 0;
 589:Drivers/lvgl/src/widgets/lv_btnmatrix.c **** 
 590:Drivers/lvgl/src/widgets/lv_btnmatrix.c ****             uint16_t btn_id_start = btnm->btn_id_sel;
 591:Drivers/lvgl/src/widgets/lv_btnmatrix.c ****             while(button_is_hidden(btnm->ctrl_bits[btnm->btn_id_sel]) || button_is_inactive(btnm->c
 592:Drivers/lvgl/src/widgets/lv_btnmatrix.c ****                 btnm->btn_id_sel++;
 593:Drivers/lvgl/src/widgets/lv_btnmatrix.c ****                 if(btnm->btn_id_sel >= btnm->btn_cnt) btnm->btn_id_sel = 0;
 594:Drivers/lvgl/src/widgets/lv_btnmatrix.c **** 
 595:Drivers/lvgl/src/widgets/lv_btnmatrix.c ****                 if(btnm->btn_id_sel == btn_id_start) {
 596:Drivers/lvgl/src/widgets/lv_btnmatrix.c ****                     btnm->btn_id_sel = LV_BTNMATRIX_BTN_NONE;
 597:Drivers/lvgl/src/widgets/lv_btnmatrix.c ****                     break;
 598:Drivers/lvgl/src/widgets/lv_btnmatrix.c ****                 }
 599:Drivers/lvgl/src/widgets/lv_btnmatrix.c ****             }
 600:Drivers/lvgl/src/widgets/lv_btnmatrix.c ****         }
ARM GAS  /var/folders/0z/tsy30v1j4xl4_7kw94k978ww0000gn/T//ccZBZI6H.s 			page 12


 601:Drivers/lvgl/src/widgets/lv_btnmatrix.c ****         else if(c == LV_KEY_LEFT) {
 602:Drivers/lvgl/src/widgets/lv_btnmatrix.c ****             if(btnm->btn_id_sel == LV_BTNMATRIX_BTN_NONE) btnm->btn_id_sel = 0;
 603:Drivers/lvgl/src/widgets/lv_btnmatrix.c **** 
 604:Drivers/lvgl/src/widgets/lv_btnmatrix.c ****             if(btnm->btn_id_sel == 0) btnm->btn_id_sel = btnm->btn_cnt - 1;
 605:Drivers/lvgl/src/widgets/lv_btnmatrix.c ****             else if(btnm->btn_id_sel > 0) btnm->btn_id_sel--;
 606:Drivers/lvgl/src/widgets/lv_btnmatrix.c **** 
 607:Drivers/lvgl/src/widgets/lv_btnmatrix.c ****             uint16_t btn_id_start = btnm->btn_id_sel;
 608:Drivers/lvgl/src/widgets/lv_btnmatrix.c ****             while(button_is_hidden(btnm->ctrl_bits[btnm->btn_id_sel]) || button_is_inactive(btnm->c
 609:Drivers/lvgl/src/widgets/lv_btnmatrix.c ****                 if(btnm->btn_id_sel > 0) btnm->btn_id_sel--;
 610:Drivers/lvgl/src/widgets/lv_btnmatrix.c ****                 else btnm->btn_id_sel = btnm->btn_cnt - 1;
 611:Drivers/lvgl/src/widgets/lv_btnmatrix.c **** 
 612:Drivers/lvgl/src/widgets/lv_btnmatrix.c ****                 if(btnm->btn_id_sel == btn_id_start) {
 613:Drivers/lvgl/src/widgets/lv_btnmatrix.c ****                     btnm->btn_id_sel = LV_BTNMATRIX_BTN_NONE;
 614:Drivers/lvgl/src/widgets/lv_btnmatrix.c ****                     break;
 615:Drivers/lvgl/src/widgets/lv_btnmatrix.c ****                 }
 616:Drivers/lvgl/src/widgets/lv_btnmatrix.c ****             }
 617:Drivers/lvgl/src/widgets/lv_btnmatrix.c ****         }
 618:Drivers/lvgl/src/widgets/lv_btnmatrix.c ****         else if(c == LV_KEY_DOWN) {
 619:Drivers/lvgl/src/widgets/lv_btnmatrix.c ****             lv_coord_t col_gap = lv_obj_get_style_pad_column(obj, LV_PART_MAIN);
 620:Drivers/lvgl/src/widgets/lv_btnmatrix.c ****             /*Find the area below the current*/
 621:Drivers/lvgl/src/widgets/lv_btnmatrix.c ****             if(btnm->btn_id_sel == LV_BTNMATRIX_BTN_NONE) {
 622:Drivers/lvgl/src/widgets/lv_btnmatrix.c ****                 btnm->btn_id_sel = 0;
 623:Drivers/lvgl/src/widgets/lv_btnmatrix.c ****                 while(button_is_hidden(btnm->ctrl_bits[btnm->btn_id_sel]) || button_is_inactive(btn
 624:Drivers/lvgl/src/widgets/lv_btnmatrix.c ****                     btnm->btn_id_sel++;
 625:Drivers/lvgl/src/widgets/lv_btnmatrix.c ****                     if(btnm->btn_id_sel >= btnm->btn_cnt) {
 626:Drivers/lvgl/src/widgets/lv_btnmatrix.c ****                         btnm->btn_id_sel = LV_BTNMATRIX_BTN_NONE;
 627:Drivers/lvgl/src/widgets/lv_btnmatrix.c ****                         break;
 628:Drivers/lvgl/src/widgets/lv_btnmatrix.c ****                     }
 629:Drivers/lvgl/src/widgets/lv_btnmatrix.c ****                 }
 630:Drivers/lvgl/src/widgets/lv_btnmatrix.c ****             }
 631:Drivers/lvgl/src/widgets/lv_btnmatrix.c ****             else {
 632:Drivers/lvgl/src/widgets/lv_btnmatrix.c ****                 uint16_t area_below;
 633:Drivers/lvgl/src/widgets/lv_btnmatrix.c ****                 lv_coord_t pr_center =
 634:Drivers/lvgl/src/widgets/lv_btnmatrix.c ****                     btnm->button_areas[btnm->btn_id_sel].x1 + (lv_area_get_width(&btnm->button_area
 635:Drivers/lvgl/src/widgets/lv_btnmatrix.c **** 
 636:Drivers/lvgl/src/widgets/lv_btnmatrix.c ****                 for(area_below = btnm->btn_id_sel; area_below < btnm->btn_cnt; area_below++) {
 637:Drivers/lvgl/src/widgets/lv_btnmatrix.c ****                     if(btnm->button_areas[area_below].y1 > btnm->button_areas[btnm->btn_id_sel].y1 
 638:Drivers/lvgl/src/widgets/lv_btnmatrix.c ****                        pr_center >= btnm->button_areas[area_below].x1 &&
 639:Drivers/lvgl/src/widgets/lv_btnmatrix.c ****                        pr_center <= btnm->button_areas[area_below].x2 + col_gap &&
 640:Drivers/lvgl/src/widgets/lv_btnmatrix.c ****                        button_is_inactive(btnm->ctrl_bits[area_below]) == false &&
 641:Drivers/lvgl/src/widgets/lv_btnmatrix.c ****                        button_is_hidden(btnm->ctrl_bits[area_below]) == false) {
 642:Drivers/lvgl/src/widgets/lv_btnmatrix.c ****                         break;
 643:Drivers/lvgl/src/widgets/lv_btnmatrix.c ****                     }
 644:Drivers/lvgl/src/widgets/lv_btnmatrix.c ****                 }
 645:Drivers/lvgl/src/widgets/lv_btnmatrix.c **** 
 646:Drivers/lvgl/src/widgets/lv_btnmatrix.c ****                 if(area_below < btnm->btn_cnt) btnm->btn_id_sel = area_below;
 647:Drivers/lvgl/src/widgets/lv_btnmatrix.c ****             }
 648:Drivers/lvgl/src/widgets/lv_btnmatrix.c ****         }
 649:Drivers/lvgl/src/widgets/lv_btnmatrix.c ****         else if(c == LV_KEY_UP) {
 650:Drivers/lvgl/src/widgets/lv_btnmatrix.c ****             lv_coord_t col_gap = lv_obj_get_style_pad_column(obj, LV_PART_MAIN);
 651:Drivers/lvgl/src/widgets/lv_btnmatrix.c ****             /*Find the area below the current*/
 652:Drivers/lvgl/src/widgets/lv_btnmatrix.c ****             if(btnm->btn_id_sel == LV_BTNMATRIX_BTN_NONE) {
 653:Drivers/lvgl/src/widgets/lv_btnmatrix.c ****                 btnm->btn_id_sel = 0;
 654:Drivers/lvgl/src/widgets/lv_btnmatrix.c ****                 while(button_is_hidden(btnm->ctrl_bits[btnm->btn_id_sel]) || button_is_inactive(btn
 655:Drivers/lvgl/src/widgets/lv_btnmatrix.c ****                     btnm->btn_id_sel++;
 656:Drivers/lvgl/src/widgets/lv_btnmatrix.c ****                     if(btnm->btn_id_sel >= btnm->btn_cnt) {
 657:Drivers/lvgl/src/widgets/lv_btnmatrix.c ****                         btnm->btn_id_sel = LV_BTNMATRIX_BTN_NONE;
ARM GAS  /var/folders/0z/tsy30v1j4xl4_7kw94k978ww0000gn/T//ccZBZI6H.s 			page 13


 658:Drivers/lvgl/src/widgets/lv_btnmatrix.c ****                         break;
 659:Drivers/lvgl/src/widgets/lv_btnmatrix.c ****                     }
 660:Drivers/lvgl/src/widgets/lv_btnmatrix.c ****                 }
 661:Drivers/lvgl/src/widgets/lv_btnmatrix.c ****             }
 662:Drivers/lvgl/src/widgets/lv_btnmatrix.c ****             else {
 663:Drivers/lvgl/src/widgets/lv_btnmatrix.c ****                 int16_t area_above;
 664:Drivers/lvgl/src/widgets/lv_btnmatrix.c ****                 lv_coord_t pr_center =
 665:Drivers/lvgl/src/widgets/lv_btnmatrix.c ****                     btnm->button_areas[btnm->btn_id_sel].x1 + (lv_area_get_width(&btnm->button_area
 666:Drivers/lvgl/src/widgets/lv_btnmatrix.c **** 
 667:Drivers/lvgl/src/widgets/lv_btnmatrix.c ****                 for(area_above = btnm->btn_id_sel; area_above >= 0; area_above--) {
 668:Drivers/lvgl/src/widgets/lv_btnmatrix.c ****                     if(btnm->button_areas[area_above].y1 < btnm->button_areas[btnm->btn_id_sel].y1 
 669:Drivers/lvgl/src/widgets/lv_btnmatrix.c ****                        pr_center >= btnm->button_areas[area_above].x1 - col_gap &&
 670:Drivers/lvgl/src/widgets/lv_btnmatrix.c ****                        pr_center <= btnm->button_areas[area_above].x2 &&
 671:Drivers/lvgl/src/widgets/lv_btnmatrix.c ****                        button_is_inactive(btnm->ctrl_bits[area_above]) == false &&
 672:Drivers/lvgl/src/widgets/lv_btnmatrix.c ****                        button_is_hidden(btnm->ctrl_bits[area_above]) == false) {
 673:Drivers/lvgl/src/widgets/lv_btnmatrix.c ****                         break;
 674:Drivers/lvgl/src/widgets/lv_btnmatrix.c ****                     }
 675:Drivers/lvgl/src/widgets/lv_btnmatrix.c ****                 }
 676:Drivers/lvgl/src/widgets/lv_btnmatrix.c ****                 if(area_above >= 0) btnm->btn_id_sel = area_above;
 677:Drivers/lvgl/src/widgets/lv_btnmatrix.c ****             }
 678:Drivers/lvgl/src/widgets/lv_btnmatrix.c ****         }
 679:Drivers/lvgl/src/widgets/lv_btnmatrix.c **** 
 680:Drivers/lvgl/src/widgets/lv_btnmatrix.c ****         invalidate_button_area(obj, btnm->btn_id_sel);
 681:Drivers/lvgl/src/widgets/lv_btnmatrix.c ****     }
 682:Drivers/lvgl/src/widgets/lv_btnmatrix.c ****     else if(code == LV_EVENT_DRAW_MAIN) {
 683:Drivers/lvgl/src/widgets/lv_btnmatrix.c ****         draw_main(e);
 684:Drivers/lvgl/src/widgets/lv_btnmatrix.c ****     }
 685:Drivers/lvgl/src/widgets/lv_btnmatrix.c **** 
 686:Drivers/lvgl/src/widgets/lv_btnmatrix.c **** }
 687:Drivers/lvgl/src/widgets/lv_btnmatrix.c **** 
 688:Drivers/lvgl/src/widgets/lv_btnmatrix.c **** static void draw_main(lv_event_t * e)
 689:Drivers/lvgl/src/widgets/lv_btnmatrix.c **** {
 690:Drivers/lvgl/src/widgets/lv_btnmatrix.c ****     lv_obj_t * obj = lv_event_get_target(e);
 691:Drivers/lvgl/src/widgets/lv_btnmatrix.c ****     lv_btnmatrix_t * btnm = (lv_btnmatrix_t *)obj;
 692:Drivers/lvgl/src/widgets/lv_btnmatrix.c ****     if(btnm->btn_cnt == 0) return;
 693:Drivers/lvgl/src/widgets/lv_btnmatrix.c **** 
 694:Drivers/lvgl/src/widgets/lv_btnmatrix.c ****     lv_draw_ctx_t * draw_ctx = lv_event_get_draw_ctx(e);
 695:Drivers/lvgl/src/widgets/lv_btnmatrix.c ****     obj->skip_trans = 1;
 696:Drivers/lvgl/src/widgets/lv_btnmatrix.c **** 
 697:Drivers/lvgl/src/widgets/lv_btnmatrix.c ****     lv_area_t area_obj;
 698:Drivers/lvgl/src/widgets/lv_btnmatrix.c ****     lv_obj_get_coords(obj, &area_obj);
 699:Drivers/lvgl/src/widgets/lv_btnmatrix.c **** 
 700:Drivers/lvgl/src/widgets/lv_btnmatrix.c ****     lv_area_t btn_area;
 701:Drivers/lvgl/src/widgets/lv_btnmatrix.c **** 
 702:Drivers/lvgl/src/widgets/lv_btnmatrix.c ****     uint16_t btn_i = 0;
 703:Drivers/lvgl/src/widgets/lv_btnmatrix.c ****     uint16_t txt_i = 0;
 704:Drivers/lvgl/src/widgets/lv_btnmatrix.c **** 
 705:Drivers/lvgl/src/widgets/lv_btnmatrix.c ****     lv_draw_rect_dsc_t draw_rect_dsc_act;
 706:Drivers/lvgl/src/widgets/lv_btnmatrix.c ****     lv_draw_label_dsc_t draw_label_dsc_act;
 707:Drivers/lvgl/src/widgets/lv_btnmatrix.c **** 
 708:Drivers/lvgl/src/widgets/lv_btnmatrix.c ****     lv_draw_rect_dsc_t draw_rect_dsc_def;
 709:Drivers/lvgl/src/widgets/lv_btnmatrix.c ****     lv_draw_label_dsc_t draw_label_dsc_def;
 710:Drivers/lvgl/src/widgets/lv_btnmatrix.c **** 
 711:Drivers/lvgl/src/widgets/lv_btnmatrix.c ****     lv_state_t state_ori = obj->state;
 712:Drivers/lvgl/src/widgets/lv_btnmatrix.c ****     obj->state = LV_STATE_DEFAULT;
 713:Drivers/lvgl/src/widgets/lv_btnmatrix.c ****     obj->skip_trans = 1;
 714:Drivers/lvgl/src/widgets/lv_btnmatrix.c ****     lv_draw_rect_dsc_init(&draw_rect_dsc_def);
ARM GAS  /var/folders/0z/tsy30v1j4xl4_7kw94k978ww0000gn/T//ccZBZI6H.s 			page 14


 715:Drivers/lvgl/src/widgets/lv_btnmatrix.c ****     lv_draw_label_dsc_init(&draw_label_dsc_def);
 716:Drivers/lvgl/src/widgets/lv_btnmatrix.c ****     lv_obj_init_draw_rect_dsc(obj, LV_PART_ITEMS, &draw_rect_dsc_def);
 717:Drivers/lvgl/src/widgets/lv_btnmatrix.c ****     lv_obj_init_draw_label_dsc(obj, LV_PART_ITEMS, &draw_label_dsc_def);
 718:Drivers/lvgl/src/widgets/lv_btnmatrix.c ****     obj->skip_trans = 0;
 719:Drivers/lvgl/src/widgets/lv_btnmatrix.c ****     obj->state = state_ori;
 720:Drivers/lvgl/src/widgets/lv_btnmatrix.c **** 
 721:Drivers/lvgl/src/widgets/lv_btnmatrix.c ****     lv_coord_t ptop = lv_obj_get_style_pad_top(obj, LV_PART_MAIN);
 722:Drivers/lvgl/src/widgets/lv_btnmatrix.c ****     lv_coord_t pbottom = lv_obj_get_style_pad_bottom(obj, LV_PART_MAIN);
 723:Drivers/lvgl/src/widgets/lv_btnmatrix.c ****     lv_coord_t pleft = lv_obj_get_style_pad_left(obj, LV_PART_MAIN);
 724:Drivers/lvgl/src/widgets/lv_btnmatrix.c ****     lv_coord_t pright = lv_obj_get_style_pad_right(obj, LV_PART_MAIN);
 725:Drivers/lvgl/src/widgets/lv_btnmatrix.c **** 
 726:Drivers/lvgl/src/widgets/lv_btnmatrix.c **** #if LV_USE_ARABIC_PERSIAN_CHARS
 727:Drivers/lvgl/src/widgets/lv_btnmatrix.c ****     const size_t txt_ap_size = 256 ;
 728:Drivers/lvgl/src/widgets/lv_btnmatrix.c ****     char * txt_ap = lv_mem_buf_get(txt_ap_size);
 729:Drivers/lvgl/src/widgets/lv_btnmatrix.c **** #endif
 730:Drivers/lvgl/src/widgets/lv_btnmatrix.c **** 
 731:Drivers/lvgl/src/widgets/lv_btnmatrix.c ****     lv_obj_draw_part_dsc_t part_draw_dsc;
 732:Drivers/lvgl/src/widgets/lv_btnmatrix.c ****     lv_obj_draw_dsc_init(&part_draw_dsc, draw_ctx);
 733:Drivers/lvgl/src/widgets/lv_btnmatrix.c ****     part_draw_dsc.part = LV_PART_ITEMS;
 734:Drivers/lvgl/src/widgets/lv_btnmatrix.c ****     part_draw_dsc.class_p = MY_CLASS;
 735:Drivers/lvgl/src/widgets/lv_btnmatrix.c ****     part_draw_dsc.type = LV_BTNMATRIX_DRAW_PART_BTN;
 736:Drivers/lvgl/src/widgets/lv_btnmatrix.c ****     part_draw_dsc.rect_dsc = &draw_rect_dsc_act;
 737:Drivers/lvgl/src/widgets/lv_btnmatrix.c ****     part_draw_dsc.label_dsc = &draw_label_dsc_act;
 738:Drivers/lvgl/src/widgets/lv_btnmatrix.c **** 
 739:Drivers/lvgl/src/widgets/lv_btnmatrix.c ****     for(btn_i = 0; btn_i < btnm->btn_cnt; btn_i++, txt_i++) {
 740:Drivers/lvgl/src/widgets/lv_btnmatrix.c ****         /*Search the next valid text in the map*/
 741:Drivers/lvgl/src/widgets/lv_btnmatrix.c ****         while(strcmp(btnm->map_p[txt_i], "\n") == 0) {
 742:Drivers/lvgl/src/widgets/lv_btnmatrix.c ****             txt_i++;
 743:Drivers/lvgl/src/widgets/lv_btnmatrix.c ****         }
 744:Drivers/lvgl/src/widgets/lv_btnmatrix.c **** 
 745:Drivers/lvgl/src/widgets/lv_btnmatrix.c ****         /*Skip hidden buttons*/
 746:Drivers/lvgl/src/widgets/lv_btnmatrix.c ****         if(button_is_hidden(btnm->ctrl_bits[btn_i])) continue;
 747:Drivers/lvgl/src/widgets/lv_btnmatrix.c **** 
 748:Drivers/lvgl/src/widgets/lv_btnmatrix.c ****         /*Get the state of the button*/
 749:Drivers/lvgl/src/widgets/lv_btnmatrix.c ****         lv_state_t btn_state = LV_STATE_DEFAULT;
 750:Drivers/lvgl/src/widgets/lv_btnmatrix.c ****         if(button_get_checked(btnm->ctrl_bits[btn_i])) btn_state |= LV_STATE_CHECKED;
 751:Drivers/lvgl/src/widgets/lv_btnmatrix.c **** 
 752:Drivers/lvgl/src/widgets/lv_btnmatrix.c ****         if(button_is_inactive(btnm->ctrl_bits[btn_i])) btn_state |= LV_STATE_DISABLED;
 753:Drivers/lvgl/src/widgets/lv_btnmatrix.c ****         else if(btn_i == btnm->btn_id_sel) {
 754:Drivers/lvgl/src/widgets/lv_btnmatrix.c ****             if(state_ori & LV_STATE_PRESSED) btn_state |= LV_STATE_PRESSED;
 755:Drivers/lvgl/src/widgets/lv_btnmatrix.c ****             if(state_ori & LV_STATE_FOCUSED) btn_state |= LV_STATE_FOCUSED;
 756:Drivers/lvgl/src/widgets/lv_btnmatrix.c ****             if(state_ori & LV_STATE_FOCUS_KEY) btn_state |= LV_STATE_FOCUS_KEY;
 757:Drivers/lvgl/src/widgets/lv_btnmatrix.c ****             if(state_ori & LV_STATE_EDITED) btn_state |= LV_STATE_EDITED;
 758:Drivers/lvgl/src/widgets/lv_btnmatrix.c ****         }
 759:Drivers/lvgl/src/widgets/lv_btnmatrix.c **** 
 760:Drivers/lvgl/src/widgets/lv_btnmatrix.c ****         /*Get the button's area*/
 761:Drivers/lvgl/src/widgets/lv_btnmatrix.c ****         lv_area_copy(&btn_area, &btnm->button_areas[btn_i]);
 762:Drivers/lvgl/src/widgets/lv_btnmatrix.c ****         btn_area.x1 += area_obj.x1;
 763:Drivers/lvgl/src/widgets/lv_btnmatrix.c ****         btn_area.y1 += area_obj.y1;
 764:Drivers/lvgl/src/widgets/lv_btnmatrix.c ****         btn_area.x2 += area_obj.x1;
 765:Drivers/lvgl/src/widgets/lv_btnmatrix.c ****         btn_area.y2 += area_obj.y1;
 766:Drivers/lvgl/src/widgets/lv_btnmatrix.c **** 
 767:Drivers/lvgl/src/widgets/lv_btnmatrix.c ****         /*Set up the draw descriptors*/
 768:Drivers/lvgl/src/widgets/lv_btnmatrix.c ****         if(btn_state == LV_STATE_DEFAULT) {
 769:Drivers/lvgl/src/widgets/lv_btnmatrix.c ****             lv_memcpy(&draw_rect_dsc_act, &draw_rect_dsc_def, sizeof(lv_draw_rect_dsc_t));
 770:Drivers/lvgl/src/widgets/lv_btnmatrix.c ****             lv_memcpy(&draw_label_dsc_act, &draw_label_dsc_def, sizeof(lv_draw_label_dsc_t));
 771:Drivers/lvgl/src/widgets/lv_btnmatrix.c ****         }
ARM GAS  /var/folders/0z/tsy30v1j4xl4_7kw94k978ww0000gn/T//ccZBZI6H.s 			page 15


 772:Drivers/lvgl/src/widgets/lv_btnmatrix.c ****         /*In other cases get the styles directly without caching them*/
 773:Drivers/lvgl/src/widgets/lv_btnmatrix.c ****         else {
 774:Drivers/lvgl/src/widgets/lv_btnmatrix.c ****             obj->state = btn_state;
 775:Drivers/lvgl/src/widgets/lv_btnmatrix.c ****             obj->skip_trans = 1;
 776:Drivers/lvgl/src/widgets/lv_btnmatrix.c ****             lv_draw_rect_dsc_init(&draw_rect_dsc_act);
 777:Drivers/lvgl/src/widgets/lv_btnmatrix.c ****             lv_draw_label_dsc_init(&draw_label_dsc_act);
 778:Drivers/lvgl/src/widgets/lv_btnmatrix.c ****             lv_obj_init_draw_rect_dsc(obj, LV_PART_ITEMS, &draw_rect_dsc_act);
 779:Drivers/lvgl/src/widgets/lv_btnmatrix.c ****             lv_obj_init_draw_label_dsc(obj, LV_PART_ITEMS, &draw_label_dsc_act);
 780:Drivers/lvgl/src/widgets/lv_btnmatrix.c ****             obj->state = state_ori;
 781:Drivers/lvgl/src/widgets/lv_btnmatrix.c ****             obj->skip_trans = 0;
 782:Drivers/lvgl/src/widgets/lv_btnmatrix.c ****         }
 783:Drivers/lvgl/src/widgets/lv_btnmatrix.c **** 
 784:Drivers/lvgl/src/widgets/lv_btnmatrix.c ****         bool recolor = button_is_recolor(btnm->ctrl_bits[btn_i]);
 785:Drivers/lvgl/src/widgets/lv_btnmatrix.c ****         if(recolor) draw_label_dsc_act.flag |= LV_TEXT_FLAG_RECOLOR;
 786:Drivers/lvgl/src/widgets/lv_btnmatrix.c ****         else draw_label_dsc_act.flag &= ~LV_TEXT_FLAG_RECOLOR;
 787:Drivers/lvgl/src/widgets/lv_btnmatrix.c **** 
 788:Drivers/lvgl/src/widgets/lv_btnmatrix.c **** 
 789:Drivers/lvgl/src/widgets/lv_btnmatrix.c ****         part_draw_dsc.draw_area = &btn_area;
 790:Drivers/lvgl/src/widgets/lv_btnmatrix.c ****         part_draw_dsc.id = btn_i;
 791:Drivers/lvgl/src/widgets/lv_btnmatrix.c ****         lv_event_send(obj, LV_EVENT_DRAW_PART_BEGIN, &part_draw_dsc);
 792:Drivers/lvgl/src/widgets/lv_btnmatrix.c **** 
 793:Drivers/lvgl/src/widgets/lv_btnmatrix.c ****         /*Remove borders on the edges if `LV_BORDER_SIDE_INTERNAL`*/
 794:Drivers/lvgl/src/widgets/lv_btnmatrix.c ****         if(draw_rect_dsc_act.border_side & LV_BORDER_SIDE_INTERNAL) {
 795:Drivers/lvgl/src/widgets/lv_btnmatrix.c ****             draw_rect_dsc_act.border_side = LV_BORDER_SIDE_FULL;
 796:Drivers/lvgl/src/widgets/lv_btnmatrix.c ****             if(btn_area.x1 == obj->coords.x1 + pleft) draw_rect_dsc_act.border_side &= ~LV_BORDER_S
 797:Drivers/lvgl/src/widgets/lv_btnmatrix.c ****             if(btn_area.x2 == obj->coords.x2 - pright) draw_rect_dsc_act.border_side &= ~LV_BORDER_
 798:Drivers/lvgl/src/widgets/lv_btnmatrix.c ****             if(btn_area.y1 == obj->coords.y1 + ptop) draw_rect_dsc_act.border_side &= ~LV_BORDER_SI
 799:Drivers/lvgl/src/widgets/lv_btnmatrix.c ****             if(btn_area.y2 == obj->coords.y2 - pbottom) draw_rect_dsc_act.border_side &= ~LV_BORDER
 800:Drivers/lvgl/src/widgets/lv_btnmatrix.c ****         }
 801:Drivers/lvgl/src/widgets/lv_btnmatrix.c **** 
 802:Drivers/lvgl/src/widgets/lv_btnmatrix.c ****         lv_coord_t btn_height = lv_area_get_height(&btn_area);
 803:Drivers/lvgl/src/widgets/lv_btnmatrix.c **** 
 804:Drivers/lvgl/src/widgets/lv_btnmatrix.c ****         if((btn_state & LV_STATE_PRESSED) && (btnm->ctrl_bits[btn_i] & LV_BTNMATRIX_CTRL_POPOVER)) 
 805:Drivers/lvgl/src/widgets/lv_btnmatrix.c ****             /*Push up the upper boundary of the btn area to create the popover*/
 806:Drivers/lvgl/src/widgets/lv_btnmatrix.c ****             btn_area.y1 -= btn_height;
 807:Drivers/lvgl/src/widgets/lv_btnmatrix.c ****         }
 808:Drivers/lvgl/src/widgets/lv_btnmatrix.c **** 
 809:Drivers/lvgl/src/widgets/lv_btnmatrix.c ****         /*Draw the background*/
 810:Drivers/lvgl/src/widgets/lv_btnmatrix.c ****         lv_draw_rect(draw_ctx, &draw_rect_dsc_act, &btn_area);
 811:Drivers/lvgl/src/widgets/lv_btnmatrix.c **** 
 812:Drivers/lvgl/src/widgets/lv_btnmatrix.c ****         /*Calculate the size of the text*/
 813:Drivers/lvgl/src/widgets/lv_btnmatrix.c ****         const lv_font_t * font = draw_label_dsc_act.font;
 814:Drivers/lvgl/src/widgets/lv_btnmatrix.c ****         lv_coord_t letter_space = draw_label_dsc_act.letter_space;
 815:Drivers/lvgl/src/widgets/lv_btnmatrix.c ****         lv_coord_t line_space = draw_label_dsc_act.line_space;
 816:Drivers/lvgl/src/widgets/lv_btnmatrix.c ****         const char * txt = btnm->map_p[txt_i];
 817:Drivers/lvgl/src/widgets/lv_btnmatrix.c **** 
 818:Drivers/lvgl/src/widgets/lv_btnmatrix.c **** #if LV_USE_ARABIC_PERSIAN_CHARS
 819:Drivers/lvgl/src/widgets/lv_btnmatrix.c ****         /*Get the size of the Arabic text and process it*/
 820:Drivers/lvgl/src/widgets/lv_btnmatrix.c ****         size_t len_ap = _lv_txt_ap_calc_bytes_cnt(txt);
 821:Drivers/lvgl/src/widgets/lv_btnmatrix.c ****         if(len_ap < txt_ap_size) {
 822:Drivers/lvgl/src/widgets/lv_btnmatrix.c ****             _lv_txt_ap_proc(txt, txt_ap);
 823:Drivers/lvgl/src/widgets/lv_btnmatrix.c ****             txt = txt_ap;
 824:Drivers/lvgl/src/widgets/lv_btnmatrix.c ****         }
 825:Drivers/lvgl/src/widgets/lv_btnmatrix.c **** #endif
 826:Drivers/lvgl/src/widgets/lv_btnmatrix.c ****         lv_point_t txt_size;
 827:Drivers/lvgl/src/widgets/lv_btnmatrix.c ****         lv_txt_get_size(&txt_size, txt, font, letter_space,
 828:Drivers/lvgl/src/widgets/lv_btnmatrix.c ****                         line_space, lv_area_get_width(&area_obj), draw_label_dsc_act.flag);
ARM GAS  /var/folders/0z/tsy30v1j4xl4_7kw94k978ww0000gn/T//ccZBZI6H.s 			page 16


 829:Drivers/lvgl/src/widgets/lv_btnmatrix.c **** 
 830:Drivers/lvgl/src/widgets/lv_btnmatrix.c ****         btn_area.x1 += (lv_area_get_width(&btn_area) - txt_size.x) / 2;
 831:Drivers/lvgl/src/widgets/lv_btnmatrix.c ****         btn_area.y1 += (lv_area_get_height(&btn_area) - txt_size.y) / 2;
 832:Drivers/lvgl/src/widgets/lv_btnmatrix.c ****         btn_area.x2 = btn_area.x1 + txt_size.x;
 833:Drivers/lvgl/src/widgets/lv_btnmatrix.c ****         btn_area.y2 = btn_area.y1 + txt_size.y;
 834:Drivers/lvgl/src/widgets/lv_btnmatrix.c **** 
 835:Drivers/lvgl/src/widgets/lv_btnmatrix.c ****         if((btn_state & LV_STATE_PRESSED) && (btnm->ctrl_bits[btn_i] & LV_BTNMATRIX_CTRL_POPOVER)) 
 836:Drivers/lvgl/src/widgets/lv_btnmatrix.c ****             /*Push up the button text into the popover*/
 837:Drivers/lvgl/src/widgets/lv_btnmatrix.c ****             btn_area.y1 -= btn_height / 2;
 838:Drivers/lvgl/src/widgets/lv_btnmatrix.c ****             btn_area.y2 -= btn_height / 2;
 839:Drivers/lvgl/src/widgets/lv_btnmatrix.c ****         }
 840:Drivers/lvgl/src/widgets/lv_btnmatrix.c **** 
 841:Drivers/lvgl/src/widgets/lv_btnmatrix.c ****         /*Draw the text*/
 842:Drivers/lvgl/src/widgets/lv_btnmatrix.c ****         lv_draw_label(draw_ctx, &draw_label_dsc_act, &btn_area, txt, NULL);
 843:Drivers/lvgl/src/widgets/lv_btnmatrix.c **** 
 844:Drivers/lvgl/src/widgets/lv_btnmatrix.c ****         lv_event_send(obj, LV_EVENT_DRAW_PART_END, &part_draw_dsc);
 845:Drivers/lvgl/src/widgets/lv_btnmatrix.c ****     }
 846:Drivers/lvgl/src/widgets/lv_btnmatrix.c **** 
 847:Drivers/lvgl/src/widgets/lv_btnmatrix.c ****     obj->skip_trans = 0;
 848:Drivers/lvgl/src/widgets/lv_btnmatrix.c **** #if LV_USE_ARABIC_PERSIAN_CHARS
 849:Drivers/lvgl/src/widgets/lv_btnmatrix.c ****     lv_mem_buf_release(txt_ap);
 850:Drivers/lvgl/src/widgets/lv_btnmatrix.c **** #endif
 851:Drivers/lvgl/src/widgets/lv_btnmatrix.c **** }
 852:Drivers/lvgl/src/widgets/lv_btnmatrix.c **** /**
 853:Drivers/lvgl/src/widgets/lv_btnmatrix.c ****  * Create the required number of buttons and control bytes according to a map
 854:Drivers/lvgl/src/widgets/lv_btnmatrix.c ****  * @param obj pointer to button matrix object
 855:Drivers/lvgl/src/widgets/lv_btnmatrix.c ****  * @param map_p pointer to a string array
 856:Drivers/lvgl/src/widgets/lv_btnmatrix.c ****  */
 857:Drivers/lvgl/src/widgets/lv_btnmatrix.c **** static void allocate_btn_areas_and_controls(const lv_obj_t * obj, const char ** map)
 858:Drivers/lvgl/src/widgets/lv_btnmatrix.c **** {
 859:Drivers/lvgl/src/widgets/lv_btnmatrix.c ****     lv_btnmatrix_t * btnm = (lv_btnmatrix_t *)obj;
 860:Drivers/lvgl/src/widgets/lv_btnmatrix.c ****     btnm->row_cnt = 1;
 861:Drivers/lvgl/src/widgets/lv_btnmatrix.c ****     /*Count the buttons in the map*/
 862:Drivers/lvgl/src/widgets/lv_btnmatrix.c ****     uint16_t btn_cnt = 0;
 863:Drivers/lvgl/src/widgets/lv_btnmatrix.c ****     uint16_t i       = 0;
 864:Drivers/lvgl/src/widgets/lv_btnmatrix.c ****     while(map[i] && map[i][0] != '\0') {
 865:Drivers/lvgl/src/widgets/lv_btnmatrix.c ****         if(strcmp(map[i], "\n") != 0) { /*Do not count line breaks*/
 866:Drivers/lvgl/src/widgets/lv_btnmatrix.c ****             btn_cnt++;
 867:Drivers/lvgl/src/widgets/lv_btnmatrix.c ****         }
 868:Drivers/lvgl/src/widgets/lv_btnmatrix.c ****         else {
 869:Drivers/lvgl/src/widgets/lv_btnmatrix.c ****             btnm->row_cnt++;
 870:Drivers/lvgl/src/widgets/lv_btnmatrix.c ****         }
 871:Drivers/lvgl/src/widgets/lv_btnmatrix.c ****         i++;
 872:Drivers/lvgl/src/widgets/lv_btnmatrix.c ****     }
 873:Drivers/lvgl/src/widgets/lv_btnmatrix.c **** 
 874:Drivers/lvgl/src/widgets/lv_btnmatrix.c ****     /*Do not allocate memory for the same amount of buttons*/
 875:Drivers/lvgl/src/widgets/lv_btnmatrix.c ****     if(btn_cnt == btnm->btn_cnt) return;
 876:Drivers/lvgl/src/widgets/lv_btnmatrix.c **** 
 877:Drivers/lvgl/src/widgets/lv_btnmatrix.c ****     if(btnm->button_areas != NULL) {
 878:Drivers/lvgl/src/widgets/lv_btnmatrix.c ****         lv_mem_free(btnm->button_areas);
 879:Drivers/lvgl/src/widgets/lv_btnmatrix.c ****         btnm->button_areas = NULL;
 880:Drivers/lvgl/src/widgets/lv_btnmatrix.c ****     }
 881:Drivers/lvgl/src/widgets/lv_btnmatrix.c ****     if(btnm->ctrl_bits != NULL) {
 882:Drivers/lvgl/src/widgets/lv_btnmatrix.c ****         lv_mem_free(btnm->ctrl_bits);
 883:Drivers/lvgl/src/widgets/lv_btnmatrix.c ****         btnm->ctrl_bits = NULL;
 884:Drivers/lvgl/src/widgets/lv_btnmatrix.c ****     }
 885:Drivers/lvgl/src/widgets/lv_btnmatrix.c **** 
ARM GAS  /var/folders/0z/tsy30v1j4xl4_7kw94k978ww0000gn/T//ccZBZI6H.s 			page 17


 886:Drivers/lvgl/src/widgets/lv_btnmatrix.c ****     btnm->button_areas = lv_mem_alloc(sizeof(lv_area_t) * btn_cnt);
 887:Drivers/lvgl/src/widgets/lv_btnmatrix.c ****     LV_ASSERT_MALLOC(btnm->button_areas);
 888:Drivers/lvgl/src/widgets/lv_btnmatrix.c ****     btnm->ctrl_bits = lv_mem_alloc(sizeof(lv_btnmatrix_ctrl_t) * btn_cnt);
 889:Drivers/lvgl/src/widgets/lv_btnmatrix.c ****     LV_ASSERT_MALLOC(btnm->ctrl_bits);
 890:Drivers/lvgl/src/widgets/lv_btnmatrix.c ****     if(btnm->button_areas == NULL || btnm->ctrl_bits == NULL) btn_cnt = 0;
 891:Drivers/lvgl/src/widgets/lv_btnmatrix.c **** 
 892:Drivers/lvgl/src/widgets/lv_btnmatrix.c ****     lv_memset_00(btnm->ctrl_bits, sizeof(lv_btnmatrix_ctrl_t) * btn_cnt);
 893:Drivers/lvgl/src/widgets/lv_btnmatrix.c **** 
 894:Drivers/lvgl/src/widgets/lv_btnmatrix.c ****     btnm->btn_cnt = btn_cnt;
 895:Drivers/lvgl/src/widgets/lv_btnmatrix.c **** }
 896:Drivers/lvgl/src/widgets/lv_btnmatrix.c **** 
 897:Drivers/lvgl/src/widgets/lv_btnmatrix.c **** /**
 898:Drivers/lvgl/src/widgets/lv_btnmatrix.c ****  * Get the width of a button in units (default is 1).
 899:Drivers/lvgl/src/widgets/lv_btnmatrix.c ****  * @param ctrl_bits least significant 3 bits used (1..7 valid values)
 900:Drivers/lvgl/src/widgets/lv_btnmatrix.c ****  * @return the width of the button in units
 901:Drivers/lvgl/src/widgets/lv_btnmatrix.c ****  */
 902:Drivers/lvgl/src/widgets/lv_btnmatrix.c **** static uint8_t get_button_width(lv_btnmatrix_ctrl_t ctrl_bits)
 903:Drivers/lvgl/src/widgets/lv_btnmatrix.c **** {
  29              		.loc 1 903 1 view -0
  30              		.cfi_startproc
  31              		@ args = 0, pretend = 0, frame = 0
  32              		@ frame_needed = 0, uses_anonymous_args = 0
  33              		@ link register save eliminated.
 904:Drivers/lvgl/src/widgets/lv_btnmatrix.c ****     uint8_t w = ctrl_bits & LV_BTNMATRIX_WIDTH_MASK;
  34              		.loc 1 904 5 view .LVU1
 905:Drivers/lvgl/src/widgets/lv_btnmatrix.c ****     return w != 0 ? w : 1;
  35              		.loc 1 905 5 view .LVU2
  36              		.loc 1 905 23 is_stmt 0 view .LVU3
  37 0000 10F00F00 		ands	r0, r0, #15
  38              	.LVL1:
  39              		.loc 1 905 23 view .LVU4
  40 0004 00D1     		bne	.L2
  41 0006 0120     		movs	r0, #1
  42              	.L2:
 906:Drivers/lvgl/src/widgets/lv_btnmatrix.c **** }
  43              		.loc 1 906 1 discriminator 4 view .LVU5
  44 0008 7047     		bx	lr
  45              		.cfi_endproc
  46              	.LFE181:
  48              		.section	.text.button_is_hidden,"ax",%progbits
  49              		.align	1
  50              		.syntax unified
  51              		.thumb
  52              		.thumb_func
  54              	button_is_hidden:
  55              	.LVL2:
  56              	.LFB182:
 907:Drivers/lvgl/src/widgets/lv_btnmatrix.c **** 
 908:Drivers/lvgl/src/widgets/lv_btnmatrix.c **** static bool button_is_hidden(lv_btnmatrix_ctrl_t ctrl_bits)
 909:Drivers/lvgl/src/widgets/lv_btnmatrix.c **** {
  57              		.loc 1 909 1 is_stmt 1 view -0
  58              		.cfi_startproc
  59              		@ args = 0, pretend = 0, frame = 0
  60              		@ frame_needed = 0, uses_anonymous_args = 0
  61              		@ link register save eliminated.
 910:Drivers/lvgl/src/widgets/lv_btnmatrix.c ****     return (ctrl_bits & LV_BTNMATRIX_CTRL_HIDDEN) ? true : false;
  62              		.loc 1 910 5 view .LVU7
ARM GAS  /var/folders/0z/tsy30v1j4xl4_7kw94k978ww0000gn/T//ccZBZI6H.s 			page 18


 911:Drivers/lvgl/src/widgets/lv_btnmatrix.c **** }
  63              		.loc 1 911 1 is_stmt 0 view .LVU8
  64 0000 C0F30010 		ubfx	r0, r0, #4, #1
  65              	.LVL3:
  66              		.loc 1 911 1 view .LVU9
  67 0004 7047     		bx	lr
  68              		.cfi_endproc
  69              	.LFE182:
  71              		.section	.text.button_is_checked,"ax",%progbits
  72              		.align	1
  73              		.syntax unified
  74              		.thumb
  75              		.thumb_func
  77              	button_is_checked:
  78              	.LVL4:
  79              	.LFB183:
 912:Drivers/lvgl/src/widgets/lv_btnmatrix.c **** 
 913:Drivers/lvgl/src/widgets/lv_btnmatrix.c **** static bool button_is_checked(lv_btnmatrix_ctrl_t ctrl_bits)
 914:Drivers/lvgl/src/widgets/lv_btnmatrix.c **** {
  80              		.loc 1 914 1 is_stmt 1 view -0
  81              		.cfi_startproc
  82              		@ args = 0, pretend = 0, frame = 0
  83              		@ frame_needed = 0, uses_anonymous_args = 0
  84              		@ link register save eliminated.
 915:Drivers/lvgl/src/widgets/lv_btnmatrix.c ****     return (ctrl_bits & LV_BTNMATRIX_CTRL_CHECKED) ? true : false;
  85              		.loc 1 915 5 view .LVU11
 916:Drivers/lvgl/src/widgets/lv_btnmatrix.c **** }
  86              		.loc 1 916 1 is_stmt 0 view .LVU12
  87 0000 C0F30020 		ubfx	r0, r0, #8, #1
  88              	.LVL5:
  89              		.loc 1 916 1 view .LVU13
  90 0004 7047     		bx	lr
  91              		.cfi_endproc
  92              	.LFE183:
  94              		.section	.text.button_is_repeat_disabled,"ax",%progbits
  95              		.align	1
  96              		.syntax unified
  97              		.thumb
  98              		.thumb_func
 100              	button_is_repeat_disabled:
 101              	.LVL6:
 102              	.LFB184:
 917:Drivers/lvgl/src/widgets/lv_btnmatrix.c **** 
 918:Drivers/lvgl/src/widgets/lv_btnmatrix.c **** static bool button_is_repeat_disabled(lv_btnmatrix_ctrl_t ctrl_bits)
 919:Drivers/lvgl/src/widgets/lv_btnmatrix.c **** {
 103              		.loc 1 919 1 is_stmt 1 view -0
 104              		.cfi_startproc
 105              		@ args = 0, pretend = 0, frame = 0
 106              		@ frame_needed = 0, uses_anonymous_args = 0
 107              		@ link register save eliminated.
 920:Drivers/lvgl/src/widgets/lv_btnmatrix.c ****     return (ctrl_bits & LV_BTNMATRIX_CTRL_NO_REPEAT) ? true : false;
 108              		.loc 1 920 5 view .LVU15
 921:Drivers/lvgl/src/widgets/lv_btnmatrix.c **** }
 109              		.loc 1 921 1 is_stmt 0 view .LVU16
 110 0000 C0F34010 		ubfx	r0, r0, #5, #1
 111              	.LVL7:
 112              		.loc 1 921 1 view .LVU17
ARM GAS  /var/folders/0z/tsy30v1j4xl4_7kw94k978ww0000gn/T//ccZBZI6H.s 			page 19


 113 0004 7047     		bx	lr
 114              		.cfi_endproc
 115              	.LFE184:
 117              		.section	.text.button_is_inactive,"ax",%progbits
 118              		.align	1
 119              		.syntax unified
 120              		.thumb
 121              		.thumb_func
 123              	button_is_inactive:
 124              	.LVL8:
 125              	.LFB185:
 922:Drivers/lvgl/src/widgets/lv_btnmatrix.c **** 
 923:Drivers/lvgl/src/widgets/lv_btnmatrix.c **** static bool button_is_inactive(lv_btnmatrix_ctrl_t ctrl_bits)
 924:Drivers/lvgl/src/widgets/lv_btnmatrix.c **** {
 126              		.loc 1 924 1 is_stmt 1 view -0
 127              		.cfi_startproc
 128              		@ args = 0, pretend = 0, frame = 0
 129              		@ frame_needed = 0, uses_anonymous_args = 0
 130              		@ link register save eliminated.
 925:Drivers/lvgl/src/widgets/lv_btnmatrix.c ****     return (ctrl_bits & LV_BTNMATRIX_CTRL_DISABLED) ? true : false;
 131              		.loc 1 925 5 view .LVU19
 926:Drivers/lvgl/src/widgets/lv_btnmatrix.c **** }
 132              		.loc 1 926 1 is_stmt 0 view .LVU20
 133 0000 C0F38010 		ubfx	r0, r0, #6, #1
 134              	.LVL9:
 135              		.loc 1 926 1 view .LVU21
 136 0004 7047     		bx	lr
 137              		.cfi_endproc
 138              	.LFE185:
 140              		.section	.text.button_is_click_trig,"ax",%progbits
 141              		.align	1
 142              		.syntax unified
 143              		.thumb
 144              		.thumb_func
 146              	button_is_click_trig:
 147              	.LVL10:
 148              	.LFB186:
 927:Drivers/lvgl/src/widgets/lv_btnmatrix.c **** 
 928:Drivers/lvgl/src/widgets/lv_btnmatrix.c **** static bool button_is_click_trig(lv_btnmatrix_ctrl_t ctrl_bits)
 929:Drivers/lvgl/src/widgets/lv_btnmatrix.c **** {
 149              		.loc 1 929 1 is_stmt 1 view -0
 150              		.cfi_startproc
 151              		@ args = 0, pretend = 0, frame = 0
 152              		@ frame_needed = 0, uses_anonymous_args = 0
 153              		@ link register save eliminated.
 930:Drivers/lvgl/src/widgets/lv_btnmatrix.c ****     return (ctrl_bits & LV_BTNMATRIX_CTRL_CLICK_TRIG) ? true : false;
 154              		.loc 1 930 5 view .LVU23
 931:Drivers/lvgl/src/widgets/lv_btnmatrix.c **** }
 155              		.loc 1 931 1 is_stmt 0 view .LVU24
 156 0000 C0F34020 		ubfx	r0, r0, #9, #1
 157              	.LVL11:
 158              		.loc 1 931 1 view .LVU25
 159 0004 7047     		bx	lr
 160              		.cfi_endproc
 161              	.LFE186:
 163              		.section	.text.button_is_popover,"ax",%progbits
 164              		.align	1
ARM GAS  /var/folders/0z/tsy30v1j4xl4_7kw94k978ww0000gn/T//ccZBZI6H.s 			page 20


 165              		.syntax unified
 166              		.thumb
 167              		.thumb_func
 169              	button_is_popover:
 170              	.LVL12:
 171              	.LFB187:
 932:Drivers/lvgl/src/widgets/lv_btnmatrix.c **** 
 933:Drivers/lvgl/src/widgets/lv_btnmatrix.c **** static bool button_is_popover(lv_btnmatrix_ctrl_t ctrl_bits)
 934:Drivers/lvgl/src/widgets/lv_btnmatrix.c **** {
 172              		.loc 1 934 1 is_stmt 1 view -0
 173              		.cfi_startproc
 174              		@ args = 0, pretend = 0, frame = 0
 175              		@ frame_needed = 0, uses_anonymous_args = 0
 176              		@ link register save eliminated.
 935:Drivers/lvgl/src/widgets/lv_btnmatrix.c ****     return (ctrl_bits & LV_BTNMATRIX_CTRL_POPOVER) ? true : false;
 177              		.loc 1 935 5 view .LVU27
 936:Drivers/lvgl/src/widgets/lv_btnmatrix.c **** }
 178              		.loc 1 936 1 is_stmt 0 view .LVU28
 179 0000 C0F38020 		ubfx	r0, r0, #10, #1
 180              	.LVL13:
 181              		.loc 1 936 1 view .LVU29
 182 0004 7047     		bx	lr
 183              		.cfi_endproc
 184              	.LFE187:
 186              		.section	.text.button_is_checkable,"ax",%progbits
 187              		.align	1
 188              		.syntax unified
 189              		.thumb
 190              		.thumb_func
 192              	button_is_checkable:
 193              	.LVL14:
 194              	.LFB188:
 937:Drivers/lvgl/src/widgets/lv_btnmatrix.c **** 
 938:Drivers/lvgl/src/widgets/lv_btnmatrix.c **** static bool button_is_checkable(lv_btnmatrix_ctrl_t ctrl_bits)
 939:Drivers/lvgl/src/widgets/lv_btnmatrix.c **** {
 195              		.loc 1 939 1 is_stmt 1 view -0
 196              		.cfi_startproc
 197              		@ args = 0, pretend = 0, frame = 0
 198              		@ frame_needed = 0, uses_anonymous_args = 0
 199              		@ link register save eliminated.
 940:Drivers/lvgl/src/widgets/lv_btnmatrix.c ****     return (ctrl_bits & LV_BTNMATRIX_CTRL_CHECKABLE) ? true : false;
 200              		.loc 1 940 5 view .LVU31
 941:Drivers/lvgl/src/widgets/lv_btnmatrix.c **** }
 201              		.loc 1 941 1 is_stmt 0 view .LVU32
 202 0000 C0F3C010 		ubfx	r0, r0, #7, #1
 203              	.LVL15:
 204              		.loc 1 941 1 view .LVU33
 205 0004 7047     		bx	lr
 206              		.cfi_endproc
 207              	.LFE188:
 209              		.section	.text.button_get_checked,"ax",%progbits
 210              		.align	1
 211              		.syntax unified
 212              		.thumb
 213              		.thumb_func
 215              	button_get_checked:
 216              	.LVL16:
ARM GAS  /var/folders/0z/tsy30v1j4xl4_7kw94k978ww0000gn/T//ccZBZI6H.s 			page 21


 217              	.LFB189:
 942:Drivers/lvgl/src/widgets/lv_btnmatrix.c **** 
 943:Drivers/lvgl/src/widgets/lv_btnmatrix.c **** static bool button_get_checked(lv_btnmatrix_ctrl_t ctrl_bits)
 944:Drivers/lvgl/src/widgets/lv_btnmatrix.c **** {
 218              		.loc 1 944 1 is_stmt 1 view -0
 219              		.cfi_startproc
 220              		@ args = 0, pretend = 0, frame = 0
 221              		@ frame_needed = 0, uses_anonymous_args = 0
 222              		@ link register save eliminated.
 945:Drivers/lvgl/src/widgets/lv_btnmatrix.c ****     return (ctrl_bits & LV_BTNMATRIX_CTRL_CHECKED) ? true : false;
 223              		.loc 1 945 5 view .LVU35
 946:Drivers/lvgl/src/widgets/lv_btnmatrix.c **** }
 224              		.loc 1 946 1 is_stmt 0 view .LVU36
 225 0000 C0F30020 		ubfx	r0, r0, #8, #1
 226              	.LVL17:
 227              		.loc 1 946 1 view .LVU37
 228 0004 7047     		bx	lr
 229              		.cfi_endproc
 230              	.LFE189:
 232              		.section	.text.button_is_recolor,"ax",%progbits
 233              		.align	1
 234              		.syntax unified
 235              		.thumb
 236              		.thumb_func
 238              	button_is_recolor:
 239              	.LVL18:
 240              	.LFB190:
 947:Drivers/lvgl/src/widgets/lv_btnmatrix.c **** 
 948:Drivers/lvgl/src/widgets/lv_btnmatrix.c **** static bool button_is_recolor(lv_btnmatrix_ctrl_t ctrl_bits)
 949:Drivers/lvgl/src/widgets/lv_btnmatrix.c **** {
 241              		.loc 1 949 1 is_stmt 1 view -0
 242              		.cfi_startproc
 243              		@ args = 0, pretend = 0, frame = 0
 244              		@ frame_needed = 0, uses_anonymous_args = 0
 245              		@ link register save eliminated.
 950:Drivers/lvgl/src/widgets/lv_btnmatrix.c ****     return (ctrl_bits & LV_BTNMATRIX_CTRL_RECOLOR) ? true : false;
 246              		.loc 1 950 5 view .LVU39
 951:Drivers/lvgl/src/widgets/lv_btnmatrix.c **** }
 247              		.loc 1 951 1 is_stmt 0 view .LVU40
 248 0000 C0F3C020 		ubfx	r0, r0, #11, #1
 249              	.LVL19:
 250              		.loc 1 951 1 view .LVU41
 251 0004 7047     		bx	lr
 252              		.cfi_endproc
 253              	.LFE190:
 255              		.section	.rodata.has_popovers_in_top_row.str1.4,"aMS",%progbits,1
 256              		.align	2
 257              	.LC0:
 258 0000 0A00     		.ascii	"\012\000"
 259              		.section	.text.has_popovers_in_top_row,"ax",%progbits
 260              		.align	1
 261              		.syntax unified
 262              		.thumb
 263              		.thumb_func
 265              	has_popovers_in_top_row:
 266              	.LVL20:
 267              	.LFB194:
ARM GAS  /var/folders/0z/tsy30v1j4xl4_7kw94k978ww0000gn/T//ccZBZI6H.s 			page 22


 952:Drivers/lvgl/src/widgets/lv_btnmatrix.c **** /**
 953:Drivers/lvgl/src/widgets/lv_btnmatrix.c ****  * Gives the button id of a button under a given point
 954:Drivers/lvgl/src/widgets/lv_btnmatrix.c ****  * @param obj pointer to a button matrix object
 955:Drivers/lvgl/src/widgets/lv_btnmatrix.c ****  * @param p a point with absolute coordinates
 956:Drivers/lvgl/src/widgets/lv_btnmatrix.c ****  * @return the id of the button or LV_BTNMATRIX_BTN_NONE.
 957:Drivers/lvgl/src/widgets/lv_btnmatrix.c ****  */
 958:Drivers/lvgl/src/widgets/lv_btnmatrix.c **** static uint16_t get_button_from_point(lv_obj_t * obj, lv_point_t * p)
 959:Drivers/lvgl/src/widgets/lv_btnmatrix.c **** {
 960:Drivers/lvgl/src/widgets/lv_btnmatrix.c ****     lv_area_t obj_cords;
 961:Drivers/lvgl/src/widgets/lv_btnmatrix.c ****     lv_area_t btn_area;
 962:Drivers/lvgl/src/widgets/lv_btnmatrix.c ****     lv_btnmatrix_t * btnm = (lv_btnmatrix_t *)obj;;
 963:Drivers/lvgl/src/widgets/lv_btnmatrix.c ****     uint16_t i;
 964:Drivers/lvgl/src/widgets/lv_btnmatrix.c ****     lv_obj_get_coords(obj, &obj_cords);
 965:Drivers/lvgl/src/widgets/lv_btnmatrix.c **** 
 966:Drivers/lvgl/src/widgets/lv_btnmatrix.c ****     lv_coord_t w = lv_obj_get_width(obj);
 967:Drivers/lvgl/src/widgets/lv_btnmatrix.c ****     lv_coord_t h = lv_obj_get_height(obj);
 968:Drivers/lvgl/src/widgets/lv_btnmatrix.c ****     lv_coord_t pleft = lv_obj_get_style_pad_left(obj, LV_PART_MAIN);
 969:Drivers/lvgl/src/widgets/lv_btnmatrix.c ****     lv_coord_t pright = lv_obj_get_style_pad_right(obj, LV_PART_MAIN);
 970:Drivers/lvgl/src/widgets/lv_btnmatrix.c ****     lv_coord_t ptop = lv_obj_get_style_pad_top(obj, LV_PART_MAIN);
 971:Drivers/lvgl/src/widgets/lv_btnmatrix.c ****     lv_coord_t pbottom = lv_obj_get_style_pad_bottom(obj, LV_PART_MAIN);
 972:Drivers/lvgl/src/widgets/lv_btnmatrix.c ****     lv_coord_t prow = lv_obj_get_style_pad_row(obj, LV_PART_MAIN);
 973:Drivers/lvgl/src/widgets/lv_btnmatrix.c ****     lv_coord_t pcol = lv_obj_get_style_pad_column(obj, LV_PART_MAIN);
 974:Drivers/lvgl/src/widgets/lv_btnmatrix.c **** 
 975:Drivers/lvgl/src/widgets/lv_btnmatrix.c ****     /*Get the half gap. Button look larger with this value. (+1 for rounding error)*/
 976:Drivers/lvgl/src/widgets/lv_btnmatrix.c ****     prow = (prow / 2) + 1 + (prow & 1);
 977:Drivers/lvgl/src/widgets/lv_btnmatrix.c ****     pcol = (pcol / 2) + 1 + (pcol & 1);
 978:Drivers/lvgl/src/widgets/lv_btnmatrix.c **** 
 979:Drivers/lvgl/src/widgets/lv_btnmatrix.c ****     prow = LV_MIN(prow, BTN_EXTRA_CLICK_AREA_MAX);
 980:Drivers/lvgl/src/widgets/lv_btnmatrix.c ****     pcol = LV_MIN(pcol, BTN_EXTRA_CLICK_AREA_MAX);
 981:Drivers/lvgl/src/widgets/lv_btnmatrix.c ****     pright = LV_MIN(pright, BTN_EXTRA_CLICK_AREA_MAX);
 982:Drivers/lvgl/src/widgets/lv_btnmatrix.c ****     ptop = LV_MIN(ptop, BTN_EXTRA_CLICK_AREA_MAX);
 983:Drivers/lvgl/src/widgets/lv_btnmatrix.c ****     pbottom = LV_MIN(pbottom, BTN_EXTRA_CLICK_AREA_MAX);
 984:Drivers/lvgl/src/widgets/lv_btnmatrix.c **** 
 985:Drivers/lvgl/src/widgets/lv_btnmatrix.c ****     for(i = 0; i < btnm->btn_cnt; i++) {
 986:Drivers/lvgl/src/widgets/lv_btnmatrix.c ****         lv_area_copy(&btn_area, &btnm->button_areas[i]);
 987:Drivers/lvgl/src/widgets/lv_btnmatrix.c ****         if(btn_area.x1 <= pleft) btn_area.x1 += obj_cords.x1 - LV_MIN(pleft, BTN_EXTRA_CLICK_AREA_M
 988:Drivers/lvgl/src/widgets/lv_btnmatrix.c ****         else btn_area.x1 += obj_cords.x1 - pcol;
 989:Drivers/lvgl/src/widgets/lv_btnmatrix.c **** 
 990:Drivers/lvgl/src/widgets/lv_btnmatrix.c ****         if(btn_area.y1 <= ptop) btn_area.y1 += obj_cords.y1 - LV_MIN(ptop, BTN_EXTRA_CLICK_AREA_MAX
 991:Drivers/lvgl/src/widgets/lv_btnmatrix.c ****         else btn_area.y1 += obj_cords.y1 - prow;
 992:Drivers/lvgl/src/widgets/lv_btnmatrix.c **** 
 993:Drivers/lvgl/src/widgets/lv_btnmatrix.c ****         if(btn_area.x2 >= w - pright - 2) btn_area.x2 += obj_cords.x1 + LV_MIN(pright,
 994:Drivers/lvgl/src/widgets/lv_btnmatrix.c ****                                                                                    BTN_EXTRA_CLICK_
 995:Drivers/lvgl/src/widgets/lv_btnmatrix.c ****         else btn_area.x2 += obj_cords.x1 + pcol;
 996:Drivers/lvgl/src/widgets/lv_btnmatrix.c **** 
 997:Drivers/lvgl/src/widgets/lv_btnmatrix.c ****         if(btn_area.y2 >= h - pbottom - 2) btn_area.y2 += obj_cords.y1 + LV_MIN(pbottom,
 998:Drivers/lvgl/src/widgets/lv_btnmatrix.c ****                                                                                     BTN_EXTRA_CLICK
 999:Drivers/lvgl/src/widgets/lv_btnmatrix.c ****         else btn_area.y2 += obj_cords.y1 + prow;
1000:Drivers/lvgl/src/widgets/lv_btnmatrix.c **** 
1001:Drivers/lvgl/src/widgets/lv_btnmatrix.c ****         if(_lv_area_is_point_on(&btn_area, p, 0) != false) {
1002:Drivers/lvgl/src/widgets/lv_btnmatrix.c ****             break;
1003:Drivers/lvgl/src/widgets/lv_btnmatrix.c ****         }
1004:Drivers/lvgl/src/widgets/lv_btnmatrix.c ****     }
1005:Drivers/lvgl/src/widgets/lv_btnmatrix.c **** 
1006:Drivers/lvgl/src/widgets/lv_btnmatrix.c ****     if(i == btnm->btn_cnt) i = LV_BTNMATRIX_BTN_NONE;
1007:Drivers/lvgl/src/widgets/lv_btnmatrix.c **** 
1008:Drivers/lvgl/src/widgets/lv_btnmatrix.c ****     return i;
ARM GAS  /var/folders/0z/tsy30v1j4xl4_7kw94k978ww0000gn/T//ccZBZI6H.s 			page 23


1009:Drivers/lvgl/src/widgets/lv_btnmatrix.c **** }
1010:Drivers/lvgl/src/widgets/lv_btnmatrix.c **** 
1011:Drivers/lvgl/src/widgets/lv_btnmatrix.c **** static void invalidate_button_area(const lv_obj_t * obj, uint16_t btn_idx)
1012:Drivers/lvgl/src/widgets/lv_btnmatrix.c **** {
1013:Drivers/lvgl/src/widgets/lv_btnmatrix.c ****     if(btn_idx == LV_BTNMATRIX_BTN_NONE) return;
1014:Drivers/lvgl/src/widgets/lv_btnmatrix.c **** 
1015:Drivers/lvgl/src/widgets/lv_btnmatrix.c ****     lv_area_t btn_area;
1016:Drivers/lvgl/src/widgets/lv_btnmatrix.c ****     lv_area_t obj_area;
1017:Drivers/lvgl/src/widgets/lv_btnmatrix.c **** 
1018:Drivers/lvgl/src/widgets/lv_btnmatrix.c ****     lv_btnmatrix_t * btnm = (lv_btnmatrix_t *)obj;;
1019:Drivers/lvgl/src/widgets/lv_btnmatrix.c ****     if(btn_idx >= btnm->btn_cnt) return;
1020:Drivers/lvgl/src/widgets/lv_btnmatrix.c **** 
1021:Drivers/lvgl/src/widgets/lv_btnmatrix.c ****     lv_area_copy(&btn_area, &btnm->button_areas[btn_idx]);
1022:Drivers/lvgl/src/widgets/lv_btnmatrix.c ****     lv_obj_get_coords(obj, &obj_area);
1023:Drivers/lvgl/src/widgets/lv_btnmatrix.c **** 
1024:Drivers/lvgl/src/widgets/lv_btnmatrix.c ****     /*The buttons might have outline and shadow so make the invalidation larger with the gaps betwe
1025:Drivers/lvgl/src/widgets/lv_btnmatrix.c ****      *It assumes that the outline or shadow is smaller than the gaps*/
1026:Drivers/lvgl/src/widgets/lv_btnmatrix.c ****     lv_coord_t row_gap = lv_obj_get_style_pad_row(obj, LV_PART_MAIN);
1027:Drivers/lvgl/src/widgets/lv_btnmatrix.c ****     lv_coord_t col_gap = lv_obj_get_style_pad_column(obj, LV_PART_MAIN);
1028:Drivers/lvgl/src/widgets/lv_btnmatrix.c **** 
1029:Drivers/lvgl/src/widgets/lv_btnmatrix.c ****     /*Be sure to have a minimal extra space if row/col_gap is small*/
1030:Drivers/lvgl/src/widgets/lv_btnmatrix.c ****     lv_coord_t dpi = lv_disp_get_dpi(lv_obj_get_disp(obj));
1031:Drivers/lvgl/src/widgets/lv_btnmatrix.c ****     row_gap = LV_MAX(row_gap, dpi / 10);
1032:Drivers/lvgl/src/widgets/lv_btnmatrix.c ****     col_gap = LV_MAX(col_gap, dpi / 10);
1033:Drivers/lvgl/src/widgets/lv_btnmatrix.c **** 
1034:Drivers/lvgl/src/widgets/lv_btnmatrix.c ****     /*Convert relative coordinates to absolute*/
1035:Drivers/lvgl/src/widgets/lv_btnmatrix.c ****     btn_area.x1 += obj_area.x1 - row_gap;
1036:Drivers/lvgl/src/widgets/lv_btnmatrix.c ****     btn_area.y1 += obj_area.y1 - col_gap;
1037:Drivers/lvgl/src/widgets/lv_btnmatrix.c ****     btn_area.x2 += obj_area.x1 + row_gap;
1038:Drivers/lvgl/src/widgets/lv_btnmatrix.c ****     btn_area.y2 += obj_area.y1 + col_gap;
1039:Drivers/lvgl/src/widgets/lv_btnmatrix.c **** 
1040:Drivers/lvgl/src/widgets/lv_btnmatrix.c ****     if((btn_idx == btnm->btn_id_sel) && (btnm->ctrl_bits[btn_idx] & LV_BTNMATRIX_CTRL_POPOVER)) {
1041:Drivers/lvgl/src/widgets/lv_btnmatrix.c ****         /*Push up the upper boundary of the btn area to also invalidate the popover*/
1042:Drivers/lvgl/src/widgets/lv_btnmatrix.c ****         btn_area.y1 -= lv_area_get_height(&btn_area);
1043:Drivers/lvgl/src/widgets/lv_btnmatrix.c ****     }
1044:Drivers/lvgl/src/widgets/lv_btnmatrix.c **** 
1045:Drivers/lvgl/src/widgets/lv_btnmatrix.c ****     lv_obj_invalidate_area(obj, &btn_area);
1046:Drivers/lvgl/src/widgets/lv_btnmatrix.c **** }
1047:Drivers/lvgl/src/widgets/lv_btnmatrix.c **** 
1048:Drivers/lvgl/src/widgets/lv_btnmatrix.c **** /**
1049:Drivers/lvgl/src/widgets/lv_btnmatrix.c ****  * Enforces a single button being toggled on the button matrix.
1050:Drivers/lvgl/src/widgets/lv_btnmatrix.c ****  * It simply clears the toggle flag on other buttons.
1051:Drivers/lvgl/src/widgets/lv_btnmatrix.c ****  * @param obj Button matrix object
1052:Drivers/lvgl/src/widgets/lv_btnmatrix.c ****  * @param btn_idx Button that should remain toggled
1053:Drivers/lvgl/src/widgets/lv_btnmatrix.c ****  */
1054:Drivers/lvgl/src/widgets/lv_btnmatrix.c **** static void make_one_button_checked(lv_obj_t * obj, uint16_t btn_idx)
1055:Drivers/lvgl/src/widgets/lv_btnmatrix.c **** {
1056:Drivers/lvgl/src/widgets/lv_btnmatrix.c ****     /*Save whether the button was toggled*/
1057:Drivers/lvgl/src/widgets/lv_btnmatrix.c ****     bool was_toggled = lv_btnmatrix_has_btn_ctrl(obj, btn_idx, LV_BTNMATRIX_CTRL_CHECKED);
1058:Drivers/lvgl/src/widgets/lv_btnmatrix.c **** 
1059:Drivers/lvgl/src/widgets/lv_btnmatrix.c ****     lv_btnmatrix_clear_btn_ctrl_all(obj, LV_BTNMATRIX_CTRL_CHECKED);
1060:Drivers/lvgl/src/widgets/lv_btnmatrix.c **** 
1061:Drivers/lvgl/src/widgets/lv_btnmatrix.c ****     if(was_toggled) lv_btnmatrix_set_btn_ctrl(obj, btn_idx, LV_BTNMATRIX_CTRL_CHECKED);
1062:Drivers/lvgl/src/widgets/lv_btnmatrix.c **** }
1063:Drivers/lvgl/src/widgets/lv_btnmatrix.c **** 
1064:Drivers/lvgl/src/widgets/lv_btnmatrix.c **** /**
1065:Drivers/lvgl/src/widgets/lv_btnmatrix.c ****  * Check if any of the buttons in the first row has the LV_BTNMATRIX_CTRL_POPOVER control flag set.
ARM GAS  /var/folders/0z/tsy30v1j4xl4_7kw94k978ww0000gn/T//ccZBZI6H.s 			page 24


1066:Drivers/lvgl/src/widgets/lv_btnmatrix.c ****  * @param obj Button matrix object
1067:Drivers/lvgl/src/widgets/lv_btnmatrix.c ****  * @return true if at least one button has the flag, false otherwise
1068:Drivers/lvgl/src/widgets/lv_btnmatrix.c ****  */
1069:Drivers/lvgl/src/widgets/lv_btnmatrix.c **** static bool has_popovers_in_top_row(lv_obj_t * obj)
1070:Drivers/lvgl/src/widgets/lv_btnmatrix.c **** {
 268              		.loc 1 1070 1 is_stmt 1 view -0
 269              		.cfi_startproc
 270              		@ args = 0, pretend = 0, frame = 0
 271              		@ frame_needed = 0, uses_anonymous_args = 0
1071:Drivers/lvgl/src/widgets/lv_btnmatrix.c ****     lv_btnmatrix_t * btnm = (lv_btnmatrix_t *)obj;
 272              		.loc 1 1071 5 view .LVU43
1072:Drivers/lvgl/src/widgets/lv_btnmatrix.c **** 
1073:Drivers/lvgl/src/widgets/lv_btnmatrix.c ****     if(btnm->row_cnt <= 0) {
 273              		.loc 1 1073 5 view .LVU44
 274              		.loc 1 1073 12 is_stmt 0 view .LVU45
 275 0000 438E     		ldrh	r3, [r0, #50]
 276              		.loc 1 1073 7 view .LVU46
 277 0002 D3B1     		cbz	r3, .L17
1070:Drivers/lvgl/src/widgets/lv_btnmatrix.c ****     lv_btnmatrix_t * btnm = (lv_btnmatrix_t *)obj;
 278              		.loc 1 1070 1 view .LVU47
 279 0004 2DE9F041 		push	{r4, r5, r6, r7, r8, lr}
 280              		.cfi_def_cfa_offset 24
 281              		.cfi_offset 4, -24
 282              		.cfi_offset 5, -20
 283              		.cfi_offset 6, -16
 284              		.cfi_offset 7, -12
 285              		.cfi_offset 8, -8
 286              		.cfi_offset 14, -4
 287 0008 0746     		mov	r7, r0
1074:Drivers/lvgl/src/widgets/lv_btnmatrix.c ****         return false;
1075:Drivers/lvgl/src/widgets/lv_btnmatrix.c ****     }
1076:Drivers/lvgl/src/widgets/lv_btnmatrix.c **** 
1077:Drivers/lvgl/src/widgets/lv_btnmatrix.c ****     const char ** map_row = btnm->map_p;
 288              		.loc 1 1077 5 is_stmt 1 view .LVU48
 289              		.loc 1 1077 19 is_stmt 0 view .LVU49
 290 000a D0F82480 		ldr	r8, [r0, #36]
 291              	.LVL21:
1078:Drivers/lvgl/src/widgets/lv_btnmatrix.c ****     uint16_t btn_cnt = 0;
 292              		.loc 1 1078 5 is_stmt 1 view .LVU50
1079:Drivers/lvgl/src/widgets/lv_btnmatrix.c **** 
1080:Drivers/lvgl/src/widgets/lv_btnmatrix.c ****     while(map_row[btn_cnt] && strcmp(map_row[btn_cnt], "\n") != 0 && map_row[btn_cnt][0] != '\0') {
 293              		.loc 1 1080 5 view .LVU51
1078:Drivers/lvgl/src/widgets/lv_btnmatrix.c ****     uint16_t btn_cnt = 0;
 294              		.loc 1 1078 14 is_stmt 0 view .LVU52
 295 000e 0024     		movs	r4, #0
 296              	.LVL22:
 297              	.L15:
 298              		.loc 1 1080 67 is_stmt 1 view .LVU53
 299              		.loc 1 1080 18 is_stmt 0 view .LVU54
 300 0010 2646     		mov	r6, r4
 301 0012 58F82450 		ldr	r5, [r8, r4, lsl #2]
 302              		.loc 1 1080 67 view .LVU55
 303 0016 9DB1     		cbz	r5, .L18
 304              		.loc 1 1080 31 discriminator 1 view .LVU56
 305 0018 0C49     		ldr	r1, .L24
 306 001a 2846     		mov	r0, r5
 307 001c FFF7FEFF 		bl	strcmp
ARM GAS  /var/folders/0z/tsy30v1j4xl4_7kw94k978ww0000gn/T//ccZBZI6H.s 			page 25


 308              	.LVL23:
 309              		.loc 1 1080 28 discriminator 1 view .LVU57
 310 0020 90B1     		cbz	r0, .L19
 311              		.loc 1 1080 86 discriminator 2 view .LVU58
 312 0022 2B78     		ldrb	r3, [r5]	@ zero_extendqisi2
 313              		.loc 1 1080 67 discriminator 2 view .LVU59
 314 0024 6BB1     		cbz	r3, .L14
1081:Drivers/lvgl/src/widgets/lv_btnmatrix.c ****         if(button_is_popover(btnm->ctrl_bits[btn_cnt])) {
 315              		.loc 1 1081 9 is_stmt 1 view .LVU60
 316              		.loc 1 1081 34 is_stmt 0 view .LVU61
 317 0026 FB6A     		ldr	r3, [r7, #44]
 318              		.loc 1 1081 12 view .LVU62
 319 0028 33F81600 		ldrh	r0, [r3, r6, lsl #1]
 320 002c FFF7FEFF 		bl	button_is_popover
 321              	.LVL24:
 322              		.loc 1 1081 11 view .LVU63
 323 0030 0346     		mov	r3, r0
 324 0032 30B9     		cbnz	r0, .L14
1082:Drivers/lvgl/src/widgets/lv_btnmatrix.c ****             return true;
1083:Drivers/lvgl/src/widgets/lv_btnmatrix.c ****         }
1084:Drivers/lvgl/src/widgets/lv_btnmatrix.c ****         btn_cnt++;
 325              		.loc 1 1084 9 is_stmt 1 view .LVU64
 326              		.loc 1 1084 16 is_stmt 0 view .LVU65
 327 0034 0134     		adds	r4, r4, #1
 328              	.LVL25:
 329              		.loc 1 1084 16 view .LVU66
 330 0036 A4B2     		uxth	r4, r4
 331              	.LVL26:
 332              		.loc 1 1084 16 view .LVU67
 333 0038 EAE7     		b	.L15
 334              	.LVL27:
 335              	.L17:
 336              		.cfi_def_cfa_offset 0
 337              		.cfi_restore 4
 338              		.cfi_restore 5
 339              		.cfi_restore 6
 340              		.cfi_restore 7
 341              		.cfi_restore 8
 342              		.cfi_restore 14
1074:Drivers/lvgl/src/widgets/lv_btnmatrix.c ****     }
 343              		.loc 1 1074 16 view .LVU68
 344 003a 0023     		movs	r3, #0
1085:Drivers/lvgl/src/widgets/lv_btnmatrix.c ****     }
1086:Drivers/lvgl/src/widgets/lv_btnmatrix.c **** 
1087:Drivers/lvgl/src/widgets/lv_btnmatrix.c ****     return false;
1088:Drivers/lvgl/src/widgets/lv_btnmatrix.c **** }
 345              		.loc 1 1088 1 view .LVU69
 346 003c 1846     		mov	r0, r3
 347              	.LVL28:
 348              		.loc 1 1088 1 view .LVU70
 349 003e 7047     		bx	lr
 350              	.LVL29:
 351              	.L18:
 352              		.cfi_def_cfa_offset 24
 353              		.cfi_offset 4, -24
 354              		.cfi_offset 5, -20
 355              		.cfi_offset 6, -16
ARM GAS  /var/folders/0z/tsy30v1j4xl4_7kw94k978ww0000gn/T//ccZBZI6H.s 			page 26


 356              		.cfi_offset 7, -12
 357              		.cfi_offset 8, -8
 358              		.cfi_offset 14, -4
1087:Drivers/lvgl/src/widgets/lv_btnmatrix.c **** }
 359              		.loc 1 1087 12 view .LVU71
 360 0040 0023     		movs	r3, #0
 361              	.L14:
 362              		.loc 1 1088 1 view .LVU72
 363 0042 1846     		mov	r0, r3
 364 0044 BDE8F081 		pop	{r4, r5, r6, r7, r8, pc}
 365              	.LVL30:
 366              	.L19:
1087:Drivers/lvgl/src/widgets/lv_btnmatrix.c **** }
 367              		.loc 1 1087 12 view .LVU73
 368 0048 0023     		movs	r3, #0
 369 004a FAE7     		b	.L14
 370              	.L25:
 371              		.align	2
 372              	.L24:
 373 004c 00000000 		.word	.LC0
 374              		.cfi_endproc
 375              	.LFE194:
 377              		.section	.text.get_button_from_point,"ax",%progbits
 378              		.align	1
 379              		.syntax unified
 380              		.thumb
 381              		.thumb_func
 383              	get_button_from_point:
 384              	.LVL31:
 385              	.LFB191:
 959:Drivers/lvgl/src/widgets/lv_btnmatrix.c ****     lv_area_t obj_cords;
 386              		.loc 1 959 1 is_stmt 1 view -0
 387              		.cfi_startproc
 388              		@ args = 0, pretend = 0, frame = 32
 389              		@ frame_needed = 0, uses_anonymous_args = 0
 959:Drivers/lvgl/src/widgets/lv_btnmatrix.c ****     lv_area_t obj_cords;
 390              		.loc 1 959 1 is_stmt 0 view .LVU75
 391 0000 2DE9F04F 		push	{r4, r5, r6, r7, r8, r9, r10, fp, lr}
 392              		.cfi_def_cfa_offset 36
 393              		.cfi_offset 4, -36
 394              		.cfi_offset 5, -32
 395              		.cfi_offset 6, -28
 396              		.cfi_offset 7, -24
 397              		.cfi_offset 8, -20
 398              		.cfi_offset 9, -16
 399              		.cfi_offset 10, -12
 400              		.cfi_offset 11, -8
 401              		.cfi_offset 14, -4
 402 0004 89B0     		sub	sp, sp, #36
 403              		.cfi_def_cfa_offset 72
 404 0006 0546     		mov	r5, r0
 405 0008 0391     		str	r1, [sp, #12]
 960:Drivers/lvgl/src/widgets/lv_btnmatrix.c ****     lv_area_t btn_area;
 406              		.loc 1 960 5 is_stmt 1 view .LVU76
 961:Drivers/lvgl/src/widgets/lv_btnmatrix.c ****     lv_btnmatrix_t * btnm = (lv_btnmatrix_t *)obj;;
 407              		.loc 1 961 5 view .LVU77
 962:Drivers/lvgl/src/widgets/lv_btnmatrix.c ****     uint16_t i;
ARM GAS  /var/folders/0z/tsy30v1j4xl4_7kw94k978ww0000gn/T//ccZBZI6H.s 			page 27


 408              		.loc 1 962 5 view .LVU78
 409              	.LVL32:
 962:Drivers/lvgl/src/widgets/lv_btnmatrix.c ****     uint16_t i;
 410              		.loc 1 962 51 view .LVU79
 963:Drivers/lvgl/src/widgets/lv_btnmatrix.c ****     lv_obj_get_coords(obj, &obj_cords);
 411              		.loc 1 963 5 view .LVU80
 964:Drivers/lvgl/src/widgets/lv_btnmatrix.c **** 
 412              		.loc 1 964 5 view .LVU81
 413 000a 06A9     		add	r1, sp, #24
 414              	.LVL33:
 964:Drivers/lvgl/src/widgets/lv_btnmatrix.c **** 
 415              		.loc 1 964 5 is_stmt 0 view .LVU82
 416 000c FFF7FEFF 		bl	lv_obj_get_coords
 417              	.LVL34:
 966:Drivers/lvgl/src/widgets/lv_btnmatrix.c ****     lv_coord_t h = lv_obj_get_height(obj);
 418              		.loc 1 966 5 is_stmt 1 view .LVU83
 966:Drivers/lvgl/src/widgets/lv_btnmatrix.c ****     lv_coord_t h = lv_obj_get_height(obj);
 419              		.loc 1 966 20 is_stmt 0 view .LVU84
 420 0010 2846     		mov	r0, r5
 421 0012 FFF7FEFF 		bl	lv_obj_get_width
 422              	.LVL35:
 423 0016 0190     		str	r0, [sp, #4]
 424              	.LVL36:
 967:Drivers/lvgl/src/widgets/lv_btnmatrix.c ****     lv_coord_t pleft = lv_obj_get_style_pad_left(obj, LV_PART_MAIN);
 425              		.loc 1 967 5 is_stmt 1 view .LVU85
 967:Drivers/lvgl/src/widgets/lv_btnmatrix.c ****     lv_coord_t pleft = lv_obj_get_style_pad_left(obj, LV_PART_MAIN);
 426              		.loc 1 967 20 is_stmt 0 view .LVU86
 427 0018 2846     		mov	r0, r5
 428 001a FFF7FEFF 		bl	lv_obj_get_height
 429              	.LVL37:
 430 001e 0290     		str	r0, [sp, #8]
 431              	.LVL38:
 968:Drivers/lvgl/src/widgets/lv_btnmatrix.c ****     lv_coord_t pright = lv_obj_get_style_pad_right(obj, LV_PART_MAIN);
 432              		.loc 1 968 5 is_stmt 1 view .LVU87
 433              	.LBB81:
 434              	.LBI81:
 435              		.file 2 "Drivers/lvgl/src/widgets/../core/lv_obj_style_gen.h"
   1:Drivers/lvgl/src/widgets/../core/lv_obj_style_gen.h **** static inline lv_coord_t lv_obj_get_style_width(const struct _lv_obj_t * obj, uint32_t part)
   2:Drivers/lvgl/src/widgets/../core/lv_obj_style_gen.h **** {
   3:Drivers/lvgl/src/widgets/../core/lv_obj_style_gen.h ****     lv_style_value_t v = lv_obj_get_style_prop(obj, part, LV_STYLE_WIDTH);
   4:Drivers/lvgl/src/widgets/../core/lv_obj_style_gen.h ****     return (lv_coord_t)v.num;
   5:Drivers/lvgl/src/widgets/../core/lv_obj_style_gen.h **** }
   6:Drivers/lvgl/src/widgets/../core/lv_obj_style_gen.h **** 
   7:Drivers/lvgl/src/widgets/../core/lv_obj_style_gen.h **** static inline lv_coord_t lv_obj_get_style_min_width(const struct _lv_obj_t * obj, uint32_t part)
   8:Drivers/lvgl/src/widgets/../core/lv_obj_style_gen.h **** {
   9:Drivers/lvgl/src/widgets/../core/lv_obj_style_gen.h ****     lv_style_value_t v = lv_obj_get_style_prop(obj, part, LV_STYLE_MIN_WIDTH);
  10:Drivers/lvgl/src/widgets/../core/lv_obj_style_gen.h ****     return (lv_coord_t)v.num;
  11:Drivers/lvgl/src/widgets/../core/lv_obj_style_gen.h **** }
  12:Drivers/lvgl/src/widgets/../core/lv_obj_style_gen.h **** 
  13:Drivers/lvgl/src/widgets/../core/lv_obj_style_gen.h **** static inline lv_coord_t lv_obj_get_style_max_width(const struct _lv_obj_t * obj, uint32_t part)
  14:Drivers/lvgl/src/widgets/../core/lv_obj_style_gen.h **** {
  15:Drivers/lvgl/src/widgets/../core/lv_obj_style_gen.h ****     lv_style_value_t v = lv_obj_get_style_prop(obj, part, LV_STYLE_MAX_WIDTH);
  16:Drivers/lvgl/src/widgets/../core/lv_obj_style_gen.h ****     return (lv_coord_t)v.num;
  17:Drivers/lvgl/src/widgets/../core/lv_obj_style_gen.h **** }
  18:Drivers/lvgl/src/widgets/../core/lv_obj_style_gen.h **** 
  19:Drivers/lvgl/src/widgets/../core/lv_obj_style_gen.h **** static inline lv_coord_t lv_obj_get_style_height(const struct _lv_obj_t * obj, uint32_t part)
  20:Drivers/lvgl/src/widgets/../core/lv_obj_style_gen.h **** {
ARM GAS  /var/folders/0z/tsy30v1j4xl4_7kw94k978ww0000gn/T//ccZBZI6H.s 			page 28


  21:Drivers/lvgl/src/widgets/../core/lv_obj_style_gen.h ****     lv_style_value_t v = lv_obj_get_style_prop(obj, part, LV_STYLE_HEIGHT);
  22:Drivers/lvgl/src/widgets/../core/lv_obj_style_gen.h ****     return (lv_coord_t)v.num;
  23:Drivers/lvgl/src/widgets/../core/lv_obj_style_gen.h **** }
  24:Drivers/lvgl/src/widgets/../core/lv_obj_style_gen.h **** 
  25:Drivers/lvgl/src/widgets/../core/lv_obj_style_gen.h **** static inline lv_coord_t lv_obj_get_style_min_height(const struct _lv_obj_t * obj, uint32_t part)
  26:Drivers/lvgl/src/widgets/../core/lv_obj_style_gen.h **** {
  27:Drivers/lvgl/src/widgets/../core/lv_obj_style_gen.h ****     lv_style_value_t v = lv_obj_get_style_prop(obj, part, LV_STYLE_MIN_HEIGHT);
  28:Drivers/lvgl/src/widgets/../core/lv_obj_style_gen.h ****     return (lv_coord_t)v.num;
  29:Drivers/lvgl/src/widgets/../core/lv_obj_style_gen.h **** }
  30:Drivers/lvgl/src/widgets/../core/lv_obj_style_gen.h **** 
  31:Drivers/lvgl/src/widgets/../core/lv_obj_style_gen.h **** static inline lv_coord_t lv_obj_get_style_max_height(const struct _lv_obj_t * obj, uint32_t part)
  32:Drivers/lvgl/src/widgets/../core/lv_obj_style_gen.h **** {
  33:Drivers/lvgl/src/widgets/../core/lv_obj_style_gen.h ****     lv_style_value_t v = lv_obj_get_style_prop(obj, part, LV_STYLE_MAX_HEIGHT);
  34:Drivers/lvgl/src/widgets/../core/lv_obj_style_gen.h ****     return (lv_coord_t)v.num;
  35:Drivers/lvgl/src/widgets/../core/lv_obj_style_gen.h **** }
  36:Drivers/lvgl/src/widgets/../core/lv_obj_style_gen.h **** 
  37:Drivers/lvgl/src/widgets/../core/lv_obj_style_gen.h **** static inline lv_coord_t lv_obj_get_style_x(const struct _lv_obj_t * obj, uint32_t part)
  38:Drivers/lvgl/src/widgets/../core/lv_obj_style_gen.h **** {
  39:Drivers/lvgl/src/widgets/../core/lv_obj_style_gen.h ****     lv_style_value_t v = lv_obj_get_style_prop(obj, part, LV_STYLE_X);
  40:Drivers/lvgl/src/widgets/../core/lv_obj_style_gen.h ****     return (lv_coord_t)v.num;
  41:Drivers/lvgl/src/widgets/../core/lv_obj_style_gen.h **** }
  42:Drivers/lvgl/src/widgets/../core/lv_obj_style_gen.h **** 
  43:Drivers/lvgl/src/widgets/../core/lv_obj_style_gen.h **** static inline lv_coord_t lv_obj_get_style_y(const struct _lv_obj_t * obj, uint32_t part)
  44:Drivers/lvgl/src/widgets/../core/lv_obj_style_gen.h **** {
  45:Drivers/lvgl/src/widgets/../core/lv_obj_style_gen.h ****     lv_style_value_t v = lv_obj_get_style_prop(obj, part, LV_STYLE_Y);
  46:Drivers/lvgl/src/widgets/../core/lv_obj_style_gen.h ****     return (lv_coord_t)v.num;
  47:Drivers/lvgl/src/widgets/../core/lv_obj_style_gen.h **** }
  48:Drivers/lvgl/src/widgets/../core/lv_obj_style_gen.h **** 
  49:Drivers/lvgl/src/widgets/../core/lv_obj_style_gen.h **** static inline lv_align_t lv_obj_get_style_align(const struct _lv_obj_t * obj, uint32_t part)
  50:Drivers/lvgl/src/widgets/../core/lv_obj_style_gen.h **** {
  51:Drivers/lvgl/src/widgets/../core/lv_obj_style_gen.h ****     lv_style_value_t v = lv_obj_get_style_prop(obj, part, LV_STYLE_ALIGN);
  52:Drivers/lvgl/src/widgets/../core/lv_obj_style_gen.h ****     return (lv_align_t)v.num;
  53:Drivers/lvgl/src/widgets/../core/lv_obj_style_gen.h **** }
  54:Drivers/lvgl/src/widgets/../core/lv_obj_style_gen.h **** 
  55:Drivers/lvgl/src/widgets/../core/lv_obj_style_gen.h **** static inline lv_coord_t lv_obj_get_style_transform_width(const struct _lv_obj_t * obj, uint32_t pa
  56:Drivers/lvgl/src/widgets/../core/lv_obj_style_gen.h **** {
  57:Drivers/lvgl/src/widgets/../core/lv_obj_style_gen.h ****     lv_style_value_t v = lv_obj_get_style_prop(obj, part, LV_STYLE_TRANSFORM_WIDTH);
  58:Drivers/lvgl/src/widgets/../core/lv_obj_style_gen.h ****     return (lv_coord_t)v.num;
  59:Drivers/lvgl/src/widgets/../core/lv_obj_style_gen.h **** }
  60:Drivers/lvgl/src/widgets/../core/lv_obj_style_gen.h **** 
  61:Drivers/lvgl/src/widgets/../core/lv_obj_style_gen.h **** static inline lv_coord_t lv_obj_get_style_transform_height(const struct _lv_obj_t * obj, uint32_t p
  62:Drivers/lvgl/src/widgets/../core/lv_obj_style_gen.h **** {
  63:Drivers/lvgl/src/widgets/../core/lv_obj_style_gen.h ****     lv_style_value_t v = lv_obj_get_style_prop(obj, part, LV_STYLE_TRANSFORM_HEIGHT);
  64:Drivers/lvgl/src/widgets/../core/lv_obj_style_gen.h ****     return (lv_coord_t)v.num;
  65:Drivers/lvgl/src/widgets/../core/lv_obj_style_gen.h **** }
  66:Drivers/lvgl/src/widgets/../core/lv_obj_style_gen.h **** 
  67:Drivers/lvgl/src/widgets/../core/lv_obj_style_gen.h **** static inline lv_coord_t lv_obj_get_style_translate_x(const struct _lv_obj_t * obj, uint32_t part)
  68:Drivers/lvgl/src/widgets/../core/lv_obj_style_gen.h **** {
  69:Drivers/lvgl/src/widgets/../core/lv_obj_style_gen.h ****     lv_style_value_t v = lv_obj_get_style_prop(obj, part, LV_STYLE_TRANSLATE_X);
  70:Drivers/lvgl/src/widgets/../core/lv_obj_style_gen.h ****     return (lv_coord_t)v.num;
  71:Drivers/lvgl/src/widgets/../core/lv_obj_style_gen.h **** }
  72:Drivers/lvgl/src/widgets/../core/lv_obj_style_gen.h **** 
  73:Drivers/lvgl/src/widgets/../core/lv_obj_style_gen.h **** static inline lv_coord_t lv_obj_get_style_translate_y(const struct _lv_obj_t * obj, uint32_t part)
  74:Drivers/lvgl/src/widgets/../core/lv_obj_style_gen.h **** {
  75:Drivers/lvgl/src/widgets/../core/lv_obj_style_gen.h ****     lv_style_value_t v = lv_obj_get_style_prop(obj, part, LV_STYLE_TRANSLATE_Y);
  76:Drivers/lvgl/src/widgets/../core/lv_obj_style_gen.h ****     return (lv_coord_t)v.num;
  77:Drivers/lvgl/src/widgets/../core/lv_obj_style_gen.h **** }
ARM GAS  /var/folders/0z/tsy30v1j4xl4_7kw94k978ww0000gn/T//ccZBZI6H.s 			page 29


  78:Drivers/lvgl/src/widgets/../core/lv_obj_style_gen.h **** 
  79:Drivers/lvgl/src/widgets/../core/lv_obj_style_gen.h **** static inline lv_coord_t lv_obj_get_style_transform_zoom(const struct _lv_obj_t * obj, uint32_t par
  80:Drivers/lvgl/src/widgets/../core/lv_obj_style_gen.h **** {
  81:Drivers/lvgl/src/widgets/../core/lv_obj_style_gen.h ****     lv_style_value_t v = lv_obj_get_style_prop(obj, part, LV_STYLE_TRANSFORM_ZOOM);
  82:Drivers/lvgl/src/widgets/../core/lv_obj_style_gen.h ****     return (lv_coord_t)v.num;
  83:Drivers/lvgl/src/widgets/../core/lv_obj_style_gen.h **** }
  84:Drivers/lvgl/src/widgets/../core/lv_obj_style_gen.h **** 
  85:Drivers/lvgl/src/widgets/../core/lv_obj_style_gen.h **** static inline lv_coord_t lv_obj_get_style_transform_angle(const struct _lv_obj_t * obj, uint32_t pa
  86:Drivers/lvgl/src/widgets/../core/lv_obj_style_gen.h **** {
  87:Drivers/lvgl/src/widgets/../core/lv_obj_style_gen.h ****     lv_style_value_t v = lv_obj_get_style_prop(obj, part, LV_STYLE_TRANSFORM_ANGLE);
  88:Drivers/lvgl/src/widgets/../core/lv_obj_style_gen.h ****     return (lv_coord_t)v.num;
  89:Drivers/lvgl/src/widgets/../core/lv_obj_style_gen.h **** }
  90:Drivers/lvgl/src/widgets/../core/lv_obj_style_gen.h **** 
  91:Drivers/lvgl/src/widgets/../core/lv_obj_style_gen.h **** static inline lv_coord_t lv_obj_get_style_transform_pivot_x(const struct _lv_obj_t * obj, uint32_t 
  92:Drivers/lvgl/src/widgets/../core/lv_obj_style_gen.h **** {
  93:Drivers/lvgl/src/widgets/../core/lv_obj_style_gen.h ****     lv_style_value_t v = lv_obj_get_style_prop(obj, part, LV_STYLE_TRANSFORM_PIVOT_X);
  94:Drivers/lvgl/src/widgets/../core/lv_obj_style_gen.h ****     return (lv_coord_t)v.num;
  95:Drivers/lvgl/src/widgets/../core/lv_obj_style_gen.h **** }
  96:Drivers/lvgl/src/widgets/../core/lv_obj_style_gen.h **** 
  97:Drivers/lvgl/src/widgets/../core/lv_obj_style_gen.h **** static inline lv_coord_t lv_obj_get_style_transform_pivot_y(const struct _lv_obj_t * obj, uint32_t 
  98:Drivers/lvgl/src/widgets/../core/lv_obj_style_gen.h **** {
  99:Drivers/lvgl/src/widgets/../core/lv_obj_style_gen.h ****     lv_style_value_t v = lv_obj_get_style_prop(obj, part, LV_STYLE_TRANSFORM_PIVOT_Y);
 100:Drivers/lvgl/src/widgets/../core/lv_obj_style_gen.h ****     return (lv_coord_t)v.num;
 101:Drivers/lvgl/src/widgets/../core/lv_obj_style_gen.h **** }
 102:Drivers/lvgl/src/widgets/../core/lv_obj_style_gen.h **** 
 103:Drivers/lvgl/src/widgets/../core/lv_obj_style_gen.h **** static inline lv_coord_t lv_obj_get_style_pad_top(const struct _lv_obj_t * obj, uint32_t part)
 104:Drivers/lvgl/src/widgets/../core/lv_obj_style_gen.h **** {
 105:Drivers/lvgl/src/widgets/../core/lv_obj_style_gen.h ****     lv_style_value_t v = lv_obj_get_style_prop(obj, part, LV_STYLE_PAD_TOP);
 106:Drivers/lvgl/src/widgets/../core/lv_obj_style_gen.h ****     return (lv_coord_t)v.num;
 107:Drivers/lvgl/src/widgets/../core/lv_obj_style_gen.h **** }
 108:Drivers/lvgl/src/widgets/../core/lv_obj_style_gen.h **** 
 109:Drivers/lvgl/src/widgets/../core/lv_obj_style_gen.h **** static inline lv_coord_t lv_obj_get_style_pad_bottom(const struct _lv_obj_t * obj, uint32_t part)
 110:Drivers/lvgl/src/widgets/../core/lv_obj_style_gen.h **** {
 111:Drivers/lvgl/src/widgets/../core/lv_obj_style_gen.h ****     lv_style_value_t v = lv_obj_get_style_prop(obj, part, LV_STYLE_PAD_BOTTOM);
 112:Drivers/lvgl/src/widgets/../core/lv_obj_style_gen.h ****     return (lv_coord_t)v.num;
 113:Drivers/lvgl/src/widgets/../core/lv_obj_style_gen.h **** }
 114:Drivers/lvgl/src/widgets/../core/lv_obj_style_gen.h **** 
 115:Drivers/lvgl/src/widgets/../core/lv_obj_style_gen.h **** static inline lv_coord_t lv_obj_get_style_pad_left(const struct _lv_obj_t * obj, uint32_t part)
 436              		.loc 2 115 26 view .LVU88
 437              	.LBB82:
 116:Drivers/lvgl/src/widgets/../core/lv_obj_style_gen.h **** {
 117:Drivers/lvgl/src/widgets/../core/lv_obj_style_gen.h ****     lv_style_value_t v = lv_obj_get_style_prop(obj, part, LV_STYLE_PAD_LEFT);
 438              		.loc 2 117 5 view .LVU89
 439              		.loc 2 117 26 is_stmt 0 view .LVU90
 440 0020 1222     		movs	r2, #18
 441 0022 0021     		movs	r1, #0
 442 0024 2846     		mov	r0, r5
 443 0026 FFF7FEFF 		bl	lv_obj_get_style_prop
 444              	.LVL39:
 118:Drivers/lvgl/src/widgets/../core/lv_obj_style_gen.h ****     return (lv_coord_t)v.num;
 445              		.loc 2 118 5 is_stmt 1 view .LVU91
 446              		.loc 2 118 12 is_stmt 0 view .LVU92
 447 002a 0FFA80FB 		sxth	fp, r0
 448              	.LVL40:
 449              		.loc 2 118 12 view .LVU93
 450              	.LBE82:
 451              	.LBE81:
ARM GAS  /var/folders/0z/tsy30v1j4xl4_7kw94k978ww0000gn/T//ccZBZI6H.s 			page 30


 969:Drivers/lvgl/src/widgets/lv_btnmatrix.c ****     lv_coord_t ptop = lv_obj_get_style_pad_top(obj, LV_PART_MAIN);
 452              		.loc 1 969 5 is_stmt 1 view .LVU94
 453              	.LBB83:
 454              	.LBI83:
 119:Drivers/lvgl/src/widgets/../core/lv_obj_style_gen.h **** }
 120:Drivers/lvgl/src/widgets/../core/lv_obj_style_gen.h **** 
 121:Drivers/lvgl/src/widgets/../core/lv_obj_style_gen.h **** static inline lv_coord_t lv_obj_get_style_pad_right(const struct _lv_obj_t * obj, uint32_t part)
 455              		.loc 2 121 26 view .LVU95
 456              	.LBB84:
 122:Drivers/lvgl/src/widgets/../core/lv_obj_style_gen.h **** {
 123:Drivers/lvgl/src/widgets/../core/lv_obj_style_gen.h ****     lv_style_value_t v = lv_obj_get_style_prop(obj, part, LV_STYLE_PAD_RIGHT);
 457              		.loc 2 123 5 view .LVU96
 458              		.loc 2 123 26 is_stmt 0 view .LVU97
 459 002e 1322     		movs	r2, #19
 460 0030 0021     		movs	r1, #0
 461 0032 2846     		mov	r0, r5
 462 0034 FFF7FEFF 		bl	lv_obj_get_style_prop
 463              	.LVL41:
 124:Drivers/lvgl/src/widgets/../core/lv_obj_style_gen.h ****     return (lv_coord_t)v.num;
 464              		.loc 2 124 5 is_stmt 1 view .LVU98
 465              		.loc 2 124 12 is_stmt 0 view .LVU99
 466 0038 0FFA80F9 		sxth	r9, r0
 467              	.LVL42:
 468              		.loc 2 124 12 view .LVU100
 469              	.LBE84:
 470              	.LBE83:
 970:Drivers/lvgl/src/widgets/lv_btnmatrix.c ****     lv_coord_t pbottom = lv_obj_get_style_pad_bottom(obj, LV_PART_MAIN);
 471              		.loc 1 970 5 is_stmt 1 view .LVU101
 472              	.LBB85:
 473              	.LBI85:
 103:Drivers/lvgl/src/widgets/../core/lv_obj_style_gen.h **** {
 474              		.loc 2 103 26 view .LVU102
 475              	.LBB86:
 105:Drivers/lvgl/src/widgets/../core/lv_obj_style_gen.h ****     return (lv_coord_t)v.num;
 476              		.loc 2 105 5 view .LVU103
 105:Drivers/lvgl/src/widgets/../core/lv_obj_style_gen.h ****     return (lv_coord_t)v.num;
 477              		.loc 2 105 26 is_stmt 0 view .LVU104
 478 003c 1022     		movs	r2, #16
 479 003e 0021     		movs	r1, #0
 480 0040 2846     		mov	r0, r5
 481 0042 FFF7FEFF 		bl	lv_obj_get_style_prop
 482              	.LVL43:
 106:Drivers/lvgl/src/widgets/../core/lv_obj_style_gen.h **** }
 483              		.loc 2 106 5 is_stmt 1 view .LVU105
 106:Drivers/lvgl/src/widgets/../core/lv_obj_style_gen.h **** }
 484              		.loc 2 106 12 is_stmt 0 view .LVU106
 485 0046 0FFA80F8 		sxth	r8, r0
 486              	.LVL44:
 106:Drivers/lvgl/src/widgets/../core/lv_obj_style_gen.h **** }
 487              		.loc 2 106 12 view .LVU107
 488              	.LBE86:
 489              	.LBE85:
 971:Drivers/lvgl/src/widgets/lv_btnmatrix.c ****     lv_coord_t prow = lv_obj_get_style_pad_row(obj, LV_PART_MAIN);
 490              		.loc 1 971 5 is_stmt 1 view .LVU108
 491              	.LBB87:
 492              	.LBI87:
 109:Drivers/lvgl/src/widgets/../core/lv_obj_style_gen.h **** {
ARM GAS  /var/folders/0z/tsy30v1j4xl4_7kw94k978ww0000gn/T//ccZBZI6H.s 			page 31


 493              		.loc 2 109 26 view .LVU109
 494              	.LBB88:
 111:Drivers/lvgl/src/widgets/../core/lv_obj_style_gen.h ****     return (lv_coord_t)v.num;
 495              		.loc 2 111 5 view .LVU110
 111:Drivers/lvgl/src/widgets/../core/lv_obj_style_gen.h ****     return (lv_coord_t)v.num;
 496              		.loc 2 111 26 is_stmt 0 view .LVU111
 497 004a 1122     		movs	r2, #17
 498 004c 0021     		movs	r1, #0
 499 004e 2846     		mov	r0, r5
 500 0050 FFF7FEFF 		bl	lv_obj_get_style_prop
 501              	.LVL45:
 112:Drivers/lvgl/src/widgets/../core/lv_obj_style_gen.h **** }
 502              		.loc 2 112 5 is_stmt 1 view .LVU112
 112:Drivers/lvgl/src/widgets/../core/lv_obj_style_gen.h **** }
 503              		.loc 2 112 12 is_stmt 0 view .LVU113
 504 0054 07B2     		sxth	r7, r0
 505              	.LVL46:
 112:Drivers/lvgl/src/widgets/../core/lv_obj_style_gen.h **** }
 506              		.loc 2 112 12 view .LVU114
 507              	.LBE88:
 508              	.LBE87:
 972:Drivers/lvgl/src/widgets/lv_btnmatrix.c ****     lv_coord_t pcol = lv_obj_get_style_pad_column(obj, LV_PART_MAIN);
 509              		.loc 1 972 5 is_stmt 1 view .LVU115
 510              	.LBB89:
 511              	.LBI89:
 125:Drivers/lvgl/src/widgets/../core/lv_obj_style_gen.h **** }
 126:Drivers/lvgl/src/widgets/../core/lv_obj_style_gen.h **** 
 127:Drivers/lvgl/src/widgets/../core/lv_obj_style_gen.h **** static inline lv_coord_t lv_obj_get_style_pad_row(const struct _lv_obj_t * obj, uint32_t part)
 512              		.loc 2 127 26 view .LVU116
 513              	.LBB90:
 128:Drivers/lvgl/src/widgets/../core/lv_obj_style_gen.h **** {
 129:Drivers/lvgl/src/widgets/../core/lv_obj_style_gen.h ****     lv_style_value_t v = lv_obj_get_style_prop(obj, part, LV_STYLE_PAD_ROW);
 514              		.loc 2 129 5 view .LVU117
 515              		.loc 2 129 26 is_stmt 0 view .LVU118
 516 0056 1422     		movs	r2, #20
 517 0058 0021     		movs	r1, #0
 518 005a 2846     		mov	r0, r5
 519 005c FFF7FEFF 		bl	lv_obj_get_style_prop
 520              	.LVL47:
 521 0060 0446     		mov	r4, r0
 522              	.LVL48:
 130:Drivers/lvgl/src/widgets/../core/lv_obj_style_gen.h ****     return (lv_coord_t)v.num;
 523              		.loc 2 130 5 is_stmt 1 view .LVU119
 524              		.loc 2 130 12 is_stmt 0 view .LVU120
 525 0062 06B2     		sxth	r6, r0
 526              	.LVL49:
 527              		.loc 2 130 12 view .LVU121
 528              	.LBE90:
 529              	.LBE89:
 973:Drivers/lvgl/src/widgets/lv_btnmatrix.c **** 
 530              		.loc 1 973 5 is_stmt 1 view .LVU122
 531              	.LBB91:
 532              	.LBI91:
 131:Drivers/lvgl/src/widgets/../core/lv_obj_style_gen.h **** }
 132:Drivers/lvgl/src/widgets/../core/lv_obj_style_gen.h **** 
 133:Drivers/lvgl/src/widgets/../core/lv_obj_style_gen.h **** static inline lv_coord_t lv_obj_get_style_pad_column(const struct _lv_obj_t * obj, uint32_t part)
 533              		.loc 2 133 26 view .LVU123
ARM GAS  /var/folders/0z/tsy30v1j4xl4_7kw94k978ww0000gn/T//ccZBZI6H.s 			page 32


 534              	.LBB92:
 134:Drivers/lvgl/src/widgets/../core/lv_obj_style_gen.h **** {
 135:Drivers/lvgl/src/widgets/../core/lv_obj_style_gen.h ****     lv_style_value_t v = lv_obj_get_style_prop(obj, part, LV_STYLE_PAD_COLUMN);
 535              		.loc 2 135 5 view .LVU124
 536              		.loc 2 135 26 is_stmt 0 view .LVU125
 537 0064 1522     		movs	r2, #21
 538 0066 0021     		movs	r1, #0
 539 0068 2846     		mov	r0, r5
 540              		.loc 2 135 26 view .LVU126
 541 006a FFF7FEFF 		bl	lv_obj_get_style_prop
 542              	.LVL50:
 136:Drivers/lvgl/src/widgets/../core/lv_obj_style_gen.h ****     return (lv_coord_t)v.num;
 543              		.loc 2 136 5 is_stmt 1 view .LVU127
 544              		.loc 2 136 5 is_stmt 0 view .LVU128
 545              	.LBE92:
 546              	.LBE91:
 976:Drivers/lvgl/src/widgets/lv_btnmatrix.c ****     pcol = (pcol / 2) + 1 + (pcol & 1);
 547              		.loc 1 976 5 is_stmt 1 view .LVU129
 976:Drivers/lvgl/src/widgets/lv_btnmatrix.c ****     pcol = (pcol / 2) + 1 + (pcol & 1);
 548              		.loc 1 976 35 is_stmt 0 view .LVU130
 549 006e 04F00104 		and	r4, r4, #1
 550              	.LVL51:
 976:Drivers/lvgl/src/widgets/lv_btnmatrix.c ****     pcol = (pcol / 2) + 1 + (pcol & 1);
 551              		.loc 1 976 27 view .LVU131
 552 0072 06EBD676 		add	r6, r6, r6, lsr #31
 553              	.LVL52:
 976:Drivers/lvgl/src/widgets/lv_btnmatrix.c ****     pcol = (pcol / 2) + 1 + (pcol & 1);
 554              		.loc 1 976 27 view .LVU132
 555 0076 04EB6606 		add	r6, r4, r6, asr #1
 556 007a 0136     		adds	r6, r6, #1
 976:Drivers/lvgl/src/widgets/lv_btnmatrix.c ****     pcol = (pcol / 2) + 1 + (pcol & 1);
 557              		.loc 1 976 10 view .LVU133
 558 007c 36B2     		sxth	r6, r6
 559              	.LVL53:
 977:Drivers/lvgl/src/widgets/lv_btnmatrix.c **** 
 560              		.loc 1 977 5 is_stmt 1 view .LVU134
 977:Drivers/lvgl/src/widgets/lv_btnmatrix.c **** 
 561              		.loc 1 977 35 is_stmt 0 view .LVU135
 562 007e 00F0010A 		and	r10, r0, #1
 977:Drivers/lvgl/src/widgets/lv_btnmatrix.c **** 
 563              		.loc 1 977 27 view .LVU136
 564 0082 C0F3C033 		ubfx	r3, r0, #15, #1
 565 0086 03FA80F0 		sxtah	r0, r3, r0
 566              	.LVL54:
 977:Drivers/lvgl/src/widgets/lv_btnmatrix.c **** 
 567              		.loc 1 977 27 view .LVU137
 568 008a 0AEB600A 		add	r10, r10, r0, asr #1
 569 008e 0AF1010A 		add	r10, r10, #1
 977:Drivers/lvgl/src/widgets/lv_btnmatrix.c **** 
 570              		.loc 1 977 10 view .LVU138
 571 0092 0FFA8AFA 		sxth	r10, r10
 572              	.LVL55:
 979:Drivers/lvgl/src/widgets/lv_btnmatrix.c ****     pcol = LV_MIN(pcol, BTN_EXTRA_CLICK_AREA_MAX);
 573              		.loc 1 979 5 is_stmt 1 view .LVU139
 979:Drivers/lvgl/src/widgets/lv_btnmatrix.c ****     pcol = LV_MIN(pcol, BTN_EXTRA_CLICK_AREA_MAX);
 574              		.loc 1 979 10 is_stmt 0 view .LVU140
 575 0096 0D2E     		cmp	r6, #13
ARM GAS  /var/folders/0z/tsy30v1j4xl4_7kw94k978ww0000gn/T//ccZBZI6H.s 			page 33


 576 0098 A8BF     		it	ge
 577 009a 0D26     		movge	r6, #13
 578              	.LVL56:
 980:Drivers/lvgl/src/widgets/lv_btnmatrix.c ****     pright = LV_MIN(pright, BTN_EXTRA_CLICK_AREA_MAX);
 579              		.loc 1 980 5 is_stmt 1 view .LVU141
 980:Drivers/lvgl/src/widgets/lv_btnmatrix.c ****     pright = LV_MIN(pright, BTN_EXTRA_CLICK_AREA_MAX);
 580              		.loc 1 980 10 is_stmt 0 view .LVU142
 581 009c BAF10D0F 		cmp	r10, #13
 582 00a0 A8BF     		it	ge
 583 00a2 4FF00D0A 		movge	r10, #13
 584              	.LVL57:
 981:Drivers/lvgl/src/widgets/lv_btnmatrix.c ****     ptop = LV_MIN(ptop, BTN_EXTRA_CLICK_AREA_MAX);
 585              		.loc 1 981 5 is_stmt 1 view .LVU143
 981:Drivers/lvgl/src/widgets/lv_btnmatrix.c ****     ptop = LV_MIN(ptop, BTN_EXTRA_CLICK_AREA_MAX);
 586              		.loc 1 981 12 is_stmt 0 view .LVU144
 587 00a6 B9F10D0F 		cmp	r9, #13
 588 00aa A8BF     		it	ge
 589 00ac 4FF00D09 		movge	r9, #13
 590              	.LVL58:
 982:Drivers/lvgl/src/widgets/lv_btnmatrix.c ****     pbottom = LV_MIN(pbottom, BTN_EXTRA_CLICK_AREA_MAX);
 591              		.loc 1 982 5 is_stmt 1 view .LVU145
 982:Drivers/lvgl/src/widgets/lv_btnmatrix.c ****     pbottom = LV_MIN(pbottom, BTN_EXTRA_CLICK_AREA_MAX);
 592              		.loc 1 982 10 is_stmt 0 view .LVU146
 593 00b0 B8F10D0F 		cmp	r8, #13
 594 00b4 A8BF     		it	ge
 595 00b6 4FF00D08 		movge	r8, #13
 596              	.LVL59:
 983:Drivers/lvgl/src/widgets/lv_btnmatrix.c **** 
 597              		.loc 1 983 5 is_stmt 1 view .LVU147
 983:Drivers/lvgl/src/widgets/lv_btnmatrix.c **** 
 598              		.loc 1 983 13 is_stmt 0 view .LVU148
 599 00ba 0D2F     		cmp	r7, #13
 600 00bc A8BF     		it	ge
 601 00be 0D27     		movge	r7, #13
 602              	.LVL60:
 985:Drivers/lvgl/src/widgets/lv_btnmatrix.c ****         lv_area_copy(&btn_area, &btnm->button_areas[i]);
 603              		.loc 1 985 5 is_stmt 1 view .LVU149
 985:Drivers/lvgl/src/widgets/lv_btnmatrix.c ****         lv_area_copy(&btn_area, &btnm->button_areas[i]);
 604              		.loc 1 985 11 is_stmt 0 view .LVU150
 605 00c0 0024     		movs	r4, #0
 985:Drivers/lvgl/src/widgets/lv_btnmatrix.c ****         lv_area_copy(&btn_area, &btnm->button_areas[i]);
 606              		.loc 1 985 5 view .LVU151
 607 00c2 28E0     		b	.L27
 608              	.LVL61:
 609              	.L28:
 988:Drivers/lvgl/src/widgets/lv_btnmatrix.c **** 
 610              		.loc 1 988 14 is_stmt 1 view .LVU152
 988:Drivers/lvgl/src/widgets/lv_btnmatrix.c **** 
 611              		.loc 1 988 38 is_stmt 0 view .LVU153
 612 00c4 BDF81830 		ldrh	r3, [sp, #24]
 988:Drivers/lvgl/src/widgets/lv_btnmatrix.c **** 
 613              		.loc 1 988 42 view .LVU154
 614 00c8 A3EB0A03 		sub	r3, r3, r10
 988:Drivers/lvgl/src/widgets/lv_btnmatrix.c **** 
 615              		.loc 1 988 26 view .LVU155
 616 00cc 1CFA83F3 		uxtah	r3, ip, r3
 617 00d0 ADF81030 		strh	r3, [sp, #16]	@ movhi
ARM GAS  /var/folders/0z/tsy30v1j4xl4_7kw94k978ww0000gn/T//ccZBZI6H.s 			page 34


 618 00d4 47E0     		b	.L29
 619              	.L30:
 991:Drivers/lvgl/src/widgets/lv_btnmatrix.c **** 
 620              		.loc 1 991 14 is_stmt 1 view .LVU156
 991:Drivers/lvgl/src/widgets/lv_btnmatrix.c **** 
 621              		.loc 1 991 38 is_stmt 0 view .LVU157
 622 00d6 BDF81A30 		ldrh	r3, [sp, #26]
 991:Drivers/lvgl/src/widgets/lv_btnmatrix.c **** 
 623              		.loc 1 991 42 view .LVU158
 624 00da 9B1B     		subs	r3, r3, r6
 991:Drivers/lvgl/src/widgets/lv_btnmatrix.c **** 
 625              		.loc 1 991 26 view .LVU159
 626 00dc 10FA83F3 		uxtah	r3, r0, r3
 627 00e0 ADF81230 		strh	r3, [sp, #18]	@ movhi
 628 00e4 51E0     		b	.L31
 629              	.L32:
 995:Drivers/lvgl/src/widgets/lv_btnmatrix.c **** 
 630              		.loc 1 995 14 is_stmt 1 view .LVU160
 995:Drivers/lvgl/src/widgets/lv_btnmatrix.c **** 
 631              		.loc 1 995 38 is_stmt 0 view .LVU161
 632 00e6 BDF81830 		ldrh	r3, [sp, #24]
 995:Drivers/lvgl/src/widgets/lv_btnmatrix.c **** 
 633              		.loc 1 995 42 view .LVU162
 634 00ea 5344     		add	r3, r3, r10
 995:Drivers/lvgl/src/widgets/lv_btnmatrix.c **** 
 635              		.loc 1 995 26 view .LVU163
 636 00ec 11FA83F3 		uxtah	r3, r1, r3
 637 00f0 ADF81430 		strh	r3, [sp, #20]	@ movhi
 638 00f4 5BE0     		b	.L33
 639              	.L34:
 999:Drivers/lvgl/src/widgets/lv_btnmatrix.c **** 
 640              		.loc 1 999 14 is_stmt 1 view .LVU164
 999:Drivers/lvgl/src/widgets/lv_btnmatrix.c **** 
 641              		.loc 1 999 38 is_stmt 0 view .LVU165
 642 00f6 BDF81A30 		ldrh	r3, [sp, #26]
 999:Drivers/lvgl/src/widgets/lv_btnmatrix.c **** 
 643              		.loc 1 999 42 view .LVU166
 644 00fa 3344     		add	r3, r3, r6
 999:Drivers/lvgl/src/widgets/lv_btnmatrix.c **** 
 645              		.loc 1 999 26 view .LVU167
 646 00fc 12FA83F3 		uxtah	r3, r2, r3
 647 0100 ADF81630 		strh	r3, [sp, #22]	@ movhi
 648              	.L35:
1001:Drivers/lvgl/src/widgets/lv_btnmatrix.c ****             break;
 649              		.loc 1 1001 9 is_stmt 1 view .LVU168
1001:Drivers/lvgl/src/widgets/lv_btnmatrix.c ****             break;
 650              		.loc 1 1001 12 is_stmt 0 view .LVU169
 651 0104 0022     		movs	r2, #0
 652 0106 0399     		ldr	r1, [sp, #12]
 653 0108 04A8     		add	r0, sp, #16
 654 010a FFF7FEFF 		bl	_lv_area_is_point_on
 655              	.LVL62:
1001:Drivers/lvgl/src/widgets/lv_btnmatrix.c ****             break;
 656              		.loc 1 1001 11 view .LVU170
 657 010e 0028     		cmp	r0, #0
 658 0110 5FD1     		bne	.L36
 985:Drivers/lvgl/src/widgets/lv_btnmatrix.c ****         lv_area_copy(&btn_area, &btnm->button_areas[i]);
ARM GAS  /var/folders/0z/tsy30v1j4xl4_7kw94k978ww0000gn/T//ccZBZI6H.s 			page 35


 659              		.loc 1 985 36 is_stmt 1 discriminator 2 view .LVU171
 660 0112 0134     		adds	r4, r4, #1
 661              	.LVL63:
 985:Drivers/lvgl/src/widgets/lv_btnmatrix.c ****         lv_area_copy(&btn_area, &btnm->button_areas[i]);
 662              		.loc 1 985 36 is_stmt 0 discriminator 2 view .LVU172
 663 0114 A4B2     		uxth	r4, r4
 664              	.LVL64:
 665              	.L27:
 985:Drivers/lvgl/src/widgets/lv_btnmatrix.c ****         lv_area_copy(&btn_area, &btnm->button_areas[i]);
 666              		.loc 1 985 18 is_stmt 1 discriminator 1 view .LVU173
 985:Drivers/lvgl/src/widgets/lv_btnmatrix.c ****         lv_area_copy(&btn_area, &btnm->button_areas[i]);
 667              		.loc 1 985 24 is_stmt 0 discriminator 1 view .LVU174
 668 0116 2B8E     		ldrh	r3, [r5, #48]
 985:Drivers/lvgl/src/widgets/lv_btnmatrix.c ****         lv_area_copy(&btn_area, &btnm->button_areas[i]);
 669              		.loc 1 985 18 discriminator 1 view .LVU175
 670 0118 A342     		cmp	r3, r4
 671 011a 5AD9     		bls	.L36
 986:Drivers/lvgl/src/widgets/lv_btnmatrix.c ****         if(btn_area.x1 <= pleft) btn_area.x1 += obj_cords.x1 - LV_MIN(pleft, BTN_EXTRA_CLICK_AREA_M
 672              		.loc 1 986 9 is_stmt 1 view .LVU176
 986:Drivers/lvgl/src/widgets/lv_btnmatrix.c ****         if(btn_area.x1 <= pleft) btn_area.x1 += obj_cords.x1 - LV_MIN(pleft, BTN_EXTRA_CLICK_AREA_M
 673              		.loc 1 986 38 is_stmt 0 view .LVU177
 674 011c AA6A     		ldr	r2, [r5, #40]
 986:Drivers/lvgl/src/widgets/lv_btnmatrix.c ****         if(btn_area.x1 <= pleft) btn_area.x1 += obj_cords.x1 - LV_MIN(pleft, BTN_EXTRA_CLICK_AREA_M
 675              		.loc 1 986 33 view .LVU178
 676 011e 02EBC403 		add	r3, r2, r4, lsl #3
 677              	.LVL65:
 678              	.LBB93:
 679              	.LBI93:
 680              		.file 3 "Drivers/lvgl/src/widgets/../core/../misc/../font/../misc/lv_area.h"
   1:Drivers/lvgl/src/widgets/../core/../misc/../font/../misc/lv_area.h **** /**
   2:Drivers/lvgl/src/widgets/../core/../misc/../font/../misc/lv_area.h ****  * @file lv_area.h
   3:Drivers/lvgl/src/widgets/../core/../misc/../font/../misc/lv_area.h ****  *
   4:Drivers/lvgl/src/widgets/../core/../misc/../font/../misc/lv_area.h ****  */
   5:Drivers/lvgl/src/widgets/../core/../misc/../font/../misc/lv_area.h **** 
   6:Drivers/lvgl/src/widgets/../core/../misc/../font/../misc/lv_area.h **** #ifndef LV_AREA_H
   7:Drivers/lvgl/src/widgets/../core/../misc/../font/../misc/lv_area.h **** #define LV_AREA_H
   8:Drivers/lvgl/src/widgets/../core/../misc/../font/../misc/lv_area.h **** 
   9:Drivers/lvgl/src/widgets/../core/../misc/../font/../misc/lv_area.h **** #ifdef __cplusplus
  10:Drivers/lvgl/src/widgets/../core/../misc/../font/../misc/lv_area.h **** extern "C" {
  11:Drivers/lvgl/src/widgets/../core/../misc/../font/../misc/lv_area.h **** #endif
  12:Drivers/lvgl/src/widgets/../core/../misc/../font/../misc/lv_area.h **** 
  13:Drivers/lvgl/src/widgets/../core/../misc/../font/../misc/lv_area.h **** /*********************
  14:Drivers/lvgl/src/widgets/../core/../misc/../font/../misc/lv_area.h ****  *      INCLUDES
  15:Drivers/lvgl/src/widgets/../core/../misc/../font/../misc/lv_area.h ****  *********************/
  16:Drivers/lvgl/src/widgets/../core/../misc/../font/../misc/lv_area.h **** #include "../lv_conf_internal.h"
  17:Drivers/lvgl/src/widgets/../core/../misc/../font/../misc/lv_area.h **** #include <stdbool.h>
  18:Drivers/lvgl/src/widgets/../core/../misc/../font/../misc/lv_area.h **** #include <stdint.h>
  19:Drivers/lvgl/src/widgets/../core/../misc/../font/../misc/lv_area.h **** 
  20:Drivers/lvgl/src/widgets/../core/../misc/../font/../misc/lv_area.h **** /*********************
  21:Drivers/lvgl/src/widgets/../core/../misc/../font/../misc/lv_area.h ****  *      DEFINES
  22:Drivers/lvgl/src/widgets/../core/../misc/../font/../misc/lv_area.h ****  *********************/
  23:Drivers/lvgl/src/widgets/../core/../misc/../font/../misc/lv_area.h **** 
  24:Drivers/lvgl/src/widgets/../core/../misc/../font/../misc/lv_area.h **** #if LV_USE_LARGE_COORD
  25:Drivers/lvgl/src/widgets/../core/../misc/../font/../misc/lv_area.h **** typedef int32_t lv_coord_t;
  26:Drivers/lvgl/src/widgets/../core/../misc/../font/../misc/lv_area.h **** #else
  27:Drivers/lvgl/src/widgets/../core/../misc/../font/../misc/lv_area.h **** typedef int16_t lv_coord_t;
  28:Drivers/lvgl/src/widgets/../core/../misc/../font/../misc/lv_area.h **** #endif
ARM GAS  /var/folders/0z/tsy30v1j4xl4_7kw94k978ww0000gn/T//ccZBZI6H.s 			page 36


  29:Drivers/lvgl/src/widgets/../core/../misc/../font/../misc/lv_area.h **** 
  30:Drivers/lvgl/src/widgets/../core/../misc/../font/../misc/lv_area.h **** /**********************
  31:Drivers/lvgl/src/widgets/../core/../misc/../font/../misc/lv_area.h ****  *      TYPEDEFS
  32:Drivers/lvgl/src/widgets/../core/../misc/../font/../misc/lv_area.h ****  **********************/
  33:Drivers/lvgl/src/widgets/../core/../misc/../font/../misc/lv_area.h **** 
  34:Drivers/lvgl/src/widgets/../core/../misc/../font/../misc/lv_area.h **** /**
  35:Drivers/lvgl/src/widgets/../core/../misc/../font/../misc/lv_area.h ****  * Represents a point on the screen.
  36:Drivers/lvgl/src/widgets/../core/../misc/../font/../misc/lv_area.h ****  */
  37:Drivers/lvgl/src/widgets/../core/../misc/../font/../misc/lv_area.h **** typedef struct {
  38:Drivers/lvgl/src/widgets/../core/../misc/../font/../misc/lv_area.h ****     lv_coord_t x;
  39:Drivers/lvgl/src/widgets/../core/../misc/../font/../misc/lv_area.h ****     lv_coord_t y;
  40:Drivers/lvgl/src/widgets/../core/../misc/../font/../misc/lv_area.h **** } lv_point_t;
  41:Drivers/lvgl/src/widgets/../core/../misc/../font/../misc/lv_area.h **** 
  42:Drivers/lvgl/src/widgets/../core/../misc/../font/../misc/lv_area.h **** /** Represents an area of the screen.*/
  43:Drivers/lvgl/src/widgets/../core/../misc/../font/../misc/lv_area.h **** typedef struct {
  44:Drivers/lvgl/src/widgets/../core/../misc/../font/../misc/lv_area.h ****     lv_coord_t x1;
  45:Drivers/lvgl/src/widgets/../core/../misc/../font/../misc/lv_area.h ****     lv_coord_t y1;
  46:Drivers/lvgl/src/widgets/../core/../misc/../font/../misc/lv_area.h ****     lv_coord_t x2;
  47:Drivers/lvgl/src/widgets/../core/../misc/../font/../misc/lv_area.h ****     lv_coord_t y2;
  48:Drivers/lvgl/src/widgets/../core/../misc/../font/../misc/lv_area.h **** } lv_area_t;
  49:Drivers/lvgl/src/widgets/../core/../misc/../font/../misc/lv_area.h **** 
  50:Drivers/lvgl/src/widgets/../core/../misc/../font/../misc/lv_area.h **** /** Alignments*/
  51:Drivers/lvgl/src/widgets/../core/../misc/../font/../misc/lv_area.h **** enum {
  52:Drivers/lvgl/src/widgets/../core/../misc/../font/../misc/lv_area.h ****     LV_ALIGN_DEFAULT = 0,
  53:Drivers/lvgl/src/widgets/../core/../misc/../font/../misc/lv_area.h ****     LV_ALIGN_TOP_LEFT,
  54:Drivers/lvgl/src/widgets/../core/../misc/../font/../misc/lv_area.h ****     LV_ALIGN_TOP_MID,
  55:Drivers/lvgl/src/widgets/../core/../misc/../font/../misc/lv_area.h ****     LV_ALIGN_TOP_RIGHT,
  56:Drivers/lvgl/src/widgets/../core/../misc/../font/../misc/lv_area.h ****     LV_ALIGN_BOTTOM_LEFT,
  57:Drivers/lvgl/src/widgets/../core/../misc/../font/../misc/lv_area.h ****     LV_ALIGN_BOTTOM_MID,
  58:Drivers/lvgl/src/widgets/../core/../misc/../font/../misc/lv_area.h ****     LV_ALIGN_BOTTOM_RIGHT,
  59:Drivers/lvgl/src/widgets/../core/../misc/../font/../misc/lv_area.h ****     LV_ALIGN_LEFT_MID,
  60:Drivers/lvgl/src/widgets/../core/../misc/../font/../misc/lv_area.h ****     LV_ALIGN_RIGHT_MID,
  61:Drivers/lvgl/src/widgets/../core/../misc/../font/../misc/lv_area.h ****     LV_ALIGN_CENTER,
  62:Drivers/lvgl/src/widgets/../core/../misc/../font/../misc/lv_area.h **** 
  63:Drivers/lvgl/src/widgets/../core/../misc/../font/../misc/lv_area.h ****     LV_ALIGN_OUT_TOP_LEFT,
  64:Drivers/lvgl/src/widgets/../core/../misc/../font/../misc/lv_area.h ****     LV_ALIGN_OUT_TOP_MID,
  65:Drivers/lvgl/src/widgets/../core/../misc/../font/../misc/lv_area.h ****     LV_ALIGN_OUT_TOP_RIGHT,
  66:Drivers/lvgl/src/widgets/../core/../misc/../font/../misc/lv_area.h ****     LV_ALIGN_OUT_BOTTOM_LEFT,
  67:Drivers/lvgl/src/widgets/../core/../misc/../font/../misc/lv_area.h ****     LV_ALIGN_OUT_BOTTOM_MID,
  68:Drivers/lvgl/src/widgets/../core/../misc/../font/../misc/lv_area.h ****     LV_ALIGN_OUT_BOTTOM_RIGHT,
  69:Drivers/lvgl/src/widgets/../core/../misc/../font/../misc/lv_area.h ****     LV_ALIGN_OUT_LEFT_TOP,
  70:Drivers/lvgl/src/widgets/../core/../misc/../font/../misc/lv_area.h ****     LV_ALIGN_OUT_LEFT_MID,
  71:Drivers/lvgl/src/widgets/../core/../misc/../font/../misc/lv_area.h ****     LV_ALIGN_OUT_LEFT_BOTTOM,
  72:Drivers/lvgl/src/widgets/../core/../misc/../font/../misc/lv_area.h ****     LV_ALIGN_OUT_RIGHT_TOP,
  73:Drivers/lvgl/src/widgets/../core/../misc/../font/../misc/lv_area.h ****     LV_ALIGN_OUT_RIGHT_MID,
  74:Drivers/lvgl/src/widgets/../core/../misc/../font/../misc/lv_area.h ****     LV_ALIGN_OUT_RIGHT_BOTTOM,
  75:Drivers/lvgl/src/widgets/../core/../misc/../font/../misc/lv_area.h **** };
  76:Drivers/lvgl/src/widgets/../core/../misc/../font/../misc/lv_area.h **** typedef uint8_t lv_align_t;
  77:Drivers/lvgl/src/widgets/../core/../misc/../font/../misc/lv_area.h **** 
  78:Drivers/lvgl/src/widgets/../core/../misc/../font/../misc/lv_area.h **** enum {
  79:Drivers/lvgl/src/widgets/../core/../misc/../font/../misc/lv_area.h ****     LV_DIR_NONE     = 0x00,
  80:Drivers/lvgl/src/widgets/../core/../misc/../font/../misc/lv_area.h ****     LV_DIR_LEFT     = (1 << 0),
  81:Drivers/lvgl/src/widgets/../core/../misc/../font/../misc/lv_area.h ****     LV_DIR_RIGHT    = (1 << 1),
  82:Drivers/lvgl/src/widgets/../core/../misc/../font/../misc/lv_area.h ****     LV_DIR_TOP      = (1 << 2),
  83:Drivers/lvgl/src/widgets/../core/../misc/../font/../misc/lv_area.h ****     LV_DIR_BOTTOM   = (1 << 3),
  84:Drivers/lvgl/src/widgets/../core/../misc/../font/../misc/lv_area.h ****     LV_DIR_HOR      = LV_DIR_LEFT | LV_DIR_RIGHT,
  85:Drivers/lvgl/src/widgets/../core/../misc/../font/../misc/lv_area.h ****     LV_DIR_VER      = LV_DIR_TOP | LV_DIR_BOTTOM,
ARM GAS  /var/folders/0z/tsy30v1j4xl4_7kw94k978ww0000gn/T//ccZBZI6H.s 			page 37


  86:Drivers/lvgl/src/widgets/../core/../misc/../font/../misc/lv_area.h ****     LV_DIR_ALL      = LV_DIR_HOR | LV_DIR_VER,
  87:Drivers/lvgl/src/widgets/../core/../misc/../font/../misc/lv_area.h **** };
  88:Drivers/lvgl/src/widgets/../core/../misc/../font/../misc/lv_area.h **** 
  89:Drivers/lvgl/src/widgets/../core/../misc/../font/../misc/lv_area.h **** typedef uint8_t lv_dir_t;
  90:Drivers/lvgl/src/widgets/../core/../misc/../font/../misc/lv_area.h **** 
  91:Drivers/lvgl/src/widgets/../core/../misc/../font/../misc/lv_area.h **** /**********************
  92:Drivers/lvgl/src/widgets/../core/../misc/../font/../misc/lv_area.h ****  * GLOBAL PROTOTYPES
  93:Drivers/lvgl/src/widgets/../core/../misc/../font/../misc/lv_area.h ****  **********************/
  94:Drivers/lvgl/src/widgets/../core/../misc/../font/../misc/lv_area.h **** 
  95:Drivers/lvgl/src/widgets/../core/../misc/../font/../misc/lv_area.h **** /**
  96:Drivers/lvgl/src/widgets/../core/../misc/../font/../misc/lv_area.h ****  * Initialize an area
  97:Drivers/lvgl/src/widgets/../core/../misc/../font/../misc/lv_area.h ****  * @param area_p pointer to an area
  98:Drivers/lvgl/src/widgets/../core/../misc/../font/../misc/lv_area.h ****  * @param x1 left coordinate of the area
  99:Drivers/lvgl/src/widgets/../core/../misc/../font/../misc/lv_area.h ****  * @param y1 top coordinate of the area
 100:Drivers/lvgl/src/widgets/../core/../misc/../font/../misc/lv_area.h ****  * @param x2 right coordinate of the area
 101:Drivers/lvgl/src/widgets/../core/../misc/../font/../misc/lv_area.h ****  * @param y2 bottom coordinate of the area
 102:Drivers/lvgl/src/widgets/../core/../misc/../font/../misc/lv_area.h ****  */
 103:Drivers/lvgl/src/widgets/../core/../misc/../font/../misc/lv_area.h **** void lv_area_set(lv_area_t * area_p, lv_coord_t x1, lv_coord_t y1, lv_coord_t x2, lv_coord_t y2);
 104:Drivers/lvgl/src/widgets/../core/../misc/../font/../misc/lv_area.h **** 
 105:Drivers/lvgl/src/widgets/../core/../misc/../font/../misc/lv_area.h **** /**
 106:Drivers/lvgl/src/widgets/../core/../misc/../font/../misc/lv_area.h ****  * Copy an area
 107:Drivers/lvgl/src/widgets/../core/../misc/../font/../misc/lv_area.h ****  * @param dest pointer to the destination area
 108:Drivers/lvgl/src/widgets/../core/../misc/../font/../misc/lv_area.h ****  * @param src pointer to the source area
 109:Drivers/lvgl/src/widgets/../core/../misc/../font/../misc/lv_area.h ****  */
 110:Drivers/lvgl/src/widgets/../core/../misc/../font/../misc/lv_area.h **** inline static void lv_area_copy(lv_area_t * dest, const lv_area_t * src)
 681              		.loc 3 110 20 is_stmt 1 view .LVU179
 682              	.LBB94:
 111:Drivers/lvgl/src/widgets/../core/../misc/../font/../misc/lv_area.h **** {
 112:Drivers/lvgl/src/widgets/../core/../misc/../font/../misc/lv_area.h ****     dest->x1 = src->x1;
 683              		.loc 3 112 5 view .LVU180
 684              		.loc 3 112 19 is_stmt 0 view .LVU181
 685 0122 32F934C0 		ldrsh	ip, [r2, r4, lsl #3]
 686              		.loc 3 112 14 view .LVU182
 687 0126 ADF810C0 		strh	ip, [sp, #16]	@ movhi
 113:Drivers/lvgl/src/widgets/../core/../misc/../font/../misc/lv_area.h ****     dest->y1 = src->y1;
 688              		.loc 3 113 5 is_stmt 1 view .LVU183
 689              		.loc 3 113 19 is_stmt 0 view .LVU184
 690 012a B3F90200 		ldrsh	r0, [r3, #2]
 691              		.loc 3 113 14 view .LVU185
 692 012e ADF81200 		strh	r0, [sp, #18]	@ movhi
 114:Drivers/lvgl/src/widgets/../core/../misc/../font/../misc/lv_area.h ****     dest->x2 = src->x2;
 693              		.loc 3 114 5 is_stmt 1 view .LVU186
 694              		.loc 3 114 19 is_stmt 0 view .LVU187
 695 0132 B3F90410 		ldrsh	r1, [r3, #4]
 696              		.loc 3 114 14 view .LVU188
 697 0136 ADF81410 		strh	r1, [sp, #20]	@ movhi
 115:Drivers/lvgl/src/widgets/../core/../misc/../font/../misc/lv_area.h ****     dest->y2 = src->y2;
 698              		.loc 3 115 5 is_stmt 1 view .LVU189
 699              		.loc 3 115 19 is_stmt 0 view .LVU190
 700 013a B3F90620 		ldrsh	r2, [r3, #6]
 701              		.loc 3 115 14 view .LVU191
 702 013e ADF81620 		strh	r2, [sp, #22]	@ movhi
 703              	.LVL66:
 704              		.loc 3 115 14 view .LVU192
 705              	.LBE94:
 706              	.LBE93:
 987:Drivers/lvgl/src/widgets/lv_btnmatrix.c ****         else btn_area.x1 += obj_cords.x1 - pcol;
ARM GAS  /var/folders/0z/tsy30v1j4xl4_7kw94k978ww0000gn/T//ccZBZI6H.s 			page 38


 707              		.loc 1 987 9 is_stmt 1 view .LVU193
 987:Drivers/lvgl/src/widgets/lv_btnmatrix.c ****         else btn_area.x1 += obj_cords.x1 - pcol;
 708              		.loc 1 987 11 is_stmt 0 view .LVU194
 709 0142 E345     		cmp	fp, ip
 710 0144 BEDB     		blt	.L28
 987:Drivers/lvgl/src/widgets/lv_btnmatrix.c ****         else btn_area.x1 += obj_cords.x1 - pcol;
 711              		.loc 1 987 34 is_stmt 1 discriminator 1 view .LVU195
 987:Drivers/lvgl/src/widgets/lv_btnmatrix.c ****         else btn_area.x1 += obj_cords.x1 - pcol;
 712              		.loc 1 987 58 is_stmt 0 discriminator 1 view .LVU196
 713 0146 BDF81830 		ldrh	r3, [sp, #24]
 987:Drivers/lvgl/src/widgets/lv_btnmatrix.c ****         else btn_area.x1 += obj_cords.x1 - pcol;
 714              		.loc 1 987 64 discriminator 1 view .LVU197
 715 014a DE46     		mov	lr, fp
 716 014c BBF10D0F 		cmp	fp, #13
 717 0150 A8BF     		it	ge
 718 0152 4FF00D0E 		movge	lr, #13
 719 0156 1FFA8EFE 		uxth	lr, lr
 987:Drivers/lvgl/src/widgets/lv_btnmatrix.c ****         else btn_area.x1 += obj_cords.x1 - pcol;
 720              		.loc 1 987 62 discriminator 1 view .LVU198
 721 015a A3EB0E03 		sub	r3, r3, lr
 987:Drivers/lvgl/src/widgets/lv_btnmatrix.c ****         else btn_area.x1 += obj_cords.x1 - pcol;
 722              		.loc 1 987 46 discriminator 1 view .LVU199
 723 015e 1CFA83F3 		uxtah	r3, ip, r3
 724 0162 ADF81030 		strh	r3, [sp, #16]	@ movhi
 725              	.L29:
 990:Drivers/lvgl/src/widgets/lv_btnmatrix.c ****         else btn_area.y1 += obj_cords.y1 - prow;
 726              		.loc 1 990 9 is_stmt 1 view .LVU200
 990:Drivers/lvgl/src/widgets/lv_btnmatrix.c ****         else btn_area.y1 += obj_cords.y1 - prow;
 727              		.loc 1 990 11 is_stmt 0 view .LVU201
 728 0166 8045     		cmp	r8, r0
 729 0168 B5DB     		blt	.L30
 990:Drivers/lvgl/src/widgets/lv_btnmatrix.c ****         else btn_area.y1 += obj_cords.y1 - prow;
 730              		.loc 1 990 33 is_stmt 1 discriminator 1 view .LVU202
 990:Drivers/lvgl/src/widgets/lv_btnmatrix.c ****         else btn_area.y1 += obj_cords.y1 - prow;
 731              		.loc 1 990 57 is_stmt 0 discriminator 1 view .LVU203
 732 016a BDF81A30 		ldrh	r3, [sp, #26]
 990:Drivers/lvgl/src/widgets/lv_btnmatrix.c ****         else btn_area.y1 += obj_cords.y1 - prow;
 733              		.loc 1 990 63 discriminator 1 view .LVU204
 734 016e C446     		mov	ip, r8
 735 0170 B8F10D0F 		cmp	r8, #13
 736 0174 A8BF     		it	ge
 737 0176 4FF00D0C 		movge	ip, #13
 738 017a 1FFA8CFC 		uxth	ip, ip
 990:Drivers/lvgl/src/widgets/lv_btnmatrix.c ****         else btn_area.y1 += obj_cords.y1 - prow;
 739              		.loc 1 990 61 discriminator 1 view .LVU205
 740 017e A3EB0C03 		sub	r3, r3, ip
 990:Drivers/lvgl/src/widgets/lv_btnmatrix.c ****         else btn_area.y1 += obj_cords.y1 - prow;
 741              		.loc 1 990 45 discriminator 1 view .LVU206
 742 0182 10FA83F3 		uxtah	r3, r0, r3
 743 0186 ADF81230 		strh	r3, [sp, #18]	@ movhi
 744              	.L31:
 993:Drivers/lvgl/src/widgets/lv_btnmatrix.c ****                                                                                    BTN_EXTRA_CLICK_
 745              		.loc 1 993 9 is_stmt 1 view .LVU207
 993:Drivers/lvgl/src/widgets/lv_btnmatrix.c ****                                                                                    BTN_EXTRA_CLICK_
 746              		.loc 1 993 29 is_stmt 0 view .LVU208
 747 018a 019B     		ldr	r3, [sp, #4]
 748 018c A3EB0903 		sub	r3, r3, r9
ARM GAS  /var/folders/0z/tsy30v1j4xl4_7kw94k978ww0000gn/T//ccZBZI6H.s 			page 39


 993:Drivers/lvgl/src/widgets/lv_btnmatrix.c ****                                                                                    BTN_EXTRA_CLICK_
 749              		.loc 1 993 38 view .LVU209
 750 0190 023B     		subs	r3, r3, #2
 993:Drivers/lvgl/src/widgets/lv_btnmatrix.c ****                                                                                    BTN_EXTRA_CLICK_
 751              		.loc 1 993 11 view .LVU210
 752 0192 9942     		cmp	r1, r3
 753 0194 A7DB     		blt	.L32
 993:Drivers/lvgl/src/widgets/lv_btnmatrix.c ****                                                                                    BTN_EXTRA_CLICK_
 754              		.loc 1 993 43 is_stmt 1 discriminator 1 view .LVU211
 993:Drivers/lvgl/src/widgets/lv_btnmatrix.c ****                                                                                    BTN_EXTRA_CLICK_
 755              		.loc 1 993 67 is_stmt 0 discriminator 1 view .LVU212
 756 0196 BDF81800 		ldrh	r0, [sp, #24]
 993:Drivers/lvgl/src/widgets/lv_btnmatrix.c ****                                                                                    BTN_EXTRA_CLICK_
 757              		.loc 1 993 73 discriminator 1 view .LVU213
 758 019a 4B46     		mov	r3, r9
 759 019c 0D2B     		cmp	r3, #13
 760 019e A8BF     		it	ge
 761 01a0 0D23     		movge	r3, #13
 993:Drivers/lvgl/src/widgets/lv_btnmatrix.c ****                                                                                    BTN_EXTRA_CLICK_
 762              		.loc 1 993 71 discriminator 1 view .LVU214
 763 01a2 10FA83F3 		uxtah	r3, r0, r3
 993:Drivers/lvgl/src/widgets/lv_btnmatrix.c ****                                                                                    BTN_EXTRA_CLICK_
 764              		.loc 1 993 55 discriminator 1 view .LVU215
 765 01a6 11FA83F3 		uxtah	r3, r1, r3
 766 01aa ADF81430 		strh	r3, [sp, #20]	@ movhi
 767              	.L33:
 997:Drivers/lvgl/src/widgets/lv_btnmatrix.c ****                                                                                     BTN_EXTRA_CLICK
 768              		.loc 1 997 9 is_stmt 1 view .LVU216
 997:Drivers/lvgl/src/widgets/lv_btnmatrix.c ****                                                                                     BTN_EXTRA_CLICK
 769              		.loc 1 997 29 is_stmt 0 view .LVU217
 770 01ae 029B     		ldr	r3, [sp, #8]
 771 01b0 DB1B     		subs	r3, r3, r7
 997:Drivers/lvgl/src/widgets/lv_btnmatrix.c ****                                                                                     BTN_EXTRA_CLICK
 772              		.loc 1 997 39 view .LVU218
 773 01b2 023B     		subs	r3, r3, #2
 997:Drivers/lvgl/src/widgets/lv_btnmatrix.c ****                                                                                     BTN_EXTRA_CLICK
 774              		.loc 1 997 11 view .LVU219
 775 01b4 9A42     		cmp	r2, r3
 776 01b6 9EDB     		blt	.L34
 997:Drivers/lvgl/src/widgets/lv_btnmatrix.c ****                                                                                     BTN_EXTRA_CLICK
 777              		.loc 1 997 44 is_stmt 1 discriminator 1 view .LVU220
 997:Drivers/lvgl/src/widgets/lv_btnmatrix.c ****                                                                                     BTN_EXTRA_CLICK
 778              		.loc 1 997 68 is_stmt 0 discriminator 1 view .LVU221
 779 01b8 BDF81A10 		ldrh	r1, [sp, #26]
 997:Drivers/lvgl/src/widgets/lv_btnmatrix.c ****                                                                                     BTN_EXTRA_CLICK
 780              		.loc 1 997 74 discriminator 1 view .LVU222
 781 01bc 3B46     		mov	r3, r7
 782 01be 0D2F     		cmp	r7, #13
 783 01c0 A8BF     		it	ge
 784 01c2 0D23     		movge	r3, #13
 997:Drivers/lvgl/src/widgets/lv_btnmatrix.c ****                                                                                     BTN_EXTRA_CLICK
 785              		.loc 1 997 72 discriminator 1 view .LVU223
 786 01c4 11FA83F3 		uxtah	r3, r1, r3
 997:Drivers/lvgl/src/widgets/lv_btnmatrix.c ****                                                                                     BTN_EXTRA_CLICK
 787              		.loc 1 997 56 discriminator 1 view .LVU224
 788 01c8 12FA83F3 		uxtah	r3, r2, r3
 789 01cc ADF81630 		strh	r3, [sp, #22]	@ movhi
ARM GAS  /var/folders/0z/tsy30v1j4xl4_7kw94k978ww0000gn/T//ccZBZI6H.s 			page 40


 790 01d0 98E7     		b	.L35
 791              	.L36:
1006:Drivers/lvgl/src/widgets/lv_btnmatrix.c **** 
 792              		.loc 1 1006 5 is_stmt 1 view .LVU225
1006:Drivers/lvgl/src/widgets/lv_btnmatrix.c **** 
 793              		.loc 1 1006 17 is_stmt 0 view .LVU226
 794 01d2 2B8E     		ldrh	r3, [r5, #48]
1006:Drivers/lvgl/src/widgets/lv_btnmatrix.c **** 
 795              		.loc 1 1006 7 view .LVU227
 796 01d4 A342     		cmp	r3, r4
 797 01d6 03D0     		beq	.L41
 798              	.LVL67:
 799              	.L38:
1008:Drivers/lvgl/src/widgets/lv_btnmatrix.c **** }
 800              		.loc 1 1008 5 is_stmt 1 view .LVU228
1009:Drivers/lvgl/src/widgets/lv_btnmatrix.c **** 
 801              		.loc 1 1009 1 is_stmt 0 view .LVU229
 802 01d8 2046     		mov	r0, r4
 803 01da 09B0     		add	sp, sp, #36
 804              		.cfi_remember_state
 805              		.cfi_def_cfa_offset 36
 806              		@ sp needed
 807 01dc BDE8F08F 		pop	{r4, r5, r6, r7, r8, r9, r10, fp, pc}
 808              	.LVL68:
 809              	.L41:
 810              		.cfi_restore_state
1006:Drivers/lvgl/src/widgets/lv_btnmatrix.c **** 
 811              		.loc 1 1006 30 view .LVU230
 812 01e0 4FF6FF74 		movw	r4, #65535
 813              	.LVL69:
1006:Drivers/lvgl/src/widgets/lv_btnmatrix.c **** 
 814              		.loc 1 1006 30 view .LVU231
 815 01e4 F8E7     		b	.L38
 816              		.cfi_endproc
 817              	.LFE191:
 819              		.section	.text.invalidate_button_area,"ax",%progbits
 820              		.align	1
 821              		.syntax unified
 822              		.thumb
 823              		.thumb_func
 825              	invalidate_button_area:
 826              	.LVL70:
 827              	.LFB192:
1012:Drivers/lvgl/src/widgets/lv_btnmatrix.c ****     if(btn_idx == LV_BTNMATRIX_BTN_NONE) return;
 828              		.loc 1 1012 1 is_stmt 1 view -0
 829              		.cfi_startproc
 830              		@ args = 0, pretend = 0, frame = 16
 831              		@ frame_needed = 0, uses_anonymous_args = 0
1013:Drivers/lvgl/src/widgets/lv_btnmatrix.c **** 
 832              		.loc 1 1013 5 view .LVU233
1013:Drivers/lvgl/src/widgets/lv_btnmatrix.c **** 
 833              		.loc 1 1013 7 is_stmt 0 view .LVU234
 834 0000 4FF6FF73 		movw	r3, #65535
 835 0004 9942     		cmp	r1, r3
 836 0006 76D0     		beq	.L47
1012:Drivers/lvgl/src/widgets/lv_btnmatrix.c ****     if(btn_idx == LV_BTNMATRIX_BTN_NONE) return;
 837              		.loc 1 1012 1 view .LVU235
ARM GAS  /var/folders/0z/tsy30v1j4xl4_7kw94k978ww0000gn/T//ccZBZI6H.s 			page 41


 838 0008 F0B5     		push	{r4, r5, r6, r7, lr}
 839              		.cfi_def_cfa_offset 20
 840              		.cfi_offset 4, -20
 841              		.cfi_offset 5, -16
 842              		.cfi_offset 6, -12
 843              		.cfi_offset 7, -8
 844              		.cfi_offset 14, -4
 845 000a 85B0     		sub	sp, sp, #20
 846              		.cfi_def_cfa_offset 40
 847 000c 0446     		mov	r4, r0
 848 000e 0D46     		mov	r5, r1
1015:Drivers/lvgl/src/widgets/lv_btnmatrix.c ****     lv_area_t obj_area;
 849              		.loc 1 1015 5 is_stmt 1 view .LVU236
1016:Drivers/lvgl/src/widgets/lv_btnmatrix.c **** 
 850              		.loc 1 1016 5 view .LVU237
1018:Drivers/lvgl/src/widgets/lv_btnmatrix.c ****     if(btn_idx >= btnm->btn_cnt) return;
 851              		.loc 1 1018 5 view .LVU238
 852              	.LVL71:
1018:Drivers/lvgl/src/widgets/lv_btnmatrix.c ****     if(btn_idx >= btnm->btn_cnt) return;
 853              		.loc 1 1018 51 view .LVU239
1019:Drivers/lvgl/src/widgets/lv_btnmatrix.c **** 
 854              		.loc 1 1019 5 view .LVU240
1019:Drivers/lvgl/src/widgets/lv_btnmatrix.c **** 
 855              		.loc 1 1019 23 is_stmt 0 view .LVU241
 856 0010 038E     		ldrh	r3, [r0, #48]
1019:Drivers/lvgl/src/widgets/lv_btnmatrix.c **** 
 857              		.loc 1 1019 7 view .LVU242
 858 0012 8B42     		cmp	r3, r1
 859 0014 01D8     		bhi	.L50
 860              	.LVL72:
 861              	.L42:
1046:Drivers/lvgl/src/widgets/lv_btnmatrix.c **** 
 862              		.loc 1 1046 1 view .LVU243
 863 0016 05B0     		add	sp, sp, #20
 864              		.cfi_remember_state
 865              		.cfi_def_cfa_offset 20
 866              		@ sp needed
 867 0018 F0BD     		pop	{r4, r5, r6, r7, pc}
 868              	.LVL73:
 869              	.L50:
 870              		.cfi_restore_state
1021:Drivers/lvgl/src/widgets/lv_btnmatrix.c ****     lv_obj_get_coords(obj, &obj_area);
 871              		.loc 1 1021 5 is_stmt 1 view .LVU244
1021:Drivers/lvgl/src/widgets/lv_btnmatrix.c ****     lv_obj_get_coords(obj, &obj_area);
 872              		.loc 1 1021 34 is_stmt 0 view .LVU245
 873 001a 826A     		ldr	r2, [r0, #40]
1021:Drivers/lvgl/src/widgets/lv_btnmatrix.c ****     lv_obj_get_coords(obj, &obj_area);
 874              		.loc 1 1021 29 view .LVU246
 875 001c 02EBC103 		add	r3, r2, r1, lsl #3
 876              	.LVL74:
 877              	.LBB95:
 878              	.LBI95:
 110:Drivers/lvgl/src/widgets/../core/../misc/../font/../misc/lv_area.h **** {
 879              		.loc 3 110 20 is_stmt 1 view .LVU247
 880              	.LBB96:
 112:Drivers/lvgl/src/widgets/../core/../misc/../font/../misc/lv_area.h ****     dest->y1 = src->y1;
 881              		.loc 3 112 5 view .LVU248
ARM GAS  /var/folders/0z/tsy30v1j4xl4_7kw94k978ww0000gn/T//ccZBZI6H.s 			page 42


 112:Drivers/lvgl/src/widgets/../core/../misc/../font/../misc/lv_area.h ****     dest->y1 = src->y1;
 882              		.loc 3 112 19 is_stmt 0 view .LVU249
 883 0020 32F93120 		ldrsh	r2, [r2, r1, lsl #3]
 112:Drivers/lvgl/src/widgets/../core/../misc/../font/../misc/lv_area.h ****     dest->y1 = src->y1;
 884              		.loc 3 112 14 view .LVU250
 885 0024 ADF80820 		strh	r2, [sp, #8]	@ movhi
 113:Drivers/lvgl/src/widgets/../core/../misc/../font/../misc/lv_area.h ****     dest->x2 = src->x2;
 886              		.loc 3 113 5 is_stmt 1 view .LVU251
 113:Drivers/lvgl/src/widgets/../core/../misc/../font/../misc/lv_area.h ****     dest->x2 = src->x2;
 887              		.loc 3 113 19 is_stmt 0 view .LVU252
 888 0028 B3F90220 		ldrsh	r2, [r3, #2]
 113:Drivers/lvgl/src/widgets/../core/../misc/../font/../misc/lv_area.h ****     dest->x2 = src->x2;
 889              		.loc 3 113 14 view .LVU253
 890 002c ADF80A20 		strh	r2, [sp, #10]	@ movhi
 114:Drivers/lvgl/src/widgets/../core/../misc/../font/../misc/lv_area.h ****     dest->y2 = src->y2;
 891              		.loc 3 114 5 is_stmt 1 view .LVU254
 114:Drivers/lvgl/src/widgets/../core/../misc/../font/../misc/lv_area.h ****     dest->y2 = src->y2;
 892              		.loc 3 114 19 is_stmt 0 view .LVU255
 893 0030 B3F90420 		ldrsh	r2, [r3, #4]
 114:Drivers/lvgl/src/widgets/../core/../misc/../font/../misc/lv_area.h ****     dest->y2 = src->y2;
 894              		.loc 3 114 14 view .LVU256
 895 0034 ADF80C20 		strh	r2, [sp, #12]	@ movhi
 896              		.loc 3 115 5 is_stmt 1 view .LVU257
 897              		.loc 3 115 19 is_stmt 0 view .LVU258
 898 0038 B3F90630 		ldrsh	r3, [r3, #6]
 899              	.LVL75:
 900              		.loc 3 115 14 view .LVU259
 901 003c ADF80E30 		strh	r3, [sp, #14]	@ movhi
 902              	.LVL76:
 903              		.loc 3 115 14 view .LVU260
 904              	.LBE96:
 905              	.LBE95:
1022:Drivers/lvgl/src/widgets/lv_btnmatrix.c **** 
 906              		.loc 1 1022 5 is_stmt 1 view .LVU261
 907 0040 6946     		mov	r1, sp
 908              	.LVL77:
1022:Drivers/lvgl/src/widgets/lv_btnmatrix.c **** 
 909              		.loc 1 1022 5 is_stmt 0 view .LVU262
 910 0042 FFF7FEFF 		bl	lv_obj_get_coords
 911              	.LVL78:
1026:Drivers/lvgl/src/widgets/lv_btnmatrix.c ****     lv_coord_t col_gap = lv_obj_get_style_pad_column(obj, LV_PART_MAIN);
 912              		.loc 1 1026 5 is_stmt 1 view .LVU263
 913              	.LBB97:
 914              	.LBI97:
 127:Drivers/lvgl/src/widgets/../core/lv_obj_style_gen.h **** {
 915              		.loc 2 127 26 view .LVU264
 916              	.LBB98:
 129:Drivers/lvgl/src/widgets/../core/lv_obj_style_gen.h ****     return (lv_coord_t)v.num;
 917              		.loc 2 129 5 view .LVU265
 129:Drivers/lvgl/src/widgets/../core/lv_obj_style_gen.h ****     return (lv_coord_t)v.num;
 918              		.loc 2 129 26 is_stmt 0 view .LVU266
 919 0046 1422     		movs	r2, #20
 920 0048 0021     		movs	r1, #0
 921 004a 2046     		mov	r0, r4
 922 004c FFF7FEFF 		bl	lv_obj_get_style_prop
 923              	.LVL79:
 130:Drivers/lvgl/src/widgets/../core/lv_obj_style_gen.h **** }
ARM GAS  /var/folders/0z/tsy30v1j4xl4_7kw94k978ww0000gn/T//ccZBZI6H.s 			page 43


 924              		.loc 2 130 5 is_stmt 1 view .LVU267
 130:Drivers/lvgl/src/widgets/../core/lv_obj_style_gen.h **** }
 925              		.loc 2 130 12 is_stmt 0 view .LVU268
 926 0050 06B2     		sxth	r6, r0
 927              	.LVL80:
 130:Drivers/lvgl/src/widgets/../core/lv_obj_style_gen.h **** }
 928              		.loc 2 130 12 view .LVU269
 929              	.LBE98:
 930              	.LBE97:
1027:Drivers/lvgl/src/widgets/lv_btnmatrix.c **** 
 931              		.loc 1 1027 5 is_stmt 1 view .LVU270
 932              	.LBB99:
 933              	.LBI99:
 133:Drivers/lvgl/src/widgets/../core/lv_obj_style_gen.h **** {
 934              		.loc 2 133 26 view .LVU271
 935              	.LBB100:
 135:Drivers/lvgl/src/widgets/../core/lv_obj_style_gen.h ****     return (lv_coord_t)v.num;
 936              		.loc 2 135 5 view .LVU272
 135:Drivers/lvgl/src/widgets/../core/lv_obj_style_gen.h ****     return (lv_coord_t)v.num;
 937              		.loc 2 135 26 is_stmt 0 view .LVU273
 938 0052 1522     		movs	r2, #21
 939 0054 0021     		movs	r1, #0
 940 0056 2046     		mov	r0, r4
 941 0058 FFF7FEFF 		bl	lv_obj_get_style_prop
 942              	.LVL81:
 943              		.loc 2 136 5 is_stmt 1 view .LVU274
 944              		.loc 2 136 12 is_stmt 0 view .LVU275
 945 005c 07B2     		sxth	r7, r0
 946              	.LVL82:
 947              		.loc 2 136 12 view .LVU276
 948              	.LBE100:
 949              	.LBE99:
1030:Drivers/lvgl/src/widgets/lv_btnmatrix.c ****     row_gap = LV_MAX(row_gap, dpi / 10);
 950              		.loc 1 1030 5 is_stmt 1 view .LVU277
1030:Drivers/lvgl/src/widgets/lv_btnmatrix.c ****     row_gap = LV_MAX(row_gap, dpi / 10);
 951              		.loc 1 1030 38 is_stmt 0 view .LVU278
 952 005e 2046     		mov	r0, r4
 953 0060 FFF7FEFF 		bl	lv_obj_get_disp
 954              	.LVL83:
1030:Drivers/lvgl/src/widgets/lv_btnmatrix.c ****     row_gap = LV_MAX(row_gap, dpi / 10);
 955              		.loc 1 1030 22 view .LVU279
 956 0064 FFF7FEFF 		bl	lv_disp_get_dpi
 957              	.LVL84:
1031:Drivers/lvgl/src/widgets/lv_btnmatrix.c ****     col_gap = LV_MAX(col_gap, dpi / 10);
 958              		.loc 1 1031 5 is_stmt 1 view .LVU280
1031:Drivers/lvgl/src/widgets/lv_btnmatrix.c ****     col_gap = LV_MAX(col_gap, dpi / 10);
 959              		.loc 1 1031 15 is_stmt 0 view .LVU281
 960 0068 234A     		ldr	r2, .L52
 961 006a 82FB0032 		smull	r3, r2, r2, r0
 962 006e C317     		asrs	r3, r0, #31
 963 0070 C3EBA203 		rsb	r3, r3, r2, asr #2
 964 0074 1BB2     		sxth	r3, r3
1031:Drivers/lvgl/src/widgets/lv_btnmatrix.c ****     col_gap = LV_MAX(col_gap, dpi / 10);
 965              		.loc 1 1031 13 view .LVU282
 966 0076 9E42     		cmp	r6, r3
 967 0078 B8BF     		it	lt
 968 007a 1E46     		movlt	r6, r3
ARM GAS  /var/folders/0z/tsy30v1j4xl4_7kw94k978ww0000gn/T//ccZBZI6H.s 			page 44


 969              	.LVL85:
1032:Drivers/lvgl/src/widgets/lv_btnmatrix.c **** 
 970              		.loc 1 1032 5 is_stmt 1 view .LVU283
1032:Drivers/lvgl/src/widgets/lv_btnmatrix.c **** 
 971              		.loc 1 1032 13 is_stmt 0 view .LVU284
 972 007c BB42     		cmp	r3, r7
 973 007e B8BF     		it	lt
 974 0080 3B46     		movlt	r3, r7
 975              	.LVL86:
1035:Drivers/lvgl/src/widgets/lv_btnmatrix.c ****     btn_area.y1 += obj_area.y1 - col_gap;
 976              		.loc 1 1035 5 is_stmt 1 view .LVU285
1035:Drivers/lvgl/src/widgets/lv_btnmatrix.c ****     btn_area.y1 += obj_area.y1 - col_gap;
 977              		.loc 1 1035 28 is_stmt 0 view .LVU286
 978 0082 BDF80010 		ldrh	r1, [sp]
1035:Drivers/lvgl/src/widgets/lv_btnmatrix.c ****     btn_area.y1 += obj_area.y1 - col_gap;
 979              		.loc 1 1035 32 view .LVU287
 980 0086 B6B2     		uxth	r6, r6
1035:Drivers/lvgl/src/widgets/lv_btnmatrix.c ****     btn_area.y1 += obj_area.y1 - col_gap;
 981              		.loc 1 1035 32 view .LVU288
 982 0088 8A1B     		subs	r2, r1, r6
1035:Drivers/lvgl/src/widgets/lv_btnmatrix.c ****     btn_area.y1 += obj_area.y1 - col_gap;
 983              		.loc 1 1035 17 view .LVU289
 984 008a BDF80800 		ldrh	r0, [sp, #8]
 985              	.LVL87:
1035:Drivers/lvgl/src/widgets/lv_btnmatrix.c ****     btn_area.y1 += obj_area.y1 - col_gap;
 986              		.loc 1 1035 17 view .LVU290
 987 008e 10FA82F2 		uxtah	r2, r0, r2
 988 0092 ADF80820 		strh	r2, [sp, #8]	@ movhi
1036:Drivers/lvgl/src/widgets/lv_btnmatrix.c ****     btn_area.x2 += obj_area.x1 + row_gap;
 989              		.loc 1 1036 5 is_stmt 1 view .LVU291
1036:Drivers/lvgl/src/widgets/lv_btnmatrix.c ****     btn_area.x2 += obj_area.x1 + row_gap;
 990              		.loc 1 1036 28 is_stmt 0 view .LVU292
 991 0096 BDF80220 		ldrh	r2, [sp, #2]
1036:Drivers/lvgl/src/widgets/lv_btnmatrix.c ****     btn_area.x2 += obj_area.x1 + row_gap;
 992              		.loc 1 1036 32 view .LVU293
 993 009a 9BB2     		uxth	r3, r3
1036:Drivers/lvgl/src/widgets/lv_btnmatrix.c ****     btn_area.x2 += obj_area.x1 + row_gap;
 994              		.loc 1 1036 32 view .LVU294
 995 009c D01A     		subs	r0, r2, r3
1036:Drivers/lvgl/src/widgets/lv_btnmatrix.c ****     btn_area.x2 += obj_area.x1 + row_gap;
 996              		.loc 1 1036 17 view .LVU295
 997 009e BDF80A70 		ldrh	r7, [sp, #10]
 998 00a2 17FA80F0 		uxtah	r0, r7, r0
 999 00a6 80B2     		uxth	r0, r0
 1000 00a8 ADF80A00 		strh	r0, [sp, #10]	@ movhi
1037:Drivers/lvgl/src/widgets/lv_btnmatrix.c ****     btn_area.y2 += obj_area.y1 + col_gap;
 1001              		.loc 1 1037 5 is_stmt 1 view .LVU296
1037:Drivers/lvgl/src/widgets/lv_btnmatrix.c ****     btn_area.y2 += obj_area.y1 + col_gap;
 1002              		.loc 1 1037 32 is_stmt 0 view .LVU297
 1003 00ac 3144     		add	r1, r1, r6
1037:Drivers/lvgl/src/widgets/lv_btnmatrix.c ****     btn_area.y2 += obj_area.y1 + col_gap;
 1004              		.loc 1 1037 17 view .LVU298
 1005 00ae BDF80C60 		ldrh	r6, [sp, #12]
 1006              	.LVL88:
1037:Drivers/lvgl/src/widgets/lv_btnmatrix.c ****     btn_area.y2 += obj_area.y1 + col_gap;
 1007              		.loc 1 1037 17 view .LVU299
 1008 00b2 16FA81F1 		uxtah	r1, r6, r1
ARM GAS  /var/folders/0z/tsy30v1j4xl4_7kw94k978ww0000gn/T//ccZBZI6H.s 			page 45


 1009 00b6 ADF80C10 		strh	r1, [sp, #12]	@ movhi
1038:Drivers/lvgl/src/widgets/lv_btnmatrix.c **** 
 1010              		.loc 1 1038 5 is_stmt 1 view .LVU300
1038:Drivers/lvgl/src/widgets/lv_btnmatrix.c **** 
 1011              		.loc 1 1038 32 is_stmt 0 view .LVU301
 1012 00ba 1A44     		add	r2, r2, r3
1038:Drivers/lvgl/src/widgets/lv_btnmatrix.c **** 
 1013              		.loc 1 1038 17 view .LVU302
 1014 00bc BDF80E30 		ldrh	r3, [sp, #14]
 1015              	.LVL89:
1038:Drivers/lvgl/src/widgets/lv_btnmatrix.c **** 
 1016              		.loc 1 1038 17 view .LVU303
 1017 00c0 13FA82F2 		uxtah	r2, r3, r2
 1018 00c4 92B2     		uxth	r2, r2
 1019 00c6 ADF80E20 		strh	r2, [sp, #14]	@ movhi
1040:Drivers/lvgl/src/widgets/lv_btnmatrix.c ****         /*Push up the upper boundary of the btn area to also invalidate the popover*/
 1020              		.loc 1 1040 5 is_stmt 1 view .LVU304
1040:Drivers/lvgl/src/widgets/lv_btnmatrix.c ****         /*Push up the upper boundary of the btn area to also invalidate the popover*/
 1021              		.loc 1 1040 24 is_stmt 0 view .LVU305
 1022 00ca A38E     		ldrh	r3, [r4, #52]
1040:Drivers/lvgl/src/widgets/lv_btnmatrix.c ****         /*Push up the upper boundary of the btn area to also invalidate the popover*/
 1023              		.loc 1 1040 7 view .LVU306
 1024 00cc AB42     		cmp	r3, r5
1040:Drivers/lvgl/src/widgets/lv_btnmatrix.c ****         /*Push up the upper boundary of the btn area to also invalidate the popover*/
 1025              		.loc 1 1040 7 view .LVU307
 1026 00ce 04D0     		beq	.L51
 1027              	.L44:
1045:Drivers/lvgl/src/widgets/lv_btnmatrix.c **** }
 1028              		.loc 1 1045 5 is_stmt 1 view .LVU308
 1029 00d0 02A9     		add	r1, sp, #8
 1030 00d2 2046     		mov	r0, r4
 1031 00d4 FFF7FEFF 		bl	lv_obj_invalidate_area
 1032              	.LVL90:
 1033 00d8 9DE7     		b	.L42
 1034              	.L51:
1040:Drivers/lvgl/src/widgets/lv_btnmatrix.c ****         /*Push up the upper boundary of the btn area to also invalidate the popover*/
 1035              		.loc 1 1040 46 is_stmt 0 discriminator 1 view .LVU309
 1036 00da E36A     		ldr	r3, [r4, #44]
1040:Drivers/lvgl/src/widgets/lv_btnmatrix.c ****         /*Push up the upper boundary of the btn area to also invalidate the popover*/
 1037              		.loc 1 1040 57 discriminator 1 view .LVU310
 1038 00dc 33F81530 		ldrh	r3, [r3, r5, lsl #1]
1040:Drivers/lvgl/src/widgets/lv_btnmatrix.c ****         /*Push up the upper boundary of the btn area to also invalidate the popover*/
 1039              		.loc 1 1040 38 discriminator 1 view .LVU311
 1040 00e0 13F4806F 		tst	r3, #1024
 1041 00e4 F4D0     		beq	.L44
1042:Drivers/lvgl/src/widgets/lv_btnmatrix.c ****     }
 1042              		.loc 1 1042 9 is_stmt 1 view .LVU312
 1043              	.LVL91:
 1044              	.LBB101:
 1045              	.LBI101:
 116:Drivers/lvgl/src/widgets/../core/../misc/../font/../misc/lv_area.h **** }
 117:Drivers/lvgl/src/widgets/../core/../misc/../font/../misc/lv_area.h **** 
 118:Drivers/lvgl/src/widgets/../core/../misc/../font/../misc/lv_area.h **** /**
 119:Drivers/lvgl/src/widgets/../core/../misc/../font/../misc/lv_area.h ****  * Get the width of an area
 120:Drivers/lvgl/src/widgets/../core/../misc/../font/../misc/lv_area.h ****  * @param area_p pointer to an area
 121:Drivers/lvgl/src/widgets/../core/../misc/../font/../misc/lv_area.h ****  * @return the width of the area (if x1 == x2 -> width = 1)
 122:Drivers/lvgl/src/widgets/../core/../misc/../font/../misc/lv_area.h ****  */
ARM GAS  /var/folders/0z/tsy30v1j4xl4_7kw94k978ww0000gn/T//ccZBZI6H.s 			page 46


 123:Drivers/lvgl/src/widgets/../core/../misc/../font/../misc/lv_area.h **** static inline lv_coord_t lv_area_get_width(const lv_area_t * area_p)
 124:Drivers/lvgl/src/widgets/../core/../misc/../font/../misc/lv_area.h **** {
 125:Drivers/lvgl/src/widgets/../core/../misc/../font/../misc/lv_area.h ****     return (lv_coord_t)(area_p->x2 - area_p->x1 + 1);
 126:Drivers/lvgl/src/widgets/../core/../misc/../font/../misc/lv_area.h **** }
 127:Drivers/lvgl/src/widgets/../core/../misc/../font/../misc/lv_area.h **** 
 128:Drivers/lvgl/src/widgets/../core/../misc/../font/../misc/lv_area.h **** /**
 129:Drivers/lvgl/src/widgets/../core/../misc/../font/../misc/lv_area.h ****  * Get the height of an area
 130:Drivers/lvgl/src/widgets/../core/../misc/../font/../misc/lv_area.h ****  * @param area_p pointer to an area
 131:Drivers/lvgl/src/widgets/../core/../misc/../font/../misc/lv_area.h ****  * @return the height of the area (if y1 == y2 -> height = 1)
 132:Drivers/lvgl/src/widgets/../core/../misc/../font/../misc/lv_area.h ****  */
 133:Drivers/lvgl/src/widgets/../core/../misc/../font/../misc/lv_area.h **** static inline lv_coord_t lv_area_get_height(const lv_area_t * area_p)
 1046              		.loc 3 133 26 view .LVU313
 1047              	.LBB102:
 134:Drivers/lvgl/src/widgets/../core/../misc/../font/../misc/lv_area.h **** {
 135:Drivers/lvgl/src/widgets/../core/../misc/../font/../misc/lv_area.h ****     return (lv_coord_t)(area_p->y2 - area_p->y1 + 1);
 1048              		.loc 3 135 5 view .LVU314
 1049              		.loc 3 135 36 is_stmt 0 view .LVU315
 1050 00e6 131A     		subs	r3, r2, r0
 1051 00e8 9BB2     		uxth	r3, r3
 1052              		.loc 3 135 49 view .LVU316
 1053 00ea 0133     		adds	r3, r3, #1
 1054 00ec 9BB2     		uxth	r3, r3
 1055              	.LVL92:
 1056              		.loc 3 135 49 view .LVU317
 1057              	.LBE102:
 1058              	.LBE101:
1042:Drivers/lvgl/src/widgets/lv_btnmatrix.c ****     }
 1059              		.loc 1 1042 21 view .LVU318
 1060 00ee C01A     		subs	r0, r0, r3
 1061 00f0 ADF80A00 		strh	r0, [sp, #10]	@ movhi
 1062 00f4 ECE7     		b	.L44
 1063              	.LVL93:
 1064              	.L47:
 1065              		.cfi_def_cfa_offset 0
 1066              		.cfi_restore 4
 1067              		.cfi_restore 5
 1068              		.cfi_restore 6
 1069              		.cfi_restore 7
 1070              		.cfi_restore 14
1042:Drivers/lvgl/src/widgets/lv_btnmatrix.c ****     }
 1071              		.loc 1 1042 21 view .LVU319
 1072 00f6 7047     		bx	lr
 1073              	.L53:
 1074              		.align	2
 1075              	.L52:
 1076 00f8 67666666 		.word	1717986919
 1077              		.cfi_endproc
 1078              	.LFE192:
 1080              		.section	.text.draw_main,"ax",%progbits
 1081              		.align	1
 1082              		.syntax unified
 1083              		.thumb
 1084              		.thumb_func
 1086              	draw_main:
 1087              	.LVL94:
 1088              	.LFB179:
 689:Drivers/lvgl/src/widgets/lv_btnmatrix.c ****     lv_obj_t * obj = lv_event_get_target(e);
ARM GAS  /var/folders/0z/tsy30v1j4xl4_7kw94k978ww0000gn/T//ccZBZI6H.s 			page 47


 1089              		.loc 1 689 1 is_stmt 1 view -0
 1090              		.cfi_startproc
 1091              		@ args = 0, pretend = 0, frame = 296
 1092              		@ frame_needed = 0, uses_anonymous_args = 0
 689:Drivers/lvgl/src/widgets/lv_btnmatrix.c ****     lv_obj_t * obj = lv_event_get_target(e);
 1093              		.loc 1 689 1 is_stmt 0 view .LVU321
 1094 0000 2DE9F04F 		push	{r4, r5, r6, r7, r8, r9, r10, fp, lr}
 1095              		.cfi_def_cfa_offset 36
 1096              		.cfi_offset 4, -36
 1097              		.cfi_offset 5, -32
 1098              		.cfi_offset 6, -28
 1099              		.cfi_offset 7, -24
 1100              		.cfi_offset 8, -20
 1101              		.cfi_offset 9, -16
 1102              		.cfi_offset 10, -12
 1103              		.cfi_offset 11, -8
 1104              		.cfi_offset 14, -4
 1105 0004 CFB0     		sub	sp, sp, #316
 1106              		.cfi_def_cfa_offset 352
 1107 0006 0446     		mov	r4, r0
 690:Drivers/lvgl/src/widgets/lv_btnmatrix.c ****     lv_btnmatrix_t * btnm = (lv_btnmatrix_t *)obj;
 1108              		.loc 1 690 5 is_stmt 1 view .LVU322
 690:Drivers/lvgl/src/widgets/lv_btnmatrix.c ****     lv_btnmatrix_t * btnm = (lv_btnmatrix_t *)obj;
 1109              		.loc 1 690 22 is_stmt 0 view .LVU323
 1110 0008 FFF7FEFF 		bl	lv_event_get_target
 1111              	.LVL95:
 691:Drivers/lvgl/src/widgets/lv_btnmatrix.c ****     if(btnm->btn_cnt == 0) return;
 1112              		.loc 1 691 5 is_stmt 1 view .LVU324
 692:Drivers/lvgl/src/widgets/lv_btnmatrix.c **** 
 1113              		.loc 1 692 5 view .LVU325
 692:Drivers/lvgl/src/widgets/lv_btnmatrix.c **** 
 1114              		.loc 1 692 12 is_stmt 0 view .LVU326
 1115 000c 038E     		ldrh	r3, [r0, #48]
 692:Drivers/lvgl/src/widgets/lv_btnmatrix.c **** 
 1116              		.loc 1 692 7 view .LVU327
 1117 000e 13B9     		cbnz	r3, .L81
 1118              	.LVL96:
 1119              	.L54:
 851:Drivers/lvgl/src/widgets/lv_btnmatrix.c **** /**
 1120              		.loc 1 851 1 view .LVU328
 1121 0010 4FB0     		add	sp, sp, #316
 1122              		.cfi_remember_state
 1123              		.cfi_def_cfa_offset 36
 1124              		@ sp needed
 1125 0012 BDE8F08F 		pop	{r4, r5, r6, r7, r8, r9, r10, fp, pc}
 1126              	.LVL97:
 1127              	.L81:
 1128              		.cfi_restore_state
 851:Drivers/lvgl/src/widgets/lv_btnmatrix.c **** /**
 1129              		.loc 1 851 1 view .LVU329
 1130 0016 0546     		mov	r5, r0
 694:Drivers/lvgl/src/widgets/lv_btnmatrix.c ****     obj->skip_trans = 1;
 1131              		.loc 1 694 5 is_stmt 1 view .LVU330
 694:Drivers/lvgl/src/widgets/lv_btnmatrix.c ****     obj->skip_trans = 1;
 1132              		.loc 1 694 32 is_stmt 0 view .LVU331
 1133 0018 2046     		mov	r0, r4
 1134              	.LVL98:
ARM GAS  /var/folders/0z/tsy30v1j4xl4_7kw94k978ww0000gn/T//ccZBZI6H.s 			page 48


 694:Drivers/lvgl/src/widgets/lv_btnmatrix.c ****     obj->skip_trans = 1;
 1135              		.loc 1 694 32 view .LVU332
 1136 001a FFF7FEFF 		bl	lv_event_get_draw_ctx
 1137              	.LVL99:
 1138 001e 0646     		mov	r6, r0
 1139 0020 0490     		str	r0, [sp, #16]
 1140              	.LVL100:
 695:Drivers/lvgl/src/widgets/lv_btnmatrix.c **** 
 1141              		.loc 1 695 5 is_stmt 1 view .LVU333
 695:Drivers/lvgl/src/widgets/lv_btnmatrix.c **** 
 1142              		.loc 1 695 21 is_stmt 0 view .LVU334
 1143 0022 95F82230 		ldrb	r3, [r5, #34]	@ zero_extendqisi2
 1144 0026 43F00803 		orr	r3, r3, #8
 1145 002a 85F82230 		strb	r3, [r5, #34]
 697:Drivers/lvgl/src/widgets/lv_btnmatrix.c ****     lv_obj_get_coords(obj, &area_obj);
 1146              		.loc 1 697 5 is_stmt 1 view .LVU335
 698:Drivers/lvgl/src/widgets/lv_btnmatrix.c **** 
 1147              		.loc 1 698 5 view .LVU336
 1148 002e 4CA9     		add	r1, sp, #304
 1149 0030 2846     		mov	r0, r5
 1150              	.LVL101:
 698:Drivers/lvgl/src/widgets/lv_btnmatrix.c **** 
 1151              		.loc 1 698 5 is_stmt 0 view .LVU337
 1152 0032 FFF7FEFF 		bl	lv_obj_get_coords
 1153              	.LVL102:
 700:Drivers/lvgl/src/widgets/lv_btnmatrix.c **** 
 1154              		.loc 1 700 5 is_stmt 1 view .LVU338
 702:Drivers/lvgl/src/widgets/lv_btnmatrix.c ****     uint16_t txt_i = 0;
 1155              		.loc 1 702 5 view .LVU339
 703:Drivers/lvgl/src/widgets/lv_btnmatrix.c **** 
 1156              		.loc 1 703 5 view .LVU340
 705:Drivers/lvgl/src/widgets/lv_btnmatrix.c ****     lv_draw_label_dsc_t draw_label_dsc_act;
 1157              		.loc 1 705 5 view .LVU341
 706:Drivers/lvgl/src/widgets/lv_btnmatrix.c **** 
 1158              		.loc 1 706 5 view .LVU342
 708:Drivers/lvgl/src/widgets/lv_btnmatrix.c ****     lv_draw_label_dsc_t draw_label_dsc_def;
 1159              		.loc 1 708 5 view .LVU343
 709:Drivers/lvgl/src/widgets/lv_btnmatrix.c **** 
 1160              		.loc 1 709 5 view .LVU344
 711:Drivers/lvgl/src/widgets/lv_btnmatrix.c ****     obj->state = LV_STATE_DEFAULT;
 1161              		.loc 1 711 5 view .LVU345
 711:Drivers/lvgl/src/widgets/lv_btnmatrix.c ****     obj->state = LV_STATE_DEFAULT;
 1162              		.loc 1 711 16 is_stmt 0 view .LVU346
 1163 0036 2C8C     		ldrh	r4, [r5, #32]
 1164              	.LVL103:
 711:Drivers/lvgl/src/widgets/lv_btnmatrix.c ****     obj->state = LV_STATE_DEFAULT;
 1165              		.loc 1 711 16 view .LVU347
 1166 0038 0594     		str	r4, [sp, #20]
 1167              	.LVL104:
 712:Drivers/lvgl/src/widgets/lv_btnmatrix.c ****     obj->skip_trans = 1;
 1168              		.loc 1 712 5 is_stmt 1 view .LVU348
 712:Drivers/lvgl/src/widgets/lv_btnmatrix.c ****     obj->skip_trans = 1;
 1169              		.loc 1 712 16 is_stmt 0 view .LVU349
 1170 003a 0027     		movs	r7, #0
 1171 003c 2F84     		strh	r7, [r5, #32]	@ movhi
 713:Drivers/lvgl/src/widgets/lv_btnmatrix.c ****     lv_draw_rect_dsc_init(&draw_rect_dsc_def);
 1172              		.loc 1 713 5 is_stmt 1 view .LVU350
ARM GAS  /var/folders/0z/tsy30v1j4xl4_7kw94k978ww0000gn/T//ccZBZI6H.s 			page 49


 713:Drivers/lvgl/src/widgets/lv_btnmatrix.c ****     lv_draw_rect_dsc_init(&draw_rect_dsc_def);
 1173              		.loc 1 713 21 is_stmt 0 view .LVU351
 1174 003e 95F82230 		ldrb	r3, [r5, #34]	@ zero_extendqisi2
 1175 0042 43F00803 		orr	r3, r3, #8
 1176 0046 85F82230 		strb	r3, [r5, #34]
 714:Drivers/lvgl/src/widgets/lv_btnmatrix.c ****     lv_draw_label_dsc_init(&draw_label_dsc_def);
 1177              		.loc 1 714 5 is_stmt 1 view .LVU352
 1178 004a 26A8     		add	r0, sp, #152
 1179 004c FFF7FEFF 		bl	lv_draw_rect_dsc_init
 1180              	.LVL105:
 715:Drivers/lvgl/src/widgets/lv_btnmatrix.c ****     lv_obj_init_draw_rect_dsc(obj, LV_PART_ITEMS, &draw_rect_dsc_def);
 1181              		.loc 1 715 5 view .LVU353
 1182 0050 1EA8     		add	r0, sp, #120
 1183 0052 FFF7FEFF 		bl	lv_draw_label_dsc_init
 1184              	.LVL106:
 716:Drivers/lvgl/src/widgets/lv_btnmatrix.c ****     lv_obj_init_draw_label_dsc(obj, LV_PART_ITEMS, &draw_label_dsc_def);
 1185              		.loc 1 716 5 view .LVU354
 1186 0056 26AA     		add	r2, sp, #152
 1187 0058 4FF4A021 		mov	r1, #327680
 1188 005c 2846     		mov	r0, r5
 1189 005e FFF7FEFF 		bl	lv_obj_init_draw_rect_dsc
 1190              	.LVL107:
 717:Drivers/lvgl/src/widgets/lv_btnmatrix.c ****     obj->skip_trans = 0;
 1191              		.loc 1 717 5 view .LVU355
 1192 0062 1EAA     		add	r2, sp, #120
 1193 0064 4FF4A021 		mov	r1, #327680
 1194 0068 2846     		mov	r0, r5
 1195 006a FFF7FEFF 		bl	lv_obj_init_draw_label_dsc
 1196              	.LVL108:
 718:Drivers/lvgl/src/widgets/lv_btnmatrix.c ****     obj->state = state_ori;
 1197              		.loc 1 718 5 view .LVU356
 718:Drivers/lvgl/src/widgets/lv_btnmatrix.c ****     obj->state = state_ori;
 1198              		.loc 1 718 21 is_stmt 0 view .LVU357
 1199 006e 95F82230 		ldrb	r3, [r5, #34]	@ zero_extendqisi2
 1200 0072 67F3C303 		bfi	r3, r7, #3, #1
 1201 0076 85F82230 		strb	r3, [r5, #34]
 719:Drivers/lvgl/src/widgets/lv_btnmatrix.c **** 
 1202              		.loc 1 719 5 is_stmt 1 view .LVU358
 719:Drivers/lvgl/src/widgets/lv_btnmatrix.c **** 
 1203              		.loc 1 719 16 is_stmt 0 view .LVU359
 1204 007a 2C84     		strh	r4, [r5, #32]	@ movhi
 721:Drivers/lvgl/src/widgets/lv_btnmatrix.c ****     lv_coord_t pbottom = lv_obj_get_style_pad_bottom(obj, LV_PART_MAIN);
 1205              		.loc 1 721 5 is_stmt 1 view .LVU360
 1206              	.LVL109:
 1207              	.LBB103:
 1208              	.LBI103:
 103:Drivers/lvgl/src/widgets/../core/lv_obj_style_gen.h **** {
 1209              		.loc 2 103 26 view .LVU361
 1210              	.LBB104:
 105:Drivers/lvgl/src/widgets/../core/lv_obj_style_gen.h ****     return (lv_coord_t)v.num;
 1211              		.loc 2 105 5 view .LVU362
 105:Drivers/lvgl/src/widgets/../core/lv_obj_style_gen.h ****     return (lv_coord_t)v.num;
 1212              		.loc 2 105 26 is_stmt 0 view .LVU363
 1213 007c 1022     		movs	r2, #16
 1214 007e 3946     		mov	r1, r7
 1215 0080 2846     		mov	r0, r5
 1216 0082 FFF7FEFF 		bl	lv_obj_get_style_prop
ARM GAS  /var/folders/0z/tsy30v1j4xl4_7kw94k978ww0000gn/T//ccZBZI6H.s 			page 50


 1217              	.LVL110:
 106:Drivers/lvgl/src/widgets/../core/lv_obj_style_gen.h **** }
 1218              		.loc 2 106 5 is_stmt 1 view .LVU364
 106:Drivers/lvgl/src/widgets/../core/lv_obj_style_gen.h **** }
 1219              		.loc 2 106 12 is_stmt 0 view .LVU365
 1220 0086 03B2     		sxth	r3, r0
 1221 0088 0693     		str	r3, [sp, #24]
 1222              	.LVL111:
 106:Drivers/lvgl/src/widgets/../core/lv_obj_style_gen.h **** }
 1223              		.loc 2 106 12 view .LVU366
 1224              	.LBE104:
 1225              	.LBE103:
 722:Drivers/lvgl/src/widgets/lv_btnmatrix.c ****     lv_coord_t pleft = lv_obj_get_style_pad_left(obj, LV_PART_MAIN);
 1226              		.loc 1 722 5 is_stmt 1 view .LVU367
 1227              	.LBB105:
 1228              	.LBI105:
 109:Drivers/lvgl/src/widgets/../core/lv_obj_style_gen.h **** {
 1229              		.loc 2 109 26 view .LVU368
 1230              	.LBB106:
 111:Drivers/lvgl/src/widgets/../core/lv_obj_style_gen.h ****     return (lv_coord_t)v.num;
 1231              		.loc 2 111 5 view .LVU369
 111:Drivers/lvgl/src/widgets/../core/lv_obj_style_gen.h ****     return (lv_coord_t)v.num;
 1232              		.loc 2 111 26 is_stmt 0 view .LVU370
 1233 008a 1122     		movs	r2, #17
 1234 008c 3946     		mov	r1, r7
 1235 008e 2846     		mov	r0, r5
 1236 0090 FFF7FEFF 		bl	lv_obj_get_style_prop
 1237              	.LVL112:
 112:Drivers/lvgl/src/widgets/../core/lv_obj_style_gen.h **** }
 1238              		.loc 2 112 5 is_stmt 1 view .LVU371
 112:Drivers/lvgl/src/widgets/../core/lv_obj_style_gen.h **** }
 1239              		.loc 2 112 12 is_stmt 0 view .LVU372
 1240 0094 03B2     		sxth	r3, r0
 1241 0096 0793     		str	r3, [sp, #28]
 1242              	.LVL113:
 112:Drivers/lvgl/src/widgets/../core/lv_obj_style_gen.h **** }
 1243              		.loc 2 112 12 view .LVU373
 1244              	.LBE106:
 1245              	.LBE105:
 723:Drivers/lvgl/src/widgets/lv_btnmatrix.c ****     lv_coord_t pright = lv_obj_get_style_pad_right(obj, LV_PART_MAIN);
 1246              		.loc 1 723 5 is_stmt 1 view .LVU374
 1247              	.LBB107:
 1248              	.LBI107:
 115:Drivers/lvgl/src/widgets/../core/lv_obj_style_gen.h **** {
 1249              		.loc 2 115 26 view .LVU375
 1250              	.LBB108:
 117:Drivers/lvgl/src/widgets/../core/lv_obj_style_gen.h ****     return (lv_coord_t)v.num;
 1251              		.loc 2 117 5 view .LVU376
 117:Drivers/lvgl/src/widgets/../core/lv_obj_style_gen.h ****     return (lv_coord_t)v.num;
 1252              		.loc 2 117 26 is_stmt 0 view .LVU377
 1253 0098 1222     		movs	r2, #18
 1254 009a 3946     		mov	r1, r7
 1255 009c 2846     		mov	r0, r5
 1256 009e FFF7FEFF 		bl	lv_obj_get_style_prop
 1257              	.LVL114:
 118:Drivers/lvgl/src/widgets/../core/lv_obj_style_gen.h **** }
 1258              		.loc 2 118 5 is_stmt 1 view .LVU378
ARM GAS  /var/folders/0z/tsy30v1j4xl4_7kw94k978ww0000gn/T//ccZBZI6H.s 			page 51


 118:Drivers/lvgl/src/widgets/../core/lv_obj_style_gen.h **** }
 1259              		.loc 2 118 12 is_stmt 0 view .LVU379
 1260 00a2 03B2     		sxth	r3, r0
 1261 00a4 0893     		str	r3, [sp, #32]
 1262              	.LVL115:
 118:Drivers/lvgl/src/widgets/../core/lv_obj_style_gen.h **** }
 1263              		.loc 2 118 12 view .LVU380
 1264              	.LBE108:
 1265              	.LBE107:
 724:Drivers/lvgl/src/widgets/lv_btnmatrix.c **** 
 1266              		.loc 1 724 5 is_stmt 1 view .LVU381
 1267              	.LBB109:
 1268              	.LBI109:
 121:Drivers/lvgl/src/widgets/../core/lv_obj_style_gen.h **** {
 1269              		.loc 2 121 26 view .LVU382
 1270              	.LBB110:
 123:Drivers/lvgl/src/widgets/../core/lv_obj_style_gen.h ****     return (lv_coord_t)v.num;
 1271              		.loc 2 123 5 view .LVU383
 123:Drivers/lvgl/src/widgets/../core/lv_obj_style_gen.h ****     return (lv_coord_t)v.num;
 1272              		.loc 2 123 26 is_stmt 0 view .LVU384
 1273 00a6 1322     		movs	r2, #19
 1274 00a8 3946     		mov	r1, r7
 1275 00aa 2846     		mov	r0, r5
 1276 00ac FFF7FEFF 		bl	lv_obj_get_style_prop
 1277              	.LVL116:
 124:Drivers/lvgl/src/widgets/../core/lv_obj_style_gen.h **** }
 1278              		.loc 2 124 5 is_stmt 1 view .LVU385
 124:Drivers/lvgl/src/widgets/../core/lv_obj_style_gen.h **** }
 1279              		.loc 2 124 12 is_stmt 0 view .LVU386
 1280 00b0 03B2     		sxth	r3, r0
 1281 00b2 0993     		str	r3, [sp, #36]
 1282              	.LVL117:
 124:Drivers/lvgl/src/widgets/../core/lv_obj_style_gen.h **** }
 1283              		.loc 2 124 12 view .LVU387
 1284              	.LBE110:
 1285              	.LBE109:
 731:Drivers/lvgl/src/widgets/lv_btnmatrix.c ****     lv_obj_draw_dsc_init(&part_draw_dsc, draw_ctx);
 1286              		.loc 1 731 5 is_stmt 1 view .LVU388
 732:Drivers/lvgl/src/widgets/lv_btnmatrix.c ****     part_draw_dsc.part = LV_PART_ITEMS;
 1287              		.loc 1 732 5 view .LVU389
 1288 00b4 3146     		mov	r1, r6
 1289 00b6 0CA8     		add	r0, sp, #48
 1290 00b8 FFF7FEFF 		bl	lv_obj_draw_dsc_init
 1291              	.LVL118:
 733:Drivers/lvgl/src/widgets/lv_btnmatrix.c ****     part_draw_dsc.class_p = MY_CLASS;
 1292              		.loc 1 733 5 view .LVU390
 733:Drivers/lvgl/src/widgets/lv_btnmatrix.c ****     part_draw_dsc.class_p = MY_CLASS;
 1293              		.loc 1 733 24 is_stmt 0 view .LVU391
 1294 00bc 4FF4A023 		mov	r3, #327680
 1295 00c0 1993     		str	r3, [sp, #100]
 734:Drivers/lvgl/src/widgets/lv_btnmatrix.c ****     part_draw_dsc.type = LV_BTNMATRIX_DRAW_PART_BTN;
 1296              		.loc 1 734 5 is_stmt 1 view .LVU392
 734:Drivers/lvgl/src/widgets/lv_btnmatrix.c ****     part_draw_dsc.type = LV_BTNMATRIX_DRAW_PART_BTN;
 1297              		.loc 1 734 27 is_stmt 0 view .LVU393
 1298 00c2 C84B     		ldr	r3, .L86
 1299 00c4 0D93     		str	r3, [sp, #52]
 735:Drivers/lvgl/src/widgets/lv_btnmatrix.c ****     part_draw_dsc.rect_dsc = &draw_rect_dsc_act;
ARM GAS  /var/folders/0z/tsy30v1j4xl4_7kw94k978ww0000gn/T//ccZBZI6H.s 			page 52


 1300              		.loc 1 735 5 is_stmt 1 view .LVU394
 735:Drivers/lvgl/src/widgets/lv_btnmatrix.c ****     part_draw_dsc.rect_dsc = &draw_rect_dsc_act;
 1301              		.loc 1 735 24 is_stmt 0 view .LVU395
 1302 00c6 0E97     		str	r7, [sp, #56]
 736:Drivers/lvgl/src/widgets/lv_btnmatrix.c ****     part_draw_dsc.label_dsc = &draw_label_dsc_act;
 1303              		.loc 1 736 5 is_stmt 1 view .LVU396
 736:Drivers/lvgl/src/widgets/lv_btnmatrix.c ****     part_draw_dsc.label_dsc = &draw_label_dsc_act;
 1304              		.loc 1 736 28 is_stmt 0 view .LVU397
 1305 00c8 3CAB     		add	r3, sp, #240
 1306 00ca 1093     		str	r3, [sp, #64]
 737:Drivers/lvgl/src/widgets/lv_btnmatrix.c **** 
 1307              		.loc 1 737 5 is_stmt 1 view .LVU398
 737:Drivers/lvgl/src/widgets/lv_btnmatrix.c **** 
 1308              		.loc 1 737 29 is_stmt 0 view .LVU399
 1309 00cc 34AB     		add	r3, sp, #208
 1310 00ce 1193     		str	r3, [sp, #68]
 739:Drivers/lvgl/src/widgets/lv_btnmatrix.c ****         /*Search the next valid text in the map*/
 1311              		.loc 1 739 5 is_stmt 1 view .LVU400
 703:Drivers/lvgl/src/widgets/lv_btnmatrix.c **** 
 1312              		.loc 1 703 14 is_stmt 0 view .LVU401
 1313 00d0 3C46     		mov	r4, r7
 1314              	.LVL119:
 739:Drivers/lvgl/src/widgets/lv_btnmatrix.c ****         /*Search the next valid text in the map*/
 1315              		.loc 1 739 5 view .LVU402
 1316 00d2 29E1     		b	.L57
 1317              	.LVL120:
 1318              	.L58:
 1319              	.LBB111:
 742:Drivers/lvgl/src/widgets/lv_btnmatrix.c ****         }
 1320              		.loc 1 742 13 is_stmt 1 view .LVU403
 742:Drivers/lvgl/src/widgets/lv_btnmatrix.c ****         }
 1321              		.loc 1 742 18 is_stmt 0 view .LVU404
 1322 00d4 0134     		adds	r4, r4, #1
 1323              	.LVL121:
 742:Drivers/lvgl/src/widgets/lv_btnmatrix.c ****         }
 1324              		.loc 1 742 18 view .LVU405
 1325 00d6 A4B2     		uxth	r4, r4
 1326              	.LVL122:
 1327              	.L77:
 741:Drivers/lvgl/src/widgets/lv_btnmatrix.c ****             txt_i++;
 1328              		.loc 1 741 48 is_stmt 1 view .LVU406
 741:Drivers/lvgl/src/widgets/lv_btnmatrix.c ****             txt_i++;
 1329              		.loc 1 741 26 is_stmt 0 view .LVU407
 1330 00d8 6B6A     		ldr	r3, [r5, #36]
 741:Drivers/lvgl/src/widgets/lv_btnmatrix.c ****             txt_i++;
 1331              		.loc 1 741 33 view .LVU408
 1332 00da A600     		lsls	r6, r4, #2
 741:Drivers/lvgl/src/widgets/lv_btnmatrix.c ****             txt_i++;
 1333              		.loc 1 741 15 view .LVU409
 1334 00dc C249     		ldr	r1, .L86+4
 1335 00de 53F82400 		ldr	r0, [r3, r4, lsl #2]
 1336 00e2 FFF7FEFF 		bl	strcmp
 1337              	.LVL123:
 741:Drivers/lvgl/src/widgets/lv_btnmatrix.c ****             txt_i++;
 1338              		.loc 1 741 48 view .LVU410
 1339 00e6 0028     		cmp	r0, #0
 1340 00e8 F4D0     		beq	.L58
ARM GAS  /var/folders/0z/tsy30v1j4xl4_7kw94k978ww0000gn/T//ccZBZI6H.s 			page 53


 746:Drivers/lvgl/src/widgets/lv_btnmatrix.c **** 
 1341              		.loc 1 746 9 is_stmt 1 view .LVU411
 746:Drivers/lvgl/src/widgets/lv_btnmatrix.c **** 
 1342              		.loc 1 746 33 is_stmt 0 view .LVU412
 1343 00ea EB6A     		ldr	r3, [r5, #44]
 746:Drivers/lvgl/src/widgets/lv_btnmatrix.c **** 
 1344              		.loc 1 746 44 view .LVU413
 1345 00ec BA46     		mov	r10, r7
 1346 00ee 4FEA470B 		lsl	fp, r7, #1
 746:Drivers/lvgl/src/widgets/lv_btnmatrix.c **** 
 1347              		.loc 1 746 12 view .LVU414
 1348 00f2 33F81790 		ldrh	r9, [r3, r7, lsl #1]
 1349 00f6 4846     		mov	r0, r9
 1350 00f8 FFF7FEFF 		bl	button_is_hidden
 1351              	.LVL124:
 746:Drivers/lvgl/src/widgets/lv_btnmatrix.c **** 
 1352              		.loc 1 746 11 view .LVU415
 1353 00fc 0028     		cmp	r0, #0
 1354 00fe 40F00F81 		bne	.L60
 749:Drivers/lvgl/src/widgets/lv_btnmatrix.c ****         if(button_get_checked(btnm->ctrl_bits[btn_i])) btn_state |= LV_STATE_CHECKED;
 1355              		.loc 1 749 9 is_stmt 1 view .LVU416
 1356              	.LVL125:
 750:Drivers/lvgl/src/widgets/lv_btnmatrix.c **** 
 1357              		.loc 1 750 9 view .LVU417
 750:Drivers/lvgl/src/widgets/lv_btnmatrix.c **** 
 1358              		.loc 1 750 12 is_stmt 0 view .LVU418
 1359 0102 4846     		mov	r0, r9
 1360 0104 FFF7FEFF 		bl	button_get_checked
 1361              	.LVL126:
 750:Drivers/lvgl/src/widgets/lv_btnmatrix.c **** 
 1362              		.loc 1 750 11 view .LVU419
 1363 0108 0028     		cmp	r0, #0
 1364 010a 40F01881 		bne	.L78
 749:Drivers/lvgl/src/widgets/lv_btnmatrix.c ****         if(button_get_checked(btnm->ctrl_bits[btn_i])) btn_state |= LV_STATE_CHECKED;
 1365              		.loc 1 749 20 view .LVU420
 1366 010e 4FF00008 		mov	r8, #0
 1367              	.L61:
 1368              	.LVL127:
 752:Drivers/lvgl/src/widgets/lv_btnmatrix.c ****         else if(btn_i == btnm->btn_id_sel) {
 1369              		.loc 1 752 9 is_stmt 1 view .LVU421
 752:Drivers/lvgl/src/widgets/lv_btnmatrix.c ****         else if(btn_i == btnm->btn_id_sel) {
 1370              		.loc 1 752 12 is_stmt 0 view .LVU422
 1371 0112 4846     		mov	r0, r9
 1372 0114 FFF7FEFF 		bl	button_is_inactive
 1373              	.LVL128:
 752:Drivers/lvgl/src/widgets/lv_btnmatrix.c ****         else if(btn_i == btnm->btn_id_sel) {
 1374              		.loc 1 752 11 view .LVU423
 1375 0118 0028     		cmp	r0, #0
 1376 011a 00F01381 		beq	.L62
 752:Drivers/lvgl/src/widgets/lv_btnmatrix.c ****         else if(btn_i == btnm->btn_id_sel) {
 1377              		.loc 1 752 56 is_stmt 1 discriminator 1 view .LVU424
 752:Drivers/lvgl/src/widgets/lv_btnmatrix.c ****         else if(btn_i == btnm->btn_id_sel) {
 1378              		.loc 1 752 66 is_stmt 0 discriminator 1 view .LVU425
 1379 011e 48F08008 		orr	r8, r8, #128
 1380              	.LVL129:
 1381              	.L63:
 761:Drivers/lvgl/src/widgets/lv_btnmatrix.c ****         btn_area.x1 += area_obj.x1;
ARM GAS  /var/folders/0z/tsy30v1j4xl4_7kw94k978ww0000gn/T//ccZBZI6H.s 			page 54


 1382              		.loc 1 761 9 is_stmt 1 view .LVU426
 761:Drivers/lvgl/src/widgets/lv_btnmatrix.c ****         btn_area.x1 += area_obj.x1;
 1383              		.loc 1 761 38 is_stmt 0 view .LVU427
 1384 0122 AB6A     		ldr	r3, [r5, #40]
 761:Drivers/lvgl/src/widgets/lv_btnmatrix.c ****         btn_area.x1 += area_obj.x1;
 1385              		.loc 1 761 33 view .LVU428
 1386 0124 03EBCA02 		add	r2, r3, r10, lsl #3
 1387              	.LVL130:
 1388              	.LBB112:
 1389              	.LBI112:
 110:Drivers/lvgl/src/widgets/../core/../misc/../font/../misc/lv_area.h **** {
 1390              		.loc 3 110 20 is_stmt 1 view .LVU429
 1391              	.LBB113:
 112:Drivers/lvgl/src/widgets/../core/../misc/../font/../misc/lv_area.h ****     dest->y1 = src->y1;
 1392              		.loc 3 112 5 view .LVU430
 112:Drivers/lvgl/src/widgets/../core/../misc/../font/../misc/lv_area.h ****     dest->y1 = src->y1;
 1393              		.loc 3 112 19 is_stmt 0 view .LVU431
 1394 0128 33F93A30 		ldrsh	r3, [r3, r10, lsl #3]
 112:Drivers/lvgl/src/widgets/../core/../misc/../font/../misc/lv_area.h ****     dest->y1 = src->y1;
 1395              		.loc 3 112 14 view .LVU432
 1396 012c ADF82831 		strh	r3, [sp, #296]	@ movhi
 113:Drivers/lvgl/src/widgets/../core/../misc/../font/../misc/lv_area.h ****     dest->x2 = src->x2;
 1397              		.loc 3 113 5 is_stmt 1 view .LVU433
 113:Drivers/lvgl/src/widgets/../core/../misc/../font/../misc/lv_area.h ****     dest->x2 = src->x2;
 1398              		.loc 3 113 19 is_stmt 0 view .LVU434
 1399 0130 B2F90210 		ldrsh	r1, [r2, #2]
 113:Drivers/lvgl/src/widgets/../core/../misc/../font/../misc/lv_area.h ****     dest->x2 = src->x2;
 1400              		.loc 3 113 14 view .LVU435
 1401 0134 ADF82A11 		strh	r1, [sp, #298]	@ movhi
 114:Drivers/lvgl/src/widgets/../core/../misc/../font/../misc/lv_area.h ****     dest->y2 = src->y2;
 1402              		.loc 3 114 5 is_stmt 1 view .LVU436
 114:Drivers/lvgl/src/widgets/../core/../misc/../font/../misc/lv_area.h ****     dest->y2 = src->y2;
 1403              		.loc 3 114 19 is_stmt 0 view .LVU437
 1404 0138 B2F904C0 		ldrsh	ip, [r2, #4]
 114:Drivers/lvgl/src/widgets/../core/../misc/../font/../misc/lv_area.h ****     dest->y2 = src->y2;
 1405              		.loc 3 114 14 view .LVU438
 1406 013c ADF82CC1 		strh	ip, [sp, #300]	@ movhi
 115:Drivers/lvgl/src/widgets/../core/../misc/../font/../misc/lv_area.h **** }
 1407              		.loc 3 115 5 is_stmt 1 view .LVU439
 115:Drivers/lvgl/src/widgets/../core/../misc/../font/../misc/lv_area.h **** }
 1408              		.loc 3 115 19 is_stmt 0 view .LVU440
 1409 0140 B2F90600 		ldrsh	r0, [r2, #6]
 115:Drivers/lvgl/src/widgets/../core/../misc/../font/../misc/lv_area.h **** }
 1410              		.loc 3 115 14 view .LVU441
 1411 0144 ADF82E01 		strh	r0, [sp, #302]	@ movhi
 1412              	.LVL131:
 115:Drivers/lvgl/src/widgets/../core/../misc/../font/../misc/lv_area.h **** }
 1413              		.loc 3 115 14 view .LVU442
 1414              	.LBE113:
 1415              	.LBE112:
 762:Drivers/lvgl/src/widgets/lv_btnmatrix.c ****         btn_area.y1 += area_obj.y1;
 1416              		.loc 1 762 9 is_stmt 1 view .LVU443
 762:Drivers/lvgl/src/widgets/lv_btnmatrix.c ****         btn_area.y1 += area_obj.y1;
 1417              		.loc 1 762 32 is_stmt 0 view .LVU444
 1418 0148 BDF83021 		ldrh	r2, [sp, #304]
 762:Drivers/lvgl/src/widgets/lv_btnmatrix.c ****         btn_area.y1 += area_obj.y1;
 1419              		.loc 1 762 21 view .LVU445
ARM GAS  /var/folders/0z/tsy30v1j4xl4_7kw94k978ww0000gn/T//ccZBZI6H.s 			page 55


 1420 014c 1344     		add	r3, r3, r2
 1421 014e ADF82831 		strh	r3, [sp, #296]	@ movhi
 763:Drivers/lvgl/src/widgets/lv_btnmatrix.c ****         btn_area.x2 += area_obj.x1;
 1422              		.loc 1 763 9 is_stmt 1 view .LVU446
 763:Drivers/lvgl/src/widgets/lv_btnmatrix.c ****         btn_area.x2 += area_obj.x1;
 1423              		.loc 1 763 32 is_stmt 0 view .LVU447
 1424 0152 BDF83231 		ldrh	r3, [sp, #306]
 763:Drivers/lvgl/src/widgets/lv_btnmatrix.c ****         btn_area.x2 += area_obj.x1;
 1425              		.loc 1 763 21 view .LVU448
 1426 0156 1944     		add	r1, r1, r3
 1427 0158 ADF82A11 		strh	r1, [sp, #298]	@ movhi
 764:Drivers/lvgl/src/widgets/lv_btnmatrix.c ****         btn_area.y2 += area_obj.y1;
 1428              		.loc 1 764 9 is_stmt 1 view .LVU449
 764:Drivers/lvgl/src/widgets/lv_btnmatrix.c ****         btn_area.y2 += area_obj.y1;
 1429              		.loc 1 764 21 is_stmt 0 view .LVU450
 1430 015c 6244     		add	r2, r2, ip
 1431 015e ADF82C21 		strh	r2, [sp, #300]	@ movhi
 765:Drivers/lvgl/src/widgets/lv_btnmatrix.c **** 
 1432              		.loc 1 765 9 is_stmt 1 view .LVU451
 765:Drivers/lvgl/src/widgets/lv_btnmatrix.c **** 
 1433              		.loc 1 765 21 is_stmt 0 view .LVU452
 1434 0162 0344     		add	r3, r3, r0
 1435 0164 ADF82E31 		strh	r3, [sp, #302]	@ movhi
 768:Drivers/lvgl/src/widgets/lv_btnmatrix.c ****             lv_memcpy(&draw_rect_dsc_act, &draw_rect_dsc_def, sizeof(lv_draw_rect_dsc_t));
 1436              		.loc 1 768 9 is_stmt 1 view .LVU453
 768:Drivers/lvgl/src/widgets/lv_btnmatrix.c ****             lv_memcpy(&draw_rect_dsc_act, &draw_rect_dsc_def, sizeof(lv_draw_rect_dsc_t));
 1437              		.loc 1 768 11 is_stmt 0 view .LVU454
 1438 0168 B8F1000F 		cmp	r8, #0
 1439 016c 40F00881 		bne	.L67
 769:Drivers/lvgl/src/widgets/lv_btnmatrix.c ****             lv_memcpy(&draw_label_dsc_act, &draw_label_dsc_def, sizeof(lv_draw_label_dsc_t));
 1440              		.loc 1 769 13 is_stmt 1 view .LVU455
 1441 0170 3822     		movs	r2, #56
 1442 0172 26A9     		add	r1, sp, #152
 1443 0174 3CA8     		add	r0, sp, #240
 1444 0176 FFF7FEFF 		bl	lv_memcpy
 1445              	.LVL132:
 770:Drivers/lvgl/src/widgets/lv_btnmatrix.c ****         }
 1446              		.loc 1 770 13 view .LVU456
 1447 017a 2022     		movs	r2, #32
 1448 017c 1EA9     		add	r1, sp, #120
 1449 017e 34A8     		add	r0, sp, #208
 1450 0180 FFF7FEFF 		bl	lv_memcpy
 1451              	.LVL133:
 1452              	.L68:
 784:Drivers/lvgl/src/widgets/lv_btnmatrix.c ****         if(recolor) draw_label_dsc_act.flag |= LV_TEXT_FLAG_RECOLOR;
 1453              		.loc 1 784 9 view .LVU457
 784:Drivers/lvgl/src/widgets/lv_btnmatrix.c ****         if(recolor) draw_label_dsc_act.flag |= LV_TEXT_FLAG_RECOLOR;
 1454              		.loc 1 784 46 is_stmt 0 view .LVU458
 1455 0184 EB6A     		ldr	r3, [r5, #44]
 784:Drivers/lvgl/src/widgets/lv_btnmatrix.c ****         if(recolor) draw_label_dsc_act.flag |= LV_TEXT_FLAG_RECOLOR;
 1456              		.loc 1 784 24 view .LVU459
 1457 0186 33F80B00 		ldrh	r0, [r3, fp]
 1458 018a FFF7FEFF 		bl	button_is_recolor
 1459              	.LVL134:
 785:Drivers/lvgl/src/widgets/lv_btnmatrix.c ****         else draw_label_dsc_act.flag &= ~LV_TEXT_FLAG_RECOLOR;
 1460              		.loc 1 785 9 is_stmt 1 view .LVU460
 785:Drivers/lvgl/src/widgets/lv_btnmatrix.c ****         else draw_label_dsc_act.flag &= ~LV_TEXT_FLAG_RECOLOR;
ARM GAS  /var/folders/0z/tsy30v1j4xl4_7kw94k978ww0000gn/T//ccZBZI6H.s 			page 56


 1461              		.loc 1 785 11 is_stmt 0 view .LVU461
 1462 018e 0028     		cmp	r0, #0
 1463 0190 00F01981 		beq	.L69
 785:Drivers/lvgl/src/widgets/lv_btnmatrix.c ****         else draw_label_dsc_act.flag &= ~LV_TEXT_FLAG_RECOLOR;
 1464              		.loc 1 785 21 is_stmt 1 discriminator 1 view .LVU462
 785:Drivers/lvgl/src/widgets/lv_btnmatrix.c ****         else draw_label_dsc_act.flag &= ~LV_TEXT_FLAG_RECOLOR;
 1465              		.loc 1 785 45 is_stmt 0 discriminator 1 view .LVU463
 1466 0194 9DF8ED30 		ldrb	r3, [sp, #237]	@ zero_extendqisi2
 1467 0198 43F00103 		orr	r3, r3, #1
 1468 019c 8DF8ED30 		strb	r3, [sp, #237]
 1469              	.L70:
 789:Drivers/lvgl/src/widgets/lv_btnmatrix.c ****         part_draw_dsc.id = btn_i;
 1470              		.loc 1 789 9 is_stmt 1 view .LVU464
 789:Drivers/lvgl/src/widgets/lv_btnmatrix.c ****         part_draw_dsc.id = btn_i;
 1471              		.loc 1 789 33 is_stmt 0 view .LVU465
 1472 01a0 4AAB     		add	r3, sp, #296
 1473 01a2 0F93     		str	r3, [sp, #60]
 790:Drivers/lvgl/src/widgets/lv_btnmatrix.c ****         lv_event_send(obj, LV_EVENT_DRAW_PART_BEGIN, &part_draw_dsc);
 1474              		.loc 1 790 9 is_stmt 1 view .LVU466
 790:Drivers/lvgl/src/widgets/lv_btnmatrix.c ****         lv_event_send(obj, LV_EVENT_DRAW_PART_BEGIN, &part_draw_dsc);
 1475              		.loc 1 790 26 is_stmt 0 view .LVU467
 1476 01a4 CDF868A0 		str	r10, [sp, #104]
 791:Drivers/lvgl/src/widgets/lv_btnmatrix.c **** 
 1477              		.loc 1 791 9 is_stmt 1 view .LVU468
 1478 01a8 0CAA     		add	r2, sp, #48
 1479 01aa 1A21     		movs	r1, #26
 1480 01ac 2846     		mov	r0, r5
 1481              	.LVL135:
 791:Drivers/lvgl/src/widgets/lv_btnmatrix.c **** 
 1482              		.loc 1 791 9 is_stmt 0 view .LVU469
 1483 01ae FFF7FEFF 		bl	lv_event_send
 1484              	.LVL136:
 794:Drivers/lvgl/src/widgets/lv_btnmatrix.c ****             draw_rect_dsc_act.border_side = LV_BORDER_SIDE_FULL;
 1485              		.loc 1 794 9 is_stmt 1 view .LVU470
 794:Drivers/lvgl/src/widgets/lv_btnmatrix.c ****             draw_rect_dsc_act.border_side = LV_BORDER_SIDE_FULL;
 1486              		.loc 1 794 29 is_stmt 0 view .LVU471
 1487 01b2 9DF81331 		ldrb	r3, [sp, #275]	@ zero_extendqisi2
 794:Drivers/lvgl/src/widgets/lv_btnmatrix.c ****             draw_rect_dsc_act.border_side = LV_BORDER_SIDE_FULL;
 1488              		.loc 1 794 11 view .LVU472
 1489 01b6 13F0200F 		tst	r3, #32
 1490 01ba 2AD0     		beq	.L71
 795:Drivers/lvgl/src/widgets/lv_btnmatrix.c ****             if(btn_area.x1 == obj->coords.x1 + pleft) draw_rect_dsc_act.border_side &= ~LV_BORDER_S
 1491              		.loc 1 795 13 is_stmt 1 view .LVU473
 795:Drivers/lvgl/src/widgets/lv_btnmatrix.c ****             if(btn_area.x1 == obj->coords.x1 + pleft) draw_rect_dsc_act.border_side &= ~LV_BORDER_S
 1492              		.loc 1 795 43 is_stmt 0 view .LVU474
 1493 01bc 9DF81331 		ldrb	r3, [sp, #275]	@ zero_extendqisi2
 1494 01c0 0F22     		movs	r2, #15
 1495 01c2 62F34503 		bfi	r3, r2, #1, #5
 1496 01c6 8DF81331 		strb	r3, [sp, #275]
 796:Drivers/lvgl/src/widgets/lv_btnmatrix.c ****             if(btn_area.x2 == obj->coords.x2 - pright) draw_rect_dsc_act.border_side &= ~LV_BORDER_
 1497              		.loc 1 796 13 is_stmt 1 view .LVU475
 796:Drivers/lvgl/src/widgets/lv_btnmatrix.c ****             if(btn_area.x2 == obj->coords.x2 - pright) draw_rect_dsc_act.border_side &= ~LV_BORDER_
 1498              		.loc 1 796 24 is_stmt 0 view .LVU476
 1499 01ca BDF92821 		ldrsh	r2, [sp, #296]
 796:Drivers/lvgl/src/widgets/lv_btnmatrix.c ****             if(btn_area.x2 == obj->coords.x2 - pright) draw_rect_dsc_act.border_side &= ~LV_BORDER_
 1500              		.loc 1 796 42 view .LVU477
 1501 01ce B5F91430 		ldrsh	r3, [r5, #20]
ARM GAS  /var/folders/0z/tsy30v1j4xl4_7kw94k978ww0000gn/T//ccZBZI6H.s 			page 57


 796:Drivers/lvgl/src/widgets/lv_btnmatrix.c ****             if(btn_area.x2 == obj->coords.x2 - pright) draw_rect_dsc_act.border_side &= ~LV_BORDER_
 1502              		.loc 1 796 46 view .LVU478
 1503 01d2 0899     		ldr	r1, [sp, #32]
 1504 01d4 0B44     		add	r3, r3, r1
 796:Drivers/lvgl/src/widgets/lv_btnmatrix.c ****             if(btn_area.x2 == obj->coords.x2 - pright) draw_rect_dsc_act.border_side &= ~LV_BORDER_
 1505              		.loc 1 796 15 view .LVU479
 1506 01d6 9A42     		cmp	r2, r3
 1507 01d8 00F0FC80 		beq	.L82
 1508              	.L72:
 797:Drivers/lvgl/src/widgets/lv_btnmatrix.c ****             if(btn_area.y1 == obj->coords.y1 + ptop) draw_rect_dsc_act.border_side &= ~LV_BORDER_SI
 1509              		.loc 1 797 13 is_stmt 1 view .LVU480
 797:Drivers/lvgl/src/widgets/lv_btnmatrix.c ****             if(btn_area.y1 == obj->coords.y1 + ptop) draw_rect_dsc_act.border_side &= ~LV_BORDER_SI
 1510              		.loc 1 797 24 is_stmt 0 view .LVU481
 1511 01dc BDF92C21 		ldrsh	r2, [sp, #300]
 797:Drivers/lvgl/src/widgets/lv_btnmatrix.c ****             if(btn_area.y1 == obj->coords.y1 + ptop) draw_rect_dsc_act.border_side &= ~LV_BORDER_SI
 1512              		.loc 1 797 42 view .LVU482
 1513 01e0 B5F91830 		ldrsh	r3, [r5, #24]
 797:Drivers/lvgl/src/widgets/lv_btnmatrix.c ****             if(btn_area.y1 == obj->coords.y1 + ptop) draw_rect_dsc_act.border_side &= ~LV_BORDER_SI
 1514              		.loc 1 797 46 view .LVU483
 1515 01e4 0999     		ldr	r1, [sp, #36]
 1516 01e6 5B1A     		subs	r3, r3, r1
 797:Drivers/lvgl/src/widgets/lv_btnmatrix.c ****             if(btn_area.y1 == obj->coords.y1 + ptop) draw_rect_dsc_act.border_side &= ~LV_BORDER_SI
 1517              		.loc 1 797 15 view .LVU484
 1518 01e8 9A42     		cmp	r2, r3
 1519 01ea 00F0FF80 		beq	.L83
 1520              	.L73:
 798:Drivers/lvgl/src/widgets/lv_btnmatrix.c ****             if(btn_area.y2 == obj->coords.y2 - pbottom) draw_rect_dsc_act.border_side &= ~LV_BORDER
 1521              		.loc 1 798 13 is_stmt 1 view .LVU485
 798:Drivers/lvgl/src/widgets/lv_btnmatrix.c ****             if(btn_area.y2 == obj->coords.y2 - pbottom) draw_rect_dsc_act.border_side &= ~LV_BORDER
 1522              		.loc 1 798 24 is_stmt 0 view .LVU486
 1523 01ee BDF92A21 		ldrsh	r2, [sp, #298]
 798:Drivers/lvgl/src/widgets/lv_btnmatrix.c ****             if(btn_area.y2 == obj->coords.y2 - pbottom) draw_rect_dsc_act.border_side &= ~LV_BORDER
 1524              		.loc 1 798 42 view .LVU487
 1525 01f2 B5F91630 		ldrsh	r3, [r5, #22]
 798:Drivers/lvgl/src/widgets/lv_btnmatrix.c ****             if(btn_area.y2 == obj->coords.y2 - pbottom) draw_rect_dsc_act.border_side &= ~LV_BORDER
 1526              		.loc 1 798 46 view .LVU488
 1527 01f6 0699     		ldr	r1, [sp, #24]
 1528 01f8 0B44     		add	r3, r3, r1
 798:Drivers/lvgl/src/widgets/lv_btnmatrix.c ****             if(btn_area.y2 == obj->coords.y2 - pbottom) draw_rect_dsc_act.border_side &= ~LV_BORDER
 1529              		.loc 1 798 15 view .LVU489
 1530 01fa 9A42     		cmp	r2, r3
 1531 01fc 00F00181 		beq	.L84
 1532              	.L74:
 799:Drivers/lvgl/src/widgets/lv_btnmatrix.c ****         }
 1533              		.loc 1 799 13 is_stmt 1 view .LVU490
 799:Drivers/lvgl/src/widgets/lv_btnmatrix.c ****         }
 1534              		.loc 1 799 24 is_stmt 0 view .LVU491
 1535 0200 BDF92E21 		ldrsh	r2, [sp, #302]
 799:Drivers/lvgl/src/widgets/lv_btnmatrix.c ****         }
 1536              		.loc 1 799 42 view .LVU492
 1537 0204 B5F91A30 		ldrsh	r3, [r5, #26]
 799:Drivers/lvgl/src/widgets/lv_btnmatrix.c ****         }
 1538              		.loc 1 799 46 view .LVU493
 1539 0208 0799     		ldr	r1, [sp, #28]
 1540 020a 5B1A     		subs	r3, r3, r1
 799:Drivers/lvgl/src/widgets/lv_btnmatrix.c ****         }
 1541              		.loc 1 799 15 view .LVU494
ARM GAS  /var/folders/0z/tsy30v1j4xl4_7kw94k978ww0000gn/T//ccZBZI6H.s 			page 58


 1542 020c 9A42     		cmp	r2, r3
 1543 020e 00F00381 		beq	.L85
 1544              	.L71:
 802:Drivers/lvgl/src/widgets/lv_btnmatrix.c **** 
 1545              		.loc 1 802 9 is_stmt 1 view .LVU495
 1546              	.LVL137:
 1547              	.LBB114:
 1548              	.LBI114:
 133:Drivers/lvgl/src/widgets/../core/../misc/../font/../misc/lv_area.h **** {
 1549              		.loc 3 133 26 view .LVU496
 1550              	.LBB115:
 1551              		.loc 3 135 5 view .LVU497
 1552              		.loc 3 135 31 is_stmt 0 view .LVU498
 1553 0212 BDF82E91 		ldrh	r9, [sp, #302]
 1554              		.loc 3 135 44 view .LVU499
 1555 0216 BDF82A31 		ldrh	r3, [sp, #298]
 1556              		.loc 3 135 36 view .LVU500
 1557 021a A9EB0309 		sub	r9, r9, r3
 1558 021e 1FFA89F9 		uxth	r9, r9
 1559              		.loc 3 135 49 view .LVU501
 1560 0222 09F10109 		add	r9, r9, #1
 1561 0226 1FFA89F2 		uxth	r2, r9
 1562              		.loc 3 135 12 view .LVU502
 1563 022a 0FFA89F9 		sxth	r9, r9
 1564              	.LVL138:
 1565              		.loc 3 135 12 view .LVU503
 1566              	.LBE115:
 1567              	.LBE114:
 804:Drivers/lvgl/src/widgets/lv_btnmatrix.c ****             /*Push up the upper boundary of the btn area to create the popover*/
 1568              		.loc 1 804 9 is_stmt 1 view .LVU504
 804:Drivers/lvgl/src/widgets/lv_btnmatrix.c ****             /*Push up the upper boundary of the btn area to create the popover*/
 1569              		.loc 1 804 11 is_stmt 0 view .LVU505
 1570 022e 18F02008 		ands	r8, r8, #32
 1571              	.LVL139:
 804:Drivers/lvgl/src/widgets/lv_btnmatrix.c ****             /*Push up the upper boundary of the btn area to create the popover*/
 1572              		.loc 1 804 11 view .LVU506
 1573 0232 08D0     		beq	.L75
 804:Drivers/lvgl/src/widgets/lv_btnmatrix.c ****             /*Push up the upper boundary of the btn area to create the popover*/
 1574              		.loc 1 804 51 discriminator 1 view .LVU507
 1575 0234 E96A     		ldr	r1, [r5, #44]
 804:Drivers/lvgl/src/widgets/lv_btnmatrix.c ****             /*Push up the upper boundary of the btn area to create the popover*/
 1576              		.loc 1 804 62 discriminator 1 view .LVU508
 1577 0236 31F80B10 		ldrh	r1, [r1, fp]
 804:Drivers/lvgl/src/widgets/lv_btnmatrix.c ****             /*Push up the upper boundary of the btn area to create the popover*/
 1578              		.loc 1 804 43 discriminator 1 view .LVU509
 1579 023a 11F4806F 		tst	r1, #1024
 1580 023e 02D0     		beq	.L75
 806:Drivers/lvgl/src/widgets/lv_btnmatrix.c ****         }
 1581              		.loc 1 806 13 is_stmt 1 view .LVU510
 806:Drivers/lvgl/src/widgets/lv_btnmatrix.c ****         }
 1582              		.loc 1 806 25 is_stmt 0 view .LVU511
 1583 0240 9B1A     		subs	r3, r3, r2
 1584 0242 ADF82A31 		strh	r3, [sp, #298]	@ movhi
 1585              	.L75:
 810:Drivers/lvgl/src/widgets/lv_btnmatrix.c **** 
 1586              		.loc 1 810 9 is_stmt 1 view .LVU512
 1587 0246 4AAA     		add	r2, sp, #296
ARM GAS  /var/folders/0z/tsy30v1j4xl4_7kw94k978ww0000gn/T//ccZBZI6H.s 			page 59


 1588 0248 3CA9     		add	r1, sp, #240
 1589 024a 0498     		ldr	r0, [sp, #16]
 1590 024c FFF7FEFF 		bl	lv_draw_rect
 1591              	.LVL140:
 813:Drivers/lvgl/src/widgets/lv_btnmatrix.c ****         lv_coord_t letter_space = draw_label_dsc_act.letter_space;
 1592              		.loc 1 813 9 view .LVU513
 814:Drivers/lvgl/src/widgets/lv_btnmatrix.c ****         lv_coord_t line_space = draw_label_dsc_act.line_space;
 1593              		.loc 1 814 9 view .LVU514
 815:Drivers/lvgl/src/widgets/lv_btnmatrix.c ****         const char * txt = btnm->map_p[txt_i];
 1594              		.loc 1 815 9 view .LVU515
 815:Drivers/lvgl/src/widgets/lv_btnmatrix.c ****         const char * txt = btnm->map_p[txt_i];
 1595              		.loc 1 815 20 is_stmt 0 view .LVU516
 1596 0250 BDF9E220 		ldrsh	r2, [sp, #226]
 1597              	.LVL141:
 816:Drivers/lvgl/src/widgets/lv_btnmatrix.c **** 
 1598              		.loc 1 816 9 is_stmt 1 view .LVU517
 816:Drivers/lvgl/src/widgets/lv_btnmatrix.c **** 
 1599              		.loc 1 816 32 is_stmt 0 view .LVU518
 1600 0254 6B6A     		ldr	r3, [r5, #36]
 816:Drivers/lvgl/src/widgets/lv_btnmatrix.c **** 
 1601              		.loc 1 816 22 view .LVU519
 1602 0256 9E59     		ldr	r6, [r3, r6]
 1603              	.LVL142:
 826:Drivers/lvgl/src/widgets/lv_btnmatrix.c ****         lv_txt_get_size(&txt_size, txt, font, letter_space,
 1604              		.loc 1 826 9 is_stmt 1 view .LVU520
 827:Drivers/lvgl/src/widgets/lv_btnmatrix.c ****                         line_space, lv_area_get_width(&area_obj), draw_label_dsc_act.flag);
 1605              		.loc 1 827 9 view .LVU521
 1606              	.LBB116:
 1607              	.LBI116:
 123:Drivers/lvgl/src/widgets/../core/../misc/../font/../misc/lv_area.h **** {
 1608              		.loc 3 123 26 view .LVU522
 1609              	.LBB117:
 125:Drivers/lvgl/src/widgets/../core/../misc/../font/../misc/lv_area.h **** }
 1610              		.loc 3 125 5 view .LVU523
 125:Drivers/lvgl/src/widgets/../core/../misc/../font/../misc/lv_area.h **** }
 1611              		.loc 3 125 31 is_stmt 0 view .LVU524
 1612 0258 BDF83431 		ldrh	r3, [sp, #308]
 125:Drivers/lvgl/src/widgets/../core/../misc/../font/../misc/lv_area.h **** }
 1613              		.loc 3 125 44 view .LVU525
 1614 025c BDF83011 		ldrh	r1, [sp, #304]
 125:Drivers/lvgl/src/widgets/../core/../misc/../font/../misc/lv_area.h **** }
 1615              		.loc 3 125 36 view .LVU526
 1616 0260 5B1A     		subs	r3, r3, r1
 1617 0262 9BB2     		uxth	r3, r3
 125:Drivers/lvgl/src/widgets/../core/../misc/../font/../misc/lv_area.h **** }
 1618              		.loc 3 125 49 view .LVU527
 1619 0264 0133     		adds	r3, r3, #1
 125:Drivers/lvgl/src/widgets/../core/../misc/../font/../misc/lv_area.h **** }
 1620              		.loc 3 125 12 view .LVU528
 1621 0266 1BB2     		sxth	r3, r3
 1622              	.LVL143:
 125:Drivers/lvgl/src/widgets/../core/../misc/../font/../misc/lv_area.h **** }
 1623              		.loc 3 125 12 view .LVU529
 1624              	.LBE117:
 1625              	.LBE116:
 827:Drivers/lvgl/src/widgets/lv_btnmatrix.c ****                         line_space, lv_area_get_width(&area_obj), draw_label_dsc_act.flag);
 1626              		.loc 1 827 9 view .LVU530
ARM GAS  /var/folders/0z/tsy30v1j4xl4_7kw94k978ww0000gn/T//ccZBZI6H.s 			page 60


 1627 0268 9DF8ED10 		ldrb	r1, [sp, #237]	@ zero_extendqisi2
 1628 026c 0291     		str	r1, [sp, #8]
 1629 026e 0193     		str	r3, [sp, #4]
 1630 0270 0092     		str	r2, [sp]
 1631 0272 BDF9E430 		ldrsh	r3, [sp, #228]
 1632 0276 349A     		ldr	r2, [sp, #208]
 1633 0278 3146     		mov	r1, r6
 1634 027a 0BA8     		add	r0, sp, #44
 1635 027c FFF7FEFF 		bl	lv_txt_get_size
 1636              	.LVL144:
 830:Drivers/lvgl/src/widgets/lv_btnmatrix.c ****         btn_area.y1 += (lv_area_get_height(&btn_area) - txt_size.y) / 2;
 1637              		.loc 1 830 9 is_stmt 1 view .LVU531
 1638              	.LBB118:
 1639              	.LBI118:
 123:Drivers/lvgl/src/widgets/../core/../misc/../font/../misc/lv_area.h **** {
 1640              		.loc 3 123 26 view .LVU532
 1641              	.LBB119:
 125:Drivers/lvgl/src/widgets/../core/../misc/../font/../misc/lv_area.h **** }
 1642              		.loc 3 125 5 view .LVU533
 125:Drivers/lvgl/src/widgets/../core/../misc/../font/../misc/lv_area.h **** }
 1643              		.loc 3 125 31 is_stmt 0 view .LVU534
 1644 0280 BDF82C31 		ldrh	r3, [sp, #300]
 125:Drivers/lvgl/src/widgets/../core/../misc/../font/../misc/lv_area.h **** }
 1645              		.loc 3 125 44 view .LVU535
 1646 0284 BDF82811 		ldrh	r1, [sp, #296]
 125:Drivers/lvgl/src/widgets/../core/../misc/../font/../misc/lv_area.h **** }
 1647              		.loc 3 125 36 view .LVU536
 1648 0288 5B1A     		subs	r3, r3, r1
 1649 028a 9BB2     		uxth	r3, r3
 125:Drivers/lvgl/src/widgets/../core/../misc/../font/../misc/lv_area.h **** }
 1650              		.loc 3 125 49 view .LVU537
 1651 028c 0133     		adds	r3, r3, #1
 125:Drivers/lvgl/src/widgets/../core/../misc/../font/../misc/lv_area.h **** }
 1652              		.loc 3 125 12 view .LVU538
 1653 028e 1BB2     		sxth	r3, r3
 1654              	.LVL145:
 125:Drivers/lvgl/src/widgets/../core/../misc/../font/../misc/lv_area.h **** }
 1655              		.loc 3 125 12 view .LVU539
 1656              	.LBE119:
 1657              	.LBE118:
 830:Drivers/lvgl/src/widgets/lv_btnmatrix.c ****         btn_area.y1 += (lv_area_get_height(&btn_area) - txt_size.y) / 2;
 1658              		.loc 1 830 64 view .LVU540
 1659 0290 BDF92CC0 		ldrsh	ip, [sp, #44]
 830:Drivers/lvgl/src/widgets/lv_btnmatrix.c ****         btn_area.y1 += (lv_area_get_height(&btn_area) - txt_size.y) / 2;
 1660              		.loc 1 830 54 view .LVU541
 1661 0294 A3EB0C03 		sub	r3, r3, ip
 830:Drivers/lvgl/src/widgets/lv_btnmatrix.c ****         btn_area.y1 += (lv_area_get_height(&btn_area) - txt_size.y) / 2;
 1662              		.loc 1 830 68 view .LVU542
 1663 0298 03EBD373 		add	r3, r3, r3, lsr #31
 830:Drivers/lvgl/src/widgets/lv_btnmatrix.c ****         btn_area.y1 += (lv_area_get_height(&btn_area) - txt_size.y) / 2;
 1664              		.loc 1 830 21 view .LVU543
 1665 029c 01EB6301 		add	r1, r1, r3, asr #1
 1666 02a0 89B2     		uxth	r1, r1
 1667 02a2 ADF82811 		strh	r1, [sp, #296]	@ movhi
 831:Drivers/lvgl/src/widgets/lv_btnmatrix.c ****         btn_area.x2 = btn_area.x1 + txt_size.x;
 1668              		.loc 1 831 9 is_stmt 1 view .LVU544
 1669              	.LVL146:
ARM GAS  /var/folders/0z/tsy30v1j4xl4_7kw94k978ww0000gn/T//ccZBZI6H.s 			page 61


 1670              	.LBB120:
 1671              	.LBI120:
 133:Drivers/lvgl/src/widgets/../core/../misc/../font/../misc/lv_area.h **** {
 1672              		.loc 3 133 26 view .LVU545
 1673              	.LBB121:
 1674              		.loc 3 135 5 view .LVU546
 1675              		.loc 3 135 31 is_stmt 0 view .LVU547
 1676 02a6 BDF82E31 		ldrh	r3, [sp, #302]
 1677              		.loc 3 135 44 view .LVU548
 1678 02aa BDF82A21 		ldrh	r2, [sp, #298]
 1679              		.loc 3 135 36 view .LVU549
 1680 02ae 9B1A     		subs	r3, r3, r2
 1681 02b0 9BB2     		uxth	r3, r3
 1682              		.loc 3 135 49 view .LVU550
 1683 02b2 0133     		adds	r3, r3, #1
 1684              		.loc 3 135 12 view .LVU551
 1685 02b4 1BB2     		sxth	r3, r3
 1686              	.LVL147:
 1687              		.loc 3 135 12 view .LVU552
 1688              	.LBE121:
 1689              	.LBE120:
 831:Drivers/lvgl/src/widgets/lv_btnmatrix.c ****         btn_area.x2 = btn_area.x1 + txt_size.x;
 1690              		.loc 1 831 65 view .LVU553
 1691 02b6 BDF92E00 		ldrsh	r0, [sp, #46]
 831:Drivers/lvgl/src/widgets/lv_btnmatrix.c ****         btn_area.x2 = btn_area.x1 + txt_size.x;
 1692              		.loc 1 831 55 view .LVU554
 1693 02ba 1B1A     		subs	r3, r3, r0
 831:Drivers/lvgl/src/widgets/lv_btnmatrix.c ****         btn_area.x2 = btn_area.x1 + txt_size.x;
 1694              		.loc 1 831 69 view .LVU555
 1695 02bc 03EBD373 		add	r3, r3, r3, lsr #31
 831:Drivers/lvgl/src/widgets/lv_btnmatrix.c ****         btn_area.x2 = btn_area.x1 + txt_size.x;
 1696              		.loc 1 831 21 view .LVU556
 1697 02c0 02EB6302 		add	r2, r2, r3, asr #1
 1698 02c4 92B2     		uxth	r2, r2
 1699 02c6 ADF82A21 		strh	r2, [sp, #298]	@ movhi
 832:Drivers/lvgl/src/widgets/lv_btnmatrix.c ****         btn_area.y2 = btn_area.y1 + txt_size.y;
 1700              		.loc 1 832 9 is_stmt 1 view .LVU557
 832:Drivers/lvgl/src/widgets/lv_btnmatrix.c ****         btn_area.y2 = btn_area.y1 + txt_size.y;
 1701              		.loc 1 832 35 is_stmt 0 view .LVU558
 1702 02ca 11FA8CFC 		uxtah	ip, r1, ip
 832:Drivers/lvgl/src/widgets/lv_btnmatrix.c ****         btn_area.y2 = btn_area.y1 + txt_size.y;
 1703              		.loc 1 832 21 view .LVU559
 1704 02ce ADF82CC1 		strh	ip, [sp, #300]	@ movhi
 833:Drivers/lvgl/src/widgets/lv_btnmatrix.c **** 
 1705              		.loc 1 833 9 is_stmt 1 view .LVU560
 833:Drivers/lvgl/src/widgets/lv_btnmatrix.c **** 
 1706              		.loc 1 833 35 is_stmt 0 view .LVU561
 1707 02d2 12FA80F0 		uxtah	r0, r2, r0
 1708 02d6 83B2     		uxth	r3, r0
 833:Drivers/lvgl/src/widgets/lv_btnmatrix.c **** 
 1709              		.loc 1 833 21 view .LVU562
 1710 02d8 ADF82E01 		strh	r0, [sp, #302]	@ movhi
 835:Drivers/lvgl/src/widgets/lv_btnmatrix.c ****             /*Push up the button text into the popover*/
 1711              		.loc 1 835 9 is_stmt 1 view .LVU563
 835:Drivers/lvgl/src/widgets/lv_btnmatrix.c ****             /*Push up the button text into the popover*/
 1712              		.loc 1 835 11 is_stmt 0 view .LVU564
 1713 02dc B8F1000F 		cmp	r8, #0
ARM GAS  /var/folders/0z/tsy30v1j4xl4_7kw94k978ww0000gn/T//ccZBZI6H.s 			page 62


 1714 02e0 11D0     		beq	.L76
 835:Drivers/lvgl/src/widgets/lv_btnmatrix.c ****             /*Push up the button text into the popover*/
 1715              		.loc 1 835 51 discriminator 1 view .LVU565
 1716 02e2 E96A     		ldr	r1, [r5, #44]
 835:Drivers/lvgl/src/widgets/lv_btnmatrix.c ****             /*Push up the button text into the popover*/
 1717              		.loc 1 835 62 discriminator 1 view .LVU566
 1718 02e4 31F80B10 		ldrh	r1, [r1, fp]
 835:Drivers/lvgl/src/widgets/lv_btnmatrix.c ****             /*Push up the button text into the popover*/
 1719              		.loc 1 835 43 discriminator 1 view .LVU567
 1720 02e8 11F4806F 		tst	r1, #1024
 1721 02ec 0BD0     		beq	.L76
 837:Drivers/lvgl/src/widgets/lv_btnmatrix.c ****             btn_area.y2 -= btn_height / 2;
 1722              		.loc 1 837 13 is_stmt 1 view .LVU568
 837:Drivers/lvgl/src/widgets/lv_btnmatrix.c ****             btn_area.y2 -= btn_height / 2;
 1723              		.loc 1 837 25 is_stmt 0 view .LVU569
 1724 02ee 09EBD979 		add	r9, r9, r9, lsr #31
 1725              	.LVL148:
 837:Drivers/lvgl/src/widgets/lv_btnmatrix.c ****             btn_area.y2 -= btn_height / 2;
 1726              		.loc 1 837 25 view .LVU570
 1727 02f2 C9F34F09 		ubfx	r9, r9, #1, #16
 1728 02f6 A2EB0902 		sub	r2, r2, r9
 1729 02fa ADF82A21 		strh	r2, [sp, #298]	@ movhi
 838:Drivers/lvgl/src/widgets/lv_btnmatrix.c ****         }
 1730              		.loc 1 838 13 is_stmt 1 view .LVU571
 838:Drivers/lvgl/src/widgets/lv_btnmatrix.c ****         }
 1731              		.loc 1 838 25 is_stmt 0 view .LVU572
 1732 02fe A3EB0903 		sub	r3, r3, r9
 1733 0302 ADF82E31 		strh	r3, [sp, #302]	@ movhi
 1734              	.L76:
 842:Drivers/lvgl/src/widgets/lv_btnmatrix.c **** 
 1735              		.loc 1 842 9 is_stmt 1 view .LVU573
 1736 0306 0023     		movs	r3, #0
 1737 0308 0093     		str	r3, [sp]
 1738 030a 3346     		mov	r3, r6
 1739 030c 4AAA     		add	r2, sp, #296
 1740 030e 34A9     		add	r1, sp, #208
 1741 0310 0498     		ldr	r0, [sp, #16]
 1742 0312 FFF7FEFF 		bl	lv_draw_label
 1743              	.LVL149:
 844:Drivers/lvgl/src/widgets/lv_btnmatrix.c ****     }
 1744              		.loc 1 844 9 view .LVU574
 1745 0316 0CAA     		add	r2, sp, #48
 1746 0318 1B21     		movs	r1, #27
 1747 031a 2846     		mov	r0, r5
 1748 031c FFF7FEFF 		bl	lv_event_send
 1749              	.LVL150:
 1750              	.L60:
 844:Drivers/lvgl/src/widgets/lv_btnmatrix.c ****     }
 1751              		.loc 1 844 9 is_stmt 0 view .LVU575
 1752              	.LBE111:
 739:Drivers/lvgl/src/widgets/lv_btnmatrix.c ****         /*Search the next valid text in the map*/
 1753              		.loc 1 739 50 is_stmt 1 discriminator 2 view .LVU576
 739:Drivers/lvgl/src/widgets/lv_btnmatrix.c ****         /*Search the next valid text in the map*/
 1754              		.loc 1 739 48 is_stmt 0 discriminator 2 view .LVU577
 1755 0320 0137     		adds	r7, r7, #1
 1756              	.LVL151:
 739:Drivers/lvgl/src/widgets/lv_btnmatrix.c ****         /*Search the next valid text in the map*/
ARM GAS  /var/folders/0z/tsy30v1j4xl4_7kw94k978ww0000gn/T//ccZBZI6H.s 			page 63


 1757              		.loc 1 739 48 discriminator 2 view .LVU578
 1758 0322 BFB2     		uxth	r7, r7
 1759              	.LVL152:
 739:Drivers/lvgl/src/widgets/lv_btnmatrix.c ****         /*Search the next valid text in the map*/
 1760              		.loc 1 739 57 discriminator 2 view .LVU579
 1761 0324 0134     		adds	r4, r4, #1
 1762              	.LVL153:
 739:Drivers/lvgl/src/widgets/lv_btnmatrix.c ****         /*Search the next valid text in the map*/
 1763              		.loc 1 739 57 discriminator 2 view .LVU580
 1764 0326 A4B2     		uxth	r4, r4
 1765              	.LVL154:
 1766              	.L57:
 739:Drivers/lvgl/src/widgets/lv_btnmatrix.c ****         /*Search the next valid text in the map*/
 1767              		.loc 1 739 26 is_stmt 1 discriminator 1 view .LVU581
 739:Drivers/lvgl/src/widgets/lv_btnmatrix.c ****         /*Search the next valid text in the map*/
 1768              		.loc 1 739 32 is_stmt 0 discriminator 1 view .LVU582
 1769 0328 2B8E     		ldrh	r3, [r5, #48]
 739:Drivers/lvgl/src/widgets/lv_btnmatrix.c ****         /*Search the next valid text in the map*/
 1770              		.loc 1 739 26 discriminator 1 view .LVU583
 1771 032a BB42     		cmp	r3, r7
 1772 032c 3FF6D4AE 		bhi	.L77
 847:Drivers/lvgl/src/widgets/lv_btnmatrix.c **** #if LV_USE_ARABIC_PERSIAN_CHARS
 1773              		.loc 1 847 5 is_stmt 1 view .LVU584
 847:Drivers/lvgl/src/widgets/lv_btnmatrix.c **** #if LV_USE_ARABIC_PERSIAN_CHARS
 1774              		.loc 1 847 21 is_stmt 0 view .LVU585
 1775 0330 95F82230 		ldrb	r3, [r5, #34]	@ zero_extendqisi2
 1776 0334 6FF3C303 		bfc	r3, #3, #1
 1777 0338 85F82230 		strb	r3, [r5, #34]
 1778 033c 68E6     		b	.L54
 1779              	.LVL155:
 1780              	.L78:
 1781              	.LBB122:
 750:Drivers/lvgl/src/widgets/lv_btnmatrix.c **** 
 1782              		.loc 1 750 66 view .LVU586
 1783 033e 4FF00108 		mov	r8, #1
 1784 0342 E6E6     		b	.L61
 1785              	.LVL156:
 1786              	.L62:
 753:Drivers/lvgl/src/widgets/lv_btnmatrix.c ****             if(state_ori & LV_STATE_PRESSED) btn_state |= LV_STATE_PRESSED;
 1787              		.loc 1 753 14 is_stmt 1 view .LVU587
 753:Drivers/lvgl/src/widgets/lv_btnmatrix.c ****             if(state_ori & LV_STATE_PRESSED) btn_state |= LV_STATE_PRESSED;
 1788              		.loc 1 753 30 is_stmt 0 view .LVU588
 1789 0344 AB8E     		ldrh	r3, [r5, #52]
 753:Drivers/lvgl/src/widgets/lv_btnmatrix.c ****             if(state_ori & LV_STATE_PRESSED) btn_state |= LV_STATE_PRESSED;
 1790              		.loc 1 753 16 view .LVU589
 1791 0346 BB42     		cmp	r3, r7
 1792 0348 7FF4EBAE 		bne	.L63
 754:Drivers/lvgl/src/widgets/lv_btnmatrix.c ****             if(state_ori & LV_STATE_FOCUSED) btn_state |= LV_STATE_FOCUSED;
 1793              		.loc 1 754 13 is_stmt 1 view .LVU590
 754:Drivers/lvgl/src/widgets/lv_btnmatrix.c ****             if(state_ori & LV_STATE_FOCUSED) btn_state |= LV_STATE_FOCUSED;
 1794              		.loc 1 754 15 is_stmt 0 view .LVU591
 1795 034c 059B     		ldr	r3, [sp, #20]
 1796 034e 13F0200F 		tst	r3, #32
 1797 0352 01D0     		beq	.L64
 754:Drivers/lvgl/src/widgets/lv_btnmatrix.c ****             if(state_ori & LV_STATE_FOCUSED) btn_state |= LV_STATE_FOCUSED;
 1798              		.loc 1 754 46 is_stmt 1 discriminator 1 view .LVU592
 754:Drivers/lvgl/src/widgets/lv_btnmatrix.c ****             if(state_ori & LV_STATE_FOCUSED) btn_state |= LV_STATE_FOCUSED;
ARM GAS  /var/folders/0z/tsy30v1j4xl4_7kw94k978ww0000gn/T//ccZBZI6H.s 			page 64


 1799              		.loc 1 754 56 is_stmt 0 discriminator 1 view .LVU593
 1800 0354 48F02008 		orr	r8, r8, #32
 1801              	.LVL157:
 1802              	.L64:
 755:Drivers/lvgl/src/widgets/lv_btnmatrix.c ****             if(state_ori & LV_STATE_FOCUS_KEY) btn_state |= LV_STATE_FOCUS_KEY;
 1803              		.loc 1 755 13 is_stmt 1 view .LVU594
 755:Drivers/lvgl/src/widgets/lv_btnmatrix.c ****             if(state_ori & LV_STATE_FOCUS_KEY) btn_state |= LV_STATE_FOCUS_KEY;
 1804              		.loc 1 755 15 is_stmt 0 view .LVU595
 1805 0358 059B     		ldr	r3, [sp, #20]
 1806 035a 13F0020F 		tst	r3, #2
 1807 035e 01D0     		beq	.L65
 755:Drivers/lvgl/src/widgets/lv_btnmatrix.c ****             if(state_ori & LV_STATE_FOCUS_KEY) btn_state |= LV_STATE_FOCUS_KEY;
 1808              		.loc 1 755 46 is_stmt 1 discriminator 1 view .LVU596
 755:Drivers/lvgl/src/widgets/lv_btnmatrix.c ****             if(state_ori & LV_STATE_FOCUS_KEY) btn_state |= LV_STATE_FOCUS_KEY;
 1809              		.loc 1 755 56 is_stmt 0 discriminator 1 view .LVU597
 1810 0360 48F00208 		orr	r8, r8, #2
 1811              	.LVL158:
 1812              	.L65:
 756:Drivers/lvgl/src/widgets/lv_btnmatrix.c ****             if(state_ori & LV_STATE_EDITED) btn_state |= LV_STATE_EDITED;
 1813              		.loc 1 756 13 is_stmt 1 view .LVU598
 756:Drivers/lvgl/src/widgets/lv_btnmatrix.c ****             if(state_ori & LV_STATE_EDITED) btn_state |= LV_STATE_EDITED;
 1814              		.loc 1 756 15 is_stmt 0 view .LVU599
 1815 0364 059B     		ldr	r3, [sp, #20]
 1816 0366 13F0040F 		tst	r3, #4
 1817 036a 01D0     		beq	.L66
 756:Drivers/lvgl/src/widgets/lv_btnmatrix.c ****             if(state_ori & LV_STATE_EDITED) btn_state |= LV_STATE_EDITED;
 1818              		.loc 1 756 48 is_stmt 1 discriminator 1 view .LVU600
 756:Drivers/lvgl/src/widgets/lv_btnmatrix.c ****             if(state_ori & LV_STATE_EDITED) btn_state |= LV_STATE_EDITED;
 1819              		.loc 1 756 58 is_stmt 0 discriminator 1 view .LVU601
 1820 036c 48F00408 		orr	r8, r8, #4
 1821              	.LVL159:
 1822              	.L66:
 757:Drivers/lvgl/src/widgets/lv_btnmatrix.c ****         }
 1823              		.loc 1 757 13 is_stmt 1 view .LVU602
 757:Drivers/lvgl/src/widgets/lv_btnmatrix.c ****         }
 1824              		.loc 1 757 15 is_stmt 0 view .LVU603
 1825 0370 059B     		ldr	r3, [sp, #20]
 1826 0372 13F0080F 		tst	r3, #8
 1827 0376 3FF4D4AE 		beq	.L63
 757:Drivers/lvgl/src/widgets/lv_btnmatrix.c ****         }
 1828              		.loc 1 757 45 is_stmt 1 discriminator 1 view .LVU604
 757:Drivers/lvgl/src/widgets/lv_btnmatrix.c ****         }
 1829              		.loc 1 757 55 is_stmt 0 discriminator 1 view .LVU605
 1830 037a 48F00808 		orr	r8, r8, #8
 1831              	.LVL160:
 757:Drivers/lvgl/src/widgets/lv_btnmatrix.c ****         }
 1832              		.loc 1 757 55 discriminator 1 view .LVU606
 1833 037e D0E6     		b	.L63
 1834              	.L67:
 774:Drivers/lvgl/src/widgets/lv_btnmatrix.c ****             obj->skip_trans = 1;
 1835              		.loc 1 774 13 is_stmt 1 view .LVU607
 774:Drivers/lvgl/src/widgets/lv_btnmatrix.c ****             obj->skip_trans = 1;
 1836              		.loc 1 774 24 is_stmt 0 view .LVU608
 1837 0380 A5F82080 		strh	r8, [r5, #32]	@ movhi
 775:Drivers/lvgl/src/widgets/lv_btnmatrix.c ****             lv_draw_rect_dsc_init(&draw_rect_dsc_act);
 1838              		.loc 1 775 13 is_stmt 1 view .LVU609
 775:Drivers/lvgl/src/widgets/lv_btnmatrix.c ****             lv_draw_rect_dsc_init(&draw_rect_dsc_act);
ARM GAS  /var/folders/0z/tsy30v1j4xl4_7kw94k978ww0000gn/T//ccZBZI6H.s 			page 65


 1839              		.loc 1 775 29 is_stmt 0 view .LVU610
 1840 0384 95F82230 		ldrb	r3, [r5, #34]	@ zero_extendqisi2
 1841 0388 43F00803 		orr	r3, r3, #8
 1842 038c 85F82230 		strb	r3, [r5, #34]
 776:Drivers/lvgl/src/widgets/lv_btnmatrix.c ****             lv_draw_label_dsc_init(&draw_label_dsc_act);
 1843              		.loc 1 776 13 is_stmt 1 view .LVU611
 1844 0390 3CA8     		add	r0, sp, #240
 1845 0392 FFF7FEFF 		bl	lv_draw_rect_dsc_init
 1846              	.LVL161:
 777:Drivers/lvgl/src/widgets/lv_btnmatrix.c ****             lv_obj_init_draw_rect_dsc(obj, LV_PART_ITEMS, &draw_rect_dsc_act);
 1847              		.loc 1 777 13 view .LVU612
 1848 0396 34A8     		add	r0, sp, #208
 1849 0398 FFF7FEFF 		bl	lv_draw_label_dsc_init
 1850              	.LVL162:
 778:Drivers/lvgl/src/widgets/lv_btnmatrix.c ****             lv_obj_init_draw_label_dsc(obj, LV_PART_ITEMS, &draw_label_dsc_act);
 1851              		.loc 1 778 13 view .LVU613
 1852 039c 3CAA     		add	r2, sp, #240
 1853 039e 4FF4A021 		mov	r1, #327680
 1854 03a2 2846     		mov	r0, r5
 1855 03a4 FFF7FEFF 		bl	lv_obj_init_draw_rect_dsc
 1856              	.LVL163:
 779:Drivers/lvgl/src/widgets/lv_btnmatrix.c ****             obj->state = state_ori;
 1857              		.loc 1 779 13 view .LVU614
 1858 03a8 34AA     		add	r2, sp, #208
 1859 03aa 4FF4A021 		mov	r1, #327680
 1860 03ae 2846     		mov	r0, r5
 1861 03b0 FFF7FEFF 		bl	lv_obj_init_draw_label_dsc
 1862              	.LVL164:
 780:Drivers/lvgl/src/widgets/lv_btnmatrix.c ****             obj->skip_trans = 0;
 1863              		.loc 1 780 13 view .LVU615
 780:Drivers/lvgl/src/widgets/lv_btnmatrix.c ****             obj->skip_trans = 0;
 1864              		.loc 1 780 24 is_stmt 0 view .LVU616
 1865 03b4 059B     		ldr	r3, [sp, #20]
 1866 03b6 2B84     		strh	r3, [r5, #32]	@ movhi
 781:Drivers/lvgl/src/widgets/lv_btnmatrix.c ****         }
 1867              		.loc 1 781 13 is_stmt 1 view .LVU617
 781:Drivers/lvgl/src/widgets/lv_btnmatrix.c ****         }
 1868              		.loc 1 781 29 is_stmt 0 view .LVU618
 1869 03b8 95F82230 		ldrb	r3, [r5, #34]	@ zero_extendqisi2
 1870 03bc 6FF3C303 		bfc	r3, #3, #1
 1871 03c0 85F82230 		strb	r3, [r5, #34]
 1872 03c4 DEE6     		b	.L68
 1873              	.LVL165:
 1874              	.L69:
 786:Drivers/lvgl/src/widgets/lv_btnmatrix.c **** 
 1875              		.loc 1 786 14 is_stmt 1 view .LVU619
 786:Drivers/lvgl/src/widgets/lv_btnmatrix.c **** 
 1876              		.loc 1 786 38 is_stmt 0 view .LVU620
 1877 03c6 9DF8ED30 		ldrb	r3, [sp, #237]	@ zero_extendqisi2
 1878 03ca 23F00103 		bic	r3, r3, #1
 1879 03ce 8DF8ED30 		strb	r3, [sp, #237]
 1880 03d2 E5E6     		b	.L70
 1881              	.LVL166:
 1882              	.L82:
 796:Drivers/lvgl/src/widgets/lv_btnmatrix.c ****             if(btn_area.x2 == obj->coords.x2 - pright) draw_rect_dsc_act.border_side &= ~LV_BORDER_
 1883              		.loc 1 796 55 is_stmt 1 discriminator 1 view .LVU621
 796:Drivers/lvgl/src/widgets/lv_btnmatrix.c ****             if(btn_area.x2 == obj->coords.x2 - pright) draw_rect_dsc_act.border_side &= ~LV_BORDER_
ARM GAS  /var/folders/0z/tsy30v1j4xl4_7kw94k978ww0000gn/T//ccZBZI6H.s 			page 66


 1884              		.loc 1 796 85 is_stmt 0 discriminator 1 view .LVU622
 1885 03d4 9DF81331 		ldrb	r3, [sp, #275]	@ zero_extendqisi2
 1886 03d8 0B22     		movs	r2, #11
 1887 03da 62F34503 		bfi	r3, r2, #1, #5
 1888 03de 8DF81331 		strb	r3, [sp, #275]
 1889 03e2 FBE6     		b	.L72
 1890              	.L87:
 1891              		.align	2
 1892              	.L86:
 1893 03e4 00000000 		.word	.LANCHOR0
 1894 03e8 00000000 		.word	.LC0
 1895              	.L83:
 797:Drivers/lvgl/src/widgets/lv_btnmatrix.c ****             if(btn_area.y1 == obj->coords.y1 + ptop) draw_rect_dsc_act.border_side &= ~LV_BORDER_SI
 1896              		.loc 1 797 56 is_stmt 1 discriminator 1 view .LVU623
 797:Drivers/lvgl/src/widgets/lv_btnmatrix.c ****             if(btn_area.y1 == obj->coords.y1 + ptop) draw_rect_dsc_act.border_side &= ~LV_BORDER_SI
 1897              		.loc 1 797 86 is_stmt 0 discriminator 1 view .LVU624
 1898 03ec 9DF81331 		ldrb	r3, [sp, #275]	@ zero_extendqisi2
 1899 03f0 C3F34402 		ubfx	r2, r3, #1, #5
 1900 03f4 02F01702 		and	r2, r2, #23
 1901 03f8 62F34503 		bfi	r3, r2, #1, #5
 1902 03fc 8DF81331 		strb	r3, [sp, #275]
 1903 0400 F5E6     		b	.L73
 1904              	.L84:
 798:Drivers/lvgl/src/widgets/lv_btnmatrix.c ****             if(btn_area.y2 == obj->coords.y2 - pbottom) draw_rect_dsc_act.border_side &= ~LV_BORDER
 1905              		.loc 1 798 54 is_stmt 1 discriminator 1 view .LVU625
 798:Drivers/lvgl/src/widgets/lv_btnmatrix.c ****             if(btn_area.y2 == obj->coords.y2 - pbottom) draw_rect_dsc_act.border_side &= ~LV_BORDER
 1906              		.loc 1 798 84 is_stmt 0 discriminator 1 view .LVU626
 1907 0402 9DF81331 		ldrb	r3, [sp, #275]	@ zero_extendqisi2
 1908 0406 C3F34402 		ubfx	r2, r3, #1, #5
 1909 040a 02F01D02 		and	r2, r2, #29
 1910 040e 62F34503 		bfi	r3, r2, #1, #5
 1911 0412 8DF81331 		strb	r3, [sp, #275]
 1912 0416 F3E6     		b	.L74
 1913              	.L85:
 799:Drivers/lvgl/src/widgets/lv_btnmatrix.c ****         }
 1914              		.loc 1 799 57 is_stmt 1 discriminator 1 view .LVU627
 799:Drivers/lvgl/src/widgets/lv_btnmatrix.c ****         }
 1915              		.loc 1 799 87 is_stmt 0 discriminator 1 view .LVU628
 1916 0418 9DF81331 		ldrb	r3, [sp, #275]	@ zero_extendqisi2
 1917 041c C3F34402 		ubfx	r2, r3, #1, #5
 1918 0420 02F01E02 		and	r2, r2, #30
 1919 0424 62F34503 		bfi	r3, r2, #1, #5
 1920 0428 8DF81331 		strb	r3, [sp, #275]
 1921 042c F1E6     		b	.L71
 1922              	.LBE122:
 1923              		.cfi_endproc
 1924              	.LFE179:
 1926 042e 00BF     		.section	.text.lv_btnmatrix_destructor,"ax",%progbits
 1927              		.align	1
 1928              		.syntax unified
 1929              		.thumb
 1930              		.thumb_func
 1932              	lv_btnmatrix_destructor:
 1933              	.LVL167:
 1934              	.LFB177:
 393:Drivers/lvgl/src/widgets/lv_btnmatrix.c ****     LV_TRACE_OBJ_CREATE("begin");
 1935              		.loc 1 393 1 is_stmt 1 view -0
ARM GAS  /var/folders/0z/tsy30v1j4xl4_7kw94k978ww0000gn/T//ccZBZI6H.s 			page 67


 1936              		.cfi_startproc
 1937              		@ args = 0, pretend = 0, frame = 0
 1938              		@ frame_needed = 0, uses_anonymous_args = 0
 393:Drivers/lvgl/src/widgets/lv_btnmatrix.c ****     LV_TRACE_OBJ_CREATE("begin");
 1939              		.loc 1 393 1 is_stmt 0 view .LVU630
 1940 0000 10B5     		push	{r4, lr}
 1941              		.cfi_def_cfa_offset 8
 1942              		.cfi_offset 4, -8
 1943              		.cfi_offset 14, -4
 1944 0002 0C46     		mov	r4, r1
 394:Drivers/lvgl/src/widgets/lv_btnmatrix.c ****     LV_UNUSED(class_p);
 1945              		.loc 1 394 33 is_stmt 1 view .LVU631
 395:Drivers/lvgl/src/widgets/lv_btnmatrix.c ****     lv_btnmatrix_t * btnm = (lv_btnmatrix_t *)obj;
 1946              		.loc 1 395 5 view .LVU632
 396:Drivers/lvgl/src/widgets/lv_btnmatrix.c ****     lv_mem_free(btnm->button_areas);
 1947              		.loc 1 396 5 view .LVU633
 1948              	.LVL168:
 397:Drivers/lvgl/src/widgets/lv_btnmatrix.c ****     lv_mem_free(btnm->ctrl_bits);
 1949              		.loc 1 397 5 view .LVU634
 1950 0004 886A     		ldr	r0, [r1, #40]
 1951              	.LVL169:
 397:Drivers/lvgl/src/widgets/lv_btnmatrix.c ****     lv_mem_free(btnm->ctrl_bits);
 1952              		.loc 1 397 5 is_stmt 0 view .LVU635
 1953 0006 FFF7FEFF 		bl	lv_mem_free
 1954              	.LVL170:
 398:Drivers/lvgl/src/widgets/lv_btnmatrix.c ****     btnm->button_areas = NULL;
 1955              		.loc 1 398 5 is_stmt 1 view .LVU636
 1956 000a E06A     		ldr	r0, [r4, #44]
 1957 000c FFF7FEFF 		bl	lv_mem_free
 1958              	.LVL171:
 399:Drivers/lvgl/src/widgets/lv_btnmatrix.c ****     btnm->ctrl_bits = NULL;
 1959              		.loc 1 399 5 view .LVU637
 399:Drivers/lvgl/src/widgets/lv_btnmatrix.c ****     btnm->ctrl_bits = NULL;
 1960              		.loc 1 399 24 is_stmt 0 view .LVU638
 1961 0010 0023     		movs	r3, #0
 1962 0012 A362     		str	r3, [r4, #40]
 400:Drivers/lvgl/src/widgets/lv_btnmatrix.c ****     LV_TRACE_OBJ_CREATE("finished");
 1963              		.loc 1 400 5 is_stmt 1 view .LVU639
 400:Drivers/lvgl/src/widgets/lv_btnmatrix.c ****     LV_TRACE_OBJ_CREATE("finished");
 1964              		.loc 1 400 21 is_stmt 0 view .LVU640
 1965 0014 E362     		str	r3, [r4, #44]
 401:Drivers/lvgl/src/widgets/lv_btnmatrix.c **** }
 1966              		.loc 1 401 36 is_stmt 1 view .LVU641
 402:Drivers/lvgl/src/widgets/lv_btnmatrix.c **** 
 1967              		.loc 1 402 1 is_stmt 0 view .LVU642
 1968 0016 10BD     		pop	{r4, pc}
 402:Drivers/lvgl/src/widgets/lv_btnmatrix.c **** 
 1969              		.loc 1 402 1 view .LVU643
 1970              		.cfi_endproc
 1971              	.LFE177:
 1973              		.section	.text.allocate_btn_areas_and_controls,"ax",%progbits
 1974              		.align	1
 1975              		.syntax unified
 1976              		.thumb
 1977              		.thumb_func
 1979              	allocate_btn_areas_and_controls:
 1980              	.LVL172:
ARM GAS  /var/folders/0z/tsy30v1j4xl4_7kw94k978ww0000gn/T//ccZBZI6H.s 			page 68


 1981              	.LFB180:
 858:Drivers/lvgl/src/widgets/lv_btnmatrix.c ****     lv_btnmatrix_t * btnm = (lv_btnmatrix_t *)obj;
 1982              		.loc 1 858 1 is_stmt 1 view -0
 1983              		.cfi_startproc
 1984              		@ args = 0, pretend = 0, frame = 0
 1985              		@ frame_needed = 0, uses_anonymous_args = 0
 858:Drivers/lvgl/src/widgets/lv_btnmatrix.c ****     lv_btnmatrix_t * btnm = (lv_btnmatrix_t *)obj;
 1986              		.loc 1 858 1 is_stmt 0 view .LVU645
 1987 0000 F8B5     		push	{r3, r4, r5, r6, r7, lr}
 1988              		.cfi_def_cfa_offset 24
 1989              		.cfi_offset 3, -24
 1990              		.cfi_offset 4, -20
 1991              		.cfi_offset 5, -16
 1992              		.cfi_offset 6, -12
 1993              		.cfi_offset 7, -8
 1994              		.cfi_offset 14, -4
 1995 0002 0646     		mov	r6, r0
 1996 0004 0F46     		mov	r7, r1
 859:Drivers/lvgl/src/widgets/lv_btnmatrix.c ****     btnm->row_cnt = 1;
 1997              		.loc 1 859 5 is_stmt 1 view .LVU646
 1998              	.LVL173:
 860:Drivers/lvgl/src/widgets/lv_btnmatrix.c ****     /*Count the buttons in the map*/
 1999              		.loc 1 860 5 view .LVU647
 860:Drivers/lvgl/src/widgets/lv_btnmatrix.c ****     /*Count the buttons in the map*/
 2000              		.loc 1 860 19 is_stmt 0 view .LVU648
 2001 0006 0123     		movs	r3, #1
 2002 0008 4386     		strh	r3, [r0, #50]	@ movhi
 862:Drivers/lvgl/src/widgets/lv_btnmatrix.c ****     uint16_t i       = 0;
 2003              		.loc 1 862 5 is_stmt 1 view .LVU649
 2004              	.LVL174:
 863:Drivers/lvgl/src/widgets/lv_btnmatrix.c ****     while(map[i] && map[i][0] != '\0') {
 2005              		.loc 1 863 5 view .LVU650
 864:Drivers/lvgl/src/widgets/lv_btnmatrix.c ****         if(strcmp(map[i], "\n") != 0) { /*Do not count line breaks*/
 2006              		.loc 1 864 5 view .LVU651
 863:Drivers/lvgl/src/widgets/lv_btnmatrix.c ****     while(map[i] && map[i][0] != '\0') {
 2007              		.loc 1 863 14 is_stmt 0 view .LVU652
 2008 000a 0024     		movs	r4, #0
 862:Drivers/lvgl/src/widgets/lv_btnmatrix.c ****     uint16_t i       = 0;
 2009              		.loc 1 862 14 view .LVU653
 2010 000c 2546     		mov	r5, r4
 864:Drivers/lvgl/src/widgets/lv_btnmatrix.c ****         if(strcmp(map[i], "\n") != 0) { /*Do not count line breaks*/
 2011              		.loc 1 864 10 view .LVU654
 2012 000e 04E0     		b	.L91
 2013              	.LVL175:
 2014              	.L92:
 869:Drivers/lvgl/src/widgets/lv_btnmatrix.c ****         }
 2015              		.loc 1 869 13 is_stmt 1 view .LVU655
 869:Drivers/lvgl/src/widgets/lv_btnmatrix.c ****         }
 2016              		.loc 1 869 17 is_stmt 0 view .LVU656
 2017 0010 738E     		ldrh	r3, [r6, #50]
 869:Drivers/lvgl/src/widgets/lv_btnmatrix.c ****         }
 2018              		.loc 1 869 26 view .LVU657
 2019 0012 0133     		adds	r3, r3, #1
 2020 0014 7386     		strh	r3, [r6, #50]	@ movhi
 2021              	.L93:
 871:Drivers/lvgl/src/widgets/lv_btnmatrix.c ****     }
 2022              		.loc 1 871 9 is_stmt 1 view .LVU658
ARM GAS  /var/folders/0z/tsy30v1j4xl4_7kw94k978ww0000gn/T//ccZBZI6H.s 			page 69


 871:Drivers/lvgl/src/widgets/lv_btnmatrix.c ****     }
 2023              		.loc 1 871 10 is_stmt 0 view .LVU659
 2024 0016 0134     		adds	r4, r4, #1
 2025              	.LVL176:
 871:Drivers/lvgl/src/widgets/lv_btnmatrix.c ****     }
 2026              		.loc 1 871 10 view .LVU660
 2027 0018 A4B2     		uxth	r4, r4
 2028              	.LVL177:
 2029              	.L91:
 864:Drivers/lvgl/src/widgets/lv_btnmatrix.c ****         if(strcmp(map[i], "\n") != 0) { /*Do not count line breaks*/
 2030              		.loc 1 864 18 is_stmt 1 view .LVU661
 864:Drivers/lvgl/src/widgets/lv_btnmatrix.c ****         if(strcmp(map[i], "\n") != 0) { /*Do not count line breaks*/
 2031              		.loc 1 864 14 is_stmt 0 view .LVU662
 2032 001a 57F82400 		ldr	r0, [r7, r4, lsl #2]
 864:Drivers/lvgl/src/widgets/lv_btnmatrix.c ****         if(strcmp(map[i], "\n") != 0) { /*Do not count line breaks*/
 2033              		.loc 1 864 18 view .LVU663
 2034 001e 48B1     		cbz	r0, .L94
 864:Drivers/lvgl/src/widgets/lv_btnmatrix.c ****         if(strcmp(map[i], "\n") != 0) { /*Do not count line breaks*/
 2035              		.loc 1 864 27 discriminator 1 view .LVU664
 2036 0020 0378     		ldrb	r3, [r0]	@ zero_extendqisi2
 864:Drivers/lvgl/src/widgets/lv_btnmatrix.c ****         if(strcmp(map[i], "\n") != 0) { /*Do not count line breaks*/
 2037              		.loc 1 864 18 discriminator 1 view .LVU665
 2038 0022 3BB1     		cbz	r3, .L94
 865:Drivers/lvgl/src/widgets/lv_btnmatrix.c ****             btn_cnt++;
 2039              		.loc 1 865 9 is_stmt 1 view .LVU666
 865:Drivers/lvgl/src/widgets/lv_btnmatrix.c ****             btn_cnt++;
 2040              		.loc 1 865 12 is_stmt 0 view .LVU667
 2041 0024 1549     		ldr	r1, .L107
 2042 0026 FFF7FEFF 		bl	strcmp
 2043              	.LVL178:
 865:Drivers/lvgl/src/widgets/lv_btnmatrix.c ****             btn_cnt++;
 2044              		.loc 1 865 11 view .LVU668
 2045 002a 0028     		cmp	r0, #0
 2046 002c F0D0     		beq	.L92
 866:Drivers/lvgl/src/widgets/lv_btnmatrix.c ****         }
 2047              		.loc 1 866 13 is_stmt 1 view .LVU669
 866:Drivers/lvgl/src/widgets/lv_btnmatrix.c ****         }
 2048              		.loc 1 866 20 is_stmt 0 view .LVU670
 2049 002e 0135     		adds	r5, r5, #1
 2050              	.LVL179:
 866:Drivers/lvgl/src/widgets/lv_btnmatrix.c ****         }
 2051              		.loc 1 866 20 view .LVU671
 2052 0030 ADB2     		uxth	r5, r5
 2053              	.LVL180:
 866:Drivers/lvgl/src/widgets/lv_btnmatrix.c ****         }
 2054              		.loc 1 866 20 view .LVU672
 2055 0032 F0E7     		b	.L93
 2056              	.L94:
 875:Drivers/lvgl/src/widgets/lv_btnmatrix.c **** 
 2057              		.loc 1 875 5 is_stmt 1 view .LVU673
 875:Drivers/lvgl/src/widgets/lv_btnmatrix.c **** 
 2058              		.loc 1 875 23 is_stmt 0 view .LVU674
 2059 0034 338E     		ldrh	r3, [r6, #48]
 875:Drivers/lvgl/src/widgets/lv_btnmatrix.c **** 
 2060              		.loc 1 875 7 view .LVU675
 2061 0036 AB42     		cmp	r3, r5
 2062 0038 1BD0     		beq	.L90
ARM GAS  /var/folders/0z/tsy30v1j4xl4_7kw94k978ww0000gn/T//ccZBZI6H.s 			page 70


 877:Drivers/lvgl/src/widgets/lv_btnmatrix.c ****         lv_mem_free(btnm->button_areas);
 2063              		.loc 1 877 5 is_stmt 1 view .LVU676
 877:Drivers/lvgl/src/widgets/lv_btnmatrix.c ****         lv_mem_free(btnm->button_areas);
 2064              		.loc 1 877 12 is_stmt 0 view .LVU677
 2065 003a B06A     		ldr	r0, [r6, #40]
 877:Drivers/lvgl/src/widgets/lv_btnmatrix.c ****         lv_mem_free(btnm->button_areas);
 2066              		.loc 1 877 7 view .LVU678
 2067 003c 18B1     		cbz	r0, .L97
 878:Drivers/lvgl/src/widgets/lv_btnmatrix.c ****         btnm->button_areas = NULL;
 2068              		.loc 1 878 9 is_stmt 1 view .LVU679
 2069 003e FFF7FEFF 		bl	lv_mem_free
 2070              	.LVL181:
 879:Drivers/lvgl/src/widgets/lv_btnmatrix.c ****     }
 2071              		.loc 1 879 9 view .LVU680
 879:Drivers/lvgl/src/widgets/lv_btnmatrix.c ****     }
 2072              		.loc 1 879 28 is_stmt 0 view .LVU681
 2073 0042 0023     		movs	r3, #0
 2074 0044 B362     		str	r3, [r6, #40]
 2075              	.L97:
 881:Drivers/lvgl/src/widgets/lv_btnmatrix.c ****         lv_mem_free(btnm->ctrl_bits);
 2076              		.loc 1 881 5 is_stmt 1 view .LVU682
 881:Drivers/lvgl/src/widgets/lv_btnmatrix.c ****         lv_mem_free(btnm->ctrl_bits);
 2077              		.loc 1 881 12 is_stmt 0 view .LVU683
 2078 0046 F06A     		ldr	r0, [r6, #44]
 881:Drivers/lvgl/src/widgets/lv_btnmatrix.c ****         lv_mem_free(btnm->ctrl_bits);
 2079              		.loc 1 881 7 view .LVU684
 2080 0048 18B1     		cbz	r0, .L98
 882:Drivers/lvgl/src/widgets/lv_btnmatrix.c ****         btnm->ctrl_bits = NULL;
 2081              		.loc 1 882 9 is_stmt 1 view .LVU685
 2082 004a FFF7FEFF 		bl	lv_mem_free
 2083              	.LVL182:
 883:Drivers/lvgl/src/widgets/lv_btnmatrix.c ****     }
 2084              		.loc 1 883 9 view .LVU686
 883:Drivers/lvgl/src/widgets/lv_btnmatrix.c ****     }
 2085              		.loc 1 883 25 is_stmt 0 view .LVU687
 2086 004e 0023     		movs	r3, #0
 2087 0050 F362     		str	r3, [r6, #44]
 2088              	.L98:
 886:Drivers/lvgl/src/widgets/lv_btnmatrix.c ****     LV_ASSERT_MALLOC(btnm->button_areas);
 2089              		.loc 1 886 5 is_stmt 1 view .LVU688
 886:Drivers/lvgl/src/widgets/lv_btnmatrix.c ****     LV_ASSERT_MALLOC(btnm->button_areas);
 2090              		.loc 1 886 26 is_stmt 0 view .LVU689
 2091 0052 E800     		lsls	r0, r5, #3
 2092 0054 FFF7FEFF 		bl	lv_mem_alloc
 2093              	.LVL183:
 886:Drivers/lvgl/src/widgets/lv_btnmatrix.c ****     LV_ASSERT_MALLOC(btnm->button_areas);
 2094              		.loc 1 886 24 view .LVU690
 2095 0058 B062     		str	r0, [r6, #40]
 887:Drivers/lvgl/src/widgets/lv_btnmatrix.c ****     btnm->ctrl_bits = lv_mem_alloc(sizeof(lv_btnmatrix_ctrl_t) * btn_cnt);
 2096              		.loc 1 887 5 is_stmt 1 view .LVU691
 887:Drivers/lvgl/src/widgets/lv_btnmatrix.c ****     btnm->ctrl_bits = lv_mem_alloc(sizeof(lv_btnmatrix_ctrl_t) * btn_cnt);
 2097              		.loc 1 887 5 view .LVU692
 2098 005a 58B1     		cbz	r0, .L100
 887:Drivers/lvgl/src/widgets/lv_btnmatrix.c ****     btnm->ctrl_bits = lv_mem_alloc(sizeof(lv_btnmatrix_ctrl_t) * btn_cnt);
 2099              		.loc 1 887 5 discriminator 2 view .LVU693
 887:Drivers/lvgl/src/widgets/lv_btnmatrix.c ****     btnm->ctrl_bits = lv_mem_alloc(sizeof(lv_btnmatrix_ctrl_t) * btn_cnt);
 2100              		.loc 1 887 41 discriminator 2 view .LVU694
ARM GAS  /var/folders/0z/tsy30v1j4xl4_7kw94k978ww0000gn/T//ccZBZI6H.s 			page 71


 888:Drivers/lvgl/src/widgets/lv_btnmatrix.c ****     LV_ASSERT_MALLOC(btnm->ctrl_bits);
 2101              		.loc 1 888 5 discriminator 2 view .LVU695
 888:Drivers/lvgl/src/widgets/lv_btnmatrix.c ****     LV_ASSERT_MALLOC(btnm->ctrl_bits);
 2102              		.loc 1 888 23 is_stmt 0 discriminator 2 view .LVU696
 2103 005c 6800     		lsls	r0, r5, #1
 2104 005e FFF7FEFF 		bl	lv_mem_alloc
 2105              	.LVL184:
 888:Drivers/lvgl/src/widgets/lv_btnmatrix.c ****     LV_ASSERT_MALLOC(btnm->ctrl_bits);
 2106              		.loc 1 888 21 discriminator 2 view .LVU697
 2107 0062 F062     		str	r0, [r6, #44]
 889:Drivers/lvgl/src/widgets/lv_btnmatrix.c ****     if(btnm->button_areas == NULL || btnm->ctrl_bits == NULL) btn_cnt = 0;
 2108              		.loc 1 889 5 is_stmt 1 discriminator 2 view .LVU698
 889:Drivers/lvgl/src/widgets/lv_btnmatrix.c ****     if(btnm->button_areas == NULL || btnm->ctrl_bits == NULL) btn_cnt = 0;
 2109              		.loc 1 889 5 discriminator 2 view .LVU699
 2110 0064 38B1     		cbz	r0, .L102
 889:Drivers/lvgl/src/widgets/lv_btnmatrix.c ****     if(btnm->button_areas == NULL || btnm->ctrl_bits == NULL) btn_cnt = 0;
 2111              		.loc 1 889 5 discriminator 2 view .LVU700
 889:Drivers/lvgl/src/widgets/lv_btnmatrix.c ****     if(btnm->button_areas == NULL || btnm->ctrl_bits == NULL) btn_cnt = 0;
 2112              		.loc 1 889 38 discriminator 2 view .LVU701
 890:Drivers/lvgl/src/widgets/lv_btnmatrix.c **** 
 2113              		.loc 1 890 5 discriminator 2 view .LVU702
 890:Drivers/lvgl/src/widgets/lv_btnmatrix.c **** 
 2114              		.loc 1 890 12 is_stmt 0 discriminator 2 view .LVU703
 2115 0066 B36A     		ldr	r3, [r6, #40]
 890:Drivers/lvgl/src/widgets/lv_btnmatrix.c **** 
 2116              		.loc 1 890 7 discriminator 2 view .LVU704
 2117 0068 33B1     		cbz	r3, .L106
 2118              	.LVL185:
 2119              	.L103:
 892:Drivers/lvgl/src/widgets/lv_btnmatrix.c **** 
 2120              		.loc 1 892 5 is_stmt 1 view .LVU705
 2121 006a 6900     		lsls	r1, r5, #1
 2122 006c FFF7FEFF 		bl	lv_memset_00
 2123              	.LVL186:
 894:Drivers/lvgl/src/widgets/lv_btnmatrix.c **** }
 2124              		.loc 1 894 5 view .LVU706
 894:Drivers/lvgl/src/widgets/lv_btnmatrix.c **** }
 2125              		.loc 1 894 19 is_stmt 0 view .LVU707
 2126 0070 3586     		strh	r5, [r6, #48]	@ movhi
 2127              	.L90:
 895:Drivers/lvgl/src/widgets/lv_btnmatrix.c **** 
 2128              		.loc 1 895 1 view .LVU708
 2129 0072 F8BD     		pop	{r3, r4, r5, r6, r7, pc}
 2130              	.LVL187:
 2131              	.L100:
 887:Drivers/lvgl/src/widgets/lv_btnmatrix.c ****     btnm->ctrl_bits = lv_mem_alloc(sizeof(lv_btnmatrix_ctrl_t) * btn_cnt);
 2132              		.loc 1 887 5 is_stmt 1 discriminator 1 view .LVU709
 887:Drivers/lvgl/src/widgets/lv_btnmatrix.c ****     btnm->ctrl_bits = lv_mem_alloc(sizeof(lv_btnmatrix_ctrl_t) * btn_cnt);
 2133              		.loc 1 887 5 discriminator 1 view .LVU710
 887:Drivers/lvgl/src/widgets/lv_btnmatrix.c ****     btnm->ctrl_bits = lv_mem_alloc(sizeof(lv_btnmatrix_ctrl_t) * btn_cnt);
 2134              		.loc 1 887 5 discriminator 1 view .LVU711
 887:Drivers/lvgl/src/widgets/lv_btnmatrix.c ****     btnm->ctrl_bits = lv_mem_alloc(sizeof(lv_btnmatrix_ctrl_t) * btn_cnt);
 2135              		.loc 1 887 5 discriminator 1 view .LVU712
 887:Drivers/lvgl/src/widgets/lv_btnmatrix.c ****     btnm->ctrl_bits = lv_mem_alloc(sizeof(lv_btnmatrix_ctrl_t) * btn_cnt);
 2136              		.loc 1 887 5 discriminator 1 view .LVU713
 2137 0074 FEE7     		b	.L100
 2138              	.L102:
ARM GAS  /var/folders/0z/tsy30v1j4xl4_7kw94k978ww0000gn/T//ccZBZI6H.s 			page 72


 889:Drivers/lvgl/src/widgets/lv_btnmatrix.c ****     if(btnm->button_areas == NULL || btnm->ctrl_bits == NULL) btn_cnt = 0;
 2139              		.loc 1 889 5 discriminator 2 view .LVU714
 889:Drivers/lvgl/src/widgets/lv_btnmatrix.c ****     if(btnm->button_areas == NULL || btnm->ctrl_bits == NULL) btn_cnt = 0;
 2140              		.loc 1 889 5 discriminator 2 view .LVU715
 889:Drivers/lvgl/src/widgets/lv_btnmatrix.c ****     if(btnm->button_areas == NULL || btnm->ctrl_bits == NULL) btn_cnt = 0;
 2141              		.loc 1 889 5 discriminator 2 view .LVU716
 889:Drivers/lvgl/src/widgets/lv_btnmatrix.c ****     if(btnm->button_areas == NULL || btnm->ctrl_bits == NULL) btn_cnt = 0;
 2142              		.loc 1 889 5 discriminator 2 view .LVU717
 889:Drivers/lvgl/src/widgets/lv_btnmatrix.c ****     if(btnm->button_areas == NULL || btnm->ctrl_bits == NULL) btn_cnt = 0;
 2143              		.loc 1 889 5 discriminator 2 view .LVU718
 2144 0076 FEE7     		b	.L102
 2145              	.L106:
 890:Drivers/lvgl/src/widgets/lv_btnmatrix.c **** 
 2146              		.loc 1 890 71 is_stmt 0 view .LVU719
 2147 0078 0025     		movs	r5, #0
 2148              	.LVL188:
 890:Drivers/lvgl/src/widgets/lv_btnmatrix.c **** 
 2149              		.loc 1 890 71 view .LVU720
 2150 007a F6E7     		b	.L103
 2151              	.L108:
 2152              		.align	2
 2153              	.L107:
 2154 007c 00000000 		.word	.LC0
 2155              		.cfi_endproc
 2156              	.LFE180:
 2158              		.section	.text.lv_btnmatrix_create,"ax",%progbits
 2159              		.align	1
 2160              		.global	lv_btnmatrix_create
 2161              		.syntax unified
 2162              		.thumb
 2163              		.thumb_func
 2165              	lv_btnmatrix_create:
 2166              	.LVL189:
 2167              	.LFB161:
  82:Drivers/lvgl/src/widgets/lv_btnmatrix.c ****     LV_LOG_INFO("begin");
 2168              		.loc 1 82 1 is_stmt 1 view -0
 2169              		.cfi_startproc
 2170              		@ args = 0, pretend = 0, frame = 0
 2171              		@ frame_needed = 0, uses_anonymous_args = 0
  82:Drivers/lvgl/src/widgets/lv_btnmatrix.c ****     LV_LOG_INFO("begin");
 2172              		.loc 1 82 1 is_stmt 0 view .LVU722
 2173 0000 10B5     		push	{r4, lr}
 2174              		.cfi_def_cfa_offset 8
 2175              		.cfi_offset 4, -8
 2176              		.cfi_offset 14, -4
 2177 0002 0146     		mov	r1, r0
  83:Drivers/lvgl/src/widgets/lv_btnmatrix.c ****     lv_obj_t * obj = lv_obj_class_create_obj(MY_CLASS, parent);
 2178              		.loc 1 83 5 is_stmt 1 view .LVU723
  83:Drivers/lvgl/src/widgets/lv_btnmatrix.c ****     lv_obj_t * obj = lv_obj_class_create_obj(MY_CLASS, parent);
 2179              		.loc 1 83 5 view .LVU724
  83:Drivers/lvgl/src/widgets/lv_btnmatrix.c ****     lv_obj_t * obj = lv_obj_class_create_obj(MY_CLASS, parent);
 2180              		.loc 1 83 5 view .LVU725
  84:Drivers/lvgl/src/widgets/lv_btnmatrix.c ****     lv_obj_class_init_obj(obj);
 2181              		.loc 1 84 5 view .LVU726
  84:Drivers/lvgl/src/widgets/lv_btnmatrix.c ****     lv_obj_class_init_obj(obj);
 2182              		.loc 1 84 22 is_stmt 0 view .LVU727
 2183 0004 0348     		ldr	r0, .L111
ARM GAS  /var/folders/0z/tsy30v1j4xl4_7kw94k978ww0000gn/T//ccZBZI6H.s 			page 73


 2184              	.LVL190:
  84:Drivers/lvgl/src/widgets/lv_btnmatrix.c ****     lv_obj_class_init_obj(obj);
 2185              		.loc 1 84 22 view .LVU728
 2186 0006 FFF7FEFF 		bl	lv_obj_class_create_obj
 2187              	.LVL191:
  84:Drivers/lvgl/src/widgets/lv_btnmatrix.c ****     lv_obj_class_init_obj(obj);
 2188              		.loc 1 84 22 view .LVU729
 2189 000a 0446     		mov	r4, r0
 2190              	.LVL192:
  85:Drivers/lvgl/src/widgets/lv_btnmatrix.c ****     return obj;
 2191              		.loc 1 85 5 is_stmt 1 view .LVU730
 2192 000c FFF7FEFF 		bl	lv_obj_class_init_obj
 2193              	.LVL193:
  86:Drivers/lvgl/src/widgets/lv_btnmatrix.c **** }
 2194              		.loc 1 86 5 view .LVU731
  87:Drivers/lvgl/src/widgets/lv_btnmatrix.c **** 
 2195              		.loc 1 87 1 is_stmt 0 view .LVU732
 2196 0010 2046     		mov	r0, r4
 2197 0012 10BD     		pop	{r4, pc}
 2198              	.LVL194:
 2199              	.L112:
  87:Drivers/lvgl/src/widgets/lv_btnmatrix.c **** 
 2200              		.loc 1 87 1 view .LVU733
 2201              		.align	2
 2202              	.L111:
 2203 0014 00000000 		.word	.LANCHOR0
 2204              		.cfi_endproc
 2205              	.LFE161:
 2207              		.section	.text.lv_btnmatrix_set_map,"ax",%progbits
 2208              		.align	1
 2209              		.global	lv_btnmatrix_set_map
 2210              		.syntax unified
 2211              		.thumb
 2212              		.thumb_func
 2214              	lv_btnmatrix_set_map:
 2215              	.LVL195:
 2216              	.LFB162:
  94:Drivers/lvgl/src/widgets/lv_btnmatrix.c ****     LV_ASSERT_OBJ(obj, MY_CLASS);
 2217              		.loc 1 94 1 is_stmt 1 view -0
 2218              		.cfi_startproc
 2219              		@ args = 0, pretend = 0, frame = 56
 2220              		@ frame_needed = 0, uses_anonymous_args = 0
  95:Drivers/lvgl/src/widgets/lv_btnmatrix.c ****     if(map == NULL) return;
 2221              		.loc 1 95 5 view .LVU735
  95:Drivers/lvgl/src/widgets/lv_btnmatrix.c ****     if(map == NULL) return;
 2222              		.loc 1 95 5 view .LVU736
  95:Drivers/lvgl/src/widgets/lv_btnmatrix.c ****     if(map == NULL) return;
 2223              		.loc 1 95 5 view .LVU737
  96:Drivers/lvgl/src/widgets/lv_btnmatrix.c **** 
 2224              		.loc 1 96 5 view .LVU738
  96:Drivers/lvgl/src/widgets/lv_btnmatrix.c **** 
 2225              		.loc 1 96 7 is_stmt 0 view .LVU739
 2226 0000 0029     		cmp	r1, #0
 2227 0002 00F0DE80 		beq	.L128
  94:Drivers/lvgl/src/widgets/lv_btnmatrix.c ****     LV_ASSERT_OBJ(obj, MY_CLASS);
 2228              		.loc 1 94 1 view .LVU740
 2229 0006 2DE9F04F 		push	{r4, r5, r6, r7, r8, r9, r10, fp, lr}
ARM GAS  /var/folders/0z/tsy30v1j4xl4_7kw94k978ww0000gn/T//ccZBZI6H.s 			page 74


 2230              		.cfi_def_cfa_offset 36
 2231              		.cfi_offset 4, -36
 2232              		.cfi_offset 5, -32
 2233              		.cfi_offset 6, -28
 2234              		.cfi_offset 7, -24
 2235              		.cfi_offset 8, -20
 2236              		.cfi_offset 9, -16
 2237              		.cfi_offset 10, -12
 2238              		.cfi_offset 11, -8
 2239              		.cfi_offset 14, -4
 2240 000a 91B0     		sub	sp, sp, #68
 2241              		.cfi_def_cfa_offset 104
 2242 000c 8346     		mov	fp, r0
 2243 000e 8A46     		mov	r10, r1
  98:Drivers/lvgl/src/widgets/lv_btnmatrix.c **** 
 2244              		.loc 1 98 5 is_stmt 1 view .LVU741
 2245              	.LVL196:
 101:Drivers/lvgl/src/widgets/lv_btnmatrix.c ****     btnm->map_p = map;
 2246              		.loc 1 101 5 view .LVU742
 2247 0010 FFF7FEFF 		bl	allocate_btn_areas_and_controls
 2248              	.LVL197:
 102:Drivers/lvgl/src/widgets/lv_btnmatrix.c **** 
 2249              		.loc 1 102 5 view .LVU743
 102:Drivers/lvgl/src/widgets/lv_btnmatrix.c **** 
 2250              		.loc 1 102 17 is_stmt 0 view .LVU744
 2251 0014 CBF824A0 		str	r10, [fp, #36]
 104:Drivers/lvgl/src/widgets/lv_btnmatrix.c **** 
 2252              		.loc 1 104 5 is_stmt 1 view .LVU745
 2253              	.LVL198:
 2254              	.LBB123:
 2255              	.LBI123:
 137:Drivers/lvgl/src/widgets/../core/lv_obj_style_gen.h **** }
 138:Drivers/lvgl/src/widgets/../core/lv_obj_style_gen.h **** 
 139:Drivers/lvgl/src/widgets/../core/lv_obj_style_gen.h **** static inline lv_color_t lv_obj_get_style_bg_color(const struct _lv_obj_t * obj, uint32_t part)
 140:Drivers/lvgl/src/widgets/../core/lv_obj_style_gen.h **** {
 141:Drivers/lvgl/src/widgets/../core/lv_obj_style_gen.h ****     lv_style_value_t v = lv_obj_get_style_prop(obj, part, LV_STYLE_BG_COLOR);
 142:Drivers/lvgl/src/widgets/../core/lv_obj_style_gen.h ****     return v.color;
 143:Drivers/lvgl/src/widgets/../core/lv_obj_style_gen.h **** }
 144:Drivers/lvgl/src/widgets/../core/lv_obj_style_gen.h **** 
 145:Drivers/lvgl/src/widgets/../core/lv_obj_style_gen.h **** static inline lv_color_t lv_obj_get_style_bg_color_filtered(const struct _lv_obj_t * obj, uint32_t 
 146:Drivers/lvgl/src/widgets/../core/lv_obj_style_gen.h **** {
 147:Drivers/lvgl/src/widgets/../core/lv_obj_style_gen.h ****     lv_style_value_t v = _lv_obj_style_apply_color_filter(obj, part, lv_obj_get_style_prop(obj, par
 148:Drivers/lvgl/src/widgets/../core/lv_obj_style_gen.h ****     return v.color;
 149:Drivers/lvgl/src/widgets/../core/lv_obj_style_gen.h **** }
 150:Drivers/lvgl/src/widgets/../core/lv_obj_style_gen.h **** 
 151:Drivers/lvgl/src/widgets/../core/lv_obj_style_gen.h **** static inline lv_opa_t lv_obj_get_style_bg_opa(const struct _lv_obj_t * obj, uint32_t part)
 152:Drivers/lvgl/src/widgets/../core/lv_obj_style_gen.h **** {
 153:Drivers/lvgl/src/widgets/../core/lv_obj_style_gen.h ****     lv_style_value_t v = lv_obj_get_style_prop(obj, part, LV_STYLE_BG_OPA);
 154:Drivers/lvgl/src/widgets/../core/lv_obj_style_gen.h ****     return (lv_opa_t)v.num;
 155:Drivers/lvgl/src/widgets/../core/lv_obj_style_gen.h **** }
 156:Drivers/lvgl/src/widgets/../core/lv_obj_style_gen.h **** 
 157:Drivers/lvgl/src/widgets/../core/lv_obj_style_gen.h **** static inline lv_color_t lv_obj_get_style_bg_grad_color(const struct _lv_obj_t * obj, uint32_t part
 158:Drivers/lvgl/src/widgets/../core/lv_obj_style_gen.h **** {
 159:Drivers/lvgl/src/widgets/../core/lv_obj_style_gen.h ****     lv_style_value_t v = lv_obj_get_style_prop(obj, part, LV_STYLE_BG_GRAD_COLOR);
 160:Drivers/lvgl/src/widgets/../core/lv_obj_style_gen.h ****     return v.color;
 161:Drivers/lvgl/src/widgets/../core/lv_obj_style_gen.h **** }
 162:Drivers/lvgl/src/widgets/../core/lv_obj_style_gen.h **** 
ARM GAS  /var/folders/0z/tsy30v1j4xl4_7kw94k978ww0000gn/T//ccZBZI6H.s 			page 75


 163:Drivers/lvgl/src/widgets/../core/lv_obj_style_gen.h **** static inline lv_color_t lv_obj_get_style_bg_grad_color_filtered(const struct _lv_obj_t * obj, uint
 164:Drivers/lvgl/src/widgets/../core/lv_obj_style_gen.h **** {
 165:Drivers/lvgl/src/widgets/../core/lv_obj_style_gen.h ****     lv_style_value_t v = _lv_obj_style_apply_color_filter(obj, part, lv_obj_get_style_prop(obj, par
 166:Drivers/lvgl/src/widgets/../core/lv_obj_style_gen.h ****     return v.color;
 167:Drivers/lvgl/src/widgets/../core/lv_obj_style_gen.h **** }
 168:Drivers/lvgl/src/widgets/../core/lv_obj_style_gen.h **** 
 169:Drivers/lvgl/src/widgets/../core/lv_obj_style_gen.h **** static inline lv_grad_dir_t lv_obj_get_style_bg_grad_dir(const struct _lv_obj_t * obj, uint32_t par
 170:Drivers/lvgl/src/widgets/../core/lv_obj_style_gen.h **** {
 171:Drivers/lvgl/src/widgets/../core/lv_obj_style_gen.h ****     lv_style_value_t v = lv_obj_get_style_prop(obj, part, LV_STYLE_BG_GRAD_DIR);
 172:Drivers/lvgl/src/widgets/../core/lv_obj_style_gen.h ****     return (lv_grad_dir_t)v.num;
 173:Drivers/lvgl/src/widgets/../core/lv_obj_style_gen.h **** }
 174:Drivers/lvgl/src/widgets/../core/lv_obj_style_gen.h **** 
 175:Drivers/lvgl/src/widgets/../core/lv_obj_style_gen.h **** static inline lv_coord_t lv_obj_get_style_bg_main_stop(const struct _lv_obj_t * obj, uint32_t part)
 176:Drivers/lvgl/src/widgets/../core/lv_obj_style_gen.h **** {
 177:Drivers/lvgl/src/widgets/../core/lv_obj_style_gen.h ****     lv_style_value_t v = lv_obj_get_style_prop(obj, part, LV_STYLE_BG_MAIN_STOP);
 178:Drivers/lvgl/src/widgets/../core/lv_obj_style_gen.h ****     return (lv_coord_t)v.num;
 179:Drivers/lvgl/src/widgets/../core/lv_obj_style_gen.h **** }
 180:Drivers/lvgl/src/widgets/../core/lv_obj_style_gen.h **** 
 181:Drivers/lvgl/src/widgets/../core/lv_obj_style_gen.h **** static inline lv_coord_t lv_obj_get_style_bg_grad_stop(const struct _lv_obj_t * obj, uint32_t part)
 182:Drivers/lvgl/src/widgets/../core/lv_obj_style_gen.h **** {
 183:Drivers/lvgl/src/widgets/../core/lv_obj_style_gen.h ****     lv_style_value_t v = lv_obj_get_style_prop(obj, part, LV_STYLE_BG_GRAD_STOP);
 184:Drivers/lvgl/src/widgets/../core/lv_obj_style_gen.h ****     return (lv_coord_t)v.num;
 185:Drivers/lvgl/src/widgets/../core/lv_obj_style_gen.h **** }
 186:Drivers/lvgl/src/widgets/../core/lv_obj_style_gen.h **** 
 187:Drivers/lvgl/src/widgets/../core/lv_obj_style_gen.h **** static inline const lv_grad_dsc_t * lv_obj_get_style_bg_grad(const struct _lv_obj_t * obj, uint32_t
 188:Drivers/lvgl/src/widgets/../core/lv_obj_style_gen.h **** {
 189:Drivers/lvgl/src/widgets/../core/lv_obj_style_gen.h ****     lv_style_value_t v = lv_obj_get_style_prop(obj, part, LV_STYLE_BG_GRAD);
 190:Drivers/lvgl/src/widgets/../core/lv_obj_style_gen.h ****     return (const lv_grad_dsc_t *)v.ptr;
 191:Drivers/lvgl/src/widgets/../core/lv_obj_style_gen.h **** }
 192:Drivers/lvgl/src/widgets/../core/lv_obj_style_gen.h **** 
 193:Drivers/lvgl/src/widgets/../core/lv_obj_style_gen.h **** static inline lv_dither_mode_t lv_obj_get_style_bg_dither_mode(const struct _lv_obj_t * obj, uint32
 194:Drivers/lvgl/src/widgets/../core/lv_obj_style_gen.h **** {
 195:Drivers/lvgl/src/widgets/../core/lv_obj_style_gen.h ****     lv_style_value_t v = lv_obj_get_style_prop(obj, part, LV_STYLE_BG_DITHER_MODE);
 196:Drivers/lvgl/src/widgets/../core/lv_obj_style_gen.h ****     return (lv_dither_mode_t)v.num;
 197:Drivers/lvgl/src/widgets/../core/lv_obj_style_gen.h **** }
 198:Drivers/lvgl/src/widgets/../core/lv_obj_style_gen.h **** 
 199:Drivers/lvgl/src/widgets/../core/lv_obj_style_gen.h **** static inline const void * lv_obj_get_style_bg_img_src(const struct _lv_obj_t * obj, uint32_t part)
 200:Drivers/lvgl/src/widgets/../core/lv_obj_style_gen.h **** {
 201:Drivers/lvgl/src/widgets/../core/lv_obj_style_gen.h ****     lv_style_value_t v = lv_obj_get_style_prop(obj, part, LV_STYLE_BG_IMG_SRC);
 202:Drivers/lvgl/src/widgets/../core/lv_obj_style_gen.h ****     return (const void *)v.ptr;
 203:Drivers/lvgl/src/widgets/../core/lv_obj_style_gen.h **** }
 204:Drivers/lvgl/src/widgets/../core/lv_obj_style_gen.h **** 
 205:Drivers/lvgl/src/widgets/../core/lv_obj_style_gen.h **** static inline lv_opa_t lv_obj_get_style_bg_img_opa(const struct _lv_obj_t * obj, uint32_t part)
 206:Drivers/lvgl/src/widgets/../core/lv_obj_style_gen.h **** {
 207:Drivers/lvgl/src/widgets/../core/lv_obj_style_gen.h ****     lv_style_value_t v = lv_obj_get_style_prop(obj, part, LV_STYLE_BG_IMG_OPA);
 208:Drivers/lvgl/src/widgets/../core/lv_obj_style_gen.h ****     return (lv_opa_t)v.num;
 209:Drivers/lvgl/src/widgets/../core/lv_obj_style_gen.h **** }
 210:Drivers/lvgl/src/widgets/../core/lv_obj_style_gen.h **** 
 211:Drivers/lvgl/src/widgets/../core/lv_obj_style_gen.h **** static inline lv_color_t lv_obj_get_style_bg_img_recolor(const struct _lv_obj_t * obj, uint32_t par
 212:Drivers/lvgl/src/widgets/../core/lv_obj_style_gen.h **** {
 213:Drivers/lvgl/src/widgets/../core/lv_obj_style_gen.h ****     lv_style_value_t v = lv_obj_get_style_prop(obj, part, LV_STYLE_BG_IMG_RECOLOR);
 214:Drivers/lvgl/src/widgets/../core/lv_obj_style_gen.h ****     return v.color;
 215:Drivers/lvgl/src/widgets/../core/lv_obj_style_gen.h **** }
 216:Drivers/lvgl/src/widgets/../core/lv_obj_style_gen.h **** 
 217:Drivers/lvgl/src/widgets/../core/lv_obj_style_gen.h **** static inline lv_color_t lv_obj_get_style_bg_img_recolor_filtered(const struct _lv_obj_t * obj, uin
 218:Drivers/lvgl/src/widgets/../core/lv_obj_style_gen.h **** {
 219:Drivers/lvgl/src/widgets/../core/lv_obj_style_gen.h ****     lv_style_value_t v = _lv_obj_style_apply_color_filter(obj, part, lv_obj_get_style_prop(obj, par
ARM GAS  /var/folders/0z/tsy30v1j4xl4_7kw94k978ww0000gn/T//ccZBZI6H.s 			page 76


 220:Drivers/lvgl/src/widgets/../core/lv_obj_style_gen.h ****     return v.color;
 221:Drivers/lvgl/src/widgets/../core/lv_obj_style_gen.h **** }
 222:Drivers/lvgl/src/widgets/../core/lv_obj_style_gen.h **** 
 223:Drivers/lvgl/src/widgets/../core/lv_obj_style_gen.h **** static inline lv_opa_t lv_obj_get_style_bg_img_recolor_opa(const struct _lv_obj_t * obj, uint32_t p
 224:Drivers/lvgl/src/widgets/../core/lv_obj_style_gen.h **** {
 225:Drivers/lvgl/src/widgets/../core/lv_obj_style_gen.h ****     lv_style_value_t v = lv_obj_get_style_prop(obj, part, LV_STYLE_BG_IMG_RECOLOR_OPA);
 226:Drivers/lvgl/src/widgets/../core/lv_obj_style_gen.h ****     return (lv_opa_t)v.num;
 227:Drivers/lvgl/src/widgets/../core/lv_obj_style_gen.h **** }
 228:Drivers/lvgl/src/widgets/../core/lv_obj_style_gen.h **** 
 229:Drivers/lvgl/src/widgets/../core/lv_obj_style_gen.h **** static inline bool lv_obj_get_style_bg_img_tiled(const struct _lv_obj_t * obj, uint32_t part)
 230:Drivers/lvgl/src/widgets/../core/lv_obj_style_gen.h **** {
 231:Drivers/lvgl/src/widgets/../core/lv_obj_style_gen.h ****     lv_style_value_t v = lv_obj_get_style_prop(obj, part, LV_STYLE_BG_IMG_TILED);
 232:Drivers/lvgl/src/widgets/../core/lv_obj_style_gen.h ****     return (bool)v.num;
 233:Drivers/lvgl/src/widgets/../core/lv_obj_style_gen.h **** }
 234:Drivers/lvgl/src/widgets/../core/lv_obj_style_gen.h **** 
 235:Drivers/lvgl/src/widgets/../core/lv_obj_style_gen.h **** static inline lv_color_t lv_obj_get_style_border_color(const struct _lv_obj_t * obj, uint32_t part)
 236:Drivers/lvgl/src/widgets/../core/lv_obj_style_gen.h **** {
 237:Drivers/lvgl/src/widgets/../core/lv_obj_style_gen.h ****     lv_style_value_t v = lv_obj_get_style_prop(obj, part, LV_STYLE_BORDER_COLOR);
 238:Drivers/lvgl/src/widgets/../core/lv_obj_style_gen.h ****     return v.color;
 239:Drivers/lvgl/src/widgets/../core/lv_obj_style_gen.h **** }
 240:Drivers/lvgl/src/widgets/../core/lv_obj_style_gen.h **** 
 241:Drivers/lvgl/src/widgets/../core/lv_obj_style_gen.h **** static inline lv_color_t lv_obj_get_style_border_color_filtered(const struct _lv_obj_t * obj, uint3
 242:Drivers/lvgl/src/widgets/../core/lv_obj_style_gen.h **** {
 243:Drivers/lvgl/src/widgets/../core/lv_obj_style_gen.h ****     lv_style_value_t v = _lv_obj_style_apply_color_filter(obj, part, lv_obj_get_style_prop(obj, par
 244:Drivers/lvgl/src/widgets/../core/lv_obj_style_gen.h ****     return v.color;
 245:Drivers/lvgl/src/widgets/../core/lv_obj_style_gen.h **** }
 246:Drivers/lvgl/src/widgets/../core/lv_obj_style_gen.h **** 
 247:Drivers/lvgl/src/widgets/../core/lv_obj_style_gen.h **** static inline lv_opa_t lv_obj_get_style_border_opa(const struct _lv_obj_t * obj, uint32_t part)
 248:Drivers/lvgl/src/widgets/../core/lv_obj_style_gen.h **** {
 249:Drivers/lvgl/src/widgets/../core/lv_obj_style_gen.h ****     lv_style_value_t v = lv_obj_get_style_prop(obj, part, LV_STYLE_BORDER_OPA);
 250:Drivers/lvgl/src/widgets/../core/lv_obj_style_gen.h ****     return (lv_opa_t)v.num;
 251:Drivers/lvgl/src/widgets/../core/lv_obj_style_gen.h **** }
 252:Drivers/lvgl/src/widgets/../core/lv_obj_style_gen.h **** 
 253:Drivers/lvgl/src/widgets/../core/lv_obj_style_gen.h **** static inline lv_coord_t lv_obj_get_style_border_width(const struct _lv_obj_t * obj, uint32_t part)
 254:Drivers/lvgl/src/widgets/../core/lv_obj_style_gen.h **** {
 255:Drivers/lvgl/src/widgets/../core/lv_obj_style_gen.h ****     lv_style_value_t v = lv_obj_get_style_prop(obj, part, LV_STYLE_BORDER_WIDTH);
 256:Drivers/lvgl/src/widgets/../core/lv_obj_style_gen.h ****     return (lv_coord_t)v.num;
 257:Drivers/lvgl/src/widgets/../core/lv_obj_style_gen.h **** }
 258:Drivers/lvgl/src/widgets/../core/lv_obj_style_gen.h **** 
 259:Drivers/lvgl/src/widgets/../core/lv_obj_style_gen.h **** static inline lv_border_side_t lv_obj_get_style_border_side(const struct _lv_obj_t * obj, uint32_t 
 260:Drivers/lvgl/src/widgets/../core/lv_obj_style_gen.h **** {
 261:Drivers/lvgl/src/widgets/../core/lv_obj_style_gen.h ****     lv_style_value_t v = lv_obj_get_style_prop(obj, part, LV_STYLE_BORDER_SIDE);
 262:Drivers/lvgl/src/widgets/../core/lv_obj_style_gen.h ****     return (lv_border_side_t)v.num;
 263:Drivers/lvgl/src/widgets/../core/lv_obj_style_gen.h **** }
 264:Drivers/lvgl/src/widgets/../core/lv_obj_style_gen.h **** 
 265:Drivers/lvgl/src/widgets/../core/lv_obj_style_gen.h **** static inline bool lv_obj_get_style_border_post(const struct _lv_obj_t * obj, uint32_t part)
 266:Drivers/lvgl/src/widgets/../core/lv_obj_style_gen.h **** {
 267:Drivers/lvgl/src/widgets/../core/lv_obj_style_gen.h ****     lv_style_value_t v = lv_obj_get_style_prop(obj, part, LV_STYLE_BORDER_POST);
 268:Drivers/lvgl/src/widgets/../core/lv_obj_style_gen.h ****     return (bool)v.num;
 269:Drivers/lvgl/src/widgets/../core/lv_obj_style_gen.h **** }
 270:Drivers/lvgl/src/widgets/../core/lv_obj_style_gen.h **** 
 271:Drivers/lvgl/src/widgets/../core/lv_obj_style_gen.h **** static inline lv_coord_t lv_obj_get_style_outline_width(const struct _lv_obj_t * obj, uint32_t part
 272:Drivers/lvgl/src/widgets/../core/lv_obj_style_gen.h **** {
 273:Drivers/lvgl/src/widgets/../core/lv_obj_style_gen.h ****     lv_style_value_t v = lv_obj_get_style_prop(obj, part, LV_STYLE_OUTLINE_WIDTH);
 274:Drivers/lvgl/src/widgets/../core/lv_obj_style_gen.h ****     return (lv_coord_t)v.num;
 275:Drivers/lvgl/src/widgets/../core/lv_obj_style_gen.h **** }
 276:Drivers/lvgl/src/widgets/../core/lv_obj_style_gen.h **** 
ARM GAS  /var/folders/0z/tsy30v1j4xl4_7kw94k978ww0000gn/T//ccZBZI6H.s 			page 77


 277:Drivers/lvgl/src/widgets/../core/lv_obj_style_gen.h **** static inline lv_color_t lv_obj_get_style_outline_color(const struct _lv_obj_t * obj, uint32_t part
 278:Drivers/lvgl/src/widgets/../core/lv_obj_style_gen.h **** {
 279:Drivers/lvgl/src/widgets/../core/lv_obj_style_gen.h ****     lv_style_value_t v = lv_obj_get_style_prop(obj, part, LV_STYLE_OUTLINE_COLOR);
 280:Drivers/lvgl/src/widgets/../core/lv_obj_style_gen.h ****     return v.color;
 281:Drivers/lvgl/src/widgets/../core/lv_obj_style_gen.h **** }
 282:Drivers/lvgl/src/widgets/../core/lv_obj_style_gen.h **** 
 283:Drivers/lvgl/src/widgets/../core/lv_obj_style_gen.h **** static inline lv_color_t lv_obj_get_style_outline_color_filtered(const struct _lv_obj_t * obj, uint
 284:Drivers/lvgl/src/widgets/../core/lv_obj_style_gen.h **** {
 285:Drivers/lvgl/src/widgets/../core/lv_obj_style_gen.h ****     lv_style_value_t v = _lv_obj_style_apply_color_filter(obj, part, lv_obj_get_style_prop(obj, par
 286:Drivers/lvgl/src/widgets/../core/lv_obj_style_gen.h ****     return v.color;
 287:Drivers/lvgl/src/widgets/../core/lv_obj_style_gen.h **** }
 288:Drivers/lvgl/src/widgets/../core/lv_obj_style_gen.h **** 
 289:Drivers/lvgl/src/widgets/../core/lv_obj_style_gen.h **** static inline lv_opa_t lv_obj_get_style_outline_opa(const struct _lv_obj_t * obj, uint32_t part)
 290:Drivers/lvgl/src/widgets/../core/lv_obj_style_gen.h **** {
 291:Drivers/lvgl/src/widgets/../core/lv_obj_style_gen.h ****     lv_style_value_t v = lv_obj_get_style_prop(obj, part, LV_STYLE_OUTLINE_OPA);
 292:Drivers/lvgl/src/widgets/../core/lv_obj_style_gen.h ****     return (lv_opa_t)v.num;
 293:Drivers/lvgl/src/widgets/../core/lv_obj_style_gen.h **** }
 294:Drivers/lvgl/src/widgets/../core/lv_obj_style_gen.h **** 
 295:Drivers/lvgl/src/widgets/../core/lv_obj_style_gen.h **** static inline lv_coord_t lv_obj_get_style_outline_pad(const struct _lv_obj_t * obj, uint32_t part)
 296:Drivers/lvgl/src/widgets/../core/lv_obj_style_gen.h **** {
 297:Drivers/lvgl/src/widgets/../core/lv_obj_style_gen.h ****     lv_style_value_t v = lv_obj_get_style_prop(obj, part, LV_STYLE_OUTLINE_PAD);
 298:Drivers/lvgl/src/widgets/../core/lv_obj_style_gen.h ****     return (lv_coord_t)v.num;
 299:Drivers/lvgl/src/widgets/../core/lv_obj_style_gen.h **** }
 300:Drivers/lvgl/src/widgets/../core/lv_obj_style_gen.h **** 
 301:Drivers/lvgl/src/widgets/../core/lv_obj_style_gen.h **** static inline lv_coord_t lv_obj_get_style_shadow_width(const struct _lv_obj_t * obj, uint32_t part)
 302:Drivers/lvgl/src/widgets/../core/lv_obj_style_gen.h **** {
 303:Drivers/lvgl/src/widgets/../core/lv_obj_style_gen.h ****     lv_style_value_t v = lv_obj_get_style_prop(obj, part, LV_STYLE_SHADOW_WIDTH);
 304:Drivers/lvgl/src/widgets/../core/lv_obj_style_gen.h ****     return (lv_coord_t)v.num;
 305:Drivers/lvgl/src/widgets/../core/lv_obj_style_gen.h **** }
 306:Drivers/lvgl/src/widgets/../core/lv_obj_style_gen.h **** 
 307:Drivers/lvgl/src/widgets/../core/lv_obj_style_gen.h **** static inline lv_coord_t lv_obj_get_style_shadow_ofs_x(const struct _lv_obj_t * obj, uint32_t part)
 308:Drivers/lvgl/src/widgets/../core/lv_obj_style_gen.h **** {
 309:Drivers/lvgl/src/widgets/../core/lv_obj_style_gen.h ****     lv_style_value_t v = lv_obj_get_style_prop(obj, part, LV_STYLE_SHADOW_OFS_X);
 310:Drivers/lvgl/src/widgets/../core/lv_obj_style_gen.h ****     return (lv_coord_t)v.num;
 311:Drivers/lvgl/src/widgets/../core/lv_obj_style_gen.h **** }
 312:Drivers/lvgl/src/widgets/../core/lv_obj_style_gen.h **** 
 313:Drivers/lvgl/src/widgets/../core/lv_obj_style_gen.h **** static inline lv_coord_t lv_obj_get_style_shadow_ofs_y(const struct _lv_obj_t * obj, uint32_t part)
 314:Drivers/lvgl/src/widgets/../core/lv_obj_style_gen.h **** {
 315:Drivers/lvgl/src/widgets/../core/lv_obj_style_gen.h ****     lv_style_value_t v = lv_obj_get_style_prop(obj, part, LV_STYLE_SHADOW_OFS_Y);
 316:Drivers/lvgl/src/widgets/../core/lv_obj_style_gen.h ****     return (lv_coord_t)v.num;
 317:Drivers/lvgl/src/widgets/../core/lv_obj_style_gen.h **** }
 318:Drivers/lvgl/src/widgets/../core/lv_obj_style_gen.h **** 
 319:Drivers/lvgl/src/widgets/../core/lv_obj_style_gen.h **** static inline lv_coord_t lv_obj_get_style_shadow_spread(const struct _lv_obj_t * obj, uint32_t part
 320:Drivers/lvgl/src/widgets/../core/lv_obj_style_gen.h **** {
 321:Drivers/lvgl/src/widgets/../core/lv_obj_style_gen.h ****     lv_style_value_t v = lv_obj_get_style_prop(obj, part, LV_STYLE_SHADOW_SPREAD);
 322:Drivers/lvgl/src/widgets/../core/lv_obj_style_gen.h ****     return (lv_coord_t)v.num;
 323:Drivers/lvgl/src/widgets/../core/lv_obj_style_gen.h **** }
 324:Drivers/lvgl/src/widgets/../core/lv_obj_style_gen.h **** 
 325:Drivers/lvgl/src/widgets/../core/lv_obj_style_gen.h **** static inline lv_color_t lv_obj_get_style_shadow_color(const struct _lv_obj_t * obj, uint32_t part)
 326:Drivers/lvgl/src/widgets/../core/lv_obj_style_gen.h **** {
 327:Drivers/lvgl/src/widgets/../core/lv_obj_style_gen.h ****     lv_style_value_t v = lv_obj_get_style_prop(obj, part, LV_STYLE_SHADOW_COLOR);
 328:Drivers/lvgl/src/widgets/../core/lv_obj_style_gen.h ****     return v.color;
 329:Drivers/lvgl/src/widgets/../core/lv_obj_style_gen.h **** }
 330:Drivers/lvgl/src/widgets/../core/lv_obj_style_gen.h **** 
 331:Drivers/lvgl/src/widgets/../core/lv_obj_style_gen.h **** static inline lv_color_t lv_obj_get_style_shadow_color_filtered(const struct _lv_obj_t * obj, uint3
 332:Drivers/lvgl/src/widgets/../core/lv_obj_style_gen.h **** {
 333:Drivers/lvgl/src/widgets/../core/lv_obj_style_gen.h ****     lv_style_value_t v = _lv_obj_style_apply_color_filter(obj, part, lv_obj_get_style_prop(obj, par
ARM GAS  /var/folders/0z/tsy30v1j4xl4_7kw94k978ww0000gn/T//ccZBZI6H.s 			page 78


 334:Drivers/lvgl/src/widgets/../core/lv_obj_style_gen.h ****     return v.color;
 335:Drivers/lvgl/src/widgets/../core/lv_obj_style_gen.h **** }
 336:Drivers/lvgl/src/widgets/../core/lv_obj_style_gen.h **** 
 337:Drivers/lvgl/src/widgets/../core/lv_obj_style_gen.h **** static inline lv_opa_t lv_obj_get_style_shadow_opa(const struct _lv_obj_t * obj, uint32_t part)
 338:Drivers/lvgl/src/widgets/../core/lv_obj_style_gen.h **** {
 339:Drivers/lvgl/src/widgets/../core/lv_obj_style_gen.h ****     lv_style_value_t v = lv_obj_get_style_prop(obj, part, LV_STYLE_SHADOW_OPA);
 340:Drivers/lvgl/src/widgets/../core/lv_obj_style_gen.h ****     return (lv_opa_t)v.num;
 341:Drivers/lvgl/src/widgets/../core/lv_obj_style_gen.h **** }
 342:Drivers/lvgl/src/widgets/../core/lv_obj_style_gen.h **** 
 343:Drivers/lvgl/src/widgets/../core/lv_obj_style_gen.h **** static inline lv_opa_t lv_obj_get_style_img_opa(const struct _lv_obj_t * obj, uint32_t part)
 344:Drivers/lvgl/src/widgets/../core/lv_obj_style_gen.h **** {
 345:Drivers/lvgl/src/widgets/../core/lv_obj_style_gen.h ****     lv_style_value_t v = lv_obj_get_style_prop(obj, part, LV_STYLE_IMG_OPA);
 346:Drivers/lvgl/src/widgets/../core/lv_obj_style_gen.h ****     return (lv_opa_t)v.num;
 347:Drivers/lvgl/src/widgets/../core/lv_obj_style_gen.h **** }
 348:Drivers/lvgl/src/widgets/../core/lv_obj_style_gen.h **** 
 349:Drivers/lvgl/src/widgets/../core/lv_obj_style_gen.h **** static inline lv_color_t lv_obj_get_style_img_recolor(const struct _lv_obj_t * obj, uint32_t part)
 350:Drivers/lvgl/src/widgets/../core/lv_obj_style_gen.h **** {
 351:Drivers/lvgl/src/widgets/../core/lv_obj_style_gen.h ****     lv_style_value_t v = lv_obj_get_style_prop(obj, part, LV_STYLE_IMG_RECOLOR);
 352:Drivers/lvgl/src/widgets/../core/lv_obj_style_gen.h ****     return v.color;
 353:Drivers/lvgl/src/widgets/../core/lv_obj_style_gen.h **** }
 354:Drivers/lvgl/src/widgets/../core/lv_obj_style_gen.h **** 
 355:Drivers/lvgl/src/widgets/../core/lv_obj_style_gen.h **** static inline lv_color_t lv_obj_get_style_img_recolor_filtered(const struct _lv_obj_t * obj, uint32
 356:Drivers/lvgl/src/widgets/../core/lv_obj_style_gen.h **** {
 357:Drivers/lvgl/src/widgets/../core/lv_obj_style_gen.h ****     lv_style_value_t v = _lv_obj_style_apply_color_filter(obj, part, lv_obj_get_style_prop(obj, par
 358:Drivers/lvgl/src/widgets/../core/lv_obj_style_gen.h ****     return v.color;
 359:Drivers/lvgl/src/widgets/../core/lv_obj_style_gen.h **** }
 360:Drivers/lvgl/src/widgets/../core/lv_obj_style_gen.h **** 
 361:Drivers/lvgl/src/widgets/../core/lv_obj_style_gen.h **** static inline lv_opa_t lv_obj_get_style_img_recolor_opa(const struct _lv_obj_t * obj, uint32_t part
 362:Drivers/lvgl/src/widgets/../core/lv_obj_style_gen.h **** {
 363:Drivers/lvgl/src/widgets/../core/lv_obj_style_gen.h ****     lv_style_value_t v = lv_obj_get_style_prop(obj, part, LV_STYLE_IMG_RECOLOR_OPA);
 364:Drivers/lvgl/src/widgets/../core/lv_obj_style_gen.h ****     return (lv_opa_t)v.num;
 365:Drivers/lvgl/src/widgets/../core/lv_obj_style_gen.h **** }
 366:Drivers/lvgl/src/widgets/../core/lv_obj_style_gen.h **** 
 367:Drivers/lvgl/src/widgets/../core/lv_obj_style_gen.h **** static inline lv_coord_t lv_obj_get_style_line_width(const struct _lv_obj_t * obj, uint32_t part)
 368:Drivers/lvgl/src/widgets/../core/lv_obj_style_gen.h **** {
 369:Drivers/lvgl/src/widgets/../core/lv_obj_style_gen.h ****     lv_style_value_t v = lv_obj_get_style_prop(obj, part, LV_STYLE_LINE_WIDTH);
 370:Drivers/lvgl/src/widgets/../core/lv_obj_style_gen.h ****     return (lv_coord_t)v.num;
 371:Drivers/lvgl/src/widgets/../core/lv_obj_style_gen.h **** }
 372:Drivers/lvgl/src/widgets/../core/lv_obj_style_gen.h **** 
 373:Drivers/lvgl/src/widgets/../core/lv_obj_style_gen.h **** static inline lv_coord_t lv_obj_get_style_line_dash_width(const struct _lv_obj_t * obj, uint32_t pa
 374:Drivers/lvgl/src/widgets/../core/lv_obj_style_gen.h **** {
 375:Drivers/lvgl/src/widgets/../core/lv_obj_style_gen.h ****     lv_style_value_t v = lv_obj_get_style_prop(obj, part, LV_STYLE_LINE_DASH_WIDTH);
 376:Drivers/lvgl/src/widgets/../core/lv_obj_style_gen.h ****     return (lv_coord_t)v.num;
 377:Drivers/lvgl/src/widgets/../core/lv_obj_style_gen.h **** }
 378:Drivers/lvgl/src/widgets/../core/lv_obj_style_gen.h **** 
 379:Drivers/lvgl/src/widgets/../core/lv_obj_style_gen.h **** static inline lv_coord_t lv_obj_get_style_line_dash_gap(const struct _lv_obj_t * obj, uint32_t part
 380:Drivers/lvgl/src/widgets/../core/lv_obj_style_gen.h **** {
 381:Drivers/lvgl/src/widgets/../core/lv_obj_style_gen.h ****     lv_style_value_t v = lv_obj_get_style_prop(obj, part, LV_STYLE_LINE_DASH_GAP);
 382:Drivers/lvgl/src/widgets/../core/lv_obj_style_gen.h ****     return (lv_coord_t)v.num;
 383:Drivers/lvgl/src/widgets/../core/lv_obj_style_gen.h **** }
 384:Drivers/lvgl/src/widgets/../core/lv_obj_style_gen.h **** 
 385:Drivers/lvgl/src/widgets/../core/lv_obj_style_gen.h **** static inline bool lv_obj_get_style_line_rounded(const struct _lv_obj_t * obj, uint32_t part)
 386:Drivers/lvgl/src/widgets/../core/lv_obj_style_gen.h **** {
 387:Drivers/lvgl/src/widgets/../core/lv_obj_style_gen.h ****     lv_style_value_t v = lv_obj_get_style_prop(obj, part, LV_STYLE_LINE_ROUNDED);
 388:Drivers/lvgl/src/widgets/../core/lv_obj_style_gen.h ****     return (bool)v.num;
 389:Drivers/lvgl/src/widgets/../core/lv_obj_style_gen.h **** }
 390:Drivers/lvgl/src/widgets/../core/lv_obj_style_gen.h **** 
ARM GAS  /var/folders/0z/tsy30v1j4xl4_7kw94k978ww0000gn/T//ccZBZI6H.s 			page 79


 391:Drivers/lvgl/src/widgets/../core/lv_obj_style_gen.h **** static inline lv_color_t lv_obj_get_style_line_color(const struct _lv_obj_t * obj, uint32_t part)
 392:Drivers/lvgl/src/widgets/../core/lv_obj_style_gen.h **** {
 393:Drivers/lvgl/src/widgets/../core/lv_obj_style_gen.h ****     lv_style_value_t v = lv_obj_get_style_prop(obj, part, LV_STYLE_LINE_COLOR);
 394:Drivers/lvgl/src/widgets/../core/lv_obj_style_gen.h ****     return v.color;
 395:Drivers/lvgl/src/widgets/../core/lv_obj_style_gen.h **** }
 396:Drivers/lvgl/src/widgets/../core/lv_obj_style_gen.h **** 
 397:Drivers/lvgl/src/widgets/../core/lv_obj_style_gen.h **** static inline lv_color_t lv_obj_get_style_line_color_filtered(const struct _lv_obj_t * obj, uint32_
 398:Drivers/lvgl/src/widgets/../core/lv_obj_style_gen.h **** {
 399:Drivers/lvgl/src/widgets/../core/lv_obj_style_gen.h ****     lv_style_value_t v = _lv_obj_style_apply_color_filter(obj, part, lv_obj_get_style_prop(obj, par
 400:Drivers/lvgl/src/widgets/../core/lv_obj_style_gen.h ****     return v.color;
 401:Drivers/lvgl/src/widgets/../core/lv_obj_style_gen.h **** }
 402:Drivers/lvgl/src/widgets/../core/lv_obj_style_gen.h **** 
 403:Drivers/lvgl/src/widgets/../core/lv_obj_style_gen.h **** static inline lv_opa_t lv_obj_get_style_line_opa(const struct _lv_obj_t * obj, uint32_t part)
 404:Drivers/lvgl/src/widgets/../core/lv_obj_style_gen.h **** {
 405:Drivers/lvgl/src/widgets/../core/lv_obj_style_gen.h ****     lv_style_value_t v = lv_obj_get_style_prop(obj, part, LV_STYLE_LINE_OPA);
 406:Drivers/lvgl/src/widgets/../core/lv_obj_style_gen.h ****     return (lv_opa_t)v.num;
 407:Drivers/lvgl/src/widgets/../core/lv_obj_style_gen.h **** }
 408:Drivers/lvgl/src/widgets/../core/lv_obj_style_gen.h **** 
 409:Drivers/lvgl/src/widgets/../core/lv_obj_style_gen.h **** static inline lv_coord_t lv_obj_get_style_arc_width(const struct _lv_obj_t * obj, uint32_t part)
 410:Drivers/lvgl/src/widgets/../core/lv_obj_style_gen.h **** {
 411:Drivers/lvgl/src/widgets/../core/lv_obj_style_gen.h ****     lv_style_value_t v = lv_obj_get_style_prop(obj, part, LV_STYLE_ARC_WIDTH);
 412:Drivers/lvgl/src/widgets/../core/lv_obj_style_gen.h ****     return (lv_coord_t)v.num;
 413:Drivers/lvgl/src/widgets/../core/lv_obj_style_gen.h **** }
 414:Drivers/lvgl/src/widgets/../core/lv_obj_style_gen.h **** 
 415:Drivers/lvgl/src/widgets/../core/lv_obj_style_gen.h **** static inline bool lv_obj_get_style_arc_rounded(const struct _lv_obj_t * obj, uint32_t part)
 416:Drivers/lvgl/src/widgets/../core/lv_obj_style_gen.h **** {
 417:Drivers/lvgl/src/widgets/../core/lv_obj_style_gen.h ****     lv_style_value_t v = lv_obj_get_style_prop(obj, part, LV_STYLE_ARC_ROUNDED);
 418:Drivers/lvgl/src/widgets/../core/lv_obj_style_gen.h ****     return (bool)v.num;
 419:Drivers/lvgl/src/widgets/../core/lv_obj_style_gen.h **** }
 420:Drivers/lvgl/src/widgets/../core/lv_obj_style_gen.h **** 
 421:Drivers/lvgl/src/widgets/../core/lv_obj_style_gen.h **** static inline lv_color_t lv_obj_get_style_arc_color(const struct _lv_obj_t * obj, uint32_t part)
 422:Drivers/lvgl/src/widgets/../core/lv_obj_style_gen.h **** {
 423:Drivers/lvgl/src/widgets/../core/lv_obj_style_gen.h ****     lv_style_value_t v = lv_obj_get_style_prop(obj, part, LV_STYLE_ARC_COLOR);
 424:Drivers/lvgl/src/widgets/../core/lv_obj_style_gen.h ****     return v.color;
 425:Drivers/lvgl/src/widgets/../core/lv_obj_style_gen.h **** }
 426:Drivers/lvgl/src/widgets/../core/lv_obj_style_gen.h **** 
 427:Drivers/lvgl/src/widgets/../core/lv_obj_style_gen.h **** static inline lv_color_t lv_obj_get_style_arc_color_filtered(const struct _lv_obj_t * obj, uint32_t
 428:Drivers/lvgl/src/widgets/../core/lv_obj_style_gen.h **** {
 429:Drivers/lvgl/src/widgets/../core/lv_obj_style_gen.h ****     lv_style_value_t v = _lv_obj_style_apply_color_filter(obj, part, lv_obj_get_style_prop(obj, par
 430:Drivers/lvgl/src/widgets/../core/lv_obj_style_gen.h ****     return v.color;
 431:Drivers/lvgl/src/widgets/../core/lv_obj_style_gen.h **** }
 432:Drivers/lvgl/src/widgets/../core/lv_obj_style_gen.h **** 
 433:Drivers/lvgl/src/widgets/../core/lv_obj_style_gen.h **** static inline lv_opa_t lv_obj_get_style_arc_opa(const struct _lv_obj_t * obj, uint32_t part)
 434:Drivers/lvgl/src/widgets/../core/lv_obj_style_gen.h **** {
 435:Drivers/lvgl/src/widgets/../core/lv_obj_style_gen.h ****     lv_style_value_t v = lv_obj_get_style_prop(obj, part, LV_STYLE_ARC_OPA);
 436:Drivers/lvgl/src/widgets/../core/lv_obj_style_gen.h ****     return (lv_opa_t)v.num;
 437:Drivers/lvgl/src/widgets/../core/lv_obj_style_gen.h **** }
 438:Drivers/lvgl/src/widgets/../core/lv_obj_style_gen.h **** 
 439:Drivers/lvgl/src/widgets/../core/lv_obj_style_gen.h **** static inline const void * lv_obj_get_style_arc_img_src(const struct _lv_obj_t * obj, uint32_t part
 440:Drivers/lvgl/src/widgets/../core/lv_obj_style_gen.h **** {
 441:Drivers/lvgl/src/widgets/../core/lv_obj_style_gen.h ****     lv_style_value_t v = lv_obj_get_style_prop(obj, part, LV_STYLE_ARC_IMG_SRC);
 442:Drivers/lvgl/src/widgets/../core/lv_obj_style_gen.h ****     return (const void *)v.ptr;
 443:Drivers/lvgl/src/widgets/../core/lv_obj_style_gen.h **** }
 444:Drivers/lvgl/src/widgets/../core/lv_obj_style_gen.h **** 
 445:Drivers/lvgl/src/widgets/../core/lv_obj_style_gen.h **** static inline lv_color_t lv_obj_get_style_text_color(const struct _lv_obj_t * obj, uint32_t part)
 446:Drivers/lvgl/src/widgets/../core/lv_obj_style_gen.h **** {
 447:Drivers/lvgl/src/widgets/../core/lv_obj_style_gen.h ****     lv_style_value_t v = lv_obj_get_style_prop(obj, part, LV_STYLE_TEXT_COLOR);
ARM GAS  /var/folders/0z/tsy30v1j4xl4_7kw94k978ww0000gn/T//ccZBZI6H.s 			page 80


 448:Drivers/lvgl/src/widgets/../core/lv_obj_style_gen.h ****     return v.color;
 449:Drivers/lvgl/src/widgets/../core/lv_obj_style_gen.h **** }
 450:Drivers/lvgl/src/widgets/../core/lv_obj_style_gen.h **** 
 451:Drivers/lvgl/src/widgets/../core/lv_obj_style_gen.h **** static inline lv_color_t lv_obj_get_style_text_color_filtered(const struct _lv_obj_t * obj, uint32_
 452:Drivers/lvgl/src/widgets/../core/lv_obj_style_gen.h **** {
 453:Drivers/lvgl/src/widgets/../core/lv_obj_style_gen.h ****     lv_style_value_t v = _lv_obj_style_apply_color_filter(obj, part, lv_obj_get_style_prop(obj, par
 454:Drivers/lvgl/src/widgets/../core/lv_obj_style_gen.h ****     return v.color;
 455:Drivers/lvgl/src/widgets/../core/lv_obj_style_gen.h **** }
 456:Drivers/lvgl/src/widgets/../core/lv_obj_style_gen.h **** 
 457:Drivers/lvgl/src/widgets/../core/lv_obj_style_gen.h **** static inline lv_opa_t lv_obj_get_style_text_opa(const struct _lv_obj_t * obj, uint32_t part)
 458:Drivers/lvgl/src/widgets/../core/lv_obj_style_gen.h **** {
 459:Drivers/lvgl/src/widgets/../core/lv_obj_style_gen.h ****     lv_style_value_t v = lv_obj_get_style_prop(obj, part, LV_STYLE_TEXT_OPA);
 460:Drivers/lvgl/src/widgets/../core/lv_obj_style_gen.h ****     return (lv_opa_t)v.num;
 461:Drivers/lvgl/src/widgets/../core/lv_obj_style_gen.h **** }
 462:Drivers/lvgl/src/widgets/../core/lv_obj_style_gen.h **** 
 463:Drivers/lvgl/src/widgets/../core/lv_obj_style_gen.h **** static inline const lv_font_t * lv_obj_get_style_text_font(const struct _lv_obj_t * obj, uint32_t p
 464:Drivers/lvgl/src/widgets/../core/lv_obj_style_gen.h **** {
 465:Drivers/lvgl/src/widgets/../core/lv_obj_style_gen.h ****     lv_style_value_t v = lv_obj_get_style_prop(obj, part, LV_STYLE_TEXT_FONT);
 466:Drivers/lvgl/src/widgets/../core/lv_obj_style_gen.h ****     return (const lv_font_t *)v.ptr;
 467:Drivers/lvgl/src/widgets/../core/lv_obj_style_gen.h **** }
 468:Drivers/lvgl/src/widgets/../core/lv_obj_style_gen.h **** 
 469:Drivers/lvgl/src/widgets/../core/lv_obj_style_gen.h **** static inline lv_coord_t lv_obj_get_style_text_letter_space(const struct _lv_obj_t * obj, uint32_t 
 470:Drivers/lvgl/src/widgets/../core/lv_obj_style_gen.h **** {
 471:Drivers/lvgl/src/widgets/../core/lv_obj_style_gen.h ****     lv_style_value_t v = lv_obj_get_style_prop(obj, part, LV_STYLE_TEXT_LETTER_SPACE);
 472:Drivers/lvgl/src/widgets/../core/lv_obj_style_gen.h ****     return (lv_coord_t)v.num;
 473:Drivers/lvgl/src/widgets/../core/lv_obj_style_gen.h **** }
 474:Drivers/lvgl/src/widgets/../core/lv_obj_style_gen.h **** 
 475:Drivers/lvgl/src/widgets/../core/lv_obj_style_gen.h **** static inline lv_coord_t lv_obj_get_style_text_line_space(const struct _lv_obj_t * obj, uint32_t pa
 476:Drivers/lvgl/src/widgets/../core/lv_obj_style_gen.h **** {
 477:Drivers/lvgl/src/widgets/../core/lv_obj_style_gen.h ****     lv_style_value_t v = lv_obj_get_style_prop(obj, part, LV_STYLE_TEXT_LINE_SPACE);
 478:Drivers/lvgl/src/widgets/../core/lv_obj_style_gen.h ****     return (lv_coord_t)v.num;
 479:Drivers/lvgl/src/widgets/../core/lv_obj_style_gen.h **** }
 480:Drivers/lvgl/src/widgets/../core/lv_obj_style_gen.h **** 
 481:Drivers/lvgl/src/widgets/../core/lv_obj_style_gen.h **** static inline lv_text_decor_t lv_obj_get_style_text_decor(const struct _lv_obj_t * obj, uint32_t pa
 482:Drivers/lvgl/src/widgets/../core/lv_obj_style_gen.h **** {
 483:Drivers/lvgl/src/widgets/../core/lv_obj_style_gen.h ****     lv_style_value_t v = lv_obj_get_style_prop(obj, part, LV_STYLE_TEXT_DECOR);
 484:Drivers/lvgl/src/widgets/../core/lv_obj_style_gen.h ****     return (lv_text_decor_t)v.num;
 485:Drivers/lvgl/src/widgets/../core/lv_obj_style_gen.h **** }
 486:Drivers/lvgl/src/widgets/../core/lv_obj_style_gen.h **** 
 487:Drivers/lvgl/src/widgets/../core/lv_obj_style_gen.h **** static inline lv_text_align_t lv_obj_get_style_text_align(const struct _lv_obj_t * obj, uint32_t pa
 488:Drivers/lvgl/src/widgets/../core/lv_obj_style_gen.h **** {
 489:Drivers/lvgl/src/widgets/../core/lv_obj_style_gen.h ****     lv_style_value_t v = lv_obj_get_style_prop(obj, part, LV_STYLE_TEXT_ALIGN);
 490:Drivers/lvgl/src/widgets/../core/lv_obj_style_gen.h ****     return (lv_text_align_t)v.num;
 491:Drivers/lvgl/src/widgets/../core/lv_obj_style_gen.h **** }
 492:Drivers/lvgl/src/widgets/../core/lv_obj_style_gen.h **** 
 493:Drivers/lvgl/src/widgets/../core/lv_obj_style_gen.h **** static inline lv_coord_t lv_obj_get_style_radius(const struct _lv_obj_t * obj, uint32_t part)
 494:Drivers/lvgl/src/widgets/../core/lv_obj_style_gen.h **** {
 495:Drivers/lvgl/src/widgets/../core/lv_obj_style_gen.h ****     lv_style_value_t v = lv_obj_get_style_prop(obj, part, LV_STYLE_RADIUS);
 496:Drivers/lvgl/src/widgets/../core/lv_obj_style_gen.h ****     return (lv_coord_t)v.num;
 497:Drivers/lvgl/src/widgets/../core/lv_obj_style_gen.h **** }
 498:Drivers/lvgl/src/widgets/../core/lv_obj_style_gen.h **** 
 499:Drivers/lvgl/src/widgets/../core/lv_obj_style_gen.h **** static inline bool lv_obj_get_style_clip_corner(const struct _lv_obj_t * obj, uint32_t part)
 500:Drivers/lvgl/src/widgets/../core/lv_obj_style_gen.h **** {
 501:Drivers/lvgl/src/widgets/../core/lv_obj_style_gen.h ****     lv_style_value_t v = lv_obj_get_style_prop(obj, part, LV_STYLE_CLIP_CORNER);
 502:Drivers/lvgl/src/widgets/../core/lv_obj_style_gen.h ****     return (bool)v.num;
 503:Drivers/lvgl/src/widgets/../core/lv_obj_style_gen.h **** }
 504:Drivers/lvgl/src/widgets/../core/lv_obj_style_gen.h **** 
ARM GAS  /var/folders/0z/tsy30v1j4xl4_7kw94k978ww0000gn/T//ccZBZI6H.s 			page 81


 505:Drivers/lvgl/src/widgets/../core/lv_obj_style_gen.h **** static inline lv_opa_t lv_obj_get_style_opa(const struct _lv_obj_t * obj, uint32_t part)
 506:Drivers/lvgl/src/widgets/../core/lv_obj_style_gen.h **** {
 507:Drivers/lvgl/src/widgets/../core/lv_obj_style_gen.h ****     lv_style_value_t v = lv_obj_get_style_prop(obj, part, LV_STYLE_OPA);
 508:Drivers/lvgl/src/widgets/../core/lv_obj_style_gen.h ****     return (lv_opa_t)v.num;
 509:Drivers/lvgl/src/widgets/../core/lv_obj_style_gen.h **** }
 510:Drivers/lvgl/src/widgets/../core/lv_obj_style_gen.h **** 
 511:Drivers/lvgl/src/widgets/../core/lv_obj_style_gen.h **** static inline lv_opa_t lv_obj_get_style_opa_layered(const struct _lv_obj_t * obj, uint32_t part)
 512:Drivers/lvgl/src/widgets/../core/lv_obj_style_gen.h **** {
 513:Drivers/lvgl/src/widgets/../core/lv_obj_style_gen.h ****     lv_style_value_t v = lv_obj_get_style_prop(obj, part, LV_STYLE_OPA_LAYERED);
 514:Drivers/lvgl/src/widgets/../core/lv_obj_style_gen.h ****     return (lv_opa_t)v.num;
 515:Drivers/lvgl/src/widgets/../core/lv_obj_style_gen.h **** }
 516:Drivers/lvgl/src/widgets/../core/lv_obj_style_gen.h **** 
 517:Drivers/lvgl/src/widgets/../core/lv_obj_style_gen.h **** static inline const lv_color_filter_dsc_t * lv_obj_get_style_color_filter_dsc(const struct _lv_obj_
 518:Drivers/lvgl/src/widgets/../core/lv_obj_style_gen.h **** {
 519:Drivers/lvgl/src/widgets/../core/lv_obj_style_gen.h ****     lv_style_value_t v = lv_obj_get_style_prop(obj, part, LV_STYLE_COLOR_FILTER_DSC);
 520:Drivers/lvgl/src/widgets/../core/lv_obj_style_gen.h ****     return (const lv_color_filter_dsc_t *)v.ptr;
 521:Drivers/lvgl/src/widgets/../core/lv_obj_style_gen.h **** }
 522:Drivers/lvgl/src/widgets/../core/lv_obj_style_gen.h **** 
 523:Drivers/lvgl/src/widgets/../core/lv_obj_style_gen.h **** static inline lv_opa_t lv_obj_get_style_color_filter_opa(const struct _lv_obj_t * obj, uint32_t par
 524:Drivers/lvgl/src/widgets/../core/lv_obj_style_gen.h **** {
 525:Drivers/lvgl/src/widgets/../core/lv_obj_style_gen.h ****     lv_style_value_t v = lv_obj_get_style_prop(obj, part, LV_STYLE_COLOR_FILTER_OPA);
 526:Drivers/lvgl/src/widgets/../core/lv_obj_style_gen.h ****     return (lv_opa_t)v.num;
 527:Drivers/lvgl/src/widgets/../core/lv_obj_style_gen.h **** }
 528:Drivers/lvgl/src/widgets/../core/lv_obj_style_gen.h **** 
 529:Drivers/lvgl/src/widgets/../core/lv_obj_style_gen.h **** static inline const lv_anim_t * lv_obj_get_style_anim(const struct _lv_obj_t * obj, uint32_t part)
 530:Drivers/lvgl/src/widgets/../core/lv_obj_style_gen.h **** {
 531:Drivers/lvgl/src/widgets/../core/lv_obj_style_gen.h ****     lv_style_value_t v = lv_obj_get_style_prop(obj, part, LV_STYLE_ANIM);
 532:Drivers/lvgl/src/widgets/../core/lv_obj_style_gen.h ****     return (const lv_anim_t *)v.ptr;
 533:Drivers/lvgl/src/widgets/../core/lv_obj_style_gen.h **** }
 534:Drivers/lvgl/src/widgets/../core/lv_obj_style_gen.h **** 
 535:Drivers/lvgl/src/widgets/../core/lv_obj_style_gen.h **** static inline uint32_t lv_obj_get_style_anim_time(const struct _lv_obj_t * obj, uint32_t part)
 536:Drivers/lvgl/src/widgets/../core/lv_obj_style_gen.h **** {
 537:Drivers/lvgl/src/widgets/../core/lv_obj_style_gen.h ****     lv_style_value_t v = lv_obj_get_style_prop(obj, part, LV_STYLE_ANIM_TIME);
 538:Drivers/lvgl/src/widgets/../core/lv_obj_style_gen.h ****     return (uint32_t)v.num;
 539:Drivers/lvgl/src/widgets/../core/lv_obj_style_gen.h **** }
 540:Drivers/lvgl/src/widgets/../core/lv_obj_style_gen.h **** 
 541:Drivers/lvgl/src/widgets/../core/lv_obj_style_gen.h **** static inline uint32_t lv_obj_get_style_anim_speed(const struct _lv_obj_t * obj, uint32_t part)
 542:Drivers/lvgl/src/widgets/../core/lv_obj_style_gen.h **** {
 543:Drivers/lvgl/src/widgets/../core/lv_obj_style_gen.h ****     lv_style_value_t v = lv_obj_get_style_prop(obj, part, LV_STYLE_ANIM_SPEED);
 544:Drivers/lvgl/src/widgets/../core/lv_obj_style_gen.h ****     return (uint32_t)v.num;
 545:Drivers/lvgl/src/widgets/../core/lv_obj_style_gen.h **** }
 546:Drivers/lvgl/src/widgets/../core/lv_obj_style_gen.h **** 
 547:Drivers/lvgl/src/widgets/../core/lv_obj_style_gen.h **** static inline const lv_style_transition_dsc_t * lv_obj_get_style_transition(const struct _lv_obj_t 
 548:Drivers/lvgl/src/widgets/../core/lv_obj_style_gen.h **** {
 549:Drivers/lvgl/src/widgets/../core/lv_obj_style_gen.h ****     lv_style_value_t v = lv_obj_get_style_prop(obj, part, LV_STYLE_TRANSITION);
 550:Drivers/lvgl/src/widgets/../core/lv_obj_style_gen.h ****     return (const lv_style_transition_dsc_t *)v.ptr;
 551:Drivers/lvgl/src/widgets/../core/lv_obj_style_gen.h **** }
 552:Drivers/lvgl/src/widgets/../core/lv_obj_style_gen.h **** 
 553:Drivers/lvgl/src/widgets/../core/lv_obj_style_gen.h **** static inline lv_blend_mode_t lv_obj_get_style_blend_mode(const struct _lv_obj_t * obj, uint32_t pa
 554:Drivers/lvgl/src/widgets/../core/lv_obj_style_gen.h **** {
 555:Drivers/lvgl/src/widgets/../core/lv_obj_style_gen.h ****     lv_style_value_t v = lv_obj_get_style_prop(obj, part, LV_STYLE_BLEND_MODE);
 556:Drivers/lvgl/src/widgets/../core/lv_obj_style_gen.h ****     return (lv_blend_mode_t)v.num;
 557:Drivers/lvgl/src/widgets/../core/lv_obj_style_gen.h **** }
 558:Drivers/lvgl/src/widgets/../core/lv_obj_style_gen.h **** 
 559:Drivers/lvgl/src/widgets/../core/lv_obj_style_gen.h **** static inline uint16_t lv_obj_get_style_layout(const struct _lv_obj_t * obj, uint32_t part)
 560:Drivers/lvgl/src/widgets/../core/lv_obj_style_gen.h **** {
 561:Drivers/lvgl/src/widgets/../core/lv_obj_style_gen.h ****     lv_style_value_t v = lv_obj_get_style_prop(obj, part, LV_STYLE_LAYOUT);
ARM GAS  /var/folders/0z/tsy30v1j4xl4_7kw94k978ww0000gn/T//ccZBZI6H.s 			page 82


 562:Drivers/lvgl/src/widgets/../core/lv_obj_style_gen.h ****     return (uint16_t)v.num;
 563:Drivers/lvgl/src/widgets/../core/lv_obj_style_gen.h **** }
 564:Drivers/lvgl/src/widgets/../core/lv_obj_style_gen.h **** 
 565:Drivers/lvgl/src/widgets/../core/lv_obj_style_gen.h **** static inline lv_base_dir_t lv_obj_get_style_base_dir(const struct _lv_obj_t * obj, uint32_t part)
 2256              		.loc 2 565 29 view .LVU746
 2257              	.LBB124:
 566:Drivers/lvgl/src/widgets/../core/lv_obj_style_gen.h **** {
 567:Drivers/lvgl/src/widgets/../core/lv_obj_style_gen.h ****     lv_style_value_t v = lv_obj_get_style_prop(obj, part, LV_STYLE_BASE_DIR);
 2258              		.loc 2 567 5 view .LVU747
 2259              		.loc 2 567 26 is_stmt 0 view .LVU748
 2260 0018 1622     		movs	r2, #22
 2261 001a 0021     		movs	r1, #0
 2262 001c 5846     		mov	r0, fp
 2263 001e FFF7FEFF 		bl	lv_obj_get_style_prop
 2264              	.LVL199:
 568:Drivers/lvgl/src/widgets/../core/lv_obj_style_gen.h ****     return (lv_base_dir_t)v.num;
 2265              		.loc 2 568 5 is_stmt 1 view .LVU749
 2266              		.loc 2 568 12 is_stmt 0 view .LVU750
 2267 0022 C3B2     		uxtb	r3, r0
 2268 0024 0793     		str	r3, [sp, #28]
 2269              	.LVL200:
 2270              		.loc 2 568 12 view .LVU751
 2271              	.LBE124:
 2272              	.LBE123:
 107:Drivers/lvgl/src/widgets/lv_btnmatrix.c ****     lv_coord_t ptop = lv_obj_get_style_pad_top(obj, LV_PART_MAIN);
 2273              		.loc 1 107 5 is_stmt 1 view .LVU752
 2274              	.LBB125:
 2275              	.LBI125:
 115:Drivers/lvgl/src/widgets/../core/lv_obj_style_gen.h **** {
 2276              		.loc 2 115 26 view .LVU753
 2277              	.LBB126:
 117:Drivers/lvgl/src/widgets/../core/lv_obj_style_gen.h ****     return (lv_coord_t)v.num;
 2278              		.loc 2 117 5 view .LVU754
 117:Drivers/lvgl/src/widgets/../core/lv_obj_style_gen.h ****     return (lv_coord_t)v.num;
 2279              		.loc 2 117 26 is_stmt 0 view .LVU755
 2280 0026 1222     		movs	r2, #18
 2281 0028 0021     		movs	r1, #0
 2282 002a 5846     		mov	r0, fp
 2283 002c FFF7FEFF 		bl	lv_obj_get_style_prop
 2284              	.LVL201:
 2285 0030 0690     		str	r0, [sp, #24]
 118:Drivers/lvgl/src/widgets/../core/lv_obj_style_gen.h **** }
 2286              		.loc 2 118 5 is_stmt 1 view .LVU756
 2287              	.LVL202:
 118:Drivers/lvgl/src/widgets/../core/lv_obj_style_gen.h **** }
 2288              		.loc 2 118 5 is_stmt 0 view .LVU757
 2289              	.LBE126:
 2290              	.LBE125:
 108:Drivers/lvgl/src/widgets/lv_btnmatrix.c ****     lv_coord_t prow = lv_obj_get_style_pad_row(obj, LV_PART_MAIN);
 2291              		.loc 1 108 5 is_stmt 1 view .LVU758
 2292              	.LBB127:
 2293              	.LBI127:
 103:Drivers/lvgl/src/widgets/../core/lv_obj_style_gen.h **** {
 2294              		.loc 2 103 26 view .LVU759
 2295              	.LBB128:
 105:Drivers/lvgl/src/widgets/../core/lv_obj_style_gen.h ****     return (lv_coord_t)v.num;
 2296              		.loc 2 105 5 view .LVU760
ARM GAS  /var/folders/0z/tsy30v1j4xl4_7kw94k978ww0000gn/T//ccZBZI6H.s 			page 83


 105:Drivers/lvgl/src/widgets/../core/lv_obj_style_gen.h ****     return (lv_coord_t)v.num;
 2297              		.loc 2 105 26 is_stmt 0 view .LVU761
 2298 0032 1022     		movs	r2, #16
 2299 0034 0021     		movs	r1, #0
 2300 0036 5846     		mov	r0, fp
 2301 0038 FFF7FEFF 		bl	lv_obj_get_style_prop
 2302              	.LVL203:
 2303 003c 0F90     		str	r0, [sp, #60]
 106:Drivers/lvgl/src/widgets/../core/lv_obj_style_gen.h **** }
 2304              		.loc 2 106 5 is_stmt 1 view .LVU762
 2305              	.LVL204:
 106:Drivers/lvgl/src/widgets/../core/lv_obj_style_gen.h **** }
 2306              		.loc 2 106 5 is_stmt 0 view .LVU763
 2307              	.LBE128:
 2308              	.LBE127:
 109:Drivers/lvgl/src/widgets/lv_btnmatrix.c ****     lv_coord_t pcol = lv_obj_get_style_pad_column(obj, LV_PART_MAIN);
 2309              		.loc 1 109 5 is_stmt 1 view .LVU764
 2310              	.LBB129:
 2311              	.LBI129:
 127:Drivers/lvgl/src/widgets/../core/lv_obj_style_gen.h **** {
 2312              		.loc 2 127 26 view .LVU765
 2313              	.LBB130:
 129:Drivers/lvgl/src/widgets/../core/lv_obj_style_gen.h ****     return (lv_coord_t)v.num;
 2314              		.loc 2 129 5 view .LVU766
 129:Drivers/lvgl/src/widgets/../core/lv_obj_style_gen.h ****     return (lv_coord_t)v.num;
 2315              		.loc 2 129 26 is_stmt 0 view .LVU767
 2316 003e 1422     		movs	r2, #20
 2317 0040 0021     		movs	r1, #0
 2318 0042 5846     		mov	r0, fp
 2319 0044 FFF7FEFF 		bl	lv_obj_get_style_prop
 2320              	.LVL205:
 2321 0048 0446     		mov	r4, r0
 2322              	.LVL206:
 130:Drivers/lvgl/src/widgets/../core/lv_obj_style_gen.h **** }
 2323              		.loc 2 130 5 is_stmt 1 view .LVU768
 130:Drivers/lvgl/src/widgets/../core/lv_obj_style_gen.h **** }
 2324              		.loc 2 130 12 is_stmt 0 view .LVU769
 2325 004a 03B2     		sxth	r3, r0
 2326 004c 0E93     		str	r3, [sp, #56]
 2327              	.LVL207:
 130:Drivers/lvgl/src/widgets/../core/lv_obj_style_gen.h **** }
 2328              		.loc 2 130 12 view .LVU770
 2329              	.LBE130:
 2330              	.LBE129:
 110:Drivers/lvgl/src/widgets/lv_btnmatrix.c **** 
 2331              		.loc 1 110 5 is_stmt 1 view .LVU771
 2332              	.LBB131:
 2333              	.LBI131:
 133:Drivers/lvgl/src/widgets/../core/lv_obj_style_gen.h **** {
 2334              		.loc 2 133 26 view .LVU772
 2335              	.LBB132:
 135:Drivers/lvgl/src/widgets/../core/lv_obj_style_gen.h ****     return (lv_coord_t)v.num;
 2336              		.loc 2 135 5 view .LVU773
 135:Drivers/lvgl/src/widgets/../core/lv_obj_style_gen.h ****     return (lv_coord_t)v.num;
 2337              		.loc 2 135 26 is_stmt 0 view .LVU774
 2338 004e 1522     		movs	r2, #21
 2339 0050 0021     		movs	r1, #0
ARM GAS  /var/folders/0z/tsy30v1j4xl4_7kw94k978ww0000gn/T//ccZBZI6H.s 			page 84


 2340 0052 5846     		mov	r0, fp
 135:Drivers/lvgl/src/widgets/../core/lv_obj_style_gen.h ****     return (lv_coord_t)v.num;
 2341              		.loc 2 135 26 view .LVU775
 2342 0054 FFF7FEFF 		bl	lv_obj_get_style_prop
 2343              	.LVL208:
 2344 0058 0D90     		str	r0, [sp, #52]
 136:Drivers/lvgl/src/widgets/../core/lv_obj_style_gen.h **** }
 2345              		.loc 2 136 5 is_stmt 1 view .LVU776
 136:Drivers/lvgl/src/widgets/../core/lv_obj_style_gen.h **** }
 2346              		.loc 2 136 12 is_stmt 0 view .LVU777
 2347 005a 03B2     		sxth	r3, r0
 2348 005c 0C93     		str	r3, [sp, #48]
 2349              	.LVL209:
 136:Drivers/lvgl/src/widgets/../core/lv_obj_style_gen.h **** }
 2350              		.loc 2 136 12 view .LVU778
 2351              	.LBE132:
 2352              	.LBE131:
 112:Drivers/lvgl/src/widgets/lv_btnmatrix.c ****     lv_coord_t max_h            = lv_obj_get_content_height(obj);
 2353              		.loc 1 112 5 is_stmt 1 view .LVU779
 112:Drivers/lvgl/src/widgets/lv_btnmatrix.c ****     lv_coord_t max_h            = lv_obj_get_content_height(obj);
 2354              		.loc 1 112 35 is_stmt 0 view .LVU780
 2355 005e 5846     		mov	r0, fp
 2356 0060 FFF7FEFF 		bl	lv_obj_get_content_width
 2357              	.LVL210:
 2358 0064 0A90     		str	r0, [sp, #40]
 2359              	.LVL211:
 113:Drivers/lvgl/src/widgets/lv_btnmatrix.c **** 
 2360              		.loc 1 113 5 is_stmt 1 view .LVU781
 113:Drivers/lvgl/src/widgets/lv_btnmatrix.c **** 
 2361              		.loc 1 113 35 is_stmt 0 view .LVU782
 2362 0066 5846     		mov	r0, fp
 2363 0068 FFF7FEFF 		bl	lv_obj_get_content_height
 2364              	.LVL212:
 116:Drivers/lvgl/src/widgets/lv_btnmatrix.c **** 
 2365              		.loc 1 116 5 is_stmt 1 view .LVU783
 116:Drivers/lvgl/src/widgets/lv_btnmatrix.c **** 
 2366              		.loc 1 116 52 is_stmt 0 view .LVU784
 2367 006c BBF83230 		ldrh	r3, [fp, #50]
 116:Drivers/lvgl/src/widgets/lv_btnmatrix.c **** 
 2368              		.loc 1 116 37 view .LVU785
 2369 0070 013B     		subs	r3, r3, #1
 116:Drivers/lvgl/src/widgets/lv_btnmatrix.c **** 
 2370              		.loc 1 116 37 view .LVU786
 2371 0072 13FB04F3 		smulbb	r3, r3, r4
 2372 0076 C31A     		subs	r3, r0, r3
 116:Drivers/lvgl/src/widgets/lv_btnmatrix.c **** 
 2373              		.loc 1 116 16 view .LVU787
 2374 0078 1BB2     		sxth	r3, r3
 2375 007a 0B93     		str	r3, [sp, #44]
 2376              	.LVL213:
 120:Drivers/lvgl/src/widgets/lv_btnmatrix.c ****     uint32_t btn_tot_i = 0; /*Act. index of button areas*/
 2377              		.loc 1 120 5 is_stmt 1 view .LVU788
 121:Drivers/lvgl/src/widgets/lv_btnmatrix.c ****     const char ** map_row = map;
 2378              		.loc 1 121 5 view .LVU789
 122:Drivers/lvgl/src/widgets/lv_btnmatrix.c **** 
 2379              		.loc 1 122 5 view .LVU790
 125:Drivers/lvgl/src/widgets/lv_btnmatrix.c ****     for(row = 0; row < btnm->row_cnt; row++) {
ARM GAS  /var/folders/0z/tsy30v1j4xl4_7kw94k978ww0000gn/T//ccZBZI6H.s 			page 85


 2380              		.loc 1 125 5 view .LVU791
 126:Drivers/lvgl/src/widgets/lv_btnmatrix.c ****         uint16_t unit_cnt = 0;           /*Number of units in a row*/
 2381              		.loc 1 126 5 view .LVU792
 126:Drivers/lvgl/src/widgets/lv_btnmatrix.c ****         uint16_t unit_cnt = 0;           /*Number of units in a row*/
 2382              		.loc 1 126 13 is_stmt 0 view .LVU793
 2383 007c 0023     		movs	r3, #0
 2384 007e 0593     		str	r3, [sp, #20]
 121:Drivers/lvgl/src/widgets/lv_btnmatrix.c ****     const char ** map_row = map;
 2385              		.loc 1 121 14 view .LVU794
 2386 0080 9946     		mov	r9, r3
 126:Drivers/lvgl/src/widgets/lv_btnmatrix.c ****         uint16_t unit_cnt = 0;           /*Number of units in a row*/
 2387              		.loc 1 126 5 view .LVU795
 2388 0082 1EE0     		b	.L115
 2389              	.LVL214:
 2390              	.L117:
 2391              	.LBB133:
 131:Drivers/lvgl/src/widgets/lv_btnmatrix.c ****             btn_cnt++;
 2392              		.loc 1 131 13 is_stmt 1 view .LVU796
 131:Drivers/lvgl/src/widgets/lv_btnmatrix.c ****             btn_cnt++;
 2393              		.loc 1 131 46 is_stmt 0 view .LVU797
 2394 0084 DBF82C30 		ldr	r3, [fp, #44]
 131:Drivers/lvgl/src/widgets/lv_btnmatrix.c ****             btn_cnt++;
 2395              		.loc 1 131 68 view .LVU798
 2396 0088 4E44     		add	r6, r6, r9
 131:Drivers/lvgl/src/widgets/lv_btnmatrix.c ****             btn_cnt++;
 2397              		.loc 1 131 25 view .LVU799
 2398 008a 33F81600 		ldrh	r0, [r3, r6, lsl #1]
 2399 008e FFF7FEFF 		bl	get_button_width
 2400              	.LVL215:
 131:Drivers/lvgl/src/widgets/lv_btnmatrix.c ****             btn_cnt++;
 2401              		.loc 1 131 22 view .LVU800
 2402 0092 15FA80F0 		uxtah	r0, r5, r0
 2403 0096 85B2     		uxth	r5, r0
 2404              	.LVL216:
 132:Drivers/lvgl/src/widgets/lv_btnmatrix.c ****         }
 2405              		.loc 1 132 13 is_stmt 1 view .LVU801
 132:Drivers/lvgl/src/widgets/lv_btnmatrix.c ****         }
 2406              		.loc 1 132 20 is_stmt 0 view .LVU802
 2407 0098 0134     		adds	r4, r4, #1
 2408              	.LVL217:
 132:Drivers/lvgl/src/widgets/lv_btnmatrix.c ****         }
 2409              		.loc 1 132 20 view .LVU803
 2410 009a A4B2     		uxth	r4, r4
 2411              	.LVL218:
 2412              	.L124:
 130:Drivers/lvgl/src/widgets/lv_btnmatrix.c ****             unit_cnt += get_button_width(btnm->ctrl_bits[btn_tot_i + btn_cnt]);
 2413              		.loc 1 130 71 is_stmt 1 view .LVU804
 130:Drivers/lvgl/src/widgets/lv_btnmatrix.c ****             unit_cnt += get_button_width(btnm->ctrl_bits[btn_tot_i + btn_cnt]);
 2414              		.loc 1 130 22 is_stmt 0 view .LVU805
 2415 009c 2646     		mov	r6, r4
 2416 009e 5AF82470 		ldr	r7, [r10, r4, lsl #2]
 130:Drivers/lvgl/src/widgets/lv_btnmatrix.c ****             unit_cnt += get_button_width(btnm->ctrl_bits[btn_tot_i + btn_cnt]);
 2417              		.loc 1 130 71 view .LVU806
 2418 00a2 3FB1     		cbz	r7, .L116
 130:Drivers/lvgl/src/widgets/lv_btnmatrix.c ****             unit_cnt += get_button_width(btnm->ctrl_bits[btn_tot_i + btn_cnt]);
 2419              		.loc 1 130 35 discriminator 1 view .LVU807
 2420 00a4 4749     		ldr	r1, .L134
ARM GAS  /var/folders/0z/tsy30v1j4xl4_7kw94k978ww0000gn/T//ccZBZI6H.s 			page 86


 2421 00a6 3846     		mov	r0, r7
 2422 00a8 FFF7FEFF 		bl	strcmp
 2423              	.LVL219:
 130:Drivers/lvgl/src/widgets/lv_btnmatrix.c ****             unit_cnt += get_button_width(btnm->ctrl_bits[btn_tot_i + btn_cnt]);
 2424              		.loc 1 130 32 discriminator 1 view .LVU808
 2425 00ac 10B1     		cbz	r0, .L116
 130:Drivers/lvgl/src/widgets/lv_btnmatrix.c ****             unit_cnt += get_button_width(btnm->ctrl_bits[btn_tot_i + btn_cnt]);
 2426              		.loc 1 130 90 discriminator 2 view .LVU809
 2427 00ae 3B78     		ldrb	r3, [r7]	@ zero_extendqisi2
 130:Drivers/lvgl/src/widgets/lv_btnmatrix.c ****             unit_cnt += get_button_width(btnm->ctrl_bits[btn_tot_i + btn_cnt]);
 2428              		.loc 1 130 71 discriminator 2 view .LVU810
 2429 00b0 002B     		cmp	r3, #0
 2430 00b2 E7D1     		bne	.L117
 2431              	.L116:
 136:Drivers/lvgl/src/widgets/lv_btnmatrix.c ****             map_row = &map_row[btn_cnt + 1];       /*Set the map to the next row*/
 2432              		.loc 1 136 9 is_stmt 1 view .LVU811
 136:Drivers/lvgl/src/widgets/lv_btnmatrix.c ****             map_row = &map_row[btn_cnt + 1];       /*Set the map to the next row*/
 2433              		.loc 1 136 11 is_stmt 0 view .LVU812
 2434 00b4 6CB9     		cbnz	r4, .L118
 137:Drivers/lvgl/src/widgets/lv_btnmatrix.c ****             continue;
 2435              		.loc 1 137 13 is_stmt 1 discriminator 1 view .LVU813
 137:Drivers/lvgl/src/widgets/lv_btnmatrix.c ****             continue;
 2436              		.loc 1 137 31 is_stmt 0 discriminator 1 view .LVU814
 2437 00b6 0136     		adds	r6, r6, #1
 137:Drivers/lvgl/src/widgets/lv_btnmatrix.c ****             continue;
 2438              		.loc 1 137 21 discriminator 1 view .LVU815
 2439 00b8 0AEB860A 		add	r10, r10, r6, lsl #2
 2440              	.LVL220:
 138:Drivers/lvgl/src/widgets/lv_btnmatrix.c ****         }
 2441              		.loc 1 138 13 is_stmt 1 discriminator 1 view .LVU816
 2442              	.L119:
 138:Drivers/lvgl/src/widgets/lv_btnmatrix.c ****         }
 2443              		.loc 1 138 13 is_stmt 0 discriminator 1 view .LVU817
 2444              	.LBE133:
 126:Drivers/lvgl/src/widgets/lv_btnmatrix.c ****         uint16_t unit_cnt = 0;           /*Number of units in a row*/
 2445              		.loc 1 126 42 is_stmt 1 discriminator 2 view .LVU818
 2446 00bc 059B     		ldr	r3, [sp, #20]
 2447 00be 0133     		adds	r3, r3, #1
 2448 00c0 0593     		str	r3, [sp, #20]
 2449              	.LVL221:
 2450              	.L115:
 126:Drivers/lvgl/src/widgets/lv_btnmatrix.c ****         uint16_t unit_cnt = 0;           /*Number of units in a row*/
 2451              		.loc 1 126 22 discriminator 1 view .LVU819
 126:Drivers/lvgl/src/widgets/lv_btnmatrix.c ****         uint16_t unit_cnt = 0;           /*Number of units in a row*/
 2452              		.loc 1 126 28 is_stmt 0 discriminator 1 view .LVU820
 2453 00c2 BBF83280 		ldrh	r8, [fp, #50]
 126:Drivers/lvgl/src/widgets/lv_btnmatrix.c ****         uint16_t unit_cnt = 0;           /*Number of units in a row*/
 2454              		.loc 1 126 22 discriminator 1 view .LVU821
 2455 00c6 059B     		ldr	r3, [sp, #20]
 2456 00c8 9845     		cmp	r8, r3
 2457 00ca 71D9     		bls	.L131
 2458              	.LBB137:
 128:Drivers/lvgl/src/widgets/lv_btnmatrix.c ****         /*Count the buttons and units in this row*/
 2459              		.loc 1 128 18 view .LVU822
 2460 00cc 0024     		movs	r4, #0
 127:Drivers/lvgl/src/widgets/lv_btnmatrix.c ****         uint16_t btn_cnt = 0;            /*Number of buttons in a row*/
 2461              		.loc 1 127 18 view .LVU823
ARM GAS  /var/folders/0z/tsy30v1j4xl4_7kw94k978ww0000gn/T//ccZBZI6H.s 			page 87


 2462 00ce 2546     		mov	r5, r4
 2463 00d0 E4E7     		b	.L124
 2464              	.LVL222:
 2465              	.L118:
 141:Drivers/lvgl/src/widgets/lv_btnmatrix.c ****         lv_coord_t row_y2 = ptop + (max_h_no_gap * (row + 1)) / btnm->row_cnt + row * prow - 1;
 2466              		.loc 1 141 9 is_stmt 1 view .LVU824
 141:Drivers/lvgl/src/widgets/lv_btnmatrix.c ****         lv_coord_t row_y2 = ptop + (max_h_no_gap * (row + 1)) / btnm->row_cnt + row * prow - 1;
 2467              		.loc 1 141 50 is_stmt 0 view .LVU825
 2468 00d2 0B9F     		ldr	r7, [sp, #44]
 2469 00d4 0598     		ldr	r0, [sp, #20]
 2470 00d6 00FB07F2 		mul	r2, r0, r7
 141:Drivers/lvgl/src/widgets/lv_btnmatrix.c ****         lv_coord_t row_y2 = ptop + (max_h_no_gap * (row + 1)) / btnm->row_cnt + row * prow - 1;
 2471              		.loc 1 141 57 view .LVU826
 2472 00da B2FBF8F2 		udiv	r2, r2, r8
 141:Drivers/lvgl/src/widgets/lv_btnmatrix.c ****         lv_coord_t row_y2 = ptop + (max_h_no_gap * (row + 1)) / btnm->row_cnt + row * prow - 1;
 2473              		.loc 1 141 34 view .LVU827
 2474 00de BDF83C30 		ldrh	r3, [sp, #60]
 2475 00e2 1A44     		add	r2, r2, r3
 141:Drivers/lvgl/src/widgets/lv_btnmatrix.c ****         lv_coord_t row_y2 = ptop + (max_h_no_gap * (row + 1)) / btnm->row_cnt + row * prow - 1;
 2476              		.loc 1 141 73 view .LVU828
 2477 00e4 0E99     		ldr	r1, [sp, #56]
 2478 00e6 11FB00F1 		smulbb	r1, r1, r0
 2479 00ea 89B2     		uxth	r1, r1
 2480 00ec 11FA82F2 		uxtah	r2, r1, r2
 141:Drivers/lvgl/src/widgets/lv_btnmatrix.c ****         lv_coord_t row_y2 = ptop + (max_h_no_gap * (row + 1)) / btnm->row_cnt + row * prow - 1;
 2481              		.loc 1 141 20 view .LVU829
 2482 00f0 12B2     		sxth	r2, r2
 2483 00f2 0392     		str	r2, [sp, #12]
 2484              	.LVL223:
 142:Drivers/lvgl/src/widgets/lv_btnmatrix.c **** 
 2485              		.loc 1 142 9 is_stmt 1 view .LVU830
 142:Drivers/lvgl/src/widgets/lv_btnmatrix.c **** 
 2486              		.loc 1 142 50 is_stmt 0 view .LVU831
 2487 00f4 00FB0772 		mla	r2, r0, r7, r7
 142:Drivers/lvgl/src/widgets/lv_btnmatrix.c **** 
 2488              		.loc 1 142 63 view .LVU832
 2489 00f8 B2FBF8F2 		udiv	r2, r2, r8
 142:Drivers/lvgl/src/widgets/lv_btnmatrix.c **** 
 2490              		.loc 1 142 34 view .LVU833
 2491 00fc 1344     		add	r3, r3, r2
 142:Drivers/lvgl/src/widgets/lv_btnmatrix.c **** 
 2492              		.loc 1 142 79 view .LVU834
 2493 00fe 11FA83F3 		uxtah	r3, r1, r3
 2494 0102 9BB2     		uxth	r3, r3
 142:Drivers/lvgl/src/widgets/lv_btnmatrix.c **** 
 2495              		.loc 1 142 92 view .LVU835
 2496 0104 013B     		subs	r3, r3, #1
 142:Drivers/lvgl/src/widgets/lv_btnmatrix.c **** 
 2497              		.loc 1 142 20 view .LVU836
 2498 0106 1BB2     		sxth	r3, r3
 2499 0108 0493     		str	r3, [sp, #16]
 2500              	.LVL224:
 145:Drivers/lvgl/src/widgets/lv_btnmatrix.c ****         if(max_w_no_gap < 0) max_w_no_gap = 0;
 2501              		.loc 1 145 9 is_stmt 1 view .LVU837
 145:Drivers/lvgl/src/widgets/lv_btnmatrix.c ****         if(max_w_no_gap < 0) max_w_no_gap = 0;
 2502              		.loc 1 145 41 is_stmt 0 view .LVU838
 2503 010a BDF82830 		ldrh	r3, [sp, #40]
ARM GAS  /var/folders/0z/tsy30v1j4xl4_7kw94k978ww0000gn/T//ccZBZI6H.s 			page 88


 2504 010e 0893     		str	r3, [sp, #32]
 2505 0110 013C     		subs	r4, r4, #1
 2506              	.LVL225:
 145:Drivers/lvgl/src/widgets/lv_btnmatrix.c ****         if(max_w_no_gap < 0) max_w_no_gap = 0;
 2507              		.loc 1 145 41 view .LVU839
 2508 0112 0D9A     		ldr	r2, [sp, #52]
 2509 0114 14FB02F4 		smulbb	r4, r4, r2
 2510 0118 1C1B     		subs	r4, r3, r4
 145:Drivers/lvgl/src/widgets/lv_btnmatrix.c ****         if(max_w_no_gap < 0) max_w_no_gap = 0;
 2511              		.loc 1 145 20 view .LVU840
 2512 011a 24B2     		sxth	r4, r4
 2513              	.LVL226:
 146:Drivers/lvgl/src/widgets/lv_btnmatrix.c **** 
 2514              		.loc 1 146 9 is_stmt 1 view .LVU841
 146:Drivers/lvgl/src/widgets/lv_btnmatrix.c **** 
 2515              		.loc 1 146 11 is_stmt 0 view .LVU842
 2516 011c 002C     		cmp	r4, #0
 2517 011e 06DB     		blt	.L132
 2518              	.LVL227:
 2519              	.L120:
 148:Drivers/lvgl/src/widgets/lv_btnmatrix.c ****         uint32_t btn;
 2520              		.loc 1 148 9 is_stmt 1 view .LVU843
 149:Drivers/lvgl/src/widgets/lv_btnmatrix.c ****         for(btn = 0; btn < btn_cnt; btn++, btn_tot_i++, txt_tot_i++) {
 2521              		.loc 1 149 9 view .LVU844
 150:Drivers/lvgl/src/widgets/lv_btnmatrix.c ****             uint32_t btn_u = get_button_width(btnm->ctrl_bits[btn_tot_i]);
 2522              		.loc 1 150 9 view .LVU845
 150:Drivers/lvgl/src/widgets/lv_btnmatrix.c ****             uint32_t btn_u = get_button_width(btnm->ctrl_bits[btn_tot_i]);
 2523              		.loc 1 150 17 is_stmt 0 view .LVU846
 2524 0120 0027     		movs	r7, #0
 148:Drivers/lvgl/src/widgets/lv_btnmatrix.c ****         uint32_t btn;
 2525              		.loc 1 148 18 view .LVU847
 2526 0122 B846     		mov	r8, r7
 2527 0124 CDF824A0 		str	r10, [sp, #36]
 2528 0128 DDF830A0 		ldr	r10, [sp, #48]
 2529              	.LVL228:
 150:Drivers/lvgl/src/widgets/lv_btnmatrix.c ****             uint32_t btn_u = get_button_width(btnm->ctrl_bits[btn_tot_i]);
 2530              		.loc 1 150 9 view .LVU848
 2531 012c 13E0     		b	.L121
 2532              	.LVL229:
 2533              	.L132:
 146:Drivers/lvgl/src/widgets/lv_btnmatrix.c **** 
 2534              		.loc 1 146 43 view .LVU849
 2535 012e 0024     		movs	r4, #0
 2536              	.LVL230:
 146:Drivers/lvgl/src/widgets/lv_btnmatrix.c **** 
 2537              		.loc 1 146 43 view .LVU850
 2538 0130 F6E7     		b	.L120
 2539              	.LVL231:
 2540              	.L122:
 2541              	.LBB134:
 166:Drivers/lvgl/src/widgets/lv_btnmatrix.c ****             btn_x2 += pleft;
 2542              		.loc 1 166 13 is_stmt 1 discriminator 2 view .LVU851
 166:Drivers/lvgl/src/widgets/lv_btnmatrix.c ****             btn_x2 += pleft;
 2543              		.loc 1 166 20 is_stmt 0 discriminator 2 view .LVU852
 2544 0132 BDF81820 		ldrh	r2, [sp, #24]
 2545 0136 1144     		add	r1, r1, r2
 2546              	.LVL232:
ARM GAS  /var/folders/0z/tsy30v1j4xl4_7kw94k978ww0000gn/T//ccZBZI6H.s 			page 89


 167:Drivers/lvgl/src/widgets/lv_btnmatrix.c **** 
 2547              		.loc 1 167 13 is_stmt 1 discriminator 2 view .LVU853
 167:Drivers/lvgl/src/widgets/lv_btnmatrix.c **** 
 2548              		.loc 1 167 20 is_stmt 0 discriminator 2 view .LVU854
 2549 0138 1344     		add	r3, r3, r2
 2550              	.LVL233:
 169:Drivers/lvgl/src/widgets/lv_btnmatrix.c **** 
 2551              		.loc 1 169 13 is_stmt 1 discriminator 2 view .LVU855
 169:Drivers/lvgl/src/widgets/lv_btnmatrix.c **** 
 2552              		.loc 1 169 30 is_stmt 0 discriminator 2 view .LVU856
 2553 013a DBF82800 		ldr	r0, [fp, #40]
 169:Drivers/lvgl/src/widgets/lv_btnmatrix.c **** 
 2554              		.loc 1 169 13 discriminator 2 view .LVU857
 2555 013e 049A     		ldr	r2, [sp, #16]
 2556 0140 0092     		str	r2, [sp]
 2557 0142 1BB2     		sxth	r3, r3
 169:Drivers/lvgl/src/widgets/lv_btnmatrix.c **** 
 2558              		.loc 1 169 13 discriminator 2 view .LVU858
 2559 0144 039A     		ldr	r2, [sp, #12]
 2560 0146 09B2     		sxth	r1, r1
 169:Drivers/lvgl/src/widgets/lv_btnmatrix.c **** 
 2561              		.loc 1 169 13 discriminator 2 view .LVU859
 2562 0148 00EBC900 		add	r0, r0, r9, lsl #3
 2563 014c FFF7FEFF 		bl	lv_area_set
 2564              	.LVL234:
 171:Drivers/lvgl/src/widgets/lv_btnmatrix.c ****         }
 2565              		.loc 1 171 13 is_stmt 1 discriminator 2 view .LVU860
 171:Drivers/lvgl/src/widgets/lv_btnmatrix.c ****         }
 2566              		.loc 1 171 13 is_stmt 0 discriminator 2 view .LVU861
 2567              	.LBE134:
 150:Drivers/lvgl/src/widgets/lv_btnmatrix.c ****             uint32_t btn_u = get_button_width(btnm->ctrl_bits[btn_tot_i]);
 2568              		.loc 1 150 55 is_stmt 1 discriminator 2 view .LVU862
 150:Drivers/lvgl/src/widgets/lv_btnmatrix.c ****             uint32_t btn_u = get_button_width(btnm->ctrl_bits[btn_tot_i]);
 2569              		.loc 1 150 40 is_stmt 0 discriminator 2 view .LVU863
 2570 0150 0137     		adds	r7, r7, #1
 2571              	.LVL235:
 150:Drivers/lvgl/src/widgets/lv_btnmatrix.c ****             uint32_t btn_u = get_button_width(btnm->ctrl_bits[btn_tot_i]);
 2572              		.loc 1 150 53 discriminator 2 view .LVU864
 2573 0152 09F10109 		add	r9, r9, #1
 2574              	.LVL236:
 2575              	.L121:
 150:Drivers/lvgl/src/widgets/lv_btnmatrix.c ****             uint32_t btn_u = get_button_width(btnm->ctrl_bits[btn_tot_i]);
 2576              		.loc 1 150 26 is_stmt 1 discriminator 1 view .LVU865
 2577 0156 BE42     		cmp	r6, r7
 2578 0158 24D9     		bls	.L133
 2579              	.LBB136:
 151:Drivers/lvgl/src/widgets/lv_btnmatrix.c **** 
 2580              		.loc 1 151 13 view .LVU866
 151:Drivers/lvgl/src/widgets/lv_btnmatrix.c **** 
 2581              		.loc 1 151 51 is_stmt 0 view .LVU867
 2582 015a DBF82C30 		ldr	r3, [fp, #44]
 151:Drivers/lvgl/src/widgets/lv_btnmatrix.c **** 
 2583              		.loc 1 151 30 view .LVU868
 2584 015e 33F81900 		ldrh	r0, [r3, r9, lsl #1]
 2585 0162 FFF7FEFF 		bl	get_button_width
 2586              	.LVL237:
 153:Drivers/lvgl/src/widgets/lv_btnmatrix.c ****             lv_coord_t btn_x2 = (max_w_no_gap * (row_unit_cnt + btn_u)) / unit_cnt + btn * pcol - 1
ARM GAS  /var/folders/0z/tsy30v1j4xl4_7kw94k978ww0000gn/T//ccZBZI6H.s 			page 90


 2587              		.loc 1 153 13 is_stmt 1 view .LVU869
 153:Drivers/lvgl/src/widgets/lv_btnmatrix.c ****             lv_coord_t btn_x2 = (max_w_no_gap * (row_unit_cnt + btn_u)) / unit_cnt + btn * pcol - 1
 2588              		.loc 1 153 47 is_stmt 0 view .LVU870
 2589 0166 08FB04F1 		mul	r1, r8, r4
 153:Drivers/lvgl/src/widgets/lv_btnmatrix.c ****             lv_coord_t btn_x2 = (max_w_no_gap * (row_unit_cnt + btn_u)) / unit_cnt + btn * pcol - 1
 2590              		.loc 1 153 63 view .LVU871
 2591 016a B1FBF5F1 		udiv	r1, r1, r5
 153:Drivers/lvgl/src/widgets/lv_btnmatrix.c ****             lv_coord_t btn_x2 = (max_w_no_gap * (row_unit_cnt + btn_u)) / unit_cnt + btn * pcol - 1
 2592              		.loc 1 153 74 view .LVU872
 2593 016e 1AFB07F3 		smulbb	r3, r10, r7
 2594 0172 9BB2     		uxth	r3, r3
 2595 0174 1944     		add	r1, r1, r3
 2596 0176 1FFA81FC 		uxth	ip, r1
 153:Drivers/lvgl/src/widgets/lv_btnmatrix.c ****             lv_coord_t btn_x2 = (max_w_no_gap * (row_unit_cnt + btn_u)) / unit_cnt + btn * pcol - 1
 2597              		.loc 1 153 24 view .LVU873
 2598 017a 09B2     		sxth	r1, r1
 2599              	.LVL238:
 154:Drivers/lvgl/src/widgets/lv_btnmatrix.c **** 
 2600              		.loc 1 154 13 is_stmt 1 view .LVU874
 154:Drivers/lvgl/src/widgets/lv_btnmatrix.c **** 
 2601              		.loc 1 154 63 is_stmt 0 view .LVU875
 2602 017c 8044     		add	r8, r8, r0
 2603              	.LVL239:
 154:Drivers/lvgl/src/widgets/lv_btnmatrix.c **** 
 2604              		.loc 1 154 47 view .LVU876
 2605 017e 08FB04F0 		mul	r0, r8, r4
 2606              	.LVL240:
 154:Drivers/lvgl/src/widgets/lv_btnmatrix.c **** 
 2607              		.loc 1 154 73 view .LVU877
 2608 0182 B0FBF5F0 		udiv	r0, r0, r5
 154:Drivers/lvgl/src/widgets/lv_btnmatrix.c **** 
 2609              		.loc 1 154 84 view .LVU878
 2610 0186 0344     		add	r3, r3, r0
 2611 0188 9BB2     		uxth	r3, r3
 154:Drivers/lvgl/src/widgets/lv_btnmatrix.c **** 
 2612              		.loc 1 154 97 view .LVU879
 2613 018a 013B     		subs	r3, r3, #1
 2614 018c 98B2     		uxth	r0, r3
 154:Drivers/lvgl/src/widgets/lv_btnmatrix.c **** 
 2615              		.loc 1 154 24 view .LVU880
 2616 018e 1BB2     		sxth	r3, r3
 2617              	.LVL241:
 157:Drivers/lvgl/src/widgets/lv_btnmatrix.c ****                 lv_coord_t tmp = btn_x1;
 2618              		.loc 1 157 13 is_stmt 1 view .LVU881
 157:Drivers/lvgl/src/widgets/lv_btnmatrix.c ****                 lv_coord_t tmp = btn_x1;
 2619              		.loc 1 157 15 is_stmt 0 view .LVU882
 2620 0190 079A     		ldr	r2, [sp, #28]
 2621 0192 012A     		cmp	r2, #1
 2622 0194 CDD1     		bne	.L122
 2623              	.LBB135:
 158:Drivers/lvgl/src/widgets/lv_btnmatrix.c ****                 btn_x1 = btn_x2;
 2624              		.loc 1 158 17 is_stmt 1 view .LVU883
 2625              	.LVL242:
 159:Drivers/lvgl/src/widgets/lv_btnmatrix.c ****                 btn_x2 = tmp;
 2626              		.loc 1 159 17 view .LVU884
 160:Drivers/lvgl/src/widgets/lv_btnmatrix.c **** 
 2627              		.loc 1 160 17 view .LVU885
ARM GAS  /var/folders/0z/tsy30v1j4xl4_7kw94k978ww0000gn/T//ccZBZI6H.s 			page 91


 162:Drivers/lvgl/src/widgets/lv_btnmatrix.c ****                 btn_x2 = max_w - btn_x2;
 2628              		.loc 1 162 17 view .LVU886
 162:Drivers/lvgl/src/widgets/lv_btnmatrix.c ****                 btn_x2 = max_w - btn_x2;
 2629              		.loc 1 162 32 is_stmt 0 view .LVU887
 2630 0196 089B     		ldr	r3, [sp, #32]
 2631 0198 181A     		subs	r0, r3, r0
 2632              	.LVL243:
 162:Drivers/lvgl/src/widgets/lv_btnmatrix.c ****                 btn_x2 = max_w - btn_x2;
 2633              		.loc 1 162 24 view .LVU888
 2634 019a 01B2     		sxth	r1, r0
 2635              	.LVL244:
 163:Drivers/lvgl/src/widgets/lv_btnmatrix.c ****             }
 2636              		.loc 1 163 17 is_stmt 1 view .LVU889
 163:Drivers/lvgl/src/widgets/lv_btnmatrix.c ****             }
 2637              		.loc 1 163 32 is_stmt 0 view .LVU890
 2638 019c A3EB0C02 		sub	r2, r3, ip
 163:Drivers/lvgl/src/widgets/lv_btnmatrix.c ****             }
 2639              		.loc 1 163 24 view .LVU891
 2640 01a0 13B2     		sxth	r3, r2
 2641              	.LVL245:
 163:Drivers/lvgl/src/widgets/lv_btnmatrix.c ****             }
 2642              		.loc 1 163 24 view .LVU892
 2643 01a2 C6E7     		b	.L122
 2644              	.LVL246:
 2645              	.L133:
 163:Drivers/lvgl/src/widgets/lv_btnmatrix.c ****             }
 2646              		.loc 1 163 24 view .LVU893
 2647              	.LBE135:
 2648              	.LBE136:
 174:Drivers/lvgl/src/widgets/lv_btnmatrix.c ****     }
 2649              		.loc 1 174 27 view .LVU894
 2650 01a4 DDF824A0 		ldr	r10, [sp, #36]
 174:Drivers/lvgl/src/widgets/lv_btnmatrix.c ****     }
 2651              		.loc 1 174 9 is_stmt 1 view .LVU895
 174:Drivers/lvgl/src/widgets/lv_btnmatrix.c ****     }
 2652              		.loc 1 174 27 is_stmt 0 view .LVU896
 2653 01a8 0136     		adds	r6, r6, #1
 174:Drivers/lvgl/src/widgets/lv_btnmatrix.c ****     }
 2654              		.loc 1 174 17 view .LVU897
 2655 01aa 0AEB860A 		add	r10, r10, r6, lsl #2
 2656              	.LVL247:
 174:Drivers/lvgl/src/widgets/lv_btnmatrix.c ****     }
 2657              		.loc 1 174 17 view .LVU898
 2658 01ae 85E7     		b	.L119
 2659              	.LVL248:
 2660              	.L131:
 174:Drivers/lvgl/src/widgets/lv_btnmatrix.c ****     }
 2661              		.loc 1 174 17 view .LVU899
 2662              	.LBE137:
 179:Drivers/lvgl/src/widgets/lv_btnmatrix.c **** 
 2663              		.loc 1 179 5 is_stmt 1 view .LVU900
 2664 01b0 5846     		mov	r0, fp
 2665 01b2 FFF7FEFF 		bl	lv_obj_refresh_ext_draw_size
 2666              	.LVL249:
 181:Drivers/lvgl/src/widgets/lv_btnmatrix.c **** }
 2667              		.loc 1 181 5 view .LVU901
 2668 01b6 5846     		mov	r0, fp
ARM GAS  /var/folders/0z/tsy30v1j4xl4_7kw94k978ww0000gn/T//ccZBZI6H.s 			page 92


 2669 01b8 FFF7FEFF 		bl	lv_obj_invalidate
 2670              	.LVL250:
 182:Drivers/lvgl/src/widgets/lv_btnmatrix.c **** 
 2671              		.loc 1 182 1 is_stmt 0 view .LVU902
 2672 01bc 11B0     		add	sp, sp, #68
 2673              		.cfi_def_cfa_offset 36
 2674              		@ sp needed
 2675 01be BDE8F08F 		pop	{r4, r5, r6, r7, r8, r9, r10, fp, pc}
 2676              	.LVL251:
 2677              	.L128:
 2678              		.cfi_def_cfa_offset 0
 2679              		.cfi_restore 4
 2680              		.cfi_restore 5
 2681              		.cfi_restore 6
 2682              		.cfi_restore 7
 2683              		.cfi_restore 8
 2684              		.cfi_restore 9
 2685              		.cfi_restore 10
 2686              		.cfi_restore 11
 2687              		.cfi_restore 14
 182:Drivers/lvgl/src/widgets/lv_btnmatrix.c **** 
 2688              		.loc 1 182 1 view .LVU903
 2689 01c2 7047     		bx	lr
 2690              	.L135:
 2691              		.align	2
 2692              	.L134:
 2693 01c4 00000000 		.word	.LC0
 2694              		.cfi_endproc
 2695              	.LFE162:
 2697              		.section	.text.lv_btnmatrix_constructor,"ax",%progbits
 2698              		.align	1
 2699              		.syntax unified
 2700              		.thumb
 2701              		.thumb_func
 2703              	lv_btnmatrix_constructor:
 2704              	.LVL252:
 2705              	.LFB176:
 375:Drivers/lvgl/src/widgets/lv_btnmatrix.c ****     LV_UNUSED(class_p);
 2706              		.loc 1 375 1 is_stmt 1 view -0
 2707              		.cfi_startproc
 2708              		@ args = 0, pretend = 0, frame = 0
 2709              		@ frame_needed = 0, uses_anonymous_args = 0
 375:Drivers/lvgl/src/widgets/lv_btnmatrix.c ****     LV_UNUSED(class_p);
 2710              		.loc 1 375 1 is_stmt 0 view .LVU905
 2711 0000 08B5     		push	{r3, lr}
 2712              		.cfi_def_cfa_offset 8
 2713              		.cfi_offset 3, -8
 2714              		.cfi_offset 14, -4
 2715 0002 0846     		mov	r0, r1
 2716              	.LVL253:
 376:Drivers/lvgl/src/widgets/lv_btnmatrix.c ****     LV_TRACE_OBJ_CREATE("begin");
 2717              		.loc 1 376 5 is_stmt 1 view .LVU906
 377:Drivers/lvgl/src/widgets/lv_btnmatrix.c ****     lv_btnmatrix_t * btnm = (lv_btnmatrix_t *)obj;
 2718              		.loc 1 377 33 view .LVU907
 378:Drivers/lvgl/src/widgets/lv_btnmatrix.c ****     btnm->btn_cnt        = 0;
 2719              		.loc 1 378 5 view .LVU908
 379:Drivers/lvgl/src/widgets/lv_btnmatrix.c ****     btnm->row_cnt        = 0;
ARM GAS  /var/folders/0z/tsy30v1j4xl4_7kw94k978ww0000gn/T//ccZBZI6H.s 			page 93


 2720              		.loc 1 379 5 view .LVU909
 379:Drivers/lvgl/src/widgets/lv_btnmatrix.c ****     btnm->row_cnt        = 0;
 2721              		.loc 1 379 26 is_stmt 0 view .LVU910
 2722 0004 0023     		movs	r3, #0
 2723 0006 0B86     		strh	r3, [r1, #48]	@ movhi
 380:Drivers/lvgl/src/widgets/lv_btnmatrix.c ****     btnm->btn_id_sel     = LV_BTNMATRIX_BTN_NONE;
 2724              		.loc 1 380 5 is_stmt 1 view .LVU911
 380:Drivers/lvgl/src/widgets/lv_btnmatrix.c ****     btnm->btn_id_sel     = LV_BTNMATRIX_BTN_NONE;
 2725              		.loc 1 380 26 is_stmt 0 view .LVU912
 2726 0008 4B86     		strh	r3, [r1, #50]	@ movhi
 381:Drivers/lvgl/src/widgets/lv_btnmatrix.c ****     btnm->button_areas   = NULL;
 2727              		.loc 1 381 5 is_stmt 1 view .LVU913
 381:Drivers/lvgl/src/widgets/lv_btnmatrix.c ****     btnm->button_areas   = NULL;
 2728              		.loc 1 381 26 is_stmt 0 view .LVU914
 2729 000a 4FF6FF72 		movw	r2, #65535
 2730 000e 8A86     		strh	r2, [r1, #52]	@ movhi
 382:Drivers/lvgl/src/widgets/lv_btnmatrix.c ****     btnm->ctrl_bits      = NULL;
 2731              		.loc 1 382 5 is_stmt 1 view .LVU915
 382:Drivers/lvgl/src/widgets/lv_btnmatrix.c ****     btnm->ctrl_bits      = NULL;
 2732              		.loc 1 382 26 is_stmt 0 view .LVU916
 2733 0010 8B62     		str	r3, [r1, #40]
 383:Drivers/lvgl/src/widgets/lv_btnmatrix.c ****     btnm->map_p          = NULL;
 2734              		.loc 1 383 5 is_stmt 1 view .LVU917
 383:Drivers/lvgl/src/widgets/lv_btnmatrix.c ****     btnm->map_p          = NULL;
 2735              		.loc 1 383 26 is_stmt 0 view .LVU918
 2736 0012 CB62     		str	r3, [r1, #44]
 384:Drivers/lvgl/src/widgets/lv_btnmatrix.c ****     btnm->one_check      = 0;
 2737              		.loc 1 384 5 is_stmt 1 view .LVU919
 384:Drivers/lvgl/src/widgets/lv_btnmatrix.c ****     btnm->one_check      = 0;
 2738              		.loc 1 384 26 is_stmt 0 view .LVU920
 2739 0014 4B62     		str	r3, [r1, #36]
 385:Drivers/lvgl/src/widgets/lv_btnmatrix.c **** 
 2740              		.loc 1 385 5 is_stmt 1 view .LVU921
 385:Drivers/lvgl/src/widgets/lv_btnmatrix.c **** 
 2741              		.loc 1 385 26 is_stmt 0 view .LVU922
 2742 0016 91F83620 		ldrb	r2, [r1, #54]	@ zero_extendqisi2
 2743 001a 63F30002 		bfi	r2, r3, #0, #1
 2744 001e 81F83620 		strb	r2, [r1, #54]
 387:Drivers/lvgl/src/widgets/lv_btnmatrix.c **** 
 2745              		.loc 1 387 5 is_stmt 1 view .LVU923
 2746 0022 0249     		ldr	r1, .L138
 2747              	.LVL254:
 387:Drivers/lvgl/src/widgets/lv_btnmatrix.c **** 
 2748              		.loc 1 387 5 is_stmt 0 view .LVU924
 2749 0024 FFF7FEFF 		bl	lv_btnmatrix_set_map
 2750              	.LVL255:
 389:Drivers/lvgl/src/widgets/lv_btnmatrix.c **** }
 2751              		.loc 1 389 36 is_stmt 1 view .LVU925
 390:Drivers/lvgl/src/widgets/lv_btnmatrix.c **** 
 2752              		.loc 1 390 1 is_stmt 0 view .LVU926
 2753 0028 08BD     		pop	{r3, pc}
 2754              	.L139:
 2755 002a 00BF     		.align	2
 2756              	.L138:
 2757 002c 00000000 		.word	.LANCHOR1
 2758              		.cfi_endproc
 2759              	.LFE176:
ARM GAS  /var/folders/0z/tsy30v1j4xl4_7kw94k978ww0000gn/T//ccZBZI6H.s 			page 94


 2761              		.section	.text.lv_btnmatrix_set_ctrl_map,"ax",%progbits
 2762              		.align	1
 2763              		.global	lv_btnmatrix_set_ctrl_map
 2764              		.syntax unified
 2765              		.thumb
 2766              		.thumb_func
 2768              	lv_btnmatrix_set_ctrl_map:
 2769              	.LVL256:
 2770              	.LFB163:
 185:Drivers/lvgl/src/widgets/lv_btnmatrix.c ****     LV_ASSERT_OBJ(obj, MY_CLASS);
 2771              		.loc 1 185 1 is_stmt 1 view -0
 2772              		.cfi_startproc
 2773              		@ args = 0, pretend = 0, frame = 0
 2774              		@ frame_needed = 0, uses_anonymous_args = 0
 185:Drivers/lvgl/src/widgets/lv_btnmatrix.c ****     LV_ASSERT_OBJ(obj, MY_CLASS);
 2775              		.loc 1 185 1 is_stmt 0 view .LVU928
 2776 0000 10B5     		push	{r4, lr}
 2777              		.cfi_def_cfa_offset 8
 2778              		.cfi_offset 4, -8
 2779              		.cfi_offset 14, -4
 2780 0002 0446     		mov	r4, r0
 186:Drivers/lvgl/src/widgets/lv_btnmatrix.c **** 
 2781              		.loc 1 186 5 is_stmt 1 view .LVU929
 186:Drivers/lvgl/src/widgets/lv_btnmatrix.c **** 
 2782              		.loc 1 186 5 view .LVU930
 186:Drivers/lvgl/src/widgets/lv_btnmatrix.c **** 
 2783              		.loc 1 186 5 view .LVU931
 188:Drivers/lvgl/src/widgets/lv_btnmatrix.c ****     lv_memcpy(btnm->ctrl_bits, ctrl_map, sizeof(lv_btnmatrix_ctrl_t) * btnm->btn_cnt);
 2784              		.loc 1 188 5 view .LVU932
 2785              	.LVL257:
 189:Drivers/lvgl/src/widgets/lv_btnmatrix.c **** 
 2786              		.loc 1 189 5 view .LVU933
 189:Drivers/lvgl/src/widgets/lv_btnmatrix.c **** 
 2787              		.loc 1 189 76 is_stmt 0 view .LVU934
 2788 0004 028E     		ldrh	r2, [r0, #48]
 189:Drivers/lvgl/src/widgets/lv_btnmatrix.c **** 
 2789              		.loc 1 189 5 view .LVU935
 2790 0006 5200     		lsls	r2, r2, #1
 2791 0008 C06A     		ldr	r0, [r0, #44]
 2792              	.LVL258:
 189:Drivers/lvgl/src/widgets/lv_btnmatrix.c **** 
 2793              		.loc 1 189 5 view .LVU936
 2794 000a FFF7FEFF 		bl	lv_memcpy
 2795              	.LVL259:
 191:Drivers/lvgl/src/widgets/lv_btnmatrix.c **** }
 2796              		.loc 1 191 5 is_stmt 1 view .LVU937
 2797 000e 616A     		ldr	r1, [r4, #36]
 2798 0010 2046     		mov	r0, r4
 2799 0012 FFF7FEFF 		bl	lv_btnmatrix_set_map
 2800              	.LVL260:
 192:Drivers/lvgl/src/widgets/lv_btnmatrix.c **** 
 2801              		.loc 1 192 1 is_stmt 0 view .LVU938
 2802 0016 10BD     		pop	{r4, pc}
 192:Drivers/lvgl/src/widgets/lv_btnmatrix.c **** 
 2803              		.loc 1 192 1 view .LVU939
 2804              		.cfi_endproc
 2805              	.LFE163:
ARM GAS  /var/folders/0z/tsy30v1j4xl4_7kw94k978ww0000gn/T//ccZBZI6H.s 			page 95


 2807              		.section	.text.lv_btnmatrix_set_selected_btn,"ax",%progbits
 2808              		.align	1
 2809              		.global	lv_btnmatrix_set_selected_btn
 2810              		.syntax unified
 2811              		.thumb
 2812              		.thumb_func
 2814              	lv_btnmatrix_set_selected_btn:
 2815              	.LVL261:
 2816              	.LFB164:
 195:Drivers/lvgl/src/widgets/lv_btnmatrix.c ****     LV_ASSERT_OBJ(obj, MY_CLASS);
 2817              		.loc 1 195 1 is_stmt 1 view -0
 2818              		.cfi_startproc
 2819              		@ args = 0, pretend = 0, frame = 0
 2820              		@ frame_needed = 0, uses_anonymous_args = 0
 195:Drivers/lvgl/src/widgets/lv_btnmatrix.c ****     LV_ASSERT_OBJ(obj, MY_CLASS);
 2821              		.loc 1 195 1 is_stmt 0 view .LVU941
 2822 0000 38B5     		push	{r3, r4, r5, lr}
 2823              		.cfi_def_cfa_offset 16
 2824              		.cfi_offset 3, -16
 2825              		.cfi_offset 4, -12
 2826              		.cfi_offset 5, -8
 2827              		.cfi_offset 14, -4
 2828 0002 0446     		mov	r4, r0
 2829 0004 0D46     		mov	r5, r1
 196:Drivers/lvgl/src/widgets/lv_btnmatrix.c **** 
 2830              		.loc 1 196 5 is_stmt 1 view .LVU942
 196:Drivers/lvgl/src/widgets/lv_btnmatrix.c **** 
 2831              		.loc 1 196 5 view .LVU943
 196:Drivers/lvgl/src/widgets/lv_btnmatrix.c **** 
 2832              		.loc 1 196 5 view .LVU944
 198:Drivers/lvgl/src/widgets/lv_btnmatrix.c **** 
 2833              		.loc 1 198 5 view .LVU945
 2834              	.LVL262:
 200:Drivers/lvgl/src/widgets/lv_btnmatrix.c **** 
 2835              		.loc 1 200 5 view .LVU946
 200:Drivers/lvgl/src/widgets/lv_btnmatrix.c **** 
 2836              		.loc 1 200 22 is_stmt 0 view .LVU947
 2837 0006 038E     		ldrh	r3, [r0, #48]
 200:Drivers/lvgl/src/widgets/lv_btnmatrix.c **** 
 2838              		.loc 1 200 7 view .LVU948
 2839 0008 8B42     		cmp	r3, r1
 2840 000a 03D8     		bhi	.L143
 200:Drivers/lvgl/src/widgets/lv_btnmatrix.c **** 
 2841              		.loc 1 200 32 discriminator 1 view .LVU949
 2842 000c 4FF6FF73 		movw	r3, #65535
 2843 0010 9942     		cmp	r1, r3
 2844 0012 08D1     		bne	.L142
 2845              	.L143:
 202:Drivers/lvgl/src/widgets/lv_btnmatrix.c ****     btnm->btn_id_sel = btn_id;
 2846              		.loc 1 202 5 is_stmt 1 view .LVU950
 2847 0014 A18E     		ldrh	r1, [r4, #52]
 2848              	.LVL263:
 202:Drivers/lvgl/src/widgets/lv_btnmatrix.c ****     btnm->btn_id_sel = btn_id;
 2849              		.loc 1 202 5 is_stmt 0 view .LVU951
 2850 0016 2046     		mov	r0, r4
 2851              	.LVL264:
 202:Drivers/lvgl/src/widgets/lv_btnmatrix.c ****     btnm->btn_id_sel = btn_id;
ARM GAS  /var/folders/0z/tsy30v1j4xl4_7kw94k978ww0000gn/T//ccZBZI6H.s 			page 96


 2852              		.loc 1 202 5 view .LVU952
 2853 0018 FFF7FEFF 		bl	invalidate_button_area
 2854              	.LVL265:
 203:Drivers/lvgl/src/widgets/lv_btnmatrix.c ****     invalidate_button_area(obj, btn_id);
 2855              		.loc 1 203 5 is_stmt 1 view .LVU953
 203:Drivers/lvgl/src/widgets/lv_btnmatrix.c ****     invalidate_button_area(obj, btn_id);
 2856              		.loc 1 203 22 is_stmt 0 view .LVU954
 2857 001c A586     		strh	r5, [r4, #52]	@ movhi
 204:Drivers/lvgl/src/widgets/lv_btnmatrix.c **** }
 2858              		.loc 1 204 5 is_stmt 1 view .LVU955
 2859 001e 2946     		mov	r1, r5
 2860 0020 2046     		mov	r0, r4
 2861 0022 FFF7FEFF 		bl	invalidate_button_area
 2862              	.LVL266:
 2863              	.L142:
 205:Drivers/lvgl/src/widgets/lv_btnmatrix.c **** 
 2864              		.loc 1 205 1 is_stmt 0 view .LVU956
 2865 0026 38BD     		pop	{r3, r4, r5, pc}
 205:Drivers/lvgl/src/widgets/lv_btnmatrix.c **** 
 2866              		.loc 1 205 1 view .LVU957
 2867              		.cfi_endproc
 2868              	.LFE164:
 2870              		.section	.text.lv_btnmatrix_clear_btn_ctrl,"ax",%progbits
 2871              		.align	1
 2872              		.global	lv_btnmatrix_clear_btn_ctrl
 2873              		.syntax unified
 2874              		.thumb
 2875              		.thumb_func
 2877              	lv_btnmatrix_clear_btn_ctrl:
 2878              	.LVL267:
 2879              	.LFB166:
 241:Drivers/lvgl/src/widgets/lv_btnmatrix.c ****     LV_ASSERT_OBJ(obj, MY_CLASS);
 2880              		.loc 1 241 1 is_stmt 1 view -0
 2881              		.cfi_startproc
 2882              		@ args = 0, pretend = 0, frame = 0
 2883              		@ frame_needed = 0, uses_anonymous_args = 0
 242:Drivers/lvgl/src/widgets/lv_btnmatrix.c **** 
 2884              		.loc 1 242 5 view .LVU959
 242:Drivers/lvgl/src/widgets/lv_btnmatrix.c **** 
 2885              		.loc 1 242 5 view .LVU960
 242:Drivers/lvgl/src/widgets/lv_btnmatrix.c **** 
 2886              		.loc 1 242 5 view .LVU961
 244:Drivers/lvgl/src/widgets/lv_btnmatrix.c **** 
 2887              		.loc 1 244 5 view .LVU962
 246:Drivers/lvgl/src/widgets/lv_btnmatrix.c **** 
 2888              		.loc 1 246 5 view .LVU963
 246:Drivers/lvgl/src/widgets/lv_btnmatrix.c **** 
 2889              		.loc 1 246 22 is_stmt 0 view .LVU964
 2890 0000 038E     		ldrh	r3, [r0, #48]
 246:Drivers/lvgl/src/widgets/lv_btnmatrix.c **** 
 2891              		.loc 1 246 7 view .LVU965
 2892 0002 8B42     		cmp	r3, r1
 2893 0004 24D9     		bls	.L150
 241:Drivers/lvgl/src/widgets/lv_btnmatrix.c ****     LV_ASSERT_OBJ(obj, MY_CLASS);
 2894              		.loc 1 241 1 view .LVU966
 2895 0006 70B5     		push	{r4, r5, r6, lr}
 2896              		.cfi_def_cfa_offset 16
ARM GAS  /var/folders/0z/tsy30v1j4xl4_7kw94k978ww0000gn/T//ccZBZI6H.s 			page 97


 2897              		.cfi_offset 4, -16
 2898              		.cfi_offset 5, -12
 2899              		.cfi_offset 6, -8
 2900              		.cfi_offset 14, -4
 2901 0008 0546     		mov	r5, r0
 2902 000a 0C46     		mov	r4, r1
 2903 000c 1646     		mov	r6, r2
 249:Drivers/lvgl/src/widgets/lv_btnmatrix.c ****         if(lv_obj_has_flag(obj, LV_OBJ_FLAG_HIDDEN)) lv_obj_clear_flag(obj, LV_OBJ_FLAG_HIDDEN);
 2904              		.loc 1 249 5 is_stmt 1 view .LVU967
 249:Drivers/lvgl/src/widgets/lv_btnmatrix.c ****         if(lv_obj_has_flag(obj, LV_OBJ_FLAG_HIDDEN)) lv_obj_clear_flag(obj, LV_OBJ_FLAG_HIDDEN);
 2905              		.loc 1 249 7 is_stmt 0 view .LVU968
 2906 000e 12F0100F 		tst	r2, #16
 2907 0012 0FD1     		bne	.L153
 2908              	.LVL268:
 2909              	.L148:
 253:Drivers/lvgl/src/widgets/lv_btnmatrix.c ****     invalidate_button_area(obj, btn_id);
 2910              		.loc 1 253 5 is_stmt 1 view .LVU969
 253:Drivers/lvgl/src/widgets/lv_btnmatrix.c ****     invalidate_button_area(obj, btn_id);
 2911              		.loc 1 253 9 is_stmt 0 view .LVU970
 2912 0014 EA6A     		ldr	r2, [r5, #44]
 253:Drivers/lvgl/src/widgets/lv_btnmatrix.c ****     invalidate_button_area(obj, btn_id);
 2913              		.loc 1 253 29 view .LVU971
 2914 0016 F343     		mvns	r3, r6
 2915 0018 1BB2     		sxth	r3, r3
 2916 001a 32F81410 		ldrh	r1, [r2, r4, lsl #1]
 2917 001e 0B40     		ands	r3, r3, r1
 2918 0020 22F81430 		strh	r3, [r2, r4, lsl #1]	@ movhi
 254:Drivers/lvgl/src/widgets/lv_btnmatrix.c **** 
 2919              		.loc 1 254 5 is_stmt 1 view .LVU972
 2920 0024 2146     		mov	r1, r4
 2921 0026 2846     		mov	r0, r5
 2922 0028 FFF7FEFF 		bl	invalidate_button_area
 2923              	.LVL269:
 256:Drivers/lvgl/src/widgets/lv_btnmatrix.c ****         lv_obj_refresh_ext_draw_size(obj);
 2924              		.loc 1 256 5 view .LVU973
 256:Drivers/lvgl/src/widgets/lv_btnmatrix.c ****         lv_obj_refresh_ext_draw_size(obj);
 2925              		.loc 1 256 7 is_stmt 0 view .LVU974
 2926 002c 16F4806F 		tst	r6, #1024
 2927 0030 0AD1     		bne	.L154
 2928              	.L146:
 259:Drivers/lvgl/src/widgets/lv_btnmatrix.c **** 
 2929              		.loc 1 259 1 view .LVU975
 2930 0032 70BD     		pop	{r4, r5, r6, pc}
 2931              	.LVL270:
 2932              	.L153:
 250:Drivers/lvgl/src/widgets/lv_btnmatrix.c ****     }
 2933              		.loc 1 250 9 is_stmt 1 view .LVU976
 250:Drivers/lvgl/src/widgets/lv_btnmatrix.c ****     }
 2934              		.loc 1 250 12 is_stmt 0 view .LVU977
 2935 0034 0121     		movs	r1, #1
 2936              	.LVL271:
 250:Drivers/lvgl/src/widgets/lv_btnmatrix.c ****     }
 2937              		.loc 1 250 12 view .LVU978
 2938 0036 FFF7FEFF 		bl	lv_obj_has_flag
 2939              	.LVL272:
 250:Drivers/lvgl/src/widgets/lv_btnmatrix.c ****     }
 2940              		.loc 1 250 11 view .LVU979
ARM GAS  /var/folders/0z/tsy30v1j4xl4_7kw94k978ww0000gn/T//ccZBZI6H.s 			page 98


 2941 003a 0028     		cmp	r0, #0
 2942 003c EAD0     		beq	.L148
 250:Drivers/lvgl/src/widgets/lv_btnmatrix.c ****     }
 2943              		.loc 1 250 54 is_stmt 1 discriminator 1 view .LVU980
 2944 003e 0121     		movs	r1, #1
 2945 0040 2846     		mov	r0, r5
 2946 0042 FFF7FEFF 		bl	lv_obj_clear_flag
 2947              	.LVL273:
 2948 0046 E5E7     		b	.L148
 2949              	.L154:
 257:Drivers/lvgl/src/widgets/lv_btnmatrix.c ****     }
 2950              		.loc 1 257 9 view .LVU981
 2951 0048 2846     		mov	r0, r5
 2952 004a FFF7FEFF 		bl	lv_obj_refresh_ext_draw_size
 2953              	.LVL274:
 2954 004e F0E7     		b	.L146
 2955              	.LVL275:
 2956              	.L150:
 2957              		.cfi_def_cfa_offset 0
 2958              		.cfi_restore 4
 2959              		.cfi_restore 5
 2960              		.cfi_restore 6
 2961              		.cfi_restore 14
 257:Drivers/lvgl/src/widgets/lv_btnmatrix.c ****     }
 2962              		.loc 1 257 9 is_stmt 0 view .LVU982
 2963 0050 7047     		bx	lr
 2964              		.cfi_endproc
 2965              	.LFE166:
 2967              		.section	.text.lv_btnmatrix_clear_btn_ctrl_all,"ax",%progbits
 2968              		.align	1
 2969              		.global	lv_btnmatrix_clear_btn_ctrl_all
 2970              		.syntax unified
 2971              		.thumb
 2972              		.thumb_func
 2974              	lv_btnmatrix_clear_btn_ctrl_all:
 2975              	.LVL276:
 2976              	.LFB168:
 273:Drivers/lvgl/src/widgets/lv_btnmatrix.c ****     LV_ASSERT_OBJ(obj, MY_CLASS);
 2977              		.loc 1 273 1 is_stmt 1 view -0
 2978              		.cfi_startproc
 2979              		@ args = 0, pretend = 0, frame = 0
 2980              		@ frame_needed = 0, uses_anonymous_args = 0
 273:Drivers/lvgl/src/widgets/lv_btnmatrix.c ****     LV_ASSERT_OBJ(obj, MY_CLASS);
 2981              		.loc 1 273 1 is_stmt 0 view .LVU984
 2982 0000 70B5     		push	{r4, r5, r6, lr}
 2983              		.cfi_def_cfa_offset 16
 2984              		.cfi_offset 4, -16
 2985              		.cfi_offset 5, -12
 2986              		.cfi_offset 6, -8
 2987              		.cfi_offset 14, -4
 2988 0002 0546     		mov	r5, r0
 2989 0004 0E46     		mov	r6, r1
 274:Drivers/lvgl/src/widgets/lv_btnmatrix.c **** 
 2990              		.loc 1 274 5 is_stmt 1 view .LVU985
 274:Drivers/lvgl/src/widgets/lv_btnmatrix.c **** 
 2991              		.loc 1 274 5 view .LVU986
 274:Drivers/lvgl/src/widgets/lv_btnmatrix.c **** 
ARM GAS  /var/folders/0z/tsy30v1j4xl4_7kw94k978ww0000gn/T//ccZBZI6H.s 			page 99


 2992              		.loc 1 274 5 view .LVU987
 276:Drivers/lvgl/src/widgets/lv_btnmatrix.c ****     uint16_t i;
 2993              		.loc 1 276 5 view .LVU988
 2994              	.LVL277:
 276:Drivers/lvgl/src/widgets/lv_btnmatrix.c ****     uint16_t i;
 2995              		.loc 1 276 51 view .LVU989
 277:Drivers/lvgl/src/widgets/lv_btnmatrix.c ****     for(i = 0; i < btnm->btn_cnt; i++) {
 2996              		.loc 1 277 5 view .LVU990
 278:Drivers/lvgl/src/widgets/lv_btnmatrix.c ****         lv_btnmatrix_clear_btn_ctrl(obj, i, ctrl);
 2997              		.loc 1 278 5 view .LVU991
 278:Drivers/lvgl/src/widgets/lv_btnmatrix.c ****         lv_btnmatrix_clear_btn_ctrl(obj, i, ctrl);
 2998              		.loc 1 278 11 is_stmt 0 view .LVU992
 2999 0006 0024     		movs	r4, #0
 278:Drivers/lvgl/src/widgets/lv_btnmatrix.c ****         lv_btnmatrix_clear_btn_ctrl(obj, i, ctrl);
 3000              		.loc 1 278 5 view .LVU993
 3001 0008 06E0     		b	.L156
 3002              	.LVL278:
 3003              	.L157:
 279:Drivers/lvgl/src/widgets/lv_btnmatrix.c ****     }
 3004              		.loc 1 279 9 is_stmt 1 discriminator 3 view .LVU994
 3005 000a 3246     		mov	r2, r6
 3006 000c 2146     		mov	r1, r4
 3007 000e 2846     		mov	r0, r5
 3008 0010 FFF7FEFF 		bl	lv_btnmatrix_clear_btn_ctrl
 3009              	.LVL279:
 278:Drivers/lvgl/src/widgets/lv_btnmatrix.c ****         lv_btnmatrix_clear_btn_ctrl(obj, i, ctrl);
 3010              		.loc 1 278 36 discriminator 3 view .LVU995
 3011 0014 0134     		adds	r4, r4, #1
 3012              	.LVL280:
 278:Drivers/lvgl/src/widgets/lv_btnmatrix.c ****         lv_btnmatrix_clear_btn_ctrl(obj, i, ctrl);
 3013              		.loc 1 278 36 is_stmt 0 discriminator 3 view .LVU996
 3014 0016 A4B2     		uxth	r4, r4
 3015              	.LVL281:
 3016              	.L156:
 278:Drivers/lvgl/src/widgets/lv_btnmatrix.c ****         lv_btnmatrix_clear_btn_ctrl(obj, i, ctrl);
 3017              		.loc 1 278 18 is_stmt 1 discriminator 1 view .LVU997
 278:Drivers/lvgl/src/widgets/lv_btnmatrix.c ****         lv_btnmatrix_clear_btn_ctrl(obj, i, ctrl);
 3018              		.loc 1 278 24 is_stmt 0 discriminator 1 view .LVU998
 3019 0018 2B8E     		ldrh	r3, [r5, #48]
 278:Drivers/lvgl/src/widgets/lv_btnmatrix.c ****         lv_btnmatrix_clear_btn_ctrl(obj, i, ctrl);
 3020              		.loc 1 278 18 discriminator 1 view .LVU999
 3021 001a A342     		cmp	r3, r4
 3022 001c F5D8     		bhi	.L157
 281:Drivers/lvgl/src/widgets/lv_btnmatrix.c **** 
 3023              		.loc 1 281 1 view .LVU1000
 3024 001e 70BD     		pop	{r4, r5, r6, pc}
 281:Drivers/lvgl/src/widgets/lv_btnmatrix.c **** 
 3025              		.loc 1 281 1 view .LVU1001
 3026              		.cfi_endproc
 3027              	.LFE168:
 3029              		.section	.text.lv_btnmatrix_set_btn_ctrl,"ax",%progbits
 3030              		.align	1
 3031              		.global	lv_btnmatrix_set_btn_ctrl
 3032              		.syntax unified
 3033              		.thumb
 3034              		.thumb_func
 3036              	lv_btnmatrix_set_btn_ctrl:
ARM GAS  /var/folders/0z/tsy30v1j4xl4_7kw94k978ww0000gn/T//ccZBZI6H.s 			page 100


 3037              	.LVL282:
 3038              	.LFB165:
 208:Drivers/lvgl/src/widgets/lv_btnmatrix.c ****     LV_ASSERT_OBJ(obj, MY_CLASS);
 3039              		.loc 1 208 1 is_stmt 1 view -0
 3040              		.cfi_startproc
 3041              		@ args = 0, pretend = 0, frame = 0
 3042              		@ frame_needed = 0, uses_anonymous_args = 0
 209:Drivers/lvgl/src/widgets/lv_btnmatrix.c **** 
 3043              		.loc 1 209 5 view .LVU1003
 209:Drivers/lvgl/src/widgets/lv_btnmatrix.c **** 
 3044              		.loc 1 209 5 view .LVU1004
 209:Drivers/lvgl/src/widgets/lv_btnmatrix.c **** 
 3045              		.loc 1 209 5 view .LVU1005
 211:Drivers/lvgl/src/widgets/lv_btnmatrix.c **** 
 3046              		.loc 1 211 5 view .LVU1006
 213:Drivers/lvgl/src/widgets/lv_btnmatrix.c **** 
 3047              		.loc 1 213 5 view .LVU1007
 213:Drivers/lvgl/src/widgets/lv_btnmatrix.c **** 
 3048              		.loc 1 213 22 is_stmt 0 view .LVU1008
 3049 0000 038E     		ldrh	r3, [r0, #48]
 213:Drivers/lvgl/src/widgets/lv_btnmatrix.c **** 
 3050              		.loc 1 213 7 view .LVU1009
 3051 0002 8B42     		cmp	r3, r1
 3052 0004 3ED9     		bls	.L170
 208:Drivers/lvgl/src/widgets/lv_btnmatrix.c ****     LV_ASSERT_OBJ(obj, MY_CLASS);
 3053              		.loc 1 208 1 view .LVU1010
 3054 0006 70B5     		push	{r4, r5, r6, lr}
 3055              		.cfi_def_cfa_offset 16
 3056              		.cfi_offset 4, -16
 3057              		.cfi_offset 5, -12
 3058              		.cfi_offset 6, -8
 3059              		.cfi_offset 14, -4
 3060 0008 0446     		mov	r4, r0
 3061 000a 0D46     		mov	r5, r1
 3062 000c 1646     		mov	r6, r2
 215:Drivers/lvgl/src/widgets/lv_btnmatrix.c ****         lv_btnmatrix_clear_btn_ctrl_all(obj, LV_BTNMATRIX_CTRL_CHECKED);
 3063              		.loc 1 215 5 is_stmt 1 view .LVU1011
 215:Drivers/lvgl/src/widgets/lv_btnmatrix.c ****         lv_btnmatrix_clear_btn_ctrl_all(obj, LV_BTNMATRIX_CTRL_CHECKED);
 3064              		.loc 1 215 8 is_stmt 0 view .LVU1012
 3065 000e 90F83630 		ldrb	r3, [r0, #54]	@ zero_extendqisi2
 215:Drivers/lvgl/src/widgets/lv_btnmatrix.c ****         lv_btnmatrix_clear_btn_ctrl_all(obj, LV_BTNMATRIX_CTRL_CHECKED);
 3066              		.loc 1 215 7 view .LVU1013
 3067 0012 13F0010F 		tst	r3, #1
 3068 0016 02D0     		beq	.L161
 215:Drivers/lvgl/src/widgets/lv_btnmatrix.c ****         lv_btnmatrix_clear_btn_ctrl_all(obj, LV_BTNMATRIX_CTRL_CHECKED);
 3069              		.loc 1 215 24 discriminator 1 view .LVU1014
 3070 0018 12F4807F 		tst	r2, #256
 3071 001c 08D1     		bne	.L173
 3072              	.LVL283:
 3073              	.L161:
 220:Drivers/lvgl/src/widgets/lv_btnmatrix.c ****         bool all_buttons_hidden = true;
 3074              		.loc 1 220 5 is_stmt 1 view .LVU1015
 220:Drivers/lvgl/src/widgets/lv_btnmatrix.c ****         bool all_buttons_hidden = true;
 3075              		.loc 1 220 7 is_stmt 0 view .LVU1016
 3076 001e 16F0100F 		tst	r6, #16
 3077 0022 1DD0     		beq	.L162
 3078              	.LBB138:
ARM GAS  /var/folders/0z/tsy30v1j4xl4_7kw94k978ww0000gn/T//ccZBZI6H.s 			page 101


 221:Drivers/lvgl/src/widgets/lv_btnmatrix.c ****         if(btnm->btn_cnt > 1) {
 3079              		.loc 1 221 9 is_stmt 1 view .LVU1017
 3080              	.LVL284:
 222:Drivers/lvgl/src/widgets/lv_btnmatrix.c ****             for(uint16_t btn_idx = 0; btn_idx < btnm->btn_cnt; btn_idx++) {
 3081              		.loc 1 222 9 view .LVU1018
 222:Drivers/lvgl/src/widgets/lv_btnmatrix.c ****             for(uint16_t btn_idx = 0; btn_idx < btnm->btn_cnt; btn_idx++) {
 3082              		.loc 1 222 16 is_stmt 0 view .LVU1019
 3083 0024 218E     		ldrh	r1, [r4, #48]
 222:Drivers/lvgl/src/widgets/lv_btnmatrix.c ****             for(uint16_t btn_idx = 0; btn_idx < btnm->btn_cnt; btn_idx++) {
 3084              		.loc 1 222 11 view .LVU1020
 3085 0026 0129     		cmp	r1, #1
 3086 0028 16D9     		bls	.L164
 3087              	.LBB139:
 223:Drivers/lvgl/src/widgets/lv_btnmatrix.c ****                 if(btn_idx == btn_id) continue;
 3088              		.loc 1 223 26 view .LVU1021
 3089 002a 0023     		movs	r3, #0
 3090              	.LBE139:
 221:Drivers/lvgl/src/widgets/lv_btnmatrix.c ****         if(btnm->btn_cnt > 1) {
 3091              		.loc 1 221 14 view .LVU1022
 3092 002c 0120     		movs	r0, #1
 3093 002e 06E0     		b	.L163
 3094              	.LVL285:
 3095              	.L173:
 221:Drivers/lvgl/src/widgets/lv_btnmatrix.c ****         if(btnm->btn_cnt > 1) {
 3096              		.loc 1 221 14 view .LVU1023
 3097              	.LBE138:
 216:Drivers/lvgl/src/widgets/lv_btnmatrix.c ****     }
 3098              		.loc 1 216 9 is_stmt 1 view .LVU1024
 3099 0030 4FF48071 		mov	r1, #256
 3100              	.LVL286:
 216:Drivers/lvgl/src/widgets/lv_btnmatrix.c ****     }
 3101              		.loc 1 216 9 is_stmt 0 view .LVU1025
 3102 0034 FFF7FEFF 		bl	lv_btnmatrix_clear_btn_ctrl_all
 3103              	.LVL287:
 216:Drivers/lvgl/src/widgets/lv_btnmatrix.c ****     }
 3104              		.loc 1 216 9 view .LVU1026
 3105 0038 F1E7     		b	.L161
 3106              	.LVL288:
 3107              	.L165:
 3108              	.LBB141:
 3109              	.LBB140:
 223:Drivers/lvgl/src/widgets/lv_btnmatrix.c ****                 if(btn_idx == btn_id) continue;
 3110              		.loc 1 223 71 is_stmt 1 discriminator 2 view .LVU1027
 3111 003a 0133     		adds	r3, r3, #1
 3112              	.LVL289:
 223:Drivers/lvgl/src/widgets/lv_btnmatrix.c ****                 if(btn_idx == btn_id) continue;
 3113              		.loc 1 223 71 is_stmt 0 discriminator 2 view .LVU1028
 3114 003c 9BB2     		uxth	r3, r3
 3115              	.LVL290:
 3116              	.L163:
 223:Drivers/lvgl/src/widgets/lv_btnmatrix.c ****                 if(btn_idx == btn_id) continue;
 3117              		.loc 1 223 47 is_stmt 1 discriminator 1 view .LVU1029
 3118 003e 9942     		cmp	r1, r3
 3119 0040 09D9     		bls	.L174
 224:Drivers/lvgl/src/widgets/lv_btnmatrix.c ****                 if(!(btnm->ctrl_bits[btn_idx] & LV_BTNMATRIX_CTRL_HIDDEN)) all_buttons_hidden = fal
 3120              		.loc 1 224 17 view .LVU1030
 224:Drivers/lvgl/src/widgets/lv_btnmatrix.c ****                 if(!(btnm->ctrl_bits[btn_idx] & LV_BTNMATRIX_CTRL_HIDDEN)) all_buttons_hidden = fal
ARM GAS  /var/folders/0z/tsy30v1j4xl4_7kw94k978ww0000gn/T//ccZBZI6H.s 			page 102


 3121              		.loc 1 224 19 is_stmt 0 view .LVU1031
 3122 0042 AB42     		cmp	r3, r5
 3123 0044 F9D0     		beq	.L165
 225:Drivers/lvgl/src/widgets/lv_btnmatrix.c ****             }
 3124              		.loc 1 225 17 is_stmt 1 view .LVU1032
 225:Drivers/lvgl/src/widgets/lv_btnmatrix.c ****             }
 3125              		.loc 1 225 26 is_stmt 0 view .LVU1033
 3126 0046 E26A     		ldr	r2, [r4, #44]
 225:Drivers/lvgl/src/widgets/lv_btnmatrix.c ****             }
 3127              		.loc 1 225 37 view .LVU1034
 3128 0048 32F81320 		ldrh	r2, [r2, r3, lsl #1]
 225:Drivers/lvgl/src/widgets/lv_btnmatrix.c ****             }
 3129              		.loc 1 225 19 view .LVU1035
 3130 004c 12F0100F 		tst	r2, #16
 3131 0050 F3D1     		bne	.L165
 225:Drivers/lvgl/src/widgets/lv_btnmatrix.c ****             }
 3132              		.loc 1 225 95 view .LVU1036
 3133 0052 0020     		movs	r0, #0
 3134              	.LVL291:
 225:Drivers/lvgl/src/widgets/lv_btnmatrix.c ****             }
 3135              		.loc 1 225 95 view .LVU1037
 3136 0054 F1E7     		b	.L165
 3137              	.LVL292:
 3138              	.L174:
 225:Drivers/lvgl/src/widgets/lv_btnmatrix.c ****             }
 3139              		.loc 1 225 95 view .LVU1038
 3140              	.LBE140:
 229:Drivers/lvgl/src/widgets/lv_btnmatrix.c ****     }
 3141              		.loc 1 229 9 is_stmt 1 view .LVU1039
 229:Drivers/lvgl/src/widgets/lv_btnmatrix.c ****     }
 3142              		.loc 1 229 11 is_stmt 0 view .LVU1040
 3143 0056 18B1     		cbz	r0, .L162
 3144              	.LVL293:
 3145              	.L164:
 229:Drivers/lvgl/src/widgets/lv_btnmatrix.c ****     }
 3146              		.loc 1 229 32 is_stmt 1 discriminator 1 view .LVU1041
 3147 0058 0121     		movs	r1, #1
 3148 005a 2046     		mov	r0, r4
 3149 005c FFF7FEFF 		bl	lv_obj_add_flag
 3150              	.LVL294:
 3151              	.L162:
 229:Drivers/lvgl/src/widgets/lv_btnmatrix.c ****     }
 3152              		.loc 1 229 32 is_stmt 0 discriminator 1 view .LVU1042
 3153              	.LBE141:
 232:Drivers/lvgl/src/widgets/lv_btnmatrix.c ****     invalidate_button_area(obj, btn_id);
 3154              		.loc 1 232 5 is_stmt 1 view .LVU1043
 232:Drivers/lvgl/src/widgets/lv_btnmatrix.c ****     invalidate_button_area(obj, btn_id);
 3155              		.loc 1 232 9 is_stmt 0 view .LVU1044
 3156 0060 E26A     		ldr	r2, [r4, #44]
 232:Drivers/lvgl/src/widgets/lv_btnmatrix.c ****     invalidate_button_area(obj, btn_id);
 3157              		.loc 1 232 29 view .LVU1045
 3158 0062 32F81530 		ldrh	r3, [r2, r5, lsl #1]
 3159 0066 3343     		orrs	r3, r3, r6
 3160 0068 22F81530 		strh	r3, [r2, r5, lsl #1]	@ movhi
 233:Drivers/lvgl/src/widgets/lv_btnmatrix.c **** 
 3161              		.loc 1 233 5 is_stmt 1 view .LVU1046
 3162 006c 2946     		mov	r1, r5
ARM GAS  /var/folders/0z/tsy30v1j4xl4_7kw94k978ww0000gn/T//ccZBZI6H.s 			page 103


 3163 006e 2046     		mov	r0, r4
 3164 0070 FFF7FEFF 		bl	invalidate_button_area
 3165              	.LVL295:
 235:Drivers/lvgl/src/widgets/lv_btnmatrix.c ****         lv_obj_refresh_ext_draw_size(obj);
 3166              		.loc 1 235 5 view .LVU1047
 235:Drivers/lvgl/src/widgets/lv_btnmatrix.c ****         lv_obj_refresh_ext_draw_size(obj);
 3167              		.loc 1 235 7 is_stmt 0 view .LVU1048
 3168 0074 16F4806F 		tst	r6, #1024
 3169 0078 00D1     		bne	.L175
 3170              	.L159:
 238:Drivers/lvgl/src/widgets/lv_btnmatrix.c **** 
 3171              		.loc 1 238 1 view .LVU1049
 3172 007a 70BD     		pop	{r4, r5, r6, pc}
 3173              	.LVL296:
 3174              	.L175:
 236:Drivers/lvgl/src/widgets/lv_btnmatrix.c ****     }
 3175              		.loc 1 236 9 is_stmt 1 view .LVU1050
 3176 007c 2046     		mov	r0, r4
 3177 007e FFF7FEFF 		bl	lv_obj_refresh_ext_draw_size
 3178              	.LVL297:
 3179 0082 FAE7     		b	.L159
 3180              	.LVL298:
 3181              	.L170:
 3182              		.cfi_def_cfa_offset 0
 3183              		.cfi_restore 4
 3184              		.cfi_restore 5
 3185              		.cfi_restore 6
 3186              		.cfi_restore 14
 236:Drivers/lvgl/src/widgets/lv_btnmatrix.c ****     }
 3187              		.loc 1 236 9 is_stmt 0 view .LVU1051
 3188 0084 7047     		bx	lr
 3189              		.cfi_endproc
 3190              	.LFE165:
 3192              		.section	.text.lv_btnmatrix_set_btn_ctrl_all,"ax",%progbits
 3193              		.align	1
 3194              		.global	lv_btnmatrix_set_btn_ctrl_all
 3195              		.syntax unified
 3196              		.thumb
 3197              		.thumb_func
 3199              	lv_btnmatrix_set_btn_ctrl_all:
 3200              	.LVL299:
 3201              	.LFB167:
 262:Drivers/lvgl/src/widgets/lv_btnmatrix.c ****     LV_ASSERT_OBJ(obj, MY_CLASS);
 3202              		.loc 1 262 1 is_stmt 1 view -0
 3203              		.cfi_startproc
 3204              		@ args = 0, pretend = 0, frame = 0
 3205              		@ frame_needed = 0, uses_anonymous_args = 0
 262:Drivers/lvgl/src/widgets/lv_btnmatrix.c ****     LV_ASSERT_OBJ(obj, MY_CLASS);
 3206              		.loc 1 262 1 is_stmt 0 view .LVU1053
 3207 0000 70B5     		push	{r4, r5, r6, lr}
 3208              		.cfi_def_cfa_offset 16
 3209              		.cfi_offset 4, -16
 3210              		.cfi_offset 5, -12
 3211              		.cfi_offset 6, -8
 3212              		.cfi_offset 14, -4
 3213 0002 0546     		mov	r5, r0
 3214 0004 0E46     		mov	r6, r1
ARM GAS  /var/folders/0z/tsy30v1j4xl4_7kw94k978ww0000gn/T//ccZBZI6H.s 			page 104


 263:Drivers/lvgl/src/widgets/lv_btnmatrix.c **** 
 3215              		.loc 1 263 5 is_stmt 1 view .LVU1054
 263:Drivers/lvgl/src/widgets/lv_btnmatrix.c **** 
 3216              		.loc 1 263 5 view .LVU1055
 263:Drivers/lvgl/src/widgets/lv_btnmatrix.c **** 
 3217              		.loc 1 263 5 view .LVU1056
 265:Drivers/lvgl/src/widgets/lv_btnmatrix.c ****     uint16_t i;
 3218              		.loc 1 265 5 view .LVU1057
 3219              	.LVL300:
 265:Drivers/lvgl/src/widgets/lv_btnmatrix.c ****     uint16_t i;
 3220              		.loc 1 265 51 view .LVU1058
 266:Drivers/lvgl/src/widgets/lv_btnmatrix.c ****     for(i = 0; i < btnm->btn_cnt; i++) {
 3221              		.loc 1 266 5 view .LVU1059
 267:Drivers/lvgl/src/widgets/lv_btnmatrix.c ****         lv_btnmatrix_set_btn_ctrl(obj, i, ctrl);
 3222              		.loc 1 267 5 view .LVU1060
 267:Drivers/lvgl/src/widgets/lv_btnmatrix.c ****         lv_btnmatrix_set_btn_ctrl(obj, i, ctrl);
 3223              		.loc 1 267 11 is_stmt 0 view .LVU1061
 3224 0006 0024     		movs	r4, #0
 267:Drivers/lvgl/src/widgets/lv_btnmatrix.c ****         lv_btnmatrix_set_btn_ctrl(obj, i, ctrl);
 3225              		.loc 1 267 5 view .LVU1062
 3226 0008 06E0     		b	.L177
 3227              	.LVL301:
 3228              	.L178:
 268:Drivers/lvgl/src/widgets/lv_btnmatrix.c ****     }
 3229              		.loc 1 268 9 is_stmt 1 discriminator 3 view .LVU1063
 3230 000a 3246     		mov	r2, r6
 3231 000c 2146     		mov	r1, r4
 3232 000e 2846     		mov	r0, r5
 3233 0010 FFF7FEFF 		bl	lv_btnmatrix_set_btn_ctrl
 3234              	.LVL302:
 267:Drivers/lvgl/src/widgets/lv_btnmatrix.c ****         lv_btnmatrix_set_btn_ctrl(obj, i, ctrl);
 3235              		.loc 1 267 36 discriminator 3 view .LVU1064
 3236 0014 0134     		adds	r4, r4, #1
 3237              	.LVL303:
 267:Drivers/lvgl/src/widgets/lv_btnmatrix.c ****         lv_btnmatrix_set_btn_ctrl(obj, i, ctrl);
 3238              		.loc 1 267 36 is_stmt 0 discriminator 3 view .LVU1065
 3239 0016 A4B2     		uxth	r4, r4
 3240              	.LVL304:
 3241              	.L177:
 267:Drivers/lvgl/src/widgets/lv_btnmatrix.c ****         lv_btnmatrix_set_btn_ctrl(obj, i, ctrl);
 3242              		.loc 1 267 18 is_stmt 1 discriminator 1 view .LVU1066
 267:Drivers/lvgl/src/widgets/lv_btnmatrix.c ****         lv_btnmatrix_set_btn_ctrl(obj, i, ctrl);
 3243              		.loc 1 267 24 is_stmt 0 discriminator 1 view .LVU1067
 3244 0018 2B8E     		ldrh	r3, [r5, #48]
 267:Drivers/lvgl/src/widgets/lv_btnmatrix.c ****         lv_btnmatrix_set_btn_ctrl(obj, i, ctrl);
 3245              		.loc 1 267 18 discriminator 1 view .LVU1068
 3246 001a A342     		cmp	r3, r4
 3247 001c F5D8     		bhi	.L178
 270:Drivers/lvgl/src/widgets/lv_btnmatrix.c **** 
 3248              		.loc 1 270 1 view .LVU1069
 3249 001e 70BD     		pop	{r4, r5, r6, pc}
 270:Drivers/lvgl/src/widgets/lv_btnmatrix.c **** 
 3250              		.loc 1 270 1 view .LVU1070
 3251              		.cfi_endproc
 3252              	.LFE167:
 3254              		.section	.text.lv_btnmatrix_set_btn_width,"ax",%progbits
 3255              		.align	1
ARM GAS  /var/folders/0z/tsy30v1j4xl4_7kw94k978ww0000gn/T//ccZBZI6H.s 			page 105


 3256              		.global	lv_btnmatrix_set_btn_width
 3257              		.syntax unified
 3258              		.thumb
 3259              		.thumb_func
 3261              	lv_btnmatrix_set_btn_width:
 3262              	.LVL305:
 3263              	.LFB169:
 284:Drivers/lvgl/src/widgets/lv_btnmatrix.c ****     LV_ASSERT_OBJ(obj, MY_CLASS);
 3264              		.loc 1 284 1 is_stmt 1 view -0
 3265              		.cfi_startproc
 3266              		@ args = 0, pretend = 0, frame = 0
 3267              		@ frame_needed = 0, uses_anonymous_args = 0
 285:Drivers/lvgl/src/widgets/lv_btnmatrix.c **** 
 3268              		.loc 1 285 5 view .LVU1072
 285:Drivers/lvgl/src/widgets/lv_btnmatrix.c **** 
 3269              		.loc 1 285 5 view .LVU1073
 285:Drivers/lvgl/src/widgets/lv_btnmatrix.c **** 
 3270              		.loc 1 285 5 view .LVU1074
 287:Drivers/lvgl/src/widgets/lv_btnmatrix.c ****     if(btn_id >= btnm->btn_cnt) return;
 3271              		.loc 1 287 5 view .LVU1075
 287:Drivers/lvgl/src/widgets/lv_btnmatrix.c ****     if(btn_id >= btnm->btn_cnt) return;
 3272              		.loc 1 287 51 view .LVU1076
 288:Drivers/lvgl/src/widgets/lv_btnmatrix.c ****     btnm->ctrl_bits[btn_id] &= (~LV_BTNMATRIX_WIDTH_MASK);
 3273              		.loc 1 288 5 view .LVU1077
 288:Drivers/lvgl/src/widgets/lv_btnmatrix.c ****     btnm->ctrl_bits[btn_id] &= (~LV_BTNMATRIX_WIDTH_MASK);
 3274              		.loc 1 288 22 is_stmt 0 view .LVU1078
 3275 0000 038E     		ldrh	r3, [r0, #48]
 288:Drivers/lvgl/src/widgets/lv_btnmatrix.c ****     btnm->ctrl_bits[btn_id] &= (~LV_BTNMATRIX_WIDTH_MASK);
 3276              		.loc 1 288 7 view .LVU1079
 3277 0002 8B42     		cmp	r3, r1
 3278 0004 00D8     		bhi	.L186
 3279 0006 7047     		bx	lr
 3280              	.L186:
 284:Drivers/lvgl/src/widgets/lv_btnmatrix.c ****     LV_ASSERT_OBJ(obj, MY_CLASS);
 3281              		.loc 1 284 1 view .LVU1080
 3282 0008 10B5     		push	{r4, lr}
 3283              		.cfi_def_cfa_offset 8
 3284              		.cfi_offset 4, -8
 3285              		.cfi_offset 14, -4
 289:Drivers/lvgl/src/widgets/lv_btnmatrix.c ****     btnm->ctrl_bits[btn_id] |= (LV_BTNMATRIX_WIDTH_MASK & width);
 3286              		.loc 1 289 5 is_stmt 1 view .LVU1081
 289:Drivers/lvgl/src/widgets/lv_btnmatrix.c ****     btnm->ctrl_bits[btn_id] |= (LV_BTNMATRIX_WIDTH_MASK & width);
 3287              		.loc 1 289 9 is_stmt 0 view .LVU1082
 3288 000a C46A     		ldr	r4, [r0, #44]
 289:Drivers/lvgl/src/widgets/lv_btnmatrix.c ****     btnm->ctrl_bits[btn_id] |= (LV_BTNMATRIX_WIDTH_MASK & width);
 3289              		.loc 1 289 29 view .LVU1083
 3290 000c 34F81130 		ldrh	r3, [r4, r1, lsl #1]
 3291 0010 23F00F03 		bic	r3, r3, #15
 3292 0014 24F81130 		strh	r3, [r4, r1, lsl #1]	@ movhi
 290:Drivers/lvgl/src/widgets/lv_btnmatrix.c **** 
 3293              		.loc 1 290 5 is_stmt 1 view .LVU1084
 290:Drivers/lvgl/src/widgets/lv_btnmatrix.c **** 
 3294              		.loc 1 290 9 is_stmt 0 view .LVU1085
 3295 0018 C36A     		ldr	r3, [r0, #44]
 290:Drivers/lvgl/src/widgets/lv_btnmatrix.c **** 
 3296              		.loc 1 290 29 view .LVU1086
 3297 001a 02F00F02 		and	r2, r2, #15
ARM GAS  /var/folders/0z/tsy30v1j4xl4_7kw94k978ww0000gn/T//ccZBZI6H.s 			page 106


 3298              	.LVL306:
 290:Drivers/lvgl/src/widgets/lv_btnmatrix.c **** 
 3299              		.loc 1 290 29 view .LVU1087
 3300 001e 33F81140 		ldrh	r4, [r3, r1, lsl #1]
 3301 0022 2243     		orrs	r2, r2, r4
 3302 0024 23F81120 		strh	r2, [r3, r1, lsl #1]	@ movhi
 292:Drivers/lvgl/src/widgets/lv_btnmatrix.c **** }
 3303              		.loc 1 292 5 is_stmt 1 view .LVU1088
 3304 0028 416A     		ldr	r1, [r0, #36]
 3305              	.LVL307:
 292:Drivers/lvgl/src/widgets/lv_btnmatrix.c **** }
 3306              		.loc 1 292 5 is_stmt 0 view .LVU1089
 3307 002a FFF7FEFF 		bl	lv_btnmatrix_set_map
 3308              	.LVL308:
 293:Drivers/lvgl/src/widgets/lv_btnmatrix.c **** 
 3309              		.loc 1 293 1 view .LVU1090
 3310 002e 10BD     		pop	{r4, pc}
 3311              		.cfi_endproc
 3312              	.LFE169:
 3314              		.section	.text.lv_btnmatrix_get_map,"ax",%progbits
 3315              		.align	1
 3316              		.global	lv_btnmatrix_get_map
 3317              		.syntax unified
 3318              		.thumb
 3319              		.thumb_func
 3321              	lv_btnmatrix_get_map:
 3322              	.LVL309:
 3323              	.LFB171:
 311:Drivers/lvgl/src/widgets/lv_btnmatrix.c ****     LV_ASSERT_OBJ(obj, MY_CLASS);
 3324              		.loc 1 311 1 is_stmt 1 view -0
 3325              		.cfi_startproc
 3326              		@ args = 0, pretend = 0, frame = 0
 3327              		@ frame_needed = 0, uses_anonymous_args = 0
 3328              		@ link register save eliminated.
 312:Drivers/lvgl/src/widgets/lv_btnmatrix.c **** 
 3329              		.loc 1 312 5 view .LVU1092
 312:Drivers/lvgl/src/widgets/lv_btnmatrix.c **** 
 3330              		.loc 1 312 5 view .LVU1093
 312:Drivers/lvgl/src/widgets/lv_btnmatrix.c **** 
 3331              		.loc 1 312 5 view .LVU1094
 314:Drivers/lvgl/src/widgets/lv_btnmatrix.c ****     return btnm->map_p;
 3332              		.loc 1 314 5 view .LVU1095
 314:Drivers/lvgl/src/widgets/lv_btnmatrix.c ****     return btnm->map_p;
 3333              		.loc 1 314 51 view .LVU1096
 315:Drivers/lvgl/src/widgets/lv_btnmatrix.c **** }
 3334              		.loc 1 315 5 view .LVU1097
 316:Drivers/lvgl/src/widgets/lv_btnmatrix.c **** 
 3335              		.loc 1 316 1 is_stmt 0 view .LVU1098
 3336 0000 406A     		ldr	r0, [r0, #36]
 3337              	.LVL310:
 316:Drivers/lvgl/src/widgets/lv_btnmatrix.c **** 
 3338              		.loc 1 316 1 view .LVU1099
 3339 0002 7047     		bx	lr
 3340              		.cfi_endproc
 3341              	.LFE171:
 3343              		.section	.text.lv_btnmatrix_get_selected_btn,"ax",%progbits
 3344              		.align	1
ARM GAS  /var/folders/0z/tsy30v1j4xl4_7kw94k978ww0000gn/T//ccZBZI6H.s 			page 107


 3345              		.global	lv_btnmatrix_get_selected_btn
 3346              		.syntax unified
 3347              		.thumb
 3348              		.thumb_func
 3350              	lv_btnmatrix_get_selected_btn:
 3351              	.LVL311:
 3352              	.LFB172:
 319:Drivers/lvgl/src/widgets/lv_btnmatrix.c ****     LV_ASSERT_OBJ(obj, MY_CLASS);
 3353              		.loc 1 319 1 is_stmt 1 view -0
 3354              		.cfi_startproc
 3355              		@ args = 0, pretend = 0, frame = 0
 3356              		@ frame_needed = 0, uses_anonymous_args = 0
 3357              		@ link register save eliminated.
 320:Drivers/lvgl/src/widgets/lv_btnmatrix.c **** 
 3358              		.loc 1 320 5 view .LVU1101
 320:Drivers/lvgl/src/widgets/lv_btnmatrix.c **** 
 3359              		.loc 1 320 5 view .LVU1102
 320:Drivers/lvgl/src/widgets/lv_btnmatrix.c **** 
 3360              		.loc 1 320 5 view .LVU1103
 322:Drivers/lvgl/src/widgets/lv_btnmatrix.c ****     return btnm->btn_id_sel;
 3361              		.loc 1 322 5 view .LVU1104
 322:Drivers/lvgl/src/widgets/lv_btnmatrix.c ****     return btnm->btn_id_sel;
 3362              		.loc 1 322 51 view .LVU1105
 323:Drivers/lvgl/src/widgets/lv_btnmatrix.c **** }
 3363              		.loc 1 323 5 view .LVU1106
 324:Drivers/lvgl/src/widgets/lv_btnmatrix.c **** 
 3364              		.loc 1 324 1 is_stmt 0 view .LVU1107
 3365 0000 808E     		ldrh	r0, [r0, #52]
 3366              	.LVL312:
 324:Drivers/lvgl/src/widgets/lv_btnmatrix.c **** 
 3367              		.loc 1 324 1 view .LVU1108
 3368 0002 7047     		bx	lr
 3369              		.cfi_endproc
 3370              	.LFE172:
 3372              		.section	.text.lv_btnmatrix_get_btn_text,"ax",%progbits
 3373              		.align	1
 3374              		.global	lv_btnmatrix_get_btn_text
 3375              		.syntax unified
 3376              		.thumb
 3377              		.thumb_func
 3379              	lv_btnmatrix_get_btn_text:
 3380              	.LVL313:
 3381              	.LFB173:
 327:Drivers/lvgl/src/widgets/lv_btnmatrix.c ****     LV_ASSERT_OBJ(obj, MY_CLASS);
 3382              		.loc 1 327 1 is_stmt 1 view -0
 3383              		.cfi_startproc
 3384              		@ args = 0, pretend = 0, frame = 0
 3385              		@ frame_needed = 0, uses_anonymous_args = 0
 327:Drivers/lvgl/src/widgets/lv_btnmatrix.c ****     LV_ASSERT_OBJ(obj, MY_CLASS);
 3386              		.loc 1 327 1 is_stmt 0 view .LVU1110
 3387 0000 2DE9F843 		push	{r3, r4, r5, r6, r7, r8, r9, lr}
 3388              		.cfi_def_cfa_offset 32
 3389              		.cfi_offset 3, -32
 3390              		.cfi_offset 4, -28
 3391              		.cfi_offset 5, -24
 3392              		.cfi_offset 6, -20
 3393              		.cfi_offset 7, -16
ARM GAS  /var/folders/0z/tsy30v1j4xl4_7kw94k978ww0000gn/T//ccZBZI6H.s 			page 108


 3394              		.cfi_offset 8, -12
 3395              		.cfi_offset 9, -8
 3396              		.cfi_offset 14, -4
 328:Drivers/lvgl/src/widgets/lv_btnmatrix.c **** 
 3397              		.loc 1 328 5 is_stmt 1 view .LVU1111
 328:Drivers/lvgl/src/widgets/lv_btnmatrix.c **** 
 3398              		.loc 1 328 5 view .LVU1112
 328:Drivers/lvgl/src/widgets/lv_btnmatrix.c **** 
 3399              		.loc 1 328 5 view .LVU1113
 330:Drivers/lvgl/src/widgets/lv_btnmatrix.c **** 
 3400              		.loc 1 330 5 view .LVU1114
 330:Drivers/lvgl/src/widgets/lv_btnmatrix.c **** 
 3401              		.loc 1 330 7 is_stmt 0 view .LVU1115
 3402 0004 4FF6FF73 		movw	r3, #65535
 3403 0008 9942     		cmp	r1, r3
 3404 000a 23D0     		beq	.L194
 3405 000c 8046     		mov	r8, r0
 3406 000e 0F46     		mov	r7, r1
 332:Drivers/lvgl/src/widgets/lv_btnmatrix.c ****     if(btn_id > btnm->btn_cnt) return NULL;
 3407              		.loc 1 332 5 is_stmt 1 view .LVU1116
 3408              	.LVL314:
 333:Drivers/lvgl/src/widgets/lv_btnmatrix.c **** 
 3409              		.loc 1 333 5 view .LVU1117
 333:Drivers/lvgl/src/widgets/lv_btnmatrix.c **** 
 3410              		.loc 1 333 21 is_stmt 0 view .LVU1118
 3411 0010 B0F83090 		ldrh	r9, [r0, #48]
 333:Drivers/lvgl/src/widgets/lv_btnmatrix.c **** 
 3412              		.loc 1 333 7 view .LVU1119
 3413 0014 8945     		cmp	r9, r1
 3414 0016 1FD3     		bcc	.L195
 336:Drivers/lvgl/src/widgets/lv_btnmatrix.c **** 
 3415              		.loc 1 336 14 view .LVU1120
 3416 0018 0025     		movs	r5, #0
 335:Drivers/lvgl/src/widgets/lv_btnmatrix.c ****     uint16_t btn_i = 0;
 3417              		.loc 1 335 14 view .LVU1121
 3418 001a 2E46     		mov	r6, r5
 3419 001c 00E0     		b	.L191
 3420              	.LVL315:
 3421              	.L192:
 327:Drivers/lvgl/src/widgets/lv_btnmatrix.c ****     LV_ASSERT_OBJ(obj, MY_CLASS);
 3422              		.loc 1 327 1 view .LVU1122
 3423 001e 2646     		mov	r6, r4
 3424              	.LVL316:
 3425              	.L191:
 340:Drivers/lvgl/src/widgets/lv_btnmatrix.c ****         btn_i++;
 3426              		.loc 1 340 17 is_stmt 1 view .LVU1123
 3427 0020 BD42     		cmp	r5, r7
 3428 0022 0FD0     		beq	.L198
 341:Drivers/lvgl/src/widgets/lv_btnmatrix.c ****         txt_i++;
 3429              		.loc 1 341 9 view .LVU1124
 341:Drivers/lvgl/src/widgets/lv_btnmatrix.c ****         txt_i++;
 3430              		.loc 1 341 14 is_stmt 0 view .LVU1125
 3431 0024 0135     		adds	r5, r5, #1
 3432              	.LVL317:
 341:Drivers/lvgl/src/widgets/lv_btnmatrix.c ****         txt_i++;
 3433              		.loc 1 341 14 view .LVU1126
 3434 0026 ADB2     		uxth	r5, r5
ARM GAS  /var/folders/0z/tsy30v1j4xl4_7kw94k978ww0000gn/T//ccZBZI6H.s 			page 109


 3435              	.LVL318:
 342:Drivers/lvgl/src/widgets/lv_btnmatrix.c ****         if(strcmp(btnm->map_p[txt_i], "\n") == 0) txt_i++;
 3436              		.loc 1 342 9 is_stmt 1 view .LVU1127
 342:Drivers/lvgl/src/widgets/lv_btnmatrix.c ****         if(strcmp(btnm->map_p[txt_i], "\n") == 0) txt_i++;
 3437              		.loc 1 342 14 is_stmt 0 view .LVU1128
 3438 0028 741C     		adds	r4, r6, #1
 3439 002a A4B2     		uxth	r4, r4
 3440              	.LVL319:
 343:Drivers/lvgl/src/widgets/lv_btnmatrix.c ****     }
 3441              		.loc 1 343 9 is_stmt 1 view .LVU1129
 343:Drivers/lvgl/src/widgets/lv_btnmatrix.c ****     }
 3442              		.loc 1 343 23 is_stmt 0 view .LVU1130
 3443 002c D8F82430 		ldr	r3, [r8, #36]
 343:Drivers/lvgl/src/widgets/lv_btnmatrix.c ****     }
 3444              		.loc 1 343 12 view .LVU1131
 3445 0030 0B49     		ldr	r1, .L199
 3446 0032 53F82400 		ldr	r0, [r3, r4, lsl #2]
 3447 0036 FFF7FEFF 		bl	strcmp
 3448              	.LVL320:
 343:Drivers/lvgl/src/widgets/lv_btnmatrix.c ****     }
 3449              		.loc 1 343 11 view .LVU1132
 3450 003a 0028     		cmp	r0, #0
 3451 003c EFD1     		bne	.L192
 343:Drivers/lvgl/src/widgets/lv_btnmatrix.c ****     }
 3452              		.loc 1 343 51 is_stmt 1 discriminator 1 view .LVU1133
 343:Drivers/lvgl/src/widgets/lv_btnmatrix.c ****     }
 3453              		.loc 1 343 56 is_stmt 0 discriminator 1 view .LVU1134
 3454 003e B41C     		adds	r4, r6, #2
 3455              	.LVL321:
 343:Drivers/lvgl/src/widgets/lv_btnmatrix.c ****     }
 3456              		.loc 1 343 56 discriminator 1 view .LVU1135
 3457 0040 A4B2     		uxth	r4, r4
 3458              	.LVL322:
 343:Drivers/lvgl/src/widgets/lv_btnmatrix.c ****     }
 3459              		.loc 1 343 56 discriminator 1 view .LVU1136
 3460 0042 ECE7     		b	.L192
 3461              	.LVL323:
 3462              	.L198:
 346:Drivers/lvgl/src/widgets/lv_btnmatrix.c **** 
 3463              		.loc 1 346 5 is_stmt 1 view .LVU1137
 346:Drivers/lvgl/src/widgets/lv_btnmatrix.c **** 
 3464              		.loc 1 346 7 is_stmt 0 view .LVU1138
 3465 0044 A945     		cmp	r9, r5
 3466 0046 09D0     		beq	.L196
 348:Drivers/lvgl/src/widgets/lv_btnmatrix.c **** }
 3467              		.loc 1 348 5 is_stmt 1 view .LVU1139
 348:Drivers/lvgl/src/widgets/lv_btnmatrix.c **** }
 3468              		.loc 1 348 16 is_stmt 0 view .LVU1140
 3469 0048 D8F82430 		ldr	r3, [r8, #36]
 348:Drivers/lvgl/src/widgets/lv_btnmatrix.c **** }
 3470              		.loc 1 348 23 view .LVU1141
 3471 004c 53F82600 		ldr	r0, [r3, r6, lsl #2]
 3472              	.LVL324:
 3473              	.L189:
 349:Drivers/lvgl/src/widgets/lv_btnmatrix.c **** 
 3474              		.loc 1 349 1 view .LVU1142
 3475 0050 BDE8F883 		pop	{r3, r4, r5, r6, r7, r8, r9, pc}
ARM GAS  /var/folders/0z/tsy30v1j4xl4_7kw94k978ww0000gn/T//ccZBZI6H.s 			page 110


 3476              	.LVL325:
 3477              	.L194:
 330:Drivers/lvgl/src/widgets/lv_btnmatrix.c **** 
 3478              		.loc 1 330 48 view .LVU1143
 3479 0054 0020     		movs	r0, #0
 3480              	.LVL326:
 330:Drivers/lvgl/src/widgets/lv_btnmatrix.c **** 
 3481              		.loc 1 330 48 view .LVU1144
 3482 0056 FBE7     		b	.L189
 3483              	.LVL327:
 3484              	.L195:
 333:Drivers/lvgl/src/widgets/lv_btnmatrix.c **** 
 3485              		.loc 1 333 39 view .LVU1145
 3486 0058 0020     		movs	r0, #0
 3487              	.LVL328:
 333:Drivers/lvgl/src/widgets/lv_btnmatrix.c **** 
 3488              		.loc 1 333 39 view .LVU1146
 3489 005a F9E7     		b	.L189
 3490              	.LVL329:
 3491              	.L196:
 346:Drivers/lvgl/src/widgets/lv_btnmatrix.c **** 
 3492              		.loc 1 346 39 view .LVU1147
 3493 005c 0020     		movs	r0, #0
 3494 005e F7E7     		b	.L189
 3495              	.L200:
 3496              		.align	2
 3497              	.L199:
 3498 0060 00000000 		.word	.LC0
 3499              		.cfi_endproc
 3500              	.LFE173:
 3502              		.section	.text.lv_btnmatrix_has_btn_ctrl,"ax",%progbits
 3503              		.align	1
 3504              		.global	lv_btnmatrix_has_btn_ctrl
 3505              		.syntax unified
 3506              		.thumb
 3507              		.thumb_func
 3509              	lv_btnmatrix_has_btn_ctrl:
 3510              	.LVL330:
 3511              	.LFB174:
 352:Drivers/lvgl/src/widgets/lv_btnmatrix.c ****     LV_ASSERT_OBJ(obj, MY_CLASS);
 3512              		.loc 1 352 1 is_stmt 1 view -0
 3513              		.cfi_startproc
 3514              		@ args = 0, pretend = 0, frame = 0
 3515              		@ frame_needed = 0, uses_anonymous_args = 0
 3516              		@ link register save eliminated.
 353:Drivers/lvgl/src/widgets/lv_btnmatrix.c **** 
 3517              		.loc 1 353 5 view .LVU1149
 353:Drivers/lvgl/src/widgets/lv_btnmatrix.c **** 
 3518              		.loc 1 353 5 view .LVU1150
 353:Drivers/lvgl/src/widgets/lv_btnmatrix.c **** 
 3519              		.loc 1 353 5 view .LVU1151
 355:Drivers/lvgl/src/widgets/lv_btnmatrix.c ****     if(btn_id >= btnm->btn_cnt) return false;
 3520              		.loc 1 355 5 view .LVU1152
 355:Drivers/lvgl/src/widgets/lv_btnmatrix.c ****     if(btn_id >= btnm->btn_cnt) return false;
 3521              		.loc 1 355 51 view .LVU1153
 356:Drivers/lvgl/src/widgets/lv_btnmatrix.c **** 
 3522              		.loc 1 356 5 view .LVU1154
ARM GAS  /var/folders/0z/tsy30v1j4xl4_7kw94k978ww0000gn/T//ccZBZI6H.s 			page 111


 356:Drivers/lvgl/src/widgets/lv_btnmatrix.c **** 
 3523              		.loc 1 356 22 is_stmt 0 view .LVU1155
 3524 0000 038E     		ldrh	r3, [r0, #48]
 356:Drivers/lvgl/src/widgets/lv_btnmatrix.c **** 
 3525              		.loc 1 356 7 view .LVU1156
 3526 0002 8B42     		cmp	r3, r1
 3527 0004 07D9     		bls	.L203
 358:Drivers/lvgl/src/widgets/lv_btnmatrix.c **** }
 3528              		.loc 1 358 5 is_stmt 1 view .LVU1157
 358:Drivers/lvgl/src/widgets/lv_btnmatrix.c **** }
 3529              		.loc 1 358 18 is_stmt 0 view .LVU1158
 3530 0006 C36A     		ldr	r3, [r0, #44]
 358:Drivers/lvgl/src/widgets/lv_btnmatrix.c **** }
 3531              		.loc 1 358 29 view .LVU1159
 3532 0008 33F81130 		ldrh	r3, [r3, r1, lsl #1]
 358:Drivers/lvgl/src/widgets/lv_btnmatrix.c **** }
 3533              		.loc 1 358 62 view .LVU1160
 3534 000c 9A43     		bics	r2, r2, r3
 3535              	.LVL331:
 358:Drivers/lvgl/src/widgets/lv_btnmatrix.c **** }
 3536              		.loc 1 358 62 view .LVU1161
 3537 000e 0CBF     		ite	eq
 3538 0010 0120     		moveq	r0, #1
 3539              	.LVL332:
 358:Drivers/lvgl/src/widgets/lv_btnmatrix.c **** }
 3540              		.loc 1 358 62 view .LVU1162
 3541 0012 0020     		movne	r0, #0
 3542 0014 7047     		bx	lr
 3543              	.LVL333:
 3544              	.L203:
 356:Drivers/lvgl/src/widgets/lv_btnmatrix.c **** 
 3545              		.loc 1 356 40 view .LVU1163
 3546 0016 0020     		movs	r0, #0
 3547              	.LVL334:
 359:Drivers/lvgl/src/widgets/lv_btnmatrix.c **** 
 3548              		.loc 1 359 1 view .LVU1164
 3549 0018 7047     		bx	lr
 3550              		.cfi_endproc
 3551              	.LFE174:
 3553              		.section	.text.make_one_button_checked,"ax",%progbits
 3554              		.align	1
 3555              		.syntax unified
 3556              		.thumb
 3557              		.thumb_func
 3559              	make_one_button_checked:
 3560              	.LVL335:
 3561              	.LFB193:
1055:Drivers/lvgl/src/widgets/lv_btnmatrix.c ****     /*Save whether the button was toggled*/
 3562              		.loc 1 1055 1 is_stmt 1 view -0
 3563              		.cfi_startproc
 3564              		@ args = 0, pretend = 0, frame = 0
 3565              		@ frame_needed = 0, uses_anonymous_args = 0
1055:Drivers/lvgl/src/widgets/lv_btnmatrix.c ****     /*Save whether the button was toggled*/
 3566              		.loc 1 1055 1 is_stmt 0 view .LVU1166
 3567 0000 70B5     		push	{r4, r5, r6, lr}
 3568              		.cfi_def_cfa_offset 16
 3569              		.cfi_offset 4, -16
ARM GAS  /var/folders/0z/tsy30v1j4xl4_7kw94k978ww0000gn/T//ccZBZI6H.s 			page 112


 3570              		.cfi_offset 5, -12
 3571              		.cfi_offset 6, -8
 3572              		.cfi_offset 14, -4
 3573 0002 0446     		mov	r4, r0
 3574 0004 0E46     		mov	r6, r1
1057:Drivers/lvgl/src/widgets/lv_btnmatrix.c **** 
 3575              		.loc 1 1057 5 is_stmt 1 view .LVU1167
1057:Drivers/lvgl/src/widgets/lv_btnmatrix.c **** 
 3576              		.loc 1 1057 24 is_stmt 0 view .LVU1168
 3577 0006 4FF48072 		mov	r2, #256
 3578 000a FFF7FEFF 		bl	lv_btnmatrix_has_btn_ctrl
 3579              	.LVL336:
1057:Drivers/lvgl/src/widgets/lv_btnmatrix.c **** 
 3580              		.loc 1 1057 24 view .LVU1169
 3581 000e 0546     		mov	r5, r0
 3582              	.LVL337:
1059:Drivers/lvgl/src/widgets/lv_btnmatrix.c **** 
 3583              		.loc 1 1059 5 is_stmt 1 view .LVU1170
 3584 0010 4FF48071 		mov	r1, #256
 3585 0014 2046     		mov	r0, r4
 3586 0016 FFF7FEFF 		bl	lv_btnmatrix_clear_btn_ctrl_all
 3587              	.LVL338:
1061:Drivers/lvgl/src/widgets/lv_btnmatrix.c **** }
 3588              		.loc 1 1061 5 view .LVU1171
1061:Drivers/lvgl/src/widgets/lv_btnmatrix.c **** }
 3589              		.loc 1 1061 7 is_stmt 0 view .LVU1172
 3590 001a 05B9     		cbnz	r5, .L207
 3591              	.L204:
1062:Drivers/lvgl/src/widgets/lv_btnmatrix.c **** 
 3592              		.loc 1 1062 1 view .LVU1173
 3593 001c 70BD     		pop	{r4, r5, r6, pc}
 3594              	.LVL339:
 3595              	.L207:
1061:Drivers/lvgl/src/widgets/lv_btnmatrix.c **** }
 3596              		.loc 1 1061 21 is_stmt 1 discriminator 1 view .LVU1174
 3597 001e 4FF48072 		mov	r2, #256
 3598 0022 3146     		mov	r1, r6
 3599 0024 2046     		mov	r0, r4
 3600 0026 FFF7FEFF 		bl	lv_btnmatrix_set_btn_ctrl
 3601              	.LVL340:
1062:Drivers/lvgl/src/widgets/lv_btnmatrix.c **** 
 3602              		.loc 1 1062 1 is_stmt 0 discriminator 1 view .LVU1175
 3603 002a F7E7     		b	.L204
 3604              		.cfi_endproc
 3605              	.LFE193:
 3607              		.section	.text.lv_btnmatrix_event,"ax",%progbits
 3608              		.align	1
 3609              		.syntax unified
 3610              		.thumb
 3611              		.thumb_func
 3613              	lv_btnmatrix_event:
 3614              	.LVL341:
 3615              	.LFB178:
 405:Drivers/lvgl/src/widgets/lv_btnmatrix.c ****     LV_UNUSED(class_p);
 3616              		.loc 1 405 1 is_stmt 1 view -0
 3617              		.cfi_startproc
 3618              		@ args = 0, pretend = 0, frame = 8
ARM GAS  /var/folders/0z/tsy30v1j4xl4_7kw94k978ww0000gn/T//ccZBZI6H.s 			page 113


 3619              		@ frame_needed = 0, uses_anonymous_args = 0
 405:Drivers/lvgl/src/widgets/lv_btnmatrix.c ****     LV_UNUSED(class_p);
 3620              		.loc 1 405 1 is_stmt 0 view .LVU1177
 3621 0000 2DE9F04F 		push	{r4, r5, r6, r7, r8, r9, r10, fp, lr}
 3622              		.cfi_def_cfa_offset 36
 3623              		.cfi_offset 4, -36
 3624              		.cfi_offset 5, -32
 3625              		.cfi_offset 6, -28
 3626              		.cfi_offset 7, -24
 3627              		.cfi_offset 8, -20
 3628              		.cfi_offset 9, -16
 3629              		.cfi_offset 10, -12
 3630              		.cfi_offset 11, -8
 3631              		.cfi_offset 14, -4
 3632 0004 83B0     		sub	sp, sp, #12
 3633              		.cfi_def_cfa_offset 48
 3634 0006 0D46     		mov	r5, r1
 406:Drivers/lvgl/src/widgets/lv_btnmatrix.c **** 
 3635              		.loc 1 406 5 is_stmt 1 view .LVU1178
 408:Drivers/lvgl/src/widgets/lv_btnmatrix.c **** 
 3636              		.loc 1 408 5 view .LVU1179
 411:Drivers/lvgl/src/widgets/lv_btnmatrix.c ****     if(res != LV_RES_OK) return;
 3637              		.loc 1 411 5 view .LVU1180
 411:Drivers/lvgl/src/widgets/lv_btnmatrix.c ****     if(res != LV_RES_OK) return;
 3638              		.loc 1 411 11 is_stmt 0 view .LVU1181
 3639 0008 C348     		ldr	r0, .L304
 3640              	.LVL342:
 411:Drivers/lvgl/src/widgets/lv_btnmatrix.c ****     if(res != LV_RES_OK) return;
 3641              		.loc 1 411 11 view .LVU1182
 3642 000a FFF7FEFF 		bl	lv_obj_event_base
 3643              	.LVL343:
 412:Drivers/lvgl/src/widgets/lv_btnmatrix.c **** 
 3644              		.loc 1 412 5 is_stmt 1 view .LVU1183
 412:Drivers/lvgl/src/widgets/lv_btnmatrix.c **** 
 3645              		.loc 1 412 7 is_stmt 0 view .LVU1184
 3646 000e 0128     		cmp	r0, #1
 3647 0010 02D0     		beq	.L282
 3648              	.LVL344:
 3649              	.L208:
 686:Drivers/lvgl/src/widgets/lv_btnmatrix.c **** 
 3650              		.loc 1 686 1 view .LVU1185
 3651 0012 03B0     		add	sp, sp, #12
 3652              		.cfi_remember_state
 3653              		.cfi_def_cfa_offset 36
 3654              		@ sp needed
 3655 0014 BDE8F08F 		pop	{r4, r5, r6, r7, r8, r9, r10, fp, pc}
 3656              	.LVL345:
 3657              	.L282:
 3658              		.cfi_restore_state
 414:Drivers/lvgl/src/widgets/lv_btnmatrix.c ****     lv_obj_t * obj = lv_event_get_target(e);
 3659              		.loc 1 414 5 is_stmt 1 view .LVU1186
 414:Drivers/lvgl/src/widgets/lv_btnmatrix.c ****     lv_obj_t * obj = lv_event_get_target(e);
 3660              		.loc 1 414 28 is_stmt 0 view .LVU1187
 3661 0018 2846     		mov	r0, r5
 3662              	.LVL346:
 414:Drivers/lvgl/src/widgets/lv_btnmatrix.c ****     lv_obj_t * obj = lv_event_get_target(e);
 3663              		.loc 1 414 28 view .LVU1188
ARM GAS  /var/folders/0z/tsy30v1j4xl4_7kw94k978ww0000gn/T//ccZBZI6H.s 			page 114


 3664 001a FFF7FEFF 		bl	lv_event_get_code
 3665              	.LVL347:
 3666 001e 0446     		mov	r4, r0
 3667              	.LVL348:
 415:Drivers/lvgl/src/widgets/lv_btnmatrix.c ****     lv_btnmatrix_t * btnm = (lv_btnmatrix_t *)obj;
 3668              		.loc 1 415 5 is_stmt 1 view .LVU1189
 415:Drivers/lvgl/src/widgets/lv_btnmatrix.c ****     lv_btnmatrix_t * btnm = (lv_btnmatrix_t *)obj;
 3669              		.loc 1 415 22 is_stmt 0 view .LVU1190
 3670 0020 2846     		mov	r0, r5
 3671 0022 FFF7FEFF 		bl	lv_event_get_target
 3672              	.LVL349:
 3673 0026 0646     		mov	r6, r0
 3674              	.LVL350:
 416:Drivers/lvgl/src/widgets/lv_btnmatrix.c ****     lv_point_t p;
 3675              		.loc 1 416 5 is_stmt 1 view .LVU1191
 417:Drivers/lvgl/src/widgets/lv_btnmatrix.c **** 
 3676              		.loc 1 417 5 view .LVU1192
 419:Drivers/lvgl/src/widgets/lv_btnmatrix.c ****         if(has_popovers_in_top_row(obj)) {
 3677              		.loc 1 419 5 view .LVU1193
 419:Drivers/lvgl/src/widgets/lv_btnmatrix.c ****         if(has_popovers_in_top_row(obj)) {
 3678              		.loc 1 419 7 is_stmt 0 view .LVU1194
 3679 0028 132C     		cmp	r4, #19
 3680 002a 59D0     		beq	.L283
 3681              	.LVL351:
 3682              	.L210:
 426:Drivers/lvgl/src/widgets/lv_btnmatrix.c ****         lv_btnmatrix_set_map(obj, btnm->map_p);
 3683              		.loc 1 426 5 is_stmt 1 view .LVU1195
 426:Drivers/lvgl/src/widgets/lv_btnmatrix.c ****         lv_btnmatrix_set_map(obj, btnm->map_p);
 3684              		.loc 1 426 7 is_stmt 0 view .LVU1196
 3685 002c 2A2C     		cmp	r4, #42
 3686 002e 6AD0     		beq	.L284
 429:Drivers/lvgl/src/widgets/lv_btnmatrix.c ****         lv_btnmatrix_set_map(obj, btnm->map_p);
 3687              		.loc 1 429 10 is_stmt 1 view .LVU1197
 3688 0030 013C     		subs	r4, r4, #1
 3689              	.LVL352:
 429:Drivers/lvgl/src/widgets/lv_btnmatrix.c ****         lv_btnmatrix_set_map(obj, btnm->map_p);
 3690              		.loc 1 429 10 is_stmt 0 view .LVU1198
 3691 0032 282C     		cmp	r4, #40
 3692 0034 EDD8     		bhi	.L208
 3693 0036 01A3     		adr	r3, .L215
 3694 0038 53F824F0 		ldr	pc, [r3, r4, lsl #2]
 3695              		.p2align 2
 3696              	.L215:
 3697 003c 1B010000 		.word	.L224+1
 3698 0040 CD010000 		.word	.L223+1
 3699 0044 61030000 		.word	.L222+1
 3700 0048 13000000 		.word	.L208+1
 3701 004c 13000000 		.word	.L208+1
 3702 0050 1D030000 		.word	.L221+1
 3703 0054 13000000 		.word	.L208+1
 3704 0058 7B020000 		.word	.L220+1
 3705 005c 13000000 		.word	.L208+1
 3706 0060 13000000 		.word	.L208+1
 3707 0064 13000000 		.word	.L208+1
 3708 0068 13000000 		.word	.L208+1
 3709 006c 35040000 		.word	.L219+1
 3710 0070 71030000 		.word	.L218+1
ARM GAS  /var/folders/0z/tsy30v1j4xl4_7kw94k978ww0000gn/T//ccZBZI6H.s 			page 115


 3711 0074 1B040000 		.word	.L217+1
 3712 0078 1B040000 		.word	.L217+1
 3713 007c 13000000 		.word	.L208+1
 3714 0080 13000000 		.word	.L208+1
 3715 0084 13000000 		.word	.L208+1
 3716 0088 13000000 		.word	.L208+1
 3717 008c 9F060000 		.word	.L216+1
 3718 0090 13000000 		.word	.L208+1
 3719 0094 13000000 		.word	.L208+1
 3720 0098 13000000 		.word	.L208+1
 3721 009c 13000000 		.word	.L208+1
 3722 00a0 13000000 		.word	.L208+1
 3723 00a4 13000000 		.word	.L208+1
 3724 00a8 13000000 		.word	.L208+1
 3725 00ac 13000000 		.word	.L208+1
 3726 00b0 13000000 		.word	.L208+1
 3727 00b4 13000000 		.word	.L208+1
 3728 00b8 13000000 		.word	.L208+1
 3729 00bc 13000000 		.word	.L208+1
 3730 00c0 13000000 		.word	.L208+1
 3731 00c4 13000000 		.word	.L208+1
 3732 00c8 13000000 		.word	.L208+1
 3733 00cc 13000000 		.word	.L208+1
 3734 00d0 13000000 		.word	.L208+1
 3735 00d4 13000000 		.word	.L208+1
 3736 00d8 13000000 		.word	.L208+1
 3737 00dc 11010000 		.word	.L214+1
 3738              	.LVL353:
 3739              		.p2align 1
 3740              	.L283:
 420:Drivers/lvgl/src/widgets/lv_btnmatrix.c ****             /*reserve one row worth of extra space to account for popovers in the top row*/
 3741              		.loc 1 420 9 is_stmt 1 view .LVU1199
 420:Drivers/lvgl/src/widgets/lv_btnmatrix.c ****             /*reserve one row worth of extra space to account for popovers in the top row*/
 3742              		.loc 1 420 12 is_stmt 0 view .LVU1200
 3743 00e0 FFF7FEFF 		bl	has_popovers_in_top_row
 3744              	.LVL354:
 420:Drivers/lvgl/src/widgets/lv_btnmatrix.c ****             /*reserve one row worth of extra space to account for popovers in the top row*/
 3745              		.loc 1 420 11 view .LVU1201
 3746 00e4 0028     		cmp	r0, #0
 3747 00e6 A1D0     		beq	.L210
 3748              	.LBB142:
 422:Drivers/lvgl/src/widgets/lv_btnmatrix.c ****             lv_event_set_ext_draw_size(e, s);
 3749              		.loc 1 422 13 is_stmt 1 view .LVU1202
 422:Drivers/lvgl/src/widgets/lv_btnmatrix.c ****             lv_event_set_ext_draw_size(e, s);
 3750              		.loc 1 422 32 is_stmt 0 view .LVU1203
 3751 00e8 738E     		ldrh	r3, [r6, #50]
 422:Drivers/lvgl/src/widgets/lv_btnmatrix.c ****             lv_event_set_ext_draw_size(e, s);
 3752              		.loc 1 422 24 view .LVU1204
 3753 00ea 23B9     		cbnz	r3, .L285
 3754 00ec 0021     		movs	r1, #0
 3755              	.L211:
 3756              	.LVL355:
 423:Drivers/lvgl/src/widgets/lv_btnmatrix.c ****         }
 3757              		.loc 1 423 13 is_stmt 1 discriminator 4 view .LVU1205
 3758 00ee 2846     		mov	r0, r5
 3759 00f0 FFF7FEFF 		bl	lv_event_set_ext_draw_size
 3760              	.LVL356:
ARM GAS  /var/folders/0z/tsy30v1j4xl4_7kw94k978ww0000gn/T//ccZBZI6H.s 			page 116


 423:Drivers/lvgl/src/widgets/lv_btnmatrix.c ****         }
 3761              		.loc 1 423 13 is_stmt 0 discriminator 4 view .LVU1206
 3762 00f4 9AE7     		b	.L210
 3763              	.L285:
 422:Drivers/lvgl/src/widgets/lv_btnmatrix.c ****             lv_event_set_ext_draw_size(e, s);
 3764              		.loc 1 422 48 discriminator 1 view .LVU1207
 3765 00f6 3046     		mov	r0, r6
 3766 00f8 FFF7FEFF 		bl	lv_obj_get_content_height
 3767              	.LVL357:
 422:Drivers/lvgl/src/widgets/lv_btnmatrix.c ****             lv_event_set_ext_draw_size(e, s);
 3768              		.loc 1 422 85 discriminator 1 view .LVU1208
 3769 00fc 738E     		ldrh	r3, [r6, #50]
 422:Drivers/lvgl/src/widgets/lv_btnmatrix.c ****             lv_event_set_ext_draw_size(e, s);
 3770              		.loc 1 422 79 discriminator 1 view .LVU1209
 3771 00fe 90FBF3F1 		sdiv	r1, r0, r3
 422:Drivers/lvgl/src/widgets/lv_btnmatrix.c ****             lv_event_set_ext_draw_size(e, s);
 3772              		.loc 1 422 24 discriminator 1 view .LVU1210
 3773 0102 09B2     		sxth	r1, r1
 3774 0104 F3E7     		b	.L211
 3775              	.L284:
 422:Drivers/lvgl/src/widgets/lv_btnmatrix.c ****             lv_event_set_ext_draw_size(e, s);
 3776              		.loc 1 422 24 discriminator 1 view .LVU1211
 3777              	.LBE142:
 427:Drivers/lvgl/src/widgets/lv_btnmatrix.c ****     }
 3778              		.loc 1 427 9 is_stmt 1 view .LVU1212
 3779 0106 716A     		ldr	r1, [r6, #36]
 3780 0108 3046     		mov	r0, r6
 3781 010a FFF7FEFF 		bl	lv_btnmatrix_set_map
 3782              	.LVL358:
 3783 010e 80E7     		b	.L208
 3784              	.LVL359:
 3785              	.L214:
 430:Drivers/lvgl/src/widgets/lv_btnmatrix.c ****     }
 3786              		.loc 1 430 9 view .LVU1213
 3787 0110 716A     		ldr	r1, [r6, #36]
 3788 0112 3046     		mov	r0, r6
 3789 0114 FFF7FEFF 		bl	lv_btnmatrix_set_map
 3790              	.LVL360:
 3791 0118 7BE7     		b	.L208
 3792              	.L224:
 3793              	.LBB143:
 433:Drivers/lvgl/src/widgets/lv_btnmatrix.c ****         invalidate_button_area(obj, btnm->btn_id_sel);
 3794              		.loc 1 433 9 view .LVU1214
 433:Drivers/lvgl/src/widgets/lv_btnmatrix.c ****         invalidate_button_area(obj, btnm->btn_id_sel);
 3795              		.loc 1 433 24 is_stmt 0 view .LVU1215
 3796 011a 2846     		mov	r0, r5
 3797 011c FFF7FEFF 		bl	lv_event_get_param
 3798              	.LVL361:
 3799 0120 0446     		mov	r4, r0
 3800              	.LVL362:
 434:Drivers/lvgl/src/widgets/lv_btnmatrix.c **** 
 3801              		.loc 1 434 9 is_stmt 1 view .LVU1216
 3802 0122 B18E     		ldrh	r1, [r6, #52]
 3803 0124 3046     		mov	r0, r6
 3804              	.LVL363:
 434:Drivers/lvgl/src/widgets/lv_btnmatrix.c **** 
 3805              		.loc 1 434 9 is_stmt 0 view .LVU1217
ARM GAS  /var/folders/0z/tsy30v1j4xl4_7kw94k978ww0000gn/T//ccZBZI6H.s 			page 117


 3806 0126 FFF7FEFF 		bl	invalidate_button_area
 3807              	.LVL364:
 436:Drivers/lvgl/src/widgets/lv_btnmatrix.c ****         if(indev_type == LV_INDEV_TYPE_POINTER || indev_type == LV_INDEV_TYPE_BUTTON) {
 3808              		.loc 1 436 9 is_stmt 1 view .LVU1218
 436:Drivers/lvgl/src/widgets/lv_btnmatrix.c ****         if(indev_type == LV_INDEV_TYPE_POINTER || indev_type == LV_INDEV_TYPE_BUTTON) {
 3809              		.loc 1 436 56 is_stmt 0 view .LVU1219
 3810 012a FFF7FEFF 		bl	lv_indev_get_act
 3811              	.LVL365:
 436:Drivers/lvgl/src/widgets/lv_btnmatrix.c ****         if(indev_type == LV_INDEV_TYPE_POINTER || indev_type == LV_INDEV_TYPE_BUTTON) {
 3812              		.loc 1 436 38 view .LVU1220
 3813 012e FFF7FEFF 		bl	lv_indev_get_type
 3814              	.LVL366:
 437:Drivers/lvgl/src/widgets/lv_btnmatrix.c ****             uint16_t btn_pr;
 3815              		.loc 1 437 9 is_stmt 1 view .LVU1221
 437:Drivers/lvgl/src/widgets/lv_btnmatrix.c ****             uint16_t btn_pr;
 3816              		.loc 1 437 11 is_stmt 0 view .LVU1222
 3817 0132 0128     		cmp	r0, #1
 3818 0134 29D0     		beq	.L225
 437:Drivers/lvgl/src/widgets/lv_btnmatrix.c ****             uint16_t btn_pr;
 3819              		.loc 1 437 48 discriminator 1 view .LVU1223
 3820 0136 0328     		cmp	r0, #3
 3821 0138 27D0     		beq	.L225
 3822              	.LVL367:
 3823              	.L226:
 456:Drivers/lvgl/src/widgets/lv_btnmatrix.c ****             if(button_is_click_trig(btnm->ctrl_bits[btnm->btn_id_sel]) == false &&
 3824              		.loc 1 456 9 is_stmt 1 view .LVU1224
 456:Drivers/lvgl/src/widgets/lv_btnmatrix.c ****             if(button_is_click_trig(btnm->ctrl_bits[btnm->btn_id_sel]) == false &&
 3825              		.loc 1 456 16 is_stmt 0 view .LVU1225
 3826 013a B48E     		ldrh	r4, [r6, #52]
 456:Drivers/lvgl/src/widgets/lv_btnmatrix.c ****             if(button_is_click_trig(btnm->ctrl_bits[btnm->btn_id_sel]) == false &&
 3827              		.loc 1 456 11 view .LVU1226
 3828 013c 4FF6FF73 		movw	r3, #65535
 3829 0140 9C42     		cmp	r4, r3
 3830 0142 3FF466AF 		beq	.L208
 457:Drivers/lvgl/src/widgets/lv_btnmatrix.c ****                button_is_popover(btnm->ctrl_bits[btnm->btn_id_sel]) == false &&
 3831              		.loc 1 457 13 is_stmt 1 view .LVU1227
 457:Drivers/lvgl/src/widgets/lv_btnmatrix.c ****                button_is_popover(btnm->ctrl_bits[btnm->btn_id_sel]) == false &&
 3832              		.loc 1 457 41 is_stmt 0 view .LVU1228
 3833 0146 F36A     		ldr	r3, [r6, #44]
 457:Drivers/lvgl/src/widgets/lv_btnmatrix.c ****                button_is_popover(btnm->ctrl_bits[btnm->btn_id_sel]) == false &&
 3834              		.loc 1 457 16 view .LVU1229
 3835 0148 33F81450 		ldrh	r5, [r3, r4, lsl #1]
 3836 014c 2846     		mov	r0, r5
 3837 014e FFF7FEFF 		bl	button_is_click_trig
 3838              	.LVL368:
 457:Drivers/lvgl/src/widgets/lv_btnmatrix.c ****                button_is_popover(btnm->ctrl_bits[btnm->btn_id_sel]) == false &&
 3839              		.loc 1 457 15 view .LVU1230
 3840 0152 0028     		cmp	r0, #0
 3841 0154 7FF45DAF 		bne	.L208
 458:Drivers/lvgl/src/widgets/lv_btnmatrix.c ****                button_is_inactive(btnm->ctrl_bits[btnm->btn_id_sel]) == false &&
 3842              		.loc 1 458 16 discriminator 1 view .LVU1231
 3843 0158 2846     		mov	r0, r5
 3844 015a FFF7FEFF 		bl	button_is_popover
 3845              	.LVL369:
 457:Drivers/lvgl/src/widgets/lv_btnmatrix.c ****                button_is_popover(btnm->ctrl_bits[btnm->btn_id_sel]) == false &&
 3846              		.loc 1 457 81 discriminator 1 view .LVU1232
 3847 015e 0028     		cmp	r0, #0
ARM GAS  /var/folders/0z/tsy30v1j4xl4_7kw94k978ww0000gn/T//ccZBZI6H.s 			page 118


 3848 0160 7FF457AF 		bne	.L208
 459:Drivers/lvgl/src/widgets/lv_btnmatrix.c ****                button_is_hidden(btnm->ctrl_bits[btnm->btn_id_sel]) == false) {
 3849              		.loc 1 459 16 view .LVU1233
 3850 0164 2846     		mov	r0, r5
 3851 0166 FFF7FEFF 		bl	button_is_inactive
 3852              	.LVL370:
 458:Drivers/lvgl/src/widgets/lv_btnmatrix.c ****                button_is_inactive(btnm->ctrl_bits[btnm->btn_id_sel]) == false &&
 3853              		.loc 1 458 78 view .LVU1234
 3854 016a 0028     		cmp	r0, #0
 3855 016c 7FF451AF 		bne	.L208
 460:Drivers/lvgl/src/widgets/lv_btnmatrix.c ****                 uint32_t b = btnm->btn_id_sel;
 3856              		.loc 1 460 16 view .LVU1235
 3857 0170 2846     		mov	r0, r5
 3858 0172 FFF7FEFF 		bl	button_is_hidden
 3859              	.LVL371:
 459:Drivers/lvgl/src/widgets/lv_btnmatrix.c ****                button_is_hidden(btnm->ctrl_bits[btnm->btn_id_sel]) == false) {
 3860              		.loc 1 459 79 view .LVU1236
 3861 0176 0028     		cmp	r0, #0
 3862 0178 7FF44BAF 		bne	.L208
 3863              	.LBB144:
 461:Drivers/lvgl/src/widgets/lv_btnmatrix.c ****                 res        = lv_event_send(obj, LV_EVENT_VALUE_CHANGED, &b);
 3864              		.loc 1 461 17 is_stmt 1 view .LVU1237
 461:Drivers/lvgl/src/widgets/lv_btnmatrix.c ****                 res        = lv_event_send(obj, LV_EVENT_VALUE_CHANGED, &b);
 3865              		.loc 1 461 26 is_stmt 0 view .LVU1238
 3866 017c 0094     		str	r4, [sp]
 462:Drivers/lvgl/src/widgets/lv_btnmatrix.c ****                 if(res != LV_RES_OK) return;
 3867              		.loc 1 462 17 is_stmt 1 view .LVU1239
 462:Drivers/lvgl/src/widgets/lv_btnmatrix.c ****                 if(res != LV_RES_OK) return;
 3868              		.loc 1 462 30 is_stmt 0 view .LVU1240
 3869 017e 6A46     		mov	r2, sp
 3870 0180 1C21     		movs	r1, #28
 3871 0182 3046     		mov	r0, r6
 3872 0184 FFF7FEFF 		bl	lv_event_send
 3873              	.LVL372:
 463:Drivers/lvgl/src/widgets/lv_btnmatrix.c ****             }
 3874              		.loc 1 463 17 is_stmt 1 view .LVU1241
 3875 0188 43E7     		b	.L208
 3876              	.LVL373:
 3877              	.L225:
 463:Drivers/lvgl/src/widgets/lv_btnmatrix.c ****             }
 3878              		.loc 1 463 17 is_stmt 0 view .LVU1242
 3879              	.LBE144:
 3880              	.LBB145:
 438:Drivers/lvgl/src/widgets/lv_btnmatrix.c ****             /*Search the pressed area*/
 3881              		.loc 1 438 13 is_stmt 1 view .LVU1243
 440:Drivers/lvgl/src/widgets/lv_btnmatrix.c ****             btn_pr = get_button_from_point(obj, &p);
 3882              		.loc 1 440 13 view .LVU1244
 3883 018a 01A9     		add	r1, sp, #4
 3884 018c 2046     		mov	r0, r4
 3885              	.LVL374:
 440:Drivers/lvgl/src/widgets/lv_btnmatrix.c ****             btn_pr = get_button_from_point(obj, &p);
 3886              		.loc 1 440 13 is_stmt 0 view .LVU1245
 3887 018e FFF7FEFF 		bl	lv_indev_get_point
 3888              	.LVL375:
 441:Drivers/lvgl/src/widgets/lv_btnmatrix.c ****             /*Handle the case where there is no button there*/
 3889              		.loc 1 441 13 is_stmt 1 view .LVU1246
 441:Drivers/lvgl/src/widgets/lv_btnmatrix.c ****             /*Handle the case where there is no button there*/
ARM GAS  /var/folders/0z/tsy30v1j4xl4_7kw94k978ww0000gn/T//ccZBZI6H.s 			page 119


 3890              		.loc 1 441 22 is_stmt 0 view .LVU1247
 3891 0192 01A9     		add	r1, sp, #4
 3892 0194 3046     		mov	r0, r6
 3893 0196 FFF7FEFF 		bl	get_button_from_point
 3894              	.LVL376:
 3895 019a 0446     		mov	r4, r0
 3896              	.LVL377:
 443:Drivers/lvgl/src/widgets/lv_btnmatrix.c ****             if(btn_pr != LV_BTNMATRIX_BTN_NONE) {
 3897              		.loc 1 443 13 is_stmt 1 view .LVU1248
 443:Drivers/lvgl/src/widgets/lv_btnmatrix.c ****             if(btn_pr != LV_BTNMATRIX_BTN_NONE) {
 3898              		.loc 1 443 30 is_stmt 0 view .LVU1249
 3899 019c 4FF6FF73 		movw	r3, #65535
 3900 01a0 B386     		strh	r3, [r6, #52]	@ movhi
 444:Drivers/lvgl/src/widgets/lv_btnmatrix.c ****                 if(button_is_inactive(btnm->ctrl_bits[btn_pr]) == false &&
 3901              		.loc 1 444 13 is_stmt 1 view .LVU1250
 444:Drivers/lvgl/src/widgets/lv_btnmatrix.c ****                 if(button_is_inactive(btnm->ctrl_bits[btn_pr]) == false &&
 3902              		.loc 1 444 15 is_stmt 0 view .LVU1251
 3903 01a2 9842     		cmp	r0, r3
 3904 01a4 C9D0     		beq	.L226
 445:Drivers/lvgl/src/widgets/lv_btnmatrix.c ****                    button_is_hidden(btnm->ctrl_bits[btn_pr]) == false) {
 3905              		.loc 1 445 17 is_stmt 1 view .LVU1252
 445:Drivers/lvgl/src/widgets/lv_btnmatrix.c ****                    button_is_hidden(btnm->ctrl_bits[btn_pr]) == false) {
 3906              		.loc 1 445 43 is_stmt 0 view .LVU1253
 3907 01a6 F36A     		ldr	r3, [r6, #44]
 445:Drivers/lvgl/src/widgets/lv_btnmatrix.c ****                    button_is_hidden(btnm->ctrl_bits[btn_pr]) == false) {
 3908              		.loc 1 445 20 view .LVU1254
 3909 01a8 33F81050 		ldrh	r5, [r3, r0, lsl #1]
 3910              	.LVL378:
 445:Drivers/lvgl/src/widgets/lv_btnmatrix.c ****                    button_is_hidden(btnm->ctrl_bits[btn_pr]) == false) {
 3911              		.loc 1 445 20 view .LVU1255
 3912 01ac 2846     		mov	r0, r5
 3913              	.LVL379:
 445:Drivers/lvgl/src/widgets/lv_btnmatrix.c ****                    button_is_hidden(btnm->ctrl_bits[btn_pr]) == false) {
 3914              		.loc 1 445 20 view .LVU1256
 3915 01ae FFF7FEFF 		bl	button_is_inactive
 3916              	.LVL380:
 445:Drivers/lvgl/src/widgets/lv_btnmatrix.c ****                    button_is_hidden(btnm->ctrl_bits[btn_pr]) == false) {
 3917              		.loc 1 445 19 view .LVU1257
 3918 01b2 0028     		cmp	r0, #0
 3919 01b4 C1D1     		bne	.L226
 446:Drivers/lvgl/src/widgets/lv_btnmatrix.c ****                     btnm->btn_id_sel = btn_pr;
 3920              		.loc 1 446 20 discriminator 1 view .LVU1258
 3921 01b6 2846     		mov	r0, r5
 3922 01b8 FFF7FEFF 		bl	button_is_hidden
 3923              	.LVL381:
 445:Drivers/lvgl/src/widgets/lv_btnmatrix.c ****                    button_is_hidden(btnm->ctrl_bits[btn_pr]) == false) {
 3924              		.loc 1 445 73 discriminator 1 view .LVU1259
 3925 01bc 0028     		cmp	r0, #0
 3926 01be BCD1     		bne	.L226
 447:Drivers/lvgl/src/widgets/lv_btnmatrix.c ****                     invalidate_button_area(obj, btnm->btn_id_sel); /*Invalidate the new area*/
 3927              		.loc 1 447 21 is_stmt 1 view .LVU1260
 447:Drivers/lvgl/src/widgets/lv_btnmatrix.c ****                     invalidate_button_area(obj, btnm->btn_id_sel); /*Invalidate the new area*/
 3928              		.loc 1 447 38 is_stmt 0 view .LVU1261
 3929 01c0 B486     		strh	r4, [r6, #52]	@ movhi
 448:Drivers/lvgl/src/widgets/lv_btnmatrix.c ****                 }
 3930              		.loc 1 448 21 is_stmt 1 view .LVU1262
 3931 01c2 2146     		mov	r1, r4
ARM GAS  /var/folders/0z/tsy30v1j4xl4_7kw94k978ww0000gn/T//ccZBZI6H.s 			page 120


 3932 01c4 3046     		mov	r0, r6
 3933 01c6 FFF7FEFF 		bl	invalidate_button_area
 3934              	.LVL382:
 3935 01ca B6E7     		b	.L226
 3936              	.LVL383:
 3937              	.L223:
 448:Drivers/lvgl/src/widgets/lv_btnmatrix.c ****                 }
 3938              		.loc 1 448 21 is_stmt 0 view .LVU1263
 3939              	.LBE145:
 3940              	.LBE143:
 3941              	.LBB146:
 468:Drivers/lvgl/src/widgets/lv_btnmatrix.c ****         uint16_t btn_pr = LV_BTNMATRIX_BTN_NONE;
 3942              		.loc 1 468 9 is_stmt 1 view .LVU1264
 468:Drivers/lvgl/src/widgets/lv_btnmatrix.c ****         uint16_t btn_pr = LV_BTNMATRIX_BTN_NONE;
 3943              		.loc 1 468 24 is_stmt 0 view .LVU1265
 3944 01cc 2846     		mov	r0, r5
 3945 01ce FFF7FEFF 		bl	lv_event_get_param
 3946              	.LVL384:
 3947 01d2 0546     		mov	r5, r0
 3948              	.LVL385:
 469:Drivers/lvgl/src/widgets/lv_btnmatrix.c ****         /*Search the pressed area*/
 3949              		.loc 1 469 9 is_stmt 1 view .LVU1266
 471:Drivers/lvgl/src/widgets/lv_btnmatrix.c ****         lv_indev_type_t indev_type = lv_indev_get_type(indev);
 3950              		.loc 1 471 9 view .LVU1267
 471:Drivers/lvgl/src/widgets/lv_btnmatrix.c ****         lv_indev_type_t indev_type = lv_indev_get_type(indev);
 3951              		.loc 1 471 30 is_stmt 0 view .LVU1268
 3952 01d4 FFF7FEFF 		bl	lv_indev_get_act
 3953              	.LVL386:
 471:Drivers/lvgl/src/widgets/lv_btnmatrix.c ****         lv_indev_type_t indev_type = lv_indev_get_type(indev);
 3954              		.loc 1 471 30 view .LVU1269
 3955 01d8 0446     		mov	r4, r0
 3956              	.LVL387:
 472:Drivers/lvgl/src/widgets/lv_btnmatrix.c ****         if(indev_type == LV_INDEV_TYPE_ENCODER || indev_type == LV_INDEV_TYPE_KEYPAD) return;
 3957              		.loc 1 472 9 is_stmt 1 view .LVU1270
 472:Drivers/lvgl/src/widgets/lv_btnmatrix.c ****         if(indev_type == LV_INDEV_TYPE_ENCODER || indev_type == LV_INDEV_TYPE_KEYPAD) return;
 3958              		.loc 1 472 38 is_stmt 0 view .LVU1271
 3959 01da FFF7FEFF 		bl	lv_indev_get_type
 3960              	.LVL388:
 473:Drivers/lvgl/src/widgets/lv_btnmatrix.c **** 
 3961              		.loc 1 473 9 is_stmt 1 view .LVU1272
 473:Drivers/lvgl/src/widgets/lv_btnmatrix.c **** 
 3962              		.loc 1 473 11 is_stmt 0 view .LVU1273
 3963 01de 0428     		cmp	r0, #4
 3964 01e0 3FF417AF 		beq	.L208
 473:Drivers/lvgl/src/widgets/lv_btnmatrix.c **** 
 3965              		.loc 1 473 48 discriminator 2 view .LVU1274
 3966 01e4 0228     		cmp	r0, #2
 3967 01e6 3FF414AF 		beq	.L208
 475:Drivers/lvgl/src/widgets/lv_btnmatrix.c ****         btn_pr = get_button_from_point(obj, &p);
 3968              		.loc 1 475 9 is_stmt 1 view .LVU1275
 3969 01ea 01A9     		add	r1, sp, #4
 3970 01ec 2046     		mov	r0, r4
 3971              	.LVL389:
 475:Drivers/lvgl/src/widgets/lv_btnmatrix.c ****         btn_pr = get_button_from_point(obj, &p);
 3972              		.loc 1 475 9 is_stmt 0 view .LVU1276
 3973 01ee FFF7FEFF 		bl	lv_indev_get_point
 3974              	.LVL390:
ARM GAS  /var/folders/0z/tsy30v1j4xl4_7kw94k978ww0000gn/T//ccZBZI6H.s 			page 121


 476:Drivers/lvgl/src/widgets/lv_btnmatrix.c ****         /*Invalidate to old and the new areas*/
 3975              		.loc 1 476 9 is_stmt 1 view .LVU1277
 476:Drivers/lvgl/src/widgets/lv_btnmatrix.c ****         /*Invalidate to old and the new areas*/
 3976              		.loc 1 476 18 is_stmt 0 view .LVU1278
 3977 01f2 01A9     		add	r1, sp, #4
 3978 01f4 3046     		mov	r0, r6
 3979 01f6 FFF7FEFF 		bl	get_button_from_point
 3980              	.LVL391:
 3981 01fa 0446     		mov	r4, r0
 3982              	.LVL392:
 478:Drivers/lvgl/src/widgets/lv_btnmatrix.c ****             if(btnm->btn_id_sel != LV_BTNMATRIX_BTN_NONE) {
 3983              		.loc 1 478 9 is_stmt 1 view .LVU1279
 478:Drivers/lvgl/src/widgets/lv_btnmatrix.c ****             if(btnm->btn_id_sel != LV_BTNMATRIX_BTN_NONE) {
 3984              		.loc 1 478 26 is_stmt 0 view .LVU1280
 3985 01fc B18E     		ldrh	r1, [r6, #52]
 478:Drivers/lvgl/src/widgets/lv_btnmatrix.c ****             if(btnm->btn_id_sel != LV_BTNMATRIX_BTN_NONE) {
 3986              		.loc 1 478 11 view .LVU1281
 3987 01fe 8142     		cmp	r1, r0
 3988 0200 3FF407AF 		beq	.L208
 479:Drivers/lvgl/src/widgets/lv_btnmatrix.c ****                 invalidate_button_area(obj, btnm->btn_id_sel);
 3989              		.loc 1 479 13 is_stmt 1 view .LVU1282
 479:Drivers/lvgl/src/widgets/lv_btnmatrix.c ****                 invalidate_button_area(obj, btnm->btn_id_sel);
 3990              		.loc 1 479 15 is_stmt 0 view .LVU1283
 3991 0204 4FF6FF73 		movw	r3, #65535
 3992 0208 9942     		cmp	r1, r3
 3993 020a 32D1     		bne	.L286
 3994              	.LVL393:
 3995              	.L228:
 483:Drivers/lvgl/src/widgets/lv_btnmatrix.c **** 
 3996              		.loc 1 483 13 is_stmt 1 view .LVU1284
 483:Drivers/lvgl/src/widgets/lv_btnmatrix.c **** 
 3997              		.loc 1 483 30 is_stmt 0 view .LVU1285
 3998 020c B486     		strh	r4, [r6, #52]	@ movhi
 485:Drivers/lvgl/src/widgets/lv_btnmatrix.c ****             if(btn_pr != LV_BTNMATRIX_BTN_NONE &&
 3999              		.loc 1 485 13 is_stmt 1 view .LVU1286
 4000 020e 2846     		mov	r0, r5
 4001 0210 FFF7FEFF 		bl	lv_indev_reset_long_press
 4002              	.LVL394:
 486:Drivers/lvgl/src/widgets/lv_btnmatrix.c ****                button_is_inactive(btnm->ctrl_bits[btn_pr]) == false &&
 4003              		.loc 1 486 13 view .LVU1287
 486:Drivers/lvgl/src/widgets/lv_btnmatrix.c ****                button_is_inactive(btnm->ctrl_bits[btn_pr]) == false &&
 4004              		.loc 1 486 15 is_stmt 0 view .LVU1288
 4005 0214 4FF6FF73 		movw	r3, #65535
 4006 0218 9C42     		cmp	r4, r3
 4007 021a 3FF4FAAE 		beq	.L208
 487:Drivers/lvgl/src/widgets/lv_btnmatrix.c ****                button_is_hidden(btnm->ctrl_bits[btn_pr]) == false) {
 4008              		.loc 1 487 39 discriminator 1 view .LVU1289
 4009 021e F36A     		ldr	r3, [r6, #44]
 487:Drivers/lvgl/src/widgets/lv_btnmatrix.c ****                button_is_hidden(btnm->ctrl_bits[btn_pr]) == false) {
 4010              		.loc 1 487 16 discriminator 1 view .LVU1290
 4011 0220 33F81450 		ldrh	r5, [r3, r4, lsl #1]
 4012              	.LVL395:
 487:Drivers/lvgl/src/widgets/lv_btnmatrix.c ****                button_is_hidden(btnm->ctrl_bits[btn_pr]) == false) {
 4013              		.loc 1 487 16 discriminator 1 view .LVU1291
 4014 0224 2846     		mov	r0, r5
 4015 0226 FFF7FEFF 		bl	button_is_inactive
 4016              	.LVL396:
ARM GAS  /var/folders/0z/tsy30v1j4xl4_7kw94k978ww0000gn/T//ccZBZI6H.s 			page 122


 486:Drivers/lvgl/src/widgets/lv_btnmatrix.c ****                button_is_inactive(btnm->ctrl_bits[btn_pr]) == false &&
 4017              		.loc 1 486 48 discriminator 1 view .LVU1292
 4018 022a 0028     		cmp	r0, #0
 4019 022c 7FF4F1AE 		bne	.L208
 488:Drivers/lvgl/src/widgets/lv_btnmatrix.c ****                 invalidate_button_area(obj, btn_pr);
 4020              		.loc 1 488 16 view .LVU1293
 4021 0230 2846     		mov	r0, r5
 4022 0232 FFF7FEFF 		bl	button_is_hidden
 4023              	.LVL397:
 487:Drivers/lvgl/src/widgets/lv_btnmatrix.c ****                button_is_hidden(btnm->ctrl_bits[btn_pr]) == false) {
 4024              		.loc 1 487 69 view .LVU1294
 4025 0236 0028     		cmp	r0, #0
 4026 0238 7FF4EBAE 		bne	.L208
 489:Drivers/lvgl/src/widgets/lv_btnmatrix.c ****                 /*Send VALUE_CHANGED for the newly pressed button*/
 4027              		.loc 1 489 17 is_stmt 1 view .LVU1295
 4028 023c 2146     		mov	r1, r4
 4029 023e 3046     		mov	r0, r6
 4030 0240 FFF7FEFF 		bl	invalidate_button_area
 4031              	.LVL398:
 491:Drivers/lvgl/src/widgets/lv_btnmatrix.c ****                    button_is_popover(btnm->ctrl_bits[btnm->btn_id_sel]) == false) {
 4032              		.loc 1 491 17 view .LVU1296
 491:Drivers/lvgl/src/widgets/lv_btnmatrix.c ****                    button_is_popover(btnm->ctrl_bits[btnm->btn_id_sel]) == false) {
 4033              		.loc 1 491 45 is_stmt 0 view .LVU1297
 4034 0244 F56A     		ldr	r5, [r6, #44]
 491:Drivers/lvgl/src/widgets/lv_btnmatrix.c ****                    button_is_popover(btnm->ctrl_bits[btnm->btn_id_sel]) == false) {
 4035              		.loc 1 491 20 view .LVU1298
 4036 0246 35F81400 		ldrh	r0, [r5, r4, lsl #1]
 4037 024a FFF7FEFF 		bl	button_is_click_trig
 4038              	.LVL399:
 491:Drivers/lvgl/src/widgets/lv_btnmatrix.c ****                    button_is_popover(btnm->ctrl_bits[btnm->btn_id_sel]) == false) {
 4039              		.loc 1 491 19 view .LVU1299
 4040 024e 0028     		cmp	r0, #0
 4041 0250 7FF4DFAE 		bne	.L208
 492:Drivers/lvgl/src/widgets/lv_btnmatrix.c ****                     uint32_t b = btn_pr;
 4042              		.loc 1 492 58 discriminator 1 view .LVU1300
 4043 0254 B38E     		ldrh	r3, [r6, #52]
 492:Drivers/lvgl/src/widgets/lv_btnmatrix.c ****                     uint32_t b = btn_pr;
 4044              		.loc 1 492 20 discriminator 1 view .LVU1301
 4045 0256 35F81300 		ldrh	r0, [r5, r3, lsl #1]
 4046 025a FFF7FEFF 		bl	button_is_popover
 4047              	.LVL400:
 491:Drivers/lvgl/src/widgets/lv_btnmatrix.c ****                    button_is_popover(btnm->ctrl_bits[btnm->btn_id_sel]) == false) {
 4048              		.loc 1 491 75 discriminator 1 view .LVU1302
 4049 025e 0028     		cmp	r0, #0
 4050 0260 7FF4D7AE 		bne	.L208
 4051              	.LBB147:
 493:Drivers/lvgl/src/widgets/lv_btnmatrix.c ****                     res = lv_event_send(obj, LV_EVENT_VALUE_CHANGED, &b);
 4052              		.loc 1 493 21 is_stmt 1 view .LVU1303
 493:Drivers/lvgl/src/widgets/lv_btnmatrix.c ****                     res = lv_event_send(obj, LV_EVENT_VALUE_CHANGED, &b);
 4053              		.loc 1 493 30 is_stmt 0 view .LVU1304
 4054 0264 0094     		str	r4, [sp]
 494:Drivers/lvgl/src/widgets/lv_btnmatrix.c ****                     if(res != LV_RES_OK) return;
 4055              		.loc 1 494 21 is_stmt 1 view .LVU1305
 494:Drivers/lvgl/src/widgets/lv_btnmatrix.c ****                     if(res != LV_RES_OK) return;
 4056              		.loc 1 494 27 is_stmt 0 view .LVU1306
 4057 0266 6A46     		mov	r2, sp
 4058 0268 1C21     		movs	r1, #28
ARM GAS  /var/folders/0z/tsy30v1j4xl4_7kw94k978ww0000gn/T//ccZBZI6H.s 			page 123


 4059 026a 3046     		mov	r0, r6
 4060 026c FFF7FEFF 		bl	lv_event_send
 4061              	.LVL401:
 495:Drivers/lvgl/src/widgets/lv_btnmatrix.c ****                 }
 4062              		.loc 1 495 21 is_stmt 1 view .LVU1307
 4063 0270 CFE6     		b	.L208
 4064              	.LVL402:
 4065              	.L286:
 495:Drivers/lvgl/src/widgets/lv_btnmatrix.c ****                 }
 4066              		.loc 1 495 21 is_stmt 0 view .LVU1308
 4067              	.LBE147:
 480:Drivers/lvgl/src/widgets/lv_btnmatrix.c ****             }
 4068              		.loc 1 480 17 is_stmt 1 view .LVU1309
 4069 0272 3046     		mov	r0, r6
 4070              	.LVL403:
 480:Drivers/lvgl/src/widgets/lv_btnmatrix.c ****             }
 4071              		.loc 1 480 17 is_stmt 0 view .LVU1310
 4072 0274 FFF7FEFF 		bl	invalidate_button_area
 4073              	.LVL404:
 4074 0278 C8E7     		b	.L228
 4075              	.LVL405:
 4076              	.L220:
 480:Drivers/lvgl/src/widgets/lv_btnmatrix.c ****             }
 4077              		.loc 1 480 17 view .LVU1311
 4078              	.LBE146:
 501:Drivers/lvgl/src/widgets/lv_btnmatrix.c ****             /*Toggle the button if enabled*/
 4079              		.loc 1 501 9 is_stmt 1 view .LVU1312
 501:Drivers/lvgl/src/widgets/lv_btnmatrix.c ****             /*Toggle the button if enabled*/
 4080              		.loc 1 501 16 is_stmt 0 view .LVU1313
 4081 027a B78E     		ldrh	r7, [r6, #52]
 501:Drivers/lvgl/src/widgets/lv_btnmatrix.c ****             /*Toggle the button if enabled*/
 4082              		.loc 1 501 11 view .LVU1314
 4083 027c 4FF6FF73 		movw	r3, #65535
 4084 0280 9F42     		cmp	r7, r3
 4085 0282 35D0     		beq	.L230
 503:Drivers/lvgl/src/widgets/lv_btnmatrix.c ****                !button_is_inactive(btnm->ctrl_bits[btnm->btn_id_sel])) {
 4086              		.loc 1 503 13 is_stmt 1 view .LVU1315
 503:Drivers/lvgl/src/widgets/lv_btnmatrix.c ****                !button_is_inactive(btnm->ctrl_bits[btnm->btn_id_sel])) {
 4087              		.loc 1 503 40 is_stmt 0 view .LVU1316
 4088 0284 F56A     		ldr	r5, [r6, #44]
 4089              	.LVL406:
 503:Drivers/lvgl/src/widgets/lv_btnmatrix.c ****                !button_is_inactive(btnm->ctrl_bits[btnm->btn_id_sel])) {
 4090              		.loc 1 503 16 view .LVU1317
 4091 0286 35F81740 		ldrh	r4, [r5, r7, lsl #1]
 4092 028a 2046     		mov	r0, r4
 4093 028c FFF7FEFF 		bl	button_is_checkable
 4094              	.LVL407:
 503:Drivers/lvgl/src/widgets/lv_btnmatrix.c ****                !button_is_inactive(btnm->ctrl_bits[btnm->btn_id_sel])) {
 4095              		.loc 1 503 15 view .LVU1318
 4096 0290 D0B1     		cbz	r0, .L231
 504:Drivers/lvgl/src/widgets/lv_btnmatrix.c ****                 if(button_get_checked(btnm->ctrl_bits[btnm->btn_id_sel]) && !btnm->one_check) {
 4097              		.loc 1 504 17 discriminator 1 view .LVU1319
 4098 0292 2046     		mov	r0, r4
 4099 0294 FFF7FEFF 		bl	button_is_inactive
 4100              	.LVL408:
 503:Drivers/lvgl/src/widgets/lv_btnmatrix.c ****                !button_is_inactive(btnm->ctrl_bits[btnm->btn_id_sel])) {
 4101              		.loc 1 503 71 discriminator 1 view .LVU1320
ARM GAS  /var/folders/0z/tsy30v1j4xl4_7kw94k978ww0000gn/T//ccZBZI6H.s 			page 124


 4102 0298 B0B9     		cbnz	r0, .L231
 505:Drivers/lvgl/src/widgets/lv_btnmatrix.c ****                     btnm->ctrl_bits[btnm->btn_id_sel] &= (~LV_BTNMATRIX_CTRL_CHECKED);
 4103              		.loc 1 505 17 is_stmt 1 view .LVU1321
 505:Drivers/lvgl/src/widgets/lv_btnmatrix.c ****                     btnm->ctrl_bits[btnm->btn_id_sel] &= (~LV_BTNMATRIX_CTRL_CHECKED);
 4104              		.loc 1 505 20 is_stmt 0 view .LVU1322
 4105 029a 2046     		mov	r0, r4
 4106 029c FFF7FEFF 		bl	button_get_checked
 4107              	.LVL409:
 505:Drivers/lvgl/src/widgets/lv_btnmatrix.c ****                     btnm->ctrl_bits[btnm->btn_id_sel] &= (~LV_BTNMATRIX_CTRL_CHECKED);
 4108              		.loc 1 505 19 view .LVU1323
 4109 02a0 48B1     		cbz	r0, .L232
 505:Drivers/lvgl/src/widgets/lv_btnmatrix.c ****                     btnm->ctrl_bits[btnm->btn_id_sel] &= (~LV_BTNMATRIX_CTRL_CHECKED);
 4110              		.loc 1 505 77 discriminator 1 view .LVU1324
 4111 02a2 96F83630 		ldrb	r3, [r6, #54]	@ zero_extendqisi2
 505:Drivers/lvgl/src/widgets/lv_btnmatrix.c ****                     btnm->ctrl_bits[btnm->btn_id_sel] &= (~LV_BTNMATRIX_CTRL_CHECKED);
 4112              		.loc 1 505 74 discriminator 1 view .LVU1325
 4113 02a6 13F0010F 		tst	r3, #1
 4114 02aa 04D1     		bne	.L232
 506:Drivers/lvgl/src/widgets/lv_btnmatrix.c ****                 }
 4115              		.loc 1 506 21 is_stmt 1 view .LVU1326
 506:Drivers/lvgl/src/widgets/lv_btnmatrix.c ****                 }
 4116              		.loc 1 506 55 is_stmt 0 view .LVU1327
 4117 02ac 24F48074 		bic	r4, r4, #256
 4118 02b0 25F81740 		strh	r4, [r5, r7, lsl #1]	@ movhi
 4119 02b4 03E0     		b	.L233
 4120              	.L232:
 509:Drivers/lvgl/src/widgets/lv_btnmatrix.c ****                 }
 4121              		.loc 1 509 21 is_stmt 1 view .LVU1328
 509:Drivers/lvgl/src/widgets/lv_btnmatrix.c ****                 }
 4122              		.loc 1 509 55 is_stmt 0 view .LVU1329
 4123 02b6 44F48074 		orr	r4, r4, #256
 4124 02ba 25F81740 		strh	r4, [r5, r7, lsl #1]	@ movhi
 4125              	.L233:
 511:Drivers/lvgl/src/widgets/lv_btnmatrix.c ****             }
 4126              		.loc 1 511 17 is_stmt 1 view .LVU1330
 511:Drivers/lvgl/src/widgets/lv_btnmatrix.c ****             }
 4127              		.loc 1 511 20 is_stmt 0 view .LVU1331
 4128 02be 96F83630 		ldrb	r3, [r6, #54]	@ zero_extendqisi2
 511:Drivers/lvgl/src/widgets/lv_btnmatrix.c ****             }
 4129              		.loc 1 511 19 view .LVU1332
 4130 02c2 13F0010F 		tst	r3, #1
 4131 02c6 18D1     		bne	.L287
 4132              	.L231:
 515:Drivers/lvgl/src/widgets/lv_btnmatrix.c ****                 button_is_popover(btnm->ctrl_bits[btnm->btn_id_sel]) == true) &&
 4133              		.loc 1 515 13 is_stmt 1 view .LVU1333
 515:Drivers/lvgl/src/widgets/lv_btnmatrix.c ****                 button_is_popover(btnm->ctrl_bits[btnm->btn_id_sel]) == true) &&
 4134              		.loc 1 515 42 is_stmt 0 view .LVU1334
 4135 02c8 F36A     		ldr	r3, [r6, #44]
 515:Drivers/lvgl/src/widgets/lv_btnmatrix.c ****                 button_is_popover(btnm->ctrl_bits[btnm->btn_id_sel]) == true) &&
 4136              		.loc 1 515 58 view .LVU1335
 4137 02ca B58E     		ldrh	r5, [r6, #52]
 515:Drivers/lvgl/src/widgets/lv_btnmatrix.c ****                 button_is_popover(btnm->ctrl_bits[btnm->btn_id_sel]) == true) &&
 4138              		.loc 1 515 17 view .LVU1336
 4139 02cc 33F81540 		ldrh	r4, [r3, r5, lsl #1]
 4140 02d0 2046     		mov	r0, r4
 4141 02d2 FFF7FEFF 		bl	button_is_click_trig
 4142              	.LVL410:
ARM GAS  /var/folders/0z/tsy30v1j4xl4_7kw94k978ww0000gn/T//ccZBZI6H.s 			page 125


 515:Drivers/lvgl/src/widgets/lv_btnmatrix.c ****                 button_is_popover(btnm->ctrl_bits[btnm->btn_id_sel]) == true) &&
 4143              		.loc 1 515 15 view .LVU1337
 4144 02d6 18B9     		cbnz	r0, .L234
 516:Drivers/lvgl/src/widgets/lv_btnmatrix.c ****                button_is_inactive(btnm->ctrl_bits[btnm->btn_id_sel]) == false &&
 4145              		.loc 1 516 17 discriminator 1 view .LVU1338
 4146 02d8 2046     		mov	r0, r4
 4147 02da FFF7FEFF 		bl	button_is_popover
 4148              	.LVL411:
 515:Drivers/lvgl/src/widgets/lv_btnmatrix.c ****                 button_is_popover(btnm->ctrl_bits[btnm->btn_id_sel]) == true) &&
 4149              		.loc 1 515 81 discriminator 1 view .LVU1339
 4150 02de 38B1     		cbz	r0, .L230
 4151              	.L234:
 517:Drivers/lvgl/src/widgets/lv_btnmatrix.c ****                button_is_hidden(btnm->ctrl_bits[btnm->btn_id_sel]) == false) {
 4152              		.loc 1 517 16 view .LVU1340
 4153 02e0 2046     		mov	r0, r4
 4154 02e2 FFF7FEFF 		bl	button_is_inactive
 4155              	.LVL412:
 516:Drivers/lvgl/src/widgets/lv_btnmatrix.c ****                button_is_inactive(btnm->ctrl_bits[btnm->btn_id_sel]) == false &&
 4156              		.loc 1 516 79 view .LVU1341
 4157 02e6 18B9     		cbnz	r0, .L230
 518:Drivers/lvgl/src/widgets/lv_btnmatrix.c ****                 uint32_t b = btnm->btn_id_sel;
 4158              		.loc 1 518 16 view .LVU1342
 4159 02e8 2046     		mov	r0, r4
 4160 02ea FFF7FEFF 		bl	button_is_hidden
 4161              	.LVL413:
 517:Drivers/lvgl/src/widgets/lv_btnmatrix.c ****                button_is_hidden(btnm->ctrl_bits[btnm->btn_id_sel]) == false) {
 4162              		.loc 1 517 79 view .LVU1343
 4163 02ee 48B1     		cbz	r0, .L288
 4164              	.L230:
 525:Drivers/lvgl/src/widgets/lv_btnmatrix.c ****         invalidate_button_area(obj, btnm->btn_id_sel);
 4165              		.loc 1 525 43 is_stmt 1 view .LVU1344
 526:Drivers/lvgl/src/widgets/lv_btnmatrix.c **** 
 4166              		.loc 1 526 9 view .LVU1345
 4167 02f0 B18E     		ldrh	r1, [r6, #52]
 4168 02f2 3046     		mov	r0, r6
 4169 02f4 FFF7FEFF 		bl	invalidate_button_area
 4170              	.LVL414:
 4171 02f8 8BE6     		b	.L208
 4172              	.L287:
 511:Drivers/lvgl/src/widgets/lv_btnmatrix.c ****             }
 4173              		.loc 1 511 37 discriminator 1 view .LVU1346
 4174 02fa B18E     		ldrh	r1, [r6, #52]
 4175 02fc 3046     		mov	r0, r6
 4176 02fe FFF7FEFF 		bl	make_one_button_checked
 4177              	.LVL415:
 4178 0302 E1E7     		b	.L231
 4179              	.L288:
 4180              	.LBB148:
 519:Drivers/lvgl/src/widgets/lv_btnmatrix.c ****                 res        = lv_event_send(obj, LV_EVENT_VALUE_CHANGED, &b);
 4181              		.loc 1 519 17 view .LVU1347
 519:Drivers/lvgl/src/widgets/lv_btnmatrix.c ****                 res        = lv_event_send(obj, LV_EVENT_VALUE_CHANGED, &b);
 4182              		.loc 1 519 26 is_stmt 0 view .LVU1348
 4183 0304 0095     		str	r5, [sp]
 520:Drivers/lvgl/src/widgets/lv_btnmatrix.c ****                 if(res != LV_RES_OK) return;
 4184              		.loc 1 520 17 is_stmt 1 view .LVU1349
 520:Drivers/lvgl/src/widgets/lv_btnmatrix.c ****                 if(res != LV_RES_OK) return;
 4185              		.loc 1 520 30 is_stmt 0 view .LVU1350
ARM GAS  /var/folders/0z/tsy30v1j4xl4_7kw94k978ww0000gn/T//ccZBZI6H.s 			page 126


 4186 0306 6A46     		mov	r2, sp
 4187 0308 1C21     		movs	r1, #28
 4188 030a 3046     		mov	r0, r6
 4189 030c FFF7FEFF 		bl	lv_event_send
 4190              	.LVL416:
 521:Drivers/lvgl/src/widgets/lv_btnmatrix.c ****             }
 4191              		.loc 1 521 17 is_stmt 1 view .LVU1351
 521:Drivers/lvgl/src/widgets/lv_btnmatrix.c ****             }
 4192              		.loc 1 521 19 is_stmt 0 view .LVU1352
 4193 0310 0128     		cmp	r0, #1
 4194 0312 7FF47EAE 		bne	.L208
 4195 0316 EBE7     		b	.L230
 4196              	.L305:
 4197              		.align	2
 4198              	.L304:
 4199 0318 00000000 		.word	.LANCHOR0
 4200              	.LVL417:
 4201              	.L221:
 521:Drivers/lvgl/src/widgets/lv_btnmatrix.c ****             }
 4202              		.loc 1 521 19 view .LVU1353
 4203              	.LBE148:
 530:Drivers/lvgl/src/widgets/lv_btnmatrix.c ****             if(button_is_repeat_disabled(btnm->ctrl_bits[btnm->btn_id_sel]) == false &&
 4204              		.loc 1 530 9 is_stmt 1 view .LVU1354
 530:Drivers/lvgl/src/widgets/lv_btnmatrix.c ****             if(button_is_repeat_disabled(btnm->ctrl_bits[btnm->btn_id_sel]) == false &&
 4205              		.loc 1 530 16 is_stmt 0 view .LVU1355
 4206 031c B48E     		ldrh	r4, [r6, #52]
 530:Drivers/lvgl/src/widgets/lv_btnmatrix.c ****             if(button_is_repeat_disabled(btnm->ctrl_bits[btnm->btn_id_sel]) == false &&
 4207              		.loc 1 530 11 view .LVU1356
 4208 031e 4FF6FF73 		movw	r3, #65535
 4209 0322 9C42     		cmp	r4, r3
 4210 0324 3FF475AE 		beq	.L208
 531:Drivers/lvgl/src/widgets/lv_btnmatrix.c ****                button_is_inactive(btnm->ctrl_bits[btnm->btn_id_sel]) == false &&
 4211              		.loc 1 531 13 is_stmt 1 view .LVU1357
 531:Drivers/lvgl/src/widgets/lv_btnmatrix.c ****                button_is_inactive(btnm->ctrl_bits[btnm->btn_id_sel]) == false &&
 4212              		.loc 1 531 46 is_stmt 0 view .LVU1358
 4213 0328 F36A     		ldr	r3, [r6, #44]
 531:Drivers/lvgl/src/widgets/lv_btnmatrix.c ****                button_is_inactive(btnm->ctrl_bits[btnm->btn_id_sel]) == false &&
 4214              		.loc 1 531 16 view .LVU1359
 4215 032a 33F81450 		ldrh	r5, [r3, r4, lsl #1]
 4216              	.LVL418:
 531:Drivers/lvgl/src/widgets/lv_btnmatrix.c ****                button_is_inactive(btnm->ctrl_bits[btnm->btn_id_sel]) == false &&
 4217              		.loc 1 531 16 view .LVU1360
 4218 032e 2846     		mov	r0, r5
 4219 0330 FFF7FEFF 		bl	button_is_repeat_disabled
 4220              	.LVL419:
 531:Drivers/lvgl/src/widgets/lv_btnmatrix.c ****                button_is_inactive(btnm->ctrl_bits[btnm->btn_id_sel]) == false &&
 4221              		.loc 1 531 15 view .LVU1361
 4222 0334 0028     		cmp	r0, #0
 4223 0336 7FF46CAE 		bne	.L208
 532:Drivers/lvgl/src/widgets/lv_btnmatrix.c ****                button_is_hidden(btnm->ctrl_bits[btnm->btn_id_sel]) == false) {
 4224              		.loc 1 532 16 discriminator 1 view .LVU1362
 4225 033a 2846     		mov	r0, r5
 4226 033c FFF7FEFF 		bl	button_is_inactive
 4227              	.LVL420:
 531:Drivers/lvgl/src/widgets/lv_btnmatrix.c ****                button_is_inactive(btnm->ctrl_bits[btnm->btn_id_sel]) == false &&
 4228              		.loc 1 531 86 discriminator 1 view .LVU1363
 4229 0340 0028     		cmp	r0, #0
ARM GAS  /var/folders/0z/tsy30v1j4xl4_7kw94k978ww0000gn/T//ccZBZI6H.s 			page 127


 4230 0342 7FF466AE 		bne	.L208
 533:Drivers/lvgl/src/widgets/lv_btnmatrix.c ****                 uint32_t b = btnm->btn_id_sel;
 4231              		.loc 1 533 16 view .LVU1364
 4232 0346 2846     		mov	r0, r5
 4233 0348 FFF7FEFF 		bl	button_is_hidden
 4234              	.LVL421:
 532:Drivers/lvgl/src/widgets/lv_btnmatrix.c ****                button_is_hidden(btnm->ctrl_bits[btnm->btn_id_sel]) == false) {
 4235              		.loc 1 532 79 view .LVU1365
 4236 034c 0028     		cmp	r0, #0
 4237 034e 7FF460AE 		bne	.L208
 4238              	.LBB149:
 534:Drivers/lvgl/src/widgets/lv_btnmatrix.c ****                 res        = lv_event_send(obj, LV_EVENT_VALUE_CHANGED, &b);
 4239              		.loc 1 534 17 is_stmt 1 view .LVU1366
 534:Drivers/lvgl/src/widgets/lv_btnmatrix.c ****                 res        = lv_event_send(obj, LV_EVENT_VALUE_CHANGED, &b);
 4240              		.loc 1 534 26 is_stmt 0 view .LVU1367
 4241 0352 0094     		str	r4, [sp]
 535:Drivers/lvgl/src/widgets/lv_btnmatrix.c ****                 if(res != LV_RES_OK) return;
 4242              		.loc 1 535 17 is_stmt 1 view .LVU1368
 535:Drivers/lvgl/src/widgets/lv_btnmatrix.c ****                 if(res != LV_RES_OK) return;
 4243              		.loc 1 535 30 is_stmt 0 view .LVU1369
 4244 0354 6A46     		mov	r2, sp
 4245 0356 1C21     		movs	r1, #28
 4246 0358 3046     		mov	r0, r6
 4247 035a FFF7FEFF 		bl	lv_event_send
 4248              	.LVL422:
 536:Drivers/lvgl/src/widgets/lv_btnmatrix.c ****             }
 4249              		.loc 1 536 17 is_stmt 1 view .LVU1370
 4250 035e 58E6     		b	.L208
 4251              	.LVL423:
 4252              	.L222:
 536:Drivers/lvgl/src/widgets/lv_btnmatrix.c ****             }
 4253              		.loc 1 536 17 is_stmt 0 view .LVU1371
 4254              	.LBE149:
 541:Drivers/lvgl/src/widgets/lv_btnmatrix.c ****         btnm->btn_id_sel = LV_BTNMATRIX_BTN_NONE;
 4255              		.loc 1 541 9 is_stmt 1 view .LVU1372
 4256 0360 B18E     		ldrh	r1, [r6, #52]
 4257 0362 3046     		mov	r0, r6
 4258 0364 FFF7FEFF 		bl	invalidate_button_area
 4259              	.LVL424:
 542:Drivers/lvgl/src/widgets/lv_btnmatrix.c ****     }
 4260              		.loc 1 542 9 view .LVU1373
 542:Drivers/lvgl/src/widgets/lv_btnmatrix.c ****     }
 4261              		.loc 1 542 26 is_stmt 0 view .LVU1374
 4262 0368 4FF6FF73 		movw	r3, #65535
 4263 036c B386     		strh	r3, [r6, #52]	@ movhi
 4264 036e 50E6     		b	.L208
 4265              	.L218:
 4266              	.LBB150:
 545:Drivers/lvgl/src/widgets/lv_btnmatrix.c **** 
 4267              		.loc 1 545 9 is_stmt 1 view .LVU1375
 545:Drivers/lvgl/src/widgets/lv_btnmatrix.c **** 
 4268              		.loc 1 545 16 is_stmt 0 view .LVU1376
 4269 0370 338E     		ldrh	r3, [r6, #48]
 545:Drivers/lvgl/src/widgets/lv_btnmatrix.c **** 
 4270              		.loc 1 545 11 view .LVU1377
 4271 0372 002B     		cmp	r3, #0
 4272 0374 3FF44DAE 		beq	.L208
ARM GAS  /var/folders/0z/tsy30v1j4xl4_7kw94k978ww0000gn/T//ccZBZI6H.s 			page 128


 547:Drivers/lvgl/src/widgets/lv_btnmatrix.c ****         lv_indev_type_t indev_type = lv_indev_get_type(indev);
 4273              		.loc 1 547 9 is_stmt 1 view .LVU1378
 547:Drivers/lvgl/src/widgets/lv_btnmatrix.c ****         lv_indev_type_t indev_type = lv_indev_get_type(indev);
 4274              		.loc 1 547 30 is_stmt 0 view .LVU1379
 4275 0378 2846     		mov	r0, r5
 4276 037a FFF7FEFF 		bl	lv_event_get_param
 4277              	.LVL425:
 4278 037e 0546     		mov	r5, r0
 4279              	.LVL426:
 548:Drivers/lvgl/src/widgets/lv_btnmatrix.c **** 
 4280              		.loc 1 548 9 is_stmt 1 view .LVU1380
 548:Drivers/lvgl/src/widgets/lv_btnmatrix.c **** 
 4281              		.loc 1 548 38 is_stmt 0 view .LVU1381
 4282 0380 FFF7FEFF 		bl	lv_indev_get_type
 4283              	.LVL427:
 548:Drivers/lvgl/src/widgets/lv_btnmatrix.c **** 
 4284              		.loc 1 548 38 view .LVU1382
 4285 0384 0446     		mov	r4, r0
 4286              	.LVL428:
 551:Drivers/lvgl/src/widgets/lv_btnmatrix.c ****             indev = lv_indev_get_next(NULL);
 4287              		.loc 1 551 9 is_stmt 1 view .LVU1383
 551:Drivers/lvgl/src/widgets/lv_btnmatrix.c ****             indev = lv_indev_get_next(NULL);
 4288              		.loc 1 551 11 is_stmt 0 view .LVU1384
 4289 0386 95B1     		cbz	r5, .L289
 4290              	.LVL429:
 4291              	.L237:
 556:Drivers/lvgl/src/widgets/lv_btnmatrix.c ****         /*Focus the first button if there is not selected button*/
 4292              		.loc 1 556 9 is_stmt 1 view .LVU1385
 556:Drivers/lvgl/src/widgets/lv_btnmatrix.c ****         /*Focus the first button if there is not selected button*/
 4293              		.loc 1 556 45 is_stmt 0 view .LVU1386
 4294 0388 3046     		mov	r0, r6
 4295 038a FFF7FEFF 		bl	lv_obj_get_group
 4296              	.LVL430:
 556:Drivers/lvgl/src/widgets/lv_btnmatrix.c ****         /*Focus the first button if there is not selected button*/
 4297              		.loc 1 556 24 view .LVU1387
 4298 038e FFF7FEFF 		bl	lv_group_get_editing
 4299              	.LVL431:
 558:Drivers/lvgl/src/widgets/lv_btnmatrix.c ****             if(indev_type == LV_INDEV_TYPE_KEYPAD || (indev_type == LV_INDEV_TYPE_ENCODER && editin
 4300              		.loc 1 558 9 is_stmt 1 view .LVU1388
 558:Drivers/lvgl/src/widgets/lv_btnmatrix.c ****             if(indev_type == LV_INDEV_TYPE_KEYPAD || (indev_type == LV_INDEV_TYPE_ENCODER && editin
 4301              		.loc 1 558 16 is_stmt 0 view .LVU1389
 4302 0392 B28E     		ldrh	r2, [r6, #52]
 558:Drivers/lvgl/src/widgets/lv_btnmatrix.c ****             if(indev_type == LV_INDEV_TYPE_KEYPAD || (indev_type == LV_INDEV_TYPE_ENCODER && editin
 4303              		.loc 1 558 11 view .LVU1390
 4304 0394 4FF6FF73 		movw	r3, #65535
 4305 0398 9A42     		cmp	r2, r3
 4306 039a 7FF43AAE 		bne	.L208
 559:Drivers/lvgl/src/widgets/lv_btnmatrix.c ****                 uint32_t b = 0;
 4307              		.loc 1 559 13 is_stmt 1 view .LVU1391
 559:Drivers/lvgl/src/widgets/lv_btnmatrix.c ****                 uint32_t b = 0;
 4308              		.loc 1 559 15 is_stmt 0 view .LVU1392
 4309 039e 022C     		cmp	r4, #2
 4310 03a0 0ED0     		beq	.L238
 559:Drivers/lvgl/src/widgets/lv_btnmatrix.c ****                 uint32_t b = 0;
 4311              		.loc 1 559 51 discriminator 1 view .LVU1393
 4312 03a2 042C     		cmp	r4, #4
 4313 03a4 0AD0     		beq	.L290
ARM GAS  /var/folders/0z/tsy30v1j4xl4_7kw94k978ww0000gn/T//ccZBZI6H.s 			page 129


 4314              	.L239:
 572:Drivers/lvgl/src/widgets/lv_btnmatrix.c ****             }
 4315              		.loc 1 572 17 is_stmt 1 view .LVU1394
 572:Drivers/lvgl/src/widgets/lv_btnmatrix.c ****             }
 4316              		.loc 1 572 34 is_stmt 0 view .LVU1395
 4317 03a6 4FF6FF73 		movw	r3, #65535
 4318 03aa B386     		strh	r3, [r6, #52]	@ movhi
 4319 03ac 31E6     		b	.L208
 4320              	.LVL432:
 4321              	.L289:
 552:Drivers/lvgl/src/widgets/lv_btnmatrix.c ****             indev_type = lv_indev_get_type(indev);
 4322              		.loc 1 552 13 is_stmt 1 view .LVU1396
 552:Drivers/lvgl/src/widgets/lv_btnmatrix.c ****             indev_type = lv_indev_get_type(indev);
 4323              		.loc 1 552 21 is_stmt 0 view .LVU1397
 4324 03ae 0020     		movs	r0, #0
 4325 03b0 FFF7FEFF 		bl	lv_indev_get_next
 4326              	.LVL433:
 553:Drivers/lvgl/src/widgets/lv_btnmatrix.c ****         }
 4327              		.loc 1 553 13 is_stmt 1 view .LVU1398
 553:Drivers/lvgl/src/widgets/lv_btnmatrix.c ****         }
 4328              		.loc 1 553 26 is_stmt 0 view .LVU1399
 4329 03b4 FFF7FEFF 		bl	lv_indev_get_type
 4330              	.LVL434:
 553:Drivers/lvgl/src/widgets/lv_btnmatrix.c ****         }
 4331              		.loc 1 553 26 view .LVU1400
 4332 03b8 0446     		mov	r4, r0
 4333              	.LVL435:
 553:Drivers/lvgl/src/widgets/lv_btnmatrix.c ****         }
 4334              		.loc 1 553 26 view .LVU1401
 4335 03ba E5E7     		b	.L237
 4336              	.LVL436:
 4337              	.L290:
 559:Drivers/lvgl/src/widgets/lv_btnmatrix.c ****                 uint32_t b = 0;
 4338              		.loc 1 559 91 discriminator 2 view .LVU1402
 4339 03bc 0028     		cmp	r0, #0
 4340 03be F2D0     		beq	.L239
 4341              	.L238:
 4342              	.LBB151:
 560:Drivers/lvgl/src/widgets/lv_btnmatrix.c ****                 if(btnm->one_check) {
 4343              		.loc 1 560 17 is_stmt 1 view .LVU1403
 4344              	.LVL437:
 561:Drivers/lvgl/src/widgets/lv_btnmatrix.c ****                     while(button_is_hidden(btnm->ctrl_bits[b]) || button_is_inactive(btnm->ctrl_bit
 4345              		.loc 1 561 17 view .LVU1404
 561:Drivers/lvgl/src/widgets/lv_btnmatrix.c ****                     while(button_is_hidden(btnm->ctrl_bits[b]) || button_is_inactive(btnm->ctrl_bit
 4346              		.loc 1 561 20 is_stmt 0 view .LVU1405
 4347 03c0 96F83630 		ldrb	r3, [r6, #54]	@ zero_extendqisi2
 561:Drivers/lvgl/src/widgets/lv_btnmatrix.c ****                     while(button_is_hidden(btnm->ctrl_bits[b]) || button_is_inactive(btnm->ctrl_bit
 4348              		.loc 1 561 19 view .LVU1406
 4349 03c4 13F0010F 		tst	r3, #1
 4350 03c8 16D1     		bne	.L279
 560:Drivers/lvgl/src/widgets/lv_btnmatrix.c ****                 if(btnm->one_check) {
 4351              		.loc 1 560 26 view .LVU1407
 4352 03ca 0024     		movs	r4, #0
 4353              	.LVL438:
 560:Drivers/lvgl/src/widgets/lv_btnmatrix.c ****                 if(btnm->one_check) {
 4354              		.loc 1 560 26 view .LVU1408
 4355 03cc 17E0     		b	.L241
ARM GAS  /var/folders/0z/tsy30v1j4xl4_7kw94k978ww0000gn/T//ccZBZI6H.s 			page 130


 4356              	.LVL439:
 4357              	.L242:
 563:Drivers/lvgl/src/widgets/lv_btnmatrix.c ****                 }
 4358              		.loc 1 563 75 is_stmt 1 view .LVU1409
 563:Drivers/lvgl/src/widgets/lv_btnmatrix.c ****                 }
 4359              		.loc 1 563 76 is_stmt 0 view .LVU1410
 4360 03ce 0134     		adds	r4, r4, #1
 4361              	.LVL440:
 4362              	.L240:
 562:Drivers/lvgl/src/widgets/lv_btnmatrix.c ****                           button_is_checked(btnm->ctrl_bits[b]) == false) b++;
 4363              		.loc 1 562 106 is_stmt 1 view .LVU1411
 562:Drivers/lvgl/src/widgets/lv_btnmatrix.c ****                           button_is_checked(btnm->ctrl_bits[b]) == false) b++;
 4364              		.loc 1 562 48 is_stmt 0 view .LVU1412
 4365 03d0 F36A     		ldr	r3, [r6, #44]
 562:Drivers/lvgl/src/widgets/lv_btnmatrix.c ****                           button_is_checked(btnm->ctrl_bits[b]) == false) b++;
 4366              		.loc 1 562 27 view .LVU1413
 4367 03d2 33F81450 		ldrh	r5, [r3, r4, lsl #1]
 4368 03d6 2846     		mov	r0, r5
 4369 03d8 FFF7FEFF 		bl	button_is_hidden
 4370              	.LVL441:
 562:Drivers/lvgl/src/widgets/lv_btnmatrix.c ****                           button_is_checked(btnm->ctrl_bits[b]) == false) b++;
 4371              		.loc 1 562 106 view .LVU1414
 4372 03dc 0028     		cmp	r0, #0
 4373 03de F6D1     		bne	.L242
 562:Drivers/lvgl/src/widgets/lv_btnmatrix.c ****                           button_is_checked(btnm->ctrl_bits[b]) == false) b++;
 4374              		.loc 1 562 67 discriminator 1 view .LVU1415
 4375 03e0 2846     		mov	r0, r5
 4376 03e2 FFF7FEFF 		bl	button_is_inactive
 4377              	.LVL442:
 562:Drivers/lvgl/src/widgets/lv_btnmatrix.c ****                           button_is_checked(btnm->ctrl_bits[b]) == false) b++;
 4378              		.loc 1 562 64 discriminator 1 view .LVU1416
 4379 03e6 0028     		cmp	r0, #0
 4380 03e8 F1D1     		bne	.L242
 563:Drivers/lvgl/src/widgets/lv_btnmatrix.c ****                 }
 4381              		.loc 1 563 27 discriminator 2 view .LVU1417
 4382 03ea 2846     		mov	r0, r5
 4383 03ec FFF7FEFF 		bl	button_is_checked
 4384              	.LVL443:
 562:Drivers/lvgl/src/widgets/lv_btnmatrix.c ****                           button_is_checked(btnm->ctrl_bits[b]) == false) b++;
 4385              		.loc 1 562 106 discriminator 2 view .LVU1418
 4386 03f0 0028     		cmp	r0, #0
 4387 03f2 ECD0     		beq	.L242
 4388              	.L243:
 569:Drivers/lvgl/src/widgets/lv_btnmatrix.c ****             }
 4389              		.loc 1 569 17 is_stmt 1 view .LVU1419
 569:Drivers/lvgl/src/widgets/lv_btnmatrix.c ****             }
 4390              		.loc 1 569 34 is_stmt 0 view .LVU1420
 4391 03f4 B486     		strh	r4, [r6, #52]	@ movhi
 4392              	.LBE151:
 559:Drivers/lvgl/src/widgets/lv_btnmatrix.c ****                 uint32_t b = 0;
 4393              		.loc 1 559 104 view .LVU1421
 4394 03f6 0CE6     		b	.L208
 4395              	.LVL444:
 4396              	.L279:
 4397              	.LBB152:
 560:Drivers/lvgl/src/widgets/lv_btnmatrix.c ****                 if(btnm->one_check) {
 4398              		.loc 1 560 26 view .LVU1422
ARM GAS  /var/folders/0z/tsy30v1j4xl4_7kw94k978ww0000gn/T//ccZBZI6H.s 			page 131


 4399 03f8 0024     		movs	r4, #0
 4400              	.LVL445:
 560:Drivers/lvgl/src/widgets/lv_btnmatrix.c ****                 if(btnm->one_check) {
 4401              		.loc 1 560 26 view .LVU1423
 4402 03fa E9E7     		b	.L240
 4403              	.LVL446:
 4404              	.L244:
 566:Drivers/lvgl/src/widgets/lv_btnmatrix.c ****                 }
 4405              		.loc 1 566 107 is_stmt 1 discriminator 4 view .LVU1424
 566:Drivers/lvgl/src/widgets/lv_btnmatrix.c ****                 }
 4406              		.loc 1 566 108 is_stmt 0 discriminator 4 view .LVU1425
 4407 03fc 0134     		adds	r4, r4, #1
 4408              	.LVL447:
 4409              	.L241:
 566:Drivers/lvgl/src/widgets/lv_btnmatrix.c ****                 }
 4410              		.loc 1 566 64 is_stmt 1 discriminator 1 view .LVU1426
 566:Drivers/lvgl/src/widgets/lv_btnmatrix.c ****                 }
 4411              		.loc 1 566 48 is_stmt 0 discriminator 1 view .LVU1427
 4412 03fe F36A     		ldr	r3, [r6, #44]
 566:Drivers/lvgl/src/widgets/lv_btnmatrix.c ****                 }
 4413              		.loc 1 566 27 discriminator 1 view .LVU1428
 4414 0400 33F81450 		ldrh	r5, [r3, r4, lsl #1]
 4415 0404 2846     		mov	r0, r5
 4416 0406 FFF7FEFF 		bl	button_is_hidden
 4417              	.LVL448:
 566:Drivers/lvgl/src/widgets/lv_btnmatrix.c ****                 }
 4418              		.loc 1 566 64 discriminator 1 view .LVU1429
 4419 040a 0028     		cmp	r0, #0
 4420 040c F6D1     		bne	.L244
 566:Drivers/lvgl/src/widgets/lv_btnmatrix.c ****                 }
 4421              		.loc 1 566 67 discriminator 3 view .LVU1430
 4422 040e 2846     		mov	r0, r5
 4423 0410 FFF7FEFF 		bl	button_is_inactive
 4424              	.LVL449:
 566:Drivers/lvgl/src/widgets/lv_btnmatrix.c ****                 }
 4425              		.loc 1 566 64 discriminator 3 view .LVU1431
 4426 0414 0028     		cmp	r0, #0
 4427 0416 F1D1     		bne	.L244
 4428 0418 ECE7     		b	.L243
 4429              	.LVL450:
 4430              	.L217:
 566:Drivers/lvgl/src/widgets/lv_btnmatrix.c ****                 }
 4431              		.loc 1 566 64 discriminator 3 view .LVU1432
 4432              	.LBE152:
 4433              	.LBE150:
 577:Drivers/lvgl/src/widgets/lv_btnmatrix.c ****         btnm->btn_id_sel = LV_BTNMATRIX_BTN_NONE;
 4434              		.loc 1 577 9 is_stmt 1 view .LVU1433
 577:Drivers/lvgl/src/widgets/lv_btnmatrix.c ****         btnm->btn_id_sel = LV_BTNMATRIX_BTN_NONE;
 4435              		.loc 1 577 16 is_stmt 0 view .LVU1434
 4436 041a B18E     		ldrh	r1, [r6, #52]
 577:Drivers/lvgl/src/widgets/lv_btnmatrix.c ****         btnm->btn_id_sel = LV_BTNMATRIX_BTN_NONE;
 4437              		.loc 1 577 11 view .LVU1435
 4438 041c 4FF6FF73 		movw	r3, #65535
 4439 0420 9942     		cmp	r1, r3
 4440 0422 03D1     		bne	.L291
 4441              	.L245:
 578:Drivers/lvgl/src/widgets/lv_btnmatrix.c ****     }
ARM GAS  /var/folders/0z/tsy30v1j4xl4_7kw94k978ww0000gn/T//ccZBZI6H.s 			page 132


 4442              		.loc 1 578 9 is_stmt 1 view .LVU1436
 578:Drivers/lvgl/src/widgets/lv_btnmatrix.c ****     }
 4443              		.loc 1 578 26 is_stmt 0 view .LVU1437
 4444 0424 4FF6FF73 		movw	r3, #65535
 4445 0428 B386     		strh	r3, [r6, #52]	@ movhi
 4446 042a F2E5     		b	.L208
 4447              	.L291:
 577:Drivers/lvgl/src/widgets/lv_btnmatrix.c ****         btnm->btn_id_sel = LV_BTNMATRIX_BTN_NONE;
 4448              		.loc 1 577 55 is_stmt 1 discriminator 1 view .LVU1438
 4449 042c 3046     		mov	r0, r6
 4450 042e FFF7FEFF 		bl	invalidate_button_area
 4451              	.LVL451:
 4452 0432 F7E7     		b	.L245
 4453              	.L219:
 4454              	.LBB153:
 582:Drivers/lvgl/src/widgets/lv_btnmatrix.c **** 
 4455              		.loc 1 582 9 view .LVU1439
 4456 0434 B18E     		ldrh	r1, [r6, #52]
 4457 0436 3046     		mov	r0, r6
 4458 0438 FFF7FEFF 		bl	invalidate_button_area
 4459              	.LVL452:
 584:Drivers/lvgl/src/widgets/lv_btnmatrix.c ****         if(c == LV_KEY_RIGHT) {
 4460              		.loc 1 584 9 view .LVU1440
 584:Drivers/lvgl/src/widgets/lv_btnmatrix.c ****         if(c == LV_KEY_RIGHT) {
 4461              		.loc 1 584 28 is_stmt 0 view .LVU1441
 4462 043c 2846     		mov	r0, r5
 4463 043e FFF7FEFF 		bl	lv_event_get_param
 4464              	.LVL453:
 584:Drivers/lvgl/src/widgets/lv_btnmatrix.c ****         if(c == LV_KEY_RIGHT) {
 4465              		.loc 1 584 14 view .LVU1442
 4466 0442 0378     		ldrb	r3, [r0]	@ zero_extendqisi2
 4467              	.LVL454:
 585:Drivers/lvgl/src/widgets/lv_btnmatrix.c ****             if(btnm->btn_id_sel == LV_BTNMATRIX_BTN_NONE)  btnm->btn_id_sel = 0;
 4468              		.loc 1 585 9 is_stmt 1 view .LVU1443
 585:Drivers/lvgl/src/widgets/lv_btnmatrix.c ****             if(btnm->btn_id_sel == LV_BTNMATRIX_BTN_NONE)  btnm->btn_id_sel = 0;
 4469              		.loc 1 585 11 is_stmt 0 view .LVU1444
 4470 0444 132B     		cmp	r3, #19
 4471 0446 0BD0     		beq	.L292
 601:Drivers/lvgl/src/widgets/lv_btnmatrix.c ****             if(btnm->btn_id_sel == LV_BTNMATRIX_BTN_NONE) btnm->btn_id_sel = 0;
 4472              		.loc 1 601 14 is_stmt 1 view .LVU1445
 601:Drivers/lvgl/src/widgets/lv_btnmatrix.c ****             if(btnm->btn_id_sel == LV_BTNMATRIX_BTN_NONE) btnm->btn_id_sel = 0;
 4473              		.loc 1 601 16 is_stmt 0 view .LVU1446
 4474 0448 142B     		cmp	r3, #20
 4475 044a 39D0     		beq	.L293
 618:Drivers/lvgl/src/widgets/lv_btnmatrix.c ****             lv_coord_t col_gap = lv_obj_get_style_pad_column(obj, LV_PART_MAIN);
 4476              		.loc 1 618 14 is_stmt 1 view .LVU1447
 618:Drivers/lvgl/src/widgets/lv_btnmatrix.c ****             lv_coord_t col_gap = lv_obj_get_style_pad_column(obj, LV_PART_MAIN);
 4477              		.loc 1 618 16 is_stmt 0 view .LVU1448
 4478 044c 122B     		cmp	r3, #18
 4479 044e 66D0     		beq	.L294
 649:Drivers/lvgl/src/widgets/lv_btnmatrix.c ****             lv_coord_t col_gap = lv_obj_get_style_pad_column(obj, LV_PART_MAIN);
 4480              		.loc 1 649 14 is_stmt 1 view .LVU1449
 649:Drivers/lvgl/src/widgets/lv_btnmatrix.c ****             lv_coord_t col_gap = lv_obj_get_style_pad_column(obj, LV_PART_MAIN);
 4481              		.loc 1 649 16 is_stmt 0 view .LVU1450
 4482 0450 112B     		cmp	r3, #17
 4483 0452 00F0C480 		beq	.L295
 4484              	.LVL455:
ARM GAS  /var/folders/0z/tsy30v1j4xl4_7kw94k978ww0000gn/T//ccZBZI6H.s 			page 133


 4485              	.L252:
 680:Drivers/lvgl/src/widgets/lv_btnmatrix.c ****     }
 4486              		.loc 1 680 9 is_stmt 1 view .LVU1451
 4487 0456 B18E     		ldrh	r1, [r6, #52]
 4488 0458 3046     		mov	r0, r6
 4489 045a FFF7FEFF 		bl	invalidate_button_area
 4490              	.LVL456:
 4491              	.LBE153:
 4492 045e D8E5     		b	.L208
 4493              	.LVL457:
 4494              	.L292:
 4495              	.LBB170:
 4496              	.LBB154:
 586:Drivers/lvgl/src/widgets/lv_btnmatrix.c ****             else btnm->btn_id_sel++;
 4497              		.loc 1 586 13 view .LVU1452
 586:Drivers/lvgl/src/widgets/lv_btnmatrix.c ****             else btnm->btn_id_sel++;
 4498              		.loc 1 586 20 is_stmt 0 view .LVU1453
 4499 0460 B38E     		ldrh	r3, [r6, #52]
 4500              	.LVL458:
 586:Drivers/lvgl/src/widgets/lv_btnmatrix.c ****             else btnm->btn_id_sel++;
 4501              		.loc 1 586 15 view .LVU1454
 4502 0462 4FF6FF72 		movw	r2, #65535
 4503 0466 9342     		cmp	r3, r2
 4504 0468 0AD0     		beq	.L296
 587:Drivers/lvgl/src/widgets/lv_btnmatrix.c ****             if(btnm->btn_id_sel >= btnm->btn_cnt) btnm->btn_id_sel = 0;
 4505              		.loc 1 587 18 is_stmt 1 view .LVU1455
 587:Drivers/lvgl/src/widgets/lv_btnmatrix.c ****             if(btnm->btn_id_sel >= btnm->btn_cnt) btnm->btn_id_sel = 0;
 4506              		.loc 1 587 34 is_stmt 0 view .LVU1456
 4507 046a 0133     		adds	r3, r3, #1
 4508 046c B386     		strh	r3, [r6, #52]	@ movhi
 4509              	.LVL459:
 4510              	.L248:
 588:Drivers/lvgl/src/widgets/lv_btnmatrix.c **** 
 4511              		.loc 1 588 13 is_stmt 1 view .LVU1457
 588:Drivers/lvgl/src/widgets/lv_btnmatrix.c **** 
 4512              		.loc 1 588 20 is_stmt 0 view .LVU1458
 4513 046e B38E     		ldrh	r3, [r6, #52]
 588:Drivers/lvgl/src/widgets/lv_btnmatrix.c **** 
 4514              		.loc 1 588 40 view .LVU1459
 4515 0470 378E     		ldrh	r7, [r6, #48]
 588:Drivers/lvgl/src/widgets/lv_btnmatrix.c **** 
 4516              		.loc 1 588 15 view .LVU1460
 4517 0472 BB42     		cmp	r3, r7
 4518 0474 01D3     		bcc	.L249
 588:Drivers/lvgl/src/widgets/lv_btnmatrix.c **** 
 4519              		.loc 1 588 51 is_stmt 1 discriminator 1 view .LVU1461
 588:Drivers/lvgl/src/widgets/lv_btnmatrix.c **** 
 4520              		.loc 1 588 68 is_stmt 0 discriminator 1 view .LVU1462
 4521 0476 0023     		movs	r3, #0
 4522 0478 B386     		strh	r3, [r6, #52]	@ movhi
 4523              	.L249:
 590:Drivers/lvgl/src/widgets/lv_btnmatrix.c ****             while(button_is_hidden(btnm->ctrl_bits[btnm->btn_id_sel]) || button_is_inactive(btnm->c
 4524              		.loc 1 590 13 is_stmt 1 view .LVU1463
 590:Drivers/lvgl/src/widgets/lv_btnmatrix.c ****             while(button_is_hidden(btnm->ctrl_bits[btnm->btn_id_sel]) || button_is_inactive(btnm->c
 4525              		.loc 1 590 22 is_stmt 0 view .LVU1464
 4526 047a B6F83480 		ldrh	r8, [r6, #52]
 4527              	.LVL460:
ARM GAS  /var/folders/0z/tsy30v1j4xl4_7kw94k978ww0000gn/T//ccZBZI6H.s 			page 134


 591:Drivers/lvgl/src/widgets/lv_btnmatrix.c ****                 btnm->btn_id_sel++;
 4528              		.loc 1 591 13 is_stmt 1 view .LVU1465
 591:Drivers/lvgl/src/widgets/lv_btnmatrix.c ****                 btnm->btn_id_sel++;
 4529              		.loc 1 591 18 is_stmt 0 view .LVU1466
 4530 047e 0CE0     		b	.L250
 4531              	.LVL461:
 4532              	.L296:
 586:Drivers/lvgl/src/widgets/lv_btnmatrix.c ****             else btnm->btn_id_sel++;
 4533              		.loc 1 586 60 is_stmt 1 discriminator 1 view .LVU1467
 586:Drivers/lvgl/src/widgets/lv_btnmatrix.c ****             else btnm->btn_id_sel++;
 4534              		.loc 1 586 77 is_stmt 0 discriminator 1 view .LVU1468
 4535 0480 0023     		movs	r3, #0
 4536 0482 B386     		strh	r3, [r6, #52]	@ movhi
 4537              	.LVL462:
 586:Drivers/lvgl/src/widgets/lv_btnmatrix.c ****             else btnm->btn_id_sel++;
 4538              		.loc 1 586 77 discriminator 1 view .LVU1469
 4539 0484 F3E7     		b	.L248
 4540              	.LVL463:
 4541              	.L253:
 592:Drivers/lvgl/src/widgets/lv_btnmatrix.c ****                 if(btnm->btn_id_sel >= btnm->btn_cnt) btnm->btn_id_sel = 0;
 4542              		.loc 1 592 17 is_stmt 1 view .LVU1470
 592:Drivers/lvgl/src/widgets/lv_btnmatrix.c ****                 if(btnm->btn_id_sel >= btnm->btn_cnt) btnm->btn_id_sel = 0;
 4543              		.loc 1 592 33 is_stmt 0 view .LVU1471
 4544 0486 0134     		adds	r4, r4, #1
 4545 0488 A4B2     		uxth	r4, r4
 4546 048a B486     		strh	r4, [r6, #52]	@ movhi
 593:Drivers/lvgl/src/widgets/lv_btnmatrix.c **** 
 4547              		.loc 1 593 17 is_stmt 1 view .LVU1472
 593:Drivers/lvgl/src/widgets/lv_btnmatrix.c **** 
 4548              		.loc 1 593 19 is_stmt 0 view .LVU1473
 4549 048c A742     		cmp	r7, r4
 4550 048e 01D8     		bhi	.L251
 593:Drivers/lvgl/src/widgets/lv_btnmatrix.c **** 
 4551              		.loc 1 593 55 is_stmt 1 discriminator 1 view .LVU1474
 593:Drivers/lvgl/src/widgets/lv_btnmatrix.c **** 
 4552              		.loc 1 593 72 is_stmt 0 discriminator 1 view .LVU1475
 4553 0490 0023     		movs	r3, #0
 4554 0492 B386     		strh	r3, [r6, #52]	@ movhi
 4555              	.L251:
 595:Drivers/lvgl/src/widgets/lv_btnmatrix.c ****                     btnm->btn_id_sel = LV_BTNMATRIX_BTN_NONE;
 4556              		.loc 1 595 17 is_stmt 1 view .LVU1476
 595:Drivers/lvgl/src/widgets/lv_btnmatrix.c ****                     btnm->btn_id_sel = LV_BTNMATRIX_BTN_NONE;
 4557              		.loc 1 595 24 is_stmt 0 view .LVU1477
 4558 0494 B38E     		ldrh	r3, [r6, #52]
 595:Drivers/lvgl/src/widgets/lv_btnmatrix.c ****                     btnm->btn_id_sel = LV_BTNMATRIX_BTN_NONE;
 4559              		.loc 1 595 19 view .LVU1478
 4560 0496 4345     		cmp	r3, r8
 4561 0498 0ED0     		beq	.L297
 4562              	.L250:
 591:Drivers/lvgl/src/widgets/lv_btnmatrix.c ****                 btnm->btn_id_sel++;
 4563              		.loc 1 591 71 is_stmt 1 view .LVU1479
 591:Drivers/lvgl/src/widgets/lv_btnmatrix.c ****                 btnm->btn_id_sel++;
 4564              		.loc 1 591 40 is_stmt 0 view .LVU1480
 4565 049a F36A     		ldr	r3, [r6, #44]
 591:Drivers/lvgl/src/widgets/lv_btnmatrix.c ****                 btnm->btn_id_sel++;
 4566              		.loc 1 591 56 view .LVU1481
 4567 049c B48E     		ldrh	r4, [r6, #52]
ARM GAS  /var/folders/0z/tsy30v1j4xl4_7kw94k978ww0000gn/T//ccZBZI6H.s 			page 135


 591:Drivers/lvgl/src/widgets/lv_btnmatrix.c ****                 btnm->btn_id_sel++;
 4568              		.loc 1 591 19 view .LVU1482
 4569 049e 33F81450 		ldrh	r5, [r3, r4, lsl #1]
 4570 04a2 2846     		mov	r0, r5
 4571 04a4 FFF7FEFF 		bl	button_is_hidden
 4572              	.LVL464:
 591:Drivers/lvgl/src/widgets/lv_btnmatrix.c ****                 btnm->btn_id_sel++;
 4573              		.loc 1 591 71 view .LVU1483
 4574 04a8 0028     		cmp	r0, #0
 4575 04aa ECD1     		bne	.L253
 591:Drivers/lvgl/src/widgets/lv_btnmatrix.c ****                 btnm->btn_id_sel++;
 4576              		.loc 1 591 74 discriminator 1 view .LVU1484
 4577 04ac 2846     		mov	r0, r5
 4578 04ae FFF7FEFF 		bl	button_is_inactive
 4579              	.LVL465:
 591:Drivers/lvgl/src/widgets/lv_btnmatrix.c ****                 btnm->btn_id_sel++;
 4580              		.loc 1 591 71 discriminator 1 view .LVU1485
 4581 04b2 0028     		cmp	r0, #0
 4582 04b4 E7D1     		bne	.L253
 4583 04b6 CEE7     		b	.L252
 4584              	.L297:
 596:Drivers/lvgl/src/widgets/lv_btnmatrix.c ****                     break;
 4585              		.loc 1 596 21 is_stmt 1 view .LVU1486
 596:Drivers/lvgl/src/widgets/lv_btnmatrix.c ****                     break;
 4586              		.loc 1 596 38 is_stmt 0 view .LVU1487
 4587 04b8 4FF6FF73 		movw	r3, #65535
 4588 04bc B386     		strh	r3, [r6, #52]	@ movhi
 597:Drivers/lvgl/src/widgets/lv_btnmatrix.c ****                 }
 4589              		.loc 1 597 21 is_stmt 1 view .LVU1488
 4590 04be CAE7     		b	.L252
 4591              	.LVL466:
 4592              	.L293:
 597:Drivers/lvgl/src/widgets/lv_btnmatrix.c ****                 }
 4593              		.loc 1 597 21 is_stmt 0 view .LVU1489
 4594              	.LBE154:
 4595              	.LBB155:
 602:Drivers/lvgl/src/widgets/lv_btnmatrix.c **** 
 4596              		.loc 1 602 13 is_stmt 1 view .LVU1490
 602:Drivers/lvgl/src/widgets/lv_btnmatrix.c **** 
 4597              		.loc 1 602 20 is_stmt 0 view .LVU1491
 4598 04c0 B28E     		ldrh	r2, [r6, #52]
 602:Drivers/lvgl/src/widgets/lv_btnmatrix.c **** 
 4599              		.loc 1 602 15 view .LVU1492
 4600 04c2 4FF6FF73 		movw	r3, #65535
 4601              	.LVL467:
 602:Drivers/lvgl/src/widgets/lv_btnmatrix.c **** 
 4602              		.loc 1 602 15 view .LVU1493
 4603 04c6 9A42     		cmp	r2, r3
 4604 04c8 06D0     		beq	.L298
 4605              	.LVL468:
 4606              	.L255:
 604:Drivers/lvgl/src/widgets/lv_btnmatrix.c ****             else if(btnm->btn_id_sel > 0) btnm->btn_id_sel--;
 4607              		.loc 1 604 13 is_stmt 1 view .LVU1494
 604:Drivers/lvgl/src/widgets/lv_btnmatrix.c ****             else if(btnm->btn_id_sel > 0) btnm->btn_id_sel--;
 4608              		.loc 1 604 20 is_stmt 0 view .LVU1495
 4609 04ca B38E     		ldrh	r3, [r6, #52]
 604:Drivers/lvgl/src/widgets/lv_btnmatrix.c ****             else if(btnm->btn_id_sel > 0) btnm->btn_id_sel--;
ARM GAS  /var/folders/0z/tsy30v1j4xl4_7kw94k978ww0000gn/T//ccZBZI6H.s 			page 136


 4610              		.loc 1 604 15 view .LVU1496
 4611 04cc 3BB9     		cbnz	r3, .L256
 604:Drivers/lvgl/src/widgets/lv_btnmatrix.c ****             else if(btnm->btn_id_sel > 0) btnm->btn_id_sel--;
 4612              		.loc 1 604 39 is_stmt 1 discriminator 1 view .LVU1497
 604:Drivers/lvgl/src/widgets/lv_btnmatrix.c ****             else if(btnm->btn_id_sel > 0) btnm->btn_id_sel--;
 4613              		.loc 1 604 62 is_stmt 0 discriminator 1 view .LVU1498
 4614 04ce 338E     		ldrh	r3, [r6, #48]
 604:Drivers/lvgl/src/widgets/lv_btnmatrix.c ****             else if(btnm->btn_id_sel > 0) btnm->btn_id_sel--;
 4615              		.loc 1 604 72 discriminator 1 view .LVU1499
 4616 04d0 013B     		subs	r3, r3, #1
 604:Drivers/lvgl/src/widgets/lv_btnmatrix.c ****             else if(btnm->btn_id_sel > 0) btnm->btn_id_sel--;
 4617              		.loc 1 604 56 discriminator 1 view .LVU1500
 4618 04d2 B386     		strh	r3, [r6, #52]	@ movhi
 4619              	.L257:
 607:Drivers/lvgl/src/widgets/lv_btnmatrix.c ****             while(button_is_hidden(btnm->ctrl_bits[btnm->btn_id_sel]) || button_is_inactive(btnm->c
 4620              		.loc 1 607 13 is_stmt 1 view .LVU1501
 607:Drivers/lvgl/src/widgets/lv_btnmatrix.c ****             while(button_is_hidden(btnm->ctrl_bits[btnm->btn_id_sel]) || button_is_inactive(btnm->c
 4621              		.loc 1 607 22 is_stmt 0 view .LVU1502
 4622 04d4 B78E     		ldrh	r7, [r6, #52]
 4623              	.LVL469:
 608:Drivers/lvgl/src/widgets/lv_btnmatrix.c ****                 if(btnm->btn_id_sel > 0) btnm->btn_id_sel--;
 4624              		.loc 1 608 13 is_stmt 1 view .LVU1503
 608:Drivers/lvgl/src/widgets/lv_btnmatrix.c ****                 if(btnm->btn_id_sel > 0) btnm->btn_id_sel--;
 4625              		.loc 1 608 18 is_stmt 0 view .LVU1504
 4626 04d6 0BE0     		b	.L258
 4627              	.LVL470:
 4628              	.L298:
 602:Drivers/lvgl/src/widgets/lv_btnmatrix.c **** 
 4629              		.loc 1 602 59 is_stmt 1 discriminator 1 view .LVU1505
 602:Drivers/lvgl/src/widgets/lv_btnmatrix.c **** 
 4630              		.loc 1 602 76 is_stmt 0 discriminator 1 view .LVU1506
 4631 04d8 0023     		movs	r3, #0
 4632 04da B386     		strh	r3, [r6, #52]	@ movhi
 4633              	.LVL471:
 602:Drivers/lvgl/src/widgets/lv_btnmatrix.c **** 
 4634              		.loc 1 602 76 discriminator 1 view .LVU1507
 4635 04dc F5E7     		b	.L255
 4636              	.L256:
 605:Drivers/lvgl/src/widgets/lv_btnmatrix.c **** 
 4637              		.loc 1 605 18 is_stmt 1 discriminator 1 view .LVU1508
 605:Drivers/lvgl/src/widgets/lv_btnmatrix.c **** 
 4638              		.loc 1 605 43 discriminator 1 view .LVU1509
 605:Drivers/lvgl/src/widgets/lv_btnmatrix.c **** 
 4639              		.loc 1 605 59 is_stmt 0 discriminator 1 view .LVU1510
 4640 04de 013B     		subs	r3, r3, #1
 4641 04e0 B386     		strh	r3, [r6, #52]	@ movhi
 4642 04e2 F7E7     		b	.L257
 4643              	.LVL472:
 4644              	.L261:
 609:Drivers/lvgl/src/widgets/lv_btnmatrix.c ****                 else btnm->btn_id_sel = btnm->btn_cnt - 1;
 4645              		.loc 1 609 17 is_stmt 1 view .LVU1511
 609:Drivers/lvgl/src/widgets/lv_btnmatrix.c ****                 else btnm->btn_id_sel = btnm->btn_cnt - 1;
 4646              		.loc 1 609 19 is_stmt 0 view .LVU1512
 4647 04e4 9CB1     		cbz	r4, .L259
 609:Drivers/lvgl/src/widgets/lv_btnmatrix.c ****                 else btnm->btn_id_sel = btnm->btn_cnt - 1;
 4648              		.loc 1 609 42 is_stmt 1 discriminator 1 view .LVU1513
 609:Drivers/lvgl/src/widgets/lv_btnmatrix.c ****                 else btnm->btn_id_sel = btnm->btn_cnt - 1;
ARM GAS  /var/folders/0z/tsy30v1j4xl4_7kw94k978ww0000gn/T//ccZBZI6H.s 			page 137


 4649              		.loc 1 609 58 is_stmt 0 discriminator 1 view .LVU1514
 4650 04e6 013C     		subs	r4, r4, #1
 4651 04e8 B486     		strh	r4, [r6, #52]	@ movhi
 4652              	.L260:
 612:Drivers/lvgl/src/widgets/lv_btnmatrix.c ****                     btnm->btn_id_sel = LV_BTNMATRIX_BTN_NONE;
 4653              		.loc 1 612 17 is_stmt 1 view .LVU1515
 612:Drivers/lvgl/src/widgets/lv_btnmatrix.c ****                     btnm->btn_id_sel = LV_BTNMATRIX_BTN_NONE;
 4654              		.loc 1 612 24 is_stmt 0 view .LVU1516
 4655 04ea B38E     		ldrh	r3, [r6, #52]
 612:Drivers/lvgl/src/widgets/lv_btnmatrix.c ****                     btnm->btn_id_sel = LV_BTNMATRIX_BTN_NONE;
 4656              		.loc 1 612 19 view .LVU1517
 4657 04ec BB42     		cmp	r3, r7
 4658 04ee 12D0     		beq	.L299
 4659              	.L258:
 608:Drivers/lvgl/src/widgets/lv_btnmatrix.c ****                 if(btnm->btn_id_sel > 0) btnm->btn_id_sel--;
 4660              		.loc 1 608 71 is_stmt 1 view .LVU1518
 608:Drivers/lvgl/src/widgets/lv_btnmatrix.c ****                 if(btnm->btn_id_sel > 0) btnm->btn_id_sel--;
 4661              		.loc 1 608 40 is_stmt 0 view .LVU1519
 4662 04f0 F36A     		ldr	r3, [r6, #44]
 608:Drivers/lvgl/src/widgets/lv_btnmatrix.c ****                 if(btnm->btn_id_sel > 0) btnm->btn_id_sel--;
 4663              		.loc 1 608 56 view .LVU1520
 4664 04f2 B48E     		ldrh	r4, [r6, #52]
 608:Drivers/lvgl/src/widgets/lv_btnmatrix.c ****                 if(btnm->btn_id_sel > 0) btnm->btn_id_sel--;
 4665              		.loc 1 608 19 view .LVU1521
 4666 04f4 33F81450 		ldrh	r5, [r3, r4, lsl #1]
 4667 04f8 2846     		mov	r0, r5
 4668 04fa FFF7FEFF 		bl	button_is_hidden
 4669              	.LVL473:
 608:Drivers/lvgl/src/widgets/lv_btnmatrix.c ****                 if(btnm->btn_id_sel > 0) btnm->btn_id_sel--;
 4670              		.loc 1 608 71 view .LVU1522
 4671 04fe 0028     		cmp	r0, #0
 4672 0500 F0D1     		bne	.L261
 608:Drivers/lvgl/src/widgets/lv_btnmatrix.c ****                 if(btnm->btn_id_sel > 0) btnm->btn_id_sel--;
 4673              		.loc 1 608 74 discriminator 1 view .LVU1523
 4674 0502 2846     		mov	r0, r5
 4675 0504 FFF7FEFF 		bl	button_is_inactive
 4676              	.LVL474:
 608:Drivers/lvgl/src/widgets/lv_btnmatrix.c ****                 if(btnm->btn_id_sel > 0) btnm->btn_id_sel--;
 4677              		.loc 1 608 71 discriminator 1 view .LVU1524
 4678 0508 0028     		cmp	r0, #0
 4679 050a EBD1     		bne	.L261
 4680 050c A3E7     		b	.L252
 4681              	.L259:
 610:Drivers/lvgl/src/widgets/lv_btnmatrix.c **** 
 4682              		.loc 1 610 22 is_stmt 1 view .LVU1525
 610:Drivers/lvgl/src/widgets/lv_btnmatrix.c **** 
 4683              		.loc 1 610 45 is_stmt 0 view .LVU1526
 4684 050e 338E     		ldrh	r3, [r6, #48]
 610:Drivers/lvgl/src/widgets/lv_btnmatrix.c **** 
 4685              		.loc 1 610 55 view .LVU1527
 4686 0510 013B     		subs	r3, r3, #1
 610:Drivers/lvgl/src/widgets/lv_btnmatrix.c **** 
 4687              		.loc 1 610 39 view .LVU1528
 4688 0512 B386     		strh	r3, [r6, #52]	@ movhi
 4689 0514 E9E7     		b	.L260
 4690              	.L299:
 613:Drivers/lvgl/src/widgets/lv_btnmatrix.c ****                     break;
ARM GAS  /var/folders/0z/tsy30v1j4xl4_7kw94k978ww0000gn/T//ccZBZI6H.s 			page 138


 4691              		.loc 1 613 21 is_stmt 1 view .LVU1529
 613:Drivers/lvgl/src/widgets/lv_btnmatrix.c ****                     break;
 4692              		.loc 1 613 38 is_stmt 0 view .LVU1530
 4693 0516 4FF6FF73 		movw	r3, #65535
 4694 051a B386     		strh	r3, [r6, #52]	@ movhi
 614:Drivers/lvgl/src/widgets/lv_btnmatrix.c ****                 }
 4695              		.loc 1 614 21 is_stmt 1 view .LVU1531
 4696 051c 9BE7     		b	.L252
 4697              	.LVL475:
 4698              	.L294:
 614:Drivers/lvgl/src/widgets/lv_btnmatrix.c ****                 }
 4699              		.loc 1 614 21 is_stmt 0 view .LVU1532
 4700              	.LBE155:
 4701              	.LBB156:
 619:Drivers/lvgl/src/widgets/lv_btnmatrix.c ****             /*Find the area below the current*/
 4702              		.loc 1 619 13 is_stmt 1 view .LVU1533
 4703              	.LBB157:
 4704              	.LBI157:
 133:Drivers/lvgl/src/widgets/../core/lv_obj_style_gen.h **** {
 4705              		.loc 2 133 26 view .LVU1534
 4706              	.LBB158:
 135:Drivers/lvgl/src/widgets/../core/lv_obj_style_gen.h ****     return (lv_coord_t)v.num;
 4707              		.loc 2 135 5 view .LVU1535
 135:Drivers/lvgl/src/widgets/../core/lv_obj_style_gen.h ****     return (lv_coord_t)v.num;
 4708              		.loc 2 135 26 is_stmt 0 view .LVU1536
 4709 051e 1522     		movs	r2, #21
 4710 0520 0021     		movs	r1, #0
 4711 0522 3046     		mov	r0, r6
 4712 0524 FFF7FEFF 		bl	lv_obj_get_style_prop
 4713              	.LVL476:
 136:Drivers/lvgl/src/widgets/../core/lv_obj_style_gen.h **** }
 4714              		.loc 2 136 5 is_stmt 1 view .LVU1537
 136:Drivers/lvgl/src/widgets/../core/lv_obj_style_gen.h **** }
 4715              		.loc 2 136 12 is_stmt 0 view .LVU1538
 4716 0528 0FFA80F9 		sxth	r9, r0
 4717              	.LVL477:
 136:Drivers/lvgl/src/widgets/../core/lv_obj_style_gen.h **** }
 4718              		.loc 2 136 12 view .LVU1539
 4719              	.LBE158:
 4720              	.LBE157:
 621:Drivers/lvgl/src/widgets/lv_btnmatrix.c ****                 btnm->btn_id_sel = 0;
 4721              		.loc 1 621 13 is_stmt 1 view .LVU1540
 621:Drivers/lvgl/src/widgets/lv_btnmatrix.c ****                 btnm->btn_id_sel = 0;
 4722              		.loc 1 621 20 is_stmt 0 view .LVU1541
 4723 052c B48E     		ldrh	r4, [r6, #52]
 621:Drivers/lvgl/src/widgets/lv_btnmatrix.c ****                 btnm->btn_id_sel = 0;
 4724              		.loc 1 621 15 view .LVU1542
 4725 052e 4FF6FF73 		movw	r3, #65535
 4726 0532 9C42     		cmp	r4, r3
 4727 0534 0ED0     		beq	.L300
 4728              	.LBB159:
 632:Drivers/lvgl/src/widgets/lv_btnmatrix.c ****                 lv_coord_t pr_center =
 4729              		.loc 1 632 17 is_stmt 1 view .LVU1543
 633:Drivers/lvgl/src/widgets/lv_btnmatrix.c ****                     btnm->button_areas[btnm->btn_id_sel].x1 + (lv_area_get_width(&btnm->button_area
 4730              		.loc 1 633 17 view .LVU1544
 634:Drivers/lvgl/src/widgets/lv_btnmatrix.c **** 
 4731              		.loc 1 634 25 is_stmt 0 view .LVU1545
ARM GAS  /var/folders/0z/tsy30v1j4xl4_7kw94k978ww0000gn/T//ccZBZI6H.s 			page 139


 4732 0536 B56A     		ldr	r5, [r6, #40]
 4733              	.LVL478:
 634:Drivers/lvgl/src/widgets/lv_btnmatrix.c **** 
 4734              		.loc 1 634 39 view .LVU1546
 4735 0538 05EBC407 		add	r7, r5, r4, lsl #3
 634:Drivers/lvgl/src/widgets/lv_btnmatrix.c **** 
 4736              		.loc 1 634 57 view .LVU1547
 4737 053c 35F83420 		ldrh	r2, [r5, r4, lsl #3]
 4738              	.LVL479:
 4739              	.LBB160:
 4740              	.LBI160:
 123:Drivers/lvgl/src/widgets/../core/../misc/../font/../misc/lv_area.h **** {
 4741              		.loc 3 123 26 is_stmt 1 view .LVU1548
 4742              	.LBB161:
 125:Drivers/lvgl/src/widgets/../core/../misc/../font/../misc/lv_area.h **** }
 4743              		.loc 3 125 5 view .LVU1549
 125:Drivers/lvgl/src/widgets/../core/../misc/../font/../misc/lv_area.h **** }
 4744              		.loc 3 125 31 is_stmt 0 view .LVU1550
 4745 0540 BB88     		ldrh	r3, [r7, #4]
 125:Drivers/lvgl/src/widgets/../core/../misc/../font/../misc/lv_area.h **** }
 4746              		.loc 3 125 36 view .LVU1551
 4747 0542 9B1A     		subs	r3, r3, r2
 4748 0544 9BB2     		uxth	r3, r3
 125:Drivers/lvgl/src/widgets/../core/../misc/../font/../misc/lv_area.h **** }
 4749              		.loc 3 125 49 view .LVU1552
 4750 0546 0133     		adds	r3, r3, #1
 4751              	.LVL480:
 125:Drivers/lvgl/src/widgets/../core/../misc/../font/../misc/lv_area.h **** }
 4752              		.loc 3 125 49 view .LVU1553
 4753              	.LBE161:
 4754              	.LBE160:
 634:Drivers/lvgl/src/widgets/lv_btnmatrix.c **** 
 4755              		.loc 1 634 61 view .LVU1554
 4756 0548 43F34E03 		sbfx	r3, r3, #1, #15
 4757 054c 1A44     		add	r2, r2, r3
 633:Drivers/lvgl/src/widgets/lv_btnmatrix.c ****                     btnm->button_areas[btnm->btn_id_sel].x1 + (lv_area_get_width(&btnm->button_area
 4758              		.loc 1 633 28 view .LVU1555
 4759 054e 0FFA82F8 		sxth	r8, r2
 4760              	.LVL481:
 636:Drivers/lvgl/src/widgets/lv_btnmatrix.c ****                     if(btnm->button_areas[area_below].y1 > btnm->button_areas[btnm->btn_id_sel].y1 
 4761              		.loc 1 636 17 is_stmt 1 view .LVU1556
 636:Drivers/lvgl/src/widgets/lv_btnmatrix.c ****                     if(btnm->button_areas[area_below].y1 > btnm->button_areas[btnm->btn_id_sel].y1 
 4762              		.loc 1 636 17 is_stmt 0 view .LVU1557
 4763 0552 1DE0     		b	.L266
 4764              	.LVL482:
 4765              	.L300:
 636:Drivers/lvgl/src/widgets/lv_btnmatrix.c ****                     if(btnm->button_areas[area_below].y1 > btnm->button_areas[btnm->btn_id_sel].y1 
 4766              		.loc 1 636 17 view .LVU1558
 4767              	.LBE159:
 622:Drivers/lvgl/src/widgets/lv_btnmatrix.c ****                 while(button_is_hidden(btnm->ctrl_bits[btnm->btn_id_sel]) || button_is_inactive(btn
 4768              		.loc 1 622 17 is_stmt 1 view .LVU1559
 622:Drivers/lvgl/src/widgets/lv_btnmatrix.c ****                 while(button_is_hidden(btnm->ctrl_bits[btnm->btn_id_sel]) || button_is_inactive(btn
 4769              		.loc 1 622 34 is_stmt 0 view .LVU1560
 4770 0554 0023     		movs	r3, #0
 4771 0556 B386     		strh	r3, [r6, #52]	@ movhi
 623:Drivers/lvgl/src/widgets/lv_btnmatrix.c ****                     btnm->btn_id_sel++;
 4772              		.loc 1 623 17 is_stmt 1 view .LVU1561
ARM GAS  /var/folders/0z/tsy30v1j4xl4_7kw94k978ww0000gn/T//ccZBZI6H.s 			page 140


 623:Drivers/lvgl/src/widgets/lv_btnmatrix.c ****                     btnm->btn_id_sel++;
 4773              		.loc 1 623 22 is_stmt 0 view .LVU1562
 4774 0558 05E0     		b	.L264
 4775              	.LVL483:
 4776              	.L265:
 624:Drivers/lvgl/src/widgets/lv_btnmatrix.c ****                     if(btnm->btn_id_sel >= btnm->btn_cnt) {
 4777              		.loc 1 624 21 is_stmt 1 view .LVU1563
 624:Drivers/lvgl/src/widgets/lv_btnmatrix.c ****                     if(btnm->btn_id_sel >= btnm->btn_cnt) {
 4778              		.loc 1 624 37 is_stmt 0 view .LVU1564
 4779 055a 631C     		adds	r3, r4, #1
 4780 055c 9BB2     		uxth	r3, r3
 4781 055e B386     		strh	r3, [r6, #52]	@ movhi
 625:Drivers/lvgl/src/widgets/lv_btnmatrix.c ****                         btnm->btn_id_sel = LV_BTNMATRIX_BTN_NONE;
 4782              		.loc 1 625 21 is_stmt 1 view .LVU1565
 625:Drivers/lvgl/src/widgets/lv_btnmatrix.c ****                         btnm->btn_id_sel = LV_BTNMATRIX_BTN_NONE;
 4783              		.loc 1 625 48 is_stmt 0 view .LVU1566
 4784 0560 328E     		ldrh	r2, [r6, #48]
 625:Drivers/lvgl/src/widgets/lv_btnmatrix.c ****                         btnm->btn_id_sel = LV_BTNMATRIX_BTN_NONE;
 4785              		.loc 1 625 23 view .LVU1567
 4786 0562 9342     		cmp	r3, r2
 4787 0564 0ED2     		bcs	.L301
 4788              	.L264:
 623:Drivers/lvgl/src/widgets/lv_btnmatrix.c ****                     btnm->btn_id_sel++;
 4789              		.loc 1 623 75 is_stmt 1 view .LVU1568
 623:Drivers/lvgl/src/widgets/lv_btnmatrix.c ****                     btnm->btn_id_sel++;
 4790              		.loc 1 623 44 is_stmt 0 view .LVU1569
 4791 0566 F36A     		ldr	r3, [r6, #44]
 623:Drivers/lvgl/src/widgets/lv_btnmatrix.c ****                     btnm->btn_id_sel++;
 4792              		.loc 1 623 60 view .LVU1570
 4793 0568 B48E     		ldrh	r4, [r6, #52]
 623:Drivers/lvgl/src/widgets/lv_btnmatrix.c ****                     btnm->btn_id_sel++;
 4794              		.loc 1 623 23 view .LVU1571
 4795 056a 33F81450 		ldrh	r5, [r3, r4, lsl #1]
 4796 056e 2846     		mov	r0, r5
 4797 0570 FFF7FEFF 		bl	button_is_hidden
 4798              	.LVL484:
 623:Drivers/lvgl/src/widgets/lv_btnmatrix.c ****                     btnm->btn_id_sel++;
 4799              		.loc 1 623 75 view .LVU1572
 4800 0574 0028     		cmp	r0, #0
 4801 0576 F0D1     		bne	.L265
 623:Drivers/lvgl/src/widgets/lv_btnmatrix.c ****                     btnm->btn_id_sel++;
 4802              		.loc 1 623 78 discriminator 1 view .LVU1573
 4803 0578 2846     		mov	r0, r5
 4804 057a FFF7FEFF 		bl	button_is_inactive
 4805              	.LVL485:
 623:Drivers/lvgl/src/widgets/lv_btnmatrix.c ****                     btnm->btn_id_sel++;
 4806              		.loc 1 623 75 discriminator 1 view .LVU1574
 4807 057e 0028     		cmp	r0, #0
 4808 0580 EBD1     		bne	.L265
 4809 0582 68E7     		b	.L252
 4810              	.L301:
 626:Drivers/lvgl/src/widgets/lv_btnmatrix.c ****                         break;
 4811              		.loc 1 626 25 is_stmt 1 view .LVU1575
 626:Drivers/lvgl/src/widgets/lv_btnmatrix.c ****                         break;
 4812              		.loc 1 626 42 is_stmt 0 view .LVU1576
 4813 0584 4FF6FF73 		movw	r3, #65535
 4814 0588 B386     		strh	r3, [r6, #52]	@ movhi
ARM GAS  /var/folders/0z/tsy30v1j4xl4_7kw94k978ww0000gn/T//ccZBZI6H.s 			page 141


 627:Drivers/lvgl/src/widgets/lv_btnmatrix.c ****                     }
 4815              		.loc 1 627 25 is_stmt 1 view .LVU1577
 4816 058a 64E7     		b	.L252
 4817              	.LVL486:
 4818              	.L267:
 4819              	.LBB162:
 636:Drivers/lvgl/src/widgets/lv_btnmatrix.c ****                     if(btnm->button_areas[area_below].y1 > btnm->button_areas[btnm->btn_id_sel].y1 
 4820              		.loc 1 636 90 discriminator 2 view .LVU1578
 4821 058c 0134     		adds	r4, r4, #1
 4822              	.LVL487:
 636:Drivers/lvgl/src/widgets/lv_btnmatrix.c ****                     if(btnm->button_areas[area_below].y1 > btnm->button_areas[btnm->btn_id_sel].y1 
 4823              		.loc 1 636 90 is_stmt 0 discriminator 2 view .LVU1579
 4824 058e A4B2     		uxth	r4, r4
 4825              	.LVL488:
 4826              	.L266:
 636:Drivers/lvgl/src/widgets/lv_btnmatrix.c ****                     if(btnm->button_areas[area_below].y1 > btnm->button_areas[btnm->btn_id_sel].y1 
 4827              		.loc 1 636 63 is_stmt 1 discriminator 1 view .LVU1580
 636:Drivers/lvgl/src/widgets/lv_btnmatrix.c ****                     if(btnm->button_areas[area_below].y1 > btnm->button_areas[btnm->btn_id_sel].y1 
 4828              		.loc 1 636 69 is_stmt 0 discriminator 1 view .LVU1581
 4829 0590 B6F830A0 		ldrh	r10, [r6, #48]
 636:Drivers/lvgl/src/widgets/lv_btnmatrix.c ****                     if(btnm->button_areas[area_below].y1 > btnm->button_areas[btnm->btn_id_sel].y1 
 4830              		.loc 1 636 63 discriminator 1 view .LVU1582
 4831 0594 A245     		cmp	r10, r4
 4832 0596 1DD9     		bls	.L268
 637:Drivers/lvgl/src/widgets/lv_btnmatrix.c ****                        pr_center >= btnm->button_areas[area_below].x1 &&
 4833              		.loc 1 637 21 is_stmt 1 view .LVU1583
 637:Drivers/lvgl/src/widgets/lv_btnmatrix.c ****                        pr_center >= btnm->button_areas[area_below].x1 &&
 4834              		.loc 1 637 42 is_stmt 0 view .LVU1584
 4835 0598 05EBC403 		add	r3, r5, r4, lsl #3
 637:Drivers/lvgl/src/widgets/lv_btnmatrix.c ****                        pr_center >= btnm->button_areas[area_below].x1 &&
 4836              		.loc 1 637 54 view .LVU1585
 4837 059c B3F90210 		ldrsh	r1, [r3, #2]
 637:Drivers/lvgl/src/widgets/lv_btnmatrix.c ****                        pr_center >= btnm->button_areas[area_below].x1 &&
 4838              		.loc 1 637 96 view .LVU1586
 4839 05a0 B7F90220 		ldrsh	r2, [r7, #2]
 637:Drivers/lvgl/src/widgets/lv_btnmatrix.c ****                        pr_center >= btnm->button_areas[area_below].x1 &&
 4840              		.loc 1 637 23 view .LVU1587
 4841 05a4 9142     		cmp	r1, r2
 4842 05a6 F1DD     		ble	.L267
 638:Drivers/lvgl/src/widgets/lv_btnmatrix.c ****                        pr_center <= btnm->button_areas[area_below].x2 + col_gap &&
 4843              		.loc 1 638 67 discriminator 1 view .LVU1588
 4844 05a8 35F93420 		ldrsh	r2, [r5, r4, lsl #3]
 637:Drivers/lvgl/src/widgets/lv_btnmatrix.c ****                        pr_center >= btnm->button_areas[area_below].x1 &&
 4845              		.loc 1 637 100 discriminator 1 view .LVU1589
 4846 05ac 4245     		cmp	r2, r8
 4847 05ae EDDC     		bgt	.L267
 639:Drivers/lvgl/src/widgets/lv_btnmatrix.c ****                        button_is_inactive(btnm->ctrl_bits[area_below]) == false &&
 4848              		.loc 1 639 67 view .LVU1590
 4849 05b0 B3F90430 		ldrsh	r3, [r3, #4]
 639:Drivers/lvgl/src/widgets/lv_btnmatrix.c ****                        button_is_inactive(btnm->ctrl_bits[area_below]) == false &&
 4850              		.loc 1 639 71 view .LVU1591
 4851 05b4 4B44     		add	r3, r3, r9
 638:Drivers/lvgl/src/widgets/lv_btnmatrix.c ****                        pr_center <= btnm->button_areas[area_below].x2 + col_gap &&
 4852              		.loc 1 638 71 view .LVU1592
 4853 05b6 9845     		cmp	r8, r3
 4854 05b8 E8DC     		bgt	.L267
 640:Drivers/lvgl/src/widgets/lv_btnmatrix.c ****                        button_is_hidden(btnm->ctrl_bits[area_below]) == false) {
ARM GAS  /var/folders/0z/tsy30v1j4xl4_7kw94k978ww0000gn/T//ccZBZI6H.s 			page 142


 4855              		.loc 1 640 47 view .LVU1593
 4856 05ba F36A     		ldr	r3, [r6, #44]
 640:Drivers/lvgl/src/widgets/lv_btnmatrix.c ****                        button_is_hidden(btnm->ctrl_bits[area_below]) == false) {
 4857              		.loc 1 640 24 view .LVU1594
 4858 05bc 33F814B0 		ldrh	fp, [r3, r4, lsl #1]
 4859 05c0 5846     		mov	r0, fp
 4860 05c2 FFF7FEFF 		bl	button_is_inactive
 4861              	.LVL489:
 639:Drivers/lvgl/src/widgets/lv_btnmatrix.c ****                        button_is_inactive(btnm->ctrl_bits[area_below]) == false &&
 4862              		.loc 1 639 81 view .LVU1595
 4863 05c6 0028     		cmp	r0, #0
 4864 05c8 E0D1     		bne	.L267
 641:Drivers/lvgl/src/widgets/lv_btnmatrix.c ****                         break;
 4865              		.loc 1 641 24 view .LVU1596
 4866 05ca 5846     		mov	r0, fp
 4867 05cc FFF7FEFF 		bl	button_is_hidden
 4868              	.LVL490:
 640:Drivers/lvgl/src/widgets/lv_btnmatrix.c ****                        button_is_hidden(btnm->ctrl_bits[area_below]) == false) {
 4869              		.loc 1 640 81 view .LVU1597
 4870 05d0 0028     		cmp	r0, #0
 4871 05d2 DBD1     		bne	.L267
 4872              	.L268:
 646:Drivers/lvgl/src/widgets/lv_btnmatrix.c ****             }
 4873              		.loc 1 646 17 is_stmt 1 view .LVU1598
 646:Drivers/lvgl/src/widgets/lv_btnmatrix.c ****             }
 4874              		.loc 1 646 19 is_stmt 0 view .LVU1599
 4875 05d4 A245     		cmp	r10, r4
 4876 05d6 7FF63EAF 		bls	.L252
 646:Drivers/lvgl/src/widgets/lv_btnmatrix.c ****             }
 4877              		.loc 1 646 48 is_stmt 1 discriminator 1 view .LVU1600
 646:Drivers/lvgl/src/widgets/lv_btnmatrix.c ****             }
 4878              		.loc 1 646 65 is_stmt 0 discriminator 1 view .LVU1601
 4879 05da B486     		strh	r4, [r6, #52]	@ movhi
 4880 05dc 3BE7     		b	.L252
 4881              	.LVL491:
 4882              	.L295:
 646:Drivers/lvgl/src/widgets/lv_btnmatrix.c ****             }
 4883              		.loc 1 646 65 discriminator 1 view .LVU1602
 4884              	.LBE162:
 4885              	.LBE156:
 4886              	.LBB163:
 650:Drivers/lvgl/src/widgets/lv_btnmatrix.c ****             /*Find the area below the current*/
 4887              		.loc 1 650 13 is_stmt 1 view .LVU1603
 4888              	.LBB164:
 4889              	.LBI164:
 133:Drivers/lvgl/src/widgets/../core/lv_obj_style_gen.h **** {
 4890              		.loc 2 133 26 view .LVU1604
 4891              	.LBB165:
 135:Drivers/lvgl/src/widgets/../core/lv_obj_style_gen.h ****     return (lv_coord_t)v.num;
 4892              		.loc 2 135 5 view .LVU1605
 135:Drivers/lvgl/src/widgets/../core/lv_obj_style_gen.h ****     return (lv_coord_t)v.num;
 4893              		.loc 2 135 26 is_stmt 0 view .LVU1606
 4894 05de 1522     		movs	r2, #21
 4895 05e0 0021     		movs	r1, #0
 4896 05e2 3046     		mov	r0, r6
 4897 05e4 FFF7FEFF 		bl	lv_obj_get_style_prop
 4898              	.LVL492:
ARM GAS  /var/folders/0z/tsy30v1j4xl4_7kw94k978ww0000gn/T//ccZBZI6H.s 			page 143


 136:Drivers/lvgl/src/widgets/../core/lv_obj_style_gen.h **** }
 4899              		.loc 2 136 5 is_stmt 1 view .LVU1607
 136:Drivers/lvgl/src/widgets/../core/lv_obj_style_gen.h **** }
 4900              		.loc 2 136 12 is_stmt 0 view .LVU1608
 4901 05e8 0FFA80F9 		sxth	r9, r0
 4902              	.LVL493:
 136:Drivers/lvgl/src/widgets/../core/lv_obj_style_gen.h **** }
 4903              		.loc 2 136 12 view .LVU1609
 4904              	.LBE165:
 4905              	.LBE164:
 652:Drivers/lvgl/src/widgets/lv_btnmatrix.c ****                 btnm->btn_id_sel = 0;
 4906              		.loc 1 652 13 is_stmt 1 view .LVU1610
 652:Drivers/lvgl/src/widgets/lv_btnmatrix.c ****                 btnm->btn_id_sel = 0;
 4907              		.loc 1 652 20 is_stmt 0 view .LVU1611
 4908 05ec B48E     		ldrh	r4, [r6, #52]
 652:Drivers/lvgl/src/widgets/lv_btnmatrix.c ****                 btnm->btn_id_sel = 0;
 4909              		.loc 1 652 15 view .LVU1612
 4910 05ee 4FF6FF73 		movw	r3, #65535
 4911 05f2 9C42     		cmp	r4, r3
 4912 05f4 0FD0     		beq	.L302
 4913              	.LBB166:
 663:Drivers/lvgl/src/widgets/lv_btnmatrix.c ****                 lv_coord_t pr_center =
 4914              		.loc 1 663 17 is_stmt 1 view .LVU1613
 664:Drivers/lvgl/src/widgets/lv_btnmatrix.c ****                     btnm->button_areas[btnm->btn_id_sel].x1 + (lv_area_get_width(&btnm->button_area
 4915              		.loc 1 664 17 view .LVU1614
 665:Drivers/lvgl/src/widgets/lv_btnmatrix.c **** 
 4916              		.loc 1 665 25 is_stmt 0 view .LVU1615
 4917 05f6 B56A     		ldr	r5, [r6, #40]
 4918              	.LVL494:
 665:Drivers/lvgl/src/widgets/lv_btnmatrix.c **** 
 4919              		.loc 1 665 39 view .LVU1616
 4920 05f8 05EBC407 		add	r7, r5, r4, lsl #3
 665:Drivers/lvgl/src/widgets/lv_btnmatrix.c **** 
 4921              		.loc 1 665 57 view .LVU1617
 4922 05fc 35F83420 		ldrh	r2, [r5, r4, lsl #3]
 4923              	.LVL495:
 4924              	.LBB167:
 4925              	.LBI167:
 123:Drivers/lvgl/src/widgets/../core/../misc/../font/../misc/lv_area.h **** {
 4926              		.loc 3 123 26 is_stmt 1 view .LVU1618
 4927              	.LBB168:
 125:Drivers/lvgl/src/widgets/../core/../misc/../font/../misc/lv_area.h **** }
 4928              		.loc 3 125 5 view .LVU1619
 125:Drivers/lvgl/src/widgets/../core/../misc/../font/../misc/lv_area.h **** }
 4929              		.loc 3 125 31 is_stmt 0 view .LVU1620
 4930 0600 BB88     		ldrh	r3, [r7, #4]
 125:Drivers/lvgl/src/widgets/../core/../misc/../font/../misc/lv_area.h **** }
 4931              		.loc 3 125 36 view .LVU1621
 4932 0602 9B1A     		subs	r3, r3, r2
 4933 0604 9BB2     		uxth	r3, r3
 125:Drivers/lvgl/src/widgets/../core/../misc/../font/../misc/lv_area.h **** }
 4934              		.loc 3 125 49 view .LVU1622
 4935 0606 0133     		adds	r3, r3, #1
 4936              	.LVL496:
 125:Drivers/lvgl/src/widgets/../core/../misc/../font/../misc/lv_area.h **** }
 4937              		.loc 3 125 49 view .LVU1623
 4938              	.LBE168:
ARM GAS  /var/folders/0z/tsy30v1j4xl4_7kw94k978ww0000gn/T//ccZBZI6H.s 			page 144


 4939              	.LBE167:
 665:Drivers/lvgl/src/widgets/lv_btnmatrix.c **** 
 4940              		.loc 1 665 61 view .LVU1624
 4941 0608 43F34E03 		sbfx	r3, r3, #1, #15
 4942 060c 1A44     		add	r2, r2, r3
 664:Drivers/lvgl/src/widgets/lv_btnmatrix.c ****                     btnm->button_areas[btnm->btn_id_sel].x1 + (lv_area_get_width(&btnm->button_area
 4943              		.loc 1 664 28 view .LVU1625
 4944 060e 0FFA82F8 		sxth	r8, r2
 4945              	.LVL497:
 667:Drivers/lvgl/src/widgets/lv_btnmatrix.c ****                     if(btnm->button_areas[area_above].y1 < btnm->button_areas[btnm->btn_id_sel].y1 
 4946              		.loc 1 667 17 is_stmt 1 view .LVU1626
 667:Drivers/lvgl/src/widgets/lv_btnmatrix.c ****                     if(btnm->button_areas[area_above].y1 < btnm->button_areas[btnm->btn_id_sel].y1 
 4947              		.loc 1 667 32 is_stmt 0 view .LVU1627
 4948 0612 24B2     		sxth	r4, r4
 4949              	.LVL498:
 667:Drivers/lvgl/src/widgets/lv_btnmatrix.c ****                     if(btnm->button_areas[area_above].y1 < btnm->button_areas[btnm->btn_id_sel].y1 
 4950              		.loc 1 667 17 view .LVU1628
 4951 0614 1DE0     		b	.L273
 4952              	.LVL499:
 4953              	.L302:
 667:Drivers/lvgl/src/widgets/lv_btnmatrix.c ****                     if(btnm->button_areas[area_above].y1 < btnm->button_areas[btnm->btn_id_sel].y1 
 4954              		.loc 1 667 17 view .LVU1629
 4955              	.LBE166:
 653:Drivers/lvgl/src/widgets/lv_btnmatrix.c ****                 while(button_is_hidden(btnm->ctrl_bits[btnm->btn_id_sel]) || button_is_inactive(btn
 4956              		.loc 1 653 17 is_stmt 1 view .LVU1630
 653:Drivers/lvgl/src/widgets/lv_btnmatrix.c ****                 while(button_is_hidden(btnm->ctrl_bits[btnm->btn_id_sel]) || button_is_inactive(btn
 4957              		.loc 1 653 34 is_stmt 0 view .LVU1631
 4958 0616 0023     		movs	r3, #0
 4959 0618 B386     		strh	r3, [r6, #52]	@ movhi
 654:Drivers/lvgl/src/widgets/lv_btnmatrix.c ****                     btnm->btn_id_sel++;
 4960              		.loc 1 654 17 is_stmt 1 view .LVU1632
 654:Drivers/lvgl/src/widgets/lv_btnmatrix.c ****                     btnm->btn_id_sel++;
 4961              		.loc 1 654 22 is_stmt 0 view .LVU1633
 4962 061a 05E0     		b	.L271
 4963              	.LVL500:
 4964              	.L272:
 655:Drivers/lvgl/src/widgets/lv_btnmatrix.c ****                     if(btnm->btn_id_sel >= btnm->btn_cnt) {
 4965              		.loc 1 655 21 is_stmt 1 view .LVU1634
 655:Drivers/lvgl/src/widgets/lv_btnmatrix.c ****                     if(btnm->btn_id_sel >= btnm->btn_cnt) {
 4966              		.loc 1 655 37 is_stmt 0 view .LVU1635
 4967 061c 631C     		adds	r3, r4, #1
 4968 061e 9BB2     		uxth	r3, r3
 4969 0620 B386     		strh	r3, [r6, #52]	@ movhi
 656:Drivers/lvgl/src/widgets/lv_btnmatrix.c ****                         btnm->btn_id_sel = LV_BTNMATRIX_BTN_NONE;
 4970              		.loc 1 656 21 is_stmt 1 view .LVU1636
 656:Drivers/lvgl/src/widgets/lv_btnmatrix.c ****                         btnm->btn_id_sel = LV_BTNMATRIX_BTN_NONE;
 4971              		.loc 1 656 48 is_stmt 0 view .LVU1637
 4972 0622 328E     		ldrh	r2, [r6, #48]
 656:Drivers/lvgl/src/widgets/lv_btnmatrix.c ****                         btnm->btn_id_sel = LV_BTNMATRIX_BTN_NONE;
 4973              		.loc 1 656 23 view .LVU1638
 4974 0624 9342     		cmp	r3, r2
 4975 0626 0ED2     		bcs	.L303
 4976              	.L271:
 654:Drivers/lvgl/src/widgets/lv_btnmatrix.c ****                     btnm->btn_id_sel++;
 4977              		.loc 1 654 75 is_stmt 1 view .LVU1639
 654:Drivers/lvgl/src/widgets/lv_btnmatrix.c ****                     btnm->btn_id_sel++;
 4978              		.loc 1 654 44 is_stmt 0 view .LVU1640
ARM GAS  /var/folders/0z/tsy30v1j4xl4_7kw94k978ww0000gn/T//ccZBZI6H.s 			page 145


 4979 0628 F36A     		ldr	r3, [r6, #44]
 654:Drivers/lvgl/src/widgets/lv_btnmatrix.c ****                     btnm->btn_id_sel++;
 4980              		.loc 1 654 60 view .LVU1641
 4981 062a B48E     		ldrh	r4, [r6, #52]
 654:Drivers/lvgl/src/widgets/lv_btnmatrix.c ****                     btnm->btn_id_sel++;
 4982              		.loc 1 654 23 view .LVU1642
 4983 062c 33F81450 		ldrh	r5, [r3, r4, lsl #1]
 4984 0630 2846     		mov	r0, r5
 4985 0632 FFF7FEFF 		bl	button_is_hidden
 4986              	.LVL501:
 654:Drivers/lvgl/src/widgets/lv_btnmatrix.c ****                     btnm->btn_id_sel++;
 4987              		.loc 1 654 75 view .LVU1643
 4988 0636 0028     		cmp	r0, #0
 4989 0638 F0D1     		bne	.L272
 654:Drivers/lvgl/src/widgets/lv_btnmatrix.c ****                     btnm->btn_id_sel++;
 4990              		.loc 1 654 78 discriminator 1 view .LVU1644
 4991 063a 2846     		mov	r0, r5
 4992 063c FFF7FEFF 		bl	button_is_inactive
 4993              	.LVL502:
 654:Drivers/lvgl/src/widgets/lv_btnmatrix.c ****                     btnm->btn_id_sel++;
 4994              		.loc 1 654 75 discriminator 1 view .LVU1645
 4995 0640 0028     		cmp	r0, #0
 4996 0642 EBD1     		bne	.L272
 4997 0644 07E7     		b	.L252
 4998              	.L303:
 657:Drivers/lvgl/src/widgets/lv_btnmatrix.c ****                         break;
 4999              		.loc 1 657 25 is_stmt 1 view .LVU1646
 657:Drivers/lvgl/src/widgets/lv_btnmatrix.c ****                         break;
 5000              		.loc 1 657 42 is_stmt 0 view .LVU1647
 5001 0646 4FF6FF73 		movw	r3, #65535
 5002 064a B386     		strh	r3, [r6, #52]	@ movhi
 658:Drivers/lvgl/src/widgets/lv_btnmatrix.c ****                     }
 5003              		.loc 1 658 25 is_stmt 1 view .LVU1648
 5004 064c 03E7     		b	.L252
 5005              	.LVL503:
 5006              	.L274:
 5007              	.LBB169:
 667:Drivers/lvgl/src/widgets/lv_btnmatrix.c ****                     if(btnm->button_areas[area_above].y1 < btnm->button_areas[btnm->btn_id_sel].y1 
 5008              		.loc 1 667 79 discriminator 2 view .LVU1649
 5009 064e 013C     		subs	r4, r4, #1
 5010              	.LVL504:
 667:Drivers/lvgl/src/widgets/lv_btnmatrix.c ****                     if(btnm->button_areas[area_above].y1 < btnm->button_areas[btnm->btn_id_sel].y1 
 5011              		.loc 1 667 79 is_stmt 0 discriminator 2 view .LVU1650
 5012 0650 24B2     		sxth	r4, r4
 5013              	.LVL505:
 5014              	.L273:
 667:Drivers/lvgl/src/widgets/lv_btnmatrix.c ****                     if(btnm->button_areas[area_above].y1 < btnm->button_areas[btnm->btn_id_sel].y1 
 5015              		.loc 1 667 63 is_stmt 1 discriminator 1 view .LVU1651
 5016 0652 002C     		cmp	r4, #0
 5017 0654 1EDB     		blt	.L275
 668:Drivers/lvgl/src/widgets/lv_btnmatrix.c ****                        pr_center >= btnm->button_areas[area_above].x1 - col_gap &&
 5018              		.loc 1 668 21 view .LVU1652
 668:Drivers/lvgl/src/widgets/lv_btnmatrix.c ****                        pr_center >= btnm->button_areas[area_above].x1 - col_gap &&
 5019              		.loc 1 668 42 is_stmt 0 view .LVU1653
 5020 0656 05EBC403 		add	r3, r5, r4, lsl #3
 668:Drivers/lvgl/src/widgets/lv_btnmatrix.c ****                        pr_center >= btnm->button_areas[area_above].x1 - col_gap &&
 5021              		.loc 1 668 54 view .LVU1654
ARM GAS  /var/folders/0z/tsy30v1j4xl4_7kw94k978ww0000gn/T//ccZBZI6H.s 			page 146


 5022 065a B3F90210 		ldrsh	r1, [r3, #2]
 668:Drivers/lvgl/src/widgets/lv_btnmatrix.c ****                        pr_center >= btnm->button_areas[area_above].x1 - col_gap &&
 5023              		.loc 1 668 96 view .LVU1655
 5024 065e B7F90220 		ldrsh	r2, [r7, #2]
 668:Drivers/lvgl/src/widgets/lv_btnmatrix.c ****                        pr_center >= btnm->button_areas[area_above].x1 - col_gap &&
 5025              		.loc 1 668 23 view .LVU1656
 5026 0662 9142     		cmp	r1, r2
 5027 0664 F3DA     		bge	.L274
 669:Drivers/lvgl/src/widgets/lv_btnmatrix.c ****                        pr_center <= btnm->button_areas[area_above].x2 &&
 5028              		.loc 1 669 67 discriminator 1 view .LVU1657
 5029 0666 35F93420 		ldrsh	r2, [r5, r4, lsl #3]
 669:Drivers/lvgl/src/widgets/lv_btnmatrix.c ****                        pr_center <= btnm->button_areas[area_above].x2 &&
 5030              		.loc 1 669 71 discriminator 1 view .LVU1658
 5031 066a A2EB0902 		sub	r2, r2, r9
 668:Drivers/lvgl/src/widgets/lv_btnmatrix.c ****                        pr_center >= btnm->button_areas[area_above].x1 - col_gap &&
 5032              		.loc 1 668 100 discriminator 1 view .LVU1659
 5033 066e 9045     		cmp	r8, r2
 5034 0670 EDDB     		blt	.L274
 670:Drivers/lvgl/src/widgets/lv_btnmatrix.c ****                        button_is_inactive(btnm->ctrl_bits[area_above]) == false &&
 5035              		.loc 1 670 67 view .LVU1660
 5036 0672 B3F90430 		ldrsh	r3, [r3, #4]
 669:Drivers/lvgl/src/widgets/lv_btnmatrix.c ****                        pr_center <= btnm->button_areas[area_above].x2 &&
 5037              		.loc 1 669 81 view .LVU1661
 5038 0676 4345     		cmp	r3, r8
 5039 0678 E9DB     		blt	.L274
 671:Drivers/lvgl/src/widgets/lv_btnmatrix.c ****                        button_is_hidden(btnm->ctrl_bits[area_above]) == false) {
 5040              		.loc 1 671 47 view .LVU1662
 5041 067a F36A     		ldr	r3, [r6, #44]
 671:Drivers/lvgl/src/widgets/lv_btnmatrix.c ****                        button_is_hidden(btnm->ctrl_bits[area_above]) == false) {
 5042              		.loc 1 671 24 view .LVU1663
 5043 067c 33F814A0 		ldrh	r10, [r3, r4, lsl #1]
 5044 0680 5046     		mov	r0, r10
 5045 0682 FFF7FEFF 		bl	button_is_inactive
 5046              	.LVL506:
 670:Drivers/lvgl/src/widgets/lv_btnmatrix.c ****                        button_is_inactive(btnm->ctrl_bits[area_above]) == false &&
 5047              		.loc 1 670 71 view .LVU1664
 5048 0686 0028     		cmp	r0, #0
 5049 0688 E1D1     		bne	.L274
 672:Drivers/lvgl/src/widgets/lv_btnmatrix.c ****                         break;
 5050              		.loc 1 672 24 view .LVU1665
 5051 068a 5046     		mov	r0, r10
 5052 068c FFF7FEFF 		bl	button_is_hidden
 5053              	.LVL507:
 671:Drivers/lvgl/src/widgets/lv_btnmatrix.c ****                        button_is_hidden(btnm->ctrl_bits[area_above]) == false) {
 5054              		.loc 1 671 81 view .LVU1666
 5055 0690 0028     		cmp	r0, #0
 5056 0692 DCD1     		bne	.L274
 5057              	.L275:
 676:Drivers/lvgl/src/widgets/lv_btnmatrix.c ****             }
 5058              		.loc 1 676 17 is_stmt 1 view .LVU1667
 676:Drivers/lvgl/src/widgets/lv_btnmatrix.c ****             }
 5059              		.loc 1 676 19 is_stmt 0 view .LVU1668
 5060 0694 002C     		cmp	r4, #0
 5061 0696 FFF6DEAE 		blt	.L252
 676:Drivers/lvgl/src/widgets/lv_btnmatrix.c ****             }
 5062              		.loc 1 676 37 is_stmt 1 discriminator 1 view .LVU1669
 676:Drivers/lvgl/src/widgets/lv_btnmatrix.c ****             }
ARM GAS  /var/folders/0z/tsy30v1j4xl4_7kw94k978ww0000gn/T//ccZBZI6H.s 			page 147


 5063              		.loc 1 676 54 is_stmt 0 discriminator 1 view .LVU1670
 5064 069a B486     		strh	r4, [r6, #52]	@ movhi
 5065 069c DBE6     		b	.L252
 5066              	.LVL508:
 5067              	.L216:
 676:Drivers/lvgl/src/widgets/lv_btnmatrix.c ****             }
 5068              		.loc 1 676 54 discriminator 1 view .LVU1671
 5069              	.LBE169:
 5070              	.LBE163:
 5071              	.LBE170:
 683:Drivers/lvgl/src/widgets/lv_btnmatrix.c ****     }
 5072              		.loc 1 683 9 is_stmt 1 view .LVU1672
 5073 069e 2846     		mov	r0, r5
 5074 06a0 FFF7FEFF 		bl	draw_main
 5075              	.LVL509:
 5076 06a4 B5E4     		b	.L208
 5077              		.cfi_endproc
 5078              	.LFE178:
 5080 06a6 00BF     		.section	.text.lv_btnmatrix_set_one_checked,"ax",%progbits
 5081              		.align	1
 5082              		.global	lv_btnmatrix_set_one_checked
 5083              		.syntax unified
 5084              		.thumb
 5085              		.thumb_func
 5087              	lv_btnmatrix_set_one_checked:
 5088              	.LVL510:
 5089              	.LFB170:
 296:Drivers/lvgl/src/widgets/lv_btnmatrix.c ****     LV_ASSERT_OBJ(obj, MY_CLASS);
 5090              		.loc 1 296 1 view -0
 5091              		.cfi_startproc
 5092              		@ args = 0, pretend = 0, frame = 0
 5093              		@ frame_needed = 0, uses_anonymous_args = 0
 296:Drivers/lvgl/src/widgets/lv_btnmatrix.c ****     LV_ASSERT_OBJ(obj, MY_CLASS);
 5094              		.loc 1 296 1 is_stmt 0 view .LVU1674
 5095 0000 08B5     		push	{r3, lr}
 5096              		.cfi_def_cfa_offset 8
 5097              		.cfi_offset 3, -8
 5098              		.cfi_offset 14, -4
 297:Drivers/lvgl/src/widgets/lv_btnmatrix.c **** 
 5099              		.loc 1 297 5 is_stmt 1 view .LVU1675
 297:Drivers/lvgl/src/widgets/lv_btnmatrix.c **** 
 5100              		.loc 1 297 5 view .LVU1676
 297:Drivers/lvgl/src/widgets/lv_btnmatrix.c **** 
 5101              		.loc 1 297 5 view .LVU1677
 299:Drivers/lvgl/src/widgets/lv_btnmatrix.c ****     btnm->one_check     = en;
 5102              		.loc 1 299 5 view .LVU1678
 5103              	.LVL511:
 299:Drivers/lvgl/src/widgets/lv_btnmatrix.c ****     btnm->one_check     = en;
 5104              		.loc 1 299 51 view .LVU1679
 300:Drivers/lvgl/src/widgets/lv_btnmatrix.c **** 
 5105              		.loc 1 300 5 view .LVU1680
 300:Drivers/lvgl/src/widgets/lv_btnmatrix.c **** 
 5106              		.loc 1 300 25 is_stmt 0 view .LVU1681
 5107 0002 90F83620 		ldrb	r2, [r0, #54]	@ zero_extendqisi2
 5108 0006 61F30002 		bfi	r2, r1, #0, #1
 5109 000a 80F83620 		strb	r2, [r0, #54]
 303:Drivers/lvgl/src/widgets/lv_btnmatrix.c **** }
ARM GAS  /var/folders/0z/tsy30v1j4xl4_7kw94k978ww0000gn/T//ccZBZI6H.s 			page 148


 5110              		.loc 1 303 5 is_stmt 1 view .LVU1682
 5111 000e 0021     		movs	r1, #0
 5112              	.LVL512:
 303:Drivers/lvgl/src/widgets/lv_btnmatrix.c **** }
 5113              		.loc 1 303 5 is_stmt 0 view .LVU1683
 5114 0010 FFF7FEFF 		bl	make_one_button_checked
 5115              	.LVL513:
 304:Drivers/lvgl/src/widgets/lv_btnmatrix.c **** 
 5116              		.loc 1 304 1 view .LVU1684
 5117 0014 08BD     		pop	{r3, pc}
 5118              		.cfi_endproc
 5119              	.LFE170:
 5121              		.section	.text.lv_btnmatrix_get_one_checked,"ax",%progbits
 5122              		.align	1
 5123              		.global	lv_btnmatrix_get_one_checked
 5124              		.syntax unified
 5125              		.thumb
 5126              		.thumb_func
 5128              	lv_btnmatrix_get_one_checked:
 5129              	.LVL514:
 5130              	.LFB175:
 362:Drivers/lvgl/src/widgets/lv_btnmatrix.c ****     LV_ASSERT_OBJ(obj, MY_CLASS);
 5131              		.loc 1 362 1 is_stmt 1 view -0
 5132              		.cfi_startproc
 5133              		@ args = 0, pretend = 0, frame = 0
 5134              		@ frame_needed = 0, uses_anonymous_args = 0
 5135              		@ link register save eliminated.
 363:Drivers/lvgl/src/widgets/lv_btnmatrix.c **** 
 5136              		.loc 1 363 5 view .LVU1686
 363:Drivers/lvgl/src/widgets/lv_btnmatrix.c **** 
 5137              		.loc 1 363 5 view .LVU1687
 363:Drivers/lvgl/src/widgets/lv_btnmatrix.c **** 
 5138              		.loc 1 363 5 view .LVU1688
 365:Drivers/lvgl/src/widgets/lv_btnmatrix.c **** 
 5139              		.loc 1 365 5 view .LVU1689
 365:Drivers/lvgl/src/widgets/lv_btnmatrix.c **** 
 5140              		.loc 1 365 51 view .LVU1690
 367:Drivers/lvgl/src/widgets/lv_btnmatrix.c **** }
 5141              		.loc 1 367 5 view .LVU1691
 367:Drivers/lvgl/src/widgets/lv_btnmatrix.c **** }
 5142              		.loc 1 367 16 is_stmt 0 view .LVU1692
 5143 0000 90F83600 		ldrb	r0, [r0, #54]	@ zero_extendqisi2
 5144              	.LVL515:
 368:Drivers/lvgl/src/widgets/lv_btnmatrix.c **** 
 5145              		.loc 1 368 1 view .LVU1693
 5146 0004 00F00100 		and	r0, r0, #1
 5147 0008 7047     		bx	lr
 5148              		.cfi_endproc
 5149              	.LFE175:
 5151              		.global	lv_btnmatrix_class
 5152              		.section	.rodata.str1.4,"aMS",%progbits,1
 5153              		.align	2
 5154              	.LC1:
 5155 0000 42746E31 		.ascii	"Btn1\000"
 5155      00
 5156 0005 000000   		.align	2
 5157              	.LC2:
ARM GAS  /var/folders/0z/tsy30v1j4xl4_7kw94k978ww0000gn/T//ccZBZI6H.s 			page 149


 5158 0008 42746E32 		.ascii	"Btn2\000"
 5158      00
 5159 000d 000000   		.align	2
 5160              	.LC3:
 5161 0010 42746E33 		.ascii	"Btn3\000"
 5161      00
 5162 0015 000000   		.align	2
 5163              	.LC4:
 5164 0018 42746E34 		.ascii	"Btn4\000"
 5164      00
 5165 001d 000000   		.align	2
 5166              	.LC5:
 5167 0020 42746E35 		.ascii	"Btn5\000"
 5167      00
 5168 0025 000000   		.align	2
 5169              	.LC6:
 5170 0028 00       		.ascii	"\000"
 5171              		.section	.data.lv_btnmatrix_def_map,"aw"
 5172              		.align	2
 5173              		.set	.LANCHOR1,. + 0
 5176              	lv_btnmatrix_def_map:
 5177 0000 00000000 		.word	.LC1
 5178 0004 08000000 		.word	.LC2
 5179 0008 10000000 		.word	.LC3
 5180 000c 00000000 		.word	.LC0
 5181 0010 18000000 		.word	.LC4
 5182 0014 20000000 		.word	.LC5
 5183 0018 28000000 		.word	.LC6
 5184              		.section	.rodata.lv_btnmatrix_class,"a"
 5185              		.align	2
 5186              		.set	.LANCHOR0,. + 0
 5189              	lv_btnmatrix_class:
 5190 0000 00000000 		.word	lv_obj_class
 5191 0004 00000000 		.word	lv_btnmatrix_constructor
 5192 0008 00000000 		.word	lv_btnmatrix_destructor
 5193 000c 00000000 		.space	4
 5194 0010 00000000 		.word	lv_btnmatrix_event
 5195 0014 0401     		.short	260
 5196 0016 8200     		.short	130
 5197 0018 85       		.byte	133
 5198 0019 03       		.byte	3
 5199 001a 00       		.byte	0
 5200 001b 00       		.space	1
 5201              		.text
 5202              	.Letext0:
 5203              		.file 4 "/Users/johannes/Library/Application Support/Code/User/globalStorage/bmd.stm32-for-vscode/
 5204              		.file 5 "/Users/johannes/Library/Application Support/Code/User/globalStorage/bmd.stm32-for-vscode/
 5205              		.file 6 "/Users/johannes/Library/Application Support/Code/User/globalStorage/bmd.stm32-for-vscode/
 5206              		.file 7 "Drivers/lvgl/src/widgets/../core/../misc/../font/lv_font.h"
 5207              		.file 8 "Drivers/lvgl/src/widgets/../core/../misc/lv_types.h"
 5208              		.file 9 "Drivers/lvgl/src/widgets/../core/../misc/lv_color.h"
 5209              		.file 10 "Drivers/lvgl/src/widgets/../core/../misc/lv_txt.h"
 5210              		.file 11 "Drivers/lvgl/src/widgets/../core/../misc/lv_bidi.h"
 5211              		.file 12 "Drivers/lvgl/src/widgets/../core/../misc/lv_style.h"
 5212              		.file 13 "Drivers/lvgl/src/widgets/../core/../hal/../draw/lv_img_buf.h"
 5213              		.file 14 "Drivers/lvgl/src/widgets/../core/lv_obj.h"
 5214              		.file 15 "Drivers/lvgl/src/widgets/../core/../hal/../draw/lv_draw_rect.h"
ARM GAS  /var/folders/0z/tsy30v1j4xl4_7kw94k978ww0000gn/T//ccZBZI6H.s 			page 150


 5215              		.file 16 "Drivers/lvgl/src/widgets/../core/../hal/../draw/lv_draw_label.h"
 5216              		.file 17 "Drivers/lvgl/src/widgets/../core/../hal/../draw/lv_draw_img.h"
 5217              		.file 18 "Drivers/lvgl/src/widgets/../core/../hal/../draw/lv_draw_line.h"
 5218              		.file 19 "Drivers/lvgl/src/widgets/../core/../hal/../draw/lv_draw_arc.h"
 5219              		.file 20 "Drivers/lvgl/src/widgets/../core/../hal/../draw/lv_draw_layer.h"
 5220              		.file 21 "Drivers/lvgl/src/widgets/../core/../hal/../draw/lv_draw.h"
 5221              		.file 22 "Drivers/lvgl/src/widgets/../core/../hal/../misc/lv_ll.h"
 5222              		.file 23 "Drivers/lvgl/src/widgets/../core/../hal/../misc/lv_timer.h"
 5223              		.file 24 "Drivers/lvgl/src/widgets/../core/../hal/lv_hal_disp.h"
 5224              		.file 25 "Drivers/lvgl/src/widgets/../core/../hal/lv_hal_indev.h"
 5225              		.file 26 "Drivers/lvgl/src/widgets/../core/lv_group.h"
 5226              		.file 27 "Drivers/lvgl/src/widgets/../core/lv_obj_scroll.h"
 5227              		.file 28 "Drivers/lvgl/src/widgets/../core/lv_obj_style.h"
 5228              		.file 29 "Drivers/lvgl/src/widgets/../core/lv_obj_draw.h"
 5229              		.file 30 "Drivers/lvgl/src/widgets/../core/lv_obj_class.h"
 5230              		.file 31 "Drivers/lvgl/src/widgets/../core/lv_event.h"
 5231              		.file 32 "Drivers/lvgl/src/widgets/lv_btnmatrix.h"
 5232              		.file 33 "Drivers/lvgl/src/widgets/../core/../misc/lv_mem.h"
 5233              		.file 34 "Drivers/lvgl/src/widgets/../core/../hal/../draw/sw/../../core/lv_obj_pos.h"
 5234              		.file 35 "Drivers/lvgl/src/widgets/../core/lv_obj_tree.h"
 5235              		.file 36 "/Users/johannes/Library/Application Support/Code/User/globalStorage/bmd.stm32-for-vscode
 5236              		.file 37 "Drivers/lvgl/src/widgets/../core/lv_indev.h"
ARM GAS  /var/folders/0z/tsy30v1j4xl4_7kw94k978ww0000gn/T//ccZBZI6H.s 			page 151


DEFINED SYMBOLS
                            *ABS*:0000000000000000 lv_btnmatrix.c
/var/folders/0z/tsy30v1j4xl4_7kw94k978ww0000gn/T//ccZBZI6H.s:20     .text.get_button_width:0000000000000000 $t
/var/folders/0z/tsy30v1j4xl4_7kw94k978ww0000gn/T//ccZBZI6H.s:25     .text.get_button_width:0000000000000000 get_button_width
/var/folders/0z/tsy30v1j4xl4_7kw94k978ww0000gn/T//ccZBZI6H.s:49     .text.button_is_hidden:0000000000000000 $t
/var/folders/0z/tsy30v1j4xl4_7kw94k978ww0000gn/T//ccZBZI6H.s:54     .text.button_is_hidden:0000000000000000 button_is_hidden
/var/folders/0z/tsy30v1j4xl4_7kw94k978ww0000gn/T//ccZBZI6H.s:72     .text.button_is_checked:0000000000000000 $t
/var/folders/0z/tsy30v1j4xl4_7kw94k978ww0000gn/T//ccZBZI6H.s:77     .text.button_is_checked:0000000000000000 button_is_checked
/var/folders/0z/tsy30v1j4xl4_7kw94k978ww0000gn/T//ccZBZI6H.s:95     .text.button_is_repeat_disabled:0000000000000000 $t
/var/folders/0z/tsy30v1j4xl4_7kw94k978ww0000gn/T//ccZBZI6H.s:100    .text.button_is_repeat_disabled:0000000000000000 button_is_repeat_disabled
/var/folders/0z/tsy30v1j4xl4_7kw94k978ww0000gn/T//ccZBZI6H.s:118    .text.button_is_inactive:0000000000000000 $t
/var/folders/0z/tsy30v1j4xl4_7kw94k978ww0000gn/T//ccZBZI6H.s:123    .text.button_is_inactive:0000000000000000 button_is_inactive
/var/folders/0z/tsy30v1j4xl4_7kw94k978ww0000gn/T//ccZBZI6H.s:141    .text.button_is_click_trig:0000000000000000 $t
/var/folders/0z/tsy30v1j4xl4_7kw94k978ww0000gn/T//ccZBZI6H.s:146    .text.button_is_click_trig:0000000000000000 button_is_click_trig
/var/folders/0z/tsy30v1j4xl4_7kw94k978ww0000gn/T//ccZBZI6H.s:164    .text.button_is_popover:0000000000000000 $t
/var/folders/0z/tsy30v1j4xl4_7kw94k978ww0000gn/T//ccZBZI6H.s:169    .text.button_is_popover:0000000000000000 button_is_popover
/var/folders/0z/tsy30v1j4xl4_7kw94k978ww0000gn/T//ccZBZI6H.s:187    .text.button_is_checkable:0000000000000000 $t
/var/folders/0z/tsy30v1j4xl4_7kw94k978ww0000gn/T//ccZBZI6H.s:192    .text.button_is_checkable:0000000000000000 button_is_checkable
/var/folders/0z/tsy30v1j4xl4_7kw94k978ww0000gn/T//ccZBZI6H.s:210    .text.button_get_checked:0000000000000000 $t
/var/folders/0z/tsy30v1j4xl4_7kw94k978ww0000gn/T//ccZBZI6H.s:215    .text.button_get_checked:0000000000000000 button_get_checked
/var/folders/0z/tsy30v1j4xl4_7kw94k978ww0000gn/T//ccZBZI6H.s:233    .text.button_is_recolor:0000000000000000 $t
/var/folders/0z/tsy30v1j4xl4_7kw94k978ww0000gn/T//ccZBZI6H.s:238    .text.button_is_recolor:0000000000000000 button_is_recolor
/var/folders/0z/tsy30v1j4xl4_7kw94k978ww0000gn/T//ccZBZI6H.s:256    .rodata.has_popovers_in_top_row.str1.4:0000000000000000 $d
/var/folders/0z/tsy30v1j4xl4_7kw94k978ww0000gn/T//ccZBZI6H.s:260    .text.has_popovers_in_top_row:0000000000000000 $t
/var/folders/0z/tsy30v1j4xl4_7kw94k978ww0000gn/T//ccZBZI6H.s:265    .text.has_popovers_in_top_row:0000000000000000 has_popovers_in_top_row
/var/folders/0z/tsy30v1j4xl4_7kw94k978ww0000gn/T//ccZBZI6H.s:373    .text.has_popovers_in_top_row:000000000000004c $d
/var/folders/0z/tsy30v1j4xl4_7kw94k978ww0000gn/T//ccZBZI6H.s:378    .text.get_button_from_point:0000000000000000 $t
/var/folders/0z/tsy30v1j4xl4_7kw94k978ww0000gn/T//ccZBZI6H.s:383    .text.get_button_from_point:0000000000000000 get_button_from_point
/var/folders/0z/tsy30v1j4xl4_7kw94k978ww0000gn/T//ccZBZI6H.s:820    .text.invalidate_button_area:0000000000000000 $t
/var/folders/0z/tsy30v1j4xl4_7kw94k978ww0000gn/T//ccZBZI6H.s:825    .text.invalidate_button_area:0000000000000000 invalidate_button_area
/var/folders/0z/tsy30v1j4xl4_7kw94k978ww0000gn/T//ccZBZI6H.s:1076   .text.invalidate_button_area:00000000000000f8 $d
/var/folders/0z/tsy30v1j4xl4_7kw94k978ww0000gn/T//ccZBZI6H.s:1081   .text.draw_main:0000000000000000 $t
/var/folders/0z/tsy30v1j4xl4_7kw94k978ww0000gn/T//ccZBZI6H.s:1086   .text.draw_main:0000000000000000 draw_main
/var/folders/0z/tsy30v1j4xl4_7kw94k978ww0000gn/T//ccZBZI6H.s:1893   .text.draw_main:00000000000003e4 $d
/var/folders/0z/tsy30v1j4xl4_7kw94k978ww0000gn/T//ccZBZI6H.s:1898   .text.draw_main:00000000000003ec $t
/var/folders/0z/tsy30v1j4xl4_7kw94k978ww0000gn/T//ccZBZI6H.s:1927   .text.lv_btnmatrix_destructor:0000000000000000 $t
/var/folders/0z/tsy30v1j4xl4_7kw94k978ww0000gn/T//ccZBZI6H.s:1932   .text.lv_btnmatrix_destructor:0000000000000000 lv_btnmatrix_destructor
/var/folders/0z/tsy30v1j4xl4_7kw94k978ww0000gn/T//ccZBZI6H.s:1974   .text.allocate_btn_areas_and_controls:0000000000000000 $t
/var/folders/0z/tsy30v1j4xl4_7kw94k978ww0000gn/T//ccZBZI6H.s:1979   .text.allocate_btn_areas_and_controls:0000000000000000 allocate_btn_areas_and_controls
/var/folders/0z/tsy30v1j4xl4_7kw94k978ww0000gn/T//ccZBZI6H.s:2154   .text.allocate_btn_areas_and_controls:000000000000007c $d
/var/folders/0z/tsy30v1j4xl4_7kw94k978ww0000gn/T//ccZBZI6H.s:2159   .text.lv_btnmatrix_create:0000000000000000 $t
/var/folders/0z/tsy30v1j4xl4_7kw94k978ww0000gn/T//ccZBZI6H.s:2165   .text.lv_btnmatrix_create:0000000000000000 lv_btnmatrix_create
/var/folders/0z/tsy30v1j4xl4_7kw94k978ww0000gn/T//ccZBZI6H.s:2203   .text.lv_btnmatrix_create:0000000000000014 $d
/var/folders/0z/tsy30v1j4xl4_7kw94k978ww0000gn/T//ccZBZI6H.s:2208   .text.lv_btnmatrix_set_map:0000000000000000 $t
/var/folders/0z/tsy30v1j4xl4_7kw94k978ww0000gn/T//ccZBZI6H.s:2214   .text.lv_btnmatrix_set_map:0000000000000000 lv_btnmatrix_set_map
/var/folders/0z/tsy30v1j4xl4_7kw94k978ww0000gn/T//ccZBZI6H.s:2693   .text.lv_btnmatrix_set_map:00000000000001c4 $d
/var/folders/0z/tsy30v1j4xl4_7kw94k978ww0000gn/T//ccZBZI6H.s:2698   .text.lv_btnmatrix_constructor:0000000000000000 $t
/var/folders/0z/tsy30v1j4xl4_7kw94k978ww0000gn/T//ccZBZI6H.s:2703   .text.lv_btnmatrix_constructor:0000000000000000 lv_btnmatrix_constructor
/var/folders/0z/tsy30v1j4xl4_7kw94k978ww0000gn/T//ccZBZI6H.s:2757   .text.lv_btnmatrix_constructor:000000000000002c $d
/var/folders/0z/tsy30v1j4xl4_7kw94k978ww0000gn/T//ccZBZI6H.s:2762   .text.lv_btnmatrix_set_ctrl_map:0000000000000000 $t
/var/folders/0z/tsy30v1j4xl4_7kw94k978ww0000gn/T//ccZBZI6H.s:2768   .text.lv_btnmatrix_set_ctrl_map:0000000000000000 lv_btnmatrix_set_ctrl_map
/var/folders/0z/tsy30v1j4xl4_7kw94k978ww0000gn/T//ccZBZI6H.s:2808   .text.lv_btnmatrix_set_selected_btn:0000000000000000 $t
/var/folders/0z/tsy30v1j4xl4_7kw94k978ww0000gn/T//ccZBZI6H.s:2814   .text.lv_btnmatrix_set_selected_btn:0000000000000000 lv_btnmatrix_set_selected_btn
/var/folders/0z/tsy30v1j4xl4_7kw94k978ww0000gn/T//ccZBZI6H.s:2871   .text.lv_btnmatrix_clear_btn_ctrl:0000000000000000 $t
/var/folders/0z/tsy30v1j4xl4_7kw94k978ww0000gn/T//ccZBZI6H.s:2877   .text.lv_btnmatrix_clear_btn_ctrl:0000000000000000 lv_btnmatrix_clear_btn_ctrl
/var/folders/0z/tsy30v1j4xl4_7kw94k978ww0000gn/T//ccZBZI6H.s:2968   .text.lv_btnmatrix_clear_btn_ctrl_all:0000000000000000 $t
/var/folders/0z/tsy30v1j4xl4_7kw94k978ww0000gn/T//ccZBZI6H.s:2974   .text.lv_btnmatrix_clear_btn_ctrl_all:0000000000000000 lv_btnmatrix_clear_btn_ctrl_all
ARM GAS  /var/folders/0z/tsy30v1j4xl4_7kw94k978ww0000gn/T//ccZBZI6H.s 			page 152


/var/folders/0z/tsy30v1j4xl4_7kw94k978ww0000gn/T//ccZBZI6H.s:3030   .text.lv_btnmatrix_set_btn_ctrl:0000000000000000 $t
/var/folders/0z/tsy30v1j4xl4_7kw94k978ww0000gn/T//ccZBZI6H.s:3036   .text.lv_btnmatrix_set_btn_ctrl:0000000000000000 lv_btnmatrix_set_btn_ctrl
/var/folders/0z/tsy30v1j4xl4_7kw94k978ww0000gn/T//ccZBZI6H.s:3193   .text.lv_btnmatrix_set_btn_ctrl_all:0000000000000000 $t
/var/folders/0z/tsy30v1j4xl4_7kw94k978ww0000gn/T//ccZBZI6H.s:3199   .text.lv_btnmatrix_set_btn_ctrl_all:0000000000000000 lv_btnmatrix_set_btn_ctrl_all
/var/folders/0z/tsy30v1j4xl4_7kw94k978ww0000gn/T//ccZBZI6H.s:3255   .text.lv_btnmatrix_set_btn_width:0000000000000000 $t
/var/folders/0z/tsy30v1j4xl4_7kw94k978ww0000gn/T//ccZBZI6H.s:3261   .text.lv_btnmatrix_set_btn_width:0000000000000000 lv_btnmatrix_set_btn_width
/var/folders/0z/tsy30v1j4xl4_7kw94k978ww0000gn/T//ccZBZI6H.s:3315   .text.lv_btnmatrix_get_map:0000000000000000 $t
/var/folders/0z/tsy30v1j4xl4_7kw94k978ww0000gn/T//ccZBZI6H.s:3321   .text.lv_btnmatrix_get_map:0000000000000000 lv_btnmatrix_get_map
/var/folders/0z/tsy30v1j4xl4_7kw94k978ww0000gn/T//ccZBZI6H.s:3344   .text.lv_btnmatrix_get_selected_btn:0000000000000000 $t
/var/folders/0z/tsy30v1j4xl4_7kw94k978ww0000gn/T//ccZBZI6H.s:3350   .text.lv_btnmatrix_get_selected_btn:0000000000000000 lv_btnmatrix_get_selected_btn
/var/folders/0z/tsy30v1j4xl4_7kw94k978ww0000gn/T//ccZBZI6H.s:3373   .text.lv_btnmatrix_get_btn_text:0000000000000000 $t
/var/folders/0z/tsy30v1j4xl4_7kw94k978ww0000gn/T//ccZBZI6H.s:3379   .text.lv_btnmatrix_get_btn_text:0000000000000000 lv_btnmatrix_get_btn_text
/var/folders/0z/tsy30v1j4xl4_7kw94k978ww0000gn/T//ccZBZI6H.s:3498   .text.lv_btnmatrix_get_btn_text:0000000000000060 $d
/var/folders/0z/tsy30v1j4xl4_7kw94k978ww0000gn/T//ccZBZI6H.s:3503   .text.lv_btnmatrix_has_btn_ctrl:0000000000000000 $t
/var/folders/0z/tsy30v1j4xl4_7kw94k978ww0000gn/T//ccZBZI6H.s:3509   .text.lv_btnmatrix_has_btn_ctrl:0000000000000000 lv_btnmatrix_has_btn_ctrl
/var/folders/0z/tsy30v1j4xl4_7kw94k978ww0000gn/T//ccZBZI6H.s:3554   .text.make_one_button_checked:0000000000000000 $t
/var/folders/0z/tsy30v1j4xl4_7kw94k978ww0000gn/T//ccZBZI6H.s:3559   .text.make_one_button_checked:0000000000000000 make_one_button_checked
/var/folders/0z/tsy30v1j4xl4_7kw94k978ww0000gn/T//ccZBZI6H.s:3608   .text.lv_btnmatrix_event:0000000000000000 $t
/var/folders/0z/tsy30v1j4xl4_7kw94k978ww0000gn/T//ccZBZI6H.s:3613   .text.lv_btnmatrix_event:0000000000000000 lv_btnmatrix_event
/var/folders/0z/tsy30v1j4xl4_7kw94k978ww0000gn/T//ccZBZI6H.s:3697   .text.lv_btnmatrix_event:000000000000003c $d
/var/folders/0z/tsy30v1j4xl4_7kw94k978ww0000gn/T//ccZBZI6H.s:3739   .text.lv_btnmatrix_event:00000000000000e0 $t
/var/folders/0z/tsy30v1j4xl4_7kw94k978ww0000gn/T//ccZBZI6H.s:4199   .text.lv_btnmatrix_event:0000000000000318 $d
/var/folders/0z/tsy30v1j4xl4_7kw94k978ww0000gn/T//ccZBZI6H.s:4206   .text.lv_btnmatrix_event:000000000000031c $t
/var/folders/0z/tsy30v1j4xl4_7kw94k978ww0000gn/T//ccZBZI6H.s:5081   .text.lv_btnmatrix_set_one_checked:0000000000000000 $t
/var/folders/0z/tsy30v1j4xl4_7kw94k978ww0000gn/T//ccZBZI6H.s:5087   .text.lv_btnmatrix_set_one_checked:0000000000000000 lv_btnmatrix_set_one_checked
/var/folders/0z/tsy30v1j4xl4_7kw94k978ww0000gn/T//ccZBZI6H.s:5122   .text.lv_btnmatrix_get_one_checked:0000000000000000 $t
/var/folders/0z/tsy30v1j4xl4_7kw94k978ww0000gn/T//ccZBZI6H.s:5128   .text.lv_btnmatrix_get_one_checked:0000000000000000 lv_btnmatrix_get_one_checked
/var/folders/0z/tsy30v1j4xl4_7kw94k978ww0000gn/T//ccZBZI6H.s:5189   .rodata.lv_btnmatrix_class:0000000000000000 lv_btnmatrix_class
/var/folders/0z/tsy30v1j4xl4_7kw94k978ww0000gn/T//ccZBZI6H.s:5153   .rodata.str1.4:0000000000000000 $d
/var/folders/0z/tsy30v1j4xl4_7kw94k978ww0000gn/T//ccZBZI6H.s:5172   .data.lv_btnmatrix_def_map:0000000000000000 $d
/var/folders/0z/tsy30v1j4xl4_7kw94k978ww0000gn/T//ccZBZI6H.s:5176   .data.lv_btnmatrix_def_map:0000000000000000 lv_btnmatrix_def_map
/var/folders/0z/tsy30v1j4xl4_7kw94k978ww0000gn/T//ccZBZI6H.s:5185   .rodata.lv_btnmatrix_class:0000000000000000 $d

UNDEFINED SYMBOLS
strcmp
lv_obj_get_coords
lv_obj_get_width
lv_obj_get_height
lv_obj_get_style_prop
_lv_area_is_point_on
lv_obj_get_disp
lv_disp_get_dpi
lv_obj_invalidate_area
lv_event_get_target
lv_event_get_draw_ctx
lv_draw_rect_dsc_init
lv_draw_label_dsc_init
lv_obj_init_draw_rect_dsc
lv_obj_init_draw_label_dsc
lv_obj_draw_dsc_init
lv_memcpy
lv_event_send
lv_draw_rect
lv_txt_get_size
lv_draw_label
lv_mem_free
lv_mem_alloc
ARM GAS  /var/folders/0z/tsy30v1j4xl4_7kw94k978ww0000gn/T//ccZBZI6H.s 			page 153


lv_memset_00
lv_obj_class_create_obj
lv_obj_class_init_obj
lv_obj_get_content_width
lv_obj_get_content_height
lv_area_set
lv_obj_refresh_ext_draw_size
lv_obj_invalidate
lv_obj_has_flag
lv_obj_clear_flag
lv_obj_add_flag
lv_obj_event_base
lv_event_get_code
lv_event_set_ext_draw_size
lv_event_get_param
lv_indev_get_act
lv_indev_get_type
lv_indev_get_point
lv_indev_reset_long_press
lv_obj_get_group
lv_group_get_editing
lv_indev_get_next
lv_obj_class
