ARM GAS  /var/folders/0z/tsy30v1j4xl4_7kw94k978ww0000gn/T//ccZBZI6H.s 			page 1


   1              		.cpu cortex-m4
   2              		.arch armv7e-m
   3              		.fpu fpv4-sp-d16
   4              		.eabi_attribute 27, 1
   5              		.eabi_attribute 28, 1
   6              		.eabi_attribute 20, 1
   7              		.eabi_attribute 21, 1
   8              		.eabi_attribute 23, 3
   9              		.eabi_attribute 24, 1
  10              		.eabi_attribute 25, 1
  11              		.eabi_attribute 26, 1
  12              		.eabi_attribute 30, 1
  13              		.eabi_attribute 34, 1
  14              		.eabi_attribute 18, 4
  15              		.file	"lv_btnmatrix.c"
  16              		.text
  17              	.Ltext0:
  18              		.cfi_sections	.debug_frame
  19              		.section	.text.get_button_width,"ax",%progbits
  20              		.align	1
  21              		.syntax unified
  22              		.thumb
  23              		.thumb_func
  25              	get_button_width:
  26              	.LVL0:
  27              	.LFB181:
  28              		.file 1 "Drivers/lvgl/src/widgets/lv_btnmatrix.c"
   1:Drivers/lvgl/src/widgets/lv_btnmatrix.c **** /**
   2:Drivers/lvgl/src/widgets/lv_btnmatrix.c ****  * @file lv_btnmatrix.c
   3:Drivers/lvgl/src/widgets/lv_btnmatrix.c ****  *
   4:Drivers/lvgl/src/widgets/lv_btnmatrix.c ****  */
   5:Drivers/lvgl/src/widgets/lv_btnmatrix.c **** 
   6:Drivers/lvgl/src/widgets/lv_btnmatrix.c **** /*********************
   7:Drivers/lvgl/src/widgets/lv_btnmatrix.c ****  *      INCLUDES
   8:Drivers/lvgl/src/widgets/lv_btnmatrix.c ****  *********************/
   9:Drivers/lvgl/src/widgets/lv_btnmatrix.c **** #include "lv_btnmatrix.h"
  10:Drivers/lvgl/src/widgets/lv_btnmatrix.c **** #if LV_USE_BTNMATRIX != 0
  11:Drivers/lvgl/src/widgets/lv_btnmatrix.c **** 
  12:Drivers/lvgl/src/widgets/lv_btnmatrix.c **** #include "../misc/lv_assert.h"
  13:Drivers/lvgl/src/widgets/lv_btnmatrix.c **** #include "../core/lv_indev.h"
  14:Drivers/lvgl/src/widgets/lv_btnmatrix.c **** #include "../core/lv_group.h"
  15:Drivers/lvgl/src/widgets/lv_btnmatrix.c **** #include "../draw/lv_draw.h"
  16:Drivers/lvgl/src/widgets/lv_btnmatrix.c **** #include "../core/lv_refr.h"
  17:Drivers/lvgl/src/widgets/lv_btnmatrix.c **** #include "../misc/lv_txt.h"
  18:Drivers/lvgl/src/widgets/lv_btnmatrix.c **** #include "../misc/lv_txt_ap.h"
  19:Drivers/lvgl/src/widgets/lv_btnmatrix.c **** 
  20:Drivers/lvgl/src/widgets/lv_btnmatrix.c **** /*********************
  21:Drivers/lvgl/src/widgets/lv_btnmatrix.c ****  *      DEFINES
  22:Drivers/lvgl/src/widgets/lv_btnmatrix.c ****  *********************/
  23:Drivers/lvgl/src/widgets/lv_btnmatrix.c **** #define MY_CLASS &lv_btnmatrix_class
  24:Drivers/lvgl/src/widgets/lv_btnmatrix.c **** 
  25:Drivers/lvgl/src/widgets/lv_btnmatrix.c **** #define BTN_EXTRA_CLICK_AREA_MAX (LV_DPI_DEF / 10)
  26:Drivers/lvgl/src/widgets/lv_btnmatrix.c **** #define LV_BTNMATRIX_WIDTH_MASK 0x000F
  27:Drivers/lvgl/src/widgets/lv_btnmatrix.c **** 
  28:Drivers/lvgl/src/widgets/lv_btnmatrix.c **** /**********************
  29:Drivers/lvgl/src/widgets/lv_btnmatrix.c ****  *      TYPEDEFS
  30:Drivers/lvgl/src/widgets/lv_btnmatrix.c ****  **********************/
ARM GAS  /var/folders/0z/tsy30v1j4xl4_7kw94k978ww0000gn/T//ccZBZI6H.s 			page 2


  31:Drivers/lvgl/src/widgets/lv_btnmatrix.c **** 
  32:Drivers/lvgl/src/widgets/lv_btnmatrix.c **** /**********************
  33:Drivers/lvgl/src/widgets/lv_btnmatrix.c ****  *  STATIC PROTOTYPES
  34:Drivers/lvgl/src/widgets/lv_btnmatrix.c ****  **********************/
  35:Drivers/lvgl/src/widgets/lv_btnmatrix.c **** static void lv_btnmatrix_constructor(const lv_obj_class_t * class_p, lv_obj_t * obj);
  36:Drivers/lvgl/src/widgets/lv_btnmatrix.c **** static void lv_btnmatrix_destructor(const lv_obj_class_t * class_p, lv_obj_t * obj);
  37:Drivers/lvgl/src/widgets/lv_btnmatrix.c **** static void lv_btnmatrix_event(const lv_obj_class_t * class_p, lv_event_t * e);
  38:Drivers/lvgl/src/widgets/lv_btnmatrix.c **** static void draw_main(lv_event_t * e);
  39:Drivers/lvgl/src/widgets/lv_btnmatrix.c **** 
  40:Drivers/lvgl/src/widgets/lv_btnmatrix.c **** static uint8_t get_button_width(lv_btnmatrix_ctrl_t ctrl_bits);
  41:Drivers/lvgl/src/widgets/lv_btnmatrix.c **** static bool button_is_hidden(lv_btnmatrix_ctrl_t ctrl_bits);
  42:Drivers/lvgl/src/widgets/lv_btnmatrix.c **** static bool button_is_checked(lv_btnmatrix_ctrl_t ctrl_bits);
  43:Drivers/lvgl/src/widgets/lv_btnmatrix.c **** static bool button_is_repeat_disabled(lv_btnmatrix_ctrl_t ctrl_bits);
  44:Drivers/lvgl/src/widgets/lv_btnmatrix.c **** static bool button_is_inactive(lv_btnmatrix_ctrl_t ctrl_bits);
  45:Drivers/lvgl/src/widgets/lv_btnmatrix.c **** static bool button_is_click_trig(lv_btnmatrix_ctrl_t ctrl_bits);
  46:Drivers/lvgl/src/widgets/lv_btnmatrix.c **** static bool button_is_popover(lv_btnmatrix_ctrl_t ctrl_bits);
  47:Drivers/lvgl/src/widgets/lv_btnmatrix.c **** static bool button_is_checkable(lv_btnmatrix_ctrl_t ctrl_bits);
  48:Drivers/lvgl/src/widgets/lv_btnmatrix.c **** static bool button_is_recolor(lv_btnmatrix_ctrl_t ctrl_bits);
  49:Drivers/lvgl/src/widgets/lv_btnmatrix.c **** static bool button_get_checked(lv_btnmatrix_ctrl_t ctrl_bits);
  50:Drivers/lvgl/src/widgets/lv_btnmatrix.c **** static uint16_t get_button_from_point(lv_obj_t * obj, lv_point_t * p);
  51:Drivers/lvgl/src/widgets/lv_btnmatrix.c **** static void allocate_btn_areas_and_controls(const lv_obj_t * obj, const char ** map);
  52:Drivers/lvgl/src/widgets/lv_btnmatrix.c **** static void invalidate_button_area(const lv_obj_t * obj, uint16_t btn_idx);
  53:Drivers/lvgl/src/widgets/lv_btnmatrix.c **** static void make_one_button_checked(lv_obj_t * obj, uint16_t btn_idx);
  54:Drivers/lvgl/src/widgets/lv_btnmatrix.c **** static bool has_popovers_in_top_row(lv_obj_t * obj);
  55:Drivers/lvgl/src/widgets/lv_btnmatrix.c **** 
  56:Drivers/lvgl/src/widgets/lv_btnmatrix.c **** /**********************
  57:Drivers/lvgl/src/widgets/lv_btnmatrix.c ****  *  STATIC VARIABLES
  58:Drivers/lvgl/src/widgets/lv_btnmatrix.c ****  **********************/
  59:Drivers/lvgl/src/widgets/lv_btnmatrix.c **** static const char * lv_btnmatrix_def_map[] = {"Btn1", "Btn2", "Btn3", "\n", "Btn4", "Btn5", ""};
  60:Drivers/lvgl/src/widgets/lv_btnmatrix.c **** 
  61:Drivers/lvgl/src/widgets/lv_btnmatrix.c **** const lv_obj_class_t lv_btnmatrix_class = {
  62:Drivers/lvgl/src/widgets/lv_btnmatrix.c ****     .constructor_cb = lv_btnmatrix_constructor,
  63:Drivers/lvgl/src/widgets/lv_btnmatrix.c ****     .destructor_cb = lv_btnmatrix_destructor,
  64:Drivers/lvgl/src/widgets/lv_btnmatrix.c ****     .event_cb = lv_btnmatrix_event,
  65:Drivers/lvgl/src/widgets/lv_btnmatrix.c ****     .width_def = LV_DPI_DEF * 2,
  66:Drivers/lvgl/src/widgets/lv_btnmatrix.c ****     .height_def = LV_DPI_DEF,
  67:Drivers/lvgl/src/widgets/lv_btnmatrix.c ****     .instance_size = sizeof(lv_btnmatrix_t),
  68:Drivers/lvgl/src/widgets/lv_btnmatrix.c ****     .editable = LV_OBJ_CLASS_EDITABLE_TRUE,
  69:Drivers/lvgl/src/widgets/lv_btnmatrix.c ****     .group_def = LV_OBJ_CLASS_GROUP_DEF_TRUE,
  70:Drivers/lvgl/src/widgets/lv_btnmatrix.c ****     .base_class = &lv_obj_class
  71:Drivers/lvgl/src/widgets/lv_btnmatrix.c **** };
  72:Drivers/lvgl/src/widgets/lv_btnmatrix.c **** 
  73:Drivers/lvgl/src/widgets/lv_btnmatrix.c **** /**********************
  74:Drivers/lvgl/src/widgets/lv_btnmatrix.c ****  *      MACROS
  75:Drivers/lvgl/src/widgets/lv_btnmatrix.c ****  **********************/
  76:Drivers/lvgl/src/widgets/lv_btnmatrix.c **** 
  77:Drivers/lvgl/src/widgets/lv_btnmatrix.c **** /**********************
  78:Drivers/lvgl/src/widgets/lv_btnmatrix.c ****  *   GLOBAL FUNCTIONS
  79:Drivers/lvgl/src/widgets/lv_btnmatrix.c ****  **********************/
  80:Drivers/lvgl/src/widgets/lv_btnmatrix.c **** 
  81:Drivers/lvgl/src/widgets/lv_btnmatrix.c **** lv_obj_t * lv_btnmatrix_create(lv_obj_t * parent)
  82:Drivers/lvgl/src/widgets/lv_btnmatrix.c **** {
  83:Drivers/lvgl/src/widgets/lv_btnmatrix.c ****     LV_LOG_INFO("begin");
  84:Drivers/lvgl/src/widgets/lv_btnmatrix.c ****     lv_obj_t * obj = lv_obj_class_create_obj(MY_CLASS, parent);
  85:Drivers/lvgl/src/widgets/lv_btnmatrix.c ****     lv_obj_class_init_obj(obj);
  86:Drivers/lvgl/src/widgets/lv_btnmatrix.c ****     return obj;
  87:Drivers/lvgl/src/widgets/lv_btnmatrix.c **** }
ARM GAS  /var/folders/0z/tsy30v1j4xl4_7kw94k978ww0000gn/T//ccZBZI6H.s 			page 3


  88:Drivers/lvgl/src/widgets/lv_btnmatrix.c **** 
  89:Drivers/lvgl/src/widgets/lv_btnmatrix.c **** /*=====================
  90:Drivers/lvgl/src/widgets/lv_btnmatrix.c ****  * Setter functions
  91:Drivers/lvgl/src/widgets/lv_btnmatrix.c ****  *====================*/
  92:Drivers/lvgl/src/widgets/lv_btnmatrix.c **** 
  93:Drivers/lvgl/src/widgets/lv_btnmatrix.c **** void lv_btnmatrix_set_map(lv_obj_t * obj, const char * map[])
  94:Drivers/lvgl/src/widgets/lv_btnmatrix.c **** {
  95:Drivers/lvgl/src/widgets/lv_btnmatrix.c ****     LV_ASSERT_OBJ(obj, MY_CLASS);
  96:Drivers/lvgl/src/widgets/lv_btnmatrix.c ****     if(map == NULL) return;
  97:Drivers/lvgl/src/widgets/lv_btnmatrix.c **** 
  98:Drivers/lvgl/src/widgets/lv_btnmatrix.c ****     lv_btnmatrix_t * btnm = (lv_btnmatrix_t *)obj;
  99:Drivers/lvgl/src/widgets/lv_btnmatrix.c **** 
 100:Drivers/lvgl/src/widgets/lv_btnmatrix.c ****     /*Analyze the map and create the required number of buttons*/
 101:Drivers/lvgl/src/widgets/lv_btnmatrix.c ****     allocate_btn_areas_and_controls(obj, map);
 102:Drivers/lvgl/src/widgets/lv_btnmatrix.c ****     btnm->map_p = map;
 103:Drivers/lvgl/src/widgets/lv_btnmatrix.c **** 
 104:Drivers/lvgl/src/widgets/lv_btnmatrix.c ****     lv_base_dir_t base_dir = lv_obj_get_style_base_dir(obj, LV_PART_MAIN);
 105:Drivers/lvgl/src/widgets/lv_btnmatrix.c **** 
 106:Drivers/lvgl/src/widgets/lv_btnmatrix.c ****     /*Set size and positions of the buttons*/
 107:Drivers/lvgl/src/widgets/lv_btnmatrix.c ****     lv_coord_t pleft = lv_obj_get_style_pad_left(obj, LV_PART_MAIN);
 108:Drivers/lvgl/src/widgets/lv_btnmatrix.c ****     lv_coord_t ptop = lv_obj_get_style_pad_top(obj, LV_PART_MAIN);
 109:Drivers/lvgl/src/widgets/lv_btnmatrix.c ****     lv_coord_t prow = lv_obj_get_style_pad_row(obj, LV_PART_MAIN);
 110:Drivers/lvgl/src/widgets/lv_btnmatrix.c ****     lv_coord_t pcol = lv_obj_get_style_pad_column(obj, LV_PART_MAIN);
 111:Drivers/lvgl/src/widgets/lv_btnmatrix.c **** 
 112:Drivers/lvgl/src/widgets/lv_btnmatrix.c ****     lv_coord_t max_w            = lv_obj_get_content_width(obj);
 113:Drivers/lvgl/src/widgets/lv_btnmatrix.c ****     lv_coord_t max_h            = lv_obj_get_content_height(obj);
 114:Drivers/lvgl/src/widgets/lv_btnmatrix.c **** 
 115:Drivers/lvgl/src/widgets/lv_btnmatrix.c ****     /*Calculate the position of each row*/
 116:Drivers/lvgl/src/widgets/lv_btnmatrix.c ****     lv_coord_t max_h_no_gap = max_h - (prow * (btnm->row_cnt - 1));
 117:Drivers/lvgl/src/widgets/lv_btnmatrix.c **** 
 118:Drivers/lvgl/src/widgets/lv_btnmatrix.c ****     /*Count the units and the buttons in a line
 119:Drivers/lvgl/src/widgets/lv_btnmatrix.c ****      *(A button can be 1,2,3... unit wide)*/
 120:Drivers/lvgl/src/widgets/lv_btnmatrix.c ****     uint32_t txt_tot_i = 0; /*Act. index in the str map*/
 121:Drivers/lvgl/src/widgets/lv_btnmatrix.c ****     uint32_t btn_tot_i = 0; /*Act. index of button areas*/
 122:Drivers/lvgl/src/widgets/lv_btnmatrix.c ****     const char ** map_row = map;
 123:Drivers/lvgl/src/widgets/lv_btnmatrix.c **** 
 124:Drivers/lvgl/src/widgets/lv_btnmatrix.c ****     /*Count the units and the buttons in a line*/
 125:Drivers/lvgl/src/widgets/lv_btnmatrix.c ****     uint32_t row;
 126:Drivers/lvgl/src/widgets/lv_btnmatrix.c ****     for(row = 0; row < btnm->row_cnt; row++) {
 127:Drivers/lvgl/src/widgets/lv_btnmatrix.c ****         uint16_t unit_cnt = 0;           /*Number of units in a row*/
 128:Drivers/lvgl/src/widgets/lv_btnmatrix.c ****         uint16_t btn_cnt = 0;            /*Number of buttons in a row*/
 129:Drivers/lvgl/src/widgets/lv_btnmatrix.c ****         /*Count the buttons and units in this row*/
 130:Drivers/lvgl/src/widgets/lv_btnmatrix.c ****         while(map_row[btn_cnt] && strcmp(map_row[btn_cnt], "\n") != 0 && map_row[btn_cnt][0] != '\0
 131:Drivers/lvgl/src/widgets/lv_btnmatrix.c ****             unit_cnt += get_button_width(btnm->ctrl_bits[btn_tot_i + btn_cnt]);
 132:Drivers/lvgl/src/widgets/lv_btnmatrix.c ****             btn_cnt++;
 133:Drivers/lvgl/src/widgets/lv_btnmatrix.c ****         }
 134:Drivers/lvgl/src/widgets/lv_btnmatrix.c **** 
 135:Drivers/lvgl/src/widgets/lv_btnmatrix.c ****         /*Only deal with the non empty lines*/
 136:Drivers/lvgl/src/widgets/lv_btnmatrix.c ****         if(btn_cnt == 0) {
 137:Drivers/lvgl/src/widgets/lv_btnmatrix.c ****             map_row = &map_row[btn_cnt + 1];       /*Set the map to the next row*/
 138:Drivers/lvgl/src/widgets/lv_btnmatrix.c ****             continue;
 139:Drivers/lvgl/src/widgets/lv_btnmatrix.c ****         }
 140:Drivers/lvgl/src/widgets/lv_btnmatrix.c **** 
 141:Drivers/lvgl/src/widgets/lv_btnmatrix.c ****         lv_coord_t row_y1 = ptop + (max_h_no_gap * row) / btnm->row_cnt + row * prow;
 142:Drivers/lvgl/src/widgets/lv_btnmatrix.c ****         lv_coord_t row_y2 = ptop + (max_h_no_gap * (row + 1)) / btnm->row_cnt + row * prow - 1;
 143:Drivers/lvgl/src/widgets/lv_btnmatrix.c **** 
 144:Drivers/lvgl/src/widgets/lv_btnmatrix.c ****         /*Set the button size and positions*/
ARM GAS  /var/folders/0z/tsy30v1j4xl4_7kw94k978ww0000gn/T//ccZBZI6H.s 			page 4


 145:Drivers/lvgl/src/widgets/lv_btnmatrix.c ****         lv_coord_t max_w_no_gap = max_w - (pcol * (btn_cnt - 1));
 146:Drivers/lvgl/src/widgets/lv_btnmatrix.c ****         if(max_w_no_gap < 0) max_w_no_gap = 0;
 147:Drivers/lvgl/src/widgets/lv_btnmatrix.c **** 
 148:Drivers/lvgl/src/widgets/lv_btnmatrix.c ****         uint32_t row_unit_cnt = 0;  /*The current unit position in the row*/
 149:Drivers/lvgl/src/widgets/lv_btnmatrix.c ****         uint32_t btn;
 150:Drivers/lvgl/src/widgets/lv_btnmatrix.c ****         for(btn = 0; btn < btn_cnt; btn++, btn_tot_i++, txt_tot_i++) {
 151:Drivers/lvgl/src/widgets/lv_btnmatrix.c ****             uint32_t btn_u = get_button_width(btnm->ctrl_bits[btn_tot_i]);
 152:Drivers/lvgl/src/widgets/lv_btnmatrix.c **** 
 153:Drivers/lvgl/src/widgets/lv_btnmatrix.c ****             lv_coord_t btn_x1 = (max_w_no_gap * row_unit_cnt) / unit_cnt + btn * pcol;
 154:Drivers/lvgl/src/widgets/lv_btnmatrix.c ****             lv_coord_t btn_x2 = (max_w_no_gap * (row_unit_cnt + btn_u)) / unit_cnt + btn * pcol - 1
 155:Drivers/lvgl/src/widgets/lv_btnmatrix.c **** 
 156:Drivers/lvgl/src/widgets/lv_btnmatrix.c ****             /*If RTL start from the right*/
 157:Drivers/lvgl/src/widgets/lv_btnmatrix.c ****             if(base_dir == LV_BASE_DIR_RTL) {
 158:Drivers/lvgl/src/widgets/lv_btnmatrix.c ****                 lv_coord_t tmp = btn_x1;
 159:Drivers/lvgl/src/widgets/lv_btnmatrix.c ****                 btn_x1 = btn_x2;
 160:Drivers/lvgl/src/widgets/lv_btnmatrix.c ****                 btn_x2 = tmp;
 161:Drivers/lvgl/src/widgets/lv_btnmatrix.c **** 
 162:Drivers/lvgl/src/widgets/lv_btnmatrix.c ****                 btn_x1 = max_w - btn_x1;
 163:Drivers/lvgl/src/widgets/lv_btnmatrix.c ****                 btn_x2 = max_w - btn_x2;
 164:Drivers/lvgl/src/widgets/lv_btnmatrix.c ****             }
 165:Drivers/lvgl/src/widgets/lv_btnmatrix.c **** 
 166:Drivers/lvgl/src/widgets/lv_btnmatrix.c ****             btn_x1 += pleft;
 167:Drivers/lvgl/src/widgets/lv_btnmatrix.c ****             btn_x2 += pleft;
 168:Drivers/lvgl/src/widgets/lv_btnmatrix.c **** 
 169:Drivers/lvgl/src/widgets/lv_btnmatrix.c ****             lv_area_set(&btnm->button_areas[btn_tot_i], btn_x1, row_y1, btn_x2, row_y2);
 170:Drivers/lvgl/src/widgets/lv_btnmatrix.c **** 
 171:Drivers/lvgl/src/widgets/lv_btnmatrix.c ****             row_unit_cnt += btn_u;
 172:Drivers/lvgl/src/widgets/lv_btnmatrix.c ****         }
 173:Drivers/lvgl/src/widgets/lv_btnmatrix.c **** 
 174:Drivers/lvgl/src/widgets/lv_btnmatrix.c ****         map_row = &map_row[btn_cnt + 1];       /*Set the map to the next line*/
 175:Drivers/lvgl/src/widgets/lv_btnmatrix.c ****     }
 176:Drivers/lvgl/src/widgets/lv_btnmatrix.c **** 
 177:Drivers/lvgl/src/widgets/lv_btnmatrix.c ****     /*Popovers in the top row will draw outside the widget and the extended draw size depends on
 178:Drivers/lvgl/src/widgets/lv_btnmatrix.c ****      *the row height which may have changed when setting the new map*/
 179:Drivers/lvgl/src/widgets/lv_btnmatrix.c ****     lv_obj_refresh_ext_draw_size(obj);
 180:Drivers/lvgl/src/widgets/lv_btnmatrix.c **** 
 181:Drivers/lvgl/src/widgets/lv_btnmatrix.c ****     lv_obj_invalidate(obj);
 182:Drivers/lvgl/src/widgets/lv_btnmatrix.c **** }
 183:Drivers/lvgl/src/widgets/lv_btnmatrix.c **** 
 184:Drivers/lvgl/src/widgets/lv_btnmatrix.c **** void lv_btnmatrix_set_ctrl_map(lv_obj_t * obj, const lv_btnmatrix_ctrl_t ctrl_map[])
 185:Drivers/lvgl/src/widgets/lv_btnmatrix.c **** {
 186:Drivers/lvgl/src/widgets/lv_btnmatrix.c ****     LV_ASSERT_OBJ(obj, MY_CLASS);
 187:Drivers/lvgl/src/widgets/lv_btnmatrix.c **** 
 188:Drivers/lvgl/src/widgets/lv_btnmatrix.c ****     lv_btnmatrix_t * btnm = (lv_btnmatrix_t *)obj;
 189:Drivers/lvgl/src/widgets/lv_btnmatrix.c ****     lv_memcpy(btnm->ctrl_bits, ctrl_map, sizeof(lv_btnmatrix_ctrl_t) * btnm->btn_cnt);
 190:Drivers/lvgl/src/widgets/lv_btnmatrix.c **** 
 191:Drivers/lvgl/src/widgets/lv_btnmatrix.c ****     lv_btnmatrix_set_map(obj, btnm->map_p);
 192:Drivers/lvgl/src/widgets/lv_btnmatrix.c **** }
 193:Drivers/lvgl/src/widgets/lv_btnmatrix.c **** 
 194:Drivers/lvgl/src/widgets/lv_btnmatrix.c **** void lv_btnmatrix_set_selected_btn(lv_obj_t * obj, uint16_t btn_id)
 195:Drivers/lvgl/src/widgets/lv_btnmatrix.c **** {
 196:Drivers/lvgl/src/widgets/lv_btnmatrix.c ****     LV_ASSERT_OBJ(obj, MY_CLASS);
 197:Drivers/lvgl/src/widgets/lv_btnmatrix.c **** 
 198:Drivers/lvgl/src/widgets/lv_btnmatrix.c ****     lv_btnmatrix_t * btnm = (lv_btnmatrix_t *)obj;
 199:Drivers/lvgl/src/widgets/lv_btnmatrix.c **** 
 200:Drivers/lvgl/src/widgets/lv_btnmatrix.c ****     if(btn_id >= btnm->btn_cnt && btn_id != LV_BTNMATRIX_BTN_NONE) return;
 201:Drivers/lvgl/src/widgets/lv_btnmatrix.c **** 
ARM GAS  /var/folders/0z/tsy30v1j4xl4_7kw94k978ww0000gn/T//ccZBZI6H.s 			page 5


 202:Drivers/lvgl/src/widgets/lv_btnmatrix.c ****     invalidate_button_area(obj, btnm->btn_id_sel);
 203:Drivers/lvgl/src/widgets/lv_btnmatrix.c ****     btnm->btn_id_sel = btn_id;
 204:Drivers/lvgl/src/widgets/lv_btnmatrix.c ****     invalidate_button_area(obj, btn_id);
 205:Drivers/lvgl/src/widgets/lv_btnmatrix.c **** }
 206:Drivers/lvgl/src/widgets/lv_btnmatrix.c **** 
 207:Drivers/lvgl/src/widgets/lv_btnmatrix.c **** void lv_btnmatrix_set_btn_ctrl(lv_obj_t * obj, uint16_t btn_id, lv_btnmatrix_ctrl_t ctrl)
 208:Drivers/lvgl/src/widgets/lv_btnmatrix.c **** {
 209:Drivers/lvgl/src/widgets/lv_btnmatrix.c ****     LV_ASSERT_OBJ(obj, MY_CLASS);
 210:Drivers/lvgl/src/widgets/lv_btnmatrix.c **** 
 211:Drivers/lvgl/src/widgets/lv_btnmatrix.c ****     lv_btnmatrix_t * btnm = (lv_btnmatrix_t *)obj;
 212:Drivers/lvgl/src/widgets/lv_btnmatrix.c **** 
 213:Drivers/lvgl/src/widgets/lv_btnmatrix.c ****     if(btn_id >= btnm->btn_cnt) return;
 214:Drivers/lvgl/src/widgets/lv_btnmatrix.c **** 
 215:Drivers/lvgl/src/widgets/lv_btnmatrix.c ****     if(btnm->one_check && (ctrl & LV_BTNMATRIX_CTRL_CHECKED)) {
 216:Drivers/lvgl/src/widgets/lv_btnmatrix.c ****         lv_btnmatrix_clear_btn_ctrl_all(obj, LV_BTNMATRIX_CTRL_CHECKED);
 217:Drivers/lvgl/src/widgets/lv_btnmatrix.c ****     }
 218:Drivers/lvgl/src/widgets/lv_btnmatrix.c **** 
 219:Drivers/lvgl/src/widgets/lv_btnmatrix.c ****     /* If we hide a button if all buttons are now hidden hide the whole button matrix to make focus
 220:Drivers/lvgl/src/widgets/lv_btnmatrix.c ****     if(ctrl & LV_BTNMATRIX_CTRL_HIDDEN) {
 221:Drivers/lvgl/src/widgets/lv_btnmatrix.c ****         bool all_buttons_hidden = true;
 222:Drivers/lvgl/src/widgets/lv_btnmatrix.c ****         if(btnm->btn_cnt > 1) {
 223:Drivers/lvgl/src/widgets/lv_btnmatrix.c ****             for(uint16_t btn_idx = 0; btn_idx < btnm->btn_cnt; btn_idx++) {
 224:Drivers/lvgl/src/widgets/lv_btnmatrix.c ****                 if(btn_idx == btn_id) continue;
 225:Drivers/lvgl/src/widgets/lv_btnmatrix.c ****                 if(!(btnm->ctrl_bits[btn_idx] & LV_BTNMATRIX_CTRL_HIDDEN)) all_buttons_hidden = fal
 226:Drivers/lvgl/src/widgets/lv_btnmatrix.c ****             }
 227:Drivers/lvgl/src/widgets/lv_btnmatrix.c **** 
 228:Drivers/lvgl/src/widgets/lv_btnmatrix.c ****         }
 229:Drivers/lvgl/src/widgets/lv_btnmatrix.c ****         if(all_buttons_hidden) lv_obj_add_flag(obj, LV_OBJ_FLAG_HIDDEN);
 230:Drivers/lvgl/src/widgets/lv_btnmatrix.c ****     }
 231:Drivers/lvgl/src/widgets/lv_btnmatrix.c **** 
 232:Drivers/lvgl/src/widgets/lv_btnmatrix.c ****     btnm->ctrl_bits[btn_id] |= ctrl;
 233:Drivers/lvgl/src/widgets/lv_btnmatrix.c ****     invalidate_button_area(obj, btn_id);
 234:Drivers/lvgl/src/widgets/lv_btnmatrix.c **** 
 235:Drivers/lvgl/src/widgets/lv_btnmatrix.c ****     if(ctrl & LV_BTNMATRIX_CTRL_POPOVER) {
 236:Drivers/lvgl/src/widgets/lv_btnmatrix.c ****         lv_obj_refresh_ext_draw_size(obj);
 237:Drivers/lvgl/src/widgets/lv_btnmatrix.c ****     }
 238:Drivers/lvgl/src/widgets/lv_btnmatrix.c **** }
 239:Drivers/lvgl/src/widgets/lv_btnmatrix.c **** 
 240:Drivers/lvgl/src/widgets/lv_btnmatrix.c **** void lv_btnmatrix_clear_btn_ctrl(lv_obj_t * obj, uint16_t btn_id, lv_btnmatrix_ctrl_t ctrl)
 241:Drivers/lvgl/src/widgets/lv_btnmatrix.c **** {
 242:Drivers/lvgl/src/widgets/lv_btnmatrix.c ****     LV_ASSERT_OBJ(obj, MY_CLASS);
 243:Drivers/lvgl/src/widgets/lv_btnmatrix.c **** 
 244:Drivers/lvgl/src/widgets/lv_btnmatrix.c ****     lv_btnmatrix_t * btnm = (lv_btnmatrix_t *)obj;
 245:Drivers/lvgl/src/widgets/lv_btnmatrix.c **** 
 246:Drivers/lvgl/src/widgets/lv_btnmatrix.c ****     if(btn_id >= btnm->btn_cnt) return;
 247:Drivers/lvgl/src/widgets/lv_btnmatrix.c **** 
 248:Drivers/lvgl/src/widgets/lv_btnmatrix.c ****     /* If all buttons were hidden the whole button matrix is hidden so we need to check and remove 
 249:Drivers/lvgl/src/widgets/lv_btnmatrix.c ****     if(ctrl & LV_BTNMATRIX_CTRL_HIDDEN) {
 250:Drivers/lvgl/src/widgets/lv_btnmatrix.c ****         if(lv_obj_has_flag(obj, LV_OBJ_FLAG_HIDDEN)) lv_obj_clear_flag(obj, LV_OBJ_FLAG_HIDDEN);
 251:Drivers/lvgl/src/widgets/lv_btnmatrix.c ****     }
 252:Drivers/lvgl/src/widgets/lv_btnmatrix.c **** 
 253:Drivers/lvgl/src/widgets/lv_btnmatrix.c ****     btnm->ctrl_bits[btn_id] &= (~ctrl);
 254:Drivers/lvgl/src/widgets/lv_btnmatrix.c ****     invalidate_button_area(obj, btn_id);
 255:Drivers/lvgl/src/widgets/lv_btnmatrix.c **** 
 256:Drivers/lvgl/src/widgets/lv_btnmatrix.c ****     if(ctrl & LV_BTNMATRIX_CTRL_POPOVER) {
 257:Drivers/lvgl/src/widgets/lv_btnmatrix.c ****         lv_obj_refresh_ext_draw_size(obj);
 258:Drivers/lvgl/src/widgets/lv_btnmatrix.c ****     }
ARM GAS  /var/folders/0z/tsy30v1j4xl4_7kw94k978ww0000gn/T//ccZBZI6H.s 			page 6


 259:Drivers/lvgl/src/widgets/lv_btnmatrix.c **** }
 260:Drivers/lvgl/src/widgets/lv_btnmatrix.c **** 
 261:Drivers/lvgl/src/widgets/lv_btnmatrix.c **** void lv_btnmatrix_set_btn_ctrl_all(lv_obj_t * obj, lv_btnmatrix_ctrl_t ctrl)
 262:Drivers/lvgl/src/widgets/lv_btnmatrix.c **** {
 263:Drivers/lvgl/src/widgets/lv_btnmatrix.c ****     LV_ASSERT_OBJ(obj, MY_CLASS);
 264:Drivers/lvgl/src/widgets/lv_btnmatrix.c **** 
 265:Drivers/lvgl/src/widgets/lv_btnmatrix.c ****     lv_btnmatrix_t * btnm = (lv_btnmatrix_t *)obj;;
 266:Drivers/lvgl/src/widgets/lv_btnmatrix.c ****     uint16_t i;
 267:Drivers/lvgl/src/widgets/lv_btnmatrix.c ****     for(i = 0; i < btnm->btn_cnt; i++) {
 268:Drivers/lvgl/src/widgets/lv_btnmatrix.c ****         lv_btnmatrix_set_btn_ctrl(obj, i, ctrl);
 269:Drivers/lvgl/src/widgets/lv_btnmatrix.c ****     }
 270:Drivers/lvgl/src/widgets/lv_btnmatrix.c **** }
 271:Drivers/lvgl/src/widgets/lv_btnmatrix.c **** 
 272:Drivers/lvgl/src/widgets/lv_btnmatrix.c **** void lv_btnmatrix_clear_btn_ctrl_all(lv_obj_t * obj, lv_btnmatrix_ctrl_t ctrl)
 273:Drivers/lvgl/src/widgets/lv_btnmatrix.c **** {
 274:Drivers/lvgl/src/widgets/lv_btnmatrix.c ****     LV_ASSERT_OBJ(obj, MY_CLASS);
 275:Drivers/lvgl/src/widgets/lv_btnmatrix.c **** 
 276:Drivers/lvgl/src/widgets/lv_btnmatrix.c ****     lv_btnmatrix_t * btnm = (lv_btnmatrix_t *)obj;;
 277:Drivers/lvgl/src/widgets/lv_btnmatrix.c ****     uint16_t i;
 278:Drivers/lvgl/src/widgets/lv_btnmatrix.c ****     for(i = 0; i < btnm->btn_cnt; i++) {
 279:Drivers/lvgl/src/widgets/lv_btnmatrix.c ****         lv_btnmatrix_clear_btn_ctrl(obj, i, ctrl);
 280:Drivers/lvgl/src/widgets/lv_btnmatrix.c ****     }
 281:Drivers/lvgl/src/widgets/lv_btnmatrix.c **** }
 282:Drivers/lvgl/src/widgets/lv_btnmatrix.c **** 
 283:Drivers/lvgl/src/widgets/lv_btnmatrix.c **** void lv_btnmatrix_set_btn_width(lv_obj_t * obj, uint16_t btn_id, uint8_t width)
 284:Drivers/lvgl/src/widgets/lv_btnmatrix.c **** {
 285:Drivers/lvgl/src/widgets/lv_btnmatrix.c ****     LV_ASSERT_OBJ(obj, MY_CLASS);
 286:Drivers/lvgl/src/widgets/lv_btnmatrix.c **** 
 287:Drivers/lvgl/src/widgets/lv_btnmatrix.c ****     lv_btnmatrix_t * btnm = (lv_btnmatrix_t *)obj;;
 288:Drivers/lvgl/src/widgets/lv_btnmatrix.c ****     if(btn_id >= btnm->btn_cnt) return;
 289:Drivers/lvgl/src/widgets/lv_btnmatrix.c ****     btnm->ctrl_bits[btn_id] &= (~LV_BTNMATRIX_WIDTH_MASK);
 290:Drivers/lvgl/src/widgets/lv_btnmatrix.c ****     btnm->ctrl_bits[btn_id] |= (LV_BTNMATRIX_WIDTH_MASK & width);
 291:Drivers/lvgl/src/widgets/lv_btnmatrix.c **** 
 292:Drivers/lvgl/src/widgets/lv_btnmatrix.c ****     lv_btnmatrix_set_map(obj, btnm->map_p);
 293:Drivers/lvgl/src/widgets/lv_btnmatrix.c **** }
 294:Drivers/lvgl/src/widgets/lv_btnmatrix.c **** 
 295:Drivers/lvgl/src/widgets/lv_btnmatrix.c **** void lv_btnmatrix_set_one_checked(lv_obj_t * obj, bool en)
 296:Drivers/lvgl/src/widgets/lv_btnmatrix.c **** {
 297:Drivers/lvgl/src/widgets/lv_btnmatrix.c ****     LV_ASSERT_OBJ(obj, MY_CLASS);
 298:Drivers/lvgl/src/widgets/lv_btnmatrix.c **** 
 299:Drivers/lvgl/src/widgets/lv_btnmatrix.c ****     lv_btnmatrix_t * btnm = (lv_btnmatrix_t *)obj;;
 300:Drivers/lvgl/src/widgets/lv_btnmatrix.c ****     btnm->one_check     = en;
 301:Drivers/lvgl/src/widgets/lv_btnmatrix.c **** 
 302:Drivers/lvgl/src/widgets/lv_btnmatrix.c ****     /*If more than one button is toggled only the first one should be*/
 303:Drivers/lvgl/src/widgets/lv_btnmatrix.c ****     make_one_button_checked(obj, 0);
 304:Drivers/lvgl/src/widgets/lv_btnmatrix.c **** }
 305:Drivers/lvgl/src/widgets/lv_btnmatrix.c **** 
 306:Drivers/lvgl/src/widgets/lv_btnmatrix.c **** /*=====================
 307:Drivers/lvgl/src/widgets/lv_btnmatrix.c ****  * Getter functions
 308:Drivers/lvgl/src/widgets/lv_btnmatrix.c ****  *====================*/
 309:Drivers/lvgl/src/widgets/lv_btnmatrix.c **** 
 310:Drivers/lvgl/src/widgets/lv_btnmatrix.c **** const char ** lv_btnmatrix_get_map(const lv_obj_t * obj)
 311:Drivers/lvgl/src/widgets/lv_btnmatrix.c **** {
 312:Drivers/lvgl/src/widgets/lv_btnmatrix.c ****     LV_ASSERT_OBJ(obj, MY_CLASS);
 313:Drivers/lvgl/src/widgets/lv_btnmatrix.c **** 
 314:Drivers/lvgl/src/widgets/lv_btnmatrix.c ****     lv_btnmatrix_t * btnm = (lv_btnmatrix_t *)obj;;
 315:Drivers/lvgl/src/widgets/lv_btnmatrix.c ****     return btnm->map_p;
ARM GAS  /var/folders/0z/tsy30v1j4xl4_7kw94k978ww0000gn/T//ccZBZI6H.s 			page 7


 316:Drivers/lvgl/src/widgets/lv_btnmatrix.c **** }
 317:Drivers/lvgl/src/widgets/lv_btnmatrix.c **** 
 318:Drivers/lvgl/src/widgets/lv_btnmatrix.c **** uint16_t lv_btnmatrix_get_selected_btn(const lv_obj_t * obj)
 319:Drivers/lvgl/src/widgets/lv_btnmatrix.c **** {
 320:Drivers/lvgl/src/widgets/lv_btnmatrix.c ****     LV_ASSERT_OBJ(obj, MY_CLASS);
 321:Drivers/lvgl/src/widgets/lv_btnmatrix.c **** 
 322:Drivers/lvgl/src/widgets/lv_btnmatrix.c ****     lv_btnmatrix_t * btnm = (lv_btnmatrix_t *)obj;;
 323:Drivers/lvgl/src/widgets/lv_btnmatrix.c ****     return btnm->btn_id_sel;
 324:Drivers/lvgl/src/widgets/lv_btnmatrix.c **** }
 325:Drivers/lvgl/src/widgets/lv_btnmatrix.c **** 
 326:Drivers/lvgl/src/widgets/lv_btnmatrix.c **** const char * lv_btnmatrix_get_btn_text(const lv_obj_t * obj, uint16_t btn_id)
 327:Drivers/lvgl/src/widgets/lv_btnmatrix.c **** {
 328:Drivers/lvgl/src/widgets/lv_btnmatrix.c ****     LV_ASSERT_OBJ(obj, MY_CLASS);
 329:Drivers/lvgl/src/widgets/lv_btnmatrix.c **** 
 330:Drivers/lvgl/src/widgets/lv_btnmatrix.c ****     if(btn_id == LV_BTNMATRIX_BTN_NONE) return NULL;
 331:Drivers/lvgl/src/widgets/lv_btnmatrix.c **** 
 332:Drivers/lvgl/src/widgets/lv_btnmatrix.c ****     lv_btnmatrix_t * btnm = (lv_btnmatrix_t *)obj;
 333:Drivers/lvgl/src/widgets/lv_btnmatrix.c ****     if(btn_id > btnm->btn_cnt) return NULL;
 334:Drivers/lvgl/src/widgets/lv_btnmatrix.c **** 
 335:Drivers/lvgl/src/widgets/lv_btnmatrix.c ****     uint16_t txt_i = 0;
 336:Drivers/lvgl/src/widgets/lv_btnmatrix.c ****     uint16_t btn_i = 0;
 337:Drivers/lvgl/src/widgets/lv_btnmatrix.c **** 
 338:Drivers/lvgl/src/widgets/lv_btnmatrix.c ****     /*Search the text of btnm->btn_pr the buttons text in the map
 339:Drivers/lvgl/src/widgets/lv_btnmatrix.c ****      *Skip "\n"-s*/
 340:Drivers/lvgl/src/widgets/lv_btnmatrix.c ****     while(btn_i != btn_id) {
 341:Drivers/lvgl/src/widgets/lv_btnmatrix.c ****         btn_i++;
 342:Drivers/lvgl/src/widgets/lv_btnmatrix.c ****         txt_i++;
 343:Drivers/lvgl/src/widgets/lv_btnmatrix.c ****         if(strcmp(btnm->map_p[txt_i], "\n") == 0) txt_i++;
 344:Drivers/lvgl/src/widgets/lv_btnmatrix.c ****     }
 345:Drivers/lvgl/src/widgets/lv_btnmatrix.c **** 
 346:Drivers/lvgl/src/widgets/lv_btnmatrix.c ****     if(btn_i == btnm->btn_cnt) return NULL;
 347:Drivers/lvgl/src/widgets/lv_btnmatrix.c **** 
 348:Drivers/lvgl/src/widgets/lv_btnmatrix.c ****     return btnm->map_p[txt_i];
 349:Drivers/lvgl/src/widgets/lv_btnmatrix.c **** }
 350:Drivers/lvgl/src/widgets/lv_btnmatrix.c **** 
 351:Drivers/lvgl/src/widgets/lv_btnmatrix.c **** bool lv_btnmatrix_has_btn_ctrl(lv_obj_t * obj, uint16_t btn_id, lv_btnmatrix_ctrl_t ctrl)
 352:Drivers/lvgl/src/widgets/lv_btnmatrix.c **** {
 353:Drivers/lvgl/src/widgets/lv_btnmatrix.c ****     LV_ASSERT_OBJ(obj, MY_CLASS);
 354:Drivers/lvgl/src/widgets/lv_btnmatrix.c **** 
 355:Drivers/lvgl/src/widgets/lv_btnmatrix.c ****     lv_btnmatrix_t * btnm = (lv_btnmatrix_t *)obj;;
 356:Drivers/lvgl/src/widgets/lv_btnmatrix.c ****     if(btn_id >= btnm->btn_cnt) return false;
 357:Drivers/lvgl/src/widgets/lv_btnmatrix.c **** 
 358:Drivers/lvgl/src/widgets/lv_btnmatrix.c ****     return ((btnm->ctrl_bits[btn_id] & ctrl) == ctrl) ? true : false;
 359:Drivers/lvgl/src/widgets/lv_btnmatrix.c **** }
 360:Drivers/lvgl/src/widgets/lv_btnmatrix.c **** 
 361:Drivers/lvgl/src/widgets/lv_btnmatrix.c **** bool lv_btnmatrix_get_one_checked(const lv_obj_t * obj)
 362:Drivers/lvgl/src/widgets/lv_btnmatrix.c **** {
 363:Drivers/lvgl/src/widgets/lv_btnmatrix.c ****     LV_ASSERT_OBJ(obj, MY_CLASS);
 364:Drivers/lvgl/src/widgets/lv_btnmatrix.c **** 
 365:Drivers/lvgl/src/widgets/lv_btnmatrix.c ****     lv_btnmatrix_t * btnm = (lv_btnmatrix_t *)obj;;
 366:Drivers/lvgl/src/widgets/lv_btnmatrix.c **** 
 367:Drivers/lvgl/src/widgets/lv_btnmatrix.c ****     return btnm->one_check;
 368:Drivers/lvgl/src/widgets/lv_btnmatrix.c **** }
 369:Drivers/lvgl/src/widgets/lv_btnmatrix.c **** 
 370:Drivers/lvgl/src/widgets/lv_btnmatrix.c **** /**********************
 371:Drivers/lvgl/src/widgets/lv_btnmatrix.c ****  *   STATIC FUNCTIONS
 372:Drivers/lvgl/src/widgets/lv_btnmatrix.c ****  **********************/
ARM GAS  /var/folders/0z/tsy30v1j4xl4_7kw94k978ww0000gn/T//ccZBZI6H.s 			page 8


 373:Drivers/lvgl/src/widgets/lv_btnmatrix.c **** 
 374:Drivers/lvgl/src/widgets/lv_btnmatrix.c **** static void lv_btnmatrix_constructor(const lv_obj_class_t * class_p, lv_obj_t * obj)
 375:Drivers/lvgl/src/widgets/lv_btnmatrix.c **** {
 376:Drivers/lvgl/src/widgets/lv_btnmatrix.c ****     LV_UNUSED(class_p);
 377:Drivers/lvgl/src/widgets/lv_btnmatrix.c ****     LV_TRACE_OBJ_CREATE("begin");
 378:Drivers/lvgl/src/widgets/lv_btnmatrix.c ****     lv_btnmatrix_t * btnm = (lv_btnmatrix_t *)obj;
 379:Drivers/lvgl/src/widgets/lv_btnmatrix.c ****     btnm->btn_cnt        = 0;
 380:Drivers/lvgl/src/widgets/lv_btnmatrix.c ****     btnm->row_cnt        = 0;
 381:Drivers/lvgl/src/widgets/lv_btnmatrix.c ****     btnm->btn_id_sel     = LV_BTNMATRIX_BTN_NONE;
 382:Drivers/lvgl/src/widgets/lv_btnmatrix.c ****     btnm->button_areas   = NULL;
 383:Drivers/lvgl/src/widgets/lv_btnmatrix.c ****     btnm->ctrl_bits      = NULL;
 384:Drivers/lvgl/src/widgets/lv_btnmatrix.c ****     btnm->map_p          = NULL;
 385:Drivers/lvgl/src/widgets/lv_btnmatrix.c ****     btnm->one_check      = 0;
 386:Drivers/lvgl/src/widgets/lv_btnmatrix.c **** 
 387:Drivers/lvgl/src/widgets/lv_btnmatrix.c ****     lv_btnmatrix_set_map(obj, lv_btnmatrix_def_map);
 388:Drivers/lvgl/src/widgets/lv_btnmatrix.c **** 
 389:Drivers/lvgl/src/widgets/lv_btnmatrix.c ****     LV_TRACE_OBJ_CREATE("finished");
 390:Drivers/lvgl/src/widgets/lv_btnmatrix.c **** }
 391:Drivers/lvgl/src/widgets/lv_btnmatrix.c **** 
 392:Drivers/lvgl/src/widgets/lv_btnmatrix.c **** static void lv_btnmatrix_destructor(const lv_obj_class_t * class_p, lv_obj_t * obj)
 393:Drivers/lvgl/src/widgets/lv_btnmatrix.c **** {
 394:Drivers/lvgl/src/widgets/lv_btnmatrix.c ****     LV_TRACE_OBJ_CREATE("begin");
 395:Drivers/lvgl/src/widgets/lv_btnmatrix.c ****     LV_UNUSED(class_p);
 396:Drivers/lvgl/src/widgets/lv_btnmatrix.c ****     lv_btnmatrix_t * btnm = (lv_btnmatrix_t *)obj;
 397:Drivers/lvgl/src/widgets/lv_btnmatrix.c ****     lv_mem_free(btnm->button_areas);
 398:Drivers/lvgl/src/widgets/lv_btnmatrix.c ****     lv_mem_free(btnm->ctrl_bits);
 399:Drivers/lvgl/src/widgets/lv_btnmatrix.c ****     btnm->button_areas = NULL;
 400:Drivers/lvgl/src/widgets/lv_btnmatrix.c ****     btnm->ctrl_bits = NULL;
 401:Drivers/lvgl/src/widgets/lv_btnmatrix.c ****     LV_TRACE_OBJ_CREATE("finished");
 402:Drivers/lvgl/src/widgets/lv_btnmatrix.c **** }
 403:Drivers/lvgl/src/widgets/lv_btnmatrix.c **** 
 404:Drivers/lvgl/src/widgets/lv_btnmatrix.c **** static void lv_btnmatrix_event(const lv_obj_class_t * class_p, lv_event_t * e)
 405:Drivers/lvgl/src/widgets/lv_btnmatrix.c **** {
 406:Drivers/lvgl/src/widgets/lv_btnmatrix.c ****     LV_UNUSED(class_p);
 407:Drivers/lvgl/src/widgets/lv_btnmatrix.c **** 
 408:Drivers/lvgl/src/widgets/lv_btnmatrix.c ****     lv_res_t res;
 409:Drivers/lvgl/src/widgets/lv_btnmatrix.c **** 
 410:Drivers/lvgl/src/widgets/lv_btnmatrix.c ****     /*Call the ancestor's event handler*/
 411:Drivers/lvgl/src/widgets/lv_btnmatrix.c ****     res = lv_obj_event_base(MY_CLASS, e);
 412:Drivers/lvgl/src/widgets/lv_btnmatrix.c ****     if(res != LV_RES_OK) return;
 413:Drivers/lvgl/src/widgets/lv_btnmatrix.c **** 
 414:Drivers/lvgl/src/widgets/lv_btnmatrix.c ****     lv_event_code_t code = lv_event_get_code(e);
 415:Drivers/lvgl/src/widgets/lv_btnmatrix.c ****     lv_obj_t * obj = lv_event_get_target(e);
 416:Drivers/lvgl/src/widgets/lv_btnmatrix.c ****     lv_btnmatrix_t * btnm = (lv_btnmatrix_t *)obj;
 417:Drivers/lvgl/src/widgets/lv_btnmatrix.c ****     lv_point_t p;
 418:Drivers/lvgl/src/widgets/lv_btnmatrix.c **** 
 419:Drivers/lvgl/src/widgets/lv_btnmatrix.c ****     if(code == LV_EVENT_REFR_EXT_DRAW_SIZE) {
 420:Drivers/lvgl/src/widgets/lv_btnmatrix.c ****         if(has_popovers_in_top_row(obj)) {
 421:Drivers/lvgl/src/widgets/lv_btnmatrix.c ****             /*reserve one row worth of extra space to account for popovers in the top row*/
 422:Drivers/lvgl/src/widgets/lv_btnmatrix.c ****             lv_coord_t s = btnm->row_cnt > 0 ? lv_obj_get_content_height(obj) / btnm->row_cnt : 0;
 423:Drivers/lvgl/src/widgets/lv_btnmatrix.c ****             lv_event_set_ext_draw_size(e, s);
 424:Drivers/lvgl/src/widgets/lv_btnmatrix.c ****         }
 425:Drivers/lvgl/src/widgets/lv_btnmatrix.c ****     }
 426:Drivers/lvgl/src/widgets/lv_btnmatrix.c ****     if(code == LV_EVENT_STYLE_CHANGED) {
 427:Drivers/lvgl/src/widgets/lv_btnmatrix.c ****         lv_btnmatrix_set_map(obj, btnm->map_p);
 428:Drivers/lvgl/src/widgets/lv_btnmatrix.c ****     }
 429:Drivers/lvgl/src/widgets/lv_btnmatrix.c ****     else if(code == LV_EVENT_SIZE_CHANGED) {
ARM GAS  /var/folders/0z/tsy30v1j4xl4_7kw94k978ww0000gn/T//ccZBZI6H.s 			page 9


 430:Drivers/lvgl/src/widgets/lv_btnmatrix.c ****         lv_btnmatrix_set_map(obj, btnm->map_p);
 431:Drivers/lvgl/src/widgets/lv_btnmatrix.c ****     }
 432:Drivers/lvgl/src/widgets/lv_btnmatrix.c ****     else if(code == LV_EVENT_PRESSED) {
 433:Drivers/lvgl/src/widgets/lv_btnmatrix.c ****         void * param = lv_event_get_param(e);
 434:Drivers/lvgl/src/widgets/lv_btnmatrix.c ****         invalidate_button_area(obj, btnm->btn_id_sel);
 435:Drivers/lvgl/src/widgets/lv_btnmatrix.c **** 
 436:Drivers/lvgl/src/widgets/lv_btnmatrix.c ****         lv_indev_type_t indev_type = lv_indev_get_type(lv_indev_get_act());
 437:Drivers/lvgl/src/widgets/lv_btnmatrix.c ****         if(indev_type == LV_INDEV_TYPE_POINTER || indev_type == LV_INDEV_TYPE_BUTTON) {
 438:Drivers/lvgl/src/widgets/lv_btnmatrix.c ****             uint16_t btn_pr;
 439:Drivers/lvgl/src/widgets/lv_btnmatrix.c ****             /*Search the pressed area*/
 440:Drivers/lvgl/src/widgets/lv_btnmatrix.c ****             lv_indev_get_point(param, &p);
 441:Drivers/lvgl/src/widgets/lv_btnmatrix.c ****             btn_pr = get_button_from_point(obj, &p);
 442:Drivers/lvgl/src/widgets/lv_btnmatrix.c ****             /*Handle the case where there is no button there*/
 443:Drivers/lvgl/src/widgets/lv_btnmatrix.c ****             btnm->btn_id_sel = LV_BTNMATRIX_BTN_NONE;
 444:Drivers/lvgl/src/widgets/lv_btnmatrix.c ****             if(btn_pr != LV_BTNMATRIX_BTN_NONE) {
 445:Drivers/lvgl/src/widgets/lv_btnmatrix.c ****                 if(button_is_inactive(btnm->ctrl_bits[btn_pr]) == false &&
 446:Drivers/lvgl/src/widgets/lv_btnmatrix.c ****                    button_is_hidden(btnm->ctrl_bits[btn_pr]) == false) {
 447:Drivers/lvgl/src/widgets/lv_btnmatrix.c ****                     btnm->btn_id_sel = btn_pr;
 448:Drivers/lvgl/src/widgets/lv_btnmatrix.c ****                     invalidate_button_area(obj, btnm->btn_id_sel); /*Invalidate the new area*/
 449:Drivers/lvgl/src/widgets/lv_btnmatrix.c ****                 }
 450:Drivers/lvgl/src/widgets/lv_btnmatrix.c ****             }
 451:Drivers/lvgl/src/widgets/lv_btnmatrix.c ****             else {
 452:Drivers/lvgl/src/widgets/lv_btnmatrix.c ****                 btnm->btn_id_sel = LV_BTNMATRIX_BTN_NONE;
 453:Drivers/lvgl/src/widgets/lv_btnmatrix.c ****             }
 454:Drivers/lvgl/src/widgets/lv_btnmatrix.c ****         }
 455:Drivers/lvgl/src/widgets/lv_btnmatrix.c **** 
 456:Drivers/lvgl/src/widgets/lv_btnmatrix.c ****         if(btnm->btn_id_sel != LV_BTNMATRIX_BTN_NONE) {
 457:Drivers/lvgl/src/widgets/lv_btnmatrix.c ****             if(button_is_click_trig(btnm->ctrl_bits[btnm->btn_id_sel]) == false &&
 458:Drivers/lvgl/src/widgets/lv_btnmatrix.c ****                button_is_popover(btnm->ctrl_bits[btnm->btn_id_sel]) == false &&
 459:Drivers/lvgl/src/widgets/lv_btnmatrix.c ****                button_is_inactive(btnm->ctrl_bits[btnm->btn_id_sel]) == false &&
 460:Drivers/lvgl/src/widgets/lv_btnmatrix.c ****                button_is_hidden(btnm->ctrl_bits[btnm->btn_id_sel]) == false) {
 461:Drivers/lvgl/src/widgets/lv_btnmatrix.c ****                 uint32_t b = btnm->btn_id_sel;
 462:Drivers/lvgl/src/widgets/lv_btnmatrix.c ****                 res        = lv_event_send(obj, LV_EVENT_VALUE_CHANGED, &b);
 463:Drivers/lvgl/src/widgets/lv_btnmatrix.c ****                 if(res != LV_RES_OK) return;
 464:Drivers/lvgl/src/widgets/lv_btnmatrix.c ****             }
 465:Drivers/lvgl/src/widgets/lv_btnmatrix.c ****         }
 466:Drivers/lvgl/src/widgets/lv_btnmatrix.c ****     }
 467:Drivers/lvgl/src/widgets/lv_btnmatrix.c ****     else if(code == LV_EVENT_PRESSING) {
 468:Drivers/lvgl/src/widgets/lv_btnmatrix.c ****         void * param = lv_event_get_param(e);
 469:Drivers/lvgl/src/widgets/lv_btnmatrix.c ****         uint16_t btn_pr = LV_BTNMATRIX_BTN_NONE;
 470:Drivers/lvgl/src/widgets/lv_btnmatrix.c ****         /*Search the pressed area*/
 471:Drivers/lvgl/src/widgets/lv_btnmatrix.c ****         lv_indev_t * indev = lv_indev_get_act();
 472:Drivers/lvgl/src/widgets/lv_btnmatrix.c ****         lv_indev_type_t indev_type = lv_indev_get_type(indev);
 473:Drivers/lvgl/src/widgets/lv_btnmatrix.c ****         if(indev_type == LV_INDEV_TYPE_ENCODER || indev_type == LV_INDEV_TYPE_KEYPAD) return;
 474:Drivers/lvgl/src/widgets/lv_btnmatrix.c **** 
 475:Drivers/lvgl/src/widgets/lv_btnmatrix.c ****         lv_indev_get_point(indev, &p);
 476:Drivers/lvgl/src/widgets/lv_btnmatrix.c ****         btn_pr = get_button_from_point(obj, &p);
 477:Drivers/lvgl/src/widgets/lv_btnmatrix.c ****         /*Invalidate to old and the new areas*/
 478:Drivers/lvgl/src/widgets/lv_btnmatrix.c ****         if(btn_pr != btnm->btn_id_sel) {
 479:Drivers/lvgl/src/widgets/lv_btnmatrix.c ****             if(btnm->btn_id_sel != LV_BTNMATRIX_BTN_NONE) {
 480:Drivers/lvgl/src/widgets/lv_btnmatrix.c ****                 invalidate_button_area(obj, btnm->btn_id_sel);
 481:Drivers/lvgl/src/widgets/lv_btnmatrix.c ****             }
 482:Drivers/lvgl/src/widgets/lv_btnmatrix.c **** 
 483:Drivers/lvgl/src/widgets/lv_btnmatrix.c ****             btnm->btn_id_sel = btn_pr;
 484:Drivers/lvgl/src/widgets/lv_btnmatrix.c **** 
 485:Drivers/lvgl/src/widgets/lv_btnmatrix.c ****             lv_indev_reset_long_press(param); /*Start the log press time again on the new button*/
 486:Drivers/lvgl/src/widgets/lv_btnmatrix.c ****             if(btn_pr != LV_BTNMATRIX_BTN_NONE &&
ARM GAS  /var/folders/0z/tsy30v1j4xl4_7kw94k978ww0000gn/T//ccZBZI6H.s 			page 10


 487:Drivers/lvgl/src/widgets/lv_btnmatrix.c ****                button_is_inactive(btnm->ctrl_bits[btn_pr]) == false &&
 488:Drivers/lvgl/src/widgets/lv_btnmatrix.c ****                button_is_hidden(btnm->ctrl_bits[btn_pr]) == false) {
 489:Drivers/lvgl/src/widgets/lv_btnmatrix.c ****                 invalidate_button_area(obj, btn_pr);
 490:Drivers/lvgl/src/widgets/lv_btnmatrix.c ****                 /*Send VALUE_CHANGED for the newly pressed button*/
 491:Drivers/lvgl/src/widgets/lv_btnmatrix.c ****                 if(button_is_click_trig(btnm->ctrl_bits[btn_pr]) == false &&
 492:Drivers/lvgl/src/widgets/lv_btnmatrix.c ****                    button_is_popover(btnm->ctrl_bits[btnm->btn_id_sel]) == false) {
 493:Drivers/lvgl/src/widgets/lv_btnmatrix.c ****                     uint32_t b = btn_pr;
 494:Drivers/lvgl/src/widgets/lv_btnmatrix.c ****                     res = lv_event_send(obj, LV_EVENT_VALUE_CHANGED, &b);
 495:Drivers/lvgl/src/widgets/lv_btnmatrix.c ****                     if(res != LV_RES_OK) return;
 496:Drivers/lvgl/src/widgets/lv_btnmatrix.c ****                 }
 497:Drivers/lvgl/src/widgets/lv_btnmatrix.c ****             }
 498:Drivers/lvgl/src/widgets/lv_btnmatrix.c ****         }
 499:Drivers/lvgl/src/widgets/lv_btnmatrix.c ****     }
 500:Drivers/lvgl/src/widgets/lv_btnmatrix.c ****     else if(code == LV_EVENT_RELEASED) {
 501:Drivers/lvgl/src/widgets/lv_btnmatrix.c ****         if(btnm->btn_id_sel != LV_BTNMATRIX_BTN_NONE) {
 502:Drivers/lvgl/src/widgets/lv_btnmatrix.c ****             /*Toggle the button if enabled*/
 503:Drivers/lvgl/src/widgets/lv_btnmatrix.c ****             if(button_is_checkable(btnm->ctrl_bits[btnm->btn_id_sel]) &&
 504:Drivers/lvgl/src/widgets/lv_btnmatrix.c ****                !button_is_inactive(btnm->ctrl_bits[btnm->btn_id_sel])) {
 505:Drivers/lvgl/src/widgets/lv_btnmatrix.c ****                 if(button_get_checked(btnm->ctrl_bits[btnm->btn_id_sel]) && !btnm->one_check) {
 506:Drivers/lvgl/src/widgets/lv_btnmatrix.c ****                     btnm->ctrl_bits[btnm->btn_id_sel] &= (~LV_BTNMATRIX_CTRL_CHECKED);
 507:Drivers/lvgl/src/widgets/lv_btnmatrix.c ****                 }
 508:Drivers/lvgl/src/widgets/lv_btnmatrix.c ****                 else {
 509:Drivers/lvgl/src/widgets/lv_btnmatrix.c ****                     btnm->ctrl_bits[btnm->btn_id_sel] |= LV_BTNMATRIX_CTRL_CHECKED;
 510:Drivers/lvgl/src/widgets/lv_btnmatrix.c ****                 }
 511:Drivers/lvgl/src/widgets/lv_btnmatrix.c ****                 if(btnm->one_check) make_one_button_checked(obj, btnm->btn_id_sel);
 512:Drivers/lvgl/src/widgets/lv_btnmatrix.c ****             }
 513:Drivers/lvgl/src/widgets/lv_btnmatrix.c **** 
 514:Drivers/lvgl/src/widgets/lv_btnmatrix.c **** 
 515:Drivers/lvgl/src/widgets/lv_btnmatrix.c ****             if((button_is_click_trig(btnm->ctrl_bits[btnm->btn_id_sel]) == true ||
 516:Drivers/lvgl/src/widgets/lv_btnmatrix.c ****                 button_is_popover(btnm->ctrl_bits[btnm->btn_id_sel]) == true) &&
 517:Drivers/lvgl/src/widgets/lv_btnmatrix.c ****                button_is_inactive(btnm->ctrl_bits[btnm->btn_id_sel]) == false &&
 518:Drivers/lvgl/src/widgets/lv_btnmatrix.c ****                button_is_hidden(btnm->ctrl_bits[btnm->btn_id_sel]) == false) {
 519:Drivers/lvgl/src/widgets/lv_btnmatrix.c ****                 uint32_t b = btnm->btn_id_sel;
 520:Drivers/lvgl/src/widgets/lv_btnmatrix.c ****                 res        = lv_event_send(obj, LV_EVENT_VALUE_CHANGED, &b);
 521:Drivers/lvgl/src/widgets/lv_btnmatrix.c ****                 if(res != LV_RES_OK) return;
 522:Drivers/lvgl/src/widgets/lv_btnmatrix.c ****             }
 523:Drivers/lvgl/src/widgets/lv_btnmatrix.c ****         }
 524:Drivers/lvgl/src/widgets/lv_btnmatrix.c **** 
 525:Drivers/lvgl/src/widgets/lv_btnmatrix.c ****         /*Invalidate to old pressed area*/;
 526:Drivers/lvgl/src/widgets/lv_btnmatrix.c ****         invalidate_button_area(obj, btnm->btn_id_sel);
 527:Drivers/lvgl/src/widgets/lv_btnmatrix.c **** 
 528:Drivers/lvgl/src/widgets/lv_btnmatrix.c ****     }
 529:Drivers/lvgl/src/widgets/lv_btnmatrix.c ****     else if(code == LV_EVENT_LONG_PRESSED_REPEAT) {
 530:Drivers/lvgl/src/widgets/lv_btnmatrix.c ****         if(btnm->btn_id_sel != LV_BTNMATRIX_BTN_NONE) {
 531:Drivers/lvgl/src/widgets/lv_btnmatrix.c ****             if(button_is_repeat_disabled(btnm->ctrl_bits[btnm->btn_id_sel]) == false &&
 532:Drivers/lvgl/src/widgets/lv_btnmatrix.c ****                button_is_inactive(btnm->ctrl_bits[btnm->btn_id_sel]) == false &&
 533:Drivers/lvgl/src/widgets/lv_btnmatrix.c ****                button_is_hidden(btnm->ctrl_bits[btnm->btn_id_sel]) == false) {
 534:Drivers/lvgl/src/widgets/lv_btnmatrix.c ****                 uint32_t b = btnm->btn_id_sel;
 535:Drivers/lvgl/src/widgets/lv_btnmatrix.c ****                 res        = lv_event_send(obj, LV_EVENT_VALUE_CHANGED, &b);
 536:Drivers/lvgl/src/widgets/lv_btnmatrix.c ****                 if(res != LV_RES_OK) return;
 537:Drivers/lvgl/src/widgets/lv_btnmatrix.c ****             }
 538:Drivers/lvgl/src/widgets/lv_btnmatrix.c ****         }
 539:Drivers/lvgl/src/widgets/lv_btnmatrix.c ****     }
 540:Drivers/lvgl/src/widgets/lv_btnmatrix.c ****     else if(code == LV_EVENT_PRESS_LOST) {
 541:Drivers/lvgl/src/widgets/lv_btnmatrix.c ****         invalidate_button_area(obj, btnm->btn_id_sel);
 542:Drivers/lvgl/src/widgets/lv_btnmatrix.c ****         btnm->btn_id_sel = LV_BTNMATRIX_BTN_NONE;
 543:Drivers/lvgl/src/widgets/lv_btnmatrix.c ****     }
ARM GAS  /var/folders/0z/tsy30v1j4xl4_7kw94k978ww0000gn/T//ccZBZI6H.s 			page 11


 544:Drivers/lvgl/src/widgets/lv_btnmatrix.c ****     else if(code == LV_EVENT_FOCUSED) {
 545:Drivers/lvgl/src/widgets/lv_btnmatrix.c ****         if(btnm->btn_cnt == 0) return;
 546:Drivers/lvgl/src/widgets/lv_btnmatrix.c **** 
 547:Drivers/lvgl/src/widgets/lv_btnmatrix.c ****         lv_indev_t * indev = lv_event_get_param(e);
 548:Drivers/lvgl/src/widgets/lv_btnmatrix.c ****         lv_indev_type_t indev_type = lv_indev_get_type(indev);
 549:Drivers/lvgl/src/widgets/lv_btnmatrix.c **** 
 550:Drivers/lvgl/src/widgets/lv_btnmatrix.c ****         /*If not focused by an input device assume the last input device*/
 551:Drivers/lvgl/src/widgets/lv_btnmatrix.c ****         if(indev == NULL) {
 552:Drivers/lvgl/src/widgets/lv_btnmatrix.c ****             indev = lv_indev_get_next(NULL);
 553:Drivers/lvgl/src/widgets/lv_btnmatrix.c ****             indev_type = lv_indev_get_type(indev);
 554:Drivers/lvgl/src/widgets/lv_btnmatrix.c ****         }
 555:Drivers/lvgl/src/widgets/lv_btnmatrix.c **** 
 556:Drivers/lvgl/src/widgets/lv_btnmatrix.c ****         bool editing = lv_group_get_editing(lv_obj_get_group(obj));
 557:Drivers/lvgl/src/widgets/lv_btnmatrix.c ****         /*Focus the first button if there is not selected button*/
 558:Drivers/lvgl/src/widgets/lv_btnmatrix.c ****         if(btnm->btn_id_sel == LV_BTNMATRIX_BTN_NONE) {
 559:Drivers/lvgl/src/widgets/lv_btnmatrix.c ****             if(indev_type == LV_INDEV_TYPE_KEYPAD || (indev_type == LV_INDEV_TYPE_ENCODER && editin
 560:Drivers/lvgl/src/widgets/lv_btnmatrix.c ****                 uint32_t b = 0;
 561:Drivers/lvgl/src/widgets/lv_btnmatrix.c ****                 if(btnm->one_check) {
 562:Drivers/lvgl/src/widgets/lv_btnmatrix.c ****                     while(button_is_hidden(btnm->ctrl_bits[b]) || button_is_inactive(btnm->ctrl_bit
 563:Drivers/lvgl/src/widgets/lv_btnmatrix.c ****                           button_is_checked(btnm->ctrl_bits[b]) == false) b++;
 564:Drivers/lvgl/src/widgets/lv_btnmatrix.c ****                 }
 565:Drivers/lvgl/src/widgets/lv_btnmatrix.c ****                 else {
 566:Drivers/lvgl/src/widgets/lv_btnmatrix.c ****                     while(button_is_hidden(btnm->ctrl_bits[b]) || button_is_inactive(btnm->ctrl_bit
 567:Drivers/lvgl/src/widgets/lv_btnmatrix.c ****                 }
 568:Drivers/lvgl/src/widgets/lv_btnmatrix.c **** 
 569:Drivers/lvgl/src/widgets/lv_btnmatrix.c ****                 btnm->btn_id_sel = b;
 570:Drivers/lvgl/src/widgets/lv_btnmatrix.c ****             }
 571:Drivers/lvgl/src/widgets/lv_btnmatrix.c ****             else {
 572:Drivers/lvgl/src/widgets/lv_btnmatrix.c ****                 btnm->btn_id_sel = LV_BTNMATRIX_BTN_NONE;
 573:Drivers/lvgl/src/widgets/lv_btnmatrix.c ****             }
 574:Drivers/lvgl/src/widgets/lv_btnmatrix.c ****         }
 575:Drivers/lvgl/src/widgets/lv_btnmatrix.c ****     }
 576:Drivers/lvgl/src/widgets/lv_btnmatrix.c ****     else if(code == LV_EVENT_DEFOCUSED || code == LV_EVENT_LEAVE) {
 577:Drivers/lvgl/src/widgets/lv_btnmatrix.c ****         if(btnm->btn_id_sel != LV_BTNMATRIX_BTN_NONE) invalidate_button_area(obj, btnm->btn_id_sel)
 578:Drivers/lvgl/src/widgets/lv_btnmatrix.c ****         btnm->btn_id_sel = LV_BTNMATRIX_BTN_NONE;
 579:Drivers/lvgl/src/widgets/lv_btnmatrix.c ****     }
 580:Drivers/lvgl/src/widgets/lv_btnmatrix.c ****     else if(code == LV_EVENT_KEY) {
 581:Drivers/lvgl/src/widgets/lv_btnmatrix.c **** 
 582:Drivers/lvgl/src/widgets/lv_btnmatrix.c ****         invalidate_button_area(obj, btnm->btn_id_sel);
 583:Drivers/lvgl/src/widgets/lv_btnmatrix.c **** 
 584:Drivers/lvgl/src/widgets/lv_btnmatrix.c ****         char c = *((char *)lv_event_get_param(e));
 585:Drivers/lvgl/src/widgets/lv_btnmatrix.c ****         if(c == LV_KEY_RIGHT) {
 586:Drivers/lvgl/src/widgets/lv_btnmatrix.c ****             if(btnm->btn_id_sel == LV_BTNMATRIX_BTN_NONE)  btnm->btn_id_sel = 0;
 587:Drivers/lvgl/src/widgets/lv_btnmatrix.c ****             else btnm->btn_id_sel++;
 588:Drivers/lvgl/src/widgets/lv_btnmatrix.c ****             if(btnm->btn_id_sel >= btnm->btn_cnt) btnm->btn_id_sel = 0;
 589:Drivers/lvgl/src/widgets/lv_btnmatrix.c **** 
 590:Drivers/lvgl/src/widgets/lv_btnmatrix.c ****             uint16_t btn_id_start = btnm->btn_id_sel;
 591:Drivers/lvgl/src/widgets/lv_btnmatrix.c ****             while(button_is_hidden(btnm->ctrl_bits[btnm->btn_id_sel]) || button_is_inactive(btnm->c
 592:Drivers/lvgl/src/widgets/lv_btnmatrix.c ****                 btnm->btn_id_sel++;
 593:Drivers/lvgl/src/widgets/lv_btnmatrix.c ****                 if(btnm->btn_id_sel >= btnm->btn_cnt) btnm->btn_id_sel = 0;
 594:Drivers/lvgl/src/widgets/lv_btnmatrix.c **** 
 595:Drivers/lvgl/src/widgets/lv_btnmatrix.c ****                 if(btnm->btn_id_sel == btn_id_start) {
 596:Drivers/lvgl/src/widgets/lv_btnmatrix.c ****                     btnm->btn_id_sel = LV_BTNMATRIX_BTN_NONE;
 597:Drivers/lvgl/src/widgets/lv_btnmatrix.c ****                     break;
 598:Drivers/lvgl/src/widgets/lv_btnmatrix.c ****                 }
 599:Drivers/lvgl/src/widgets/lv_btnmatrix.c ****             }
 600:Drivers/lvgl/src/widgets/lv_btnmatrix.c ****         }
ARM GAS  /var/folders/0z/tsy30v1j4xl4_7kw94k978ww0000gn/T//ccZBZI6H.s 			page 12


 601:Drivers/lvgl/src/widgets/lv_btnmatrix.c ****         else if(c == LV_KEY_LEFT) {
 602:Drivers/lvgl/src/widgets/lv_btnmatrix.c ****             if(btnm->btn_id_sel == LV_BTNMATRIX_BTN_NONE) btnm->btn_id_sel = 0;
 603:Drivers/lvgl/src/widgets/lv_btnmatrix.c **** 
 604:Drivers/lvgl/src/widgets/lv_btnmatrix.c ****             if(btnm->btn_id_sel == 0) btnm->btn_id_sel = btnm->btn_cnt - 1;
 605:Drivers/lvgl/src/widgets/lv_btnmatrix.c ****             else if(btnm->btn_id_sel > 0) btnm->btn_id_sel--;
 606:Drivers/lvgl/src/widgets/lv_btnmatrix.c **** 
 607:Drivers/lvgl/src/widgets/lv_btnmatrix.c ****             uint16_t btn_id_start = btnm->btn_id_sel;
 608:Drivers/lvgl/src/widgets/lv_btnmatrix.c ****             while(button_is_hidden(btnm->ctrl_bits[btnm->btn_id_sel]) || button_is_inactive(btnm->c
 609:Drivers/lvgl/src/widgets/lv_btnmatrix.c ****                 if(btnm->btn_id_sel > 0) btnm->btn_id_sel--;
 610:Drivers/lvgl/src/widgets/lv_btnmatrix.c ****                 else btnm->btn_id_sel = btnm->btn_cnt - 1;
 611:Drivers/lvgl/src/widgets/lv_btnmatrix.c **** 
 612:Drivers/lvgl/src/widgets/lv_btnmatrix.c ****                 if(btnm->btn_id_sel == btn_id_start) {
 613:Drivers/lvgl/src/widgets/lv_btnmatrix.c ****                     btnm->btn_id_sel = LV_BTNMATRIX_BTN_NONE;
 614:Drivers/lvgl/src/widgets/lv_btnmatrix.c ****                     break;
 615:Drivers/lvgl/src/widgets/lv_btnmatrix.c ****                 }
 616:Drivers/lvgl/src/widgets/lv_btnmatrix.c ****             }
 617:Drivers/lvgl/src/widgets/lv_btnmatrix.c ****         }
 618:Drivers/lvgl/src/widgets/lv_btnmatrix.c ****         else if(c == LV_KEY_DOWN) {
 619:Drivers/lvgl/src/widgets/lv_btnmatrix.c ****             lv_coord_t col_gap = lv_obj_get_style_pad_column(obj, LV_PART_MAIN);
 620:Drivers/lvgl/src/widgets/lv_btnmatrix.c ****             /*Find the area below the current*/
 621:Drivers/lvgl/src/widgets/lv_btnmatrix.c ****             if(btnm->btn_id_sel == LV_BTNMATRIX_BTN_NONE) {
 622:Drivers/lvgl/src/widgets/lv_btnmatrix.c ****                 btnm->btn_id_sel = 0;
 623:Drivers/lvgl/src/widgets/lv_btnmatrix.c ****                 while(button_is_hidden(btnm->ctrl_bits[btnm->btn_id_sel]) || button_is_inactive(btn
 624:Drivers/lvgl/src/widgets/lv_btnmatrix.c ****                     btnm->btn_id_sel++;
 625:Drivers/lvgl/src/widgets/lv_btnmatrix.c ****                     if(btnm->btn_id_sel >= btnm->btn_cnt) {
 626:Drivers/lvgl/src/widgets/lv_btnmatrix.c ****                         btnm->btn_id_sel = LV_BTNMATRIX_BTN_NONE;
 627:Drivers/lvgl/src/widgets/lv_btnmatrix.c ****                         break;
 628:Drivers/lvgl/src/widgets/lv_btnmatrix.c ****                     }
 629:Drivers/lvgl/src/widgets/lv_btnmatrix.c ****                 }
 630:Drivers/lvgl/src/widgets/lv_btnmatrix.c ****             }
 631:Drivers/lvgl/src/widgets/lv_btnmatrix.c ****             else {
 632:Drivers/lvgl/src/widgets/lv_btnmatrix.c ****                 uint16_t area_below;
 633:Drivers/lvgl/src/widgets/lv_btnmatrix.c ****                 lv_coord_t pr_center =
 634:Drivers/lvgl/src/widgets/lv_btnmatrix.c ****                     btnm->button_areas[btnm->btn_id_sel].x1 + (lv_area_get_width(&btnm->button_area
 635:Drivers/lvgl/src/widgets/lv_btnmatrix.c **** 
 636:Drivers/lvgl/src/widgets/lv_btnmatrix.c ****                 for(area_below = btnm->btn_id_sel; area_below < btnm->btn_cnt; area_below++) {
 637:Drivers/lvgl/src/widgets/lv_btnmatrix.c ****                     if(btnm->button_areas[area_below].y1 > btnm->button_areas[btnm->btn_id_sel].y1 
 638:Drivers/lvgl/src/widgets/lv_btnmatrix.c ****                        pr_center >= btnm->button_areas[area_below].x1 &&
 639:Drivers/lvgl/src/widgets/lv_btnmatrix.c ****                        pr_center <= btnm->button_areas[area_below].x2 + col_gap &&
 640:Drivers/lvgl/src/widgets/lv_btnmatrix.c ****                        button_is_inactive(btnm->ctrl_bits[area_below]) == false &&
 641:Drivers/lvgl/src/widgets/lv_btnmatrix.c ****                        button_is_hidden(btnm->ctrl_bits[area_below]) == false) {
 642:Drivers/lvgl/src/widgets/lv_btnmatrix.c ****                         break;
 643:Drivers/lvgl/src/widgets/lv_btnmatrix.c ****                     }
 644:Drivers/lvgl/src/widgets/lv_btnmatrix.c ****                 }
 645:Drivers/lvgl/src/widgets/lv_btnmatrix.c **** 
 646:Drivers/lvgl/src/widgets/lv_btnmatrix.c ****                 if(area_below < btnm->btn_cnt) btnm->btn_id_sel = area_below;
 647:Drivers/lvgl/src/widgets/lv_btnmatrix.c ****             }
 648:Drivers/lvgl/src/widgets/lv_btnmatrix.c ****         }
 649:Drivers/lvgl/src/widgets/lv_btnmatrix.c ****         else if(c == LV_KEY_UP) {
 650:Drivers/lvgl/src/widgets/lv_btnmatrix.c ****             lv_coord_t col_gap = lv_obj_get_style_pad_column(obj, LV_PART_MAIN);
 651:Drivers/lvgl/src/widgets/lv_btnmatrix.c ****             /*Find the area below the current*/
 652:Drivers/lvgl/src/widgets/lv_btnmatrix.c ****             if(btnm->btn_id_sel == LV_BTNMATRIX_BTN_NONE) {
 653:Drivers/lvgl/src/widgets/lv_btnmatrix.c ****                 btnm->btn_id_sel = 0;
 654:Drivers/lvgl/src/widgets/lv_btnmatrix.c ****                 while(button_is_hidden(btnm->ctrl_bits[btnm->btn_id_sel]) || button_is_inactive(btn
 655:Drivers/lvgl/src/widgets/lv_btnmatrix.c ****                     btnm->btn_id_sel++;
 656:Drivers/lvgl/src/widgets/lv_btnmatrix.c ****                     if(btnm->btn_id_sel >= btnm->btn_cnt) {
 657:Drivers/lvgl/src/widgets/lv_btnmatrix.c ****                         btnm->btn_id_sel = LV_BTNMATRIX_BTN_NONE;
ARM GAS  /var/folders/0z/tsy30v1j4xl4_7kw94k978ww0000gn/T//ccZBZI6H.s 			page 13


 658:Drivers/lvgl/src/widgets/lv_btnmatrix.c ****                         break;
 659:Drivers/lvgl/src/widgets/lv_btnmatrix.c ****                     }
 660:Drivers/lvgl/src/widgets/lv_btnmatrix.c ****                 }
 661:Drivers/lvgl/src/widgets/lv_btnmatrix.c ****             }
 662:Drivers/lvgl/src/widgets/lv_btnmatrix.c ****             else {
 663:Drivers/lvgl/src/widgets/lv_btnmatrix.c ****                 int16_t area_above;
 664:Drivers/lvgl/src/widgets/lv_btnmatrix.c ****                 lv_coord_t pr_center =
 665:Drivers/lvgl/src/widgets/lv_btnmatrix.c ****                     btnm->button_areas[btnm->btn_id_sel].x1 + (lv_area_get_width(&btnm->button_area
 666:Drivers/lvgl/src/widgets/lv_btnmatrix.c **** 
 667:Drivers/lvgl/src/widgets/lv_btnmatrix.c ****                 for(area_above = btnm->btn_id_sel; area_above >= 0; area_above--) {
 668:Drivers/lvgl/src/widgets/lv_btnmatrix.c ****                     if(btnm->button_areas[area_above].y1 < btnm->button_areas[btnm->btn_id_sel].y1 
 669:Drivers/lvgl/src/widgets/lv_btnmatrix.c ****                        pr_center >= btnm->button_areas[area_above].x1 - col_gap &&
 670:Drivers/lvgl/src/widgets/lv_btnmatrix.c ****                        pr_center <= btnm->button_areas[area_above].x2 &&
 671:Drivers/lvgl/src/widgets/lv_btnmatrix.c ****                        button_is_inactive(btnm->ctrl_bits[area_above]) == false &&
 672:Drivers/lvgl/src/widgets/lv_btnmatrix.c ****                        button_is_hidden(btnm->ctrl_bits[area_above]) == false) {
 673:Drivers/lvgl/src/widgets/lv_btnmatrix.c ****                         break;
 674:Drivers/lvgl/src/widgets/lv_btnmatrix.c ****                     }
 675:Drivers/lvgl/src/widgets/lv_btnmatrix.c ****                 }
 676:Drivers/lvgl/src/widgets/lv_btnmatrix.c ****                 if(area_above >= 0) btnm->btn_id_sel = area_above;
 677:Drivers/lvgl/src/widgets/lv_btnmatrix.c ****             }
 678:Drivers/lvgl/src/widgets/lv_btnmatrix.c ****         }
 679:Drivers/lvgl/src/widgets/lv_btnmatrix.c **** 
 680:Drivers/lvgl/src/widgets/lv_btnmatrix.c ****         invalidate_button_area(obj, btnm->btn_id_sel);
 681:Drivers/lvgl/src/widgets/lv_btnmatrix.c ****     }
 682:Drivers/lvgl/src/widgets/lv_btnmatrix.c ****     else if(code == LV_EVENT_DRAW_MAIN) {
 683:Drivers/lvgl/src/widgets/lv_btnmatrix.c ****         draw_main(e);
 684:Drivers/lvgl/src/widgets/lv_btnmatrix.c ****     }
 685:Drivers/lvgl/src/widgets/lv_btnmatrix.c **** 
 686:Drivers/lvgl/src/widgets/lv_btnmatrix.c **** }
 687:Drivers/lvgl/src/widgets/lv_btnmatrix.c **** 
 688:Drivers/lvgl/src/widgets/lv_btnmatrix.c **** static void draw_main(lv_event_t * e)
 689:Drivers/lvgl/src/widgets/lv_btnmatrix.c **** {
 690:Drivers/lvgl/src/widgets/lv_btnmatrix.c ****     lv_obj_t * obj = lv_event_get_target(e);
 691:Drivers/lvgl/src/widgets/lv_btnmatrix.c ****     lv_btnmatrix_t * btnm = (lv_btnmatrix_t *)obj;
 692:Drivers/lvgl/src/widgets/lv_btnmatrix.c ****     if(btnm->btn_cnt == 0) return;
 693:Drivers/lvgl/src/widgets/lv_btnmatrix.c **** 
 694:Drivers/lvgl/src/widgets/lv_btnmatrix.c ****     lv_draw_ctx_t * draw_ctx = lv_event_get_draw_ctx(e);
 695:Drivers/lvgl/src/widgets/lv_btnmatrix.c ****     obj->skip_trans = 1;
 696:Drivers/lvgl/src/widgets/lv_btnmatrix.c **** 
 697:Drivers/lvgl/src/widgets/lv_btnmatrix.c ****     lv_area_t area_obj;
 698:Drivers/lvgl/src/widgets/lv_btnmatrix.c ****     lv_obj_get_coords(obj, &area_obj);
 699:Drivers/lvgl/src/widgets/lv_btnmatrix.c **** 
 700:Drivers/lvgl/src/widgets/lv_btnmatrix.c ****     lv_area_t btn_area;
 701:Drivers/lvgl/src/widgets/lv_btnmatrix.c **** 
 702:Drivers/lvgl/src/widgets/lv_btnmatrix.c ****     uint16_t btn_i = 0;
 703:Drivers/lvgl/src/widgets/lv_btnmatrix.c ****     uint16_t txt_i = 0;
 704:Drivers/lvgl/src/widgets/lv_btnmatrix.c **** 
 705:Drivers/lvgl/src/widgets/lv_btnmatrix.c ****     lv_draw_rect_dsc_t draw_rect_dsc_act;
 706:Drivers/lvgl/src/widgets/lv_btnmatrix.c ****     lv_draw_label_dsc_t draw_label_dsc_act;
 707:Drivers/lvgl/src/widgets/lv_btnmatrix.c **** 
 708:Drivers/lvgl/src/widgets/lv_btnmatrix.c ****     lv_draw_rect_dsc_t draw_rect_dsc_def;
 709:Drivers/lvgl/src/widgets/lv_btnmatrix.c ****     lv_draw_label_dsc_t draw_label_dsc_def;
 710:Drivers/lvgl/src/widgets/lv_btnmatrix.c **** 
 711:Drivers/lvgl/src/widgets/lv_btnmatrix.c ****     lv_state_t state_ori = obj->state;
 712:Drivers/lvgl/src/widgets/lv_btnmatrix.c ****     obj->state = LV_STATE_DEFAULT;
 713:Drivers/lvgl/src/widgets/lv_btnmatrix.c ****     obj->skip_trans = 1;
 714:Drivers/lvgl/src/widgets/lv_btnmatrix.c ****     lv_draw_rect_dsc_init(&draw_rect_dsc_def);
ARM GAS  /var/folders/0z/tsy30v1j4xl4_7kw94k978ww0000gn/T//ccZBZI6H.s 			page 14


 715:Drivers/lvgl/src/widgets/lv_btnmatrix.c ****     lv_draw_label_dsc_init(&draw_label_dsc_def);
 716:Drivers/lvgl/src/widgets/lv_btnmatrix.c ****     lv_obj_init_draw_rect_dsc(obj, LV_PART_ITEMS, &draw_rect_dsc_def);
 717:Drivers/lvgl/src/widgets/lv_btnmatrix.c ****     lv_obj_init_draw_label_dsc(obj, LV_PART_ITEMS, &draw_label_dsc_def);
 718:Drivers/lvgl/src/widgets/lv_btnmatrix.c ****     obj->skip_trans = 0;
 719:Drivers/lvgl/src/widgets/lv_btnmatrix.c ****     obj->state = state_ori;
 720:Drivers/lvgl/src/widgets/lv_btnmatrix.c **** 
 721:Drivers/lvgl/src/widgets/lv_btnmatrix.c ****     lv_coord_t ptop = lv_obj_get_style_pad_top(obj, LV_PART_MAIN);
 722:Drivers/lvgl/src/widgets/lv_btnmatrix.c ****     lv_coord_t pbottom = lv_obj_get_style_pad_bottom(obj, LV_PART_MAIN);
 723:Drivers/lvgl/src/widgets/lv_btnmatrix.c ****     lv_coord_t pleft = lv_obj_get_style_pad_left(obj, LV_PART_MAIN);
 724:Drivers/lvgl/src/widgets/lv_btnmatrix.c ****     lv_coord_t pright = lv_obj_get_style_pad_right(obj, LV_PART_MAIN);
 725:Drivers/lvgl/src/widgets/lv_btnmatrix.c **** 
 726:Drivers/lvgl/src/widgets/lv_btnmatrix.c **** #if LV_USE_ARABIC_PERSIAN_CHARS
 727:Drivers/lvgl/src/widgets/lv_btnmatrix.c ****     const size_t txt_ap_size = 256 ;
 728:Drivers/lvgl/src/widgets/lv_btnmatrix.c ****     char * txt_ap = lv_mem_buf_get(txt_ap_size);
 729:Drivers/lvgl/src/widgets/lv_btnmatrix.c **** #endif
 730:Drivers/lvgl/src/widgets/lv_btnmatrix.c **** 
 731:Drivers/lvgl/src/widgets/lv_btnmatrix.c ****     lv_obj_draw_part_dsc_t part_draw_dsc;
 732:Drivers/lvgl/src/widgets/lv_btnmatrix.c ****     lv_obj_draw_dsc_init(&part_draw_dsc, draw_ctx);
 733:Drivers/lvgl/src/widgets/lv_btnmatrix.c ****     part_draw_dsc.part = LV_PART_ITEMS;
 734:Drivers/lvgl/src/widgets/lv_btnmatrix.c ****     part_draw_dsc.class_p = MY_CLASS;
 735:Drivers/lvgl/src/widgets/lv_btnmatrix.c ****     part_draw_dsc.type = LV_BTNMATRIX_DRAW_PART_BTN;
 736:Drivers/lvgl/src/widgets/lv_btnmatrix.c ****     part_draw_dsc.rect_dsc = &draw_rect_dsc_act;
 737:Drivers/lvgl/src/widgets/lv_btnmatrix.c ****     part_draw_dsc.label_dsc = &draw_label_dsc_act;
 738:Drivers/lvgl/src/widgets/lv_btnmatrix.c **** 
 739:Drivers/lvgl/src/widgets/lv_btnmatrix.c ****     for(btn_i = 0; btn_i < btnm->btn_cnt; btn_i++, txt_i++) {
 740:Drivers/lvgl/src/widgets/lv_btnmatrix.c ****         /*Search the next valid text in the map*/
 741:Drivers/lvgl/src/widgets/lv_btnmatrix.c ****         while(strcmp(btnm->map_p[txt_i], "\n") == 0) {
 742:Drivers/lvgl/src/widgets/lv_btnmatrix.c ****             txt_i++;
 743:Drivers/lvgl/src/widgets/lv_btnmatrix.c ****         }
 744:Drivers/lvgl/src/widgets/lv_btnmatrix.c **** 
 745:Drivers/lvgl/src/widgets/lv_btnmatrix.c ****         /*Skip hidden buttons*/
 746:Drivers/lvgl/src/widgets/lv_btnmatrix.c ****         if(button_is_hidden(btnm->ctrl_bits[btn_i])) continue;
 747:Drivers/lvgl/src/widgets/lv_btnmatrix.c **** 
 748:Drivers/lvgl/src/widgets/lv_btnmatrix.c ****         /*Get the state of the button*/
 749:Drivers/lvgl/src/widgets/lv_btnmatrix.c ****         lv_state_t btn_state = LV_STATE_DEFAULT;
 750:Drivers/lvgl/src/widgets/lv_btnmatrix.c ****         if(button_get_checked(btnm->ctrl_bits[btn_i])) btn_state |= LV_STATE_CHECKED;
 751:Drivers/lvgl/src/widgets/lv_btnmatrix.c **** 
 752:Drivers/lvgl/src/widgets/lv_btnmatrix.c ****         if(button_is_inactive(btnm->ctrl_bits[btn_i])) btn_state |= LV_STATE_DISABLED;
 753:Drivers/lvgl/src/widgets/lv_btnmatrix.c ****         else if(btn_i == btnm->btn_id_sel) {
 754:Drivers/lvgl/src/widgets/lv_btnmatrix.c ****             if(state_ori & LV_STATE_PRESSED) btn_state |= LV_STATE_PRESSED;
 755:Drivers/lvgl/src/widgets/lv_btnmatrix.c ****             if(state_ori & LV_STATE_FOCUSED) btn_state |= LV_STATE_FOCUSED;
 756:Drivers/lvgl/src/widgets/lv_btnmatrix.c ****             if(state_ori & LV_STATE_FOCUS_KEY) btn_state |= LV_STATE_FOCUS_KEY;
 757:Drivers/lvgl/src/widgets/lv_btnmatrix.c ****             if(state_ori & LV_STATE_EDITED) btn_state |= LV_STATE_EDITED;
 758:Drivers/lvgl/src/widgets/lv_btnmatrix.c ****         }
 759:Drivers/lvgl/src/widgets/lv_btnmatrix.c **** 
 760:Drivers/lvgl/src/widgets/lv_btnmatrix.c ****         /*Get the button's area*/
 761:Drivers/lvgl/src/widgets/lv_btnmatrix.c ****         lv_area_copy(&btn_area, &btnm->button_areas[btn_i]);
 762:Drivers/lvgl/src/widgets/lv_btnmatrix.c ****         btn_area.x1 += area_obj.x1;
 763:Drivers/lvgl/src/widgets/lv_btnmatrix.c ****         btn_area.y1 += area_obj.y1;
 764:Drivers/lvgl/src/widgets/lv_btnmatrix.c ****         btn_area.x2 += area_obj.x1;
 765:Drivers/lvgl/src/widgets/lv_btnmatrix.c ****         btn_area.y2 += area_obj.y1;
 766:Drivers/lvgl/src/widgets/lv_btnmatrix.c **** 
 767:Drivers/lvgl/src/widgets/lv_btnmatrix.c ****         /*Set up the draw descriptors*/
 768:Drivers/lvgl/src/widgets/lv_btnmatrix.c ****         if(btn_state == LV_STATE_DEFAULT) {
 769:Drivers/lvgl/src/widgets/lv_btnmatrix.c ****             lv_memcpy(&draw_rect_dsc_act, &draw_rect_dsc_def, sizeof(lv_draw_rect_dsc_t));
 770:Drivers/lvgl/src/widgets/lv_btnmatrix.c ****             lv_memcpy(&draw_label_dsc_act, &draw_label_dsc_def, sizeof(lv_draw_label_dsc_t));
 771:Drivers/lvgl/src/widgets/lv_btnmatrix.c ****         }
ARM GAS  /var/folders/0z/tsy30v1j4xl4_7kw94k978ww0000gn/T//ccZBZI6H.s 			page 15


 772:Drivers/lvgl/src/widgets/lv_btnmatrix.c ****         /*In other cases get the styles directly without caching them*/
 773:Drivers/lvgl/src/widgets/lv_btnmatrix.c ****         else {
 774:Drivers/lvgl/src/widgets/lv_btnmatrix.c ****             obj->state = btn_state;
 775:Drivers/lvgl/src/widgets/lv_btnmatrix.c ****             obj->skip_trans = 1;
 776:Drivers/lvgl/src/widgets/lv_btnmatrix.c ****             lv_draw_rect_dsc_init(&draw_rect_dsc_act);
 777:Drivers/lvgl/src/widgets/lv_btnmatrix.c ****             lv_draw_label_dsc_init(&draw_label_dsc_act);
 778:Drivers/lvgl/src/widgets/lv_btnmatrix.c ****             lv_obj_init_draw_rect_dsc(obj, LV_PART_ITEMS, &draw_rect_dsc_act);
 779:Drivers/lvgl/src/widgets/lv_btnmatrix.c ****             lv_obj_init_draw_label_dsc(obj, LV_PART_ITEMS, &draw_label_dsc_act);
 780:Drivers/lvgl/src/widgets/lv_btnmatrix.c ****             obj->state = state_ori;
 781:Drivers/lvgl/src/widgets/lv_btnmatrix.c ****             obj->skip_trans = 0;
 782:Drivers/lvgl/src/widgets/lv_btnmatrix.c ****         }
 783:Drivers/lvgl/src/widgets/lv_btnmatrix.c **** 
 784:Drivers/lvgl/src/widgets/lv_btnmatrix.c ****         bool recolor = button_is_recolor(btnm->ctrl_bits[btn_i]);
 785:Drivers/lvgl/src/widgets/lv_btnmatrix.c ****         if(recolor) draw_label_dsc_act.flag |= LV_TEXT_FLAG_RECOLOR;
 786:Drivers/lvgl/src/widgets/lv_btnmatrix.c ****         else draw_label_dsc_act.flag &= ~LV_TEXT_FLAG_RECOLOR;
 787:Drivers/lvgl/src/widgets/lv_btnmatrix.c **** 
 788:Drivers/lvgl/src/widgets/lv_btnmatrix.c **** 
 789:Drivers/lvgl/src/widgets/lv_btnmatrix.c ****         part_draw_dsc.draw_area = &btn_area;
 790:Drivers/lvgl/src/widgets/lv_btnmatrix.c ****         part_draw_dsc.id = btn_i;
 791:Drivers/lvgl/src/widgets/lv_btnmatrix.c ****         lv_event_send(obj, LV_EVENT_DRAW_PART_BEGIN, &part_draw_dsc);
 792:Drivers/lvgl/src/widgets/lv_btnmatrix.c **** 
 793:Drivers/lvgl/src/widgets/lv_btnmatrix.c ****         /*Remove borders on the edges if `LV_BORDER_SIDE_INTERNAL`*/
 794:Drivers/lvgl/src/widgets/lv_btnmatrix.c ****         if(draw_rect_dsc_act.border_side & LV_BORDER_SIDE_INTERNAL) {
 795:Drivers/lvgl/src/widgets/lv_btnmatrix.c ****             draw_rect_dsc_act.border_side = LV_BORDER_SIDE_FULL;
 796:Drivers/lvgl/src/widgets/lv_btnmatrix.c ****             if(btn_area.x1 == obj->coords.x1 + pleft) draw_rect_dsc_act.border_side &= ~LV_BORDER_S
 797:Drivers/lvgl/src/widgets/lv_btnmatrix.c ****             if(btn_area.x2 == obj->coords.x2 - pright) draw_rect_dsc_act.border_side &= ~LV_BORDER_
 798:Drivers/lvgl/src/widgets/lv_btnmatrix.c ****             if(btn_area.y1 == obj->coords.y1 + ptop) draw_rect_dsc_act.border_side &= ~LV_BORDER_SI
 799:Drivers/lvgl/src/widgets/lv_btnmatrix.c ****             if(btn_area.y2 == obj->coords.y2 - pbottom) draw_rect_dsc_act.border_side &= ~LV_BORDER
 800:Drivers/lvgl/src/widgets/lv_btnmatrix.c ****         }
 801:Drivers/lvgl/src/widgets/lv_btnmatrix.c **** 
 802:Drivers/lvgl/src/widgets/lv_btnmatrix.c ****         lv_coord_t btn_height = lv_area_get_height(&btn_area);
 803:Drivers/lvgl/src/widgets/lv_btnmatrix.c **** 
 804:Drivers/lvgl/src/widgets/lv_btnmatrix.c ****         if((btn_state & LV_STATE_PRESSED) && (btnm->ctrl_bits[btn_i] & LV_BTNMATRIX_CTRL_POPOVER)) 
 805:Drivers/lvgl/src/widgets/lv_btnmatrix.c ****             /*Push up the upper boundary of the btn area to create the popover*/
 806:Drivers/lvgl/src/widgets/lv_btnmatrix.c ****             btn_area.y1 -= btn_height;
 807:Drivers/lvgl/src/widgets/lv_btnmatrix.c ****         }
 808:Drivers/lvgl/src/widgets/lv_btnmatrix.c **** 
 809:Drivers/lvgl/src/widgets/lv_btnmatrix.c ****         /*Draw the background*/
 810:Drivers/lvgl/src/widgets/lv_btnmatrix.c ****         lv_draw_rect(draw_ctx, &draw_rect_dsc_act, &btn_area);
 811:Drivers/lvgl/src/widgets/lv_btnmatrix.c **** 
 812:Drivers/lvgl/src/widgets/lv_btnmatrix.c ****         /*Calculate the size of the text*/
 813:Drivers/lvgl/src/widgets/lv_btnmatrix.c ****         const lv_font_t * font = draw_label_dsc_act.font;
 814:Drivers/lvgl/src/widgets/lv_btnmatrix.c ****         lv_coord_t letter_space = draw_label_dsc_act.letter_space;
 815:Drivers/lvgl/src/widgets/lv_btnmatrix.c ****         lv_coord_t line_space = draw_label_dsc_act.line_space;
 816:Drivers/lvgl/src/widgets/lv_btnmatrix.c ****         const char * txt = btnm->map_p[txt_i];
 817:Drivers/lvgl/src/widgets/lv_btnmatrix.c **** 
 818:Drivers/lvgl/src/widgets/lv_btnmatrix.c **** #if LV_USE_ARABIC_PERSIAN_CHARS
 819:Drivers/lvgl/src/widgets/lv_btnmatrix.c ****         /*Get the size of the Arabic text and process it*/
 820:Drivers/lvgl/src/widgets/lv_btnmatrix.c ****         size_t len_ap = _lv_txt_ap_calc_bytes_cnt(txt);
 821:Drivers/lvgl/src/widgets/lv_btnmatrix.c ****         if(len_ap < txt_ap_size) {
 822:Drivers/lvgl/src/widgets/lv_btnmatrix.c ****             _lv_txt_ap_proc(txt, txt_ap);
 823:Drivers/lvgl/src/widgets/lv_btnmatrix.c ****             txt = txt_ap;
 824:Drivers/lvgl/src/widgets/lv_btnmatrix.c ****         }
 825:Drivers/lvgl/src/widgets/lv_btnmatrix.c **** #endif
 826:Drivers/lvgl/src/widgets/lv_btnmatrix.c ****         lv_point_t txt_size;
 827:Drivers/lvgl/src/widgets/lv_btnmatrix.c ****         lv_txt_get_size(&txt_size, txt, font, letter_space,
 828:Drivers/lvgl/src/widgets/lv_btnmatrix.c ****                         line_space, lv_area_get_width(&area_obj), draw_label_dsc_act.flag);
ARM GAS  /var/folders/0z/tsy30v1j4xl4_7kw94k978ww0000gn/T//ccZBZI6H.s 			page 16


 829:Drivers/lvgl/src/widgets/lv_btnmatrix.c **** 
 830:Drivers/lvgl/src/widgets/lv_btnmatrix.c ****         btn_area.x1 += (lv_area_get_width(&btn_area) - txt_size.x) / 2;
 831:Drivers/lvgl/src/widgets/lv_btnmatrix.c ****         btn_area.y1 += (lv_area_get_height(&btn_area) - txt_size.y) / 2;
 832:Drivers/lvgl/src/widgets/lv_btnmatrix.c ****         btn_area.x2 = btn_area.x1 + txt_size.x;
 833:Drivers/lvgl/src/widgets/lv_btnmatrix.c ****         btn_area.y2 = btn_area.y1 + txt_size.y;
 834:Drivers/lvgl/src/widgets/lv_btnmatrix.c **** 
 835:Drivers/lvgl/src/widgets/lv_btnmatrix.c ****         if((btn_state & LV_STATE_PRESSED) && (btnm->ctrl_bits[btn_i] & LV_BTNMATRIX_CTRL_POPOVER)) 
 836:Drivers/lvgl/src/widgets/lv_btnmatrix.c ****             /*Push up the button text into the popover*/
 837:Drivers/lvgl/src/widgets/lv_btnmatrix.c ****             btn_area.y1 -= btn_height / 2;
 838:Drivers/lvgl/src/widgets/lv_btnmatrix.c ****             btn_area.y2 -= btn_height / 2;
 839:Drivers/lvgl/src/widgets/lv_btnmatrix.c ****         }
 840:Drivers/lvgl/src/widgets/lv_btnmatrix.c **** 
 841:Drivers/lvgl/src/widgets/lv_btnmatrix.c ****         /*Draw the text*/
 842:Drivers/lvgl/src/widgets/lv_btnmatrix.c ****         lv_draw_label(draw_ctx, &draw_label_dsc_act, &btn_area, txt, NULL);
 843:Drivers/lvgl/src/widgets/lv_btnmatrix.c **** 
 844:Drivers/lvgl/src/widgets/lv_btnmatrix.c ****         lv_event_send(obj, LV_EVENT_DRAW_PART_END, &part_draw_dsc);
 845:Drivers/lvgl/src/widgets/lv_btnmatrix.c ****     }
 846:Drivers/lvgl/src/widgets/lv_btnmatrix.c **** 
 847:Drivers/lvgl/src/widgets/lv_btnmatrix.c ****     obj->skip_trans = 0;
 848:Drivers/lvgl/src/widgets/lv_btnmatrix.c **** #if LV_USE_ARABIC_PERSIAN_CHARS
 849:Drivers/lvgl/src/widgets/lv_btnmatrix.c ****     lv_mem_buf_release(txt_ap);
 850:Drivers/lvgl/src/widgets/lv_btnmatrix.c **** #endif
 851:Drivers/lvgl/src/widgets/lv_btnmatrix.c **** }
 852:Drivers/lvgl/src/widgets/lv_btnmatrix.c **** /**
 853:Drivers/lvgl/src/widgets/lv_btnmatrix.c ****  * Create the required number of buttons and control bytes according to a map
 854:Drivers/lvgl/src/widgets/lv_btnmatrix.c ****  * @param obj pointer to button matrix object
 855:Drivers/lvgl/src/widgets/lv_btnmatrix.c ****  * @param map_p pointer to a string array
 856:Drivers/lvgl/src/widgets/lv_btnmatrix.c ****  */
 857:Drivers/lvgl/src/widgets/lv_btnmatrix.c **** static void allocate_btn_areas_and_controls(const lv_obj_t * obj, const char ** map)
 858:Drivers/lvgl/src/widgets/lv_btnmatrix.c **** {
 859:Drivers/lvgl/src/widgets/lv_btnmatrix.c ****     lv_btnmatrix_t * btnm = (lv_btnmatrix_t *)obj;
 860:Drivers/lvgl/src/widgets/lv_btnmatrix.c ****     btnm->row_cnt = 1;
 861:Drivers/lvgl/src/widgets/lv_btnmatrix.c ****     /*Count the buttons in the map*/
 862:Drivers/lvgl/src/widgets/lv_btnmatrix.c ****     uint16_t btn_cnt = 0;
 863:Drivers/lvgl/src/widgets/lv_btnmatrix.c ****     uint16_t i       = 0;
 864:Drivers/lvgl/src/widgets/lv_btnmatrix.c ****     while(map[i] && map[i][0] != '\0') {
 865:Drivers/lvgl/src/widgets/lv_btnmatrix.c ****         if(strcmp(map[i], "\n") != 0) { /*Do not count line breaks*/
 866:Drivers/lvgl/src/widgets/lv_btnmatrix.c ****             btn_cnt++;
 867:Drivers/lvgl/src/widgets/lv_btnmatrix.c ****         }
 868:Drivers/lvgl/src/widgets/lv_btnmatrix.c ****         else {
 869:Drivers/lvgl/src/widgets/lv_btnmatrix.c ****             btnm->row_cnt++;
 870:Drivers/lvgl/src/widgets/lv_btnmatrix.c ****         }
 871:Drivers/lvgl/src/widgets/lv_btnmatrix.c ****         i++;
 872:Drivers/lvgl/src/widgets/lv_btnmatrix.c ****     }
 873:Drivers/lvgl/src/widgets/lv_btnmatrix.c **** 
 874:Drivers/lvgl/src/widgets/lv_btnmatrix.c ****     /*Do not allocate memory for the same amount of buttons*/
 875:Drivers/lvgl/src/widgets/lv_btnmatrix.c ****     if(btn_cnt == btnm->btn_cnt) return;
 876:Drivers/lvgl/src/widgets/lv_btnmatrix.c **** 
 877:Drivers/lvgl/src/widgets/lv_btnmatrix.c ****     if(btnm->button_areas != NULL) {
 878:Drivers/lvgl/src/widgets/lv_btnmatrix.c ****         lv_mem_free(btnm->button_areas);
 879:Drivers/lvgl/src/widgets/lv_btnmatrix.c ****         btnm->button_areas = NULL;
 880:Drivers/lvgl/src/widgets/lv_btnmatrix.c ****     }
 881:Drivers/lvgl/src/widgets/lv_btnmatrix.c ****     if(btnm->ctrl_bits != NULL) {
 882:Drivers/lvgl/src/widgets/lv_btnmatrix.c ****         lv_mem_free(btnm->ctrl_bits);
 883:Drivers/lvgl/src/widgets/lv_btnmatrix.c ****         btnm->ctrl_bits = NULL;
 884:Drivers/lvgl/src/widgets/lv_btnmatrix.c ****     }
 885:Drivers/lvgl/src/widgets/lv_btnmatrix.c **** 
ARM GAS  /var/folders/0z/tsy30v1j4xl4_7kw94k978ww0000gn/T//ccZBZI6H.s 			page 17


 886:Drivers/lvgl/src/widgets/lv_btnmatrix.c ****     btnm->button_areas = lv_mem_alloc(sizeof(lv_area_t) * btn_cnt);
 887:Drivers/lvgl/src/widgets/lv_btnmatrix.c ****     LV_ASSERT_MALLOC(btnm->button_areas);
 888:Drivers/lvgl/src/widgets/lv_btnmatrix.c ****     btnm->ctrl_bits = lv_mem_alloc(sizeof(lv_btnmatrix_ctrl_t) * btn_cnt);
 889:Drivers/lvgl/src/widgets/lv_btnmatrix.c ****     LV_ASSERT_MALLOC(btnm->ctrl_bits);
 890:Drivers/lvgl/src/widgets/lv_btnmatrix.c ****     if(btnm->button_areas == NULL || btnm->ctrl_bits == NULL) btn_cnt = 0;
 891:Drivers/lvgl/src/widgets/lv_btnmatrix.c **** 
 892:Drivers/lvgl/src/widgets/lv_btnmatrix.c ****     lv_memset_00(btnm->ctrl_bits, sizeof(lv_btnmatrix_ctrl_t) * btn_cnt);
 893:Drivers/lvgl/src/widgets/lv_btnmatrix.c **** 
 894:Drivers/lvgl/src/widgets/lv_btnmatrix.c ****     btnm->btn_cnt = btn_cnt;
 895:Drivers/lvgl/src/widgets/lv_btnmatrix.c **** }
 896:Drivers/lvgl/src/widgets/lv_btnmatrix.c **** 
 897:Drivers/lvgl/src/widgets/lv_btnmatrix.c **** /**
 898:Drivers/lvgl/src/widgets/lv_btnmatrix.c ****  * Get the width of a button in units (default is 1).
 899:Drivers/lvgl/src/widgets/lv_btnmatrix.c ****  * @param ctrl_bits least significant 3 bits used (1..7 valid values)
 900:Drivers/lvgl/src/widgets/lv_btnmatrix.c ****  * @return the width of the button in units
 901:Drivers/lvgl/src/widgets/lv_btnmatrix.c ****  */
 902:Drivers/lvgl/src/widgets/lv_btnmatrix.c **** static uint8_t get_button_width(lv_btnmatrix_ctrl_t ctrl_bits)
 903:Drivers/lvgl/src/widgets/lv_btnmatrix.c **** {
  29              		.loc 1 903 1 view -0
  30              		.cfi_startproc
  31              		@ args = 0, pretend = 0, frame = 0
  32              		@ frame_needed = 0, uses_anonymous_args = 0
  33              		@ link register save eliminated.
 904:Drivers/lvgl/src/widgets/lv_btnmatrix.c ****     uint8_t w = ctrl_bits & LV_BTNMATRIX_WIDTH_MASK;
  34              		.loc 1 904 5 view .LVU1
 905:Drivers/lvgl/src/widgets/lv_btnmatrix.c ****     return w != 0 ? w : 1;
  35              		.loc 1 905 5 view .LVU2
  36              		.loc 1 905 23 is_stmt 0 view .LVU3
  37 0000 10F00F00 		ands	r0, r0, #15
  38              	.LVL1:
  39              		.loc 1 905 23 view .LVU4
  40 0004 00D1     		bne	.L2
  41 0006 0120     		movs	r0, #1
  42              	.L2:
 906:Drivers/lvgl/src/widgets/lv_btnmatrix.c **** }
  43              		.loc 1 906 1 discriminator 4 view .LVU5
  44 0008 7047     		bx	lr
  45              		.cfi_endproc
  46              	.LFE181:
  48              		.section	.text.button_is_hidden,"ax",%progbits
  49              		.align	1
  50              		.syntax unified
  51              		.thumb
  52              		.thumb_func
  54              	button_is_hidden:
  55              	.LVL2:
  56              	.LFB182:
 907:Drivers/lvgl/src/widgets/lv_btnmatrix.c **** 
 908:Drivers/lvgl/src/widgets/lv_btnmatrix.c **** static bool button_is_hidden(lv_btnmatrix_ctrl_t ctrl_bits)
 909:Drivers/lvgl/src/widgets/lv_btnmatrix.c **** {
  57              		.loc 1 909 1 is_stmt 1 view -0
  58              		.cfi_startproc
  59              		@ args = 0, pretend = 0, frame = 0
  60              		@ frame_needed = 0, uses_anonymous_args = 0
  61              		@ link register save eliminated.
 910:Drivers/lvgl/src/widgets/lv_btnmatrix.c ****     return (ctrl_bits & LV_BTNMATRIX_CTRL_HIDDEN) ? true : false;
  62              		.loc 1 910 5 view .LVU7
ARM GAS  /var/folders/0z/tsy30v1j4xl4_7kw94k978ww0000gn/T//ccZBZI6H.s 			page 18


 911:Drivers/lvgl/src/widgets/lv_btnmatrix.c **** }
  63              		.loc 1 911 1 is_stmt 0 view .LVU8
  64 0000 C0F30010 		ubfx	r0, r0, #4, #1
  65              	.LVL3:
  66              		.loc 1 911 1 view .LVU9
  67 0004 7047     		bx	lr
  68              		.cfi_endproc
  69              	.LFE182:
  71              		.section	.text.button_is_checked,"ax",%progbits
  72              		.align	1
  73              		.syntax unified
  74              		.thumb
  75              		.thumb_func
  77              	button_is_checked:
  78              	.LVL4:
  79              	.LFB183:
 912:Drivers/lvgl/src/widgets/lv_btnmatrix.c **** 
 913:Drivers/lvgl/src/widgets/lv_btnmatrix.c **** static bool button_is_checked(lv_btnmatrix_ctrl_t ctrl_bits)
 914:Drivers/lvgl/src/widgets/lv_btnmatrix.c **** {
  80              		.loc 1 914 1 is_stmt 1 view -0
  81              		.cfi_startproc
  82              		@ args = 0, pretend = 0, frame = 0
  83              		@ frame_needed = 0, uses_anonymous_args = 0
  84              		@ link register save eliminated.
 915:Drivers/lvgl/src/widgets/lv_btnmatrix.c ****     return (ctrl_bits & LV_BTNMATRIX_CTRL_CHECKED) ? true : false;
  85              		.loc 1 915 5 view .LVU11
 916:Drivers/lvgl/src/widgets/lv_btnmatrix.c **** }
  86              		.loc 1 916 1 is_stmt 0 view .LVU12
  87 0000 C0F30020 		ubfx	r0, r0, #8, #1
  88              	.LVL5:
  89              		.loc 1 916 1 view .LVU13
  90 0004 7047     		bx	lr
  91              		.cfi_endproc
  92              	.LFE183:
  94              		.section	.text.button_is_repeat_disabled,"ax",%progbits
  95              		.align	1
  96              		.syntax unified
  97              		.thumb
  98              		.thumb_func
 100              	button_is_repeat_disabled:
 101              	.LVL6:
 102              	.LFB184:
 917:Drivers/lvgl/src/widgets/lv_btnmatrix.c **** 
 918:Drivers/lvgl/src/widgets/lv_btnmatrix.c **** static bool button_is_repeat_disabled(lv_btnmatrix_ctrl_t ctrl_bits)
 919:Drivers/lvgl/src/widgets/lv_btnmatrix.c **** {
 103              		.loc 1 919 1 is_stmt 1 view -0
 104              		.cfi_startproc
 105              		@ args = 0, pretend = 0, frame = 0
 106              		@ frame_needed = 0, uses_anonymous_args = 0
 107              		@ link register save eliminated.
 920:Drivers/lvgl/src/widgets/lv_btnmatrix.c ****     return (ctrl_bits & LV_BTNMATRIX_CTRL_NO_REPEAT) ? true : false;
 108              		.loc 1 920 5 view .LVU15
 921:Drivers/lvgl/src/widgets/lv_btnmatrix.c **** }
 109              		.loc 1 921 1 is_stmt 0 view .LVU16
 110 0000 C0F34010 		ubfx	r0, r0, #5, #1
 111              	.LVL7:
 112              		.loc 1 921 1 view .LVU17
ARM GAS  /var/folders/0z/tsy30v1j4xl4_7kw94k978ww0000gn/T//ccZBZI6H.s 			page 19


 113 0004 7047     		bx	lr
 114              		.cfi_endproc
 115              	.LFE184:
 117              		.section	.text.button_is_inactive,"ax",%progbits
 118              		.align	1
 119              		.syntax unified
 120              		.thumb
 121              		.thumb_func
 123              	button_is_inactive:
 124              	.LVL8:
 125              	.LFB185:
 922:Drivers/lvgl/src/widgets/lv_btnmatrix.c **** 
 923:Drivers/lvgl/src/widgets/lv_btnmatrix.c **** static bool button_is_inactive(lv_btnmatrix_ctrl_t ctrl_bits)
 924:Drivers/lvgl/src/widgets/lv_btnmatrix.c **** {
 126              		.loc 1 924 1 is_stmt 1 view -0
 127              		.cfi_startproc
 128              		@ args = 0, pretend = 0, frame = 0
 129              		@ frame_needed = 0, uses_anonymous_args = 0
 130              		@ link register save eliminated.
 925:Drivers/lvgl/src/widgets/lv_btnmatrix.c ****     return (ctrl_bits & LV_BTNMATRIX_CTRL_DISABLED) ? true : false;
 131              		.loc 1 925 5 view .LVU19
 926:Drivers/lvgl/src/widgets/lv_btnmatrix.c **** }
 132              		.loc 1 926 1 is_stmt 0 view .LVU20
 133 0000 C0F38010 		ubfx	r0, r0, #6, #1
 134              	.LVL9:
 135              		.loc 1 926 1 view .LVU21
 136 0004 7047     		bx	lr
 137              		.cfi_endproc
 138              	.LFE185:
 140              		.section	.text.button_is_click_trig,"ax",%progbits
 141              		.align	1
 142              		.syntax unified
 143              		.thumb
 144              		.thumb_func
 146              	button_is_click_trig:
 147              	.LVL10:
 148              	.LFB186:
 927:Drivers/lvgl/src/widgets/lv_btnmatrix.c **** 
 928:Drivers/lvgl/src/widgets/lv_btnmatrix.c **** static bool button_is_click_trig(lv_btnmatrix_ctrl_t ctrl_bits)
 929:Drivers/lvgl/src/widgets/lv_btnmatrix.c **** {
 149              		.loc 1 929 1 is_stmt 1 view -0
 150              		.cfi_startproc
 151              		@ args = 0, pretend = 0, frame = 0
 152              		@ frame_needed = 0, uses_anonymous_args = 0
 153              		@ link register save eliminated.
 930:Drivers/lvgl/src/widgets/lv_btnmatrix.c ****     return (ctrl_bits & LV_BTNMATRIX_CTRL_CLICK_TRIG) ? true : false;
 154              		.loc 1 930 5 view .LVU23
 931:Drivers/lvgl/src/widgets/lv_btnmatrix.c **** }
 155              		.loc 1 931 1 is_stmt 0 view .LVU24
 156 0000 C0F34020 		ubfx	r0, r0, #9, #1
 157              	.LVL11:
 158              		.loc 1 931 1 view .LVU25
 159 0004 7047     		bx	lr
 160              		.cfi_endproc
 161              	.LFE186:
 163              		.section	.text.button_is_popover,"ax",%progbits
 164              		.align	1
ARM GAS  /var/folders/0z/tsy30v1j4xl4_7kw94k978ww0000gn/T//ccZBZI6H.s 			page 20


 165              		.syntax unified
 166              		.thumb
 167              		.thumb_func
 169              	button_is_popover:
 170              	.LVL12:
 171              	.LFB187:
 932:Drivers/lvgl/src/widgets/lv_btnmatrix.c **** 
 933:Drivers/lvgl/src/widgets/lv_btnmatrix.c **** static bool button_is_popover(lv_btnmatrix_ctrl_t ctrl_bits)
 934:Drivers/lvgl/src/widgets/lv_btnmatrix.c **** {
 172              		.loc 1 934 1 is_stmt 1 view -0
 173              		.cfi_startproc
 174              		@ args = 0, pretend = 0, frame = 0
 175              		@ frame_needed = 0, uses_anonymous_args = 0
 176              		@ link register save eliminated.
 935:Drivers/lvgl/src/widgets/lv_btnmatrix.c ****     return (ctrl_bits & LV_BTNMATRIX_CTRL_POPOVER) ? true : false;
 177              		.loc 1 935 5 view .LVU27
 936:Drivers/lvgl/src/widgets/lv_btnmatrix.c **** }
 178              		.loc 1 936 1 is_stmt 0 view .LVU28
 179 0000 C0F38020 		ubfx	r0, r0, #10, #1
 180              	.LVL13:
 181              		.loc 1 936 1 view .LVU29
 182 0004 7047     		bx	lr
 183              		.cfi_endproc
 184              	.LFE187:
 186              		.section	.text.button_is_checkable,"ax",%progbits
 187              		.align	1
 188              		.syntax unified
 189              		.thumb
 190              		.thumb_func
 192              	button_is_checkable:
 193              	.LVL14:
 194              	.LFB188:
 937:Drivers/lvgl/src/widgets/lv_btnmatrix.c **** 
 938:Drivers/lvgl/src/widgets/lv_btnmatrix.c **** static bool button_is_checkable(lv_btnmatrix_ctrl_t ctrl_bits)
 939:Drivers/lvgl/src/widgets/lv_btnmatrix.c **** {
 195              		.loc 1 939 1 is_stmt 1 view -0
 196              		.cfi_startproc
 197              		@ args = 0, pretend = 0, frame = 0
 198              		@ frame_needed = 0, uses_anonymous_args = 0
 199              		@ link register save eliminated.
 940:Drivers/lvgl/src/widgets/lv_btnmatrix.c ****     return (ctrl_bits & LV_BTNMATRIX_CTRL_CHECKABLE) ? true : false;
 200              		.loc 1 940 5 view .LVU31
 941:Drivers/lvgl/src/widgets/lv_btnmatrix.c **** }
 201              		.loc 1 941 1 is_stmt 0 view .LVU32
 202 0000 C0F3C010 		ubfx	r0, r0, #7, #1
 203              	.LVL15:
 204              		.loc 1 941 1 view .LVU33
 205 0004 7047     		bx	lr
 206              		.cfi_endproc
 207              	.LFE188:
 209              		.section	.text.button_get_checked,"ax",%progbits
 210              		.align	1
 211              		.syntax unified
 212              		.thumb
 213              		.thumb_func
 215              	button_get_checked:
 216              	.LVL16:
ARM GAS  /var/folders/0z/tsy30v1j4xl4_7kw94k978ww0000gn/T//ccZBZI6H.s 			page 21


 217              	.LFB189:
 942:Drivers/lvgl/src/widgets/lv_btnmatrix.c **** 
 943:Drivers/lvgl/src/widgets/lv_btnmatrix.c **** static bool button_get_checked(lv_btnmatrix_ctrl_t ctrl_bits)
 944:Drivers/lvgl/src/widgets/lv_btnmatrix.c **** {
 218              		.loc 1 944 1 is_stmt 1 view -0
 219              		.cfi_startproc
 220              		@ args = 0, pretend = 0, frame = 0
 221              		@ frame_needed = 0, uses_anonymous_args = 0
 222              		@ link register save eliminated.
 945:Drivers/lvgl/src/widgets/lv_btnmatrix.c ****     return (ctrl_bits & LV_BTNMATRIX_CTRL_CHECKED) ? true : false;
 223              		.loc 1 945 5 view .LVU35
 946:Drivers/lvgl/src/widgets/lv_btnmatrix.c **** }
 224              		.loc 1 946 1 is_stmt 0 view .LVU36
 225 0000 C0F30020 		ubfx	r0, r0, #8, #1
 226              	.LVL17:
 227              		.loc 1 946 1 view .LVU37
 228 0004 7047     		bx	lr
 229              		.cfi_endproc
 230              	.LFE189:
 232              		.section	.text.button_is_recolor,"ax",%progbits
 233              		.align	1
 234              		.syntax unified
 235              		.thumb
 236              		.thumb_func
 238              	button_is_recolor:
 239              	.LVL18:
 240              	.LFB190:
 947:Drivers/lvgl/src/widgets/lv_btnmatrix.c **** 
 948:Drivers/lvgl/src/widgets/lv_btnmatrix.c **** static bool button_is_recolor(lv_btnmatrix_ctrl_t ctrl_bits)
 949:Drivers/lvgl/src/widgets/lv_btnmatrix.c **** {
 241              		.loc 1 949 1 is_stmt 1 view -0
 242              		.cfi_startproc
 243              		@ args = 0, pretend = 0, frame = 0
 244              		@ frame_needed = 0, uses_anonymous_args = 0
 245              		@ link register save eliminated.
 950:Drivers/lvgl/src/widgets/lv_btnmatrix.c ****     return (ctrl_bits & LV_BTNMATRIX_CTRL_RECOLOR) ? true : false;
 246              		.loc 1 950 5 view .LVU39
 951:Drivers/lvgl/src/widgets/lv_btnmatrix.c **** }
 247              		.loc 1 951 1 is_stmt 0 view .LVU40
 248 0000 C0F3C020 		ubfx	r0, r0, #11, #1
 249              	.LVL19:
 250              		.loc 1 951 1 view .LVU41
 251 0004 7047     		bx	lr
 252              		.cfi_endproc
 253              	.LFE190:
 255              		.section	.rodata.has_popovers_in_top_row.str1.4,"aMS",%progbits,1
 256              		.align	2
 257              	.LC0:
 258 0000 0A00     		.ascii	"\012\000"
 259              		.section	.text.has_popovers_in_top_row,"ax",%progbits
 260              		.align	1
 261              		.syntax unified
 262              		.thumb
 263              		.thumb_func
 265              	has_popovers_in_top_row:
 266              	.LVL20:
 267              	.LFB194:
ARM GAS  /var/folders/0z/tsy30v1j4xl4_7kw94k978ww0000gn/T//ccZBZI6H.s 			page 22


 952:Drivers/lvgl/src/widgets/lv_btnmatrix.c **** /**
 953:Drivers/lvgl/src/widgets/lv_btnmatrix.c ****  * Gives the button id of a button under a given point
 954:Drivers/lvgl/src/widgets/lv_btnmatrix.c ****  * @param obj pointer to a button matrix object
 955:Drivers/lvgl/src/widgets/lv_btnmatrix.c ****  * @param p a point with absolute coordinates
 956:Drivers/lvgl/src/widgets/lv_btnmatrix.c ****  * @return the id of the button or LV_BTNMATRIX_BTN_NONE.
 957:Drivers/lvgl/src/widgets/lv_btnmatrix.c ****  */
 958:Drivers/lvgl/src/widgets/lv_btnmatrix.c **** static uint16_t get_button_from_point(lv_obj_t * obj, lv_point_t * p)
 959:Drivers/lvgl/src/widgets/lv_btnmatrix.c **** {
 960:Drivers/lvgl/src/widgets/lv_btnmatrix.c ****     lv_area_t obj_cords;
 961:Drivers/lvgl/src/widgets/lv_btnmatrix.c ****     lv_area_t btn_area;
 962:Drivers/lvgl/src/widgets/lv_btnmatrix.c ****     lv_btnmatrix_t * btnm = (lv_btnmatrix_t *)obj;;
 963:Drivers/lvgl/src/widgets/lv_btnmatrix.c ****     uint16_t i;
 964:Drivers/lvgl/src/widgets/lv_btnmatrix.c ****     lv_obj_get_coords(obj, &obj_cords);
 965:Drivers/lvgl/src/widgets/lv_btnmatrix.c **** 
 966:Drivers/lvgl/src/widgets/lv_btnmatrix.c ****     lv_coord_t w = lv_obj_get_width(obj);
 967:Drivers/lvgl/src/widgets/lv_btnmatrix.c ****     lv_coord_t h = lv_obj_get_height(obj);
 968:Drivers/lvgl/src/widgets/lv_btnmatrix.c ****     lv_coord_t pleft = lv_obj_get_style_pad_left(obj, LV_PART_MAIN);
 969:Drivers/lvgl/src/widgets/lv_btnmatrix.c ****     lv_coord_t pright = lv_obj_get_style_pad_right(obj, LV_PART_MAIN);
 970:Drivers/lvgl/src/widgets/lv_btnmatrix.c ****     lv_coord_t ptop = lv_obj_get_style_pad_top(obj, LV_PART_MAIN);
 971:Drivers/lvgl/src/widgets/lv_btnmatrix.c ****     lv_coord_t pbottom = lv_obj_get_style_pad_bottom(obj, LV_PART_MAIN);
 972:Drivers/lvgl/src/widgets/lv_btnmatrix.c ****     lv_coord_t prow = lv_obj_get_style_pad_row(obj, LV_PART_MAIN);
 973:Drivers/lvgl/src/widgets/lv_btnmatrix.c ****     lv_coord_t pcol = lv_obj_get_style_pad_column(obj, LV_PART_MAIN);
 974:Drivers/lvgl/src/widgets/lv_btnmatrix.c **** 
 975:Drivers/lvgl/src/widgets/lv_btnmatrix.c ****     /*Get the half gap. Button look larger with this value. (+1 for rounding error)*/
 976:Drivers/lvgl/src/widgets/lv_btnmatrix.c ****     prow = (prow / 2) + 1 + (prow & 1);
 977:Drivers/lvgl/src/widgets/lv_btnmatrix.c ****     pcol = (pcol / 2) + 1 + (pcol & 1);
 978:Drivers/lvgl/src/widgets/lv_btnmatrix.c **** 
 979:Drivers/lvgl/src/widgets/lv_btnmatrix.c ****     prow = LV_MIN(prow, BTN_EXTRA_CLICK_AREA_MAX);
 980:Drivers/lvgl/src/widgets/lv_btnmatrix.c ****     pcol = LV_MIN(pcol, BTN_EXTRA_CLICK_AREA_MAX);
 981:Drivers/lvgl/src/widgets/lv_btnmatrix.c ****     pright = LV_MIN(pright, BTN_EXTRA_CLICK_AREA_MAX);
 982:Drivers/lvgl/src/widgets/lv_btnmatrix.c ****     ptop = LV_MIN(ptop, BTN_EXTRA_CLICK_AREA_MAX);
 983:Drivers/lvgl/src/widgets/lv_btnmatrix.c ****     pbottom = LV_MIN(pbottom, BTN_EXTRA_CLICK_AREA_MAX);
 984:Drivers/lvgl/src/widgets/lv_btnmatrix.c **** 
 985:Drivers/lvgl/src/widgets/lv_btnmatrix.c ****     for(i = 0; i < btnm->btn_cnt; i++) {
 986:Drivers/lvgl/src/widgets/lv_btnmatrix.c ****         lv_area_copy(&btn_area, &btnm->button_areas[i]);
 987:Drivers/lvgl/src/widgets/lv_btnmatrix.c ****         if(btn_area.x1 <= pleft) btn_area.x1 += obj_cords.x1 - LV_MIN(pleft, BTN_EXTRA_CLICK_AREA_M
 988:Drivers/lvgl/src/widgets/lv_btnmatrix.c ****         else btn_area.x1 += obj_cords.x1 - pcol;
 989:Drivers/lvgl/src/widgets/lv_btnmatrix.c **** 
 990:Drivers/lvgl/src/widgets/lv_btnmatrix.c ****         if(btn_area.y1 <= ptop) btn_area.y1 += obj_cords.y1 - LV_MIN(ptop, BTN_EXTRA_CLICK_AREA_MAX
 991:Drivers/lvgl/src/widgets/lv_btnmatrix.c ****         else btn_area.y1 += obj_cords.y1 - prow;
 992:Drivers/lvgl/src/widgets/lv_btnmatrix.c **** 
 993:Drivers/lvgl/src/widgets/lv_btnmatrix.c ****         if(btn_area.x2 >= w - pright - 2) btn_area.x2 += obj_cords.x1 + LV_MIN(pright,
 994:Drivers/lvgl/src/widgets/lv_btnmatrix.c ****                                                                                    BTN_EXTRA_CLICK_
 995:Drivers/lvgl/src/widgets/lv_btnmatrix.c ****         else btn_area.x2 += obj_cords.x1 + pcol;
 996:Drivers/lvgl/src/widgets/lv_btnmatrix.c **** 
 997:Drivers/lvgl/src/widgets/lv_btnmatrix.c ****         if(btn_area.y2 >= h - pbottom - 2) btn_area.y2 += obj_cords.y1 + LV_MIN(pbottom,
 998:Drivers/lvgl/src/widgets/lv_btnmatrix.c ****                                                                                     BTN_EXTRA_CLICK
 999:Drivers/lvgl/src/widgets/lv_btnmatrix.c ****         else btn_area.y2 += obj_cords.y1 + prow;
1000:Drivers/lvgl/src/widgets/lv_btnmatrix.c **** 
1001:Drivers/lvgl/src/widgets/lv_btnmatrix.c ****         if(_lv_area_is_point_on(&btn_area, p, 0) != false) {
1002:Drivers/lvgl/src/widgets/lv_btnmatrix.c ****             break;
1003:Drivers/lvgl/src/widgets/lv_btnmatrix.c ****         }
1004:Drivers/lvgl/src/widgets/lv_btnmatrix.c ****     }
1005:Drivers/lvgl/src/widgets/lv_btnmatrix.c **** 
1006:Drivers/lvgl/src/widgets/lv_btnmatrix.c ****     if(i == btnm->btn_cnt) i = LV_BTNMATRIX_BTN_NONE;
1007:Drivers/lvgl/src/widgets/lv_btnmatrix.c **** 
1008:Drivers/lvgl/src/widgets/lv_btnmatrix.c ****     return i;
ARM GAS  /var/folders/0z/tsy30v1j4xl4_7kw94k978ww0000gn/T//ccZBZI6H.s 			page 23


1009:Drivers/lvgl/src/widgets/lv_btnmatrix.c **** }
1010:Drivers/lvgl/src/widgets/lv_btnmatrix.c **** 
1011:Drivers/lvgl/src/widgets/lv_btnmatrix.c **** static void invalidate_button_area(const lv_obj_t * obj, uint16_t btn_idx)
1012:Drivers/lvgl/src/widgets/lv_btnmatrix.c **** {
1013:Drivers/lvgl/src/widgets/lv_btnmatrix.c ****     if(btn_idx == LV_BTNMATRIX_BTN_NONE) return;
1014:Drivers/lvgl/src/widgets/lv_btnmatrix.c **** 
1015:Drivers/lvgl/src/widgets/lv_btnmatrix.c ****     lv_area_t btn_area;
1016:Drivers/lvgl/src/widgets/lv_btnmatrix.c ****     lv_area_t obj_area;
1017:Drivers/lvgl/src/widgets/lv_btnmatrix.c **** 
1018:Drivers/lvgl/src/widgets/lv_btnmatrix.c ****     lv_btnmatrix_t * btnm = (lv_btnmatrix_t *)obj;;
1019:Drivers/lvgl/src/widgets/lv_btnmatrix.c ****     if(btn_idx >= btnm->btn_cnt) return;
1020:Drivers/lvgl/src/widgets/lv_btnmatrix.c **** 
1021:Drivers/lvgl/src/widgets/lv_btnmatrix.c ****     lv_area_copy(&btn_area, &btnm->button_areas[btn_idx]);
1022:Drivers/lvgl/src/widgets/lv_btnmatrix.c ****     lv_obj_get_coords(obj, &obj_area);
1023:Drivers/lvgl/src/widgets/lv_btnmatrix.c **** 
1024:Drivers/lvgl/src/widgets/lv_btnmatrix.c ****     /*The buttons might have outline and shadow so make the invalidation larger with the gaps betwe
1025:Drivers/lvgl/src/widgets/lv_btnmatrix.c ****      *It assumes that the outline or shadow is smaller than the gaps*/
1026:Drivers/lvgl/src/widgets/lv_btnmatrix.c ****     lv_coord_t row_gap = lv_obj_get_style_pad_row(obj, LV_PART_MAIN);
1027:Drivers/lvgl/src/widgets/lv_btnmatrix.c ****     lv_coord_t col_gap = lv_obj_get_style_pad_column(obj, LV_PART_MAIN);
1028:Drivers/lvgl/src/widgets/lv_btnmatrix.c **** 
1029:Drivers/lvgl/src/widgets/lv_btnmatrix.c ****     /*Be sure to have a minimal extra space if row/col_gap is small*/
1030:Drivers/lvgl/src/widgets/lv_btnmatrix.c ****     lv_coord_t dpi = lv_disp_get_dpi(lv_obj_get_disp(obj));
1031:Drivers/lvgl/src/widgets/lv_btnmatrix.c ****     row_gap = LV_MAX(row_gap, dpi / 10);
1032:Drivers/lvgl/src/widgets/lv_btnmatrix.c ****     col_gap = LV_MAX(col_gap, dpi / 10);
1033:Drivers/lvgl/src/widgets/lv_btnmatrix.c **** 
1034:Drivers/lvgl/src/widgets/lv_btnmatrix.c ****     /*Convert relative coordinates to absolute*/
1035:Drivers/lvgl/src/widgets/lv_btnmatrix.c ****     btn_area.x1 += obj_area.x1 - row_gap;
1036:Drivers/lvgl/src/widgets/lv_btnmatrix.c ****     btn_area.y1 += obj_area.y1 - col_gap;
1037:Drivers/lvgl/src/widgets/lv_btnmatrix.c ****     btn_area.x2 += obj_area.x1 + row_gap;
1038:Drivers/lvgl/src/widgets/lv_btnmatrix.c ****     btn_area.y2 += obj_area.y1 + col_gap;
1039:Drivers/lvgl/src/widgets/lv_btnmatrix.c **** 
1040:Drivers/lvgl/src/widgets/lv_btnmatrix.c ****     if((btn_idx == btnm->btn_id_sel) && (btnm->ctrl_bits[btn_idx] & LV_BTNMATRIX_CTRL_POPOVER)) {
1041:Drivers/lvgl/src/widgets/lv_btnmatrix.c ****         /*Push up the upper boundary of the btn area to also invalidate the popover*/
1042:Drivers/lvgl/src/widgets/lv_btnmatrix.c ****         btn_area.y1 -= lv_area_get_height(&btn_area);
1043:Drivers/lvgl/src/widgets/lv_btnmatrix.c ****     }
1044:Drivers/lvgl/src/widgets/lv_btnmatrix.c **** 
1045:Drivers/lvgl/src/widgets/lv_btnmatrix.c ****     lv_obj_invalidate_area(obj, &btn_area);
1046:Drivers/lvgl/src/widgets/lv_btnmatrix.c **** }
1047:Drivers/lvgl/src/widgets/lv_btnmatrix.c **** 
1048:Drivers/lvgl/src/widgets/lv_btnmatrix.c **** /**
1049:Drivers/lvgl/src/widgets/lv_btnmatrix.c ****  * Enforces a single button being toggled on the button matrix.
1050:Drivers/lvgl/src/widgets/lv_btnmatrix.c ****  * It simply clears the toggle flag on other buttons.
1051:Drivers/lvgl/src/widgets/lv_btnmatrix.c ****  * @param obj Button matrix object
1052:Drivers/lvgl/src/widgets/lv_btnmatrix.c ****  * @param btn_idx Button that should remain toggled
1053:Drivers/lvgl/src/widgets/lv_btnmatrix.c ****  */
1054:Drivers/lvgl/src/widgets/lv_btnmatrix.c **** static void make_one_button_checked(lv_obj_t * obj, uint16_t btn_idx)
1055:Drivers/lvgl/src/widgets/lv_btnmatrix.c **** {
1056:Drivers/lvgl/src/widgets/lv_btnmatrix.c ****     /*Save whether the button was toggled*/
1057:Drivers/lvgl/src/widgets/lv_btnmatrix.c ****     bool was_toggled = lv_btnmatrix_has_btn_ctrl(obj, btn_idx, LV_BTNMATRIX_CTRL_CHECKED);
1058:Drivers/lvgl/src/widgets/lv_btnmatrix.c **** 
1059:Drivers/lvgl/src/widgets/lv_btnmatrix.c ****     lv_btnmatrix_clear_btn_ctrl_all(obj, LV_BTNMATRIX_CTRL_CHECKED);
1060:Drivers/lvgl/src/widgets/lv_btnmatrix.c **** 
1061:Drivers/lvgl/src/widgets/lv_btnmatrix.c ****     if(was_toggled) lv_btnmatrix_set_btn_ctrl(obj, btn_idx, LV_BTNMATRIX_CTRL_CHECKED);
1062:Drivers/lvgl/src/widgets/lv_btnmatrix.c **** }
1063:Drivers/lvgl/src/widgets/lv_btnmatrix.c **** 
1064:Drivers/lvgl/src/widgets/lv_btnmatrix.c **** /**
1065:Drivers/lvgl/src/widgets/lv_btnmatrix.c ****  * Check if any of the buttons in the first row has the LV_BTNMATRIX_CTRL_POPOVER control flag set.
ARM GAS  /var/folders/0z/tsy30v1j4xl4_7kw94k978ww0000gn/T//ccZBZI6H.s 			page 24


1066:Drivers/lvgl/src/widgets/lv_btnmatrix.c ****  * @param obj Button matrix object
1067:Drivers/lvgl/src/widgets/lv_btnmatrix.c ****  * @return true if at least one button has the flag, false otherwise
1068:Drivers/lvgl/src/widgets/lv_btnmatrix.c ****  */
1069:Drivers/lvgl/src/widgets/lv_btnmatrix.c **** static bool has_popovers_in_top_row(lv_obj_t * obj)
1070:Drivers/lvgl/src/widgets/lv_btnmatrix.c **** {
 268              		.loc 1 1070 1 is_stmt 1 view -0
 269              		.cfi_startproc
 270              		@ args = 0, pretend = 0, frame = 0
 271              		@ frame_needed = 0, uses_anonymous_args = 0
1071:Drivers/lvgl/src/widgets/lv_btnmatrix.c ****     lv_btnmatrix_t * btnm = (lv_btnmatrix_t *)obj;
 272              		.loc 1 1071 5 view .LVU43
1072:Drivers/lvgl/src/widgets/lv_btnmatrix.c **** 
1073:Drivers/lvgl/src/widgets/lv_btnmatrix.c ****     if(btnm->row_cnt <= 0) {
 273              		.loc 1 1073 5 view .LVU44
 274              		.loc 1 1073 12 is_stmt 0 view .LVU45
 275 0000 438E     		ldrh	r3, [r0, #50]
 276              		.loc 1 1073 7 view .LVU46
 277 0002 D3B1     		cbz	r3, .L17
1070:Drivers/lvgl/src/widgets/lv_btnmatrix.c ****     lv_btnmatrix_t * btnm = (lv_btnmatrix_t *)obj;
 278              		.loc 1 1070 1 view .LVU47
 279 0004 2DE9F041 		push	{r4, r5, r6, r7, r8, lr}
 280              		.cfi_def_cfa_offset 24
 281              		.cfi_offset 4, -24
 282              		.cfi_offset 5, -20
 283              		.cfi_offset 6, -16
 284              		.cfi_offset 7, -12
 285              		.cfi_offset 8, -8
 286              		.cfi_offset 14, -4
 287 0008 0746     		mov	r7, r0
1074:Drivers/lvgl/src/widgets/lv_btnmatrix.c ****         return false;
1075:Drivers/lvgl/src/widgets/lv_btnmatrix.c ****     }
1076:Drivers/lvgl/src/widgets/lv_btnmatrix.c **** 
1077:Drivers/lvgl/src/widgets/lv_btnmatrix.c ****     const char ** map_row = btnm->map_p;
 288              		.loc 1 1077 5 is_stmt 1 view .LVU48
 289              		.loc 1 1077 19 is_stmt 0 view .LVU49
 290 000a D0F82480 		ldr	r8, [r0, #36]
 291              	.LVL21:
1078:Drivers/lvgl/src/widgets/lv_btnmatrix.c ****     uint16_t btn_cnt = 0;
 292              		.loc 1 1078 5 is_stmt 1 view .LVU50
1079:Drivers/lvgl/src/widgets/lv_btnmatrix.c **** 
1080:Drivers/lvgl/src/widgets/lv_btnmatrix.c ****     while(map_row[btn_cnt] && strcmp(map_row[btn_cnt], "\n") != 0 && map_row[btn_cnt][0] != '\0') {
 293              		.loc 1 1080 5 view .LVU51
1078:Drivers/lvgl/src/widgets/lv_btnmatrix.c ****     uint16_t btn_cnt = 0;
 294              		.loc 1 1078 14 is_stmt 0 view .LVU52
 295 000e 0024     		movs	r4, #0
 296              	.LVL22:
 297              	.L15:
 298              		.loc 1 1080 67 is_stmt 1 view .LVU53
 299              		.loc 1 1080 18 is_stmt 0 view .LVU54
 300 0010 2646     		mov	r6, r4
 301 0012 58F82450 		ldr	r5, [r8, r4, lsl #2]
 302              		.loc 1 1080 67 view .LVU55
 303 0016 9DB1     		cbz	r5, .L18
 304              		.loc 1 1080 31 discriminator 1 view .LVU56
 305 0018 0C49     		ldr	r1, .L24
 306 001a 2846     		mov	r0, r5
 307 001c FFF7FEFF 		bl	strcmp
ARM GAS  /var/folders/0z/tsy30v1j4xl4_7kw94k978ww0000gn/T//ccZBZI6H.s 			page 25


 308              	.LVL23:
 309              		.loc 1 1080 28 discriminator 1 view .LVU57
 310 0020 90B1     		cbz	r0, .L19
 311              		.loc 1 1080 86 discriminator 2 view .LVU58
 312 0022 2B78     		ldrb	r3, [r5]	@ zero_extendqisi2
 313              		.loc 1 1080 67 discriminator 2 view .LVU59
 314 0024 6BB1     		cbz	r3, .L14
1081:Drivers/lvgl/src/widgets/lv_btnmatrix.c ****         if(button_is_popover(btnm->ctrl_bits[btn_cnt])) {
 315              		.loc 1 1081 9 is_stmt 1 view .LVU60
 316              		.loc 1 1081 34 is_stmt 0 view .LVU61
 317 0026 FB6A     		ldr	r3, [r7, #44]
 318              		.loc 1 1081 12 view .LVU62
 319 0028 33F81600 		ldrh	r0, [r3, r6, lsl #1]
 320 002c FFF7FEFF 		bl	button_is_popover
 321              	.LVL24:
 322              		.loc 1 1081 11 view .LVU63
 323 0030 0346     		mov	r3, r0
 324 0032 30B9     		cbnz	r0, .L14
1082:Drivers/lvgl/src/widgets/lv_btnmatrix.c ****             return true;
1083:Drivers/lvgl/src/widgets/lv_btnmatrix.c ****         }
1084:Drivers/lvgl/src/widgets/lv_btnmatrix.c ****         btn_cnt++;
 325              		.loc 1 1084 9 is_stmt 1 view .LVU64
 326              		.loc 1 1084 16 is_stmt 0 view .LVU65
 327 0034 0134     		adds	r4, r4, #1
 328              	.LVL25:
 329              		.loc 1 1084 16 view .LVU66
 330 0036 A4B2     		uxth	r4, r4
 331              	.LVL26:
 332              		.loc 1 1084 16 view .LVU67
 333 0038 EAE7     		b	.L15
 334              	.LVL27:
 335              	.L17:
 336              		.cfi_def_cfa_offset 0
 337              		.cfi_restore 4
 338              		.cfi_restore 5
 339              		.cfi_restore 6
 340              		.cfi_restore 7
 341              		.cfi_restore 8
 342              		.cfi_restore 14
1074:Drivers/lvgl/src/widgets/lv_btnmatrix.c ****     }
 343              		.loc 1 1074 16 view .LVU68
 344 003a 0023     		movs	r3, #0
1085:Drivers/lvgl/src/widgets/lv_btnmatrix.c ****     }
1086:Drivers/lvgl/src/widgets/lv_btnmatrix.c **** 
1087:Drivers/lvgl/src/widgets/lv_btnmatrix.c ****     return false;
1088:Drivers/lvgl/src/widgets/lv_btnmatrix.c **** }
 345              		.loc 1 1088 1 view .LVU69
 346 003c 1846     		mov	r0, r3
 347              	.LVL28:
 348              		.loc 1 1088 1 view .LVU70
 349 003e 7047     		bx	lr
 350              	.LVL29:
 351              	.L18:
 352              		.cfi_def_cfa_offset 24
 353              		.cfi_offset 4, -24
 354              		.cfi_offset 5, -20
 355              		.cfi_offset 6, -16
ARM GAS  /var/folders/0z/tsy30v1j4xl4_7kw94k978ww0000gn/T//ccZBZI6H.s 			page 26


 356              		.cfi_offset 7, -12
 357              		.cfi_offset 8, -8
 358              		.cfi_offset 14, -4
1087:Drivers/lvgl/src/widgets/lv_btnmatrix.c **** }
 359              		.loc 1 1087 12 view .LVU71
 360 0040 0023     		movs	r3, #0
 361              	.L14:
 362              		.loc 1 1088 1 view .LVU72
 363 0042 1846     		mov	r0, r3
 364 0044 BDE8F081 		pop	{r4, r5, r6, r7, r8, pc}
 365              	.LVL30:
 366              	.L19:
1087:Drivers/lvgl/src/widgets/lv_btnmatrix.c **** }
 367              		.loc 1 1087 12 view .LVU73
 368 0048 0023     		movs	r3, #0
 369 004a FAE7     		b	.L14
 370              	.L25:
 371              		.align	2
 372              	.L24:
 373 004c 00000000 		.word	.LC0
 374              		.cfi_endproc
 375              	.LFE194:
 377              		.section	.text.get_button_from_point,"ax",%progbits
 378              		.align	1
 379              		.syntax unified
 380              		.thumb
 381              		.thumb_func
 383              	get_button_from_point:
 384              	.LVL31:
 385              	.LFB191:
 959:Drivers/lvgl/src/widgets/lv_btnmatrix.c ****     lv_area_t obj_cords;
 386              		.loc 1 959 1 is_stmt 1 view -0
 387              		.cfi_startproc
 388              		@ args = 0, pretend = 0, frame = 32
 389              		@ frame_needed = 0, uses_anonymous_args = 0
 959:Drivers/lvgl/src/widgets/lv_btnmatrix.c ****     lv_area_t obj_cords;
 390              		.loc 1 959 1 is_stmt 0 view .LVU75
 391 0000 2DE9F04F 		push	{r4, r5, r6, r7, r8, r9, r10, fp, lr}
 392              		.cfi_def_cfa_offset 36
 393              		.cfi_offset 4, -36
 394              		.cfi_offset 5, -32
 395              		.cfi_offset 6, -28
 396              		.cfi_offset 7, -24
 397              		.cfi_offset 8, -20
 398              		.cfi_offset 9, -16
 399              		.cfi_offset 10, -12
 400              		.cfi_offset 11, -8
 401              		.cfi_offset 14, -4
 402 0004 89B0     		sub	sp, sp, #36
 403              		.cfi_def_cfa_offset 72
 404 0006 0546     		mov	r5, r0
 405 0008 0391     		str	r1, [sp, #12]
 960:Drivers/lvgl/src/widgets/lv_btnmatrix.c ****     lv_area_t btn_area;
 406              		.loc 1 960 5 is_stmt 1 view .LVU76
 961:Drivers/lvgl/src/widgets/lv_btnmatrix.c ****     lv_btnmatrix_t * btnm = (lv_btnmatrix_t *)obj;;
 407              		.loc 1 961 5 view .LVU77
 962:Drivers/lvgl/src/widgets/lv_btnmatrix.c ****     uint16_t i;
ARM GAS  /var/folders/0z/tsy30v1j4xl4_7kw94k978ww0000gn/T//ccZBZI6H.s 			page 27


 408              		.loc 1 962 5 view .LVU78
 409              	.LVL32:
 962:Drivers/lvgl/src/widgets/lv_btnmatrix.c ****     uint16_t i;
 410              		.loc 1 962 51 view .LVU79
 963:Drivers/lvgl/src/widgets/lv_btnmatrix.c ****     lv_obj_get_coords(obj, &obj_cords);
 411              		.loc 1 963 5 view .LVU80
 964:Drivers/lvgl/src/widgets/lv_btnmatrix.c **** 
 412              		.loc 1 964 5 view .LVU81
 413 000a 06A9     		add	r1, sp, #24
 414              	.LVL33:
 964:Drivers/lvgl/src/widgets/lv_btnmatrix.c **** 
 415              		.loc 1 964 5 is_stmt 0 view .LVU82
 416 000c FFF7FEFF 		bl	lv_obj_get_coords
 417              	.LVL34:
 966:Drivers/lvgl/src/widgets/lv_btnmatrix.c ****     lv_coord_t h = lv_obj_get_height(obj);
 418              		.loc 1 966 5 is_stmt 1 view .LVU83
 966:Drivers/lvgl/src/widgets/lv_btnmatrix.c ****     lv_coord_t h = lv_obj_get_height(obj);
 419              		.loc 1 966 20 is_stmt 0 view .LVU84
 420 0010 2846     		mov	r0, r5
 421 0012 FFF7FEFF 		bl	lv_obj_get_width
 422              	.LVL35:
 423 0016 0190     		str	r0, [sp, #4]
 424              	.LVL36:
 967:Drivers/lvgl/src/widgets/lv_btnmatrix.c ****     lv_coord_t pleft = lv_obj_get_style_pad_left(obj, LV_PART_MAIN);
 425              		.loc 1 967 5 is_stmt 1 view .LVU85
 967:Drivers/lvgl/src/widgets/lv_btnmatrix.c ****     lv_coord_t pleft = lv_obj_get_style_pad_left(obj, LV_PART_MAIN);
 426              		.loc 1 967 20 is_stmt 0 view .LVU86
 427 0018 2846     		mov	r0, r5
 428 001a FFF7FEFF 		bl	lv_obj_get_height
 429              	.LVL37:
 430 001e 0290     		str	r0, [sp, #8]
 431              	.LVL38:
 968:Drivers/lvgl/src/widgets/lv_btnmatrix.c ****     lv_coord_t pright = lv_obj_get_style_pad_right(obj, LV_PART_MAIN);
 432              		.loc 1 968 5 is_stmt 1 view .LVU87
 433              	.LBB81:
 434              	.LBI81:
 435              		.file 2 "Drivers/lvgl/src/widgets/../core/lv_obj_style_gen.h"
   1:Drivers/lvgl/src/widgets/../core/lv_obj_style_gen.h **** static inline lv_coord_t lv_obj_get_style_width(const struct _lv_obj_t * obj, uint32_t part)
   2:Drivers/lvgl/src/widgets/../core/lv_obj_style_gen.h **** {
   3:Drivers/lvgl/src/widgets/../core/lv_obj_style_gen.h ****     lv_style_value_t v = lv_obj_get_style_prop(obj, part, LV_STYLE_WIDTH);
   4:Drivers/lvgl/src/widgets/../core/lv_obj_style_gen.h ****     return (lv_coord_t)v.num;
   5:Drivers/lvgl/src/widgets/../core/lv_obj_style_gen.h **** }
   6:Drivers/lvgl/src/widgets/../core/lv_obj_style_gen.h **** 
   7:Drivers/lvgl/src/widgets/../core/lv_obj_style_gen.h **** static inline lv_coord_t lv_obj_get_style_min_width(const struct _lv_obj_t * obj, uint32_t part)
   8:Drivers/lvgl/src/widgets/../core/lv_obj_style_gen.h **** {
   9:Drivers/lvgl/src/widgets/../core/lv_obj_style_gen.h ****     lv_style_value_t v = lv_obj_get_style_prop(obj, part, LV_STYLE_MIN_WIDTH);
  10:Drivers/lvgl/src/widgets/../core/lv_obj_style_gen.h ****     return (lv_coord_t)v.num;
  11:Drivers/lvgl/src/widgets/../core/lv_obj_style_gen.h **** }
  12:Drivers/lvgl/src/widgets/../core/lv_obj_style_gen.h **** 
  13:Drivers/lvgl/src/widgets/../core/lv_obj_style_gen.h **** static inline lv_coord_t lv_obj_get_style_max_width(const struct _lv_obj_t * obj, uint32_t part)
  14:Drivers/lvgl/src/widgets/../core/lv_obj_style_gen.h **** {
  15:Drivers/lvgl/src/widgets/../core/lv_obj_style_gen.h ****     lv_style_value_t v = lv_obj_get_style_prop(obj, part, LV_STYLE_MAX_WIDTH);
  16:Drivers/lvgl/src/widgets/../core/lv_obj_style_gen.h ****     return (lv_coord_t)v.num;
  17:Drivers/lvgl/src/widgets/../core/lv_obj_style_gen.h **** }
  18:Drivers/lvgl/src/widgets/../core/lv_obj_style_gen.h **** 
  19:Drivers/lvgl/src/widgets/../core/lv_obj_style_gen.h **** static inline lv_coord_t lv_obj_get_style_height(const struct _lv_obj_t * obj, uint32_t part)
  20:Drivers/lvgl/src/widgets/../core/lv_obj_style_gen.h **** {
ARM GAS  /var/folders/0z/tsy30v1j4xl4_7kw94k978ww0000gn/T//ccZBZI6H.s 			page 28


  21:Drivers/lvgl/src/widgets/../core/lv_obj_style_gen.h ****     lv_style_value_t v = lv_obj_get_style_prop(obj, part, LV_STYLE_HEIGHT);
  22:Drivers/lvgl/src/widgets/../core/lv_obj_style_gen.h ****     return (lv_coord_t)v.num;
  23:Drivers/lvgl/src/widgets/../core/lv_obj_style_gen.h **** }
  24:Drivers/lvgl/src/widgets/../core/lv_obj_style_gen.h **** 
  25:Drivers/lvgl/src/widgets/../core/lv_obj_style_gen.h **** static inline lv_coord_t lv_obj_get_style_min_height(const struct _lv_obj_t * obj, uint32_t part)
  26:Drivers/lvgl/src/widgets/../core/lv_obj_style_gen.h **** {
  27:Drivers/lvgl/src/widgets/../core/lv_obj_style_gen.h ****     lv_style_value_t v = lv_obj_get_style_prop(obj, part, LV_STYLE_MIN_HEIGHT);
  28:Drivers/lvgl/src/widgets/../core/lv_obj_style_gen.h ****     return (lv_coord_t)v.num;
  29:Drivers/lvgl/src/widgets/../core/lv_obj_style_gen.h **** }
  30:Drivers/lvgl/src/widgets/../core/lv_obj_style_gen.h **** 
  31:Drivers/lvgl/src/widgets/../core/lv_obj_style_gen.h **** static inline lv_coord_t lv_obj_get_style_max_height(const struct _lv_obj_t * obj, uint32_t part)
  32:Drivers/lvgl/src/widgets/../core/lv_obj_style_gen.h **** {
  33:Drivers/lvgl/src/widgets/../core/lv_obj_style_gen.h ****     lv_style_value_t v = lv_obj_get_style_prop(obj, part, LV_STYLE_MAX_HEIGHT);
  34:Drivers/lvgl/src/widgets/../core/lv_obj_style_gen.h ****     return (lv_coord_t)v.num;
  35:Drivers/lvgl/src/widgets/../core/lv_obj_style_gen.h **** }
  36:Drivers/lvgl/src/widgets/../core/lv_obj_style_gen.h **** 
  37:Drivers/lvgl/src/widgets/../core/lv_obj_style_gen.h **** static inline lv_coord_t lv_obj_get_style_x(const struct _lv_obj_t * obj, uint32_t part)
  38:Drivers/lvgl/src/widgets/../core/lv_obj_style_gen.h **** {
  39:Drivers/lvgl/src/widgets/../core/lv_obj_style_gen.h ****     lv_style_value_t v = lv_obj_get_style_prop(obj, part, LV_STYLE_X);
  40:Drivers/lvgl/src/widgets/../core/lv_obj_style_gen.h ****     return (lv_coord_t)v.num;
  41:Drivers/lvgl/src/widgets/../core/lv_obj_style_gen.h **** }
  42:Drivers/lvgl/src/widgets/../core/lv_obj_style_gen.h **** 
  43:Drivers/lvgl/src/widgets/../core/lv_obj_style_gen.h **** static inline lv_coord_t lv_obj_get_style_y(const struct _lv_obj_t * obj, uint32_t part)
  44:Drivers/lvgl/src/widgets/../core/lv_obj_style_gen.h **** {
  45:Drivers/lvgl/src/widgets/../core/lv_obj_style_gen.h ****     lv_style_value_t v = lv_obj_get_style_prop(obj, part, LV_STYLE_Y);
  46:Drivers/lvgl/src/widgets/../core/lv_obj_style_gen.h ****     return (lv_coord_t)v.num;
  47:Drivers/lvgl/src/widgets/../core/lv_obj_style_gen.h **** }
  48:Drivers/lvgl/src/widgets/../core/lv_obj_style_gen.h **** 
  49:Drivers/lvgl/src/widgets/../core/lv_obj_style_gen.h **** static inline lv_align_t lv_obj_get_style_align(const struct _lv_obj_t * obj, uint32_t part)
  50:Drivers/lvgl/src/widgets/../core/lv_obj_style_gen.h **** {
  51:Drivers/lvgl/src/widgets/../core/lv_obj_style_gen.h ****     lv_style_value_t v = lv_obj_get_style_prop(obj, part, LV_STYLE_ALIGN);
  52:Drivers/lvgl/src/widgets/../core/lv_obj_style_gen.h ****     return (lv_align_t)v.num;
  53:Drivers/lvgl/src/widgets/../core/lv_obj_style_gen.h **** }
  54:Drivers/lvgl/src/widgets/../core/lv_obj_style_gen.h **** 
  55:Drivers/lvgl/src/widgets/../core/lv_obj_style_gen.h **** static inline lv_coord_t lv_obj_get_style_transform_width(const struct _lv_obj_t * obj, uint32_t pa
  56:Drivers/lvgl/src/widgets/../core/lv_obj_style_gen.h **** {
  57:Drivers/lvgl/src/widgets/../core/lv_obj_style_gen.h ****     lv_style_value_t v = lv_obj_get_style_prop(obj, part, LV_STYLE_TRANSFORM_WIDTH);
  58:Drivers/lvgl/src/widgets/../core/lv_obj_style_gen.h ****     return (lv_coord_t)v.num;
  59:Drivers/lvgl/src/widgets/../core/lv_obj_style_gen.h **** }
  60:Drivers/lvgl/src/widgets/../core/lv_obj_style_gen.h **** 
  61:Drivers/lvgl/src/widgets/../core/lv_obj_style_gen.h **** static inline lv_coord_t lv_obj_get_style_transform_height(const struct _lv_obj_t * obj, uint32_t p
  62:Drivers/lvgl/src/widgets/../core/lv_obj_style_gen.h **** {
  63:Drivers/lvgl/src/widgets/../core/lv_obj_style_gen.h ****     lv_style_value_t v = lv_obj_get_style_prop(obj, part, LV_STYLE_TRANSFORM_HEIGHT);
  64:Drivers/lvgl/src/widgets/../core/lv_obj_style_gen.h ****     return (lv_coord_t)v.num;
  65:Drivers/lvgl/src/widgets/../core/lv_obj_style_gen.h **** }
  66:Drivers/lvgl/src/widgets/../core/lv_obj_style_gen.h **** 
  67:Drivers/lvgl/src/widgets/../core/lv_obj_style_gen.h **** static inline lv_coord_t lv_obj_get_style_translate_x(const struct _lv_obj_t * obj, uint32_t part)
  68:Drivers/lvgl/src/widgets/../core/lv_obj_style_gen.h **** {
  69:Drivers/lvgl/src/widgets/../core/lv_obj_style_gen.h ****     lv_style_value_t v = lv_obj_get_style_prop(obj, part, LV_STYLE_TRANSLATE_X);
  70:Drivers/lvgl/src/widgets/../core/lv_obj_style_gen.h ****     return (lv_coord_t)v.num;
  71:Drivers/lvgl/src/widgets/../core/lv_obj_style_gen.h **** }
  72:Drivers/lvgl/src/widgets/../core/lv_obj_style_gen.h **** 
  73:Drivers/lvgl/src/widgets/../core/lv_obj_style_gen.h **** static inline lv_coord_t lv_obj_get_style_translate_y(const struct _lv_obj_t * obj, uint32_t part)
  74:Drivers/lvgl/src/widgets/../core/lv_obj_style_gen.h **** {
  75:Drivers/lvgl/src/widgets/../core/lv_obj_style_gen.h ****     lv_style_value_t v = lv_obj_get_style_prop(obj, part, LV_STYLE_TRANSLATE_Y);
  76:Drivers/lvgl/src/widgets/../core/lv_obj_style_gen.h ****     return (lv_coord_t)v.num;
  77:Drivers/lvgl/src/widgets/../core/lv_obj_style_gen.h **** }
ARM GAS  /var/folders/0z/tsy30v1j4xl4_7kw94k978ww0000gn/T//ccZBZI6H.s 			page 29


  78:Drivers/lvgl/src/widgets/../core/lv_obj_style_gen.h **** 
  79:Drivers/lvgl/src/widgets/../core/lv_obj_style_gen.h **** static inline lv_coord_t lv_obj_get_style_transform_zoom(const struct _lv_obj_t * obj, uint32_t par
  80:Drivers/lvgl/src/widgets/../core/lv_obj_style_gen.h **** {
  81:Drivers/lvgl/src/widgets/../core/lv_obj_style_gen.h ****     lv_style_value_t v = lv_obj_get_style_prop(obj, part, LV_STYLE_TRANSFORM_ZOOM);
  82:Drivers/lvgl/src/widgets/../core/lv_obj_style_gen.h ****     return (lv_coord_t)v.num;
  83:Drivers/lvgl/src/widgets/../core/lv_obj_style_gen.h **** }
  84:Drivers/lvgl/src/widgets/../core/lv_obj_style_gen.h **** 
  85:Drivers/lvgl/src/widgets/../core/lv_obj_style_gen.h **** static inline lv_coord_t lv_obj_get_style_transform_angle(const struct _lv_obj_t * obj, uint32_t pa
  86:Drivers/lvgl/src/widgets/../core/lv_obj_style_gen.h **** {
  87:Drivers/lvgl/src/widgets/../core/lv_obj_style_gen.h ****     lv_style_value_t v = lv_obj_get_style_prop(obj, part, LV_STYLE_TRANSFORM_ANGLE);
  88:Drivers/lvgl/src/widgets/../core/lv_obj_style_gen.h ****     return (lv_coord_t)v.num;
  89:Drivers/lvgl/src/widgets/../core/lv_obj_style_gen.h **** }
  90:Drivers/lvgl/src/widgets/../core/lv_obj_style_gen.h **** 
  91:Drivers/lvgl/src/widgets/../core/lv_obj_style_gen.h **** static inline lv_coord_t lv_obj_get_style_transform_pivot_x(const struct _lv_obj_t * obj, uint32_t 
  92:Drivers/lvgl/src/widgets/../core/lv_obj_style_gen.h **** {
  93:Drivers/lvgl/src/widgets/../core/lv_obj_style_gen.h ****     lv_style_value_t v = lv_obj_get_style_prop(obj, part, LV_STYLE_TRANSFORM_PIVOT_X);
  94:Drivers/lvgl/src/widgets/../core/lv_obj_style_gen.h ****     return (lv_coord_t)v.num;
  95:Drivers/lvgl/src/widgets/../core/lv_obj_style_gen.h **** }
  96:Drivers/lvgl/src/widgets/../core/lv_obj_style_gen.h **** 
  97:Drivers/lvgl/src/widgets/../core/lv_obj_style_gen.h **** static inline lv_coord_t lv_obj_get_style_transform_pivot_y(const struct _lv_obj_t * obj, uint32_t 
  98:Drivers/lvgl/src/widgets/../core/lv_obj_style_gen.h **** {
  99:Drivers/lvgl/src/widgets/../core/lv_obj_style_gen.h ****     lv_style_value_t v = lv_obj_get_style_prop(obj, part, LV_STYLE_TRANSFORM_PIVOT_Y);
 100:Drivers/lvgl/src/widgets/../core/lv_obj_style_gen.h ****     return (lv_coord_t)v.num;
 101:Drivers/lvgl/src/widgets/../core/lv_obj_style_gen.h **** }
 102:Drivers/lvgl/src/widgets/../core/lv_obj_style_gen.h **** 
 103:Drivers/lvgl/src/widgets/../core/lv_obj_style_gen.h **** static inline lv_coord_t lv_obj_get_style_pad_top(const struct _lv_obj_t * obj, uint32_t part)
 104:Drivers/lvgl/src/widgets/../core/lv_obj_style_gen.h **** {
 105:Drivers/lvgl/src/widgets/../core/lv_obj_style_gen.h ****     lv_style_value_t v = lv_obj_get_style_prop(obj, part, LV_STYLE_PAD_TOP);
 106:Drivers/lvgl/src/widgets/../core/lv_obj_style_gen.h ****     return (lv_coord_t)v.num;
 107:Drivers/lvgl/src/widgets/../core/lv_obj_style_gen.h **** }
 108:Drivers/lvgl/src/widgets/../core/lv_obj_style_gen.h **** 
 109:Drivers/lvgl/src/widgets/../core/lv_obj_style_gen.h **** static inline lv_coord_t lv_obj_get_style_pad_bottom(const struct _lv_obj_t * obj, uint32_t part)
 110:Drivers/lvgl/src/widgets/../core/lv_obj_style_gen.h **** {
 111:Drivers/lvgl/src/widgets/../core/lv_obj_style_gen.h ****     lv_style_value_t v = lv_obj_get_style_prop(obj, part, LV_STYLE_PAD_BOTTOM);
 112:Drivers/lvgl/src/widgets/../core/lv_obj_style_gen.h ****     return (lv_coord_t)v.num;
 113:Drivers/lvgl/src/widgets/../core/lv_obj_style_gen.h **** }
 114:Drivers/lvgl/src/widgets/../core/lv_obj_style_gen.h **** 
 115:Drivers/lvgl/src/widgets/../core/lv_obj_style_gen.h **** static inline lv_coord_t lv_obj_get_style_pad_left(const struct _lv_obj_t * obj, uint32_t part)
 436              		.loc 2 115 26 view .LVU88
 437              	.LBB82:
 116:Drivers/lvgl/src/widgets/../core/lv_obj_style_gen.h **** {
 117:Drivers/lvgl/src/widgets/../core/lv_obj_style_gen.h ****     lv_style_value_t v = lv_obj_get_style_prop(obj, part, LV_STYLE_PAD_LEFT);
 438              		.loc 2 117 5 view .LVU89
 439              		.loc 2 117 26 is_stmt 0 view .LVU90
 440 0020 1222     		movs	r2, #18
 441 0022 0021     		movs	r1, #0
 442 0024 2846     		mov	r0, r5
 443 0026 FFF7FEFF 		bl	lv_obj_get_style_prop
 444              	.LVL39:
 118:Drivers/lvgl/src/widgets/../core/lv_obj_style_gen.h ****     return (lv_coord_t)v.num;
 445              		.loc 2 118 5 is_stmt 1 view .LVU91
 446              		.loc 2 118 12 is_stmt 0 view .LVU92
 447 002a 0FFA80FB 		sxth	fp, r0
 448              	.LVL40:
 449              		.loc 2 118 12 view .LVU93
 450              	.LBE82:
 451              	.LBE81:
ARM GAS  /var/folders/0z/tsy30v1j4xl4_7kw94k978ww0000gn/T//ccZBZI6H.s 			page 30


 969:Drivers/lvgl/src/widgets/lv_btnmatrix.c ****     lv_coord_t ptop = lv_obj_get_style_pad_top(obj, LV_PART_MAIN);
 452              		.loc 1 969 5 is_stmt 1 view .LVU94
 453              	.LBB83:
 454              	.LBI83:
 119:Drivers/lvgl/src/widgets/../core/lv_obj_style_gen.h **** }
 120:Drivers/lvgl/src/widgets/../core/lv_obj_style_gen.h **** 
 121:Drivers/lvgl/src/widgets/../core/lv_obj_style_gen.h **** static inline lv_coord_t lv_obj_get_style_pad_right(const struct _lv_obj_t * obj, uint32_t part)
 455              		.loc 2 121 26 view .LVU95
 456              	.LBB84:
 122:Drivers/lvgl/src/widgets/../core/lv_obj_style_gen.h **** {
 123:Drivers/lvgl/src/widgets/../core/lv_obj_style_gen.h ****     lv_style_value_t v = lv_obj_get_style_prop(obj, part, LV_STYLE_PAD_RIGHT);
 457              		.loc 2 123 5 view .LVU96
 458              		.loc 2 123 26 is_stmt 0 view .LVU97
 459 002e 1322     		movs	r2, #19
 460 0030 0021     		movs	r1, #0
 461 0032 2846     		mov	r0, r5
 462 0034 FFF7FEFF 		bl	lv_obj_get_style_prop
 463              	.LVL41:
 124:Drivers/lvgl/src/widgets/../core/lv_obj_style_gen.h ****     return (lv_coord_t)v.num;
 464              		.loc 2 124 5 is_stmt 1 view .LVU98
 465              		.loc 2 124 12 is_stmt 0 view .LVU99
 466 0038 0FFA80F9 		sxth	r9, r0
 467              	.LVL42:
 468              		.loc 2 124 12 view .LVU100
 469              	.LBE84:
 470              	.LBE83:
 970:Drivers/lvgl/src/widgets/lv_btnmatrix.c ****     lv_coord_t pbottom = lv_obj_get_style_pad_bottom(obj, LV_PART_MAIN);
 471              		.loc 1 970 5 is_stmt 1 view .LVU101
 472              	.LBB85:
 473              	.LBI85:
 103:Drivers/lvgl/src/widgets/../core/lv_obj_style_gen.h **** {
 474              		.loc 2 103 26 view .LVU102
 475              	.LBB86:
 105:Drivers/lvgl/src/widgets/../core/lv_obj_style_gen.h ****     return (lv_coord_t)v.num;
 476              		.loc 2 105 5 view .LVU103
 105:Drivers/lvgl/src/widgets/../core/lv_obj_style_gen.h ****     return (lv_coord_t)v.num;
 477              		.loc 2 105 26 is_stmt 0 view .LVU104
 478 003c 1022     		movs	r2, #16
 479 003e 0021     		movs	r1, #0
 480 0040 2846     		mov	r0, r5
 481 0042 FFF7FEFF 		bl	lv_obj_get_style_prop
 482              	.LVL43:
 106:Drivers/lvgl/src/widgets/../core/lv_obj_style_gen.h **** }
 483              		.loc 2 106 5 is_stmt 1 view .LVU105
 106:Drivers/lvgl/src/widgets/../core/lv_obj_style_gen.h **** }
 484              		.loc 2 106 12 is_stmt 0 view .LVU106
 485 0046 0FFA80F8 		sxth	r8, r0
 486              	.LVL44:
 106:Drivers/lvgl/src/widgets/../core/lv_obj_style_gen.h **** }
 487              		.loc 2 106 12 view .LVU107
 488              	.LBE86:
 489              	.LBE85:
 971:Drivers/lvgl/src/widgets/lv_btnmatrix.c ****     lv_coord_t prow = lv_obj_get_style_pad_row(obj, LV_PART_MAIN);
 490              		.loc 1 971 5 is_stmt 1 view .LVU108
 491              	.LBB87:
 492              	.LBI87:
 109:Drivers/lvgl/src/widgets/../core/lv_obj_style_gen.h **** {
ARM GAS  /var/folders/0z/tsy30v1j4xl4_7kw94k978ww0000gn/T//ccZBZI6H.s 			page 31


 493              		.loc 2 109 26 view .LVU109
 494              	.LBB88:
 111:Drivers/lvgl/src/widgets/../core/lv_obj_style_gen.h ****     return (lv_coord_t)v.num;
 495              		.loc 2 111 5 view .LVU110
 111:Drivers/lvgl/src/widgets/../core/lv_obj_style_gen.h ****     return (lv_coord_t)v.num;
 496              		.loc 2 111 26 is_stmt 0 view .LVU111
 497 004a 1122     		movs	r2, #17
 498 004c 0021     		movs	r1, #0
 499 004e 2846     		mov	r0, r5
 500 0050 FFF7FEFF 		bl	lv_obj_get_style_prop
 501              	.LVL45:
 112:Drivers/lvgl/src/widgets/../core/lv_obj_style_gen.h **** }
 502              		.loc 2 112 5 is_stmt 1 view .LVU112
 112:Drivers/lvgl/src/widgets/../core/lv_obj_style_gen.h **** }
 503              		.loc 2 112 12 is_stmt 0 view .LVU113
 504 0054 07B2     		sxth	r7, r0
 505              	.LVL46:
 112:Drivers/lvgl/src/widgets/../core/lv_obj_style_gen.h **** }
 506              		.loc 2 112 12 view .LVU114
 507              	.LBE88:
 508              	.LBE87:
 972:Drivers/lvgl/src/widgets/lv_btnmatrix.c ****     lv_coord_t pcol = lv_obj_get_style_pad_column(obj, LV_PART_MAIN);
 509              		.loc 1 972 5 is_stmt 1 view .LVU115
 510              	.LBB89:
 511              	.LBI89:
 125:Drivers/lvgl/src/widgets/../core/lv_obj_style_gen.h **** }
 126:Drivers/lvgl/src/widgets/../core/lv_obj_style_gen.h **** 
 127:Drivers/lvgl/src/widgets/../core/lv_obj_style_gen.h **** static inline lv_coord_t lv_obj_get_style_pad_row(const struct _lv_obj_t * obj, uint32_t part)
 512              		.loc 2 127 26 view .LVU116
 513              	.LBB90:
 128:Drivers/lvgl/src/widgets/../core/lv_obj_style_gen.h **** {
 129:Drivers/lvgl/src/widgets/../core/lv_obj_style_gen.h ****     lv_style_value_t v = lv_obj_get_style_prop(obj, part, LV_STYLE_PAD_ROW);
 514              		.loc 2 129 5 view .LVU117
 515              		.loc 2 129 26 is_stmt 0 view .LVU118
 516 0056 1422     		movs	r2, #20
 517 0058 0021     		movs	r1, #0
 518 005a 2846     		mov	r0, r5
 519 005c FFF7FEFF 		bl	lv_obj_get_style_prop
 520              	.LVL47:
 521 0060 0446     		mov	r4, r0
 522              	.LVL48:
 130:Drivers/lvgl/src/widgets/../core/lv_obj_style_gen.h ****     return (lv_coord_t)v.num;
 523              		.loc 2 130 5 is_stmt 1 view .LVU119
 524              		.loc 2 130 12 is_stmt 0 view .LVU120
 525 0062 06B2     		sxth	r6, r0
 526              	.LVL49:
 527              		.loc 2 130 12 view .LVU121
 528              	.LBE90:
 529              	.LBE89:
 973:Drivers/lvgl/src/widgets/lv_btnmatrix.c **** 
 530              		.loc 1 973 5 is_stmt 1 view .LVU122
 531              	.LBB91:
 532              	.LBI91:
 131:Drivers/lvgl/src/widgets/../core/lv_obj_style_gen.h **** }
 132:Drivers/lvgl/src/widgets/../core/lv_obj_style_gen.h **** 
 133:Drivers/lvgl/src/widgets/../core/lv_obj_style_gen.h **** static inline lv_coord_t lv_obj_get_style_pad_column(const struct _lv_obj_t * obj, uint32_t part)
 533              		.loc 2 133 26 view .LVU123
ARM GAS  /var/folders/0z/tsy30v1j4xl4_7kw94k978ww0000gn/T//ccZBZI6H.s 			page 32


 534              	.LBB92:
 134:Drivers/lvgl/src/widgets/../core/lv_obj_style_gen.h **** {
 135:Drivers/lvgl/src/widgets/../core/lv_obj_style_gen.h ****     lv_style_value_t v = lv_obj_get_style_prop(obj, part, LV_STYLE_PAD_COLUMN);
 535              		.loc 2 135 5 view .LVU124
 536              		.loc 2 135 26 is_stmt 0 view .LVU125
 537 0064 1522     		movs	r2, #21
 538 0066 0021     		movs	r1, #0
 539 0068 2846     		mov	r0, r5
 540              		.loc 2 135 26 view .LVU126
 541 006a FFF7FEFF 		bl	lv_obj_get_style_prop
 542              	.LVL50:
 136:Drivers/lvgl/src/widgets/../core/lv_obj_style_gen.h ****     return (lv_coord_t)v.num;
 543              		.loc 2 136 5 is_stmt 1 view .LVU127
 544              		.loc 2 136 5 is_stmt 0 view .LVU128
 545              	.LBE92:
 546              	.LBE91:
 976:Drivers/lvgl/src/widgets/lv_btnmatrix.c ****     pcol = (pcol / 2) + 1 + (pcol & 1);
 547              		.loc 1 976 5 is_stmt 1 view .LVU129
 976:Drivers/lvgl/src/widgets/lv_btnmatrix.c ****     pcol = (pcol / 2) + 1 + (pcol & 1);
 548              		.loc 1 976 35 is_stmt 0 view .LVU130
 549 006e 04F00104 		and	r4, r4, #1
 550              	.LVL51:
 976:Drivers/lvgl/src/widgets/lv_btnmatrix.c ****     pcol = (pcol / 2) + 1 + (pcol & 1);
 551              		.loc 1 976 27 view .LVU131
 552 0072 06EBD676 		add	r6, r6, r6, lsr #31
 553              	.LVL52:
 976:Drivers/lvgl/src/widgets/lv_btnmatrix.c ****     pcol = (pcol / 2) + 1 + (pcol & 1);
 554              		.loc 1 976 27 view .LVU132
 555 0076 04EB6606 		add	r6, r4, r6, asr #1
 556 007a 0136     		adds	r6, r6, #1
 976:Drivers/lvgl/src/widgets/lv_btnmatrix.c ****     pcol = (pcol / 2) + 1 + (pcol & 1);
 557              		.loc 1 976 10 view .LVU133
 558 007c 36B2     		sxth	r6, r6
 559              	.LVL53:
 977:Drivers/lvgl/src/widgets/lv_btnmatrix.c **** 
 560              		.loc 1 977 5 is_stmt 1 view .LVU134
 977:Drivers/lvgl/src/widgets/lv_btnmatrix.c **** 
 561              		.loc 1 977 35 is_stmt 0 view .LVU135
 562 007e 00F0010A 		and	r10, r0, #1
 977:Drivers/lvgl/src/widgets/lv_btnmatrix.c **** 
 563              		.loc 1 977 27 view .LVU136
 564 0082 C0F3C033 		ubfx	r3, r0, #15, #1
 565 0086 03FA80F0 		sxtah	r0, r3, r0
 566              	.LVL54:
 977:Drivers/lvgl/src/widgets/lv_btnmatrix.c **** 
 567              		.loc 1 977 27 view .LVU137
 568 008a 0AEB600A 		add	r10, r10, r0, asr #1
 569 008e 0AF1010A 		add	r10, r10, #1
 977:Drivers/lvgl/src/widgets/lv_btnmatrix.c **** 
 570              		.loc 1 977 10 view .LVU138
 571 0092 0FFA8AFA 		sxth	r10, r10
 572              	.LVL55:
 979:Drivers/lvgl/src/widgets/lv_btnmatrix.c ****     pcol = LV_MIN(pcol, BTN_EXTRA_CLICK_AREA_MAX);
 573              		.loc 1 979 5 is_stmt 1 view .LVU139
 979:Drivers/lvgl/src/widgets/lv_btnmatrix.c ****     pcol = LV_MIN(pcol, BTN_EXTRA_CLICK_AREA_MAX);
 574              		.loc 1 979 10 is_stmt 0 view .LVU140
 575 0096 0D2E     		cmp	r6, #13
ARM GAS  /var/folders/0z/tsy30v1j4xl4_7kw94k978ww0000gn/T//ccZBZI6H.s 			page 33


 576 0098 A8BF     		it	ge
 577 009a 0D26     		movge	r6, #13
 578              	.LVL56:
 980:Drivers/lvgl/src/widgets/lv_btnmatrix.c ****     pright = LV_MIN(pright, BTN_EXTRA_CLICK_AREA_MAX);
 579              		.loc 1 980 5 is_stmt 1 view .LVU141
 980:Drivers/lvgl/src/widgets/lv_btnmatrix.c ****     pright = LV_MIN(pright, BTN_EXTRA_CLICK_AREA_MAX);
 580              		.loc 1 980 10 is_stmt 0 view .LVU142
 581 009c BAF10D0F 		cmp	r10, #13
 582 00a0 A8BF     		it	ge
 583 00a2 4FF00D0A 		movge	r10, #13
 584              	.LVL57:
 981:Drivers/lvgl/src/widgets/lv_btnmatrix.c ****     ptop = LV_MIN(ptop, BTN_EXTRA_CLICK_AREA_MAX);
 585              		.loc 1 981 5 is_stmt 1 view .LVU143
 981:Drivers/lvgl/src/widgets/lv_btnmatrix.c ****     ptop = LV_MIN(ptop, BTN_EXTRA_CLICK_AREA_MAX);
 586              		.loc 1 981 12 is_stmt 0 view .LVU144
 587 00a6 B9F10D0F 		cmp	r9, #13
 588 00aa A8BF     		it	ge
 589 00ac 4FF00D09 		movge	r9, #13
 590              	.LVL58:
 982:Drivers/lvgl/src/widgets/lv_btnmatrix.c ****     pbottom = LV_MIN(pbottom, BTN_EXTRA_CLICK_AREA_MAX);
 591              		.loc 1 982 5 is_stmt 1 view .LVU145
 982:Drivers/lvgl/src/widgets/lv_btnmatrix.c ****     pbottom = LV_MIN(pbottom, BTN_EXTRA_CLICK_AREA_MAX);
 592              		.loc 1 982 10 is_stmt 0 view .LVU146
 593 00b0 B8F10D0F 		cmp	r8, #13
 594 00b4 A8BF     		it	ge
 595 00b6 4FF00D08 		movge	r8, #13
 596              	.LVL59:
 983:Drivers/lvgl/src/widgets/lv_btnmatrix.c **** 
 597              		.loc 1 983 5 is_stmt 1 view .LVU147
 983:Drivers/lvgl/src/widgets/lv_btnmatrix.c **** 
 598              		.loc 1 983 13 is_stmt 0 view .LVU148
 599 00ba 0D2F     		cmp	r7, #13
 600 00bc A8BF     		it	ge
 601 00be 0D27     		movge	r7, #13
 602              	.LVL60:
 985:Drivers/lvgl/src/widgets/lv_btnmatrix.c ****         lv_area_copy(&btn_area, &btnm->button_areas[i]);
 603              		.loc 1 985 5 is_stmt 1 view .LVU149
 985:Drivers/lvgl/src/widgets/lv_btnmatrix.c ****         lv_area_copy(&btn_area, &btnm->button_areas[i]);
 604              		.loc 1 985 11 is_stmt 0 view .LVU150
 605 00c0 0024     		movs	r4, #0
 985:Drivers/lvgl/src/widgets/lv_btnmatrix.c ****         lv_area_copy(&btn_area, &btnm->button_areas[i]);
 606              		.loc 1 985 5 view .LVU151
 607 00c2 28E0     		b	.L27
 608              	.LVL61:
 609              	.L28:
 988:Drivers/lvgl/src/widgets/lv_btnmatrix.c **** 
 610              		.loc 1 988 14 is_stmt 1 view .LVU152
 988:Drivers/lvgl/src/widgets/lv_btnmatrix.c **** 
 611              		.loc 1 988 38 is_stmt 0 view .LVU153
 612 00c4 BDF81830 		ldrh	r3, [sp, #24]
 988:Drivers/lvgl/src/widgets/lv_btnmatrix.c **** 
 613              		.loc 1 988 42 view .LVU154
 614 00c8 A3EB0A03 		sub	r3, r3, r10
 988:Drivers/lvgl/src/widgets/lv_btnmatrix.c **** 
 615              		.loc 1 988 26 view .LVU155
 616 00cc 1CFA83F3 		uxtah	r3, ip, r3
 617 00d0 ADF81030 		strh	r3, [sp, #16]	@ movhi
ARM GAS  /var/folders/0z/tsy30v1j4xl4_7kw94k978ww0000gn/T//ccZBZI6H.s 			page 34


 618 00d4 47E0     		b	.L29
 619              	.L30:
 991:Drivers/lvgl/src/widgets/lv_btnmatrix.c **** 
 620              		.loc 1 991 14 is_stmt 1 view .LVU156
 991:Drivers/lvgl/src/widgets/lv_btnmatrix.c **** 
 621              		.loc 1 991 38 is_stmt 0 view .LVU157
 622 00d6 BDF81A30 		ldrh	r3, [sp, #26]
 991:Drivers/lvgl/src/widgets/lv_btnmatrix.c **** 
 623              		.loc 1 991 42 view .LVU158
 624 00da 9B1B     		subs	r3, r3, r6
 991:Drivers/lvgl/src/widgets/lv_btnmatrix.c **** 
 625              		.loc 1 991 26 view .LVU159
 626 00dc 10FA83F3 		uxtah	r3, r0, r3
 627 00e0 ADF81230 		strh	r3, [sp, #18]	@ movhi
 628 00e4 51E0     		b	.L31
 629              	.L32:
 995:Drivers/lvgl/src/widgets/lv_btnmatrix.c **** 
 630              		.loc 1 995 14 is_stmt 1 view .LVU160
 995:Drivers/lvgl/src/widgets/lv_btnmatrix.c **** 
 631              		.loc 1 995 38 is_stmt 0 view .LVU161
 632 00e6 BDF81830 		ldrh	r3, [sp, #24]
 995:Drivers/lvgl/src/widgets/lv_btnmatrix.c **** 
 633              		.loc 1 995 42 view .LVU162
 634 00ea 5344     		add	r3, r3, r10
 995:Drivers/lvgl/src/widgets/lv_btnmatrix.c **** 
 635              		.loc 1 995 26 view .LVU163
 636 00ec 11FA83F3 		uxtah	r3, r1, r3
 637 00f0 ADF81430 		strh	r3, [sp, #20]	@ movhi
 638 00f4 5BE0     		b	.L33
 639              	.L34:
 999:Drivers/lvgl/src/widgets/lv_btnmatrix.c **** 
 640              		.loc 1 999 14 is_stmt 1 view .LVU164
 999:Drivers/lvgl/src/widgets/lv_btnmatrix.c **** 
 641              		.loc 1 999 38 is_stmt 0 view .LVU165
 642 00f6 BDF81A30 		ldrh	r3, [sp, #26]
 999:Drivers/lvgl/src/widgets/lv_btnmatrix.c **** 
 643              		.loc 1 999 42 view .LVU166
 644 00fa 3344     		add	r3, r3, r6
 999:Drivers/lvgl/src/widgets/lv_btnmatrix.c **** 
 645              		.loc 1 999 26 view .LVU167
 646 00fc 12FA83F3 		uxtah	r3, r2, r3
 647 0100 ADF81630 		strh	r3, [sp, #22]	@ movhi
 648              	.L35:
1001:Drivers/lvgl/src/widgets/lv_btnmatrix.c ****             break;
 649              		.loc 1 1001 9 is_stmt 1 view .LVU168
1001:Drivers/lvgl/src/widgets/lv_btnmatrix.c ****             break;
 650              		.loc 1 1001 12 is_stmt 0 view .LVU169
 651 0104 0022     		movs	r2, #0
 652 0106 0399     		ldr	r1, [sp, #12]
 653 0108 04A8     		add	r0, sp, #16
 654 010a FFF7FEFF 		bl	_lv_area_is_point_on
 655              	.LVL62:
1001:Drivers/lvgl/src/widgets/lv_btnmatrix.c ****             break;
 656              		.loc 1 1001 11 view .LVU170
 657 010e 0028     		cmp	r0, #0
 658 0110 5FD1     		bne	.L36
 985:Drivers/lvgl/src/widgets/lv_btnmatrix.c ****         lv_area_copy(&btn_area, &btnm->button_areas[i]);
ARM GAS  /var/folders/0z/tsy30v1j4xl4_7kw94k978ww0000gn/T//ccZBZI6H.s 			page 35


 659              		.loc 1 985 36 is_stmt 1 discriminator 2 view .LVU171
 660 0112 0134     		adds	r4, r4, #1
 661              	.LVL63:
 985:Drivers/lvgl/src/widgets/lv_btnmatrix.c ****         lv_area_copy(&btn_area, &btnm->button_areas[i]);
 662              		.loc 1 985 36 is_stmt 0 discriminator 2 view .LVU172
 663 0114 A4B2     		uxth	r4, r4
 664              	.LVL64:
 665              	.L27:
 985:Drivers/lvgl/src/widgets/lv_btnmatrix.c ****         lv_area_copy(&btn_area, &btnm->button_areas[i]);
 666              		.loc 1 985 18 is_stmt 1 discriminator 1 view .LVU173
 985:Drivers/lvgl/src/widgets/lv_btnmatrix.c ****         lv_area_copy(&btn_area, &btnm->button_areas[i]);
 667              		.loc 1 985 24 is_stmt 0 discriminator 1 view .LVU174
 668 0116 2B8E     		ldrh	r3, [r5, #48]
 985:Drivers/lvgl/src/widgets/lv_btnmatrix.c ****         lv_area_copy(&btn_area, &btnm->button_areas[i]);
 669              		.loc 1 985 18 discriminator 1 view .LVU175
 670 0118 A342     		cmp	r3, r4
 671 011a 5AD9     		bls	.L36
 986:Drivers/lvgl/src/widgets/lv_btnmatrix.c ****         if(btn_area.x1 <= pleft) btn_area.x1 += obj_cords.x1 - LV_MIN(pleft, BTN_EXTRA_CLICK_AREA_M
 672              		.loc 1 986 9 is_stmt 1 view .LVU176
 986:Drivers/lvgl/src/widgets/lv_btnmatrix.c ****         if(btn_area.x1 <= pleft) btn_area.x1 += obj_cords.x1 - LV_MIN(pleft, BTN_EXTRA_CLICK_AREA_M
 673              		.loc 1 986 38 is_stmt 0 view .LVU177
 674 011c AA6A     		ldr	r2, [r5, #40]
 986:Drivers/lvgl/src/widgets/lv_btnmatrix.c ****         if(btn_area.x1 <= pleft) btn_area.x1 += obj_cords.x1 - LV_MIN(pleft, BTN_EXTRA_CLICK_AREA_M
 675              		.loc 1 986 33 view .LVU178
 676 011e 02EBC403 		add	r3, r2, r4, lsl #3
 677              	.LVL65:
 678              	.LBB93:
 679              	.LBI93:
 680              		.file 3 "Drivers/lvgl/src/widgets/../core/../misc/../font/../misc/lv_area.h"
   1:Drivers/lvgl/src/widgets/../core/../misc/../font/../misc/lv_area.h **** /**
   2:Drivers/lvgl/src/widgets/../core/../misc/../font/../misc/lv_area.h ****  * @file lv_area.h
   3:Drivers/lvgl/src/widgets/../core/../misc/../font/../misc/lv_area.h ****  *
   4:Drivers/lvgl/src/widgets/../core/../misc/../font/../misc/lv_area.h ****  */
   5:Drivers/lvgl/src/widgets/../core/../misc/../font/../misc/lv_area.h **** 
   6:Drivers/lvgl/src/widgets/../core/../misc/../font/../misc/lv_area.h **** #ifndef LV_AREA_H
   7:Drivers/lvgl/src/widgets/../core/../misc/../font/../misc/lv_area.h **** #define LV_AREA_H
   8:Drivers/lvgl/src/widgets/../core/../misc/../font/../misc/lv_area.h **** 
   9:Drivers/lvgl/src/widgets/../core/../misc/../font/../misc/lv_area.h **** #ifdef __cplusplus
  10:Drivers/lvgl/src/widgets/../core/../misc/../font/../misc/lv_area.h **** extern "C" {
  11:Drivers/lvgl/src/widgets/../core/../misc/../font/../misc/lv_area.h **** #endif
  12:Drivers/lvgl/src/widgets/../core/../misc/../font/../misc/lv_area.h **** 
  13:Drivers/lvgl/src/widgets/../core/../misc/../font/../misc/lv_area.h **** /*********************
  14:Drivers/lvgl/src/widgets/../core/../misc/../font/../misc/lv_area.h ****  *      INCLUDES
  15:Drivers/lvgl/src/widgets/../core/../misc/../font/../misc/lv_area.h ****  *********************/
  16:Drivers/lvgl/src/widgets/../core/../misc/../font/../misc/lv_area.h **** #include "../lv_conf_internal.h"
  17:Drivers/lvgl/src/widgets/../core/../misc/../font/../misc/lv_area.h **** #include <stdbool.h>
  18:Drivers/lvgl/src/widgets/../core/../misc/../font/../misc/lv_area.h **** #include <stdint.h>
  19:Drivers/lvgl/src/widgets/../core/../misc/../font/../misc/lv_area.h **** 
  20:Drivers/lvgl/src/widgets/../core/../misc/../font/../misc/lv_area.h **** /*********************
  21:Drivers/lvgl/src/widgets/../core/../misc/../font/../misc/lv_area.h ****  *      DEFINES
  22:Drivers/lvgl/src/widgets/../core/../misc/../font/../misc/lv_area.h ****  *********************/
  23:Drivers/lvgl/src/widgets/../core/../misc/../font/../misc/lv_area.h **** 
  24:Drivers/lvgl/src/widgets/../core/../misc/../font/../misc/lv_area.h **** #if LV_USE_LARGE_COORD
  25:Drivers/lvgl/src/widgets/../core/../misc/../font/../misc/lv_area.h **** typedef int32_t lv_coord_t;
  26:Drivers/lvgl/src/widgets/../core/../misc/../font/../misc/lv_area.h **** #else
  27:Drivers/lvgl/src/widgets/../core/../misc/../font/../misc/lv_area.h **** typedef int16_t lv_coord_t;
  28:Drivers/lvgl/src/widgets/../core/../misc/../font/../misc/lv_area.h **** #endif
ARM GAS  /var/folders/0z/tsy30v1j4xl4_7kw94k978ww0000gn/T//ccZBZI6H.s 			page 36


  29:Drivers/lvgl/src/widgets/../core/../misc/../font/../misc/lv_area.h **** 
  30:Drivers/lvgl/src/widgets/../core/../misc/../font/../misc/lv_area.h **** /**********************
  31:Drivers/lvgl/src/widgets/../core/../misc/../font/../misc/lv_area.h ****  *      TYPEDEFS
  32:Drivers/lvgl/src/widgets/../core/../misc/../font/../misc/lv_area.h ****  **********************/
  33:Drivers/lvgl/src/widgets/../core/../misc/../font/../misc/lv_area.h **** 
  34:Drivers/lvgl/src/widgets/../core/../misc/../font/../misc/lv_area.h **** /**
  35:Drivers/lvgl/src/widgets/../core/../misc/../font/../misc/lv_area.h ****  * Represents a point on the screen.
  36:Drivers/lvgl/src/widgets/../core/../misc/../font/../misc/lv_area.h ****  */
  37:Drivers/lvgl/src/widgets/../core/../misc/../font/../misc/lv_area.h **** typedef struct {
  38:Drivers/lvgl/src/widgets/../core/../misc/../font/../misc/lv_area.h ****     lv_coord_t x;
  39:Drivers/lvgl/src/widgets/../core/../misc/../font/../misc/lv_area.h ****     lv_coord_t y;
  40:Drivers/lvgl/src/widgets/../core/../misc/../font/../misc/lv_area.h **** } lv_point_t;
  41:Drivers/lvgl/src/widgets/../core/../misc/../font/../misc/lv_area.h **** 
  42:Drivers/lvgl/src/widgets/../core/../misc/../font/../misc/lv_area.h **** /** Represents an area of the screen.*/
  43:Drivers/lvgl/src/widgets/../core/../misc/../font/../misc/lv_area.h **** typedef struct {
  44:Drivers/lvgl/src/widgets/../core/../misc/../font/../misc/lv_area.h ****     lv_coord_t x1;
  45:Drivers/lvgl/src/widgets/../core/../misc/../font/../misc/lv_area.h ****     lv_coord_t y1;
  46:Drivers/lvgl/src/widgets/../core/../misc/../font/../misc/lv_area.h ****     lv_coord_t x2;
  47:Drivers/lvgl/src/widgets/../core/../misc/../font/../misc/lv_area.h ****     lv_coord_t y2;
  48:Drivers/lvgl/src/widgets/../core/../misc/../font/../misc/lv_area.h **** } lv_area_t;
  49:Drivers/lvgl/src/widgets/../core/../misc/../font/../misc/lv_area.h **** 
  50:Drivers/lvgl/src/widgets/../core/../misc/../font/../misc/lv_area.h **** /** Alignments*/
  51:Drivers/lvgl/src/widgets/../core/../misc/../font/../misc/lv_area.h **** enum {
  52:Drivers/lvgl/src/widgets/../core/../misc/../font/../misc/lv_area.h ****     LV_ALIGN_DEFAULT = 0,
  53:Drivers/lvgl/src/widgets/../core/../misc/../font/../misc/lv_area.h ****     LV_ALIGN_TOP_LEFT,
  54:Drivers/lvgl/src/widgets/../core/../misc/../font/../misc/lv_area.h ****     LV_ALIGN_TOP_MID,
  55:Drivers/lvgl/src/widgets/../core/../misc/../font/../misc/lv_area.h ****     LV_ALIGN_TOP_RIGHT,
  56:Drivers/lvgl/src/widgets/../core/../misc/../font/../misc/lv_area.h ****     LV_ALIGN_BOTTOM_LEFT,
  57:Drivers/lvgl/src/widgets/../core/../misc/../font/../misc/lv_area.h ****     LV_ALIGN_BOTTOM_MID,
  58:Drivers/lvgl/src/widgets/../core/../misc/../font/../misc/lv_area.h ****     LV_ALIGN_BOTTOM_RIGHT,
  59:Drivers/lvgl/src/widgets/../core/../misc/../font/../misc/lv_area.h ****     LV_ALIGN_LEFT_MID,
  60:Drivers/lvgl/src/widgets/../core/../misc/../font/../misc/lv_area.h ****     LV_ALIGN_RIGHT_MID,
  61:Drivers/lvgl/src/widgets/../core/../misc/../font/../misc/lv_area.h ****     LV_ALIGN_CENTER,
  62:Drivers/lvgl/src/widgets/../core/../misc/../font/../misc/lv_area.h **** 
  63:Drivers/lvgl/src/widgets/../core/../misc/../font/../misc/lv_area.h ****     LV_ALIGN_OUT_TOP_LEFT,
  64:Drivers/lvgl/src/widgets/../core/../misc/../font/../misc/lv_area.h ****     LV_ALIGN_OUT_TOP_MID,
  65:Drivers/lvgl/src/widgets/../core/../misc/../font/../misc/lv_area.h ****     LV_ALIGN_OUT_TOP_RIGHT,
  66:Drivers/lvgl/src/widgets/../core/../misc/../font/../misc/lv_area.h ****     LV_ALIGN_OUT_BOTTOM_LEFT,
  67:Drivers/lvgl/src/widgets/../core/../misc/../font/../misc/lv_area.h ****     LV_ALIGN_OUT_BOTTOM_MID,
  68:Drivers/lvgl/src/widgets/../core/../misc/../font/../misc/lv_area.h ****     LV_ALIGN_OUT_BOTTOM_RIGHT,
  69:Drivers/lvgl/src/widgets/../core/../misc/../font/../misc/lv_area.h ****     LV_ALIGN_OUT_LEFT_TOP,
  70:Drivers/lvgl/src/widgets/../core/../misc/../font/../misc/lv_area.h ****     LV_ALIGN_OUT_LEFT_MID,
  71:Drivers/lvgl/src/widgets/../core/../misc/../font/../misc/lv_area.h ****     LV_ALIGN_OUT_LEFT_BOTTOM,
  72:Drivers/lvgl/src/widgets/../core/../misc/../font/../misc/lv_area.h ****     LV_ALIGN_OUT_RIGHT_TOP,
  73:Drivers/lvgl/src/widgets/../core/../misc/../font/../misc/lv_area.h ****     LV_ALIGN_OUT_RIGHT_MID,
  74:Drivers/lvgl/src/widgets/../core/../misc/../font/../misc/lv_area.h ****     LV_ALIGN_OUT_RIGHT_BOTTOM,
  75:Drivers/lvgl/src/widgets/../core/../misc/../font/../misc/lv_area.h **** };
  76:Drivers/lvgl/src/widgets/../core/../misc/../font/../misc/lv_area.h **** typedef uint8_t lv_align_t;
  77:Drivers/lvgl/src/widgets/../core/../misc/../font/../misc/lv_area.h **** 
  78:Drivers/lvgl/src/widgets/../core/../misc/../font/../misc/lv_area.h **** enum {
  79:Drivers/lvgl/src/widgets/../core/../misc/../font/../misc/lv_area.h ****     LV_DIR_NONE     = 0x00,
  80:Drivers/lvgl/src/widgets/../core/../misc/../font/../misc/lv_area.h ****     LV_DIR_LEFT     = (1 << 0),
  81:Drivers/lvgl/src/widgets/../core/../misc/../font/../misc/lv_area.h ****     LV_DIR_RIGHT    = (1 << 1),
  82:Drivers/lvgl/src/widgets/../core/../misc/../font/../misc/lv_area.h ****     LV_DIR_TOP      = (1 << 2),
  83:Drivers/lvgl/src/widgets/../core/../misc/../font/../misc/lv_area.h ****     LV_DIR_BOTTOM   = (1 << 3),
  84:Drivers/lvgl/src/widgets/../core/../misc/../font/../misc/lv_area.h ****     LV_DIR_HOR      = LV_DIR_LEFT | LV_DIR_RIGHT,
  85:Drivers/lvgl/src/widgets/../core/../misc/../font/../misc/lv_area.h ****     LV_DIR_VER      = LV_DIR_TOP | LV_DIR_BOTTOM,
ARM GAS  /var/folders/0z/tsy30v1j4xl4_7kw94k978ww0000gn/T//ccZBZI6H.s 			page 37


  86:Drivers/lvgl/src/widgets/../core/../misc/../font/../misc/lv_area.h ****     LV_DIR_ALL      = LV_DIR_HOR | LV_DIR_VER,
  87:Drivers/lvgl/src/widgets/../core/../misc/../font/../misc/lv_area.h **** };
  88:Drivers/lvgl/src/widgets/../core/../misc/../font/../misc/lv_area.h **** 
  89:Drivers/lvgl/src/widgets/../core/../misc/../font/../misc/lv_area.h **** typedef uint8_t lv_dir_t;
  90:Drivers/lvgl/src/widgets/../core/../misc/../font/../misc/lv_area.h **** 
  91:Drivers/lvgl/src/widgets/../core/../misc/../font/../misc/lv_area.h **** /**********************
  92:Drivers/lvgl/src/widgets/../core/../misc/../font/../misc/lv_area.h ****  * GLOBAL PROTOTYPES
  93:Drivers/lvgl/src/widgets/../core/../misc/../font/../misc/lv_area.h ****  **********************/
  94:Drivers/lvgl/src/widgets/../core/../misc/../font/../misc/lv_area.h **** 
  95:Drivers/lvgl/src/widgets/../core/../misc/../font/../misc/lv_area.h **** /**
  96:Drivers/lvgl/src/widgets/../core/../misc/../font/../misc/lv_area.h ****  * Initialize an area
  97:Drivers/lvgl/src/widgets/../core/../misc/../font/../misc/lv_area.h ****  * @param area_p pointer to an area
  98:Drivers/lvgl/src/widgets/../core/../misc/../font/../misc/lv_area.h ****  * @param x1 left coordinate of the area
  99:Drivers/lvgl/src/widgets/../core/../misc/../font/../misc/lv_area.h ****  * @param y1 top coordinate of the area
 100:Drivers/lvgl/src/widgets/../core/../misc/../font/../misc/lv_area.h ****  * @param x2 right coordinate of the area
 101:Drivers/lvgl/src/widgets/../core/../misc/../font/../misc/lv_area.h ****  * @param y2 bottom coordinate of the area
 102:Drivers/lvgl/src/widgets/../core/../misc/../font/../misc/lv_area.h ****  */
 103:Drivers/lvgl/src/widgets/../core/../misc/../font/../misc/lv_area.h **** void lv_area_set(lv_area_t * area_p, lv_coord_t x1, lv_coord_t y1, lv_coord_t x2, lv_coord_t y2);
 104:Drivers/lvgl/src/widgets/../core/../misc/../font/../misc/lv_area.h **** 
 105:Drivers/lvgl/src/widgets/../core/../misc/../font/../misc/lv_area.h **** /**
 106:Drivers/lvgl/src/widgets/../core/../misc/../font/../misc/lv_area.h ****  * Copy an area
 107:Drivers/lvgl/src/widgets/../core/../misc/../font/../misc/lv_area.h ****  * @param dest pointer to the destination area
 108:Drivers/lvgl/src/widgets/../core/../misc/../font/../misc/lv_area.h ****  * @param src pointer to the source area
 109:Drivers/lvgl/src/widgets/../core/../misc/../font/../misc/lv_area.h ****  */
 110:Drivers/lvgl/src/widgets/../core/../misc/../font/../misc/lv_area.h **** inline static void lv_area_copy(lv_area_t * dest, const lv_area_t * src)
 681              		.loc 3 110 20 is_stmt 1 view .LVU179
 682              	.LBB94:
 111:Drivers/lvgl/src/widgets/../core/../misc/../font/../misc/lv_area.h **** {
 112:Drivers/lvgl/src/widgets/../core/../misc/../font/../misc/lv_area.h ****     dest->x1 = src->x1;
 683              		.loc 3 112 5 view .LVU180
 684              		.loc 3 112 19 is_stmt 0 view .LVU181
 685 0122 32F934C0 		ldrsh	ip, [r2, r4, lsl #3]
 686              		.loc 3 112 14 view .LVU182
 687 0126 ADF810C0 		strh	ip, [sp, #16]	@ movhi
 113:Drivers/lvgl/src/widgets/../core/../misc/../font/../misc/lv_area.h ****     dest->y1 = src->y1;
 688              		.loc 3 113 5 is_stmt 1 view .LVU183
 689              		.loc 3 113 19 is_stmt 0 view .LVU184
 690 012a B3F90200 		ldrsh	r0, [r3, #2]
 691              		.loc 3 113 14 view .LVU185
 692 012e ADF81200 		strh	r0, [sp, #18]	@ movhi
 114:Drivers/lvgl/src/widgets/../core/../misc/../font/../misc/lv_area.h ****     dest->x2 = src->x2;
 693              		.loc 3 114 5 is_stmt 1 view .LVU186
 694              		.loc 3 114 19 is_stmt 0 view .LVU187
 695 0132 B3F90410 		ldrsh	r1, [r3, #4]
 696              		.loc 3 114 14 view .LVU188
 697 0136 ADF81410 		strh	r1, [sp, #20]	@ movhi
 115:Drivers/lvgl/src/widgets/../core/../misc/../font/../misc/lv_area.h ****     dest->y2 = src->y2;
 698              		.loc 3 115 5 is_stmt 1 view .LVU189
 699              		.loc 3 115 19 is_stmt 0 view .LVU190
 700 013a B3F90620 		ldrsh	r2, [r3, #6]
 701              		.loc 3 115 14 view .LVU191
 702 013e ADF81620 		strh	r2, [sp, #22]	@ movhi
 703              	.LVL66:
 704              		.loc 3 115 14 view .LVU192
 705              	.LBE94:
 706              	.LBE93:
 987:Drivers/lvgl/src/widgets/lv_btnmatrix.c ****         else btn_area.x1 += obj_cords.x1 - pcol;
ARM GAS  /var/folders/0z/tsy30v1j4xl4_7kw94k978ww0000gn/T//ccZBZI6H.s 			page 38


 707              		.loc 1 987 9 is_stmt 1 view .LVU193
 987:Drivers/lvgl/src/widgets/lv_btnmatrix.c ****         else btn_area.x1 += obj_cords.x1 - pcol;
 708              		.loc 1 987 11 is_stmt 0 view .LVU194
 709 0142 E345     		cmp	fp, ip
 710 0144 BEDB     		blt	.L28
 987:Drivers/lvgl/src/widgets/lv_btnmatrix.c ****         else btn_area.x1 += obj_cords.x1 - pcol;
 711              		.loc 1 987 34 is_stmt 1 discriminator 1 view .LVU195
 987:Drivers/lvgl/src/widgets/lv_btnmatrix.c ****         else btn_area.x1 += obj_cords.x1 - pcol;
 712              		.loc 1 987 58 is_stmt 0 discriminator 1 view .LVU196
 713 0146 BDF81830 		ldrh	r3, [sp, #24]
 987:Drivers/lvgl/src/widgets/lv_btnmatrix.c ****         else btn_area.x1 += obj_cords.x1 - pcol;
 714              		.loc 1 987 64 discriminator 1 view .LVU197
 715 014a DE46     		mov	lr, fp
 716 014c BBF10D0F 		cmp	fp, #13
 717 0150 A8BF     		it	ge
 718 0152 4FF00D0E 		movge	lr, #13
 719 0156 1FFA8EFE 		uxth	lr, lr
 987:Drivers/lvgl/src/widgets/lv_btnmatrix.c ****         else btn_area.x1 += obj_cords.x1 - pcol;
 720              		.loc 1 987 62 discriminator 1 view .LVU198
 721 015a A3EB0E03 		sub	r3, r3, lr
 987:Drivers/lvgl/src/widgets/lv_btnmatrix.c ****         else btn_area.x1 += obj_cords.x1 - pcol;
 722              		.loc 1 987 46 discriminator 1 view .LVU199
 723 015e 1CFA83F3 		uxtah	r3, ip, r3
 724 0162 ADF81030 		strh	r3, [sp, #16]	@ movhi
 725              	.L29:
 990:Drivers/lvgl/src/widgets/lv_btnmatrix.c ****         else btn_area.y1 += obj_cords.y1 - prow;
 726              		.loc 1 990 9 is_stmt 1 view .LVU200
 990:Drivers/lvgl/src/widgets/lv_btnmatrix.c ****         else btn_area.y1 += obj_cords.y1 - prow;
 727              		.loc 1 990 11 is_stmt 0 view .LVU201
 728 0166 8045     		cmp	r8, r0
 729 0168 B5DB     		blt	.L30
 990:Drivers/lvgl/src/widgets/lv_btnmatrix.c ****         else btn_area.y1 += obj_cords.y1 - prow;
 730              		.loc 1 990 33 is_stmt 1 discriminator 1 view .LVU202
 990:Drivers/lvgl/src/widgets/lv_btnmatrix.c ****         else btn_area.y1 += obj_cords.y1 - prow;
 731              		.loc 1 990 57 is_stmt 0 discriminator 1 view .LVU203
 732 016a BDF81A30 		ldrh	r3, [sp, #26]
 990:Drivers/lvgl/src/widgets/lv_btnmatrix.c ****         else btn_area.y1 += obj_cords.y1 - prow;
 733              		.loc 1 990 63 discriminator 1 view .LVU204
 734 016e C446     		mov	ip, r8
 735 0170 B8F10D0F 		cmp	r8, #13
 736 0174 A8BF     		it	ge
 737 0176 4FF00D0C 		movge	ip, #13
 738 017a 1FFA8CFC 		uxth	ip, ip
 990:Drivers/lvgl/src/widgets/lv_btnmatrix.c ****         else btn_area.y1 += obj_cords.y1 - prow;
 739              		.loc 1 990 61 discriminator 1 view .LVU205
 740 017e A3EB0C03 		sub	r3, r3, ip
 990:Drivers/lvgl/src/widgets/lv_btnmatrix.c ****         else btn_area.y1 += obj_cords.y1 - prow;
 741              		.loc 1 990 45 discriminator 1 view .LVU206
 742 0182 10FA83F3 		uxtah	r3, r0, r3
 743 0186 ADF81230 		strh	r3, [sp, #18]	@ movhi
 744              	.L31:
 993:Drivers/lvgl/src/widgets/lv_btnmatrix.c ****                                                                                    BTN_EXTRA_CLICK_
 745              		.loc 1 993 9 is_stmt 1 view .LVU207
 993:Drivers/lvgl/src/widgets/lv_btnmatrix.c ****                                                                                    BTN_EXTRA_CLICK_
 746              		.loc 1 993 29 is_stmt 0 view .LVU208
 747 018a 019B     		ldr	r3, [sp, #4]
 748 018c A3EB0903 		sub	r3, r3, r9
ARM GAS  /var/folders/0z/tsy30v1j4xl4_7kw94k978ww0000gn/T//ccZBZI6H.s 			page 39


 993:Drivers/lvgl/src/widgets/lv_btnmatrix.c ****                                                                                    BTN_EXTRA_CLICK_
 749              		.loc 1 993 38 view .LVU209
 750 0190 023B     		subs	r3, r3, #2
 993:Drivers/lvgl/src/widgets/lv_btnmatrix.c ****                                                                                    BTN_EXTRA_CLICK_
 751              		.loc 1 993 11 view .LVU210
 752 0192 9942     		cmp	r1, r3
 753 0194 A7DB     		blt	.L32
 993:Drivers/lvgl/src/widgets/lv_btnmatrix.c ****                                                                                    BTN_EXTRA_CLICK_
 754              		.loc 1 993 43 is_stmt 1 discriminator 1 view .LVU211
 993:Drivers/lvgl/src/widgets/lv_btnmatrix.c ****                                                                                    BTN_EXTRA_CLICK_
 755              		.loc 1 993 67 is_stmt 0 discriminator 1 view .LVU212
 756 0196 BDF81800 		ldrh	r0, [sp, #24]
 993:Drivers/lvgl/src/widgets/lv_btnmatrix.c ****                                                                                    BTN_EXTRA_CLICK_
 757              		.loc 1 993 73 discriminator 1 view .LVU213
 758 019a 4B46     		mov	r3, r9
 759 019c 0D2B     		cmp	r3, #13
 760 019e A8BF     		it	ge
 761 01a0 0D23     		movge	r3, #13
 993:Drivers/lvgl/src/widgets/lv_btnmatrix.c ****                                                                                    BTN_EXTRA_CLICK_
 762              		.loc 1 993 71 discriminator 1 view .LVU214
 763 01a2 10FA83F3 		uxtah	r3, r0, r3
 993:Drivers/lvgl/src/widgets/lv_btnmatrix.c ****                                                                                    BTN_EXTRA_CLICK_
 764              		.loc 1 993 55 discriminator 1 view .LVU215
 765 01a6 11FA83F3 		uxtah	r3, r1, r3
 766 01aa ADF81430 		strh	r3, [sp, #20]	@ movhi
 767              	.L33:
 997:Drivers/lvgl/src/widgets/lv_btnmatrix.c ****                                                                                     BTN_EXTRA_CLICK
 768              		.loc 1 997 9 is_stmt 1 view .LVU216
 997:Drivers/lvgl/src/widgets/lv_btnmatrix.c ****                                                                                     BTN_EXTRA_CLICK
 769              		.loc 1 997 29 is_stmt 0 view .LVU217
 770 01ae 029B     		ldr	r3, [sp, #8]
 771 01b0 DB1B     		subs	r3, r3, r7
 997:Drivers/lvgl/src/widgets/lv_btnmatrix.c ****                                                                                     BTN_EXTRA_CLICK
 772              		.loc 1 997 39 view .LVU218
 773 01b2 023B     		subs	r3, r3, #2
 997:Drivers/lvgl/src/widgets/lv_btnmatrix.c ****                                                                                     BTN_EXTRA_CLICK
 774              		.loc 1 997 11 view .LVU219
 775 01b4 9A42     		cmp	r2, r3
 776 01b6 9EDB     		blt	.L34
 997:Drivers/lvgl/src/widgets/lv_btnmatrix.c ****                                                                                     BTN_EXTRA_CLICK
 777              		.loc 1 997 44 is_stmt 1 discriminator 1 view .LVU220
 997:Drivers/lvgl/src/widgets/lv_btnmatrix.c ****                                                                                     BTN_EXTRA_CLICK
 778              		.loc 1 997 68 is_stmt 0 discriminator 1 view .LVU221
 779 01b8 BDF81A10 		ldrh	r1, [sp, #26]
 997:Drivers/lvgl/src/widgets/lv_btnmatrix.c ****                                                                                     BTN_EXTRA_CLICK
 780              		.loc 1 997 74 discriminator 1 view .LVU222
 781 01bc 3B46     		mov	r3, r7
 782 01be 0D2F     		cmp	r7, #13
 783 01c0 A8BF     		it	ge
 784 01c2 0D23     		movge	r3, #13
 997:Drivers/lvgl/src/widgets/lv_btnmatrix.c ****                                                                                     BTN_EXTRA_CLICK
 785              		.loc 1 997 72 discriminator 1 view .LVU223
 786 01c4 11FA83F3 		uxtah	r3, r1, r3
 997:Drivers/lvgl/src/widgets/lv_btnmatrix.c ****                                                                                     BTN_EXTRA_CLICK
 787              		.loc 1 997 56 discriminator 1 view .LVU224
 788 01c8 12FA83F3 		uxtah	r3, r2, r3
 789 01cc ADF81630 		strh	r3, [sp, #22]	@ movhi
ARM GAS  /var/folders/0z/tsy30v1j4xl4_7kw94k978ww0000gn/T//ccZBZI6H.s 			page 40


 790 01d0 98E7     		b	.L35
 791              	.L36:
1006:Drivers/lvgl/src/widgets/lv_btnmatrix.c **** 
 792              		.loc 1 1006 5 is_stmt 1 view .LVU225
1006:Drivers/lvgl/src/widgets/lv_btnmatrix.c **** 
 793              		.loc 1 1006 17 is_stmt 0 view .LVU226
 794 01d2 2B8E     		ldrh	r3, [r5, #48]
1006:Drivers/lvgl/src/widgets/lv_btnmatrix.c **** 
 795              		.loc 1 1006 7 view .LVU227
 796 01d4 A342     		cmp	r3, r4
 797 01d6 03D0     		beq	.L41
 798              	.LVL67:
 799              	.L38:
1008:Drivers/lvgl/src/widgets/lv_btnmatrix.c **** }
 800              		.loc 1 1008 5 is_stmt 1 view .LVU228
1009:Drivers/lvgl/src/widgets/lv_btnmatrix.c **** 
 801              		.loc 1 1009 1 is_stmt 0 view .LVU229
 802 01d8 2046     		mov	r0, r4
 803 01da 09B0     		add	sp, sp, #36
 804              		.cfi_remember_state
 805              		.cfi_def_cfa_offset 36
 806              		@ sp needed
 807 01dc BDE8F08F 		pop	{r4, r5, r6, r7, r8, r9, r10, fp, pc}
 808              	.LVL68:
 809              	.L41:
 810              		.cfi_restore_state
1006:Drivers/lvgl/src/widgets/lv_btnmatrix.c **** 
 811              		.loc 1 1006 30 view .LVU230
 812 01e0 4FF6FF74 		movw	r4, #65535
 813              	.LVL69:
1006:Drivers/lvgl/src/widgets/lv_btnmatrix.c **** 
 814              		.loc 1 1006 30 view .LVU231
 815 01e4 F8E7     		b	.L38
 816              		.cfi_endproc
 817              	.LFE191:
 819              		.section	.text.invalidate_button_area,"ax",%progbits
 820              		.align	1
 821              		.syntax unified
 822              		.thumb
 823              		.thumb_func
 825              	invalidate_button_area:
 826              	.LVL70:
 827              	.LFB192:
1012:Drivers/lvgl/src/widgets/lv_btnmatrix.c ****     if(btn_idx == LV_BTNMATRIX_BTN_NONE) return;
 828              		.loc 1 1012 1 is_stmt 1 view -0
 829              		.cfi_startproc
 830              		@ args = 0, pretend = 0, frame = 16
 831              		@ frame_needed = 0, uses_anonymous_args = 0
1013:Drivers/lvgl/src/widgets/lv_btnmatrix.c **** 
 832              		.loc 1 1013 5 view .LVU233
1013:Drivers/lvgl/src/widgets/lv_btnmatrix.c **** 
 833              		.loc 1 1013 7 is_stmt 0 view .LVU234
 834 0000 4FF6FF73 		movw	r3, #65535
 835 0004 9942     		cmp	r1, r3
 836 0006 76D0     		beq	.L47
1012:Drivers/lvgl/src/widgets/lv_btnmatrix.c ****     if(btn_idx == LV_BTNMATRIX_BTN_NONE) return;
 837              		.loc 1 1012 1 view .LVU235
ARM GAS  /var/folders/0z/tsy30v1j4xl4_7kw94k978ww0000gn/T//ccZBZI6H.s 			page 41


 838 0008 F0B5     		push	{r4, r5, r6, r7, lr}
 839              		.cfi_def_cfa_offset 20
 840              		.cfi_offset 4, -20
 841              		.cfi_offset 5, -16
 842              		.cfi_offset 6, -12
 843              		.cfi_offset 7, -8
 844              		.cfi_offset 14, -4
 845 000a 85B0     		sub	sp, sp, #20
 846              		.cfi_def_cfa_offset 40
 847 000c 0446     		mov	r4, r0
 848 000e 0D46     		mov	r5, r1
1015:Drivers/lvgl/src/widgets/lv_btnmatrix.c ****     lv_area_t obj_area;
 849              		.loc 1 1015 5 is_stmt 1 view .LVU236
1016:Drivers/lvgl/src/widgets/lv_btnmatrix.c **** 
 850              		.loc 1 1016 5 view .LVU237
1018:Drivers/lvgl/src/widgets/lv_btnmatrix.c ****     if(btn_idx >= btnm->btn_cnt) return;
 851              		.loc 1 1018 5 view .LVU238
 852              	.LVL71:
1018:Drivers/lvgl/src/widgets/lv_btnmatrix.c ****     if(btn_idx >= btnm->btn_cnt) return;
 853              		.loc 1 1018 51 view .LVU239
1019:Drivers/lvgl/src/widgets/lv_btnmatrix.c **** 
 854              		.loc 1 1019 5 view .LVU240
1019:Drivers/lvgl/src/widgets/lv_btnmatrix.c **** 
 855              		.loc 1 1019 23 is_stmt 0 view .LVU241
 856 0010 038E     		ldrh	r3, [r0, #48]
1019:Drivers/lvgl/src/widgets/lv_btnmatrix.c **** 
 857              		.loc 1 1019 7 view .LVU242
 858 0012 8B42     		cmp	r3, r1
 859 0014 01D8     		bhi	.L50
 860              	.LVL72:
 861              	.L42:
1046:Drivers/lvgl/src/widgets/lv_btnmatrix.c **** 
 862              		.loc 1 1046 1 view .LVU243
 863 0016 05B0     		add	sp, sp, #20
 864              		.cfi_remember_state
 865              		.cfi_def_cfa_offset 20
 866              		@ sp needed
 867 0018 F0BD     		pop	{r4, r5, r6, r7, pc}
 868              	.LVL73:
 869              	.L50:
 870              		.cfi_restore_state
1021:Drivers/lvgl/src/widgets/lv_btnmatrix.c ****     lv_obj_get_coords(obj, &obj_area);
 871              		.loc 1 1021 5 is_stmt 1 view .LVU244
1021:Drivers/lvgl/src/widgets/lv_btnmatrix.c ****     lv_obj_get_coords(obj, &obj_area);
 872              		.loc 1 1021 34 is_stmt 0 view .LVU245
 873 001a 826A     		ldr	r2, [r0, #40]
1021:Drivers/lvgl/src/widgets/lv_btnmatrix.c ****     lv_obj_get_coords(obj, &obj_area);
 874              		.loc 1 1021 29 view .LVU246
 875 001c 02EBC103 		add	r3, r2, r1, lsl #3
 876              	.LVL74:
 877              	.LBB95:
 878              	.LBI95:
 110:Drivers/lvgl/src/widgets/../core/../misc/../font/../misc/lv_area.h **** {
 879              		.loc 3 110 20 is_stmt 1 view .LVU247
 880              	.LBB96:
 112:Drivers/lvgl/src/widgets/../core/../misc/../font/../misc/lv_area.h ****     dest->y1 = src->y1;
 881              		.loc 3 112 5 view .LVU248
ARM GAS  /var/folders/0z/tsy30v1j4xl4_7kw94k978ww0000gn/T//ccZBZI6H.s 			page 42


 112:Drivers/lvgl/src/widgets/../core/../misc/../font/../misc/lv_area.h ****     dest->y1 = src->y1;
 882              		.loc 3 112 19 is_stmt 0 view .LVU249
 883 0020 32F93120 		ldrsh	r2, [r2, r1, lsl #3]
 112:Drivers/lvgl/src/widgets/../core/../misc/../font/../misc/lv_area.h ****     dest->y1 = src->y1;
 884              		.loc 3 112 14 view .LVU250
 885 0024 ADF80820 		strh	r2, [sp, #8]	@ movhi
 113:Drivers/lvgl/src/widgets/../core/../misc/../font/../misc/lv_area.h ****     dest->x2 = src->x2;
 886              		.loc 3 113 5 is_stmt 1 view .LVU251
 113:Drivers/lvgl/src/widgets/../core/../misc/../font/../misc/lv_area.h ****     dest->x2 = src->x2;
 887              		.loc 3 113 19 is_stmt 0 view .LVU252
 888 0028 B3F90220 		ldrsh	r2, [r3, #2]
 113:Drivers/lvgl/src/widgets/../core/../misc/../font/../misc/lv_area.h ****     dest->x2 = src->x2;
 889              		.loc 3 113 14 view .LVU253
 890 002c ADF80A20 		strh	r2, [sp, #10]	@ movhi
 114:Drivers/lvgl/src/widgets/../core/../misc/../font/../misc/lv_area.h ****     dest->y2 = src->y2;
 891              		.loc 3 114 5 is_stmt 1 view .LVU254
 114:Drivers/lvgl/src/widgets/../core/../misc/../font/../misc/lv_area.h ****     dest->y2 = src->y2;
 892              		.loc 3 114 19 is_stmt 0 view .LVU255
 893 0030 B3F90420 		ldrsh	r2, [r3, #4]
 114:Drivers/lvgl/src/widgets/../core/../misc/../font/../misc/lv_area.h ****     dest->y2 = src->y2;
 894              		.loc 3 114 14 view .LVU256
 895 0034 ADF80C20 		strh	r2, [sp, #12]	@ movhi
 896              		.loc 3 115 5 is_stmt 1 view .LVU257
 897              		.loc 3 115 19 is_stmt 0 view .LVU258
 898 0038 B3F90630 		ldrsh	r3, [r3, #6]
 899              	.LVL75:
 900              		.loc 3 115 14 view .LVU259
 901 003c ADF80E30 		strh	r3, [sp, #14]	@ movhi
 902              	.LVL76:
 903              		.loc 3 115 14 view .LVU260
 904              	.LBE96:
 905              	.LBE95:
1022:Drivers/lvgl/src/widgets/lv_btnmatrix.c **** 
 906              		.loc 1 1022 5 is_stmt 1 view .LVU261
 907 0040 6946     		mov	r1, sp
 908              	.LVL77:
1022:Drivers/lvgl/src/widgets/lv_btnmatrix.c **** 
 909              		.loc 1 1022 5 is_stmt 0 view .LVU262
 910 0042 FFF7FEFF 		bl	lv_obj_get_coords
 911              	.LVL78:
1026:Drivers/lvgl/src/widgets/lv_btnmatrix.c ****     lv_coord_t col_gap = lv_obj_get_style_pad_column(obj, LV_PART_MAIN);
 912              		.loc 1 1026 5 is_stmt 1 view .LVU263
 913              	.LBB97:
 914              	.LBI97:
 127:Drivers/lvgl/src/widgets/../core/lv_obj_style_gen.h **** {
 915              		.loc 2 127 26 view .LVU264
 916              	.LBB98:
 129:Drivers/lvgl/src/widgets/../core/lv_obj_style_gen.h ****     return (lv_coord_t)v.num;
 917              		.loc 2 129 5 view .LVU265
 129:Drivers/lvgl/src/widgets/../core/lv_obj_style_gen.h ****     return (lv_coord_t)v.num;
 918              		.loc 2 129 26 is_stmt 0 view .LVU266
 919 0046 1422     		movs	r2, #20
 920 0048 0021     		movs	r1, #0
 921 004a 2046     		mov	r0, r4
 922 004c FFF7FEFF 		bl	lv_obj_get_style_prop
 923              	.LVL79:
 130:Drivers/lvgl/src/widgets/../core/lv_obj_style_gen.h **** }
ARM GAS  /var/folders/0z/tsy30v1j4xl4_7kw94k978ww0000gn/T//ccZBZI6H.s 			page 43


 924              		.loc 2 130 5 is_stmt 1 view .LVU267
 130:Drivers/lvgl/src/widgets/../core/lv_obj_style_gen.h **** }
 925              		.loc 2 130 12 is_stmt 0 view .LVU268
 926 0050 06B2     		sxth	r6, r0
 927              	.LVL80:
 130:Drivers/lvgl/src/widgets/../core/lv_obj_style_gen.h **** }
 928              		.loc 2 130 12 view .LVU269
 929              	.LBE98:
 930              	.LBE97:
1027:Drivers/lvgl/src/widgets/lv_btnmatrix.c **** 
 931              		.loc 1 1027 5 is_stmt 1 view .LVU270
 932              	.LBB99:
 933              	.LBI99:
 133:Drivers/lvgl/src/widgets/../core/lv_obj_style_gen.h **** {
 934              		.loc 2 133 26 view .LVU271
 935              	.LBB100:
 135:Drivers/lvgl/src/widgets/../core/lv_obj_style_gen.h ****     return (lv_coord_t)v.num;
 936              		.loc 2 135 5 view .LVU272
 135:Drivers/lvgl/src/widgets/../core/lv_obj_style_gen.h ****     return (lv_coord_t)v.num;
 937              		.loc 2 135 26 is_stmt 0 view .LVU273
 938 0052 1522     		movs	r2, #21
 939 0054 0021     		movs	r1, #0
 940 0056 2046     		mov	r0, r4
 941 0058 FFF7FEFF 		bl	lv_obj_get_style_prop
 942              	.LVL81:
 943              		.loc 2 136 5 is_stmt 1 view .LVU274
 944              		.loc 2 136 12 is_stmt 0 view .LVU275
 945 005c 07B2     		sxth	r7, r0
 946              	.LVL82:
 947              		.loc 2 136 12 view .LVU276
 948              	.LBE100:
 949              	.LBE99:
1030:Drivers/lvgl/src/widgets/lv_btnmatrix.c ****     row_gap = LV_MAX(row_gap, dpi / 10);
 950              		.loc 1 1030 5 is_stmt 1 view .LVU277
1030:Drivers/lvgl/src/widgets/lv_btnmatrix.c ****     row_gap = LV_MAX(row_gap, dpi / 10);
 951              		.loc 1 1030 38 is_stmt 0 view .LVU278
 952 005e 2046     		mov	r0, r4
 953 0060 FFF7FEFF 		bl	lv_obj_get_disp
 954              	.LVL83:
1030:Drivers/lvgl/src/widgets/lv_btnmatrix.c ****     row_gap = LV_MAX(row_gap, dpi / 10);
 955              		.loc 1 1030 22 view .LVU279
 956 0064 FFF7FEFF 		bl	lv_disp_get_dpi
 957              	.LVL84:
1031:Drivers/lvgl/src/widgets/lv_btnmatrix.c ****     col_gap = LV_MAX(col_gap, dpi / 10);
 958              		.loc 1 1031 5 is_stmt 1 view .LVU280
1031:Drivers/lvgl/src/widgets/lv_btnmatrix.c ****     col_gap = LV_MAX(col_gap, dpi / 10);
 959              		.loc 1 1031 15 is_stmt 0 view .LVU281
 960 0068 234A     		ldr	r2, .L52
 961 006a 82FB0032 		smull	r3, r2, r2, r0
 962 006e C317     		asrs	r3, r0, #31
 963 0070 C3EBA203 		rsb	r3, r3, r2, asr #2
 964 0074 1BB2     		sxth	r3, r3
1031:Drivers/lvgl/src/widgets/lv_btnmatrix.c ****     col_gap = LV_MAX(col_gap, dpi / 10);
 965              		.loc 1 1031 13 view .LVU282
 966 0076 9E42     		cmp	r6, r3
 967 0078 B8BF     		it	lt
 968 007a 1E46     		movlt	r6, r3
ARM GAS  /var/folders/0z/tsy30v1j4xl4_7kw94k978ww0000gn/T//ccZBZI6H.s 			page 44


 969              	.LVL85:
1032:Drivers/lvgl/src/widgets/lv_btnmatrix.c **** 
 970              		.loc 1 1032 5 is_stmt 1 view .LVU283
1032:Drivers/lvgl/src/widgets/lv_btnmatrix.c **** 
 971              		.loc 1 1032 13 is_stmt 0 view .LVU284
 972 007c BB42     		cmp	r3, r7
 973 007e B8BF     		it	lt
 974 0080 3B46     		movlt	r3, r7
 975              	.LVL86:
1035:Drivers/lvgl/src/widgets/lv_btnmatrix.c ****     btn_area.y1 += obj_area.y1 - col_gap;
 976              		.loc 1 1035 5 is_stmt 1 view .LVU285
1035:Drivers/lvgl/src/widgets/lv_btnmatrix.c ****     btn_area.y1 += obj_area.y1 - col_gap;
 977              		.loc 1 1035 28 is_stmt 0 view .LVU286
 978 0082 BDF80010 		ldrh	r1, [sp]
1035:Drivers/lvgl/src/widgets/lv_btnmatrix.c ****     btn_area.y1 += obj_area.y1 - col_gap;
 979              		.loc 1 1035 32 view .LVU287
 980 0086 B6B2     		uxth	r6, r6
1035:Drivers/lvgl/src/widgets/lv_btnmatrix.c ****     btn_area.y1 += obj_area.y1 - col_gap;
 981              		.loc 1 1035 32 view .LVU288
 982 0088 8A1B     		subs	r2, r1, r6
1035:Drivers/lvgl/src/widgets/lv_btnmatrix.c ****     btn_area.y1 += obj_area.y1 - col_gap;
 983              		.loc 1 1035 17 view .LVU289
 984 008a BDF80800 		ldrh	r0, [sp, #8]
 985              	.LVL87:
1035:Drivers/lvgl/src/widgets/lv_btnmatrix.c ****     btn_area.y1 += obj_area.y1 - col_gap;
 986              		.loc 1 1035 17 view .LVU290
 987 008e 10FA82F2 		uxtah	r2, r0, r2
 988 0092 ADF80820 		strh	r2, [sp, #8]	@ movhi
1036:Drivers/lvgl/src/widgets/lv_btnmatrix.c ****     btn_area.x2 += obj_area.x1 + row_gap;
 989              		.loc 1 1036 5 is_stmt 1 view .LVU291
1036:Drivers/lvgl/src/widgets/lv_btnmatrix.c ****     btn_area.x2 += obj_area.x1 + row_gap;
 990              		.loc 1 1036 28 is_stmt 0 view .LVU292
 991 0096 BDF80220 		ldrh	r2, [sp, #2]
1036:Drivers/lvgl/src/widgets/lv_btnmatrix.c ****     btn_area.x2 += obj_area.x1 + row_gap;
 992              		.loc 1 1036 32 view .LVU293
 993 009a 9BB2     		uxth	r3, r3
1036:Drivers/lvgl/src/widgets/lv_btnmatrix.c ****     btn_area.x2 += obj_area.x1 + row_gap;
 994              		.loc 1 1036 32 view .LVU294
 995 009c D01A     		subs	r0, r2, r3
1036:Drivers/lvgl/src/widgets/lv_btnmatrix.c ****     btn_area.x2 += obj_area.x1 + row_gap;
 996              		.loc 1 1036 17 view .LVU295
 997 009e BDF80A70 		ldrh	r7, [sp, #10]
 998 00a2 17FA80F0 		uxtah	r0, r7, r0
 999 00a6 80B2     		uxth	r0, r0
 1000 00a8 ADF80A00 		strh	r0, [sp, #10]	@ movhi
1037:Drivers/lvgl/src/widgets/lv_btnmatrix.c ****     btn_area.y2 += obj_area.y1 + col_gap;
 1001              		.loc 1 1037 5 is_stmt 1 view .LVU296
1037:Drivers/lvgl/src/widgets/lv_btnmatrix.c ****     btn_area.y2 += obj_area.y1 + col_gap;
 1002              		.loc 1 1037 32 is_stmt 0 view .LVU297
 1003 00ac 3144     		add	r1, r1, r6
1037:Drivers/lvgl/src/widgets/lv_btnmatrix.c ****     btn_area.y2 += obj_area.y1 + col_gap;
 1004              		.loc 1 1037 17 view .LVU298
 1005 00ae BDF80C60 		ldrh	r6, [sp, #12]
 1006              	.LVL88:
1037:Drivers/lvgl/src/widgets/lv_btnmatrix.c ****     btn_area.y2 += obj_area.y1 + col_gap;
 1007              		.loc 1 1037 17 view .LVU299
 1008 00b2 16FA81F1 		uxtah	r1, r6, r1
ARM GAS  /var/folders/0z/tsy30v1j4xl4_7kw94k978ww0000gn/T//ccZBZI6H.s 			page 45


 1009 00b6 ADF80C10 		strh	r1, [sp, #12]	@ movhi
1038:Drivers/lvgl/src/widgets/lv_btnmatrix.c **** 
 1010              		.loc 1 1038 5 is_stmt 1 view .LVU300
1038:Drivers/lvgl/src/widgets/lv_btnmatrix.c **** 
 1011              		.loc 1 1038 32 is_stmt 0 view .LVU301
 1012 00ba 1A44     		add	r2, r2, r3
1038:Drivers/lvgl/src/widgets/lv_btnmatrix.c **** 
 1013              		.loc 1 1038 17 view .LVU302
 1014 00bc BDF80E30 		ldrh	r3, [sp, #14]
 1015              	.LVL89:
1038:Drivers/lvgl/src/widgets/lv_btnmatrix.c **** 
 1016              		.loc 1 1038 17 view .LVU303
 1017 00c0 13FA82F2 		uxtah	r2, r3, r2
 1018 00c4 92B2     		uxth	r2, r2
 1019 00c6 ADF80E20 		strh	r2, [sp, #14]	@ movhi
1040:Drivers/lvgl/src/widgets/lv_btnmatrix.c ****         /*Push up the upper boundary of the btn area to also invalidate the popover*/
 1020              		.loc 1 1040 5 is_stmt 1 view .LVU304
1040:Drivers/lvgl/src/widgets/lv_btnmatrix.c ****         /*Push up the upper boundary of the btn area to also invalidate the popover*/
 1021              		.loc 1 1040 24 is_stmt 0 view .LVU305
 1022 00ca A38E     		ldrh	r3, [r4, #52]
1040:Drivers/lvgl/src/widgets/lv_btnmatrix.c ****         /*Push up the upper boundary of the btn area to also invalidate the popover*/
 1023              		.loc 1 1040 7 view .LVU306
 1024 00cc AB42     		cmp	r3, r5
1040:Drivers/lvgl/src/widgets/lv_btnmatrix.c ****         /*Push up the upper boundary of the btn area to also invalidate the popover*/
 1025              		.loc 1 1040 7 view .LVU307
 1026 00ce 04D0     		beq	.L51
 1027              	.L44:
1045:Drivers/lvgl/src/widgets/lv_btnmatrix.c **** }
 1028              		.loc 1 1045 5 is_stmt 1 view .LVU308
 1029 00d0 02A9     		add	r1, sp, #8
 1030 00d2 2046     		mov	r0, r4
 1031 00d4 FFF7FEFF 		bl	lv_obj_invalidate_area
 1032              	.LVL90:
 1033 00d8 9DE7     		b	.L42
 1034              	.L51:
1040:Drivers/lvgl/src/widgets/lv_btnmatrix.c ****         /*Push up the upper boundary of the btn area to also invalidate the popover*/
 1035              		.loc 1 1040 46 is_stmt 0 discriminator 1 view .LVU309
 1036 00da E36A     		ldr	r3, [r4, #44]
1040:Drivers/lvgl/src/widgets/lv_btnmatrix.c ****         /*Push up the upper boundary of the btn area to also invalidate the popover*/
 1037              		.loc 1 1040 57 discriminator 1 view .LVU310
 1038 00dc 33F81530 		ldrh	r3, [r3, r5, lsl #1]
1040:Drivers/lvgl/src/widgets/lv_btnmatrix.c ****         /*Push up the upper boundary of the btn area to also invalidate the popover*/
 1039              		.loc 1 1040 38 discriminator 1 view .LVU311
 1040 00e0 13F4806F 		tst	r3, #1024
 1041 00e4 F4D0     		beq	.L44
1042:Drivers/lvgl/src/widgets/lv_btnmatrix.c ****     }
 1042              		.loc 1 1042 9 is_stmt 1 view .LVU312
 1043              	.LVL91:
 1044              	.LBB101:
 1045              	.LBI101:
 116:Drivers/lvgl/src/widgets/../core/../misc/../font/../misc/lv_area.h **** }
 117:Drivers/lvgl/src/widgets/../core/../misc/../font/../misc/lv_area.h **** 
 118:Drivers/lvgl/src/widgets/../core/../misc/../font/../misc/lv_area.h **** /**
 119:Drivers/lvgl/src/widgets/../core/../misc/../font/../misc/lv_area.h ****  * Get the width of an area
 120:Drivers/lvgl/src/widgets/../core/../misc/../font/../misc/lv_area.h ****  * @param area_p pointer to an area
 121:Drivers/lvgl/src/widgets/../core/../misc/../font/../misc/lv_area.h ****  * @return the width of the area (if x1 == x2 -> width = 1)
 122:Drivers/lvgl/src/widgets/../core/../misc/../font/../misc/lv_area.h ****  */
ARM GAS  /var/folders/0z/tsy30v1j4xl4_7kw94k978ww0000gn/T//ccZBZI6H.s 			page 46


 123:Drivers/lvgl/src/widgets/../core/../misc/../font/../misc/lv_area.h **** static inline lv_coord_t lv_area_get_width(const lv_area_t * area_p)
 124:Drivers/lvgl/src/widgets/../core/../misc/../font/../misc/lv_area.h **** {
 125:Drivers/lvgl/src/widgets/../core/../misc/../font/../misc/lv_area.h ****     return (lv_coord_t)(area_p->x2 - area_p->x1 + 1);
 126:Drivers/lvgl/src/widgets/../core/../misc/../font/../misc/lv_area.h **** }
 127:Drivers/lvgl/src/widgets/../core/../misc/../font/../misc/lv_area.h **** 
 128:Drivers/lvgl/src/widgets/../core/../misc/../font/../misc/lv_area.h **** /**
 129:Drivers/lvgl/src/widgets/../core/../misc/../font/../misc/lv_area.h ****  * Get the height of an area
 130:Drivers/lvgl/src/widgets/../core/../misc/../font/../misc/lv_area.h ****  * @param area_p pointer to an area
 131:Drivers/lvgl/src/widgets/../core/../misc/../font/../misc/lv_area.h ****  * @return the height of the area (if y1 == y2 -> height = 1)
 132:Drivers/lvgl/src/widgets/../core/../misc/../font/../misc/lv_area.h ****  */
 133:Drivers/lvgl/src/widgets/../core/../misc/../font/../misc/lv_area.h **** static inline lv_coord_t lv_area_get_height(const lv_area_t * area_p)
 1046              		.loc 3 133 26 view .LVU313
 1047              	.LBB102:
 134:Drivers/lvgl/src/widgets/../core/../misc/../font/../misc/lv_area.h **** {
 135:Drivers/lvgl/src/widgets/../core/../misc/../font/../misc/lv_area.h ****     return (lv_coord_t)(area_p->y2 - area_p->y1 + 1);
 1048              		.loc 3 135 5 view .LVU314
 1049              		.loc 3 135 36 is_stmt 0 view .LVU315
 1050 00e6 131A     		subs	r3, r2, r0
 1051 00e8 9BB2     		uxth	r3, r3
 1052              		.loc 3 135 49 view .LVU316
 1053 00ea 0133     		adds	r3, r3, #1
 1054 00ec 9BB2     		uxth	r3, r3
 1055              	.LVL92:
 1056              		.loc 3 135 49 view .LVU317
 1057              	.LBE102:
 1058              	.LBE101:
1042:Drivers/lvgl/src/widgets/lv_btnmatrix.c ****     }
 1059              		.loc 1 1042 21 view .LVU318
 1060 00ee C01A     		subs	r0, r0, r3
 1061 00f0 ADF80A00 		strh	r0, [sp, #10]	@ movhi
 1062 00f4 ECE7     		b	.L44
 1063              	.LVL93:
 1064              	.L47:
 1065              		.cfi_def_cfa_offset 0
 1066              		.cfi_restore 4
 1067              		.cfi_restore 5
 1068              		.cfi_restore 6
 1069              		.cfi_restore 7
 1070              		.cfi_restore 14
1042:Drivers/lvgl/src/widgets/lv_btnmatrix.c ****     }
 1071              		.loc 1 1042 21 view .LVU319
 1072 00f6 7047     		bx	lr
 1073              	.L53:
 1074              		.align	2
 1075              	.L52:
 1076 00f8 67666666 		.word	1717986919
 1077              		.cfi_endproc
 1078              	.LFE192:
 1080              		.section	.text.draw_main,"ax",%progbits
 1081              		.align	1
 1082              		.syntax unified
 1083              		.thumb
 1084              		.thumb_func
 1086              	draw_main:
 1087              	.LVL94:
 1088              	.LFB179:
 689:Drivers/lvgl/src/widgets/lv_btnmatrix.c ****     lv_obj_t * obj = lv_event_get_target(e);
ARM GAS  /var/folders/0z/tsy30v1j4xl4_7kw94k978ww0000gn/T//ccZBZI6H.s 			page 47


 1089              		.loc 1 689 1 is_stmt 1 view -0
 1090              		.cfi_startproc
 1091              		@ args = 0, pretend = 0, frame = 296
 1092              		@ frame_needed = 0, uses_anonymous_args = 0
 689:Drivers/lvgl/src/widgets/lv_btnmatrix.c ****     lv_obj_t * obj = lv_event_get_target(e);
 1093              		.loc 1 689 1 is_stmt 0 view .LVU321
 1094 0000 2DE9F04F 		push	{r4, r5, r6, r7, r8, r9, r10, fp, lr}
 1095              		.cfi_def_cfa_offset 36
 1096              		.cfi_offset 4, -36
 1097              		.cfi_offset 5, -32
 1098              		.cfi_offset 6, -28
 1099              		.cfi_offset 7, -24
 1100              		.cfi_offset 8, -20
 1101              		.cfi_offset 9, -16
 1102              		.cfi_offset 10, -12
 1103              		.cfi_offset 11, -8
 1104              		.cfi_offset 14, -4
 1105 0004 CFB0     		sub	sp, sp, #316
 1106              		.cfi_def_cfa_offset 352
 1107 0006 0446     		mov	r4, r0
 690:Drivers/lvgl/src/widgets/lv_btnmatrix.c ****     lv_btnmatrix_t * btnm = (lv_btnmatrix_t *)obj;
 1108              		.loc 1 690 5 is_stmt 1 view .LVU322
 690:Drivers/lvgl/src/widgets/lv_btnmatrix.c ****     lv_btnmatrix_t * btnm = (lv_btnmatrix_t *)obj;
 1109              		.loc 1 690 22 is_stmt 0 view .LVU323
 1110 0008 FFF7FEFF 		bl	lv_event_get_target
 1111              	.LVL95:
 691:Drivers/lvgl/src/widgets/lv_btnmatrix.c ****     if(btnm->btn_cnt == 0) return;
 1112              		.loc 1 691 5 is_stmt 1 view .LVU324
 692:Drivers/lvgl/src/widgets/lv_btnmatrix.c **** 
 1113              		.loc 1 692 5 view .LVU325
 692:Drivers/lvgl/src/widgets/lv_btnmatrix.c **** 
 1114              		.loc 1 692 12 is_stmt 0 view .LVU326
 1115 000c 038E     		ldrh	r3, [r0, #48]
 692:Drivers/lvgl/src/widgets/lv_btnmatrix.c **** 
 1116              		.loc 1 692 7 view .LVU327
 1117 000e 13B9     		cbnz	r3, .L81
 1118              	.LVL96:
 1119              	.L54:
 851:Drivers/lvgl/src/widgets/lv_btnmatrix.c **** /**
 1120              		.loc 1 851 1 view .LVU328
 1121 0010 4FB0     		add	sp, sp, #316
 1122              		.cfi_remember_state
 1123              		.cfi_def_cfa_offset 36
 1124              		@ sp needed
 1125 0012 BDE8F08F 		pop	{r4, r5, r6, r7, r8, r9, r10, fp, pc}
 1126              	.LVL97:
 1127              	.L81:
 1128              		.cfi_restore_state
 851:Drivers/lvgl/src/widgets/lv_btnmatrix.c **** /**
 1129              		.loc 1 851 1 view .LVU329
 1130 0016 0546     		mov	r5, r0
 694:Drivers/lvgl/src/widgets/lv_btnmatrix.c ****     obj->skip_trans = 1;
 1131              		.loc 1 694 5 is_stmt 1 view .LVU330
 694:Drivers/lvgl/src/widgets/lv_btnmatrix.c ****     obj->skip_trans = 1;
 1132              		.loc 1 694 32 is_stmt 0 view .LVU331
 1133 0018 2046     		mov	r0, r4
 1134              	.LVL98:
ARM GAS  /var/folders/0z/tsy30v1j4xl4_7kw94k978ww0000gn/T//ccZBZI6H.s 			page 48


 694:Drivers/lvgl/src/widgets/lv_btnmatrix.c ****     obj->skip_trans = 1;
 1135              		.loc 1 694 32 view .LVU332
 1136 001a FFF7FEFF 		bl	lv_event_get_draw_ctx
 1137              	.LVL99:
 1138 001e 0646     		mov	r6, r0
 1139 0020 0490     		str	r0, [sp, #16]
 1140              	.LVL100:
 695:Drivers/lvgl/src/widgets/lv_btnmatrix.c **** 
 1141              		.loc 1 695 5 is_stmt 1 view .LVU333
 695:Drivers/lvgl/src/widgets/lv_btnmatrix.c **** 
 1142              		.loc 1 695 21 is_stmt 0 view .LVU334
 1143 0022 95F82230 		ldrb	r3, [r5, #34]	@ zero_extendqisi2
 1144 0026 43F00803 		orr	r3, r3, #8
 1145 002a 85F82230 		strb	r3, [r5, #34]
 697:Drivers/lvgl/src/widgets/lv_btnmatrix.c ****     lv_obj_get_coords(obj, &area_obj);
 1146              		.loc 1 697 5 is_stmt 1 view .LVU335
 698:Drivers/lvgl/src/widgets/lv_btnmatrix.c **** 
 1147              		.loc 1 698 5 view .LVU336
 1148 002e 4CA9     		add	r1, sp, #304
 1149 0030 2846     		mov	r0, r5
 1150              	.LVL101:
 698:Drivers/lvgl/src/widgets/lv_btnmatrix.c **** 
 1151              		.loc 1 698 5 is_stmt 0 view .LVU337
 1152 0032 FFF7FEFF 		bl	lv_obj_get_coords
 1153              	.LVL102:
 700:Drivers/lvgl/src/widgets/lv_btnmatrix.c **** 
 1154              		.loc 1 700 5 is_stmt 1 view .LVU338
 702:Drivers/lvgl/src/widgets/lv_btnmatrix.c ****     uint16_t txt_i = 0;
 1155              		.loc 1 702 5 view .LVU339
 703:Drivers/lvgl/src/widgets/lv_btnmatrix.c **** 
 1156              		.loc 1 703 5 view .LVU340
 705:Drivers/lvgl/src/widgets/lv_btnmatrix.c ****     lv_draw_label_dsc_t draw_label_dsc_act;
 1157              		.loc 1 705 5 view .LVU341
 706:Drivers/lvgl/src/widgets/lv_btnmatrix.c **** 
 1158              		.loc 1 706 5 view .LVU342
 708:Drivers/lvgl/src/widgets/lv_btnmatrix.c ****     lv_draw_label_dsc_t draw_label_dsc_def;
 1159              		.loc 1 708 5 view .LVU343
 709:Drivers/lvgl/src/widgets/lv_btnmatrix.c **** 
 1160              		.loc 1 709 5 view .LVU344
 711:Drivers/lvgl/src/widgets/lv_btnmatrix.c ****     obj->state = LV_STATE_DEFAULT;
 1161              		.loc 1 711 5 view .LVU345
 711:Drivers/lvgl/src/widgets/lv_btnmatrix.c ****     obj->state = LV_STATE_DEFAULT;
 1162              		.loc 1 711 16 is_stmt 0 view .LVU346
 1163 0036 2C8C     		ldrh	r4, [r5, #32]
 1164              	.LVL103:
 711:Drivers/lvgl/src/widgets/lv_btnmatrix.c ****     obj->state = LV_STATE_DEFAULT;
 1165              		.loc 1 711 16 view .LVU347
 1166 0038 0594     		str	r4, [sp, #20]
 1167              	.LVL104:
 712:Drivers/lvgl/src/widgets/lv_btnmatrix.c ****     obj->skip_trans = 1;
 1168              		.loc 1 712 5 is_stmt 1 view .LVU348
 712:Drivers/lvgl/src/widgets/lv_btnmatrix.c ****     obj->skip_trans = 1;
 1169              		.loc 1 712 16 is_stmt 0 view .LVU349
 1170 003a 0027     		movs	r7, #0
 1171 003c 2F84     		strh	r7, [r5, #32]	@ movhi
 713:Drivers/lvgl/src/widgets/lv_btnmatrix.c ****     lv_draw_rect_dsc_init(&draw_rect_dsc_def);
 1172              		.loc 1 713 5 is_stmt 1 view .LVU350
ARM GAS  /var/folders/0z/tsy30v1j4xl4_7kw94k978ww0000gn/T//ccZBZI6H.s 			page 49


 713:Drivers/lvgl/src/widgets/lv_btnmatrix.c ****     lv_draw_rect_dsc_init(&draw_rect_dsc_def);
 1173              		.loc 1 713 21 is_stmt 0 view .LVU351
 1174 003e 95F82230 		ldrb	r3, [r5, #34]	@ zero_extendqisi2
 1175 0042 43F00803 		orr	r3, r3, #8
 1176 0046 85F82230 		strb	r3, [r5, #34]
 714:Drivers/lvgl/src/widgets/lv_btnmatrix.c ****     lv_draw_label_dsc_init(&draw_label_dsc_def);
 1177              		.loc 1 714 5 is_stmt 1 view .LVU352
 1178 004a 26A8     		add	r0, sp, #152
 1179 004c FFF7FEFF 		bl	lv_draw_rect_dsc_init
 1180              	.LVL105:
 715:Drivers/lvgl/src/widgets/lv_btnmatrix.c ****     lv_obj_init_draw_rect_dsc(obj, LV_PART_ITEMS, &draw_rect_dsc_def);
 1181              		.loc 1 715 5 view .LVU353
 1182 0050 1EA8     		add	r0, sp, #120
 1183 0052 FFF7FEFF 		bl	lv_draw_label_dsc_init
 1184              	.LVL106:
 716:Drivers/lvgl/src/widgets/lv_btnmatrix.c ****     lv_obj_init_draw_label_dsc(obj, LV_PART_ITEMS, &draw_label_dsc_def);
 1185              		.loc 1 716 5 view .LVU354
 1186 0056 26AA     		add	r2, sp, #152
 1187 0058 4FF4A021 		mov	r1, #327680
 1188 005c 2846     		mov	r0, r5
 1189 005e FFF7FEFF 		bl	lv_obj_init_draw_rect_dsc
 1190              	.LVL107:
 717:Drivers/lvgl/src/widgets/lv_btnmatrix.c ****     obj->skip_trans = 0;
 1191              		.loc 1 717 5 view .LVU355
 1192 0062 1EAA     		add	r2, sp, #120
 1193 0064 4FF4A021 		mov	r1, #327680
 1194 0068 2846     		mov	r0, r5
 1195 006a FFF7FEFF 		bl	lv_obj_init_draw_label_dsc
 1196              	.LVL108:
 718:Drivers/lvgl/src/widgets/lv_btnmatrix.c ****     obj->state = state_ori;
 1197              		.loc 1 718 5 view .LVU356
 718:Drivers/lvgl/src/widgets/lv_btnmatrix.c ****     obj->state = state_ori;
 1198              		.loc 1 718 21 is_stmt 0 view .LVU357
 1199 006e 95F82230 		ldrb	r3, [r5, #34]	@ zero_extendqisi2
 1200 0072 67F3C303 		bfi	r3, r7, #3, #1
 1201 0076 85F82230 		strb	r3, [r5, #34]
 719:Drivers/lvgl/src/widgets/lv_btnmatrix.c **** 
 1202              		.loc 1 719 5 is_stmt 1 view .LVU358
 719:Drivers/lvgl/src/widgets/lv_btnmatrix.c **** 
 1203              		.loc 1 719 16 is_stmt 0 view .LVU359
 1204 007a 2C84     		strh	r4, [r5, #32]	@ movhi
 721:Drivers/lvgl/src/widgets/lv_btnmatrix.c ****     lv_coord_t pbottom = lv_obj_get_style_pad_bottom(obj, LV_PART_MAIN);
 1205              		.loc 1 721 5 is_stmt 1 view .LVU360
 1206              	.LVL109:
 1207              	.LBB103:
 1208              	.LBI103:
 103:Drivers/lvgl/src/widgets/../core/lv_obj_style_gen.h **** {
 1209              		.loc 2 103 26 view .LVU361
 1210              	.LBB104:
 105:Drivers/lvgl/src/widgets/../core/lv_obj_style_gen.h ****     return (lv_coord_t)v.num;
 1211              		.loc 2 105 5 view .LVU362
 105:Drivers/lvgl/src/widgets/../core/lv_obj_style_gen.h ****     return (lv_coord_t)v.num;
 1212              		.loc 2 105 26 is_stmt 0 view .LVU363
 1213 007c 1022     		movs	r2, #16
 1214 007e 3946     		mov	r1, r7
 1215 0080 2846     		mov	r0, r5
 1216 0082 FFF7FEFF 		bl	lv_obj_get_style_prop
ARM GAS  /var/folders/0z/tsy30v1j4xl4_7kw94k978ww0000gn/T//ccZBZI6H.s 			page 50


 1217              	.LVL110:
 106:Drivers/lvgl/src/widgets/../core/lv_obj_style_gen.h **** }
 1218              		.loc 2 106 5 is_stmt 1 view .LVU364
 106:Drivers/lvgl/src/widgets/../core/lv_obj_style_gen.h **** }
 1219              		.loc 2 106 12 is_stmt 0 view .LVU365
 1220 0086 03B2     		sxth	r3, r0
 1221 0088 0693     		str	r3, [sp, #24]
 1222              	.LVL111:
 106:Drivers/lvgl/src/widgets/../core/lv_obj_style_gen.h **** }
 1223              		.loc 2 106 12 view .LVU366
 1224              	.LBE104:
 1225              	.LBE103:
 722:Drivers/lvgl/src/widgets/lv_btnmatrix.c ****     lv_coord_t pleft = lv_obj_get_style_pad_left(obj, LV_PART_MAIN);
 1226              		.loc 1 722 5 is_stmt 1 view .LVU367
 1227              	.LBB105:
 1228              	.LBI105:
 109:Drivers/lvgl/src/widgets/../core/lv_obj_style_gen.h **** {
 1229              		.loc 2 109 26 view .LVU368
 1230              	.LBB106:
 111:Drivers/lvgl/src/widgets/../core/lv_obj_style_gen.h ****     return (lv_coord_t)v.num;
 1231              		.loc 2 111 5 view .LVU369
 111:Drivers/lvgl/src/widgets/../core/lv_obj_style_gen.h ****     return (lv_coord_t)v.num;
 1232              		.loc 2 111 26 is_stmt 0 view .LVU370
 1233 008a 1122     		movs	r2, #17
 1234 008c 3946     		mov	r1, r7
 1235 008e 2846     		mov	r0, r5
 1236 0090 FFF7FEFF 		bl	lv_obj_get_style_prop
 1237              	.LVL112:
 112:Drivers/lvgl/src/widgets/../core/lv_obj_style_gen.h **** }
 1238              		.loc 2 112 5 is_stmt 1 view .LVU371
 112:Drivers/lvgl/src/widgets/../core/lv_obj_style_gen.h **** }
 1239              		.loc 2 112 12 is_stmt 0 view .LVU372
 1240 0094 03B2     		sxth	r3, r0
 1241 0096 0793     		str	r3, [sp, #28]
 1242              	.LVL113:
 112:Drivers/lvgl/src/widgets/../core/lv_obj_style_gen.h **** }
 1243              		.loc 2 112 12 view .LVU373
 1244              	.LBE106:
 1245              	.LBE105:
 723:Drivers/lvgl/src/widgets/lv_btnmatrix.c ****     lv_coord_t pright = lv_obj_get_style_pad_right(obj, LV_PART_MAIN);
 1246              		.loc 1 723 5 is_stmt 1 view .LVU374
 1247              	.LBB107:
 1248              	.LBI107:
 115:Drivers/lvgl/src/widgets/../core/lv_obj_style_gen.h **** {
 1249              		.loc 2 115 26 view .LVU375
 1250              	.LBB108:
 117:Drivers/lvgl/src/widgets/../core/lv_obj_style_gen.h ****     return (lv_coord_t)v.num;
 1251              		.loc 2 117 5 view .LVU376
 117:Drivers/lvgl/src/widgets/../core/lv_obj_style_gen.h ****     return (lv_coord_t)v.num;
 1252              		.loc 2 117 26 is_stmt 0 view .LVU377
 1253 0098 1222     		movs	r2, #18
 1254 009a 3946     		mov	r1, r7
 1255 009c 2846     		mov	r0, r5
 1256 009e FFF7FEFF 		bl	lv_obj_get_style_prop
 1257              	.LVL114:
 118:Drivers/lvgl/src/widgets/../core/lv_obj_style_gen.h **** }
 1258              		.loc 2 118 5 is_stmt 1 view .LVU378
ARM GAS  /var/folders/0z/tsy30v1j4xl4_7kw94k978ww0000gn/T//ccZBZI6H.s 			page 51


 118:Drivers/lvgl/src/widgets/../core/lv_obj_style_gen.h **** }
 1259              		.loc 2 118 12 is_stmt 0 view .LVU379
 1260 00a2 03B2     		sxth	r3, r0
 1261 00a4 0893     		str	r3, [sp, #32]
 1262              	.LVL115:
 118:Drivers/lvgl/src/widgets/../core/lv_obj_style_gen.h **** }
 1263              		.loc 2 118 12 view .LVU380
 1264              	.LBE108:
 1265              	.LBE107:
 724:Drivers/lvgl/src/widgets/lv_btnmatrix.c **** 
 1266              		.loc 1 724 5 is_stmt 1 view .LVU381
 1267              	.LBB109:
 1268              	.LBI109:
 121:Drivers/lvgl/src/widgets/../core/lv_obj_style_gen.h **** {
 1269              		.loc 2 121 26 view .LVU382
 1270              	.LBB110:
 123:Drivers/lvgl/src/widgets/../core/lv_obj_style_gen.h ****     return (lv_coord_t)v.num;
 1271              		.loc 2 123 5 view .LVU383
 123:Drivers/lvgl/src/widgets/../core/lv_obj_style_gen.h ****     return (lv_coord_t)v.num;
 1272              		.loc 2 123 26 is_stmt 0 view .LVU384
 1273 00a6 1322     		movs	r2, #19
 1274 00a8 3946     		mov	r1, r7
 1275 00aa 2846     		mov	r0, r5
 1276 00ac FFF7FEFF 		bl	lv_obj_get_style_prop
 1277              	.LVL116:
 124:Drivers/lvgl/src/widgets/../core/lv_obj_style_gen.h **** }
 1278              		.loc 2 124 5 is_stmt 1 view .LVU385
 124:Drivers/lvgl/src/widgets/../core/lv_obj_style_gen.h **** }
 1279              		.loc 2 124 12 is_stmt 0 view .LVU386
 1280 00b0 03B2     		sxth	r3, r0
 1281 00b2 0993     		str	r3, [sp, #36]
 1282              	.LVL117:
 124:Drivers/lvgl/src/widgets/../core/lv_obj_style_gen.h **** }
 1283              		.loc 2 124 12 view .LVU387
 1284              	.LBE110:
 1285              	.LBE109:
 731:Drivers/lvgl/src/widgets/lv_btnmatrix.c ****     lv_obj_draw_dsc_init(&part_draw_dsc, draw_ctx);
 1286              		.loc 1 731 5 is_stmt 1 view .LVU388
 732:Drivers/lvgl/src/widgets/lv_btnmatrix.c ****     part_draw_dsc.part = LV_PART_ITEMS;
 1287              		.loc 1 732 5 view .LVU389
 1288 00b4 3146     		mov	r1, r6
 1289 00b6 0CA8     		add	r0, sp, #48
 1290 00b8 FFF7FEFF 		bl	lv_obj_draw_dsc_init
 1291              	.LVL118:
 733:Drivers/lvgl/src/widgets/lv_btnmatrix.c ****     part_draw_dsc.class_p = MY_CLASS;
 1292              		.loc 1 733 5 view .LVU390
 733:Drivers/lvgl/src/widgets/lv_btnmatrix.c ****     part_draw_dsc.class_p = MY_CLASS;
 1293              		.loc 1 733 24 is_stmt 0 view .LVU391
 1294 00bc 4FF4A023 		mov	r3, #327680
 1295 00c0 1993     		str	r3, [sp, #100]
 734:Drivers/lvgl/src/widgets/lv_btnmatrix.c ****     part_draw_dsc.type = LV_BTNMATRIX_DRAW_PART_BTN;
 1296              		.loc 1 734 5 is_stmt 1 view .LVU392
 734:Drivers/lvgl/src/widgets/lv_btnmatrix.c ****     part_draw_dsc.type = LV_BTNMATRIX_DRAW_PART_BTN;
 1297              		.loc 1 734 27 is_stmt 0 view .LVU393
 1298 00c2 C84B     		ldr	r3, .L86
 1299 00c4 0D93     		str	r3, [sp, #52]
 735:Drivers/lvgl/src/widgets/lv_btnmatrix.c ****     part_draw_dsc.rect_dsc = &draw_rect_dsc_act;
ARM GAS  /var/folders/0z/tsy30v1j4xl4_7kw94k978ww0000gn/T//ccZBZI6H.s 			page 52


 1300              		.loc 1 735 5 is_stmt 1 view .LVU394
 735:Drivers/lvgl/src/widgets/lv_btnmatrix.c ****     part_draw_dsc.rect_dsc = &draw_rect_dsc_act;
 1301              		.loc 1 735 24 is_stmt 0 view .LVU395
 1302 00c6 0E97     		str	r7, [sp, #56]
 736:Drivers/lvgl/src/widgets/lv_btnmatrix.c ****     part_draw_dsc.label_dsc = &draw_label_dsc_act;
 1303              		.loc 1 736 5 is_stmt 1 view .LVU396
 736:Drivers/lvgl/src/widgets/lv_btnmatrix.c ****     part_draw_dsc.label_dsc = &draw_label_dsc_act;
 1304              		.loc 1 736 28 is_stmt 0 view .LVU397
 1305 00c8 3CAB     		add	r3, sp, #240
 1306 00ca 1093     		str	r3, [sp, #64]
 737:Drivers/lvgl/src/widgets/lv_btnmatrix.c **** 
 1307              		.loc 1 737 5 is_stmt 1 view .LVU398
 737:Drivers/lvgl/src/widgets/lv_btnmatrix.c **** 
 1308              		.loc 1 737 29 is_stmt 0 view .LVU399
 1309 00cc 34AB     		add	r3, sp, #208
 1310 00ce 1193     		str	r3, [sp, #68]
 739:Drivers/lvgl/src/widgets/lv_btnmatrix.c ****         /*Search the next valid text in the map*/
 1311              		.loc 1 739 5 is_stmt 1 view .LVU400
 703:Drivers/lvgl/src/widgets/lv_btnmatrix.c **** 
 1312              		.loc 1 703 14 is_stmt 0 view .LVU401
 1313 00d0 3C46     		mov	r4, r7
 1314              	.LVL119:
 739:Drivers/lvgl/src/widgets/lv_btnmatrix.c ****         /*Search the next valid text in the map*/
 1315              		.loc 1 739 5 view .LVU402
 1316 00d2 29E1     		b	.L57
 1317              	.LVL120:
 1318              	.L58:
 1319              	.LBB111:
 742:Drivers/lvgl/src/widgets/lv_btnmatrix.c ****         }
 1320              		.loc 1 742 13 is_stmt 1 view .LVU403
 742:Drivers/lvgl/src/widgets/lv_btnmatrix.c ****         }
 1321              		.loc 1 742 18 is_stmt 0 view .LVU404
 1322 00d4 0134     		adds	r4, r4, #1
 1323              	.LVL121:
 742:Drivers/lvgl/src/widgets/lv_btnmatrix.c ****         }
 1324              		.loc 1 742 18 view .LVU405
 1325 00d6 A4B2     		uxth	r4, r4
 1326              	.LVL122:
 1327              	.L77:
 741:Drivers/lvgl/src/widgets/lv_btnmatrix.c ****             txt_i++;
 1328              		.loc 1 741 48 is_stmt 1 view .LVU406
 741:Drivers/lvgl/src/widgets/lv_btnmatrix.c ****             txt_i++;
 1329              		.loc 1 741 26 is_stmt 0 view .LVU407
 1330 00d8 6B6A     		ldr	r3, [r5, #36]
 741:Drivers/lvgl/src/widgets/lv_btnmatrix.c ****             txt_i++;
 1331              		.loc 1 741 33 view .LVU408
 1332 00da A600     		lsls	r6, r4, #2
 741:Drivers/lvgl/src/widgets/lv_btnmatrix.c ****             txt_i++;
 1333              		.loc 1 741 15 view .LVU409
 1334 00dc C249     		ldr	r1, .L86+4
 1335 00de 53F82400 		ldr	r0, [r3, r4, lsl #2]
 1336 00e2 FFF7FEFF 		bl	strcmp
 1337              	.LVL123:
 741:Drivers/lvgl/src/widgets/lv_btnmatrix.c ****             txt_i++;
 1338              		.loc 1 741 48 view .LVU410
 1339 00e6 0028     		cmp	r0, #0
 1340 00e8 F4D0     		beq	.L58
ARM GAS  /var/folders/0z/tsy30v1j4xl4_7kw94k978ww0000gn/T//ccZBZI6H.s 			page 53


 746:Drivers/lvgl/src/widgets/lv_btnmatrix.c **** 
 1341              		.loc 1 746 9 is_stmt 1 view .LVU411
 746:Drivers/lvgl/src/widgets/lv_btnmatrix.c **** 
 1342              		.loc 1 746 33 is_stmt 0 view .LVU412
 1343 00ea EB6A     		ldr	r3, [r5, #44]
 746:Drivers/lvgl/src/widgets/lv_btnmatrix.c **** 
 1344              		.loc 1 746 44 view .LVU413
 1345 00ec BA46     		mov	r10, r7
 1346 00ee 4FEA470B 		lsl	fp, r7, #1
 746:Drivers/lvgl/src/widgets/lv_btnmatrix.c **** 
 1347              		.loc 1 746 12 view .LVU414
 1348 00f2 33F81790 		ldrh	r9, [r3, r7, lsl #1]
 1349 00f6 4846     		mov	r0, r9
 1350 00f8 FFF7FEFF 		bl	button_is_hidden
 1351              	.LVL124:
 746:Drivers/lvgl/src/widgets/lv_btnmatrix.c **** 
 1352              		.loc 1 746 11 view .LVU415
 1353 00fc 0028     		cmp	r0, #0
 1354 00fe 40F00F81 		bne	.L60
 749:Drivers/lvgl/src/widgets/lv_btnmatrix.c ****         if(button_get_checked(btnm->ctrl_bits[btn_i])) btn_state |= LV_STATE_CHECKED;
 1355              		.loc 1 749 9 is_stmt 1 view .LVU416
 1356              	.LVL125:
 750:Drivers/lvgl/src/widgets/lv_btnmatrix.c **** 
 1357              		.loc 1 750 9 view .LVU417
 750:Drivers/lvgl/src/widgets/lv_btnmatrix.c **** 
 1358              		.loc 1 750 12 is_stmt 0 view .LVU418
 1359 0102 4846     		mov	r0, r9
 1360 0104 FFF7FEFF 		bl	button_get_checked
 1361              	.LVL126:
 750:Drivers/lvgl/src/widgets/lv_btnmatrix.c **** 
 1362              		.loc 1 750 11 view .LVU419
 1363 0108 0028     		cmp	r0, #0
 1364 010a 40F01881 		bne	.L78
 749:Drivers/lvgl/src/widgets/lv_btnmatrix.c ****         if(button_get_checked(btnm->ctrl_bits[btn_i])) btn_state |= LV_STATE_CHECKED;
 1365              		.loc 1 749 20 view .LVU420
 1366 010e 4FF00008 		mov	r8, #0
 1367              	.L61:
 1368              	.LVL127:
 752:Drivers/lvgl/src/widgets/lv_btnmatrix.c ****         else if(btn_i == btnm->btn_id_sel) {
 1369              		.loc 1 752 9 is_stmt 1 view .LVU421
 752:Drivers/lvgl/src/widgets/lv_btnmatrix.c ****         else if(btn_i == btnm->btn_id_sel) {
 1370              		.loc 1 752 12 is_stmt 0 view .LVU422
 1371 0112 4846     		mov	r0, r9
 1372 0114 FFF7FEFF 		bl	button_is_inactive
 1373              	.LVL128:
 752:Drivers/lvgl/src/widgets/lv_btnmatrix.c ****         else if(btn_i == btnm->btn_id_sel) {
 1374              		.loc 1 752 11 view .LVU423
 1375 0118 0028     		cmp	r0, #0
 1376 011a 00F01381 		beq	.L62
 752:Drivers/lvgl/src/widgets/lv_btnmatrix.c ****         else if(btn_i == btnm->btn_id_sel) {
 1377              		.loc 1 752 56 is_stmt 1 discriminator 1 view .LVU424
 752:Drivers/lvgl/src/widgets/lv_btnmatrix.c ****         else if(btn_i == btnm->btn_id_sel) {
 1378              		.loc 1 752 66 is_stmt 0 discriminator 1 view .LVU425
 1379 011e 48F08008 		orr	r8, r8, #128
 1380              	.LVL129:
 1381              	.L63:
 761:Drivers/lvgl/src/widgets/lv_btnmatrix.c ****         btn_area.x1 += area_obj.x1;
ARM GAS  /var/folders/0z/tsy30v1j4xl4_7kw94k978ww0000gn/T//ccZBZI6H.s 			page 54


 1382              		.loc 1 761 9 is_stmt 1 view .LVU426
 761:Drivers/lvgl/src/widgets/lv_btnmatrix.c ****         btn_area.x1 += area_obj.x1;
 1383              		.loc 1 761 38 is_stmt 0 view .LVU427
 1384 0122 AB6A     		ldr	r3, [r5, #40]
 761:Drivers/lvgl/src/widgets/lv_btnmatrix.c ****         btn_area.x1 += area_obj.x1;
 1385              		.loc 1 761 33 view .LVU428
 1386 0124 03EBCA02 		add	r2, r3, r10, lsl #3
 1387              	.LVL130:
 1388              	.LBB112:
 1389              	.LBI112:
 110:Drivers/lvgl/src/widgets/../core/../misc/../font/../misc/lv_area.h **** {
 1390              		.loc 3 110 20 is_stmt 1 view .LVU429
 1391              	.LBB113:
 112:Drivers/lvgl/src/widgets/../core/../misc/../font/../misc/lv_area.h ****     dest->y1 = src->y1;
 1392              		.loc 3 112 5 view .LVU430
 112:Drivers/lvgl/src/widgets/../core/../misc/../font/../misc/lv_area.h ****     dest->y1 = src->y1;
 1393              		.loc 3 112 19 is_stmt 0 view .LVU431
 1394 0128 33F93A30 		ldrsh	r3, [r3, r10, lsl #3]
 112:Drivers/lvgl/src/widgets/../core/../misc/../font/../misc/lv_area.h ****     dest->y1 = src->y1;
 1395              		.loc 3 112 14 view .LVU432
 1396 012c ADF82831 		strh	r3, [sp, #296]	@ movhi
 113:Drivers/lvgl/src/widgets/../core/../misc/../font/../misc/lv_area.h ****     dest->x2 = src->x2;
 1397              		.loc 3 113 5 is_stmt 1 view .LVU433
 113:Drivers/lvgl/src/widgets/../core/../misc/../font/../misc/lv_area.h ****     dest->x2 = src->x2;
 1398              		.loc 3 113 19 is_stmt 0 view .LVU434
 1399 0130 B2F90210 		ldrsh	r1, [r2, #2]
 113:Drivers/lvgl/src/widgets/../core/../misc/../font/../misc/lv_area.h ****     dest->x2 = src->x2;
 1400              		.loc 3 113 14 view .LVU435
 1401 0134 ADF82A11 		strh	r1, [sp, #298]	@ movhi
 114:Drivers/lvgl/src/widgets/../core/../misc/../font/../misc/lv_area.h ****     dest->y2 = src->y2;
 1402              		.loc 3 114 5 is_stmt 1 view .LVU436
 114:Drivers/lvgl/src/widgets/../core/../misc/../font/../misc/lv_area.h ****     dest->y2 = src->y2;
 1403              		.loc 3 114 19 is_stmt 0 view .LVU437
 1404 0138 B2F904C0 		ldrsh	ip, [r2, #4]
 114:Drivers/lvgl/src/widgets/../core/../misc/../font/../misc/lv_area.h ****     dest->y2 = src->y2;
 1405              		.loc 3 114 14 view .LVU438
 1406 013c ADF82CC1 		strh	ip, [sp, #300]	@ movhi
 115:Drivers/lvgl/src/widgets/../core/../misc/../font/../misc/lv_area.h **** }
 1407              		.loc 3 115 5 is_stmt 1 view .LVU439
 115:Drivers/lvgl/src/widgets/../core/../misc/../font/../misc/lv_area.h **** }
 1408              		.loc 3 115 19 is_stmt 0 view .LVU440
 1409 0140 B2F90600 		ldrsh	r0, [r2, #6]
 115:Drivers/lvgl/src/widgets/../core/../misc/../font/../misc/lv_area.h **** }
 1410              		.loc 3 115 14 view .LVU441
 1411 0144 ADF82E01 		strh	r0, [sp, #302]	@ movhi
 1412              	.LVL131:
 115:Drivers/lvgl/src/widgets/../core/../misc/../font/../misc/lv_area.h **** }
 1413              		.loc 3 115 14 view .LVU442
 1414              	.LBE113:
 1415              	.LBE112:
 762:Drivers/lvgl/src/widgets/lv_btnmatrix.c ****         btn_area.y1 += area_obj.y1;
 1416              		.loc 1 762 9 is_stmt 1 view .LVU443
 762:Drivers/lvgl/src/widgets/lv_btnmatrix.c ****         btn_area.y1 += area_obj.y1;
 1417              		.loc 1 762 32 is_stmt 0 view .LVU444
 1418 0148 BDF83021 		ldrh	r2, [sp, #304]
 762:Drivers/lvgl/src/widgets/lv_btnmatrix.c ****         btn_area.y1 += area_obj.y1;
 1419              		.loc 1 762 21 view .LVU445
ARM GAS  /var/folders/0z/tsy30v1j4xl4_7kw94k978ww0000gn/T//ccZBZI6H.s 			page 55


 1420 014c 1344     		add	r3, r3, r2
 1421 014e ADF82831 		strh	r3, [sp, #296]	@ movhi
 763:Drivers/lvgl/src/widgets/lv_btnmatrix.c ****         btn_area.x2 += area_obj.x1;
 1422              		.loc 1 763 9 is_stmt 1 view .LVU446
 763:Drivers/lvgl/src/widgets/lv_btnmatrix.c ****         btn_area.x2 += area_obj.x1;
 1423              		.loc 1 763 32 is_stmt 0 view .LVU447
 1424 0152 BDF83231 		ldrh	r3, [sp, #306]
 763:Drivers/lvgl/src/widgets/lv_btnmatrix.c ****         btn_area.x2 += area_obj.x1;
 1425              		.loc 1 763 21 view .LVU448
 1426 0156 1944     		add	r1, r1, r3
 1427 0158 ADF82A11 		strh	r1, [sp, #298]	@ movhi
 764:Drivers/lvgl/src/widgets/lv_btnmatrix.c ****         btn_area.y2 += area_obj.y1;
 1428              		.loc 1 764 9 is_stmt 1 view .LVU449
 764:Drivers/lvgl/src/widgets/lv_btnmatrix.c ****         btn_area.y2 += area_obj.y1;
 1429              		.loc 1 764 21 is_stmt 0 view .LVU450
 1430 015c 6244     		add	r2, r2, ip
 1431 015e ADF82C21 		strh	r2, [sp, #300]	@ movhi
 765:Drivers/lvgl/src/widgets/lv_btnmatrix.c **** 
 1432              		.loc 1 765 9 is_stmt 1 view .LVU451
 765:Drivers/lvgl/src/widgets/lv_btnmatrix.c **** 
 1433              		.loc 1 765 21 is_stmt 0 view .LVU452
 1434 0162 0344     		add	r3, r3, r0
 1435 0164 ADF82E31 		strh	r3, [sp, #302]	@ movhi
 768:Drivers/lvgl/src/widgets/lv_btnmatrix.c ****             lv_memcpy(&draw_rect_dsc_act, &draw_rect_dsc_def, sizeof(lv_draw_rect_dsc_t));
 1436              		.loc 1 768 9 is_stmt 1 view .LVU453
 768:Drivers/lvgl/src/widgets/lv_btnmatrix.c ****             lv_memcpy(&draw_rect_dsc_act, &draw_rect_dsc_def, sizeof(lv_draw_rect_dsc_t));
 1437              		.loc 1 768 11 is_stmt 0 view .LVU454
 1438 0168 B8F1000F 		cmp	r8, #0
 1439 016c 40F00881 		bne	.L67
 769:Drivers/lvgl/src/widgets/lv_btnmatrix.c ****             lv_memcpy(&draw_label_dsc_act, &draw_label_dsc_def, sizeof(lv_draw_label_dsc_t));
 1440              		.loc 1 769 13 is_stmt 1 view .LVU455
 1441 0170 3822     		movs	r2, #56
 1442 0172 26A9     		add	r1, sp, #152
 1443 0174 3CA8     		add	r0, sp, #240
 1444 0176 FFF7FEFF 		bl	lv_memcpy
 1445              	.LVL132:
 770:Drivers/lvgl/src/widgets/lv_btnmatrix.c ****         }
 1446              		.loc 1 770 13 view .LVU456
 1447 017a 2022     		movs	r2, #32
 1448 017c 1EA9     		add	r1, sp, #120
 1449 017e 34A8     		add	r0, sp, #208
 1450 0180 FFF7FEFF 		bl	lv_memcpy
 1451              	.LVL133:
 1452              	.L68:
 784:Drivers/lvgl/src/widgets/lv_btnmatrix.c ****         if(recolor) draw_label_dsc_act.flag |= LV_TEXT_FLAG_RECOLOR;
 1453              		.loc 1 784 9 view .LVU457
 784:Drivers/lvgl/src/widgets/lv_btnmatrix.c ****         if(recolor) draw_label_dsc_act.flag |= LV_TEXT_FLAG_RECOLOR;
 1454              		.loc 1 784 46 is_stmt 0 view .LVU458
 1455 0184 EB6A     		ldr	r3, [r5, #44]
 784:Drivers/lvgl/src/widgets/lv_btnmatrix.c ****         if(recolor) draw_label_dsc_act.flag |= LV_TEXT_FLAG_RECOLOR;
 1456              		.loc 1 784 24 view .LVU459
 1457 0186 33F80B00 		ldrh	r0, [r3, fp]
 1458 018a FFF7FEFF 		bl	button_is_recolor
 1459              	.LVL134:
 785:Drivers/lvgl/src/widgets/lv_btnmatrix.c ****         else draw_label_dsc_act.flag &= ~LV_TEXT_FLAG_RECOLOR;
 1460              		.loc 1 785 9 is_stmt 1 view .LVU460
 785:Drivers/lvgl/src/widgets/lv_btnmatrix.c ****         else draw_label_dsc_act.flag &= ~LV_TEXT_FLAG_RECOLOR;
ARM GAS  /var/folders/0z/tsy30v1j4xl4_7kw94k978ww0000gn/T//ccZBZI6H.s 			page 56


 1461              		.loc 1 785 11 is_stmt 0 view .LVU461
 1462 018e 0028     		cmp	r0, #0
 1463 0190 00F01981 		beq	.L69
 785:Drivers/lvgl/src/widgets/lv_btnmatrix.c ****         else draw_label_dsc_act.flag &= ~LV_TEXT_FLAG_RECOLOR;
 1464              		.loc 1 785 21 is_stmt 1 discriminator 1 view .LVU462
 785:Drivers/lvgl/src/widgets/lv_btnmatrix.c ****         else draw_label_dsc_act.flag &= ~LV_TEXT_FLAG_RECOLOR;
 1465              		.loc 1 785 45 is_stmt 0 discriminator 1 view .LVU463
 1466 0194 9DF8ED30 		ldrb	r3, [sp, #237]	@ zero_extendqisi2
 1467 0198 43F00103 		orr	r3, r3, #1
 1468 019c 8DF8ED30 		strb	r3, [sp, #237]
 1469              	.L70:
 789:Drivers/lvgl/src/widgets/lv_btnmatrix.c ****         part_draw_dsc.id = btn_i;
 1470              		.loc 1 789 9 is_stmt 1 view .LVU464
 789:Drivers/lvgl/src/widgets/lv_btnmatrix.c ****         part_draw_dsc.id = btn_i;
 1471              		.loc 1 789 33 is_stmt 0 view .LVU465
 1472 01a0 4AAB     		add	r3, sp, #296
 1473 01a2 0F93     		str	r3, [sp, #60]
 790:Drivers/lvgl/src/widgets/lv_btnmatrix.c ****         lv_event_send(obj, LV_EVENT_DRAW_PART_BEGIN, &part_draw_dsc);
 1474              		.loc 1 790 9 is_stmt 1 view .LVU466
 790:Drivers/lvgl/src/widgets/lv_btnmatrix.c ****         lv_event_send(obj, LV_EVENT_DRAW_PART_BEGIN, &part_draw_dsc);
 1475              		.loc 1 790 26 is_stmt 0 view .LVU467
 1476 01a4 CDF868A0 		str	r10, [sp, #104]
 791:Drivers/lvgl/src/widgets/lv_btnmatrix.c **** 
 1477              		.loc 1 791 9 is_stmt 1 view .LVU468
 1478 01a8 0CAA     		add	r2, sp, #48
 1479 01aa 1A21     		movs	r1, #26
 1480 01ac 2846     		mov	r0, r5
 1481              	.LVL135:
 791:Drivers/lvgl/src/widgets/lv_btnmatrix.c **** 
 1482              		.loc 1 791 9 is_stmt 0 view .LVU469
 1483 01ae FFF7FEFF 		bl	lv_event_send
 1484              	.LVL136:
 794:Drivers/lvgl/src/widgets/lv_btnmatrix.c ****             draw_rect_dsc_act.border_side = LV_BORDER_SIDE_FULL;
 1485              		.loc 1 794 9 is_stmt 1 view .LVU470
 794:Drivers/lvgl/src/widgets/lv_btnmatrix.c ****             draw_rect_dsc_act.border_side = LV_BORDER_SIDE_FULL;
 1486              		.loc 1 794 29 is_stmt 0 view .LVU471
 1487 01b2 9DF81331 		ldrb	r3, [sp, #275]	@ zero_extendqisi2
 794:Drivers/lvgl/src/widgets/lv_btnmatrix.c ****             draw_rect_dsc_act.border_side = LV_BORDER_SIDE_FULL;
 1488              		.loc 1 794 11 view .LVU472
 1489 01b6 13F0200F 		tst	r3, #32
 1490 01ba 2AD0     		beq	.L71
 795:Drivers/lvgl/src/widgets/lv_btnmatrix.c ****             if(btn_area.x1 == obj->coords.x1 + pleft) draw_rect_dsc_act.border_side &= ~LV_BORDER_S
 1491              		.loc 1 795 13 is_stmt 1 view .LVU473
 795:Drivers/lvgl/src/widgets/lv_btnmatrix.c ****             if(btn_area.x1 == obj->coords.x1 + pleft) draw_rect_dsc_act.border_side &= ~LV_BORDER_S
 1492              		.loc 1 795 43 is_stmt 0 view .LVU474
 1493 01bc 9DF81331 		ldrb	r3, [sp, #275]	@ zero_extendqisi2
 1494 01c0 0F22     		movs	r2, #15
 1495 01c2 62F34503 		bfi	r3, r2, #1, #5
 1496 01c6 8DF81331 		strb	r3, [sp, #275]
 796:Drivers/lvgl/src/widgets/lv_btnmatrix.c ****             if(btn_area.x2 == obj->coords.x2 - pright) draw_rect_dsc_act.border_side &= ~LV_BORDER_
 1497              		.loc 1 796 13 is_stmt 1 view .LVU475
 796:Drivers/lvgl/src/widgets/lv_btnmatrix.c ****             if(btn_area.x2 == obj->coords.x2 - pright) draw_rect_dsc_act.border_side &= ~LV_BORDER_
 1498              		.loc 1 796 24 is_stmt 0 view .LVU476
 1499 01ca BDF92821 		ldrsh	r2, [sp, #296]
 796:Drivers/lvgl/src/widgets/lv_btnmatrix.c ****             if(btn_area.x2 == obj->coords.x2 - pright) draw_rect_dsc_act.border_side &= ~LV_BORDER_
 1500              		.loc 1 796 42 view .LVU477
 1501 01ce B5F91430 		ldrsh	r3, [r5, #20]
ARM GAS  /var/folders/0z/tsy30v1j4xl4_7kw94k978ww0000gn/T//ccZBZI6H.s 			page 57


 796:Drivers/lvgl/src/widgets/lv_btnmatrix.c ****             if(btn_area.x2 == obj->coords.x2 - pright) draw_rect_dsc_act.border_side &= ~LV_BORDER_
 1502              		.loc 1 796 46 view .LVU478
 1503 01d2 0899     		ldr	r1, [sp, #32]
 1504 01d4 0B44     		add	r3, r3, r1
 796:Drivers/lvgl/src/widgets/lv_btnmatrix.c ****             if(btn_area.x2 == obj->coords.x2 - pright) draw_rect_dsc_act.border_side &= ~LV_BORDER_
 1505              		.loc 1 796 15 view .LVU479
 1506 01d6 9A42     		cmp	r2, r3
 1507 01d8 00F0FC80 		beq	.L82
 1508              	.L72:
 797:Drivers/lvgl/src/widgets/lv_btnmatrix.c ****             if(btn_area.y1 == obj->coords.y1 + ptop) draw_rect_dsc_act.border_side &= ~LV_BORDER_SI
 1509              		.loc 1 797 13 is_stmt 1 view .LVU480
 797:Drivers/lvgl/src/widgets/lv_btnmatrix.c ****             if(btn_area.y1 == obj->coords.y1 + ptop) draw_rect_dsc_act.border_side &= ~LV_BORDER_SI
 1510              		.loc 1 797 24 is_stmt 0 view .LVU481
 1511 01dc BDF92C21 		ldrsh	r2, [sp, #300]
 797:Drivers/lvgl/src/widgets/lv_btnmatrix.c ****             if(btn_area.y1 == obj->coords.y1 + ptop) draw_rect_dsc_act.border_side &= ~LV_BORDER_SI
 1512              		.loc 1 797 42 view .LVU482
 1513 01e0 B5F91830 		ldrsh	r3, [r5, #24]
 797:Drivers/lvgl/src/widgets/lv_btnmatrix.c ****             if(btn_area.y1 == obj->coords.y1 + ptop) draw_rect_dsc_act.border_side &= ~LV_BORDER_SI
 1514              		.loc 1 797 46 view .LVU483
 1515 01e4 0999     		ldr	r1, [sp, #36]
 1516 01e6 5B1A     		subs	r3, r3, r1
 797:Drivers/lvgl/src/widgets/lv_btnmatrix.c ****             if(btn_area.y1 == obj->coords.y1 + ptop) draw_rect_dsc_act.border_side &= ~LV_BORDER_SI
 1517              		.loc 1 797 15 view .LVU484
 1518 01e8 9A42     		cmp	r2, r3
 1519 01ea 00F0FF80 		beq	.L83
 1520              	.L73:
 798:Drivers/lvgl/src/widgets/lv_btnmatrix.c ****             if(btn_area.y2 == obj->coords.y2 - pbottom) draw_rect_dsc_act.border_side &= ~LV_BORDER
 1521              		.loc 1 798 13 is_stmt 1 view .LVU485
 798:Drivers/lvgl/src/widgets/lv_btnmatrix.c ****             if(btn_area.y2 == obj->coords.y2 - pbottom) draw_rect_dsc_act.border_side &= ~LV_BORDER
 1522              		.loc 1 798 24 is_stmt 0 view .LVU486
 1523 01ee BDF92A21 		ldrsh	r2, [sp, #298]
 798:Drivers/lvgl/src/widgets/lv_btnmatrix.c ****             if(btn_area.y2 == obj->coords.y2 - pbottom) draw_rect_dsc_act.border_side &= ~LV_BORDER
 1524              		.loc 1 798 42 view .LVU487
 1525 01f2 B5F91630 		ldrsh	r3, [r5, #22]
 798:Drivers/lvgl/src/widgets/lv_btnmatrix.c ****             if(btn_area.y2 == obj->coords.y2 - pbottom) draw_rect_dsc_act.border_side &= ~LV_BORDER
 1526              		.loc 1 798 46 view .LVU488
 1527 01f6 0699     		ldr	r1, [sp, #24]
 1528 01f8 0B44     		add	r3, r3, r1
 798:Drivers/lvgl/src/widgets/lv_btnmatrix.c ****             if(btn_area.y2 == obj->coords.y2 - pbottom) draw_rect_dsc_act.border_side &= ~LV_BORDER
 1529              		.loc 1 798 15 view .LVU489
 1530 01fa 9A42     		cmp	r2, r3
 1531 01fc 00F00181 		beq	.L84
 1532              	.L74:
 799:Drivers/lvgl/src/widgets/lv_btnmatrix.c ****         }
 1533              		.loc 1 799 13 is_stmt 1 view .LVU490
 799:Drivers/lvgl/src/widgets/lv_btnmatrix.c ****         }
 1534              		.loc 1 799 24 is_stmt 0 view .LVU491
 1535 0200 BDF92E21 		ldrsh	r2, [sp, #302]
 799:Drivers/lvgl/src/widgets/lv_btnmatrix.c ****         }
 1536              		.loc 1 799 42 view .LVU492
 1537 0204 B5F91A30 		ldrsh	r3, [r5, #26]
 799:Drivers/lvgl/src/widgets/lv_btnmatrix.c ****         }
 1538              		.loc 1 799 46 view .LVU493
 1539 0208 0799     		ldr	r1, [sp, #28]
 1540 020a 5B1A     		subs	r3, r3, r1
 799:Drivers/lvgl/src/widgets/lv_btnmatrix.c ****         }
 1541              		.loc 1 799 15 view .LVU494
ARM GAS  /var/folders/0z/tsy30v1j4xl4_7kw94k978ww0000gn/T//ccZBZI6H.s 			page 58


 1542 020c 9A42     		cmp	r2, r3
 1543 020e 00F00381 		beq	.L85
 1544              	.L71:
 802:Drivers/lvgl/src/widgets/lv_btnmatrix.c **** 
 1545              		.loc 1 802 9 is_stmt 1 view .LVU495
 1546              	.LVL137:
 1547              	.LBB114:
 1548              	.LBI114:
 133:Drivers/lvgl/src/widgets/../core/../misc/../font/../misc/lv_area.h **** {
 1549              		.loc 3 133 26 view .LVU496
 1550              	.LBB115:
 1551              		.loc 3 135 5 view .LVU497
 1552              		.loc 3 135 31 is_stmt 0 view .LVU498
 1553 0212 BDF82E91 		ldrh	r9, [sp, #302]
 1554              		.loc 3 135 44 view .LVU499
 1555 0216 BDF82A31 		ldrh	r3, [sp, #298]
 1556              		.loc 3 135 36 view .LVU500
 1557 021a A9EB0309 		sub	r9, r9, r3
 1558 021e 1FFA89F9 		uxth	r9, r9
 1559              		.loc 3 135 49 view .LVU501
 1560 0222 09F10109 		add	r9, r9, #1
 1561 0226 1FFA89F2 		uxth	r2, r9
 1562              		.loc 3 135 12 view .LVU502
 1563 022a 0FFA89F9 		sxth	r9, r9
 1564              	.LVL138:
 1565              		.loc 3 135 12 view .LVU503
 1566              	.LBE115:
 1567              	.LBE114:
 804:Drivers/lvgl/src/widgets/lv_btnmatrix.c ****             /*Push up the upper boundary of the btn area to create the popover*/
 1568              		.loc 1 804 9 is_stmt 1 view .LVU504
 804:Drivers/lvgl/src/widgets/lv_btnmatrix.c ****             /*Push up the upper boundary of the btn area to create the popover*/
 1569              		.loc 1 804 11 is_stmt 0 view .LVU505
 1570 022e 18F02008 		ands	r8, r8, #32
 1571              	.LVL139:
 804:Drivers/lvgl/src/widgets/lv_btnmatrix.c ****             /*Push up the upper boundary of the btn area to create the popover*/
 1572              		.loc 1 804 11 view .LVU506
 1573 0232 08D0     		beq	.L75
 804:Drivers/lvgl/src/widgets/lv_btnmatrix.c ****             /*Push up the upper boundary of the btn area to create the popover*/
 1574              		.loc 1 804 51 discriminator 1 view .LVU507
 1575 0234 E96A     		ldr	r1, [r5, #44]
 804:Drivers/lvgl/src/widgets/lv_btnmatrix.c ****             /*Push up the upper boundary of the btn area to create the popover*/
 1576              		.loc 1 804 62 discriminator 1 view .LVU508
 1577 0236 31F80B10 		ldrh	r1, [r1, fp]
 804:Drivers/lvgl/src/widgets/lv_btnmatrix.c ****             /*Push up the upper boundary of the btn area to create the popover*/
 1578              		.loc 1 804 43 discriminator 1 view .LVU509
 1579 023a 11F4806F 		tst	r1, #1024
 1580 023e 02D0     		beq	.L75
 806:Drivers/lvgl/src/widgets/lv_btnmatrix.c ****         }
 1581              		.loc 1 806 13 is_stmt 1 view .LVU510
 806:Drivers/lvgl/src/widgets/lv_btnmatrix.c ****         }
 1582              		.loc 1 806 25 is_stmt 0 view .LVU511
 1583 0240 9B1A     		subs	r3, r3, r2
 1584 0242 ADF82A31 		strh	r3, [sp, #298]	@ movhi
 1585              	.L75:
 810:Drivers/lvgl/src/widgets/lv_btnmatrix.c **** 
 1586              		.loc 1 810 9 is_stmt 1 view .LVU512
 1587 0246 4AAA     		add	r2, sp, #296
ARM GAS  /var/folders/0z/tsy30v1j4xl4_7kw94k978ww0000gn/T//ccZBZI6H.s 			page 59


 1588 0248 3CA9     		add	r1, sp, #240
 1589 024a 0498     		ldr	r0, [sp, #16]
 1590 024c FFF7FEFF 		bl	lv_draw_rect
 1591              	.LVL140:
 813:Drivers/lvgl/src/widgets/lv_btnmatrix.c ****         lv_coord_t letter_space = draw_label_dsc_act.letter_space;
 1592              		.loc 1 813 9 view .LVU513
 814:Drivers/lvgl/src/widgets/lv_btnmatrix.c ****         lv_coord_t line_space = draw_label_dsc_act.line_space;
 1593              		.loc 1 814 9 view .LVU514
 815:Drivers/lvgl/src/widgets/lv_btnmatrix.c ****         const char * txt = btnm->map_p[txt_i];
 1594              		.loc 1 815 9 view .LVU515
 815:Drivers/lvgl/src/widgets/lv_btnmatrix.c ****         const char * txt = btnm->map_p[txt_i];
 1595              		.loc 1 815 20 is_stmt 0 view .LVU516
 1596 0250 BDF9E220 		ldrsh	r2, [sp, #226]
 1597              	.LVL141:
 816:Drivers/lvgl/src/widgets/lv_btnmatrix.c **** 
 1598              		.loc 1 816 9 is_stmt 1 view .LVU517
 816:Drivers/lvgl/src/widgets/lv_btnmatrix.c **** 
 1599              		.loc 1 816 32 is_stmt 0 view .LVU518
 1600 0254 6B6A     		ldr	r3, [r5, #36]
 816:Drivers/lvgl/src/widgets/lv_btnmatrix.c **** 
 1601              		.loc 1 816 22 view .LVU519
 1602 0256 9E59     		ldr	r6, [r3, r6]
 1603              	.LVL142:
 826:Drivers/lvgl/src/widgets/lv_btnmatrix.c ****         lv_txt_get_size(&txt_size, txt, font, letter_space,
 1604              		.loc 1 826 9 is_stmt 1 view .LVU520
 827:Drivers/lvgl/src/widgets/lv_btnmatrix.c ****                         line_space, lv_area_get_width(&area_obj), draw_label_dsc_act.flag);
 1605              		.loc 1 827 9 view .LVU521
 1606              	.LBB116:
 1607              	.LBI116:
 123:Drivers/lvgl/src/widgets/../core/../misc/../font/../misc/lv_area.h **** {
 1608              		.loc 3 123 26 view .LVU522
 1609              	.LBB117:
 125:Drivers/lvgl/src/widgets/../core/../misc/../font/../misc/lv_area.h **** }
 1610              		.loc 3 125 5 view .LVU523
 125:Drivers/lvgl/src/widgets/../core/../misc/../font/../misc/lv_area.h **** }
 1611              		.loc 3 125 31 is_stmt 0 view .LVU524
 1612 0258 BDF83431 		ldrh	r3, [sp, #308]
 125:Drivers/lvgl/src/widgets/../core/../misc/../font/../misc/lv_area.h **** }
 1613              		.loc 3 125 44 view .LVU525
 1614 025c BDF83011 		ldrh	r1, [sp, #304]
 125:Drivers/lvgl/src/widgets/../core/../misc/../font/../misc/lv_area.h **** }
 1615              		.loc 3 125 36 view .LVU526
 1616 0260 5B1A     		subs	r3, r3, r1
 1617 0262 9BB2     		uxth	r3, r3
 125:Drivers/lvgl/src/widgets/../core/../misc/../font/../misc/lv_area.h **** }
 1618              		.loc 3 125 49 view .LVU527
 1619 0264 0133     		adds	r3, r3, #1
 125:Drivers/lvgl/src/widgets/../core/../misc/../font/../misc/lv_area.h **** }
 1620              		.loc 3 125 12 view .LVU528
 1621 0266 1BB2     		sxth	r3, r3
 1622              	.LVL143:
 125:Drivers/lvgl/src/widgets/../core/../misc/../font/../misc/lv_area.h **** }
 1623              		.loc 3 125 12 view .LVU529
 1624              	.LBE117:
 1625              	.LBE116:
 827:Drivers/lvgl/src/widgets/lv_btnmatrix.c ****                         line_space, lv_area_get_width(&area_obj), draw_label_dsc_act.flag);
 1626              		.loc 1 827 9 view .LVU530
ARM GAS  /var/folders/0z/tsy30v1j4xl4_7kw94k978ww0000gn/T//ccZBZI6H.s 			page 60


 1627 0268 9DF8ED10 		ldrb	r1, [sp, #237]	@ zero_extendqisi2
 1628 026c 0291     		str	r1, [sp, #8]
 1629 026e 0193     		str	r3, [sp, #4]
 1630 0270 0092     		str	r2, [sp]
 1631 0272 BDF9E430 		ldrsh	r3, [sp, #228]
 1632 0276 349A     		ldr	r2, [sp, #208]
 1633 0278 3146     		mov	r1, r6
 1634 027a 0BA8     		add	r0, sp, #44
 1635 027c FFF7FEFF 		bl	lv_txt_get_size
 1636              	.LVL144:
 830:Drivers/lvgl/src/widgets/lv_btnmatrix.c ****         btn_area.y1 += (lv_area_get_height(&btn_area) - txt_size.y) / 2;
 1637              		.loc 1 830 9 is_stmt 1 view .LVU531
 1638              	.LBB118:
 1639              	.LBI118:
 123:Drivers/lvgl/src/widgets/../core/../misc/../font/../misc/lv_area.h **** {
 1640              		.loc 3 123 26 view .LVU532
 1641              	.LBB119:
 125:Drivers/lvgl/src/widgets/../core/../misc/../font/../misc/lv_area.h **** }
 1642              		.loc 3 125 5 view .LVU533
 125:Drivers/lvgl/src/widgets/../core/../misc/../font/../misc/lv_area.h **** }
 1643              		.loc 3 125 31 is_stmt 0 view .LVU534
 1644 0280 BDF82C31 		ldrh	r3, [sp, #300]
 125:Drivers/lvgl/src/widgets/../core/../misc/../font/../misc/lv_area.h **** }
 1645              		.loc 3 125 44 view .LVU535
 1646 0284 BDF82811 		ldrh	r1, [sp, #296]
 125:Drivers/lvgl/src/widgets/../core/../misc/../font/../misc/lv_area.h **** }
 1647              		.loc 3 125 36 view .LVU536
 1648 0288 5B1A     		subs	r3, r3, r1
 1649 028a 9BB2     		uxth	r3, r3
 125:Drivers/lvgl/src/widgets/../core/../misc/../font/../misc/lv_area.h **** }
 1650              		.loc 3 125 49 view .LVU537
 1651 028c 0133     		adds	r3, r3, #1
 125:Drivers/lvgl/src/widgets/../core/../misc/../font/../misc/lv_area.h **** }
 1652              		.loc 3 125 12 view .LVU538
 1653 028e 1BB2     		sxth	r3, r3
 1654              	.LVL145:
 125:Drivers/lvgl/src/widgets/../core/../misc/../font/../misc/lv_area.h **** }
 1655              		.loc 3 125 12 view .LVU539
 1656              	.LBE119:
 1657              	.LBE118:
 830:Drivers/lvgl/src/widgets/lv_btnmatrix.c ****         btn_area.y1 += (lv_area_get_height(&btn_area) - txt_size.y) / 2;
 1658              		.loc 1 830 64 view .LVU540
 1659 0290 BDF92CC0 		ldrsh	ip, [sp, #44]
 830:Drivers/lvgl/src/widgets/lv_btnmatrix.c ****         btn_area.y1 += (lv_area_get_height(&btn_area) - txt_size.y) / 2;
 1660              		.loc 1 830 54 view .LVU541
 1661 0294 A3EB0C03 		sub	r3, r3, ip
 830:Drivers/lvgl/src/widgets/lv_btnmatrix.c ****         btn_area.y1 += (lv_area_get_height(&btn_area) - txt_size.y) / 2;
 1662              		.loc 1 830 68 view .LVU542
 1663 0298 03EBD373 		add	r3, r3, r3, lsr #31
 830:Drivers/lvgl/src/widgets/lv_btnmatrix.c ****         btn_area.y1 += (lv_area_get_height(&btn_area) - txt_size.y) / 2;
 1664              		.loc 1 830 21 view .LVU543
 1665 029c 01EB6301 		add	r1, r1, r3, asr #1
 1666 02a0 89B2     		uxth	r1, r1
 1667 02a2 ADF82811 		strh	r1, [sp, #296]	@ movhi
 831:Drivers/lvgl/src/widgets/lv_btnmatrix.c ****         btn_area.x2 = btn_area.x1 + txt_size.x;
 1668              		.loc 1 831 9 is_stmt 1 view .LVU544
 1669              	.LVL146:
ARM GAS  /var/folders/0z/tsy30v1j4xl4_7kw94k978ww0000gn/T//ccZBZI6H.s 			page 61


 1670              	.LBB120:
 1671              	.LBI120:
 133:Drivers/lvgl/src/widgets/../core/../misc/../font/../misc/lv_area.h **** {
 1672              		.loc 3 133 26 view .LVU545
 1673              	.LBB121:
 1674              		.loc 3 135 5 view .LVU546
 1675              		.loc 3 135 31 is_stmt 0 view .LVU547
 1676 02a6 BDF82E31 		ldrh	r3, [sp, #302]
 1677              		.loc 3 135 44 view .LVU548
 1678 02aa BDF82A21 		ldrh	r2, [sp, #298]
 1679              		.loc 3 135 36 view .LVU549
 1680 02ae 9B1A     		subs	r3, r3, r2
 1681 02b0 9BB2     		uxth	r3, r3
 1682              		.loc 3 135 49 view .LVU550
 1683 02b2 0133     		adds	r3, r3, #1
 1684              		.loc 3 135 12 view .LVU551
 1685 02b4 1BB2     		sxth	r3, r3
 1686              	.LVL147:
 1687              		.loc 3 135 12 view .LVU552
 1688              	.LBE121:
 1689              	.LBE120:
 831:Drivers/lvgl/src/widgets/lv_btnmatrix.c ****         btn_area.x2 = btn_area.x1 + txt_size.x;
 1690              		.loc 1 831 65 view .LVU553
 1691 02b6 BDF92E00 		ldrsh	r0, [sp, #46]
 831:Drivers/lvgl/src/widgets/lv_btnmatrix.c ****         btn_area.x2 = btn_area.x1 + txt_size.x;
 1692              		.loc 1 831 55 view .LVU554
 1693 02ba 1B1A     		subs	r3, r3, r0
 831:Drivers/lvgl/src/widgets/lv_btnmatrix.c ****         btn_area.x2 = btn_area.x1 + txt_size.x;
 1694              		.loc 1 831 69 view .LVU555
 1695 02bc 03EBD373 		add	r3, r3, r3, lsr #31
 831:Drivers/lvgl/src/widgets/lv_btnmatrix.c ****         btn_area.x2 = btn_area.x1 + txt_size.x;
 1696              		.loc 1 831 21 view .LVU556
 1697 02c0 02EB6302 		add	r2, r2, r3, asr #1
 1698 02c4 92B2     		uxth	r2, r2
 1699 02c6 ADF82A21 		strh	r2, [sp, #298]	@ movhi
 832:Drivers/lvgl/src/widgets/lv_btnmatrix.c ****         btn_area.y2 = btn_area.y1 + txt_size.y;
 1700              		.loc 1 832 9 is_stmt 1 view .LVU557
 832:Drivers/lvgl/src/widgets/lv_btnmatrix.c ****         btn_area.y2 = btn_area.y1 + txt_size.y;
 1701              		.loc 1 832 35 is_stmt 0 view .LVU558
 1702 02ca 11FA8CFC 		uxtah	ip, r1, ip
 832:Drivers/lvgl/src/widgets/lv_btnmatrix.c ****         btn_area.y2 = btn_area.y1 + txt_size.y;
 1703              		.loc 1 832 21 view .LVU559
 1704 02ce ADF82CC1 		strh	ip, [sp, #300]	@ movhi
 833:Drivers/lvgl/src/widgets/lv_btnmatrix.c **** 
 1705              		.loc 1 833 9 is_stmt 1 view .LVU560
 833:Drivers/lvgl/src/widgets/lv_btnmatrix.c **** 
 1706              		.loc 1 833 35 is_stmt 0 view .LVU561
 1707 02d2 12FA80F0 		uxtah	r0, r2, r0
 1708 02d6 83B2     		uxth	r3, r0
 833:Drivers/lvgl/src/widgets/lv_btnmatrix.c **** 
 1709              		.loc 1 833 21 view .LVU562
 1710 02d8 ADF82E01 		strh	r0, [sp, #302]	@ movhi
 835:Drivers/lvgl/src/widgets/lv_btnmatrix.c ****             /*Push up the button text into the popover*/
 1711              		.loc 1 835 9 is_stmt 1 view .LVU563
 835:Drivers/lvgl/src/widgets/lv_btnmatrix.c ****             /*Push up the button text into the popover*/
 1712              		.loc 1 835 11 is_stmt 0 view .LVU564
 1713 02dc B8F1000F 		cmp	r8, #0
ARM GAS  /var/folders/0z/tsy30v1j4xl4_7kw94k978ww0000gn/T//ccZBZI6H.s 			page 62


 1714 02e0 11D0     		beq	.L76
 835:Drivers/lvgl/src/widgets/lv_btnmatrix.c ****             /*Push up the button text into the popover*/
 1715              		.loc 1 835 51 discriminator 1 view .LVU565
 1716 02e2 E96A     		ldr	r1, [r5, #44]
 835:Drivers/lvgl/src/widgets/lv_btnmatrix.c ****             /*Push up the button text into the popover*/
 1717              		.loc 1 835 62 discriminator 1 view .LVU566
 1718 02e4 31F80B10 		ldrh	r1, [r1, fp]
 835:Drivers/lvgl/src/widgets/lv_btnmatrix.c ****             /*Push up the button text into the popover*/
 1719              		.loc 1 835 43 discriminator 1 view .LVU567
 1720 02e8 11F4806F 		tst	r1, #1024
 1721 02ec 0BD0     		beq	.L76
 837:Drivers/lvgl/src/widgets/lv_btnmatrix.c ****             btn_area.y2 -= btn_height / 2;
 1722              		.loc 1 837 13 is_stmt 1 view .LVU568
 837:Drivers/lvgl/src/widgets/lv_btnmatrix.c ****             btn_area.y2 -= btn_height / 2;
 1723              		.loc 1 837 25 is_stmt 0 view .LVU569
 1724 02ee 09EBD979 		add	r9, r9, r9, lsr #31
 1725              	.LVL148:
 837:Drivers/lvgl/src/widgets/lv_btnmatrix.c ****             btn_area.y2 -= btn_height / 2;
 1726              		.loc 1 837 25 view .LVU570
 1727 02f2 C9F34F09 		ubfx	r9, r9, #1, #16
 1728 02f6 A2EB0902 		sub	r2, r2, r9
 1729 02fa ADF82A21 		strh	r2, [sp, #298]	@ movhi
 838:Drivers/lvgl/src/widgets/lv_btnmatrix.c ****         }
 1730              		.loc 1 838 13 is_stmt 1 view .LVU571
 838:Drivers/lvgl/src/widgets/lv_btnmatrix.c ****         }
 1731              		.loc 1 838 25 is_stmt 0 view .LVU572
 1732 02fe A3EB0903 		sub	r3, r3, r9
 1733 0302 ADF82E31 		strh	r3, [sp, #302]	@ movhi
 1734              	.L76:
 842:Drivers/lvgl/src/widgets/lv_btnmatrix.c **** 
 1735              		.loc 1 842 9 is_stmt 1 view .LVU573
 1736 0306 0023     		movs	r3, #0
 1737 0308 0093     		str	r3, [sp]
 1738 030a 3346     		mov	r3, r6
 1739 030c 4AAA     		add	r2, sp, #296
 1740 030e 34A9     		add	r1, sp, #208
 1741 0310 0498     		ldr	r0, [sp, #16]
 1742 0312 FFF7FEFF 		bl	lv_draw_label
 1743              	.LVL149:
 844:Drivers/lvgl/src/widgets/lv_btnmatrix.c ****     }
 1744              		.loc 1 844 9 view .LVU574
 1745 0316 0CAA     		add	r2, sp, #48
 1746 0318 1B21     		movs	r1, #27
 1747 031a 2846     		mov	r0, r5
 1748 031c FFF7FEFF 		bl	lv_event_send
 1749              	.LVL150:
 1750              	.L60:
 844:Drivers/lvgl/src/widgets/lv_btnmatrix.c ****     }
 1751              		.loc 1 844 9 is_stmt 0 view .LVU575
 1752              	.LBE111:
 739:Drivers/lvgl/src/widgets/lv_btnmatrix.c ****         /*Search the next valid text in the map*/
 1753              		.loc 1 739 50 is_stmt 1 discriminator 2 view .LVU576
 739:Drivers/lvgl/src/widgets/lv_btnmatrix.c ****         /*Search the next valid text in the map*/
 1754              		.loc 1 739 48 is_stmt 0 discriminator 2 view .LVU577
 1755 0320 0137     		adds	r7, r7, #1
 1756              	.LVL151:
 739:Drivers/lvgl/src/widgets/lv_btnmatrix.c ****         /*Search the next valid text in the map*/
ARM GAS  /var/folders/0z/tsy30v1j4xl4_7kw94k978ww0000gn/T//ccZBZI6H.s 			page 63


 1757              		.loc 1 739 48 discriminator 2 view .LVU578
 1758 0322 BFB2     		uxth	r7, r7
 1759              	.LVL152:
 739:Drivers/lvgl/src/widgets/lv_btnmatrix.c ****         /*Search the next valid text in the map*/
 1760              		.loc 1 739 57 discriminator 2 view .LVU579
 1761 0324 0134     		adds	r4, r4, #1
 1762              	.LVL153:
 739:Drivers/lvgl/src/widgets/lv_btnmatrix.c ****         /*Search the next valid text in the map*/
 1763              		.loc 1 739 57 discriminator 2 view .LVU580
 1764 0326 A4B2     		uxth	r4, r4
 1765              	.LVL154:
 1766              	.L57:
 739:Drivers/lvgl/src/widgets/lv_btnmatrix.c ****         /*Search the next valid text in the map*/
 1767              		.loc 1 739 26 is_stmt 1 discriminator 1 view .LVU581
 739:Drivers/lvgl/src/widgets/lv_btnmatrix.c ****         /*Search the next valid text in the map*/
 1768              		.loc 1 739 32 is_stmt 0 discriminator 1 view .LVU582
 1769 0328 2B8E     		ldrh	r3, [r5, #48]
 739:Drivers/lvgl/src/widgets/lv_btnmatrix.c ****         /*Search the next valid text in the map*/
 1770              		.loc 1 739 26 discriminator 1 view .LVU583
 1771 032a BB42     		cmp	r3, r7
 1772 032c 3FF6D4AE 		bhi	.L77
 847:Drivers/lvgl/src/widgets/lv_btnmatrix.c **** #if LV_USE_ARABIC_PERSIAN_CHARS
 1773              		.loc 1 847 5 is_stmt 1 view .LVU584
 847:Drivers/lvgl/src/widgets/lv_btnmatrix.c **** #if LV_USE_ARABIC_PERSIAN_CHARS
 1774              		.loc 1 847 21 is_stmt 0 view .LVU585
 1775 0330 95F82230 		ldrb	r3, [r5, #34]	@ zero_extendqisi2
 1776 0334 6FF3C303 		bfc	r3, #3, #1
 1777 0338 85F82230 		strb	r3, [r5, #34]
 1778 033c 68E6     		b	.L54
 1779              	.LVL155:
 1780              	.L78:
 1781              	.LBB122:
 750:Drivers/lvgl/src/widgets/lv_btnmatrix.c **** 
 1782              		.loc 1 750 66 view .LVU586
 1783 033e 4FF00108 		mov	r8, #1
 1784 0342 E6E6     		b	.L61
 1785              	.LVL156:
 1786              	.L62:
 753:Drivers/lvgl/src/widgets/lv_btnmatrix.c ****             if(state_ori & LV_STATE_PRESSED) btn_state |= LV_STATE_PRESSED;
 1787              		.loc 1 753 14 is_stmt 1 view .LVU587
 753:Drivers/lvgl/src/widgets/lv_btnmatrix.c ****             if(state_ori & LV_STATE_PRESSED) btn_state |= LV_STATE_PRESSED;
 1788              		.loc 1 753 30 is_stmt 0 view .LVU588
 1789 0344 AB8E     		ldrh	r3, [r5, #52]
 753:Drivers/lvgl/src/widgets/lv_btnmatrix.c ****             if(state_ori & LV_STATE_PRESSED) btn_state |= LV_STATE_PRESSED;
 1790              		.loc 1 753 16 view .LVU589
 1791 0346 BB42     		cmp	r3, r7
 1792 0348 7FF4EBAE 		bne	.L63
 754:Drivers/lvgl/src/widgets/lv_btnmatrix.c ****             if(state_ori & LV_STATE_FOCUSED) btn_state |= LV_STATE_FOCUSED;
 1793              		.loc 1 754 13 is_stmt 1 view .LVU590
 754:Drivers/lvgl/src/widgets/lv_btnmatrix.c ****             if(state_ori & LV_STATE_FOCUSED) btn_state |= LV_STATE_FOCUSED;
 1794              		.loc 1 754 15 is_stmt 0 view .LVU591
 1795 034c 059B     		ldr	r3, [sp, #20]
 1796 034e 13F0200F 		tst	r3, #32
 1797 0352 01D0     		beq	.L64
 754:Drivers/lvgl/src/widgets/lv_btnmatrix.c ****             if(state_ori & LV_STATE_FOCUSED) btn_state |= LV_STATE_FOCUSED;
 1798              		.loc 1 754 46 is_stmt 1 discriminator 1 view .LVU592
 754:Drivers/lvgl/src/widgets/lv_btnmatrix.c ****             if(state_ori & LV_STATE_FOCUSED) btn_state |= LV_STATE_FOCUSED;
ARM GAS  /var/folders/0z/tsy30v1j4xl4_7kw94k978ww0000gn/T//ccZBZI6H.s 			page 64


 1799              		.loc 1 754 56 is_stmt 0 discriminator 1 view .LVU593
 1800 0354 48F02008 		orr	r8, r8, #32
 1801              	.LVL157:
 1802              	.L64:
 755:Drivers/lvgl/src/widgets/lv_btnmatrix.c ****             if(state_ori & LV_STATE_FOCUS_KEY) btn_state |= LV_STATE_FOCUS_KEY;
 1803              		.loc 1 755 13 is_stmt 1 view .LVU594
 755:Drivers/lvgl/src/widgets/lv_btnmatrix.c ****             if(state_ori & LV_STATE_FOCUS_KEY) btn_state |= LV_STATE_FOCUS_KEY;
 1804              		.loc 1 755 15 is_stmt 0 view .LVU595
 1805 0358 059B     		ldr	r3, [sp, #20]
 1806 035a 13F0020F 		tst	r3, #2
 1807 035e 01D0     		beq	.L65
 755:Drivers/lvgl/src/widgets/lv_btnmatrix.c ****             if(state_ori & LV_STATE_FOCUS_KEY) btn_state |= LV_STATE_FOCUS_KEY;
 1808              		.loc 1 755 46 is_stmt 1 discriminator 1 view .LVU596
 755:Drivers/lvgl/src/widgets/lv_btnmatrix.c ****             if(state_ori & LV_STATE_FOCUS_KEY) btn_state |= LV_STATE_FOCUS_KEY;
 1809              		.loc 1 755 56 is_stmt 0 discriminator 1 view .LVU597
 1810 0360 48F00208 		orr	r8, r8, #2
 1811              	.LVL158:
 1812              	.L65:
 756:Drivers/lvgl/src/widgets/lv_btnmatrix.c ****             if(state_ori & LV_STATE_EDITED) btn_state |= LV_STATE_EDITED;
 1813              		.loc 1 756 13 is_stmt 1 view .LVU598
 756:Drivers/lvgl/src/widgets/lv_btnmatrix.c ****             if(state_ori & LV_STATE_EDITED) btn_state |= LV_STATE_EDITED;
 1814              		.loc 1 756 15 is_stmt 0 view .LVU599
 1815 0364 059B     		ldr	r3, [sp, #20]
 1816 0366 13F0040F 		tst	r3, #4
 1817 036a 01D0     		beq	.L66
 756:Drivers/lvgl/src/widgets/lv_btnmatrix.c ****             if(state_ori & LV_STATE_EDITED) btn_state |= LV_STATE_EDITED;
 1818              		.loc 1 756 48 is_stmt 1 discriminator 1 view .LVU600
 756:Drivers/lvgl/src/widgets/lv_btnmatrix.c ****             if(state_ori & LV_STATE_EDITED) btn_state |= LV_STATE_EDITED;
 1819              		.loc 1 756 58 is_stmt 0 discriminator 1 view .LVU601
 1820 036c 48F00408 		orr	r8, r8, #4
 1821              	.LVL159:
 1822              	.L66:
 757:Drivers/lvgl/src/widgets/lv_btnmatrix.c ****         }
 1823              		.loc 1 757 13 is_stmt 1 view .LVU602
 757:Drivers/lvgl/src/widgets/lv_btnmatrix.c ****         }
 1824              		.loc 1 757 15 is_stmt 0 view .LVU603
 1825 0370 059B     		ldr	r3, [sp, #20]
 1826 0372 13F0080F 		tst	r3, #8
 1827 0376 3FF4D4AE 		beq	.L63
 757:Drivers/lvgl/src/widgets/lv_btnmatrix.c ****         }
 1828              		.loc 1 757 45 is_stmt 1 discriminator 1 view .LVU604
 757:Drivers/lvgl/src/widgets/lv_btnmatrix.c ****         }
 1829              		.loc 1 757 55 is_stmt 0 discriminator 1 view .LVU605
 1830 037a 48F00808 		orr	r8, r8, #8
 1831              	.LVL160:
 757:Drivers/lvgl/src/widgets/lv_btnmatrix.c ****         }
 1832              		.loc 1 757 55 discriminator 1 view .LVU606
 1833 037e D0E6     		b	.L63
 1834              	.L67:
 774:Drivers/lvgl/src/widgets/lv_btnmatrix.c ****             obj->skip_trans = 1;
 1835              		.loc 1 774 13 is_stmt 1 view .LVU607
 774:Drivers/lvgl/src/widgets/lv_btnmatrix.c ****             obj->skip_trans = 1;
 1836              		.loc 1 774 24 is_stmt 0 view .LVU608
 1837 0380 A5F82080 		strh	r8, [r5, #32]	@ movhi
 775:Drivers/lvgl/src/widgets/lv_btnmatrix.c ****             lv_draw_rect_dsc_init(&draw_rect_dsc_act);
 1838              		.loc 1 775 13 is_stmt 1 view .LVU609
 775:Drivers/lvgl/src/widgets/lv_btnmatrix.c ****             lv_draw_rect_dsc_init(&draw_rect_dsc_act);
ARM GAS  /var/folders/0z/tsy30v1j4xl4_7kw94k978ww0000gn/T//ccZBZI6H.s 			page 65


 1839              		.loc 1 775 29 is_stmt 0 view .LVU610
 1840 0384 95F82230 		ldrb	r3, [r5, #34]	@ zero_extendqisi2
 1841 0388 43F00803 		orr	r3, r3, #8
 1842 038c 85F82230 		strb	r3, [r5, #34]
 776:Drivers/lvgl/src/widgets/lv_btnmatrix.c ****             lv_draw_label_dsc_init(&draw_label_dsc_act);
 1843              		.loc 1 776 13 is_stmt 1 view .LVU611
 1844 0390 3CA8     		add	r0, sp, #240
 1845 0392 FFF7FEFF 		bl	lv_draw_rect_dsc_init
 1846              	.LVL161:
 777:Drivers/lvgl/src/widgets/lv_btnmatrix.c ****             lv_obj_init_draw_rect_dsc(obj, LV_PART_ITEMS, &draw_rect_dsc_act);
 1847              		.loc 1 777 13 view .LVU612
 1848 0396 34A8     		add	r0, sp, #208
 1849 0398 FFF7FEFF 		bl	lv_draw_label_dsc_init
 1850              	.LVL162:
 778:Drivers/lvgl/src/widgets/lv_btnmatrix.c ****             lv_obj_init_draw_label_dsc(obj, LV_PART_ITEMS, &draw_label_dsc_act);
 1851              		.loc 1 778 13 view .LVU613
 1852 039c 3CAA     		add	r2, sp, #240
 1853 039e 4FF4A021 		mov	r1, #327680
 1854 03a2 2846     		mov	r0, r5
 1855 03a4 FFF7FEFF 		bl	lv_obj_init_draw_rect_dsc
 1856              	.LVL163:
 779:Drivers/lvgl/src/widgets/lv_btnmatrix.c ****             obj->state = state_ori;
 1857              		.loc 1 779 13 view .LVU614
 1858 03a8 34AA     		add	r2, sp, #208
 1859 03aa 4FF4A021 		mov	r1, #327680
 1860 03ae 2846     		mov	r0, r5
 1861 03b0 FFF7FEFF 		bl	lv_obj_init_draw_label_dsc
 1862              	.LVL164:
 780:Drivers/lvgl/src/widgets/lv_btnmatrix.c ****             obj->skip_trans = 0;
 1863              		.loc 1 780 13 view .LVU615
 780:Drivers/lvgl/src/widgets/lv_btnmatrix.c ****             obj->skip_trans = 0;
 1864              		.loc 1 780 24 is_stmt 0 view .LVU616
 1865 03b4 059B     		ldr	r3, [sp, #20]
 1866 03b6 2B84     		strh	r3, [r5, #32]	@ movhi
 781:Drivers/lvgl/src/widgets/lv_btnmatrix.c ****         }
 1867              		.loc 1 781 13 is_stmt 1 view .LVU617
 781:Drivers/lvgl/src/widgets/lv_btnmatrix.c ****         }
 1868              		.loc 1 781 29 is_stmt 0 view .LVU618
 1869 03b8 95F82230 		ldrb	r3, [r5, #34]	@ zero_extendqisi2
 1870 03bc 6FF3C303 		bfc	r3, #3, #1
 1871 03c0 85F82230 		strb	r3, [r5, #34]
 1872 03c4 DEE6     		b	.L68
 1873              	.LVL165:
 1874              	.L69:
 786:Drivers/lvgl/src/widgets/lv_btnmatrix.c **** 
 1875              		.loc 1 786 14 is_stmt 1 view .LVU619
 786:Drivers/lvgl/src/widgets/lv_btnmatrix.c **** 
 1876              		.loc 1 786 38 is_stmt 0 view .LVU620
 1877 03c6 9DF8ED30 		ldrb	r3, [sp, #237]	@ zero_extendqisi2
 1878 03ca 23F00103 		bic	r3, r3, #1
 1879 03ce 8DF8ED30 		strb	r3, [sp, #237]
 1880 03d2 E5E6     		b	.L70
 1881              	.LVL166:
 1882              	.L82:
 796:Drivers/lvgl/src/widgets/lv_btnmatrix.c ****             if(btn_area.x2 == obj->coords.x2 - pright) draw_rect_dsc_act.border_side &= ~LV_BORDER_
 1883              		.loc 1 796 55 is_stmt 1 discriminator 1 view .LVU621
 796:Drivers/lvgl/src/widgets/lv_btnmatrix.c ****             if(btn_area.x2 == obj->coords.x2 - pright) draw_rect_dsc_act.border_side &= ~LV_BORDER_
ARM GAS  /var/folders/0z/tsy30v1j4xl4_7kw94k978ww0000gn/T//ccZBZI6H.s 			page 66


 1884              		.loc 1 796 85 is_stmt 0 discriminator 1 view .LVU622
 1885 03d4 9DF81331 		ldrb	r3, [sp, #275]	@ zero_extendqisi2
 1886 03d8 0B22     		movs	r2, #11
 1887 03da 62F34503 		bfi	r3, r2, #1, #5
 1888 03de 8DF81331 		strb	r3, [sp, #275]
 1889 03e2 FBE6     		b	.L72
 1890              	.L87:
 1891              		.align	2
 1892              	.L86:
 1893 03e4 00000000 		.word	.LANCHOR0
 1894 03e8 00000000 		.word	.LC0
 1895              	.L83:
 797:Drivers/lvgl/src/widgets/lv_btnmatrix.c ****             if(btn_area.y1 == obj->coords.y1 + ptop) draw_rect_dsc_act.border_side &= ~LV_BORDER_SI
 1896              		.loc 1 797 56 is_stmt 1 discriminator 1 view .LVU623
 797:Drivers/lvgl/src/widgets/lv_btnmatrix.c ****             if(btn_area.y1 == obj->coords.y1 + ptop) draw_rect_dsc_act.border_side &= ~LV_BORDER_SI
 1897              		.loc 1 797 86 is_stmt 0 discriminator 1 view .LVU624
 1898 03ec 9DF81331 		ldrb	r3, [sp, #275]	@ zero_extendqisi2
 1899 03f0 C3F34402 		ubfx	r2, r3, #1, #5
 1900 03f4 02F01702 		and	r2, r2, #23
 1901 03f8 62F34503 		bfi	r3, r2, #1, #5
 1902 03fc 8DF81331 		strb	r3, [sp, #275]
 1903 0400 F5E6     		b	.L73
 1904              	.L84:
 798:Drivers/lvgl/src/widgets/lv_btnmatrix.c ****             if(btn_area.y2 == obj->coords.y2 - pbottom) draw_rect_dsc_act.border_side &= ~LV_BORDER
 1905              		.loc 1 798 54 is_stmt 1 discriminator 1 view .LVU625
 798:Drivers/lvgl/src/widgets/lv_btnmatrix.c ****             if(btn_area.y2 == obj->coords.y2 - pbottom) draw_rect_dsc_act.border_side &= ~LV_BORDER
 1906              		.loc 1 798 84 is_stmt 0 discriminator 1 view .LVU626
 1907 0402 9DF81331 		ldrb	r3, [sp, #275]	@ zero_extendqisi2
 1908 0406 C3F34402 		ubfx	r2, r3, #1, #5
 1909 040a 02F01D02 		and	r2, r2, #29
 1910 040e 62F34503 		bfi	r3, r2, #1, #5
 1911 0412 8DF81331 		strb	r3, [sp, #275]
 1912 0416 F3E6     		b	.L74
 1913              	.L85:
 799:Drivers/lvgl/src/widgets/lv_btnmatrix.c ****         }
 1914              		.loc 1 799 57 is_stmt 1 discriminator 1 view .LVU627
 799:Drivers/lvgl/src/widgets/lv_btnmatrix.c ****         }
