ARM GAS  /var/folders/0z/tsy30v1j4xl4_7kw94k978ww0000gn/T//cc5Q5bUm.s 			page 1


   1              		.cpu cortex-m4
   2              		.arch armv7e-m
   3              		.fpu fpv4-sp-d16
   4              		.eabi_attribute 27, 1
   5              		.eabi_attribute 28, 1
   6              		.eabi_attribute 20, 1
   7              		.eabi_attribute 21, 1
   8              		.eabi_attribute 23, 3
   9              		.eabi_attribute 24, 1
  10              		.eabi_attribute 25, 1
  11              		.eabi_attribute 26, 1
  12              		.eabi_attribute 30, 1
  13              		.eabi_attribute 34, 1
  14              		.eabi_attribute 18, 4
  15              		.file	"lv_color.c"
  16              		.text
  17              	.Ltext0:
  18              		.cfi_sections	.debug_frame
  19              		.section	.text.lv_color_fill,"ax",%progbits
  20              		.align	1
  21              		.global	lv_color_fill
  22              		.syntax unified
  23              		.thumb
  24              		.thumb_func
  26              	lv_color_fill:
  27              	.LVL0:
  28              	.LFB18:
  29              		.file 1 "Drivers/lvgl/src/misc/lv_color.c"
   1:Drivers/lvgl/src/misc/lv_color.c **** /**
   2:Drivers/lvgl/src/misc/lv_color.c ****  * @file lv_color.c
   3:Drivers/lvgl/src/misc/lv_color.c ****  *
   4:Drivers/lvgl/src/misc/lv_color.c ****  */
   5:Drivers/lvgl/src/misc/lv_color.c **** 
   6:Drivers/lvgl/src/misc/lv_color.c **** /*********************
   7:Drivers/lvgl/src/misc/lv_color.c ****  *      INCLUDES
   8:Drivers/lvgl/src/misc/lv_color.c ****  *********************/
   9:Drivers/lvgl/src/misc/lv_color.c **** #include "lv_color.h"
  10:Drivers/lvgl/src/misc/lv_color.c **** #include "lv_log.h"
  11:Drivers/lvgl/src/misc/lv_color.c **** 
  12:Drivers/lvgl/src/misc/lv_color.c **** /*********************
  13:Drivers/lvgl/src/misc/lv_color.c ****  *      DEFINES
  14:Drivers/lvgl/src/misc/lv_color.c ****  *********************/
  15:Drivers/lvgl/src/misc/lv_color.c **** 
  16:Drivers/lvgl/src/misc/lv_color.c **** /**********************
  17:Drivers/lvgl/src/misc/lv_color.c ****  *      TYPEDEFS
  18:Drivers/lvgl/src/misc/lv_color.c ****  **********************/
  19:Drivers/lvgl/src/misc/lv_color.c **** 
  20:Drivers/lvgl/src/misc/lv_color.c **** /**********************
  21:Drivers/lvgl/src/misc/lv_color.c ****  *  STATIC PROTOTYPES
  22:Drivers/lvgl/src/misc/lv_color.c ****  **********************/
  23:Drivers/lvgl/src/misc/lv_color.c **** 
  24:Drivers/lvgl/src/misc/lv_color.c **** /**********************
  25:Drivers/lvgl/src/misc/lv_color.c ****  *  STATIC VARIABLES
  26:Drivers/lvgl/src/misc/lv_color.c ****  **********************/
  27:Drivers/lvgl/src/misc/lv_color.c **** 
  28:Drivers/lvgl/src/misc/lv_color.c **** /**********************
  29:Drivers/lvgl/src/misc/lv_color.c ****  *      MACROS
ARM GAS  /var/folders/0z/tsy30v1j4xl4_7kw94k978ww0000gn/T//cc5Q5bUm.s 			page 2


  30:Drivers/lvgl/src/misc/lv_color.c ****  **********************/
  31:Drivers/lvgl/src/misc/lv_color.c **** 
  32:Drivers/lvgl/src/misc/lv_color.c **** /**********************
  33:Drivers/lvgl/src/misc/lv_color.c ****  *   GLOBAL FUNCTIONS
  34:Drivers/lvgl/src/misc/lv_color.c ****  **********************/
  35:Drivers/lvgl/src/misc/lv_color.c **** 
  36:Drivers/lvgl/src/misc/lv_color.c **** void LV_ATTRIBUTE_FAST_MEM lv_color_fill(lv_color_t * buf, lv_color_t color, uint32_t px_num)
  37:Drivers/lvgl/src/misc/lv_color.c **** {
  30              		.loc 1 37 1 view -0
  31              		.cfi_startproc
  32              		@ args = 0, pretend = 0, frame = 0
  33              		@ frame_needed = 0, uses_anonymous_args = 0
  34              		@ link register save eliminated.
  38:Drivers/lvgl/src/misc/lv_color.c **** #if LV_COLOR_DEPTH == 16
  39:Drivers/lvgl/src/misc/lv_color.c ****     uintptr_t buf_int = (uintptr_t)buf;
  35              		.loc 1 39 5 view .LVU1
  40:Drivers/lvgl/src/misc/lv_color.c ****     if(buf_int & 0x3) {
  36              		.loc 1 40 5 view .LVU2
  37              		.loc 1 40 7 is_stmt 0 view .LVU3
  38 0000 10F0030F 		tst	r0, #3
  39 0004 02D0     		beq	.L2
  41:Drivers/lvgl/src/misc/lv_color.c ****         *buf = color;
  40              		.loc 1 41 9 is_stmt 1 view .LVU4
  41              		.loc 1 41 14 is_stmt 0 view .LVU5
  42 0006 20F8021B 		strh	r1, [r0], #2	@ movhi
  43              	.LVL1:
  42:Drivers/lvgl/src/misc/lv_color.c ****         buf++;
  44              		.loc 1 42 9 is_stmt 1 view .LVU6
  43:Drivers/lvgl/src/misc/lv_color.c ****         px_num--;
  45              		.loc 1 43 9 view .LVU7
  46              		.loc 1 43 15 is_stmt 0 view .LVU8
  47 000a 013A     		subs	r2, r2, #1
  48              	.LVL2:
  49              	.L2:
  44:Drivers/lvgl/src/misc/lv_color.c ****     }
  45:Drivers/lvgl/src/misc/lv_color.c **** 
  46:Drivers/lvgl/src/misc/lv_color.c ****     uint32_t c32 = (uint32_t)color.full + ((uint32_t)color.full << 16);
  50              		.loc 1 46 5 is_stmt 1 view .LVU9
  51              		.loc 1 46 65 is_stmt 0 view .LVU10
  52 000c 0B04     		lsls	r3, r1, #16
  53              		.loc 1 46 14 view .LVU11
  54 000e 13FA81F3 		uxtah	r3, r3, r1
  55              	.LVL3:
  47:Drivers/lvgl/src/misc/lv_color.c ****     uint32_t * buf32 = (uint32_t *)buf;
  56              		.loc 1 47 5 is_stmt 1 view .LVU12
  48:Drivers/lvgl/src/misc/lv_color.c **** 
  49:Drivers/lvgl/src/misc/lv_color.c ****     while(px_num > 16) {
  57              		.loc 1 49 5 view .LVU13
  58              		.loc 1 49 10 is_stmt 0 view .LVU14
  59 0012 09E0     		b	.L3
  60              	.LVL4:
  61              	.L4:
  50:Drivers/lvgl/src/misc/lv_color.c ****         *buf32 = c32;
  62              		.loc 1 50 9 is_stmt 1 view .LVU15
  63              		.loc 1 50 16 is_stmt 0 view .LVU16
  64 0014 0360     		str	r3, [r0]
  51:Drivers/lvgl/src/misc/lv_color.c ****         buf32++;
ARM GAS  /var/folders/0z/tsy30v1j4xl4_7kw94k978ww0000gn/T//cc5Q5bUm.s 			page 3


  65              		.loc 1 51 9 is_stmt 1 view .LVU17
  66              	.LVL5:
  52:Drivers/lvgl/src/misc/lv_color.c ****         *buf32 = c32;
  67              		.loc 1 52 9 view .LVU18
  68              		.loc 1 52 16 is_stmt 0 view .LVU19
  69 0016 4360     		str	r3, [r0, #4]
  53:Drivers/lvgl/src/misc/lv_color.c ****         buf32++;
  70              		.loc 1 53 9 is_stmt 1 view .LVU20
  71              	.LVL6:
  54:Drivers/lvgl/src/misc/lv_color.c ****         *buf32 = c32;
  72              		.loc 1 54 9 view .LVU21
  73              		.loc 1 54 16 is_stmt 0 view .LVU22
  74 0018 8360     		str	r3, [r0, #8]
  55:Drivers/lvgl/src/misc/lv_color.c ****         buf32++;
  75              		.loc 1 55 9 is_stmt 1 view .LVU23
  76              	.LVL7:
  56:Drivers/lvgl/src/misc/lv_color.c ****         *buf32 = c32;
  77              		.loc 1 56 9 view .LVU24
  78              		.loc 1 56 16 is_stmt 0 view .LVU25
  79 001a C360     		str	r3, [r0, #12]
  57:Drivers/lvgl/src/misc/lv_color.c ****         buf32++;
  80              		.loc 1 57 9 is_stmt 1 view .LVU26
  81              	.LVL8:
  58:Drivers/lvgl/src/misc/lv_color.c **** 
  59:Drivers/lvgl/src/misc/lv_color.c ****         *buf32 = c32;
  82              		.loc 1 59 9 view .LVU27
  83              		.loc 1 59 16 is_stmt 0 view .LVU28
  84 001c 0361     		str	r3, [r0, #16]
  60:Drivers/lvgl/src/misc/lv_color.c ****         buf32++;
  85              		.loc 1 60 9 is_stmt 1 view .LVU29
  86              	.LVL9:
  61:Drivers/lvgl/src/misc/lv_color.c ****         *buf32 = c32;
  87              		.loc 1 61 9 view .LVU30
  88              		.loc 1 61 16 is_stmt 0 view .LVU31
  89 001e 4361     		str	r3, [r0, #20]
  62:Drivers/lvgl/src/misc/lv_color.c ****         buf32++;
  90              		.loc 1 62 9 is_stmt 1 view .LVU32
  91              	.LVL10:
  63:Drivers/lvgl/src/misc/lv_color.c ****         *buf32 = c32;
  92              		.loc 1 63 9 view .LVU33
  93              		.loc 1 63 16 is_stmt 0 view .LVU34
  94 0020 8361     		str	r3, [r0, #24]
  64:Drivers/lvgl/src/misc/lv_color.c ****         buf32++;
  95              		.loc 1 64 9 is_stmt 1 view .LVU35
  96              	.LVL11:
  65:Drivers/lvgl/src/misc/lv_color.c ****         *buf32 = c32;
  97              		.loc 1 65 9 view .LVU36
  98              		.loc 1 65 16 is_stmt 0 view .LVU37
  99 0022 C361     		str	r3, [r0, #28]
  66:Drivers/lvgl/src/misc/lv_color.c ****         buf32++;
 100              		.loc 1 66 9 is_stmt 1 view .LVU38
 101              		.loc 1 66 14 is_stmt 0 view .LVU39
 102 0024 2030     		adds	r0, r0, #32
 103              	.LVL12:
  67:Drivers/lvgl/src/misc/lv_color.c **** 
  68:Drivers/lvgl/src/misc/lv_color.c ****         px_num -= 16;
 104              		.loc 1 68 9 is_stmt 1 view .LVU40
ARM GAS  /var/folders/0z/tsy30v1j4xl4_7kw94k978ww0000gn/T//cc5Q5bUm.s 			page 4


 105              		.loc 1 68 16 is_stmt 0 view .LVU41
 106 0026 103A     		subs	r2, r2, #16
 107              	.LVL13:
 108              	.L3:
  49:Drivers/lvgl/src/misc/lv_color.c ****         *buf32 = c32;
 109              		.loc 1 49 18 is_stmt 1 view .LVU42
 110 0028 102A     		cmp	r2, #16
 111 002a F3D8     		bhi	.L4
  49:Drivers/lvgl/src/misc/lv_color.c ****         *buf32 = c32;
 112              		.loc 1 49 18 is_stmt 0 view .LVU43
 113 002c 02E0     		b	.L5
 114              	.LVL14:
 115              	.L6:
  69:Drivers/lvgl/src/misc/lv_color.c ****     }
  70:Drivers/lvgl/src/misc/lv_color.c **** 
  71:Drivers/lvgl/src/misc/lv_color.c ****     buf = (lv_color_t *)buf32;
  72:Drivers/lvgl/src/misc/lv_color.c **** 
  73:Drivers/lvgl/src/misc/lv_color.c ****     while(px_num) {
  74:Drivers/lvgl/src/misc/lv_color.c ****         *buf = color;
 116              		.loc 1 74 9 is_stmt 1 view .LVU44
 117              		.loc 1 74 14 is_stmt 0 view .LVU45
 118 002e 20F8021B 		strh	r1, [r0], #2	@ movhi
 119              	.LVL15:
  75:Drivers/lvgl/src/misc/lv_color.c ****         buf++;
 120              		.loc 1 75 9 is_stmt 1 view .LVU46
  76:Drivers/lvgl/src/misc/lv_color.c ****         px_num--;
 121              		.loc 1 76 9 view .LVU47
 122              		.loc 1 76 15 is_stmt 0 view .LVU48
 123 0032 013A     		subs	r2, r2, #1
 124              	.LVL16:
 125              	.L5:
  73:Drivers/lvgl/src/misc/lv_color.c ****         *buf = color;
 126              		.loc 1 73 11 is_stmt 1 view .LVU49
 127 0034 002A     		cmp	r2, #0
 128 0036 FAD1     		bne	.L6
  77:Drivers/lvgl/src/misc/lv_color.c ****     }
  78:Drivers/lvgl/src/misc/lv_color.c **** #else
  79:Drivers/lvgl/src/misc/lv_color.c ****     while(px_num > 16) {
  80:Drivers/lvgl/src/misc/lv_color.c ****         *buf = color;
  81:Drivers/lvgl/src/misc/lv_color.c ****         buf++;
  82:Drivers/lvgl/src/misc/lv_color.c ****         *buf = color;
  83:Drivers/lvgl/src/misc/lv_color.c ****         buf++;
  84:Drivers/lvgl/src/misc/lv_color.c ****         *buf = color;
  85:Drivers/lvgl/src/misc/lv_color.c ****         buf++;
  86:Drivers/lvgl/src/misc/lv_color.c ****         *buf = color;
  87:Drivers/lvgl/src/misc/lv_color.c ****         buf++;
  88:Drivers/lvgl/src/misc/lv_color.c **** 
  89:Drivers/lvgl/src/misc/lv_color.c ****         *buf = color;
  90:Drivers/lvgl/src/misc/lv_color.c ****         buf++;
  91:Drivers/lvgl/src/misc/lv_color.c ****         *buf = color;
  92:Drivers/lvgl/src/misc/lv_color.c ****         buf++;
  93:Drivers/lvgl/src/misc/lv_color.c ****         *buf = color;
  94:Drivers/lvgl/src/misc/lv_color.c ****         buf++;
  95:Drivers/lvgl/src/misc/lv_color.c ****         *buf = color;
  96:Drivers/lvgl/src/misc/lv_color.c ****         buf++;
  97:Drivers/lvgl/src/misc/lv_color.c **** 
  98:Drivers/lvgl/src/misc/lv_color.c ****         *buf = color;
ARM GAS  /var/folders/0z/tsy30v1j4xl4_7kw94k978ww0000gn/T//cc5Q5bUm.s 			page 5


  99:Drivers/lvgl/src/misc/lv_color.c ****         buf++;
 100:Drivers/lvgl/src/misc/lv_color.c ****         *buf = color;
 101:Drivers/lvgl/src/misc/lv_color.c ****         buf++;
 102:Drivers/lvgl/src/misc/lv_color.c ****         *buf = color;
 103:Drivers/lvgl/src/misc/lv_color.c ****         buf++;
 104:Drivers/lvgl/src/misc/lv_color.c ****         *buf = color;
 105:Drivers/lvgl/src/misc/lv_color.c ****         buf++;
 106:Drivers/lvgl/src/misc/lv_color.c **** 
 107:Drivers/lvgl/src/misc/lv_color.c ****         *buf = color;
 108:Drivers/lvgl/src/misc/lv_color.c ****         buf++;
 109:Drivers/lvgl/src/misc/lv_color.c ****         *buf = color;
 110:Drivers/lvgl/src/misc/lv_color.c ****         buf++;
 111:Drivers/lvgl/src/misc/lv_color.c ****         *buf = color;
 112:Drivers/lvgl/src/misc/lv_color.c ****         buf++;
 113:Drivers/lvgl/src/misc/lv_color.c ****         *buf = color;
 114:Drivers/lvgl/src/misc/lv_color.c ****         buf++;
 115:Drivers/lvgl/src/misc/lv_color.c **** 
 116:Drivers/lvgl/src/misc/lv_color.c ****         px_num -= 16;
 117:Drivers/lvgl/src/misc/lv_color.c ****     }
 118:Drivers/lvgl/src/misc/lv_color.c ****     while(px_num) {
 119:Drivers/lvgl/src/misc/lv_color.c ****         *buf = color;
 120:Drivers/lvgl/src/misc/lv_color.c ****         buf++;
 121:Drivers/lvgl/src/misc/lv_color.c ****         px_num--;
 122:Drivers/lvgl/src/misc/lv_color.c ****     }
 123:Drivers/lvgl/src/misc/lv_color.c **** #endif
 124:Drivers/lvgl/src/misc/lv_color.c **** }
 129              		.loc 1 124 1 is_stmt 0 view .LVU50
 130 0038 7047     		bx	lr
 131              		.cfi_endproc
 132              	.LFE18:
 134              		.section	.text.lv_color_lighten,"ax",%progbits
 135              		.align	1
 136              		.global	lv_color_lighten
 137              		.syntax unified
 138              		.thumb
 139              		.thumb_func
 141              	lv_color_lighten:
 142              	.LVL17:
 143              	.LFB19:
 125:Drivers/lvgl/src/misc/lv_color.c **** 
 126:Drivers/lvgl/src/misc/lv_color.c **** lv_color_t lv_color_lighten(lv_color_t c, lv_opa_t lvl)
 127:Drivers/lvgl/src/misc/lv_color.c **** {
 144              		.loc 1 127 1 is_stmt 1 view -0
 145              		.cfi_startproc
 146              		@ args = 0, pretend = 0, frame = 0
 147              		@ frame_needed = 0, uses_anonymous_args = 0
 148              		@ link register save eliminated.
 128:Drivers/lvgl/src/misc/lv_color.c ****     return lv_color_mix(lv_color_white(), c, lvl);
 149              		.loc 1 128 5 view .LVU52
 150              	.LBB43:
 151              	.LBI43:
 152              		.file 2 "Drivers/lvgl/src/misc/lv_color.h"
   1:Drivers/lvgl/src/misc/lv_color.h **** /**
   2:Drivers/lvgl/src/misc/lv_color.h ****  * @file lv_color.h
   3:Drivers/lvgl/src/misc/lv_color.h ****  *
   4:Drivers/lvgl/src/misc/lv_color.h ****  */
   5:Drivers/lvgl/src/misc/lv_color.h **** 
ARM GAS  /var/folders/0z/tsy30v1j4xl4_7kw94k978ww0000gn/T//cc5Q5bUm.s 			page 6


   6:Drivers/lvgl/src/misc/lv_color.h **** #ifndef LV_COLOR_H
   7:Drivers/lvgl/src/misc/lv_color.h **** #define LV_COLOR_H
   8:Drivers/lvgl/src/misc/lv_color.h **** 
   9:Drivers/lvgl/src/misc/lv_color.h **** #ifdef __cplusplus
  10:Drivers/lvgl/src/misc/lv_color.h **** extern "C" {
  11:Drivers/lvgl/src/misc/lv_color.h **** #endif
  12:Drivers/lvgl/src/misc/lv_color.h **** 
  13:Drivers/lvgl/src/misc/lv_color.h **** /*********************
  14:Drivers/lvgl/src/misc/lv_color.h ****  *      INCLUDES
  15:Drivers/lvgl/src/misc/lv_color.h ****  *********************/
  16:Drivers/lvgl/src/misc/lv_color.h **** #include "../lv_conf_internal.h"
  17:Drivers/lvgl/src/misc/lv_color.h **** #include "lv_assert.h"
  18:Drivers/lvgl/src/misc/lv_color.h **** #include "lv_math.h"
  19:Drivers/lvgl/src/misc/lv_color.h **** #include "lv_types.h"
  20:Drivers/lvgl/src/misc/lv_color.h **** 
  21:Drivers/lvgl/src/misc/lv_color.h **** /*Error checking*/
  22:Drivers/lvgl/src/misc/lv_color.h **** #if LV_COLOR_DEPTH == 24
  23:Drivers/lvgl/src/misc/lv_color.h **** #error "LV_COLOR_DEPTH 24 is deprecated. Use LV_COLOR_DEPTH 32 instead (lv_conf.h)"
  24:Drivers/lvgl/src/misc/lv_color.h **** #endif
  25:Drivers/lvgl/src/misc/lv_color.h **** 
  26:Drivers/lvgl/src/misc/lv_color.h **** #if LV_COLOR_DEPTH != 16 && LV_COLOR_16_SWAP != 0
  27:Drivers/lvgl/src/misc/lv_color.h **** #error "LV_COLOR_16_SWAP requires LV_COLOR_DEPTH == 16. Set it in lv_conf.h"
  28:Drivers/lvgl/src/misc/lv_color.h **** #endif
  29:Drivers/lvgl/src/misc/lv_color.h **** 
  30:Drivers/lvgl/src/misc/lv_color.h **** #include <stdint.h>
  31:Drivers/lvgl/src/misc/lv_color.h **** 
  32:Drivers/lvgl/src/misc/lv_color.h **** /*********************
  33:Drivers/lvgl/src/misc/lv_color.h ****  *      DEFINES
  34:Drivers/lvgl/src/misc/lv_color.h ****  *********************/
  35:Drivers/lvgl/src/misc/lv_color.h **** LV_EXPORT_CONST_INT(LV_COLOR_DEPTH);
  36:Drivers/lvgl/src/misc/lv_color.h **** LV_EXPORT_CONST_INT(LV_COLOR_16_SWAP);
  37:Drivers/lvgl/src/misc/lv_color.h **** 
  38:Drivers/lvgl/src/misc/lv_color.h **** /**
  39:Drivers/lvgl/src/misc/lv_color.h ****  * Opacity percentages.
  40:Drivers/lvgl/src/misc/lv_color.h ****  */
  41:Drivers/lvgl/src/misc/lv_color.h **** enum {
  42:Drivers/lvgl/src/misc/lv_color.h ****     LV_OPA_TRANSP = 0,
  43:Drivers/lvgl/src/misc/lv_color.h ****     LV_OPA_0      = 0,
  44:Drivers/lvgl/src/misc/lv_color.h ****     LV_OPA_10     = 25,
  45:Drivers/lvgl/src/misc/lv_color.h ****     LV_OPA_20     = 51,
  46:Drivers/lvgl/src/misc/lv_color.h ****     LV_OPA_30     = 76,
  47:Drivers/lvgl/src/misc/lv_color.h ****     LV_OPA_40     = 102,
  48:Drivers/lvgl/src/misc/lv_color.h ****     LV_OPA_50     = 127,
  49:Drivers/lvgl/src/misc/lv_color.h ****     LV_OPA_60     = 153,
  50:Drivers/lvgl/src/misc/lv_color.h ****     LV_OPA_70     = 178,
  51:Drivers/lvgl/src/misc/lv_color.h ****     LV_OPA_80     = 204,
  52:Drivers/lvgl/src/misc/lv_color.h ****     LV_OPA_90     = 229,
  53:Drivers/lvgl/src/misc/lv_color.h ****     LV_OPA_100    = 255,
  54:Drivers/lvgl/src/misc/lv_color.h ****     LV_OPA_COVER  = 255,
  55:Drivers/lvgl/src/misc/lv_color.h **** };
  56:Drivers/lvgl/src/misc/lv_color.h **** 
  57:Drivers/lvgl/src/misc/lv_color.h **** #define LV_OPA_MIN 2    /*Opacities below this will be transparent*/
  58:Drivers/lvgl/src/misc/lv_color.h **** #define LV_OPA_MAX 253  /*Opacities above this will fully cover*/
  59:Drivers/lvgl/src/misc/lv_color.h **** 
  60:Drivers/lvgl/src/misc/lv_color.h **** #if LV_COLOR_DEPTH == 1
  61:Drivers/lvgl/src/misc/lv_color.h **** #define LV_COLOR_SIZE 8
  62:Drivers/lvgl/src/misc/lv_color.h **** #elif LV_COLOR_DEPTH == 8
ARM GAS  /var/folders/0z/tsy30v1j4xl4_7kw94k978ww0000gn/T//cc5Q5bUm.s 			page 7


  63:Drivers/lvgl/src/misc/lv_color.h **** #define LV_COLOR_SIZE 8
  64:Drivers/lvgl/src/misc/lv_color.h **** #elif LV_COLOR_DEPTH == 16
  65:Drivers/lvgl/src/misc/lv_color.h **** #define LV_COLOR_SIZE 16
  66:Drivers/lvgl/src/misc/lv_color.h **** #elif LV_COLOR_DEPTH == 32
  67:Drivers/lvgl/src/misc/lv_color.h **** #define LV_COLOR_SIZE 32
  68:Drivers/lvgl/src/misc/lv_color.h **** #else
  69:Drivers/lvgl/src/misc/lv_color.h **** #error "Invalid LV_COLOR_DEPTH in lv_conf.h! Set it to 1, 8, 16 or 32!"
  70:Drivers/lvgl/src/misc/lv_color.h **** #endif
  71:Drivers/lvgl/src/misc/lv_color.h **** 
  72:Drivers/lvgl/src/misc/lv_color.h **** #if defined(__cplusplus) && !defined(_LV_COLOR_HAS_MODERN_CPP)
  73:Drivers/lvgl/src/misc/lv_color.h **** /**
  74:Drivers/lvgl/src/misc/lv_color.h **** * MSVC compiler's definition of the __cplusplus indicating 199711L regardless to C++ standard versi
  75:Drivers/lvgl/src/misc/lv_color.h **** * see https://devblogs.microsoft.com/cppblog/msvc-now-correctly-reports-cplusplus
  76:Drivers/lvgl/src/misc/lv_color.h **** * so we use _MSC_VER macro instead of __cplusplus
  77:Drivers/lvgl/src/misc/lv_color.h **** */
  78:Drivers/lvgl/src/misc/lv_color.h **** #ifdef _MSC_VER
  79:Drivers/lvgl/src/misc/lv_color.h **** #if _MSC_VER >= 1900 /*Visual Studio 2015*/
  80:Drivers/lvgl/src/misc/lv_color.h **** #define _LV_COLOR_HAS_MODERN_CPP 1
  81:Drivers/lvgl/src/misc/lv_color.h **** #endif
  82:Drivers/lvgl/src/misc/lv_color.h **** #else
  83:Drivers/lvgl/src/misc/lv_color.h **** #if __cplusplus >= 201103L
  84:Drivers/lvgl/src/misc/lv_color.h **** #define _LV_COLOR_HAS_MODERN_CPP 1
  85:Drivers/lvgl/src/misc/lv_color.h **** #endif
  86:Drivers/lvgl/src/misc/lv_color.h **** #endif
  87:Drivers/lvgl/src/misc/lv_color.h **** #endif /*__cplusplus*/
  88:Drivers/lvgl/src/misc/lv_color.h **** 
  89:Drivers/lvgl/src/misc/lv_color.h **** #ifndef _LV_COLOR_HAS_MODERN_CPP
  90:Drivers/lvgl/src/misc/lv_color.h **** #define _LV_COLOR_HAS_MODERN_CPP 0
  91:Drivers/lvgl/src/misc/lv_color.h **** #endif
  92:Drivers/lvgl/src/misc/lv_color.h **** 
  93:Drivers/lvgl/src/misc/lv_color.h **** #if _LV_COLOR_HAS_MODERN_CPP
  94:Drivers/lvgl/src/misc/lv_color.h **** /*Fix msvc compiler error C4576 inside C++ code*/
  95:Drivers/lvgl/src/misc/lv_color.h **** #define _LV_COLOR_MAKE_TYPE_HELPER lv_color_t
  96:Drivers/lvgl/src/misc/lv_color.h **** #else
  97:Drivers/lvgl/src/misc/lv_color.h **** #define _LV_COLOR_MAKE_TYPE_HELPER (lv_color_t)
  98:Drivers/lvgl/src/misc/lv_color.h **** #endif
  99:Drivers/lvgl/src/misc/lv_color.h **** 
 100:Drivers/lvgl/src/misc/lv_color.h **** /*---------------------------------------
 101:Drivers/lvgl/src/misc/lv_color.h ****  * Macros for all existing color depths
 102:Drivers/lvgl/src/misc/lv_color.h ****  * to set/get values of the color channels
 103:Drivers/lvgl/src/misc/lv_color.h ****  *------------------------------------------*/
 104:Drivers/lvgl/src/misc/lv_color.h **** # define LV_COLOR_SET_R1(c, v) (c).ch.red = (uint8_t)((v) & 0x1)
 105:Drivers/lvgl/src/misc/lv_color.h **** # define LV_COLOR_SET_G1(c, v) (c).ch.green = (uint8_t)((v) & 0x1)
 106:Drivers/lvgl/src/misc/lv_color.h **** # define LV_COLOR_SET_B1(c, v) (c).ch.blue = (uint8_t)((v) & 0x1)
 107:Drivers/lvgl/src/misc/lv_color.h **** # define LV_COLOR_SET_A1(c, v) do {} while(0)
 108:Drivers/lvgl/src/misc/lv_color.h **** 
 109:Drivers/lvgl/src/misc/lv_color.h **** # define LV_COLOR_GET_R1(c) (c).ch.red
 110:Drivers/lvgl/src/misc/lv_color.h **** # define LV_COLOR_GET_G1(c) (c).ch.green
 111:Drivers/lvgl/src/misc/lv_color.h **** # define LV_COLOR_GET_B1(c) (c).ch.blue
 112:Drivers/lvgl/src/misc/lv_color.h **** # define LV_COLOR_GET_A1(c) 0xFF
 113:Drivers/lvgl/src/misc/lv_color.h **** 
 114:Drivers/lvgl/src/misc/lv_color.h **** # define _LV_COLOR_ZERO_INITIALIZER1 {0x00}
 115:Drivers/lvgl/src/misc/lv_color.h **** # define LV_COLOR_MAKE1(r8, g8, b8)  {(uint8_t)((b8 >> 7) | (g8 >> 7) | (r8 >> 7))}
 116:Drivers/lvgl/src/misc/lv_color.h **** 
 117:Drivers/lvgl/src/misc/lv_color.h **** # define LV_COLOR_SET_R8(c, v) (c).ch.red = (uint8_t)((v) & 0x7U)
 118:Drivers/lvgl/src/misc/lv_color.h **** # define LV_COLOR_SET_G8(c, v) (c).ch.green = (uint8_t)((v) & 0x7U)
 119:Drivers/lvgl/src/misc/lv_color.h **** # define LV_COLOR_SET_B8(c, v) (c).ch.blue = (uint8_t)((v) & 0x3U)
ARM GAS  /var/folders/0z/tsy30v1j4xl4_7kw94k978ww0000gn/T//cc5Q5bUm.s 			page 8


 120:Drivers/lvgl/src/misc/lv_color.h **** # define LV_COLOR_SET_A8(c, v) do {} while(0)
 121:Drivers/lvgl/src/misc/lv_color.h **** 
 122:Drivers/lvgl/src/misc/lv_color.h **** # define LV_COLOR_GET_R8(c) (c).ch.red
 123:Drivers/lvgl/src/misc/lv_color.h **** # define LV_COLOR_GET_G8(c) (c).ch.green
 124:Drivers/lvgl/src/misc/lv_color.h **** # define LV_COLOR_GET_B8(c) (c).ch.blue
 125:Drivers/lvgl/src/misc/lv_color.h **** # define LV_COLOR_GET_A8(c) 0xFF
 126:Drivers/lvgl/src/misc/lv_color.h **** 
 127:Drivers/lvgl/src/misc/lv_color.h **** # define _LV_COLOR_ZERO_INITIALIZER8 {{0x00, 0x00, 0x00}}
 128:Drivers/lvgl/src/misc/lv_color.h **** # define LV_COLOR_MAKE8(r8, g8, b8) {{(uint8_t)((b8 >> 6) & 0x3U), (uint8_t)((g8 >> 5) & 0x7U), (ui
 129:Drivers/lvgl/src/misc/lv_color.h **** 
 130:Drivers/lvgl/src/misc/lv_color.h **** # define LV_COLOR_SET_R16(c, v) (c).ch.red = (uint8_t)((v) & 0x1FU)
 131:Drivers/lvgl/src/misc/lv_color.h **** #if LV_COLOR_16_SWAP == 0
 132:Drivers/lvgl/src/misc/lv_color.h **** # define LV_COLOR_SET_G16(c, v) (c).ch.green = (uint8_t)((v) & 0x3FU)
 133:Drivers/lvgl/src/misc/lv_color.h **** #else
 134:Drivers/lvgl/src/misc/lv_color.h **** # define LV_COLOR_SET_G16(c, v) {(c).ch.green_h = (uint8_t)(((v) >> 3) & 0x7); (c).ch.green_l = (ui
 135:Drivers/lvgl/src/misc/lv_color.h **** #endif
 136:Drivers/lvgl/src/misc/lv_color.h **** # define LV_COLOR_SET_B16(c, v) (c).ch.blue = (uint8_t)((v) & 0x1FU)
 137:Drivers/lvgl/src/misc/lv_color.h **** # define LV_COLOR_SET_A16(c, v) do {} while(0)
 138:Drivers/lvgl/src/misc/lv_color.h **** 
 139:Drivers/lvgl/src/misc/lv_color.h **** # define LV_COLOR_GET_R16(c) (c).ch.red
 140:Drivers/lvgl/src/misc/lv_color.h **** #if LV_COLOR_16_SWAP == 0
 141:Drivers/lvgl/src/misc/lv_color.h **** # define LV_COLOR_GET_G16(c) (c).ch.green
 142:Drivers/lvgl/src/misc/lv_color.h **** #else
 143:Drivers/lvgl/src/misc/lv_color.h **** # define LV_COLOR_GET_G16(c) (((c).ch.green_h << 3) + (c).ch.green_l)
 144:Drivers/lvgl/src/misc/lv_color.h **** #endif
 145:Drivers/lvgl/src/misc/lv_color.h **** # define LV_COLOR_GET_B16(c) (c).ch.blue
 146:Drivers/lvgl/src/misc/lv_color.h **** # define LV_COLOR_GET_A16(c) 0xFF
 147:Drivers/lvgl/src/misc/lv_color.h **** 
 148:Drivers/lvgl/src/misc/lv_color.h **** #if LV_COLOR_16_SWAP == 0
 149:Drivers/lvgl/src/misc/lv_color.h **** # define _LV_COLOR_ZERO_INITIALIZER16  {{0x00, 0x00, 0x00}}
 150:Drivers/lvgl/src/misc/lv_color.h **** # define LV_COLOR_MAKE16(r8, g8, b8) {{(uint8_t)((b8 >> 3) & 0x1FU), (uint8_t)((g8 >> 2) & 0x3FU), 
 151:Drivers/lvgl/src/misc/lv_color.h **** #else
 152:Drivers/lvgl/src/misc/lv_color.h **** # define _LV_COLOR_ZERO_INITIALIZER16 {{0x00, 0x00, 0x00, 0x00}}
 153:Drivers/lvgl/src/misc/lv_color.h **** # define LV_COLOR_MAKE16(r8, g8, b8) {{(uint8_t)((g8 >> 5) & 0x7U), (uint8_t)((r8 >> 3) & 0x1FU), (
 154:Drivers/lvgl/src/misc/lv_color.h **** #endif
 155:Drivers/lvgl/src/misc/lv_color.h **** 
 156:Drivers/lvgl/src/misc/lv_color.h **** # define LV_COLOR_SET_R32(c, v) (c).ch.red = (uint8_t)((v) & 0xFF)
 157:Drivers/lvgl/src/misc/lv_color.h **** # define LV_COLOR_SET_G32(c, v) (c).ch.green = (uint8_t)((v) & 0xFF)
 158:Drivers/lvgl/src/misc/lv_color.h **** # define LV_COLOR_SET_B32(c, v) (c).ch.blue = (uint8_t)((v) & 0xFF)
 159:Drivers/lvgl/src/misc/lv_color.h **** # define LV_COLOR_SET_A32(c, v) (c).ch.alpha = (uint8_t)((v) & 0xFF)
 160:Drivers/lvgl/src/misc/lv_color.h **** 
 161:Drivers/lvgl/src/misc/lv_color.h **** # define LV_COLOR_GET_R32(c) (c).ch.red
 162:Drivers/lvgl/src/misc/lv_color.h **** # define LV_COLOR_GET_G32(c) (c).ch.green
 163:Drivers/lvgl/src/misc/lv_color.h **** # define LV_COLOR_GET_B32(c) (c).ch.blue
 164:Drivers/lvgl/src/misc/lv_color.h **** # define LV_COLOR_GET_A32(c) (c).ch.alpha
 165:Drivers/lvgl/src/misc/lv_color.h **** 
 166:Drivers/lvgl/src/misc/lv_color.h **** # define _LV_COLOR_ZERO_INITIALIZER32  {{0x00, 0x00, 0x00, 0x00}}
 167:Drivers/lvgl/src/misc/lv_color.h **** # define LV_COLOR_MAKE32(r8, g8, b8) {{b8, g8, r8, 0xff}} /*Fix 0xff alpha*/
 168:Drivers/lvgl/src/misc/lv_color.h **** 
 169:Drivers/lvgl/src/misc/lv_color.h **** /*---------------------------------------
 170:Drivers/lvgl/src/misc/lv_color.h ****  * Macros for the current color depth
 171:Drivers/lvgl/src/misc/lv_color.h ****  * to set/get values of the color channels
 172:Drivers/lvgl/src/misc/lv_color.h ****  *------------------------------------------*/
 173:Drivers/lvgl/src/misc/lv_color.h **** #define LV_COLOR_SET_R(c, v) LV_CONCAT(LV_COLOR_SET_R, LV_COLOR_DEPTH)(c, v)
 174:Drivers/lvgl/src/misc/lv_color.h **** #define LV_COLOR_SET_G(c, v) LV_CONCAT(LV_COLOR_SET_G, LV_COLOR_DEPTH)(c, v)
 175:Drivers/lvgl/src/misc/lv_color.h **** #define LV_COLOR_SET_B(c, v) LV_CONCAT(LV_COLOR_SET_B, LV_COLOR_DEPTH)(c, v)
 176:Drivers/lvgl/src/misc/lv_color.h **** #define LV_COLOR_SET_A(c, v) LV_CONCAT(LV_COLOR_SET_A, LV_COLOR_DEPTH)(c, v)
ARM GAS  /var/folders/0z/tsy30v1j4xl4_7kw94k978ww0000gn/T//cc5Q5bUm.s 			page 9


 177:Drivers/lvgl/src/misc/lv_color.h **** 
 178:Drivers/lvgl/src/misc/lv_color.h **** #define LV_COLOR_GET_R(c) LV_CONCAT(LV_COLOR_GET_R, LV_COLOR_DEPTH)(c)
 179:Drivers/lvgl/src/misc/lv_color.h **** #define LV_COLOR_GET_G(c) LV_CONCAT(LV_COLOR_GET_G, LV_COLOR_DEPTH)(c)
 180:Drivers/lvgl/src/misc/lv_color.h **** #define LV_COLOR_GET_B(c) LV_CONCAT(LV_COLOR_GET_B, LV_COLOR_DEPTH)(c)
 181:Drivers/lvgl/src/misc/lv_color.h **** #define LV_COLOR_GET_A(c) LV_CONCAT(LV_COLOR_GET_A, LV_COLOR_DEPTH)(c)
 182:Drivers/lvgl/src/misc/lv_color.h **** 
 183:Drivers/lvgl/src/misc/lv_color.h **** #define _LV_COLOR_ZERO_INITIALIZER LV_CONCAT(_LV_COLOR_ZERO_INITIALIZER, LV_COLOR_DEPTH)
 184:Drivers/lvgl/src/misc/lv_color.h **** #define LV_COLOR_MAKE(r8, g8, b8) LV_CONCAT(LV_COLOR_MAKE, LV_COLOR_DEPTH)(r8, g8, b8)
 185:Drivers/lvgl/src/misc/lv_color.h **** 
 186:Drivers/lvgl/src/misc/lv_color.h **** /**********************
 187:Drivers/lvgl/src/misc/lv_color.h ****  *      TYPEDEFS
 188:Drivers/lvgl/src/misc/lv_color.h ****  **********************/
 189:Drivers/lvgl/src/misc/lv_color.h **** 
 190:Drivers/lvgl/src/misc/lv_color.h **** typedef union {
 191:Drivers/lvgl/src/misc/lv_color.h ****     uint8_t full; /*must be declared first to set all bits of byte via initializer list*/
 192:Drivers/lvgl/src/misc/lv_color.h ****     union {
 193:Drivers/lvgl/src/misc/lv_color.h ****         uint8_t blue : 1;
 194:Drivers/lvgl/src/misc/lv_color.h ****         uint8_t green : 1;
 195:Drivers/lvgl/src/misc/lv_color.h ****         uint8_t red : 1;
 196:Drivers/lvgl/src/misc/lv_color.h ****     } ch;
 197:Drivers/lvgl/src/misc/lv_color.h **** } lv_color1_t;
 198:Drivers/lvgl/src/misc/lv_color.h **** 
 199:Drivers/lvgl/src/misc/lv_color.h **** typedef union {
 200:Drivers/lvgl/src/misc/lv_color.h ****     struct {
 201:Drivers/lvgl/src/misc/lv_color.h ****         uint8_t blue : 2;
 202:Drivers/lvgl/src/misc/lv_color.h ****         uint8_t green : 3;
 203:Drivers/lvgl/src/misc/lv_color.h ****         uint8_t red : 3;
 204:Drivers/lvgl/src/misc/lv_color.h ****     } ch;
 205:Drivers/lvgl/src/misc/lv_color.h ****     uint8_t full;
 206:Drivers/lvgl/src/misc/lv_color.h **** } lv_color8_t;
 207:Drivers/lvgl/src/misc/lv_color.h **** 
 208:Drivers/lvgl/src/misc/lv_color.h **** typedef union {
 209:Drivers/lvgl/src/misc/lv_color.h ****     struct {
 210:Drivers/lvgl/src/misc/lv_color.h **** #if LV_COLOR_16_SWAP == 0
 211:Drivers/lvgl/src/misc/lv_color.h ****         uint16_t blue : 5;
 212:Drivers/lvgl/src/misc/lv_color.h ****         uint16_t green : 6;
 213:Drivers/lvgl/src/misc/lv_color.h ****         uint16_t red : 5;
 214:Drivers/lvgl/src/misc/lv_color.h **** #else
 215:Drivers/lvgl/src/misc/lv_color.h ****         uint16_t green_h : 3;
 216:Drivers/lvgl/src/misc/lv_color.h ****         uint16_t red : 5;
 217:Drivers/lvgl/src/misc/lv_color.h ****         uint16_t blue : 5;
 218:Drivers/lvgl/src/misc/lv_color.h ****         uint16_t green_l : 3;
 219:Drivers/lvgl/src/misc/lv_color.h **** #endif
 220:Drivers/lvgl/src/misc/lv_color.h ****     } ch;
 221:Drivers/lvgl/src/misc/lv_color.h ****     uint16_t full;
 222:Drivers/lvgl/src/misc/lv_color.h **** } lv_color16_t;
 223:Drivers/lvgl/src/misc/lv_color.h **** 
 224:Drivers/lvgl/src/misc/lv_color.h **** typedef union {
 225:Drivers/lvgl/src/misc/lv_color.h ****     struct {
 226:Drivers/lvgl/src/misc/lv_color.h ****         uint8_t blue;
 227:Drivers/lvgl/src/misc/lv_color.h ****         uint8_t green;
 228:Drivers/lvgl/src/misc/lv_color.h ****         uint8_t red;
 229:Drivers/lvgl/src/misc/lv_color.h ****         uint8_t alpha;
 230:Drivers/lvgl/src/misc/lv_color.h ****     } ch;
 231:Drivers/lvgl/src/misc/lv_color.h ****     uint32_t full;
 232:Drivers/lvgl/src/misc/lv_color.h **** } lv_color32_t;
 233:Drivers/lvgl/src/misc/lv_color.h **** 
ARM GAS  /var/folders/0z/tsy30v1j4xl4_7kw94k978ww0000gn/T//cc5Q5bUm.s 			page 10


 234:Drivers/lvgl/src/misc/lv_color.h **** typedef LV_CONCAT3(uint, LV_COLOR_SIZE, _t) lv_color_int_t;
 235:Drivers/lvgl/src/misc/lv_color.h **** typedef LV_CONCAT3(lv_color, LV_COLOR_DEPTH, _t) lv_color_t;
 236:Drivers/lvgl/src/misc/lv_color.h **** 
 237:Drivers/lvgl/src/misc/lv_color.h **** typedef struct {
 238:Drivers/lvgl/src/misc/lv_color.h ****     uint16_t h;
 239:Drivers/lvgl/src/misc/lv_color.h ****     uint8_t s;
 240:Drivers/lvgl/src/misc/lv_color.h ****     uint8_t v;
 241:Drivers/lvgl/src/misc/lv_color.h **** } lv_color_hsv_t;
 242:Drivers/lvgl/src/misc/lv_color.h **** 
 243:Drivers/lvgl/src/misc/lv_color.h **** //! @cond Doxygen_Suppress
 244:Drivers/lvgl/src/misc/lv_color.h **** /*No idea where the guard is required but else throws warnings in the docs*/
 245:Drivers/lvgl/src/misc/lv_color.h **** typedef uint8_t lv_opa_t;
 246:Drivers/lvgl/src/misc/lv_color.h **** //! @endcond
 247:Drivers/lvgl/src/misc/lv_color.h **** 
 248:Drivers/lvgl/src/misc/lv_color.h **** struct _lv_color_filter_dsc_t;
 249:Drivers/lvgl/src/misc/lv_color.h **** 
 250:Drivers/lvgl/src/misc/lv_color.h **** typedef lv_color_t (*lv_color_filter_cb_t)(const struct _lv_color_filter_dsc_t *, lv_color_t, lv_op
 251:Drivers/lvgl/src/misc/lv_color.h **** 
 252:Drivers/lvgl/src/misc/lv_color.h **** typedef struct _lv_color_filter_dsc_t {
 253:Drivers/lvgl/src/misc/lv_color.h ****     lv_color_filter_cb_t filter_cb;
 254:Drivers/lvgl/src/misc/lv_color.h ****     void * user_data;
 255:Drivers/lvgl/src/misc/lv_color.h **** } lv_color_filter_dsc_t;
 256:Drivers/lvgl/src/misc/lv_color.h **** 
 257:Drivers/lvgl/src/misc/lv_color.h **** 
 258:Drivers/lvgl/src/misc/lv_color.h **** typedef enum {
 259:Drivers/lvgl/src/misc/lv_color.h ****     LV_PALETTE_RED,
 260:Drivers/lvgl/src/misc/lv_color.h ****     LV_PALETTE_PINK,
 261:Drivers/lvgl/src/misc/lv_color.h ****     LV_PALETTE_PURPLE,
 262:Drivers/lvgl/src/misc/lv_color.h ****     LV_PALETTE_DEEP_PURPLE,
 263:Drivers/lvgl/src/misc/lv_color.h ****     LV_PALETTE_INDIGO,
 264:Drivers/lvgl/src/misc/lv_color.h ****     LV_PALETTE_BLUE,
 265:Drivers/lvgl/src/misc/lv_color.h ****     LV_PALETTE_LIGHT_BLUE,
 266:Drivers/lvgl/src/misc/lv_color.h ****     LV_PALETTE_CYAN,
 267:Drivers/lvgl/src/misc/lv_color.h ****     LV_PALETTE_TEAL,
 268:Drivers/lvgl/src/misc/lv_color.h ****     LV_PALETTE_GREEN,
 269:Drivers/lvgl/src/misc/lv_color.h ****     LV_PALETTE_LIGHT_GREEN,
 270:Drivers/lvgl/src/misc/lv_color.h ****     LV_PALETTE_LIME,
 271:Drivers/lvgl/src/misc/lv_color.h ****     LV_PALETTE_YELLOW,
 272:Drivers/lvgl/src/misc/lv_color.h ****     LV_PALETTE_AMBER,
 273:Drivers/lvgl/src/misc/lv_color.h ****     LV_PALETTE_ORANGE,
 274:Drivers/lvgl/src/misc/lv_color.h ****     LV_PALETTE_DEEP_ORANGE,
 275:Drivers/lvgl/src/misc/lv_color.h ****     LV_PALETTE_BROWN,
 276:Drivers/lvgl/src/misc/lv_color.h ****     LV_PALETTE_BLUE_GREY,
 277:Drivers/lvgl/src/misc/lv_color.h ****     LV_PALETTE_GREY,
 278:Drivers/lvgl/src/misc/lv_color.h ****     _LV_PALETTE_LAST,
 279:Drivers/lvgl/src/misc/lv_color.h ****     LV_PALETTE_NONE = 0xff,
 280:Drivers/lvgl/src/misc/lv_color.h **** } lv_palette_t;
 281:Drivers/lvgl/src/misc/lv_color.h **** 
 282:Drivers/lvgl/src/misc/lv_color.h **** /**********************
 283:Drivers/lvgl/src/misc/lv_color.h ****  * GLOBAL PROTOTYPES
 284:Drivers/lvgl/src/misc/lv_color.h ****  **********************/
 285:Drivers/lvgl/src/misc/lv_color.h **** 
 286:Drivers/lvgl/src/misc/lv_color.h **** /*In color conversations:
 287:Drivers/lvgl/src/misc/lv_color.h ****  * - When converting to bigger color type the LSB weight of 1 LSB is calculated
 288:Drivers/lvgl/src/misc/lv_color.h ****  *   E.g. 16 bit Red has 5 bits
 289:Drivers/lvgl/src/misc/lv_color.h ****  *         8 bit Red has 3 bits
 290:Drivers/lvgl/src/misc/lv_color.h ****  *        ----------------------
ARM GAS  /var/folders/0z/tsy30v1j4xl4_7kw94k978ww0000gn/T//cc5Q5bUm.s 			page 11


 291:Drivers/lvgl/src/misc/lv_color.h ****  *        8 bit red LSB = (2^5 - 1) / (2^3 - 1) = 31 / 7 = 4
 292:Drivers/lvgl/src/misc/lv_color.h ****  *
 293:Drivers/lvgl/src/misc/lv_color.h ****  * - When calculating to smaller color type simply shift out the LSBs
 294:Drivers/lvgl/src/misc/lv_color.h ****  *   E.g.  8 bit Red has 3 bits
 295:Drivers/lvgl/src/misc/lv_color.h ****  *        16 bit Red has 5 bits
 296:Drivers/lvgl/src/misc/lv_color.h ****  *        ----------------------
 297:Drivers/lvgl/src/misc/lv_color.h ****  *         Shift right with 5 - 3 = 2
 298:Drivers/lvgl/src/misc/lv_color.h ****  */
 299:Drivers/lvgl/src/misc/lv_color.h **** static inline uint8_t lv_color_to1(lv_color_t color)
 300:Drivers/lvgl/src/misc/lv_color.h **** {
 301:Drivers/lvgl/src/misc/lv_color.h **** #if LV_COLOR_DEPTH == 1
 302:Drivers/lvgl/src/misc/lv_color.h ****     return color.full;
 303:Drivers/lvgl/src/misc/lv_color.h **** #elif LV_COLOR_DEPTH == 8
 304:Drivers/lvgl/src/misc/lv_color.h ****     if((LV_COLOR_GET_R(color) & 0x4) || (LV_COLOR_GET_G(color) & 0x4) || (LV_COLOR_GET_B(color) & 0
 305:Drivers/lvgl/src/misc/lv_color.h ****         return 1;
 306:Drivers/lvgl/src/misc/lv_color.h ****     }
 307:Drivers/lvgl/src/misc/lv_color.h ****     else {
 308:Drivers/lvgl/src/misc/lv_color.h ****         return 0;
 309:Drivers/lvgl/src/misc/lv_color.h ****     }
 310:Drivers/lvgl/src/misc/lv_color.h **** #elif LV_COLOR_DEPTH == 16
 311:Drivers/lvgl/src/misc/lv_color.h ****     if((LV_COLOR_GET_R(color) & 0x10) || (LV_COLOR_GET_G(color) & 0x20) || (LV_COLOR_GET_B(color) &
 312:Drivers/lvgl/src/misc/lv_color.h ****         return 1;
 313:Drivers/lvgl/src/misc/lv_color.h ****     }
 314:Drivers/lvgl/src/misc/lv_color.h ****     else {
 315:Drivers/lvgl/src/misc/lv_color.h ****         return 0;
 316:Drivers/lvgl/src/misc/lv_color.h ****     }
 317:Drivers/lvgl/src/misc/lv_color.h **** #elif LV_COLOR_DEPTH == 32
 318:Drivers/lvgl/src/misc/lv_color.h ****     if((LV_COLOR_GET_R(color) & 0x80) || (LV_COLOR_GET_G(color) & 0x80) || (LV_COLOR_GET_B(color) &
 319:Drivers/lvgl/src/misc/lv_color.h ****         return 1;
 320:Drivers/lvgl/src/misc/lv_color.h ****     }
 321:Drivers/lvgl/src/misc/lv_color.h ****     else {
 322:Drivers/lvgl/src/misc/lv_color.h ****         return 0;
 323:Drivers/lvgl/src/misc/lv_color.h ****     }
 324:Drivers/lvgl/src/misc/lv_color.h **** #endif
 325:Drivers/lvgl/src/misc/lv_color.h **** }
 326:Drivers/lvgl/src/misc/lv_color.h **** 
 327:Drivers/lvgl/src/misc/lv_color.h **** static inline uint8_t lv_color_to8(lv_color_t color)
 328:Drivers/lvgl/src/misc/lv_color.h **** {
 329:Drivers/lvgl/src/misc/lv_color.h **** #if LV_COLOR_DEPTH == 1
 330:Drivers/lvgl/src/misc/lv_color.h ****     if(color.full == 0)
 331:Drivers/lvgl/src/misc/lv_color.h ****         return 0;
 332:Drivers/lvgl/src/misc/lv_color.h ****     else
 333:Drivers/lvgl/src/misc/lv_color.h ****         return 0xFF;
 334:Drivers/lvgl/src/misc/lv_color.h **** #elif LV_COLOR_DEPTH == 8
 335:Drivers/lvgl/src/misc/lv_color.h ****     return color.full;
 336:Drivers/lvgl/src/misc/lv_color.h **** #elif LV_COLOR_DEPTH == 16
 337:Drivers/lvgl/src/misc/lv_color.h ****     lv_color8_t ret;
 338:Drivers/lvgl/src/misc/lv_color.h ****     LV_COLOR_SET_R8(ret, LV_COLOR_GET_R(color) >> 2); /*5 - 3  = 2*/
 339:Drivers/lvgl/src/misc/lv_color.h ****     LV_COLOR_SET_G8(ret, LV_COLOR_GET_G(color) >> 3); /*6 - 3  = 3*/
 340:Drivers/lvgl/src/misc/lv_color.h ****     LV_COLOR_SET_B8(ret, LV_COLOR_GET_B(color) >> 3); /*5 - 2  = 3*/
 341:Drivers/lvgl/src/misc/lv_color.h ****     return ret.full;
 342:Drivers/lvgl/src/misc/lv_color.h **** #elif LV_COLOR_DEPTH == 32
 343:Drivers/lvgl/src/misc/lv_color.h ****     lv_color8_t ret;
 344:Drivers/lvgl/src/misc/lv_color.h ****     LV_COLOR_SET_R8(ret, LV_COLOR_GET_R(color) >> 5); /*8 - 3  = 5*/
 345:Drivers/lvgl/src/misc/lv_color.h ****     LV_COLOR_SET_G8(ret, LV_COLOR_GET_G(color) >> 5); /*8 - 3  = 5*/
 346:Drivers/lvgl/src/misc/lv_color.h ****     LV_COLOR_SET_B8(ret, LV_COLOR_GET_B(color) >> 6); /*8 - 2  = 6*/
 347:Drivers/lvgl/src/misc/lv_color.h ****     return ret.full;
ARM GAS  /var/folders/0z/tsy30v1j4xl4_7kw94k978ww0000gn/T//cc5Q5bUm.s 			page 12


 348:Drivers/lvgl/src/misc/lv_color.h **** #endif
 349:Drivers/lvgl/src/misc/lv_color.h **** }
 350:Drivers/lvgl/src/misc/lv_color.h **** 
 351:Drivers/lvgl/src/misc/lv_color.h **** static inline uint16_t lv_color_to16(lv_color_t color)
 352:Drivers/lvgl/src/misc/lv_color.h **** {
 353:Drivers/lvgl/src/misc/lv_color.h **** #if LV_COLOR_DEPTH == 1
 354:Drivers/lvgl/src/misc/lv_color.h ****     if(color.full == 0)
 355:Drivers/lvgl/src/misc/lv_color.h ****         return 0;
 356:Drivers/lvgl/src/misc/lv_color.h ****     else
 357:Drivers/lvgl/src/misc/lv_color.h ****         return 0xFFFF;
 358:Drivers/lvgl/src/misc/lv_color.h **** #elif LV_COLOR_DEPTH == 8
 359:Drivers/lvgl/src/misc/lv_color.h ****     lv_color16_t ret;
 360:Drivers/lvgl/src/misc/lv_color.h ****     LV_COLOR_SET_R16(ret, LV_COLOR_GET_R(color) * 4);  /*(2^5 - 1)/(2^3 - 1) = 31/7 = 4*/
 361:Drivers/lvgl/src/misc/lv_color.h ****     LV_COLOR_SET_G16(ret, LV_COLOR_GET_G(color) * 9);  /*(2^6 - 1)/(2^3 - 1) = 63/7 = 9*/
 362:Drivers/lvgl/src/misc/lv_color.h ****     LV_COLOR_SET_B16(ret, LV_COLOR_GET_B(color) * 10); /*(2^5 - 1)/(2^2 - 1) = 31/3 = 10*/
 363:Drivers/lvgl/src/misc/lv_color.h ****     return ret.full;
 364:Drivers/lvgl/src/misc/lv_color.h **** #elif LV_COLOR_DEPTH == 16
 365:Drivers/lvgl/src/misc/lv_color.h ****     return color.full;
 366:Drivers/lvgl/src/misc/lv_color.h **** #elif LV_COLOR_DEPTH == 32
 367:Drivers/lvgl/src/misc/lv_color.h ****     lv_color16_t ret;
 368:Drivers/lvgl/src/misc/lv_color.h ****     LV_COLOR_SET_R16(ret, LV_COLOR_GET_R(color) >> 3); /*8 - 5  = 3*/
 369:Drivers/lvgl/src/misc/lv_color.h ****     LV_COLOR_SET_G16(ret, LV_COLOR_GET_G(color) >> 2); /*8 - 6  = 2*/
 370:Drivers/lvgl/src/misc/lv_color.h ****     LV_COLOR_SET_B16(ret, LV_COLOR_GET_B(color) >> 3); /*8 - 5  = 3*/
 371:Drivers/lvgl/src/misc/lv_color.h ****     return ret.full;
 372:Drivers/lvgl/src/misc/lv_color.h **** #endif
 373:Drivers/lvgl/src/misc/lv_color.h **** }
 374:Drivers/lvgl/src/misc/lv_color.h **** 
 375:Drivers/lvgl/src/misc/lv_color.h **** static inline uint32_t lv_color_to32(lv_color_t color)
 376:Drivers/lvgl/src/misc/lv_color.h **** {
 377:Drivers/lvgl/src/misc/lv_color.h **** #if LV_COLOR_DEPTH == 1
 378:Drivers/lvgl/src/misc/lv_color.h ****     if(color.full == 0)
 379:Drivers/lvgl/src/misc/lv_color.h ****         return 0xFF000000;
 380:Drivers/lvgl/src/misc/lv_color.h ****     else
 381:Drivers/lvgl/src/misc/lv_color.h ****         return 0xFFFFFFFF;
 382:Drivers/lvgl/src/misc/lv_color.h **** #elif LV_COLOR_DEPTH == 8
 383:Drivers/lvgl/src/misc/lv_color.h ****     lv_color32_t ret;
 384:Drivers/lvgl/src/misc/lv_color.h ****     LV_COLOR_SET_R32(ret, LV_COLOR_GET_R(color) * 36); /*(2^8 - 1)/(2^3 - 1) = 255/7 = 36*/
 385:Drivers/lvgl/src/misc/lv_color.h ****     LV_COLOR_SET_G32(ret, LV_COLOR_GET_G(color) * 36); /*(2^8 - 1)/(2^3 - 1) = 255/7 = 36*/
 386:Drivers/lvgl/src/misc/lv_color.h ****     LV_COLOR_SET_B32(ret, LV_COLOR_GET_B(color) * 85); /*(2^8 - 1)/(2^2 - 1) = 255/3 = 85*/
 387:Drivers/lvgl/src/misc/lv_color.h ****     LV_COLOR_SET_A32(ret, 0xFF);
 388:Drivers/lvgl/src/misc/lv_color.h ****     return ret.full;
 389:Drivers/lvgl/src/misc/lv_color.h **** #elif LV_COLOR_DEPTH == 16
 390:Drivers/lvgl/src/misc/lv_color.h ****     /**
 391:Drivers/lvgl/src/misc/lv_color.h ****      * The floating point math for conversion is:
 392:Drivers/lvgl/src/misc/lv_color.h ****      *  valueto = valuefrom * ( (2^bitsto - 1) / (float)(2^bitsfrom - 1) )
 393:Drivers/lvgl/src/misc/lv_color.h ****      * The faster integer math for conversion is:
 394:Drivers/lvgl/src/misc/lv_color.h ****      *  valueto = ( valuefrom * multiplier + adder ) >> divisor
 395:Drivers/lvgl/src/misc/lv_color.h ****      *   multiplier = FLOOR( ( (2^bitsto - 1) << divisor ) / (float)(2^bitsfrom - 1) )
 396:Drivers/lvgl/src/misc/lv_color.h ****      *
 397:Drivers/lvgl/src/misc/lv_color.h ****      * Find the first divisor where ( adder >> divisor ) <= 0
 398:Drivers/lvgl/src/misc/lv_color.h ****      *
 399:Drivers/lvgl/src/misc/lv_color.h ****      * 5-bit to 8-bit: ( 31 * multiplier + adder ) >> divisor = 255
 400:Drivers/lvgl/src/misc/lv_color.h ****      * divisor  multiplier  adder  min (0)  max (31)
 401:Drivers/lvgl/src/misc/lv_color.h ****      *       0           8      7        7       255
 402:Drivers/lvgl/src/misc/lv_color.h ****      *       1          16     14        7       255
 403:Drivers/lvgl/src/misc/lv_color.h ****      *       2          32     28        7       255
 404:Drivers/lvgl/src/misc/lv_color.h ****      *       3          65     25        3       255
ARM GAS  /var/folders/0z/tsy30v1j4xl4_7kw94k978ww0000gn/T//cc5Q5bUm.s 			page 13


 405:Drivers/lvgl/src/misc/lv_color.h ****      *       4         131     19        1       255
 406:Drivers/lvgl/src/misc/lv_color.h ****      *       5         263      7        0       255
 407:Drivers/lvgl/src/misc/lv_color.h ****      *
 408:Drivers/lvgl/src/misc/lv_color.h ****      * 6-bit to 8-bit: 255 = ( 63 * multiplier + adder ) >> divisor
 409:Drivers/lvgl/src/misc/lv_color.h ****      * divisor  multiplier  adder  min (0)  max (63)
 410:Drivers/lvgl/src/misc/lv_color.h ****      *       0           4      3        3       255
 411:Drivers/lvgl/src/misc/lv_color.h ****      *       1           8      6        3       255
 412:Drivers/lvgl/src/misc/lv_color.h ****      *       2          16     12        3       255
 413:Drivers/lvgl/src/misc/lv_color.h ****      *       3          32     24        3       255
 414:Drivers/lvgl/src/misc/lv_color.h ****      *       4          64     48        3       255
 415:Drivers/lvgl/src/misc/lv_color.h ****      *       5         129     33        1       255
 416:Drivers/lvgl/src/misc/lv_color.h ****      *       6         259      3        0       255
 417:Drivers/lvgl/src/misc/lv_color.h ****      */
 418:Drivers/lvgl/src/misc/lv_color.h **** 
 419:Drivers/lvgl/src/misc/lv_color.h ****     lv_color32_t ret;
 420:Drivers/lvgl/src/misc/lv_color.h ****     LV_COLOR_SET_R32(ret, (LV_COLOR_GET_R(color) * 263 + 7) >> 5);
 421:Drivers/lvgl/src/misc/lv_color.h ****     LV_COLOR_SET_G32(ret, (LV_COLOR_GET_G(color) * 259 + 3) >> 6);
 422:Drivers/lvgl/src/misc/lv_color.h ****     LV_COLOR_SET_B32(ret, (LV_COLOR_GET_B(color) * 263 + 7) >> 5);
 423:Drivers/lvgl/src/misc/lv_color.h ****     LV_COLOR_SET_A32(ret, 0xFF);
 424:Drivers/lvgl/src/misc/lv_color.h ****     return ret.full;
 425:Drivers/lvgl/src/misc/lv_color.h **** #elif LV_COLOR_DEPTH == 32
 426:Drivers/lvgl/src/misc/lv_color.h ****     return color.full;
 427:Drivers/lvgl/src/misc/lv_color.h **** #endif
 428:Drivers/lvgl/src/misc/lv_color.h **** }
 429:Drivers/lvgl/src/misc/lv_color.h **** 
 430:Drivers/lvgl/src/misc/lv_color.h **** //! @cond Doxygen_Suppress
 431:Drivers/lvgl/src/misc/lv_color.h **** 
 432:Drivers/lvgl/src/misc/lv_color.h **** /**
 433:Drivers/lvgl/src/misc/lv_color.h ****  * Mix two colors with a given ratio.
 434:Drivers/lvgl/src/misc/lv_color.h ****  * @param c1 the first color to mix (usually the foreground)
 435:Drivers/lvgl/src/misc/lv_color.h ****  * @param c2 the second color to mix (usually the background)
 436:Drivers/lvgl/src/misc/lv_color.h ****  * @param mix The ratio of the colors. 0: full `c2`, 255: full `c1`, 127: half `c1` and half`c2`
 437:Drivers/lvgl/src/misc/lv_color.h ****  * @return the mixed color
 438:Drivers/lvgl/src/misc/lv_color.h ****  */
 439:Drivers/lvgl/src/misc/lv_color.h **** static inline lv_color_t LV_ATTRIBUTE_FAST_MEM lv_color_mix(lv_color_t c1, lv_color_t c2, uint8_t m
 440:Drivers/lvgl/src/misc/lv_color.h **** {
 441:Drivers/lvgl/src/misc/lv_color.h ****     lv_color_t ret;
 442:Drivers/lvgl/src/misc/lv_color.h **** 
 443:Drivers/lvgl/src/misc/lv_color.h **** #if LV_COLOR_DEPTH == 16 && LV_COLOR_MIX_ROUND_OFS == 0
 444:Drivers/lvgl/src/misc/lv_color.h **** #if LV_COLOR_16_SWAP == 1
 445:Drivers/lvgl/src/misc/lv_color.h ****     c1.full = c1.full << 8 | c1.full >> 8;
 446:Drivers/lvgl/src/misc/lv_color.h ****     c2.full = c2.full << 8 | c2.full >> 8;
 447:Drivers/lvgl/src/misc/lv_color.h **** #endif
 448:Drivers/lvgl/src/misc/lv_color.h ****     /*Source: https://stackoverflow.com/a/50012418/1999969*/
 449:Drivers/lvgl/src/misc/lv_color.h ****     mix = (uint32_t)((uint32_t)mix + 4) >> 3;
 450:Drivers/lvgl/src/misc/lv_color.h ****     uint32_t bg = (uint32_t)((uint32_t)c2.full | ((uint32_t)c2.full << 16)) &
 451:Drivers/lvgl/src/misc/lv_color.h ****                   0x7E0F81F; /*0b00000111111000001111100000011111*/
 452:Drivers/lvgl/src/misc/lv_color.h ****     uint32_t fg = (uint32_t)((uint32_t)c1.full | ((uint32_t)c1.full << 16)) & 0x7E0F81F;
 453:Drivers/lvgl/src/misc/lv_color.h ****     uint32_t result = ((((fg - bg) * mix) >> 5) + bg) & 0x7E0F81F;
 454:Drivers/lvgl/src/misc/lv_color.h ****     ret.full = (uint16_t)((result >> 16) | result);
 455:Drivers/lvgl/src/misc/lv_color.h **** #if LV_COLOR_16_SWAP == 1
 456:Drivers/lvgl/src/misc/lv_color.h ****     ret.full = ret.full << 8 | ret.full >> 8;
 457:Drivers/lvgl/src/misc/lv_color.h **** #endif
 458:Drivers/lvgl/src/misc/lv_color.h **** #elif LV_COLOR_DEPTH != 1
 459:Drivers/lvgl/src/misc/lv_color.h ****     /*LV_COLOR_DEPTH == 8, 16 or 32*/
 460:Drivers/lvgl/src/misc/lv_color.h ****     LV_COLOR_SET_R(ret, LV_UDIV255((uint16_t)LV_COLOR_GET_R(c1) * mix + LV_COLOR_GET_R(c2) *
 461:Drivers/lvgl/src/misc/lv_color.h ****                                    (255 - mix) + LV_COLOR_MIX_ROUND_OFS));
ARM GAS  /var/folders/0z/tsy30v1j4xl4_7kw94k978ww0000gn/T//cc5Q5bUm.s 			page 14


 462:Drivers/lvgl/src/misc/lv_color.h ****     LV_COLOR_SET_G(ret, LV_UDIV255((uint16_t)LV_COLOR_GET_G(c1) * mix + LV_COLOR_GET_G(c2) *
 463:Drivers/lvgl/src/misc/lv_color.h ****                                    (255 - mix) + LV_COLOR_MIX_ROUND_OFS));
 464:Drivers/lvgl/src/misc/lv_color.h ****     LV_COLOR_SET_B(ret, LV_UDIV255((uint16_t)LV_COLOR_GET_B(c1) * mix + LV_COLOR_GET_B(c2) *
 465:Drivers/lvgl/src/misc/lv_color.h ****                                    (255 - mix) + LV_COLOR_MIX_ROUND_OFS));
 466:Drivers/lvgl/src/misc/lv_color.h ****     LV_COLOR_SET_A(ret, 0xFF);
 467:Drivers/lvgl/src/misc/lv_color.h **** #else
 468:Drivers/lvgl/src/misc/lv_color.h ****     /*LV_COLOR_DEPTH == 1*/
 469:Drivers/lvgl/src/misc/lv_color.h ****     ret.full = mix > LV_OPA_50 ? c1.full : c2.full;
 470:Drivers/lvgl/src/misc/lv_color.h **** #endif
 471:Drivers/lvgl/src/misc/lv_color.h **** 
 472:Drivers/lvgl/src/misc/lv_color.h ****     return ret;
 473:Drivers/lvgl/src/misc/lv_color.h **** }
 474:Drivers/lvgl/src/misc/lv_color.h **** 
 475:Drivers/lvgl/src/misc/lv_color.h **** static inline void LV_ATTRIBUTE_FAST_MEM lv_color_premult(lv_color_t c, uint8_t mix, uint16_t * out
 476:Drivers/lvgl/src/misc/lv_color.h **** {
 477:Drivers/lvgl/src/misc/lv_color.h **** #if LV_COLOR_DEPTH != 1
 478:Drivers/lvgl/src/misc/lv_color.h ****     out[0] = (uint16_t)LV_COLOR_GET_R(c) * mix;
 479:Drivers/lvgl/src/misc/lv_color.h ****     out[1] = (uint16_t)LV_COLOR_GET_G(c) * mix;
 480:Drivers/lvgl/src/misc/lv_color.h ****     out[2] = (uint16_t)LV_COLOR_GET_B(c) * mix;
 481:Drivers/lvgl/src/misc/lv_color.h **** #else
 482:Drivers/lvgl/src/misc/lv_color.h ****     (void) mix;
 483:Drivers/lvgl/src/misc/lv_color.h ****     /*Pre-multiplication can't be used with 1 bpp*/
 484:Drivers/lvgl/src/misc/lv_color.h ****     out[0] = LV_COLOR_GET_R(c);
 485:Drivers/lvgl/src/misc/lv_color.h ****     out[1] = LV_COLOR_GET_G(c);
 486:Drivers/lvgl/src/misc/lv_color.h ****     out[2] = LV_COLOR_GET_B(c);
 487:Drivers/lvgl/src/misc/lv_color.h **** #endif
 488:Drivers/lvgl/src/misc/lv_color.h **** 
 489:Drivers/lvgl/src/misc/lv_color.h **** }
 490:Drivers/lvgl/src/misc/lv_color.h **** 
 491:Drivers/lvgl/src/misc/lv_color.h **** /**
 492:Drivers/lvgl/src/misc/lv_color.h ****  * Mix two colors with a given ratio. It runs faster then `lv_color_mix` but requires some pre comp
 493:Drivers/lvgl/src/misc/lv_color.h ****  * @param premult_c1 The first color. Should be preprocessed with `lv_color_premult(c1)`
 494:Drivers/lvgl/src/misc/lv_color.h ****  * @param c2 The second color. As it is no pre computation required on it
 495:Drivers/lvgl/src/misc/lv_color.h ****  * @param mix The ratio of the colors. 0: full `c1`, 255: full `c2`, 127: half `c1` and half `c2`.
 496:Drivers/lvgl/src/misc/lv_color.h ****  *            Should be modified like mix = `255 - mix`
 497:Drivers/lvgl/src/misc/lv_color.h ****  * @return the mixed color
 498:Drivers/lvgl/src/misc/lv_color.h ****  * @note 255 won't give clearly `c1`.
 499:Drivers/lvgl/src/misc/lv_color.h ****  */
 500:Drivers/lvgl/src/misc/lv_color.h **** static inline lv_color_t LV_ATTRIBUTE_FAST_MEM lv_color_mix_premult(uint16_t * premult_c1, lv_color
 501:Drivers/lvgl/src/misc/lv_color.h **** {
 502:Drivers/lvgl/src/misc/lv_color.h ****     lv_color_t ret;
 503:Drivers/lvgl/src/misc/lv_color.h **** #if LV_COLOR_DEPTH != 1
 504:Drivers/lvgl/src/misc/lv_color.h ****     /*LV_COLOR_DEPTH == 8 or 32*/
 505:Drivers/lvgl/src/misc/lv_color.h ****     LV_COLOR_SET_R(ret, LV_UDIV255(premult_c1[0] + LV_COLOR_GET_R(c2) * mix + LV_COLOR_MIX_ROUND_OF
 506:Drivers/lvgl/src/misc/lv_color.h ****     LV_COLOR_SET_G(ret, LV_UDIV255(premult_c1[1] + LV_COLOR_GET_G(c2) * mix + LV_COLOR_MIX_ROUND_OF
 507:Drivers/lvgl/src/misc/lv_color.h ****     LV_COLOR_SET_B(ret, LV_UDIV255(premult_c1[2] + LV_COLOR_GET_B(c2) * mix + LV_COLOR_MIX_ROUND_OF
 508:Drivers/lvgl/src/misc/lv_color.h ****     LV_COLOR_SET_A(ret, 0xFF);
 509:Drivers/lvgl/src/misc/lv_color.h **** #else
 510:Drivers/lvgl/src/misc/lv_color.h ****     /*LV_COLOR_DEPTH == 1*/
 511:Drivers/lvgl/src/misc/lv_color.h ****     /*Restore color1*/
 512:Drivers/lvgl/src/misc/lv_color.h ****     lv_color_t c1;
 513:Drivers/lvgl/src/misc/lv_color.h ****     LV_COLOR_SET_R(c1, premult_c1[0]);
 514:Drivers/lvgl/src/misc/lv_color.h ****     LV_COLOR_SET_G(c1, premult_c1[1]);
 515:Drivers/lvgl/src/misc/lv_color.h ****     LV_COLOR_SET_B(c1, premult_c1[2]);
 516:Drivers/lvgl/src/misc/lv_color.h ****     ret.full = mix > LV_OPA_50 ? c2.full : c1.full;
 517:Drivers/lvgl/src/misc/lv_color.h **** #endif
 518:Drivers/lvgl/src/misc/lv_color.h **** 
ARM GAS  /var/folders/0z/tsy30v1j4xl4_7kw94k978ww0000gn/T//cc5Q5bUm.s 			page 15


 519:Drivers/lvgl/src/misc/lv_color.h ****     return ret;
 520:Drivers/lvgl/src/misc/lv_color.h **** }
 521:Drivers/lvgl/src/misc/lv_color.h **** 
 522:Drivers/lvgl/src/misc/lv_color.h **** /**
 523:Drivers/lvgl/src/misc/lv_color.h ****  * Mix two colors. Both color can have alpha value.
 524:Drivers/lvgl/src/misc/lv_color.h ****  * @param bg_color background color
 525:Drivers/lvgl/src/misc/lv_color.h ****  * @param bg_opa alpha of the background color
 526:Drivers/lvgl/src/misc/lv_color.h ****  * @param fg_color foreground color
 527:Drivers/lvgl/src/misc/lv_color.h ****  * @param fg_opa alpha of the foreground color
 528:Drivers/lvgl/src/misc/lv_color.h ****  * @param res_color the result color
 529:Drivers/lvgl/src/misc/lv_color.h ****  * @param res_opa the result opacity
 530:Drivers/lvgl/src/misc/lv_color.h ****  */
 531:Drivers/lvgl/src/misc/lv_color.h **** static inline void LV_ATTRIBUTE_FAST_MEM lv_color_mix_with_alpha(lv_color_t bg_color, lv_opa_t bg_o
 532:Drivers/lvgl/src/misc/lv_color.h ****                                                                  lv_color_t fg_color, lv_opa_t fg_o
 533:Drivers/lvgl/src/misc/lv_color.h ****                                                                  lv_color_t * res_color, lv_opa_t *
 534:Drivers/lvgl/src/misc/lv_color.h **** {
 535:Drivers/lvgl/src/misc/lv_color.h ****     /*Pick the foreground if it's fully opaque or the Background is fully transparent*/
 536:Drivers/lvgl/src/misc/lv_color.h ****     if(fg_opa >= LV_OPA_MAX || bg_opa <= LV_OPA_MIN) {
 537:Drivers/lvgl/src/misc/lv_color.h ****         res_color->full = fg_color.full;
 538:Drivers/lvgl/src/misc/lv_color.h ****         *res_opa = fg_opa;
 539:Drivers/lvgl/src/misc/lv_color.h ****     }
 540:Drivers/lvgl/src/misc/lv_color.h ****     /*Transparent foreground: use the Background*/
 541:Drivers/lvgl/src/misc/lv_color.h ****     else if(fg_opa <= LV_OPA_MIN) {
 542:Drivers/lvgl/src/misc/lv_color.h ****         res_color->full = bg_color.full;
 543:Drivers/lvgl/src/misc/lv_color.h ****         *res_opa = bg_opa;
 544:Drivers/lvgl/src/misc/lv_color.h ****     }
 545:Drivers/lvgl/src/misc/lv_color.h ****     /*Opaque background: use simple mix*/
 546:Drivers/lvgl/src/misc/lv_color.h ****     else if(bg_opa >= LV_OPA_MAX) {
 547:Drivers/lvgl/src/misc/lv_color.h ****         *res_color = lv_color_mix(fg_color, bg_color, fg_opa);
 548:Drivers/lvgl/src/misc/lv_color.h ****         *res_opa = LV_OPA_COVER;
 549:Drivers/lvgl/src/misc/lv_color.h ****     }
 550:Drivers/lvgl/src/misc/lv_color.h ****     /*Both colors have alpha. Expensive calculation need to be applied*/
 551:Drivers/lvgl/src/misc/lv_color.h ****     else {
 552:Drivers/lvgl/src/misc/lv_color.h ****         /*Save the parameters and the result. If they will be asked again don't compute again*/
 553:Drivers/lvgl/src/misc/lv_color.h ****         static lv_opa_t fg_opa_save     = 0;
 554:Drivers/lvgl/src/misc/lv_color.h ****         static lv_opa_t bg_opa_save     = 0;
 555:Drivers/lvgl/src/misc/lv_color.h ****         static lv_color_t fg_color_save = _LV_COLOR_ZERO_INITIALIZER;
 556:Drivers/lvgl/src/misc/lv_color.h ****         static lv_color_t bg_color_save = _LV_COLOR_ZERO_INITIALIZER;
 557:Drivers/lvgl/src/misc/lv_color.h ****         static lv_color_t res_color_saved = _LV_COLOR_ZERO_INITIALIZER;
 558:Drivers/lvgl/src/misc/lv_color.h ****         static lv_opa_t res_opa_saved = 0;
 559:Drivers/lvgl/src/misc/lv_color.h **** 
 560:Drivers/lvgl/src/misc/lv_color.h ****         if(fg_opa != fg_opa_save || bg_opa != bg_opa_save || fg_color.full != fg_color_save.full ||
 561:Drivers/lvgl/src/misc/lv_color.h ****            bg_color.full != bg_color_save.full) {
 562:Drivers/lvgl/src/misc/lv_color.h ****             fg_opa_save        = fg_opa;
 563:Drivers/lvgl/src/misc/lv_color.h ****             bg_opa_save        = bg_opa;
 564:Drivers/lvgl/src/misc/lv_color.h ****             fg_color_save.full = fg_color.full;
 565:Drivers/lvgl/src/misc/lv_color.h ****             bg_color_save.full = bg_color.full;
 566:Drivers/lvgl/src/misc/lv_color.h ****             /*Info:
 567:Drivers/lvgl/src/misc/lv_color.h ****              * https://en.wikipedia.org/wiki/Alpha_compositing#Analytical_derivation_of_the_over_op
 568:Drivers/lvgl/src/misc/lv_color.h ****             res_opa_saved = 255 - ((uint16_t)((uint16_t)(255 - fg_opa) * (255 - bg_opa)) >> 8);
 569:Drivers/lvgl/src/misc/lv_color.h ****             LV_ASSERT(res_opa_saved != 0);
 570:Drivers/lvgl/src/misc/lv_color.h ****             lv_opa_t ratio = (uint16_t)((uint16_t)fg_opa * 255) / res_opa_saved;
 571:Drivers/lvgl/src/misc/lv_color.h ****             res_color_saved = lv_color_mix(fg_color, bg_color, ratio);
 572:Drivers/lvgl/src/misc/lv_color.h **** 
 573:Drivers/lvgl/src/misc/lv_color.h ****         }
 574:Drivers/lvgl/src/misc/lv_color.h **** 
 575:Drivers/lvgl/src/misc/lv_color.h ****         res_color->full = res_color_saved.full;
ARM GAS  /var/folders/0z/tsy30v1j4xl4_7kw94k978ww0000gn/T//cc5Q5bUm.s 			page 16


 576:Drivers/lvgl/src/misc/lv_color.h ****         *res_opa = res_opa_saved;
 577:Drivers/lvgl/src/misc/lv_color.h ****     }
 578:Drivers/lvgl/src/misc/lv_color.h **** }
 579:Drivers/lvgl/src/misc/lv_color.h **** 
 580:Drivers/lvgl/src/misc/lv_color.h **** //! @endcond
 581:Drivers/lvgl/src/misc/lv_color.h **** 
 582:Drivers/lvgl/src/misc/lv_color.h **** /**
 583:Drivers/lvgl/src/misc/lv_color.h ****  * Get the brightness of a color
 584:Drivers/lvgl/src/misc/lv_color.h ****  * @param color a color
 585:Drivers/lvgl/src/misc/lv_color.h ****  * @return the brightness [0..255]
 586:Drivers/lvgl/src/misc/lv_color.h ****  */
 587:Drivers/lvgl/src/misc/lv_color.h **** static inline uint8_t lv_color_brightness(lv_color_t color)
 588:Drivers/lvgl/src/misc/lv_color.h **** {
 589:Drivers/lvgl/src/misc/lv_color.h ****     lv_color32_t c32;
 590:Drivers/lvgl/src/misc/lv_color.h ****     c32.full        = lv_color_to32(color);
 591:Drivers/lvgl/src/misc/lv_color.h ****     uint16_t bright = (uint16_t)(3u * LV_COLOR_GET_R32(c32) + LV_COLOR_GET_B32(c32) + 4u * LV_COLOR
 592:Drivers/lvgl/src/misc/lv_color.h ****     return (uint8_t)(bright >> 3);
 593:Drivers/lvgl/src/misc/lv_color.h **** }
 594:Drivers/lvgl/src/misc/lv_color.h **** 
 595:Drivers/lvgl/src/misc/lv_color.h **** static inline lv_color_t lv_color_make(uint8_t r, uint8_t g, uint8_t b)
 596:Drivers/lvgl/src/misc/lv_color.h **** {
 597:Drivers/lvgl/src/misc/lv_color.h ****     return _LV_COLOR_MAKE_TYPE_HELPER LV_COLOR_MAKE(r, g, b);
 598:Drivers/lvgl/src/misc/lv_color.h **** }
 599:Drivers/lvgl/src/misc/lv_color.h **** 
 600:Drivers/lvgl/src/misc/lv_color.h **** static inline lv_color_t lv_color_hex(uint32_t c)
 601:Drivers/lvgl/src/misc/lv_color.h **** {
 602:Drivers/lvgl/src/misc/lv_color.h **** #if LV_COLOR_DEPTH == 16
 603:Drivers/lvgl/src/misc/lv_color.h ****     lv_color_t r;
 604:Drivers/lvgl/src/misc/lv_color.h **** #if LV_COLOR_16_SWAP == 0
 605:Drivers/lvgl/src/misc/lv_color.h ****     /* Convert a 4 bytes per pixel in format ARGB32 to R5G6B5 format
 606:Drivers/lvgl/src/misc/lv_color.h ****         naive way (by calling lv_color_make with components):
 607:Drivers/lvgl/src/misc/lv_color.h ****                     r = ((c & 0xFF0000) >> 19)
 608:Drivers/lvgl/src/misc/lv_color.h ****                     g = ((c & 0xFF00) >> 10)
 609:Drivers/lvgl/src/misc/lv_color.h ****                     b = ((c & 0xFF) >> 3)
 610:Drivers/lvgl/src/misc/lv_color.h ****                     rgb565 = (r << 11) | (g << 5) | b
 611:Drivers/lvgl/src/misc/lv_color.h ****         That's 3 mask, 5 bitshift and 2 or operations
 612:Drivers/lvgl/src/misc/lv_color.h **** 
 613:Drivers/lvgl/src/misc/lv_color.h ****         A bit better:
 614:Drivers/lvgl/src/misc/lv_color.h ****                     r = ((c & 0xF80000) >> 8)
 615:Drivers/lvgl/src/misc/lv_color.h ****                     g = ((c & 0xFC00) >> 5)
 616:Drivers/lvgl/src/misc/lv_color.h ****                     b = ((c & 0xFF) >> 3)
 617:Drivers/lvgl/src/misc/lv_color.h ****                     rgb565 = r | g | b
 618:Drivers/lvgl/src/misc/lv_color.h ****         That's 3 mask, 3 bitshifts and 2 or operations */
 619:Drivers/lvgl/src/misc/lv_color.h ****     r.full = (uint16_t)(((c & 0xF80000) >> 8) | ((c & 0xFC00) >> 5) | ((c & 0xFF) >> 3));
 620:Drivers/lvgl/src/misc/lv_color.h **** #else
 621:Drivers/lvgl/src/misc/lv_color.h ****     /* We want: rrrr rrrr GGGg gggg bbbb bbbb => gggb bbbb rrrr rGGG */
 622:Drivers/lvgl/src/misc/lv_color.h ****     r.full = (uint16_t)(((c & 0xF80000) >> 16) | ((c & 0xFC00) >> 13) | ((c & 0x1C00) << 3) | ((c &
 623:Drivers/lvgl/src/misc/lv_color.h **** #endif
 624:Drivers/lvgl/src/misc/lv_color.h ****     return r;
 625:Drivers/lvgl/src/misc/lv_color.h **** #elif LV_COLOR_DEPTH == 32
 626:Drivers/lvgl/src/misc/lv_color.h ****     lv_color_t r;
 627:Drivers/lvgl/src/misc/lv_color.h ****     r.full = c | 0xFF000000;
 628:Drivers/lvgl/src/misc/lv_color.h ****     return r;
 629:Drivers/lvgl/src/misc/lv_color.h **** #else /*LV_COLOR_DEPTH == 8*/
 630:Drivers/lvgl/src/misc/lv_color.h ****     return lv_color_make((uint8_t)((c >> 16) & 0xFF), (uint8_t)((c >> 8) & 0xFF), (uint8_t)(c & 0xF
 631:Drivers/lvgl/src/misc/lv_color.h **** #endif
 632:Drivers/lvgl/src/misc/lv_color.h **** }
ARM GAS  /var/folders/0z/tsy30v1j4xl4_7kw94k978ww0000gn/T//cc5Q5bUm.s 			page 17


 633:Drivers/lvgl/src/misc/lv_color.h **** 
 634:Drivers/lvgl/src/misc/lv_color.h **** static inline lv_color_t lv_color_hex3(uint32_t c)
 635:Drivers/lvgl/src/misc/lv_color.h **** {
 636:Drivers/lvgl/src/misc/lv_color.h ****     return lv_color_make((uint8_t)(((c >> 4) & 0xF0) | ((c >> 8) & 0xF)), (uint8_t)((c & 0xF0) | ((
 637:Drivers/lvgl/src/misc/lv_color.h ****                          (uint8_t)((c & 0xF) | ((c & 0xF) << 4)));
 638:Drivers/lvgl/src/misc/lv_color.h **** }
 639:Drivers/lvgl/src/misc/lv_color.h **** 
 640:Drivers/lvgl/src/misc/lv_color.h **** static inline void lv_color_filter_dsc_init(lv_color_filter_dsc_t * dsc, lv_color_filter_cb_t cb)
 641:Drivers/lvgl/src/misc/lv_color.h **** {
 642:Drivers/lvgl/src/misc/lv_color.h ****     dsc->filter_cb = cb;
 643:Drivers/lvgl/src/misc/lv_color.h **** }
 644:Drivers/lvgl/src/misc/lv_color.h **** 
 645:Drivers/lvgl/src/misc/lv_color.h **** //! @cond Doxygen_Suppress
 646:Drivers/lvgl/src/misc/lv_color.h **** //!
 647:Drivers/lvgl/src/misc/lv_color.h **** void /* LV_ATTRIBUTE_FAST_MEM */ lv_color_fill(lv_color_t * buf, lv_color_t color, uint32_t px_num)
 648:Drivers/lvgl/src/misc/lv_color.h **** 
 649:Drivers/lvgl/src/misc/lv_color.h **** //! @endcond
 650:Drivers/lvgl/src/misc/lv_color.h **** lv_color_t lv_color_lighten(lv_color_t c, lv_opa_t lvl);
 651:Drivers/lvgl/src/misc/lv_color.h **** 
 652:Drivers/lvgl/src/misc/lv_color.h **** lv_color_t lv_color_darken(lv_color_t c, lv_opa_t lvl);
 653:Drivers/lvgl/src/misc/lv_color.h **** 
 654:Drivers/lvgl/src/misc/lv_color.h **** lv_color_t lv_color_change_lightness(lv_color_t c, lv_opa_t lvl);
 655:Drivers/lvgl/src/misc/lv_color.h **** 
 656:Drivers/lvgl/src/misc/lv_color.h **** /**
 657:Drivers/lvgl/src/misc/lv_color.h ****  * Convert a HSV color to RGB
 658:Drivers/lvgl/src/misc/lv_color.h ****  * @param h hue [0..359]
 659:Drivers/lvgl/src/misc/lv_color.h ****  * @param s saturation [0..100]
 660:Drivers/lvgl/src/misc/lv_color.h ****  * @param v value [0..100]
 661:Drivers/lvgl/src/misc/lv_color.h ****  * @return the given RGB color in RGB (with LV_COLOR_DEPTH depth)
 662:Drivers/lvgl/src/misc/lv_color.h ****  */
 663:Drivers/lvgl/src/misc/lv_color.h **** lv_color_t lv_color_hsv_to_rgb(uint16_t h, uint8_t s, uint8_t v);
 664:Drivers/lvgl/src/misc/lv_color.h **** 
 665:Drivers/lvgl/src/misc/lv_color.h **** /**
 666:Drivers/lvgl/src/misc/lv_color.h ****  * Convert a 32-bit RGB color to HSV
 667:Drivers/lvgl/src/misc/lv_color.h ****  * @param r8 8-bit red
 668:Drivers/lvgl/src/misc/lv_color.h ****  * @param g8 8-bit green
 669:Drivers/lvgl/src/misc/lv_color.h ****  * @param b8 8-bit blue
 670:Drivers/lvgl/src/misc/lv_color.h ****  * @return the given RGB color in HSV
 671:Drivers/lvgl/src/misc/lv_color.h ****  */
 672:Drivers/lvgl/src/misc/lv_color.h **** lv_color_hsv_t lv_color_rgb_to_hsv(uint8_t r8, uint8_t g8, uint8_t b8);
 673:Drivers/lvgl/src/misc/lv_color.h **** 
 674:Drivers/lvgl/src/misc/lv_color.h **** /**
 675:Drivers/lvgl/src/misc/lv_color.h ****  * Convert a color to HSV
 676:Drivers/lvgl/src/misc/lv_color.h ****  * @param color color
 677:Drivers/lvgl/src/misc/lv_color.h ****  * @return the given color in HSV
 678:Drivers/lvgl/src/misc/lv_color.h ****  */
 679:Drivers/lvgl/src/misc/lv_color.h **** lv_color_hsv_t lv_color_to_hsv(lv_color_t color);
 680:Drivers/lvgl/src/misc/lv_color.h **** 
 681:Drivers/lvgl/src/misc/lv_color.h **** /**
 682:Drivers/lvgl/src/misc/lv_color.h ****  * Just a wrapper around LV_COLOR_CHROMA_KEY because it might be more convenient to use a function 
 683:Drivers/lvgl/src/misc/lv_color.h ****  * @return LV_COLOR_CHROMA_KEY
 684:Drivers/lvgl/src/misc/lv_color.h ****  */
 685:Drivers/lvgl/src/misc/lv_color.h **** static inline lv_color_t lv_color_chroma_key(void)
 686:Drivers/lvgl/src/misc/lv_color.h **** {
 687:Drivers/lvgl/src/misc/lv_color.h ****     return LV_COLOR_CHROMA_KEY;
 688:Drivers/lvgl/src/misc/lv_color.h **** }
 689:Drivers/lvgl/src/misc/lv_color.h **** 
ARM GAS  /var/folders/0z/tsy30v1j4xl4_7kw94k978ww0000gn/T//cc5Q5bUm.s 			page 18


 690:Drivers/lvgl/src/misc/lv_color.h **** /**********************
 691:Drivers/lvgl/src/misc/lv_color.h ****  *  PREDEFINED COLORS
 692:Drivers/lvgl/src/misc/lv_color.h ****  **********************/
 693:Drivers/lvgl/src/misc/lv_color.h **** /*Source: https://vuetifyjs.com/en/styles/colors/#material-colors*/
 694:Drivers/lvgl/src/misc/lv_color.h **** 
 695:Drivers/lvgl/src/misc/lv_color.h **** lv_color_t lv_palette_main(lv_palette_t p);
 696:Drivers/lvgl/src/misc/lv_color.h **** static inline lv_color_t lv_color_white(void)
 153              		.loc 2 696 26 view .LVU53
 697:Drivers/lvgl/src/misc/lv_color.h **** {
 698:Drivers/lvgl/src/misc/lv_color.h ****     return lv_color_make(0xff, 0xff, 0xff);
 154              		.loc 2 698 5 view .LVU54
 155              	.LBB44:
 156              	.LBI44:
 595:Drivers/lvgl/src/misc/lv_color.h **** {
 157              		.loc 2 595 26 view .LVU55
 158              	.LBB45:
 597:Drivers/lvgl/src/misc/lv_color.h **** }
 159              		.loc 2 597 5 view .LVU56
 597:Drivers/lvgl/src/misc/lv_color.h **** }
 160              		.loc 2 597 5 is_stmt 0 view .LVU57
 161              	.LBE45:
 162              	.LBE44:
 163              	.LBE43:
 164              	.LBB46:
 165              	.LBI46:
 439:Drivers/lvgl/src/misc/lv_color.h **** {
 166              		.loc 2 439 48 is_stmt 1 view .LVU58
 167              	.LBB47:
 441:Drivers/lvgl/src/misc/lv_color.h **** 
 168              		.loc 2 441 5 view .LVU59
 445:Drivers/lvgl/src/misc/lv_color.h ****     c2.full = c2.full << 8 | c2.full >> 8;
 169              		.loc 2 445 5 view .LVU60
 445:Drivers/lvgl/src/misc/lv_color.h ****     c2.full = c2.full << 8 | c2.full >> 8;
 170              		.loc 2 445 17 is_stmt 0 view .LVU61
 171 0000 4FF6FF73 		movw	r3, #65535
 445:Drivers/lvgl/src/misc/lv_color.h ****     c2.full = c2.full << 8 | c2.full >> 8;
 172              		.loc 2 445 28 view .LVU62
 173 0004 4FEA132C 		lsr	ip, r3, #8
 174 0008 4CEA032C 		orr	ip, ip, r3, lsl #8
 175 000c 1FFA8CF2 		uxth	r2, ip
 446:Drivers/lvgl/src/misc/lv_color.h **** #endif
 176              		.loc 2 446 5 is_stmt 1 view .LVU63
 446:Drivers/lvgl/src/misc/lv_color.h **** #endif
 177              		.loc 2 446 17 is_stmt 0 view .LVU64
 178 0010 83B2     		uxth	r3, r0
 446:Drivers/lvgl/src/misc/lv_color.h **** #endif
 179              		.loc 2 446 28 view .LVU65
 180 0012 C0F30720 		ubfx	r0, r0, #8, #8
 181              	.LVL18:
 446:Drivers/lvgl/src/misc/lv_color.h **** #endif
 182              		.loc 2 446 28 view .LVU66
 183 0016 40EA0320 		orr	r0, r0, r3, lsl #8
 184 001a 83B2     		uxth	r3, r0
 449:Drivers/lvgl/src/misc/lv_color.h ****     uint32_t bg = (uint32_t)((uint32_t)c2.full | ((uint32_t)c2.full << 16)) &
 185              		.loc 2 449 5 is_stmt 1 view .LVU67
 449:Drivers/lvgl/src/misc/lv_color.h ****     uint32_t bg = (uint32_t)((uint32_t)c2.full | ((uint32_t)c2.full << 16)) &
 186              		.loc 2 449 11 is_stmt 0 view .LVU68
ARM GAS  /var/folders/0z/tsy30v1j4xl4_7kw94k978ww0000gn/T//cc5Q5bUm.s 			page 19


 187 001c 0431     		adds	r1, r1, #4
 188              	.LVL19:
 450:Drivers/lvgl/src/misc/lv_color.h ****                   0x7E0F81F; /*0b00000111111000001111100000011111*/
 189              		.loc 2 450 5 is_stmt 1 view .LVU69
 450:Drivers/lvgl/src/misc/lv_color.h ****                   0x7E0F81F; /*0b00000111111000001111100000011111*/
 190              		.loc 2 450 19 is_stmt 0 view .LVU70
 191 001e 43EA0043 		orr	r3, r3, r0, lsl #16
 450:Drivers/lvgl/src/misc/lv_color.h ****                   0x7E0F81F; /*0b00000111111000001111100000011111*/
 192              		.loc 2 450 14 view .LVU71
 193 0022 0A48     		ldr	r0, .L8
 194 0024 0340     		ands	r3, r3, r0
 195              	.LVL20:
 452:Drivers/lvgl/src/misc/lv_color.h ****     uint32_t result = ((((fg - bg) * mix) >> 5) + bg) & 0x7E0F81F;
 196              		.loc 2 452 5 is_stmt 1 view .LVU72
 452:Drivers/lvgl/src/misc/lv_color.h ****     uint32_t result = ((((fg - bg) * mix) >> 5) + bg) & 0x7E0F81F;
 197              		.loc 2 452 19 is_stmt 0 view .LVU73
 198 0026 42EA0C42 		orr	r2, r2, ip, lsl #16
 452:Drivers/lvgl/src/misc/lv_color.h ****     uint32_t result = ((((fg - bg) * mix) >> 5) + bg) & 0x7E0F81F;
 199              		.loc 2 452 14 view .LVU74
 200 002a 0240     		ands	r2, r2, r0
 201              	.LVL21:
 453:Drivers/lvgl/src/misc/lv_color.h ****     ret.full = (uint16_t)((result >> 16) | result);
 202              		.loc 2 453 5 is_stmt 1 view .LVU75
 453:Drivers/lvgl/src/misc/lv_color.h ****     ret.full = (uint16_t)((result >> 16) | result);
 203              		.loc 2 453 30 is_stmt 0 view .LVU76
 204 002c D21A     		subs	r2, r2, r3
 205              	.LVL22:
 453:Drivers/lvgl/src/misc/lv_color.h ****     ret.full = (uint16_t)((result >> 16) | result);
 206              		.loc 2 453 36 view .LVU77
 207 002e C908     		lsrs	r1, r1, #3
 208              	.LVL23:
 453:Drivers/lvgl/src/misc/lv_color.h ****     ret.full = (uint16_t)((result >> 16) | result);
 209              		.loc 2 453 36 view .LVU78
 210 0030 02FB01F1 		mul	r1, r2, r1
 453:Drivers/lvgl/src/misc/lv_color.h ****     ret.full = (uint16_t)((result >> 16) | result);
 211              		.loc 2 453 49 view .LVU79
 212 0034 03EB5113 		add	r3, r3, r1, lsr #5
 213              	.LVL24:
 453:Drivers/lvgl/src/misc/lv_color.h ****     ret.full = (uint16_t)((result >> 16) | result);
 214              		.loc 2 453 14 view .LVU80
 215 0038 0340     		ands	r3, r3, r0
 216              	.LVL25:
 454:Drivers/lvgl/src/misc/lv_color.h **** #if LV_COLOR_16_SWAP == 1
 217              		.loc 2 454 5 is_stmt 1 view .LVU81
 454:Drivers/lvgl/src/misc/lv_color.h **** #if LV_COLOR_16_SWAP == 1
 218              		.loc 2 454 16 is_stmt 0 view .LVU82
 219 003a 43EA1343 		orr	r3, r3, r3, lsr #16
 220              	.LVL26:
 454:Drivers/lvgl/src/misc/lv_color.h **** #if LV_COLOR_16_SWAP == 1
 221              		.loc 2 454 16 view .LVU83
 222 003e 98B2     		uxth	r0, r3
 223              	.LVL27:
 456:Drivers/lvgl/src/misc/lv_color.h **** #endif
 224              		.loc 2 456 5 is_stmt 1 view .LVU84
 456:Drivers/lvgl/src/misc/lv_color.h **** #endif
 225              		.loc 2 456 30 is_stmt 0 view .LVU85
 226 0040 C3F30723 		ubfx	r3, r3, #8, #8
ARM GAS  /var/folders/0z/tsy30v1j4xl4_7kw94k978ww0000gn/T//cc5Q5bUm.s 			page 20


 472:Drivers/lvgl/src/misc/lv_color.h **** }
 227              		.loc 2 472 5 is_stmt 1 view .LVU86
 228              	.LVL28:
 472:Drivers/lvgl/src/misc/lv_color.h **** }
 229              		.loc 2 472 5 is_stmt 0 view .LVU87
 230              	.LBE47:
 231              	.LBE46:
 129:Drivers/lvgl/src/misc/lv_color.c **** }
 232              		.loc 1 129 1 view .LVU88
 233 0044 43EA0020 		orr	r0, r3, r0, lsl #8
 234 0048 7047     		bx	lr
 235              	.L9:
 236 004a 00BF     		.align	2
 237              	.L8:
 238 004c 1FF8E007 		.word	132184095
 239              		.cfi_endproc
 240              	.LFE19:
 242              		.section	.text.lv_color_darken,"ax",%progbits
 243              		.align	1
 244              		.global	lv_color_darken
 245              		.syntax unified
 246              		.thumb
 247              		.thumb_func
 249              	lv_color_darken:
 250              	.LVL29:
 251              	.LFB20:
 130:Drivers/lvgl/src/misc/lv_color.c **** 
 131:Drivers/lvgl/src/misc/lv_color.c **** lv_color_t lv_color_darken(lv_color_t c, lv_opa_t lvl)
 132:Drivers/lvgl/src/misc/lv_color.c **** {
 252              		.loc 1 132 1 is_stmt 1 view -0
 253              		.cfi_startproc
 254              		@ args = 0, pretend = 0, frame = 0
 255              		@ frame_needed = 0, uses_anonymous_args = 0
 256              		@ link register save eliminated.
 133:Drivers/lvgl/src/misc/lv_color.c ****     return lv_color_mix(lv_color_black(), c, lvl);
 257              		.loc 1 133 5 view .LVU90
 258              	.LBB53:
 259              	.LBI53:
 699:Drivers/lvgl/src/misc/lv_color.h **** }
 700:Drivers/lvgl/src/misc/lv_color.h **** static inline lv_color_t lv_color_black(void)
 260              		.loc 2 700 26 view .LVU91
 701:Drivers/lvgl/src/misc/lv_color.h **** {
 702:Drivers/lvgl/src/misc/lv_color.h ****     return lv_color_make(0x00, 0x0, 0x00);
 261              		.loc 2 702 5 view .LVU92
 262              	.LBB54:
 263              	.LBI54:
 595:Drivers/lvgl/src/misc/lv_color.h **** {
 264              		.loc 2 595 26 view .LVU93
 265              	.LBB55:
 597:Drivers/lvgl/src/misc/lv_color.h **** }
 266              		.loc 2 597 5 view .LVU94
 597:Drivers/lvgl/src/misc/lv_color.h **** }
 267              		.loc 2 597 5 is_stmt 0 view .LVU95
 268              	.LBE55:
 269              	.LBE54:
 270              	.LBE53:
 271              	.LBB56:
ARM GAS  /var/folders/0z/tsy30v1j4xl4_7kw94k978ww0000gn/T//cc5Q5bUm.s 			page 21


 272              	.LBI56:
 439:Drivers/lvgl/src/misc/lv_color.h **** {
 273              		.loc 2 439 48 is_stmt 1 view .LVU96
 274              	.LBB57:
 441:Drivers/lvgl/src/misc/lv_color.h **** 
 275              		.loc 2 441 5 view .LVU97
 445:Drivers/lvgl/src/misc/lv_color.h ****     c2.full = c2.full << 8 | c2.full >> 8;
 276              		.loc 2 445 5 view .LVU98
 446:Drivers/lvgl/src/misc/lv_color.h **** #endif
 277              		.loc 2 446 5 view .LVU99
 446:Drivers/lvgl/src/misc/lv_color.h **** #endif
 278              		.loc 2 446 17 is_stmt 0 view .LVU100
 279 0000 83B2     		uxth	r3, r0
 446:Drivers/lvgl/src/misc/lv_color.h **** #endif
 280              		.loc 2 446 28 view .LVU101
 281 0002 C0F30720 		ubfx	r0, r0, #8, #8
 282              	.LVL30:
 446:Drivers/lvgl/src/misc/lv_color.h **** #endif
 283              		.loc 2 446 28 view .LVU102
 284 0006 40EA0320 		orr	r0, r0, r3, lsl #8
 285 000a 83B2     		uxth	r3, r0
 449:Drivers/lvgl/src/misc/lv_color.h ****     uint32_t bg = (uint32_t)((uint32_t)c2.full | ((uint32_t)c2.full << 16)) &
 286              		.loc 2 449 5 is_stmt 1 view .LVU103
 449:Drivers/lvgl/src/misc/lv_color.h ****     uint32_t bg = (uint32_t)((uint32_t)c2.full | ((uint32_t)c2.full << 16)) &
 287              		.loc 2 449 11 is_stmt 0 view .LVU104
 288 000c 0431     		adds	r1, r1, #4
 289              	.LVL31:
 450:Drivers/lvgl/src/misc/lv_color.h ****                   0x7E0F81F; /*0b00000111111000001111100000011111*/
 290              		.loc 2 450 5 is_stmt 1 view .LVU105
 450:Drivers/lvgl/src/misc/lv_color.h ****                   0x7E0F81F; /*0b00000111111000001111100000011111*/
 291              		.loc 2 450 19 is_stmt 0 view .LVU106
 292 000e 43EA0043 		orr	r3, r3, r0, lsl #16
 450:Drivers/lvgl/src/misc/lv_color.h ****                   0x7E0F81F; /*0b00000111111000001111100000011111*/
 293              		.loc 2 450 14 view .LVU107
 294 0012 084A     		ldr	r2, .L11
 295 0014 1340     		ands	r3, r3, r2
 296              	.LVL32:
 452:Drivers/lvgl/src/misc/lv_color.h ****     uint32_t result = ((((fg - bg) * mix) >> 5) + bg) & 0x7E0F81F;
 297              		.loc 2 452 5 is_stmt 1 view .LVU108
 453:Drivers/lvgl/src/misc/lv_color.h ****     ret.full = (uint16_t)((result >> 16) | result);
 298              		.loc 2 453 5 view .LVU109
 453:Drivers/lvgl/src/misc/lv_color.h ****     ret.full = (uint16_t)((result >> 16) | result);
 299              		.loc 2 453 30 is_stmt 0 view .LVU110
 300 0016 5842     		rsbs	r0, r3, #0
 453:Drivers/lvgl/src/misc/lv_color.h ****     ret.full = (uint16_t)((result >> 16) | result);
 301              		.loc 2 453 36 view .LVU111
 302 0018 C908     		lsrs	r1, r1, #3
 303              	.LVL33:
 453:Drivers/lvgl/src/misc/lv_color.h ****     ret.full = (uint16_t)((result >> 16) | result);
 304              		.loc 2 453 36 view .LVU112
 305 001a 00FB01F1 		mul	r1, r0, r1
 453:Drivers/lvgl/src/misc/lv_color.h ****     ret.full = (uint16_t)((result >> 16) | result);
 306              		.loc 2 453 49 view .LVU113
 307 001e 03EB5113 		add	r3, r3, r1, lsr #5
 308              	.LVL34:
 453:Drivers/lvgl/src/misc/lv_color.h ****     ret.full = (uint16_t)((result >> 16) | result);
 309              		.loc 2 453 14 view .LVU114
ARM GAS  /var/folders/0z/tsy30v1j4xl4_7kw94k978ww0000gn/T//cc5Q5bUm.s 			page 22


 310 0022 1340     		ands	r3, r3, r2
 311              	.LVL35:
 454:Drivers/lvgl/src/misc/lv_color.h **** #if LV_COLOR_16_SWAP == 1
 312              		.loc 2 454 5 is_stmt 1 view .LVU115
 454:Drivers/lvgl/src/misc/lv_color.h **** #if LV_COLOR_16_SWAP == 1
 313              		.loc 2 454 16 is_stmt 0 view .LVU116
 314 0024 43EA1343 		orr	r3, r3, r3, lsr #16
 315              	.LVL36:
 454:Drivers/lvgl/src/misc/lv_color.h **** #if LV_COLOR_16_SWAP == 1
 316              		.loc 2 454 16 view .LVU117
 317 0028 98B2     		uxth	r0, r3
 318              	.LVL37:
 456:Drivers/lvgl/src/misc/lv_color.h **** #endif
 319              		.loc 2 456 5 is_stmt 1 view .LVU118
 456:Drivers/lvgl/src/misc/lv_color.h **** #endif
 320              		.loc 2 456 30 is_stmt 0 view .LVU119
 321 002a C3F30723 		ubfx	r3, r3, #8, #8
 472:Drivers/lvgl/src/misc/lv_color.h **** }
 322              		.loc 2 472 5 is_stmt 1 view .LVU120
 323              	.LVL38:
 472:Drivers/lvgl/src/misc/lv_color.h **** }
 324              		.loc 2 472 5 is_stmt 0 view .LVU121
 325              	.LBE57:
 326              	.LBE56:
 134:Drivers/lvgl/src/misc/lv_color.c **** }
 327              		.loc 1 134 1 view .LVU122
 328 002e 43EA0020 		orr	r0, r3, r0, lsl #8
 329 0032 7047     		bx	lr
 330              	.L12:
 331              		.align	2
 332              	.L11:
 333 0034 1FF8E007 		.word	132184095
 334              		.cfi_endproc
 335              	.LFE20:
 337              		.section	.text.lv_color_change_lightness,"ax",%progbits
 338              		.align	1
 339              		.global	lv_color_change_lightness
 340              		.syntax unified
 341              		.thumb
 342              		.thumb_func
 344              	lv_color_change_lightness:
 345              	.LVL39:
 346              	.LFB21:
 135:Drivers/lvgl/src/misc/lv_color.c **** 
 136:Drivers/lvgl/src/misc/lv_color.c **** lv_color_t lv_color_change_lightness(lv_color_t c, lv_opa_t lvl)
 137:Drivers/lvgl/src/misc/lv_color.c **** {
 347              		.loc 1 137 1 is_stmt 1 view -0
 348              		.cfi_startproc
 349              		@ args = 0, pretend = 0, frame = 0
 350              		@ frame_needed = 0, uses_anonymous_args = 0
 138:Drivers/lvgl/src/misc/lv_color.c ****     /*It'd be better to convert the color to HSL, change L and convert back to RGB.*/
 139:Drivers/lvgl/src/misc/lv_color.c ****     if(lvl == LV_OPA_50) return c;
 351              		.loc 1 139 5 view .LVU124
 352              		.loc 1 139 7 is_stmt 0 view .LVU125
 353 0000 7F29     		cmp	r1, #127
 354 0002 11D0     		beq	.L18
 137:Drivers/lvgl/src/misc/lv_color.c ****     /*It'd be better to convert the color to HSL, change L and convert back to RGB.*/
ARM GAS  /var/folders/0z/tsy30v1j4xl4_7kw94k978ww0000gn/T//cc5Q5bUm.s 			page 23


 355              		.loc 1 137 1 view .LVU126
 356 0004 08B5     		push	{r3, lr}
 357              		.cfi_def_cfa_offset 8
 358              		.cfi_offset 3, -8
 359              		.cfi_offset 14, -4
 140:Drivers/lvgl/src/misc/lv_color.c ****     else if(lvl < LV_OPA_50) return lv_color_darken(c, (LV_OPA_50 - lvl) * 2);
 360              		.loc 1 140 10 is_stmt 1 view .LVU127
 361              		.loc 1 140 12 is_stmt 0 view .LVU128
 362 0006 7E29     		cmp	r1, #126
 363 0008 07D8     		bhi	.L16
 364              		.loc 1 140 30 is_stmt 1 discriminator 1 view .LVU129
 365              		.loc 1 140 67 is_stmt 0 discriminator 1 view .LVU130
 366 000a C1F17F01 		rsb	r1, r1, #127
 367              	.LVL40:
 368              		.loc 1 140 37 discriminator 1 view .LVU131
 369 000e 4900     		lsls	r1, r1, #1
 370 0010 01F0FE01 		and	r1, r1, #254
 371 0014 FFF7FEFF 		bl	lv_color_darken
 372              	.LVL41:
 373              	.L15:
 141:Drivers/lvgl/src/misc/lv_color.c ****     else return lv_color_lighten(c, (lvl - LV_OPA_50) * 2);
 142:Drivers/lvgl/src/misc/lv_color.c **** }
 374              		.loc 1 142 1 view .LVU132
 375 0018 08BD     		pop	{r3, pc}
 376              	.LVL42:
 377              	.L16:
 141:Drivers/lvgl/src/misc/lv_color.c ****     else return lv_color_lighten(c, (lvl - LV_OPA_50) * 2);
 378              		.loc 1 141 10 is_stmt 1 view .LVU133
 141:Drivers/lvgl/src/misc/lv_color.c ****     else return lv_color_lighten(c, (lvl - LV_OPA_50) * 2);
 379              		.loc 1 141 17 is_stmt 0 view .LVU134
 380 001a 7F39     		subs	r1, r1, #127
 381              	.LVL43:
 141:Drivers/lvgl/src/misc/lv_color.c ****     else return lv_color_lighten(c, (lvl - LV_OPA_50) * 2);
 382              		.loc 1 141 17 view .LVU135
 383 001c 4900     		lsls	r1, r1, #1
 384 001e 01F0FE01 		and	r1, r1, #254
 385 0022 FFF7FEFF 		bl	lv_color_lighten
 386              	.LVL44:
 141:Drivers/lvgl/src/misc/lv_color.c ****     else return lv_color_lighten(c, (lvl - LV_OPA_50) * 2);
 387              		.loc 1 141 17 view .LVU136
 388 0026 F7E7     		b	.L15
 389              	.LVL45:
 390              	.L18:
 391              		.cfi_def_cfa_offset 0
 392              		.cfi_restore 3
 393              		.cfi_restore 14
 394              	.LVL46:
 395              		.loc 1 142 1 view .LVU137
 396 0028 7047     		bx	lr
 397              		.cfi_endproc
 398              	.LFE21:
 400              		.section	.text.lv_color_hsv_to_rgb,"ax",%progbits
 401              		.align	1
 402              		.global	lv_color_hsv_to_rgb
 403              		.syntax unified
 404              		.thumb
 405              		.thumb_func
ARM GAS  /var/folders/0z/tsy30v1j4xl4_7kw94k978ww0000gn/T//cc5Q5bUm.s 			page 24


 407              	lv_color_hsv_to_rgb:
 408              	.LVL47:
 409              	.LFB22:
 143:Drivers/lvgl/src/misc/lv_color.c **** 
 144:Drivers/lvgl/src/misc/lv_color.c **** /**
 145:Drivers/lvgl/src/misc/lv_color.c ****  * Convert a HSV color to RGB
 146:Drivers/lvgl/src/misc/lv_color.c ****  * @param h hue [0..359]
 147:Drivers/lvgl/src/misc/lv_color.c ****  * @param s saturation [0..100]
 148:Drivers/lvgl/src/misc/lv_color.c ****  * @param v value [0..100]
 149:Drivers/lvgl/src/misc/lv_color.c ****  * @return the given RGB color in RGB (with LV_COLOR_DEPTH depth)
 150:Drivers/lvgl/src/misc/lv_color.c ****  */
 151:Drivers/lvgl/src/misc/lv_color.c **** lv_color_t lv_color_hsv_to_rgb(uint16_t h, uint8_t s, uint8_t v)
 152:Drivers/lvgl/src/misc/lv_color.c **** {
 410              		.loc 1 152 1 is_stmt 1 view -0
 411              		.cfi_startproc
 412              		@ args = 0, pretend = 0, frame = 0
 413              		@ frame_needed = 0, uses_anonymous_args = 0
 414              		.loc 1 152 1 is_stmt 0 view .LVU139
 415 0000 00B5     		push	{lr}
 416              		.cfi_def_cfa_offset 4
 417              		.cfi_offset 14, -4
 153:Drivers/lvgl/src/misc/lv_color.c ****     h = (uint32_t)((uint32_t)h * 255) / 360;
 418              		.loc 1 153 5 is_stmt 1 view .LVU140
 419              		.loc 1 153 9 is_stmt 0 view .LVU141
 420 0002 C0EB0020 		rsb	r0, r0, r0, lsl #8
 421              	.LVL48:
 422              		.loc 1 153 39 view .LVU142
 423 0006 C008     		lsrs	r0, r0, #3
 424 0008 3F4B     		ldr	r3, .L34
 425 000a A3FB0030 		umull	r3, r0, r3, r0
 426 000e 4FEA900C 		lsr	ip, r0, #2
 427              		.loc 1 153 7 view .LVU143
 428 0012 C0F38F00 		ubfx	r0, r0, #2, #16
 429              	.LVL49:
 154:Drivers/lvgl/src/misc/lv_color.c ****     s = (uint16_t)((uint16_t)s * 255) / 100;
 430              		.loc 1 154 5 is_stmt 1 view .LVU144
 431              		.loc 1 154 9 is_stmt 0 view .LVU145
 432 0016 C1EB0121 		rsb	r1, r1, r1, lsl #8
 433              	.LVL50:
 434              		.loc 1 154 9 view .LVU146
 435 001a 8BB2     		uxth	r3, r1
 436              		.loc 1 154 7 view .LVU147
 437 001c 3B49     		ldr	r1, .L34+4
 438 001e A1FB03E3 		umull	lr, r3, r1, r3
 439 0022 C3F34713 		ubfx	r3, r3, #5, #8
 440              	.LVL51:
 155:Drivers/lvgl/src/misc/lv_color.c ****     v = (uint16_t)((uint16_t)v * 255) / 100;
 441              		.loc 1 155 5 is_stmt 1 view .LVU148
 442              		.loc 1 155 9 is_stmt 0 view .LVU149
 443 0026 C2EB0222 		rsb	r2, r2, r2, lsl #8
 444              	.LVL52:
 445              		.loc 1 155 9 view .LVU150
 446 002a 92B2     		uxth	r2, r2
 447              		.loc 1 155 7 view .LVU151
 448 002c A1FB0212 		umull	r1, r2, r1, r2
 449 0030 C2F34712 		ubfx	r2, r2, #5, #8
 450              	.LVL53:
ARM GAS  /var/folders/0z/tsy30v1j4xl4_7kw94k978ww0000gn/T//cc5Q5bUm.s 			page 25


 156:Drivers/lvgl/src/misc/lv_color.c **** 
 157:Drivers/lvgl/src/misc/lv_color.c ****     uint8_t r, g, b;
 451              		.loc 1 157 5 is_stmt 1 view .LVU152
 158:Drivers/lvgl/src/misc/lv_color.c **** 
 159:Drivers/lvgl/src/misc/lv_color.c ****     uint8_t region, remainder, p, q, t;
 452              		.loc 1 159 5 view .LVU153
 160:Drivers/lvgl/src/misc/lv_color.c **** 
 161:Drivers/lvgl/src/misc/lv_color.c ****     if(s == 0) {
 453              		.loc 1 161 5 view .LVU154
 454              		.loc 1 161 7 is_stmt 0 view .LVU155
 455 0034 83B3     		cbz	r3, .L33
 162:Drivers/lvgl/src/misc/lv_color.c ****         return lv_color_make(v, v, v);
 163:Drivers/lvgl/src/misc/lv_color.c ****     }
 164:Drivers/lvgl/src/misc/lv_color.c **** 
 165:Drivers/lvgl/src/misc/lv_color.c ****     region    = h / 43;
 456              		.loc 1 165 5 is_stmt 1 view .LVU156
 457              		.loc 1 165 15 is_stmt 0 view .LVU157
 458 0036 3649     		ldr	r1, .L34+8
 459 0038 A1FB0010 		umull	r1, r0, r1, r0
 460              	.LVL54:
 461              		.loc 1 165 15 view .LVU158
 462 003c C0F3C700 		ubfx	r0, r0, #3, #8
 463              	.LVL55:
 166:Drivers/lvgl/src/misc/lv_color.c ****     remainder = (h - (region * 43)) * 6;
 464              		.loc 1 166 5 is_stmt 1 view .LVU159
 465              		.loc 1 166 20 is_stmt 0 view .LVU160
 466 0040 1FFA8CF1 		uxth	r1, ip
 467 0044 6FF02A0C 		mvn	ip, #42
 468 0048 0CFB0011 		mla	r1, ip, r0, r1
 469              		.loc 1 166 15 view .LVU161
 470 004c 01EB4101 		add	r1, r1, r1, lsl #1
 471 0050 4900     		lsls	r1, r1, #1
 472 0052 C9B2     		uxtb	r1, r1
 473              	.LVL56:
 167:Drivers/lvgl/src/misc/lv_color.c **** 
 168:Drivers/lvgl/src/misc/lv_color.c ****     p = (v * (255 - s)) >> 8;
 474              		.loc 1 168 5 is_stmt 1 view .LVU162
 475              		.loc 1 168 19 is_stmt 0 view .LVU163
 476 0054 C3F1FF0E 		rsb	lr, r3, #255
 477              		.loc 1 168 12 view .LVU164
 478 0058 0EFB02FE 		mul	lr, lr, r2
 479              		.loc 1 168 7 view .LVU165
 480 005c CEF3072E 		ubfx	lr, lr, #8, #8
 481              	.LVL57:
 169:Drivers/lvgl/src/misc/lv_color.c ****     q = (v * (255 - ((s * remainder) >> 8))) >> 8;
 482              		.loc 1 169 5 is_stmt 1 view .LVU166
 483              		.loc 1 169 25 is_stmt 0 view .LVU167
 484 0060 01FB03FC 		mul	ip, r1, r3
 485              		.loc 1 169 38 view .LVU168
 486 0064 4FEA2C2C 		asr	ip, ip, #8
 487              		.loc 1 169 19 view .LVU169
 488 0068 CCF1FF0C 		rsb	ip, ip, #255
 489              		.loc 1 169 12 view .LVU170
 490 006c 0CFB02FC 		mul	ip, ip, r2
 491              		.loc 1 169 7 view .LVU171
 492 0070 CCF3072C 		ubfx	ip, ip, #8, #8
 493              	.LVL58:
ARM GAS  /var/folders/0z/tsy30v1j4xl4_7kw94k978ww0000gn/T//cc5Q5bUm.s 			page 26


 170:Drivers/lvgl/src/misc/lv_color.c ****     t = (v * (255 - ((s * (255 - remainder)) >> 8))) >> 8;
 494              		.loc 1 170 5 is_stmt 1 view .LVU172
 495              		.loc 1 170 32 is_stmt 0 view .LVU173
 496 0074 C1F1FF01 		rsb	r1, r1, #255
 497              	.LVL59:
 498              		.loc 1 170 25 view .LVU174
 499 0078 01FB03F3 		mul	r3, r1, r3
 500              	.LVL60:
 501              		.loc 1 170 46 view .LVU175
 502 007c 1B12     		asrs	r3, r3, #8
 503              		.loc 1 170 19 view .LVU176
 504 007e C3F1FF03 		rsb	r3, r3, #255
 505              		.loc 1 170 12 view .LVU177
 506 0082 02FB03F3 		mul	r3, r2, r3
 507              		.loc 1 170 7 view .LVU178
 508 0086 C3F30723 		ubfx	r3, r3, #8, #8
 509              	.LVL61:
 171:Drivers/lvgl/src/misc/lv_color.c **** 
 172:Drivers/lvgl/src/misc/lv_color.c ****     switch(region) {
 510              		.loc 1 172 5 is_stmt 1 view .LVU179
 511 008a 0428     		cmp	r0, #4
 512 008c 36D8     		bhi	.L24
 513 008e DFE800F0 		tbb	[pc, r0]
 514              	.L26:
 515 0092 12       		.byte	(.L30-.L26)/2
 516 0093 14       		.byte	(.L29-.L26)/2
 517 0094 28       		.byte	(.L28-.L26)/2
 518 0095 2B       		.byte	(.L27-.L26)/2
 519 0096 30       		.byte	(.L25-.L26)/2
 520              	.LVL62:
 521 0097 00       		.p2align 1
 522              	.L33:
 162:Drivers/lvgl/src/misc/lv_color.c ****     }
 523              		.loc 1 162 9 view .LVU180
 524              	.LBB58:
 525              	.LBI58:
 595:Drivers/lvgl/src/misc/lv_color.h **** {
 526              		.loc 2 595 26 view .LVU181
 527              	.LBB59:
 597:Drivers/lvgl/src/misc/lv_color.h **** }
 528              		.loc 2 597 5 view .LVU182
 597:Drivers/lvgl/src/misc/lv_color.h **** }
 529              		.loc 2 597 39 is_stmt 0 view .LVU183
 530 0098 5109     		lsrs	r1, r2, #5
 531 009a D308     		lsrs	r3, r2, #3
 532              	.LVL63:
 597:Drivers/lvgl/src/misc/lv_color.h **** }
 533              		.loc 2 597 39 view .LVU184
 534 009c C2F38202 		ubfx	r2, r2, #2, #3
 535              	.LVL64:
 597:Drivers/lvgl/src/misc/lv_color.h **** }
 536              		.loc 2 597 12 view .LVU185
 537 00a0 4FF00000 		mov	r0, #0	@ movhi
 538              	.LVL65:
 597:Drivers/lvgl/src/misc/lv_color.h **** }
 539              		.loc 2 597 12 view .LVU186
 540 00a4 61F30200 		bfi	r0, r1, #0, #3
ARM GAS  /var/folders/0z/tsy30v1j4xl4_7kw94k978ww0000gn/T//cc5Q5bUm.s 			page 27


 541 00a8 63F3C700 		bfi	r0, r3, #3, #5
 542 00ac 63F30C20 		bfi	r0, r3, #8, #5
 543 00b0 62F34F30 		bfi	r0, r2, #13, #3
 597:Drivers/lvgl/src/misc/lv_color.h **** }
 544              		.loc 2 597 12 view .LVU187
 545              	.LBE59:
 546              	.LBE58:
 162:Drivers/lvgl/src/misc/lv_color.c ****     }
 547              		.loc 1 162 16 view .LVU188
 548 00b4 13E0     		b	.L23
 549              	.LVL66:
 550              	.L30:
 551              		.loc 1 172 5 view .LVU189
 552 00b6 9446     		mov	ip, r2
 553              	.LVL67:
 554              		.loc 1 172 5 view .LVU190
 555 00b8 1A46     		mov	r2, r3
 556              	.LVL68:
 557              	.L29:
 173:Drivers/lvgl/src/misc/lv_color.c ****         case 0:
 174:Drivers/lvgl/src/misc/lv_color.c ****             r = v;
 175:Drivers/lvgl/src/misc/lv_color.c ****             g = t;
 176:Drivers/lvgl/src/misc/lv_color.c ****             b = p;
 177:Drivers/lvgl/src/misc/lv_color.c ****             break;
 178:Drivers/lvgl/src/misc/lv_color.c ****         case 1:
 179:Drivers/lvgl/src/misc/lv_color.c ****             r = q;
 180:Drivers/lvgl/src/misc/lv_color.c ****             g = v;
 181:Drivers/lvgl/src/misc/lv_color.c ****             b = p;
 182:Drivers/lvgl/src/misc/lv_color.c ****             break;
 183:Drivers/lvgl/src/misc/lv_color.c ****         case 2:
 184:Drivers/lvgl/src/misc/lv_color.c ****             r = p;
 185:Drivers/lvgl/src/misc/lv_color.c ****             g = v;
 186:Drivers/lvgl/src/misc/lv_color.c ****             b = t;
 187:Drivers/lvgl/src/misc/lv_color.c ****             break;
 188:Drivers/lvgl/src/misc/lv_color.c ****         case 3:
 189:Drivers/lvgl/src/misc/lv_color.c ****             r = p;
 190:Drivers/lvgl/src/misc/lv_color.c ****             g = q;
 191:Drivers/lvgl/src/misc/lv_color.c ****             b = v;
 192:Drivers/lvgl/src/misc/lv_color.c ****             break;
 193:Drivers/lvgl/src/misc/lv_color.c ****         case 4:
 194:Drivers/lvgl/src/misc/lv_color.c ****             r = t;
 195:Drivers/lvgl/src/misc/lv_color.c ****             g = p;
 196:Drivers/lvgl/src/misc/lv_color.c ****             b = v;
 197:Drivers/lvgl/src/misc/lv_color.c ****             break;
 198:Drivers/lvgl/src/misc/lv_color.c ****         default:
 199:Drivers/lvgl/src/misc/lv_color.c ****             r = v;
 200:Drivers/lvgl/src/misc/lv_color.c ****             g = p;
 201:Drivers/lvgl/src/misc/lv_color.c ****             b = q;
 202:Drivers/lvgl/src/misc/lv_color.c ****             break;
 203:Drivers/lvgl/src/misc/lv_color.c ****     }
 204:Drivers/lvgl/src/misc/lv_color.c **** 
 205:Drivers/lvgl/src/misc/lv_color.c ****     lv_color_t result = lv_color_make(r, g, b);
 558              		.loc 1 205 5 is_stmt 1 view .LVU191
 559              	.LBB60:
 560              	.LBI60:
 595:Drivers/lvgl/src/misc/lv_color.h **** {
 561              		.loc 2 595 26 view .LVU192
ARM GAS  /var/folders/0z/tsy30v1j4xl4_7kw94k978ww0000gn/T//cc5Q5bUm.s 			page 28


 562              	.LBB61:
 597:Drivers/lvgl/src/misc/lv_color.h **** }
 563              		.loc 2 597 5 view .LVU193
 597:Drivers/lvgl/src/misc/lv_color.h **** }
 564              		.loc 2 597 39 is_stmt 0 view .LVU194
 565 00ba C2F34213 		ubfx	r3, r2, #5, #3
 566 00be CCF3C40C 		ubfx	ip, ip, #3, #5
 567              	.LVL69:
 597:Drivers/lvgl/src/misc/lv_color.h **** }
 568              		.loc 2 597 39 view .LVU195
 569 00c2 CEF3C40E 		ubfx	lr, lr, #3, #5
 570              	.LVL70:
 597:Drivers/lvgl/src/misc/lv_color.h **** }
 571              		.loc 2 597 39 view .LVU196
 572 00c6 C2F38202 		ubfx	r2, r2, #2, #3
 573              	.LVL71:
 597:Drivers/lvgl/src/misc/lv_color.h **** }
 574              		.loc 2 597 12 view .LVU197
 575 00ca 4FF00000 		mov	r0, #0	@ movhi
 576              	.LVL72:
 597:Drivers/lvgl/src/misc/lv_color.h **** }
 577              		.loc 2 597 12 view .LVU198
 578 00ce 63F30200 		bfi	r0, r3, #0, #3
 579 00d2 6CF3C700 		bfi	r0, ip, #3, #5
 580 00d6 6EF30C20 		bfi	r0, lr, #8, #5
 581 00da 62F34F30 		bfi	r0, r2, #13, #3
 597:Drivers/lvgl/src/misc/lv_color.h **** }
 582              		.loc 2 597 12 view .LVU199
 583              	.LBE61:
 584              	.LBE60:
 206:Drivers/lvgl/src/misc/lv_color.c ****     return result;
 585              		.loc 1 206 5 is_stmt 1 view .LVU200
 586              	.L23:
 207:Drivers/lvgl/src/misc/lv_color.c **** }
 587              		.loc 1 207 1 is_stmt 0 view .LVU201
 588 00de 5DF804FB 		ldr	pc, [sp], #4
 589              	.LVL73:
 590              	.L28:
 184:Drivers/lvgl/src/misc/lv_color.c ****             g = v;
 591              		.loc 1 184 13 is_stmt 1 view .LVU202
 185:Drivers/lvgl/src/misc/lv_color.c ****             b = t;
 592              		.loc 1 185 13 view .LVU203
 186:Drivers/lvgl/src/misc/lv_color.c ****             break;
 593              		.loc 1 186 13 view .LVU204
 187:Drivers/lvgl/src/misc/lv_color.c ****         case 3:
 594              		.loc 1 187 13 view .LVU205
 184:Drivers/lvgl/src/misc/lv_color.c ****             g = v;
 595              		.loc 1 184 15 is_stmt 0 view .LVU206
 596 00e2 F446     		mov	ip, lr
 597              	.LVL74:
 186:Drivers/lvgl/src/misc/lv_color.c ****             break;
 598              		.loc 1 186 15 view .LVU207
 599 00e4 9E46     		mov	lr, r3
 600              	.LVL75:
 187:Drivers/lvgl/src/misc/lv_color.c ****         case 3:
 601              		.loc 1 187 13 view .LVU208
 602 00e6 E8E7     		b	.L29
ARM GAS  /var/folders/0z/tsy30v1j4xl4_7kw94k978ww0000gn/T//cc5Q5bUm.s 			page 29


 603              	.LVL76:
 604              	.L27:
 189:Drivers/lvgl/src/misc/lv_color.c ****             g = q;
 605              		.loc 1 189 13 is_stmt 1 view .LVU209
 190:Drivers/lvgl/src/misc/lv_color.c ****             b = v;
 606              		.loc 1 190 13 view .LVU210
 191:Drivers/lvgl/src/misc/lv_color.c ****             break;
 607              		.loc 1 191 13 view .LVU211
 192:Drivers/lvgl/src/misc/lv_color.c ****         case 4:
 608              		.loc 1 192 13 view .LVU212
 609 00e8 6346     		mov	r3, ip
 610              	.LVL77:
 189:Drivers/lvgl/src/misc/lv_color.c ****             g = q;
 611              		.loc 1 189 15 is_stmt 0 view .LVU213
 612 00ea F446     		mov	ip, lr
 613              	.LVL78:
 191:Drivers/lvgl/src/misc/lv_color.c ****             break;
 614              		.loc 1 191 15 view .LVU214
 615 00ec 9646     		mov	lr, r2
 616              	.LVL79:
 190:Drivers/lvgl/src/misc/lv_color.c ****             b = v;
 617              		.loc 1 190 15 view .LVU215
 618 00ee 1A46     		mov	r2, r3
 619              	.LVL80:
 192:Drivers/lvgl/src/misc/lv_color.c ****         case 4:
 620              		.loc 1 192 13 view .LVU216
 621 00f0 E3E7     		b	.L29
 622              	.LVL81:
 623              	.L25:
 194:Drivers/lvgl/src/misc/lv_color.c ****             g = p;
 624              		.loc 1 194 13 is_stmt 1 view .LVU217
 195:Drivers/lvgl/src/misc/lv_color.c ****             b = v;
 625              		.loc 1 195 13 view .LVU218
 196:Drivers/lvgl/src/misc/lv_color.c ****             break;
 626              		.loc 1 196 13 view .LVU219
 197:Drivers/lvgl/src/misc/lv_color.c ****         default:
 627              		.loc 1 197 13 view .LVU220
 628 00f2 1146     		mov	r1, r2
 195:Drivers/lvgl/src/misc/lv_color.c ****             b = v;
 629              		.loc 1 195 15 is_stmt 0 view .LVU221
 630 00f4 7246     		mov	r2, lr
 631              	.LVL82:
 196:Drivers/lvgl/src/misc/lv_color.c ****             break;
 632              		.loc 1 196 15 view .LVU222
 633 00f6 8E46     		mov	lr, r1
 634              	.LVL83:
 194:Drivers/lvgl/src/misc/lv_color.c ****             g = p;
 635              		.loc 1 194 15 view .LVU223
 636 00f8 9C46     		mov	ip, r3
 637              	.LVL84:
 197:Drivers/lvgl/src/misc/lv_color.c ****         default:
 638              		.loc 1 197 13 view .LVU224
 639 00fa DEE7     		b	.L29
 640              	.LVL85:
 641              	.L24:
 199:Drivers/lvgl/src/misc/lv_color.c ****             g = p;
 642              		.loc 1 199 13 is_stmt 1 view .LVU225
ARM GAS  /var/folders/0z/tsy30v1j4xl4_7kw94k978ww0000gn/T//cc5Q5bUm.s 			page 30


 200:Drivers/lvgl/src/misc/lv_color.c ****             b = q;
 643              		.loc 1 200 13 view .LVU226
 201:Drivers/lvgl/src/misc/lv_color.c ****             break;
 644              		.loc 1 201 13 view .LVU227
 202:Drivers/lvgl/src/misc/lv_color.c ****     }
 645              		.loc 1 202 13 view .LVU228
 646 00fc 6346     		mov	r3, ip
 647              	.LVL86:
 199:Drivers/lvgl/src/misc/lv_color.c ****             g = p;
 648              		.loc 1 199 15 is_stmt 0 view .LVU229
 649 00fe 9446     		mov	ip, r2
 650              	.LVL87:
 200:Drivers/lvgl/src/misc/lv_color.c ****             b = q;
 651              		.loc 1 200 15 view .LVU230
 652 0100 7246     		mov	r2, lr
 653              	.LVL88:
 201:Drivers/lvgl/src/misc/lv_color.c ****             break;
 654              		.loc 1 201 15 view .LVU231
 655 0102 9E46     		mov	lr, r3
 656              	.LVL89:
 202:Drivers/lvgl/src/misc/lv_color.c ****     }
 657              		.loc 1 202 13 view .LVU232
 658 0104 D9E7     		b	.L29
 659              	.L35:
 660 0106 00BF     		.align	2
 661              	.L34:
 662 0108 176CC116 		.word	381774871
 663 010c 1F85EB51 		.word	1374389535
 664 0110 83BEA02F 		.word	799063683
 665              		.cfi_endproc
 666              	.LFE22:
 668              		.section	.text.lv_color_rgb_to_hsv,"ax",%progbits
 669              		.align	1
 670              		.global	lv_color_rgb_to_hsv
 671              		.syntax unified
 672              		.thumb
 673              		.thumb_func
 675              	lv_color_rgb_to_hsv:
 676              	.LVL90:
 677              	.LFB23:
 208:Drivers/lvgl/src/misc/lv_color.c **** 
 209:Drivers/lvgl/src/misc/lv_color.c **** /**
 210:Drivers/lvgl/src/misc/lv_color.c ****  * Convert a 32-bit RGB color to HSV
 211:Drivers/lvgl/src/misc/lv_color.c ****  * @param r8 8-bit red
 212:Drivers/lvgl/src/misc/lv_color.c ****  * @param g8 8-bit green
 213:Drivers/lvgl/src/misc/lv_color.c ****  * @param b8 8-bit blue
 214:Drivers/lvgl/src/misc/lv_color.c ****  * @return the given RGB color in HSV
 215:Drivers/lvgl/src/misc/lv_color.c ****  */
 216:Drivers/lvgl/src/misc/lv_color.c **** lv_color_hsv_t lv_color_rgb_to_hsv(uint8_t r8, uint8_t g8, uint8_t b8)
 217:Drivers/lvgl/src/misc/lv_color.c **** {
 678              		.loc 1 217 1 is_stmt 1 view -0
 679              		.cfi_startproc
 680              		@ args = 0, pretend = 0, frame = 8
 681              		@ frame_needed = 0, uses_anonymous_args = 0
 682              		.loc 1 217 1 is_stmt 0 view .LVU234
 683 0000 70B5     		push	{r4, r5, r6, lr}
 684              		.cfi_def_cfa_offset 16
ARM GAS  /var/folders/0z/tsy30v1j4xl4_7kw94k978ww0000gn/T//cc5Q5bUm.s 			page 31


 685              		.cfi_offset 4, -16
 686              		.cfi_offset 5, -12
 687              		.cfi_offset 6, -8
 688              		.cfi_offset 14, -4
 689 0002 82B0     		sub	sp, sp, #8
 690              		.cfi_def_cfa_offset 24
 218:Drivers/lvgl/src/misc/lv_color.c ****     uint16_t r = ((uint32_t)r8 << 10) / 255;
 691              		.loc 1 218 5 is_stmt 1 view .LVU235
 692              		.loc 1 218 32 is_stmt 0 view .LVU236
 693 0004 8002     		lsls	r0, r0, #10
 694              	.LVL91:
 695              		.loc 1 218 39 view .LVU237
 696 0006 484E     		ldr	r6, .L58
 697 0008 A6FB000E 		umull	r0, lr, r6, r0
 698 000c 4FEADE1C 		lsr	ip, lr, #7
 699              		.loc 1 218 14 view .LVU238
 700 0010 6446     		mov	r4, ip
 701              	.LVL92:
 219:Drivers/lvgl/src/misc/lv_color.c ****     uint16_t g = ((uint32_t)g8 << 10) / 255;
 702              		.loc 1 219 5 is_stmt 1 view .LVU239
 703              		.loc 1 219 32 is_stmt 0 view .LVU240
 704 0012 8B02     		lsls	r3, r1, #10
 705              		.loc 1 219 39 view .LVU241
 706 0014 A6FB0313 		umull	r1, r3, r6, r3
 707              	.LVL93:
 708              		.loc 1 219 39 view .LVU242
 709 0018 DD09     		lsrs	r5, r3, #7
 710              		.loc 1 219 14 view .LVU243
 711 001a 2B46     		mov	r3, r5
 712              	.LVL94:
 220:Drivers/lvgl/src/misc/lv_color.c ****     uint16_t b = ((uint32_t)b8 << 10) / 255;
 713              		.loc 1 220 5 is_stmt 1 view .LVU244
 714              		.loc 1 220 32 is_stmt 0 view .LVU245
 715 001c 9202     		lsls	r2, r2, #10
 716              	.LVL95:
 717              		.loc 1 220 39 view .LVU246
 718 001e A6FB0262 		umull	r6, r2, r6, r2
 719 0022 D609     		lsrs	r6, r2, #7
 720              		.loc 1 220 14 view .LVU247
 721 0024 3246     		mov	r2, r6
 722              	.LVL96:
 221:Drivers/lvgl/src/misc/lv_color.c **** 
 222:Drivers/lvgl/src/misc/lv_color.c ****     uint16_t rgbMin = r < g ? (r < b ? r : b) : (g < b ? g : b);
 723              		.loc 1 222 5 is_stmt 1 view .LVU248
 724              		.loc 1 222 14 is_stmt 0 view .LVU249
 725 0026 B5EBDE1F 		cmp	r5, lr, lsr #7
 726 002a 2BD9     		bls	.L37
 727              		.loc 1 222 14 discriminator 1 view .LVU250
 728 002c 6146     		mov	r1, ip
 729 002e B445     		cmp	ip, r6
 730 0030 28BF     		it	cs
 731 0032 3146     		movcs	r1, r6
 732 0034 89B2     		uxth	r1, r1
 733              	.L38:
 734              	.LVL97:
 223:Drivers/lvgl/src/misc/lv_color.c ****     uint16_t rgbMax = r > g ? (r > b ? r : b) : (g > b ? g : b);
 735              		.loc 1 223 5 is_stmt 1 discriminator 4 view .LVU251
ARM GAS  /var/folders/0z/tsy30v1j4xl4_7kw94k978ww0000gn/T//cc5Q5bUm.s 			page 32


 736              		.loc 1 223 14 is_stmt 0 discriminator 4 view .LVU252
 737 0036 9C42     		cmp	r4, r3
 738 0038 2AD9     		bls	.L39
 739              		.loc 1 223 14 discriminator 1 view .LVU253
 740 003a 2046     		mov	r0, r4
 741 003c 9442     		cmp	r4, r2
 742 003e 38BF     		it	cc
 743 0040 1046     		movcc	r0, r2
 744 0042 80B2     		uxth	r0, r0
 745              	.L40:
 746              	.LVL98:
 224:Drivers/lvgl/src/misc/lv_color.c **** 
 225:Drivers/lvgl/src/misc/lv_color.c ****     lv_color_hsv_t hsv;
 747              		.loc 1 225 5 is_stmt 1 discriminator 4 view .LVU254
 226:Drivers/lvgl/src/misc/lv_color.c **** 
 227:Drivers/lvgl/src/misc/lv_color.c ****     // https://en.wikipedia.org/wiki/HSL_and_HSV#Lightness
 228:Drivers/lvgl/src/misc/lv_color.c ****     hsv.v = (100 * rgbMax) >> 10;
 748              		.loc 1 228 5 discriminator 4 view .LVU255
 749              		.loc 1 228 18 is_stmt 0 discriminator 4 view .LVU256
 750 0044 4FF0640E 		mov	lr, #100
 751 0048 0EFB00FE 		mul	lr, lr, r0
 752              		.loc 1 228 28 discriminator 4 view .LVU257
 753 004c 4FEAAE2E 		asr	lr, lr, #10
 754              		.loc 1 228 11 discriminator 4 view .LVU258
 755 0050 8DF803E0 		strb	lr, [sp, #3]
 229:Drivers/lvgl/src/misc/lv_color.c **** 
 230:Drivers/lvgl/src/misc/lv_color.c ****     int32_t delta = rgbMax - rgbMin;
 756              		.loc 1 230 5 is_stmt 1 discriminator 4 view .LVU259
 757              		.loc 1 230 13 is_stmt 0 discriminator 4 view .LVU260
 758 0054 411A     		subs	r1, r0, r1
 759              	.LVL99:
 231:Drivers/lvgl/src/misc/lv_color.c ****     if(delta < 3) {
 760              		.loc 1 231 5 is_stmt 1 discriminator 4 view .LVU261
 761              		.loc 1 231 7 is_stmt 0 discriminator 4 view .LVU262
 762 0056 0229     		cmp	r1, #2
 763 0058 20DD     		ble	.L52
 232:Drivers/lvgl/src/misc/lv_color.c ****         hsv.h = 0;
 233:Drivers/lvgl/src/misc/lv_color.c ****         hsv.s = 0;
 234:Drivers/lvgl/src/misc/lv_color.c ****         return hsv;
 235:Drivers/lvgl/src/misc/lv_color.c ****     }
 236:Drivers/lvgl/src/misc/lv_color.c **** 
 237:Drivers/lvgl/src/misc/lv_color.c ****     // https://en.wikipedia.org/wiki/HSL_and_HSV#Saturation
 238:Drivers/lvgl/src/misc/lv_color.c ****     hsv.s = 100 * delta / rgbMax;
 764              		.loc 1 238 5 is_stmt 1 view .LVU263
 765              		.loc 1 238 17 is_stmt 0 view .LVU264
 766 005a 4FF0640E 		mov	lr, #100
 767 005e 0EFB01FE 		mul	lr, lr, r1
 768              		.loc 1 238 25 view .LVU265
 769 0062 9EFBF0FE 		sdiv	lr, lr, r0
 770              		.loc 1 238 11 view .LVU266
 771 0066 5FFA8EFE 		uxtb	lr, lr
 772 006a 8DF802E0 		strb	lr, [sp, #2]
 239:Drivers/lvgl/src/misc/lv_color.c ****     if(hsv.s < 3) {
 773              		.loc 1 239 5 is_stmt 1 view .LVU267
 774              		.loc 1 239 7 is_stmt 0 view .LVU268
 775 006e BEF1020F 		cmp	lr, #2
 776 0072 1BD9     		bls	.L53
ARM GAS  /var/folders/0z/tsy30v1j4xl4_7kw94k978ww0000gn/T//cc5Q5bUm.s 			page 33


 240:Drivers/lvgl/src/misc/lv_color.c ****         hsv.h = 0;
 241:Drivers/lvgl/src/misc/lv_color.c ****         return hsv;
 242:Drivers/lvgl/src/misc/lv_color.c ****     }
 243:Drivers/lvgl/src/misc/lv_color.c **** 
 244:Drivers/lvgl/src/misc/lv_color.c ****     // https://en.wikipedia.org/wiki/HSL_and_HSV#Hue_and_chroma
 245:Drivers/lvgl/src/misc/lv_color.c ****     int32_t h;
 777              		.loc 1 245 5 is_stmt 1 view .LVU269
 246:Drivers/lvgl/src/misc/lv_color.c ****     if(rgbMax == r)
 778              		.loc 1 246 5 view .LVU270
 779              		.loc 1 246 7 is_stmt 0 view .LVU271
 780 0074 A042     		cmp	r0, r4
 781 0076 1FD0     		beq	.L54
 247:Drivers/lvgl/src/misc/lv_color.c ****         h = (((g - b) << 10) / delta) + (g < b ? (6 << 10) : 0); // between yellow & magenta
 248:Drivers/lvgl/src/misc/lv_color.c ****     else if(rgbMax == g)
 782              		.loc 1 248 10 is_stmt 1 view .LVU272
 783              		.loc 1 248 12 is_stmt 0 view .LVU273
 784 0078 9842     		cmp	r0, r3
 785 007a 3FD0     		beq	.L55
 249:Drivers/lvgl/src/misc/lv_color.c ****         h = (((b - r) << 10) / delta) + (2 << 10); // between cyan & yellow
 250:Drivers/lvgl/src/misc/lv_color.c ****     else if(rgbMax == b)
 786              		.loc 1 250 10 is_stmt 1 view .LVU274
 787              		.loc 1 250 12 is_stmt 0 view .LVU275
 788 007c 9042     		cmp	r0, r2
 789 007e 46D0     		beq	.L56
 251:Drivers/lvgl/src/misc/lv_color.c ****         h = (((r - g) << 10) / delta) + (4 << 10); // between magenta & cyan
 252:Drivers/lvgl/src/misc/lv_color.c ****     else
 253:Drivers/lvgl/src/misc/lv_color.c ****         h = 0;
 790              		.loc 1 253 11 view .LVU276
 791 0080 0023     		movs	r3, #0
 792 0082 24E0     		b	.L46
 793              	.LVL100:
 794              	.L37:
 222:Drivers/lvgl/src/misc/lv_color.c ****     uint16_t rgbMax = r > g ? (r > b ? r : b) : (g > b ? g : b);
 795              		.loc 1 222 14 discriminator 2 view .LVU277
 796 0084 2946     		mov	r1, r5
 797 0086 B542     		cmp	r5, r6
 798 0088 28BF     		it	cs
 799 008a 3146     		movcs	r1, r6
 800 008c 89B2     		uxth	r1, r1
 801 008e D2E7     		b	.L38
 802              	.LVL101:
 803              	.L39:
 223:Drivers/lvgl/src/misc/lv_color.c **** 
 804              		.loc 1 223 14 discriminator 2 view .LVU278
 805 0090 1846     		mov	r0, r3
 806 0092 9342     		cmp	r3, r2
 807 0094 38BF     		it	cc
 808 0096 1046     		movcc	r0, r2
 809 0098 80B2     		uxth	r0, r0
 810 009a D3E7     		b	.L40
 811              	.LVL102:
 812              	.L52:
 232:Drivers/lvgl/src/misc/lv_color.c ****         hsv.s = 0;
 813              		.loc 1 232 9 is_stmt 1 view .LVU279
 232:Drivers/lvgl/src/misc/lv_color.c ****         hsv.s = 0;
 814              		.loc 1 232 15 is_stmt 0 view .LVU280
 815 009c 0023     		movs	r3, #0
ARM GAS  /var/folders/0z/tsy30v1j4xl4_7kw94k978ww0000gn/T//cc5Q5bUm.s 			page 34


 816 009e ADF80030 		strh	r3, [sp]	@ movhi
 233:Drivers/lvgl/src/misc/lv_color.c ****         return hsv;
 817              		.loc 1 233 9 is_stmt 1 view .LVU281
 233:Drivers/lvgl/src/misc/lv_color.c ****         return hsv;
 818              		.loc 1 233 15 is_stmt 0 view .LVU282
 819 00a2 8DF80230 		strb	r3, [sp, #2]
 234:Drivers/lvgl/src/misc/lv_color.c ****     }
 820              		.loc 1 234 9 is_stmt 1 view .LVU283
 234:Drivers/lvgl/src/misc/lv_color.c ****     }
 821              		.loc 1 234 16 is_stmt 0 view .LVU284
 822 00a6 009B     		ldr	r3, [sp]
 823 00a8 0193     		str	r3, [sp, #4]
 824 00aa 1AE0     		b	.L42
 825              	.L53:
 240:Drivers/lvgl/src/misc/lv_color.c ****         return hsv;
 826              		.loc 1 240 9 is_stmt 1 view .LVU285
 240:Drivers/lvgl/src/misc/lv_color.c ****         return hsv;
 827              		.loc 1 240 15 is_stmt 0 view .LVU286
 828 00ac 0023     		movs	r3, #0
 829 00ae ADF80030 		strh	r3, [sp]	@ movhi
 241:Drivers/lvgl/src/misc/lv_color.c ****     }
 830              		.loc 1 241 9 is_stmt 1 view .LVU287
 241:Drivers/lvgl/src/misc/lv_color.c ****     }
 831              		.loc 1 241 16 is_stmt 0 view .LVU288
 832 00b2 009B     		ldr	r3, [sp]
 833 00b4 0193     		str	r3, [sp, #4]
 834 00b6 14E0     		b	.L42
 835              	.L54:
 247:Drivers/lvgl/src/misc/lv_color.c ****     else if(rgbMax == g)
 836              		.loc 1 247 9 is_stmt 1 view .LVU289
 247:Drivers/lvgl/src/misc/lv_color.c ****     else if(rgbMax == g)
 837              		.loc 1 247 18 is_stmt 0 view .LVU290
 838 00b8 A8B2     		uxth	r0, r5
 839              	.LVL103:
 247:Drivers/lvgl/src/misc/lv_color.c ****     else if(rgbMax == g)
 840              		.loc 1 247 18 view .LVU291
 841 00ba B6B2     		uxth	r6, r6
 247:Drivers/lvgl/src/misc/lv_color.c ****     else if(rgbMax == g)
 842              		.loc 1 247 18 view .LVU292
 843 00bc 801B     		subs	r0, r0, r6
 247:Drivers/lvgl/src/misc/lv_color.c ****     else if(rgbMax == g)
 844              		.loc 1 247 23 view .LVU293
 845 00be 8002     		lsls	r0, r0, #10
 247:Drivers/lvgl/src/misc/lv_color.c ****     else if(rgbMax == g)
 846              		.loc 1 247 30 view .LVU294
 847 00c0 90FBF1F1 		sdiv	r1, r0, r1
 848              	.LVL104:
 247:Drivers/lvgl/src/misc/lv_color.c ****     else if(rgbMax == g)
 849              		.loc 1 247 60 view .LVU295
 850 00c4 9342     		cmp	r3, r2
 851 00c6 17D2     		bcs	.L49
 852 00c8 4FF4C053 		mov	r3, #6144
 853              	.L45:
 247:Drivers/lvgl/src/misc/lv_color.c ****     else if(rgbMax == g)
 854              		.loc 1 247 11 discriminator 4 view .LVU296
 855 00cc 0B44     		add	r3, r3, r1
 856              	.LVL105:
ARM GAS  /var/folders/0z/tsy30v1j4xl4_7kw94k978ww0000gn/T//cc5Q5bUm.s 			page 35


 857              	.L46:
 254:Drivers/lvgl/src/misc/lv_color.c ****     h *= 60;
 858              		.loc 1 254 5 is_stmt 1 view .LVU297
 859              		.loc 1 254 7 is_stmt 0 view .LVU298
 860 00ce C3EB0313 		rsb	r3, r3, r3, lsl #4
 861              	.LVL106:
 255:Drivers/lvgl/src/misc/lv_color.c ****     h >>= 10;
 862              		.loc 1 255 5 is_stmt 1 view .LVU299
 863              		.loc 1 255 7 is_stmt 0 view .LVU300
 864 00d2 43F31523 		sbfx	r3, r3, #8, #22
 865              	.LVL107:
 256:Drivers/lvgl/src/misc/lv_color.c ****     if(h < 0) h += 360;
 866              		.loc 1 256 5 is_stmt 1 view .LVU301
 867              		.loc 1 256 7 is_stmt 0 view .LVU302
 868 00d6 002B     		cmp	r3, #0
 869 00d8 22DB     		blt	.L57
 870              	.L48:
 257:Drivers/lvgl/src/misc/lv_color.c **** 
 258:Drivers/lvgl/src/misc/lv_color.c ****     hsv.h = h;
 871              		.loc 1 258 5 is_stmt 1 view .LVU303
 872              		.loc 1 258 11 is_stmt 0 view .LVU304
 873 00da ADF80030 		strh	r3, [sp]	@ movhi
 259:Drivers/lvgl/src/misc/lv_color.c ****     return hsv;
 874              		.loc 1 259 5 is_stmt 1 view .LVU305
 875              		.loc 1 259 12 is_stmt 0 view .LVU306
 876 00de 009B     		ldr	r3, [sp]
 877              	.LVL108:
 878              		.loc 1 259 12 view .LVU307
 879 00e0 0193     		str	r3, [sp, #4]
 880              	.L42:
 260:Drivers/lvgl/src/misc/lv_color.c **** }
 881              		.loc 1 260 1 view .LVU308
 882 00e2 0020     		movs	r0, #0
 883 00e4 BDF80430 		ldrh	r3, [sp, #4]
 884 00e8 63F30F00 		bfi	r0, r3, #0, #16
 885 00ec BDF80630 		ldrh	r3, [sp, #6]
 886 00f0 63F31F40 		bfi	r0, r3, #16, #16
 887 00f4 02B0     		add	sp, sp, #8
 888              		.cfi_remember_state
 889              		.cfi_def_cfa_offset 16
 890              		@ sp needed
 891 00f6 70BD     		pop	{r4, r5, r6, pc}
 892              	.LVL109:
 893              	.L49:
 894              		.cfi_restore_state
 247:Drivers/lvgl/src/misc/lv_color.c ****     else if(rgbMax == g)
 895              		.loc 1 247 60 view .LVU309
 896 00f8 0023     		movs	r3, #0
 897 00fa E7E7     		b	.L45
 898              	.LVL110:
 899              	.L55:
 249:Drivers/lvgl/src/misc/lv_color.c ****     else if(rgbMax == b)
 900              		.loc 1 249 9 is_stmt 1 view .LVU310
 249:Drivers/lvgl/src/misc/lv_color.c ****     else if(rgbMax == b)
 901              		.loc 1 249 18 is_stmt 0 view .LVU311
 902 00fc B3B2     		uxth	r3, r6
 903 00fe A3EB0C03 		sub	r3, r3, ip
ARM GAS  /var/folders/0z/tsy30v1j4xl4_7kw94k978ww0000gn/T//cc5Q5bUm.s 			page 36


 249:Drivers/lvgl/src/misc/lv_color.c ****     else if(rgbMax == b)
 904              		.loc 1 249 23 view .LVU312
 905 0102 9B02     		lsls	r3, r3, #10
 249:Drivers/lvgl/src/misc/lv_color.c ****     else if(rgbMax == b)
 906              		.loc 1 249 30 view .LVU313
 907 0104 93FBF1F3 		sdiv	r3, r3, r1
 249:Drivers/lvgl/src/misc/lv_color.c ****     else if(rgbMax == b)
 908              		.loc 1 249 11 view .LVU314
 909 0108 03F50063 		add	r3, r3, #2048
 910              	.LVL111:
 249:Drivers/lvgl/src/misc/lv_color.c ****     else if(rgbMax == b)
 911              		.loc 1 249 11 view .LVU315
 912 010c DFE7     		b	.L46
 913              	.LVL112:
 914              	.L56:
 251:Drivers/lvgl/src/misc/lv_color.c ****     else
 915              		.loc 1 251 9 is_stmt 1 view .LVU316
 251:Drivers/lvgl/src/misc/lv_color.c ****     else
 916              		.loc 1 251 18 is_stmt 0 view .LVU317
 917 010e ADB2     		uxth	r5, r5
 251:Drivers/lvgl/src/misc/lv_color.c ****     else
 918              		.loc 1 251 18 view .LVU318
 919 0110 ACEB0503 		sub	r3, ip, r5
 251:Drivers/lvgl/src/misc/lv_color.c ****     else
 920              		.loc 1 251 23 view .LVU319
 921 0114 9B02     		lsls	r3, r3, #10
 251:Drivers/lvgl/src/misc/lv_color.c ****     else
 922              		.loc 1 251 30 view .LVU320
 923 0116 93FBF1F3 		sdiv	r3, r3, r1
 251:Drivers/lvgl/src/misc/lv_color.c ****     else
 924              		.loc 1 251 11 view .LVU321
 925 011a 03F58053 		add	r3, r3, #4096
 926              	.LVL113:
 251:Drivers/lvgl/src/misc/lv_color.c ****     else
 927              		.loc 1 251 11 view .LVU322
 928 011e D6E7     		b	.L46
 929              	.LVL114:
 930              	.L57:
 256:Drivers/lvgl/src/misc/lv_color.c **** 
 931              		.loc 1 256 15 is_stmt 1 discriminator 1 view .LVU323
 256:Drivers/lvgl/src/misc/lv_color.c **** 
 932              		.loc 1 256 17 is_stmt 0 discriminator 1 view .LVU324
 933 0120 03F5B473 		add	r3, r3, #360
 934              	.LVL115:
 256:Drivers/lvgl/src/misc/lv_color.c **** 
 935              		.loc 1 256 17 discriminator 1 view .LVU325
 936 0124 D9E7     		b	.L48
 937              	.L59:
 938 0126 00BF     		.align	2
 939              	.L58:
 940 0128 81808080 		.word	-2139062143
 941              		.cfi_endproc
 942              	.LFE23:
 944              		.section	.text.lv_color_to_hsv,"ax",%progbits
 945              		.align	1
 946              		.global	lv_color_to_hsv
 947              		.syntax unified
ARM GAS  /var/folders/0z/tsy30v1j4xl4_7kw94k978ww0000gn/T//cc5Q5bUm.s 			page 37


 948              		.thumb
 949              		.thumb_func
 951              	lv_color_to_hsv:
 952              	.LVL116:
 953              	.LFB24:
 261:Drivers/lvgl/src/misc/lv_color.c **** 
 262:Drivers/lvgl/src/misc/lv_color.c **** /**
 263:Drivers/lvgl/src/misc/lv_color.c ****  * Convert a color to HSV
 264:Drivers/lvgl/src/misc/lv_color.c ****  * @param color color
 265:Drivers/lvgl/src/misc/lv_color.c ****  * @return the given color in HSV
 266:Drivers/lvgl/src/misc/lv_color.c ****  */
 267:Drivers/lvgl/src/misc/lv_color.c **** lv_color_hsv_t lv_color_to_hsv(lv_color_t color)
 268:Drivers/lvgl/src/misc/lv_color.c **** {
 954              		.loc 1 268 1 is_stmt 1 view -0
 955              		.cfi_startproc
 956              		@ args = 0, pretend = 0, frame = 8
 957              		@ frame_needed = 0, uses_anonymous_args = 0
 958              		.loc 1 268 1 is_stmt 0 view .LVU327
 959 0000 00B5     		push	{lr}
 960              		.cfi_def_cfa_offset 4
 961              		.cfi_offset 14, -4
 962 0002 83B0     		sub	sp, sp, #12
 963              		.cfi_def_cfa_offset 16
 269:Drivers/lvgl/src/misc/lv_color.c ****     lv_color32_t color32;
 964              		.loc 1 269 5 is_stmt 1 view .LVU328
 270:Drivers/lvgl/src/misc/lv_color.c ****     color32.full = lv_color_to32(color);
 965              		.loc 1 270 5 view .LVU329
 966              	.LBB64:
 967              	.LBI64:
 375:Drivers/lvgl/src/misc/lv_color.h **** {
 968              		.loc 2 375 24 view .LVU330
 969              	.LBB65:
 419:Drivers/lvgl/src/misc/lv_color.h ****     LV_COLOR_SET_R32(ret, (LV_COLOR_GET_R(color) * 263 + 7) >> 5);
 970              		.loc 2 419 5 view .LVU331
 420:Drivers/lvgl/src/misc/lv_color.h ****     LV_COLOR_SET_G32(ret, (LV_COLOR_GET_G(color) * 259 + 3) >> 6);
 971              		.loc 2 420 5 view .LVU332
 972 0004 C0F3C403 		ubfx	r3, r0, #3, #5
 973 0008 03EB4312 		add	r2, r3, r3, lsl #5
 974 000c C3EBC203 		rsb	r3, r3, r2, lsl #3
 975 0010 0733     		adds	r3, r3, #7
 976 0012 C3F34713 		ubfx	r3, r3, #5, #8
 977 0016 4FF0000C 		mov	ip, #0
 978              	.LVL117:
 420:Drivers/lvgl/src/misc/lv_color.h ****     LV_COLOR_SET_G32(ret, (LV_COLOR_GET_G(color) * 259 + 3) >> 6);
 979              		.loc 2 420 5 is_stmt 0 view .LVU333
 980 001a 63F3174C 		bfi	ip, r3, #16, #8
 981              	.LVL118:
 421:Drivers/lvgl/src/misc/lv_color.h ****     LV_COLOR_SET_B32(ret, (LV_COLOR_GET_B(color) * 263 + 7) >> 5);
 982              		.loc 2 421 5 is_stmt 1 view .LVU334
 983 001e 00F00702 		and	r2, r0, #7
 984 0022 C0F34233 		ubfx	r3, r0, #13, #3
 985 0026 03EBC203 		add	r3, r3, r2, lsl #3
 986 002a 03EBC312 		add	r2, r3, r3, lsl #7
 987 002e 03EB4203 		add	r3, r3, r2, lsl #1
 988 0032 0333     		adds	r3, r3, #3
 989 0034 C3F38713 		ubfx	r3, r3, #6, #8
 990 0038 63F30F2C 		bfi	ip, r3, #8, #8
ARM GAS  /var/folders/0z/tsy30v1j4xl4_7kw94k978ww0000gn/T//cc5Q5bUm.s 			page 38


 422:Drivers/lvgl/src/misc/lv_color.h ****     LV_COLOR_SET_A32(ret, 0xFF);
 991              		.loc 2 422 5 view .LVU335
 992 003c C0F30420 		ubfx	r0, r0, #8, #5
 993              	.LVL119:
 422:Drivers/lvgl/src/misc/lv_color.h ****     LV_COLOR_SET_A32(ret, 0xFF);
 994              		.loc 2 422 5 is_stmt 0 view .LVU336
 995 0040 00EB4013 		add	r3, r0, r0, lsl #5
 996 0044 C0EBC303 		rsb	r3, r0, r3, lsl #3
 997 0048 0733     		adds	r3, r3, #7
 998 004a C3F34713 		ubfx	r3, r3, #5, #8
 999 004e 63F3070C 		bfi	ip, r3, #0, #8
 423:Drivers/lvgl/src/misc/lv_color.h ****     return ret.full;
 1000              		.loc 2 423 5 is_stmt 1 view .LVU337
 1001 0052 4CF07F4C 		orr	ip, ip, #-16777216
 1002              	.LVL120:
 424:Drivers/lvgl/src/misc/lv_color.h **** #elif LV_COLOR_DEPTH == 32
 1003              		.loc 2 424 5 view .LVU338
 1004              	.LBE65:
 1005              	.LBE64:
 271:Drivers/lvgl/src/misc/lv_color.c ****     return lv_color_rgb_to_hsv(color32.ch.red, color32.ch.green, color32.ch.blue);
 1006              		.loc 1 271 5 view .LVU339
 1007              		.loc 1 271 12 is_stmt 0 view .LVU340
 1008 0056 5FFA8CF2 		uxtb	r2, ip
 1009 005a CCF30721 		ubfx	r1, ip, #8, #8
 1010 005e CCF30740 		ubfx	r0, ip, #16, #8
 1011 0062 FFF7FEFF 		bl	lv_color_rgb_to_hsv
 1012              	.LVL121:
 1013              		.loc 1 271 12 view .LVU341
 1014 0066 0190     		str	r0, [sp, #4]
 1015 0068 0020     		movs	r0, #0
 1016 006a BDF80430 		ldrh	r3, [sp, #4]
 1017 006e 63F30F00 		bfi	r0, r3, #0, #16
 1018 0072 BDF80630 		ldrh	r3, [sp, #6]
 1019 0076 63F31F40 		bfi	r0, r3, #16, #16
 272:Drivers/lvgl/src/misc/lv_color.c **** }
 1020              		.loc 1 272 1 view .LVU342
 1021 007a 03B0     		add	sp, sp, #12
 1022              		.cfi_def_cfa_offset 4
 1023              		@ sp needed
 1024 007c 5DF804FB 		ldr	pc, [sp], #4
 1025              		.cfi_endproc
 1026              	.LFE24:
 1028              		.section	.text.lv_palette_main,"ax",%progbits
 1029              		.align	1
 1030              		.global	lv_palette_main
 1031              		.syntax unified
 1032              		.thumb
 1033              		.thumb_func
 1035              	lv_palette_main:
 1036              	.LVL122:
 1037              	.LFB25:
 273:Drivers/lvgl/src/misc/lv_color.c **** 
 274:Drivers/lvgl/src/misc/lv_color.c **** lv_color_t lv_palette_main(lv_palette_t p)
 275:Drivers/lvgl/src/misc/lv_color.c **** {
 1038              		.loc 1 275 1 is_stmt 1 view -0
 1039              		.cfi_startproc
 1040              		@ args = 0, pretend = 0, frame = 0
ARM GAS  /var/folders/0z/tsy30v1j4xl4_7kw94k978ww0000gn/T//cc5Q5bUm.s 			page 39


 1041              		@ frame_needed = 0, uses_anonymous_args = 0
 1042              		@ link register save eliminated.
 276:Drivers/lvgl/src/misc/lv_color.c ****     static const lv_color_t colors[] = {
 1043              		.loc 1 276 5 view .LVU344
 277:Drivers/lvgl/src/misc/lv_color.c ****         LV_COLOR_MAKE(0xF4, 0x43, 0x36), LV_COLOR_MAKE(0xE9, 0x1E, 0x63), LV_COLOR_MAKE(0x9C, 0x27,
 278:Drivers/lvgl/src/misc/lv_color.c ****         LV_COLOR_MAKE(0x3F, 0x51, 0xB5), LV_COLOR_MAKE(0x21, 0x96, 0xF3), LV_COLOR_MAKE(0x03, 0xA9,
 279:Drivers/lvgl/src/misc/lv_color.c ****         LV_COLOR_MAKE(0x00, 0x96, 0x88), LV_COLOR_MAKE(0x4C, 0xAF, 0x50), LV_COLOR_MAKE(0x8B, 0xC3,
 280:Drivers/lvgl/src/misc/lv_color.c ****         LV_COLOR_MAKE(0xFF, 0xEB, 0x3B), LV_COLOR_MAKE(0xFF, 0xC1, 0x07), LV_COLOR_MAKE(0xFF, 0x98,
 281:Drivers/lvgl/src/misc/lv_color.c ****         LV_COLOR_MAKE(0x79, 0x55, 0x48), LV_COLOR_MAKE(0x60, 0x7D, 0x8B), LV_COLOR_MAKE(0x9E, 0x9E,
 282:Drivers/lvgl/src/misc/lv_color.c ****     };
 283:Drivers/lvgl/src/misc/lv_color.c **** 
 284:Drivers/lvgl/src/misc/lv_color.c ****     if(p >= _LV_PALETTE_LAST) {
 1044              		.loc 1 284 5 view .LVU345
 1045              		.loc 1 284 7 is_stmt 0 view .LVU346
 1046 0000 1228     		cmp	r0, #18
 1047 0002 03D8     		bhi	.L65
 285:Drivers/lvgl/src/misc/lv_color.c ****         LV_LOG_WARN("Invalid palette: %d", p);
 286:Drivers/lvgl/src/misc/lv_color.c ****         return lv_color_black();
 287:Drivers/lvgl/src/misc/lv_color.c ****     }
 288:Drivers/lvgl/src/misc/lv_color.c **** 
 289:Drivers/lvgl/src/misc/lv_color.c ****     return colors[p];
 1048              		.loc 1 289 5 is_stmt 1 view .LVU347
 1049              		.loc 1 289 18 is_stmt 0 view .LVU348
 1050 0004 034B     		ldr	r3, .L66
 1051 0006 33F81000 		ldrh	r0, [r3, r0, lsl #1]
 1052              	.LVL123:
 290:Drivers/lvgl/src/misc/lv_color.c **** 
 291:Drivers/lvgl/src/misc/lv_color.c **** }
 1053              		.loc 1 291 1 view .LVU349
 1054 000a 7047     		bx	lr
 1055              	.LVL124:
 1056              	.L65:
 285:Drivers/lvgl/src/misc/lv_color.c ****         LV_LOG_WARN("Invalid palette: %d", p);
 1057              		.loc 1 285 9 is_stmt 1 view .LVU350
 285:Drivers/lvgl/src/misc/lv_color.c ****         LV_LOG_WARN("Invalid palette: %d", p);
 1058              		.loc 1 285 9 view .LVU351
 285:Drivers/lvgl/src/misc/lv_color.c ****         LV_LOG_WARN("Invalid palette: %d", p);
 1059              		.loc 1 285 9 view .LVU352
 286:Drivers/lvgl/src/misc/lv_color.c ****     }
 1060              		.loc 1 286 9 view .LVU353
 1061              	.LBB66:
 1062              	.LBI66:
 700:Drivers/lvgl/src/misc/lv_color.h **** {
 1063              		.loc 2 700 26 view .LVU354
 1064              		.loc 2 702 5 view .LVU355
 1065              	.LBB67:
 1066              	.LBI67:
 595:Drivers/lvgl/src/misc/lv_color.h **** {
 1067              		.loc 2 595 26 view .LVU356
 1068              	.LBB68:
 597:Drivers/lvgl/src/misc/lv_color.h **** }
 1069              		.loc 2 597 5 view .LVU357
 597:Drivers/lvgl/src/misc/lv_color.h **** }
 1070              		.loc 2 597 5 is_stmt 0 view .LVU358
 1071 000c 4FF00000 		mov	r0, #0	@ movhi
 1072              	.LVL125:
 597:Drivers/lvgl/src/misc/lv_color.h **** }
ARM GAS  /var/folders/0z/tsy30v1j4xl4_7kw94k978ww0000gn/T//cc5Q5bUm.s 			page 40


 1073              		.loc 2 597 5 view .LVU359
 1074              	.LBE68:
 1075              	.LBE67:
 1076              	.LBE66:
 286:Drivers/lvgl/src/misc/lv_color.c ****     }
 1077              		.loc 1 286 16 view .LVU360
 1078 0010 7047     		bx	lr
 1079              	.L67:
 1080 0012 00BF     		.align	2
 1081              	.L66:
 1082 0014 00000000 		.word	.LANCHOR0
 1083              		.cfi_endproc
 1084              	.LFE25:
 1086              		.section	.text.lv_palette_lighten,"ax",%progbits
 1087              		.align	1
 1088              		.global	lv_palette_lighten
 1089              		.syntax unified
 1090              		.thumb
 1091              		.thumb_func
 1093              	lv_palette_lighten:
 1094              	.LVL126:
 1095              	.LFB26:
 292:Drivers/lvgl/src/misc/lv_color.c **** 
 293:Drivers/lvgl/src/misc/lv_color.c **** lv_color_t lv_palette_lighten(lv_palette_t p, uint8_t lvl)
 294:Drivers/lvgl/src/misc/lv_color.c **** {
 1096              		.loc 1 294 1 is_stmt 1 view -0
 1097              		.cfi_startproc
 1098              		@ args = 0, pretend = 0, frame = 0
 1099              		@ frame_needed = 0, uses_anonymous_args = 0
 1100              		@ link register save eliminated.
 295:Drivers/lvgl/src/misc/lv_color.c ****     static const lv_color_t colors[][5] = {
 1101              		.loc 1 295 5 view .LVU362
 296:Drivers/lvgl/src/misc/lv_color.c ****         {LV_COLOR_MAKE(0xEF, 0x53, 0x50), LV_COLOR_MAKE(0xE5, 0x73, 0x73), LV_COLOR_MAKE(0xEF, 0x9A
 297:Drivers/lvgl/src/misc/lv_color.c ****         {LV_COLOR_MAKE(0xEC, 0x40, 0x7A), LV_COLOR_MAKE(0xF0, 0x62, 0x92), LV_COLOR_MAKE(0xF4, 0x8F
 298:Drivers/lvgl/src/misc/lv_color.c ****         {LV_COLOR_MAKE(0xAB, 0x47, 0xBC), LV_COLOR_MAKE(0xBA, 0x68, 0xC8), LV_COLOR_MAKE(0xCE, 0x93
 299:Drivers/lvgl/src/misc/lv_color.c ****         {LV_COLOR_MAKE(0x7E, 0x57, 0xC2), LV_COLOR_MAKE(0x95, 0x75, 0xCD), LV_COLOR_MAKE(0xB3, 0x9D
 300:Drivers/lvgl/src/misc/lv_color.c ****         {LV_COLOR_MAKE(0x5C, 0x6B, 0xC0), LV_COLOR_MAKE(0x79, 0x86, 0xCB), LV_COLOR_MAKE(0x9F, 0xA8
 301:Drivers/lvgl/src/misc/lv_color.c ****         {LV_COLOR_MAKE(0x42, 0xA5, 0xF5), LV_COLOR_MAKE(0x64, 0xB5, 0xF6), LV_COLOR_MAKE(0x90, 0xCA
 302:Drivers/lvgl/src/misc/lv_color.c ****         {LV_COLOR_MAKE(0x29, 0xB6, 0xF6), LV_COLOR_MAKE(0x4F, 0xC3, 0xF7), LV_COLOR_MAKE(0x81, 0xD4
 303:Drivers/lvgl/src/misc/lv_color.c ****         {LV_COLOR_MAKE(0x26, 0xC6, 0xDA), LV_COLOR_MAKE(0x4D, 0xD0, 0xE1), LV_COLOR_MAKE(0x80, 0xDE
 304:Drivers/lvgl/src/misc/lv_color.c ****         {LV_COLOR_MAKE(0x26, 0xA6, 0x9A), LV_COLOR_MAKE(0x4D, 0xB6, 0xAC), LV_COLOR_MAKE(0x80, 0xCB
 305:Drivers/lvgl/src/misc/lv_color.c ****         {LV_COLOR_MAKE(0x66, 0xBB, 0x6A), LV_COLOR_MAKE(0x81, 0xC7, 0x84), LV_COLOR_MAKE(0xA5, 0xD6
 306:Drivers/lvgl/src/misc/lv_color.c ****         {LV_COLOR_MAKE(0x9C, 0xCC, 0x65), LV_COLOR_MAKE(0xAE, 0xD5, 0x81), LV_COLOR_MAKE(0xC5, 0xE1
 307:Drivers/lvgl/src/misc/lv_color.c ****         {LV_COLOR_MAKE(0xD4, 0xE1, 0x57), LV_COLOR_MAKE(0xDC, 0xE7, 0x75), LV_COLOR_MAKE(0xE6, 0xEE
 308:Drivers/lvgl/src/misc/lv_color.c ****         {LV_COLOR_MAKE(0xFF, 0xEE, 0x58), LV_COLOR_MAKE(0xFF, 0xF1, 0x76), LV_COLOR_MAKE(0xFF, 0xF5
 309:Drivers/lvgl/src/misc/lv_color.c ****         {LV_COLOR_MAKE(0xFF, 0xCA, 0x28), LV_COLOR_MAKE(0xFF, 0xD5, 0x4F), LV_COLOR_MAKE(0xFF, 0xE0
 310:Drivers/lvgl/src/misc/lv_color.c ****         {LV_COLOR_MAKE(0xFF, 0xA7, 0x26), LV_COLOR_MAKE(0xFF, 0xB7, 0x4D), LV_COLOR_MAKE(0xFF, 0xCC
 311:Drivers/lvgl/src/misc/lv_color.c ****         {LV_COLOR_MAKE(0xFF, 0x70, 0x43), LV_COLOR_MAKE(0xFF, 0x8A, 0x65), LV_COLOR_MAKE(0xFF, 0xAB
 312:Drivers/lvgl/src/misc/lv_color.c ****         {LV_COLOR_MAKE(0x8D, 0x6E, 0x63), LV_COLOR_MAKE(0xA1, 0x88, 0x7F), LV_COLOR_MAKE(0xBC, 0xAA
 313:Drivers/lvgl/src/misc/lv_color.c ****         {LV_COLOR_MAKE(0x78, 0x90, 0x9C), LV_COLOR_MAKE(0x90, 0xA4, 0xAE), LV_COLOR_MAKE(0xB0, 0xBE
 314:Drivers/lvgl/src/misc/lv_color.c ****         {LV_COLOR_MAKE(0xBD, 0xBD, 0xBD), LV_COLOR_MAKE(0xE0, 0xE0, 0xE0), LV_COLOR_MAKE(0xEE, 0xEE
 315:Drivers/lvgl/src/misc/lv_color.c ****     };
 316:Drivers/lvgl/src/misc/lv_color.c **** 
 317:Drivers/lvgl/src/misc/lv_color.c ****     if(p >= _LV_PALETTE_LAST) {
 1102              		.loc 1 317 5 view .LVU363
 1103              		.loc 1 317 7 is_stmt 0 view .LVU364
 1104 0000 1228     		cmp	r0, #18
ARM GAS  /var/folders/0z/tsy30v1j4xl4_7kw94k978ww0000gn/T//cc5Q5bUm.s 			page 41


 1105 0002 0AD8     		bhi	.L72
 318:Drivers/lvgl/src/misc/lv_color.c ****         LV_LOG_WARN("Invalid palette: %d", p);
 319:Drivers/lvgl/src/misc/lv_color.c ****         return lv_color_black();
 320:Drivers/lvgl/src/misc/lv_color.c ****     }
 321:Drivers/lvgl/src/misc/lv_color.c **** 
 322:Drivers/lvgl/src/misc/lv_color.c ****     if(lvl == 0 || lvl > 5) {
 1106              		.loc 1 322 5 is_stmt 1 view .LVU365
 1107              		.loc 1 322 17 is_stmt 0 view .LVU366
 1108 0004 0139     		subs	r1, r1, #1
 1109              	.LVL127:
 1110              		.loc 1 322 17 view .LVU367
 1111 0006 C9B2     		uxtb	r1, r1
 1112              		.loc 1 322 7 view .LVU368
 1113 0008 0429     		cmp	r1, #4
 1114 000a 09D8     		bhi	.L73
 323:Drivers/lvgl/src/misc/lv_color.c ****         LV_LOG_WARN("Invalid level: %d. Must be 1..5", lvl);
 324:Drivers/lvgl/src/misc/lv_color.c ****         return lv_color_black();
 325:Drivers/lvgl/src/misc/lv_color.c ****     }
 326:Drivers/lvgl/src/misc/lv_color.c **** 
 327:Drivers/lvgl/src/misc/lv_color.c ****     lvl--;
 1115              		.loc 1 327 5 is_stmt 1 view .LVU369
 1116              	.LVL128:
 328:Drivers/lvgl/src/misc/lv_color.c **** 
 329:Drivers/lvgl/src/misc/lv_color.c ****     return colors[p][lvl];
 1117              		.loc 1 329 5 view .LVU370
 1118              		.loc 1 329 21 is_stmt 0 view .LVU371
 1119 000c 00EB8000 		add	r0, r0, r0, lsl #2
 1120              	.LVL129:
 1121              		.loc 1 329 21 view .LVU372
 1122 0010 0844     		add	r0, r0, r1
 1123 0012 054B     		ldr	r3, .L74
 1124 0014 33F81000 		ldrh	r0, [r3, r0, lsl #1]
 330:Drivers/lvgl/src/misc/lv_color.c **** }
 1125              		.loc 1 330 1 view .LVU373
 1126 0018 7047     		bx	lr
 1127              	.LVL130:
 1128              	.L72:
 318:Drivers/lvgl/src/misc/lv_color.c ****         return lv_color_black();
 1129              		.loc 1 318 9 is_stmt 1 view .LVU374
 318:Drivers/lvgl/src/misc/lv_color.c ****         return lv_color_black();
 1130              		.loc 1 318 9 view .LVU375
 318:Drivers/lvgl/src/misc/lv_color.c ****         return lv_color_black();
 1131              		.loc 1 318 9 view .LVU376
 319:Drivers/lvgl/src/misc/lv_color.c ****     }
 1132              		.loc 1 319 9 view .LVU377
 1133              	.LBB69:
 1134              	.LBI69:
 700:Drivers/lvgl/src/misc/lv_color.h **** {
 1135              		.loc 2 700 26 view .LVU378
 1136              		.loc 2 702 5 view .LVU379
 1137              	.LBB70:
 1138              	.LBI70:
 595:Drivers/lvgl/src/misc/lv_color.h **** {
 1139              		.loc 2 595 26 view .LVU380
 1140              	.LBB71:
 597:Drivers/lvgl/src/misc/lv_color.h **** }
 1141              		.loc 2 597 5 view .LVU381
ARM GAS  /var/folders/0z/tsy30v1j4xl4_7kw94k978ww0000gn/T//cc5Q5bUm.s 			page 42


 597:Drivers/lvgl/src/misc/lv_color.h **** }
 1142              		.loc 2 597 5 is_stmt 0 view .LVU382
 1143 001a 4FF00000 		mov	r0, #0	@ movhi
 1144              	.LVL131:
 597:Drivers/lvgl/src/misc/lv_color.h **** }
 1145              		.loc 2 597 5 view .LVU383
 1146              	.LBE71:
 1147              	.LBE70:
 1148              	.LBE69:
 319:Drivers/lvgl/src/misc/lv_color.c ****     }
 1149              		.loc 1 319 16 view .LVU384
 1150 001e 7047     		bx	lr
 1151              	.LVL132:
 1152              	.L73:
 323:Drivers/lvgl/src/misc/lv_color.c ****         return lv_color_black();
 1153              		.loc 1 323 9 is_stmt 1 view .LVU385
 323:Drivers/lvgl/src/misc/lv_color.c ****         return lv_color_black();
 1154              		.loc 1 323 9 view .LVU386
 323:Drivers/lvgl/src/misc/lv_color.c ****         return lv_color_black();
 1155              		.loc 1 323 9 view .LVU387
 324:Drivers/lvgl/src/misc/lv_color.c ****     }
 1156              		.loc 1 324 9 view .LVU388
 1157              	.LBB72:
 1158              	.LBI72:
 700:Drivers/lvgl/src/misc/lv_color.h **** {
 1159              		.loc 2 700 26 view .LVU389
 1160              		.loc 2 702 5 view .LVU390
 1161              	.LBB73:
 1162              	.LBI73:
 595:Drivers/lvgl/src/misc/lv_color.h **** {
 1163              		.loc 2 595 26 view .LVU391
 1164              	.LBB74:
 597:Drivers/lvgl/src/misc/lv_color.h **** }
 1165              		.loc 2 597 5 view .LVU392
 597:Drivers/lvgl/src/misc/lv_color.h **** }
 1166              		.loc 2 597 5 is_stmt 0 view .LVU393
 1167 0020 4FF00000 		mov	r0, #0	@ movhi
 1168              	.LVL133:
 597:Drivers/lvgl/src/misc/lv_color.h **** }
 1169              		.loc 2 597 5 view .LVU394
 1170              	.LBE74:
 1171              	.LBE73:
 1172              	.LBE72:
 324:Drivers/lvgl/src/misc/lv_color.c ****     }
 1173              		.loc 1 324 16 view .LVU395
 1174 0024 7047     		bx	lr
 1175              	.L75:
 1176 0026 00BF     		.align	2
 1177              	.L74:
 1178 0028 00000000 		.word	.LANCHOR1
 1179              		.cfi_endproc
 1180              	.LFE26:
 1182              		.section	.text.lv_palette_darken,"ax",%progbits
 1183              		.align	1
 1184              		.global	lv_palette_darken
 1185              		.syntax unified
 1186              		.thumb
ARM GAS  /var/folders/0z/tsy30v1j4xl4_7kw94k978ww0000gn/T//cc5Q5bUm.s 			page 43


 1187              		.thumb_func
 1189              	lv_palette_darken:
 1190              	.LVL134:
 1191              	.LFB27:
 331:Drivers/lvgl/src/misc/lv_color.c **** 
 332:Drivers/lvgl/src/misc/lv_color.c **** lv_color_t lv_palette_darken(lv_palette_t p, uint8_t lvl)
 333:Drivers/lvgl/src/misc/lv_color.c **** {
 1192              		.loc 1 333 1 is_stmt 1 view -0
 1193              		.cfi_startproc
 1194              		@ args = 0, pretend = 0, frame = 0
 1195              		@ frame_needed = 0, uses_anonymous_args = 0
 1196              		@ link register save eliminated.
 334:Drivers/lvgl/src/misc/lv_color.c ****     static const lv_color_t colors[][4] = {
 1197              		.loc 1 334 5 view .LVU397
 335:Drivers/lvgl/src/misc/lv_color.c ****         {LV_COLOR_MAKE(0xE5, 0x39, 0x35), LV_COLOR_MAKE(0xD3, 0x2F, 0x2F), LV_COLOR_MAKE(0xC6, 0x28
 336:Drivers/lvgl/src/misc/lv_color.c ****         {LV_COLOR_MAKE(0xD8, 0x1B, 0x60), LV_COLOR_MAKE(0xC2, 0x18, 0x5B), LV_COLOR_MAKE(0xAD, 0x14
 337:Drivers/lvgl/src/misc/lv_color.c ****         {LV_COLOR_MAKE(0x8E, 0x24, 0xAA), LV_COLOR_MAKE(0x7B, 0x1F, 0xA2), LV_COLOR_MAKE(0x6A, 0x1B
 338:Drivers/lvgl/src/misc/lv_color.c ****         {LV_COLOR_MAKE(0x5E, 0x35, 0xB1), LV_COLOR_MAKE(0x51, 0x2D, 0xA8), LV_COLOR_MAKE(0x45, 0x27
 339:Drivers/lvgl/src/misc/lv_color.c ****         {LV_COLOR_MAKE(0x39, 0x49, 0xAB), LV_COLOR_MAKE(0x30, 0x3F, 0x9F), LV_COLOR_MAKE(0x28, 0x35
 340:Drivers/lvgl/src/misc/lv_color.c ****         {LV_COLOR_MAKE(0x1E, 0x88, 0xE5), LV_COLOR_MAKE(0x19, 0x76, 0xD2), LV_COLOR_MAKE(0x15, 0x65
 341:Drivers/lvgl/src/misc/lv_color.c ****         {LV_COLOR_MAKE(0x03, 0x9B, 0xE5), LV_COLOR_MAKE(0x02, 0x88, 0xD1), LV_COLOR_MAKE(0x02, 0x77
 342:Drivers/lvgl/src/misc/lv_color.c ****         {LV_COLOR_MAKE(0x00, 0xAC, 0xC1), LV_COLOR_MAKE(0x00, 0x97, 0xA7), LV_COLOR_MAKE(0x00, 0x83
 343:Drivers/lvgl/src/misc/lv_color.c ****         {LV_COLOR_MAKE(0x00, 0x89, 0x7B), LV_COLOR_MAKE(0x00, 0x79, 0x6B), LV_COLOR_MAKE(0x00, 0x69
 344:Drivers/lvgl/src/misc/lv_color.c ****         {LV_COLOR_MAKE(0x43, 0xA0, 0x47), LV_COLOR_MAKE(0x38, 0x8E, 0x3C), LV_COLOR_MAKE(0x2E, 0x7D
 345:Drivers/lvgl/src/misc/lv_color.c ****         {LV_COLOR_MAKE(0x7C, 0xB3, 0x42), LV_COLOR_MAKE(0x68, 0x9F, 0x38), LV_COLOR_MAKE(0x55, 0x8B
 346:Drivers/lvgl/src/misc/lv_color.c ****         {LV_COLOR_MAKE(0xC0, 0xCA, 0x33), LV_COLOR_MAKE(0xAF, 0xB4, 0x2B), LV_COLOR_MAKE(0x9E, 0x9D
 347:Drivers/lvgl/src/misc/lv_color.c ****         {LV_COLOR_MAKE(0xFD, 0xD8, 0x35), LV_COLOR_MAKE(0xFB, 0xC0, 0x2D), LV_COLOR_MAKE(0xF9, 0xA8
 348:Drivers/lvgl/src/misc/lv_color.c ****         {LV_COLOR_MAKE(0xFF, 0xB3, 0x00), LV_COLOR_MAKE(0xFF, 0xA0, 0x00), LV_COLOR_MAKE(0xFF, 0x8F
 349:Drivers/lvgl/src/misc/lv_color.c ****         {LV_COLOR_MAKE(0xFB, 0x8C, 0x00), LV_COLOR_MAKE(0xF5, 0x7C, 0x00), LV_COLOR_MAKE(0xEF, 0x6C
 350:Drivers/lvgl/src/misc/lv_color.c ****         {LV_COLOR_MAKE(0xF4, 0x51, 0x1E), LV_COLOR_MAKE(0xE6, 0x4A, 0x19), LV_COLOR_MAKE(0xD8, 0x43
 351:Drivers/lvgl/src/misc/lv_color.c ****         {LV_COLOR_MAKE(0x6D, 0x4C, 0x41), LV_COLOR_MAKE(0x5D, 0x40, 0x37), LV_COLOR_MAKE(0x4E, 0x34
 352:Drivers/lvgl/src/misc/lv_color.c ****         {LV_COLOR_MAKE(0x54, 0x6E, 0x7A), LV_COLOR_MAKE(0x45, 0x5A, 0x64), LV_COLOR_MAKE(0x37, 0x47
 353:Drivers/lvgl/src/misc/lv_color.c ****         {LV_COLOR_MAKE(0x75, 0x75, 0x75), LV_COLOR_MAKE(0x61, 0x61, 0x61), LV_COLOR_MAKE(0x42, 0x42
 354:Drivers/lvgl/src/misc/lv_color.c ****     };
 355:Drivers/lvgl/src/misc/lv_color.c **** 
 356:Drivers/lvgl/src/misc/lv_color.c ****     if(p >= _LV_PALETTE_LAST) {
 1198              		.loc 1 356 5 view .LVU398
 1199              		.loc 1 356 7 is_stmt 0 view .LVU399
 1200 0000 1228     		cmp	r0, #18
 1201 0002 09D8     		bhi	.L80
 357:Drivers/lvgl/src/misc/lv_color.c ****         LV_LOG_WARN("Invalid palette: %d", p);
 358:Drivers/lvgl/src/misc/lv_color.c ****         return lv_color_black();
 359:Drivers/lvgl/src/misc/lv_color.c ****     }
 360:Drivers/lvgl/src/misc/lv_color.c **** 
 361:Drivers/lvgl/src/misc/lv_color.c ****     if(lvl == 0 || lvl > 4) {
 1202              		.loc 1 361 5 is_stmt 1 view .LVU400
 1203              		.loc 1 361 17 is_stmt 0 view .LVU401
 1204 0004 0139     		subs	r1, r1, #1
 1205              	.LVL135:
 1206              		.loc 1 361 17 view .LVU402
 1207 0006 C9B2     		uxtb	r1, r1
 1208              		.loc 1 361 7 view .LVU403
 1209 0008 0329     		cmp	r1, #3
 1210 000a 08D8     		bhi	.L81
 362:Drivers/lvgl/src/misc/lv_color.c ****         LV_LOG_WARN("Invalid level: %d. Must be 1..4", lvl);
 363:Drivers/lvgl/src/misc/lv_color.c ****         return lv_color_black();
 364:Drivers/lvgl/src/misc/lv_color.c ****     }
ARM GAS  /var/folders/0z/tsy30v1j4xl4_7kw94k978ww0000gn/T//cc5Q5bUm.s 			page 44


 365:Drivers/lvgl/src/misc/lv_color.c **** 
 366:Drivers/lvgl/src/misc/lv_color.c ****     lvl--;
 1211              		.loc 1 366 5 is_stmt 1 view .LVU404
 1212              	.LVL136:
 367:Drivers/lvgl/src/misc/lv_color.c **** 
 368:Drivers/lvgl/src/misc/lv_color.c ****     return colors[p][lvl];
 1213              		.loc 1 368 5 view .LVU405
 1214              		.loc 1 368 21 is_stmt 0 view .LVU406
 1215 000c 01EB8000 		add	r0, r1, r0, lsl #2
 1216              	.LVL137:
 1217              		.loc 1 368 21 view .LVU407
 1218 0010 044B     		ldr	r3, .L82
 1219 0012 33F81000 		ldrh	r0, [r3, r0, lsl #1]
 369:Drivers/lvgl/src/misc/lv_color.c **** }
 1220              		.loc 1 369 1 view .LVU408
 1221 0016 7047     		bx	lr
 1222              	.LVL138:
 1223              	.L80:
 357:Drivers/lvgl/src/misc/lv_color.c ****         return lv_color_black();
 1224              		.loc 1 357 9 is_stmt 1 view .LVU409
 357:Drivers/lvgl/src/misc/lv_color.c ****         return lv_color_black();
 1225              		.loc 1 357 9 view .LVU410
 357:Drivers/lvgl/src/misc/lv_color.c ****         return lv_color_black();
 1226              		.loc 1 357 9 view .LVU411
 358:Drivers/lvgl/src/misc/lv_color.c ****     }
 1227              		.loc 1 358 9 view .LVU412
 1228              	.LBB75:
 1229              	.LBI75:
 700:Drivers/lvgl/src/misc/lv_color.h **** {
 1230              		.loc 2 700 26 view .LVU413
 1231              		.loc 2 702 5 view .LVU414
 1232              	.LBB76:
 1233              	.LBI76:
 595:Drivers/lvgl/src/misc/lv_color.h **** {
 1234              		.loc 2 595 26 view .LVU415
 1235              	.LBB77:
 597:Drivers/lvgl/src/misc/lv_color.h **** }
 1236              		.loc 2 597 5 view .LVU416
 597:Drivers/lvgl/src/misc/lv_color.h **** }
 1237              		.loc 2 597 5 is_stmt 0 view .LVU417
 1238 0018 4FF00000 		mov	r0, #0	@ movhi
 1239              	.LVL139:
 597:Drivers/lvgl/src/misc/lv_color.h **** }
 1240              		.loc 2 597 5 view .LVU418
 1241              	.LBE77:
 1242              	.LBE76:
 1243              	.LBE75:
 358:Drivers/lvgl/src/misc/lv_color.c ****     }
 1244              		.loc 1 358 16 view .LVU419
 1245 001c 7047     		bx	lr
 1246              	.LVL140:
 1247              	.L81:
 362:Drivers/lvgl/src/misc/lv_color.c ****         return lv_color_black();
 1248              		.loc 1 362 9 is_stmt 1 view .LVU420
 362:Drivers/lvgl/src/misc/lv_color.c ****         return lv_color_black();
 1249              		.loc 1 362 9 view .LVU421
 362:Drivers/lvgl/src/misc/lv_color.c ****         return lv_color_black();
ARM GAS  /var/folders/0z/tsy30v1j4xl4_7kw94k978ww0000gn/T//cc5Q5bUm.s 			page 45


 1250              		.loc 1 362 9 view .LVU422
 363:Drivers/lvgl/src/misc/lv_color.c ****     }
 1251              		.loc 1 363 9 view .LVU423
 1252              	.LBB78:
 1253              	.LBI78:
 700:Drivers/lvgl/src/misc/lv_color.h **** {
 1254              		.loc 2 700 26 view .LVU424
 1255              		.loc 2 702 5 view .LVU425
 1256              	.LBB79:
 1257              	.LBI79:
 595:Drivers/lvgl/src/misc/lv_color.h **** {
 1258              		.loc 2 595 26 view .LVU426
 1259              	.LBB80:
 597:Drivers/lvgl/src/misc/lv_color.h **** }
 1260              		.loc 2 597 5 view .LVU427
 597:Drivers/lvgl/src/misc/lv_color.h **** }
 1261              		.loc 2 597 5 is_stmt 0 view .LVU428
 1262 001e 4FF00000 		mov	r0, #0	@ movhi
 1263              	.LVL141:
 597:Drivers/lvgl/src/misc/lv_color.h **** }
 1264              		.loc 2 597 5 view .LVU429
 1265              	.LBE80:
 1266              	.LBE79:
 1267              	.LBE78:
 363:Drivers/lvgl/src/misc/lv_color.c ****     }
 1268              		.loc 1 363 16 view .LVU430
 1269 0022 7047     		bx	lr
 1270              	.L83:
 1271              		.align	2
 1272              	.L82:
 1273 0024 00000000 		.word	.LANCHOR2
 1274              		.cfi_endproc
 1275              	.LFE27:
 1277              		.section	.rodata.colors.0,"a"
 1278              		.align	2
 1279              		.set	.LANCHOR2,. + 0
 1282              	colors.0:
 1283 0000 E1       		.byte	225
 1284 0001 C6       		.byte	198
 1285 0002 D1       		.byte	209
 1286 0003 65       		.byte	101
 1287 0004 C1       		.byte	193
 1288 0005 45       		.byte	69
 1289 0006 B0       		.byte	176
 1290 0007 E3       		.byte	227
 1291 0008 D8       		.byte	216
 1292 0009 CC       		.byte	204
 1293 000a C0       		.byte	192
 1294 000b CB       		.byte	203
 1295 000c A8       		.byte	168
 1296 000d AA       		.byte	170
 1297 000e 88       		.byte	136
 1298 000f 69       		.byte	105
 1299 0010 89       		.byte	137
 1300 0011 35       		.byte	53
 1301 0012 78       		.byte	120
 1302 0013 F4       		.byte	244
ARM GAS  /var/folders/0z/tsy30v1j4xl4_7kw94k978ww0000gn/T//cc5Q5bUm.s 			page 46


 1303 0014 68       		.byte	104
 1304 0015 D3       		.byte	211
 1305 0016 48       		.byte	72
 1306 0017 B1       		.byte	177
 1307 0018 59       		.byte	89
 1308 0019 B6       		.byte	182
 1309 001a 51       		.byte	81
 1310 001b 75       		.byte	117
 1311 001c 41       		.byte	65
 1312 001d 34       		.byte	52
 1313 001e 30       		.byte	48
 1314 001f D2       		.byte	210
 1315 0020 3A       		.byte	58
 1316 0021 55       		.byte	85
 1317 0022 31       		.byte	49
 1318 0023 F3       		.byte	243
 1319 0024 29       		.byte	41
 1320 0025 B2       		.byte	178
 1321 0026 19       		.byte	25
 1322 0027 0F       		.byte	15
 1323 0028 1C       		.byte	28
 1324 0029 5C       		.byte	92
 1325 002a 1B       		.byte	27
 1326 002b BA       		.byte	186
 1327 002c 13       		.byte	19
 1328 002d 38       		.byte	56
 1329 002e 0A       		.byte	10
 1330 002f 34       		.byte	52
 1331 0030 04       		.byte	4
 1332 0031 DC       		.byte	220
 1333 0032 04       		.byte	4
 1334 0033 5A       		.byte	90
 1335 0034 03       		.byte	3
 1336 0035 B7       		.byte	183
 1337 0036 02       		.byte	2
 1338 0037 B3       		.byte	179
 1339 0038 05       		.byte	5
 1340 0039 78       		.byte	120
 1341 003a 04       		.byte	4
 1342 003b B4       		.byte	180
 1343 003c 04       		.byte	4
 1344 003d 11       		.byte	17
 1345 003e 03       		.byte	3
 1346 003f 0C       		.byte	12
 1347 0040 04       		.byte	4
 1348 0041 4F       		.byte	79
 1349 0042 03       		.byte	3
 1350 0043 CD       		.byte	205
 1351 0044 03       		.byte	3
 1352 0045 4B       		.byte	75
 1353 0046 02       		.byte	2
 1354 0047 68       		.byte	104
 1355 0048 45       		.byte	69
 1356 0049 08       		.byte	8
 1357 004a 3C       		.byte	60
 1358 004b 67       		.byte	103
 1359 004c 2B       		.byte	43
ARM GAS  /var/folders/0z/tsy30v1j4xl4_7kw94k978ww0000gn/T//cc5Q5bUm.s 			page 47


 1360 004d E6       		.byte	230
 1361 004e 1A       		.byte	26
 1362 004f E4       		.byte	228
 1363 0050 7D       		.byte	125
 1364 0051 88       		.byte	136
 1365 0052 6C       		.byte	108
 1366 0053 E7       		.byte	231
 1367 0054 54       		.byte	84
 1368 0055 45       		.byte	69
 1369 0056 33       		.byte	51
 1370 0057 43       		.byte	67
 1371 0058 C6       		.byte	198
 1372 0059 46       		.byte	70
 1373 005a AD       		.byte	173
 1374 005b A5       		.byte	165
 1375 005c 9C       		.byte	156
 1376 005d E4       		.byte	228
 1377 005e 83       		.byte	131
 1378 005f A2       		.byte	162
 1379 0060 FE       		.byte	254
 1380 0061 C6       		.byte	198
 1381 0062 FE       		.byte	254
 1382 0063 05       		.byte	5
 1383 0064 FD       		.byte	253
 1384 0065 44       		.byte	68
 1385 0066 F3       		.byte	243
 1386 0067 E2       		.byte	226
 1387 0068 FD       		.byte	253
 1388 0069 80       		.byte	128
 1389 006a FD       		.byte	253
 1390 006b 00       		.byte	0
 1391 006c FC       		.byte	252
 1392 006d 60       		.byte	96
 1393 006e FB       		.byte	251
 1394 006f 60       		.byte	96
 1395 0070 FC       		.byte	252
 1396 0071 60       		.byte	96
 1397 0072 F3       		.byte	243
 1398 0073 E0       		.byte	224
 1399 0074 EB       		.byte	235
 1400 0075 60       		.byte	96
 1401 0076 E2       		.byte	226
 1402 0077 80       		.byte	128
 1403 0078 F2       		.byte	242
 1404 0079 83       		.byte	131
 1405 007a E2       		.byte	226
 1406 007b 43       		.byte	67
 1407 007c DA       		.byte	218
 1408 007d 02       		.byte	2
 1409 007e B9       		.byte	185
 1410 007f A1       		.byte	161
 1411 0080 6A       		.byte	106
 1412 0081 68       		.byte	104
 1413 0082 5A       		.byte	90
 1414 0083 06       		.byte	6
 1415 0084 49       		.byte	73
 1416 0085 A5       		.byte	165
ARM GAS  /var/folders/0z/tsy30v1j4xl4_7kw94k978ww0000gn/T//cc5Q5bUm.s 			page 48


 1417 0086 39       		.byte	57
 1418 0087 24       		.byte	36
 1419 0088 53       		.byte	83
 1420 0089 6F       		.byte	111
 1421 008a 42       		.byte	66
 1422 008b CC       		.byte	204
 1423 008c 32       		.byte	50
 1424 008d 29       		.byte	41
 1425 008e 21       		.byte	33
 1426 008f 87       		.byte	135
 1427 0090 73       		.byte	115
 1428 0091 AE       		.byte	174
 1429 0092 63       		.byte	99
 1430 0093 0C       		.byte	12
 1431 0094 42       		.byte	66
 1432 0095 08       		.byte	8
 1433 0096 21       		.byte	33
 1434 0097 04       		.byte	4
 1435              		.section	.rodata.colors.1,"a"
 1436              		.align	2
 1437              		.set	.LANCHOR1,. + 0
 1440              	colors.1:
 1441 0000 EA       		.byte	234
 1442 0001 8A       		.byte	138
 1443 0002 E3       		.byte	227
 1444 0003 8E       		.byte	142
 1445 0004 EC       		.byte	236
 1446 0005 D3       		.byte	211
 1447 0006 FE       		.byte	254
 1448 0007 7A       		.byte	122
 1449 0008 FF       		.byte	255
 1450 0009 5D       		.byte	93
 1451 000a EA       		.byte	234
 1452 000b 0F       		.byte	15
 1453 000c F3       		.byte	243
 1454 000d 12       		.byte	18
 1455 000e F4       		.byte	244
 1456 000f 76       		.byte	118
 1457 0010 FD       		.byte	253
 1458 0011 DA       		.byte	218
 1459 0012 FF       		.byte	255
 1460 0013 3D       		.byte	61
 1461 0014 AA       		.byte	170
 1462 0015 37       		.byte	55
 1463 0016 BB       		.byte	187
 1464 0017 59       		.byte	89
 1465 0018 CC       		.byte	204
 1466 0019 9B       		.byte	155
 1467 001a E5       		.byte	229
 1468 001b FC       		.byte	252
 1469 001c F7       		.byte	247
 1470 001d 3E       		.byte	62
 1471 001e 7A       		.byte	122
 1472 001f B8       		.byte	184
 1473 0020 93       		.byte	147
 1474 0021 B9       		.byte	185
 1475 0022 B4       		.byte	180
ARM GAS  /var/folders/0z/tsy30v1j4xl4_7kw94k978ww0000gn/T//cc5Q5bUm.s 			page 49


 1476 0023 FB       		.byte	251
 1477 0024 D6       		.byte	214
 1478 0025 3D       		.byte	61
 1479 0026 EF       		.byte	239
 1480 0027 3E       		.byte	62
 1481 0028 5B       		.byte	91
 1482 0029 58       		.byte	88
 1483 002a 7C       		.byte	124
 1484 002b 39       		.byte	57
 1485 002c 9D       		.byte	157
 1486 002d 5B       		.byte	91
 1487 002e C6       		.byte	198
 1488 002f 5D       		.byte	93
 1489 0030 EF       		.byte	239
 1490 0031 5E       		.byte	94
 1491 0032 45       		.byte	69
 1492 0033 3E       		.byte	62
 1493 0034 65       		.byte	101
 1494 0035 BE       		.byte	190
 1495 0036 96       		.byte	150
 1496 0037 5F       		.byte	95
 1497 0038 BE       		.byte	190
 1498 0039 FF       		.byte	255
 1499 003a E7       		.byte	231
 1500 003b 9F       		.byte	159
 1501 003c 2D       		.byte	45
 1502 003d BE       		.byte	190
 1503 003e 4E       		.byte	78
 1504 003f 1E       		.byte	30
 1505 0040 86       		.byte	134
 1506 0041 BF       		.byte	191
 1507 0042 B7       		.byte	183
 1508 0043 3F       		.byte	63
 1509 0044 E7       		.byte	231
 1510 0045 BF       		.byte	191
 1511 0046 26       		.byte	38
 1512 0047 3B       		.byte	59
 1513 0048 4E       		.byte	78
 1514 0049 9C       		.byte	156
 1515 004a 86       		.byte	134
 1516 004b FD       		.byte	253
 1517 004c B7       		.byte	183
 1518 004d 5E       		.byte	94
 1519 004e E7       		.byte	231
 1520 004f BF       		.byte	191
 1521 0050 25       		.byte	37
 1522 0051 33       		.byte	51
 1523 0052 4D       		.byte	77
 1524 0053 B5       		.byte	181
 1525 0054 86       		.byte	134
 1526 0055 58       		.byte	88
 1527 0056 B6       		.byte	182
 1528 0057 FB       		.byte	251
 1529 0058 E7       		.byte	231
 1530 0059 9E       		.byte	158
 1531 005a 65       		.byte	101
 1532 005b CD       		.byte	205
ARM GAS  /var/folders/0z/tsy30v1j4xl4_7kw94k978ww0000gn/T//cc5Q5bUm.s 			page 50


 1533 005c 86       		.byte	134
 1534 005d 30       		.byte	48
 1535 005e A6       		.byte	166
 1536 005f B4       		.byte	180
 1537 0060 CF       		.byte	207
 1538 0061 39       		.byte	57
 1539 0062 EF       		.byte	239
 1540 0063 BD       		.byte	189
 1541 0064 9E       		.byte	158
 1542 0065 6C       		.byte	108
 1543 0066 AE       		.byte	174
 1544 0067 B0       		.byte	176
 1545 0068 C7       		.byte	199
 1546 0069 14       		.byte	20
 1547 006a DF       		.byte	223
 1548 006b 79       		.byte	121
 1549 006c F7       		.byte	247
 1550 006d DD       		.byte	221
 1551 006e D7       		.byte	215
 1552 006f 0A       		.byte	10
 1553 0070 DF       		.byte	223
 1554 0071 2E       		.byte	46
 1555 0072 E7       		.byte	231
 1556 0073 73       		.byte	115
 1557 0074 F7       		.byte	247
 1558 0075 B8       		.byte	184
 1559 0076 FF       		.byte	255
 1560 0077 DC       		.byte	220
 1561 0078 FF       		.byte	255
 1562 0079 6B       		.byte	107
 1563 007a FF       		.byte	255
 1564 007b 8E       		.byte	142
 1565 007c FF       		.byte	255
 1566 007d B3       		.byte	179
 1567 007e FF       		.byte	255
 1568 007f D8       		.byte	216
 1569 0080 FF       		.byte	255
 1570 0081 FC       		.byte	252
 1571 0082 FE       		.byte	254
 1572 0083 45       		.byte	69
 1573 0084 FE       		.byte	254
 1574 0085 A9       		.byte	169
 1575 0086 FF       		.byte	255
 1576 0087 10       		.byte	16
 1577 0088 FF       		.byte	255
 1578 0089 76       		.byte	118
 1579 008a FF       		.byte	255
 1580 008b DC       		.byte	220
 1581 008c FD       		.byte	253
 1582 008d 24       		.byte	36
 1583 008e FD       		.byte	253
 1584 008f A9       		.byte	169
 1585 0090 FE       		.byte	254
 1586 0091 70       		.byte	112
 1587 0092 FF       		.byte	255
 1588 0093 16       		.byte	22
 1589 0094 FF       		.byte	255
ARM GAS  /var/folders/0z/tsy30v1j4xl4_7kw94k978ww0000gn/T//cc5Q5bUm.s 			page 51


 1590 0095 9C       		.byte	156
 1591 0096 FB       		.byte	251
 1592 0097 88       		.byte	136
 1593 0098 FC       		.byte	252
 1594 0099 4C       		.byte	76
 1595 009a FD       		.byte	253
 1596 009b 52       		.byte	82
 1597 009c FE       		.byte	254
 1598 009d 77       		.byte	119
 1599 009e FF       		.byte	255
 1600 009f 5C       		.byte	92
 1601 00a0 8B       		.byte	139
 1602 00a1 6C       		.byte	108
 1603 00a2 A4       		.byte	164
 1604 00a3 4F       		.byte	79
 1605 00a4 BD       		.byte	189
 1606 00a5 54       		.byte	84
 1607 00a6 D6       		.byte	214
 1608 00a7 79       		.byte	121
 1609 00a8 EF       		.byte	239
 1610 00a9 5D       		.byte	93
 1611 00aa 7C       		.byte	124
 1612 00ab 93       		.byte	147
 1613 00ac 95       		.byte	149
 1614 00ad 35       		.byte	53
 1615 00ae B5       		.byte	181
 1616 00af F8       		.byte	248
 1617 00b0 CE       		.byte	206
 1618 00b1 DB       		.byte	219
 1619 00b2 EF       		.byte	239
 1620 00b3 7E       		.byte	126
 1621 00b4 BD       		.byte	189
 1622 00b5 F7       		.byte	247
 1623 00b6 E7       		.byte	231
 1624 00b7 1C       		.byte	28
 1625 00b8 EF       		.byte	239
 1626 00b9 7D       		.byte	125
 1627 00ba F7       		.byte	247
 1628 00bb BE       		.byte	190
 1629 00bc FF       		.byte	255
 1630 00bd DF       		.byte	223
 1631              		.section	.rodata.colors.2,"a"
 1632              		.align	2
 1633              		.set	.LANCHOR0,. + 0
 1636              	colors.2:
 1637 0000 F2       		.byte	242
 1638 0001 06       		.byte	6
 1639 0002 E8       		.byte	232
 1640 0003 EC       		.byte	236
 1641 0004 99       		.byte	153
 1642 0005 36       		.byte	54
 1643 0006 61       		.byte	97
 1644 0007 D6       		.byte	214
 1645 0008 3A       		.byte	58
 1646 0009 96       		.byte	150
 1647 000a 24       		.byte	36
 1648 000b BE       		.byte	190
ARM GAS  /var/folders/0z/tsy30v1j4xl4_7kw94k978ww0000gn/T//cc5Q5bUm.s 			page 52


 1649 000c 05       		.byte	5
 1650 000d 5E       		.byte	94
 1651 000e 05       		.byte	5
 1652 000f FA       		.byte	250
 1653 0010 04       		.byte	4
 1654 0011 B1       		.byte	177
 1655 0012 4D       		.byte	77
 1656 0013 6A       		.byte	106
 1657 0014 8E       		.byte	142
 1658 0015 09       		.byte	9
 1659 0016 CE       		.byte	206
 1660 0017 E7       		.byte	231
 1661 0018 FF       		.byte	255
 1662 0019 47       		.byte	71
 1663 001a FE       		.byte	254
 1664 001b 00       		.byte	0
 1665 001c FC       		.byte	252
 1666 001d C0       		.byte	192
 1667 001e FA       		.byte	250
 1668 001f A4       		.byte	164
 1669 0020 7A       		.byte	122
 1670 0021 A9       		.byte	169
 1671 0022 63       		.byte	99
 1672 0023 F1       		.byte	241
 1673 0024 9C       		.byte	156
 1674 0025 F3       		.byte	243
 1675              		.text
 1676              	.Letext0:
 1677              		.file 3 "/Users/johannes/Library/Application Support/Code/User/globalStorage/bmd.stm32-for-vscode/
 1678              		.file 4 "/Users/johannes/Library/Application Support/Code/User/globalStorage/bmd.stm32-for-vscode/
ARM GAS  /var/folders/0z/tsy30v1j4xl4_7kw94k978ww0000gn/T//cc5Q5bUm.s 			page 53

