ARM GAS  /var/folders/0z/tsy30v1j4xl4_7kw94k978ww0000gn/T//ccGFsGJU.s 			page 1


   1              		.cpu cortex-m4
   2              		.arch armv7e-m
   3              		.fpu fpv4-sp-d16
   4              		.eabi_attribute 27, 1
   5              		.eabi_attribute 28, 1
   6              		.eabi_attribute 20, 1
   7              		.eabi_attribute 21, 1
   8              		.eabi_attribute 23, 3
   9              		.eabi_attribute 24, 1
  10              		.eabi_attribute 25, 1
  11              		.eabi_attribute 26, 1
  12              		.eabi_attribute 30, 1
  13              		.eabi_attribute 34, 1
  14              		.eabi_attribute 18, 4
  15              		.file	"lv_calendar.c"
  16              		.text
  17              	.Ltext0:
  18              		.cfi_sections	.debug_frame
  19              		.section	.text.is_leap_year,"ax",%progbits
  20              		.align	1
  21              		.syntax unified
  22              		.thumb
  23              		.thumb_func
  25              	is_leap_year:
  26              	.LVL0:
  27              	.LFB218:
  28              		.file 1 "Drivers/lvgl/src/extra/widgets/calendar/lv_calendar.c"
   1:Drivers/lvgl/src/extra/widgets/calendar/lv_calendar.c **** /**
   2:Drivers/lvgl/src/extra/widgets/calendar/lv_calendar.c ****  * @file lv_calendar.c
   3:Drivers/lvgl/src/extra/widgets/calendar/lv_calendar.c ****  *
   4:Drivers/lvgl/src/extra/widgets/calendar/lv_calendar.c ****  */
   5:Drivers/lvgl/src/extra/widgets/calendar/lv_calendar.c **** 
   6:Drivers/lvgl/src/extra/widgets/calendar/lv_calendar.c **** /*********************
   7:Drivers/lvgl/src/extra/widgets/calendar/lv_calendar.c ****  *      INCLUDES
   8:Drivers/lvgl/src/extra/widgets/calendar/lv_calendar.c ****  *********************/
   9:Drivers/lvgl/src/extra/widgets/calendar/lv_calendar.c **** #include "lv_calendar.h"
  10:Drivers/lvgl/src/extra/widgets/calendar/lv_calendar.c **** #include "../../../lvgl.h"
  11:Drivers/lvgl/src/extra/widgets/calendar/lv_calendar.c **** #if LV_USE_CALENDAR
  12:Drivers/lvgl/src/extra/widgets/calendar/lv_calendar.c **** 
  13:Drivers/lvgl/src/extra/widgets/calendar/lv_calendar.c **** #include "../../../misc/lv_assert.h"
  14:Drivers/lvgl/src/extra/widgets/calendar/lv_calendar.c **** 
  15:Drivers/lvgl/src/extra/widgets/calendar/lv_calendar.c **** /*********************
  16:Drivers/lvgl/src/extra/widgets/calendar/lv_calendar.c ****  *      DEFINES
  17:Drivers/lvgl/src/extra/widgets/calendar/lv_calendar.c ****  *********************/
  18:Drivers/lvgl/src/extra/widgets/calendar/lv_calendar.c **** #define LV_CALENDAR_CTRL_TODAY      LV_BTNMATRIX_CTRL_CUSTOM_1
  19:Drivers/lvgl/src/extra/widgets/calendar/lv_calendar.c **** #define LV_CALENDAR_CTRL_HIGHLIGHT  LV_BTNMATRIX_CTRL_CUSTOM_2
  20:Drivers/lvgl/src/extra/widgets/calendar/lv_calendar.c **** 
  21:Drivers/lvgl/src/extra/widgets/calendar/lv_calendar.c **** #define MY_CLASS &lv_calendar_class
  22:Drivers/lvgl/src/extra/widgets/calendar/lv_calendar.c **** 
  23:Drivers/lvgl/src/extra/widgets/calendar/lv_calendar.c **** /**********************
  24:Drivers/lvgl/src/extra/widgets/calendar/lv_calendar.c ****  *      TYPEDEFS
  25:Drivers/lvgl/src/extra/widgets/calendar/lv_calendar.c ****  **********************/
  26:Drivers/lvgl/src/extra/widgets/calendar/lv_calendar.c **** 
  27:Drivers/lvgl/src/extra/widgets/calendar/lv_calendar.c **** /**********************
  28:Drivers/lvgl/src/extra/widgets/calendar/lv_calendar.c ****  *  STATIC PROTOTYPES
  29:Drivers/lvgl/src/extra/widgets/calendar/lv_calendar.c ****  **********************/
  30:Drivers/lvgl/src/extra/widgets/calendar/lv_calendar.c **** static void lv_calendar_constructor(const lv_obj_class_t * class_p, lv_obj_t * obj);
ARM GAS  /var/folders/0z/tsy30v1j4xl4_7kw94k978ww0000gn/T//ccGFsGJU.s 			page 2


  31:Drivers/lvgl/src/extra/widgets/calendar/lv_calendar.c **** static void draw_part_begin_event_cb(lv_event_t * e);
  32:Drivers/lvgl/src/extra/widgets/calendar/lv_calendar.c **** 
  33:Drivers/lvgl/src/extra/widgets/calendar/lv_calendar.c **** static uint8_t get_day_of_week(uint32_t year, uint32_t month, uint32_t day);
  34:Drivers/lvgl/src/extra/widgets/calendar/lv_calendar.c **** static uint8_t get_month_length(int32_t year, int32_t month);
  35:Drivers/lvgl/src/extra/widgets/calendar/lv_calendar.c **** static uint8_t is_leap_year(uint32_t year);
  36:Drivers/lvgl/src/extra/widgets/calendar/lv_calendar.c **** static void highlight_update(lv_obj_t * calendar);
  37:Drivers/lvgl/src/extra/widgets/calendar/lv_calendar.c **** 
  38:Drivers/lvgl/src/extra/widgets/calendar/lv_calendar.c **** /**********************
  39:Drivers/lvgl/src/extra/widgets/calendar/lv_calendar.c ****  *  STATIC VARIABLES
  40:Drivers/lvgl/src/extra/widgets/calendar/lv_calendar.c ****  **********************/
  41:Drivers/lvgl/src/extra/widgets/calendar/lv_calendar.c **** const lv_obj_class_t lv_calendar_class = {
  42:Drivers/lvgl/src/extra/widgets/calendar/lv_calendar.c ****     .constructor_cb = lv_calendar_constructor,
  43:Drivers/lvgl/src/extra/widgets/calendar/lv_calendar.c ****     .width_def = (LV_DPI_DEF * 3) / 2,
  44:Drivers/lvgl/src/extra/widgets/calendar/lv_calendar.c ****     .height_def = (LV_DPI_DEF * 3) / 2,
  45:Drivers/lvgl/src/extra/widgets/calendar/lv_calendar.c ****     .group_def = LV_OBJ_CLASS_GROUP_DEF_TRUE,
  46:Drivers/lvgl/src/extra/widgets/calendar/lv_calendar.c ****     .instance_size = sizeof(lv_calendar_t),
  47:Drivers/lvgl/src/extra/widgets/calendar/lv_calendar.c ****     .base_class = &lv_obj_class
  48:Drivers/lvgl/src/extra/widgets/calendar/lv_calendar.c **** };
  49:Drivers/lvgl/src/extra/widgets/calendar/lv_calendar.c **** 
  50:Drivers/lvgl/src/extra/widgets/calendar/lv_calendar.c **** static const char * day_names_def[7] = LV_CALENDAR_DEFAULT_DAY_NAMES;
  51:Drivers/lvgl/src/extra/widgets/calendar/lv_calendar.c **** 
  52:Drivers/lvgl/src/extra/widgets/calendar/lv_calendar.c **** /**********************
  53:Drivers/lvgl/src/extra/widgets/calendar/lv_calendar.c ****  *      MACROS
  54:Drivers/lvgl/src/extra/widgets/calendar/lv_calendar.c ****  **********************/
  55:Drivers/lvgl/src/extra/widgets/calendar/lv_calendar.c **** 
  56:Drivers/lvgl/src/extra/widgets/calendar/lv_calendar.c **** /**********************
  57:Drivers/lvgl/src/extra/widgets/calendar/lv_calendar.c ****  *   GLOBAL FUNCTIONS
  58:Drivers/lvgl/src/extra/widgets/calendar/lv_calendar.c ****  **********************/
  59:Drivers/lvgl/src/extra/widgets/calendar/lv_calendar.c **** 
  60:Drivers/lvgl/src/extra/widgets/calendar/lv_calendar.c **** lv_obj_t * lv_calendar_create(lv_obj_t * parent)
  61:Drivers/lvgl/src/extra/widgets/calendar/lv_calendar.c **** {
  62:Drivers/lvgl/src/extra/widgets/calendar/lv_calendar.c ****     LV_LOG_INFO("begin");
  63:Drivers/lvgl/src/extra/widgets/calendar/lv_calendar.c ****     lv_obj_t * obj = lv_obj_class_create_obj(&lv_calendar_class, parent);
  64:Drivers/lvgl/src/extra/widgets/calendar/lv_calendar.c ****     lv_obj_class_init_obj(obj);
  65:Drivers/lvgl/src/extra/widgets/calendar/lv_calendar.c ****     return obj;
  66:Drivers/lvgl/src/extra/widgets/calendar/lv_calendar.c **** }
  67:Drivers/lvgl/src/extra/widgets/calendar/lv_calendar.c **** 
  68:Drivers/lvgl/src/extra/widgets/calendar/lv_calendar.c **** /*=====================
  69:Drivers/lvgl/src/extra/widgets/calendar/lv_calendar.c ****  * Setter functions
  70:Drivers/lvgl/src/extra/widgets/calendar/lv_calendar.c ****  *====================*/
  71:Drivers/lvgl/src/extra/widgets/calendar/lv_calendar.c **** 
  72:Drivers/lvgl/src/extra/widgets/calendar/lv_calendar.c **** void lv_calendar_set_day_names(lv_obj_t * obj, const char * day_names[])
  73:Drivers/lvgl/src/extra/widgets/calendar/lv_calendar.c **** {
  74:Drivers/lvgl/src/extra/widgets/calendar/lv_calendar.c ****     LV_ASSERT_OBJ(obj, MY_CLASS);
  75:Drivers/lvgl/src/extra/widgets/calendar/lv_calendar.c ****     lv_calendar_t * calendar = (lv_calendar_t *)obj;
  76:Drivers/lvgl/src/extra/widgets/calendar/lv_calendar.c **** 
  77:Drivers/lvgl/src/extra/widgets/calendar/lv_calendar.c ****     uint32_t i;
  78:Drivers/lvgl/src/extra/widgets/calendar/lv_calendar.c ****     for(i = 0; i < 7; i++) {
  79:Drivers/lvgl/src/extra/widgets/calendar/lv_calendar.c ****         calendar->map[i] = day_names[i];
  80:Drivers/lvgl/src/extra/widgets/calendar/lv_calendar.c ****     }
  81:Drivers/lvgl/src/extra/widgets/calendar/lv_calendar.c ****     lv_obj_invalidate(obj);
  82:Drivers/lvgl/src/extra/widgets/calendar/lv_calendar.c **** }
  83:Drivers/lvgl/src/extra/widgets/calendar/lv_calendar.c **** 
  84:Drivers/lvgl/src/extra/widgets/calendar/lv_calendar.c **** void lv_calendar_set_today_date(lv_obj_t * obj, uint32_t year, uint32_t month, uint32_t day)
  85:Drivers/lvgl/src/extra/widgets/calendar/lv_calendar.c **** {
  86:Drivers/lvgl/src/extra/widgets/calendar/lv_calendar.c ****     LV_ASSERT_OBJ(obj, MY_CLASS);
  87:Drivers/lvgl/src/extra/widgets/calendar/lv_calendar.c ****     lv_calendar_t * calendar = (lv_calendar_t *)obj;
ARM GAS  /var/folders/0z/tsy30v1j4xl4_7kw94k978ww0000gn/T//ccGFsGJU.s 			page 3


  88:Drivers/lvgl/src/extra/widgets/calendar/lv_calendar.c **** 
  89:Drivers/lvgl/src/extra/widgets/calendar/lv_calendar.c ****     calendar->today.year         = year;
  90:Drivers/lvgl/src/extra/widgets/calendar/lv_calendar.c ****     calendar->today.month        = month;
  91:Drivers/lvgl/src/extra/widgets/calendar/lv_calendar.c ****     calendar->today.day          = day;
  92:Drivers/lvgl/src/extra/widgets/calendar/lv_calendar.c **** 
  93:Drivers/lvgl/src/extra/widgets/calendar/lv_calendar.c ****     highlight_update(obj);
  94:Drivers/lvgl/src/extra/widgets/calendar/lv_calendar.c **** }
  95:Drivers/lvgl/src/extra/widgets/calendar/lv_calendar.c **** 
  96:Drivers/lvgl/src/extra/widgets/calendar/lv_calendar.c **** void lv_calendar_set_highlighted_dates(lv_obj_t * obj, lv_calendar_date_t highlighted[], uint16_t d
  97:Drivers/lvgl/src/extra/widgets/calendar/lv_calendar.c **** {
  98:Drivers/lvgl/src/extra/widgets/calendar/lv_calendar.c ****     LV_ASSERT_NULL(highlighted);
  99:Drivers/lvgl/src/extra/widgets/calendar/lv_calendar.c **** 
 100:Drivers/lvgl/src/extra/widgets/calendar/lv_calendar.c ****     LV_ASSERT_OBJ(obj, MY_CLASS);
 101:Drivers/lvgl/src/extra/widgets/calendar/lv_calendar.c ****     lv_calendar_t * calendar = (lv_calendar_t *)obj;
 102:Drivers/lvgl/src/extra/widgets/calendar/lv_calendar.c **** 
 103:Drivers/lvgl/src/extra/widgets/calendar/lv_calendar.c ****     calendar->highlighted_dates     = highlighted;
 104:Drivers/lvgl/src/extra/widgets/calendar/lv_calendar.c ****     calendar->highlighted_dates_num = date_num;
 105:Drivers/lvgl/src/extra/widgets/calendar/lv_calendar.c **** 
 106:Drivers/lvgl/src/extra/widgets/calendar/lv_calendar.c ****     highlight_update(obj);
 107:Drivers/lvgl/src/extra/widgets/calendar/lv_calendar.c **** }
 108:Drivers/lvgl/src/extra/widgets/calendar/lv_calendar.c **** 
 109:Drivers/lvgl/src/extra/widgets/calendar/lv_calendar.c **** void lv_calendar_set_showed_date(lv_obj_t * obj, uint32_t year, uint32_t month)
 110:Drivers/lvgl/src/extra/widgets/calendar/lv_calendar.c **** {
 111:Drivers/lvgl/src/extra/widgets/calendar/lv_calendar.c ****     LV_ASSERT_OBJ(obj, MY_CLASS);
 112:Drivers/lvgl/src/extra/widgets/calendar/lv_calendar.c ****     lv_calendar_t * calendar = (lv_calendar_t *)obj;
 113:Drivers/lvgl/src/extra/widgets/calendar/lv_calendar.c **** 
 114:Drivers/lvgl/src/extra/widgets/calendar/lv_calendar.c ****     calendar->showed_date.year   = year;
 115:Drivers/lvgl/src/extra/widgets/calendar/lv_calendar.c ****     calendar->showed_date.month  = month;
 116:Drivers/lvgl/src/extra/widgets/calendar/lv_calendar.c ****     calendar->showed_date.day    = 1;
 117:Drivers/lvgl/src/extra/widgets/calendar/lv_calendar.c **** 
 118:Drivers/lvgl/src/extra/widgets/calendar/lv_calendar.c ****     lv_calendar_date_t d;
 119:Drivers/lvgl/src/extra/widgets/calendar/lv_calendar.c ****     d.year = calendar->showed_date.year;
 120:Drivers/lvgl/src/extra/widgets/calendar/lv_calendar.c ****     d.month = calendar->showed_date.month;
 121:Drivers/lvgl/src/extra/widgets/calendar/lv_calendar.c ****     d.day = calendar->showed_date.day;
 122:Drivers/lvgl/src/extra/widgets/calendar/lv_calendar.c **** 
 123:Drivers/lvgl/src/extra/widgets/calendar/lv_calendar.c ****     uint32_t i;
 124:Drivers/lvgl/src/extra/widgets/calendar/lv_calendar.c **** 
 125:Drivers/lvgl/src/extra/widgets/calendar/lv_calendar.c ****     /*Remove the disabled state but revert it for day names*/
 126:Drivers/lvgl/src/extra/widgets/calendar/lv_calendar.c ****     lv_btnmatrix_clear_btn_ctrl_all(calendar->btnm, LV_BTNMATRIX_CTRL_DISABLED);
 127:Drivers/lvgl/src/extra/widgets/calendar/lv_calendar.c ****     for(i = 0; i < 7; i++) {
 128:Drivers/lvgl/src/extra/widgets/calendar/lv_calendar.c ****         lv_btnmatrix_set_btn_ctrl(calendar->btnm, i, LV_BTNMATRIX_CTRL_DISABLED);
 129:Drivers/lvgl/src/extra/widgets/calendar/lv_calendar.c ****     }
 130:Drivers/lvgl/src/extra/widgets/calendar/lv_calendar.c **** 
 131:Drivers/lvgl/src/extra/widgets/calendar/lv_calendar.c ****     uint8_t act_mo_len = get_month_length(d.year, d.month);
 132:Drivers/lvgl/src/extra/widgets/calendar/lv_calendar.c ****     uint8_t day_first = get_day_of_week(d.year, d.month, 1);
 133:Drivers/lvgl/src/extra/widgets/calendar/lv_calendar.c ****     uint8_t c;
 134:Drivers/lvgl/src/extra/widgets/calendar/lv_calendar.c ****     for(i = day_first, c = 1; i < act_mo_len + day_first; i++, c++) {
 135:Drivers/lvgl/src/extra/widgets/calendar/lv_calendar.c ****         lv_snprintf(calendar->nums[i], sizeof(calendar->nums[0]), "%d", c);
 136:Drivers/lvgl/src/extra/widgets/calendar/lv_calendar.c ****     }
 137:Drivers/lvgl/src/extra/widgets/calendar/lv_calendar.c **** 
 138:Drivers/lvgl/src/extra/widgets/calendar/lv_calendar.c ****     uint8_t prev_mo_len = get_month_length(d.year, d.month - 1);
 139:Drivers/lvgl/src/extra/widgets/calendar/lv_calendar.c ****     for(i = 0, c = prev_mo_len - day_first + 1; i < day_first; i++, c++) {
 140:Drivers/lvgl/src/extra/widgets/calendar/lv_calendar.c ****         lv_snprintf(calendar->nums[i], sizeof(calendar->nums[0]), "%d", c);
 141:Drivers/lvgl/src/extra/widgets/calendar/lv_calendar.c ****         lv_btnmatrix_set_btn_ctrl(calendar->btnm, i + 7, LV_BTNMATRIX_CTRL_DISABLED);
 142:Drivers/lvgl/src/extra/widgets/calendar/lv_calendar.c ****     }
 143:Drivers/lvgl/src/extra/widgets/calendar/lv_calendar.c **** 
 144:Drivers/lvgl/src/extra/widgets/calendar/lv_calendar.c ****     for(i = day_first + act_mo_len, c = 1; i < 6 * 7; i++, c++) {
ARM GAS  /var/folders/0z/tsy30v1j4xl4_7kw94k978ww0000gn/T//ccGFsGJU.s 			page 4


 145:Drivers/lvgl/src/extra/widgets/calendar/lv_calendar.c ****         lv_snprintf(calendar->nums[i], sizeof(calendar->nums[0]), "%d", c);
 146:Drivers/lvgl/src/extra/widgets/calendar/lv_calendar.c ****         lv_btnmatrix_set_btn_ctrl(calendar->btnm, i + 7, LV_BTNMATRIX_CTRL_DISABLED);
 147:Drivers/lvgl/src/extra/widgets/calendar/lv_calendar.c ****     }
 148:Drivers/lvgl/src/extra/widgets/calendar/lv_calendar.c **** 
 149:Drivers/lvgl/src/extra/widgets/calendar/lv_calendar.c ****     highlight_update(obj);
 150:Drivers/lvgl/src/extra/widgets/calendar/lv_calendar.c **** 
 151:Drivers/lvgl/src/extra/widgets/calendar/lv_calendar.c ****     /*Reset the focused button if the days changes*/
 152:Drivers/lvgl/src/extra/widgets/calendar/lv_calendar.c ****     if(lv_btnmatrix_get_selected_btn(calendar->btnm) != LV_BTNMATRIX_BTN_NONE) {
 153:Drivers/lvgl/src/extra/widgets/calendar/lv_calendar.c ****         lv_btnmatrix_set_selected_btn(calendar->btnm, day_first + 7);
 154:Drivers/lvgl/src/extra/widgets/calendar/lv_calendar.c ****     }
 155:Drivers/lvgl/src/extra/widgets/calendar/lv_calendar.c **** 
 156:Drivers/lvgl/src/extra/widgets/calendar/lv_calendar.c ****     lv_obj_invalidate(obj);
 157:Drivers/lvgl/src/extra/widgets/calendar/lv_calendar.c **** 
 158:Drivers/lvgl/src/extra/widgets/calendar/lv_calendar.c ****     /* The children of the calendar are probably headers.
 159:Drivers/lvgl/src/extra/widgets/calendar/lv_calendar.c ****      * Notify them to let the headers updated to the new date*/
 160:Drivers/lvgl/src/extra/widgets/calendar/lv_calendar.c ****     uint32_t child_cnt = lv_obj_get_child_cnt(obj);
 161:Drivers/lvgl/src/extra/widgets/calendar/lv_calendar.c ****     for(i = 0; i < child_cnt; i++) {
 162:Drivers/lvgl/src/extra/widgets/calendar/lv_calendar.c ****         lv_obj_t * child = lv_obj_get_child(obj, i);
 163:Drivers/lvgl/src/extra/widgets/calendar/lv_calendar.c ****         if(child == calendar->btnm) continue;
 164:Drivers/lvgl/src/extra/widgets/calendar/lv_calendar.c ****         lv_event_send(child, LV_EVENT_VALUE_CHANGED, obj);
 165:Drivers/lvgl/src/extra/widgets/calendar/lv_calendar.c ****     }
 166:Drivers/lvgl/src/extra/widgets/calendar/lv_calendar.c **** }
 167:Drivers/lvgl/src/extra/widgets/calendar/lv_calendar.c **** 
 168:Drivers/lvgl/src/extra/widgets/calendar/lv_calendar.c **** /*=====================
 169:Drivers/lvgl/src/extra/widgets/calendar/lv_calendar.c ****  * Getter functions
 170:Drivers/lvgl/src/extra/widgets/calendar/lv_calendar.c ****  *====================*/
 171:Drivers/lvgl/src/extra/widgets/calendar/lv_calendar.c **** 
 172:Drivers/lvgl/src/extra/widgets/calendar/lv_calendar.c **** lv_obj_t * lv_calendar_get_btnmatrix(const lv_obj_t * obj)
 173:Drivers/lvgl/src/extra/widgets/calendar/lv_calendar.c **** {
 174:Drivers/lvgl/src/extra/widgets/calendar/lv_calendar.c ****     LV_ASSERT_OBJ(obj, MY_CLASS);
 175:Drivers/lvgl/src/extra/widgets/calendar/lv_calendar.c ****     const lv_calendar_t * calendar = (lv_calendar_t *)obj;
 176:Drivers/lvgl/src/extra/widgets/calendar/lv_calendar.c ****     return calendar->btnm;
 177:Drivers/lvgl/src/extra/widgets/calendar/lv_calendar.c **** }
 178:Drivers/lvgl/src/extra/widgets/calendar/lv_calendar.c **** 
 179:Drivers/lvgl/src/extra/widgets/calendar/lv_calendar.c **** const lv_calendar_date_t * lv_calendar_get_today_date(const lv_obj_t * obj)
 180:Drivers/lvgl/src/extra/widgets/calendar/lv_calendar.c **** {
 181:Drivers/lvgl/src/extra/widgets/calendar/lv_calendar.c ****     LV_ASSERT_OBJ(obj, MY_CLASS);
 182:Drivers/lvgl/src/extra/widgets/calendar/lv_calendar.c ****     const lv_calendar_t * calendar = (lv_calendar_t *)obj;
 183:Drivers/lvgl/src/extra/widgets/calendar/lv_calendar.c **** 
 184:Drivers/lvgl/src/extra/widgets/calendar/lv_calendar.c ****     return &calendar->today;
 185:Drivers/lvgl/src/extra/widgets/calendar/lv_calendar.c **** }
 186:Drivers/lvgl/src/extra/widgets/calendar/lv_calendar.c **** 
 187:Drivers/lvgl/src/extra/widgets/calendar/lv_calendar.c **** const lv_calendar_date_t * lv_calendar_get_showed_date(const lv_obj_t * obj)
 188:Drivers/lvgl/src/extra/widgets/calendar/lv_calendar.c **** {
 189:Drivers/lvgl/src/extra/widgets/calendar/lv_calendar.c ****     LV_ASSERT_OBJ(obj, MY_CLASS);
 190:Drivers/lvgl/src/extra/widgets/calendar/lv_calendar.c ****     const lv_calendar_t * calendar = (lv_calendar_t *)obj;
 191:Drivers/lvgl/src/extra/widgets/calendar/lv_calendar.c **** 
 192:Drivers/lvgl/src/extra/widgets/calendar/lv_calendar.c ****     return &calendar->showed_date;
 193:Drivers/lvgl/src/extra/widgets/calendar/lv_calendar.c **** }
 194:Drivers/lvgl/src/extra/widgets/calendar/lv_calendar.c **** 
 195:Drivers/lvgl/src/extra/widgets/calendar/lv_calendar.c **** lv_calendar_date_t * lv_calendar_get_highlighted_dates(const lv_obj_t * obj)
 196:Drivers/lvgl/src/extra/widgets/calendar/lv_calendar.c **** {
 197:Drivers/lvgl/src/extra/widgets/calendar/lv_calendar.c ****     LV_ASSERT_OBJ(obj, MY_CLASS);
 198:Drivers/lvgl/src/extra/widgets/calendar/lv_calendar.c ****     lv_calendar_t * calendar = (lv_calendar_t *)obj;
 199:Drivers/lvgl/src/extra/widgets/calendar/lv_calendar.c **** 
 200:Drivers/lvgl/src/extra/widgets/calendar/lv_calendar.c ****     return calendar->highlighted_dates;
 201:Drivers/lvgl/src/extra/widgets/calendar/lv_calendar.c **** }
ARM GAS  /var/folders/0z/tsy30v1j4xl4_7kw94k978ww0000gn/T//ccGFsGJU.s 			page 5


 202:Drivers/lvgl/src/extra/widgets/calendar/lv_calendar.c **** 
 203:Drivers/lvgl/src/extra/widgets/calendar/lv_calendar.c **** uint16_t lv_calendar_get_highlighted_dates_num(const lv_obj_t * obj)
 204:Drivers/lvgl/src/extra/widgets/calendar/lv_calendar.c **** {
 205:Drivers/lvgl/src/extra/widgets/calendar/lv_calendar.c ****     LV_ASSERT_OBJ(obj, MY_CLASS);
 206:Drivers/lvgl/src/extra/widgets/calendar/lv_calendar.c ****     lv_calendar_t * calendar = (lv_calendar_t *)obj;
 207:Drivers/lvgl/src/extra/widgets/calendar/lv_calendar.c **** 
 208:Drivers/lvgl/src/extra/widgets/calendar/lv_calendar.c ****     return calendar->highlighted_dates_num;
 209:Drivers/lvgl/src/extra/widgets/calendar/lv_calendar.c **** }
 210:Drivers/lvgl/src/extra/widgets/calendar/lv_calendar.c **** 
 211:Drivers/lvgl/src/extra/widgets/calendar/lv_calendar.c **** lv_res_t lv_calendar_get_pressed_date(const lv_obj_t * obj, lv_calendar_date_t * date)
 212:Drivers/lvgl/src/extra/widgets/calendar/lv_calendar.c **** {
 213:Drivers/lvgl/src/extra/widgets/calendar/lv_calendar.c ****     LV_ASSERT_OBJ(obj, MY_CLASS);
 214:Drivers/lvgl/src/extra/widgets/calendar/lv_calendar.c ****     lv_calendar_t * calendar = (lv_calendar_t *)obj;
 215:Drivers/lvgl/src/extra/widgets/calendar/lv_calendar.c **** 
 216:Drivers/lvgl/src/extra/widgets/calendar/lv_calendar.c ****     uint16_t d = lv_btnmatrix_get_selected_btn(calendar->btnm);
 217:Drivers/lvgl/src/extra/widgets/calendar/lv_calendar.c ****     if(d == LV_BTNMATRIX_BTN_NONE) {
 218:Drivers/lvgl/src/extra/widgets/calendar/lv_calendar.c ****         date->year = 0;
 219:Drivers/lvgl/src/extra/widgets/calendar/lv_calendar.c ****         date->month = 0;
 220:Drivers/lvgl/src/extra/widgets/calendar/lv_calendar.c ****         date->day = 0;
 221:Drivers/lvgl/src/extra/widgets/calendar/lv_calendar.c ****         return LV_RES_INV;
 222:Drivers/lvgl/src/extra/widgets/calendar/lv_calendar.c ****     }
 223:Drivers/lvgl/src/extra/widgets/calendar/lv_calendar.c **** 
 224:Drivers/lvgl/src/extra/widgets/calendar/lv_calendar.c ****     const char * txt = lv_btnmatrix_get_btn_text(calendar->btnm, lv_btnmatrix_get_selected_btn(cale
 225:Drivers/lvgl/src/extra/widgets/calendar/lv_calendar.c **** 
 226:Drivers/lvgl/src/extra/widgets/calendar/lv_calendar.c ****     if(txt[1] == 0) date->day = txt[0] - '0';
 227:Drivers/lvgl/src/extra/widgets/calendar/lv_calendar.c ****     else date->day = (txt[0] - '0') * 10 + (txt[1] - '0');
 228:Drivers/lvgl/src/extra/widgets/calendar/lv_calendar.c **** 
 229:Drivers/lvgl/src/extra/widgets/calendar/lv_calendar.c ****     date->year = calendar->showed_date.year;
 230:Drivers/lvgl/src/extra/widgets/calendar/lv_calendar.c ****     date->month = calendar->showed_date.month;
 231:Drivers/lvgl/src/extra/widgets/calendar/lv_calendar.c **** 
 232:Drivers/lvgl/src/extra/widgets/calendar/lv_calendar.c ****     return LV_RES_OK;
 233:Drivers/lvgl/src/extra/widgets/calendar/lv_calendar.c **** }
 234:Drivers/lvgl/src/extra/widgets/calendar/lv_calendar.c **** 
 235:Drivers/lvgl/src/extra/widgets/calendar/lv_calendar.c **** 
 236:Drivers/lvgl/src/extra/widgets/calendar/lv_calendar.c **** /**********************
 237:Drivers/lvgl/src/extra/widgets/calendar/lv_calendar.c ****  *  STATIC FUNCTIONS
 238:Drivers/lvgl/src/extra/widgets/calendar/lv_calendar.c ****  **********************/
 239:Drivers/lvgl/src/extra/widgets/calendar/lv_calendar.c **** 
 240:Drivers/lvgl/src/extra/widgets/calendar/lv_calendar.c **** static void lv_calendar_constructor(const lv_obj_class_t * class_p, lv_obj_t * obj)
 241:Drivers/lvgl/src/extra/widgets/calendar/lv_calendar.c **** {
 242:Drivers/lvgl/src/extra/widgets/calendar/lv_calendar.c ****     LV_UNUSED(class_p);
 243:Drivers/lvgl/src/extra/widgets/calendar/lv_calendar.c ****     lv_calendar_t * calendar = (lv_calendar_t *)obj;
 244:Drivers/lvgl/src/extra/widgets/calendar/lv_calendar.c **** 
 245:Drivers/lvgl/src/extra/widgets/calendar/lv_calendar.c ****     /*Initialize the allocated 'ext'*/
 246:Drivers/lvgl/src/extra/widgets/calendar/lv_calendar.c ****     calendar->today.year  = 2020;
 247:Drivers/lvgl/src/extra/widgets/calendar/lv_calendar.c ****     calendar->today.month = 1;
 248:Drivers/lvgl/src/extra/widgets/calendar/lv_calendar.c ****     calendar->today.day   = 1;
 249:Drivers/lvgl/src/extra/widgets/calendar/lv_calendar.c **** 
 250:Drivers/lvgl/src/extra/widgets/calendar/lv_calendar.c ****     calendar->showed_date.year  = 2020;
 251:Drivers/lvgl/src/extra/widgets/calendar/lv_calendar.c ****     calendar->showed_date.month = 1;
 252:Drivers/lvgl/src/extra/widgets/calendar/lv_calendar.c ****     calendar->showed_date.day   = 1;
 253:Drivers/lvgl/src/extra/widgets/calendar/lv_calendar.c **** 
 254:Drivers/lvgl/src/extra/widgets/calendar/lv_calendar.c ****     calendar->highlighted_dates      = NULL;
 255:Drivers/lvgl/src/extra/widgets/calendar/lv_calendar.c ****     calendar->highlighted_dates_num  = 0;
 256:Drivers/lvgl/src/extra/widgets/calendar/lv_calendar.c **** 
 257:Drivers/lvgl/src/extra/widgets/calendar/lv_calendar.c ****     lv_memset_00(calendar->nums, sizeof(calendar->nums));
 258:Drivers/lvgl/src/extra/widgets/calendar/lv_calendar.c ****     uint8_t i;
ARM GAS  /var/folders/0z/tsy30v1j4xl4_7kw94k978ww0000gn/T//ccGFsGJU.s 			page 6


 259:Drivers/lvgl/src/extra/widgets/calendar/lv_calendar.c ****     uint8_t j = 0;
 260:Drivers/lvgl/src/extra/widgets/calendar/lv_calendar.c ****     for(i = 0; i < 8 * 7; i++) {
 261:Drivers/lvgl/src/extra/widgets/calendar/lv_calendar.c ****         /*Every 8th string is "\n"*/
 262:Drivers/lvgl/src/extra/widgets/calendar/lv_calendar.c ****         if(i != 0 && (i + 1) % 8 == 0) {
 263:Drivers/lvgl/src/extra/widgets/calendar/lv_calendar.c ****             calendar->map[i] = "\n";
 264:Drivers/lvgl/src/extra/widgets/calendar/lv_calendar.c ****         }
 265:Drivers/lvgl/src/extra/widgets/calendar/lv_calendar.c ****         else if(i < 7) {
 266:Drivers/lvgl/src/extra/widgets/calendar/lv_calendar.c ****             calendar->map[i] = day_names_def[i];
 267:Drivers/lvgl/src/extra/widgets/calendar/lv_calendar.c ****         }
 268:Drivers/lvgl/src/extra/widgets/calendar/lv_calendar.c ****         else {
 269:Drivers/lvgl/src/extra/widgets/calendar/lv_calendar.c ****             calendar->nums[j][0] = 'x';
 270:Drivers/lvgl/src/extra/widgets/calendar/lv_calendar.c ****             calendar->map[i] = calendar->nums[j];
 271:Drivers/lvgl/src/extra/widgets/calendar/lv_calendar.c ****             j++;
 272:Drivers/lvgl/src/extra/widgets/calendar/lv_calendar.c ****         }
 273:Drivers/lvgl/src/extra/widgets/calendar/lv_calendar.c ****     }
 274:Drivers/lvgl/src/extra/widgets/calendar/lv_calendar.c ****     calendar->map[8 * 7 - 1] = "";
 275:Drivers/lvgl/src/extra/widgets/calendar/lv_calendar.c **** 
 276:Drivers/lvgl/src/extra/widgets/calendar/lv_calendar.c ****     calendar->btnm = lv_btnmatrix_create(obj);
 277:Drivers/lvgl/src/extra/widgets/calendar/lv_calendar.c ****     lv_btnmatrix_set_map(calendar->btnm, calendar->map);
 278:Drivers/lvgl/src/extra/widgets/calendar/lv_calendar.c ****     lv_btnmatrix_set_btn_ctrl_all(calendar->btnm, LV_BTNMATRIX_CTRL_CLICK_TRIG | LV_BTNMATRIX_CTRL_
 279:Drivers/lvgl/src/extra/widgets/calendar/lv_calendar.c ****     lv_obj_add_event_cb(calendar->btnm, draw_part_begin_event_cb, LV_EVENT_DRAW_PART_BEGIN, NULL);
 280:Drivers/lvgl/src/extra/widgets/calendar/lv_calendar.c ****     lv_obj_set_width(calendar->btnm, lv_pct(100));
 281:Drivers/lvgl/src/extra/widgets/calendar/lv_calendar.c **** 
 282:Drivers/lvgl/src/extra/widgets/calendar/lv_calendar.c ****     lv_obj_set_flex_flow(obj, LV_FLEX_FLOW_COLUMN);
 283:Drivers/lvgl/src/extra/widgets/calendar/lv_calendar.c ****     lv_obj_set_flex_grow(calendar->btnm, 1);
 284:Drivers/lvgl/src/extra/widgets/calendar/lv_calendar.c **** 
 285:Drivers/lvgl/src/extra/widgets/calendar/lv_calendar.c ****     lv_calendar_set_showed_date(obj, calendar->showed_date.year, calendar->showed_date.month);
 286:Drivers/lvgl/src/extra/widgets/calendar/lv_calendar.c ****     lv_calendar_set_today_date(obj, calendar->today.year, calendar->today.month, calendar->today.da
 287:Drivers/lvgl/src/extra/widgets/calendar/lv_calendar.c **** 
 288:Drivers/lvgl/src/extra/widgets/calendar/lv_calendar.c ****     lv_obj_add_flag(calendar->btnm, LV_OBJ_FLAG_EVENT_BUBBLE);
 289:Drivers/lvgl/src/extra/widgets/calendar/lv_calendar.c **** }
 290:Drivers/lvgl/src/extra/widgets/calendar/lv_calendar.c **** 
 291:Drivers/lvgl/src/extra/widgets/calendar/lv_calendar.c **** static void draw_part_begin_event_cb(lv_event_t * e)
 292:Drivers/lvgl/src/extra/widgets/calendar/lv_calendar.c **** {
 293:Drivers/lvgl/src/extra/widgets/calendar/lv_calendar.c ****     lv_obj_t * obj = lv_event_get_target(e);
 294:Drivers/lvgl/src/extra/widgets/calendar/lv_calendar.c ****     lv_obj_draw_part_dsc_t * dsc = lv_event_get_param(e);
 295:Drivers/lvgl/src/extra/widgets/calendar/lv_calendar.c ****     if(dsc->part == LV_PART_ITEMS) {
 296:Drivers/lvgl/src/extra/widgets/calendar/lv_calendar.c ****         /*Day name styles*/
 297:Drivers/lvgl/src/extra/widgets/calendar/lv_calendar.c ****         if(dsc->id < 7) {
 298:Drivers/lvgl/src/extra/widgets/calendar/lv_calendar.c ****             dsc->rect_dsc->bg_opa = LV_OPA_TRANSP;
 299:Drivers/lvgl/src/extra/widgets/calendar/lv_calendar.c ****             dsc->rect_dsc->border_opa = LV_OPA_TRANSP;
 300:Drivers/lvgl/src/extra/widgets/calendar/lv_calendar.c ****         }
 301:Drivers/lvgl/src/extra/widgets/calendar/lv_calendar.c ****         else if(lv_btnmatrix_has_btn_ctrl(obj, dsc->id, LV_BTNMATRIX_CTRL_DISABLED)) {
 302:Drivers/lvgl/src/extra/widgets/calendar/lv_calendar.c ****             dsc->rect_dsc->bg_opa = LV_OPA_TRANSP;
 303:Drivers/lvgl/src/extra/widgets/calendar/lv_calendar.c ****             dsc->rect_dsc->border_opa = LV_OPA_TRANSP;
 304:Drivers/lvgl/src/extra/widgets/calendar/lv_calendar.c ****             dsc->label_dsc->color = lv_palette_main(LV_PALETTE_GREY);
 305:Drivers/lvgl/src/extra/widgets/calendar/lv_calendar.c ****         }
 306:Drivers/lvgl/src/extra/widgets/calendar/lv_calendar.c **** 
 307:Drivers/lvgl/src/extra/widgets/calendar/lv_calendar.c ****         if(lv_btnmatrix_has_btn_ctrl(obj, dsc->id, LV_CALENDAR_CTRL_HIGHLIGHT)) {
 308:Drivers/lvgl/src/extra/widgets/calendar/lv_calendar.c ****             dsc->rect_dsc->bg_opa = LV_OPA_40;
 309:Drivers/lvgl/src/extra/widgets/calendar/lv_calendar.c ****             dsc->rect_dsc->bg_color = lv_theme_get_color_primary(obj);
 310:Drivers/lvgl/src/extra/widgets/calendar/lv_calendar.c ****             if(lv_btnmatrix_get_selected_btn(obj) == dsc->id) {
 311:Drivers/lvgl/src/extra/widgets/calendar/lv_calendar.c ****                 dsc->rect_dsc->bg_opa = LV_OPA_70;
 312:Drivers/lvgl/src/extra/widgets/calendar/lv_calendar.c ****             }
 313:Drivers/lvgl/src/extra/widgets/calendar/lv_calendar.c ****         }
 314:Drivers/lvgl/src/extra/widgets/calendar/lv_calendar.c **** 
 315:Drivers/lvgl/src/extra/widgets/calendar/lv_calendar.c ****         if(lv_btnmatrix_has_btn_ctrl(obj, dsc->id, LV_CALENDAR_CTRL_TODAY)) {
ARM GAS  /var/folders/0z/tsy30v1j4xl4_7kw94k978ww0000gn/T//ccGFsGJU.s 			page 7


 316:Drivers/lvgl/src/extra/widgets/calendar/lv_calendar.c ****             dsc->rect_dsc->border_opa = LV_OPA_COVER;
 317:Drivers/lvgl/src/extra/widgets/calendar/lv_calendar.c ****             dsc->rect_dsc->border_color = lv_theme_get_color_primary(obj);
 318:Drivers/lvgl/src/extra/widgets/calendar/lv_calendar.c ****             dsc->rect_dsc->border_width += 1;
 319:Drivers/lvgl/src/extra/widgets/calendar/lv_calendar.c ****         }
 320:Drivers/lvgl/src/extra/widgets/calendar/lv_calendar.c **** 
 321:Drivers/lvgl/src/extra/widgets/calendar/lv_calendar.c ****     }
 322:Drivers/lvgl/src/extra/widgets/calendar/lv_calendar.c **** }
 323:Drivers/lvgl/src/extra/widgets/calendar/lv_calendar.c **** 
 324:Drivers/lvgl/src/extra/widgets/calendar/lv_calendar.c **** /**
 325:Drivers/lvgl/src/extra/widgets/calendar/lv_calendar.c ****  * Get the number of days in a month
 326:Drivers/lvgl/src/extra/widgets/calendar/lv_calendar.c ****  * @param year a year
 327:Drivers/lvgl/src/extra/widgets/calendar/lv_calendar.c ****  * @param month a month. The range is basically [1..12] but [-11..0] or [13..24] is also
 328:Drivers/lvgl/src/extra/widgets/calendar/lv_calendar.c ****  *              supported to handle next/prev. year
 329:Drivers/lvgl/src/extra/widgets/calendar/lv_calendar.c ****  * @return [28..31]
 330:Drivers/lvgl/src/extra/widgets/calendar/lv_calendar.c ****  */
 331:Drivers/lvgl/src/extra/widgets/calendar/lv_calendar.c **** static uint8_t get_month_length(int32_t year, int32_t month)
 332:Drivers/lvgl/src/extra/widgets/calendar/lv_calendar.c **** {
 333:Drivers/lvgl/src/extra/widgets/calendar/lv_calendar.c ****     month--;
 334:Drivers/lvgl/src/extra/widgets/calendar/lv_calendar.c ****     if(month < 0) {
 335:Drivers/lvgl/src/extra/widgets/calendar/lv_calendar.c ****         year--;             /*Already in the previous year (won't be less then -12 to skip a whole 
 336:Drivers/lvgl/src/extra/widgets/calendar/lv_calendar.c ****         month = 12 + month; /*`month` is negative, the result will be < 12*/
 337:Drivers/lvgl/src/extra/widgets/calendar/lv_calendar.c ****     }
 338:Drivers/lvgl/src/extra/widgets/calendar/lv_calendar.c ****     if(month >= 12) {
 339:Drivers/lvgl/src/extra/widgets/calendar/lv_calendar.c ****         year++;
 340:Drivers/lvgl/src/extra/widgets/calendar/lv_calendar.c ****         month -= 12;
 341:Drivers/lvgl/src/extra/widgets/calendar/lv_calendar.c ****     }
 342:Drivers/lvgl/src/extra/widgets/calendar/lv_calendar.c **** 
 343:Drivers/lvgl/src/extra/widgets/calendar/lv_calendar.c ****     /*month == 1 is february*/
 344:Drivers/lvgl/src/extra/widgets/calendar/lv_calendar.c ****     return (month == 1) ? (28 + is_leap_year(year)) : 31 - month % 7 % 2;
 345:Drivers/lvgl/src/extra/widgets/calendar/lv_calendar.c **** }
 346:Drivers/lvgl/src/extra/widgets/calendar/lv_calendar.c **** 
 347:Drivers/lvgl/src/extra/widgets/calendar/lv_calendar.c **** /**
 348:Drivers/lvgl/src/extra/widgets/calendar/lv_calendar.c ****  * Tells whether a year is leap year or not
 349:Drivers/lvgl/src/extra/widgets/calendar/lv_calendar.c ****  * @param year a year
 350:Drivers/lvgl/src/extra/widgets/calendar/lv_calendar.c ****  * @return 0: not leap year; 1: leap year
 351:Drivers/lvgl/src/extra/widgets/calendar/lv_calendar.c ****  */
 352:Drivers/lvgl/src/extra/widgets/calendar/lv_calendar.c **** static uint8_t is_leap_year(uint32_t year)
 353:Drivers/lvgl/src/extra/widgets/calendar/lv_calendar.c **** {
  29              		.loc 1 353 1 view -0
  30              		.cfi_startproc
  31              		@ args = 0, pretend = 0, frame = 0
  32              		@ frame_needed = 0, uses_anonymous_args = 0
  33              		@ link register save eliminated.
 354:Drivers/lvgl/src/extra/widgets/calendar/lv_calendar.c ****     return (year % 4) || ((year % 100 == 0) && (year % 400)) ? 0 : 1;
  34              		.loc 1 354 5 view .LVU1
  35              		.loc 1 354 66 is_stmt 0 view .LVU2
  36 0000 10F0030F 		tst	r0, #3
  37 0004 12D1     		bne	.L3
  38              		.loc 1 354 33 discriminator 1 view .LVU3
  39 0006 0C4B     		ldr	r3, .L6
  40 0008 A3FB0023 		umull	r2, r3, r3, r0
  41 000c 5B09     		lsrs	r3, r3, #5
  42 000e 6422     		movs	r2, #100
  43 0010 02FB1303 		mls	r3, r2, r3, r0
  44              		.loc 1 354 66 discriminator 1 view .LVU4
  45 0014 63B9     		cbnz	r3, .L4
  46              		.loc 1 354 54 discriminator 4 view .LVU5
ARM GAS  /var/folders/0z/tsy30v1j4xl4_7kw94k978ww0000gn/T//ccGFsGJU.s 			page 8


  47 0016 084B     		ldr	r3, .L6
  48 0018 A3FB0023 		umull	r2, r3, r3, r0
  49 001c DB09     		lsrs	r3, r3, #7
  50 001e 4FF4C872 		mov	r2, #400
  51 0022 02FB1303 		mls	r3, r2, r3, r0
  52              		.loc 1 354 45 discriminator 4 view .LVU6
  53 0026 2BB1     		cbz	r3, .L5
  54              		.loc 1 354 66 view .LVU7
  55 0028 0020     		movs	r0, #0
  56              	.LVL1:
  57              		.loc 1 354 66 view .LVU8
  58 002a 7047     		bx	lr
  59              	.LVL2:
  60              	.L3:
  61              		.loc 1 354 66 view .LVU9
  62 002c 0020     		movs	r0, #0
  63              	.LVL3:
  64              		.loc 1 354 66 view .LVU10
  65 002e 7047     		bx	lr
  66              	.LVL4:
  67              	.L4:
  68              		.loc 1 354 66 view .LVU11
  69 0030 0120     		movs	r0, #1
  70              	.LVL5:
  71              		.loc 1 354 66 view .LVU12
  72 0032 7047     		bx	lr
  73              	.LVL6:
  74              	.L5:
  75              		.loc 1 354 66 view .LVU13
  76 0034 0120     		movs	r0, #1
  77              	.LVL7:
 355:Drivers/lvgl/src/extra/widgets/calendar/lv_calendar.c **** }
  78              		.loc 1 355 1 view .LVU14
  79 0036 7047     		bx	lr
  80              	.L7:
  81              		.align	2
  82              	.L6:
  83 0038 1F85EB51 		.word	1374389535
  84              		.cfi_endproc
  85              	.LFE218:
  87              		.section	.text.get_month_length,"ax",%progbits
  88              		.align	1
  89              		.syntax unified
  90              		.thumb
  91              		.thumb_func
  93              	get_month_length:
  94              	.LVL8:
  95              	.LFB217:
 332:Drivers/lvgl/src/extra/widgets/calendar/lv_calendar.c ****     month--;
  96              		.loc 1 332 1 is_stmt 1 view -0
  97              		.cfi_startproc
  98              		@ args = 0, pretend = 0, frame = 0
  99              		@ frame_needed = 0, uses_anonymous_args = 0
 332:Drivers/lvgl/src/extra/widgets/calendar/lv_calendar.c ****     month--;
 100              		.loc 1 332 1 is_stmt 0 view .LVU16
 101 0000 08B5     		push	{r3, lr}
 102              		.cfi_def_cfa_offset 8
ARM GAS  /var/folders/0z/tsy30v1j4xl4_7kw94k978ww0000gn/T//ccGFsGJU.s 			page 9


 103              		.cfi_offset 3, -8
 104              		.cfi_offset 14, -4
 333:Drivers/lvgl/src/extra/widgets/calendar/lv_calendar.c ****     if(month < 0) {
 105              		.loc 1 333 5 is_stmt 1 view .LVU17
 106              	.LVL9:
 334:Drivers/lvgl/src/extra/widgets/calendar/lv_calendar.c ****         year--;             /*Already in the previous year (won't be less then -12 to skip a whole 
 107              		.loc 1 334 5 view .LVU18
 334:Drivers/lvgl/src/extra/widgets/calendar/lv_calendar.c ****         year--;             /*Already in the previous year (won't be less then -12 to skip a whole 
 108              		.loc 1 334 7 is_stmt 0 view .LVU19
 109 0002 4A1E     		subs	r2, r1, #1
 110              	.LVL10:
 334:Drivers/lvgl/src/extra/widgets/calendar/lv_calendar.c ****         year--;             /*Already in the previous year (won't be less then -12 to skip a whole 
 111              		.loc 1 334 7 view .LVU20
 112 0004 18D4     		bmi	.L14
 113              	.L9:
 338:Drivers/lvgl/src/extra/widgets/calendar/lv_calendar.c ****         year++;
 114              		.loc 1 338 5 is_stmt 1 view .LVU21
 338:Drivers/lvgl/src/extra/widgets/calendar/lv_calendar.c ****         year++;
 115              		.loc 1 338 7 is_stmt 0 view .LVU22
 116 0006 0B2A     		cmp	r2, #11
 117 0008 01DD     		ble	.L10
 339:Drivers/lvgl/src/extra/widgets/calendar/lv_calendar.c ****         month -= 12;
 118              		.loc 1 339 9 is_stmt 1 view .LVU23
 339:Drivers/lvgl/src/extra/widgets/calendar/lv_calendar.c ****         month -= 12;
 119              		.loc 1 339 13 is_stmt 0 view .LVU24
 120 000a 0130     		adds	r0, r0, #1
 121              	.LVL11:
 340:Drivers/lvgl/src/extra/widgets/calendar/lv_calendar.c ****     }
 122              		.loc 1 340 9 is_stmt 1 view .LVU25
 340:Drivers/lvgl/src/extra/widgets/calendar/lv_calendar.c ****     }
 123              		.loc 1 340 15 is_stmt 0 view .LVU26
 124 000c 0C3A     		subs	r2, r2, #12
 125              	.LVL12:
 126              	.L10:
 344:Drivers/lvgl/src/extra/widgets/calendar/lv_calendar.c **** }
 127              		.loc 1 344 5 is_stmt 1 view .LVU27
 344:Drivers/lvgl/src/extra/widgets/calendar/lv_calendar.c **** }
 128              		.loc 1 344 53 is_stmt 0 view .LVU28
 129 000e 012A     		cmp	r2, #1
 130 0010 16D0     		beq	.L15
 344:Drivers/lvgl/src/extra/widgets/calendar/lv_calendar.c **** }
 131              		.loc 1 344 66 discriminator 2 view .LVU29
 132 0012 0E49     		ldr	r1, .L16
 133 0014 81FB0231 		smull	r3, r1, r1, r2
 134 0018 1144     		add	r1, r1, r2
 135 001a D317     		asrs	r3, r2, #31
 136 001c C3EBA103 		rsb	r3, r3, r1, asr #2
 137 0020 C3EBC303 		rsb	r3, r3, r3, lsl #3
 344:Drivers/lvgl/src/extra/widgets/calendar/lv_calendar.c **** }
 138              		.loc 1 344 70 discriminator 2 view .LVU30
 139 0024 D31A     		subs	r3, r2, r3
 140 0026 03F00103 		and	r3, r3, #1
 141 002a 48BF     		it	mi
 142 002c 5B42     		rsbmi	r3, r3, #0
 344:Drivers/lvgl/src/extra/widgets/calendar/lv_calendar.c **** }
 143              		.loc 1 344 58 discriminator 2 view .LVU31
 144 002e D8B2     		uxtb	r0, r3
ARM GAS  /var/folders/0z/tsy30v1j4xl4_7kw94k978ww0000gn/T//ccGFsGJU.s 			page 10


 145              	.LVL13:
 344:Drivers/lvgl/src/extra/widgets/calendar/lv_calendar.c **** }
 146              		.loc 1 344 53 discriminator 2 view .LVU32
 147 0030 C0F11F00 		rsb	r0, r0, #31
 148 0034 C0B2     		uxtb	r0, r0
 149              	.LVL14:
 150              	.L12:
 345:Drivers/lvgl/src/extra/widgets/calendar/lv_calendar.c **** 
 151              		.loc 1 345 1 discriminator 4 view .LVU33
 152 0036 08BD     		pop	{r3, pc}
 153              	.LVL15:
 154              	.L14:
 335:Drivers/lvgl/src/extra/widgets/calendar/lv_calendar.c ****         month = 12 + month; /*`month` is negative, the result will be < 12*/
 155              		.loc 1 335 9 is_stmt 1 view .LVU34
 335:Drivers/lvgl/src/extra/widgets/calendar/lv_calendar.c ****         month = 12 + month; /*`month` is negative, the result will be < 12*/
 156              		.loc 1 335 13 is_stmt 0 view .LVU35
 157 0038 0138     		subs	r0, r0, #1
 158              	.LVL16:
 336:Drivers/lvgl/src/extra/widgets/calendar/lv_calendar.c ****     }
 159              		.loc 1 336 9 is_stmt 1 view .LVU36
 336:Drivers/lvgl/src/extra/widgets/calendar/lv_calendar.c ****     }
 160              		.loc 1 336 15 is_stmt 0 view .LVU37
 161 003a 01F10B02 		add	r2, r1, #11
 162              	.LVL17:
 336:Drivers/lvgl/src/extra/widgets/calendar/lv_calendar.c ****     }
 163              		.loc 1 336 15 view .LVU38
 164 003e E2E7     		b	.L9
 165              	.L15:
 344:Drivers/lvgl/src/extra/widgets/calendar/lv_calendar.c **** }
 166              		.loc 1 344 33 discriminator 1 view .LVU39
 167 0040 FFF7FEFF 		bl	is_leap_year
 168              	.LVL18:
 344:Drivers/lvgl/src/extra/widgets/calendar/lv_calendar.c **** }
 169              		.loc 1 344 53 discriminator 1 view .LVU40
 170 0044 1C30     		adds	r0, r0, #28
 171 0046 C0B2     		uxtb	r0, r0
 172 0048 F5E7     		b	.L12
 173              	.L17:
 174 004a 00BF     		.align	2
 175              	.L16:
 176 004c 93244992 		.word	-1840700269
 177              		.cfi_endproc
 178              	.LFE217:
 180              		.section	.text.get_day_of_week,"ax",%progbits
 181              		.align	1
 182              		.syntax unified
 183              		.thumb
 184              		.thumb_func
 186              	get_day_of_week:
 187              	.LVL19:
 188              	.LFB219:
 356:Drivers/lvgl/src/extra/widgets/calendar/lv_calendar.c **** 
 357:Drivers/lvgl/src/extra/widgets/calendar/lv_calendar.c **** /**
 358:Drivers/lvgl/src/extra/widgets/calendar/lv_calendar.c ****  * Get the day of the week
 359:Drivers/lvgl/src/extra/widgets/calendar/lv_calendar.c ****  * @param year a year
 360:Drivers/lvgl/src/extra/widgets/calendar/lv_calendar.c ****  * @param month a  month [1..12]
 361:Drivers/lvgl/src/extra/widgets/calendar/lv_calendar.c ****  * @param day a day [1..32]
ARM GAS  /var/folders/0z/tsy30v1j4xl4_7kw94k978ww0000gn/T//ccGFsGJU.s 			page 11


 362:Drivers/lvgl/src/extra/widgets/calendar/lv_calendar.c ****  * @return [0..6] which means [Sun..Sat] or [Mon..Sun] depending on LV_CALENDAR_WEEK_STARTS_MONDAY
 363:Drivers/lvgl/src/extra/widgets/calendar/lv_calendar.c ****  */
 364:Drivers/lvgl/src/extra/widgets/calendar/lv_calendar.c **** static uint8_t get_day_of_week(uint32_t year, uint32_t month, uint32_t day)
 365:Drivers/lvgl/src/extra/widgets/calendar/lv_calendar.c **** {
 189              		.loc 1 365 1 is_stmt 1 view -0
 190              		.cfi_startproc
 191              		@ args = 0, pretend = 0, frame = 0
 192              		@ frame_needed = 0, uses_anonymous_args = 0
 193              		@ link register save eliminated.
 366:Drivers/lvgl/src/extra/widgets/calendar/lv_calendar.c ****     uint32_t a = month < 3 ? 1 : 0;
 194              		.loc 1 366 5 view .LVU42
 195              		.loc 1 366 32 is_stmt 0 view .LVU43
 196 0000 0229     		cmp	r1, #2
 197 0002 94BF     		ite	ls
 198 0004 0123     		movls	r3, #1
 199 0006 0023     		movhi	r3, #0
 200              	.LVL20:
 367:Drivers/lvgl/src/extra/widgets/calendar/lv_calendar.c ****     uint32_t b = year - a;
 201              		.loc 1 367 5 is_stmt 1 view .LVU44
 202              		.loc 1 367 14 is_stmt 0 view .LVU45
 203 0008 A0EB0300 		sub	r0, r0, r3
 204              	.LVL21:
 368:Drivers/lvgl/src/extra/widgets/calendar/lv_calendar.c **** 
 369:Drivers/lvgl/src/extra/widgets/calendar/lv_calendar.c **** #if LV_CALENDAR_WEEK_STARTS_MONDAY
 370:Drivers/lvgl/src/extra/widgets/calendar/lv_calendar.c ****     uint32_t day_of_week = (day + (31 * (month - 2 + 12 * a) / 12) + b + (b / 4) - (b / 100) + (b /
 371:Drivers/lvgl/src/extra/widgets/calendar/lv_calendar.c **** #else
 372:Drivers/lvgl/src/extra/widgets/calendar/lv_calendar.c ****     uint32_t day_of_week = (day + (31 * (month - 2 + 12 * a) / 12) + b + (b / 4) - (b / 100) + (b /
 205              		.loc 1 372 5 is_stmt 1 view .LVU46
 206              		.loc 1 372 57 is_stmt 0 view .LVU47
 207 000c 94BF     		ite	ls
 208 000e 0C23     		movls	r3, #12
 209              	.LVL22:
 210              		.loc 1 372 57 view .LVU48
 211 0010 0023     		movhi	r3, #0
 212              		.loc 1 372 52 view .LVU49
 213 0012 1944     		add	r1, r1, r3
 214              	.LVL23:
 215              		.loc 1 372 39 view .LVU50
 216 0014 C1EB4111 		rsb	r1, r1, r1, lsl #5
 217 0018 3E39     		subs	r1, r1, #62
 218              		.loc 1 372 62 view .LVU51
 219 001a 0D4B     		ldr	r3, .L19
 220 001c A3FB0131 		umull	r3, r1, r3, r1
 221              		.loc 1 372 33 view .LVU52
 222 0020 02EBD103 		add	r3, r2, r1, lsr #3
 223              		.loc 1 372 68 view .LVU53
 224 0024 0344     		add	r3, r3, r0
 225              		.loc 1 372 72 view .LVU54
 226 0026 03EB9003 		add	r3, r3, r0, lsr #2
 227              		.loc 1 372 87 view .LVU55
 228 002a 0A4A     		ldr	r2, .L19+4
 229              	.LVL24:
 230              		.loc 1 372 87 view .LVU56
 231 002c A2FB0020 		umull	r2, r0, r2, r0
 232              	.LVL25:
 233              		.loc 1 372 82 view .LVU57
 234 0030 A3EB5013 		sub	r3, r3, r0, lsr #5
ARM GAS  /var/folders/0z/tsy30v1j4xl4_7kw94k978ww0000gn/T//ccGFsGJU.s 			page 12


 235              		.loc 1 372 94 view .LVU58
 236 0034 03EBD013 		add	r3, r3, r0, lsr #7
 237              		.loc 1 372 14 view .LVU59
 238 0038 0748     		ldr	r0, .L19+8
 239 003a A0FB0320 		umull	r2, r0, r0, r3
 240 003e 1A1A     		subs	r2, r3, r0
 241 0040 00EB5200 		add	r0, r0, r2, lsr #1
 242 0044 8008     		lsrs	r0, r0, #2
 243 0046 C0EBC000 		rsb	r0, r0, r0, lsl #3
 244 004a 181A     		subs	r0, r3, r0
 245              	.LVL26:
 373:Drivers/lvgl/src/extra/widgets/calendar/lv_calendar.c **** #endif
 374:Drivers/lvgl/src/extra/widgets/calendar/lv_calendar.c **** 
 375:Drivers/lvgl/src/extra/widgets/calendar/lv_calendar.c ****     return day_of_week  ;
 246              		.loc 1 375 5 is_stmt 1 view .LVU60
 376:Drivers/lvgl/src/extra/widgets/calendar/lv_calendar.c **** }
 247              		.loc 1 376 1 is_stmt 0 view .LVU61
 248 004c C0B2     		uxtb	r0, r0
 249              	.LVL27:
 250              		.loc 1 376 1 view .LVU62
 251 004e 7047     		bx	lr
 252              	.L20:
 253              		.align	2
 254              	.L19:
 255 0050 ABAAAAAA 		.word	-1431655765
 256 0054 1F85EB51 		.word	1374389535
 257 0058 25499224 		.word	613566757
 258              		.cfi_endproc
 259              	.LFE219:
 261              		.section	.text.draw_part_begin_event_cb,"ax",%progbits
 262              		.align	1
 263              		.syntax unified
 264              		.thumb
 265              		.thumb_func
 267              	draw_part_begin_event_cb:
 268              	.LVL28:
 269              	.LFB216:
 292:Drivers/lvgl/src/extra/widgets/calendar/lv_calendar.c ****     lv_obj_t * obj = lv_event_get_target(e);
 270              		.loc 1 292 1 is_stmt 1 view -0
 271              		.cfi_startproc
 272              		@ args = 0, pretend = 0, frame = 0
 273              		@ frame_needed = 0, uses_anonymous_args = 0
 292:Drivers/lvgl/src/extra/widgets/calendar/lv_calendar.c ****     lv_obj_t * obj = lv_event_get_target(e);
 274              		.loc 1 292 1 is_stmt 0 view .LVU64
 275 0000 70B5     		push	{r4, r5, r6, lr}
 276              		.cfi_def_cfa_offset 16
 277              		.cfi_offset 4, -16
 278              		.cfi_offset 5, -12
 279              		.cfi_offset 6, -8
 280              		.cfi_offset 14, -4
 281 0002 0446     		mov	r4, r0
 293:Drivers/lvgl/src/extra/widgets/calendar/lv_calendar.c ****     lv_obj_draw_part_dsc_t * dsc = lv_event_get_param(e);
 282              		.loc 1 293 5 is_stmt 1 view .LVU65
 293:Drivers/lvgl/src/extra/widgets/calendar/lv_calendar.c ****     lv_obj_draw_part_dsc_t * dsc = lv_event_get_param(e);
 283              		.loc 1 293 22 is_stmt 0 view .LVU66
 284 0004 FFF7FEFF 		bl	lv_event_get_target
 285              	.LVL29:
ARM GAS  /var/folders/0z/tsy30v1j4xl4_7kw94k978ww0000gn/T//ccGFsGJU.s 			page 13


 293:Drivers/lvgl/src/extra/widgets/calendar/lv_calendar.c ****     lv_obj_draw_part_dsc_t * dsc = lv_event_get_param(e);
 286              		.loc 1 293 22 view .LVU67
 287 0008 0546     		mov	r5, r0
 288              	.LVL30:
 294:Drivers/lvgl/src/extra/widgets/calendar/lv_calendar.c ****     if(dsc->part == LV_PART_ITEMS) {
 289              		.loc 1 294 5 is_stmt 1 view .LVU68
 294:Drivers/lvgl/src/extra/widgets/calendar/lv_calendar.c ****     if(dsc->part == LV_PART_ITEMS) {
 290              		.loc 1 294 36 is_stmt 0 view .LVU69
 291 000a 2046     		mov	r0, r4
 292              	.LVL31:
 294:Drivers/lvgl/src/extra/widgets/calendar/lv_calendar.c ****     if(dsc->part == LV_PART_ITEMS) {
 293              		.loc 1 294 36 view .LVU70
 294 000c FFF7FEFF 		bl	lv_event_get_param
 295              	.LVL32:
 295:Drivers/lvgl/src/extra/widgets/calendar/lv_calendar.c ****         /*Day name styles*/
 296              		.loc 1 295 5 is_stmt 1 view .LVU71
 295:Drivers/lvgl/src/extra/widgets/calendar/lv_calendar.c ****         /*Day name styles*/
 297              		.loc 1 295 11 is_stmt 0 view .LVU72
 298 0010 436B     		ldr	r3, [r0, #52]
 295:Drivers/lvgl/src/extra/widgets/calendar/lv_calendar.c ****         /*Day name styles*/
 299              		.loc 1 295 7 view .LVU73
 300 0012 B3F5A02F 		cmp	r3, #327680
 301 0016 00D0     		beq	.L27
 302              	.LVL33:
 303              	.L21:
 322:Drivers/lvgl/src/extra/widgets/calendar/lv_calendar.c **** 
 304              		.loc 1 322 1 view .LVU74
 305 0018 70BD     		pop	{r4, r5, r6, pc}
 306              	.LVL34:
 307              	.L27:
 322:Drivers/lvgl/src/extra/widgets/calendar/lv_calendar.c **** 
 308              		.loc 1 322 1 view .LVU75
 309 001a 0446     		mov	r4, r0
 310              	.LVL35:
 297:Drivers/lvgl/src/extra/widgets/calendar/lv_calendar.c ****             dsc->rect_dsc->bg_opa = LV_OPA_TRANSP;
 311              		.loc 1 297 9 is_stmt 1 view .LVU76
 297:Drivers/lvgl/src/extra/widgets/calendar/lv_calendar.c ****             dsc->rect_dsc->bg_opa = LV_OPA_TRANSP;
 312              		.loc 1 297 15 is_stmt 0 view .LVU77
 313 001c 816B     		ldr	r1, [r0, #56]
 297:Drivers/lvgl/src/extra/widgets/calendar/lv_calendar.c ****             dsc->rect_dsc->bg_opa = LV_OPA_TRANSP;
 314              		.loc 1 297 11 view .LVU78
 315 001e 0629     		cmp	r1, #6
 316 0020 22D8     		bhi	.L23
 298:Drivers/lvgl/src/extra/widgets/calendar/lv_calendar.c ****             dsc->rect_dsc->border_opa = LV_OPA_TRANSP;
 317              		.loc 1 298 13 is_stmt 1 view .LVU79
 298:Drivers/lvgl/src/extra/widgets/calendar/lv_calendar.c ****             dsc->rect_dsc->border_opa = LV_OPA_TRANSP;
 318              		.loc 1 298 16 is_stmt 0 view .LVU80
 319 0022 0269     		ldr	r2, [r0, #16]
 298:Drivers/lvgl/src/extra/widgets/calendar/lv_calendar.c ****             dsc->rect_dsc->border_opa = LV_OPA_TRANSP;
 320              		.loc 1 298 35 view .LVU81
 321 0024 0023     		movs	r3, #0
 322 0026 D370     		strb	r3, [r2, #3]
 299:Drivers/lvgl/src/extra/widgets/calendar/lv_calendar.c ****         }
 323              		.loc 1 299 13 is_stmt 1 view .LVU82
 299:Drivers/lvgl/src/extra/widgets/calendar/lv_calendar.c ****         }
 324              		.loc 1 299 16 is_stmt 0 view .LVU83
 325 0028 0269     		ldr	r2, [r0, #16]
ARM GAS  /var/folders/0z/tsy30v1j4xl4_7kw94k978ww0000gn/T//ccGFsGJU.s 			page 14


 299:Drivers/lvgl/src/extra/widgets/calendar/lv_calendar.c ****         }
 326              		.loc 1 299 39 view .LVU84
 327 002a 82F82230 		strb	r3, [r2, #34]
 328              	.LVL36:
 329              	.L24:
 307:Drivers/lvgl/src/extra/widgets/calendar/lv_calendar.c ****             dsc->rect_dsc->bg_opa = LV_OPA_40;
 330              		.loc 1 307 9 is_stmt 1 view .LVU85
 307:Drivers/lvgl/src/extra/widgets/calendar/lv_calendar.c ****             dsc->rect_dsc->bg_opa = LV_OPA_40;
 331              		.loc 1 307 12 is_stmt 0 view .LVU86
 332 002e 4FF40042 		mov	r2, #32768
 333 0032 218F     		ldrh	r1, [r4, #56]
 334 0034 2846     		mov	r0, r5
 335 0036 FFF7FEFF 		bl	lv_btnmatrix_has_btn_ctrl
 336              	.LVL37:
 307:Drivers/lvgl/src/extra/widgets/calendar/lv_calendar.c ****             dsc->rect_dsc->bg_opa = LV_OPA_40;
 337              		.loc 1 307 11 view .LVU87
 338 003a 40BB     		cbnz	r0, .L28
 339              	.L25:
 315:Drivers/lvgl/src/extra/widgets/calendar/lv_calendar.c ****             dsc->rect_dsc->border_opa = LV_OPA_COVER;
 340              		.loc 1 315 9 is_stmt 1 view .LVU88
 315:Drivers/lvgl/src/extra/widgets/calendar/lv_calendar.c ****             dsc->rect_dsc->border_opa = LV_OPA_COVER;
 341              		.loc 1 315 12 is_stmt 0 view .LVU89
 342 003c 4FF48042 		mov	r2, #16384
 343 0040 218F     		ldrh	r1, [r4, #56]
 344 0042 2846     		mov	r0, r5
 345 0044 FFF7FEFF 		bl	lv_btnmatrix_has_btn_ctrl
 346              	.LVL38:
 315:Drivers/lvgl/src/extra/widgets/calendar/lv_calendar.c ****             dsc->rect_dsc->border_opa = LV_OPA_COVER;
 347              		.loc 1 315 11 view .LVU90
 348 0048 0028     		cmp	r0, #0
 349 004a E5D0     		beq	.L21
 316:Drivers/lvgl/src/extra/widgets/calendar/lv_calendar.c ****             dsc->rect_dsc->border_color = lv_theme_get_color_primary(obj);
 350              		.loc 1 316 13 is_stmt 1 view .LVU91
 316:Drivers/lvgl/src/extra/widgets/calendar/lv_calendar.c ****             dsc->rect_dsc->border_color = lv_theme_get_color_primary(obj);
 351              		.loc 1 316 16 is_stmt 0 view .LVU92
 352 004c 2369     		ldr	r3, [r4, #16]
 316:Drivers/lvgl/src/extra/widgets/calendar/lv_calendar.c ****             dsc->rect_dsc->border_color = lv_theme_get_color_primary(obj);
 353              		.loc 1 316 39 view .LVU93
 354 004e FF22     		movs	r2, #255
 355 0050 83F82220 		strb	r2, [r3, #34]
 317:Drivers/lvgl/src/extra/widgets/calendar/lv_calendar.c ****             dsc->rect_dsc->border_width += 1;
 356              		.loc 1 317 13 is_stmt 1 view .LVU94
 317:Drivers/lvgl/src/extra/widgets/calendar/lv_calendar.c ****             dsc->rect_dsc->border_width += 1;
 357              		.loc 1 317 16 is_stmt 0 view .LVU95
 358 0054 2669     		ldr	r6, [r4, #16]
 317:Drivers/lvgl/src/extra/widgets/calendar/lv_calendar.c ****             dsc->rect_dsc->border_width += 1;
 359              		.loc 1 317 43 view .LVU96
 360 0056 2846     		mov	r0, r5
 361 0058 FFF7FEFF 		bl	lv_theme_get_color_primary
 362              	.LVL39:
 363 005c F083     		strh	r0, [r6, #30]	@ movhi
 318:Drivers/lvgl/src/extra/widgets/calendar/lv_calendar.c ****         }
 364              		.loc 1 318 13 is_stmt 1 view .LVU97
 318:Drivers/lvgl/src/extra/widgets/calendar/lv_calendar.c ****         }
 365              		.loc 1 318 16 is_stmt 0 view .LVU98
 366 005e 2269     		ldr	r2, [r4, #16]
 318:Drivers/lvgl/src/extra/widgets/calendar/lv_calendar.c ****         }
ARM GAS  /var/folders/0z/tsy30v1j4xl4_7kw94k978ww0000gn/T//ccGFsGJU.s 			page 15


 367              		.loc 1 318 41 view .LVU99
 368 0060 138C     		ldrh	r3, [r2, #32]
 369 0062 0133     		adds	r3, r3, #1
 370 0064 1384     		strh	r3, [r2, #32]	@ movhi
 322:Drivers/lvgl/src/extra/widgets/calendar/lv_calendar.c **** 
 371              		.loc 1 322 1 view .LVU100
 372 0066 D7E7     		b	.L21
 373              	.LVL40:
 374              	.L23:
 301:Drivers/lvgl/src/extra/widgets/calendar/lv_calendar.c ****             dsc->rect_dsc->bg_opa = LV_OPA_TRANSP;
 375              		.loc 1 301 14 is_stmt 1 view .LVU101
 301:Drivers/lvgl/src/extra/widgets/calendar/lv_calendar.c ****             dsc->rect_dsc->bg_opa = LV_OPA_TRANSP;
 376              		.loc 1 301 17 is_stmt 0 view .LVU102
 377 0068 4022     		movs	r2, #64
 378 006a 89B2     		uxth	r1, r1
 379 006c 2846     		mov	r0, r5
 380              	.LVL41:
 301:Drivers/lvgl/src/extra/widgets/calendar/lv_calendar.c ****             dsc->rect_dsc->bg_opa = LV_OPA_TRANSP;
 381              		.loc 1 301 17 view .LVU103
 382 006e FFF7FEFF 		bl	lv_btnmatrix_has_btn_ctrl
 383              	.LVL42:
 301:Drivers/lvgl/src/extra/widgets/calendar/lv_calendar.c ****             dsc->rect_dsc->bg_opa = LV_OPA_TRANSP;
 384              		.loc 1 301 16 view .LVU104
 385 0072 0028     		cmp	r0, #0
 386 0074 DBD0     		beq	.L24
 302:Drivers/lvgl/src/extra/widgets/calendar/lv_calendar.c ****             dsc->rect_dsc->border_opa = LV_OPA_TRANSP;
 387              		.loc 1 302 13 is_stmt 1 view .LVU105
 302:Drivers/lvgl/src/extra/widgets/calendar/lv_calendar.c ****             dsc->rect_dsc->border_opa = LV_OPA_TRANSP;
 388              		.loc 1 302 16 is_stmt 0 view .LVU106
 389 0076 2269     		ldr	r2, [r4, #16]
 302:Drivers/lvgl/src/extra/widgets/calendar/lv_calendar.c ****             dsc->rect_dsc->border_opa = LV_OPA_TRANSP;
 390              		.loc 1 302 35 view .LVU107
 391 0078 0023     		movs	r3, #0
 392 007a D370     		strb	r3, [r2, #3]
 303:Drivers/lvgl/src/extra/widgets/calendar/lv_calendar.c ****             dsc->label_dsc->color = lv_palette_main(LV_PALETTE_GREY);
 393              		.loc 1 303 13 is_stmt 1 view .LVU108
 303:Drivers/lvgl/src/extra/widgets/calendar/lv_calendar.c ****             dsc->label_dsc->color = lv_palette_main(LV_PALETTE_GREY);
 394              		.loc 1 303 16 is_stmt 0 view .LVU109
 395 007c 2269     		ldr	r2, [r4, #16]
 303:Drivers/lvgl/src/extra/widgets/calendar/lv_calendar.c ****             dsc->label_dsc->color = lv_palette_main(LV_PALETTE_GREY);
 396              		.loc 1 303 39 view .LVU110
 397 007e 82F82230 		strb	r3, [r2, #34]
 304:Drivers/lvgl/src/extra/widgets/calendar/lv_calendar.c ****         }
 398              		.loc 1 304 13 is_stmt 1 view .LVU111
 304:Drivers/lvgl/src/extra/widgets/calendar/lv_calendar.c ****         }
 399              		.loc 1 304 16 is_stmt 0 view .LVU112
 400 0082 6669     		ldr	r6, [r4, #20]
 304:Drivers/lvgl/src/extra/widgets/calendar/lv_calendar.c ****         }
 401              		.loc 1 304 37 view .LVU113
 402 0084 1220     		movs	r0, #18
 403 0086 FFF7FEFF 		bl	lv_palette_main
 404              	.LVL43:
 405 008a B081     		strh	r0, [r6, #12]	@ movhi
 406 008c CFE7     		b	.L24
 407              	.L28:
 308:Drivers/lvgl/src/extra/widgets/calendar/lv_calendar.c ****             dsc->rect_dsc->bg_color = lv_theme_get_color_primary(obj);
 408              		.loc 1 308 13 is_stmt 1 view .LVU114
ARM GAS  /var/folders/0z/tsy30v1j4xl4_7kw94k978ww0000gn/T//ccGFsGJU.s 			page 16


 308:Drivers/lvgl/src/extra/widgets/calendar/lv_calendar.c ****             dsc->rect_dsc->bg_color = lv_theme_get_color_primary(obj);
 409              		.loc 1 308 16 is_stmt 0 view .LVU115
 410 008e 2369     		ldr	r3, [r4, #16]
 308:Drivers/lvgl/src/extra/widgets/calendar/lv_calendar.c ****             dsc->rect_dsc->bg_color = lv_theme_get_color_primary(obj);
 411              		.loc 1 308 35 view .LVU116
 412 0090 6622     		movs	r2, #102
 413 0092 DA70     		strb	r2, [r3, #3]
 309:Drivers/lvgl/src/extra/widgets/calendar/lv_calendar.c ****             if(lv_btnmatrix_get_selected_btn(obj) == dsc->id) {
 414              		.loc 1 309 13 is_stmt 1 view .LVU117
 309:Drivers/lvgl/src/extra/widgets/calendar/lv_calendar.c ****             if(lv_btnmatrix_get_selected_btn(obj) == dsc->id) {
 415              		.loc 1 309 16 is_stmt 0 view .LVU118
 416 0094 2669     		ldr	r6, [r4, #16]
 309:Drivers/lvgl/src/extra/widgets/calendar/lv_calendar.c ****             if(lv_btnmatrix_get_selected_btn(obj) == dsc->id) {
 417              		.loc 1 309 39 view .LVU119
 418 0096 2846     		mov	r0, r5
 419 0098 FFF7FEFF 		bl	lv_theme_get_color_primary
 420              	.LVL44:
 421 009c B080     		strh	r0, [r6, #4]	@ movhi
 310:Drivers/lvgl/src/extra/widgets/calendar/lv_calendar.c ****                 dsc->rect_dsc->bg_opa = LV_OPA_70;
 422              		.loc 1 310 13 is_stmt 1 view .LVU120
 310:Drivers/lvgl/src/extra/widgets/calendar/lv_calendar.c ****                 dsc->rect_dsc->bg_opa = LV_OPA_70;
 423              		.loc 1 310 16 is_stmt 0 view .LVU121
 424 009e 2846     		mov	r0, r5
 425 00a0 FFF7FEFF 		bl	lv_btnmatrix_get_selected_btn
 426              	.LVL45:
 310:Drivers/lvgl/src/extra/widgets/calendar/lv_calendar.c ****                 dsc->rect_dsc->bg_opa = LV_OPA_70;
 427              		.loc 1 310 57 view .LVU122
 428 00a4 A36B     		ldr	r3, [r4, #56]
 310:Drivers/lvgl/src/extra/widgets/calendar/lv_calendar.c ****                 dsc->rect_dsc->bg_opa = LV_OPA_70;
 429              		.loc 1 310 15 view .LVU123
 430 00a6 9842     		cmp	r0, r3
 431 00a8 C8D1     		bne	.L25
 311:Drivers/lvgl/src/extra/widgets/calendar/lv_calendar.c ****             }
 432              		.loc 1 311 17 is_stmt 1 view .LVU124
 311:Drivers/lvgl/src/extra/widgets/calendar/lv_calendar.c ****             }
 433              		.loc 1 311 20 is_stmt 0 view .LVU125
 434 00aa 2369     		ldr	r3, [r4, #16]
 311:Drivers/lvgl/src/extra/widgets/calendar/lv_calendar.c ****             }
 435              		.loc 1 311 39 view .LVU126
 436 00ac B222     		movs	r2, #178
 437 00ae DA70     		strb	r2, [r3, #3]
 438 00b0 C4E7     		b	.L25
 439              		.cfi_endproc
 440              	.LFE216:
 442              		.section	.text.highlight_update,"ax",%progbits
 443              		.align	1
 444              		.syntax unified
 445              		.thumb
 446              		.thumb_func
 448              	highlight_update:
 449              	.LVL46:
 450              	.LFB220:
 377:Drivers/lvgl/src/extra/widgets/calendar/lv_calendar.c **** 
 378:Drivers/lvgl/src/extra/widgets/calendar/lv_calendar.c **** static void highlight_update(lv_obj_t * obj)
 379:Drivers/lvgl/src/extra/widgets/calendar/lv_calendar.c **** {
 451              		.loc 1 379 1 is_stmt 1 view -0
 452              		.cfi_startproc
ARM GAS  /var/folders/0z/tsy30v1j4xl4_7kw94k978ww0000gn/T//ccGFsGJU.s 			page 17


 453              		@ args = 0, pretend = 0, frame = 0
 454              		@ frame_needed = 0, uses_anonymous_args = 0
 455              		.loc 1 379 1 is_stmt 0 view .LVU128
 456 0000 70B5     		push	{r4, r5, r6, lr}
 457              		.cfi_def_cfa_offset 16
 458              		.cfi_offset 4, -16
 459              		.cfi_offset 5, -12
 460              		.cfi_offset 6, -8
 461              		.cfi_offset 14, -4
 462 0002 0546     		mov	r5, r0
 380:Drivers/lvgl/src/extra/widgets/calendar/lv_calendar.c ****     lv_calendar_t * calendar = (lv_calendar_t *)obj;
 463              		.loc 1 380 5 is_stmt 1 view .LVU129
 464              	.LVL47:
 381:Drivers/lvgl/src/extra/widgets/calendar/lv_calendar.c ****     uint16_t i;
 465              		.loc 1 381 5 view .LVU130
 382:Drivers/lvgl/src/extra/widgets/calendar/lv_calendar.c **** 
 383:Drivers/lvgl/src/extra/widgets/calendar/lv_calendar.c ****     /*Clear all kind of selection*/
 384:Drivers/lvgl/src/extra/widgets/calendar/lv_calendar.c ****     lv_btnmatrix_clear_btn_ctrl_all(calendar->btnm, LV_CALENDAR_CTRL_TODAY | LV_CALENDAR_CTRL_HIGHL
 466              		.loc 1 384 5 view .LVU131
 467 0004 4FF44041 		mov	r1, #49152
 468 0008 406A     		ldr	r0, [r0, #36]
 469              	.LVL48:
 470              		.loc 1 384 5 is_stmt 0 view .LVU132
 471 000a FFF7FEFF 		bl	lv_btnmatrix_clear_btn_ctrl_all
 472              	.LVL49:
 385:Drivers/lvgl/src/extra/widgets/calendar/lv_calendar.c **** 
 386:Drivers/lvgl/src/extra/widgets/calendar/lv_calendar.c ****     uint8_t day_first = get_day_of_week(calendar->showed_date.year, calendar->showed_date.month, 1)
 473              		.loc 1 386 5 is_stmt 1 view .LVU133
 474              		.loc 1 386 25 is_stmt 0 view .LVU134
 475 000e 0122     		movs	r2, #1
 476 0010 95F92E10 		ldrsb	r1, [r5, #46]
 477 0014 A88D     		ldrh	r0, [r5, #44]
 478 0016 FFF7FEFF 		bl	get_day_of_week
 479              	.LVL50:
 480 001a 0646     		mov	r6, r0
 481              	.LVL51:
 387:Drivers/lvgl/src/extra/widgets/calendar/lv_calendar.c ****     if(calendar->highlighted_dates) {
 482              		.loc 1 387 5 is_stmt 1 view .LVU135
 483              		.loc 1 387 16 is_stmt 0 view .LVU136
 484 001c 2B6B     		ldr	r3, [r5, #48]
 485              		.loc 1 387 7 view .LVU137
 486 001e 0BB3     		cbz	r3, .L31
 388:Drivers/lvgl/src/extra/widgets/calendar/lv_calendar.c ****         for(i = 0; i < calendar->highlighted_dates_num; i++) {
 487              		.loc 1 388 15 view .LVU138
 488 0020 0024     		movs	r4, #0
 489 0022 01E0     		b	.L30
 490              	.LVL52:
 491              	.L32:
 492              		.loc 1 388 58 is_stmt 1 discriminator 2 view .LVU139
 493 0024 0134     		adds	r4, r4, #1
 494              	.LVL53:
 495              		.loc 1 388 58 is_stmt 0 discriminator 2 view .LVU140
 496 0026 A4B2     		uxth	r4, r4
 497              	.LVL54:
 498              	.L30:
 499              		.loc 1 388 22 is_stmt 1 discriminator 1 view .LVU141
 500              		.loc 1 388 32 is_stmt 0 discriminator 1 view .LVU142
ARM GAS  /var/folders/0z/tsy30v1j4xl4_7kw94k978ww0000gn/T//ccGFsGJU.s 			page 18


 501 0028 AB8E     		ldrh	r3, [r5, #52]
 502              		.loc 1 388 22 discriminator 1 view .LVU143
 503 002a A342     		cmp	r3, r4
 504 002c 1AD9     		bls	.L31
 389:Drivers/lvgl/src/extra/widgets/calendar/lv_calendar.c ****             if(calendar->highlighted_dates[i].year == calendar->showed_date.year &&
 505              		.loc 1 389 13 is_stmt 1 view .LVU144
 506              		.loc 1 389 24 is_stmt 0 view .LVU145
 507 002e 2B6B     		ldr	r3, [r5, #48]
 508              		.loc 1 389 43 view .LVU146
 509 0030 03EB8401 		add	r1, r3, r4, lsl #2
 510              		.loc 1 389 46 view .LVU147
 511 0034 33F82420 		ldrh	r2, [r3, r4, lsl #2]
 512              		.loc 1 389 76 view .LVU148
 513 0038 AB8D     		ldrh	r3, [r5, #44]
 514              		.loc 1 389 15 view .LVU149
 515 003a 9A42     		cmp	r2, r3
 516 003c F2D1     		bne	.L32
 390:Drivers/lvgl/src/extra/widgets/calendar/lv_calendar.c ****                calendar->highlighted_dates[i].month == calendar->showed_date.month) {
 517              		.loc 1 390 46 discriminator 1 view .LVU150
 518 003e 91F90220 		ldrsb	r2, [r1, #2]
 519              		.loc 1 390 77 discriminator 1 view .LVU151
 520 0042 95F92E30 		ldrsb	r3, [r5, #46]
 389:Drivers/lvgl/src/extra/widgets/calendar/lv_calendar.c ****             if(calendar->highlighted_dates[i].year == calendar->showed_date.year &&
 521              		.loc 1 389 82 discriminator 1 view .LVU152
 522 0046 9A42     		cmp	r2, r3
 523 0048 ECD1     		bne	.L32
 391:Drivers/lvgl/src/extra/widgets/calendar/lv_calendar.c ****                 lv_btnmatrix_set_btn_ctrl(calendar->btnm, calendar->highlighted_dates[i].day - 1 + 
 524              		.loc 1 391 17 is_stmt 1 view .LVU153
 525              		.loc 1 391 89 is_stmt 0 view .LVU154
 526 004a 91F90310 		ldrsb	r1, [r1, #3]
 527              		.loc 1 391 98 view .LVU155
 528 004e 16FA81F1 		uxtah	r1, r6, r1
 529 0052 89B2     		uxth	r1, r1
 530              		.loc 1 391 17 view .LVU156
 531 0054 0631     		adds	r1, r1, #6
 532 0056 4FF40042 		mov	r2, #32768
 533 005a 89B2     		uxth	r1, r1
 534 005c 686A     		ldr	r0, [r5, #36]
 535 005e FFF7FEFF 		bl	lv_btnmatrix_set_btn_ctrl
 536              	.LVL55:
 537 0062 DFE7     		b	.L32
 538              	.LVL56:
 539              	.L31:
 392:Drivers/lvgl/src/extra/widgets/calendar/lv_calendar.c ****                                           LV_CALENDAR_CTRL_HIGHLIGHT);
 393:Drivers/lvgl/src/extra/widgets/calendar/lv_calendar.c ****             }
 394:Drivers/lvgl/src/extra/widgets/calendar/lv_calendar.c ****         }
 395:Drivers/lvgl/src/extra/widgets/calendar/lv_calendar.c ****     }
 396:Drivers/lvgl/src/extra/widgets/calendar/lv_calendar.c **** 
 397:Drivers/lvgl/src/extra/widgets/calendar/lv_calendar.c ****     if(calendar->showed_date.year == calendar->today.year && calendar->showed_date.month == calenda
 540              		.loc 1 397 5 is_stmt 1 view .LVU157
 541              		.loc 1 397 59 is_stmt 0 view .LVU158
 542 0064 EB6A     		ldr	r3, [r5, #44]
 543 0066 AA6A     		ldr	r2, [r5, #40]
 544              		.loc 1 397 7 view .LVU159
 545 0068 5340     		eors	r3, r3, r2
 546 006a 33F07F43 		bics	r3, r3, #-16777216
 547 006e 00D0     		beq	.L37
ARM GAS  /var/folders/0z/tsy30v1j4xl4_7kw94k978ww0000gn/T//ccGFsGJU.s 			page 19


 548              	.L29:
 398:Drivers/lvgl/src/extra/widgets/calendar/lv_calendar.c ****         lv_btnmatrix_set_btn_ctrl(calendar->btnm, calendar->today.day - 1 + day_first + 7, LV_CALEN
 399:Drivers/lvgl/src/extra/widgets/calendar/lv_calendar.c ****     }
 400:Drivers/lvgl/src/extra/widgets/calendar/lv_calendar.c **** }
 549              		.loc 1 400 1 view .LVU160
 550 0070 70BD     		pop	{r4, r5, r6, pc}
 551              	.LVL57:
 552              	.L37:
 398:Drivers/lvgl/src/extra/widgets/calendar/lv_calendar.c ****         lv_btnmatrix_set_btn_ctrl(calendar->btnm, calendar->today.day - 1 + day_first + 7, LV_CALEN
 553              		.loc 1 398 9 is_stmt 1 view .LVU161
 398:Drivers/lvgl/src/extra/widgets/calendar/lv_calendar.c ****         lv_btnmatrix_set_btn_ctrl(calendar->btnm, calendar->today.day - 1 + day_first + 7, LV_CALEN
 554              		.loc 1 398 66 is_stmt 0 view .LVU162
 555 0072 95F92B10 		ldrsb	r1, [r5, #43]
 398:Drivers/lvgl/src/extra/widgets/calendar/lv_calendar.c ****         lv_btnmatrix_set_btn_ctrl(calendar->btnm, calendar->today.day - 1 + day_first + 7, LV_CALEN
 556              		.loc 1 398 75 view .LVU163
 557 0076 16FA81F1 		uxtah	r1, r6, r1
 558 007a 89B2     		uxth	r1, r1
 398:Drivers/lvgl/src/extra/widgets/calendar/lv_calendar.c ****         lv_btnmatrix_set_btn_ctrl(calendar->btnm, calendar->today.day - 1 + day_first + 7, LV_CALEN
 559              		.loc 1 398 9 view .LVU164
 560 007c 0631     		adds	r1, r1, #6
 561 007e 4FF48042 		mov	r2, #16384
 562 0082 89B2     		uxth	r1, r1
 563 0084 686A     		ldr	r0, [r5, #36]
 564 0086 FFF7FEFF 		bl	lv_btnmatrix_set_btn_ctrl
 565              	.LVL58:
 566              		.loc 1 400 1 view .LVU165
 567 008a F1E7     		b	.L29
 568              		.cfi_endproc
 569              	.LFE220:
 571              		.section	.text.lv_calendar_create,"ax",%progbits
 572              		.align	1
 573              		.global	lv_calendar_create
 574              		.syntax unified
 575              		.thumb
 576              		.thumb_func
 578              	lv_calendar_create:
 579              	.LVL59:
 580              	.LFB204:
  61:Drivers/lvgl/src/extra/widgets/calendar/lv_calendar.c ****     LV_LOG_INFO("begin");
 581              		.loc 1 61 1 is_stmt 1 view -0
 582              		.cfi_startproc
 583              		@ args = 0, pretend = 0, frame = 0
 584              		@ frame_needed = 0, uses_anonymous_args = 0
  61:Drivers/lvgl/src/extra/widgets/calendar/lv_calendar.c ****     LV_LOG_INFO("begin");
 585              		.loc 1 61 1 is_stmt 0 view .LVU167
 586 0000 10B5     		push	{r4, lr}
 587              		.cfi_def_cfa_offset 8
 588              		.cfi_offset 4, -8
 589              		.cfi_offset 14, -4
 590 0002 0146     		mov	r1, r0
  62:Drivers/lvgl/src/extra/widgets/calendar/lv_calendar.c ****     lv_obj_t * obj = lv_obj_class_create_obj(&lv_calendar_class, parent);
 591              		.loc 1 62 5 is_stmt 1 view .LVU168
  62:Drivers/lvgl/src/extra/widgets/calendar/lv_calendar.c ****     lv_obj_t * obj = lv_obj_class_create_obj(&lv_calendar_class, parent);
 592              		.loc 1 62 5 view .LVU169
  62:Drivers/lvgl/src/extra/widgets/calendar/lv_calendar.c ****     lv_obj_t * obj = lv_obj_class_create_obj(&lv_calendar_class, parent);
 593              		.loc 1 62 5 view .LVU170
  63:Drivers/lvgl/src/extra/widgets/calendar/lv_calendar.c ****     lv_obj_class_init_obj(obj);
ARM GAS  /var/folders/0z/tsy30v1j4xl4_7kw94k978ww0000gn/T//ccGFsGJU.s 			page 20


 594              		.loc 1 63 5 view .LVU171
  63:Drivers/lvgl/src/extra/widgets/calendar/lv_calendar.c ****     lv_obj_class_init_obj(obj);
 595              		.loc 1 63 22 is_stmt 0 view .LVU172
 596 0004 0348     		ldr	r0, .L40
 597              	.LVL60:
  63:Drivers/lvgl/src/extra/widgets/calendar/lv_calendar.c ****     lv_obj_class_init_obj(obj);
 598              		.loc 1 63 22 view .LVU173
 599 0006 FFF7FEFF 		bl	lv_obj_class_create_obj
 600              	.LVL61:
  63:Drivers/lvgl/src/extra/widgets/calendar/lv_calendar.c ****     lv_obj_class_init_obj(obj);
 601              		.loc 1 63 22 view .LVU174
 602 000a 0446     		mov	r4, r0
 603              	.LVL62:
  64:Drivers/lvgl/src/extra/widgets/calendar/lv_calendar.c ****     return obj;
 604              		.loc 1 64 5 is_stmt 1 view .LVU175
 605 000c FFF7FEFF 		bl	lv_obj_class_init_obj
 606              	.LVL63:
  65:Drivers/lvgl/src/extra/widgets/calendar/lv_calendar.c **** }
 607              		.loc 1 65 5 view .LVU176
  66:Drivers/lvgl/src/extra/widgets/calendar/lv_calendar.c **** 
 608              		.loc 1 66 1 is_stmt 0 view .LVU177
 609 0010 2046     		mov	r0, r4
 610 0012 10BD     		pop	{r4, pc}
 611              	.LVL64:
 612              	.L41:
  66:Drivers/lvgl/src/extra/widgets/calendar/lv_calendar.c **** 
 613              		.loc 1 66 1 view .LVU178
 614              		.align	2
 615              	.L40:
 616 0014 00000000 		.word	.LANCHOR0
 617              		.cfi_endproc
 618              	.LFE204:
 620              		.section	.text.lv_calendar_set_day_names,"ax",%progbits
 621              		.align	1
 622              		.global	lv_calendar_set_day_names
 623              		.syntax unified
 624              		.thumb
 625              		.thumb_func
 627              	lv_calendar_set_day_names:
 628              	.LVL65:
 629              	.LFB205:
  73:Drivers/lvgl/src/extra/widgets/calendar/lv_calendar.c ****     LV_ASSERT_OBJ(obj, MY_CLASS);
 630              		.loc 1 73 1 is_stmt 1 view -0
 631              		.cfi_startproc
 632              		@ args = 0, pretend = 0, frame = 0
 633              		@ frame_needed = 0, uses_anonymous_args = 0
  73:Drivers/lvgl/src/extra/widgets/calendar/lv_calendar.c ****     LV_ASSERT_OBJ(obj, MY_CLASS);
 634              		.loc 1 73 1 is_stmt 0 view .LVU180
 635 0000 10B5     		push	{r4, lr}
 636              		.cfi_def_cfa_offset 8
 637              		.cfi_offset 4, -8
 638              		.cfi_offset 14, -4
  74:Drivers/lvgl/src/extra/widgets/calendar/lv_calendar.c ****     lv_calendar_t * calendar = (lv_calendar_t *)obj;
 639              		.loc 1 74 5 is_stmt 1 view .LVU181
  74:Drivers/lvgl/src/extra/widgets/calendar/lv_calendar.c ****     lv_calendar_t * calendar = (lv_calendar_t *)obj;
 640              		.loc 1 74 5 view .LVU182
  74:Drivers/lvgl/src/extra/widgets/calendar/lv_calendar.c ****     lv_calendar_t * calendar = (lv_calendar_t *)obj;
ARM GAS  /var/folders/0z/tsy30v1j4xl4_7kw94k978ww0000gn/T//ccGFsGJU.s 			page 21


 641              		.loc 1 74 5 view .LVU183
  75:Drivers/lvgl/src/extra/widgets/calendar/lv_calendar.c **** 
 642              		.loc 1 75 5 view .LVU184
 643              	.LVL66:
  77:Drivers/lvgl/src/extra/widgets/calendar/lv_calendar.c ****     for(i = 0; i < 7; i++) {
 644              		.loc 1 77 5 view .LVU185
  78:Drivers/lvgl/src/extra/widgets/calendar/lv_calendar.c ****         calendar->map[i] = day_names[i];
 645              		.loc 1 78 5 view .LVU186
  78:Drivers/lvgl/src/extra/widgets/calendar/lv_calendar.c ****         calendar->map[i] = day_names[i];
 646              		.loc 1 78 11 is_stmt 0 view .LVU187
 647 0002 0023     		movs	r3, #0
  78:Drivers/lvgl/src/extra/widgets/calendar/lv_calendar.c ****         calendar->map[i] = day_names[i];
 648              		.loc 1 78 5 view .LVU188
 649 0004 06E0     		b	.L43
 650              	.LVL67:
 651              	.L44:
  79:Drivers/lvgl/src/extra/widgets/calendar/lv_calendar.c ****     }
 652              		.loc 1 79 9 is_stmt 1 discriminator 3 view .LVU189
  79:Drivers/lvgl/src/extra/widgets/calendar/lv_calendar.c ****     }
 653              		.loc 1 79 26 is_stmt 0 discriminator 3 view .LVU190
 654 0006 03F10E02 		add	r2, r3, #14
 655 000a 51F82340 		ldr	r4, [r1, r3, lsl #2]
 656 000e 40F82240 		str	r4, [r0, r2, lsl #2]
  78:Drivers/lvgl/src/extra/widgets/calendar/lv_calendar.c ****         calendar->map[i] = day_names[i];
 657              		.loc 1 78 24 is_stmt 1 discriminator 3 view .LVU191
 658 0012 0133     		adds	r3, r3, #1
 659              	.LVL68:
 660              	.L43:
  78:Drivers/lvgl/src/extra/widgets/calendar/lv_calendar.c ****         calendar->map[i] = day_names[i];
 661              		.loc 1 78 18 discriminator 1 view .LVU192
 662 0014 062B     		cmp	r3, #6
 663 0016 F6D9     		bls	.L44
  81:Drivers/lvgl/src/extra/widgets/calendar/lv_calendar.c **** }
 664              		.loc 1 81 5 view .LVU193
 665 0018 FFF7FEFF 		bl	lv_obj_invalidate
 666              	.LVL69:
  82:Drivers/lvgl/src/extra/widgets/calendar/lv_calendar.c **** 
 667              		.loc 1 82 1 is_stmt 0 view .LVU194
 668 001c 10BD     		pop	{r4, pc}
 669              		.cfi_endproc
 670              	.LFE205:
 672              		.section	.text.lv_calendar_set_today_date,"ax",%progbits
 673              		.align	1
 674              		.global	lv_calendar_set_today_date
 675              		.syntax unified
 676              		.thumb
 677              		.thumb_func
 679              	lv_calendar_set_today_date:
 680              	.LVL70:
 681              	.LFB206:
  85:Drivers/lvgl/src/extra/widgets/calendar/lv_calendar.c ****     LV_ASSERT_OBJ(obj, MY_CLASS);
 682              		.loc 1 85 1 is_stmt 1 view -0
 683              		.cfi_startproc
 684              		@ args = 0, pretend = 0, frame = 0
 685              		@ frame_needed = 0, uses_anonymous_args = 0
  85:Drivers/lvgl/src/extra/widgets/calendar/lv_calendar.c ****     LV_ASSERT_OBJ(obj, MY_CLASS);
 686              		.loc 1 85 1 is_stmt 0 view .LVU196
ARM GAS  /var/folders/0z/tsy30v1j4xl4_7kw94k978ww0000gn/T//ccGFsGJU.s 			page 22


 687 0000 08B5     		push	{r3, lr}
 688              		.cfi_def_cfa_offset 8
 689              		.cfi_offset 3, -8
 690              		.cfi_offset 14, -4
  86:Drivers/lvgl/src/extra/widgets/calendar/lv_calendar.c ****     lv_calendar_t * calendar = (lv_calendar_t *)obj;
 691              		.loc 1 86 5 is_stmt 1 view .LVU197
  86:Drivers/lvgl/src/extra/widgets/calendar/lv_calendar.c ****     lv_calendar_t * calendar = (lv_calendar_t *)obj;
 692              		.loc 1 86 5 view .LVU198
  86:Drivers/lvgl/src/extra/widgets/calendar/lv_calendar.c ****     lv_calendar_t * calendar = (lv_calendar_t *)obj;
 693              		.loc 1 86 5 view .LVU199
  87:Drivers/lvgl/src/extra/widgets/calendar/lv_calendar.c **** 
 694              		.loc 1 87 5 view .LVU200
 695              	.LVL71:
  89:Drivers/lvgl/src/extra/widgets/calendar/lv_calendar.c ****     calendar->today.month        = month;
 696              		.loc 1 89 5 view .LVU201
  89:Drivers/lvgl/src/extra/widgets/calendar/lv_calendar.c ****     calendar->today.month        = month;
 697              		.loc 1 89 34 is_stmt 0 view .LVU202
 698 0002 0185     		strh	r1, [r0, #40]	@ movhi
  90:Drivers/lvgl/src/extra/widgets/calendar/lv_calendar.c ****     calendar->today.day          = day;
 699              		.loc 1 90 5 is_stmt 1 view .LVU203
  90:Drivers/lvgl/src/extra/widgets/calendar/lv_calendar.c ****     calendar->today.day          = day;
 700              		.loc 1 90 34 is_stmt 0 view .LVU204
 701 0004 80F82A20 		strb	r2, [r0, #42]
  91:Drivers/lvgl/src/extra/widgets/calendar/lv_calendar.c **** 
 702              		.loc 1 91 5 is_stmt 1 view .LVU205
  91:Drivers/lvgl/src/extra/widgets/calendar/lv_calendar.c **** 
 703              		.loc 1 91 34 is_stmt 0 view .LVU206
 704 0008 80F82B30 		strb	r3, [r0, #43]
  93:Drivers/lvgl/src/extra/widgets/calendar/lv_calendar.c **** }
 705              		.loc 1 93 5 is_stmt 1 view .LVU207
 706 000c FFF7FEFF 		bl	highlight_update
 707              	.LVL72:
  94:Drivers/lvgl/src/extra/widgets/calendar/lv_calendar.c **** 
 708              		.loc 1 94 1 is_stmt 0 view .LVU208
 709 0010 08BD     		pop	{r3, pc}
 710              		.cfi_endproc
 711              	.LFE206:
 713              		.section	.text.lv_calendar_set_highlighted_dates,"ax",%progbits
 714              		.align	1
 715              		.global	lv_calendar_set_highlighted_dates
 716              		.syntax unified
 717              		.thumb
 718              		.thumb_func
 720              	lv_calendar_set_highlighted_dates:
 721              	.LVL73:
 722              	.LFB207:
  97:Drivers/lvgl/src/extra/widgets/calendar/lv_calendar.c ****     LV_ASSERT_NULL(highlighted);
 723              		.loc 1 97 1 is_stmt 1 view -0
 724              		.cfi_startproc
 725              		@ args = 0, pretend = 0, frame = 0
 726              		@ frame_needed = 0, uses_anonymous_args = 0
  98:Drivers/lvgl/src/extra/widgets/calendar/lv_calendar.c **** 
 727              		.loc 1 98 5 view .LVU210
  98:Drivers/lvgl/src/extra/widgets/calendar/lv_calendar.c **** 
 728              		.loc 1 98 5 view .LVU211
 729 0000 29B1     		cbz	r1, .L50
  97:Drivers/lvgl/src/extra/widgets/calendar/lv_calendar.c ****     LV_ASSERT_NULL(highlighted);
ARM GAS  /var/folders/0z/tsy30v1j4xl4_7kw94k978ww0000gn/T//ccGFsGJU.s 			page 23


 730              		.loc 1 97 1 is_stmt 0 discriminator 2 view .LVU212
 731 0002 08B5     		push	{r3, lr}
 732              		.cfi_def_cfa_offset 8
 733              		.cfi_offset 3, -8
 734              		.cfi_offset 14, -4
  98:Drivers/lvgl/src/extra/widgets/calendar/lv_calendar.c **** 
 735              		.loc 1 98 5 is_stmt 1 discriminator 2 view .LVU213
  98:Drivers/lvgl/src/extra/widgets/calendar/lv_calendar.c **** 
 736              		.loc 1 98 32 discriminator 2 view .LVU214
 100:Drivers/lvgl/src/extra/widgets/calendar/lv_calendar.c ****     lv_calendar_t * calendar = (lv_calendar_t *)obj;
 737              		.loc 1 100 5 discriminator 2 view .LVU215
 100:Drivers/lvgl/src/extra/widgets/calendar/lv_calendar.c ****     lv_calendar_t * calendar = (lv_calendar_t *)obj;
 738              		.loc 1 100 5 discriminator 2 view .LVU216
 100:Drivers/lvgl/src/extra/widgets/calendar/lv_calendar.c ****     lv_calendar_t * calendar = (lv_calendar_t *)obj;
 739              		.loc 1 100 5 discriminator 2 view .LVU217
 101:Drivers/lvgl/src/extra/widgets/calendar/lv_calendar.c **** 
 740              		.loc 1 101 5 discriminator 2 view .LVU218
 741              	.LVL74:
 103:Drivers/lvgl/src/extra/widgets/calendar/lv_calendar.c ****     calendar->highlighted_dates_num = date_num;
 742              		.loc 1 103 5 discriminator 2 view .LVU219
 103:Drivers/lvgl/src/extra/widgets/calendar/lv_calendar.c ****     calendar->highlighted_dates_num = date_num;
 743              		.loc 1 103 37 is_stmt 0 discriminator 2 view .LVU220
 744 0004 0163     		str	r1, [r0, #48]
 104:Drivers/lvgl/src/extra/widgets/calendar/lv_calendar.c **** 
 745              		.loc 1 104 5 is_stmt 1 discriminator 2 view .LVU221
 104:Drivers/lvgl/src/extra/widgets/calendar/lv_calendar.c **** 
 746              		.loc 1 104 37 is_stmt 0 discriminator 2 view .LVU222
 747 0006 8286     		strh	r2, [r0, #52]	@ movhi
 106:Drivers/lvgl/src/extra/widgets/calendar/lv_calendar.c **** }
 748              		.loc 1 106 5 is_stmt 1 discriminator 2 view .LVU223
 749 0008 FFF7FEFF 		bl	highlight_update
 750              	.LVL75:
 107:Drivers/lvgl/src/extra/widgets/calendar/lv_calendar.c **** 
 751              		.loc 1 107 1 is_stmt 0 discriminator 2 view .LVU224
 752 000c 08BD     		pop	{r3, pc}
 753              	.LVL76:
 754              	.L50:
 755              		.cfi_def_cfa_offset 0
 756              		.cfi_restore 3
 757              		.cfi_restore 14
  98:Drivers/lvgl/src/extra/widgets/calendar/lv_calendar.c **** 
 758              		.loc 1 98 5 is_stmt 1 discriminator 1 view .LVU225
  98:Drivers/lvgl/src/extra/widgets/calendar/lv_calendar.c **** 
 759              		.loc 1 98 5 discriminator 1 view .LVU226
  98:Drivers/lvgl/src/extra/widgets/calendar/lv_calendar.c **** 
 760              		.loc 1 98 5 discriminator 1 view .LVU227
  98:Drivers/lvgl/src/extra/widgets/calendar/lv_calendar.c **** 
 761              		.loc 1 98 5 discriminator 1 view .LVU228
  98:Drivers/lvgl/src/extra/widgets/calendar/lv_calendar.c **** 
 762              		.loc 1 98 5 discriminator 1 view .LVU229
 763 000e FEE7     		b	.L50
 764              		.cfi_endproc
 765              	.LFE207:
 767              		.section	.rodata.lv_calendar_set_showed_date.str1.4,"aMS",%progbits,1
 768              		.align	2
 769              	.LC0:
 770 0000 256400   		.ascii	"%d\000"
ARM GAS  /var/folders/0z/tsy30v1j4xl4_7kw94k978ww0000gn/T//ccGFsGJU.s 			page 24


 771              		.section	.text.lv_calendar_set_showed_date,"ax",%progbits
 772              		.align	1
 773              		.global	lv_calendar_set_showed_date
 774              		.syntax unified
 775              		.thumb
 776              		.thumb_func
 778              	lv_calendar_set_showed_date:
 779              	.LVL77:
 780              	.LFB208:
 110:Drivers/lvgl/src/extra/widgets/calendar/lv_calendar.c ****     LV_ASSERT_OBJ(obj, MY_CLASS);
 781              		.loc 1 110 1 view -0
 782              		.cfi_startproc
 783              		@ args = 0, pretend = 0, frame = 8
 784              		@ frame_needed = 0, uses_anonymous_args = 0
 110:Drivers/lvgl/src/extra/widgets/calendar/lv_calendar.c ****     LV_ASSERT_OBJ(obj, MY_CLASS);
 785              		.loc 1 110 1 is_stmt 0 view .LVU231
 786 0000 2DE9F04F 		push	{r4, r5, r6, r7, r8, r9, r10, fp, lr}
 787              		.cfi_def_cfa_offset 36
 788              		.cfi_offset 4, -36
 789              		.cfi_offset 5, -32
 790              		.cfi_offset 6, -28
 791              		.cfi_offset 7, -24
 792              		.cfi_offset 8, -20
 793              		.cfi_offset 9, -16
 794              		.cfi_offset 10, -12
 795              		.cfi_offset 11, -8
 796              		.cfi_offset 14, -4
 797 0004 83B0     		sub	sp, sp, #12
 798              		.cfi_def_cfa_offset 48
 799 0006 0446     		mov	r4, r0
 111:Drivers/lvgl/src/extra/widgets/calendar/lv_calendar.c ****     lv_calendar_t * calendar = (lv_calendar_t *)obj;
 800              		.loc 1 111 5 is_stmt 1 view .LVU232
 111:Drivers/lvgl/src/extra/widgets/calendar/lv_calendar.c ****     lv_calendar_t * calendar = (lv_calendar_t *)obj;
 801              		.loc 1 111 5 view .LVU233
 111:Drivers/lvgl/src/extra/widgets/calendar/lv_calendar.c ****     lv_calendar_t * calendar = (lv_calendar_t *)obj;
 802              		.loc 1 111 5 view .LVU234
 112:Drivers/lvgl/src/extra/widgets/calendar/lv_calendar.c **** 
 803              		.loc 1 112 5 view .LVU235
 804              	.LVL78:
 114:Drivers/lvgl/src/extra/widgets/calendar/lv_calendar.c ****     calendar->showed_date.month  = month;
 805              		.loc 1 114 5 view .LVU236
 114:Drivers/lvgl/src/extra/widgets/calendar/lv_calendar.c ****     calendar->showed_date.month  = month;
 806              		.loc 1 114 34 is_stmt 0 view .LVU237
 807 0008 1FFA81F9 		uxth	r9, r1
 808 000c A0F82C90 		strh	r9, [r0, #44]	@ movhi
 115:Drivers/lvgl/src/extra/widgets/calendar/lv_calendar.c ****     calendar->showed_date.day    = 1;
 809              		.loc 1 115 5 is_stmt 1 view .LVU238
 115:Drivers/lvgl/src/extra/widgets/calendar/lv_calendar.c ****     calendar->showed_date.day    = 1;
 810              		.loc 1 115 34 is_stmt 0 view .LVU239
 811 0010 4FFA82FA 		sxtb	r10, r2
 812 0014 80F82EA0 		strb	r10, [r0, #46]
 116:Drivers/lvgl/src/extra/widgets/calendar/lv_calendar.c **** 
 813              		.loc 1 116 5 is_stmt 1 view .LVU240
 116:Drivers/lvgl/src/extra/widgets/calendar/lv_calendar.c **** 
 814              		.loc 1 116 34 is_stmt 0 view .LVU241
 815 0018 0123     		movs	r3, #1
 816 001a 80F82F30 		strb	r3, [r0, #47]
ARM GAS  /var/folders/0z/tsy30v1j4xl4_7kw94k978ww0000gn/T//ccGFsGJU.s 			page 25


 118:Drivers/lvgl/src/extra/widgets/calendar/lv_calendar.c ****     d.year = calendar->showed_date.year;
 817              		.loc 1 118 5 is_stmt 1 view .LVU242
 119:Drivers/lvgl/src/extra/widgets/calendar/lv_calendar.c ****     d.month = calendar->showed_date.month;
 818              		.loc 1 119 5 view .LVU243
 119:Drivers/lvgl/src/extra/widgets/calendar/lv_calendar.c ****     d.month = calendar->showed_date.month;
 819              		.loc 1 119 12 is_stmt 0 view .LVU244
 820 001e ADF80490 		strh	r9, [sp, #4]	@ movhi
 120:Drivers/lvgl/src/extra/widgets/calendar/lv_calendar.c ****     d.day = calendar->showed_date.day;
 821              		.loc 1 120 5 is_stmt 1 view .LVU245
 120:Drivers/lvgl/src/extra/widgets/calendar/lv_calendar.c ****     d.day = calendar->showed_date.day;
 822              		.loc 1 120 13 is_stmt 0 view .LVU246
 823 0022 8DF806A0 		strb	r10, [sp, #6]
 121:Drivers/lvgl/src/extra/widgets/calendar/lv_calendar.c **** 
 824              		.loc 1 121 5 is_stmt 1 view .LVU247
 121:Drivers/lvgl/src/extra/widgets/calendar/lv_calendar.c **** 
 825              		.loc 1 121 11 is_stmt 0 view .LVU248
 826 0026 8DF80730 		strb	r3, [sp, #7]
 123:Drivers/lvgl/src/extra/widgets/calendar/lv_calendar.c **** 
 827              		.loc 1 123 5 is_stmt 1 view .LVU249
 126:Drivers/lvgl/src/extra/widgets/calendar/lv_calendar.c ****     for(i = 0; i < 7; i++) {
 828              		.loc 1 126 5 view .LVU250
 829 002a 4021     		movs	r1, #64
 830              	.LVL79:
 126:Drivers/lvgl/src/extra/widgets/calendar/lv_calendar.c ****     for(i = 0; i < 7; i++) {
 831              		.loc 1 126 5 is_stmt 0 view .LVU251
 832 002c 406A     		ldr	r0, [r0, #36]
 833              	.LVL80:
 126:Drivers/lvgl/src/extra/widgets/calendar/lv_calendar.c ****     for(i = 0; i < 7; i++) {
 834              		.loc 1 126 5 view .LVU252
 835 002e FFF7FEFF 		bl	lv_btnmatrix_clear_btn_ctrl_all
 836              	.LVL81:
 127:Drivers/lvgl/src/extra/widgets/calendar/lv_calendar.c ****         lv_btnmatrix_set_btn_ctrl(calendar->btnm, i, LV_BTNMATRIX_CTRL_DISABLED);
 837              		.loc 1 127 5 is_stmt 1 view .LVU253
 127:Drivers/lvgl/src/extra/widgets/calendar/lv_calendar.c ****         lv_btnmatrix_set_btn_ctrl(calendar->btnm, i, LV_BTNMATRIX_CTRL_DISABLED);
 838              		.loc 1 127 11 is_stmt 0 view .LVU254
 839 0032 0025     		movs	r5, #0
 127:Drivers/lvgl/src/extra/widgets/calendar/lv_calendar.c ****         lv_btnmatrix_set_btn_ctrl(calendar->btnm, i, LV_BTNMATRIX_CTRL_DISABLED);
 840              		.loc 1 127 5 view .LVU255
 841 0034 05E0     		b	.L54
 842              	.LVL82:
 843              	.L55:
 128:Drivers/lvgl/src/extra/widgets/calendar/lv_calendar.c ****     }
 844              		.loc 1 128 9 is_stmt 1 discriminator 3 view .LVU256
 845 0036 4022     		movs	r2, #64
 846 0038 A9B2     		uxth	r1, r5
 847 003a 606A     		ldr	r0, [r4, #36]
 848 003c FFF7FEFF 		bl	lv_btnmatrix_set_btn_ctrl
 849              	.LVL83:
 127:Drivers/lvgl/src/extra/widgets/calendar/lv_calendar.c ****         lv_btnmatrix_set_btn_ctrl(calendar->btnm, i, LV_BTNMATRIX_CTRL_DISABLED);
 850              		.loc 1 127 24 discriminator 3 view .LVU257
 851 0040 0135     		adds	r5, r5, #1
 852              	.LVL84:
 853              	.L54:
 127:Drivers/lvgl/src/extra/widgets/calendar/lv_calendar.c ****         lv_btnmatrix_set_btn_ctrl(calendar->btnm, i, LV_BTNMATRIX_CTRL_DISABLED);
 854              		.loc 1 127 18 discriminator 1 view .LVU258
 855 0042 062D     		cmp	r5, #6
 856 0044 F7D9     		bls	.L55
ARM GAS  /var/folders/0z/tsy30v1j4xl4_7kw94k978ww0000gn/T//ccGFsGJU.s 			page 26


 131:Drivers/lvgl/src/extra/widgets/calendar/lv_calendar.c ****     uint8_t day_first = get_day_of_week(d.year, d.month, 1);
 857              		.loc 1 131 5 view .LVU259
 131:Drivers/lvgl/src/extra/widgets/calendar/lv_calendar.c ****     uint8_t day_first = get_day_of_week(d.year, d.month, 1);
 858              		.loc 1 131 26 is_stmt 0 view .LVU260
 859 0046 5146     		mov	r1, r10
 860 0048 4846     		mov	r0, r9
 861 004a FFF7FEFF 		bl	get_month_length
 862              	.LVL85:
 863 004e 8346     		mov	fp, r0
 864              	.LVL86:
 132:Drivers/lvgl/src/extra/widgets/calendar/lv_calendar.c ****     uint8_t c;
 865              		.loc 1 132 5 is_stmt 1 view .LVU261
 132:Drivers/lvgl/src/extra/widgets/calendar/lv_calendar.c ****     uint8_t c;
 866              		.loc 1 132 25 is_stmt 0 view .LVU262
 867 0050 0122     		movs	r2, #1
 868 0052 5146     		mov	r1, r10
 869 0054 4846     		mov	r0, r9
 870 0056 FFF7FEFF 		bl	get_day_of_week
 871              	.LVL87:
 872 005a 0746     		mov	r7, r0
 873              	.LVL88:
 133:Drivers/lvgl/src/extra/widgets/calendar/lv_calendar.c ****     for(i = day_first, c = 1; i < act_mo_len + day_first; i++, c++) {
 874              		.loc 1 133 5 is_stmt 1 view .LVU263
 134:Drivers/lvgl/src/extra/widgets/calendar/lv_calendar.c ****         lv_snprintf(calendar->nums[i], sizeof(calendar->nums[0]), "%d", c);
 875              		.loc 1 134 5 view .LVU264
 134:Drivers/lvgl/src/extra/widgets/calendar/lv_calendar.c ****         lv_snprintf(calendar->nums[i], sizeof(calendar->nums[0]), "%d", c);
 876              		.loc 1 134 11 is_stmt 0 view .LVU265
 877 005c 8046     		mov	r8, r0
 134:Drivers/lvgl/src/extra/widgets/calendar/lv_calendar.c ****         lv_snprintf(calendar->nums[i], sizeof(calendar->nums[0]), "%d", c);
 878              		.loc 1 134 26 view .LVU266
 879 005e 0126     		movs	r6, #1
 134:Drivers/lvgl/src/extra/widgets/calendar/lv_calendar.c ****         lv_snprintf(calendar->nums[i], sizeof(calendar->nums[0]), "%d", c);
 880              		.loc 1 134 5 view .LVU267
 881 0060 0CE0     		b	.L56
 882              	.LVL89:
 883              	.L57:
 135:Drivers/lvgl/src/extra/widgets/calendar/lv_calendar.c ****     }
 884              		.loc 1 135 9 is_stmt 1 discriminator 3 view .LVU268
 135:Drivers/lvgl/src/extra/widgets/calendar/lv_calendar.c ****     }
 885              		.loc 1 135 35 is_stmt 0 discriminator 3 view .LVU269
 886 0062 08F14600 		add	r0, r8, #70
 135:Drivers/lvgl/src/extra/widgets/calendar/lv_calendar.c ****     }
 887              		.loc 1 135 9 discriminator 3 view .LVU270
 888 0066 3346     		mov	r3, r6
 889 0068 384A     		ldr	r2, .L70
 890 006a 0421     		movs	r1, #4
 891 006c 04EB8000 		add	r0, r4, r0, lsl #2
 892 0070 FFF7FEFF 		bl	lv_snprintf
 893              	.LVL90:
 134:Drivers/lvgl/src/extra/widgets/calendar/lv_calendar.c ****         lv_snprintf(calendar->nums[i], sizeof(calendar->nums[0]), "%d", c);
 894              		.loc 1 134 62 is_stmt 1 discriminator 3 view .LVU271
 134:Drivers/lvgl/src/extra/widgets/calendar/lv_calendar.c ****         lv_snprintf(calendar->nums[i], sizeof(calendar->nums[0]), "%d", c);
 895              		.loc 1 134 60 is_stmt 0 discriminator 3 view .LVU272
 896 0074 08F10108 		add	r8, r8, #1
 897              	.LVL91:
 134:Drivers/lvgl/src/extra/widgets/calendar/lv_calendar.c ****         lv_snprintf(calendar->nums[i], sizeof(calendar->nums[0]), "%d", c);
 898              		.loc 1 134 65 discriminator 3 view .LVU273
ARM GAS  /var/folders/0z/tsy30v1j4xl4_7kw94k978ww0000gn/T//ccGFsGJU.s 			page 27


 899 0078 0136     		adds	r6, r6, #1
 900              	.LVL92:
 134:Drivers/lvgl/src/extra/widgets/calendar/lv_calendar.c ****         lv_snprintf(calendar->nums[i], sizeof(calendar->nums[0]), "%d", c);
 901              		.loc 1 134 65 discriminator 3 view .LVU274
 902 007a F6B2     		uxtb	r6, r6
 903              	.LVL93:
 904              	.L56:
 134:Drivers/lvgl/src/extra/widgets/calendar/lv_calendar.c ****         lv_snprintf(calendar->nums[i], sizeof(calendar->nums[0]), "%d", c);
 905              		.loc 1 134 33 is_stmt 1 discriminator 1 view .LVU275
 134:Drivers/lvgl/src/extra/widgets/calendar/lv_calendar.c ****         lv_snprintf(calendar->nums[i], sizeof(calendar->nums[0]), "%d", c);
 906              		.loc 1 134 46 is_stmt 0 discriminator 1 view .LVU276
 907 007c 0BEB0705 		add	r5, fp, r7
 134:Drivers/lvgl/src/extra/widgets/calendar/lv_calendar.c ****         lv_snprintf(calendar->nums[i], sizeof(calendar->nums[0]), "%d", c);
 908              		.loc 1 134 33 discriminator 1 view .LVU277
 909 0080 4545     		cmp	r5, r8
 910 0082 EED8     		bhi	.L57
 138:Drivers/lvgl/src/extra/widgets/calendar/lv_calendar.c ****     for(i = 0, c = prev_mo_len - day_first + 1; i < day_first; i++, c++) {
 911              		.loc 1 138 5 is_stmt 1 view .LVU278
 138:Drivers/lvgl/src/extra/widgets/calendar/lv_calendar.c ****     for(i = 0, c = prev_mo_len - day_first + 1; i < day_first; i++, c++) {
 912              		.loc 1 138 27 is_stmt 0 view .LVU279
 913 0084 0AF1FF31 		add	r1, r10, #-1
 914 0088 4846     		mov	r0, r9
 915 008a FFF7FEFF 		bl	get_month_length
 916              	.LVL94:
 139:Drivers/lvgl/src/extra/widgets/calendar/lv_calendar.c ****         lv_snprintf(calendar->nums[i], sizeof(calendar->nums[0]), "%d", c);
 917              		.loc 1 139 5 is_stmt 1 view .LVU280
 139:Drivers/lvgl/src/extra/widgets/calendar/lv_calendar.c ****         lv_snprintf(calendar->nums[i], sizeof(calendar->nums[0]), "%d", c);
 918              		.loc 1 139 32 is_stmt 0 view .LVU281
 919 008e C61B     		subs	r6, r0, r7
 920              	.LVL95:
 139:Drivers/lvgl/src/extra/widgets/calendar/lv_calendar.c ****         lv_snprintf(calendar->nums[i], sizeof(calendar->nums[0]), "%d", c);
 921              		.loc 1 139 32 view .LVU282
 922 0090 F6B2     		uxtb	r6, r6
 139:Drivers/lvgl/src/extra/widgets/calendar/lv_calendar.c ****         lv_snprintf(calendar->nums[i], sizeof(calendar->nums[0]), "%d", c);
 923              		.loc 1 139 18 view .LVU283
 924 0092 0136     		adds	r6, r6, #1
 925 0094 F6B2     		uxtb	r6, r6
 926              	.LVL96:
 139:Drivers/lvgl/src/extra/widgets/calendar/lv_calendar.c ****         lv_snprintf(calendar->nums[i], sizeof(calendar->nums[0]), "%d", c);
 927              		.loc 1 139 11 view .LVU284
 928 0096 4FF00008 		mov	r8, #0
 139:Drivers/lvgl/src/extra/widgets/calendar/lv_calendar.c ****         lv_snprintf(calendar->nums[i], sizeof(calendar->nums[0]), "%d", c);
 929              		.loc 1 139 5 view .LVU285
 930 009a 13E0     		b	.L58
 931              	.LVL97:
 932              	.L59:
 140:Drivers/lvgl/src/extra/widgets/calendar/lv_calendar.c ****         lv_btnmatrix_set_btn_ctrl(calendar->btnm, i + 7, LV_BTNMATRIX_CTRL_DISABLED);
 933              		.loc 1 140 9 is_stmt 1 discriminator 3 view .LVU286
 140:Drivers/lvgl/src/extra/widgets/calendar/lv_calendar.c ****         lv_btnmatrix_set_btn_ctrl(calendar->btnm, i + 7, LV_BTNMATRIX_CTRL_DISABLED);
 934              		.loc 1 140 35 is_stmt 0 discriminator 3 view .LVU287
 935 009c 08F14600 		add	r0, r8, #70
 140:Drivers/lvgl/src/extra/widgets/calendar/lv_calendar.c ****         lv_btnmatrix_set_btn_ctrl(calendar->btnm, i + 7, LV_BTNMATRIX_CTRL_DISABLED);
 936              		.loc 1 140 9 discriminator 3 view .LVU288
 937 00a0 3346     		mov	r3, r6
 938 00a2 2A4A     		ldr	r2, .L70
 939 00a4 0421     		movs	r1, #4
 940 00a6 04EB8000 		add	r0, r4, r0, lsl #2
ARM GAS  /var/folders/0z/tsy30v1j4xl4_7kw94k978ww0000gn/T//ccGFsGJU.s 			page 28


 941 00aa FFF7FEFF 		bl	lv_snprintf
 942              	.LVL98:
 141:Drivers/lvgl/src/extra/widgets/calendar/lv_calendar.c ****     }
 943              		.loc 1 141 9 is_stmt 1 discriminator 3 view .LVU289
 944 00ae 08F10701 		add	r1, r8, #7
 945 00b2 4022     		movs	r2, #64
 946 00b4 89B2     		uxth	r1, r1
 947 00b6 606A     		ldr	r0, [r4, #36]
 948 00b8 FFF7FEFF 		bl	lv_btnmatrix_set_btn_ctrl
 949              	.LVL99:
 139:Drivers/lvgl/src/extra/widgets/calendar/lv_calendar.c ****         lv_snprintf(calendar->nums[i], sizeof(calendar->nums[0]), "%d", c);
 950              		.loc 1 139 67 discriminator 3 view .LVU290
 139:Drivers/lvgl/src/extra/widgets/calendar/lv_calendar.c ****         lv_snprintf(calendar->nums[i], sizeof(calendar->nums[0]), "%d", c);
 951              		.loc 1 139 65 is_stmt 0 discriminator 3 view .LVU291
 952 00bc 08F10108 		add	r8, r8, #1
 953              	.LVL100:
 139:Drivers/lvgl/src/extra/widgets/calendar/lv_calendar.c ****         lv_snprintf(calendar->nums[i], sizeof(calendar->nums[0]), "%d", c);
 954              		.loc 1 139 70 discriminator 3 view .LVU292
 955 00c0 0136     		adds	r6, r6, #1
 956              	.LVL101:
 139:Drivers/lvgl/src/extra/widgets/calendar/lv_calendar.c ****         lv_snprintf(calendar->nums[i], sizeof(calendar->nums[0]), "%d", c);
 957              		.loc 1 139 70 discriminator 3 view .LVU293
 958 00c2 F6B2     		uxtb	r6, r6
 959              	.LVL102:
 960              	.L58:
 139:Drivers/lvgl/src/extra/widgets/calendar/lv_calendar.c ****         lv_snprintf(calendar->nums[i], sizeof(calendar->nums[0]), "%d", c);
 961              		.loc 1 139 51 is_stmt 1 discriminator 1 view .LVU294
 962 00c4 B845     		cmp	r8, r7
 963 00c6 E9D3     		bcc	.L59
 144:Drivers/lvgl/src/extra/widgets/calendar/lv_calendar.c ****         lv_snprintf(calendar->nums[i], sizeof(calendar->nums[0]), "%d", c);
 964              		.loc 1 144 39 is_stmt 0 view .LVU295
 965 00c8 0126     		movs	r6, #1
 966              	.LVL103:
 144:Drivers/lvgl/src/extra/widgets/calendar/lv_calendar.c ****         lv_snprintf(calendar->nums[i], sizeof(calendar->nums[0]), "%d", c);
 967              		.loc 1 144 39 view .LVU296
 968 00ca 11E0     		b	.L60
 969              	.LVL104:
 970              	.L61:
 145:Drivers/lvgl/src/extra/widgets/calendar/lv_calendar.c ****         lv_btnmatrix_set_btn_ctrl(calendar->btnm, i + 7, LV_BTNMATRIX_CTRL_DISABLED);
 971              		.loc 1 145 9 is_stmt 1 discriminator 3 view .LVU297
 145:Drivers/lvgl/src/extra/widgets/calendar/lv_calendar.c ****         lv_btnmatrix_set_btn_ctrl(calendar->btnm, i + 7, LV_BTNMATRIX_CTRL_DISABLED);
 972              		.loc 1 145 35 is_stmt 0 discriminator 3 view .LVU298
 973 00cc 05F14600 		add	r0, r5, #70
 145:Drivers/lvgl/src/extra/widgets/calendar/lv_calendar.c ****         lv_btnmatrix_set_btn_ctrl(calendar->btnm, i + 7, LV_BTNMATRIX_CTRL_DISABLED);
 974              		.loc 1 145 9 discriminator 3 view .LVU299
 975 00d0 3346     		mov	r3, r6
 976 00d2 1E4A     		ldr	r2, .L70
 977 00d4 0421     		movs	r1, #4
 978 00d6 04EB8000 		add	r0, r4, r0, lsl #2
 979 00da FFF7FEFF 		bl	lv_snprintf
 980              	.LVL105:
 146:Drivers/lvgl/src/extra/widgets/calendar/lv_calendar.c ****     }
 981              		.loc 1 146 9 is_stmt 1 discriminator 3 view .LVU300
 982 00de E91D     		adds	r1, r5, #7
 983 00e0 4022     		movs	r2, #64
 984 00e2 89B2     		uxth	r1, r1
 985 00e4 606A     		ldr	r0, [r4, #36]
ARM GAS  /var/folders/0z/tsy30v1j4xl4_7kw94k978ww0000gn/T//ccGFsGJU.s 			page 29


 986 00e6 FFF7FEFF 		bl	lv_btnmatrix_set_btn_ctrl
 987              	.LVL106:
 144:Drivers/lvgl/src/extra/widgets/calendar/lv_calendar.c ****         lv_snprintf(calendar->nums[i], sizeof(calendar->nums[0]), "%d", c);
 988              		.loc 1 144 58 discriminator 3 view .LVU301
 144:Drivers/lvgl/src/extra/widgets/calendar/lv_calendar.c ****         lv_snprintf(calendar->nums[i], sizeof(calendar->nums[0]), "%d", c);
 989              		.loc 1 144 56 is_stmt 0 discriminator 3 view .LVU302
 990 00ea 0135     		adds	r5, r5, #1
 991              	.LVL107:
 144:Drivers/lvgl/src/extra/widgets/calendar/lv_calendar.c ****         lv_snprintf(calendar->nums[i], sizeof(calendar->nums[0]), "%d", c);
 992              		.loc 1 144 61 discriminator 3 view .LVU303
 993 00ec 0136     		adds	r6, r6, #1
 994              	.LVL108:
 144:Drivers/lvgl/src/extra/widgets/calendar/lv_calendar.c ****         lv_snprintf(calendar->nums[i], sizeof(calendar->nums[0]), "%d", c);
 995              		.loc 1 144 61 discriminator 3 view .LVU304
 996 00ee F6B2     		uxtb	r6, r6
 997              	.LVL109:
 998              	.L60:
 144:Drivers/lvgl/src/extra/widgets/calendar/lv_calendar.c ****         lv_snprintf(calendar->nums[i], sizeof(calendar->nums[0]), "%d", c);
 999              		.loc 1 144 46 is_stmt 1 discriminator 1 view .LVU305
 1000 00f0 292D     		cmp	r5, #41
 1001 00f2 EBD9     		bls	.L61
 149:Drivers/lvgl/src/extra/widgets/calendar/lv_calendar.c **** 
 1002              		.loc 1 149 5 view .LVU306
 1003 00f4 2046     		mov	r0, r4
 1004 00f6 FFF7FEFF 		bl	highlight_update
 1005              	.LVL110:
 152:Drivers/lvgl/src/extra/widgets/calendar/lv_calendar.c ****         lv_btnmatrix_set_selected_btn(calendar->btnm, day_first + 7);
 1006              		.loc 1 152 5 view .LVU307
 152:Drivers/lvgl/src/extra/widgets/calendar/lv_calendar.c ****         lv_btnmatrix_set_selected_btn(calendar->btnm, day_first + 7);
 1007              		.loc 1 152 8 is_stmt 0 view .LVU308
 1008 00fa 606A     		ldr	r0, [r4, #36]
 1009 00fc FFF7FEFF 		bl	lv_btnmatrix_get_selected_btn
 1010              	.LVL111:
 152:Drivers/lvgl/src/extra/widgets/calendar/lv_calendar.c ****         lv_btnmatrix_set_selected_btn(calendar->btnm, day_first + 7);
 1011              		.loc 1 152 7 view .LVU309
 1012 0100 4FF6FF73 		movw	r3, #65535
 1013 0104 9842     		cmp	r0, r3
 1014 0106 08D1     		bne	.L67
 1015              	.L62:
 156:Drivers/lvgl/src/extra/widgets/calendar/lv_calendar.c **** 
 1016              		.loc 1 156 5 is_stmt 1 view .LVU310
 1017 0108 2046     		mov	r0, r4
 1018 010a FFF7FEFF 		bl	lv_obj_invalidate
 1019              	.LVL112:
 160:Drivers/lvgl/src/extra/widgets/calendar/lv_calendar.c ****     for(i = 0; i < child_cnt; i++) {
 1020              		.loc 1 160 5 view .LVU311
 160:Drivers/lvgl/src/extra/widgets/calendar/lv_calendar.c ****     for(i = 0; i < child_cnt; i++) {
 1021              		.loc 1 160 26 is_stmt 0 view .LVU312
 1022 010e 2046     		mov	r0, r4
 1023 0110 FFF7FEFF 		bl	lv_obj_get_child_cnt
 1024              	.LVL113:
 1025 0114 0646     		mov	r6, r0
 1026              	.LVL114:
 161:Drivers/lvgl/src/extra/widgets/calendar/lv_calendar.c ****         lv_obj_t * child = lv_obj_get_child(obj, i);
 1027              		.loc 1 161 5 is_stmt 1 view .LVU313
 161:Drivers/lvgl/src/extra/widgets/calendar/lv_calendar.c ****         lv_obj_t * child = lv_obj_get_child(obj, i);
 1028              		.loc 1 161 11 is_stmt 0 view .LVU314
ARM GAS  /var/folders/0z/tsy30v1j4xl4_7kw94k978ww0000gn/T//ccGFsGJU.s 			page 30


 1029 0116 0025     		movs	r5, #0
 161:Drivers/lvgl/src/extra/widgets/calendar/lv_calendar.c ****         lv_obj_t * child = lv_obj_get_child(obj, i);
 1030              		.loc 1 161 5 view .LVU315
 1031 0118 0AE0     		b	.L63
 1032              	.LVL115:
 1033              	.L67:
 153:Drivers/lvgl/src/extra/widgets/calendar/lv_calendar.c ****     }
 1034              		.loc 1 153 9 is_stmt 1 view .LVU316
 1035 011a F91D     		adds	r1, r7, #7
 1036 011c 89B2     		uxth	r1, r1
 1037 011e 606A     		ldr	r0, [r4, #36]
 1038 0120 FFF7FEFF 		bl	lv_btnmatrix_set_selected_btn
 1039              	.LVL116:
 1040 0124 F0E7     		b	.L62
 1041              	.LVL117:
 1042              	.L69:
 1043              	.LBB4:
 164:Drivers/lvgl/src/extra/widgets/calendar/lv_calendar.c ****     }
 1044              		.loc 1 164 9 view .LVU317
 1045 0126 2246     		mov	r2, r4
 1046 0128 1C21     		movs	r1, #28
 1047 012a FFF7FEFF 		bl	lv_event_send
 1048              	.LVL118:
 1049              	.L64:
 164:Drivers/lvgl/src/extra/widgets/calendar/lv_calendar.c ****     }
 1050              		.loc 1 164 9 is_stmt 0 view .LVU318
 1051              	.LBE4:
 161:Drivers/lvgl/src/extra/widgets/calendar/lv_calendar.c ****         lv_obj_t * child = lv_obj_get_child(obj, i);
 1052              		.loc 1 161 32 is_stmt 1 discriminator 2 view .LVU319
 1053 012e 0135     		adds	r5, r5, #1
 1054              	.LVL119:
 1055              	.L63:
 161:Drivers/lvgl/src/extra/widgets/calendar/lv_calendar.c ****         lv_obj_t * child = lv_obj_get_child(obj, i);
 1056              		.loc 1 161 18 discriminator 1 view .LVU320
 1057 0130 B542     		cmp	r5, r6
 1058 0132 07D2     		bcs	.L68
 1059              	.LBB5:
 162:Drivers/lvgl/src/extra/widgets/calendar/lv_calendar.c ****         if(child == calendar->btnm) continue;
 1060              		.loc 1 162 9 view .LVU321
 162:Drivers/lvgl/src/extra/widgets/calendar/lv_calendar.c ****         if(child == calendar->btnm) continue;
 1061              		.loc 1 162 28 is_stmt 0 view .LVU322
 1062 0134 2946     		mov	r1, r5
 1063 0136 2046     		mov	r0, r4
 1064 0138 FFF7FEFF 		bl	lv_obj_get_child
 1065              	.LVL120:
 163:Drivers/lvgl/src/extra/widgets/calendar/lv_calendar.c ****         lv_event_send(child, LV_EVENT_VALUE_CHANGED, obj);
 1066              		.loc 1 163 9 is_stmt 1 view .LVU323
 163:Drivers/lvgl/src/extra/widgets/calendar/lv_calendar.c ****         lv_event_send(child, LV_EVENT_VALUE_CHANGED, obj);
 1067              		.loc 1 163 29 is_stmt 0 view .LVU324
 1068 013c 636A     		ldr	r3, [r4, #36]
 163:Drivers/lvgl/src/extra/widgets/calendar/lv_calendar.c ****         lv_event_send(child, LV_EVENT_VALUE_CHANGED, obj);
 1069              		.loc 1 163 11 view .LVU325
 1070 013e 8342     		cmp	r3, r0
 1071 0140 F1D1     		bne	.L69
 1072 0142 F4E7     		b	.L64
 1073              	.LVL121:
 1074              	.L68:
ARM GAS  /var/folders/0z/tsy30v1j4xl4_7kw94k978ww0000gn/T//ccGFsGJU.s 			page 31


 163:Drivers/lvgl/src/extra/widgets/calendar/lv_calendar.c ****         lv_event_send(child, LV_EVENT_VALUE_CHANGED, obj);
 1075              		.loc 1 163 11 view .LVU326
 1076              	.LBE5:
 166:Drivers/lvgl/src/extra/widgets/calendar/lv_calendar.c **** 
 1077              		.loc 1 166 1 view .LVU327
 1078 0144 03B0     		add	sp, sp, #12
 1079              		.cfi_def_cfa_offset 36
 1080              		@ sp needed
 1081 0146 BDE8F08F 		pop	{r4, r5, r6, r7, r8, r9, r10, fp, pc}
 1082              	.LVL122:
 1083              	.L71:
 166:Drivers/lvgl/src/extra/widgets/calendar/lv_calendar.c **** 
 1084              		.loc 1 166 1 view .LVU328
 1085 014a 00BF     		.align	2
 1086              	.L70:
 1087 014c 00000000 		.word	.LC0
 1088              		.cfi_endproc
 1089              	.LFE208:
 1091              		.section	.rodata.lv_calendar_constructor.str1.4,"aMS",%progbits,1
 1092              		.align	2
 1093              	.LC1:
 1094 0000 0A00     		.ascii	"\012\000"
 1095 0002 0000     		.align	2
 1096              	.LC2:
 1097 0004 00       		.ascii	"\000"
 1098              		.section	.text.lv_calendar_constructor,"ax",%progbits
 1099              		.align	1
 1100              		.syntax unified
 1101              		.thumb
 1102              		.thumb_func
 1104              	lv_calendar_constructor:
 1105              	.LVL123:
 1106              	.LFB215:
 241:Drivers/lvgl/src/extra/widgets/calendar/lv_calendar.c ****     LV_UNUSED(class_p);
 1107              		.loc 1 241 1 is_stmt 1 view -0
 1108              		.cfi_startproc
 1109              		@ args = 0, pretend = 0, frame = 0
 1110              		@ frame_needed = 0, uses_anonymous_args = 0
 241:Drivers/lvgl/src/extra/widgets/calendar/lv_calendar.c ****     LV_UNUSED(class_p);
 1111              		.loc 1 241 1 is_stmt 0 view .LVU330
 1112 0000 38B5     		push	{r3, r4, r5, lr}
 1113              		.cfi_def_cfa_offset 16
 1114              		.cfi_offset 3, -16
 1115              		.cfi_offset 4, -12
 1116              		.cfi_offset 5, -8
 1117              		.cfi_offset 14, -4
 1118 0002 0C46     		mov	r4, r1
 242:Drivers/lvgl/src/extra/widgets/calendar/lv_calendar.c ****     lv_calendar_t * calendar = (lv_calendar_t *)obj;
 1119              		.loc 1 242 5 is_stmt 1 view .LVU331
 243:Drivers/lvgl/src/extra/widgets/calendar/lv_calendar.c **** 
 1120              		.loc 1 243 5 view .LVU332
 1121              	.LVL124:
 246:Drivers/lvgl/src/extra/widgets/calendar/lv_calendar.c ****     calendar->today.month = 1;
 1122              		.loc 1 246 5 view .LVU333
 246:Drivers/lvgl/src/extra/widgets/calendar/lv_calendar.c ****     calendar->today.month = 1;
 1123              		.loc 1 246 27 is_stmt 0 view .LVU334
 1124 0004 40F2E472 		movw	r2, #2020
ARM GAS  /var/folders/0z/tsy30v1j4xl4_7kw94k978ww0000gn/T//ccGFsGJU.s 			page 32


 1125 0008 0A85     		strh	r2, [r1, #40]	@ movhi
 247:Drivers/lvgl/src/extra/widgets/calendar/lv_calendar.c ****     calendar->today.day   = 1;
 1126              		.loc 1 247 5 is_stmt 1 view .LVU335
 247:Drivers/lvgl/src/extra/widgets/calendar/lv_calendar.c ****     calendar->today.day   = 1;
 1127              		.loc 1 247 27 is_stmt 0 view .LVU336
 1128 000a 0123     		movs	r3, #1
 1129 000c 81F82A30 		strb	r3, [r1, #42]
 248:Drivers/lvgl/src/extra/widgets/calendar/lv_calendar.c **** 
 1130              		.loc 1 248 5 is_stmt 1 view .LVU337
 248:Drivers/lvgl/src/extra/widgets/calendar/lv_calendar.c **** 
 1131              		.loc 1 248 27 is_stmt 0 view .LVU338
 1132 0010 81F82B30 		strb	r3, [r1, #43]
 250:Drivers/lvgl/src/extra/widgets/calendar/lv_calendar.c ****     calendar->showed_date.month = 1;
 1133              		.loc 1 250 5 is_stmt 1 view .LVU339
 250:Drivers/lvgl/src/extra/widgets/calendar/lv_calendar.c ****     calendar->showed_date.month = 1;
 1134              		.loc 1 250 33 is_stmt 0 view .LVU340
 1135 0014 8A85     		strh	r2, [r1, #44]	@ movhi
 251:Drivers/lvgl/src/extra/widgets/calendar/lv_calendar.c ****     calendar->showed_date.day   = 1;
 1136              		.loc 1 251 5 is_stmt 1 view .LVU341
 251:Drivers/lvgl/src/extra/widgets/calendar/lv_calendar.c ****     calendar->showed_date.day   = 1;
 1137              		.loc 1 251 33 is_stmt 0 view .LVU342
 1138 0016 81F82E30 		strb	r3, [r1, #46]
 252:Drivers/lvgl/src/extra/widgets/calendar/lv_calendar.c **** 
 1139              		.loc 1 252 5 is_stmt 1 view .LVU343
 252:Drivers/lvgl/src/extra/widgets/calendar/lv_calendar.c **** 
 1140              		.loc 1 252 33 is_stmt 0 view .LVU344
 1141 001a 81F82F30 		strb	r3, [r1, #47]
 254:Drivers/lvgl/src/extra/widgets/calendar/lv_calendar.c ****     calendar->highlighted_dates_num  = 0;
 1142              		.loc 1 254 5 is_stmt 1 view .LVU345
 254:Drivers/lvgl/src/extra/widgets/calendar/lv_calendar.c ****     calendar->highlighted_dates_num  = 0;
 1143              		.loc 1 254 38 is_stmt 0 view .LVU346
 1144 001e 0025     		movs	r5, #0
 1145 0020 0D63     		str	r5, [r1, #48]
 255:Drivers/lvgl/src/extra/widgets/calendar/lv_calendar.c **** 
 1146              		.loc 1 255 5 is_stmt 1 view .LVU347
 255:Drivers/lvgl/src/extra/widgets/calendar/lv_calendar.c **** 
 1147              		.loc 1 255 38 is_stmt 0 view .LVU348
 1148 0022 8D86     		strh	r5, [r1, #52]	@ movhi
 257:Drivers/lvgl/src/extra/widgets/calendar/lv_calendar.c ****     uint8_t i;
 1149              		.loc 1 257 5 is_stmt 1 view .LVU349
 1150 0024 A821     		movs	r1, #168
 1151              	.LVL125:
 257:Drivers/lvgl/src/extra/widgets/calendar/lv_calendar.c ****     uint8_t i;
 1152              		.loc 1 257 5 is_stmt 0 view .LVU350
 1153 0026 04F58C70 		add	r0, r4, #280
 1154              	.LVL126:
 257:Drivers/lvgl/src/extra/widgets/calendar/lv_calendar.c ****     uint8_t i;
 1155              		.loc 1 257 5 view .LVU351
 1156 002a FFF7FEFF 		bl	lv_memset_00
 1157              	.LVL127:
 258:Drivers/lvgl/src/extra/widgets/calendar/lv_calendar.c ****     uint8_t j = 0;
 1158              		.loc 1 258 5 is_stmt 1 view .LVU352
 259:Drivers/lvgl/src/extra/widgets/calendar/lv_calendar.c ****     for(i = 0; i < 8 * 7; i++) {
 1159              		.loc 1 259 5 view .LVU353
 260:Drivers/lvgl/src/extra/widgets/calendar/lv_calendar.c ****         /*Every 8th string is "\n"*/
 1160              		.loc 1 260 5 view .LVU354
 259:Drivers/lvgl/src/extra/widgets/calendar/lv_calendar.c ****     for(i = 0; i < 8 * 7; i++) {
ARM GAS  /var/folders/0z/tsy30v1j4xl4_7kw94k978ww0000gn/T//ccGFsGJU.s 			page 33


 1161              		.loc 1 259 13 is_stmt 0 view .LVU355
 1162 002e 2846     		mov	r0, r5
 260:Drivers/lvgl/src/extra/widgets/calendar/lv_calendar.c ****         /*Every 8th string is "\n"*/
 1163              		.loc 1 260 11 view .LVU356
 1164 0030 2B46     		mov	r3, r5
 260:Drivers/lvgl/src/extra/widgets/calendar/lv_calendar.c ****         /*Every 8th string is "\n"*/
 1165              		.loc 1 260 5 view .LVU357
 1166 0032 10E0     		b	.L73
 1167              	.LVL128:
 1168              	.L74:
 265:Drivers/lvgl/src/extra/widgets/calendar/lv_calendar.c ****             calendar->map[i] = day_names_def[i];
 1169              		.loc 1 265 14 is_stmt 1 view .LVU358
 265:Drivers/lvgl/src/extra/widgets/calendar/lv_calendar.c ****             calendar->map[i] = day_names_def[i];
 1170              		.loc 1 265 16 is_stmt 0 view .LVU359
 1171 0034 062B     		cmp	r3, #6
 1172 0036 1CD9     		bls	.L79
 269:Drivers/lvgl/src/extra/widgets/calendar/lv_calendar.c ****             calendar->map[i] = calendar->nums[j];
 1173              		.loc 1 269 13 is_stmt 1 view .LVU360
 269:Drivers/lvgl/src/extra/widgets/calendar/lv_calendar.c ****             calendar->map[i] = calendar->nums[j];
 1174              		.loc 1 269 34 is_stmt 0 view .LVU361
 1175 0038 00F14602 		add	r2, r0, #70
 1176 003c 7821     		movs	r1, #120
 1177 003e 04F82210 		strb	r1, [r4, r2, lsl #2]
 270:Drivers/lvgl/src/extra/widgets/calendar/lv_calendar.c ****             j++;
 1178              		.loc 1 270 13 is_stmt 1 view .LVU362
 270:Drivers/lvgl/src/extra/widgets/calendar/lv_calendar.c ****             j++;
 1179              		.loc 1 270 32 is_stmt 0 view .LVU363
 1180 0042 04EB8202 		add	r2, r4, r2, lsl #2
 270:Drivers/lvgl/src/extra/widgets/calendar/lv_calendar.c ****             j++;
 1181              		.loc 1 270 30 view .LVU364
 1182 0046 03F10E01 		add	r1, r3, #14
 1183 004a 44F82120 		str	r2, [r4, r1, lsl #2]
 271:Drivers/lvgl/src/extra/widgets/calendar/lv_calendar.c ****         }
 1184              		.loc 1 271 13 is_stmt 1 view .LVU365
 271:Drivers/lvgl/src/extra/widgets/calendar/lv_calendar.c ****         }
 1185              		.loc 1 271 14 is_stmt 0 view .LVU366
 1186 004e 0130     		adds	r0, r0, #1
 1187              	.LVL129:
 271:Drivers/lvgl/src/extra/widgets/calendar/lv_calendar.c ****         }
 1188              		.loc 1 271 14 view .LVU367
 1189 0050 C0B2     		uxtb	r0, r0
 1190              	.LVL130:
 1191              	.L75:
 260:Drivers/lvgl/src/extra/widgets/calendar/lv_calendar.c ****         /*Every 8th string is "\n"*/
 1192              		.loc 1 260 28 is_stmt 1 discriminator 2 view .LVU368
 1193 0052 0133     		adds	r3, r3, #1
 1194              	.LVL131:
 260:Drivers/lvgl/src/extra/widgets/calendar/lv_calendar.c ****         /*Every 8th string is "\n"*/
 1195              		.loc 1 260 28 is_stmt 0 discriminator 2 view .LVU369
 1196 0054 DBB2     		uxtb	r3, r3
 1197              	.LVL132:
 1198              	.L73:
 260:Drivers/lvgl/src/extra/widgets/calendar/lv_calendar.c ****         /*Every 8th string is "\n"*/
 1199              		.loc 1 260 18 is_stmt 1 discriminator 1 view .LVU370
 1200 0056 372B     		cmp	r3, #55
 1201 0058 13D8     		bhi	.L80
 262:Drivers/lvgl/src/extra/widgets/calendar/lv_calendar.c ****             calendar->map[i] = "\n";
ARM GAS  /var/folders/0z/tsy30v1j4xl4_7kw94k978ww0000gn/T//ccGFsGJU.s 			page 34


 1202              		.loc 1 262 9 view .LVU371
 262:Drivers/lvgl/src/extra/widgets/calendar/lv_calendar.c ****             calendar->map[i] = "\n";
 1203              		.loc 1 262 11 is_stmt 0 view .LVU372
 1204 005a 002B     		cmp	r3, #0
 1205 005c EAD0     		beq	.L74
 262:Drivers/lvgl/src/extra/widgets/calendar/lv_calendar.c ****             calendar->map[i] = "\n";
 1206              		.loc 1 262 25 discriminator 1 view .LVU373
 1207 005e 5A1C     		adds	r2, r3, #1
 262:Drivers/lvgl/src/extra/widgets/calendar/lv_calendar.c ****             calendar->map[i] = "\n";
 1208              		.loc 1 262 19 discriminator 1 view .LVU374
 1209 0060 12F0070F 		tst	r2, #7
 1210 0064 E6D1     		bne	.L74
 263:Drivers/lvgl/src/extra/widgets/calendar/lv_calendar.c ****         }
 1211              		.loc 1 263 13 is_stmt 1 view .LVU375
 263:Drivers/lvgl/src/extra/widgets/calendar/lv_calendar.c ****         }
 1212              		.loc 1 263 30 is_stmt 0 view .LVU376
 1213 0066 03F10E02 		add	r2, r3, #14
 1214 006a 2149     		ldr	r1, .L81
 1215 006c 44F82210 		str	r1, [r4, r2, lsl #2]
 1216 0070 EFE7     		b	.L75
 1217              	.L79:
 266:Drivers/lvgl/src/extra/widgets/calendar/lv_calendar.c ****         }
 1218              		.loc 1 266 13 is_stmt 1 view .LVU377
 266:Drivers/lvgl/src/extra/widgets/calendar/lv_calendar.c ****         }
 1219              		.loc 1 266 45 is_stmt 0 view .LVU378
 1220 0072 204A     		ldr	r2, .L81+4
 1221 0074 52F82310 		ldr	r1, [r2, r3, lsl #2]
 266:Drivers/lvgl/src/extra/widgets/calendar/lv_calendar.c ****         }
 1222              		.loc 1 266 30 view .LVU379
 1223 0078 03F10E02 		add	r2, r3, #14
 1224 007c 44F82210 		str	r1, [r4, r2, lsl #2]
 1225 0080 E7E7     		b	.L75
 1226              	.L80:
 274:Drivers/lvgl/src/extra/widgets/calendar/lv_calendar.c **** 
 1227              		.loc 1 274 5 is_stmt 1 view .LVU380
 274:Drivers/lvgl/src/extra/widgets/calendar/lv_calendar.c **** 
 1228              		.loc 1 274 30 is_stmt 0 view .LVU381
 1229 0082 1D4B     		ldr	r3, .L81+8
 1230              	.LVL133:
 274:Drivers/lvgl/src/extra/widgets/calendar/lv_calendar.c **** 
 1231              		.loc 1 274 30 view .LVU382
 1232 0084 C4F81431 		str	r3, [r4, #276]
 276:Drivers/lvgl/src/extra/widgets/calendar/lv_calendar.c ****     lv_btnmatrix_set_map(calendar->btnm, calendar->map);
 1233              		.loc 1 276 5 is_stmt 1 view .LVU383
 276:Drivers/lvgl/src/extra/widgets/calendar/lv_calendar.c ****     lv_btnmatrix_set_map(calendar->btnm, calendar->map);
 1234              		.loc 1 276 22 is_stmt 0 view .LVU384
 1235 0088 2046     		mov	r0, r4
 1236              	.LVL134:
 276:Drivers/lvgl/src/extra/widgets/calendar/lv_calendar.c ****     lv_btnmatrix_set_map(calendar->btnm, calendar->map);
 1237              		.loc 1 276 22 view .LVU385
 1238 008a FFF7FEFF 		bl	lv_btnmatrix_create
 1239              	.LVL135:
 276:Drivers/lvgl/src/extra/widgets/calendar/lv_calendar.c ****     lv_btnmatrix_set_map(calendar->btnm, calendar->map);
 1240              		.loc 1 276 20 view .LVU386
 1241 008e 6062     		str	r0, [r4, #36]
 277:Drivers/lvgl/src/extra/widgets/calendar/lv_calendar.c ****     lv_btnmatrix_set_btn_ctrl_all(calendar->btnm, LV_BTNMATRIX_CTRL_CLICK_TRIG | LV_BTNMATRIX_CTRL_
 1242              		.loc 1 277 5 is_stmt 1 view .LVU387
ARM GAS  /var/folders/0z/tsy30v1j4xl4_7kw94k978ww0000gn/T//ccGFsGJU.s 			page 35


 1243 0090 04F13801 		add	r1, r4, #56
 1244 0094 FFF7FEFF 		bl	lv_btnmatrix_set_map
 1245              	.LVL136:
 278:Drivers/lvgl/src/extra/widgets/calendar/lv_calendar.c ****     lv_obj_add_event_cb(calendar->btnm, draw_part_begin_event_cb, LV_EVENT_DRAW_PART_BEGIN, NULL);
 1246              		.loc 1 278 5 view .LVU388
 1247 0098 4FF40871 		mov	r1, #544
 1248 009c 606A     		ldr	r0, [r4, #36]
 1249 009e FFF7FEFF 		bl	lv_btnmatrix_set_btn_ctrl_all
 1250              	.LVL137:
 279:Drivers/lvgl/src/extra/widgets/calendar/lv_calendar.c ****     lv_obj_set_width(calendar->btnm, lv_pct(100));
 1251              		.loc 1 279 5 view .LVU389
 1252 00a2 0023     		movs	r3, #0
 1253 00a4 1A22     		movs	r2, #26
 1254 00a6 1549     		ldr	r1, .L81+12
 1255 00a8 606A     		ldr	r0, [r4, #36]
 1256 00aa FFF7FEFF 		bl	lv_obj_add_event_cb
 1257              	.LVL138:
 280:Drivers/lvgl/src/extra/widgets/calendar/lv_calendar.c **** 
 1258              		.loc 1 280 5 view .LVU390
 1259 00ae 42F26401 		movw	r1, #8292
 1260 00b2 606A     		ldr	r0, [r4, #36]
 1261 00b4 FFF7FEFF 		bl	lv_obj_set_width
 1262              	.LVL139:
 282:Drivers/lvgl/src/extra/widgets/calendar/lv_calendar.c ****     lv_obj_set_flex_grow(calendar->btnm, 1);
 1263              		.loc 1 282 5 view .LVU391
 1264 00b8 0121     		movs	r1, #1
 1265 00ba 2046     		mov	r0, r4
 1266 00bc FFF7FEFF 		bl	lv_obj_set_flex_flow
 1267              	.LVL140:
 283:Drivers/lvgl/src/extra/widgets/calendar/lv_calendar.c **** 
 1268              		.loc 1 283 5 view .LVU392
 1269 00c0 0121     		movs	r1, #1
 1270 00c2 606A     		ldr	r0, [r4, #36]
 1271 00c4 FFF7FEFF 		bl	lv_obj_set_flex_grow
 1272              	.LVL141:
 285:Drivers/lvgl/src/extra/widgets/calendar/lv_calendar.c ****     lv_calendar_set_today_date(obj, calendar->today.year, calendar->today.month, calendar->today.da
 1273              		.loc 1 285 5 view .LVU393
 1274 00c8 94F92E20 		ldrsb	r2, [r4, #46]
 1275 00cc A18D     		ldrh	r1, [r4, #44]
 1276 00ce 2046     		mov	r0, r4
 1277 00d0 FFF7FEFF 		bl	lv_calendar_set_showed_date
 1278              	.LVL142:
 286:Drivers/lvgl/src/extra/widgets/calendar/lv_calendar.c **** 
 1279              		.loc 1 286 5 view .LVU394
 1280 00d4 94F92B30 		ldrsb	r3, [r4, #43]
 1281 00d8 94F92A20 		ldrsb	r2, [r4, #42]
 1282 00dc 218D     		ldrh	r1, [r4, #40]
 1283 00de 2046     		mov	r0, r4
 1284 00e0 FFF7FEFF 		bl	lv_calendar_set_today_date
 1285              	.LVL143:
 288:Drivers/lvgl/src/extra/widgets/calendar/lv_calendar.c **** }
 1286              		.loc 1 288 5 view .LVU395
 1287 00e4 4FF48041 		mov	r1, #16384
 1288 00e8 606A     		ldr	r0, [r4, #36]
 1289 00ea FFF7FEFF 		bl	lv_obj_add_flag
 1290              	.LVL144:
 289:Drivers/lvgl/src/extra/widgets/calendar/lv_calendar.c **** 
ARM GAS  /var/folders/0z/tsy30v1j4xl4_7kw94k978ww0000gn/T//ccGFsGJU.s 			page 36


 1291              		.loc 1 289 1 is_stmt 0 view .LVU396
 1292 00ee 38BD     		pop	{r3, r4, r5, pc}
 1293              	.LVL145:
 1294              	.L82:
 289:Drivers/lvgl/src/extra/widgets/calendar/lv_calendar.c **** 
 1295              		.loc 1 289 1 view .LVU397
 1296              		.align	2
 1297              	.L81:
 1298 00f0 00000000 		.word	.LC1
 1299 00f4 00000000 		.word	.LANCHOR1
 1300 00f8 04000000 		.word	.LC2
 1301 00fc 00000000 		.word	draw_part_begin_event_cb
 1302              		.cfi_endproc
 1303              	.LFE215:
 1305              		.section	.text.lv_calendar_get_btnmatrix,"ax",%progbits
 1306              		.align	1
 1307              		.global	lv_calendar_get_btnmatrix
 1308              		.syntax unified
 1309              		.thumb
 1310              		.thumb_func
 1312              	lv_calendar_get_btnmatrix:
 1313              	.LVL146:
 1314              	.LFB209:
 173:Drivers/lvgl/src/extra/widgets/calendar/lv_calendar.c ****     LV_ASSERT_OBJ(obj, MY_CLASS);
 1315              		.loc 1 173 1 is_stmt 1 view -0
 1316              		.cfi_startproc
 1317              		@ args = 0, pretend = 0, frame = 0
 1318              		@ frame_needed = 0, uses_anonymous_args = 0
 1319              		@ link register save eliminated.
 174:Drivers/lvgl/src/extra/widgets/calendar/lv_calendar.c ****     const lv_calendar_t * calendar = (lv_calendar_t *)obj;
 1320              		.loc 1 174 5 view .LVU399
 174:Drivers/lvgl/src/extra/widgets/calendar/lv_calendar.c ****     const lv_calendar_t * calendar = (lv_calendar_t *)obj;
 1321              		.loc 1 174 5 view .LVU400
 174:Drivers/lvgl/src/extra/widgets/calendar/lv_calendar.c ****     const lv_calendar_t * calendar = (lv_calendar_t *)obj;
 1322              		.loc 1 174 5 view .LVU401
 175:Drivers/lvgl/src/extra/widgets/calendar/lv_calendar.c ****     return calendar->btnm;
 1323              		.loc 1 175 5 view .LVU402
 176:Drivers/lvgl/src/extra/widgets/calendar/lv_calendar.c **** }
 1324              		.loc 1 176 5 view .LVU403
 177:Drivers/lvgl/src/extra/widgets/calendar/lv_calendar.c **** 
 1325              		.loc 1 177 1 is_stmt 0 view .LVU404
 1326 0000 406A     		ldr	r0, [r0, #36]
 1327              	.LVL147:
 177:Drivers/lvgl/src/extra/widgets/calendar/lv_calendar.c **** 
 1328              		.loc 1 177 1 view .LVU405
 1329 0002 7047     		bx	lr
 1330              		.cfi_endproc
 1331              	.LFE209:
 1333              		.section	.text.lv_calendar_get_today_date,"ax",%progbits
 1334              		.align	1
 1335              		.global	lv_calendar_get_today_date
 1336              		.syntax unified
 1337              		.thumb
 1338              		.thumb_func
 1340              	lv_calendar_get_today_date:
 1341              	.LVL148:
 1342              	.LFB210:
ARM GAS  /var/folders/0z/tsy30v1j4xl4_7kw94k978ww0000gn/T//ccGFsGJU.s 			page 37


 180:Drivers/lvgl/src/extra/widgets/calendar/lv_calendar.c ****     LV_ASSERT_OBJ(obj, MY_CLASS);
 1343              		.loc 1 180 1 is_stmt 1 view -0
 1344              		.cfi_startproc
 1345              		@ args = 0, pretend = 0, frame = 0
 1346              		@ frame_needed = 0, uses_anonymous_args = 0
 1347              		@ link register save eliminated.
 181:Drivers/lvgl/src/extra/widgets/calendar/lv_calendar.c ****     const lv_calendar_t * calendar = (lv_calendar_t *)obj;
 1348              		.loc 1 181 5 view .LVU407
 181:Drivers/lvgl/src/extra/widgets/calendar/lv_calendar.c ****     const lv_calendar_t * calendar = (lv_calendar_t *)obj;
 1349              		.loc 1 181 5 view .LVU408
 181:Drivers/lvgl/src/extra/widgets/calendar/lv_calendar.c ****     const lv_calendar_t * calendar = (lv_calendar_t *)obj;
 1350              		.loc 1 181 5 view .LVU409
 182:Drivers/lvgl/src/extra/widgets/calendar/lv_calendar.c **** 
 1351              		.loc 1 182 5 view .LVU410
 184:Drivers/lvgl/src/extra/widgets/calendar/lv_calendar.c **** }
 1352              		.loc 1 184 5 view .LVU411
 185:Drivers/lvgl/src/extra/widgets/calendar/lv_calendar.c **** 
 1353              		.loc 1 185 1 is_stmt 0 view .LVU412
 1354 0000 2830     		adds	r0, r0, #40
 1355              	.LVL149:
 185:Drivers/lvgl/src/extra/widgets/calendar/lv_calendar.c **** 
 1356              		.loc 1 185 1 view .LVU413
 1357 0002 7047     		bx	lr
 1358              		.cfi_endproc
 1359              	.LFE210:
 1361              		.section	.text.lv_calendar_get_showed_date,"ax",%progbits
 1362              		.align	1
 1363              		.global	lv_calendar_get_showed_date
 1364              		.syntax unified
 1365              		.thumb
 1366              		.thumb_func
 1368              	lv_calendar_get_showed_date:
 1369              	.LVL150:
 1370              	.LFB211:
 188:Drivers/lvgl/src/extra/widgets/calendar/lv_calendar.c ****     LV_ASSERT_OBJ(obj, MY_CLASS);
 1371              		.loc 1 188 1 is_stmt 1 view -0
 1372              		.cfi_startproc
 1373              		@ args = 0, pretend = 0, frame = 0
 1374              		@ frame_needed = 0, uses_anonymous_args = 0
 1375              		@ link register save eliminated.
 189:Drivers/lvgl/src/extra/widgets/calendar/lv_calendar.c ****     const lv_calendar_t * calendar = (lv_calendar_t *)obj;
 1376              		.loc 1 189 5 view .LVU415
 189:Drivers/lvgl/src/extra/widgets/calendar/lv_calendar.c ****     const lv_calendar_t * calendar = (lv_calendar_t *)obj;
 1377              		.loc 1 189 5 view .LVU416
 189:Drivers/lvgl/src/extra/widgets/calendar/lv_calendar.c ****     const lv_calendar_t * calendar = (lv_calendar_t *)obj;
 1378              		.loc 1 189 5 view .LVU417
 190:Drivers/lvgl/src/extra/widgets/calendar/lv_calendar.c **** 
 1379              		.loc 1 190 5 view .LVU418
 192:Drivers/lvgl/src/extra/widgets/calendar/lv_calendar.c **** }
 1380              		.loc 1 192 5 view .LVU419
 193:Drivers/lvgl/src/extra/widgets/calendar/lv_calendar.c **** 
 1381              		.loc 1 193 1 is_stmt 0 view .LVU420
 1382 0000 2C30     		adds	r0, r0, #44
 1383              	.LVL151:
 193:Drivers/lvgl/src/extra/widgets/calendar/lv_calendar.c **** 
 1384              		.loc 1 193 1 view .LVU421
 1385 0002 7047     		bx	lr
ARM GAS  /var/folders/0z/tsy30v1j4xl4_7kw94k978ww0000gn/T//ccGFsGJU.s 			page 38


 1386              		.cfi_endproc
 1387              	.LFE211:
 1389              		.section	.text.lv_calendar_get_highlighted_dates,"ax",%progbits
 1390              		.align	1
 1391              		.global	lv_calendar_get_highlighted_dates
 1392              		.syntax unified
 1393              		.thumb
 1394              		.thumb_func
 1396              	lv_calendar_get_highlighted_dates:
 1397              	.LVL152:
 1398              	.LFB212:
 196:Drivers/lvgl/src/extra/widgets/calendar/lv_calendar.c ****     LV_ASSERT_OBJ(obj, MY_CLASS);
 1399              		.loc 1 196 1 is_stmt 1 view -0
 1400              		.cfi_startproc
 1401              		@ args = 0, pretend = 0, frame = 0
 1402              		@ frame_needed = 0, uses_anonymous_args = 0
 1403              		@ link register save eliminated.
 197:Drivers/lvgl/src/extra/widgets/calendar/lv_calendar.c ****     lv_calendar_t * calendar = (lv_calendar_t *)obj;
 1404              		.loc 1 197 5 view .LVU423
 197:Drivers/lvgl/src/extra/widgets/calendar/lv_calendar.c ****     lv_calendar_t * calendar = (lv_calendar_t *)obj;
 1405              		.loc 1 197 5 view .LVU424
 197:Drivers/lvgl/src/extra/widgets/calendar/lv_calendar.c ****     lv_calendar_t * calendar = (lv_calendar_t *)obj;
 1406              		.loc 1 197 5 view .LVU425
 198:Drivers/lvgl/src/extra/widgets/calendar/lv_calendar.c **** 
 1407              		.loc 1 198 5 view .LVU426
 200:Drivers/lvgl/src/extra/widgets/calendar/lv_calendar.c **** }
 1408              		.loc 1 200 5 view .LVU427
 201:Drivers/lvgl/src/extra/widgets/calendar/lv_calendar.c **** 
 1409              		.loc 1 201 1 is_stmt 0 view .LVU428
 1410 0000 006B     		ldr	r0, [r0, #48]
 1411              	.LVL153:
 201:Drivers/lvgl/src/extra/widgets/calendar/lv_calendar.c **** 
 1412              		.loc 1 201 1 view .LVU429
 1413 0002 7047     		bx	lr
 1414              		.cfi_endproc
 1415              	.LFE212:
 1417              		.section	.text.lv_calendar_get_highlighted_dates_num,"ax",%progbits
 1418              		.align	1
 1419              		.global	lv_calendar_get_highlighted_dates_num
 1420              		.syntax unified
 1421              		.thumb
 1422              		.thumb_func
 1424              	lv_calendar_get_highlighted_dates_num:
 1425              	.LVL154:
 1426              	.LFB213:
 204:Drivers/lvgl/src/extra/widgets/calendar/lv_calendar.c ****     LV_ASSERT_OBJ(obj, MY_CLASS);
 1427              		.loc 1 204 1 is_stmt 1 view -0
 1428              		.cfi_startproc
 1429              		@ args = 0, pretend = 0, frame = 0
 1430              		@ frame_needed = 0, uses_anonymous_args = 0
 1431              		@ link register save eliminated.
 205:Drivers/lvgl/src/extra/widgets/calendar/lv_calendar.c ****     lv_calendar_t * calendar = (lv_calendar_t *)obj;
 1432              		.loc 1 205 5 view .LVU431
 205:Drivers/lvgl/src/extra/widgets/calendar/lv_calendar.c ****     lv_calendar_t * calendar = (lv_calendar_t *)obj;
 1433              		.loc 1 205 5 view .LVU432
 205:Drivers/lvgl/src/extra/widgets/calendar/lv_calendar.c ****     lv_calendar_t * calendar = (lv_calendar_t *)obj;
 1434              		.loc 1 205 5 view .LVU433
ARM GAS  /var/folders/0z/tsy30v1j4xl4_7kw94k978ww0000gn/T//ccGFsGJU.s 			page 39


 206:Drivers/lvgl/src/extra/widgets/calendar/lv_calendar.c **** 
 1435              		.loc 1 206 5 view .LVU434
 208:Drivers/lvgl/src/extra/widgets/calendar/lv_calendar.c **** }
 1436              		.loc 1 208 5 view .LVU435
 209:Drivers/lvgl/src/extra/widgets/calendar/lv_calendar.c **** 
 1437              		.loc 1 209 1 is_stmt 0 view .LVU436
 1438 0000 808E     		ldrh	r0, [r0, #52]
 1439              	.LVL155:
 209:Drivers/lvgl/src/extra/widgets/calendar/lv_calendar.c **** 
 1440              		.loc 1 209 1 view .LVU437
 1441 0002 7047     		bx	lr
 1442              		.cfi_endproc
 1443              	.LFE213:
 1445              		.section	.text.lv_calendar_get_pressed_date,"ax",%progbits
 1446              		.align	1
 1447              		.global	lv_calendar_get_pressed_date
 1448              		.syntax unified
 1449              		.thumb
 1450              		.thumb_func
 1452              	lv_calendar_get_pressed_date:
 1453              	.LVL156:
 1454              	.LFB214:
 212:Drivers/lvgl/src/extra/widgets/calendar/lv_calendar.c ****     LV_ASSERT_OBJ(obj, MY_CLASS);
 1455              		.loc 1 212 1 is_stmt 1 view -0
 1456              		.cfi_startproc
 1457              		@ args = 0, pretend = 0, frame = 0
 1458              		@ frame_needed = 0, uses_anonymous_args = 0
 212:Drivers/lvgl/src/extra/widgets/calendar/lv_calendar.c ****     LV_ASSERT_OBJ(obj, MY_CLASS);
 1459              		.loc 1 212 1 is_stmt 0 view .LVU439
 1460 0000 70B5     		push	{r4, r5, r6, lr}
 1461              		.cfi_def_cfa_offset 16
 1462              		.cfi_offset 4, -16
 1463              		.cfi_offset 5, -12
 1464              		.cfi_offset 6, -8
 1465              		.cfi_offset 14, -4
 1466 0002 0546     		mov	r5, r0
 1467 0004 0C46     		mov	r4, r1
 213:Drivers/lvgl/src/extra/widgets/calendar/lv_calendar.c ****     lv_calendar_t * calendar = (lv_calendar_t *)obj;
 1468              		.loc 1 213 5 is_stmt 1 view .LVU440
 213:Drivers/lvgl/src/extra/widgets/calendar/lv_calendar.c ****     lv_calendar_t * calendar = (lv_calendar_t *)obj;
 1469              		.loc 1 213 5 view .LVU441
 213:Drivers/lvgl/src/extra/widgets/calendar/lv_calendar.c ****     lv_calendar_t * calendar = (lv_calendar_t *)obj;
 1470              		.loc 1 213 5 view .LVU442
 214:Drivers/lvgl/src/extra/widgets/calendar/lv_calendar.c **** 
 1471              		.loc 1 214 5 view .LVU443
 1472              	.LVL157:
 216:Drivers/lvgl/src/extra/widgets/calendar/lv_calendar.c ****     if(d == LV_BTNMATRIX_BTN_NONE) {
 1473              		.loc 1 216 5 view .LVU444
 216:Drivers/lvgl/src/extra/widgets/calendar/lv_calendar.c ****     if(d == LV_BTNMATRIX_BTN_NONE) {
 1474              		.loc 1 216 18 is_stmt 0 view .LVU445
 1475 0006 406A     		ldr	r0, [r0, #36]
 1476              	.LVL158:
 216:Drivers/lvgl/src/extra/widgets/calendar/lv_calendar.c ****     if(d == LV_BTNMATRIX_BTN_NONE) {
 1477              		.loc 1 216 18 view .LVU446
 1478 0008 FFF7FEFF 		bl	lv_btnmatrix_get_selected_btn
 1479              	.LVL159:
 217:Drivers/lvgl/src/extra/widgets/calendar/lv_calendar.c ****         date->year = 0;
ARM GAS  /var/folders/0z/tsy30v1j4xl4_7kw94k978ww0000gn/T//ccGFsGJU.s 			page 40


 1480              		.loc 1 217 5 is_stmt 1 view .LVU447
 217:Drivers/lvgl/src/extra/widgets/calendar/lv_calendar.c ****         date->year = 0;
 1481              		.loc 1 217 7 is_stmt 0 view .LVU448
 1482 000c 4FF6FF73 		movw	r3, #65535
 1483 0010 9842     		cmp	r0, r3
 1484 0012 13D0     		beq	.L94
 224:Drivers/lvgl/src/extra/widgets/calendar/lv_calendar.c **** 
 1485              		.loc 1 224 5 is_stmt 1 view .LVU449
 224:Drivers/lvgl/src/extra/widgets/calendar/lv_calendar.c **** 
 1486              		.loc 1 224 58 is_stmt 0 view .LVU450
 1487 0014 6E6A     		ldr	r6, [r5, #36]
 224:Drivers/lvgl/src/extra/widgets/calendar/lv_calendar.c **** 
 1488              		.loc 1 224 24 view .LVU451
 1489 0016 3046     		mov	r0, r6
 1490              	.LVL160:
 224:Drivers/lvgl/src/extra/widgets/calendar/lv_calendar.c **** 
 1491              		.loc 1 224 24 view .LVU452
 1492 0018 FFF7FEFF 		bl	lv_btnmatrix_get_selected_btn
 1493              	.LVL161:
 1494 001c 0146     		mov	r1, r0
 1495 001e 3046     		mov	r0, r6
 1496 0020 FFF7FEFF 		bl	lv_btnmatrix_get_btn_text
 1497              	.LVL162:
 226:Drivers/lvgl/src/extra/widgets/calendar/lv_calendar.c ****     else date->day = (txt[0] - '0') * 10 + (txt[1] - '0');
 1498              		.loc 1 226 5 is_stmt 1 view .LVU453
 226:Drivers/lvgl/src/extra/widgets/calendar/lv_calendar.c ****     else date->day = (txt[0] - '0') * 10 + (txt[1] - '0');
 1499              		.loc 1 226 11 is_stmt 0 view .LVU454
 1500 0024 4378     		ldrb	r3, [r0, #1]	@ zero_extendqisi2
 226:Drivers/lvgl/src/extra/widgets/calendar/lv_calendar.c ****     else date->day = (txt[0] - '0') * 10 + (txt[1] - '0');
 1501              		.loc 1 226 7 view .LVU455
 1502 0026 73B9     		cbnz	r3, .L91
 226:Drivers/lvgl/src/extra/widgets/calendar/lv_calendar.c ****     else date->day = (txt[0] - '0') * 10 + (txt[1] - '0');
 1503              		.loc 1 226 21 is_stmt 1 discriminator 1 view .LVU456
 226:Drivers/lvgl/src/extra/widgets/calendar/lv_calendar.c ****     else date->day = (txt[0] - '0') * 10 + (txt[1] - '0');
 1504              		.loc 1 226 36 is_stmt 0 discriminator 1 view .LVU457
 1505 0028 0378     		ldrb	r3, [r0]	@ zero_extendqisi2
 226:Drivers/lvgl/src/extra/widgets/calendar/lv_calendar.c ****     else date->day = (txt[0] - '0') * 10 + (txt[1] - '0');
 1506              		.loc 1 226 40 discriminator 1 view .LVU458
 1507 002a 303B     		subs	r3, r3, #48
 226:Drivers/lvgl/src/extra/widgets/calendar/lv_calendar.c ****     else date->day = (txt[0] - '0') * 10 + (txt[1] - '0');
 1508              		.loc 1 226 31 discriminator 1 view .LVU459
 1509 002c E370     		strb	r3, [r4, #3]
 1510              	.L92:
 229:Drivers/lvgl/src/extra/widgets/calendar/lv_calendar.c ****     date->month = calendar->showed_date.month;
 1511              		.loc 1 229 5 is_stmt 1 view .LVU460
 229:Drivers/lvgl/src/extra/widgets/calendar/lv_calendar.c ****     date->month = calendar->showed_date.month;
 1512              		.loc 1 229 39 is_stmt 0 view .LVU461
 1513 002e AB8D     		ldrh	r3, [r5, #44]
 229:Drivers/lvgl/src/extra/widgets/calendar/lv_calendar.c ****     date->month = calendar->showed_date.month;
 1514              		.loc 1 229 16 view .LVU462
 1515 0030 2380     		strh	r3, [r4]	@ movhi
 230:Drivers/lvgl/src/extra/widgets/calendar/lv_calendar.c **** 
 1516              		.loc 1 230 5 is_stmt 1 view .LVU463
 230:Drivers/lvgl/src/extra/widgets/calendar/lv_calendar.c **** 
 1517              		.loc 1 230 40 is_stmt 0 view .LVU464
 1518 0032 95F92E30 		ldrsb	r3, [r5, #46]
 230:Drivers/lvgl/src/extra/widgets/calendar/lv_calendar.c **** 
ARM GAS  /var/folders/0z/tsy30v1j4xl4_7kw94k978ww0000gn/T//ccGFsGJU.s 			page 41


 1519              		.loc 1 230 17 view .LVU465
 1520 0036 A370     		strb	r3, [r4, #2]
 232:Drivers/lvgl/src/extra/widgets/calendar/lv_calendar.c **** }
 1521              		.loc 1 232 5 is_stmt 1 view .LVU466
 232:Drivers/lvgl/src/extra/widgets/calendar/lv_calendar.c **** }
 1522              		.loc 1 232 12 is_stmt 0 view .LVU467
 1523 0038 0120     		movs	r0, #1
 1524              	.LVL163:
 1525              	.L90:
 233:Drivers/lvgl/src/extra/widgets/calendar/lv_calendar.c **** 
 1526              		.loc 1 233 1 view .LVU468
 1527 003a 70BD     		pop	{r4, r5, r6, pc}
 1528              	.LVL164:
 1529              	.L94:
 218:Drivers/lvgl/src/extra/widgets/calendar/lv_calendar.c ****         date->month = 0;
 1530              		.loc 1 218 9 is_stmt 1 view .LVU469
 218:Drivers/lvgl/src/extra/widgets/calendar/lv_calendar.c ****         date->month = 0;
 1531              		.loc 1 218 20 is_stmt 0 view .LVU470
 1532 003c 0020     		movs	r0, #0
 1533              	.LVL165:
 218:Drivers/lvgl/src/extra/widgets/calendar/lv_calendar.c ****         date->month = 0;
 1534              		.loc 1 218 20 view .LVU471
 1535 003e 2080     		strh	r0, [r4]	@ movhi
 219:Drivers/lvgl/src/extra/widgets/calendar/lv_calendar.c ****         date->day = 0;
 1536              		.loc 1 219 9 is_stmt 1 view .LVU472
 219:Drivers/lvgl/src/extra/widgets/calendar/lv_calendar.c ****         date->day = 0;
 1537              		.loc 1 219 21 is_stmt 0 view .LVU473
 1538 0040 A070     		strb	r0, [r4, #2]
 220:Drivers/lvgl/src/extra/widgets/calendar/lv_calendar.c ****         return LV_RES_INV;
 1539              		.loc 1 220 9 is_stmt 1 view .LVU474
 220:Drivers/lvgl/src/extra/widgets/calendar/lv_calendar.c ****         return LV_RES_INV;
 1540              		.loc 1 220 19 is_stmt 0 view .LVU475
 1541 0042 E070     		strb	r0, [r4, #3]
 221:Drivers/lvgl/src/extra/widgets/calendar/lv_calendar.c ****     }
 1542              		.loc 1 221 9 is_stmt 1 view .LVU476
 221:Drivers/lvgl/src/extra/widgets/calendar/lv_calendar.c ****     }
 1543              		.loc 1 221 16 is_stmt 0 view .LVU477
 1544 0044 F9E7     		b	.L90
 1545              	.LVL166:
 1546              	.L91:
 227:Drivers/lvgl/src/extra/widgets/calendar/lv_calendar.c **** 
 1547              		.loc 1 227 10 is_stmt 1 view .LVU478
 227:Drivers/lvgl/src/extra/widgets/calendar/lv_calendar.c **** 
 1548              		.loc 1 227 26 is_stmt 0 view .LVU479
 1549 0046 0278     		ldrb	r2, [r0]	@ zero_extendqisi2
 227:Drivers/lvgl/src/extra/widgets/calendar/lv_calendar.c **** 
 1550              		.loc 1 227 42 view .LVU480
 1551 0048 303A     		subs	r2, r2, #48
 1552 004a 02EB8202 		add	r2, r2, r2, lsl #2
 1553 004e 03EB4203 		add	r3, r3, r2, lsl #1
 1554 0052 303B     		subs	r3, r3, #48
 227:Drivers/lvgl/src/extra/widgets/calendar/lv_calendar.c **** 
 1555              		.loc 1 227 20 view .LVU481
 1556 0054 E370     		strb	r3, [r4, #3]
 1557 0056 EAE7     		b	.L92
 1558              		.cfi_endproc
 1559              	.LFE214:
ARM GAS  /var/folders/0z/tsy30v1j4xl4_7kw94k978ww0000gn/T//ccGFsGJU.s 			page 42


 1561              		.section	.rodata.str1.4,"aMS",%progbits,1
 1562              		.align	2
 1563              	.LC3:
 1564 0000 537500   		.ascii	"Su\000"
 1565 0003 00       		.align	2
 1566              	.LC4:
 1567 0004 4D6F00   		.ascii	"Mo\000"
 1568 0007 00       		.align	2
 1569              	.LC5:
 1570 0008 547500   		.ascii	"Tu\000"
 1571 000b 00       		.align	2
 1572              	.LC6:
 1573 000c 576500   		.ascii	"We\000"
 1574 000f 00       		.align	2
 1575              	.LC7:
 1576 0010 546800   		.ascii	"Th\000"
 1577 0013 00       		.align	2
 1578              	.LC8:
 1579 0014 467200   		.ascii	"Fr\000"
 1580 0017 00       		.align	2
 1581              	.LC9:
 1582 0018 536100   		.ascii	"Sa\000"
 1583              		.global	lv_calendar_class
 1584              		.section	.rodata.day_names_def,"a"
 1585              		.align	2
 1586              		.set	.LANCHOR1,. + 0
 1589              	day_names_def:
 1590 0000 00000000 		.word	.LC3
 1591 0004 04000000 		.word	.LC4
 1592 0008 08000000 		.word	.LC5
 1593 000c 0C000000 		.word	.LC6
 1594 0010 10000000 		.word	.LC7
 1595 0014 14000000 		.word	.LC8
 1596 0018 18000000 		.word	.LC9
 1597              		.section	.rodata.lv_calendar_class,"a"
 1598              		.align	2
 1599              		.set	.LANCHOR0,. + 0
 1602              	lv_calendar_class:
 1603 0000 00000000 		.word	lv_obj_class
 1604 0004 00000000 		.word	lv_calendar_constructor
 1605 0008 00000000 		.space	12
 1605      00000000 
 1605      00000000 
 1606 0014 C300     		.short	195
 1607 0016 C300     		.short	195
 1608 0018 04       		.byte	4
 1609 0019 1C       		.byte	28
 1610 001a 00       		.byte	0
 1611 001b 00       		.space	1
 1612              		.text
 1613              	.Letext0:
 1614              		.file 2 "/Users/johannes/Library/Application Support/Code/User/globalStorage/bmd.stm32-for-vscode/
 1615              		.file 3 "/Users/johannes/Library/Application Support/Code/User/globalStorage/bmd.stm32-for-vscode/
 1616              		.file 4 "/Users/johannes/Library/Application Support/Code/User/globalStorage/bmd.stm32-for-vscode/
 1617              		.file 5 "Drivers/lvgl/src/extra/widgets/calendar/../../../widgets/../core/../misc/../font/../misc/
 1618              		.file 6 "Drivers/lvgl/src/extra/widgets/calendar/../../../widgets/../core/../misc/../font/lv_font.
 1619              		.file 7 "Drivers/lvgl/src/extra/widgets/calendar/../../../widgets/../core/../misc/lv_types.h"
ARM GAS  /var/folders/0z/tsy30v1j4xl4_7kw94k978ww0000gn/T//ccGFsGJU.s 			page 43


 1620              		.file 8 "Drivers/lvgl/src/extra/widgets/calendar/../../../widgets/../core/../misc/lv_color.h"
 1621              		.file 9 "Drivers/lvgl/src/extra/widgets/calendar/../../../widgets/../core/../misc/lv_txt.h"
 1622              		.file 10 "Drivers/lvgl/src/extra/widgets/calendar/../../../widgets/../core/../misc/lv_bidi.h"
 1623              		.file 11 "Drivers/lvgl/src/extra/widgets/calendar/../../../widgets/../core/../misc/lv_style.h"
 1624              		.file 12 "Drivers/lvgl/src/extra/widgets/calendar/../../../widgets/../core/../hal/../draw/lv_img_b
 1625              		.file 13 "Drivers/lvgl/src/extra/widgets/calendar/../../../widgets/../core/lv_obj.h"
 1626              		.file 14 "Drivers/lvgl/src/extra/widgets/calendar/../../../widgets/../core/../hal/../draw/lv_draw_
 1627              		.file 15 "Drivers/lvgl/src/extra/widgets/calendar/../../../widgets/../core/../hal/../draw/lv_draw_
 1628              		.file 16 "Drivers/lvgl/src/extra/widgets/calendar/../../../widgets/../core/../hal/../draw/lv_draw_
 1629              		.file 17 "Drivers/lvgl/src/extra/widgets/calendar/../../../widgets/../core/../hal/../draw/lv_draw_
 1630              		.file 18 "Drivers/lvgl/src/extra/widgets/calendar/../../../widgets/../core/../hal/../draw/lv_draw_
 1631              		.file 19 "Drivers/lvgl/src/extra/widgets/calendar/../../../widgets/../core/../hal/../draw/lv_draw_
 1632              		.file 20 "Drivers/lvgl/src/extra/widgets/calendar/../../../widgets/../core/../hal/../draw/lv_draw.
 1633              		.file 21 "Drivers/lvgl/src/extra/widgets/calendar/../../../widgets/../core/../hal/../misc/lv_ll.h"
 1634              		.file 22 "Drivers/lvgl/src/extra/widgets/calendar/../../../widgets/../core/lv_group.h"
 1635              		.file 23 "Drivers/lvgl/src/extra/widgets/calendar/../../../widgets/../core/lv_obj_scroll.h"
 1636              		.file 24 "Drivers/lvgl/src/extra/widgets/calendar/../../../widgets/../core/lv_obj_style.h"
 1637              		.file 25 "Drivers/lvgl/src/extra/widgets/calendar/../../../widgets/../core/lv_obj_draw.h"
 1638              		.file 26 "Drivers/lvgl/src/extra/widgets/calendar/../../../widgets/../core/lv_obj_class.h"
 1639              		.file 27 "Drivers/lvgl/src/extra/widgets/calendar/../../../widgets/../core/lv_event.h"
 1640              		.file 28 "Drivers/lvgl/src/extra/widgets/calendar/../../../widgets/lv_btnmatrix.h"
 1641              		.file 29 "Drivers/lvgl/src/extra/widgets/calendar/lv_calendar.h"
 1642              		.file 30 "Drivers/lvgl/src/extra/widgets/calendar/../../../../src/widgets/lv_bar.h"
 1643              		.file 31 "Drivers/lvgl/src/extra/widgets/calendar/../../../../src/extra/layouts/flex/lv_flex.h"
 1644              		.file 32 "Drivers/lvgl/src/extra/widgets/calendar/../../../../src/extra/widgets/imgbtn/lv_imgbtn.h
 1645              		.file 33 "Drivers/lvgl/src/extra/widgets/calendar/../../../widgets/../core/lv_obj_tree.h"
 1646              		.file 34 "Drivers/lvgl/src/extra/widgets/calendar/../../../widgets/../core/../misc/lv_printf.h"
 1647              		.file 35 "Drivers/lvgl/src/extra/widgets/calendar/../../../widgets/../core/../hal/../draw/sw/../..
 1648              		.file 36 "Drivers/lvgl/src/extra/widgets/calendar/../../../../src/core/lv_theme.h"
 1649              		.file 37 "Drivers/lvgl/src/extra/widgets/calendar/../../../widgets/../core/../misc/lv_mem.h"
ARM GAS  /var/folders/0z/tsy30v1j4xl4_7kw94k978ww0000gn/T//ccGFsGJU.s 			page 44

