ARM GAS  /var/folders/0z/tsy30v1j4xl4_7kw94k978ww0000gn/T//ccpKU4mv.s 			page 1


   1              		.cpu cortex-m4
   2              		.arch armv7e-m
   3              		.fpu fpv4-sp-d16
   4              		.eabi_attribute 27, 1
   5              		.eabi_attribute 28, 1
   6              		.eabi_attribute 20, 1
   7              		.eabi_attribute 21, 1
   8              		.eabi_attribute 23, 3
   9              		.eabi_attribute 24, 1
  10              		.eabi_attribute 25, 1
  11              		.eabi_attribute 26, 1
  12              		.eabi_attribute 30, 1
  13              		.eabi_attribute 34, 1
  14              		.eabi_attribute 18, 4
  15              		.file	"lv_calendar_header_arrow.c"
  16              		.text
  17              	.Ltext0:
  18              		.cfi_sections	.debug_frame
  19              		.section	.rodata.my_constructor.str1.4,"aMS",%progbits,1
  20              		.align	2
  21              	.LC0:
  22 0000 EF819300 		.ascii	"\357\201\223\000"
  23              		.align	2
  24              	.LC1:
  25 0004 EF819400 		.ascii	"\357\201\224\000"
  26              		.section	.text.my_constructor,"ax",%progbits
  27              		.align	1
  28              		.syntax unified
  29              		.thumb
  30              		.thumb_func
  32              	my_constructor:
  33              	.LVL0:
  34              	.LFB167:
  35              		.file 1 "Drivers/lvgl/src/extra/widgets/calendar/lv_calendar_header_arrow.c"
   1:Drivers/lvgl/src/extra/widgets/calendar/lv_calendar_header_arrow.c **** /**
   2:Drivers/lvgl/src/extra/widgets/calendar/lv_calendar_header_arrow.c ****  * @file lv_calendar_header_arrow.c
   3:Drivers/lvgl/src/extra/widgets/calendar/lv_calendar_header_arrow.c ****  *
   4:Drivers/lvgl/src/extra/widgets/calendar/lv_calendar_header_arrow.c ****  */
   5:Drivers/lvgl/src/extra/widgets/calendar/lv_calendar_header_arrow.c **** 
   6:Drivers/lvgl/src/extra/widgets/calendar/lv_calendar_header_arrow.c **** /*********************
   7:Drivers/lvgl/src/extra/widgets/calendar/lv_calendar_header_arrow.c ****  *      INCLUDES
   8:Drivers/lvgl/src/extra/widgets/calendar/lv_calendar_header_arrow.c ****  *********************/
   9:Drivers/lvgl/src/extra/widgets/calendar/lv_calendar_header_arrow.c **** #include "lv_calendar_header_arrow.h"
  10:Drivers/lvgl/src/extra/widgets/calendar/lv_calendar_header_arrow.c **** #if LV_USE_CALENDAR_HEADER_ARROW
  11:Drivers/lvgl/src/extra/widgets/calendar/lv_calendar_header_arrow.c **** 
  12:Drivers/lvgl/src/extra/widgets/calendar/lv_calendar_header_arrow.c **** #include "lv_calendar.h"
  13:Drivers/lvgl/src/extra/widgets/calendar/lv_calendar_header_arrow.c **** #include "../../../widgets/lv_btn.h"
  14:Drivers/lvgl/src/extra/widgets/calendar/lv_calendar_header_arrow.c **** #include "../../../widgets/lv_label.h"
  15:Drivers/lvgl/src/extra/widgets/calendar/lv_calendar_header_arrow.c **** #include "../../layouts/flex/lv_flex.h"
  16:Drivers/lvgl/src/extra/widgets/calendar/lv_calendar_header_arrow.c **** 
  17:Drivers/lvgl/src/extra/widgets/calendar/lv_calendar_header_arrow.c **** /*********************
  18:Drivers/lvgl/src/extra/widgets/calendar/lv_calendar_header_arrow.c ****  *      DEFINES
  19:Drivers/lvgl/src/extra/widgets/calendar/lv_calendar_header_arrow.c ****  *********************/
  20:Drivers/lvgl/src/extra/widgets/calendar/lv_calendar_header_arrow.c **** 
  21:Drivers/lvgl/src/extra/widgets/calendar/lv_calendar_header_arrow.c **** /**********************
  22:Drivers/lvgl/src/extra/widgets/calendar/lv_calendar_header_arrow.c ****  *      TYPEDEFS
  23:Drivers/lvgl/src/extra/widgets/calendar/lv_calendar_header_arrow.c ****  **********************/
ARM GAS  /var/folders/0z/tsy30v1j4xl4_7kw94k978ww0000gn/T//ccpKU4mv.s 			page 2


  24:Drivers/lvgl/src/extra/widgets/calendar/lv_calendar_header_arrow.c **** 
  25:Drivers/lvgl/src/extra/widgets/calendar/lv_calendar_header_arrow.c **** /**********************
  26:Drivers/lvgl/src/extra/widgets/calendar/lv_calendar_header_arrow.c ****  *  STATIC PROTOTYPES
  27:Drivers/lvgl/src/extra/widgets/calendar/lv_calendar_header_arrow.c ****  **********************/
  28:Drivers/lvgl/src/extra/widgets/calendar/lv_calendar_header_arrow.c **** static void my_constructor(const lv_obj_class_t * class_p, lv_obj_t * obj);
  29:Drivers/lvgl/src/extra/widgets/calendar/lv_calendar_header_arrow.c **** static void month_event_cb(lv_event_t * e);
  30:Drivers/lvgl/src/extra/widgets/calendar/lv_calendar_header_arrow.c **** static void value_changed_event_cb(lv_event_t * e);
  31:Drivers/lvgl/src/extra/widgets/calendar/lv_calendar_header_arrow.c **** 
  32:Drivers/lvgl/src/extra/widgets/calendar/lv_calendar_header_arrow.c **** /**********************
  33:Drivers/lvgl/src/extra/widgets/calendar/lv_calendar_header_arrow.c ****  *  STATIC VARIABLES
  34:Drivers/lvgl/src/extra/widgets/calendar/lv_calendar_header_arrow.c ****  **********************/
  35:Drivers/lvgl/src/extra/widgets/calendar/lv_calendar_header_arrow.c **** const lv_obj_class_t lv_calendar_header_arrow_class = {
  36:Drivers/lvgl/src/extra/widgets/calendar/lv_calendar_header_arrow.c ****     .base_class = &lv_obj_class,
  37:Drivers/lvgl/src/extra/widgets/calendar/lv_calendar_header_arrow.c ****     .constructor_cb = my_constructor,
  38:Drivers/lvgl/src/extra/widgets/calendar/lv_calendar_header_arrow.c ****     .width_def = LV_PCT(100),
  39:Drivers/lvgl/src/extra/widgets/calendar/lv_calendar_header_arrow.c ****     .height_def = LV_DPI_DEF / 3
  40:Drivers/lvgl/src/extra/widgets/calendar/lv_calendar_header_arrow.c **** };
  41:Drivers/lvgl/src/extra/widgets/calendar/lv_calendar_header_arrow.c **** 
  42:Drivers/lvgl/src/extra/widgets/calendar/lv_calendar_header_arrow.c **** static const char * month_names_def[12] = LV_CALENDAR_DEFAULT_MONTH_NAMES;
  43:Drivers/lvgl/src/extra/widgets/calendar/lv_calendar_header_arrow.c **** 
  44:Drivers/lvgl/src/extra/widgets/calendar/lv_calendar_header_arrow.c **** /**********************
  45:Drivers/lvgl/src/extra/widgets/calendar/lv_calendar_header_arrow.c ****  *      MACROS
  46:Drivers/lvgl/src/extra/widgets/calendar/lv_calendar_header_arrow.c ****  **********************/
  47:Drivers/lvgl/src/extra/widgets/calendar/lv_calendar_header_arrow.c **** 
  48:Drivers/lvgl/src/extra/widgets/calendar/lv_calendar_header_arrow.c **** /**********************
  49:Drivers/lvgl/src/extra/widgets/calendar/lv_calendar_header_arrow.c ****  *   GLOBAL FUNCTIONS
  50:Drivers/lvgl/src/extra/widgets/calendar/lv_calendar_header_arrow.c ****  **********************/
  51:Drivers/lvgl/src/extra/widgets/calendar/lv_calendar_header_arrow.c **** 
  52:Drivers/lvgl/src/extra/widgets/calendar/lv_calendar_header_arrow.c **** lv_obj_t * lv_calendar_header_arrow_create(lv_obj_t * parent)
  53:Drivers/lvgl/src/extra/widgets/calendar/lv_calendar_header_arrow.c **** {
  54:Drivers/lvgl/src/extra/widgets/calendar/lv_calendar_header_arrow.c ****     lv_obj_t * obj = lv_obj_class_create_obj(&lv_calendar_header_arrow_class, parent);
  55:Drivers/lvgl/src/extra/widgets/calendar/lv_calendar_header_arrow.c ****     lv_obj_class_init_obj(obj);
  56:Drivers/lvgl/src/extra/widgets/calendar/lv_calendar_header_arrow.c ****     return obj;
  57:Drivers/lvgl/src/extra/widgets/calendar/lv_calendar_header_arrow.c **** }
  58:Drivers/lvgl/src/extra/widgets/calendar/lv_calendar_header_arrow.c **** 
  59:Drivers/lvgl/src/extra/widgets/calendar/lv_calendar_header_arrow.c **** /**********************
  60:Drivers/lvgl/src/extra/widgets/calendar/lv_calendar_header_arrow.c ****  *  STATIC FUNCTIONS
  61:Drivers/lvgl/src/extra/widgets/calendar/lv_calendar_header_arrow.c ****  **********************/
  62:Drivers/lvgl/src/extra/widgets/calendar/lv_calendar_header_arrow.c **** 
  63:Drivers/lvgl/src/extra/widgets/calendar/lv_calendar_header_arrow.c **** static void my_constructor(const lv_obj_class_t * class_p, lv_obj_t * obj)
  64:Drivers/lvgl/src/extra/widgets/calendar/lv_calendar_header_arrow.c **** {
  36              		.loc 1 64 1 view -0
  37              		.cfi_startproc
  38              		@ args = 0, pretend = 0, frame = 0
  39              		@ frame_needed = 0, uses_anonymous_args = 0
  40              		.loc 1 64 1 is_stmt 0 view .LVU1
  41 0000 F8B5     		push	{r3, r4, r5, r6, r7, lr}
  42              		.cfi_def_cfa_offset 24
  43              		.cfi_offset 3, -24
  44              		.cfi_offset 4, -20
  45              		.cfi_offset 5, -16
  46              		.cfi_offset 6, -12
  47              		.cfi_offset 7, -8
  48              		.cfi_offset 14, -4
  49 0002 0C46     		mov	r4, r1
  65:Drivers/lvgl/src/extra/widgets/calendar/lv_calendar_header_arrow.c ****     LV_TRACE_OBJ_CREATE("begin");
  50              		.loc 1 65 33 is_stmt 1 view .LVU2
ARM GAS  /var/folders/0z/tsy30v1j4xl4_7kw94k978ww0000gn/T//ccpKU4mv.s 			page 3


  66:Drivers/lvgl/src/extra/widgets/calendar/lv_calendar_header_arrow.c **** 
  67:Drivers/lvgl/src/extra/widgets/calendar/lv_calendar_header_arrow.c ****     LV_UNUSED(class_p);
  51              		.loc 1 67 5 view .LVU3
  68:Drivers/lvgl/src/extra/widgets/calendar/lv_calendar_header_arrow.c **** 
  69:Drivers/lvgl/src/extra/widgets/calendar/lv_calendar_header_arrow.c ****     lv_obj_move_to_index(obj, 0);
  52              		.loc 1 69 5 view .LVU4
  53 0004 0021     		movs	r1, #0
  54              	.LVL1:
  55              		.loc 1 69 5 is_stmt 0 view .LVU5
  56 0006 2046     		mov	r0, r4
  57              	.LVL2:
  58              		.loc 1 69 5 view .LVU6
  59 0008 FFF7FEFF 		bl	lv_obj_move_to_index
  60              	.LVL3:
  70:Drivers/lvgl/src/extra/widgets/calendar/lv_calendar_header_arrow.c **** 
  71:Drivers/lvgl/src/extra/widgets/calendar/lv_calendar_header_arrow.c ****     lv_obj_set_flex_flow(obj, LV_FLEX_FLOW_ROW);
  61              		.loc 1 71 5 is_stmt 1 view .LVU7
  62 000c 0021     		movs	r1, #0
  63 000e 2046     		mov	r0, r4
  64 0010 FFF7FEFF 		bl	lv_obj_set_flex_flow
  65              	.LVL4:
  72:Drivers/lvgl/src/extra/widgets/calendar/lv_calendar_header_arrow.c ****     lv_obj_set_flex_align(obj, LV_FLEX_ALIGN_START, LV_FLEX_ALIGN_CENTER, LV_FLEX_ALIGN_START);
  66              		.loc 1 72 5 view .LVU8
  67 0014 0023     		movs	r3, #0
  68 0016 0222     		movs	r2, #2
  69 0018 1946     		mov	r1, r3
  70 001a 2046     		mov	r0, r4
  71 001c FFF7FEFF 		bl	lv_obj_set_flex_align
  72              	.LVL5:
  73:Drivers/lvgl/src/extra/widgets/calendar/lv_calendar_header_arrow.c **** 
  74:Drivers/lvgl/src/extra/widgets/calendar/lv_calendar_header_arrow.c ****     lv_obj_t * mo_prev = lv_btn_create(obj);
  73              		.loc 1 74 5 view .LVU9
  74              		.loc 1 74 26 is_stmt 0 view .LVU10
  75 0020 2046     		mov	r0, r4
  76 0022 FFF7FEFF 		bl	lv_btn_create
  77              	.LVL6:
  78 0026 0546     		mov	r5, r0
  79              	.LVL7:
  75:Drivers/lvgl/src/extra/widgets/calendar/lv_calendar_header_arrow.c ****     lv_obj_set_style_bg_img_src(mo_prev, LV_SYMBOL_LEFT, 0);
  80              		.loc 1 75 5 is_stmt 1 view .LVU11
  81 0028 0022     		movs	r2, #0
  82 002a 2849     		ldr	r1, .L3
  83 002c FFF7FEFF 		bl	lv_obj_set_style_bg_img_src
  84              	.LVL8:
  76:Drivers/lvgl/src/extra/widgets/calendar/lv_calendar_header_arrow.c ****     lv_obj_set_height(mo_prev, lv_pct(100));
  85              		.loc 1 76 5 view .LVU12
  86 0030 42F26401 		movw	r1, #8292
  87 0034 2846     		mov	r0, r5
  88 0036 FFF7FEFF 		bl	lv_obj_set_height
  89              	.LVL9:
  77:Drivers/lvgl/src/extra/widgets/calendar/lv_calendar_header_arrow.c ****     lv_obj_update_layout(mo_prev);
  90              		.loc 1 77 5 view .LVU13
  91 003a 2846     		mov	r0, r5
  92 003c FFF7FEFF 		bl	lv_obj_update_layout
  93              	.LVL10:
  78:Drivers/lvgl/src/extra/widgets/calendar/lv_calendar_header_arrow.c ****     lv_coord_t btn_size = lv_obj_get_height(mo_prev);
  94              		.loc 1 78 5 view .LVU14
ARM GAS  /var/folders/0z/tsy30v1j4xl4_7kw94k978ww0000gn/T//ccpKU4mv.s 			page 4


  95              		.loc 1 78 27 is_stmt 0 view .LVU15
  96 0040 2846     		mov	r0, r5
  97 0042 FFF7FEFF 		bl	lv_obj_get_height
  98              	.LVL11:
  99 0046 0646     		mov	r6, r0
 100              	.LVL12:
  79:Drivers/lvgl/src/extra/widgets/calendar/lv_calendar_header_arrow.c ****     lv_obj_set_width(mo_prev, btn_size);
 101              		.loc 1 79 5 is_stmt 1 view .LVU16
 102 0048 0146     		mov	r1, r0
 103 004a 2846     		mov	r0, r5
 104              	.LVL13:
 105              		.loc 1 79 5 is_stmt 0 view .LVU17
 106 004c FFF7FEFF 		bl	lv_obj_set_width
 107              	.LVL14:
  80:Drivers/lvgl/src/extra/widgets/calendar/lv_calendar_header_arrow.c **** 
  81:Drivers/lvgl/src/extra/widgets/calendar/lv_calendar_header_arrow.c ****     lv_obj_add_event_cb(mo_prev, month_event_cb, LV_EVENT_CLICKED, NULL);
 108              		.loc 1 81 5 is_stmt 1 view .LVU18
 109 0050 1F4F     		ldr	r7, .L3+4
 110 0052 0023     		movs	r3, #0
 111 0054 0722     		movs	r2, #7
 112 0056 3946     		mov	r1, r7
 113 0058 2846     		mov	r0, r5
 114 005a FFF7FEFF 		bl	lv_obj_add_event_cb
 115              	.LVL15:
  82:Drivers/lvgl/src/extra/widgets/calendar/lv_calendar_header_arrow.c ****     lv_obj_clear_flag(mo_prev, LV_OBJ_FLAG_CLICK_FOCUSABLE);
 116              		.loc 1 82 5 view .LVU19
 117 005e 0421     		movs	r1, #4
 118 0060 2846     		mov	r0, r5
 119 0062 FFF7FEFF 		bl	lv_obj_clear_flag
 120              	.LVL16:
  83:Drivers/lvgl/src/extra/widgets/calendar/lv_calendar_header_arrow.c **** 
  84:Drivers/lvgl/src/extra/widgets/calendar/lv_calendar_header_arrow.c ****     lv_obj_t * label = lv_label_create(obj);
 121              		.loc 1 84 5 view .LVU20
 122              		.loc 1 84 24 is_stmt 0 view .LVU21
 123 0066 2046     		mov	r0, r4
 124 0068 FFF7FEFF 		bl	lv_label_create
 125              	.LVL17:
 126 006c 0546     		mov	r5, r0
 127              	.LVL18:
  85:Drivers/lvgl/src/extra/widgets/calendar/lv_calendar_header_arrow.c ****     lv_label_set_long_mode(label, LV_LABEL_LONG_SCROLL_CIRCULAR);
 128              		.loc 1 85 5 is_stmt 1 view .LVU22
 129 006e 0321     		movs	r1, #3
 130 0070 FFF7FEFF 		bl	lv_label_set_long_mode
 131              	.LVL19:
  86:Drivers/lvgl/src/extra/widgets/calendar/lv_calendar_header_arrow.c ****     lv_obj_set_style_text_align(label, LV_TEXT_ALIGN_CENTER, 0);
 132              		.loc 1 86 5 view .LVU23
 133 0074 0022     		movs	r2, #0
 134 0076 0221     		movs	r1, #2
 135 0078 2846     		mov	r0, r5
 136 007a FFF7FEFF 		bl	lv_obj_set_style_text_align
 137              	.LVL20:
  87:Drivers/lvgl/src/extra/widgets/calendar/lv_calendar_header_arrow.c ****     lv_obj_set_flex_grow(label, 1);
 138              		.loc 1 87 5 view .LVU24
 139 007e 0121     		movs	r1, #1
 140 0080 2846     		mov	r0, r5
 141 0082 FFF7FEFF 		bl	lv_obj_set_flex_grow
 142              	.LVL21:
ARM GAS  /var/folders/0z/tsy30v1j4xl4_7kw94k978ww0000gn/T//ccpKU4mv.s 			page 5


  88:Drivers/lvgl/src/extra/widgets/calendar/lv_calendar_header_arrow.c **** 
  89:Drivers/lvgl/src/extra/widgets/calendar/lv_calendar_header_arrow.c ****     lv_obj_t * mo_next = lv_btn_create(obj);
 143              		.loc 1 89 5 view .LVU25
 144              		.loc 1 89 26 is_stmt 0 view .LVU26
 145 0086 2046     		mov	r0, r4
 146 0088 FFF7FEFF 		bl	lv_btn_create
 147              	.LVL22:
 148 008c 0546     		mov	r5, r0
 149              	.LVL23:
  90:Drivers/lvgl/src/extra/widgets/calendar/lv_calendar_header_arrow.c ****     lv_obj_set_style_bg_img_src(mo_next, LV_SYMBOL_RIGHT, 0);
 150              		.loc 1 90 5 is_stmt 1 view .LVU27
 151 008e 0022     		movs	r2, #0
 152 0090 1049     		ldr	r1, .L3+8
 153 0092 FFF7FEFF 		bl	lv_obj_set_style_bg_img_src
 154              	.LVL24:
  91:Drivers/lvgl/src/extra/widgets/calendar/lv_calendar_header_arrow.c ****     lv_obj_set_size(mo_next, btn_size, btn_size);
 155              		.loc 1 91 5 view .LVU28
 156 0096 3246     		mov	r2, r6
 157 0098 3146     		mov	r1, r6
 158 009a 2846     		mov	r0, r5
 159 009c FFF7FEFF 		bl	lv_obj_set_size
 160              	.LVL25:
  92:Drivers/lvgl/src/extra/widgets/calendar/lv_calendar_header_arrow.c **** 
  93:Drivers/lvgl/src/extra/widgets/calendar/lv_calendar_header_arrow.c ****     lv_obj_add_event_cb(mo_next, month_event_cb, LV_EVENT_CLICKED, NULL);
 161              		.loc 1 93 5 view .LVU29
 162 00a0 0023     		movs	r3, #0
 163 00a2 0722     		movs	r2, #7
 164 00a4 3946     		mov	r1, r7
 165 00a6 2846     		mov	r0, r5
 166 00a8 FFF7FEFF 		bl	lv_obj_add_event_cb
 167              	.LVL26:
  94:Drivers/lvgl/src/extra/widgets/calendar/lv_calendar_header_arrow.c ****     lv_obj_clear_flag(mo_next, LV_OBJ_FLAG_CLICK_FOCUSABLE);
 168              		.loc 1 94 5 view .LVU30
 169 00ac 0421     		movs	r1, #4
 170 00ae 2846     		mov	r0, r5
 171 00b0 FFF7FEFF 		bl	lv_obj_clear_flag
 172              	.LVL27:
  95:Drivers/lvgl/src/extra/widgets/calendar/lv_calendar_header_arrow.c **** 
  96:Drivers/lvgl/src/extra/widgets/calendar/lv_calendar_header_arrow.c ****     lv_obj_add_event_cb(obj, value_changed_event_cb, LV_EVENT_VALUE_CHANGED, NULL);
 173              		.loc 1 96 5 view .LVU31
 174 00b4 0023     		movs	r3, #0
 175 00b6 1C22     		movs	r2, #28
 176 00b8 0749     		ldr	r1, .L3+12
 177 00ba 2046     		mov	r0, r4
 178 00bc FFF7FEFF 		bl	lv_obj_add_event_cb
 179              	.LVL28:
  97:Drivers/lvgl/src/extra/widgets/calendar/lv_calendar_header_arrow.c ****     /*Refresh the drop downs*/
  98:Drivers/lvgl/src/extra/widgets/calendar/lv_calendar_header_arrow.c ****     lv_event_send(obj, LV_EVENT_VALUE_CHANGED, NULL);
 180              		.loc 1 98 5 view .LVU32
 181 00c0 0022     		movs	r2, #0
 182 00c2 1C21     		movs	r1, #28
 183 00c4 2046     		mov	r0, r4
 184 00c6 FFF7FEFF 		bl	lv_event_send
 185              	.LVL29:
  99:Drivers/lvgl/src/extra/widgets/calendar/lv_calendar_header_arrow.c **** }
 186              		.loc 1 99 1 is_stmt 0 view .LVU33
 187 00ca F8BD     		pop	{r3, r4, r5, r6, r7, pc}
ARM GAS  /var/folders/0z/tsy30v1j4xl4_7kw94k978ww0000gn/T//ccpKU4mv.s 			page 6


 188              	.LVL30:
 189              	.L4:
 190              		.loc 1 99 1 view .LVU34
 191              		.align	2
 192              	.L3:
 193 00cc 00000000 		.word	.LC0
 194 00d0 00000000 		.word	month_event_cb
 195 00d4 04000000 		.word	.LC1
 196 00d8 00000000 		.word	value_changed_event_cb
 197              		.cfi_endproc
 198              	.LFE167:
 200              		.section	.rodata.value_changed_event_cb.str1.4,"aMS",%progbits,1
 201              		.align	2
 202              	.LC2:
 203 0000 25642025 		.ascii	"%d %s\000"
 203      7300
 204              		.section	.text.value_changed_event_cb,"ax",%progbits
 205              		.align	1
 206              		.syntax unified
 207              		.thumb
 208              		.thumb_func
 210              	value_changed_event_cb:
 211              	.LVL31:
 212              	.LFB169:
 100:Drivers/lvgl/src/extra/widgets/calendar/lv_calendar_header_arrow.c **** 
 101:Drivers/lvgl/src/extra/widgets/calendar/lv_calendar_header_arrow.c **** static void month_event_cb(lv_event_t * e)
 102:Drivers/lvgl/src/extra/widgets/calendar/lv_calendar_header_arrow.c **** {
 103:Drivers/lvgl/src/extra/widgets/calendar/lv_calendar_header_arrow.c ****     lv_obj_t * btn = lv_event_get_target(e);
 104:Drivers/lvgl/src/extra/widgets/calendar/lv_calendar_header_arrow.c **** 
 105:Drivers/lvgl/src/extra/widgets/calendar/lv_calendar_header_arrow.c ****     lv_obj_t * header = lv_obj_get_parent(btn);
 106:Drivers/lvgl/src/extra/widgets/calendar/lv_calendar_header_arrow.c ****     lv_obj_t * calendar = lv_obj_get_parent(header);
 107:Drivers/lvgl/src/extra/widgets/calendar/lv_calendar_header_arrow.c **** 
 108:Drivers/lvgl/src/extra/widgets/calendar/lv_calendar_header_arrow.c ****     const lv_calendar_date_t * d;
 109:Drivers/lvgl/src/extra/widgets/calendar/lv_calendar_header_arrow.c ****     d = lv_calendar_get_showed_date(calendar);
 110:Drivers/lvgl/src/extra/widgets/calendar/lv_calendar_header_arrow.c ****     lv_calendar_date_t newd = *d;
 111:Drivers/lvgl/src/extra/widgets/calendar/lv_calendar_header_arrow.c **** 
 112:Drivers/lvgl/src/extra/widgets/calendar/lv_calendar_header_arrow.c ****     /*The last child is the right button*/
 113:Drivers/lvgl/src/extra/widgets/calendar/lv_calendar_header_arrow.c ****     if(lv_obj_get_child(header, 0) == btn) {
 114:Drivers/lvgl/src/extra/widgets/calendar/lv_calendar_header_arrow.c ****         if(newd.month == 1) {
 115:Drivers/lvgl/src/extra/widgets/calendar/lv_calendar_header_arrow.c ****             newd.month = 12;
 116:Drivers/lvgl/src/extra/widgets/calendar/lv_calendar_header_arrow.c ****             newd.year --;
 117:Drivers/lvgl/src/extra/widgets/calendar/lv_calendar_header_arrow.c ****         }
 118:Drivers/lvgl/src/extra/widgets/calendar/lv_calendar_header_arrow.c ****         else {
 119:Drivers/lvgl/src/extra/widgets/calendar/lv_calendar_header_arrow.c ****             newd.month --;
 120:Drivers/lvgl/src/extra/widgets/calendar/lv_calendar_header_arrow.c ****         }
 121:Drivers/lvgl/src/extra/widgets/calendar/lv_calendar_header_arrow.c ****     }
 122:Drivers/lvgl/src/extra/widgets/calendar/lv_calendar_header_arrow.c ****     else {
 123:Drivers/lvgl/src/extra/widgets/calendar/lv_calendar_header_arrow.c ****         if(newd.month == 12) {
 124:Drivers/lvgl/src/extra/widgets/calendar/lv_calendar_header_arrow.c ****             newd.month = 1;
 125:Drivers/lvgl/src/extra/widgets/calendar/lv_calendar_header_arrow.c ****             newd.year ++;
 126:Drivers/lvgl/src/extra/widgets/calendar/lv_calendar_header_arrow.c ****         }
 127:Drivers/lvgl/src/extra/widgets/calendar/lv_calendar_header_arrow.c ****         else {
 128:Drivers/lvgl/src/extra/widgets/calendar/lv_calendar_header_arrow.c ****             newd.month ++;
 129:Drivers/lvgl/src/extra/widgets/calendar/lv_calendar_header_arrow.c ****         }
 130:Drivers/lvgl/src/extra/widgets/calendar/lv_calendar_header_arrow.c ****     }
 131:Drivers/lvgl/src/extra/widgets/calendar/lv_calendar_header_arrow.c **** 
 132:Drivers/lvgl/src/extra/widgets/calendar/lv_calendar_header_arrow.c ****     lv_calendar_set_showed_date(calendar, newd.year, newd.month);
ARM GAS  /var/folders/0z/tsy30v1j4xl4_7kw94k978ww0000gn/T//ccpKU4mv.s 			page 7


 133:Drivers/lvgl/src/extra/widgets/calendar/lv_calendar_header_arrow.c **** 
 134:Drivers/lvgl/src/extra/widgets/calendar/lv_calendar_header_arrow.c ****     lv_obj_t * label = lv_obj_get_child(header, 1);
 135:Drivers/lvgl/src/extra/widgets/calendar/lv_calendar_header_arrow.c ****     lv_label_set_text_fmt(label, "%d %s", newd.year, month_names_def[newd.month - 1]);
 136:Drivers/lvgl/src/extra/widgets/calendar/lv_calendar_header_arrow.c **** }
 137:Drivers/lvgl/src/extra/widgets/calendar/lv_calendar_header_arrow.c **** 
 138:Drivers/lvgl/src/extra/widgets/calendar/lv_calendar_header_arrow.c **** static void value_changed_event_cb(lv_event_t * e)
 139:Drivers/lvgl/src/extra/widgets/calendar/lv_calendar_header_arrow.c **** {
 213              		.loc 1 139 1 is_stmt 1 view -0
 214              		.cfi_startproc
 215              		@ args = 0, pretend = 0, frame = 0
 216              		@ frame_needed = 0, uses_anonymous_args = 0
 217              		.loc 1 139 1 is_stmt 0 view .LVU36
 218 0000 38B5     		push	{r3, r4, r5, lr}
 219              		.cfi_def_cfa_offset 16
 220              		.cfi_offset 3, -16
 221              		.cfi_offset 4, -12
 222              		.cfi_offset 5, -8
 223              		.cfi_offset 14, -4
 140:Drivers/lvgl/src/extra/widgets/calendar/lv_calendar_header_arrow.c ****     lv_obj_t * header = lv_event_get_target(e);
 224              		.loc 1 140 5 is_stmt 1 view .LVU37
 225              		.loc 1 140 25 is_stmt 0 view .LVU38
 226 0002 FFF7FEFF 		bl	lv_event_get_target
 227              	.LVL32:
 228              		.loc 1 140 25 view .LVU39
 229 0006 0546     		mov	r5, r0
 230              	.LVL33:
 141:Drivers/lvgl/src/extra/widgets/calendar/lv_calendar_header_arrow.c ****     lv_obj_t * calendar = lv_obj_get_parent(header);
 231              		.loc 1 141 5 is_stmt 1 view .LVU40
 232              		.loc 1 141 27 is_stmt 0 view .LVU41
 233 0008 FFF7FEFF 		bl	lv_obj_get_parent
 234              	.LVL34:
 142:Drivers/lvgl/src/extra/widgets/calendar/lv_calendar_header_arrow.c **** 
 143:Drivers/lvgl/src/extra/widgets/calendar/lv_calendar_header_arrow.c ****     const lv_calendar_date_t * cur_date = lv_calendar_get_showed_date(calendar);
 235              		.loc 1 143 5 is_stmt 1 view .LVU42
 236              		.loc 1 143 43 is_stmt 0 view .LVU43
 237 000c FFF7FEFF 		bl	lv_calendar_get_showed_date
 238              	.LVL35:
 239              		.loc 1 143 43 view .LVU44
 240 0010 0446     		mov	r4, r0
 241              	.LVL36:
 144:Drivers/lvgl/src/extra/widgets/calendar/lv_calendar_header_arrow.c ****     lv_obj_t * label = lv_obj_get_child(header, 1);
 242              		.loc 1 144 5 is_stmt 1 view .LVU45
 243              		.loc 1 144 24 is_stmt 0 view .LVU46
 244 0012 0121     		movs	r1, #1
 245 0014 2846     		mov	r0, r5
 246              	.LVL37:
 247              		.loc 1 144 24 view .LVU47
 248 0016 FFF7FEFF 		bl	lv_obj_get_child
 249              	.LVL38:
 145:Drivers/lvgl/src/extra/widgets/calendar/lv_calendar_header_arrow.c ****     lv_label_set_text_fmt(label, "%d %s", cur_date->year, month_names_def[cur_date->month - 1]);
 250              		.loc 1 145 5 is_stmt 1 view .LVU48
 251              		.loc 1 145 83 is_stmt 0 view .LVU49
 252 001a 94F90230 		ldrsb	r3, [r4, #2]
 253              		.loc 1 145 91 view .LVU50
 254 001e 013B     		subs	r3, r3, #1
 255              		.loc 1 145 5 view .LVU51
 256 0020 034A     		ldr	r2, .L7
ARM GAS  /var/folders/0z/tsy30v1j4xl4_7kw94k978ww0000gn/T//ccpKU4mv.s 			page 8


 257 0022 52F82330 		ldr	r3, [r2, r3, lsl #2]
 258 0026 2288     		ldrh	r2, [r4]
 259 0028 0249     		ldr	r1, .L7+4
 260 002a FFF7FEFF 		bl	lv_label_set_text_fmt
 261              	.LVL39:
 146:Drivers/lvgl/src/extra/widgets/calendar/lv_calendar_header_arrow.c **** }
 262              		.loc 1 146 1 view .LVU52
 263 002e 38BD     		pop	{r3, r4, r5, pc}
 264              	.LVL40:
 265              	.L8:
 266              		.loc 1 146 1 view .LVU53
 267              		.align	2
 268              	.L7:
 269 0030 00000000 		.word	.LANCHOR0
 270 0034 00000000 		.word	.LC2
 271              		.cfi_endproc
 272              	.LFE169:
 274              		.section	.text.month_event_cb,"ax",%progbits
 275              		.align	1
 276              		.syntax unified
 277              		.thumb
 278              		.thumb_func
 280              	month_event_cb:
 281              	.LVL41:
 282              	.LFB168:
 102:Drivers/lvgl/src/extra/widgets/calendar/lv_calendar_header_arrow.c ****     lv_obj_t * btn = lv_event_get_target(e);
 283              		.loc 1 102 1 is_stmt 1 view -0
 284              		.cfi_startproc
 285              		@ args = 0, pretend = 0, frame = 8
 286              		@ frame_needed = 0, uses_anonymous_args = 0
 102:Drivers/lvgl/src/extra/widgets/calendar/lv_calendar_header_arrow.c ****     lv_obj_t * btn = lv_event_get_target(e);
 287              		.loc 1 102 1 is_stmt 0 view .LVU55
 288 0000 F0B5     		push	{r4, r5, r6, r7, lr}
 289              		.cfi_def_cfa_offset 20
 290              		.cfi_offset 4, -20
 291              		.cfi_offset 5, -16
 292              		.cfi_offset 6, -12
 293              		.cfi_offset 7, -8
 294              		.cfi_offset 14, -4
 295 0002 83B0     		sub	sp, sp, #12
 296              		.cfi_def_cfa_offset 32
 103:Drivers/lvgl/src/extra/widgets/calendar/lv_calendar_header_arrow.c **** 
 297              		.loc 1 103 5 is_stmt 1 view .LVU56
 103:Drivers/lvgl/src/extra/widgets/calendar/lv_calendar_header_arrow.c **** 
 298              		.loc 1 103 22 is_stmt 0 view .LVU57
 299 0004 FFF7FEFF 		bl	lv_event_get_target
 300              	.LVL42:
 103:Drivers/lvgl/src/extra/widgets/calendar/lv_calendar_header_arrow.c **** 
 301              		.loc 1 103 22 view .LVU58
 302 0008 0446     		mov	r4, r0
 303              	.LVL43:
 105:Drivers/lvgl/src/extra/widgets/calendar/lv_calendar_header_arrow.c ****     lv_obj_t * calendar = lv_obj_get_parent(header);
 304              		.loc 1 105 5 is_stmt 1 view .LVU59
 105:Drivers/lvgl/src/extra/widgets/calendar/lv_calendar_header_arrow.c ****     lv_obj_t * calendar = lv_obj_get_parent(header);
 305              		.loc 1 105 25 is_stmt 0 view .LVU60
 306 000a FFF7FEFF 		bl	lv_obj_get_parent
 307              	.LVL44:
ARM GAS  /var/folders/0z/tsy30v1j4xl4_7kw94k978ww0000gn/T//ccpKU4mv.s 			page 9


 105:Drivers/lvgl/src/extra/widgets/calendar/lv_calendar_header_arrow.c ****     lv_obj_t * calendar = lv_obj_get_parent(header);
 308              		.loc 1 105 25 view .LVU61
 309 000e 0546     		mov	r5, r0
 310              	.LVL45:
 106:Drivers/lvgl/src/extra/widgets/calendar/lv_calendar_header_arrow.c **** 
 311              		.loc 1 106 5 is_stmt 1 view .LVU62
 106:Drivers/lvgl/src/extra/widgets/calendar/lv_calendar_header_arrow.c **** 
 312              		.loc 1 106 27 is_stmt 0 view .LVU63
 313 0010 FFF7FEFF 		bl	lv_obj_get_parent
 314              	.LVL46:
 106:Drivers/lvgl/src/extra/widgets/calendar/lv_calendar_header_arrow.c **** 
 315              		.loc 1 106 27 view .LVU64
 316 0014 0646     		mov	r6, r0
 317              	.LVL47:
 108:Drivers/lvgl/src/extra/widgets/calendar/lv_calendar_header_arrow.c ****     d = lv_calendar_get_showed_date(calendar);
 318              		.loc 1 108 5 is_stmt 1 view .LVU65
 109:Drivers/lvgl/src/extra/widgets/calendar/lv_calendar_header_arrow.c ****     lv_calendar_date_t newd = *d;
 319              		.loc 1 109 5 view .LVU66
 109:Drivers/lvgl/src/extra/widgets/calendar/lv_calendar_header_arrow.c ****     lv_calendar_date_t newd = *d;
 320              		.loc 1 109 9 is_stmt 0 view .LVU67
 321 0016 FFF7FEFF 		bl	lv_calendar_get_showed_date
 322              	.LVL48:
 110:Drivers/lvgl/src/extra/widgets/calendar/lv_calendar_header_arrow.c **** 
 323              		.loc 1 110 5 is_stmt 1 view .LVU68
 110:Drivers/lvgl/src/extra/widgets/calendar/lv_calendar_header_arrow.c **** 
 324              		.loc 1 110 24 is_stmt 0 view .LVU69
 325 001a 0068     		ldr	r0, [r0]	@ unaligned
 326              	.LVL49:
 110:Drivers/lvgl/src/extra/widgets/calendar/lv_calendar_header_arrow.c **** 
 327              		.loc 1 110 24 view .LVU70
 328 001c 0190     		str	r0, [sp, #4]
 113:Drivers/lvgl/src/extra/widgets/calendar/lv_calendar_header_arrow.c ****         if(newd.month == 1) {
 329              		.loc 1 113 5 is_stmt 1 view .LVU71
 113:Drivers/lvgl/src/extra/widgets/calendar/lv_calendar_header_arrow.c ****         if(newd.month == 1) {
 330              		.loc 1 113 8 is_stmt 0 view .LVU72
 331 001e 0021     		movs	r1, #0
 332 0020 2846     		mov	r0, r5
 333 0022 FFF7FEFF 		bl	lv_obj_get_child
 334              	.LVL50:
 113:Drivers/lvgl/src/extra/widgets/calendar/lv_calendar_header_arrow.c ****         if(newd.month == 1) {
 335              		.loc 1 113 7 view .LVU73
 336 0026 8442     		cmp	r4, r0
 337 0028 1DD0     		beq	.L15
 123:Drivers/lvgl/src/extra/widgets/calendar/lv_calendar_header_arrow.c ****             newd.month = 1;
 338              		.loc 1 123 9 is_stmt 1 view .LVU74
 123:Drivers/lvgl/src/extra/widgets/calendar/lv_calendar_header_arrow.c ****             newd.month = 1;
 339              		.loc 1 123 16 is_stmt 0 view .LVU75
 340 002a 9DF90630 		ldrsb	r3, [sp, #6]
 123:Drivers/lvgl/src/extra/widgets/calendar/lv_calendar_header_arrow.c ****             newd.month = 1;
 341              		.loc 1 123 11 view .LVU76
 342 002e 0C2B     		cmp	r3, #12
 343 0030 2AD0     		beq	.L16
 128:Drivers/lvgl/src/extra/widgets/calendar/lv_calendar_header_arrow.c ****         }
 344              		.loc 1 128 13 is_stmt 1 view .LVU77
 128:Drivers/lvgl/src/extra/widgets/calendar/lv_calendar_header_arrow.c ****         }
 345              		.loc 1 128 24 is_stmt 0 view .LVU78
 346 0032 0133     		adds	r3, r3, #1
ARM GAS  /var/folders/0z/tsy30v1j4xl4_7kw94k978ww0000gn/T//ccpKU4mv.s 			page 10


 347 0034 8DF80630 		strb	r3, [sp, #6]
 348              	.L12:
 132:Drivers/lvgl/src/extra/widgets/calendar/lv_calendar_header_arrow.c **** 
 349              		.loc 1 132 5 is_stmt 1 view .LVU79
 132:Drivers/lvgl/src/extra/widgets/calendar/lv_calendar_header_arrow.c **** 
 350              		.loc 1 132 47 is_stmt 0 view .LVU80
 351 0038 BDF80470 		ldrh	r7, [sp, #4]
 132:Drivers/lvgl/src/extra/widgets/calendar/lv_calendar_header_arrow.c **** 
 352              		.loc 1 132 58 view .LVU81
 353 003c 9DF90640 		ldrsb	r4, [sp, #6]
 354              	.LVL51:
 132:Drivers/lvgl/src/extra/widgets/calendar/lv_calendar_header_arrow.c **** 
 355              		.loc 1 132 5 view .LVU82
 356 0040 2246     		mov	r2, r4
 357 0042 3946     		mov	r1, r7
 358 0044 3046     		mov	r0, r6
 359 0046 FFF7FEFF 		bl	lv_calendar_set_showed_date
 360              	.LVL52:
 134:Drivers/lvgl/src/extra/widgets/calendar/lv_calendar_header_arrow.c ****     lv_label_set_text_fmt(label, "%d %s", newd.year, month_names_def[newd.month - 1]);
 361              		.loc 1 134 5 is_stmt 1 view .LVU83
 134:Drivers/lvgl/src/extra/widgets/calendar/lv_calendar_header_arrow.c ****     lv_label_set_text_fmt(label, "%d %s", newd.year, month_names_def[newd.month - 1]);
 362              		.loc 1 134 24 is_stmt 0 view .LVU84
 363 004a 0121     		movs	r1, #1
 364 004c 2846     		mov	r0, r5
 365 004e FFF7FEFF 		bl	lv_obj_get_child
 366              	.LVL53:
 135:Drivers/lvgl/src/extra/widgets/calendar/lv_calendar_header_arrow.c **** }
 367              		.loc 1 135 5 is_stmt 1 view .LVU85
 135:Drivers/lvgl/src/extra/widgets/calendar/lv_calendar_header_arrow.c **** }
 368              		.loc 1 135 81 is_stmt 0 view .LVU86
 369 0052 013C     		subs	r4, r4, #1
 135:Drivers/lvgl/src/extra/widgets/calendar/lv_calendar_header_arrow.c **** }
 370              		.loc 1 135 5 view .LVU87
 371 0054 114B     		ldr	r3, .L18
 372 0056 53F82430 		ldr	r3, [r3, r4, lsl #2]
 373 005a 3A46     		mov	r2, r7
 374 005c 1049     		ldr	r1, .L18+4
 375 005e FFF7FEFF 		bl	lv_label_set_text_fmt
 376              	.LVL54:
 136:Drivers/lvgl/src/extra/widgets/calendar/lv_calendar_header_arrow.c **** 
 377              		.loc 1 136 1 view .LVU88
 378 0062 03B0     		add	sp, sp, #12
 379              		.cfi_remember_state
 380              		.cfi_def_cfa_offset 20
 381              		@ sp needed
 382 0064 F0BD     		pop	{r4, r5, r6, r7, pc}
 383              	.LVL55:
 384              	.L15:
 385              		.cfi_restore_state
 114:Drivers/lvgl/src/extra/widgets/calendar/lv_calendar_header_arrow.c ****             newd.month = 12;
 386              		.loc 1 114 9 is_stmt 1 view .LVU89
 114:Drivers/lvgl/src/extra/widgets/calendar/lv_calendar_header_arrow.c ****             newd.month = 12;
 387              		.loc 1 114 16 is_stmt 0 view .LVU90
 388 0066 9DF90630 		ldrsb	r3, [sp, #6]
 114:Drivers/lvgl/src/extra/widgets/calendar/lv_calendar_header_arrow.c ****             newd.month = 12;
 389              		.loc 1 114 11 view .LVU91
 390 006a 012B     		cmp	r3, #1
ARM GAS  /var/folders/0z/tsy30v1j4xl4_7kw94k978ww0000gn/T//ccpKU4mv.s 			page 11


 391 006c 03D0     		beq	.L17
 119:Drivers/lvgl/src/extra/widgets/calendar/lv_calendar_header_arrow.c ****         }
 392              		.loc 1 119 13 is_stmt 1 view .LVU92
 119:Drivers/lvgl/src/extra/widgets/calendar/lv_calendar_header_arrow.c ****         }
 393              		.loc 1 119 24 is_stmt 0 view .LVU93
 394 006e 013B     		subs	r3, r3, #1
 395 0070 8DF80630 		strb	r3, [sp, #6]
 396 0074 E0E7     		b	.L12
 397              	.L17:
 115:Drivers/lvgl/src/extra/widgets/calendar/lv_calendar_header_arrow.c ****             newd.year --;
 398              		.loc 1 115 13 is_stmt 1 view .LVU94
 115:Drivers/lvgl/src/extra/widgets/calendar/lv_calendar_header_arrow.c ****             newd.year --;
 399              		.loc 1 115 24 is_stmt 0 view .LVU95
 400 0076 0C23     		movs	r3, #12
 401 0078 8DF80630 		strb	r3, [sp, #6]
 116:Drivers/lvgl/src/extra/widgets/calendar/lv_calendar_header_arrow.c ****         }
 402              		.loc 1 116 13 is_stmt 1 view .LVU96
 116:Drivers/lvgl/src/extra/widgets/calendar/lv_calendar_header_arrow.c ****         }
 403              		.loc 1 116 17 is_stmt 0 view .LVU97
 404 007c BDF80430 		ldrh	r3, [sp, #4]
 116:Drivers/lvgl/src/extra/widgets/calendar/lv_calendar_header_arrow.c ****         }
 405              		.loc 1 116 23 view .LVU98
 406 0080 013B     		subs	r3, r3, #1
 407 0082 ADF80430 		strh	r3, [sp, #4]	@ movhi
 408 0086 D7E7     		b	.L12
 409              	.L16:
 124:Drivers/lvgl/src/extra/widgets/calendar/lv_calendar_header_arrow.c ****             newd.year ++;
 410              		.loc 1 124 13 is_stmt 1 view .LVU99
 124:Drivers/lvgl/src/extra/widgets/calendar/lv_calendar_header_arrow.c ****             newd.year ++;
 411              		.loc 1 124 24 is_stmt 0 view .LVU100
 412 0088 0123     		movs	r3, #1
 413 008a 8DF80630 		strb	r3, [sp, #6]
 125:Drivers/lvgl/src/extra/widgets/calendar/lv_calendar_header_arrow.c ****         }
 414              		.loc 1 125 13 is_stmt 1 view .LVU101
 125:Drivers/lvgl/src/extra/widgets/calendar/lv_calendar_header_arrow.c ****         }
 415              		.loc 1 125 17 is_stmt 0 view .LVU102
 416 008e BDF80430 		ldrh	r3, [sp, #4]
 125:Drivers/lvgl/src/extra/widgets/calendar/lv_calendar_header_arrow.c ****         }
 417              		.loc 1 125 23 view .LVU103
 418 0092 0133     		adds	r3, r3, #1
 419 0094 ADF80430 		strh	r3, [sp, #4]	@ movhi
 420 0098 CEE7     		b	.L12
 421              	.L19:
 422 009a 00BF     		.align	2
 423              	.L18:
 424 009c 00000000 		.word	.LANCHOR0
 425 00a0 00000000 		.word	.LC2
 426              		.cfi_endproc
 427              	.LFE168:
 429              		.section	.text.lv_calendar_header_arrow_create,"ax",%progbits
 430              		.align	1
 431              		.global	lv_calendar_header_arrow_create
 432              		.syntax unified
 433              		.thumb
 434              		.thumb_func
 436              	lv_calendar_header_arrow_create:
 437              	.LVL56:
ARM GAS  /var/folders/0z/tsy30v1j4xl4_7kw94k978ww0000gn/T//ccpKU4mv.s 			page 12


 438              	.LFB166:
  53:Drivers/lvgl/src/extra/widgets/calendar/lv_calendar_header_arrow.c ****     lv_obj_t * obj = lv_obj_class_create_obj(&lv_calendar_header_arrow_class, parent);
 439              		.loc 1 53 1 is_stmt 1 view -0
 440              		.cfi_startproc
 441              		@ args = 0, pretend = 0, frame = 0
 442              		@ frame_needed = 0, uses_anonymous_args = 0
  53:Drivers/lvgl/src/extra/widgets/calendar/lv_calendar_header_arrow.c ****     lv_obj_t * obj = lv_obj_class_create_obj(&lv_calendar_header_arrow_class, parent);
 443              		.loc 1 53 1 is_stmt 0 view .LVU105
 444 0000 10B5     		push	{r4, lr}
 445              		.cfi_def_cfa_offset 8
 446              		.cfi_offset 4, -8
 447              		.cfi_offset 14, -4
 448 0002 0146     		mov	r1, r0
  54:Drivers/lvgl/src/extra/widgets/calendar/lv_calendar_header_arrow.c ****     lv_obj_class_init_obj(obj);
 449              		.loc 1 54 5 is_stmt 1 view .LVU106
  54:Drivers/lvgl/src/extra/widgets/calendar/lv_calendar_header_arrow.c ****     lv_obj_class_init_obj(obj);
 450              		.loc 1 54 22 is_stmt 0 view .LVU107
 451 0004 0348     		ldr	r0, .L22
 452              	.LVL57:
  54:Drivers/lvgl/src/extra/widgets/calendar/lv_calendar_header_arrow.c ****     lv_obj_class_init_obj(obj);
 453              		.loc 1 54 22 view .LVU108
 454 0006 FFF7FEFF 		bl	lv_obj_class_create_obj
 455              	.LVL58:
  54:Drivers/lvgl/src/extra/widgets/calendar/lv_calendar_header_arrow.c ****     lv_obj_class_init_obj(obj);
 456              		.loc 1 54 22 view .LVU109
 457 000a 0446     		mov	r4, r0
 458              	.LVL59:
  55:Drivers/lvgl/src/extra/widgets/calendar/lv_calendar_header_arrow.c ****     return obj;
 459              		.loc 1 55 5 is_stmt 1 view .LVU110
 460 000c FFF7FEFF 		bl	lv_obj_class_init_obj
 461              	.LVL60:
  56:Drivers/lvgl/src/extra/widgets/calendar/lv_calendar_header_arrow.c **** }
 462              		.loc 1 56 5 view .LVU111
  57:Drivers/lvgl/src/extra/widgets/calendar/lv_calendar_header_arrow.c **** 
 463              		.loc 1 57 1 is_stmt 0 view .LVU112
 464 0010 2046     		mov	r0, r4
 465 0012 10BD     		pop	{r4, pc}
 466              	.LVL61:
 467              	.L23:
  57:Drivers/lvgl/src/extra/widgets/calendar/lv_calendar_header_arrow.c **** 
 468              		.loc 1 57 1 view .LVU113
 469              		.align	2
 470              	.L22:
 471 0014 00000000 		.word	.LANCHOR1
 472              		.cfi_endproc
 473              	.LFE166:
 475              		.section	.rodata.str1.4,"aMS",%progbits,1
 476              		.align	2
 477              	.LC3:
 478 0000 4A616E75 		.ascii	"January\000"
 478      61727900 
 479              		.align	2
 480              	.LC4:
 481 0008 46656272 		.ascii	"February\000"
 481      75617279 
 481      00
 482 0011 000000   		.align	2
ARM GAS  /var/folders/0z/tsy30v1j4xl4_7kw94k978ww0000gn/T//ccpKU4mv.s 			page 13


 483              	.LC5:
 484 0014 4D617263 		.ascii	"March\000"
 484      6800
 485 001a 0000     		.align	2
 486              	.LC6:
 487 001c 41707269 		.ascii	"April\000"
 487      6C00
 488 0022 0000     		.align	2
 489              	.LC7:
 490 0024 4D617900 		.ascii	"May\000"
 491              		.align	2
 492              	.LC8:
 493 0028 4A756E65 		.ascii	"June\000"
 493      00
 494 002d 000000   		.align	2
 495              	.LC9:
 496 0030 4A756C79 		.ascii	"July\000"
 496      00
 497 0035 000000   		.align	2
 498              	.LC10:
 499 0038 41756775 		.ascii	"August\000"
 499      737400
 500 003f 00       		.align	2
 501              	.LC11:
 502 0040 53657074 		.ascii	"September\000"
 502      656D6265 
 502      7200
 503 004a 0000     		.align	2
 504              	.LC12:
 505 004c 4F63746F 		.ascii	"October\000"
 505      62657200 
 506              		.align	2
 507              	.LC13:
 508 0054 4E6F7665 		.ascii	"November\000"
 508      6D626572 
 508      00
 509 005d 000000   		.align	2
 510              	.LC14:
 511 0060 44656365 		.ascii	"December\000"
 511      6D626572 
 511      00
 512              		.global	lv_calendar_header_arrow_class
 513              		.section	.rodata.lv_calendar_header_arrow_class,"a"
 514              		.align	2
 515              		.set	.LANCHOR1,. + 0
 518              	lv_calendar_header_arrow_class:
 519 0000 00000000 		.word	lv_obj_class
 520 0004 00000000 		.word	my_constructor
 521 0008 00000000 		.space	12
 521      00000000 
 521      00000000 
 522 0014 6420     		.short	8292
 523 0016 2B00     		.short	43
 524 0018 00000000 		.space	4
 525              		.section	.rodata.month_names_def,"a"
 526              		.align	2
 527              		.set	.LANCHOR0,. + 0
ARM GAS  /var/folders/0z/tsy30v1j4xl4_7kw94k978ww0000gn/T//ccpKU4mv.s 			page 14


 530              	month_names_def:
 531 0000 00000000 		.word	.LC3
 532 0004 08000000 		.word	.LC4
 533 0008 14000000 		.word	.LC5
 534 000c 1C000000 		.word	.LC6
 535 0010 24000000 		.word	.LC7
 536 0014 28000000 		.word	.LC8
 537 0018 30000000 		.word	.LC9
 538 001c 38000000 		.word	.LC10
 539 0020 40000000 		.word	.LC11
 540 0024 4C000000 		.word	.LC12
 541 0028 54000000 		.word	.LC13
 542 002c 60000000 		.word	.LC14
 543              		.text
 544              	.Letext0:
 545              		.file 2 "/Users/johannes/Library/Application Support/Code/User/globalStorage/bmd.stm32-for-vscode/
 546              		.file 3 "/Users/johannes/Library/Application Support/Code/User/globalStorage/bmd.stm32-for-vscode/
 547              		.file 4 "Drivers/lvgl/src/extra/widgets/calendar/../../../core/../misc/../font/../misc/lv_area.h"
 548              		.file 5 "Drivers/lvgl/src/extra/widgets/calendar/../../../core/../misc/lv_types.h"
 549              		.file 6 "Drivers/lvgl/src/extra/widgets/calendar/../../../core/../misc/lv_color.h"
 550              		.file 7 "Drivers/lvgl/src/extra/widgets/calendar/../../../core/../misc/lv_txt.h"
 551              		.file 8 "Drivers/lvgl/src/extra/widgets/calendar/../../../core/../misc/lv_style.h"
 552              		.file 9 "Drivers/lvgl/src/extra/widgets/calendar/../../../core/lv_obj.h"
 553              		.file 10 "Drivers/lvgl/src/extra/widgets/calendar/../../../core/../hal/../misc/lv_ll.h"
 554              		.file 11 "Drivers/lvgl/src/extra/widgets/calendar/../../../core/lv_group.h"
 555              		.file 12 "Drivers/lvgl/src/extra/widgets/calendar/../../../core/lv_obj_scroll.h"
 556              		.file 13 "Drivers/lvgl/src/extra/widgets/calendar/../../../core/lv_obj_style.h"
 557              		.file 14 "Drivers/lvgl/src/extra/widgets/calendar/../../../core/lv_obj_class.h"
 558              		.file 15 "Drivers/lvgl/src/extra/widgets/calendar/../../../core/lv_event.h"
 559              		.file 16 "Drivers/lvgl/src/extra/widgets/calendar/lv_calendar_header_arrow.h"
 560              		.file 17 "Drivers/lvgl/src/extra/widgets/calendar/lv_calendar.h"
 561              		.file 18 "Drivers/lvgl/src/extra/widgets/calendar/../../../widgets/lv_label.h"
 562              		.file 19 "Drivers/lvgl/src/extra/widgets/calendar/../../layouts/flex/lv_flex.h"
 563              		.file 20 "Drivers/lvgl/src/extra/widgets/calendar/../../../core/lv_obj_tree.h"
 564              		.file 21 "Drivers/lvgl/src/extra/widgets/calendar/../../../core/../hal/../draw/sw/../../core/lv_ob
 565              		.file 22 "Drivers/lvgl/src/extra/widgets/calendar/../../../core/lv_obj_style_gen.h"
 566              		.file 23 "Drivers/lvgl/src/extra/widgets/calendar/../../../widgets/lv_btn.h"
ARM GAS  /var/folders/0z/tsy30v1j4xl4_7kw94k978ww0000gn/T//ccpKU4mv.s 			page 15

