ARM GAS  /var/folders/0z/tsy30v1j4xl4_7kw94k978ww0000gn/T//ccpQecOs.s 			page 1


   1              		.cpu cortex-m4
   2              		.arch armv7e-m
   3              		.fpu fpv4-sp-d16
   4              		.eabi_attribute 27, 1
   5              		.eabi_attribute 28, 1
   6              		.eabi_attribute 20, 1
   7              		.eabi_attribute 21, 1
   8              		.eabi_attribute 23, 3
   9              		.eabi_attribute 24, 1
  10              		.eabi_attribute 25, 1
  11              		.eabi_attribute 26, 1
  12              		.eabi_attribute 30, 1
  13              		.eabi_attribute 34, 1
  14              		.eabi_attribute 18, 4
  15              		.file	"lv_draw_label.c"
  16              		.text
  17              	.Ltext0:
  18              		.cfi_sections	.debug_frame
  19              		.section	.text.hex_char_to_num,"ax",%progbits
  20              		.align	1
  21              		.syntax unified
  22              		.thumb
  23              		.thumb_func
  25              	hex_char_to_num:
  26              	.LVL0:
  27              	.LFB164:
  28              		.file 1 "Drivers/lvgl/src/draw/lv_draw_label.c"
   1:Drivers/lvgl/src/draw/lv_draw_label.c **** /**
   2:Drivers/lvgl/src/draw/lv_draw_label.c ****  * @file lv_draw_label.c
   3:Drivers/lvgl/src/draw/lv_draw_label.c ****  *
   4:Drivers/lvgl/src/draw/lv_draw_label.c ****  */
   5:Drivers/lvgl/src/draw/lv_draw_label.c **** 
   6:Drivers/lvgl/src/draw/lv_draw_label.c **** /*********************
   7:Drivers/lvgl/src/draw/lv_draw_label.c ****  *      INCLUDES
   8:Drivers/lvgl/src/draw/lv_draw_label.c ****  *********************/
   9:Drivers/lvgl/src/draw/lv_draw_label.c **** #include "lv_draw.h"
  10:Drivers/lvgl/src/draw/lv_draw_label.c **** #include "lv_draw_label.h"
  11:Drivers/lvgl/src/draw/lv_draw_label.c **** #include "../misc/lv_math.h"
  12:Drivers/lvgl/src/draw/lv_draw_label.c **** #include "../hal/lv_hal_disp.h"
  13:Drivers/lvgl/src/draw/lv_draw_label.c **** #include "../core/lv_refr.h"
  14:Drivers/lvgl/src/draw/lv_draw_label.c **** #include "../misc/lv_bidi.h"
  15:Drivers/lvgl/src/draw/lv_draw_label.c **** #include "../misc/lv_assert.h"
  16:Drivers/lvgl/src/draw/lv_draw_label.c **** 
  17:Drivers/lvgl/src/draw/lv_draw_label.c **** /*********************
  18:Drivers/lvgl/src/draw/lv_draw_label.c ****  *      DEFINES
  19:Drivers/lvgl/src/draw/lv_draw_label.c ****  *********************/
  20:Drivers/lvgl/src/draw/lv_draw_label.c **** #define LABEL_RECOLOR_PAR_LENGTH 6
  21:Drivers/lvgl/src/draw/lv_draw_label.c **** #define LV_LABEL_HINT_UPDATE_TH 1024 /*Update the "hint" if the label's y coordinates have changed 
  22:Drivers/lvgl/src/draw/lv_draw_label.c **** 
  23:Drivers/lvgl/src/draw/lv_draw_label.c **** /**********************
  24:Drivers/lvgl/src/draw/lv_draw_label.c ****  *      TYPEDEFS
  25:Drivers/lvgl/src/draw/lv_draw_label.c ****  **********************/
  26:Drivers/lvgl/src/draw/lv_draw_label.c **** enum {
  27:Drivers/lvgl/src/draw/lv_draw_label.c ****     CMD_STATE_WAIT,
  28:Drivers/lvgl/src/draw/lv_draw_label.c ****     CMD_STATE_PAR,
  29:Drivers/lvgl/src/draw/lv_draw_label.c ****     CMD_STATE_IN,
  30:Drivers/lvgl/src/draw/lv_draw_label.c **** };
ARM GAS  /var/folders/0z/tsy30v1j4xl4_7kw94k978ww0000gn/T//ccpQecOs.s 			page 2


  31:Drivers/lvgl/src/draw/lv_draw_label.c **** typedef uint8_t cmd_state_t;
  32:Drivers/lvgl/src/draw/lv_draw_label.c **** 
  33:Drivers/lvgl/src/draw/lv_draw_label.c **** /**********************
  34:Drivers/lvgl/src/draw/lv_draw_label.c ****  *  STATIC PROTOTYPES
  35:Drivers/lvgl/src/draw/lv_draw_label.c ****  **********************/
  36:Drivers/lvgl/src/draw/lv_draw_label.c **** 
  37:Drivers/lvgl/src/draw/lv_draw_label.c **** static uint8_t hex_char_to_num(char hex);
  38:Drivers/lvgl/src/draw/lv_draw_label.c **** 
  39:Drivers/lvgl/src/draw/lv_draw_label.c **** /**********************
  40:Drivers/lvgl/src/draw/lv_draw_label.c ****  *  STATIC VARIABLES
  41:Drivers/lvgl/src/draw/lv_draw_label.c ****  **********************/
  42:Drivers/lvgl/src/draw/lv_draw_label.c **** 
  43:Drivers/lvgl/src/draw/lv_draw_label.c **** /**********************
  44:Drivers/lvgl/src/draw/lv_draw_label.c ****  *  GLOBAL VARIABLES
  45:Drivers/lvgl/src/draw/lv_draw_label.c ****  **********************/
  46:Drivers/lvgl/src/draw/lv_draw_label.c **** 
  47:Drivers/lvgl/src/draw/lv_draw_label.c **** /**********************
  48:Drivers/lvgl/src/draw/lv_draw_label.c ****  *      MACROS
  49:Drivers/lvgl/src/draw/lv_draw_label.c ****  **********************/
  50:Drivers/lvgl/src/draw/lv_draw_label.c **** 
  51:Drivers/lvgl/src/draw/lv_draw_label.c **** /**********************
  52:Drivers/lvgl/src/draw/lv_draw_label.c ****  *   GLOBAL FUNCTIONS
  53:Drivers/lvgl/src/draw/lv_draw_label.c ****  **********************/
  54:Drivers/lvgl/src/draw/lv_draw_label.c **** 
  55:Drivers/lvgl/src/draw/lv_draw_label.c **** void LV_ATTRIBUTE_FAST_MEM lv_draw_label_dsc_init(lv_draw_label_dsc_t * dsc)
  56:Drivers/lvgl/src/draw/lv_draw_label.c **** {
  57:Drivers/lvgl/src/draw/lv_draw_label.c ****     lv_memset_00(dsc, sizeof(lv_draw_label_dsc_t));
  58:Drivers/lvgl/src/draw/lv_draw_label.c ****     dsc->opa = LV_OPA_COVER;
  59:Drivers/lvgl/src/draw/lv_draw_label.c ****     dsc->color = lv_color_black();
  60:Drivers/lvgl/src/draw/lv_draw_label.c ****     dsc->font = LV_FONT_DEFAULT;
  61:Drivers/lvgl/src/draw/lv_draw_label.c ****     dsc->sel_start = LV_DRAW_LABEL_NO_TXT_SEL;
  62:Drivers/lvgl/src/draw/lv_draw_label.c ****     dsc->sel_end = LV_DRAW_LABEL_NO_TXT_SEL;
  63:Drivers/lvgl/src/draw/lv_draw_label.c ****     dsc->sel_color = lv_color_black();
  64:Drivers/lvgl/src/draw/lv_draw_label.c ****     dsc->sel_bg_color = lv_palette_main(LV_PALETTE_BLUE);
  65:Drivers/lvgl/src/draw/lv_draw_label.c ****     dsc->bidi_dir = LV_BASE_DIR_LTR;
  66:Drivers/lvgl/src/draw/lv_draw_label.c **** }
  67:Drivers/lvgl/src/draw/lv_draw_label.c **** 
  68:Drivers/lvgl/src/draw/lv_draw_label.c **** /**
  69:Drivers/lvgl/src/draw/lv_draw_label.c ****  * Write a text
  70:Drivers/lvgl/src/draw/lv_draw_label.c ****  * @param coords coordinates of the label
  71:Drivers/lvgl/src/draw/lv_draw_label.c ****  * @param mask the label will be drawn only in this area
  72:Drivers/lvgl/src/draw/lv_draw_label.c ****  * @param dsc pointer to draw descriptor
  73:Drivers/lvgl/src/draw/lv_draw_label.c ****  * @param txt `\0` terminated text to write
  74:Drivers/lvgl/src/draw/lv_draw_label.c ****  * @param hint pointer to a `lv_draw_label_hint_t` variable.
  75:Drivers/lvgl/src/draw/lv_draw_label.c ****  * It is managed by the draw to speed up the drawing of very long texts (thousands of lines).
  76:Drivers/lvgl/src/draw/lv_draw_label.c ****  */
  77:Drivers/lvgl/src/draw/lv_draw_label.c **** void LV_ATTRIBUTE_FAST_MEM lv_draw_label(lv_draw_ctx_t * draw_ctx, const lv_draw_label_dsc_t * dsc,
  78:Drivers/lvgl/src/draw/lv_draw_label.c ****                                          const lv_area_t * coords, const char * txt, lv_draw_label_
  79:Drivers/lvgl/src/draw/lv_draw_label.c **** {
  80:Drivers/lvgl/src/draw/lv_draw_label.c ****     if(dsc->opa <= LV_OPA_MIN) return;
  81:Drivers/lvgl/src/draw/lv_draw_label.c ****     if(dsc->font == NULL) {
  82:Drivers/lvgl/src/draw/lv_draw_label.c ****         LV_LOG_WARN("dsc->font == NULL");
  83:Drivers/lvgl/src/draw/lv_draw_label.c ****         return;
  84:Drivers/lvgl/src/draw/lv_draw_label.c ****     }
  85:Drivers/lvgl/src/draw/lv_draw_label.c **** 
  86:Drivers/lvgl/src/draw/lv_draw_label.c ****     if(draw_ctx->draw_letter == NULL) {
  87:Drivers/lvgl/src/draw/lv_draw_label.c ****         LV_LOG_WARN("draw->draw_letter == NULL (there is no function to draw letters)");
ARM GAS  /var/folders/0z/tsy30v1j4xl4_7kw94k978ww0000gn/T//ccpQecOs.s 			page 3


  88:Drivers/lvgl/src/draw/lv_draw_label.c ****         return;
  89:Drivers/lvgl/src/draw/lv_draw_label.c ****     }
  90:Drivers/lvgl/src/draw/lv_draw_label.c **** 
  91:Drivers/lvgl/src/draw/lv_draw_label.c ****     lv_draw_label_dsc_t dsc_mod = *dsc;
  92:Drivers/lvgl/src/draw/lv_draw_label.c **** 
  93:Drivers/lvgl/src/draw/lv_draw_label.c ****     const lv_font_t * font = dsc->font;
  94:Drivers/lvgl/src/draw/lv_draw_label.c ****     int32_t w;
  95:Drivers/lvgl/src/draw/lv_draw_label.c **** 
  96:Drivers/lvgl/src/draw/lv_draw_label.c ****     /*No need to waste processor time if string is empty*/
  97:Drivers/lvgl/src/draw/lv_draw_label.c ****     if(txt == NULL || txt[0] == '\0')
  98:Drivers/lvgl/src/draw/lv_draw_label.c ****         return;
  99:Drivers/lvgl/src/draw/lv_draw_label.c **** 
 100:Drivers/lvgl/src/draw/lv_draw_label.c ****     lv_area_t clipped_area;
 101:Drivers/lvgl/src/draw/lv_draw_label.c ****     bool clip_ok = _lv_area_intersect(&clipped_area, coords, draw_ctx->clip_area);
 102:Drivers/lvgl/src/draw/lv_draw_label.c ****     if(!clip_ok) return;
 103:Drivers/lvgl/src/draw/lv_draw_label.c **** 
 104:Drivers/lvgl/src/draw/lv_draw_label.c ****     lv_text_align_t align = dsc->align;
 105:Drivers/lvgl/src/draw/lv_draw_label.c ****     lv_base_dir_t base_dir = dsc->bidi_dir;
 106:Drivers/lvgl/src/draw/lv_draw_label.c **** 
 107:Drivers/lvgl/src/draw/lv_draw_label.c ****     lv_bidi_calculate_align(&align, &base_dir, txt);
 108:Drivers/lvgl/src/draw/lv_draw_label.c **** 
 109:Drivers/lvgl/src/draw/lv_draw_label.c ****     if((dsc->flag & LV_TEXT_FLAG_EXPAND) == 0) {
 110:Drivers/lvgl/src/draw/lv_draw_label.c ****         /*Normally use the label's width as width*/
 111:Drivers/lvgl/src/draw/lv_draw_label.c ****         w = lv_area_get_width(coords);
 112:Drivers/lvgl/src/draw/lv_draw_label.c ****     }
 113:Drivers/lvgl/src/draw/lv_draw_label.c ****     else {
 114:Drivers/lvgl/src/draw/lv_draw_label.c ****         /*If EXPAND is enabled then not limit the text's width to the object's width*/
 115:Drivers/lvgl/src/draw/lv_draw_label.c ****         lv_point_t p;
 116:Drivers/lvgl/src/draw/lv_draw_label.c ****         lv_txt_get_size(&p, txt, dsc->font, dsc->letter_space, dsc->line_space, LV_COORD_MAX,
 117:Drivers/lvgl/src/draw/lv_draw_label.c ****                         dsc->flag);
 118:Drivers/lvgl/src/draw/lv_draw_label.c ****         w = p.x;
 119:Drivers/lvgl/src/draw/lv_draw_label.c ****     }
 120:Drivers/lvgl/src/draw/lv_draw_label.c **** 
 121:Drivers/lvgl/src/draw/lv_draw_label.c ****     int32_t line_height_font = lv_font_get_line_height(font);
 122:Drivers/lvgl/src/draw/lv_draw_label.c ****     int32_t line_height = line_height_font + dsc->line_space;
 123:Drivers/lvgl/src/draw/lv_draw_label.c **** 
 124:Drivers/lvgl/src/draw/lv_draw_label.c ****     /*Init variables for the first line*/
 125:Drivers/lvgl/src/draw/lv_draw_label.c ****     int32_t line_width = 0;
 126:Drivers/lvgl/src/draw/lv_draw_label.c ****     lv_point_t pos;
 127:Drivers/lvgl/src/draw/lv_draw_label.c ****     pos.x = coords->x1;
 128:Drivers/lvgl/src/draw/lv_draw_label.c ****     pos.y = coords->y1;
 129:Drivers/lvgl/src/draw/lv_draw_label.c **** 
 130:Drivers/lvgl/src/draw/lv_draw_label.c ****     int32_t x_ofs = 0;
 131:Drivers/lvgl/src/draw/lv_draw_label.c ****     int32_t y_ofs = 0;
 132:Drivers/lvgl/src/draw/lv_draw_label.c ****     x_ofs = dsc->ofs_x;
 133:Drivers/lvgl/src/draw/lv_draw_label.c ****     y_ofs = dsc->ofs_y;
 134:Drivers/lvgl/src/draw/lv_draw_label.c ****     pos.y += y_ofs;
 135:Drivers/lvgl/src/draw/lv_draw_label.c **** 
 136:Drivers/lvgl/src/draw/lv_draw_label.c ****     uint32_t line_start     = 0;
 137:Drivers/lvgl/src/draw/lv_draw_label.c ****     int32_t last_line_start = -1;
 138:Drivers/lvgl/src/draw/lv_draw_label.c **** 
 139:Drivers/lvgl/src/draw/lv_draw_label.c ****     /*Check the hint to use the cached info*/
 140:Drivers/lvgl/src/draw/lv_draw_label.c ****     if(hint && y_ofs == 0 && coords->y1 < 0) {
 141:Drivers/lvgl/src/draw/lv_draw_label.c ****         /*If the label changed too much recalculate the hint.*/
 142:Drivers/lvgl/src/draw/lv_draw_label.c ****         if(LV_ABS(hint->coord_y - coords->y1) > LV_LABEL_HINT_UPDATE_TH - 2 * line_height) {
 143:Drivers/lvgl/src/draw/lv_draw_label.c ****             hint->line_start = -1;
 144:Drivers/lvgl/src/draw/lv_draw_label.c ****         }
ARM GAS  /var/folders/0z/tsy30v1j4xl4_7kw94k978ww0000gn/T//ccpQecOs.s 			page 4


 145:Drivers/lvgl/src/draw/lv_draw_label.c ****         last_line_start = hint->line_start;
 146:Drivers/lvgl/src/draw/lv_draw_label.c ****     }
 147:Drivers/lvgl/src/draw/lv_draw_label.c **** 
 148:Drivers/lvgl/src/draw/lv_draw_label.c ****     /*Use the hint if it's valid*/
 149:Drivers/lvgl/src/draw/lv_draw_label.c ****     if(hint && last_line_start >= 0) {
 150:Drivers/lvgl/src/draw/lv_draw_label.c ****         line_start = last_line_start;
 151:Drivers/lvgl/src/draw/lv_draw_label.c ****         pos.y += hint->y;
 152:Drivers/lvgl/src/draw/lv_draw_label.c ****     }
 153:Drivers/lvgl/src/draw/lv_draw_label.c **** 
 154:Drivers/lvgl/src/draw/lv_draw_label.c ****     uint32_t line_end = line_start + _lv_txt_get_next_line(&txt[line_start], font, dsc->letter_spac
 155:Drivers/lvgl/src/draw/lv_draw_label.c **** 
 156:Drivers/lvgl/src/draw/lv_draw_label.c ****     /*Go the first visible line*/
 157:Drivers/lvgl/src/draw/lv_draw_label.c ****     while(pos.y + line_height_font < draw_ctx->clip_area->y1) {
 158:Drivers/lvgl/src/draw/lv_draw_label.c ****         /*Go to next line*/
 159:Drivers/lvgl/src/draw/lv_draw_label.c ****         line_start = line_end;
 160:Drivers/lvgl/src/draw/lv_draw_label.c ****         line_end += _lv_txt_get_next_line(&txt[line_start], font, dsc->letter_space, w, NULL, dsc->
 161:Drivers/lvgl/src/draw/lv_draw_label.c ****         pos.y += line_height;
 162:Drivers/lvgl/src/draw/lv_draw_label.c **** 
 163:Drivers/lvgl/src/draw/lv_draw_label.c ****         /*Save at the threshold coordinate*/
 164:Drivers/lvgl/src/draw/lv_draw_label.c ****         if(hint && pos.y >= -LV_LABEL_HINT_UPDATE_TH && hint->line_start < 0) {
 165:Drivers/lvgl/src/draw/lv_draw_label.c ****             hint->line_start = line_start;
 166:Drivers/lvgl/src/draw/lv_draw_label.c ****             hint->y          = pos.y - coords->y1;
 167:Drivers/lvgl/src/draw/lv_draw_label.c ****             hint->coord_y    = coords->y1;
 168:Drivers/lvgl/src/draw/lv_draw_label.c ****         }
 169:Drivers/lvgl/src/draw/lv_draw_label.c **** 
 170:Drivers/lvgl/src/draw/lv_draw_label.c ****         if(txt[line_start] == '\0') return;
 171:Drivers/lvgl/src/draw/lv_draw_label.c ****     }
 172:Drivers/lvgl/src/draw/lv_draw_label.c **** 
 173:Drivers/lvgl/src/draw/lv_draw_label.c ****     /*Align to middle*/
 174:Drivers/lvgl/src/draw/lv_draw_label.c ****     if(align == LV_TEXT_ALIGN_CENTER) {
 175:Drivers/lvgl/src/draw/lv_draw_label.c ****         line_width = lv_txt_get_width(&txt[line_start], line_end - line_start, font, dsc->letter_sp
 176:Drivers/lvgl/src/draw/lv_draw_label.c **** 
 177:Drivers/lvgl/src/draw/lv_draw_label.c ****         pos.x += (lv_area_get_width(coords) - line_width) / 2;
 178:Drivers/lvgl/src/draw/lv_draw_label.c **** 
 179:Drivers/lvgl/src/draw/lv_draw_label.c ****     }
 180:Drivers/lvgl/src/draw/lv_draw_label.c ****     /*Align to the right*/
 181:Drivers/lvgl/src/draw/lv_draw_label.c ****     else if(align == LV_TEXT_ALIGN_RIGHT) {
 182:Drivers/lvgl/src/draw/lv_draw_label.c ****         line_width = lv_txt_get_width(&txt[line_start], line_end - line_start, font, dsc->letter_sp
 183:Drivers/lvgl/src/draw/lv_draw_label.c ****         pos.x += lv_area_get_width(coords) - line_width;
 184:Drivers/lvgl/src/draw/lv_draw_label.c ****     }
 185:Drivers/lvgl/src/draw/lv_draw_label.c ****     uint32_t sel_start = dsc->sel_start;
 186:Drivers/lvgl/src/draw/lv_draw_label.c ****     uint32_t sel_end = dsc->sel_end;
 187:Drivers/lvgl/src/draw/lv_draw_label.c ****     if(sel_start > sel_end) {
 188:Drivers/lvgl/src/draw/lv_draw_label.c ****         uint32_t tmp = sel_start;
 189:Drivers/lvgl/src/draw/lv_draw_label.c ****         sel_start = sel_end;
 190:Drivers/lvgl/src/draw/lv_draw_label.c ****         sel_end = tmp;
 191:Drivers/lvgl/src/draw/lv_draw_label.c ****     }
 192:Drivers/lvgl/src/draw/lv_draw_label.c ****     lv_draw_line_dsc_t line_dsc;
 193:Drivers/lvgl/src/draw/lv_draw_label.c **** 
 194:Drivers/lvgl/src/draw/lv_draw_label.c ****     if((dsc->decor & LV_TEXT_DECOR_UNDERLINE) || (dsc->decor & LV_TEXT_DECOR_STRIKETHROUGH)) {
 195:Drivers/lvgl/src/draw/lv_draw_label.c ****         lv_draw_line_dsc_init(&line_dsc);
 196:Drivers/lvgl/src/draw/lv_draw_label.c ****         line_dsc.color = dsc->color;
 197:Drivers/lvgl/src/draw/lv_draw_label.c ****         line_dsc.width = font->underline_thickness ? font->underline_thickness : 1;
 198:Drivers/lvgl/src/draw/lv_draw_label.c ****         line_dsc.opa = dsc->opa;
 199:Drivers/lvgl/src/draw/lv_draw_label.c ****         line_dsc.blend_mode = dsc->blend_mode;
 200:Drivers/lvgl/src/draw/lv_draw_label.c ****     }
 201:Drivers/lvgl/src/draw/lv_draw_label.c **** 
ARM GAS  /var/folders/0z/tsy30v1j4xl4_7kw94k978ww0000gn/T//ccpQecOs.s 			page 5


 202:Drivers/lvgl/src/draw/lv_draw_label.c ****     cmd_state_t cmd_state = CMD_STATE_WAIT;
 203:Drivers/lvgl/src/draw/lv_draw_label.c ****     uint32_t i;
 204:Drivers/lvgl/src/draw/lv_draw_label.c ****     uint32_t par_start = 0;
 205:Drivers/lvgl/src/draw/lv_draw_label.c ****     lv_color_t recolor  = lv_color_black();
 206:Drivers/lvgl/src/draw/lv_draw_label.c ****     lv_color_t color = lv_color_black();
 207:Drivers/lvgl/src/draw/lv_draw_label.c ****     int32_t letter_w;
 208:Drivers/lvgl/src/draw/lv_draw_label.c **** 
 209:Drivers/lvgl/src/draw/lv_draw_label.c ****     lv_draw_rect_dsc_t draw_dsc_sel;
 210:Drivers/lvgl/src/draw/lv_draw_label.c ****     lv_draw_rect_dsc_init(&draw_dsc_sel);
 211:Drivers/lvgl/src/draw/lv_draw_label.c ****     draw_dsc_sel.bg_color = dsc->sel_bg_color;
 212:Drivers/lvgl/src/draw/lv_draw_label.c **** 
 213:Drivers/lvgl/src/draw/lv_draw_label.c ****     int32_t pos_x_start = pos.x;
 214:Drivers/lvgl/src/draw/lv_draw_label.c ****     /*Write out all lines*/
 215:Drivers/lvgl/src/draw/lv_draw_label.c ****     while(txt[line_start] != '\0') {
 216:Drivers/lvgl/src/draw/lv_draw_label.c ****         pos.x += x_ofs;
 217:Drivers/lvgl/src/draw/lv_draw_label.c **** 
 218:Drivers/lvgl/src/draw/lv_draw_label.c ****         /*Write all letter of a line*/
 219:Drivers/lvgl/src/draw/lv_draw_label.c ****         cmd_state = CMD_STATE_WAIT;
 220:Drivers/lvgl/src/draw/lv_draw_label.c ****         i         = 0;
 221:Drivers/lvgl/src/draw/lv_draw_label.c **** #if LV_USE_BIDI
 222:Drivers/lvgl/src/draw/lv_draw_label.c ****         char * bidi_txt = lv_mem_buf_get(line_end - line_start + 1);
 223:Drivers/lvgl/src/draw/lv_draw_label.c ****         _lv_bidi_process_paragraph(txt + line_start, bidi_txt, line_end - line_start, base_dir, NUL
 224:Drivers/lvgl/src/draw/lv_draw_label.c **** #else
 225:Drivers/lvgl/src/draw/lv_draw_label.c ****         const char * bidi_txt = txt + line_start;
 226:Drivers/lvgl/src/draw/lv_draw_label.c **** #endif
 227:Drivers/lvgl/src/draw/lv_draw_label.c **** 
 228:Drivers/lvgl/src/draw/lv_draw_label.c ****         while(i < line_end - line_start) {
 229:Drivers/lvgl/src/draw/lv_draw_label.c ****             uint32_t logical_char_pos = 0;
 230:Drivers/lvgl/src/draw/lv_draw_label.c ****             if(sel_start != 0xFFFF && sel_end != 0xFFFF) {
 231:Drivers/lvgl/src/draw/lv_draw_label.c **** #if LV_USE_BIDI
 232:Drivers/lvgl/src/draw/lv_draw_label.c ****                 logical_char_pos = _lv_txt_encoded_get_char_id(txt, line_start);
 233:Drivers/lvgl/src/draw/lv_draw_label.c ****                 uint32_t t = _lv_txt_encoded_get_char_id(bidi_txt, i);
 234:Drivers/lvgl/src/draw/lv_draw_label.c ****                 logical_char_pos += _lv_bidi_get_logical_pos(bidi_txt, NULL, line_end - line_start,
 235:Drivers/lvgl/src/draw/lv_draw_label.c **** #else
 236:Drivers/lvgl/src/draw/lv_draw_label.c ****                 logical_char_pos = _lv_txt_encoded_get_char_id(txt, line_start + i);
 237:Drivers/lvgl/src/draw/lv_draw_label.c **** #endif
 238:Drivers/lvgl/src/draw/lv_draw_label.c ****             }
 239:Drivers/lvgl/src/draw/lv_draw_label.c **** 
 240:Drivers/lvgl/src/draw/lv_draw_label.c ****             uint32_t letter;
 241:Drivers/lvgl/src/draw/lv_draw_label.c ****             uint32_t letter_next;
 242:Drivers/lvgl/src/draw/lv_draw_label.c ****             _lv_txt_encoded_letter_next_2(bidi_txt, &letter, &letter_next, &i);
 243:Drivers/lvgl/src/draw/lv_draw_label.c ****             /*Handle the re-color command*/
 244:Drivers/lvgl/src/draw/lv_draw_label.c ****             if((dsc->flag & LV_TEXT_FLAG_RECOLOR) != 0) {
 245:Drivers/lvgl/src/draw/lv_draw_label.c ****                 if(letter == (uint32_t)LV_TXT_COLOR_CMD[0]) {
 246:Drivers/lvgl/src/draw/lv_draw_label.c ****                     if(cmd_state == CMD_STATE_WAIT) { /*Start char*/
 247:Drivers/lvgl/src/draw/lv_draw_label.c ****                         par_start = i;
 248:Drivers/lvgl/src/draw/lv_draw_label.c ****                         cmd_state = CMD_STATE_PAR;
 249:Drivers/lvgl/src/draw/lv_draw_label.c ****                         continue;
 250:Drivers/lvgl/src/draw/lv_draw_label.c ****                     }
 251:Drivers/lvgl/src/draw/lv_draw_label.c ****                     else if(cmd_state == CMD_STATE_PAR) {   /*Other start char in parameter escaped
 252:Drivers/lvgl/src/draw/lv_draw_label.c ****                         cmd_state = CMD_STATE_WAIT;
 253:Drivers/lvgl/src/draw/lv_draw_label.c ****                     }
 254:Drivers/lvgl/src/draw/lv_draw_label.c ****                     else if(cmd_state == CMD_STATE_IN) {   /*Command end*/
 255:Drivers/lvgl/src/draw/lv_draw_label.c ****                         cmd_state = CMD_STATE_WAIT;
 256:Drivers/lvgl/src/draw/lv_draw_label.c ****                         continue;
 257:Drivers/lvgl/src/draw/lv_draw_label.c ****                     }
 258:Drivers/lvgl/src/draw/lv_draw_label.c ****                 }
ARM GAS  /var/folders/0z/tsy30v1j4xl4_7kw94k978ww0000gn/T//ccpQecOs.s 			page 6


 259:Drivers/lvgl/src/draw/lv_draw_label.c **** 
 260:Drivers/lvgl/src/draw/lv_draw_label.c ****                 /*Skip the color parameter and wait the space after it*/
 261:Drivers/lvgl/src/draw/lv_draw_label.c ****                 if(cmd_state == CMD_STATE_PAR) {
 262:Drivers/lvgl/src/draw/lv_draw_label.c ****                     if(letter == ' ') {
 263:Drivers/lvgl/src/draw/lv_draw_label.c ****                         /*Get the parameter*/
 264:Drivers/lvgl/src/draw/lv_draw_label.c ****                         if(i - par_start == LABEL_RECOLOR_PAR_LENGTH + 1) {
 265:Drivers/lvgl/src/draw/lv_draw_label.c ****                             char buf[LABEL_RECOLOR_PAR_LENGTH + 1];
 266:Drivers/lvgl/src/draw/lv_draw_label.c ****                             lv_memcpy_small(buf, &bidi_txt[par_start], LABEL_RECOLOR_PAR_LENGTH);
 267:Drivers/lvgl/src/draw/lv_draw_label.c ****                             buf[LABEL_RECOLOR_PAR_LENGTH] = '\0';
 268:Drivers/lvgl/src/draw/lv_draw_label.c ****                             int r, g, b;
 269:Drivers/lvgl/src/draw/lv_draw_label.c ****                             r       = (hex_char_to_num(buf[0]) << 4) + hex_char_to_num(buf[1]);
 270:Drivers/lvgl/src/draw/lv_draw_label.c ****                             g       = (hex_char_to_num(buf[2]) << 4) + hex_char_to_num(buf[3]);
 271:Drivers/lvgl/src/draw/lv_draw_label.c ****                             b       = (hex_char_to_num(buf[4]) << 4) + hex_char_to_num(buf[5]);
 272:Drivers/lvgl/src/draw/lv_draw_label.c ****                             recolor = lv_color_make(r, g, b);
 273:Drivers/lvgl/src/draw/lv_draw_label.c ****                         }
 274:Drivers/lvgl/src/draw/lv_draw_label.c ****                         else {
 275:Drivers/lvgl/src/draw/lv_draw_label.c ****                             recolor.full = dsc->color.full;
 276:Drivers/lvgl/src/draw/lv_draw_label.c ****                         }
 277:Drivers/lvgl/src/draw/lv_draw_label.c ****                         cmd_state = CMD_STATE_IN; /*After the parameter the text is in the command*
 278:Drivers/lvgl/src/draw/lv_draw_label.c ****                     }
 279:Drivers/lvgl/src/draw/lv_draw_label.c ****                     continue;
 280:Drivers/lvgl/src/draw/lv_draw_label.c ****                 }
 281:Drivers/lvgl/src/draw/lv_draw_label.c ****             }
 282:Drivers/lvgl/src/draw/lv_draw_label.c **** 
 283:Drivers/lvgl/src/draw/lv_draw_label.c ****             color = dsc->color;
 284:Drivers/lvgl/src/draw/lv_draw_label.c **** 
 285:Drivers/lvgl/src/draw/lv_draw_label.c ****             if(cmd_state == CMD_STATE_IN) color = recolor;
 286:Drivers/lvgl/src/draw/lv_draw_label.c **** 
 287:Drivers/lvgl/src/draw/lv_draw_label.c ****             letter_w = lv_font_get_glyph_width(font, letter, letter_next);
 288:Drivers/lvgl/src/draw/lv_draw_label.c **** 
 289:Drivers/lvgl/src/draw/lv_draw_label.c ****             if(sel_start != 0xFFFF && sel_end != 0xFFFF) {
 290:Drivers/lvgl/src/draw/lv_draw_label.c ****                 if(logical_char_pos >= sel_start && logical_char_pos < sel_end) {
 291:Drivers/lvgl/src/draw/lv_draw_label.c ****                     lv_area_t sel_coords;
 292:Drivers/lvgl/src/draw/lv_draw_label.c ****                     sel_coords.x1 = pos.x;
 293:Drivers/lvgl/src/draw/lv_draw_label.c ****                     sel_coords.y1 = pos.y;
 294:Drivers/lvgl/src/draw/lv_draw_label.c ****                     sel_coords.x2 = pos.x + letter_w + dsc->letter_space - 1;
 295:Drivers/lvgl/src/draw/lv_draw_label.c ****                     sel_coords.y2 = pos.y + line_height - 1;
 296:Drivers/lvgl/src/draw/lv_draw_label.c ****                     lv_draw_rect(draw_ctx, &draw_dsc_sel, &sel_coords);
 297:Drivers/lvgl/src/draw/lv_draw_label.c ****                     color = dsc->sel_color;
 298:Drivers/lvgl/src/draw/lv_draw_label.c ****                 }
 299:Drivers/lvgl/src/draw/lv_draw_label.c ****             }
 300:Drivers/lvgl/src/draw/lv_draw_label.c **** 
 301:Drivers/lvgl/src/draw/lv_draw_label.c ****             dsc_mod.color = color;
 302:Drivers/lvgl/src/draw/lv_draw_label.c ****             lv_draw_letter(draw_ctx, &dsc_mod, &pos, letter);
 303:Drivers/lvgl/src/draw/lv_draw_label.c **** 
 304:Drivers/lvgl/src/draw/lv_draw_label.c ****             if(letter_w > 0) {
 305:Drivers/lvgl/src/draw/lv_draw_label.c ****                 pos.x += letter_w + dsc->letter_space;
 306:Drivers/lvgl/src/draw/lv_draw_label.c ****             }
 307:Drivers/lvgl/src/draw/lv_draw_label.c ****         }
 308:Drivers/lvgl/src/draw/lv_draw_label.c **** 
 309:Drivers/lvgl/src/draw/lv_draw_label.c ****         if(dsc->decor & LV_TEXT_DECOR_STRIKETHROUGH) {
 310:Drivers/lvgl/src/draw/lv_draw_label.c ****             lv_point_t p1;
 311:Drivers/lvgl/src/draw/lv_draw_label.c ****             lv_point_t p2;
 312:Drivers/lvgl/src/draw/lv_draw_label.c ****             p1.x = pos_x_start;
 313:Drivers/lvgl/src/draw/lv_draw_label.c ****             p1.y = pos.y + (dsc->font->line_height / 2)  + line_dsc.width / 2;
 314:Drivers/lvgl/src/draw/lv_draw_label.c ****             p2.x = pos.x;
 315:Drivers/lvgl/src/draw/lv_draw_label.c ****             p2.y = p1.y;
ARM GAS  /var/folders/0z/tsy30v1j4xl4_7kw94k978ww0000gn/T//ccpQecOs.s 			page 7


 316:Drivers/lvgl/src/draw/lv_draw_label.c ****             line_dsc.color = color;
 317:Drivers/lvgl/src/draw/lv_draw_label.c ****             lv_draw_line(draw_ctx, &line_dsc, &p1, &p2);
 318:Drivers/lvgl/src/draw/lv_draw_label.c ****         }
 319:Drivers/lvgl/src/draw/lv_draw_label.c **** 
 320:Drivers/lvgl/src/draw/lv_draw_label.c ****         if(dsc->decor  & LV_TEXT_DECOR_UNDERLINE) {
 321:Drivers/lvgl/src/draw/lv_draw_label.c ****             lv_point_t p1;
 322:Drivers/lvgl/src/draw/lv_draw_label.c ****             lv_point_t p2;
 323:Drivers/lvgl/src/draw/lv_draw_label.c ****             p1.x = pos_x_start;
 324:Drivers/lvgl/src/draw/lv_draw_label.c ****             p1.y = pos.y + dsc->font->line_height - dsc->font->base_line - font->underline_position
 325:Drivers/lvgl/src/draw/lv_draw_label.c ****             p2.x = pos.x;
 326:Drivers/lvgl/src/draw/lv_draw_label.c ****             p2.y = p1.y;
 327:Drivers/lvgl/src/draw/lv_draw_label.c ****             line_dsc.color = color;
 328:Drivers/lvgl/src/draw/lv_draw_label.c ****             lv_draw_line(draw_ctx, &line_dsc, &p1, &p2);
 329:Drivers/lvgl/src/draw/lv_draw_label.c ****         }
 330:Drivers/lvgl/src/draw/lv_draw_label.c **** 
 331:Drivers/lvgl/src/draw/lv_draw_label.c **** #if LV_USE_BIDI
 332:Drivers/lvgl/src/draw/lv_draw_label.c ****         lv_mem_buf_release(bidi_txt);
 333:Drivers/lvgl/src/draw/lv_draw_label.c ****         bidi_txt = NULL;
 334:Drivers/lvgl/src/draw/lv_draw_label.c **** #endif
 335:Drivers/lvgl/src/draw/lv_draw_label.c ****         /*Go to next line*/
 336:Drivers/lvgl/src/draw/lv_draw_label.c ****         line_start = line_end;
 337:Drivers/lvgl/src/draw/lv_draw_label.c ****         line_end += _lv_txt_get_next_line(&txt[line_start], font, dsc->letter_space, w, NULL, dsc->
 338:Drivers/lvgl/src/draw/lv_draw_label.c **** 
 339:Drivers/lvgl/src/draw/lv_draw_label.c ****         pos.x = coords->x1;
 340:Drivers/lvgl/src/draw/lv_draw_label.c ****         /*Align to middle*/
 341:Drivers/lvgl/src/draw/lv_draw_label.c ****         if(align == LV_TEXT_ALIGN_CENTER) {
 342:Drivers/lvgl/src/draw/lv_draw_label.c ****             line_width =
 343:Drivers/lvgl/src/draw/lv_draw_label.c ****                 lv_txt_get_width(&txt[line_start], line_end - line_start, font, dsc->letter_space, 
 344:Drivers/lvgl/src/draw/lv_draw_label.c **** 
 345:Drivers/lvgl/src/draw/lv_draw_label.c ****             pos.x += (lv_area_get_width(coords) - line_width) / 2;
 346:Drivers/lvgl/src/draw/lv_draw_label.c **** 
 347:Drivers/lvgl/src/draw/lv_draw_label.c ****         }
 348:Drivers/lvgl/src/draw/lv_draw_label.c ****         /*Align to the right*/
 349:Drivers/lvgl/src/draw/lv_draw_label.c ****         else if(align == LV_TEXT_ALIGN_RIGHT) {
 350:Drivers/lvgl/src/draw/lv_draw_label.c ****             line_width =
 351:Drivers/lvgl/src/draw/lv_draw_label.c ****                 lv_txt_get_width(&txt[line_start], line_end - line_start, font, dsc->letter_space, 
 352:Drivers/lvgl/src/draw/lv_draw_label.c ****             pos.x += lv_area_get_width(coords) - line_width;
 353:Drivers/lvgl/src/draw/lv_draw_label.c ****         }
 354:Drivers/lvgl/src/draw/lv_draw_label.c **** 
 355:Drivers/lvgl/src/draw/lv_draw_label.c ****         /*Go the next line position*/
 356:Drivers/lvgl/src/draw/lv_draw_label.c ****         pos.y += line_height;
 357:Drivers/lvgl/src/draw/lv_draw_label.c **** 
 358:Drivers/lvgl/src/draw/lv_draw_label.c ****         if(pos.y > draw_ctx->clip_area->y2) return;
 359:Drivers/lvgl/src/draw/lv_draw_label.c ****     }
 360:Drivers/lvgl/src/draw/lv_draw_label.c **** 
 361:Drivers/lvgl/src/draw/lv_draw_label.c ****     LV_ASSERT_MEM_INTEGRITY();
 362:Drivers/lvgl/src/draw/lv_draw_label.c **** }
 363:Drivers/lvgl/src/draw/lv_draw_label.c **** 
 364:Drivers/lvgl/src/draw/lv_draw_label.c **** void lv_draw_letter(lv_draw_ctx_t * draw_ctx, const lv_draw_label_dsc_t * dsc,  const lv_point_t * 
 365:Drivers/lvgl/src/draw/lv_draw_label.c ****                     uint32_t letter)
 366:Drivers/lvgl/src/draw/lv_draw_label.c **** {
 367:Drivers/lvgl/src/draw/lv_draw_label.c ****     draw_ctx->draw_letter(draw_ctx, dsc, pos_p, letter);
 368:Drivers/lvgl/src/draw/lv_draw_label.c **** }
 369:Drivers/lvgl/src/draw/lv_draw_label.c **** 
 370:Drivers/lvgl/src/draw/lv_draw_label.c **** 
 371:Drivers/lvgl/src/draw/lv_draw_label.c **** /**********************
 372:Drivers/lvgl/src/draw/lv_draw_label.c ****  *   STATIC FUNCTIONS
ARM GAS  /var/folders/0z/tsy30v1j4xl4_7kw94k978ww0000gn/T//ccpQecOs.s 			page 8


 373:Drivers/lvgl/src/draw/lv_draw_label.c ****  **********************/
 374:Drivers/lvgl/src/draw/lv_draw_label.c **** 
 375:Drivers/lvgl/src/draw/lv_draw_label.c **** /**
 376:Drivers/lvgl/src/draw/lv_draw_label.c ****  * Convert a hexadecimal characters to a number (0..15)
 377:Drivers/lvgl/src/draw/lv_draw_label.c ****  * @param hex Pointer to a hexadecimal character (0..9, A..F)
 378:Drivers/lvgl/src/draw/lv_draw_label.c ****  * @return the numerical value of `hex` or 0 on error
 379:Drivers/lvgl/src/draw/lv_draw_label.c ****  */
 380:Drivers/lvgl/src/draw/lv_draw_label.c **** static uint8_t hex_char_to_num(char hex)
 381:Drivers/lvgl/src/draw/lv_draw_label.c **** {
  29              		.loc 1 381 1 view -0
  30              		.cfi_startproc
  31              		@ args = 0, pretend = 0, frame = 0
  32              		@ frame_needed = 0, uses_anonymous_args = 0
  33              		@ link register save eliminated.
  34              		.loc 1 381 1 is_stmt 0 view .LVU1
  35 0000 0346     		mov	r3, r0
 382:Drivers/lvgl/src/draw/lv_draw_label.c ****     uint8_t result = 0;
  36              		.loc 1 382 5 is_stmt 1 view .LVU2
  37              	.LVL1:
 383:Drivers/lvgl/src/draw/lv_draw_label.c **** 
 384:Drivers/lvgl/src/draw/lv_draw_label.c ****     if(hex >= '0' && hex <= '9') {
  38              		.loc 1 384 5 view .LVU3
  39              		.loc 1 384 19 is_stmt 0 view .LVU4
  40 0002 3038     		subs	r0, r0, #48
  41              	.LVL2:
  42              		.loc 1 384 19 view .LVU5
  43 0004 C0B2     		uxtb	r0, r0
  44              		.loc 1 384 7 view .LVU6
  45 0006 0928     		cmp	r0, #9
  46 0008 18D9     		bls	.L2
 385:Drivers/lvgl/src/draw/lv_draw_label.c ****         result = hex - '0';
 386:Drivers/lvgl/src/draw/lv_draw_label.c ****     }
 387:Drivers/lvgl/src/draw/lv_draw_label.c ****     else {
 388:Drivers/lvgl/src/draw/lv_draw_label.c ****         if(hex >= 'a') hex -= 'a' - 'A'; /*Convert to upper case*/
  47              		.loc 1 388 9 is_stmt 1 view .LVU7
  48              		.loc 1 388 11 is_stmt 0 view .LVU8
  49 000a 602B     		cmp	r3, #96
  50 000c 01D9     		bls	.L3
  51              		.loc 1 388 24 is_stmt 1 discriminator 1 view .LVU9
  52              		.loc 1 388 28 is_stmt 0 discriminator 1 view .LVU10
  53 000e 203B     		subs	r3, r3, #32
  54 0010 DBB2     		uxtb	r3, r3
  55              	.LVL3:
  56              	.L3:
 389:Drivers/lvgl/src/draw/lv_draw_label.c **** 
 390:Drivers/lvgl/src/draw/lv_draw_label.c ****         switch(hex) {
  57              		.loc 1 390 9 is_stmt 1 view .LVU11
  58 0012 413B     		subs	r3, r3, #65
  59              	.LVL4:
  60              		.loc 1 390 9 is_stmt 0 view .LVU12
  61 0014 052B     		cmp	r3, #5
  62 0016 0ED8     		bhi	.L4
  63 0018 DFE803F0 		tbb	[pc, r3]
  64              	.L6:
  65 001c 03       		.byte	(.L10-.L6)/2
  66 001d 0F       		.byte	(.L11-.L6)/2
  67 001e 05       		.byte	(.L9-.L6)/2
ARM GAS  /var/folders/0z/tsy30v1j4xl4_7kw94k978ww0000gn/T//ccpQecOs.s 			page 9


  68 001f 07       		.byte	(.L8-.L6)/2
  69 0020 09       		.byte	(.L7-.L6)/2
  70 0021 0B       		.byte	(.L5-.L6)/2
  71              		.p2align 1
  72              	.L10:
  73 0022 0A20     		movs	r0, #10
  74 0024 7047     		bx	lr
  75              	.L9:
 391:Drivers/lvgl/src/draw/lv_draw_label.c ****             case 'A':
 392:Drivers/lvgl/src/draw/lv_draw_label.c ****                 result = 10;
 393:Drivers/lvgl/src/draw/lv_draw_label.c ****                 break;
 394:Drivers/lvgl/src/draw/lv_draw_label.c ****             case 'B':
 395:Drivers/lvgl/src/draw/lv_draw_label.c ****                 result = 11;
 396:Drivers/lvgl/src/draw/lv_draw_label.c ****                 break;
 397:Drivers/lvgl/src/draw/lv_draw_label.c ****             case 'C':
 398:Drivers/lvgl/src/draw/lv_draw_label.c ****                 result = 12;
  76              		.loc 1 398 17 is_stmt 1 view .LVU13
  77              	.LVL5:
 399:Drivers/lvgl/src/draw/lv_draw_label.c ****                 break;
  78              		.loc 1 399 17 view .LVU14
 398:Drivers/lvgl/src/draw/lv_draw_label.c ****                 break;
  79              		.loc 1 398 24 is_stmt 0 view .LVU15
  80 0026 0C20     		movs	r0, #12
  81              		.loc 1 399 17 view .LVU16
  82 0028 7047     		bx	lr
  83              	.LVL6:
  84              	.L8:
 400:Drivers/lvgl/src/draw/lv_draw_label.c ****             case 'D':
 401:Drivers/lvgl/src/draw/lv_draw_label.c ****                 result = 13;
  85              		.loc 1 401 17 is_stmt 1 view .LVU17
 402:Drivers/lvgl/src/draw/lv_draw_label.c ****                 break;
  86              		.loc 1 402 17 view .LVU18
 401:Drivers/lvgl/src/draw/lv_draw_label.c ****                 break;
  87              		.loc 1 401 24 is_stmt 0 view .LVU19
  88 002a 0D20     		movs	r0, #13
  89              		.loc 1 402 17 view .LVU20
  90 002c 7047     		bx	lr
  91              	.LVL7:
  92              	.L7:
 403:Drivers/lvgl/src/draw/lv_draw_label.c ****             case 'E':
 404:Drivers/lvgl/src/draw/lv_draw_label.c ****                 result = 14;
  93              		.loc 1 404 17 is_stmt 1 view .LVU21
 405:Drivers/lvgl/src/draw/lv_draw_label.c ****                 break;
  94              		.loc 1 405 17 view .LVU22
 404:Drivers/lvgl/src/draw/lv_draw_label.c ****                 break;
  95              		.loc 1 404 24 is_stmt 0 view .LVU23
  96 002e 0E20     		movs	r0, #14
  97              		.loc 1 405 17 view .LVU24
  98 0030 7047     		bx	lr
  99              	.LVL8:
 100              	.L5:
 406:Drivers/lvgl/src/draw/lv_draw_label.c ****             case 'F':
 407:Drivers/lvgl/src/draw/lv_draw_label.c ****                 result = 15;
 101              		.loc 1 407 17 is_stmt 1 view .LVU25
 408:Drivers/lvgl/src/draw/lv_draw_label.c ****                 break;
 102              		.loc 1 408 17 view .LVU26
 407:Drivers/lvgl/src/draw/lv_draw_label.c ****                 break;
ARM GAS  /var/folders/0z/tsy30v1j4xl4_7kw94k978ww0000gn/T//ccpQecOs.s 			page 10


 103              		.loc 1 407 24 is_stmt 0 view .LVU27
 104 0032 0F20     		movs	r0, #15
 105              		.loc 1 408 17 view .LVU28
 106 0034 7047     		bx	lr
 107              	.LVL9:
 108              	.L4:
 409:Drivers/lvgl/src/draw/lv_draw_label.c ****             default:
 410:Drivers/lvgl/src/draw/lv_draw_label.c ****                 result = 0;
 109              		.loc 1 410 17 is_stmt 1 view .LVU29
 411:Drivers/lvgl/src/draw/lv_draw_label.c ****                 break;
 110              		.loc 1 411 17 view .LVU30
 410:Drivers/lvgl/src/draw/lv_draw_label.c ****                 break;
 111              		.loc 1 410 24 is_stmt 0 view .LVU31
 112 0036 0020     		movs	r0, #0
 113              		.loc 1 411 17 view .LVU32
 114 0038 7047     		bx	lr
 115              	.L11:
 395:Drivers/lvgl/src/draw/lv_draw_label.c ****                 break;
 116              		.loc 1 395 24 view .LVU33
 117 003a 0B20     		movs	r0, #11
 118              	.L2:
 119              	.LVL10:
 412:Drivers/lvgl/src/draw/lv_draw_label.c ****         }
 413:Drivers/lvgl/src/draw/lv_draw_label.c ****     }
 414:Drivers/lvgl/src/draw/lv_draw_label.c **** 
 415:Drivers/lvgl/src/draw/lv_draw_label.c ****     return result;
 120              		.loc 1 415 5 is_stmt 1 view .LVU34
 416:Drivers/lvgl/src/draw/lv_draw_label.c **** }
 121              		.loc 1 416 1 is_stmt 0 view .LVU35
 122 003c 7047     		bx	lr
 123              		.cfi_endproc
 124              	.LFE164:
 126              		.section	.text.lv_draw_label_dsc_init,"ax",%progbits
 127              		.align	1
 128              		.global	lv_draw_label_dsc_init
 129              		.syntax unified
 130              		.thumb
 131              		.thumb_func
 133              	lv_draw_label_dsc_init:
 134              	.LVL11:
 135              	.LFB161:
  56:Drivers/lvgl/src/draw/lv_draw_label.c ****     lv_memset_00(dsc, sizeof(lv_draw_label_dsc_t));
 136              		.loc 1 56 1 is_stmt 1 view -0
 137              		.cfi_startproc
 138              		@ args = 0, pretend = 0, frame = 0
 139              		@ frame_needed = 0, uses_anonymous_args = 0
  56:Drivers/lvgl/src/draw/lv_draw_label.c ****     lv_memset_00(dsc, sizeof(lv_draw_label_dsc_t));
 140              		.loc 1 56 1 is_stmt 0 view .LVU37
 141 0000 10B5     		push	{r4, lr}
 142              		.cfi_def_cfa_offset 8
 143              		.cfi_offset 4, -8
 144              		.cfi_offset 14, -4
 145 0002 0446     		mov	r4, r0
  57:Drivers/lvgl/src/draw/lv_draw_label.c ****     dsc->opa = LV_OPA_COVER;
 146              		.loc 1 57 5 is_stmt 1 view .LVU38
 147 0004 2021     		movs	r1, #32
 148 0006 FFF7FEFF 		bl	lv_memset_00
ARM GAS  /var/folders/0z/tsy30v1j4xl4_7kw94k978ww0000gn/T//ccpQecOs.s 			page 11


 149              	.LVL12:
  58:Drivers/lvgl/src/draw/lv_draw_label.c ****     dsc->color = lv_color_black();
 150              		.loc 1 58 5 view .LVU39
  58:Drivers/lvgl/src/draw/lv_draw_label.c ****     dsc->color = lv_color_black();
 151              		.loc 1 58 14 is_stmt 0 view .LVU40
 152 000a FF23     		movs	r3, #255
 153 000c A376     		strb	r3, [r4, #26]
  59:Drivers/lvgl/src/draw/lv_draw_label.c ****     dsc->font = LV_FONT_DEFAULT;
 154              		.loc 1 59 5 is_stmt 1 view .LVU41
 155              	.LBB46:
 156              	.LBI46:
 157              		.file 2 "Drivers/lvgl/src/draw/../misc/lv_color.h"
   1:Drivers/lvgl/src/draw/../misc/lv_color.h **** /**
   2:Drivers/lvgl/src/draw/../misc/lv_color.h ****  * @file lv_color.h
   3:Drivers/lvgl/src/draw/../misc/lv_color.h ****  *
   4:Drivers/lvgl/src/draw/../misc/lv_color.h ****  */
   5:Drivers/lvgl/src/draw/../misc/lv_color.h **** 
   6:Drivers/lvgl/src/draw/../misc/lv_color.h **** #ifndef LV_COLOR_H
   7:Drivers/lvgl/src/draw/../misc/lv_color.h **** #define LV_COLOR_H
   8:Drivers/lvgl/src/draw/../misc/lv_color.h **** 
   9:Drivers/lvgl/src/draw/../misc/lv_color.h **** #ifdef __cplusplus
  10:Drivers/lvgl/src/draw/../misc/lv_color.h **** extern "C" {
  11:Drivers/lvgl/src/draw/../misc/lv_color.h **** #endif
  12:Drivers/lvgl/src/draw/../misc/lv_color.h **** 
  13:Drivers/lvgl/src/draw/../misc/lv_color.h **** /*********************
  14:Drivers/lvgl/src/draw/../misc/lv_color.h ****  *      INCLUDES
  15:Drivers/lvgl/src/draw/../misc/lv_color.h ****  *********************/
  16:Drivers/lvgl/src/draw/../misc/lv_color.h **** #include "../lv_conf_internal.h"
  17:Drivers/lvgl/src/draw/../misc/lv_color.h **** #include "lv_assert.h"
  18:Drivers/lvgl/src/draw/../misc/lv_color.h **** #include "lv_math.h"
  19:Drivers/lvgl/src/draw/../misc/lv_color.h **** #include "lv_types.h"
  20:Drivers/lvgl/src/draw/../misc/lv_color.h **** 
  21:Drivers/lvgl/src/draw/../misc/lv_color.h **** /*Error checking*/
  22:Drivers/lvgl/src/draw/../misc/lv_color.h **** #if LV_COLOR_DEPTH == 24
  23:Drivers/lvgl/src/draw/../misc/lv_color.h **** #error "LV_COLOR_DEPTH 24 is deprecated. Use LV_COLOR_DEPTH 32 instead (lv_conf.h)"
  24:Drivers/lvgl/src/draw/../misc/lv_color.h **** #endif
  25:Drivers/lvgl/src/draw/../misc/lv_color.h **** 
  26:Drivers/lvgl/src/draw/../misc/lv_color.h **** #if LV_COLOR_DEPTH != 16 && LV_COLOR_16_SWAP != 0
  27:Drivers/lvgl/src/draw/../misc/lv_color.h **** #error "LV_COLOR_16_SWAP requires LV_COLOR_DEPTH == 16. Set it in lv_conf.h"
  28:Drivers/lvgl/src/draw/../misc/lv_color.h **** #endif
  29:Drivers/lvgl/src/draw/../misc/lv_color.h **** 
  30:Drivers/lvgl/src/draw/../misc/lv_color.h **** #include <stdint.h>
  31:Drivers/lvgl/src/draw/../misc/lv_color.h **** 
  32:Drivers/lvgl/src/draw/../misc/lv_color.h **** /*********************
  33:Drivers/lvgl/src/draw/../misc/lv_color.h ****  *      DEFINES
  34:Drivers/lvgl/src/draw/../misc/lv_color.h ****  *********************/
  35:Drivers/lvgl/src/draw/../misc/lv_color.h **** LV_EXPORT_CONST_INT(LV_COLOR_DEPTH);
  36:Drivers/lvgl/src/draw/../misc/lv_color.h **** LV_EXPORT_CONST_INT(LV_COLOR_16_SWAP);
  37:Drivers/lvgl/src/draw/../misc/lv_color.h **** 
  38:Drivers/lvgl/src/draw/../misc/lv_color.h **** /**
  39:Drivers/lvgl/src/draw/../misc/lv_color.h ****  * Opacity percentages.
  40:Drivers/lvgl/src/draw/../misc/lv_color.h ****  */
  41:Drivers/lvgl/src/draw/../misc/lv_color.h **** enum {
  42:Drivers/lvgl/src/draw/../misc/lv_color.h ****     LV_OPA_TRANSP = 0,
  43:Drivers/lvgl/src/draw/../misc/lv_color.h ****     LV_OPA_0      = 0,
  44:Drivers/lvgl/src/draw/../misc/lv_color.h ****     LV_OPA_10     = 25,
  45:Drivers/lvgl/src/draw/../misc/lv_color.h ****     LV_OPA_20     = 51,
ARM GAS  /var/folders/0z/tsy30v1j4xl4_7kw94k978ww0000gn/T//ccpQecOs.s 			page 12


  46:Drivers/lvgl/src/draw/../misc/lv_color.h ****     LV_OPA_30     = 76,
  47:Drivers/lvgl/src/draw/../misc/lv_color.h ****     LV_OPA_40     = 102,
  48:Drivers/lvgl/src/draw/../misc/lv_color.h ****     LV_OPA_50     = 127,
  49:Drivers/lvgl/src/draw/../misc/lv_color.h ****     LV_OPA_60     = 153,
  50:Drivers/lvgl/src/draw/../misc/lv_color.h ****     LV_OPA_70     = 178,
  51:Drivers/lvgl/src/draw/../misc/lv_color.h ****     LV_OPA_80     = 204,
  52:Drivers/lvgl/src/draw/../misc/lv_color.h ****     LV_OPA_90     = 229,
  53:Drivers/lvgl/src/draw/../misc/lv_color.h ****     LV_OPA_100    = 255,
  54:Drivers/lvgl/src/draw/../misc/lv_color.h ****     LV_OPA_COVER  = 255,
  55:Drivers/lvgl/src/draw/../misc/lv_color.h **** };
  56:Drivers/lvgl/src/draw/../misc/lv_color.h **** 
  57:Drivers/lvgl/src/draw/../misc/lv_color.h **** #define LV_OPA_MIN 2    /*Opacities below this will be transparent*/
  58:Drivers/lvgl/src/draw/../misc/lv_color.h **** #define LV_OPA_MAX 253  /*Opacities above this will fully cover*/
  59:Drivers/lvgl/src/draw/../misc/lv_color.h **** 
  60:Drivers/lvgl/src/draw/../misc/lv_color.h **** #if LV_COLOR_DEPTH == 1
  61:Drivers/lvgl/src/draw/../misc/lv_color.h **** #define LV_COLOR_SIZE 8
  62:Drivers/lvgl/src/draw/../misc/lv_color.h **** #elif LV_COLOR_DEPTH == 8
  63:Drivers/lvgl/src/draw/../misc/lv_color.h **** #define LV_COLOR_SIZE 8
  64:Drivers/lvgl/src/draw/../misc/lv_color.h **** #elif LV_COLOR_DEPTH == 16
  65:Drivers/lvgl/src/draw/../misc/lv_color.h **** #define LV_COLOR_SIZE 16
  66:Drivers/lvgl/src/draw/../misc/lv_color.h **** #elif LV_COLOR_DEPTH == 32
  67:Drivers/lvgl/src/draw/../misc/lv_color.h **** #define LV_COLOR_SIZE 32
  68:Drivers/lvgl/src/draw/../misc/lv_color.h **** #else
  69:Drivers/lvgl/src/draw/../misc/lv_color.h **** #error "Invalid LV_COLOR_DEPTH in lv_conf.h! Set it to 1, 8, 16 or 32!"
  70:Drivers/lvgl/src/draw/../misc/lv_color.h **** #endif
  71:Drivers/lvgl/src/draw/../misc/lv_color.h **** 
  72:Drivers/lvgl/src/draw/../misc/lv_color.h **** #if defined(__cplusplus) && !defined(_LV_COLOR_HAS_MODERN_CPP)
  73:Drivers/lvgl/src/draw/../misc/lv_color.h **** /**
  74:Drivers/lvgl/src/draw/../misc/lv_color.h **** * MSVC compiler's definition of the __cplusplus indicating 199711L regardless to C++ standard versi
  75:Drivers/lvgl/src/draw/../misc/lv_color.h **** * see https://devblogs.microsoft.com/cppblog/msvc-now-correctly-reports-cplusplus
  76:Drivers/lvgl/src/draw/../misc/lv_color.h **** * so we use _MSC_VER macro instead of __cplusplus
  77:Drivers/lvgl/src/draw/../misc/lv_color.h **** */
  78:Drivers/lvgl/src/draw/../misc/lv_color.h **** #ifdef _MSC_VER
  79:Drivers/lvgl/src/draw/../misc/lv_color.h **** #if _MSC_VER >= 1900 /*Visual Studio 2015*/
  80:Drivers/lvgl/src/draw/../misc/lv_color.h **** #define _LV_COLOR_HAS_MODERN_CPP 1
  81:Drivers/lvgl/src/draw/../misc/lv_color.h **** #endif
  82:Drivers/lvgl/src/draw/../misc/lv_color.h **** #else
  83:Drivers/lvgl/src/draw/../misc/lv_color.h **** #if __cplusplus >= 201103L
  84:Drivers/lvgl/src/draw/../misc/lv_color.h **** #define _LV_COLOR_HAS_MODERN_CPP 1
  85:Drivers/lvgl/src/draw/../misc/lv_color.h **** #endif
  86:Drivers/lvgl/src/draw/../misc/lv_color.h **** #endif
  87:Drivers/lvgl/src/draw/../misc/lv_color.h **** #endif /*__cplusplus*/
  88:Drivers/lvgl/src/draw/../misc/lv_color.h **** 
  89:Drivers/lvgl/src/draw/../misc/lv_color.h **** #ifndef _LV_COLOR_HAS_MODERN_CPP
  90:Drivers/lvgl/src/draw/../misc/lv_color.h **** #define _LV_COLOR_HAS_MODERN_CPP 0
  91:Drivers/lvgl/src/draw/../misc/lv_color.h **** #endif
  92:Drivers/lvgl/src/draw/../misc/lv_color.h **** 
  93:Drivers/lvgl/src/draw/../misc/lv_color.h **** #if _LV_COLOR_HAS_MODERN_CPP
  94:Drivers/lvgl/src/draw/../misc/lv_color.h **** /*Fix msvc compiler error C4576 inside C++ code*/
  95:Drivers/lvgl/src/draw/../misc/lv_color.h **** #define _LV_COLOR_MAKE_TYPE_HELPER lv_color_t
  96:Drivers/lvgl/src/draw/../misc/lv_color.h **** #else
  97:Drivers/lvgl/src/draw/../misc/lv_color.h **** #define _LV_COLOR_MAKE_TYPE_HELPER (lv_color_t)
  98:Drivers/lvgl/src/draw/../misc/lv_color.h **** #endif
  99:Drivers/lvgl/src/draw/../misc/lv_color.h **** 
 100:Drivers/lvgl/src/draw/../misc/lv_color.h **** /*---------------------------------------
 101:Drivers/lvgl/src/draw/../misc/lv_color.h ****  * Macros for all existing color depths
 102:Drivers/lvgl/src/draw/../misc/lv_color.h ****  * to set/get values of the color channels
ARM GAS  /var/folders/0z/tsy30v1j4xl4_7kw94k978ww0000gn/T//ccpQecOs.s 			page 13


 103:Drivers/lvgl/src/draw/../misc/lv_color.h ****  *------------------------------------------*/
 104:Drivers/lvgl/src/draw/../misc/lv_color.h **** # define LV_COLOR_SET_R1(c, v) (c).ch.red = (uint8_t)((v) & 0x1)
 105:Drivers/lvgl/src/draw/../misc/lv_color.h **** # define LV_COLOR_SET_G1(c, v) (c).ch.green = (uint8_t)((v) & 0x1)
 106:Drivers/lvgl/src/draw/../misc/lv_color.h **** # define LV_COLOR_SET_B1(c, v) (c).ch.blue = (uint8_t)((v) & 0x1)
 107:Drivers/lvgl/src/draw/../misc/lv_color.h **** # define LV_COLOR_SET_A1(c, v) do {} while(0)
 108:Drivers/lvgl/src/draw/../misc/lv_color.h **** 
 109:Drivers/lvgl/src/draw/../misc/lv_color.h **** # define LV_COLOR_GET_R1(c) (c).ch.red
 110:Drivers/lvgl/src/draw/../misc/lv_color.h **** # define LV_COLOR_GET_G1(c) (c).ch.green
 111:Drivers/lvgl/src/draw/../misc/lv_color.h **** # define LV_COLOR_GET_B1(c) (c).ch.blue
 112:Drivers/lvgl/src/draw/../misc/lv_color.h **** # define LV_COLOR_GET_A1(c) 0xFF
 113:Drivers/lvgl/src/draw/../misc/lv_color.h **** 
 114:Drivers/lvgl/src/draw/../misc/lv_color.h **** # define _LV_COLOR_ZERO_INITIALIZER1 {0x00}
 115:Drivers/lvgl/src/draw/../misc/lv_color.h **** # define LV_COLOR_MAKE1(r8, g8, b8)  {(uint8_t)((b8 >> 7) | (g8 >> 7) | (r8 >> 7))}
 116:Drivers/lvgl/src/draw/../misc/lv_color.h **** 
 117:Drivers/lvgl/src/draw/../misc/lv_color.h **** # define LV_COLOR_SET_R8(c, v) (c).ch.red = (uint8_t)((v) & 0x7U)
 118:Drivers/lvgl/src/draw/../misc/lv_color.h **** # define LV_COLOR_SET_G8(c, v) (c).ch.green = (uint8_t)((v) & 0x7U)
 119:Drivers/lvgl/src/draw/../misc/lv_color.h **** # define LV_COLOR_SET_B8(c, v) (c).ch.blue = (uint8_t)((v) & 0x3U)
 120:Drivers/lvgl/src/draw/../misc/lv_color.h **** # define LV_COLOR_SET_A8(c, v) do {} while(0)
 121:Drivers/lvgl/src/draw/../misc/lv_color.h **** 
 122:Drivers/lvgl/src/draw/../misc/lv_color.h **** # define LV_COLOR_GET_R8(c) (c).ch.red
 123:Drivers/lvgl/src/draw/../misc/lv_color.h **** # define LV_COLOR_GET_G8(c) (c).ch.green
 124:Drivers/lvgl/src/draw/../misc/lv_color.h **** # define LV_COLOR_GET_B8(c) (c).ch.blue
 125:Drivers/lvgl/src/draw/../misc/lv_color.h **** # define LV_COLOR_GET_A8(c) 0xFF
 126:Drivers/lvgl/src/draw/../misc/lv_color.h **** 
 127:Drivers/lvgl/src/draw/../misc/lv_color.h **** # define _LV_COLOR_ZERO_INITIALIZER8 {{0x00, 0x00, 0x00}}
 128:Drivers/lvgl/src/draw/../misc/lv_color.h **** # define LV_COLOR_MAKE8(r8, g8, b8) {{(uint8_t)((b8 >> 6) & 0x3U), (uint8_t)((g8 >> 5) & 0x7U), (ui
 129:Drivers/lvgl/src/draw/../misc/lv_color.h **** 
 130:Drivers/lvgl/src/draw/../misc/lv_color.h **** # define LV_COLOR_SET_R16(c, v) (c).ch.red = (uint8_t)((v) & 0x1FU)
 131:Drivers/lvgl/src/draw/../misc/lv_color.h **** #if LV_COLOR_16_SWAP == 0
 132:Drivers/lvgl/src/draw/../misc/lv_color.h **** # define LV_COLOR_SET_G16(c, v) (c).ch.green = (uint8_t)((v) & 0x3FU)
 133:Drivers/lvgl/src/draw/../misc/lv_color.h **** #else
 134:Drivers/lvgl/src/draw/../misc/lv_color.h **** # define LV_COLOR_SET_G16(c, v) {(c).ch.green_h = (uint8_t)(((v) >> 3) & 0x7); (c).ch.green_l = (ui
 135:Drivers/lvgl/src/draw/../misc/lv_color.h **** #endif
 136:Drivers/lvgl/src/draw/../misc/lv_color.h **** # define LV_COLOR_SET_B16(c, v) (c).ch.blue = (uint8_t)((v) & 0x1FU)
 137:Drivers/lvgl/src/draw/../misc/lv_color.h **** # define LV_COLOR_SET_A16(c, v) do {} while(0)
 138:Drivers/lvgl/src/draw/../misc/lv_color.h **** 
 139:Drivers/lvgl/src/draw/../misc/lv_color.h **** # define LV_COLOR_GET_R16(c) (c).ch.red
 140:Drivers/lvgl/src/draw/../misc/lv_color.h **** #if LV_COLOR_16_SWAP == 0
 141:Drivers/lvgl/src/draw/../misc/lv_color.h **** # define LV_COLOR_GET_G16(c) (c).ch.green
 142:Drivers/lvgl/src/draw/../misc/lv_color.h **** #else
 143:Drivers/lvgl/src/draw/../misc/lv_color.h **** # define LV_COLOR_GET_G16(c) (((c).ch.green_h << 3) + (c).ch.green_l)
 144:Drivers/lvgl/src/draw/../misc/lv_color.h **** #endif
 145:Drivers/lvgl/src/draw/../misc/lv_color.h **** # define LV_COLOR_GET_B16(c) (c).ch.blue
 146:Drivers/lvgl/src/draw/../misc/lv_color.h **** # define LV_COLOR_GET_A16(c) 0xFF
 147:Drivers/lvgl/src/draw/../misc/lv_color.h **** 
 148:Drivers/lvgl/src/draw/../misc/lv_color.h **** #if LV_COLOR_16_SWAP == 0
 149:Drivers/lvgl/src/draw/../misc/lv_color.h **** # define _LV_COLOR_ZERO_INITIALIZER16  {{0x00, 0x00, 0x00}}
 150:Drivers/lvgl/src/draw/../misc/lv_color.h **** # define LV_COLOR_MAKE16(r8, g8, b8) {{(uint8_t)((b8 >> 3) & 0x1FU), (uint8_t)((g8 >> 2) & 0x3FU), 
 151:Drivers/lvgl/src/draw/../misc/lv_color.h **** #else
 152:Drivers/lvgl/src/draw/../misc/lv_color.h **** # define _LV_COLOR_ZERO_INITIALIZER16 {{0x00, 0x00, 0x00, 0x00}}
 153:Drivers/lvgl/src/draw/../misc/lv_color.h **** # define LV_COLOR_MAKE16(r8, g8, b8) {{(uint8_t)((g8 >> 5) & 0x7U), (uint8_t)((r8 >> 3) & 0x1FU), (
 154:Drivers/lvgl/src/draw/../misc/lv_color.h **** #endif
 155:Drivers/lvgl/src/draw/../misc/lv_color.h **** 
 156:Drivers/lvgl/src/draw/../misc/lv_color.h **** # define LV_COLOR_SET_R32(c, v) (c).ch.red = (uint8_t)((v) & 0xFF)
 157:Drivers/lvgl/src/draw/../misc/lv_color.h **** # define LV_COLOR_SET_G32(c, v) (c).ch.green = (uint8_t)((v) & 0xFF)
 158:Drivers/lvgl/src/draw/../misc/lv_color.h **** # define LV_COLOR_SET_B32(c, v) (c).ch.blue = (uint8_t)((v) & 0xFF)
 159:Drivers/lvgl/src/draw/../misc/lv_color.h **** # define LV_COLOR_SET_A32(c, v) (c).ch.alpha = (uint8_t)((v) & 0xFF)
ARM GAS  /var/folders/0z/tsy30v1j4xl4_7kw94k978ww0000gn/T//ccpQecOs.s 			page 14


 160:Drivers/lvgl/src/draw/../misc/lv_color.h **** 
 161:Drivers/lvgl/src/draw/../misc/lv_color.h **** # define LV_COLOR_GET_R32(c) (c).ch.red
 162:Drivers/lvgl/src/draw/../misc/lv_color.h **** # define LV_COLOR_GET_G32(c) (c).ch.green
 163:Drivers/lvgl/src/draw/../misc/lv_color.h **** # define LV_COLOR_GET_B32(c) (c).ch.blue
 164:Drivers/lvgl/src/draw/../misc/lv_color.h **** # define LV_COLOR_GET_A32(c) (c).ch.alpha
 165:Drivers/lvgl/src/draw/../misc/lv_color.h **** 
 166:Drivers/lvgl/src/draw/../misc/lv_color.h **** # define _LV_COLOR_ZERO_INITIALIZER32  {{0x00, 0x00, 0x00, 0x00}}
 167:Drivers/lvgl/src/draw/../misc/lv_color.h **** # define LV_COLOR_MAKE32(r8, g8, b8) {{b8, g8, r8, 0xff}} /*Fix 0xff alpha*/
 168:Drivers/lvgl/src/draw/../misc/lv_color.h **** 
 169:Drivers/lvgl/src/draw/../misc/lv_color.h **** /*---------------------------------------
 170:Drivers/lvgl/src/draw/../misc/lv_color.h ****  * Macros for the current color depth
 171:Drivers/lvgl/src/draw/../misc/lv_color.h ****  * to set/get values of the color channels
 172:Drivers/lvgl/src/draw/../misc/lv_color.h ****  *------------------------------------------*/
 173:Drivers/lvgl/src/draw/../misc/lv_color.h **** #define LV_COLOR_SET_R(c, v) LV_CONCAT(LV_COLOR_SET_R, LV_COLOR_DEPTH)(c, v)
 174:Drivers/lvgl/src/draw/../misc/lv_color.h **** #define LV_COLOR_SET_G(c, v) LV_CONCAT(LV_COLOR_SET_G, LV_COLOR_DEPTH)(c, v)
 175:Drivers/lvgl/src/draw/../misc/lv_color.h **** #define LV_COLOR_SET_B(c, v) LV_CONCAT(LV_COLOR_SET_B, LV_COLOR_DEPTH)(c, v)
 176:Drivers/lvgl/src/draw/../misc/lv_color.h **** #define LV_COLOR_SET_A(c, v) LV_CONCAT(LV_COLOR_SET_A, LV_COLOR_DEPTH)(c, v)
 177:Drivers/lvgl/src/draw/../misc/lv_color.h **** 
 178:Drivers/lvgl/src/draw/../misc/lv_color.h **** #define LV_COLOR_GET_R(c) LV_CONCAT(LV_COLOR_GET_R, LV_COLOR_DEPTH)(c)
 179:Drivers/lvgl/src/draw/../misc/lv_color.h **** #define LV_COLOR_GET_G(c) LV_CONCAT(LV_COLOR_GET_G, LV_COLOR_DEPTH)(c)
 180:Drivers/lvgl/src/draw/../misc/lv_color.h **** #define LV_COLOR_GET_B(c) LV_CONCAT(LV_COLOR_GET_B, LV_COLOR_DEPTH)(c)
 181:Drivers/lvgl/src/draw/../misc/lv_color.h **** #define LV_COLOR_GET_A(c) LV_CONCAT(LV_COLOR_GET_A, LV_COLOR_DEPTH)(c)
 182:Drivers/lvgl/src/draw/../misc/lv_color.h **** 
 183:Drivers/lvgl/src/draw/../misc/lv_color.h **** #define _LV_COLOR_ZERO_INITIALIZER LV_CONCAT(_LV_COLOR_ZERO_INITIALIZER, LV_COLOR_DEPTH)
 184:Drivers/lvgl/src/draw/../misc/lv_color.h **** #define LV_COLOR_MAKE(r8, g8, b8) LV_CONCAT(LV_COLOR_MAKE, LV_COLOR_DEPTH)(r8, g8, b8)
 185:Drivers/lvgl/src/draw/../misc/lv_color.h **** 
 186:Drivers/lvgl/src/draw/../misc/lv_color.h **** /**********************
 187:Drivers/lvgl/src/draw/../misc/lv_color.h ****  *      TYPEDEFS
 188:Drivers/lvgl/src/draw/../misc/lv_color.h ****  **********************/
 189:Drivers/lvgl/src/draw/../misc/lv_color.h **** 
 190:Drivers/lvgl/src/draw/../misc/lv_color.h **** typedef union {
 191:Drivers/lvgl/src/draw/../misc/lv_color.h ****     uint8_t full; /*must be declared first to set all bits of byte via initializer list*/
 192:Drivers/lvgl/src/draw/../misc/lv_color.h ****     union {
 193:Drivers/lvgl/src/draw/../misc/lv_color.h ****         uint8_t blue : 1;
 194:Drivers/lvgl/src/draw/../misc/lv_color.h ****         uint8_t green : 1;
 195:Drivers/lvgl/src/draw/../misc/lv_color.h ****         uint8_t red : 1;
 196:Drivers/lvgl/src/draw/../misc/lv_color.h ****     } ch;
 197:Drivers/lvgl/src/draw/../misc/lv_color.h **** } lv_color1_t;
 198:Drivers/lvgl/src/draw/../misc/lv_color.h **** 
 199:Drivers/lvgl/src/draw/../misc/lv_color.h **** typedef union {
 200:Drivers/lvgl/src/draw/../misc/lv_color.h ****     struct {
 201:Drivers/lvgl/src/draw/../misc/lv_color.h ****         uint8_t blue : 2;
 202:Drivers/lvgl/src/draw/../misc/lv_color.h ****         uint8_t green : 3;
 203:Drivers/lvgl/src/draw/../misc/lv_color.h ****         uint8_t red : 3;
 204:Drivers/lvgl/src/draw/../misc/lv_color.h ****     } ch;
 205:Drivers/lvgl/src/draw/../misc/lv_color.h ****     uint8_t full;
 206:Drivers/lvgl/src/draw/../misc/lv_color.h **** } lv_color8_t;
 207:Drivers/lvgl/src/draw/../misc/lv_color.h **** 
 208:Drivers/lvgl/src/draw/../misc/lv_color.h **** typedef union {
 209:Drivers/lvgl/src/draw/../misc/lv_color.h ****     struct {
 210:Drivers/lvgl/src/draw/../misc/lv_color.h **** #if LV_COLOR_16_SWAP == 0
 211:Drivers/lvgl/src/draw/../misc/lv_color.h ****         uint16_t blue : 5;
 212:Drivers/lvgl/src/draw/../misc/lv_color.h ****         uint16_t green : 6;
 213:Drivers/lvgl/src/draw/../misc/lv_color.h ****         uint16_t red : 5;
 214:Drivers/lvgl/src/draw/../misc/lv_color.h **** #else
 215:Drivers/lvgl/src/draw/../misc/lv_color.h ****         uint16_t green_h : 3;
 216:Drivers/lvgl/src/draw/../misc/lv_color.h ****         uint16_t red : 5;
ARM GAS  /var/folders/0z/tsy30v1j4xl4_7kw94k978ww0000gn/T//ccpQecOs.s 			page 15


 217:Drivers/lvgl/src/draw/../misc/lv_color.h ****         uint16_t blue : 5;
 218:Drivers/lvgl/src/draw/../misc/lv_color.h ****         uint16_t green_l : 3;
 219:Drivers/lvgl/src/draw/../misc/lv_color.h **** #endif
 220:Drivers/lvgl/src/draw/../misc/lv_color.h ****     } ch;
 221:Drivers/lvgl/src/draw/../misc/lv_color.h ****     uint16_t full;
 222:Drivers/lvgl/src/draw/../misc/lv_color.h **** } lv_color16_t;
 223:Drivers/lvgl/src/draw/../misc/lv_color.h **** 
 224:Drivers/lvgl/src/draw/../misc/lv_color.h **** typedef union {
 225:Drivers/lvgl/src/draw/../misc/lv_color.h ****     struct {
 226:Drivers/lvgl/src/draw/../misc/lv_color.h ****         uint8_t blue;
 227:Drivers/lvgl/src/draw/../misc/lv_color.h ****         uint8_t green;
 228:Drivers/lvgl/src/draw/../misc/lv_color.h ****         uint8_t red;
 229:Drivers/lvgl/src/draw/../misc/lv_color.h ****         uint8_t alpha;
 230:Drivers/lvgl/src/draw/../misc/lv_color.h ****     } ch;
 231:Drivers/lvgl/src/draw/../misc/lv_color.h ****     uint32_t full;
 232:Drivers/lvgl/src/draw/../misc/lv_color.h **** } lv_color32_t;
 233:Drivers/lvgl/src/draw/../misc/lv_color.h **** 
 234:Drivers/lvgl/src/draw/../misc/lv_color.h **** typedef LV_CONCAT3(uint, LV_COLOR_SIZE, _t) lv_color_int_t;
 235:Drivers/lvgl/src/draw/../misc/lv_color.h **** typedef LV_CONCAT3(lv_color, LV_COLOR_DEPTH, _t) lv_color_t;
 236:Drivers/lvgl/src/draw/../misc/lv_color.h **** 
 237:Drivers/lvgl/src/draw/../misc/lv_color.h **** typedef struct {
 238:Drivers/lvgl/src/draw/../misc/lv_color.h ****     uint16_t h;
 239:Drivers/lvgl/src/draw/../misc/lv_color.h ****     uint8_t s;
 240:Drivers/lvgl/src/draw/../misc/lv_color.h ****     uint8_t v;
 241:Drivers/lvgl/src/draw/../misc/lv_color.h **** } lv_color_hsv_t;
 242:Drivers/lvgl/src/draw/../misc/lv_color.h **** 
 243:Drivers/lvgl/src/draw/../misc/lv_color.h **** //! @cond Doxygen_Suppress
 244:Drivers/lvgl/src/draw/../misc/lv_color.h **** /*No idea where the guard is required but else throws warnings in the docs*/
 245:Drivers/lvgl/src/draw/../misc/lv_color.h **** typedef uint8_t lv_opa_t;
 246:Drivers/lvgl/src/draw/../misc/lv_color.h **** //! @endcond
 247:Drivers/lvgl/src/draw/../misc/lv_color.h **** 
 248:Drivers/lvgl/src/draw/../misc/lv_color.h **** struct _lv_color_filter_dsc_t;
 249:Drivers/lvgl/src/draw/../misc/lv_color.h **** 
 250:Drivers/lvgl/src/draw/../misc/lv_color.h **** typedef lv_color_t (*lv_color_filter_cb_t)(const struct _lv_color_filter_dsc_t *, lv_color_t, lv_op
 251:Drivers/lvgl/src/draw/../misc/lv_color.h **** 
 252:Drivers/lvgl/src/draw/../misc/lv_color.h **** typedef struct _lv_color_filter_dsc_t {
 253:Drivers/lvgl/src/draw/../misc/lv_color.h ****     lv_color_filter_cb_t filter_cb;
 254:Drivers/lvgl/src/draw/../misc/lv_color.h ****     void * user_data;
 255:Drivers/lvgl/src/draw/../misc/lv_color.h **** } lv_color_filter_dsc_t;
 256:Drivers/lvgl/src/draw/../misc/lv_color.h **** 
 257:Drivers/lvgl/src/draw/../misc/lv_color.h **** 
 258:Drivers/lvgl/src/draw/../misc/lv_color.h **** typedef enum {
 259:Drivers/lvgl/src/draw/../misc/lv_color.h ****     LV_PALETTE_RED,
 260:Drivers/lvgl/src/draw/../misc/lv_color.h ****     LV_PALETTE_PINK,
 261:Drivers/lvgl/src/draw/../misc/lv_color.h ****     LV_PALETTE_PURPLE,
 262:Drivers/lvgl/src/draw/../misc/lv_color.h ****     LV_PALETTE_DEEP_PURPLE,
 263:Drivers/lvgl/src/draw/../misc/lv_color.h ****     LV_PALETTE_INDIGO,
 264:Drivers/lvgl/src/draw/../misc/lv_color.h ****     LV_PALETTE_BLUE,
 265:Drivers/lvgl/src/draw/../misc/lv_color.h ****     LV_PALETTE_LIGHT_BLUE,
 266:Drivers/lvgl/src/draw/../misc/lv_color.h ****     LV_PALETTE_CYAN,
 267:Drivers/lvgl/src/draw/../misc/lv_color.h ****     LV_PALETTE_TEAL,
 268:Drivers/lvgl/src/draw/../misc/lv_color.h ****     LV_PALETTE_GREEN,
 269:Drivers/lvgl/src/draw/../misc/lv_color.h ****     LV_PALETTE_LIGHT_GREEN,
 270:Drivers/lvgl/src/draw/../misc/lv_color.h ****     LV_PALETTE_LIME,
 271:Drivers/lvgl/src/draw/../misc/lv_color.h ****     LV_PALETTE_YELLOW,
 272:Drivers/lvgl/src/draw/../misc/lv_color.h ****     LV_PALETTE_AMBER,
 273:Drivers/lvgl/src/draw/../misc/lv_color.h ****     LV_PALETTE_ORANGE,
ARM GAS  /var/folders/0z/tsy30v1j4xl4_7kw94k978ww0000gn/T//ccpQecOs.s 			page 16


 274:Drivers/lvgl/src/draw/../misc/lv_color.h ****     LV_PALETTE_DEEP_ORANGE,
 275:Drivers/lvgl/src/draw/../misc/lv_color.h ****     LV_PALETTE_BROWN,
 276:Drivers/lvgl/src/draw/../misc/lv_color.h ****     LV_PALETTE_BLUE_GREY,
 277:Drivers/lvgl/src/draw/../misc/lv_color.h ****     LV_PALETTE_GREY,
 278:Drivers/lvgl/src/draw/../misc/lv_color.h ****     _LV_PALETTE_LAST,
 279:Drivers/lvgl/src/draw/../misc/lv_color.h ****     LV_PALETTE_NONE = 0xff,
 280:Drivers/lvgl/src/draw/../misc/lv_color.h **** } lv_palette_t;
 281:Drivers/lvgl/src/draw/../misc/lv_color.h **** 
 282:Drivers/lvgl/src/draw/../misc/lv_color.h **** /**********************
 283:Drivers/lvgl/src/draw/../misc/lv_color.h ****  * GLOBAL PROTOTYPES
 284:Drivers/lvgl/src/draw/../misc/lv_color.h ****  **********************/
 285:Drivers/lvgl/src/draw/../misc/lv_color.h **** 
 286:Drivers/lvgl/src/draw/../misc/lv_color.h **** /*In color conversations:
 287:Drivers/lvgl/src/draw/../misc/lv_color.h ****  * - When converting to bigger color type the LSB weight of 1 LSB is calculated
 288:Drivers/lvgl/src/draw/../misc/lv_color.h ****  *   E.g. 16 bit Red has 5 bits
 289:Drivers/lvgl/src/draw/../misc/lv_color.h ****  *         8 bit Red has 3 bits
 290:Drivers/lvgl/src/draw/../misc/lv_color.h ****  *        ----------------------
 291:Drivers/lvgl/src/draw/../misc/lv_color.h ****  *        8 bit red LSB = (2^5 - 1) / (2^3 - 1) = 31 / 7 = 4
 292:Drivers/lvgl/src/draw/../misc/lv_color.h ****  *
 293:Drivers/lvgl/src/draw/../misc/lv_color.h ****  * - When calculating to smaller color type simply shift out the LSBs
 294:Drivers/lvgl/src/draw/../misc/lv_color.h ****  *   E.g.  8 bit Red has 3 bits
 295:Drivers/lvgl/src/draw/../misc/lv_color.h ****  *        16 bit Red has 5 bits
 296:Drivers/lvgl/src/draw/../misc/lv_color.h ****  *        ----------------------
 297:Drivers/lvgl/src/draw/../misc/lv_color.h ****  *         Shift right with 5 - 3 = 2
 298:Drivers/lvgl/src/draw/../misc/lv_color.h ****  */
 299:Drivers/lvgl/src/draw/../misc/lv_color.h **** static inline uint8_t lv_color_to1(lv_color_t color)
 300:Drivers/lvgl/src/draw/../misc/lv_color.h **** {
 301:Drivers/lvgl/src/draw/../misc/lv_color.h **** #if LV_COLOR_DEPTH == 1
 302:Drivers/lvgl/src/draw/../misc/lv_color.h ****     return color.full;
 303:Drivers/lvgl/src/draw/../misc/lv_color.h **** #elif LV_COLOR_DEPTH == 8
 304:Drivers/lvgl/src/draw/../misc/lv_color.h ****     if((LV_COLOR_GET_R(color) & 0x4) || (LV_COLOR_GET_G(color) & 0x4) || (LV_COLOR_GET_B(color) & 0
 305:Drivers/lvgl/src/draw/../misc/lv_color.h ****         return 1;
 306:Drivers/lvgl/src/draw/../misc/lv_color.h ****     }
 307:Drivers/lvgl/src/draw/../misc/lv_color.h ****     else {
 308:Drivers/lvgl/src/draw/../misc/lv_color.h ****         return 0;
 309:Drivers/lvgl/src/draw/../misc/lv_color.h ****     }
 310:Drivers/lvgl/src/draw/../misc/lv_color.h **** #elif LV_COLOR_DEPTH == 16
 311:Drivers/lvgl/src/draw/../misc/lv_color.h ****     if((LV_COLOR_GET_R(color) & 0x10) || (LV_COLOR_GET_G(color) & 0x20) || (LV_COLOR_GET_B(color) &
 312:Drivers/lvgl/src/draw/../misc/lv_color.h ****         return 1;
 313:Drivers/lvgl/src/draw/../misc/lv_color.h ****     }
 314:Drivers/lvgl/src/draw/../misc/lv_color.h ****     else {
 315:Drivers/lvgl/src/draw/../misc/lv_color.h ****         return 0;
 316:Drivers/lvgl/src/draw/../misc/lv_color.h ****     }
 317:Drivers/lvgl/src/draw/../misc/lv_color.h **** #elif LV_COLOR_DEPTH == 32
 318:Drivers/lvgl/src/draw/../misc/lv_color.h ****     if((LV_COLOR_GET_R(color) & 0x80) || (LV_COLOR_GET_G(color) & 0x80) || (LV_COLOR_GET_B(color) &
 319:Drivers/lvgl/src/draw/../misc/lv_color.h ****         return 1;
 320:Drivers/lvgl/src/draw/../misc/lv_color.h ****     }
 321:Drivers/lvgl/src/draw/../misc/lv_color.h ****     else {
 322:Drivers/lvgl/src/draw/../misc/lv_color.h ****         return 0;
 323:Drivers/lvgl/src/draw/../misc/lv_color.h ****     }
 324:Drivers/lvgl/src/draw/../misc/lv_color.h **** #endif
 325:Drivers/lvgl/src/draw/../misc/lv_color.h **** }
 326:Drivers/lvgl/src/draw/../misc/lv_color.h **** 
 327:Drivers/lvgl/src/draw/../misc/lv_color.h **** static inline uint8_t lv_color_to8(lv_color_t color)
 328:Drivers/lvgl/src/draw/../misc/lv_color.h **** {
 329:Drivers/lvgl/src/draw/../misc/lv_color.h **** #if LV_COLOR_DEPTH == 1
 330:Drivers/lvgl/src/draw/../misc/lv_color.h ****     if(color.full == 0)
ARM GAS  /var/folders/0z/tsy30v1j4xl4_7kw94k978ww0000gn/T//ccpQecOs.s 			page 17


 331:Drivers/lvgl/src/draw/../misc/lv_color.h ****         return 0;
 332:Drivers/lvgl/src/draw/../misc/lv_color.h ****     else
 333:Drivers/lvgl/src/draw/../misc/lv_color.h ****         return 0xFF;
 334:Drivers/lvgl/src/draw/../misc/lv_color.h **** #elif LV_COLOR_DEPTH == 8
 335:Drivers/lvgl/src/draw/../misc/lv_color.h ****     return color.full;
 336:Drivers/lvgl/src/draw/../misc/lv_color.h **** #elif LV_COLOR_DEPTH == 16
 337:Drivers/lvgl/src/draw/../misc/lv_color.h ****     lv_color8_t ret;
 338:Drivers/lvgl/src/draw/../misc/lv_color.h ****     LV_COLOR_SET_R8(ret, LV_COLOR_GET_R(color) >> 2); /*5 - 3  = 2*/
 339:Drivers/lvgl/src/draw/../misc/lv_color.h ****     LV_COLOR_SET_G8(ret, LV_COLOR_GET_G(color) >> 3); /*6 - 3  = 3*/
 340:Drivers/lvgl/src/draw/../misc/lv_color.h ****     LV_COLOR_SET_B8(ret, LV_COLOR_GET_B(color) >> 3); /*5 - 2  = 3*/
 341:Drivers/lvgl/src/draw/../misc/lv_color.h ****     return ret.full;
 342:Drivers/lvgl/src/draw/../misc/lv_color.h **** #elif LV_COLOR_DEPTH == 32
 343:Drivers/lvgl/src/draw/../misc/lv_color.h ****     lv_color8_t ret;
 344:Drivers/lvgl/src/draw/../misc/lv_color.h ****     LV_COLOR_SET_R8(ret, LV_COLOR_GET_R(color) >> 5); /*8 - 3  = 5*/
 345:Drivers/lvgl/src/draw/../misc/lv_color.h ****     LV_COLOR_SET_G8(ret, LV_COLOR_GET_G(color) >> 5); /*8 - 3  = 5*/
 346:Drivers/lvgl/src/draw/../misc/lv_color.h ****     LV_COLOR_SET_B8(ret, LV_COLOR_GET_B(color) >> 6); /*8 - 2  = 6*/
 347:Drivers/lvgl/src/draw/../misc/lv_color.h ****     return ret.full;
 348:Drivers/lvgl/src/draw/../misc/lv_color.h **** #endif
 349:Drivers/lvgl/src/draw/../misc/lv_color.h **** }
 350:Drivers/lvgl/src/draw/../misc/lv_color.h **** 
 351:Drivers/lvgl/src/draw/../misc/lv_color.h **** static inline uint16_t lv_color_to16(lv_color_t color)
 352:Drivers/lvgl/src/draw/../misc/lv_color.h **** {
 353:Drivers/lvgl/src/draw/../misc/lv_color.h **** #if LV_COLOR_DEPTH == 1
 354:Drivers/lvgl/src/draw/../misc/lv_color.h ****     if(color.full == 0)
 355:Drivers/lvgl/src/draw/../misc/lv_color.h ****         return 0;
 356:Drivers/lvgl/src/draw/../misc/lv_color.h ****     else
 357:Drivers/lvgl/src/draw/../misc/lv_color.h ****         return 0xFFFF;
 358:Drivers/lvgl/src/draw/../misc/lv_color.h **** #elif LV_COLOR_DEPTH == 8
 359:Drivers/lvgl/src/draw/../misc/lv_color.h ****     lv_color16_t ret;
 360:Drivers/lvgl/src/draw/../misc/lv_color.h ****     LV_COLOR_SET_R16(ret, LV_COLOR_GET_R(color) * 4);  /*(2^5 - 1)/(2^3 - 1) = 31/7 = 4*/
 361:Drivers/lvgl/src/draw/../misc/lv_color.h ****     LV_COLOR_SET_G16(ret, LV_COLOR_GET_G(color) * 9);  /*(2^6 - 1)/(2^3 - 1) = 63/7 = 9*/
 362:Drivers/lvgl/src/draw/../misc/lv_color.h ****     LV_COLOR_SET_B16(ret, LV_COLOR_GET_B(color) * 10); /*(2^5 - 1)/(2^2 - 1) = 31/3 = 10*/
 363:Drivers/lvgl/src/draw/../misc/lv_color.h ****     return ret.full;
 364:Drivers/lvgl/src/draw/../misc/lv_color.h **** #elif LV_COLOR_DEPTH == 16
 365:Drivers/lvgl/src/draw/../misc/lv_color.h ****     return color.full;
 366:Drivers/lvgl/src/draw/../misc/lv_color.h **** #elif LV_COLOR_DEPTH == 32
 367:Drivers/lvgl/src/draw/../misc/lv_color.h ****     lv_color16_t ret;
 368:Drivers/lvgl/src/draw/../misc/lv_color.h ****     LV_COLOR_SET_R16(ret, LV_COLOR_GET_R(color) >> 3); /*8 - 5  = 3*/
 369:Drivers/lvgl/src/draw/../misc/lv_color.h ****     LV_COLOR_SET_G16(ret, LV_COLOR_GET_G(color) >> 2); /*8 - 6  = 2*/
 370:Drivers/lvgl/src/draw/../misc/lv_color.h ****     LV_COLOR_SET_B16(ret, LV_COLOR_GET_B(color) >> 3); /*8 - 5  = 3*/
 371:Drivers/lvgl/src/draw/../misc/lv_color.h ****     return ret.full;
 372:Drivers/lvgl/src/draw/../misc/lv_color.h **** #endif
 373:Drivers/lvgl/src/draw/../misc/lv_color.h **** }
 374:Drivers/lvgl/src/draw/../misc/lv_color.h **** 
 375:Drivers/lvgl/src/draw/../misc/lv_color.h **** static inline uint32_t lv_color_to32(lv_color_t color)
 376:Drivers/lvgl/src/draw/../misc/lv_color.h **** {
 377:Drivers/lvgl/src/draw/../misc/lv_color.h **** #if LV_COLOR_DEPTH == 1
 378:Drivers/lvgl/src/draw/../misc/lv_color.h ****     if(color.full == 0)
 379:Drivers/lvgl/src/draw/../misc/lv_color.h ****         return 0xFF000000;
 380:Drivers/lvgl/src/draw/../misc/lv_color.h ****     else
 381:Drivers/lvgl/src/draw/../misc/lv_color.h ****         return 0xFFFFFFFF;
 382:Drivers/lvgl/src/draw/../misc/lv_color.h **** #elif LV_COLOR_DEPTH == 8
 383:Drivers/lvgl/src/draw/../misc/lv_color.h ****     lv_color32_t ret;
 384:Drivers/lvgl/src/draw/../misc/lv_color.h ****     LV_COLOR_SET_R32(ret, LV_COLOR_GET_R(color) * 36); /*(2^8 - 1)/(2^3 - 1) = 255/7 = 36*/
 385:Drivers/lvgl/src/draw/../misc/lv_color.h ****     LV_COLOR_SET_G32(ret, LV_COLOR_GET_G(color) * 36); /*(2^8 - 1)/(2^3 - 1) = 255/7 = 36*/
 386:Drivers/lvgl/src/draw/../misc/lv_color.h ****     LV_COLOR_SET_B32(ret, LV_COLOR_GET_B(color) * 85); /*(2^8 - 1)/(2^2 - 1) = 255/3 = 85*/
 387:Drivers/lvgl/src/draw/../misc/lv_color.h ****     LV_COLOR_SET_A32(ret, 0xFF);
ARM GAS  /var/folders/0z/tsy30v1j4xl4_7kw94k978ww0000gn/T//ccpQecOs.s 			page 18


 388:Drivers/lvgl/src/draw/../misc/lv_color.h ****     return ret.full;
 389:Drivers/lvgl/src/draw/../misc/lv_color.h **** #elif LV_COLOR_DEPTH == 16
 390:Drivers/lvgl/src/draw/../misc/lv_color.h ****     /**
 391:Drivers/lvgl/src/draw/../misc/lv_color.h ****      * The floating point math for conversion is:
 392:Drivers/lvgl/src/draw/../misc/lv_color.h ****      *  valueto = valuefrom * ( (2^bitsto - 1) / (float)(2^bitsfrom - 1) )
 393:Drivers/lvgl/src/draw/../misc/lv_color.h ****      * The faster integer math for conversion is:
 394:Drivers/lvgl/src/draw/../misc/lv_color.h ****      *  valueto = ( valuefrom * multiplier + adder ) >> divisor
 395:Drivers/lvgl/src/draw/../misc/lv_color.h ****      *   multiplier = FLOOR( ( (2^bitsto - 1) << divisor ) / (float)(2^bitsfrom - 1) )
 396:Drivers/lvgl/src/draw/../misc/lv_color.h ****      *
 397:Drivers/lvgl/src/draw/../misc/lv_color.h ****      * Find the first divisor where ( adder >> divisor ) <= 0
 398:Drivers/lvgl/src/draw/../misc/lv_color.h ****      *
 399:Drivers/lvgl/src/draw/../misc/lv_color.h ****      * 5-bit to 8-bit: ( 31 * multiplier + adder ) >> divisor = 255
 400:Drivers/lvgl/src/draw/../misc/lv_color.h ****      * divisor  multiplier  adder  min (0)  max (31)
 401:Drivers/lvgl/src/draw/../misc/lv_color.h ****      *       0           8      7        7       255
 402:Drivers/lvgl/src/draw/../misc/lv_color.h ****      *       1          16     14        7       255
 403:Drivers/lvgl/src/draw/../misc/lv_color.h ****      *       2          32     28        7       255
 404:Drivers/lvgl/src/draw/../misc/lv_color.h ****      *       3          65     25        3       255
 405:Drivers/lvgl/src/draw/../misc/lv_color.h ****      *       4         131     19        1       255
 406:Drivers/lvgl/src/draw/../misc/lv_color.h ****      *       5         263      7        0       255
 407:Drivers/lvgl/src/draw/../misc/lv_color.h ****      *
 408:Drivers/lvgl/src/draw/../misc/lv_color.h ****      * 6-bit to 8-bit: 255 = ( 63 * multiplier + adder ) >> divisor
 409:Drivers/lvgl/src/draw/../misc/lv_color.h ****      * divisor  multiplier  adder  min (0)  max (63)
 410:Drivers/lvgl/src/draw/../misc/lv_color.h ****      *       0           4      3        3       255
 411:Drivers/lvgl/src/draw/../misc/lv_color.h ****      *       1           8      6        3       255
 412:Drivers/lvgl/src/draw/../misc/lv_color.h ****      *       2          16     12        3       255
 413:Drivers/lvgl/src/draw/../misc/lv_color.h ****      *       3          32     24        3       255
 414:Drivers/lvgl/src/draw/../misc/lv_color.h ****      *       4          64     48        3       255
 415:Drivers/lvgl/src/draw/../misc/lv_color.h ****      *       5         129     33        1       255
 416:Drivers/lvgl/src/draw/../misc/lv_color.h ****      *       6         259      3        0       255
 417:Drivers/lvgl/src/draw/../misc/lv_color.h ****      */
 418:Drivers/lvgl/src/draw/../misc/lv_color.h **** 
 419:Drivers/lvgl/src/draw/../misc/lv_color.h ****     lv_color32_t ret;
 420:Drivers/lvgl/src/draw/../misc/lv_color.h ****     LV_COLOR_SET_R32(ret, (LV_COLOR_GET_R(color) * 263 + 7) >> 5);
 421:Drivers/lvgl/src/draw/../misc/lv_color.h ****     LV_COLOR_SET_G32(ret, (LV_COLOR_GET_G(color) * 259 + 3) >> 6);
 422:Drivers/lvgl/src/draw/../misc/lv_color.h ****     LV_COLOR_SET_B32(ret, (LV_COLOR_GET_B(color) * 263 + 7) >> 5);
 423:Drivers/lvgl/src/draw/../misc/lv_color.h ****     LV_COLOR_SET_A32(ret, 0xFF);
 424:Drivers/lvgl/src/draw/../misc/lv_color.h ****     return ret.full;
 425:Drivers/lvgl/src/draw/../misc/lv_color.h **** #elif LV_COLOR_DEPTH == 32
 426:Drivers/lvgl/src/draw/../misc/lv_color.h ****     return color.full;
 427:Drivers/lvgl/src/draw/../misc/lv_color.h **** #endif
 428:Drivers/lvgl/src/draw/../misc/lv_color.h **** }
 429:Drivers/lvgl/src/draw/../misc/lv_color.h **** 
 430:Drivers/lvgl/src/draw/../misc/lv_color.h **** //! @cond Doxygen_Suppress
 431:Drivers/lvgl/src/draw/../misc/lv_color.h **** 
 432:Drivers/lvgl/src/draw/../misc/lv_color.h **** /**
 433:Drivers/lvgl/src/draw/../misc/lv_color.h ****  * Mix two colors with a given ratio.
 434:Drivers/lvgl/src/draw/../misc/lv_color.h ****  * @param c1 the first color to mix (usually the foreground)
 435:Drivers/lvgl/src/draw/../misc/lv_color.h ****  * @param c2 the second color to mix (usually the background)
 436:Drivers/lvgl/src/draw/../misc/lv_color.h ****  * @param mix The ratio of the colors. 0: full `c2`, 255: full `c1`, 127: half `c1` and half`c2`
 437:Drivers/lvgl/src/draw/../misc/lv_color.h ****  * @return the mixed color
 438:Drivers/lvgl/src/draw/../misc/lv_color.h ****  */
 439:Drivers/lvgl/src/draw/../misc/lv_color.h **** static inline lv_color_t LV_ATTRIBUTE_FAST_MEM lv_color_mix(lv_color_t c1, lv_color_t c2, uint8_t m
 440:Drivers/lvgl/src/draw/../misc/lv_color.h **** {
 441:Drivers/lvgl/src/draw/../misc/lv_color.h ****     lv_color_t ret;
 442:Drivers/lvgl/src/draw/../misc/lv_color.h **** 
 443:Drivers/lvgl/src/draw/../misc/lv_color.h **** #if LV_COLOR_DEPTH == 16 && LV_COLOR_MIX_ROUND_OFS == 0
 444:Drivers/lvgl/src/draw/../misc/lv_color.h **** #if LV_COLOR_16_SWAP == 1
ARM GAS  /var/folders/0z/tsy30v1j4xl4_7kw94k978ww0000gn/T//ccpQecOs.s 			page 19


 445:Drivers/lvgl/src/draw/../misc/lv_color.h ****     c1.full = c1.full << 8 | c1.full >> 8;
 446:Drivers/lvgl/src/draw/../misc/lv_color.h ****     c2.full = c2.full << 8 | c2.full >> 8;
 447:Drivers/lvgl/src/draw/../misc/lv_color.h **** #endif
 448:Drivers/lvgl/src/draw/../misc/lv_color.h ****     /*Source: https://stackoverflow.com/a/50012418/1999969*/
 449:Drivers/lvgl/src/draw/../misc/lv_color.h ****     mix = (uint32_t)((uint32_t)mix + 4) >> 3;
 450:Drivers/lvgl/src/draw/../misc/lv_color.h ****     uint32_t bg = (uint32_t)((uint32_t)c2.full | ((uint32_t)c2.full << 16)) &
 451:Drivers/lvgl/src/draw/../misc/lv_color.h ****                   0x7E0F81F; /*0b00000111111000001111100000011111*/
 452:Drivers/lvgl/src/draw/../misc/lv_color.h ****     uint32_t fg = (uint32_t)((uint32_t)c1.full | ((uint32_t)c1.full << 16)) & 0x7E0F81F;
 453:Drivers/lvgl/src/draw/../misc/lv_color.h ****     uint32_t result = ((((fg - bg) * mix) >> 5) + bg) & 0x7E0F81F;
 454:Drivers/lvgl/src/draw/../misc/lv_color.h ****     ret.full = (uint16_t)((result >> 16) | result);
 455:Drivers/lvgl/src/draw/../misc/lv_color.h **** #if LV_COLOR_16_SWAP == 1
 456:Drivers/lvgl/src/draw/../misc/lv_color.h ****     ret.full = ret.full << 8 | ret.full >> 8;
 457:Drivers/lvgl/src/draw/../misc/lv_color.h **** #endif
 458:Drivers/lvgl/src/draw/../misc/lv_color.h **** #elif LV_COLOR_DEPTH != 1
 459:Drivers/lvgl/src/draw/../misc/lv_color.h ****     /*LV_COLOR_DEPTH == 8, 16 or 32*/
 460:Drivers/lvgl/src/draw/../misc/lv_color.h ****     LV_COLOR_SET_R(ret, LV_UDIV255((uint16_t)LV_COLOR_GET_R(c1) * mix + LV_COLOR_GET_R(c2) *
 461:Drivers/lvgl/src/draw/../misc/lv_color.h ****                                    (255 - mix) + LV_COLOR_MIX_ROUND_OFS));
 462:Drivers/lvgl/src/draw/../misc/lv_color.h ****     LV_COLOR_SET_G(ret, LV_UDIV255((uint16_t)LV_COLOR_GET_G(c1) * mix + LV_COLOR_GET_G(c2) *
 463:Drivers/lvgl/src/draw/../misc/lv_color.h ****                                    (255 - mix) + LV_COLOR_MIX_ROUND_OFS));
 464:Drivers/lvgl/src/draw/../misc/lv_color.h ****     LV_COLOR_SET_B(ret, LV_UDIV255((uint16_t)LV_COLOR_GET_B(c1) * mix + LV_COLOR_GET_B(c2) *
 465:Drivers/lvgl/src/draw/../misc/lv_color.h ****                                    (255 - mix) + LV_COLOR_MIX_ROUND_OFS));
 466:Drivers/lvgl/src/draw/../misc/lv_color.h ****     LV_COLOR_SET_A(ret, 0xFF);
 467:Drivers/lvgl/src/draw/../misc/lv_color.h **** #else
 468:Drivers/lvgl/src/draw/../misc/lv_color.h ****     /*LV_COLOR_DEPTH == 1*/
 469:Drivers/lvgl/src/draw/../misc/lv_color.h ****     ret.full = mix > LV_OPA_50 ? c1.full : c2.full;
 470:Drivers/lvgl/src/draw/../misc/lv_color.h **** #endif
 471:Drivers/lvgl/src/draw/../misc/lv_color.h **** 
 472:Drivers/lvgl/src/draw/../misc/lv_color.h ****     return ret;
 473:Drivers/lvgl/src/draw/../misc/lv_color.h **** }
 474:Drivers/lvgl/src/draw/../misc/lv_color.h **** 
 475:Drivers/lvgl/src/draw/../misc/lv_color.h **** static inline void LV_ATTRIBUTE_FAST_MEM lv_color_premult(lv_color_t c, uint8_t mix, uint16_t * out
 476:Drivers/lvgl/src/draw/../misc/lv_color.h **** {
 477:Drivers/lvgl/src/draw/../misc/lv_color.h **** #if LV_COLOR_DEPTH != 1
 478:Drivers/lvgl/src/draw/../misc/lv_color.h ****     out[0] = (uint16_t)LV_COLOR_GET_R(c) * mix;
 479:Drivers/lvgl/src/draw/../misc/lv_color.h ****     out[1] = (uint16_t)LV_COLOR_GET_G(c) * mix;
 480:Drivers/lvgl/src/draw/../misc/lv_color.h ****     out[2] = (uint16_t)LV_COLOR_GET_B(c) * mix;
 481:Drivers/lvgl/src/draw/../misc/lv_color.h **** #else
 482:Drivers/lvgl/src/draw/../misc/lv_color.h ****     (void) mix;
 483:Drivers/lvgl/src/draw/../misc/lv_color.h ****     /*Pre-multiplication can't be used with 1 bpp*/
 484:Drivers/lvgl/src/draw/../misc/lv_color.h ****     out[0] = LV_COLOR_GET_R(c);
 485:Drivers/lvgl/src/draw/../misc/lv_color.h ****     out[1] = LV_COLOR_GET_G(c);
 486:Drivers/lvgl/src/draw/../misc/lv_color.h ****     out[2] = LV_COLOR_GET_B(c);
 487:Drivers/lvgl/src/draw/../misc/lv_color.h **** #endif
 488:Drivers/lvgl/src/draw/../misc/lv_color.h **** 
 489:Drivers/lvgl/src/draw/../misc/lv_color.h **** }
 490:Drivers/lvgl/src/draw/../misc/lv_color.h **** 
 491:Drivers/lvgl/src/draw/../misc/lv_color.h **** /**
 492:Drivers/lvgl/src/draw/../misc/lv_color.h ****  * Mix two colors with a given ratio. It runs faster then `lv_color_mix` but requires some pre comp
 493:Drivers/lvgl/src/draw/../misc/lv_color.h ****  * @param premult_c1 The first color. Should be preprocessed with `lv_color_premult(c1)`
 494:Drivers/lvgl/src/draw/../misc/lv_color.h ****  * @param c2 The second color. As it is no pre computation required on it
 495:Drivers/lvgl/src/draw/../misc/lv_color.h ****  * @param mix The ratio of the colors. 0: full `c1`, 255: full `c2`, 127: half `c1` and half `c2`.
 496:Drivers/lvgl/src/draw/../misc/lv_color.h ****  *            Should be modified like mix = `255 - mix`
 497:Drivers/lvgl/src/draw/../misc/lv_color.h ****  * @return the mixed color
 498:Drivers/lvgl/src/draw/../misc/lv_color.h ****  * @note 255 won't give clearly `c1`.
 499:Drivers/lvgl/src/draw/../misc/lv_color.h ****  */
 500:Drivers/lvgl/src/draw/../misc/lv_color.h **** static inline lv_color_t LV_ATTRIBUTE_FAST_MEM lv_color_mix_premult(uint16_t * premult_c1, lv_color
 501:Drivers/lvgl/src/draw/../misc/lv_color.h **** {
ARM GAS  /var/folders/0z/tsy30v1j4xl4_7kw94k978ww0000gn/T//ccpQecOs.s 			page 20


 502:Drivers/lvgl/src/draw/../misc/lv_color.h ****     lv_color_t ret;
 503:Drivers/lvgl/src/draw/../misc/lv_color.h **** #if LV_COLOR_DEPTH != 1
 504:Drivers/lvgl/src/draw/../misc/lv_color.h ****     /*LV_COLOR_DEPTH == 8 or 32*/
 505:Drivers/lvgl/src/draw/../misc/lv_color.h ****     LV_COLOR_SET_R(ret, LV_UDIV255(premult_c1[0] + LV_COLOR_GET_R(c2) * mix + LV_COLOR_MIX_ROUND_OF
 506:Drivers/lvgl/src/draw/../misc/lv_color.h ****     LV_COLOR_SET_G(ret, LV_UDIV255(premult_c1[1] + LV_COLOR_GET_G(c2) * mix + LV_COLOR_MIX_ROUND_OF
 507:Drivers/lvgl/src/draw/../misc/lv_color.h ****     LV_COLOR_SET_B(ret, LV_UDIV255(premult_c1[2] + LV_COLOR_GET_B(c2) * mix + LV_COLOR_MIX_ROUND_OF
 508:Drivers/lvgl/src/draw/../misc/lv_color.h ****     LV_COLOR_SET_A(ret, 0xFF);
 509:Drivers/lvgl/src/draw/../misc/lv_color.h **** #else
 510:Drivers/lvgl/src/draw/../misc/lv_color.h ****     /*LV_COLOR_DEPTH == 1*/
 511:Drivers/lvgl/src/draw/../misc/lv_color.h ****     /*Restore color1*/
 512:Drivers/lvgl/src/draw/../misc/lv_color.h ****     lv_color_t c1;
 513:Drivers/lvgl/src/draw/../misc/lv_color.h ****     LV_COLOR_SET_R(c1, premult_c1[0]);
 514:Drivers/lvgl/src/draw/../misc/lv_color.h ****     LV_COLOR_SET_G(c1, premult_c1[1]);
 515:Drivers/lvgl/src/draw/../misc/lv_color.h ****     LV_COLOR_SET_B(c1, premult_c1[2]);
 516:Drivers/lvgl/src/draw/../misc/lv_color.h ****     ret.full = mix > LV_OPA_50 ? c2.full : c1.full;
 517:Drivers/lvgl/src/draw/../misc/lv_color.h **** #endif
 518:Drivers/lvgl/src/draw/../misc/lv_color.h **** 
 519:Drivers/lvgl/src/draw/../misc/lv_color.h ****     return ret;
 520:Drivers/lvgl/src/draw/../misc/lv_color.h **** }
 521:Drivers/lvgl/src/draw/../misc/lv_color.h **** 
 522:Drivers/lvgl/src/draw/../misc/lv_color.h **** /**
 523:Drivers/lvgl/src/draw/../misc/lv_color.h ****  * Mix two colors. Both color can have alpha value.
 524:Drivers/lvgl/src/draw/../misc/lv_color.h ****  * @param bg_color background color
 525:Drivers/lvgl/src/draw/../misc/lv_color.h ****  * @param bg_opa alpha of the background color
 526:Drivers/lvgl/src/draw/../misc/lv_color.h ****  * @param fg_color foreground color
 527:Drivers/lvgl/src/draw/../misc/lv_color.h ****  * @param fg_opa alpha of the foreground color
 528:Drivers/lvgl/src/draw/../misc/lv_color.h ****  * @param res_color the result color
 529:Drivers/lvgl/src/draw/../misc/lv_color.h ****  * @param res_opa the result opacity
 530:Drivers/lvgl/src/draw/../misc/lv_color.h ****  */
 531:Drivers/lvgl/src/draw/../misc/lv_color.h **** static inline void LV_ATTRIBUTE_FAST_MEM lv_color_mix_with_alpha(lv_color_t bg_color, lv_opa_t bg_o
 532:Drivers/lvgl/src/draw/../misc/lv_color.h ****                                                                  lv_color_t fg_color, lv_opa_t fg_o
 533:Drivers/lvgl/src/draw/../misc/lv_color.h ****                                                                  lv_color_t * res_color, lv_opa_t *
 534:Drivers/lvgl/src/draw/../misc/lv_color.h **** {
 535:Drivers/lvgl/src/draw/../misc/lv_color.h ****     /*Pick the foreground if it's fully opaque or the Background is fully transparent*/
 536:Drivers/lvgl/src/draw/../misc/lv_color.h ****     if(fg_opa >= LV_OPA_MAX || bg_opa <= LV_OPA_MIN) {
 537:Drivers/lvgl/src/draw/../misc/lv_color.h ****         res_color->full = fg_color.full;
 538:Drivers/lvgl/src/draw/../misc/lv_color.h ****         *res_opa = fg_opa;
 539:Drivers/lvgl/src/draw/../misc/lv_color.h ****     }
 540:Drivers/lvgl/src/draw/../misc/lv_color.h ****     /*Transparent foreground: use the Background*/
 541:Drivers/lvgl/src/draw/../misc/lv_color.h ****     else if(fg_opa <= LV_OPA_MIN) {
 542:Drivers/lvgl/src/draw/../misc/lv_color.h ****         res_color->full = bg_color.full;
 543:Drivers/lvgl/src/draw/../misc/lv_color.h ****         *res_opa = bg_opa;
 544:Drivers/lvgl/src/draw/../misc/lv_color.h ****     }
 545:Drivers/lvgl/src/draw/../misc/lv_color.h ****     /*Opaque background: use simple mix*/
 546:Drivers/lvgl/src/draw/../misc/lv_color.h ****     else if(bg_opa >= LV_OPA_MAX) {
 547:Drivers/lvgl/src/draw/../misc/lv_color.h ****         *res_color = lv_color_mix(fg_color, bg_color, fg_opa);
 548:Drivers/lvgl/src/draw/../misc/lv_color.h ****         *res_opa = LV_OPA_COVER;
 549:Drivers/lvgl/src/draw/../misc/lv_color.h ****     }
 550:Drivers/lvgl/src/draw/../misc/lv_color.h ****     /*Both colors have alpha. Expensive calculation need to be applied*/
 551:Drivers/lvgl/src/draw/../misc/lv_color.h ****     else {
 552:Drivers/lvgl/src/draw/../misc/lv_color.h ****         /*Save the parameters and the result. If they will be asked again don't compute again*/
 553:Drivers/lvgl/src/draw/../misc/lv_color.h ****         static lv_opa_t fg_opa_save     = 0;
 554:Drivers/lvgl/src/draw/../misc/lv_color.h ****         static lv_opa_t bg_opa_save     = 0;
 555:Drivers/lvgl/src/draw/../misc/lv_color.h ****         static lv_color_t fg_color_save = _LV_COLOR_ZERO_INITIALIZER;
 556:Drivers/lvgl/src/draw/../misc/lv_color.h ****         static lv_color_t bg_color_save = _LV_COLOR_ZERO_INITIALIZER;
 557:Drivers/lvgl/src/draw/../misc/lv_color.h ****         static lv_color_t res_color_saved = _LV_COLOR_ZERO_INITIALIZER;
 558:Drivers/lvgl/src/draw/../misc/lv_color.h ****         static lv_opa_t res_opa_saved = 0;
ARM GAS  /var/folders/0z/tsy30v1j4xl4_7kw94k978ww0000gn/T//ccpQecOs.s 			page 21


 559:Drivers/lvgl/src/draw/../misc/lv_color.h **** 
 560:Drivers/lvgl/src/draw/../misc/lv_color.h ****         if(fg_opa != fg_opa_save || bg_opa != bg_opa_save || fg_color.full != fg_color_save.full ||
 561:Drivers/lvgl/src/draw/../misc/lv_color.h ****            bg_color.full != bg_color_save.full) {
 562:Drivers/lvgl/src/draw/../misc/lv_color.h ****             fg_opa_save        = fg_opa;
 563:Drivers/lvgl/src/draw/../misc/lv_color.h ****             bg_opa_save        = bg_opa;
 564:Drivers/lvgl/src/draw/../misc/lv_color.h ****             fg_color_save.full = fg_color.full;
 565:Drivers/lvgl/src/draw/../misc/lv_color.h ****             bg_color_save.full = bg_color.full;
 566:Drivers/lvgl/src/draw/../misc/lv_color.h ****             /*Info:
 567:Drivers/lvgl/src/draw/../misc/lv_color.h ****              * https://en.wikipedia.org/wiki/Alpha_compositing#Analytical_derivation_of_the_over_op
 568:Drivers/lvgl/src/draw/../misc/lv_color.h ****             res_opa_saved = 255 - ((uint16_t)((uint16_t)(255 - fg_opa) * (255 - bg_opa)) >> 8);
 569:Drivers/lvgl/src/draw/../misc/lv_color.h ****             LV_ASSERT(res_opa_saved != 0);
 570:Drivers/lvgl/src/draw/../misc/lv_color.h ****             lv_opa_t ratio = (uint16_t)((uint16_t)fg_opa * 255) / res_opa_saved;
 571:Drivers/lvgl/src/draw/../misc/lv_color.h ****             res_color_saved = lv_color_mix(fg_color, bg_color, ratio);
 572:Drivers/lvgl/src/draw/../misc/lv_color.h **** 
 573:Drivers/lvgl/src/draw/../misc/lv_color.h ****         }
 574:Drivers/lvgl/src/draw/../misc/lv_color.h **** 
 575:Drivers/lvgl/src/draw/../misc/lv_color.h ****         res_color->full = res_color_saved.full;
 576:Drivers/lvgl/src/draw/../misc/lv_color.h ****         *res_opa = res_opa_saved;
 577:Drivers/lvgl/src/draw/../misc/lv_color.h ****     }
 578:Drivers/lvgl/src/draw/../misc/lv_color.h **** }
 579:Drivers/lvgl/src/draw/../misc/lv_color.h **** 
 580:Drivers/lvgl/src/draw/../misc/lv_color.h **** //! @endcond
 581:Drivers/lvgl/src/draw/../misc/lv_color.h **** 
 582:Drivers/lvgl/src/draw/../misc/lv_color.h **** /**
 583:Drivers/lvgl/src/draw/../misc/lv_color.h ****  * Get the brightness of a color
 584:Drivers/lvgl/src/draw/../misc/lv_color.h ****  * @param color a color
 585:Drivers/lvgl/src/draw/../misc/lv_color.h ****  * @return the brightness [0..255]
 586:Drivers/lvgl/src/draw/../misc/lv_color.h ****  */
 587:Drivers/lvgl/src/draw/../misc/lv_color.h **** static inline uint8_t lv_color_brightness(lv_color_t color)
 588:Drivers/lvgl/src/draw/../misc/lv_color.h **** {
 589:Drivers/lvgl/src/draw/../misc/lv_color.h ****     lv_color32_t c32;
 590:Drivers/lvgl/src/draw/../misc/lv_color.h ****     c32.full        = lv_color_to32(color);
 591:Drivers/lvgl/src/draw/../misc/lv_color.h ****     uint16_t bright = (uint16_t)(3u * LV_COLOR_GET_R32(c32) + LV_COLOR_GET_B32(c32) + 4u * LV_COLOR
 592:Drivers/lvgl/src/draw/../misc/lv_color.h ****     return (uint8_t)(bright >> 3);
 593:Drivers/lvgl/src/draw/../misc/lv_color.h **** }
 594:Drivers/lvgl/src/draw/../misc/lv_color.h **** 
 595:Drivers/lvgl/src/draw/../misc/lv_color.h **** static inline lv_color_t lv_color_make(uint8_t r, uint8_t g, uint8_t b)
 596:Drivers/lvgl/src/draw/../misc/lv_color.h **** {
 597:Drivers/lvgl/src/draw/../misc/lv_color.h ****     return _LV_COLOR_MAKE_TYPE_HELPER LV_COLOR_MAKE(r, g, b);
 598:Drivers/lvgl/src/draw/../misc/lv_color.h **** }
 599:Drivers/lvgl/src/draw/../misc/lv_color.h **** 
 600:Drivers/lvgl/src/draw/../misc/lv_color.h **** static inline lv_color_t lv_color_hex(uint32_t c)
 601:Drivers/lvgl/src/draw/../misc/lv_color.h **** {
 602:Drivers/lvgl/src/draw/../misc/lv_color.h **** #if LV_COLOR_DEPTH == 16
 603:Drivers/lvgl/src/draw/../misc/lv_color.h ****     lv_color_t r;
 604:Drivers/lvgl/src/draw/../misc/lv_color.h **** #if LV_COLOR_16_SWAP == 0
 605:Drivers/lvgl/src/draw/../misc/lv_color.h ****     /* Convert a 4 bytes per pixel in format ARGB32 to R5G6B5 format
 606:Drivers/lvgl/src/draw/../misc/lv_color.h ****         naive way (by calling lv_color_make with components):
 607:Drivers/lvgl/src/draw/../misc/lv_color.h ****                     r = ((c & 0xFF0000) >> 19)
 608:Drivers/lvgl/src/draw/../misc/lv_color.h ****                     g = ((c & 0xFF00) >> 10)
 609:Drivers/lvgl/src/draw/../misc/lv_color.h ****                     b = ((c & 0xFF) >> 3)
 610:Drivers/lvgl/src/draw/../misc/lv_color.h ****                     rgb565 = (r << 11) | (g << 5) | b
 611:Drivers/lvgl/src/draw/../misc/lv_color.h ****         That's 3 mask, 5 bitshift and 2 or operations
 612:Drivers/lvgl/src/draw/../misc/lv_color.h **** 
 613:Drivers/lvgl/src/draw/../misc/lv_color.h ****         A bit better:
 614:Drivers/lvgl/src/draw/../misc/lv_color.h ****                     r = ((c & 0xF80000) >> 8)
 615:Drivers/lvgl/src/draw/../misc/lv_color.h ****                     g = ((c & 0xFC00) >> 5)
ARM GAS  /var/folders/0z/tsy30v1j4xl4_7kw94k978ww0000gn/T//ccpQecOs.s 			page 22


 616:Drivers/lvgl/src/draw/../misc/lv_color.h ****                     b = ((c & 0xFF) >> 3)
 617:Drivers/lvgl/src/draw/../misc/lv_color.h ****                     rgb565 = r | g | b
 618:Drivers/lvgl/src/draw/../misc/lv_color.h ****         That's 3 mask, 3 bitshifts and 2 or operations */
 619:Drivers/lvgl/src/draw/../misc/lv_color.h ****     r.full = (uint16_t)(((c & 0xF80000) >> 8) | ((c & 0xFC00) >> 5) | ((c & 0xFF) >> 3));
 620:Drivers/lvgl/src/draw/../misc/lv_color.h **** #else
 621:Drivers/lvgl/src/draw/../misc/lv_color.h ****     /* We want: rrrr rrrr GGGg gggg bbbb bbbb => gggb bbbb rrrr rGGG */
 622:Drivers/lvgl/src/draw/../misc/lv_color.h ****     r.full = (uint16_t)(((c & 0xF80000) >> 16) | ((c & 0xFC00) >> 13) | ((c & 0x1C00) << 3) | ((c &
 623:Drivers/lvgl/src/draw/../misc/lv_color.h **** #endif
 624:Drivers/lvgl/src/draw/../misc/lv_color.h ****     return r;
 625:Drivers/lvgl/src/draw/../misc/lv_color.h **** #elif LV_COLOR_DEPTH == 32
 626:Drivers/lvgl/src/draw/../misc/lv_color.h ****     lv_color_t r;
 627:Drivers/lvgl/src/draw/../misc/lv_color.h ****     r.full = c | 0xFF000000;
 628:Drivers/lvgl/src/draw/../misc/lv_color.h ****     return r;
 629:Drivers/lvgl/src/draw/../misc/lv_color.h **** #else /*LV_COLOR_DEPTH == 8*/
 630:Drivers/lvgl/src/draw/../misc/lv_color.h ****     return lv_color_make((uint8_t)((c >> 16) & 0xFF), (uint8_t)((c >> 8) & 0xFF), (uint8_t)(c & 0xF
 631:Drivers/lvgl/src/draw/../misc/lv_color.h **** #endif
 632:Drivers/lvgl/src/draw/../misc/lv_color.h **** }
 633:Drivers/lvgl/src/draw/../misc/lv_color.h **** 
 634:Drivers/lvgl/src/draw/../misc/lv_color.h **** static inline lv_color_t lv_color_hex3(uint32_t c)
 635:Drivers/lvgl/src/draw/../misc/lv_color.h **** {
 636:Drivers/lvgl/src/draw/../misc/lv_color.h ****     return lv_color_make((uint8_t)(((c >> 4) & 0xF0) | ((c >> 8) & 0xF)), (uint8_t)((c & 0xF0) | ((
 637:Drivers/lvgl/src/draw/../misc/lv_color.h ****                          (uint8_t)((c & 0xF) | ((c & 0xF) << 4)));
 638:Drivers/lvgl/src/draw/../misc/lv_color.h **** }
 639:Drivers/lvgl/src/draw/../misc/lv_color.h **** 
 640:Drivers/lvgl/src/draw/../misc/lv_color.h **** static inline void lv_color_filter_dsc_init(lv_color_filter_dsc_t * dsc, lv_color_filter_cb_t cb)
 641:Drivers/lvgl/src/draw/../misc/lv_color.h **** {
 642:Drivers/lvgl/src/draw/../misc/lv_color.h ****     dsc->filter_cb = cb;
 643:Drivers/lvgl/src/draw/../misc/lv_color.h **** }
 644:Drivers/lvgl/src/draw/../misc/lv_color.h **** 
 645:Drivers/lvgl/src/draw/../misc/lv_color.h **** //! @cond Doxygen_Suppress
 646:Drivers/lvgl/src/draw/../misc/lv_color.h **** //!
 647:Drivers/lvgl/src/draw/../misc/lv_color.h **** void /* LV_ATTRIBUTE_FAST_MEM */ lv_color_fill(lv_color_t * buf, lv_color_t color, uint32_t px_num)
 648:Drivers/lvgl/src/draw/../misc/lv_color.h **** 
 649:Drivers/lvgl/src/draw/../misc/lv_color.h **** //! @endcond
 650:Drivers/lvgl/src/draw/../misc/lv_color.h **** lv_color_t lv_color_lighten(lv_color_t c, lv_opa_t lvl);
 651:Drivers/lvgl/src/draw/../misc/lv_color.h **** 
 652:Drivers/lvgl/src/draw/../misc/lv_color.h **** lv_color_t lv_color_darken(lv_color_t c, lv_opa_t lvl);
 653:Drivers/lvgl/src/draw/../misc/lv_color.h **** 
 654:Drivers/lvgl/src/draw/../misc/lv_color.h **** lv_color_t lv_color_change_lightness(lv_color_t c, lv_opa_t lvl);
 655:Drivers/lvgl/src/draw/../misc/lv_color.h **** 
 656:Drivers/lvgl/src/draw/../misc/lv_color.h **** /**
 657:Drivers/lvgl/src/draw/../misc/lv_color.h ****  * Convert a HSV color to RGB
 658:Drivers/lvgl/src/draw/../misc/lv_color.h ****  * @param h hue [0..359]
 659:Drivers/lvgl/src/draw/../misc/lv_color.h ****  * @param s saturation [0..100]
 660:Drivers/lvgl/src/draw/../misc/lv_color.h ****  * @param v value [0..100]
 661:Drivers/lvgl/src/draw/../misc/lv_color.h ****  * @return the given RGB color in RGB (with LV_COLOR_DEPTH depth)
 662:Drivers/lvgl/src/draw/../misc/lv_color.h ****  */
 663:Drivers/lvgl/src/draw/../misc/lv_color.h **** lv_color_t lv_color_hsv_to_rgb(uint16_t h, uint8_t s, uint8_t v);
 664:Drivers/lvgl/src/draw/../misc/lv_color.h **** 
 665:Drivers/lvgl/src/draw/../misc/lv_color.h **** /**
 666:Drivers/lvgl/src/draw/../misc/lv_color.h ****  * Convert a 32-bit RGB color to HSV
 667:Drivers/lvgl/src/draw/../misc/lv_color.h ****  * @param r8 8-bit red
 668:Drivers/lvgl/src/draw/../misc/lv_color.h ****  * @param g8 8-bit green
 669:Drivers/lvgl/src/draw/../misc/lv_color.h ****  * @param b8 8-bit blue
 670:Drivers/lvgl/src/draw/../misc/lv_color.h ****  * @return the given RGB color in HSV
 671:Drivers/lvgl/src/draw/../misc/lv_color.h ****  */
 672:Drivers/lvgl/src/draw/../misc/lv_color.h **** lv_color_hsv_t lv_color_rgb_to_hsv(uint8_t r8, uint8_t g8, uint8_t b8);
ARM GAS  /var/folders/0z/tsy30v1j4xl4_7kw94k978ww0000gn/T//ccpQecOs.s 			page 23


 673:Drivers/lvgl/src/draw/../misc/lv_color.h **** 
 674:Drivers/lvgl/src/draw/../misc/lv_color.h **** /**
 675:Drivers/lvgl/src/draw/../misc/lv_color.h ****  * Convert a color to HSV
 676:Drivers/lvgl/src/draw/../misc/lv_color.h ****  * @param color color
 677:Drivers/lvgl/src/draw/../misc/lv_color.h ****  * @return the given color in HSV
 678:Drivers/lvgl/src/draw/../misc/lv_color.h ****  */
 679:Drivers/lvgl/src/draw/../misc/lv_color.h **** lv_color_hsv_t lv_color_to_hsv(lv_color_t color);
 680:Drivers/lvgl/src/draw/../misc/lv_color.h **** 
 681:Drivers/lvgl/src/draw/../misc/lv_color.h **** /**
 682:Drivers/lvgl/src/draw/../misc/lv_color.h ****  * Just a wrapper around LV_COLOR_CHROMA_KEY because it might be more convenient to use a function 
 683:Drivers/lvgl/src/draw/../misc/lv_color.h ****  * @return LV_COLOR_CHROMA_KEY
 684:Drivers/lvgl/src/draw/../misc/lv_color.h ****  */
 685:Drivers/lvgl/src/draw/../misc/lv_color.h **** static inline lv_color_t lv_color_chroma_key(void)
 686:Drivers/lvgl/src/draw/../misc/lv_color.h **** {
 687:Drivers/lvgl/src/draw/../misc/lv_color.h ****     return LV_COLOR_CHROMA_KEY;
 688:Drivers/lvgl/src/draw/../misc/lv_color.h **** }
 689:Drivers/lvgl/src/draw/../misc/lv_color.h **** 
 690:Drivers/lvgl/src/draw/../misc/lv_color.h **** /**********************
 691:Drivers/lvgl/src/draw/../misc/lv_color.h ****  *  PREDEFINED COLORS
 692:Drivers/lvgl/src/draw/../misc/lv_color.h ****  **********************/
 693:Drivers/lvgl/src/draw/../misc/lv_color.h **** /*Source: https://vuetifyjs.com/en/styles/colors/#material-colors*/
 694:Drivers/lvgl/src/draw/../misc/lv_color.h **** 
 695:Drivers/lvgl/src/draw/../misc/lv_color.h **** lv_color_t lv_palette_main(lv_palette_t p);
 696:Drivers/lvgl/src/draw/../misc/lv_color.h **** static inline lv_color_t lv_color_white(void)
 697:Drivers/lvgl/src/draw/../misc/lv_color.h **** {
 698:Drivers/lvgl/src/draw/../misc/lv_color.h ****     return lv_color_make(0xff, 0xff, 0xff);
 699:Drivers/lvgl/src/draw/../misc/lv_color.h **** }
 700:Drivers/lvgl/src/draw/../misc/lv_color.h **** static inline lv_color_t lv_color_black(void)
 158              		.loc 2 700 26 view .LVU42
 701:Drivers/lvgl/src/draw/../misc/lv_color.h **** {
 702:Drivers/lvgl/src/draw/../misc/lv_color.h ****     return lv_color_make(0x00, 0x0, 0x00);
 159              		.loc 2 702 5 view .LVU43
 160              	.LVL13:
 161              	.LBB47:
 162              	.LBI47:
 595:Drivers/lvgl/src/draw/../misc/lv_color.h **** {
 163              		.loc 2 595 26 view .LVU44
 164              	.LBB48:
 597:Drivers/lvgl/src/draw/../misc/lv_color.h **** }
 165              		.loc 2 597 5 view .LVU45
 597:Drivers/lvgl/src/draw/../misc/lv_color.h **** }
 166              		.loc 2 597 12 is_stmt 0 view .LVU46
 167 000e 4FF00003 		mov	r3, #0	@ movhi
 168              	.LVL14:
 597:Drivers/lvgl/src/draw/../misc/lv_color.h **** }
 169              		.loc 2 597 12 view .LVU47
 170              	.LBE48:
 171              	.LBE47:
 172              	.LBE46:
  59:Drivers/lvgl/src/draw/lv_draw_label.c ****     dsc->font = LV_FONT_DEFAULT;
 173              		.loc 1 59 18 view .LVU48
 174 0012 A381     		strh	r3, [r4, #12]	@ movhi
  60:Drivers/lvgl/src/draw/lv_draw_label.c ****     dsc->sel_start = LV_DRAW_LABEL_NO_TXT_SEL;
 175              		.loc 1 60 5 is_stmt 1 view .LVU49
  60:Drivers/lvgl/src/draw/lv_draw_label.c ****     dsc->sel_start = LV_DRAW_LABEL_NO_TXT_SEL;
 176              		.loc 1 60 15 is_stmt 0 view .LVU50
 177 0014 074B     		ldr	r3, .L14
ARM GAS  /var/folders/0z/tsy30v1j4xl4_7kw94k978ww0000gn/T//ccpQecOs.s 			page 24


 178 0016 2360     		str	r3, [r4]
  61:Drivers/lvgl/src/draw/lv_draw_label.c ****     dsc->sel_end = LV_DRAW_LABEL_NO_TXT_SEL;
 179              		.loc 1 61 5 is_stmt 1 view .LVU51
  61:Drivers/lvgl/src/draw/lv_draw_label.c ****     dsc->sel_end = LV_DRAW_LABEL_NO_TXT_SEL;
 180              		.loc 1 61 20 is_stmt 0 view .LVU52
 181 0018 4FF6FF73 		movw	r3, #65535
 182 001c 6360     		str	r3, [r4, #4]
  62:Drivers/lvgl/src/draw/lv_draw_label.c ****     dsc->sel_color = lv_color_black();
 183              		.loc 1 62 5 is_stmt 1 view .LVU53
  62:Drivers/lvgl/src/draw/lv_draw_label.c ****     dsc->sel_color = lv_color_black();
 184              		.loc 1 62 18 is_stmt 0 view .LVU54
 185 001e A360     		str	r3, [r4, #8]
  63:Drivers/lvgl/src/draw/lv_draw_label.c ****     dsc->sel_bg_color = lv_palette_main(LV_PALETTE_BLUE);
 186              		.loc 1 63 5 is_stmt 1 view .LVU55
 187              	.LBB49:
 188              	.LBI49:
 700:Drivers/lvgl/src/draw/../misc/lv_color.h **** {
 189              		.loc 2 700 26 view .LVU56
 190              		.loc 2 702 5 view .LVU57
 191              	.LVL15:
 192              	.LBB50:
 193              	.LBI50:
 595:Drivers/lvgl/src/draw/../misc/lv_color.h **** {
 194              		.loc 2 595 26 view .LVU58
 195              	.LBB51:
 597:Drivers/lvgl/src/draw/../misc/lv_color.h **** }
 196              		.loc 2 597 5 view .LVU59
 597:Drivers/lvgl/src/draw/../misc/lv_color.h **** }
 197              		.loc 2 597 12 is_stmt 0 view .LVU60
 198 0020 4FF00003 		mov	r3, #0	@ movhi
 199              	.LVL16:
 597:Drivers/lvgl/src/draw/../misc/lv_color.h **** }
 200              		.loc 2 597 12 view .LVU61
 201              	.LBE51:
 202              	.LBE50:
 203              	.LBE49:
  63:Drivers/lvgl/src/draw/lv_draw_label.c ****     dsc->sel_bg_color = lv_palette_main(LV_PALETTE_BLUE);
 204              		.loc 1 63 22 view .LVU62
 205 0024 E381     		strh	r3, [r4, #14]	@ movhi
  64:Drivers/lvgl/src/draw/lv_draw_label.c ****     dsc->bidi_dir = LV_BASE_DIR_LTR;
 206              		.loc 1 64 5 is_stmt 1 view .LVU63
  64:Drivers/lvgl/src/draw/lv_draw_label.c ****     dsc->bidi_dir = LV_BASE_DIR_LTR;
 207              		.loc 1 64 25 is_stmt 0 view .LVU64
 208 0026 0520     		movs	r0, #5
 209 0028 FFF7FEFF 		bl	lv_palette_main
 210              	.LVL17:
 211 002c 2082     		strh	r0, [r4, #16]	@ movhi
  65:Drivers/lvgl/src/draw/lv_draw_label.c **** }
 212              		.loc 1 65 5 is_stmt 1 view .LVU65
  65:Drivers/lvgl/src/draw/lv_draw_label.c **** }
 213              		.loc 1 65 19 is_stmt 0 view .LVU66
 214 002e 0023     		movs	r3, #0
 215 0030 E376     		strb	r3, [r4, #27]
  66:Drivers/lvgl/src/draw/lv_draw_label.c **** 
 216              		.loc 1 66 1 view .LVU67
 217 0032 10BD     		pop	{r4, pc}
 218              	.LVL18:
ARM GAS  /var/folders/0z/tsy30v1j4xl4_7kw94k978ww0000gn/T//ccpQecOs.s 			page 25


 219              	.L15:
  66:Drivers/lvgl/src/draw/lv_draw_label.c **** 
 220              		.loc 1 66 1 view .LVU68
 221              		.align	2
 222              	.L14:
 223 0034 00000000 		.word	lv_font_montserrat_14
 224              		.cfi_endproc
 225              	.LFE161:
 227              		.section	.text.lv_draw_letter,"ax",%progbits
 228              		.align	1
 229              		.global	lv_draw_letter
 230              		.syntax unified
 231              		.thumb
 232              		.thumb_func
 234              	lv_draw_letter:
 235              	.LVL19:
 236              	.LFB163:
 366:Drivers/lvgl/src/draw/lv_draw_label.c ****     draw_ctx->draw_letter(draw_ctx, dsc, pos_p, letter);
 237              		.loc 1 366 1 is_stmt 1 view -0
 238              		.cfi_startproc
 239              		@ args = 0, pretend = 0, frame = 0
 240              		@ frame_needed = 0, uses_anonymous_args = 0
 366:Drivers/lvgl/src/draw/lv_draw_label.c ****     draw_ctx->draw_letter(draw_ctx, dsc, pos_p, letter);
 241              		.loc 1 366 1 is_stmt 0 view .LVU70
 242 0000 10B5     		push	{r4, lr}
 243              		.cfi_def_cfa_offset 8
 244              		.cfi_offset 4, -8
 245              		.cfi_offset 14, -4
 367:Drivers/lvgl/src/draw/lv_draw_label.c **** }
 246              		.loc 1 367 5 is_stmt 1 view .LVU71
 367:Drivers/lvgl/src/draw/lv_draw_label.c **** }
 247              		.loc 1 367 13 is_stmt 0 view .LVU72
 248 0002 046A     		ldr	r4, [r0, #32]
 367:Drivers/lvgl/src/draw/lv_draw_label.c **** }
 249              		.loc 1 367 5 view .LVU73
 250 0004 A047     		blx	r4
 251              	.LVL20:
 368:Drivers/lvgl/src/draw/lv_draw_label.c **** 
 252              		.loc 1 368 1 view .LVU74
 253 0006 10BD     		pop	{r4, pc}
 254              		.cfi_endproc
 255              	.LFE163:
 257              		.section	.text.lv_draw_label,"ax",%progbits
 258              		.align	1
 259              		.global	lv_draw_label
 260              		.syntax unified
 261              		.thumb
 262              		.thumb_func
 264              	lv_draw_label:
 265              	.LVL21:
 266              	.LFB162:
  79:Drivers/lvgl/src/draw/lv_draw_label.c ****     if(dsc->opa <= LV_OPA_MIN) return;
 267              		.loc 1 79 1 is_stmt 1 view -0
 268              		.cfi_startproc
 269              		@ args = 4, pretend = 0, frame = 192
 270              		@ frame_needed = 0, uses_anonymous_args = 0
  79:Drivers/lvgl/src/draw/lv_draw_label.c ****     if(dsc->opa <= LV_OPA_MIN) return;
ARM GAS  /var/folders/0z/tsy30v1j4xl4_7kw94k978ww0000gn/T//ccpQecOs.s 			page 26


 271              		.loc 1 79 1 is_stmt 0 view .LVU76
 272 0000 2DE9F04F 		push	{r4, r5, r6, r7, r8, r9, r10, fp, lr}
 273              		.cfi_def_cfa_offset 36
 274              		.cfi_offset 4, -36
 275              		.cfi_offset 5, -32
 276              		.cfi_offset 6, -28
 277              		.cfi_offset 7, -24
 278              		.cfi_offset 8, -20
 279              		.cfi_offset 9, -16
 280              		.cfi_offset 10, -12
 281              		.cfi_offset 11, -8
 282              		.cfi_offset 14, -4
 283 0004 B5B0     		sub	sp, sp, #212
 284              		.cfi_def_cfa_offset 248
 285 0006 0992     		str	r2, [sp, #36]
 286 0008 9C46     		mov	ip, r3
 287 000a 0893     		str	r3, [sp, #32]
 288 000c 3E9C     		ldr	r4, [sp, #248]
  80:Drivers/lvgl/src/draw/lv_draw_label.c ****     if(dsc->font == NULL) {
 289              		.loc 1 80 5 is_stmt 1 view .LVU77
  80:Drivers/lvgl/src/draw/lv_draw_label.c ****     if(dsc->font == NULL) {
 290              		.loc 1 80 11 is_stmt 0 view .LVU78
 291 000e 8B7E     		ldrb	r3, [r1, #26]	@ zero_extendqisi2
 292              	.LVL22:
  80:Drivers/lvgl/src/draw/lv_draw_label.c ****     if(dsc->font == NULL) {
 293              		.loc 1 80 7 view .LVU79
 294 0010 022B     		cmp	r3, #2
 295 0012 15D9     		bls	.L18
 296 0014 8146     		mov	r9, r0
 297 0016 0D46     		mov	r5, r1
 298 0018 9646     		mov	lr, r2
  81:Drivers/lvgl/src/draw/lv_draw_label.c ****         LV_LOG_WARN("dsc->font == NULL");
 299              		.loc 1 81 5 is_stmt 1 view .LVU80
  81:Drivers/lvgl/src/draw/lv_draw_label.c ****         LV_LOG_WARN("dsc->font == NULL");
 300              		.loc 1 81 11 is_stmt 0 view .LVU81
 301 001a 0B68     		ldr	r3, [r1]
  81:Drivers/lvgl/src/draw/lv_draw_label.c ****         LV_LOG_WARN("dsc->font == NULL");
 302              		.loc 1 81 7 view .LVU82
 303 001c 83B1     		cbz	r3, .L18
  86:Drivers/lvgl/src/draw/lv_draw_label.c ****         LV_LOG_WARN("draw->draw_letter == NULL (there is no function to draw letters)");
 304              		.loc 1 86 5 is_stmt 1 view .LVU83
  86:Drivers/lvgl/src/draw/lv_draw_label.c ****         LV_LOG_WARN("draw->draw_letter == NULL (there is no function to draw letters)");
 305              		.loc 1 86 16 is_stmt 0 view .LVU84
 306 001e 036A     		ldr	r3, [r0, #32]
  86:Drivers/lvgl/src/draw/lv_draw_label.c ****         LV_LOG_WARN("draw->draw_letter == NULL (there is no function to draw letters)");
 307              		.loc 1 86 7 view .LVU85
 308 0020 73B1     		cbz	r3, .L18
  91:Drivers/lvgl/src/draw/lv_draw_label.c **** 
 309              		.loc 1 91 5 is_stmt 1 view .LVU86
  91:Drivers/lvgl/src/draw/lv_draw_label.c **** 
 310              		.loc 1 91 25 is_stmt 0 view .LVU87
 311 0022 2CAE     		add	r6, sp, #176
 312 0024 0F46     		mov	r7, r1
 313 0026 0FCF     		ldmia	r7!, {r0, r1, r2, r3}
 314              	.LVL23:
  91:Drivers/lvgl/src/draw/lv_draw_label.c **** 
 315              		.loc 1 91 25 view .LVU88
ARM GAS  /var/folders/0z/tsy30v1j4xl4_7kw94k978ww0000gn/T//ccpQecOs.s 			page 27


 316 0028 0FC6     		stmia	r6!, {r0, r1, r2, r3}
 317 002a 97E80F00 		ldm	r7, {r0, r1, r2, r3}
 318 002e 86E80F00 		stm	r6, {r0, r1, r2, r3}
  93:Drivers/lvgl/src/draw/lv_draw_label.c ****     int32_t w;
 319              		.loc 1 93 5 is_stmt 1 view .LVU89
  93:Drivers/lvgl/src/draw/lv_draw_label.c ****     int32_t w;
 320              		.loc 1 93 23 is_stmt 0 view .LVU90
 321 0032 2868     		ldr	r0, [r5]
 322 0034 0490     		str	r0, [sp, #16]
 323              	.LVL24:
  94:Drivers/lvgl/src/draw/lv_draw_label.c **** 
 324              		.loc 1 94 5 is_stmt 1 view .LVU91
  97:Drivers/lvgl/src/draw/lv_draw_label.c ****         return;
 325              		.loc 1 97 5 view .LVU92
  97:Drivers/lvgl/src/draw/lv_draw_label.c ****         return;
 326              		.loc 1 97 7 is_stmt 0 view .LVU93
 327 0036 6346     		mov	r3, ip
 328 0038 13B1     		cbz	r3, .L18
  97:Drivers/lvgl/src/draw/lv_draw_label.c ****         return;
 329              		.loc 1 97 26 discriminator 1 view .LVU94
 330 003a 9CF80030 		ldrb	r3, [ip]	@ zero_extendqisi2
  97:Drivers/lvgl/src/draw/lv_draw_label.c ****         return;
 331              		.loc 1 97 20 discriminator 1 view .LVU95
 332 003e 13B9     		cbnz	r3, .L68
 333              	.LVL25:
 334              	.L18:
 362:Drivers/lvgl/src/draw/lv_draw_label.c **** 
 335              		.loc 1 362 1 view .LVU96
 336 0040 35B0     		add	sp, sp, #212
 337              		.cfi_remember_state
 338              		.cfi_def_cfa_offset 36
 339              		@ sp needed
 340 0042 BDE8F08F 		pop	{r4, r5, r6, r7, r8, r9, r10, fp, pc}
 341              	.LVL26:
 342              	.L68:
 343              		.cfi_restore_state
 100:Drivers/lvgl/src/draw/lv_draw_label.c ****     bool clip_ok = _lv_area_intersect(&clipped_area, coords, draw_ctx->clip_area);
 344              		.loc 1 100 5 is_stmt 1 view .LVU97
 101:Drivers/lvgl/src/draw/lv_draw_label.c ****     if(!clip_ok) return;
 345              		.loc 1 101 5 view .LVU98
 101:Drivers/lvgl/src/draw/lv_draw_label.c ****     if(!clip_ok) return;
 346              		.loc 1 101 20 is_stmt 0 view .LVU99
 347 0046 D9F80820 		ldr	r2, [r9, #8]
 348 004a 7146     		mov	r1, lr
 349 004c 2AA8     		add	r0, sp, #168
 350              	.LVL27:
 101:Drivers/lvgl/src/draw/lv_draw_label.c ****     if(!clip_ok) return;
 351              		.loc 1 101 20 view .LVU100
 352 004e FFF7FEFF 		bl	_lv_area_intersect
 353              	.LVL28:
 102:Drivers/lvgl/src/draw/lv_draw_label.c **** 
 354              		.loc 1 102 5 is_stmt 1 view .LVU101
 102:Drivers/lvgl/src/draw/lv_draw_label.c **** 
 355              		.loc 1 102 7 is_stmt 0 view .LVU102
 356 0052 0028     		cmp	r0, #0
 357 0054 F4D0     		beq	.L18
 104:Drivers/lvgl/src/draw/lv_draw_label.c ****     lv_base_dir_t base_dir = dsc->bidi_dir;
ARM GAS  /var/folders/0z/tsy30v1j4xl4_7kw94k978ww0000gn/T//ccpQecOs.s 			page 28


 358              		.loc 1 104 5 is_stmt 1 view .LVU103
 104:Drivers/lvgl/src/draw/lv_draw_label.c ****     lv_base_dir_t base_dir = dsc->bidi_dir;
 359              		.loc 1 104 32 is_stmt 0 view .LVU104
 360 0056 2B7F     		ldrb	r3, [r5, #28]	@ zero_extendqisi2
 361 0058 0C93     		str	r3, [sp, #48]
 362              	.LVL29:
 105:Drivers/lvgl/src/draw/lv_draw_label.c **** 
 363              		.loc 1 105 5 is_stmt 1 view .LVU105
 107:Drivers/lvgl/src/draw/lv_draw_label.c **** 
 364              		.loc 1 107 5 view .LVU106
 365              	.LBB52:
 366              	.LBI52:
 367              		.file 3 "Drivers/lvgl/src/draw/../misc/lv_bidi.h"
   1:Drivers/lvgl/src/draw/../misc/lv_bidi.h **** /**
   2:Drivers/lvgl/src/draw/../misc/lv_bidi.h ****  * @file lv_bidi.h
   3:Drivers/lvgl/src/draw/../misc/lv_bidi.h ****  *
   4:Drivers/lvgl/src/draw/../misc/lv_bidi.h ****  */
   5:Drivers/lvgl/src/draw/../misc/lv_bidi.h **** 
   6:Drivers/lvgl/src/draw/../misc/lv_bidi.h **** #ifndef LV_BIDI_H
   7:Drivers/lvgl/src/draw/../misc/lv_bidi.h **** #define LV_BIDI_H
   8:Drivers/lvgl/src/draw/../misc/lv_bidi.h **** 
   9:Drivers/lvgl/src/draw/../misc/lv_bidi.h **** #ifdef __cplusplus
  10:Drivers/lvgl/src/draw/../misc/lv_bidi.h **** extern "C" {
  11:Drivers/lvgl/src/draw/../misc/lv_bidi.h **** #endif
  12:Drivers/lvgl/src/draw/../misc/lv_bidi.h **** 
  13:Drivers/lvgl/src/draw/../misc/lv_bidi.h **** /*********************
  14:Drivers/lvgl/src/draw/../misc/lv_bidi.h ****  *      INCLUDES
  15:Drivers/lvgl/src/draw/../misc/lv_bidi.h ****  *********************/
  16:Drivers/lvgl/src/draw/../misc/lv_bidi.h **** #include "../lv_conf_internal.h"
  17:Drivers/lvgl/src/draw/../misc/lv_bidi.h **** 
  18:Drivers/lvgl/src/draw/../misc/lv_bidi.h **** #include <stdbool.h>
  19:Drivers/lvgl/src/draw/../misc/lv_bidi.h **** #include <stdint.h>
  20:Drivers/lvgl/src/draw/../misc/lv_bidi.h **** #include "lv_txt.h"
  21:Drivers/lvgl/src/draw/../misc/lv_bidi.h **** 
  22:Drivers/lvgl/src/draw/../misc/lv_bidi.h **** /*********************
  23:Drivers/lvgl/src/draw/../misc/lv_bidi.h ****  *      DEFINES
  24:Drivers/lvgl/src/draw/../misc/lv_bidi.h ****  *********************/
  25:Drivers/lvgl/src/draw/../misc/lv_bidi.h **** /*Special non printable strong characters.
  26:Drivers/lvgl/src/draw/../misc/lv_bidi.h ****  *They can be inserted to texts to affect the run's direction*/
  27:Drivers/lvgl/src/draw/../misc/lv_bidi.h **** #define LV_BIDI_LRO  "\xE2\x80\xAD" /*U+202D*/
  28:Drivers/lvgl/src/draw/../misc/lv_bidi.h **** #define LV_BIDI_RLO  "\xE2\x80\xAE" /*U+202E*/
  29:Drivers/lvgl/src/draw/../misc/lv_bidi.h **** 
  30:Drivers/lvgl/src/draw/../misc/lv_bidi.h **** /**********************
  31:Drivers/lvgl/src/draw/../misc/lv_bidi.h ****  *      TYPEDEFS
  32:Drivers/lvgl/src/draw/../misc/lv_bidi.h ****  **********************/
  33:Drivers/lvgl/src/draw/../misc/lv_bidi.h **** enum {
  34:Drivers/lvgl/src/draw/../misc/lv_bidi.h ****     LV_BASE_DIR_LTR      = 0x00,
  35:Drivers/lvgl/src/draw/../misc/lv_bidi.h ****     LV_BASE_DIR_RTL      = 0x01,
  36:Drivers/lvgl/src/draw/../misc/lv_bidi.h ****     LV_BASE_DIR_AUTO     = 0x02,
  37:Drivers/lvgl/src/draw/../misc/lv_bidi.h **** 
  38:Drivers/lvgl/src/draw/../misc/lv_bidi.h ****     LV_BASE_DIR_NEUTRAL  = 0x20,
  39:Drivers/lvgl/src/draw/../misc/lv_bidi.h ****     LV_BASE_DIR_WEAK     = 0x21,
  40:Drivers/lvgl/src/draw/../misc/lv_bidi.h **** };
  41:Drivers/lvgl/src/draw/../misc/lv_bidi.h **** 
  42:Drivers/lvgl/src/draw/../misc/lv_bidi.h **** typedef uint8_t lv_base_dir_t;
  43:Drivers/lvgl/src/draw/../misc/lv_bidi.h **** 
  44:Drivers/lvgl/src/draw/../misc/lv_bidi.h **** /**********************
ARM GAS  /var/folders/0z/tsy30v1j4xl4_7kw94k978ww0000gn/T//ccpQecOs.s 			page 29


  45:Drivers/lvgl/src/draw/../misc/lv_bidi.h ****  * GLOBAL PROTOTYPES
  46:Drivers/lvgl/src/draw/../misc/lv_bidi.h ****  **********************/
  47:Drivers/lvgl/src/draw/../misc/lv_bidi.h **** #if LV_USE_BIDI
  48:Drivers/lvgl/src/draw/../misc/lv_bidi.h **** 
  49:Drivers/lvgl/src/draw/../misc/lv_bidi.h **** /**
  50:Drivers/lvgl/src/draw/../misc/lv_bidi.h ****  * Convert a text to get the characters in the correct visual order according to
  51:Drivers/lvgl/src/draw/../misc/lv_bidi.h ****  * Unicode Bidirectional Algorithm
  52:Drivers/lvgl/src/draw/../misc/lv_bidi.h ****  * @param str_in the text to process
  53:Drivers/lvgl/src/draw/../misc/lv_bidi.h ****  * @param str_out store the result here. Has the be `strlen(str_in)` length
  54:Drivers/lvgl/src/draw/../misc/lv_bidi.h ****  * @param base_dir `LV_BASE_DIR_LTR` or `LV_BASE_DIR_RTL`
  55:Drivers/lvgl/src/draw/../misc/lv_bidi.h ****  */
  56:Drivers/lvgl/src/draw/../misc/lv_bidi.h **** void _lv_bidi_process(const char * str_in, char * str_out, lv_base_dir_t base_dir);
  57:Drivers/lvgl/src/draw/../misc/lv_bidi.h **** 
  58:Drivers/lvgl/src/draw/../misc/lv_bidi.h **** /**
  59:Drivers/lvgl/src/draw/../misc/lv_bidi.h ****  * Auto-detect the direction of a text based on the first strong character
  60:Drivers/lvgl/src/draw/../misc/lv_bidi.h ****  * @param txt the text to process
  61:Drivers/lvgl/src/draw/../misc/lv_bidi.h ****  * @return `LV_BASE_DIR_LTR` or `LV_BASE_DIR_RTL`
  62:Drivers/lvgl/src/draw/../misc/lv_bidi.h ****  */
  63:Drivers/lvgl/src/draw/../misc/lv_bidi.h **** lv_base_dir_t _lv_bidi_detect_base_dir(const char * txt);
  64:Drivers/lvgl/src/draw/../misc/lv_bidi.h **** 
  65:Drivers/lvgl/src/draw/../misc/lv_bidi.h **** /**
  66:Drivers/lvgl/src/draw/../misc/lv_bidi.h ****  * Get the logical position of a character in a line
  67:Drivers/lvgl/src/draw/../misc/lv_bidi.h ****  * @param str_in the input string. Can be only one line.
  68:Drivers/lvgl/src/draw/../misc/lv_bidi.h ****  * @param bidi_txt internally the text is bidi processed which buffer can be get here.
  69:Drivers/lvgl/src/draw/../misc/lv_bidi.h ****  * If not required anymore has to freed with `lv_mem_free()`
  70:Drivers/lvgl/src/draw/../misc/lv_bidi.h ****  * Can be `NULL` is unused
  71:Drivers/lvgl/src/draw/../misc/lv_bidi.h ****  * @param len length of the line in character count
  72:Drivers/lvgl/src/draw/../misc/lv_bidi.h ****  * @param base_dir base direction of the text: `LV_BASE_DIR_LTR` or `LV_BASE_DIR_RTL`
  73:Drivers/lvgl/src/draw/../misc/lv_bidi.h ****  * @param visual_pos the visual character position which logical position should be get
  74:Drivers/lvgl/src/draw/../misc/lv_bidi.h ****  * @param is_rtl tell the char at `visual_pos` is RTL or LTR context
  75:Drivers/lvgl/src/draw/../misc/lv_bidi.h ****  * @return the logical character position
  76:Drivers/lvgl/src/draw/../misc/lv_bidi.h ****  */
  77:Drivers/lvgl/src/draw/../misc/lv_bidi.h **** uint16_t _lv_bidi_get_logical_pos(const char * str_in, char ** bidi_txt, uint32_t len, lv_base_dir_
  78:Drivers/lvgl/src/draw/../misc/lv_bidi.h ****                                   uint32_t visual_pos, bool * is_rtl);
  79:Drivers/lvgl/src/draw/../misc/lv_bidi.h **** 
  80:Drivers/lvgl/src/draw/../misc/lv_bidi.h **** /**
  81:Drivers/lvgl/src/draw/../misc/lv_bidi.h ****  * Get the visual position of a character in a line
  82:Drivers/lvgl/src/draw/../misc/lv_bidi.h ****  * @param str_in the input string. Can be only one line.
  83:Drivers/lvgl/src/draw/../misc/lv_bidi.h ****  * @param bidi_txt internally the text is bidi processed which buffer can be get here.
  84:Drivers/lvgl/src/draw/../misc/lv_bidi.h ****  * If not required anymore has to freed with `lv_mem_free()`
  85:Drivers/lvgl/src/draw/../misc/lv_bidi.h ****  * Can be `NULL` is unused
  86:Drivers/lvgl/src/draw/../misc/lv_bidi.h ****  * @param len length of the line in character count
  87:Drivers/lvgl/src/draw/../misc/lv_bidi.h ****  * @param base_dir base direction of the text: `LV_BASE_DIR_LTR` or `LV_BASE_DIR_RTL`
  88:Drivers/lvgl/src/draw/../misc/lv_bidi.h ****  * @param logical_pos the logical character position which visual position should be get
  89:Drivers/lvgl/src/draw/../misc/lv_bidi.h ****  * @param is_rtl tell the char at `logical_pos` is RTL or LTR context
  90:Drivers/lvgl/src/draw/../misc/lv_bidi.h ****  * @return the visual character position
  91:Drivers/lvgl/src/draw/../misc/lv_bidi.h ****  */
  92:Drivers/lvgl/src/draw/../misc/lv_bidi.h **** uint16_t _lv_bidi_get_visual_pos(const char * str_in, char ** bidi_txt, uint16_t len, lv_base_dir_t
  93:Drivers/lvgl/src/draw/../misc/lv_bidi.h ****                                  uint32_t logical_pos, bool * is_rtl);
  94:Drivers/lvgl/src/draw/../misc/lv_bidi.h **** 
  95:Drivers/lvgl/src/draw/../misc/lv_bidi.h **** /**
  96:Drivers/lvgl/src/draw/../misc/lv_bidi.h ****  * Bidi process a paragraph of text
  97:Drivers/lvgl/src/draw/../misc/lv_bidi.h ****  * @param str_in the string to process
  98:Drivers/lvgl/src/draw/../misc/lv_bidi.h ****  * @param str_out store the result here
  99:Drivers/lvgl/src/draw/../misc/lv_bidi.h ****  * @param len length of the text
 100:Drivers/lvgl/src/draw/../misc/lv_bidi.h ****  * @param base_dir base dir of the text
 101:Drivers/lvgl/src/draw/../misc/lv_bidi.h ****  * @param pos_conv_out an `uint16_t` array to store the related logical position of the character.
ARM GAS  /var/folders/0z/tsy30v1j4xl4_7kw94k978ww0000gn/T//ccpQecOs.s 			page 30


 102:Drivers/lvgl/src/draw/../misc/lv_bidi.h ****  * Can be `NULL` is unused
 103:Drivers/lvgl/src/draw/../misc/lv_bidi.h ****  * @param pos_conv_len length of `pos_conv_out` in element count
 104:Drivers/lvgl/src/draw/../misc/lv_bidi.h ****  */
 105:Drivers/lvgl/src/draw/../misc/lv_bidi.h **** void _lv_bidi_process_paragraph(const char * str_in, char * str_out, uint32_t len, lv_base_dir_t ba
 106:Drivers/lvgl/src/draw/../misc/lv_bidi.h ****                                 uint16_t * pos_conv_out, uint16_t pos_conv_len);
 107:Drivers/lvgl/src/draw/../misc/lv_bidi.h **** 
 108:Drivers/lvgl/src/draw/../misc/lv_bidi.h **** /**
 109:Drivers/lvgl/src/draw/../misc/lv_bidi.h ****  * Get the real text alignment from the a text alignment, base direction and a text.
 110:Drivers/lvgl/src/draw/../misc/lv_bidi.h ****  * @param align     LV_TEXT_ALIGN_..., write back the calculated align here (LV_TEXT_ALIGN_LEFT/RIG
 111:Drivers/lvgl/src/draw/../misc/lv_bidi.h ****  * @param base_dir  LV_BASE_DIR_..., write the calculated base dir here (LV_BASE_DIR_LTR/RTL)
 112:Drivers/lvgl/src/draw/../misc/lv_bidi.h ****  * @param txt       a text, used with LV_BASE_DIR_AUTO to determine the base direction
 113:Drivers/lvgl/src/draw/../misc/lv_bidi.h ****  */
 114:Drivers/lvgl/src/draw/../misc/lv_bidi.h **** void lv_bidi_calculate_align(lv_text_align_t * align, lv_base_dir_t * base_dir, const char * txt);
 115:Drivers/lvgl/src/draw/../misc/lv_bidi.h **** 
 116:Drivers/lvgl/src/draw/../misc/lv_bidi.h **** 
 117:Drivers/lvgl/src/draw/../misc/lv_bidi.h **** /**********************
 118:Drivers/lvgl/src/draw/../misc/lv_bidi.h ****  *      MACROS
 119:Drivers/lvgl/src/draw/../misc/lv_bidi.h ****  **********************/
 120:Drivers/lvgl/src/draw/../misc/lv_bidi.h **** 
 121:Drivers/lvgl/src/draw/../misc/lv_bidi.h **** #else /*LV_USE_BIDI*/
 122:Drivers/lvgl/src/draw/../misc/lv_bidi.h **** /**
 123:Drivers/lvgl/src/draw/../misc/lv_bidi.h ****  * For compatibility if LV_USE_BIDI = 0
 124:Drivers/lvgl/src/draw/../misc/lv_bidi.h ****  * Get the real text alignment from the a text alignment, base direction and a text.
 125:Drivers/lvgl/src/draw/../misc/lv_bidi.h ****  * @param align     For LV_TEXT_ALIGN_AUTO give LV_TEXT_ALIGN_LEFT else leave unchanged, write back
 126:Drivers/lvgl/src/draw/../misc/lv_bidi.h ****  * @param base_dir  Unused
 127:Drivers/lvgl/src/draw/../misc/lv_bidi.h ****  * @param txt       Unused
 128:Drivers/lvgl/src/draw/../misc/lv_bidi.h ****  */
 129:Drivers/lvgl/src/draw/../misc/lv_bidi.h **** static inline void lv_bidi_calculate_align(lv_text_align_t * align, lv_base_dir_t * base_dir, const
 368              		.loc 3 129 20 view .LVU107
 369              	.LBB53:
 130:Drivers/lvgl/src/draw/../misc/lv_bidi.h **** {
 131:Drivers/lvgl/src/draw/../misc/lv_bidi.h ****     LV_UNUSED(txt);
 370              		.loc 3 131 5 view .LVU108
 132:Drivers/lvgl/src/draw/../misc/lv_bidi.h ****     LV_UNUSED(base_dir);
 371              		.loc 3 132 5 view .LVU109
 133:Drivers/lvgl/src/draw/../misc/lv_bidi.h ****     if(*align == LV_TEXT_ALIGN_AUTO) * align = LV_TEXT_ALIGN_LEFT;
 372              		.loc 3 133 5 view .LVU110
 373              		.loc 3 133 7 is_stmt 0 view .LVU111
 374 005a 0BB9     		cbnz	r3, .L20
 375              		.loc 3 133 46 view .LVU112
 376 005c 0123     		movs	r3, #1
 377              	.LVL30:
 378              		.loc 3 133 46 view .LVU113
 379 005e 0C93     		str	r3, [sp, #48]
 380              	.LVL31:
 381              	.L20:
 382              		.loc 3 133 46 view .LVU114
 383              	.LBE53:
 384              	.LBE52:
 109:Drivers/lvgl/src/draw/lv_draw_label.c ****         /*Normally use the label's width as width*/
 385              		.loc 1 109 5 is_stmt 1 view .LVU115
 109:Drivers/lvgl/src/draw/lv_draw_label.c ****         /*Normally use the label's width as width*/
 386              		.loc 1 109 12 is_stmt 0 view .LVU116
 387 0060 6B7F     		ldrb	r3, [r5, #29]	@ zero_extendqisi2
 109:Drivers/lvgl/src/draw/lv_draw_label.c ****         /*Normally use the label's width as width*/
 388              		.loc 1 109 7 view .LVU117
 389 0062 13F0020F 		tst	r3, #2
ARM GAS  /var/folders/0z/tsy30v1j4xl4_7kw94k978ww0000gn/T//ccpQecOs.s 			page 31


 390 0066 27D1     		bne	.L21
 111:Drivers/lvgl/src/draw/lv_draw_label.c ****     }
 391              		.loc 1 111 9 is_stmt 1 view .LVU118
 392              	.LVL32:
 393              	.LBB54:
 394              	.LBI54:
 395              		.file 4 "Drivers/lvgl/src/draw/../misc/../font/../misc/lv_area.h"
   1:Drivers/lvgl/src/draw/../misc/../font/../misc/lv_area.h **** /**
   2:Drivers/lvgl/src/draw/../misc/../font/../misc/lv_area.h ****  * @file lv_area.h
   3:Drivers/lvgl/src/draw/../misc/../font/../misc/lv_area.h ****  *
   4:Drivers/lvgl/src/draw/../misc/../font/../misc/lv_area.h ****  */
   5:Drivers/lvgl/src/draw/../misc/../font/../misc/lv_area.h **** 
   6:Drivers/lvgl/src/draw/../misc/../font/../misc/lv_area.h **** #ifndef LV_AREA_H
   7:Drivers/lvgl/src/draw/../misc/../font/../misc/lv_area.h **** #define LV_AREA_H
   8:Drivers/lvgl/src/draw/../misc/../font/../misc/lv_area.h **** 
   9:Drivers/lvgl/src/draw/../misc/../font/../misc/lv_area.h **** #ifdef __cplusplus
  10:Drivers/lvgl/src/draw/../misc/../font/../misc/lv_area.h **** extern "C" {
  11:Drivers/lvgl/src/draw/../misc/../font/../misc/lv_area.h **** #endif
  12:Drivers/lvgl/src/draw/../misc/../font/../misc/lv_area.h **** 
  13:Drivers/lvgl/src/draw/../misc/../font/../misc/lv_area.h **** /*********************
  14:Drivers/lvgl/src/draw/../misc/../font/../misc/lv_area.h ****  *      INCLUDES
  15:Drivers/lvgl/src/draw/../misc/../font/../misc/lv_area.h ****  *********************/
  16:Drivers/lvgl/src/draw/../misc/../font/../misc/lv_area.h **** #include "../lv_conf_internal.h"
  17:Drivers/lvgl/src/draw/../misc/../font/../misc/lv_area.h **** #include <stdbool.h>
  18:Drivers/lvgl/src/draw/../misc/../font/../misc/lv_area.h **** #include <stdint.h>
  19:Drivers/lvgl/src/draw/../misc/../font/../misc/lv_area.h **** 
  20:Drivers/lvgl/src/draw/../misc/../font/../misc/lv_area.h **** /*********************
  21:Drivers/lvgl/src/draw/../misc/../font/../misc/lv_area.h ****  *      DEFINES
  22:Drivers/lvgl/src/draw/../misc/../font/../misc/lv_area.h ****  *********************/
  23:Drivers/lvgl/src/draw/../misc/../font/../misc/lv_area.h **** 
  24:Drivers/lvgl/src/draw/../misc/../font/../misc/lv_area.h **** #if LV_USE_LARGE_COORD
  25:Drivers/lvgl/src/draw/../misc/../font/../misc/lv_area.h **** typedef int32_t lv_coord_t;
  26:Drivers/lvgl/src/draw/../misc/../font/../misc/lv_area.h **** #else
  27:Drivers/lvgl/src/draw/../misc/../font/../misc/lv_area.h **** typedef int16_t lv_coord_t;
  28:Drivers/lvgl/src/draw/../misc/../font/../misc/lv_area.h **** #endif
  29:Drivers/lvgl/src/draw/../misc/../font/../misc/lv_area.h **** 
  30:Drivers/lvgl/src/draw/../misc/../font/../misc/lv_area.h **** /**********************
  31:Drivers/lvgl/src/draw/../misc/../font/../misc/lv_area.h ****  *      TYPEDEFS
  32:Drivers/lvgl/src/draw/../misc/../font/../misc/lv_area.h ****  **********************/
  33:Drivers/lvgl/src/draw/../misc/../font/../misc/lv_area.h **** 
  34:Drivers/lvgl/src/draw/../misc/../font/../misc/lv_area.h **** /**
  35:Drivers/lvgl/src/draw/../misc/../font/../misc/lv_area.h ****  * Represents a point on the screen.
  36:Drivers/lvgl/src/draw/../misc/../font/../misc/lv_area.h ****  */
  37:Drivers/lvgl/src/draw/../misc/../font/../misc/lv_area.h **** typedef struct {
  38:Drivers/lvgl/src/draw/../misc/../font/../misc/lv_area.h ****     lv_coord_t x;
  39:Drivers/lvgl/src/draw/../misc/../font/../misc/lv_area.h ****     lv_coord_t y;
  40:Drivers/lvgl/src/draw/../misc/../font/../misc/lv_area.h **** } lv_point_t;
  41:Drivers/lvgl/src/draw/../misc/../font/../misc/lv_area.h **** 
  42:Drivers/lvgl/src/draw/../misc/../font/../misc/lv_area.h **** /** Represents an area of the screen.*/
  43:Drivers/lvgl/src/draw/../misc/../font/../misc/lv_area.h **** typedef struct {
  44:Drivers/lvgl/src/draw/../misc/../font/../misc/lv_area.h ****     lv_coord_t x1;
  45:Drivers/lvgl/src/draw/../misc/../font/../misc/lv_area.h ****     lv_coord_t y1;
  46:Drivers/lvgl/src/draw/../misc/../font/../misc/lv_area.h ****     lv_coord_t x2;
  47:Drivers/lvgl/src/draw/../misc/../font/../misc/lv_area.h ****     lv_coord_t y2;
  48:Drivers/lvgl/src/draw/../misc/../font/../misc/lv_area.h **** } lv_area_t;
  49:Drivers/lvgl/src/draw/../misc/../font/../misc/lv_area.h **** 
  50:Drivers/lvgl/src/draw/../misc/../font/../misc/lv_area.h **** /** Alignments*/
ARM GAS  /var/folders/0z/tsy30v1j4xl4_7kw94k978ww0000gn/T//ccpQecOs.s 			page 32


  51:Drivers/lvgl/src/draw/../misc/../font/../misc/lv_area.h **** enum {
  52:Drivers/lvgl/src/draw/../misc/../font/../misc/lv_area.h ****     LV_ALIGN_DEFAULT = 0,
  53:Drivers/lvgl/src/draw/../misc/../font/../misc/lv_area.h ****     LV_ALIGN_TOP_LEFT,
  54:Drivers/lvgl/src/draw/../misc/../font/../misc/lv_area.h ****     LV_ALIGN_TOP_MID,
  55:Drivers/lvgl/src/draw/../misc/../font/../misc/lv_area.h ****     LV_ALIGN_TOP_RIGHT,
  56:Drivers/lvgl/src/draw/../misc/../font/../misc/lv_area.h ****     LV_ALIGN_BOTTOM_LEFT,
  57:Drivers/lvgl/src/draw/../misc/../font/../misc/lv_area.h ****     LV_ALIGN_BOTTOM_MID,
  58:Drivers/lvgl/src/draw/../misc/../font/../misc/lv_area.h ****     LV_ALIGN_BOTTOM_RIGHT,
  59:Drivers/lvgl/src/draw/../misc/../font/../misc/lv_area.h ****     LV_ALIGN_LEFT_MID,
  60:Drivers/lvgl/src/draw/../misc/../font/../misc/lv_area.h ****     LV_ALIGN_RIGHT_MID,
  61:Drivers/lvgl/src/draw/../misc/../font/../misc/lv_area.h ****     LV_ALIGN_CENTER,
  62:Drivers/lvgl/src/draw/../misc/../font/../misc/lv_area.h **** 
  63:Drivers/lvgl/src/draw/../misc/../font/../misc/lv_area.h ****     LV_ALIGN_OUT_TOP_LEFT,
  64:Drivers/lvgl/src/draw/../misc/../font/../misc/lv_area.h ****     LV_ALIGN_OUT_TOP_MID,
  65:Drivers/lvgl/src/draw/../misc/../font/../misc/lv_area.h ****     LV_ALIGN_OUT_TOP_RIGHT,
  66:Drivers/lvgl/src/draw/../misc/../font/../misc/lv_area.h ****     LV_ALIGN_OUT_BOTTOM_LEFT,
  67:Drivers/lvgl/src/draw/../misc/../font/../misc/lv_area.h ****     LV_ALIGN_OUT_BOTTOM_MID,
  68:Drivers/lvgl/src/draw/../misc/../font/../misc/lv_area.h ****     LV_ALIGN_OUT_BOTTOM_RIGHT,
  69:Drivers/lvgl/src/draw/../misc/../font/../misc/lv_area.h ****     LV_ALIGN_OUT_LEFT_TOP,
  70:Drivers/lvgl/src/draw/../misc/../font/../misc/lv_area.h ****     LV_ALIGN_OUT_LEFT_MID,
  71:Drivers/lvgl/src/draw/../misc/../font/../misc/lv_area.h ****     LV_ALIGN_OUT_LEFT_BOTTOM,
  72:Drivers/lvgl/src/draw/../misc/../font/../misc/lv_area.h ****     LV_ALIGN_OUT_RIGHT_TOP,
  73:Drivers/lvgl/src/draw/../misc/../font/../misc/lv_area.h ****     LV_ALIGN_OUT_RIGHT_MID,
  74:Drivers/lvgl/src/draw/../misc/../font/../misc/lv_area.h ****     LV_ALIGN_OUT_RIGHT_BOTTOM,
  75:Drivers/lvgl/src/draw/../misc/../font/../misc/lv_area.h **** };
  76:Drivers/lvgl/src/draw/../misc/../font/../misc/lv_area.h **** typedef uint8_t lv_align_t;
  77:Drivers/lvgl/src/draw/../misc/../font/../misc/lv_area.h **** 
  78:Drivers/lvgl/src/draw/../misc/../font/../misc/lv_area.h **** enum {
  79:Drivers/lvgl/src/draw/../misc/../font/../misc/lv_area.h ****     LV_DIR_NONE     = 0x00,
  80:Drivers/lvgl/src/draw/../misc/../font/../misc/lv_area.h ****     LV_DIR_LEFT     = (1 << 0),
  81:Drivers/lvgl/src/draw/../misc/../font/../misc/lv_area.h ****     LV_DIR_RIGHT    = (1 << 1),
  82:Drivers/lvgl/src/draw/../misc/../font/../misc/lv_area.h ****     LV_DIR_TOP      = (1 << 2),
  83:Drivers/lvgl/src/draw/../misc/../font/../misc/lv_area.h ****     LV_DIR_BOTTOM   = (1 << 3),
  84:Drivers/lvgl/src/draw/../misc/../font/../misc/lv_area.h ****     LV_DIR_HOR      = LV_DIR_LEFT | LV_DIR_RIGHT,
  85:Drivers/lvgl/src/draw/../misc/../font/../misc/lv_area.h ****     LV_DIR_VER      = LV_DIR_TOP | LV_DIR_BOTTOM,
  86:Drivers/lvgl/src/draw/../misc/../font/../misc/lv_area.h ****     LV_DIR_ALL      = LV_DIR_HOR | LV_DIR_VER,
  87:Drivers/lvgl/src/draw/../misc/../font/../misc/lv_area.h **** };
  88:Drivers/lvgl/src/draw/../misc/../font/../misc/lv_area.h **** 
  89:Drivers/lvgl/src/draw/../misc/../font/../misc/lv_area.h **** typedef uint8_t lv_dir_t;
  90:Drivers/lvgl/src/draw/../misc/../font/../misc/lv_area.h **** 
  91:Drivers/lvgl/src/draw/../misc/../font/../misc/lv_area.h **** /**********************
  92:Drivers/lvgl/src/draw/../misc/../font/../misc/lv_area.h ****  * GLOBAL PROTOTYPES
  93:Drivers/lvgl/src/draw/../misc/../font/../misc/lv_area.h ****  **********************/
  94:Drivers/lvgl/src/draw/../misc/../font/../misc/lv_area.h **** 
  95:Drivers/lvgl/src/draw/../misc/../font/../misc/lv_area.h **** /**
  96:Drivers/lvgl/src/draw/../misc/../font/../misc/lv_area.h ****  * Initialize an area
  97:Drivers/lvgl/src/draw/../misc/../font/../misc/lv_area.h ****  * @param area_p pointer to an area
  98:Drivers/lvgl/src/draw/../misc/../font/../misc/lv_area.h ****  * @param x1 left coordinate of the area
  99:Drivers/lvgl/src/draw/../misc/../font/../misc/lv_area.h ****  * @param y1 top coordinate of the area
 100:Drivers/lvgl/src/draw/../misc/../font/../misc/lv_area.h ****  * @param x2 right coordinate of the area
 101:Drivers/lvgl/src/draw/../misc/../font/../misc/lv_area.h ****  * @param y2 bottom coordinate of the area
 102:Drivers/lvgl/src/draw/../misc/../font/../misc/lv_area.h ****  */
 103:Drivers/lvgl/src/draw/../misc/../font/../misc/lv_area.h **** void lv_area_set(lv_area_t * area_p, lv_coord_t x1, lv_coord_t y1, lv_coord_t x2, lv_coord_t y2);
 104:Drivers/lvgl/src/draw/../misc/../font/../misc/lv_area.h **** 
 105:Drivers/lvgl/src/draw/../misc/../font/../misc/lv_area.h **** /**
 106:Drivers/lvgl/src/draw/../misc/../font/../misc/lv_area.h ****  * Copy an area
 107:Drivers/lvgl/src/draw/../misc/../font/../misc/lv_area.h ****  * @param dest pointer to the destination area
ARM GAS  /var/folders/0z/tsy30v1j4xl4_7kw94k978ww0000gn/T//ccpQecOs.s 			page 33


 108:Drivers/lvgl/src/draw/../misc/../font/../misc/lv_area.h ****  * @param src pointer to the source area
 109:Drivers/lvgl/src/draw/../misc/../font/../misc/lv_area.h ****  */
 110:Drivers/lvgl/src/draw/../misc/../font/../misc/lv_area.h **** inline static void lv_area_copy(lv_area_t * dest, const lv_area_t * src)
 111:Drivers/lvgl/src/draw/../misc/../font/../misc/lv_area.h **** {
 112:Drivers/lvgl/src/draw/../misc/../font/../misc/lv_area.h ****     dest->x1 = src->x1;
 113:Drivers/lvgl/src/draw/../misc/../font/../misc/lv_area.h ****     dest->y1 = src->y1;
 114:Drivers/lvgl/src/draw/../misc/../font/../misc/lv_area.h ****     dest->x2 = src->x2;
 115:Drivers/lvgl/src/draw/../misc/../font/../misc/lv_area.h ****     dest->y2 = src->y2;
 116:Drivers/lvgl/src/draw/../misc/../font/../misc/lv_area.h **** }
 117:Drivers/lvgl/src/draw/../misc/../font/../misc/lv_area.h **** 
 118:Drivers/lvgl/src/draw/../misc/../font/../misc/lv_area.h **** /**
 119:Drivers/lvgl/src/draw/../misc/../font/../misc/lv_area.h ****  * Get the width of an area
 120:Drivers/lvgl/src/draw/../misc/../font/../misc/lv_area.h ****  * @param area_p pointer to an area
 121:Drivers/lvgl/src/draw/../misc/../font/../misc/lv_area.h ****  * @return the width of the area (if x1 == x2 -> width = 1)
 122:Drivers/lvgl/src/draw/../misc/../font/../misc/lv_area.h ****  */
 123:Drivers/lvgl/src/draw/../misc/../font/../misc/lv_area.h **** static inline lv_coord_t lv_area_get_width(const lv_area_t * area_p)
 396              		.loc 4 123 26 view .LVU119
 397              	.LBB55:
 124:Drivers/lvgl/src/draw/../misc/../font/../misc/lv_area.h **** {
 125:Drivers/lvgl/src/draw/../misc/../font/../misc/lv_area.h ****     return (lv_coord_t)(area_p->x2 - area_p->x1 + 1);
 398              		.loc 4 125 5 view .LVU120
 399              		.loc 4 125 31 is_stmt 0 view .LVU121
 400 0068 099A     		ldr	r2, [sp, #36]
 401 006a 9388     		ldrh	r3, [r2, #4]
 402              		.loc 4 125 44 view .LVU122
 403 006c 1288     		ldrh	r2, [r2]
 404              		.loc 4 125 36 view .LVU123
 405 006e 9B1A     		subs	r3, r3, r2
 406 0070 9BB2     		uxth	r3, r3
 407              		.loc 4 125 49 view .LVU124
 408 0072 0133     		adds	r3, r3, #1
 409              		.loc 4 125 12 view .LVU125
 410 0074 1BB2     		sxth	r3, r3
 411              	.LVL33:
 412              	.L22:
 413              		.loc 4 125 12 view .LVU126
 414              	.LBE55:
 415              	.LBE54:
 121:Drivers/lvgl/src/draw/lv_draw_label.c ****     int32_t line_height = line_height_font + dsc->line_space;
 416              		.loc 1 121 5 is_stmt 1 view .LVU127
 417              	.LBB56:
 418              	.LBI56:
 419              		.file 5 "Drivers/lvgl/src/draw/../misc/../font/lv_font.h"
   1:Drivers/lvgl/src/draw/../misc/../font/lv_font.h **** /**
   2:Drivers/lvgl/src/draw/../misc/../font/lv_font.h ****  * @file lv_font.h
   3:Drivers/lvgl/src/draw/../misc/../font/lv_font.h ****  *
   4:Drivers/lvgl/src/draw/../misc/../font/lv_font.h ****  */
   5:Drivers/lvgl/src/draw/../misc/../font/lv_font.h **** 
   6:Drivers/lvgl/src/draw/../misc/../font/lv_font.h **** #ifndef LV_FONT_H
   7:Drivers/lvgl/src/draw/../misc/../font/lv_font.h **** #define LV_FONT_H
   8:Drivers/lvgl/src/draw/../misc/../font/lv_font.h **** 
   9:Drivers/lvgl/src/draw/../misc/../font/lv_font.h **** #ifdef __cplusplus
  10:Drivers/lvgl/src/draw/../misc/../font/lv_font.h **** extern "C" {
  11:Drivers/lvgl/src/draw/../misc/../font/lv_font.h **** #endif
  12:Drivers/lvgl/src/draw/../misc/../font/lv_font.h **** 
  13:Drivers/lvgl/src/draw/../misc/../font/lv_font.h **** /*********************
  14:Drivers/lvgl/src/draw/../misc/../font/lv_font.h ****  *      INCLUDES
ARM GAS  /var/folders/0z/tsy30v1j4xl4_7kw94k978ww0000gn/T//ccpQecOs.s 			page 34


  15:Drivers/lvgl/src/draw/../misc/../font/lv_font.h ****  *********************/
  16:Drivers/lvgl/src/draw/../misc/../font/lv_font.h **** #include "../lv_conf_internal.h"
  17:Drivers/lvgl/src/draw/../misc/../font/lv_font.h **** #include <stdint.h>
  18:Drivers/lvgl/src/draw/../misc/../font/lv_font.h **** #include <stddef.h>
  19:Drivers/lvgl/src/draw/../misc/../font/lv_font.h **** #include <stdbool.h>
  20:Drivers/lvgl/src/draw/../misc/../font/lv_font.h **** 
  21:Drivers/lvgl/src/draw/../misc/../font/lv_font.h **** #include "lv_symbol_def.h"
  22:Drivers/lvgl/src/draw/../misc/../font/lv_font.h **** #include "../misc/lv_area.h"
  23:Drivers/lvgl/src/draw/../misc/../font/lv_font.h **** 
  24:Drivers/lvgl/src/draw/../misc/../font/lv_font.h **** /*********************
  25:Drivers/lvgl/src/draw/../misc/../font/lv_font.h ****  *      DEFINES
  26:Drivers/lvgl/src/draw/../misc/../font/lv_font.h ****  *********************/
  27:Drivers/lvgl/src/draw/../misc/../font/lv_font.h **** 
  28:Drivers/lvgl/src/draw/../misc/../font/lv_font.h **** /* imgfont identifier */
  29:Drivers/lvgl/src/draw/../misc/../font/lv_font.h **** #define LV_IMGFONT_BPP 9
  30:Drivers/lvgl/src/draw/../misc/../font/lv_font.h **** 
  31:Drivers/lvgl/src/draw/../misc/../font/lv_font.h **** /**********************
  32:Drivers/lvgl/src/draw/../misc/../font/lv_font.h ****  *      TYPEDEFS
  33:Drivers/lvgl/src/draw/../misc/../font/lv_font.h ****  **********************/
  34:Drivers/lvgl/src/draw/../misc/../font/lv_font.h **** 
  35:Drivers/lvgl/src/draw/../misc/../font/lv_font.h **** /*------------------
  36:Drivers/lvgl/src/draw/../misc/../font/lv_font.h ****  * General types
  37:Drivers/lvgl/src/draw/../misc/../font/lv_font.h ****  *-----------------*/
  38:Drivers/lvgl/src/draw/../misc/../font/lv_font.h **** 
  39:Drivers/lvgl/src/draw/../misc/../font/lv_font.h **** struct _lv_font_t;
  40:Drivers/lvgl/src/draw/../misc/../font/lv_font.h **** /** Describes the properties of a glyph.*/
  41:Drivers/lvgl/src/draw/../misc/../font/lv_font.h **** typedef struct {
  42:Drivers/lvgl/src/draw/../misc/../font/lv_font.h ****     const struct _lv_font_t *
  43:Drivers/lvgl/src/draw/../misc/../font/lv_font.h ****         resolved_font; /**< Pointer to a font where the glyph was actually found after handling fal
  44:Drivers/lvgl/src/draw/../misc/../font/lv_font.h ****     uint16_t adv_w; /**< The glyph needs this space. Draw the next glyph after this width.*/
  45:Drivers/lvgl/src/draw/../misc/../font/lv_font.h ****     uint16_t box_w; /**< Width of the glyph's bounding box*/
  46:Drivers/lvgl/src/draw/../misc/../font/lv_font.h ****     uint16_t box_h; /**< Height of the glyph's bounding box*/
  47:Drivers/lvgl/src/draw/../misc/../font/lv_font.h ****     int16_t ofs_x;  /**< x offset of the bounding box*/
  48:Drivers/lvgl/src/draw/../misc/../font/lv_font.h ****     int16_t ofs_y;  /**< y offset of the bounding box*/
  49:Drivers/lvgl/src/draw/../misc/../font/lv_font.h ****     uint8_t bpp: 4;  /**< Bit-per-pixel: 1, 2, 4, 8*/
  50:Drivers/lvgl/src/draw/../misc/../font/lv_font.h ****     uint8_t is_placeholder: 1; /** Glyph is missing. But placeholder will still be displayed */
  51:Drivers/lvgl/src/draw/../misc/../font/lv_font.h **** } lv_font_glyph_dsc_t;
  52:Drivers/lvgl/src/draw/../misc/../font/lv_font.h **** 
  53:Drivers/lvgl/src/draw/../misc/../font/lv_font.h **** /** The bitmaps might be upscaled by 3 to achieve subpixel rendering.*/
  54:Drivers/lvgl/src/draw/../misc/../font/lv_font.h **** enum {
  55:Drivers/lvgl/src/draw/../misc/../font/lv_font.h ****     LV_FONT_SUBPX_NONE,
  56:Drivers/lvgl/src/draw/../misc/../font/lv_font.h ****     LV_FONT_SUBPX_HOR,
  57:Drivers/lvgl/src/draw/../misc/../font/lv_font.h ****     LV_FONT_SUBPX_VER,
  58:Drivers/lvgl/src/draw/../misc/../font/lv_font.h ****     LV_FONT_SUBPX_BOTH,
  59:Drivers/lvgl/src/draw/../misc/../font/lv_font.h **** };
  60:Drivers/lvgl/src/draw/../misc/../font/lv_font.h **** 
  61:Drivers/lvgl/src/draw/../misc/../font/lv_font.h **** typedef uint8_t lv_font_subpx_t;
  62:Drivers/lvgl/src/draw/../misc/../font/lv_font.h **** 
  63:Drivers/lvgl/src/draw/../misc/../font/lv_font.h **** /** Describe the properties of a font*/
  64:Drivers/lvgl/src/draw/../misc/../font/lv_font.h **** typedef struct _lv_font_t {
  65:Drivers/lvgl/src/draw/../misc/../font/lv_font.h ****     /** Get a glyph's descriptor from a font*/
  66:Drivers/lvgl/src/draw/../misc/../font/lv_font.h ****     bool (*get_glyph_dsc)(const struct _lv_font_t *, lv_font_glyph_dsc_t *, uint32_t letter, uint32
  67:Drivers/lvgl/src/draw/../misc/../font/lv_font.h **** 
  68:Drivers/lvgl/src/draw/../misc/../font/lv_font.h ****     /** Get a glyph's bitmap from a font*/
  69:Drivers/lvgl/src/draw/../misc/../font/lv_font.h ****     const uint8_t * (*get_glyph_bitmap)(const struct _lv_font_t *, uint32_t);
  70:Drivers/lvgl/src/draw/../misc/../font/lv_font.h **** 
  71:Drivers/lvgl/src/draw/../misc/../font/lv_font.h ****     /*Pointer to the font in a font pack (must have the same line height)*/
ARM GAS  /var/folders/0z/tsy30v1j4xl4_7kw94k978ww0000gn/T//ccpQecOs.s 			page 35


  72:Drivers/lvgl/src/draw/../misc/../font/lv_font.h ****     lv_coord_t line_height;         /**< The real line height where any text fits*/
  73:Drivers/lvgl/src/draw/../misc/../font/lv_font.h ****     lv_coord_t base_line;           /**< Base line measured from the top of the line_height*/
  74:Drivers/lvgl/src/draw/../misc/../font/lv_font.h ****     uint8_t subpx  : 2;             /**< An element of `lv_font_subpx_t`*/
  75:Drivers/lvgl/src/draw/../misc/../font/lv_font.h **** 
  76:Drivers/lvgl/src/draw/../misc/../font/lv_font.h ****     int8_t underline_position;      /**< Distance between the top of the underline and base line (<
  77:Drivers/lvgl/src/draw/../misc/../font/lv_font.h ****     int8_t underline_thickness;     /**< Thickness of the underline*/
  78:Drivers/lvgl/src/draw/../misc/../font/lv_font.h **** 
  79:Drivers/lvgl/src/draw/../misc/../font/lv_font.h ****     const void * dsc;               /**< Store implementation specific or run_time data or caching 
  80:Drivers/lvgl/src/draw/../misc/../font/lv_font.h ****     const struct _lv_font_t * fallback;   /**< Fallback font for missing glyph. Resolved recursivel
  81:Drivers/lvgl/src/draw/../misc/../font/lv_font.h **** #if LV_USE_USER_DATA
  82:Drivers/lvgl/src/draw/../misc/../font/lv_font.h ****     void * user_data;               /**< Custom user data for font.*/
  83:Drivers/lvgl/src/draw/../misc/../font/lv_font.h **** #endif
  84:Drivers/lvgl/src/draw/../misc/../font/lv_font.h **** } lv_font_t;
  85:Drivers/lvgl/src/draw/../misc/../font/lv_font.h **** 
  86:Drivers/lvgl/src/draw/../misc/../font/lv_font.h **** /**********************
  87:Drivers/lvgl/src/draw/../misc/../font/lv_font.h ****  * GLOBAL PROTOTYPES
  88:Drivers/lvgl/src/draw/../misc/../font/lv_font.h ****  **********************/
  89:Drivers/lvgl/src/draw/../misc/../font/lv_font.h **** 
  90:Drivers/lvgl/src/draw/../misc/../font/lv_font.h **** /**
  91:Drivers/lvgl/src/draw/../misc/../font/lv_font.h ****  * Return with the bitmap of a font.
  92:Drivers/lvgl/src/draw/../misc/../font/lv_font.h ****  * @param font_p pointer to a font
  93:Drivers/lvgl/src/draw/../misc/../font/lv_font.h ****  * @param letter a UNICODE character code
  94:Drivers/lvgl/src/draw/../misc/../font/lv_font.h ****  * @return pointer to the bitmap of the letter
  95:Drivers/lvgl/src/draw/../misc/../font/lv_font.h ****  */
  96:Drivers/lvgl/src/draw/../misc/../font/lv_font.h **** const uint8_t * lv_font_get_glyph_bitmap(const lv_font_t * font_p, uint32_t letter);
  97:Drivers/lvgl/src/draw/../misc/../font/lv_font.h **** 
  98:Drivers/lvgl/src/draw/../misc/../font/lv_font.h **** /**
  99:Drivers/lvgl/src/draw/../misc/../font/lv_font.h ****  * Get the descriptor of a glyph
 100:Drivers/lvgl/src/draw/../misc/../font/lv_font.h ****  * @param font_p pointer to font
 101:Drivers/lvgl/src/draw/../misc/../font/lv_font.h ****  * @param dsc_out store the result descriptor here
 102:Drivers/lvgl/src/draw/../misc/../font/lv_font.h ****  * @param letter a UNICODE letter code
 103:Drivers/lvgl/src/draw/../misc/../font/lv_font.h ****  * @param letter_next the next letter after `letter`. Used for kerning
 104:Drivers/lvgl/src/draw/../misc/../font/lv_font.h ****  * @return true: descriptor is successfully loaded into `dsc_out`.
 105:Drivers/lvgl/src/draw/../misc/../font/lv_font.h ****  *         false: the letter was not found, no data is loaded to `dsc_out`
 106:Drivers/lvgl/src/draw/../misc/../font/lv_font.h ****  */
 107:Drivers/lvgl/src/draw/../misc/../font/lv_font.h **** bool lv_font_get_glyph_dsc(const lv_font_t * font_p, lv_font_glyph_dsc_t * dsc_out, uint32_t letter
 108:Drivers/lvgl/src/draw/../misc/../font/lv_font.h ****                            uint32_t letter_next);
 109:Drivers/lvgl/src/draw/../misc/../font/lv_font.h **** 
 110:Drivers/lvgl/src/draw/../misc/../font/lv_font.h **** /**
 111:Drivers/lvgl/src/draw/../misc/../font/lv_font.h ****  * Get the width of a glyph with kerning
 112:Drivers/lvgl/src/draw/../misc/../font/lv_font.h ****  * @param font pointer to a font
 113:Drivers/lvgl/src/draw/../misc/../font/lv_font.h ****  * @param letter a UNICODE letter
 114:Drivers/lvgl/src/draw/../misc/../font/lv_font.h ****  * @param letter_next the next letter after `letter`. Used for kerning
 115:Drivers/lvgl/src/draw/../misc/../font/lv_font.h ****  * @return the width of the glyph
 116:Drivers/lvgl/src/draw/../misc/../font/lv_font.h ****  */
 117:Drivers/lvgl/src/draw/../misc/../font/lv_font.h **** uint16_t lv_font_get_glyph_width(const lv_font_t * font, uint32_t letter, uint32_t letter_next);
 118:Drivers/lvgl/src/draw/../misc/../font/lv_font.h **** 
 119:Drivers/lvgl/src/draw/../misc/../font/lv_font.h **** /**
 120:Drivers/lvgl/src/draw/../misc/../font/lv_font.h ****  * Get the line height of a font. All characters fit into this height
 121:Drivers/lvgl/src/draw/../misc/../font/lv_font.h ****  * @param font_p pointer to a font
 122:Drivers/lvgl/src/draw/../misc/../font/lv_font.h ****  * @return the height of a font
 123:Drivers/lvgl/src/draw/../misc/../font/lv_font.h ****  */
 124:Drivers/lvgl/src/draw/../misc/../font/lv_font.h **** static inline lv_coord_t lv_font_get_line_height(const lv_font_t * font_p)
 420              		.loc 5 124 26 view .LVU128
 421              	.LBB57:
 125:Drivers/lvgl/src/draw/../misc/../font/lv_font.h **** {
 126:Drivers/lvgl/src/draw/../misc/../font/lv_font.h ****     return font_p->line_height;
ARM GAS  /var/folders/0z/tsy30v1j4xl4_7kw94k978ww0000gn/T//ccpQecOs.s 			page 36


 422              		.loc 5 126 5 view .LVU129
 423              		.loc 5 126 18 is_stmt 0 view .LVU130
 424 0076 049A     		ldr	r2, [sp, #16]
 425 0078 B2F90860 		ldrsh	r6, [r2, #8]
 426              	.LVL34:
 427              		.loc 5 126 18 view .LVU131
 428              	.LBE57:
 429              	.LBE56:
 122:Drivers/lvgl/src/draw/lv_draw_label.c **** 
 430              		.loc 1 122 5 is_stmt 1 view .LVU132
 122:Drivers/lvgl/src/draw/lv_draw_label.c **** 
 431              		.loc 1 122 49 is_stmt 0 view .LVU133
 432 007c B5F91220 		ldrsh	r2, [r5, #18]
 122:Drivers/lvgl/src/draw/lv_draw_label.c **** 
 433              		.loc 1 122 13 view .LVU134
 434 0080 9719     		adds	r7, r2, r6
 435 0082 0D97     		str	r7, [sp, #52]
 436              	.LVL35:
 125:Drivers/lvgl/src/draw/lv_draw_label.c ****     lv_point_t pos;
 437              		.loc 1 125 5 is_stmt 1 view .LVU135
 126:Drivers/lvgl/src/draw/lv_draw_label.c ****     pos.x = coords->x1;
 438              		.loc 1 126 5 view .LVU136
 127:Drivers/lvgl/src/draw/lv_draw_label.c ****     pos.y = coords->y1;
 439              		.loc 1 127 5 view .LVU137
 127:Drivers/lvgl/src/draw/lv_draw_label.c ****     pos.y = coords->y1;
 440              		.loc 1 127 19 is_stmt 0 view .LVU138
 441 0084 0998     		ldr	r0, [sp, #36]
 442 0086 B0F90020 		ldrsh	r2, [r0]
 127:Drivers/lvgl/src/draw/lv_draw_label.c ****     pos.y = coords->y1;
 443              		.loc 1 127 11 view .LVU139
 444 008a ADF8A420 		strh	r2, [sp, #164]	@ movhi
 128:Drivers/lvgl/src/draw/lv_draw_label.c **** 
 445              		.loc 1 128 5 is_stmt 1 view .LVU140
 128:Drivers/lvgl/src/draw/lv_draw_label.c **** 
 446              		.loc 1 128 19 is_stmt 0 view .LVU141
 447 008e B0F90220 		ldrsh	r2, [r0, #2]
 128:Drivers/lvgl/src/draw/lv_draw_label.c **** 
 448              		.loc 1 128 11 view .LVU142
 449 0092 ADF8A620 		strh	r2, [sp, #166]	@ movhi
 130:Drivers/lvgl/src/draw/lv_draw_label.c ****     int32_t y_ofs = 0;
 450              		.loc 1 130 5 is_stmt 1 view .LVU143
 451              	.LVL36:
 131:Drivers/lvgl/src/draw/lv_draw_label.c ****     x_ofs = dsc->ofs_x;
 452              		.loc 1 131 5 view .LVU144
 132:Drivers/lvgl/src/draw/lv_draw_label.c ****     y_ofs = dsc->ofs_y;
 453              		.loc 1 132 5 view .LVU145
 132:Drivers/lvgl/src/draw/lv_draw_label.c ****     y_ofs = dsc->ofs_y;
 454              		.loc 1 132 16 is_stmt 0 view .LVU146
 455 0096 B5F91610 		ldrsh	r1, [r5, #22]
 456 009a 0E91     		str	r1, [sp, #56]
 457              	.LVL37:
 133:Drivers/lvgl/src/draw/lv_draw_label.c ****     pos.y += y_ofs;
 458              		.loc 1 133 5 is_stmt 1 view .LVU147
 133:Drivers/lvgl/src/draw/lv_draw_label.c ****     pos.y += y_ofs;
 459              		.loc 1 133 16 is_stmt 0 view .LVU148
 460 009c B5F91810 		ldrsh	r1, [r5, #24]
 461              	.LVL38:
ARM GAS  /var/folders/0z/tsy30v1j4xl4_7kw94k978ww0000gn/T//ccpQecOs.s 			page 37


 134:Drivers/lvgl/src/draw/lv_draw_label.c **** 
 462              		.loc 1 134 5 is_stmt 1 view .LVU149
 134:Drivers/lvgl/src/draw/lv_draw_label.c **** 
 463              		.loc 1 134 11 is_stmt 0 view .LVU150
 464 00a0 0A44     		add	r2, r2, r1
 465 00a2 ADF8A620 		strh	r2, [sp, #166]	@ movhi
 136:Drivers/lvgl/src/draw/lv_draw_label.c ****     int32_t last_line_start = -1;
 466              		.loc 1 136 5 is_stmt 1 view .LVU151
 467              	.LVL39:
 137:Drivers/lvgl/src/draw/lv_draw_label.c **** 
 468              		.loc 1 137 5 view .LVU152
 140:Drivers/lvgl/src/draw/lv_draw_label.c ****         /*If the label changed too much recalculate the hint.*/
 469              		.loc 1 140 5 view .LVU153
 140:Drivers/lvgl/src/draw/lv_draw_label.c ****         /*If the label changed too much recalculate the hint.*/
 470              		.loc 1 140 7 is_stmt 0 view .LVU154
 471 00a6 3CB3     		cbz	r4, .L57
 140:Drivers/lvgl/src/draw/lv_draw_label.c ****         /*If the label changed too much recalculate the hint.*/
 472              		.loc 1 140 13 discriminator 1 view .LVU155
 473 00a8 49BB     		cbnz	r1, .L58
 140:Drivers/lvgl/src/draw/lv_draw_label.c ****         /*If the label changed too much recalculate the hint.*/
 474              		.loc 1 140 36 discriminator 2 view .LVU156
 475 00aa B0F90220 		ldrsh	r2, [r0, #2]
 140:Drivers/lvgl/src/draw/lv_draw_label.c ****         /*If the label changed too much recalculate the hint.*/
 476              		.loc 1 140 27 discriminator 2 view .LVU157
 477 00ae 002A     		cmp	r2, #0
 478 00b0 13DB     		blt	.L69
 137:Drivers/lvgl/src/draw/lv_draw_label.c **** 
 479              		.loc 1 137 13 view .LVU158
 480 00b2 4FF0FF37 		mov	r7, #-1
 481              	.LVL40:
 137:Drivers/lvgl/src/draw/lv_draw_label.c **** 
 482              		.loc 1 137 13 view .LVU159
 483 00b6 24E0     		b	.L23
 484              	.LVL41:
 485              	.L21:
 486              	.LBB58:
 115:Drivers/lvgl/src/draw/lv_draw_label.c ****         lv_txt_get_size(&p, txt, dsc->font, dsc->letter_space, dsc->line_space, LV_COORD_MAX,
 487              		.loc 1 115 9 is_stmt 1 view .LVU160
 116:Drivers/lvgl/src/draw/lv_draw_label.c ****                         dsc->flag);
 488              		.loc 1 116 9 view .LVU161
 116:Drivers/lvgl/src/draw/lv_draw_label.c ****                         dsc->flag);
 489              		.loc 1 116 67 is_stmt 0 view .LVU162
 490 00b8 B5F91220 		ldrsh	r2, [r5, #18]
 116:Drivers/lvgl/src/draw/lv_draw_label.c ****                         dsc->flag);
 491              		.loc 1 116 9 view .LVU163
 492 00bc 0293     		str	r3, [sp, #8]
 493              	.LVL42:
 116:Drivers/lvgl/src/draw/lv_draw_label.c ****                         dsc->flag);
 494              		.loc 1 116 9 view .LVU164
 495 00be 41F6FF73 		movw	r3, #8191
 496 00c2 0193     		str	r3, [sp, #4]
 497 00c4 0092     		str	r2, [sp]
 498 00c6 B5F91430 		ldrsh	r3, [r5, #20]
 499 00ca 2A68     		ldr	r2, [r5]
 500 00cc 0899     		ldr	r1, [sp, #32]
 501 00ce 15A8     		add	r0, sp, #84
 502              	.LVL43:
ARM GAS  /var/folders/0z/tsy30v1j4xl4_7kw94k978ww0000gn/T//ccpQecOs.s 			page 38


 116:Drivers/lvgl/src/draw/lv_draw_label.c ****                         dsc->flag);
 503              		.loc 1 116 9 view .LVU165
 504 00d0 FFF7FEFF 		bl	lv_txt_get_size
 505              	.LVL44:
 118:Drivers/lvgl/src/draw/lv_draw_label.c ****     }
 506              		.loc 1 118 9 is_stmt 1 view .LVU166
 118:Drivers/lvgl/src/draw/lv_draw_label.c ****     }
 507              		.loc 1 118 14 is_stmt 0 view .LVU167
 508 00d4 BDF95430 		ldrsh	r3, [sp, #84]
 509              	.LVL45:
 118:Drivers/lvgl/src/draw/lv_draw_label.c ****     }
 510              		.loc 1 118 14 view .LVU168
 511 00d8 CDE7     		b	.L22
 512              	.LVL46:
 513              	.L69:
 118:Drivers/lvgl/src/draw/lv_draw_label.c ****     }
 514              		.loc 1 118 14 view .LVU169
 515              	.LBE58:
 142:Drivers/lvgl/src/draw/lv_draw_label.c ****             hint->line_start = -1;
 516              		.loc 1 142 9 is_stmt 1 view .LVU170
 142:Drivers/lvgl/src/draw/lv_draw_label.c ****             hint->line_start = -1;
 517              		.loc 1 142 12 is_stmt 0 view .LVU171
 518 00da A168     		ldr	r1, [r4, #8]
 519              	.LVL47:
 142:Drivers/lvgl/src/draw/lv_draw_label.c ****             hint->line_start = -1;
 520              		.loc 1 142 12 view .LVU172
 521 00dc 8A1A     		subs	r2, r1, r2
 522 00de 002A     		cmp	r2, #0
 523 00e0 B8BF     		it	lt
 524 00e2 5242     		rsblt	r2, r2, #0
 142:Drivers/lvgl/src/draw/lv_draw_label.c ****             hint->line_start = -1;
 525              		.loc 1 142 73 view .LVU173
 526 00e4 C7F50071 		rsb	r1, r7, #512
 142:Drivers/lvgl/src/draw/lv_draw_label.c ****             hint->line_start = -1;
 527              		.loc 1 142 11 view .LVU174
 528 00e8 B2EB410F 		cmp	r2, r1, lsl #1
 529 00ec 02DD     		ble	.L24
 143:Drivers/lvgl/src/draw/lv_draw_label.c ****         }
 530              		.loc 1 143 13 is_stmt 1 view .LVU175
 143:Drivers/lvgl/src/draw/lv_draw_label.c ****         }
 531              		.loc 1 143 30 is_stmt 0 view .LVU176
 532 00ee 4FF0FF32 		mov	r2, #-1
 533 00f2 2260     		str	r2, [r4]
 534              	.LVL48:
 535              	.L24:
 145:Drivers/lvgl/src/draw/lv_draw_label.c ****     }
 536              		.loc 1 145 9 is_stmt 1 view .LVU177
 145:Drivers/lvgl/src/draw/lv_draw_label.c ****     }
 537              		.loc 1 145 25 is_stmt 0 view .LVU178
 538 00f4 2768     		ldr	r7, [r4]
 539              	.LVL49:
 145:Drivers/lvgl/src/draw/lv_draw_label.c ****     }
 540              		.loc 1 145 25 view .LVU179
 541 00f6 04E0     		b	.L23
 542              	.LVL50:
 543              	.L57:
 137:Drivers/lvgl/src/draw/lv_draw_label.c **** 
ARM GAS  /var/folders/0z/tsy30v1j4xl4_7kw94k978ww0000gn/T//ccpQecOs.s 			page 39


 544              		.loc 1 137 13 view .LVU180
 545 00f8 4FF0FF37 		mov	r7, #-1
 546              	.LVL51:
 137:Drivers/lvgl/src/draw/lv_draw_label.c **** 
 547              		.loc 1 137 13 view .LVU181
 548 00fc 01E0     		b	.L23
 549              	.LVL52:
 550              	.L58:
 137:Drivers/lvgl/src/draw/lv_draw_label.c **** 
 551              		.loc 1 137 13 view .LVU182
 552 00fe 4FF0FF37 		mov	r7, #-1
 553              	.LVL53:
 554              	.L23:
 149:Drivers/lvgl/src/draw/lv_draw_label.c ****         line_start = last_line_start;
 555              		.loc 1 149 5 is_stmt 1 view .LVU183
 149:Drivers/lvgl/src/draw/lv_draw_label.c ****         line_start = last_line_start;
 556              		.loc 1 149 7 is_stmt 0 view .LVU184
 557 0102 E4B1     		cbz	r4, .L60
 149:Drivers/lvgl/src/draw/lv_draw_label.c ****         line_start = last_line_start;
 558              		.loc 1 149 13 discriminator 1 view .LVU185
 559 0104 002F     		cmp	r7, #0
 560 0106 1CDB     		blt	.L61
 150:Drivers/lvgl/src/draw/lv_draw_label.c ****         pos.y += hint->y;
 561              		.loc 1 150 9 is_stmt 1 view .LVU186
 562              	.LVL54:
 151:Drivers/lvgl/src/draw/lv_draw_label.c ****     }
 563              		.loc 1 151 9 view .LVU187
 151:Drivers/lvgl/src/draw/lv_draw_label.c ****     }
 564              		.loc 1 151 22 is_stmt 0 view .LVU188
 565 0108 6268     		ldr	r2, [r4, #4]
 151:Drivers/lvgl/src/draw/lv_draw_label.c ****     }
 566              		.loc 1 151 15 view .LVU189
 567 010a BDF8A610 		ldrh	r1, [sp, #166]
 568 010e 0A44     		add	r2, r2, r1
 569 0110 ADF8A620 		strh	r2, [sp, #166]	@ movhi
 570              	.LVL55:
 571              	.L25:
 154:Drivers/lvgl/src/draw/lv_draw_label.c **** 
 572              		.loc 1 154 5 is_stmt 1 view .LVU190
 154:Drivers/lvgl/src/draw/lv_draw_label.c **** 
 573              		.loc 1 154 38 is_stmt 0 view .LVU191
 574 0114 1AB2     		sxth	r2, r3
 575 0116 0A92     		str	r2, [sp, #40]
 154:Drivers/lvgl/src/draw/lv_draw_label.c **** 
 576              		.loc 1 154 115 view .LVU192
 577 0118 6B7F     		ldrb	r3, [r5, #29]	@ zero_extendqisi2
 578              	.LVL56:
 154:Drivers/lvgl/src/draw/lv_draw_label.c **** 
 579              		.loc 1 154 38 view .LVU193
 580 011a 0193     		str	r3, [sp, #4]
 581 011c 0023     		movs	r3, #0
 582 011e 0093     		str	r3, [sp]
 583 0120 1346     		mov	r3, r2
 584 0122 B5F91420 		ldrsh	r2, [r5, #20]
 585 0126 0499     		ldr	r1, [sp, #16]
 586 0128 0898     		ldr	r0, [sp, #32]
 587 012a 3844     		add	r0, r0, r7
ARM GAS  /var/folders/0z/tsy30v1j4xl4_7kw94k978ww0000gn/T//ccpQecOs.s 			page 40


 588 012c FFF7FEFF 		bl	_lv_txt_get_next_line
 589              	.LVL57:
 154:Drivers/lvgl/src/draw/lv_draw_label.c **** 
 590              		.loc 1 154 14 view .LVU194
 591 0130 00EB070B 		add	fp, r0, r7
 592              	.LVL58:
 157:Drivers/lvgl/src/draw/lv_draw_label.c ****         /*Go to next line*/
 593              		.loc 1 157 5 is_stmt 1 view .LVU195
 594 0134 DDF83480 		ldr	r8, [sp, #52]
 595 0138 DDF820A0 		ldr	r10, [sp, #32]
 157:Drivers/lvgl/src/draw/lv_draw_label.c ****         /*Go to next line*/
 596              		.loc 1 157 10 is_stmt 0 view .LVU196
 597 013c 09E0     		b	.L26
 598              	.LVL59:
 599              	.L60:
 136:Drivers/lvgl/src/draw/lv_draw_label.c ****     int32_t last_line_start = -1;
 600              		.loc 1 136 14 view .LVU197
 601 013e 0027     		movs	r7, #0
 602              	.LVL60:
 136:Drivers/lvgl/src/draw/lv_draw_label.c ****     int32_t last_line_start = -1;
 603              		.loc 1 136 14 view .LVU198
 604 0140 E8E7     		b	.L25
 605              	.LVL61:
 606              	.L61:
 136:Drivers/lvgl/src/draw/lv_draw_label.c ****     int32_t last_line_start = -1;
 607              		.loc 1 136 14 view .LVU199
 608 0142 0027     		movs	r7, #0
 609              	.LVL62:
 136:Drivers/lvgl/src/draw/lv_draw_label.c ****     int32_t last_line_start = -1;
 610              		.loc 1 136 14 view .LVU200
 611 0144 E6E7     		b	.L25
 612              	.LVL63:
 613              	.L27:
 170:Drivers/lvgl/src/draw/lv_draw_label.c ****     }
 614              		.loc 1 170 9 is_stmt 1 view .LVU201
 170:Drivers/lvgl/src/draw/lv_draw_label.c ****     }
 615              		.loc 1 170 15 is_stmt 0 view .LVU202
 616 0146 3B78     		ldrb	r3, [r7]	@ zero_extendqisi2
 159:Drivers/lvgl/src/draw/lv_draw_label.c ****         line_end += _lv_txt_get_next_line(&txt[line_start], font, dsc->letter_space, w, NULL, dsc->
 617              		.loc 1 159 20 view .LVU203
 618 0148 5F46     		mov	r7, fp
 170:Drivers/lvgl/src/draw/lv_draw_label.c ****     }
 619              		.loc 1 170 11 view .LVU204
 620 014a 002B     		cmp	r3, #0
 621 014c 3FF478AF 		beq	.L18
 622              	.LVL64:
 160:Drivers/lvgl/src/draw/lv_draw_label.c ****         pos.y += line_height;
 623              		.loc 1 160 18 view .LVU205
 624 0150 8346     		mov	fp, r0
 625              	.LVL65:
 626              	.L26:
 157:Drivers/lvgl/src/draw/lv_draw_label.c ****         /*Go to next line*/
 627              		.loc 1 157 36 is_stmt 1 view .LVU206
 157:Drivers/lvgl/src/draw/lv_draw_label.c ****         /*Go to next line*/
 628              		.loc 1 157 14 is_stmt 0 view .LVU207
 629 0152 BDF9A630 		ldrsh	r3, [sp, #166]
 157:Drivers/lvgl/src/draw/lv_draw_label.c ****         /*Go to next line*/
ARM GAS  /var/folders/0z/tsy30v1j4xl4_7kw94k978ww0000gn/T//ccpQecOs.s 			page 41


 630              		.loc 1 157 17 view .LVU208
 631 0156 3344     		add	r3, r3, r6
 157:Drivers/lvgl/src/draw/lv_draw_label.c ****         /*Go to next line*/
 632              		.loc 1 157 46 view .LVU209
 633 0158 D9F80820 		ldr	r2, [r9, #8]
 157:Drivers/lvgl/src/draw/lv_draw_label.c ****         /*Go to next line*/
 634              		.loc 1 157 57 view .LVU210
 635 015c B2F90220 		ldrsh	r2, [r2, #2]
 157:Drivers/lvgl/src/draw/lv_draw_label.c ****         /*Go to next line*/
 636              		.loc 1 157 36 view .LVU211
 637 0160 9342     		cmp	r3, r2
 638 0162 28DA     		bge	.L70
 159:Drivers/lvgl/src/draw/lv_draw_label.c ****         line_end += _lv_txt_get_next_line(&txt[line_start], font, dsc->letter_space, w, NULL, dsc->
 639              		.loc 1 159 9 is_stmt 1 view .LVU212
 640              	.LVL66:
 160:Drivers/lvgl/src/draw/lv_draw_label.c ****         pos.y += line_height;
 641              		.loc 1 160 9 view .LVU213
 160:Drivers/lvgl/src/draw/lv_draw_label.c ****         pos.y += line_height;
 642              		.loc 1 160 21 is_stmt 0 view .LVU214
 643 0164 0AEB0B07 		add	r7, r10, fp
 160:Drivers/lvgl/src/draw/lv_draw_label.c ****         pos.y += line_height;
 644              		.loc 1 160 98 view .LVU215
 645 0168 6B7F     		ldrb	r3, [r5, #29]	@ zero_extendqisi2
 160:Drivers/lvgl/src/draw/lv_draw_label.c ****         pos.y += line_height;
 646              		.loc 1 160 21 view .LVU216
 647 016a 0193     		str	r3, [sp, #4]
 648 016c 0023     		movs	r3, #0
 649 016e 0093     		str	r3, [sp]
 650 0170 0A9B     		ldr	r3, [sp, #40]
 651 0172 B5F91420 		ldrsh	r2, [r5, #20]
 652 0176 0499     		ldr	r1, [sp, #16]
 653 0178 3846     		mov	r0, r7
 654 017a FFF7FEFF 		bl	_lv_txt_get_next_line
 655              	.LVL67:
 160:Drivers/lvgl/src/draw/lv_draw_label.c ****         pos.y += line_height;
 656              		.loc 1 160 18 view .LVU217
 657 017e 5844     		add	r0, r0, fp
 658              	.LVL68:
 161:Drivers/lvgl/src/draw/lv_draw_label.c **** 
 659              		.loc 1 161 9 is_stmt 1 view .LVU218
 161:Drivers/lvgl/src/draw/lv_draw_label.c **** 
 660              		.loc 1 161 15 is_stmt 0 view .LVU219
 661 0180 BDF8A630 		ldrh	r3, [sp, #166]
 662 0184 4344     		add	r3, r3, r8
 663 0186 1BB2     		sxth	r3, r3
 664 0188 ADF8A630 		strh	r3, [sp, #166]	@ movhi
 164:Drivers/lvgl/src/draw/lv_draw_label.c ****             hint->line_start = line_start;
 665              		.loc 1 164 9 is_stmt 1 view .LVU220
 164:Drivers/lvgl/src/draw/lv_draw_label.c ****             hint->line_start = line_start;
 666              		.loc 1 164 11 is_stmt 0 view .LVU221
 667 018c 002C     		cmp	r4, #0
 668 018e DAD0     		beq	.L27
 164:Drivers/lvgl/src/draw/lv_draw_label.c ****             hint->line_start = line_start;
 669              		.loc 1 164 17 discriminator 1 view .LVU222
 670 0190 13F5806F 		cmn	r3, #1024
 671 0194 D7DB     		blt	.L27
 164:Drivers/lvgl/src/draw/lv_draw_label.c ****             hint->line_start = line_start;
ARM GAS  /var/folders/0z/tsy30v1j4xl4_7kw94k978ww0000gn/T//ccpQecOs.s 			page 42


 672              		.loc 1 164 61 discriminator 2 view .LVU223
 673 0196 2368     		ldr	r3, [r4]
 164:Drivers/lvgl/src/draw/lv_draw_label.c ****             hint->line_start = line_start;
 674              		.loc 1 164 54 discriminator 2 view .LVU224
 675 0198 002B     		cmp	r3, #0
 676 019a D4DA     		bge	.L27
 165:Drivers/lvgl/src/draw/lv_draw_label.c ****             hint->y          = pos.y - coords->y1;
 677              		.loc 1 165 13 is_stmt 1 view .LVU225
 165:Drivers/lvgl/src/draw/lv_draw_label.c ****             hint->y          = pos.y - coords->y1;
 678              		.loc 1 165 30 is_stmt 0 view .LVU226
 679 019c C4F800B0 		str	fp, [r4]
 166:Drivers/lvgl/src/draw/lv_draw_label.c ****             hint->coord_y    = coords->y1;
 680              		.loc 1 166 13 is_stmt 1 view .LVU227
 166:Drivers/lvgl/src/draw/lv_draw_label.c ****             hint->coord_y    = coords->y1;
 681              		.loc 1 166 35 is_stmt 0 view .LVU228
 682 01a0 BDF9A630 		ldrsh	r3, [sp, #166]
 166:Drivers/lvgl/src/draw/lv_draw_label.c ****             hint->coord_y    = coords->y1;
 683              		.loc 1 166 46 view .LVU229
 684 01a4 0999     		ldr	r1, [sp, #36]
 685 01a6 B1F90220 		ldrsh	r2, [r1, #2]
 166:Drivers/lvgl/src/draw/lv_draw_label.c ****             hint->coord_y    = coords->y1;
 686              		.loc 1 166 38 view .LVU230
 687 01aa 9B1A     		subs	r3, r3, r2
 166:Drivers/lvgl/src/draw/lv_draw_label.c ****             hint->coord_y    = coords->y1;
 688              		.loc 1 166 30 view .LVU231
 689 01ac 6360     		str	r3, [r4, #4]
 167:Drivers/lvgl/src/draw/lv_draw_label.c ****         }
 690              		.loc 1 167 13 is_stmt 1 view .LVU232
 167:Drivers/lvgl/src/draw/lv_draw_label.c ****         }
 691              		.loc 1 167 38 is_stmt 0 view .LVU233
 692 01ae B1F90230 		ldrsh	r3, [r1, #2]
 167:Drivers/lvgl/src/draw/lv_draw_label.c ****         }
 693              		.loc 1 167 30 view .LVU234
 694 01b2 A360     		str	r3, [r4, #8]
 695 01b4 C7E7     		b	.L27
 696              	.LVL69:
 697              	.L70:
 174:Drivers/lvgl/src/draw/lv_draw_label.c ****         line_width = lv_txt_get_width(&txt[line_start], line_end - line_start, font, dsc->letter_sp
 698              		.loc 1 174 5 is_stmt 1 view .LVU235
 174:Drivers/lvgl/src/draw/lv_draw_label.c ****         line_width = lv_txt_get_width(&txt[line_start], line_end - line_start, font, dsc->letter_sp
 699              		.loc 1 174 7 is_stmt 0 view .LVU236
 700 01b6 0C9B     		ldr	r3, [sp, #48]
 701 01b8 022B     		cmp	r3, #2
 702 01ba 24D0     		beq	.L71
 181:Drivers/lvgl/src/draw/lv_draw_label.c ****         line_width = lv_txt_get_width(&txt[line_start], line_end - line_start, font, dsc->letter_sp
 703              		.loc 1 181 10 is_stmt 1 view .LVU237
 181:Drivers/lvgl/src/draw/lv_draw_label.c ****         line_width = lv_txt_get_width(&txt[line_start], line_end - line_start, font, dsc->letter_sp
 704              		.loc 1 181 12 is_stmt 0 view .LVU238
 705 01bc 0C9B     		ldr	r3, [sp, #48]
 706 01be 032B     		cmp	r3, #3
 707 01c0 3DD0     		beq	.L72
 708              	.LVL70:
 709              	.L30:
 185:Drivers/lvgl/src/draw/lv_draw_label.c ****     uint32_t sel_end = dsc->sel_end;
 710              		.loc 1 185 5 is_stmt 1 view .LVU239
 185:Drivers/lvgl/src/draw/lv_draw_label.c ****     uint32_t sel_end = dsc->sel_end;
 711              		.loc 1 185 14 is_stmt 0 view .LVU240
ARM GAS  /var/folders/0z/tsy30v1j4xl4_7kw94k978ww0000gn/T//ccpQecOs.s 			page 43


 712 01c2 6A68     		ldr	r2, [r5, #4]
 713 01c4 1446     		mov	r4, r2
 714              	.LVL71:
 186:Drivers/lvgl/src/draw/lv_draw_label.c ****     if(sel_start > sel_end) {
 715              		.loc 1 186 5 is_stmt 1 view .LVU241
 186:Drivers/lvgl/src/draw/lv_draw_label.c ****     if(sel_start > sel_end) {
 716              		.loc 1 186 14 is_stmt 0 view .LVU242
 717 01c6 D5F80880 		ldr	r8, [r5, #8]
 718              	.LVL72:
 187:Drivers/lvgl/src/draw/lv_draw_label.c ****         uint32_t tmp = sel_start;
 719              		.loc 1 187 5 is_stmt 1 view .LVU243
 187:Drivers/lvgl/src/draw/lv_draw_label.c ****         uint32_t tmp = sel_start;
 720              		.loc 1 187 7 is_stmt 0 view .LVU244
 721 01ca 4245     		cmp	r2, r8
 722 01cc 02D8     		bhi	.L31
 723 01ce 4346     		mov	r3, r8
 185:Drivers/lvgl/src/draw/lv_draw_label.c ****     uint32_t sel_end = dsc->sel_end;
 724              		.loc 1 185 14 view .LVU245
 725 01d0 9046     		mov	r8, r2
 726              	.LVL73:
 186:Drivers/lvgl/src/draw/lv_draw_label.c ****     if(sel_start > sel_end) {
 727              		.loc 1 186 14 view .LVU246
 728 01d2 1C46     		mov	r4, r3
 729              	.LVL74:
 730              	.L31:
 192:Drivers/lvgl/src/draw/lv_draw_label.c **** 
 731              		.loc 1 192 5 is_stmt 1 view .LVU247
 194:Drivers/lvgl/src/draw/lv_draw_label.c ****         lv_draw_line_dsc_init(&line_dsc);
 732              		.loc 1 194 5 view .LVU248
 194:Drivers/lvgl/src/draw/lv_draw_label.c ****         lv_draw_line_dsc_init(&line_dsc);
 733              		.loc 1 194 12 is_stmt 0 view .LVU249
 734 01d4 AB7F     		ldrb	r3, [r5, #30]	@ zero_extendqisi2
 194:Drivers/lvgl/src/draw/lv_draw_label.c ****         lv_draw_line_dsc_init(&line_dsc);
 735              		.loc 1 194 7 view .LVU250
 736 01d6 13F0030F 		tst	r3, #3
 737 01da 49D1     		bne	.L73
 738              	.L32:
 202:Drivers/lvgl/src/draw/lv_draw_label.c ****     uint32_t i;
 739              		.loc 1 202 5 is_stmt 1 view .LVU251
 740              	.LVL75:
 203:Drivers/lvgl/src/draw/lv_draw_label.c ****     uint32_t par_start = 0;
 741              		.loc 1 203 5 view .LVU252
 204:Drivers/lvgl/src/draw/lv_draw_label.c ****     lv_color_t recolor  = lv_color_black();
 742              		.loc 1 204 5 view .LVU253
 205:Drivers/lvgl/src/draw/lv_draw_label.c ****     lv_color_t color = lv_color_black();
 743              		.loc 1 205 5 view .LVU254
 744              	.LBB59:
 745              	.LBI59:
 700:Drivers/lvgl/src/draw/../misc/lv_color.h **** {
 746              		.loc 2 700 26 view .LVU255
 747              		.loc 2 702 5 view .LVU256
 748              	.LBB60:
 749              	.LBI60:
 595:Drivers/lvgl/src/draw/../misc/lv_color.h **** {
 750              		.loc 2 595 26 view .LVU257
 751              	.LBB61:
 597:Drivers/lvgl/src/draw/../misc/lv_color.h **** }
ARM GAS  /var/folders/0z/tsy30v1j4xl4_7kw94k978ww0000gn/T//ccpQecOs.s 			page 44


 752              		.loc 2 597 5 view .LVU258
 597:Drivers/lvgl/src/draw/../misc/lv_color.h **** }
 753              		.loc 2 597 5 is_stmt 0 view .LVU259
 754 01dc 4FF00003 		mov	r3, #0	@ movhi
 755              	.LVL76:
 597:Drivers/lvgl/src/draw/../misc/lv_color.h **** }
 756              		.loc 2 597 5 view .LVU260
 757 01e0 ADF82E30 		strh	r3, [sp, #46]	@ movhi
 758              	.LBE61:
 759              	.LBE60:
 760              	.LBE59:
 206:Drivers/lvgl/src/draw/lv_draw_label.c ****     int32_t letter_w;
 761              		.loc 1 206 5 is_stmt 1 view .LVU261
 762              	.LBB62:
 763              	.LBI62:
 700:Drivers/lvgl/src/draw/../misc/lv_color.h **** {
 764              		.loc 2 700 26 view .LVU262
 765              		.loc 2 702 5 view .LVU263
 766              	.LVL77:
 767              	.LBB63:
 768              	.LBI63:
 595:Drivers/lvgl/src/draw/../misc/lv_color.h **** {
 769              		.loc 2 595 26 view .LVU264
 770              	.LBB64:
 597:Drivers/lvgl/src/draw/../misc/lv_color.h **** }
 771              		.loc 2 597 5 view .LVU265
 597:Drivers/lvgl/src/draw/../misc/lv_color.h **** }
 772              		.loc 2 597 5 is_stmt 0 view .LVU266
 773 01e4 9A46     		mov	r10, r3	@ movhi
 597:Drivers/lvgl/src/draw/../misc/lv_color.h **** }
 774              		.loc 2 597 5 view .LVU267
 775              	.LBE64:
 776              	.LBE63:
 777              	.LBE62:
 207:Drivers/lvgl/src/draw/lv_draw_label.c **** 
 778              		.loc 1 207 5 is_stmt 1 view .LVU268
 209:Drivers/lvgl/src/draw/lv_draw_label.c ****     lv_draw_rect_dsc_init(&draw_dsc_sel);
 779              		.loc 1 209 5 view .LVU269
 210:Drivers/lvgl/src/draw/lv_draw_label.c ****     draw_dsc_sel.bg_color = dsc->sel_bg_color;
 780              		.loc 1 210 5 view .LVU270
 781 01e6 17A8     		add	r0, sp, #92
 782 01e8 FFF7FEFF 		bl	lv_draw_rect_dsc_init
 783              	.LVL78:
 211:Drivers/lvgl/src/draw/lv_draw_label.c **** 
 784              		.loc 1 211 5 view .LVU271
 211:Drivers/lvgl/src/draw/lv_draw_label.c **** 
 785              		.loc 1 211 27 is_stmt 0 view .LVU272
 786 01ec 2B8A     		ldrh	r3, [r5, #16]
 787 01ee ADF86030 		strh	r3, [sp, #96]	@ movhi
 213:Drivers/lvgl/src/draw/lv_draw_label.c ****     /*Write out all lines*/
 788              		.loc 1 213 5 is_stmt 1 view .LVU273
 213:Drivers/lvgl/src/draw/lv_draw_label.c ****     /*Write out all lines*/
 789              		.loc 1 213 30 is_stmt 0 view .LVU274
 790 01f2 BDF9A430 		ldrsh	r3, [sp, #164]
 791 01f6 1093     		str	r3, [sp, #64]
 792              	.LVL79:
 215:Drivers/lvgl/src/draw/lv_draw_label.c ****         pos.x += x_ofs;
ARM GAS  /var/folders/0z/tsy30v1j4xl4_7kw94k978ww0000gn/T//ccpQecOs.s 			page 45


 793              		.loc 1 215 5 is_stmt 1 view .LVU275
 204:Drivers/lvgl/src/draw/lv_draw_label.c ****     lv_color_t recolor  = lv_color_black();
 794              		.loc 1 204 14 is_stmt 0 view .LVU276
 795 01f8 0023     		movs	r3, #0
 796 01fa 0F93     		str	r3, [sp, #60]
 797 01fc 2646     		mov	r6, r4
 798              	.LVL80:
 204:Drivers/lvgl/src/draw/lv_draw_label.c ****     lv_color_t recolor  = lv_color_black();
 799              		.loc 1 204 14 view .LVU277
 800 01fe CDF81C90 		str	r9, [sp, #28]
 801 0202 B946     		mov	r9, r7
 802              	.LVL81:
 215:Drivers/lvgl/src/draw/lv_draw_label.c ****         pos.x += x_ofs;
 803              		.loc 1 215 10 view .LVU278
 804 0204 59E1     		b	.L34
 805              	.LVL82:
 806              	.L71:
 175:Drivers/lvgl/src/draw/lv_draw_label.c **** 
 807              		.loc 1 175 9 is_stmt 1 view .LVU279
 175:Drivers/lvgl/src/draw/lv_draw_label.c **** 
 808              		.loc 1 175 108 is_stmt 0 view .LVU280
 809 0206 6B7F     		ldrb	r3, [r5, #29]	@ zero_extendqisi2
 175:Drivers/lvgl/src/draw/lv_draw_label.c **** 
 810              		.loc 1 175 22 view .LVU281
 811 0208 0093     		str	r3, [sp]
 812 020a B5F91430 		ldrsh	r3, [r5, #20]
 813 020e 049A     		ldr	r2, [sp, #16]
 814 0210 ABEB0701 		sub	r1, fp, r7
 815 0214 0898     		ldr	r0, [sp, #32]
 816 0216 3844     		add	r0, r0, r7
 817 0218 FFF7FEFF 		bl	lv_txt_get_width
 818              	.LVL83:
 177:Drivers/lvgl/src/draw/lv_draw_label.c **** 
 819              		.loc 1 177 9 is_stmt 1 view .LVU282
 820              	.LBB65:
 821              	.LBI65:
 123:Drivers/lvgl/src/draw/../misc/../font/../misc/lv_area.h **** {
 822              		.loc 4 123 26 view .LVU283
 823              	.LBB66:
 824              		.loc 4 125 5 view .LVU284
 825              		.loc 4 125 31 is_stmt 0 view .LVU285
 826 021c 099A     		ldr	r2, [sp, #36]
 827 021e 9388     		ldrh	r3, [r2, #4]
 828              		.loc 4 125 44 view .LVU286
 829 0220 1288     		ldrh	r2, [r2]
 830              		.loc 4 125 36 view .LVU287
 831 0222 9B1A     		subs	r3, r3, r2
 832 0224 9BB2     		uxth	r3, r3
 833              		.loc 4 125 49 view .LVU288
 834 0226 0133     		adds	r3, r3, #1
 835              		.loc 4 125 12 view .LVU289
 836 0228 1BB2     		sxth	r3, r3
 837              	.LVL84:
 838              		.loc 4 125 12 view .LVU290
 839              	.LBE66:
 840              	.LBE65:
 177:Drivers/lvgl/src/draw/lv_draw_label.c **** 
ARM GAS  /var/folders/0z/tsy30v1j4xl4_7kw94k978ww0000gn/T//ccpQecOs.s 			page 46


 841              		.loc 1 177 45 view .LVU291
 842 022a 1B1A     		subs	r3, r3, r0
 177:Drivers/lvgl/src/draw/lv_draw_label.c **** 
 843              		.loc 1 177 59 view .LVU292
 844 022c 03EBD373 		add	r3, r3, r3, lsr #31
 177:Drivers/lvgl/src/draw/lv_draw_label.c **** 
 845              		.loc 1 177 15 view .LVU293
 846 0230 BDF8A420 		ldrh	r2, [sp, #164]
 847 0234 02EB6303 		add	r3, r2, r3, asr #1
 848 0238 ADF8A430 		strh	r3, [sp, #164]	@ movhi
 849 023c C1E7     		b	.L30
 850              	.LVL85:
 851              	.L72:
 182:Drivers/lvgl/src/draw/lv_draw_label.c ****         pos.x += lv_area_get_width(coords) - line_width;
 852              		.loc 1 182 9 is_stmt 1 view .LVU294
 182:Drivers/lvgl/src/draw/lv_draw_label.c ****         pos.x += lv_area_get_width(coords) - line_width;
 853              		.loc 1 182 108 is_stmt 0 view .LVU295
 854 023e 6B7F     		ldrb	r3, [r5, #29]	@ zero_extendqisi2
 182:Drivers/lvgl/src/draw/lv_draw_label.c ****         pos.x += lv_area_get_width(coords) - line_width;
 855              		.loc 1 182 22 view .LVU296
 856 0240 0093     		str	r3, [sp]
 857 0242 B5F91430 		ldrsh	r3, [r5, #20]
 858 0246 049A     		ldr	r2, [sp, #16]
 859 0248 ABEB0701 		sub	r1, fp, r7
 860 024c 0898     		ldr	r0, [sp, #32]
 861 024e 3844     		add	r0, r0, r7
 862 0250 FFF7FEFF 		bl	lv_txt_get_width
 863              	.LVL86:
 183:Drivers/lvgl/src/draw/lv_draw_label.c ****     }
 864              		.loc 1 183 9 is_stmt 1 view .LVU297
 865              	.LBB67:
 866              	.LBI67:
 123:Drivers/lvgl/src/draw/../misc/../font/../misc/lv_area.h **** {
 867              		.loc 4 123 26 view .LVU298
 868              	.LBB68:
 869              		.loc 4 125 5 view .LVU299
 870              		.loc 4 125 31 is_stmt 0 view .LVU300
 871 0254 099A     		ldr	r2, [sp, #36]
 872 0256 9388     		ldrh	r3, [r2, #4]
 873              		.loc 4 125 44 view .LVU301
 874 0258 1288     		ldrh	r2, [r2]
 875              		.loc 4 125 36 view .LVU302
 876 025a 9B1A     		subs	r3, r3, r2
 877 025c 9BB2     		uxth	r3, r3
 878              		.loc 4 125 49 view .LVU303
 879 025e 0133     		adds	r3, r3, #1
 880              		.loc 4 125 12 view .LVU304
 881 0260 1BB2     		sxth	r3, r3
 882              	.LVL87:
 883              		.loc 4 125 12 view .LVU305
 884              	.LBE68:
 885              	.LBE67:
 183:Drivers/lvgl/src/draw/lv_draw_label.c ****     }
 886              		.loc 1 183 44 view .LVU306
 887 0262 1B1A     		subs	r3, r3, r0
 183:Drivers/lvgl/src/draw/lv_draw_label.c ****     }
 888              		.loc 1 183 15 view .LVU307
ARM GAS  /var/folders/0z/tsy30v1j4xl4_7kw94k978ww0000gn/T//ccpQecOs.s 			page 47


 889 0264 BDF8A420 		ldrh	r2, [sp, #164]
 890 0268 1344     		add	r3, r3, r2
 891 026a ADF8A430 		strh	r3, [sp, #164]	@ movhi
 892 026e A8E7     		b	.L30
 893              	.LVL88:
 894              	.L73:
 195:Drivers/lvgl/src/draw/lv_draw_label.c ****         line_dsc.color = dsc->color;
 895              		.loc 1 195 9 is_stmt 1 view .LVU308
 896 0270 26A8     		add	r0, sp, #152
 897 0272 FFF7FEFF 		bl	lv_draw_line_dsc_init
 898              	.LVL89:
 196:Drivers/lvgl/src/draw/lv_draw_label.c ****         line_dsc.width = font->underline_thickness ? font->underline_thickness : 1;
 899              		.loc 1 196 9 view .LVU309
 196:Drivers/lvgl/src/draw/lv_draw_label.c ****         line_dsc.width = font->underline_thickness ? font->underline_thickness : 1;
 900              		.loc 1 196 24 is_stmt 0 view .LVU310
 901 0276 AB89     		ldrh	r3, [r5, #12]
 902 0278 ADF89830 		strh	r3, [sp, #152]	@ movhi
 197:Drivers/lvgl/src/draw/lv_draw_label.c ****         line_dsc.opa = dsc->opa;
 903              		.loc 1 197 9 is_stmt 1 view .LVU311
 197:Drivers/lvgl/src/draw/lv_draw_label.c ****         line_dsc.opa = dsc->opa;
 904              		.loc 1 197 30 is_stmt 0 view .LVU312
 905 027c 049B     		ldr	r3, [sp, #16]
 906 027e 93F90E30 		ldrsb	r3, [r3, #14]
 197:Drivers/lvgl/src/draw/lv_draw_label.c ****         line_dsc.opa = dsc->opa;
 907              		.loc 1 197 24 view .LVU313
 908 0282 7BB1     		cbz	r3, .L62
 197:Drivers/lvgl/src/draw/lv_draw_label.c ****         line_dsc.opa = dsc->opa;
 909              		.loc 1 197 24 discriminator 1 view .LVU314
 910 0284 1BB2     		sxth	r3, r3
 911              	.L33:
 197:Drivers/lvgl/src/draw/lv_draw_label.c ****         line_dsc.opa = dsc->opa;
 912              		.loc 1 197 24 discriminator 4 view .LVU315
 913 0286 ADF89A30 		strh	r3, [sp, #154]	@ movhi
 198:Drivers/lvgl/src/draw/lv_draw_label.c ****         line_dsc.blend_mode = dsc->blend_mode;
 914              		.loc 1 198 9 is_stmt 1 discriminator 4 view .LVU316
 198:Drivers/lvgl/src/draw/lv_draw_label.c ****         line_dsc.blend_mode = dsc->blend_mode;
 915              		.loc 1 198 27 is_stmt 0 discriminator 4 view .LVU317
 916 028a AB7E     		ldrb	r3, [r5, #26]	@ zero_extendqisi2
 198:Drivers/lvgl/src/draw/lv_draw_label.c ****         line_dsc.blend_mode = dsc->blend_mode;
 917              		.loc 1 198 22 discriminator 4 view .LVU318
 918 028c 8DF8A030 		strb	r3, [sp, #160]
 199:Drivers/lvgl/src/draw/lv_draw_label.c ****     }
 919              		.loc 1 199 9 is_stmt 1 discriminator 4 view .LVU319
 199:Drivers/lvgl/src/draw/lv_draw_label.c ****     }
 920              		.loc 1 199 34 is_stmt 0 discriminator 4 view .LVU320
 921 0290 AB7F     		ldrb	r3, [r5, #30]	@ zero_extendqisi2
 922 0292 C3F3C103 		ubfx	r3, r3, #3, #2
 199:Drivers/lvgl/src/draw/lv_draw_label.c ****     }
 923              		.loc 1 199 29 discriminator 4 view .LVU321
 924 0296 9DF8A120 		ldrb	r2, [sp, #161]	@ zero_extendqisi2
 925 029a 63F30102 		bfi	r2, r3, #0, #2
 926 029e 8DF8A120 		strb	r2, [sp, #161]
 927 02a2 9BE7     		b	.L32
 928              	.L62:
 197:Drivers/lvgl/src/draw/lv_draw_label.c ****         line_dsc.opa = dsc->opa;
 929              		.loc 1 197 24 view .LVU322
 930 02a4 0123     		movs	r3, #1
ARM GAS  /var/folders/0z/tsy30v1j4xl4_7kw94k978ww0000gn/T//ccpQecOs.s 			page 48


 931 02a6 EEE7     		b	.L33
 932              	.LVL90:
 933              	.L63:
 934              	.LBB69:
 935              	.LBB70:
 229:Drivers/lvgl/src/draw/lv_draw_label.c ****             if(sel_start != 0xFFFF && sel_end != 0xFFFF) {
 936              		.loc 1 229 22 view .LVU323
 937 02a8 0023     		movs	r3, #0
 938 02aa 0593     		str	r3, [sp, #20]
 939 02ac 8BE0     		b	.L36
 940              	.L64:
 229:Drivers/lvgl/src/draw/lv_draw_label.c ****             if(sel_start != 0xFFFF && sel_end != 0xFFFF) {
 941              		.loc 1 229 22 view .LVU324
 942 02ae 0023     		movs	r3, #0
 943 02b0 0593     		str	r3, [sp, #20]
 944 02b2 88E0     		b	.L36
 945              	.LVL91:
 946              	.L77:
 246:Drivers/lvgl/src/draw/lv_draw_label.c ****                         par_start = i;
 947              		.loc 1 246 21 is_stmt 1 view .LVU325
 246:Drivers/lvgl/src/draw/lv_draw_label.c ****                         par_start = i;
 948              		.loc 1 246 23 is_stmt 0 view .LVU326
 949 02b4 37B1     		cbz	r7, .L74
 251:Drivers/lvgl/src/draw/lv_draw_label.c ****                         cmd_state = CMD_STATE_WAIT;
 950              		.loc 1 251 26 is_stmt 1 view .LVU327
 251:Drivers/lvgl/src/draw/lv_draw_label.c ****                         cmd_state = CMD_STATE_WAIT;
 951              		.loc 1 251 28 is_stmt 0 view .LVU328
 952 02b6 012F     		cmp	r7, #1
 953 02b8 5CD0     		beq	.L65
 254:Drivers/lvgl/src/draw/lv_draw_label.c ****                         cmd_state = CMD_STATE_WAIT;
 954              		.loc 1 254 26 is_stmt 1 view .LVU329
 254:Drivers/lvgl/src/draw/lv_draw_label.c ****                         cmd_state = CMD_STATE_WAIT;
 955              		.loc 1 254 28 is_stmt 0 view .LVU330
 956 02ba 022F     		cmp	r7, #2
 957 02bc 40F09180 		bne	.L38
 255:Drivers/lvgl/src/draw/lv_draw_label.c ****                         continue;
 958              		.loc 1 255 35 view .LVU331
 959 02c0 0027     		movs	r7, #0
 960              	.LVL92:
 255:Drivers/lvgl/src/draw/lv_draw_label.c ****                         continue;
 961              		.loc 1 255 35 view .LVU332
 962 02c2 6DE0     		b	.L35
 963              	.LVL93:
 964              	.L74:
 247:Drivers/lvgl/src/draw/lv_draw_label.c ****                         cmd_state = CMD_STATE_PAR;
 965              		.loc 1 247 25 is_stmt 1 discriminator 1 view .LVU333
 247:Drivers/lvgl/src/draw/lv_draw_label.c ****                         cmd_state = CMD_STATE_PAR;
 966              		.loc 1 247 35 is_stmt 0 discriminator 1 view .LVU334
 967 02c4 259B     		ldr	r3, [sp, #148]
 968 02c6 0F93     		str	r3, [sp, #60]
 969              	.LVL94:
 248:Drivers/lvgl/src/draw/lv_draw_label.c ****                         continue;
 970              		.loc 1 248 25 is_stmt 1 discriminator 1 view .LVU335
 249:Drivers/lvgl/src/draw/lv_draw_label.c ****                     }
 971              		.loc 1 249 25 discriminator 1 view .LVU336
 248:Drivers/lvgl/src/draw/lv_draw_label.c ****                         continue;
 972              		.loc 1 248 35 is_stmt 0 discriminator 1 view .LVU337
ARM GAS  /var/folders/0z/tsy30v1j4xl4_7kw94k978ww0000gn/T//ccpQecOs.s 			page 49


 973 02c8 0127     		movs	r7, #1
 249:Drivers/lvgl/src/draw/lv_draw_label.c ****                     }
 974              		.loc 1 249 25 discriminator 1 view .LVU338
 975 02ca 69E0     		b	.L35
 976              	.LVL95:
 977              	.L78:
 262:Drivers/lvgl/src/draw/lv_draw_label.c ****                         /*Get the parameter*/
 978              		.loc 1 262 21 is_stmt 1 view .LVU339
 262:Drivers/lvgl/src/draw/lv_draw_label.c ****                         /*Get the parameter*/
 979              		.loc 1 262 23 is_stmt 0 view .LVU340
 980 02cc 202B     		cmp	r3, #32
 981 02ce 67D1     		bne	.L35
 264:Drivers/lvgl/src/draw/lv_draw_label.c ****                             char buf[LABEL_RECOLOR_PAR_LENGTH + 1];
 982              		.loc 1 264 25 is_stmt 1 view .LVU341
 264:Drivers/lvgl/src/draw/lv_draw_label.c ****                             char buf[LABEL_RECOLOR_PAR_LENGTH + 1];
 983              		.loc 1 264 30 is_stmt 0 view .LVU342
 984 02d0 259B     		ldr	r3, [sp, #148]
 985 02d2 0F9A     		ldr	r2, [sp, #60]
 986 02d4 9B1A     		subs	r3, r3, r2
 264:Drivers/lvgl/src/draw/lv_draw_label.c ****                             char buf[LABEL_RECOLOR_PAR_LENGTH + 1];
 987              		.loc 1 264 27 view .LVU343
 988 02d6 072B     		cmp	r3, #7
 989 02d8 04D0     		beq	.L75
 275:Drivers/lvgl/src/draw/lv_draw_label.c ****                         }
 990              		.loc 1 275 29 is_stmt 1 view .LVU344
 275:Drivers/lvgl/src/draw/lv_draw_label.c ****                         }
 991              		.loc 1 275 42 is_stmt 0 view .LVU345
 992 02da AB89     		ldrh	r3, [r5, #12]
 993              	.LVL96:
 275:Drivers/lvgl/src/draw/lv_draw_label.c ****                         }
 994              		.loc 1 275 42 view .LVU346
 995 02dc ADF82E30 		strh	r3, [sp, #46]	@ movhi
 277:Drivers/lvgl/src/draw/lv_draw_label.c ****                     }
 996              		.loc 1 277 35 view .LVU347
 997 02e0 0227     		movs	r7, #2
 998              	.LVL97:
 279:Drivers/lvgl/src/draw/lv_draw_label.c ****                 }
 999              		.loc 1 279 21 is_stmt 1 view .LVU348
 1000 02e2 5DE0     		b	.L35
 1001              	.LVL98:
 1002              	.L75:
 1003              	.LBB71:
 265:Drivers/lvgl/src/draw/lv_draw_label.c ****                             lv_memcpy_small(buf, &bidi_txt[par_start], LABEL_RECOLOR_PAR_LENGTH);
 1004              		.loc 1 265 29 view .LVU349
 266:Drivers/lvgl/src/draw/lv_draw_label.c ****                             buf[LABEL_RECOLOR_PAR_LENGTH] = '\0';
 1005              		.loc 1 266 29 view .LVU350
 266:Drivers/lvgl/src/draw/lv_draw_label.c ****                             buf[LABEL_RECOLOR_PAR_LENGTH] = '\0';
 1006              		.loc 1 266 50 is_stmt 0 view .LVU351
 1007 02e4 069B     		ldr	r3, [sp, #24]
 1008 02e6 9918     		adds	r1, r3, r2
 1009              	.LVL99:
 1010              	.LBB72:
 1011              	.LBI72:
 1012              		.file 6 "Drivers/lvgl/src/draw/../misc/lv_mem.h"
   1:Drivers/lvgl/src/draw/../misc/lv_mem.h **** /**
   2:Drivers/lvgl/src/draw/../misc/lv_mem.h ****  * @file lv_mem.h
   3:Drivers/lvgl/src/draw/../misc/lv_mem.h ****  *
ARM GAS  /var/folders/0z/tsy30v1j4xl4_7kw94k978ww0000gn/T//ccpQecOs.s 			page 50


   4:Drivers/lvgl/src/draw/../misc/lv_mem.h ****  */
   5:Drivers/lvgl/src/draw/../misc/lv_mem.h **** 
   6:Drivers/lvgl/src/draw/../misc/lv_mem.h **** #ifndef LV_MEM_H
   7:Drivers/lvgl/src/draw/../misc/lv_mem.h **** #define LV_MEM_H
   8:Drivers/lvgl/src/draw/../misc/lv_mem.h **** 
   9:Drivers/lvgl/src/draw/../misc/lv_mem.h **** #ifdef __cplusplus
  10:Drivers/lvgl/src/draw/../misc/lv_mem.h **** extern "C" {
  11:Drivers/lvgl/src/draw/../misc/lv_mem.h **** #endif
  12:Drivers/lvgl/src/draw/../misc/lv_mem.h **** 
  13:Drivers/lvgl/src/draw/../misc/lv_mem.h **** /*********************
  14:Drivers/lvgl/src/draw/../misc/lv_mem.h ****  *      INCLUDES
  15:Drivers/lvgl/src/draw/../misc/lv_mem.h ****  *********************/
  16:Drivers/lvgl/src/draw/../misc/lv_mem.h **** #include "../lv_conf_internal.h"
  17:Drivers/lvgl/src/draw/../misc/lv_mem.h **** 
  18:Drivers/lvgl/src/draw/../misc/lv_mem.h **** #include <stdint.h>
  19:Drivers/lvgl/src/draw/../misc/lv_mem.h **** #include <stddef.h>
  20:Drivers/lvgl/src/draw/../misc/lv_mem.h **** #include <string.h>
  21:Drivers/lvgl/src/draw/../misc/lv_mem.h **** 
  22:Drivers/lvgl/src/draw/../misc/lv_mem.h **** #include "lv_types.h"
  23:Drivers/lvgl/src/draw/../misc/lv_mem.h **** 
  24:Drivers/lvgl/src/draw/../misc/lv_mem.h **** /*********************
  25:Drivers/lvgl/src/draw/../misc/lv_mem.h ****  *      DEFINES
  26:Drivers/lvgl/src/draw/../misc/lv_mem.h ****  *********************/
  27:Drivers/lvgl/src/draw/../misc/lv_mem.h **** 
  28:Drivers/lvgl/src/draw/../misc/lv_mem.h **** /**********************
  29:Drivers/lvgl/src/draw/../misc/lv_mem.h ****  *      TYPEDEFS
  30:Drivers/lvgl/src/draw/../misc/lv_mem.h ****  **********************/
  31:Drivers/lvgl/src/draw/../misc/lv_mem.h **** 
  32:Drivers/lvgl/src/draw/../misc/lv_mem.h **** /**
  33:Drivers/lvgl/src/draw/../misc/lv_mem.h ****  * Heap information structure.
  34:Drivers/lvgl/src/draw/../misc/lv_mem.h ****  */
  35:Drivers/lvgl/src/draw/../misc/lv_mem.h **** typedef struct {
  36:Drivers/lvgl/src/draw/../misc/lv_mem.h ****     uint32_t total_size; /**< Total heap size*/
  37:Drivers/lvgl/src/draw/../misc/lv_mem.h ****     uint32_t free_cnt;
  38:Drivers/lvgl/src/draw/../misc/lv_mem.h ****     uint32_t free_size; /**< Size of available memory*/
  39:Drivers/lvgl/src/draw/../misc/lv_mem.h ****     uint32_t free_biggest_size;
  40:Drivers/lvgl/src/draw/../misc/lv_mem.h ****     uint32_t used_cnt;
  41:Drivers/lvgl/src/draw/../misc/lv_mem.h ****     uint32_t max_used; /**< Max size of Heap memory used*/
  42:Drivers/lvgl/src/draw/../misc/lv_mem.h ****     uint8_t used_pct; /**< Percentage used*/
  43:Drivers/lvgl/src/draw/../misc/lv_mem.h ****     uint8_t frag_pct; /**< Amount of fragmentation*/
  44:Drivers/lvgl/src/draw/../misc/lv_mem.h **** } lv_mem_monitor_t;
  45:Drivers/lvgl/src/draw/../misc/lv_mem.h **** 
  46:Drivers/lvgl/src/draw/../misc/lv_mem.h **** typedef struct {
  47:Drivers/lvgl/src/draw/../misc/lv_mem.h ****     void * p;
  48:Drivers/lvgl/src/draw/../misc/lv_mem.h ****     uint16_t size;
  49:Drivers/lvgl/src/draw/../misc/lv_mem.h ****     uint8_t used : 1;
  50:Drivers/lvgl/src/draw/../misc/lv_mem.h **** } lv_mem_buf_t;
  51:Drivers/lvgl/src/draw/../misc/lv_mem.h **** 
  52:Drivers/lvgl/src/draw/../misc/lv_mem.h **** typedef lv_mem_buf_t lv_mem_buf_arr_t[LV_MEM_BUF_MAX_NUM];
  53:Drivers/lvgl/src/draw/../misc/lv_mem.h **** 
  54:Drivers/lvgl/src/draw/../misc/lv_mem.h **** /**********************
  55:Drivers/lvgl/src/draw/../misc/lv_mem.h ****  * GLOBAL PROTOTYPES
  56:Drivers/lvgl/src/draw/../misc/lv_mem.h ****  **********************/
  57:Drivers/lvgl/src/draw/../misc/lv_mem.h **** 
  58:Drivers/lvgl/src/draw/../misc/lv_mem.h **** /**
  59:Drivers/lvgl/src/draw/../misc/lv_mem.h ****  * Initialize the dyn_mem module (work memory and other variables)
  60:Drivers/lvgl/src/draw/../misc/lv_mem.h ****  */
ARM GAS  /var/folders/0z/tsy30v1j4xl4_7kw94k978ww0000gn/T//ccpQecOs.s 			page 51


  61:Drivers/lvgl/src/draw/../misc/lv_mem.h **** void lv_mem_init(void);
  62:Drivers/lvgl/src/draw/../misc/lv_mem.h **** 
  63:Drivers/lvgl/src/draw/../misc/lv_mem.h **** /**
  64:Drivers/lvgl/src/draw/../misc/lv_mem.h ****  * Clean up the memory buffer which frees all the allocated memories.
  65:Drivers/lvgl/src/draw/../misc/lv_mem.h ****  * @note It work only if `LV_MEM_CUSTOM == 0`
  66:Drivers/lvgl/src/draw/../misc/lv_mem.h ****  */
  67:Drivers/lvgl/src/draw/../misc/lv_mem.h **** void lv_mem_deinit(void);
  68:Drivers/lvgl/src/draw/../misc/lv_mem.h **** 
  69:Drivers/lvgl/src/draw/../misc/lv_mem.h **** /**
  70:Drivers/lvgl/src/draw/../misc/lv_mem.h ****  * Allocate a memory dynamically
  71:Drivers/lvgl/src/draw/../misc/lv_mem.h ****  * @param size size of the memory to allocate in bytes
  72:Drivers/lvgl/src/draw/../misc/lv_mem.h ****  * @return pointer to the allocated memory
  73:Drivers/lvgl/src/draw/../misc/lv_mem.h ****  */
  74:Drivers/lvgl/src/draw/../misc/lv_mem.h **** void * lv_mem_alloc(size_t size);
  75:Drivers/lvgl/src/draw/../misc/lv_mem.h **** 
  76:Drivers/lvgl/src/draw/../misc/lv_mem.h **** /**
  77:Drivers/lvgl/src/draw/../misc/lv_mem.h ****  * Free an allocated data
  78:Drivers/lvgl/src/draw/../misc/lv_mem.h ****  * @param data pointer to an allocated memory
  79:Drivers/lvgl/src/draw/../misc/lv_mem.h ****  */
  80:Drivers/lvgl/src/draw/../misc/lv_mem.h **** void lv_mem_free(void * data);
  81:Drivers/lvgl/src/draw/../misc/lv_mem.h **** 
  82:Drivers/lvgl/src/draw/../misc/lv_mem.h **** /**
  83:Drivers/lvgl/src/draw/../misc/lv_mem.h ****  * Reallocate a memory with a new size. The old content will be kept.
  84:Drivers/lvgl/src/draw/../misc/lv_mem.h ****  * @param data pointer to an allocated memory.
  85:Drivers/lvgl/src/draw/../misc/lv_mem.h ****  * Its content will be copied to the new memory block and freed
  86:Drivers/lvgl/src/draw/../misc/lv_mem.h ****  * @param new_size the desired new size in byte
  87:Drivers/lvgl/src/draw/../misc/lv_mem.h ****  * @return pointer to the new memory, NULL on failure
  88:Drivers/lvgl/src/draw/../misc/lv_mem.h ****  */
  89:Drivers/lvgl/src/draw/../misc/lv_mem.h **** void * lv_mem_realloc(void * data_p, size_t new_size);
  90:Drivers/lvgl/src/draw/../misc/lv_mem.h **** 
  91:Drivers/lvgl/src/draw/../misc/lv_mem.h **** /**
  92:Drivers/lvgl/src/draw/../misc/lv_mem.h ****  *
  93:Drivers/lvgl/src/draw/../misc/lv_mem.h ****  * @return
  94:Drivers/lvgl/src/draw/../misc/lv_mem.h ****  */
  95:Drivers/lvgl/src/draw/../misc/lv_mem.h **** lv_res_t lv_mem_test(void);
  96:Drivers/lvgl/src/draw/../misc/lv_mem.h **** 
  97:Drivers/lvgl/src/draw/../misc/lv_mem.h **** /**
  98:Drivers/lvgl/src/draw/../misc/lv_mem.h ****  * Give information about the work memory of dynamic allocation
  99:Drivers/lvgl/src/draw/../misc/lv_mem.h ****  * @param mon_p pointer to a lv_mem_monitor_t variable,
 100:Drivers/lvgl/src/draw/../misc/lv_mem.h ****  *              the result of the analysis will be stored here
 101:Drivers/lvgl/src/draw/../misc/lv_mem.h ****  */
 102:Drivers/lvgl/src/draw/../misc/lv_mem.h **** void lv_mem_monitor(lv_mem_monitor_t * mon_p);
 103:Drivers/lvgl/src/draw/../misc/lv_mem.h **** 
 104:Drivers/lvgl/src/draw/../misc/lv_mem.h **** 
 105:Drivers/lvgl/src/draw/../misc/lv_mem.h **** /**
 106:Drivers/lvgl/src/draw/../misc/lv_mem.h ****  * Get a temporal buffer with the given size.
 107:Drivers/lvgl/src/draw/../misc/lv_mem.h ****  * @param size the required size
 108:Drivers/lvgl/src/draw/../misc/lv_mem.h ****  */
 109:Drivers/lvgl/src/draw/../misc/lv_mem.h **** void * lv_mem_buf_get(uint32_t size);
 110:Drivers/lvgl/src/draw/../misc/lv_mem.h **** 
 111:Drivers/lvgl/src/draw/../misc/lv_mem.h **** /**
 112:Drivers/lvgl/src/draw/../misc/lv_mem.h ****  * Release a memory buffer
 113:Drivers/lvgl/src/draw/../misc/lv_mem.h ****  * @param p buffer to release
 114:Drivers/lvgl/src/draw/../misc/lv_mem.h ****  */
 115:Drivers/lvgl/src/draw/../misc/lv_mem.h **** void lv_mem_buf_release(void * p);
 116:Drivers/lvgl/src/draw/../misc/lv_mem.h **** 
 117:Drivers/lvgl/src/draw/../misc/lv_mem.h **** /**
ARM GAS  /var/folders/0z/tsy30v1j4xl4_7kw94k978ww0000gn/T//ccpQecOs.s 			page 52


 118:Drivers/lvgl/src/draw/../misc/lv_mem.h ****  * Free all memory buffers
 119:Drivers/lvgl/src/draw/../misc/lv_mem.h ****  */
 120:Drivers/lvgl/src/draw/../misc/lv_mem.h **** void lv_mem_buf_free_all(void);
 121:Drivers/lvgl/src/draw/../misc/lv_mem.h **** 
 122:Drivers/lvgl/src/draw/../misc/lv_mem.h **** //! @cond Doxygen_Suppress
 123:Drivers/lvgl/src/draw/../misc/lv_mem.h **** 
 124:Drivers/lvgl/src/draw/../misc/lv_mem.h **** #if LV_MEMCPY_MEMSET_STD
 125:Drivers/lvgl/src/draw/../misc/lv_mem.h **** 
 126:Drivers/lvgl/src/draw/../misc/lv_mem.h **** /**
 127:Drivers/lvgl/src/draw/../misc/lv_mem.h ****  * Wrapper for the standard memcpy
 128:Drivers/lvgl/src/draw/../misc/lv_mem.h ****  * @param dst pointer to the destination buffer
 129:Drivers/lvgl/src/draw/../misc/lv_mem.h ****  * @param src pointer to the source buffer
 130:Drivers/lvgl/src/draw/../misc/lv_mem.h ****  * @param len number of byte to copy
 131:Drivers/lvgl/src/draw/../misc/lv_mem.h ****  */
 132:Drivers/lvgl/src/draw/../misc/lv_mem.h **** static inline void * lv_memcpy(void * dst, const void * src, size_t len)
 133:Drivers/lvgl/src/draw/../misc/lv_mem.h **** {
 134:Drivers/lvgl/src/draw/../misc/lv_mem.h ****     return memcpy(dst, src, len);
 135:Drivers/lvgl/src/draw/../misc/lv_mem.h **** }
 136:Drivers/lvgl/src/draw/../misc/lv_mem.h **** 
 137:Drivers/lvgl/src/draw/../misc/lv_mem.h **** /**
 138:Drivers/lvgl/src/draw/../misc/lv_mem.h ****  * Wrapper for the standard memcpy
 139:Drivers/lvgl/src/draw/../misc/lv_mem.h ****  * @param dst pointer to the destination buffer
 140:Drivers/lvgl/src/draw/../misc/lv_mem.h ****  * @param src pointer to the source buffer
 141:Drivers/lvgl/src/draw/../misc/lv_mem.h ****  * @param len number of byte to copy
 142:Drivers/lvgl/src/draw/../misc/lv_mem.h ****  */
 143:Drivers/lvgl/src/draw/../misc/lv_mem.h **** static inline void * lv_memcpy_small(void * dst, const void * src, size_t len)
 144:Drivers/lvgl/src/draw/../misc/lv_mem.h **** {
 145:Drivers/lvgl/src/draw/../misc/lv_mem.h ****     return memcpy(dst, src, len);
 146:Drivers/lvgl/src/draw/../misc/lv_mem.h **** }
 147:Drivers/lvgl/src/draw/../misc/lv_mem.h **** 
 148:Drivers/lvgl/src/draw/../misc/lv_mem.h **** /**
 149:Drivers/lvgl/src/draw/../misc/lv_mem.h ****  * Wrapper for the standard memset
 150:Drivers/lvgl/src/draw/../misc/lv_mem.h ****  * @param dst pointer to the destination buffer
 151:Drivers/lvgl/src/draw/../misc/lv_mem.h ****  * @param v value to set [0..255]
 152:Drivers/lvgl/src/draw/../misc/lv_mem.h ****  * @param len number of byte to set
 153:Drivers/lvgl/src/draw/../misc/lv_mem.h ****  */
 154:Drivers/lvgl/src/draw/../misc/lv_mem.h **** static inline void lv_memset(void * dst, uint8_t v, size_t len)
 155:Drivers/lvgl/src/draw/../misc/lv_mem.h **** {
 156:Drivers/lvgl/src/draw/../misc/lv_mem.h ****     memset(dst, v, len);
 157:Drivers/lvgl/src/draw/../misc/lv_mem.h **** }
 158:Drivers/lvgl/src/draw/../misc/lv_mem.h **** 
 159:Drivers/lvgl/src/draw/../misc/lv_mem.h **** /**
 160:Drivers/lvgl/src/draw/../misc/lv_mem.h ****  * Wrapper for the standard memset with fixed 0x00 value
 161:Drivers/lvgl/src/draw/../misc/lv_mem.h ****  * @param dst pointer to the destination buffer
 162:Drivers/lvgl/src/draw/../misc/lv_mem.h ****  * @param len number of byte to set
 163:Drivers/lvgl/src/draw/../misc/lv_mem.h ****  */
 164:Drivers/lvgl/src/draw/../misc/lv_mem.h **** static inline void lv_memset_00(void * dst, size_t len)
 165:Drivers/lvgl/src/draw/../misc/lv_mem.h **** {
 166:Drivers/lvgl/src/draw/../misc/lv_mem.h ****     memset(dst, 0x00, len);
 167:Drivers/lvgl/src/draw/../misc/lv_mem.h **** }
 168:Drivers/lvgl/src/draw/../misc/lv_mem.h **** 
 169:Drivers/lvgl/src/draw/../misc/lv_mem.h **** /**
 170:Drivers/lvgl/src/draw/../misc/lv_mem.h ****  * Wrapper for the standard memset with fixed 0xFF value
 171:Drivers/lvgl/src/draw/../misc/lv_mem.h ****  * @param dst pointer to the destination buffer
 172:Drivers/lvgl/src/draw/../misc/lv_mem.h ****  * @param len number of byte to set
 173:Drivers/lvgl/src/draw/../misc/lv_mem.h ****  */
 174:Drivers/lvgl/src/draw/../misc/lv_mem.h **** static inline void lv_memset_ff(void * dst, size_t len)
ARM GAS  /var/folders/0z/tsy30v1j4xl4_7kw94k978ww0000gn/T//ccpQecOs.s 			page 53


 175:Drivers/lvgl/src/draw/../misc/lv_mem.h **** {
 176:Drivers/lvgl/src/draw/../misc/lv_mem.h ****     memset(dst, 0xFF, len);
 177:Drivers/lvgl/src/draw/../misc/lv_mem.h **** }
 178:Drivers/lvgl/src/draw/../misc/lv_mem.h **** 
 179:Drivers/lvgl/src/draw/../misc/lv_mem.h **** #else
 180:Drivers/lvgl/src/draw/../misc/lv_mem.h **** /**
 181:Drivers/lvgl/src/draw/../misc/lv_mem.h ****  * Same as `memcpy` but optimized for 4 byte operation.
 182:Drivers/lvgl/src/draw/../misc/lv_mem.h ****  * @param dst pointer to the destination buffer
 183:Drivers/lvgl/src/draw/../misc/lv_mem.h ****  * @param src pointer to the source buffer
 184:Drivers/lvgl/src/draw/../misc/lv_mem.h ****  * @param len number of byte to copy
 185:Drivers/lvgl/src/draw/../misc/lv_mem.h ****  */
 186:Drivers/lvgl/src/draw/../misc/lv_mem.h **** void * /* LV_ATTRIBUTE_FAST_MEM */ lv_memcpy(void * dst, const void * src, size_t len);
 187:Drivers/lvgl/src/draw/../misc/lv_mem.h **** 
 188:Drivers/lvgl/src/draw/../misc/lv_mem.h **** /**
 189:Drivers/lvgl/src/draw/../misc/lv_mem.h ****  * Same as `memcpy` but optimized to copy only a few bytes.
 190:Drivers/lvgl/src/draw/../misc/lv_mem.h ****  * @param dst pointer to the destination buffer
 191:Drivers/lvgl/src/draw/../misc/lv_mem.h ****  * @param src pointer to the source buffer
 192:Drivers/lvgl/src/draw/../misc/lv_mem.h ****  * @param len number of byte to copy
 193:Drivers/lvgl/src/draw/../misc/lv_mem.h ****  */
 194:Drivers/lvgl/src/draw/../misc/lv_mem.h **** static inline void * LV_ATTRIBUTE_FAST_MEM lv_memcpy_small(void * dst, const void * src, size_t len
 1013              		.loc 6 194 44 is_stmt 1 view .LVU352
 1014              	.LBB73:
 195:Drivers/lvgl/src/draw/../misc/lv_mem.h **** {
 196:Drivers/lvgl/src/draw/../misc/lv_mem.h ****     uint8_t * d8 = (uint8_t *)dst;
 1015              		.loc 6 196 5 view .LVU353
 197:Drivers/lvgl/src/draw/../misc/lv_mem.h ****     const uint8_t * s8 = (const uint8_t *)src;
 1016              		.loc 6 197 5 view .LVU354
 198:Drivers/lvgl/src/draw/../misc/lv_mem.h **** 
 199:Drivers/lvgl/src/draw/../misc/lv_mem.h ****     while(len) {
 1017              		.loc 6 199 5 view .LVU355
 196:Drivers/lvgl/src/draw/../misc/lv_mem.h ****     const uint8_t * s8 = (const uint8_t *)src;
 1018              		.loc 6 196 15 is_stmt 0 view .LVU356
 1019 02e8 15AA     		add	r2, sp, #84
 1020              	.LVL100:
 1021              		.loc 6 199 10 view .LVU357
 1022 02ea 0623     		movs	r3, #6
 1023 02ec 04E0     		b	.L43
 1024              	.LVL101:
 1025              	.L44:
 200:Drivers/lvgl/src/draw/../misc/lv_mem.h ****         *d8 = *s8;
 1026              		.loc 6 200 9 is_stmt 1 view .LVU358
 1027              		.loc 6 200 15 is_stmt 0 view .LVU359
 1028 02ee 11F8010B 		ldrb	r0, [r1], #1	@ zero_extendqisi2
 1029              	.LVL102:
 1030              		.loc 6 200 13 view .LVU360
 1031 02f2 02F8010B 		strb	r0, [r2], #1
 1032              	.LVL103:
 201:Drivers/lvgl/src/draw/../misc/lv_mem.h ****         d8++;
 1033              		.loc 6 201 9 is_stmt 1 view .LVU361
 202:Drivers/lvgl/src/draw/../misc/lv_mem.h ****         s8++;
 1034              		.loc 6 202 9 view .LVU362
 203:Drivers/lvgl/src/draw/../misc/lv_mem.h ****         len--;
 1035              		.loc 6 203 9 view .LVU363
 1036              		.loc 6 203 12 is_stmt 0 view .LVU364
 1037 02f6 013B     		subs	r3, r3, #1
 1038              	.LVL104:
 1039              	.L43:
ARM GAS  /var/folders/0z/tsy30v1j4xl4_7kw94k978ww0000gn/T//ccpQecOs.s 			page 54


 199:Drivers/lvgl/src/draw/../misc/lv_mem.h ****         *d8 = *s8;
 1040              		.loc 6 199 11 is_stmt 1 view .LVU365
 1041 02f8 002B     		cmp	r3, #0
 1042 02fa F8D1     		bne	.L44
 204:Drivers/lvgl/src/draw/../misc/lv_mem.h ****     }
 205:Drivers/lvgl/src/draw/../misc/lv_mem.h **** 
 206:Drivers/lvgl/src/draw/../misc/lv_mem.h ****     return dst;
 1043              		.loc 6 206 5 view .LVU366
 1044              	.LVL105:
 1045              		.loc 6 206 5 is_stmt 0 view .LVU367
 1046              	.LBE73:
 1047              	.LBE72:
 267:Drivers/lvgl/src/draw/lv_draw_label.c ****                             int r, g, b;
 1048              		.loc 1 267 29 is_stmt 1 view .LVU368
 267:Drivers/lvgl/src/draw/lv_draw_label.c ****                             int r, g, b;
 1049              		.loc 1 267 59 is_stmt 0 view .LVU369
 1050 02fc 8DF85A30 		strb	r3, [sp, #90]
 268:Drivers/lvgl/src/draw/lv_draw_label.c ****                             r       = (hex_char_to_num(buf[0]) << 4) + hex_char_to_num(buf[1]);
 1051              		.loc 1 268 29 is_stmt 1 view .LVU370
 269:Drivers/lvgl/src/draw/lv_draw_label.c ****                             g       = (hex_char_to_num(buf[2]) << 4) + hex_char_to_num(buf[3]);
 1052              		.loc 1 269 29 view .LVU371
 269:Drivers/lvgl/src/draw/lv_draw_label.c ****                             g       = (hex_char_to_num(buf[2]) << 4) + hex_char_to_num(buf[3]);
 1053              		.loc 1 269 40 is_stmt 0 view .LVU372
 1054 0300 9DF85400 		ldrb	r0, [sp, #84]	@ zero_extendqisi2
 1055 0304 FFF7FEFF 		bl	hex_char_to_num
 1056              	.LVL106:
 269:Drivers/lvgl/src/draw/lv_draw_label.c ****                             g       = (hex_char_to_num(buf[2]) << 4) + hex_char_to_num(buf[3]);
 1057              		.loc 1 269 64 view .LVU373
 1058 0308 0401     		lsls	r4, r0, #4
 269:Drivers/lvgl/src/draw/lv_draw_label.c ****                             g       = (hex_char_to_num(buf[2]) << 4) + hex_char_to_num(buf[3]);
 1059              		.loc 1 269 72 view .LVU374
 1060 030a 9DF85500 		ldrb	r0, [sp, #85]	@ zero_extendqisi2
 1061 030e FFF7FEFF 		bl	hex_char_to_num
 1062              	.LVL107:
 269:Drivers/lvgl/src/draw/lv_draw_label.c ****                             g       = (hex_char_to_num(buf[2]) << 4) + hex_char_to_num(buf[3]);
 1063              		.loc 1 269 37 view .LVU375
 1064 0312 2318     		adds	r3, r4, r0
 1065 0314 0593     		str	r3, [sp, #20]
 1066              	.LVL108:
 270:Drivers/lvgl/src/draw/lv_draw_label.c ****                             b       = (hex_char_to_num(buf[4]) << 4) + hex_char_to_num(buf[5]);
 1067              		.loc 1 270 29 is_stmt 1 view .LVU376
 270:Drivers/lvgl/src/draw/lv_draw_label.c ****                             b       = (hex_char_to_num(buf[4]) << 4) + hex_char_to_num(buf[5]);
 1068              		.loc 1 270 40 is_stmt 0 view .LVU377
 1069 0316 9DF85600 		ldrb	r0, [sp, #86]	@ zero_extendqisi2
 1070 031a FFF7FEFF 		bl	hex_char_to_num
 1071              	.LVL109:
 270:Drivers/lvgl/src/draw/lv_draw_label.c ****                             b       = (hex_char_to_num(buf[4]) << 4) + hex_char_to_num(buf[5]);
 1072              		.loc 1 270 64 view .LVU378
 1073 031e 0401     		lsls	r4, r0, #4
 270:Drivers/lvgl/src/draw/lv_draw_label.c ****                             b       = (hex_char_to_num(buf[4]) << 4) + hex_char_to_num(buf[5]);
 1074              		.loc 1 270 72 view .LVU379
 1075 0320 9DF85700 		ldrb	r0, [sp, #87]	@ zero_extendqisi2
 1076 0324 FFF7FEFF 		bl	hex_char_to_num
 1077              	.LVL110:
 270:Drivers/lvgl/src/draw/lv_draw_label.c ****                             b       = (hex_char_to_num(buf[4]) << 4) + hex_char_to_num(buf[5]);
 1078              		.loc 1 270 37 view .LVU380
 1079 0328 0444     		add	r4, r4, r0
ARM GAS  /var/folders/0z/tsy30v1j4xl4_7kw94k978ww0000gn/T//ccpQecOs.s 			page 55


 1080              	.LVL111:
 271:Drivers/lvgl/src/draw/lv_draw_label.c ****                             recolor = lv_color_make(r, g, b);
 1081              		.loc 1 271 29 is_stmt 1 view .LVU381
 271:Drivers/lvgl/src/draw/lv_draw_label.c ****                             recolor = lv_color_make(r, g, b);
 1082              		.loc 1 271 40 is_stmt 0 view .LVU382
 1083 032a 9DF85800 		ldrb	r0, [sp, #88]	@ zero_extendqisi2
 1084 032e FFF7FEFF 		bl	hex_char_to_num
 1085              	.LVL112:
 271:Drivers/lvgl/src/draw/lv_draw_label.c ****                             recolor = lv_color_make(r, g, b);
 1086              		.loc 1 271 64 view .LVU383
 1087 0332 0701     		lsls	r7, r0, #4
 1088              	.LVL113:
 271:Drivers/lvgl/src/draw/lv_draw_label.c ****                             recolor = lv_color_make(r, g, b);
 1089              		.loc 1 271 72 view .LVU384
 1090 0334 9DF85900 		ldrb	r0, [sp, #89]	@ zero_extendqisi2
 1091 0338 FFF7FEFF 		bl	hex_char_to_num
 1092              	.LVL114:
 271:Drivers/lvgl/src/draw/lv_draw_label.c ****                             recolor = lv_color_make(r, g, b);
 1093              		.loc 1 271 37 view .LVU385
 1094 033c 3B18     		adds	r3, r7, r0
 1095              	.LVL115:
 272:Drivers/lvgl/src/draw/lv_draw_label.c ****                         }
 1096              		.loc 1 272 29 is_stmt 1 view .LVU386
 1097              	.LBB74:
 1098              	.LBI74:
 595:Drivers/lvgl/src/draw/../misc/lv_color.h **** {
 1099              		.loc 2 595 26 view .LVU387
 1100              	.LBB75:
 597:Drivers/lvgl/src/draw/../misc/lv_color.h **** }
 1101              		.loc 2 597 5 view .LVU388
 597:Drivers/lvgl/src/draw/../misc/lv_color.h **** }
 1102              		.loc 2 597 39 is_stmt 0 view .LVU389
 1103 033e C4F34211 		ubfx	r1, r4, #5, #3
 1104 0342 059A     		ldr	r2, [sp, #20]
 1105 0344 C2F3C402 		ubfx	r2, r2, #3, #5
 1106 0348 C3F3C403 		ubfx	r3, r3, #3, #5
 1107              	.LVL116:
 597:Drivers/lvgl/src/draw/../misc/lv_color.h **** }
 1108              		.loc 2 597 39 view .LVU390
 1109 034c C4F38204 		ubfx	r4, r4, #2, #3
 1110              	.LVL117:
 597:Drivers/lvgl/src/draw/../misc/lv_color.h **** }
 1111              		.loc 2 597 12 view .LVU391
 1112 0350 1198     		ldr	r0, [sp, #68]
 1113              	.LVL118:
 597:Drivers/lvgl/src/draw/../misc/lv_color.h **** }
 1114              		.loc 2 597 12 view .LVU392
 1115 0352 61F30200 		bfi	r0, r1, #0, #3
 1116 0356 0146     		mov	r1, r0
 1117 0358 62F3C701 		bfi	r1, r2, #3, #5
 1118 035c 0A46     		mov	r2, r1
 1119 035e 63F30C22 		bfi	r2, r3, #8, #5
 1120 0362 1346     		mov	r3, r2
 1121 0364 64F34F33 		bfi	r3, r4, #13, #3
 1122 0368 ADF84430 		strh	r3, [sp, #68]	@ movhi
 1123 036c ADF82E30 		strh	r3, [sp, #46]	@ movhi
 1124              	.LVL119:
ARM GAS  /var/folders/0z/tsy30v1j4xl4_7kw94k978ww0000gn/T//ccpQecOs.s 			page 56


 597:Drivers/lvgl/src/draw/../misc/lv_color.h **** }
 1125              		.loc 2 597 12 view .LVU393
 1126              	.LBE75:
 1127              	.LBE74:
 1128              	.LBE71:
 277:Drivers/lvgl/src/draw/lv_draw_label.c ****                     }
 1129              		.loc 1 277 35 view .LVU394
 1130 0370 0227     		movs	r7, #2
 277:Drivers/lvgl/src/draw/lv_draw_label.c ****                     }
 1131              		.loc 1 277 35 view .LVU395
 1132 0372 15E0     		b	.L35
 1133              	.LVL120:
 1134              	.L65:
 252:Drivers/lvgl/src/draw/lv_draw_label.c ****                     }
 1135              		.loc 1 252 35 view .LVU396
 1136 0374 0027     		movs	r7, #0
 1137              	.LVL121:
 252:Drivers/lvgl/src/draw/lv_draw_label.c ****                     }
 1138              		.loc 1 252 35 view .LVU397
 1139 0376 37E0     		b	.L37
 1140              	.LVL122:
 1141              	.L79:
 285:Drivers/lvgl/src/draw/lv_draw_label.c **** 
 1142              		.loc 1 285 43 is_stmt 1 discriminator 1 view .LVU398
 285:Drivers/lvgl/src/draw/lv_draw_label.c **** 
 1143              		.loc 1 285 49 is_stmt 0 discriminator 1 view .LVU399
 1144 0378 BDF82EA0 		ldrh	r10, [sp, #46]
 1145 037c 38E0     		b	.L45
 1146              	.LVL123:
 1147              	.L46:
 301:Drivers/lvgl/src/draw/lv_draw_label.c ****             lv_draw_letter(draw_ctx, &dsc_mod, &pos, letter);
 1148              		.loc 1 301 13 is_stmt 1 view .LVU400
 301:Drivers/lvgl/src/draw/lv_draw_label.c ****             lv_draw_letter(draw_ctx, &dsc_mod, &pos, letter);
 1149              		.loc 1 301 27 is_stmt 0 view .LVU401
 1150 037e ADF8BCA0 		strh	r10, [sp, #188]	@ movhi
 302:Drivers/lvgl/src/draw/lv_draw_label.c **** 
 1151              		.loc 1 302 13 is_stmt 1 view .LVU402
 1152 0382 139B     		ldr	r3, [sp, #76]
 1153 0384 29AA     		add	r2, sp, #164
 1154 0386 2CA9     		add	r1, sp, #176
 1155 0388 0798     		ldr	r0, [sp, #28]
 1156 038a FFF7FEFF 		bl	lv_draw_letter
 1157              	.LVL124:
 304:Drivers/lvgl/src/draw/lv_draw_label.c ****                 pos.x += letter_w + dsc->letter_space;
 1158              		.loc 1 304 13 view .LVU403
 304:Drivers/lvgl/src/draw/lv_draw_label.c ****                 pos.x += letter_w + dsc->letter_space;
 1159              		.loc 1 304 15 is_stmt 0 view .LVU404
 1160 038e 3CB1     		cbz	r4, .L35
 305:Drivers/lvgl/src/draw/lv_draw_label.c ****             }
 1161              		.loc 1 305 17 is_stmt 1 view .LVU405
 305:Drivers/lvgl/src/draw/lv_draw_label.c ****             }
 1162              		.loc 1 305 40 is_stmt 0 view .LVU406
 1163 0390 AB8A     		ldrh	r3, [r5, #20]
 305:Drivers/lvgl/src/draw/lv_draw_label.c ****             }
 1164              		.loc 1 305 35 view .LVU407
 1165 0392 1C44     		add	r4, r4, r3
 305:Drivers/lvgl/src/draw/lv_draw_label.c ****             }
ARM GAS  /var/folders/0z/tsy30v1j4xl4_7kw94k978ww0000gn/T//ccpQecOs.s 			page 57


 1166              		.loc 1 305 23 view .LVU408
 1167 0394 BDF8A430 		ldrh	r3, [sp, #164]
 1168 0398 13FA84F4 		uxtah	r4, r3, r4
 1169 039c ADF8A440 		strh	r4, [sp, #164]	@ movhi
 1170              	.LVL125:
 1171              	.L35:
 305:Drivers/lvgl/src/draw/lv_draw_label.c ****             }
 1172              		.loc 1 305 23 view .LVU409
 1173              	.LBE70:
 228:Drivers/lvgl/src/draw/lv_draw_label.c ****             uint32_t logical_char_pos = 0;
 1174              		.loc 1 228 17 is_stmt 1 view .LVU410
 228:Drivers/lvgl/src/draw/lv_draw_label.c ****             uint32_t logical_char_pos = 0;
 1175              		.loc 1 228 28 is_stmt 0 view .LVU411
 1176 03a0 ABEB0903 		sub	r3, fp, r9
 1177              	.LVL126:
 228:Drivers/lvgl/src/draw/lv_draw_label.c ****             uint32_t logical_char_pos = 0;
 1178              		.loc 1 228 17 view .LVU412
 1179 03a4 2599     		ldr	r1, [sp, #148]
 1180 03a6 8B42     		cmp	r3, r1
 1181 03a8 53D9     		bls	.L76
 1182              	.LBB77:
 229:Drivers/lvgl/src/draw/lv_draw_label.c ****             if(sel_start != 0xFFFF && sel_end != 0xFFFF) {
 1183              		.loc 1 229 13 is_stmt 1 view .LVU413
 1184              	.LVL127:
 230:Drivers/lvgl/src/draw/lv_draw_label.c **** #if LV_USE_BIDI
 1185              		.loc 1 230 13 view .LVU414
 230:Drivers/lvgl/src/draw/lv_draw_label.c **** #if LV_USE_BIDI
 1186              		.loc 1 230 15 is_stmt 0 view .LVU415
 1187 03aa 4FF6FF73 		movw	r3, #65535
 1188 03ae 9845     		cmp	r8, r3
 1189 03b0 3FF47AAF 		beq	.L63
 230:Drivers/lvgl/src/draw/lv_draw_label.c **** #if LV_USE_BIDI
 1190              		.loc 1 230 36 discriminator 1 view .LVU416
 1191 03b4 9E42     		cmp	r6, r3
 1192 03b6 3FF47AAF 		beq	.L64
 236:Drivers/lvgl/src/draw/lv_draw_label.c **** #endif
 1193              		.loc 1 236 17 is_stmt 1 view .LVU417
 236:Drivers/lvgl/src/draw/lv_draw_label.c **** #endif
 1194              		.loc 1 236 36 is_stmt 0 view .LVU418
 1195 03ba 854B     		ldr	r3, .L84
 1196 03bc 1B68     		ldr	r3, [r3]
 1197 03be 4944     		add	r1, r1, r9
 1198 03c0 0898     		ldr	r0, [sp, #32]
 1199 03c2 9847     		blx	r3
 1200              	.LVL128:
 1201 03c4 0590     		str	r0, [sp, #20]
 1202              	.LVL129:
 1203              	.L36:
 240:Drivers/lvgl/src/draw/lv_draw_label.c ****             uint32_t letter_next;
 1204              		.loc 1 240 13 is_stmt 1 view .LVU419
 241:Drivers/lvgl/src/draw/lv_draw_label.c ****             _lv_txt_encoded_letter_next_2(bidi_txt, &letter, &letter_next, &i);
 1205              		.loc 1 241 13 view .LVU420
 242:Drivers/lvgl/src/draw/lv_draw_label.c ****             /*Handle the re-color command*/
 1206              		.loc 1 242 13 view .LVU421
 1207 03c6 25AB     		add	r3, sp, #148
 1208 03c8 14AA     		add	r2, sp, #80
 1209 03ca 13A9     		add	r1, sp, #76
ARM GAS  /var/folders/0z/tsy30v1j4xl4_7kw94k978ww0000gn/T//ccpQecOs.s 			page 58


 1210 03cc 0698     		ldr	r0, [sp, #24]
 1211 03ce FFF7FEFF 		bl	_lv_txt_encoded_letter_next_2
 1212              	.LVL130:
 244:Drivers/lvgl/src/draw/lv_draw_label.c ****                 if(letter == (uint32_t)LV_TXT_COLOR_CMD[0]) {
 1213              		.loc 1 244 13 view .LVU422
 244:Drivers/lvgl/src/draw/lv_draw_label.c ****                 if(letter == (uint32_t)LV_TXT_COLOR_CMD[0]) {
 1214              		.loc 1 244 20 is_stmt 0 view .LVU423
 1215 03d2 6B7F     		ldrb	r3, [r5, #29]	@ zero_extendqisi2
 244:Drivers/lvgl/src/draw/lv_draw_label.c ****                 if(letter == (uint32_t)LV_TXT_COLOR_CMD[0]) {
 1216              		.loc 1 244 15 view .LVU424
 1217 03d4 13F0010F 		tst	r3, #1
 1218 03d8 06D0     		beq	.L37
 245:Drivers/lvgl/src/draw/lv_draw_label.c ****                     if(cmd_state == CMD_STATE_WAIT) { /*Start char*/
 1219              		.loc 1 245 17 is_stmt 1 view .LVU425
 245:Drivers/lvgl/src/draw/lv_draw_label.c ****                     if(cmd_state == CMD_STATE_WAIT) { /*Start char*/
 1220              		.loc 1 245 27 is_stmt 0 view .LVU426
 1221 03da 139B     		ldr	r3, [sp, #76]
 245:Drivers/lvgl/src/draw/lv_draw_label.c ****                     if(cmd_state == CMD_STATE_WAIT) { /*Start char*/
 1222              		.loc 1 245 19 view .LVU427
 1223 03dc 232B     		cmp	r3, #35
 1224 03de 3FF469AF 		beq	.L77
 1225              	.L38:
 261:Drivers/lvgl/src/draw/lv_draw_label.c ****                     if(letter == ' ') {
 1226              		.loc 1 261 17 is_stmt 1 view .LVU428
 261:Drivers/lvgl/src/draw/lv_draw_label.c ****                     if(letter == ' ') {
 1227              		.loc 1 261 19 is_stmt 0 view .LVU429
 1228 03e2 012F     		cmp	r7, #1
 1229 03e4 3FF472AF 		beq	.L78
 1230              	.LVL131:
 1231              	.L37:
 283:Drivers/lvgl/src/draw/lv_draw_label.c **** 
 1232              		.loc 1 283 13 is_stmt 1 view .LVU430
 283:Drivers/lvgl/src/draw/lv_draw_label.c **** 
 1233              		.loc 1 283 19 is_stmt 0 view .LVU431
 1234 03e8 B5F80CA0 		ldrh	r10, [r5, #12]
 1235              	.LVL132:
 285:Drivers/lvgl/src/draw/lv_draw_label.c **** 
 1236              		.loc 1 285 13 is_stmt 1 view .LVU432
 285:Drivers/lvgl/src/draw/lv_draw_label.c **** 
 1237              		.loc 1 285 15 is_stmt 0 view .LVU433
 1238 03ec 022F     		cmp	r7, #2
 1239 03ee C3D0     		beq	.L79
 1240              	.L45:
 287:Drivers/lvgl/src/draw/lv_draw_label.c **** 
 1241              		.loc 1 287 13 is_stmt 1 view .LVU434
 287:Drivers/lvgl/src/draw/lv_draw_label.c **** 
 1242              		.loc 1 287 24 is_stmt 0 view .LVU435
 1243 03f0 149A     		ldr	r2, [sp, #80]
 1244 03f2 1399     		ldr	r1, [sp, #76]
 1245 03f4 0498     		ldr	r0, [sp, #16]
 1246 03f6 FFF7FEFF 		bl	lv_font_get_glyph_width
 1247              	.LVL133:
 1248 03fa 0446     		mov	r4, r0
 1249              	.LVL134:
 289:Drivers/lvgl/src/draw/lv_draw_label.c ****                 if(logical_char_pos >= sel_start && logical_char_pos < sel_end) {
 1250              		.loc 1 289 13 is_stmt 1 view .LVU436
 289:Drivers/lvgl/src/draw/lv_draw_label.c ****                 if(logical_char_pos >= sel_start && logical_char_pos < sel_end) {
ARM GAS  /var/folders/0z/tsy30v1j4xl4_7kw94k978ww0000gn/T//ccpQecOs.s 			page 59


 1251              		.loc 1 289 15 is_stmt 0 view .LVU437
 1252 03fc 4FF6FF73 		movw	r3, #65535
 1253 0400 9845     		cmp	r8, r3
 1254 0402 BCD0     		beq	.L46
 289:Drivers/lvgl/src/draw/lv_draw_label.c ****                 if(logical_char_pos >= sel_start && logical_char_pos < sel_end) {
 1255              		.loc 1 289 36 discriminator 1 view .LVU438
 1256 0404 9E42     		cmp	r6, r3
 1257 0406 BAD0     		beq	.L46
 290:Drivers/lvgl/src/draw/lv_draw_label.c ****                     lv_area_t sel_coords;
 1258              		.loc 1 290 17 is_stmt 1 view .LVU439
 290:Drivers/lvgl/src/draw/lv_draw_label.c ****                     lv_area_t sel_coords;
 1259              		.loc 1 290 19 is_stmt 0 view .LVU440
 1260 0408 059B     		ldr	r3, [sp, #20]
 1261 040a 9845     		cmp	r8, r3
 1262 040c B7D8     		bhi	.L46
 290:Drivers/lvgl/src/draw/lv_draw_label.c ****                     lv_area_t sel_coords;
 1263              		.loc 1 290 50 discriminator 1 view .LVU441
 1264 040e 9E42     		cmp	r6, r3
 1265 0410 B5D9     		bls	.L46
 1266              	.LBB76:
 291:Drivers/lvgl/src/draw/lv_draw_label.c ****                     sel_coords.x1 = pos.x;
 1267              		.loc 1 291 21 is_stmt 1 view .LVU442
 292:Drivers/lvgl/src/draw/lv_draw_label.c ****                     sel_coords.y1 = pos.y;
 1268              		.loc 1 292 21 view .LVU443
 292:Drivers/lvgl/src/draw/lv_draw_label.c ****                     sel_coords.y1 = pos.y;
 1269              		.loc 1 292 40 is_stmt 0 view .LVU444
 1270 0412 BDF9A430 		ldrsh	r3, [sp, #164]
 292:Drivers/lvgl/src/draw/lv_draw_label.c ****                     sel_coords.y1 = pos.y;
 1271              		.loc 1 292 35 view .LVU445
 1272 0416 ADF85430 		strh	r3, [sp, #84]	@ movhi
 293:Drivers/lvgl/src/draw/lv_draw_label.c ****                     sel_coords.x2 = pos.x + letter_w + dsc->letter_space - 1;
 1273              		.loc 1 293 21 is_stmt 1 view .LVU446
 293:Drivers/lvgl/src/draw/lv_draw_label.c ****                     sel_coords.x2 = pos.x + letter_w + dsc->letter_space - 1;
 1274              		.loc 1 293 40 is_stmt 0 view .LVU447
 1275 041a BDF9A620 		ldrsh	r2, [sp, #166]
 293:Drivers/lvgl/src/draw/lv_draw_label.c ****                     sel_coords.x2 = pos.x + letter_w + dsc->letter_space - 1;
 1276              		.loc 1 293 35 view .LVU448
 1277 041e ADF85620 		strh	r2, [sp, #86]	@ movhi
 294:Drivers/lvgl/src/draw/lv_draw_label.c ****                     sel_coords.y2 = pos.y + line_height - 1;
 1278              		.loc 1 294 21 is_stmt 1 view .LVU449
 294:Drivers/lvgl/src/draw/lv_draw_label.c ****                     sel_coords.y2 = pos.y + line_height - 1;
 1279              		.loc 1 294 43 is_stmt 0 view .LVU450
 1280 0422 10FA83F3 		uxtah	r3, r0, r3
 294:Drivers/lvgl/src/draw/lv_draw_label.c ****                     sel_coords.y2 = pos.y + line_height - 1;
 1281              		.loc 1 294 59 view .LVU451
 1282 0426 A98A     		ldrh	r1, [r5, #20]
 294:Drivers/lvgl/src/draw/lv_draw_label.c ****                     sel_coords.y2 = pos.y + line_height - 1;
 1283              		.loc 1 294 54 view .LVU452
 1284 0428 11FA83F3 		uxtah	r3, r1, r3
 1285 042c 9BB2     		uxth	r3, r3
 294:Drivers/lvgl/src/draw/lv_draw_label.c ****                     sel_coords.y2 = pos.y + line_height - 1;
 1286              		.loc 1 294 74 view .LVU453
 1287 042e 013B     		subs	r3, r3, #1
 294:Drivers/lvgl/src/draw/lv_draw_label.c ****                     sel_coords.y2 = pos.y + line_height - 1;
 1288              		.loc 1 294 35 view .LVU454
 1289 0430 ADF85830 		strh	r3, [sp, #88]	@ movhi
 295:Drivers/lvgl/src/draw/lv_draw_label.c ****                     lv_draw_rect(draw_ctx, &draw_dsc_sel, &sel_coords);
ARM GAS  /var/folders/0z/tsy30v1j4xl4_7kw94k978ww0000gn/T//ccpQecOs.s 			page 60


 1290              		.loc 1 295 21 is_stmt 1 view .LVU455
 295:Drivers/lvgl/src/draw/lv_draw_label.c ****                     lv_draw_rect(draw_ctx, &draw_dsc_sel, &sel_coords);
 1291              		.loc 1 295 43 is_stmt 0 view .LVU456
 1292 0434 0D9B     		ldr	r3, [sp, #52]
 1293 0436 13FA82F3 		uxtah	r3, r3, r2
 1294 043a 9BB2     		uxth	r3, r3
 295:Drivers/lvgl/src/draw/lv_draw_label.c ****                     lv_draw_rect(draw_ctx, &draw_dsc_sel, &sel_coords);
 1295              		.loc 1 295 57 view .LVU457
 1296 043c 013B     		subs	r3, r3, #1
 295:Drivers/lvgl/src/draw/lv_draw_label.c ****                     lv_draw_rect(draw_ctx, &draw_dsc_sel, &sel_coords);
 1297              		.loc 1 295 35 view .LVU458
 1298 043e ADF85A30 		strh	r3, [sp, #90]	@ movhi
 296:Drivers/lvgl/src/draw/lv_draw_label.c ****                     color = dsc->sel_color;
 1299              		.loc 1 296 21 is_stmt 1 view .LVU459
 1300 0442 15AA     		add	r2, sp, #84
 1301 0444 17A9     		add	r1, sp, #92
 1302 0446 0798     		ldr	r0, [sp, #28]
 1303              	.LVL135:
 296:Drivers/lvgl/src/draw/lv_draw_label.c ****                     color = dsc->sel_color;
 1304              		.loc 1 296 21 is_stmt 0 view .LVU460
 1305 0448 FFF7FEFF 		bl	lv_draw_rect
 1306              	.LVL136:
 297:Drivers/lvgl/src/draw/lv_draw_label.c ****                 }
 1307              		.loc 1 297 21 is_stmt 1 view .LVU461
 297:Drivers/lvgl/src/draw/lv_draw_label.c ****                 }
 1308              		.loc 1 297 27 is_stmt 0 view .LVU462
 1309 044c B5F80EA0 		ldrh	r10, [r5, #14]
 1310 0450 95E7     		b	.L46
 1311              	.LVL137:
 1312              	.L76:
 297:Drivers/lvgl/src/draw/lv_draw_label.c ****                 }
 1313              		.loc 1 297 27 view .LVU463
 1314              	.LBE76:
 1315              	.LBE77:
 309:Drivers/lvgl/src/draw/lv_draw_label.c ****             lv_point_t p1;
 1316              		.loc 1 309 9 is_stmt 1 view .LVU464
 309:Drivers/lvgl/src/draw/lv_draw_label.c ****             lv_point_t p1;
 1317              		.loc 1 309 15 is_stmt 0 view .LVU465
 1318 0452 AB7F     		ldrb	r3, [r5, #30]	@ zero_extendqisi2
 309:Drivers/lvgl/src/draw/lv_draw_label.c ****             lv_point_t p1;
 1319              		.loc 1 309 11 view .LVU466
 1320 0454 13F0020F 		tst	r3, #2
 1321 0458 41D1     		bne	.L80
 1322              	.L50:
 320:Drivers/lvgl/src/draw/lv_draw_label.c ****             lv_point_t p1;
 1323              		.loc 1 320 9 is_stmt 1 view .LVU467
 320:Drivers/lvgl/src/draw/lv_draw_label.c ****             lv_point_t p1;
 1324              		.loc 1 320 15 is_stmt 0 view .LVU468
 1325 045a AB7F     		ldrb	r3, [r5, #30]	@ zero_extendqisi2
 320:Drivers/lvgl/src/draw/lv_draw_label.c ****             lv_point_t p1;
 1326              		.loc 1 320 11 view .LVU469
 1327 045c 13F0010F 		tst	r3, #1
 1328 0460 62D1     		bne	.L81
 1329              	.L51:
 336:Drivers/lvgl/src/draw/lv_draw_label.c ****         line_end += _lv_txt_get_next_line(&txt[line_start], font, dsc->letter_space, w, NULL, dsc->
 1330              		.loc 1 336 9 is_stmt 1 view .LVU470
 1331              	.LVL138:
ARM GAS  /var/folders/0z/tsy30v1j4xl4_7kw94k978ww0000gn/T//ccpQecOs.s 			page 61


 337:Drivers/lvgl/src/draw/lv_draw_label.c **** 
 1332              		.loc 1 337 9 view .LVU471
 337:Drivers/lvgl/src/draw/lv_draw_label.c **** 
 1333              		.loc 1 337 21 is_stmt 0 view .LVU472
 1334 0462 089B     		ldr	r3, [sp, #32]
 1335 0464 03EB0B04 		add	r4, r3, fp
 337:Drivers/lvgl/src/draw/lv_draw_label.c **** 
 1336              		.loc 1 337 98 view .LVU473
 1337 0468 6B7F     		ldrb	r3, [r5, #29]	@ zero_extendqisi2
 337:Drivers/lvgl/src/draw/lv_draw_label.c **** 
 1338              		.loc 1 337 21 view .LVU474
 1339 046a 0193     		str	r3, [sp, #4]
 1340 046c 0023     		movs	r3, #0
 1341 046e 0093     		str	r3, [sp]
 1342 0470 0A9B     		ldr	r3, [sp, #40]
 1343 0472 B5F91420 		ldrsh	r2, [r5, #20]
 1344 0476 0499     		ldr	r1, [sp, #16]
 1345 0478 2046     		mov	r0, r4
 1346 047a FFF7FEFF 		bl	_lv_txt_get_next_line
 1347              	.LVL139:
 337:Drivers/lvgl/src/draw/lv_draw_label.c **** 
 1348              		.loc 1 337 18 view .LVU475
 1349 047e 0BEB0007 		add	r7, fp, r0
 1350              	.LVL140:
 339:Drivers/lvgl/src/draw/lv_draw_label.c ****         /*Align to middle*/
 1351              		.loc 1 339 9 is_stmt 1 view .LVU476
 339:Drivers/lvgl/src/draw/lv_draw_label.c ****         /*Align to middle*/
 1352              		.loc 1 339 23 is_stmt 0 view .LVU477
 1353 0482 099B     		ldr	r3, [sp, #36]
 1354 0484 B3F90030 		ldrsh	r3, [r3]
 339:Drivers/lvgl/src/draw/lv_draw_label.c ****         /*Align to middle*/
 1355              		.loc 1 339 15 view .LVU478
 1356 0488 ADF8A430 		strh	r3, [sp, #164]	@ movhi
 341:Drivers/lvgl/src/draw/lv_draw_label.c ****             line_width =
 1357              		.loc 1 341 9 is_stmt 1 view .LVU479
 341:Drivers/lvgl/src/draw/lv_draw_label.c ****             line_width =
 1358              		.loc 1 341 11 is_stmt 0 view .LVU480
 1359 048c 0C9B     		ldr	r3, [sp, #48]
 1360 048e 022B     		cmp	r3, #2
 1361 0490 6DD0     		beq	.L82
 349:Drivers/lvgl/src/draw/lv_draw_label.c ****             line_width =
 1362              		.loc 1 349 14 is_stmt 1 view .LVU481
 349:Drivers/lvgl/src/draw/lv_draw_label.c ****             line_width =
 1363              		.loc 1 349 16 is_stmt 0 view .LVU482
 1364 0492 0C9B     		ldr	r3, [sp, #48]
 1365 0494 032B     		cmp	r3, #3
 1366 0496 00F08480 		beq	.L83
 1367              	.L53:
 356:Drivers/lvgl/src/draw/lv_draw_label.c **** 
 1368              		.loc 1 356 9 is_stmt 1 view .LVU483
 356:Drivers/lvgl/src/draw/lv_draw_label.c **** 
 1369              		.loc 1 356 15 is_stmt 0 view .LVU484
 1370 049a BDF8A630 		ldrh	r3, [sp, #166]
 1371 049e 0D9A     		ldr	r2, [sp, #52]
 1372 04a0 1344     		add	r3, r3, r2
 1373 04a2 1BB2     		sxth	r3, r3
 1374 04a4 ADF8A630 		strh	r3, [sp, #166]	@ movhi
ARM GAS  /var/folders/0z/tsy30v1j4xl4_7kw94k978ww0000gn/T//ccpQecOs.s 			page 62


 358:Drivers/lvgl/src/draw/lv_draw_label.c ****     }
 1375              		.loc 1 358 9 is_stmt 1 view .LVU485
 358:Drivers/lvgl/src/draw/lv_draw_label.c ****     }
 1376              		.loc 1 358 28 is_stmt 0 view .LVU486
 1377 04a8 079A     		ldr	r2, [sp, #28]
 1378 04aa 9268     		ldr	r2, [r2, #8]
 358:Drivers/lvgl/src/draw/lv_draw_label.c ****     }
 1379              		.loc 1 358 39 view .LVU487
 1380 04ac B2F90620 		ldrsh	r2, [r2, #6]
 336:Drivers/lvgl/src/draw/lv_draw_label.c ****         line_end += _lv_txt_get_next_line(&txt[line_start], font, dsc->letter_space, w, NULL, dsc->
 1381              		.loc 1 336 20 view .LVU488
 1382 04b0 D946     		mov	r9, fp
 358:Drivers/lvgl/src/draw/lv_draw_label.c ****     }
 1383              		.loc 1 358 11 view .LVU489
 1384 04b2 9342     		cmp	r3, r2
 1385 04b4 3FF7C4AD 		bgt	.L18
 1386              	.LVL141:
 337:Drivers/lvgl/src/draw/lv_draw_label.c **** 
 1387              		.loc 1 337 18 view .LVU490
 1388 04b8 BB46     		mov	fp, r7
 1389              	.LVL142:
 1390              	.L34:
 337:Drivers/lvgl/src/draw/lv_draw_label.c **** 
 1391              		.loc 1 337 18 view .LVU491
 1392              	.LBE69:
 215:Drivers/lvgl/src/draw/lv_draw_label.c ****         pos.x += x_ofs;
 1393              		.loc 1 215 27 is_stmt 1 view .LVU492
 215:Drivers/lvgl/src/draw/lv_draw_label.c ****         pos.x += x_ofs;
 1394              		.loc 1 215 14 is_stmt 0 view .LVU493
 1395 04ba 089B     		ldr	r3, [sp, #32]
 1396 04bc 03EB0902 		add	r2, r3, r9
 1397 04c0 0692     		str	r2, [sp, #24]
 1398 04c2 13F80930 		ldrb	r3, [r3, r9]	@ zero_extendqisi2
 215:Drivers/lvgl/src/draw/lv_draw_label.c ****         pos.x += x_ofs;
 1399              		.loc 1 215 27 view .LVU494
 1400 04c6 002B     		cmp	r3, #0
 1401 04c8 3FF4BAAD 		beq	.L18
 1402              	.LBB84:
 216:Drivers/lvgl/src/draw/lv_draw_label.c **** 
 1403              		.loc 1 216 9 is_stmt 1 view .LVU495
 216:Drivers/lvgl/src/draw/lv_draw_label.c **** 
 1404              		.loc 1 216 15 is_stmt 0 view .LVU496
 1405 04cc BDF8A430 		ldrh	r3, [sp, #164]
 1406 04d0 0E9A     		ldr	r2, [sp, #56]
 1407 04d2 1344     		add	r3, r3, r2
 1408 04d4 ADF8A430 		strh	r3, [sp, #164]	@ movhi
 219:Drivers/lvgl/src/draw/lv_draw_label.c ****         i         = 0;
 1409              		.loc 1 219 9 is_stmt 1 view .LVU497
 1410              	.LVL143:
 220:Drivers/lvgl/src/draw/lv_draw_label.c **** #if LV_USE_BIDI
 1411              		.loc 1 220 9 view .LVU498
 220:Drivers/lvgl/src/draw/lv_draw_label.c **** #if LV_USE_BIDI
 1412              		.loc 1 220 19 is_stmt 0 view .LVU499
 1413 04d8 0027     		movs	r7, #0
 1414 04da 2597     		str	r7, [sp, #148]
 225:Drivers/lvgl/src/draw/lv_draw_label.c **** #endif
 1415              		.loc 1 225 9 is_stmt 1 view .LVU500
ARM GAS  /var/folders/0z/tsy30v1j4xl4_7kw94k978ww0000gn/T//ccpQecOs.s 			page 63


 1416              	.LVL144:
 228:Drivers/lvgl/src/draw/lv_draw_label.c ****             uint32_t logical_char_pos = 0;
 1417              		.loc 1 228 9 view .LVU501
 228:Drivers/lvgl/src/draw/lv_draw_label.c ****             uint32_t logical_char_pos = 0;
 1418              		.loc 1 228 14 is_stmt 0 view .LVU502
 1419 04dc 60E7     		b	.L35
 1420              	.LVL145:
 1421              	.L80:
 1422              	.LBB78:
 310:Drivers/lvgl/src/draw/lv_draw_label.c ****             lv_point_t p2;
 1423              		.loc 1 310 13 is_stmt 1 view .LVU503
 311:Drivers/lvgl/src/draw/lv_draw_label.c ****             p1.x = pos_x_start;
 1424              		.loc 1 311 13 view .LVU504
 312:Drivers/lvgl/src/draw/lv_draw_label.c ****             p1.y = pos.y + (dsc->font->line_height / 2)  + line_dsc.width / 2;
 1425              		.loc 1 312 13 view .LVU505
 312:Drivers/lvgl/src/draw/lv_draw_label.c ****             p1.y = pos.y + (dsc->font->line_height / 2)  + line_dsc.width / 2;
 1426              		.loc 1 312 18 is_stmt 0 view .LVU506
 1427 04de 109B     		ldr	r3, [sp, #64]
 1428 04e0 ADF85030 		strh	r3, [sp, #80]	@ movhi
 313:Drivers/lvgl/src/draw/lv_draw_label.c ****             p2.x = pos.x;
 1429              		.loc 1 313 13 is_stmt 1 view .LVU507
 313:Drivers/lvgl/src/draw/lv_draw_label.c ****             p2.x = pos.x;
 1430              		.loc 1 313 23 is_stmt 0 view .LVU508
 1431 04e4 BDF8A630 		ldrh	r3, [sp, #166]
 313:Drivers/lvgl/src/draw/lv_draw_label.c ****             p2.x = pos.x;
 1432              		.loc 1 313 32 view .LVU509
 1433 04e8 2A68     		ldr	r2, [r5]
 313:Drivers/lvgl/src/draw/lv_draw_label.c ****             p2.x = pos.x;
 1434              		.loc 1 313 38 view .LVU510
 1435 04ea B2F90820 		ldrsh	r2, [r2, #8]
 313:Drivers/lvgl/src/draw/lv_draw_label.c ****             p2.x = pos.x;
 1436              		.loc 1 313 26 view .LVU511
 1437 04ee 02EBD272 		add	r2, r2, r2, lsr #31
 1438 04f2 03EB6203 		add	r3, r3, r2, asr #1
 313:Drivers/lvgl/src/draw/lv_draw_label.c ****             p2.x = pos.x;
 1439              		.loc 1 313 68 view .LVU512
 1440 04f6 BDF99A20 		ldrsh	r2, [sp, #154]
 313:Drivers/lvgl/src/draw/lv_draw_label.c ****             p2.x = pos.x;
 1441              		.loc 1 313 58 view .LVU513
 1442 04fa 02EBD272 		add	r2, r2, r2, lsr #31
 1443 04fe 5210     		asrs	r2, r2, #1
 1444 0500 12FA83F3 		uxtah	r3, r2, r3
 1445 0504 1BB2     		sxth	r3, r3
 313:Drivers/lvgl/src/draw/lv_draw_label.c ****             p2.x = pos.x;
 1446              		.loc 1 313 18 view .LVU514
 1447 0506 ADF85230 		strh	r3, [sp, #82]	@ movhi
 314:Drivers/lvgl/src/draw/lv_draw_label.c ****             p2.y = p1.y;
 1448              		.loc 1 314 13 is_stmt 1 view .LVU515
 314:Drivers/lvgl/src/draw/lv_draw_label.c ****             p2.y = p1.y;
 1449              		.loc 1 314 23 is_stmt 0 view .LVU516
 1450 050a BDF9A420 		ldrsh	r2, [sp, #164]
 314:Drivers/lvgl/src/draw/lv_draw_label.c ****             p2.y = p1.y;
 1451              		.loc 1 314 18 view .LVU517
 1452 050e ADF85420 		strh	r2, [sp, #84]	@ movhi
 315:Drivers/lvgl/src/draw/lv_draw_label.c ****             line_dsc.color = color;
 1453              		.loc 1 315 13 is_stmt 1 view .LVU518
 315:Drivers/lvgl/src/draw/lv_draw_label.c ****             line_dsc.color = color;
ARM GAS  /var/folders/0z/tsy30v1j4xl4_7kw94k978ww0000gn/T//ccpQecOs.s 			page 64


 1454              		.loc 1 315 18 is_stmt 0 view .LVU519
 1455 0512 ADF85630 		strh	r3, [sp, #86]	@ movhi
 316:Drivers/lvgl/src/draw/lv_draw_label.c ****             lv_draw_line(draw_ctx, &line_dsc, &p1, &p2);
 1456              		.loc 1 316 13 is_stmt 1 view .LVU520
 316:Drivers/lvgl/src/draw/lv_draw_label.c ****             lv_draw_line(draw_ctx, &line_dsc, &p1, &p2);
 1457              		.loc 1 316 28 is_stmt 0 view .LVU521
 1458 0516 ADF898A0 		strh	r10, [sp, #152]	@ movhi
 317:Drivers/lvgl/src/draw/lv_draw_label.c ****         }
 1459              		.loc 1 317 13 is_stmt 1 view .LVU522
 1460 051a 15AB     		add	r3, sp, #84
 1461 051c 14AA     		add	r2, sp, #80
 1462 051e 26A9     		add	r1, sp, #152
 1463 0520 0798     		ldr	r0, [sp, #28]
 1464 0522 FFF7FEFF 		bl	lv_draw_line
 1465              	.LVL146:
 1466 0526 98E7     		b	.L50
 1467              	.L81:
 317:Drivers/lvgl/src/draw/lv_draw_label.c ****         }
 1468              		.loc 1 317 13 is_stmt 0 view .LVU523
 1469              	.LBE78:
 1470              	.LBB79:
 321:Drivers/lvgl/src/draw/lv_draw_label.c ****             lv_point_t p2;
 1471              		.loc 1 321 13 is_stmt 1 view .LVU524
 322:Drivers/lvgl/src/draw/lv_draw_label.c ****             p1.x = pos_x_start;
 1472              		.loc 1 322 13 view .LVU525
 323:Drivers/lvgl/src/draw/lv_draw_label.c ****             p1.y = pos.y + dsc->font->line_height - dsc->font->base_line - font->underline_position
 1473              		.loc 1 323 13 view .LVU526
 323:Drivers/lvgl/src/draw/lv_draw_label.c ****             p1.y = pos.y + dsc->font->line_height - dsc->font->base_line - font->underline_position
 1474              		.loc 1 323 18 is_stmt 0 view .LVU527
 1475 0528 109B     		ldr	r3, [sp, #64]
 1476 052a ADF85030 		strh	r3, [sp, #80]	@ movhi
 324:Drivers/lvgl/src/draw/lv_draw_label.c ****             p2.x = pos.x;
 1477              		.loc 1 324 13 is_stmt 1 view .LVU528
 324:Drivers/lvgl/src/draw/lv_draw_label.c ****             p2.x = pos.x;
 1478              		.loc 1 324 23 is_stmt 0 view .LVU529
 1479 052e BDF8A630 		ldrh	r3, [sp, #166]
 324:Drivers/lvgl/src/draw/lv_draw_label.c ****             p2.x = pos.x;
 1480              		.loc 1 324 31 view .LVU530
 1481 0532 2A68     		ldr	r2, [r5]
 324:Drivers/lvgl/src/draw/lv_draw_label.c ****             p2.x = pos.x;
 1482              		.loc 1 324 37 view .LVU531
 1483 0534 1189     		ldrh	r1, [r2, #8]
 324:Drivers/lvgl/src/draw/lv_draw_label.c ****             p2.x = pos.x;
 1484              		.loc 1 324 26 view .LVU532
 1485 0536 0B44     		add	r3, r3, r1
 1486 0538 9BB2     		uxth	r3, r3
 324:Drivers/lvgl/src/draw/lv_draw_label.c ****             p2.x = pos.x;
 1487              		.loc 1 324 62 view .LVU533
 1488 053a 5289     		ldrh	r2, [r2, #10]
 324:Drivers/lvgl/src/draw/lv_draw_label.c ****             p2.x = pos.x;
 1489              		.loc 1 324 51 view .LVU534
 1490 053c 9B1A     		subs	r3, r3, r2
 1491 053e 9BB2     		uxth	r3, r3
 324:Drivers/lvgl/src/draw/lv_draw_label.c ****             p2.x = pos.x;
 1492              		.loc 1 324 80 view .LVU535
 1493 0540 049A     		ldr	r2, [sp, #16]
 1494 0542 92F90D20 		ldrsb	r2, [r2, #13]
ARM GAS  /var/folders/0z/tsy30v1j4xl4_7kw94k978ww0000gn/T//ccpQecOs.s 			page 65


 1495 0546 92B2     		uxth	r2, r2
 324:Drivers/lvgl/src/draw/lv_draw_label.c ****             p2.x = pos.x;
 1496              		.loc 1 324 74 view .LVU536
 1497 0548 9B1A     		subs	r3, r3, r2
 1498 054a 1BB2     		sxth	r3, r3
 324:Drivers/lvgl/src/draw/lv_draw_label.c ****             p2.x = pos.x;
 1499              		.loc 1 324 18 view .LVU537
 1500 054c ADF85230 		strh	r3, [sp, #82]	@ movhi
 325:Drivers/lvgl/src/draw/lv_draw_label.c ****             p2.y = p1.y;
 1501              		.loc 1 325 13 is_stmt 1 view .LVU538
 325:Drivers/lvgl/src/draw/lv_draw_label.c ****             p2.y = p1.y;
 1502              		.loc 1 325 23 is_stmt 0 view .LVU539
 1503 0550 BDF9A420 		ldrsh	r2, [sp, #164]
 325:Drivers/lvgl/src/draw/lv_draw_label.c ****             p2.y = p1.y;
 1504              		.loc 1 325 18 view .LVU540
 1505 0554 ADF85420 		strh	r2, [sp, #84]	@ movhi
 326:Drivers/lvgl/src/draw/lv_draw_label.c ****             line_dsc.color = color;
 1506              		.loc 1 326 13 is_stmt 1 view .LVU541
 326:Drivers/lvgl/src/draw/lv_draw_label.c ****             line_dsc.color = color;
 1507              		.loc 1 326 18 is_stmt 0 view .LVU542
 1508 0558 ADF85630 		strh	r3, [sp, #86]	@ movhi
 327:Drivers/lvgl/src/draw/lv_draw_label.c ****             lv_draw_line(draw_ctx, &line_dsc, &p1, &p2);
 1509              		.loc 1 327 13 is_stmt 1 view .LVU543
 327:Drivers/lvgl/src/draw/lv_draw_label.c ****             lv_draw_line(draw_ctx, &line_dsc, &p1, &p2);
 1510              		.loc 1 327 28 is_stmt 0 view .LVU544
 1511 055c ADF898A0 		strh	r10, [sp, #152]	@ movhi
 328:Drivers/lvgl/src/draw/lv_draw_label.c ****         }
 1512              		.loc 1 328 13 is_stmt 1 view .LVU545
 1513 0560 15AB     		add	r3, sp, #84
 1514 0562 14AA     		add	r2, sp, #80
 1515 0564 26A9     		add	r1, sp, #152
 1516 0566 0798     		ldr	r0, [sp, #28]
 1517 0568 FFF7FEFF 		bl	lv_draw_line
 1518              	.LVL147:
 1519 056c 79E7     		b	.L51
 1520              	.LVL148:
 1521              	.L82:
 328:Drivers/lvgl/src/draw/lv_draw_label.c ****         }
 1522              		.loc 1 328 13 is_stmt 0 view .LVU546
 1523              	.LBE79:
 342:Drivers/lvgl/src/draw/lv_draw_label.c ****                 lv_txt_get_width(&txt[line_start], line_end - line_start, font, dsc->letter_space, 
 1524              		.loc 1 342 13 is_stmt 1 view .LVU547
 343:Drivers/lvgl/src/draw/lv_draw_label.c **** 
 1525              		.loc 1 343 103 is_stmt 0 view .LVU548
 1526 056e 6B7F     		ldrb	r3, [r5, #29]	@ zero_extendqisi2
 343:Drivers/lvgl/src/draw/lv_draw_label.c **** 
 1527              		.loc 1 343 17 view .LVU549
 1528 0570 0093     		str	r3, [sp]
 1529 0572 B5F91430 		ldrsh	r3, [r5, #20]
 1530 0576 049A     		ldr	r2, [sp, #16]
 1531 0578 0146     		mov	r1, r0
 1532 057a 2046     		mov	r0, r4
 1533 057c FFF7FEFF 		bl	lv_txt_get_width
 1534              	.LVL149:
 345:Drivers/lvgl/src/draw/lv_draw_label.c **** 
 1535              		.loc 1 345 13 is_stmt 1 view .LVU550
 1536              	.LBB80:
ARM GAS  /var/folders/0z/tsy30v1j4xl4_7kw94k978ww0000gn/T//ccpQecOs.s 			page 66


 1537              	.LBI80:
 123:Drivers/lvgl/src/draw/../misc/../font/../misc/lv_area.h **** {
 1538              		.loc 4 123 26 view .LVU551
 1539              	.LBB81:
 1540              		.loc 4 125 5 view .LVU552
 1541              		.loc 4 125 31 is_stmt 0 view .LVU553
 1542 0580 099A     		ldr	r2, [sp, #36]
 1543 0582 9388     		ldrh	r3, [r2, #4]
 1544              		.loc 4 125 44 view .LVU554
 1545 0584 1288     		ldrh	r2, [r2]
 1546              		.loc 4 125 36 view .LVU555
 1547 0586 9B1A     		subs	r3, r3, r2
 1548 0588 9BB2     		uxth	r3, r3
 1549              		.loc 4 125 49 view .LVU556
 1550 058a 0133     		adds	r3, r3, #1
 1551              		.loc 4 125 12 view .LVU557
 1552 058c 1BB2     		sxth	r3, r3
 1553              	.LVL150:
 1554              		.loc 4 125 12 view .LVU558
 1555              	.LBE81:
 1556              	.LBE80:
 345:Drivers/lvgl/src/draw/lv_draw_label.c **** 
 1557              		.loc 1 345 49 view .LVU559
 1558 058e 181A     		subs	r0, r3, r0
 1559              	.LVL151:
 345:Drivers/lvgl/src/draw/lv_draw_label.c **** 
 1560              		.loc 1 345 63 view .LVU560
 1561 0590 00EBD070 		add	r0, r0, r0, lsr #31
 345:Drivers/lvgl/src/draw/lv_draw_label.c **** 
 1562              		.loc 1 345 19 view .LVU561
 1563 0594 BDF8A430 		ldrh	r3, [sp, #164]
 1564 0598 03EB6003 		add	r3, r3, r0, asr #1
 1565 059c ADF8A430 		strh	r3, [sp, #164]	@ movhi
 1566 05a0 7BE7     		b	.L53
 1567              	.L83:
 350:Drivers/lvgl/src/draw/lv_draw_label.c ****                 lv_txt_get_width(&txt[line_start], line_end - line_start, font, dsc->letter_space, 
 1568              		.loc 1 350 13 is_stmt 1 view .LVU562
 351:Drivers/lvgl/src/draw/lv_draw_label.c ****             pos.x += lv_area_get_width(coords) - line_width;
 1569              		.loc 1 351 103 is_stmt 0 view .LVU563
 1570 05a2 6B7F     		ldrb	r3, [r5, #29]	@ zero_extendqisi2
 351:Drivers/lvgl/src/draw/lv_draw_label.c ****             pos.x += lv_area_get_width(coords) - line_width;
 1571              		.loc 1 351 17 view .LVU564
 1572 05a4 0093     		str	r3, [sp]
 1573 05a6 B5F91430 		ldrsh	r3, [r5, #20]
 1574 05aa 049A     		ldr	r2, [sp, #16]
 1575 05ac 0146     		mov	r1, r0
 1576 05ae 2046     		mov	r0, r4
 1577 05b0 FFF7FEFF 		bl	lv_txt_get_width
 1578              	.LVL152:
 352:Drivers/lvgl/src/draw/lv_draw_label.c ****         }
 1579              		.loc 1 352 13 is_stmt 1 view .LVU565
 1580              	.LBB82:
 1581              	.LBI82:
 123:Drivers/lvgl/src/draw/../misc/../font/../misc/lv_area.h **** {
 1582              		.loc 4 123 26 view .LVU566
 1583              	.LBB83:
 1584              		.loc 4 125 5 view .LVU567
ARM GAS  /var/folders/0z/tsy30v1j4xl4_7kw94k978ww0000gn/T//ccpQecOs.s 			page 67


 1585              		.loc 4 125 31 is_stmt 0 view .LVU568
 1586 05b4 099A     		ldr	r2, [sp, #36]
 1587 05b6 9388     		ldrh	r3, [r2, #4]
 1588              		.loc 4 125 44 view .LVU569
 1589 05b8 1288     		ldrh	r2, [r2]
 1590              		.loc 4 125 36 view .LVU570
 1591 05ba 9B1A     		subs	r3, r3, r2
 1592 05bc 9BB2     		uxth	r3, r3
 1593              		.loc 4 125 49 view .LVU571
 1594 05be 0133     		adds	r3, r3, #1
 1595              		.loc 4 125 12 view .LVU572
 1596 05c0 1BB2     		sxth	r3, r3
 1597              	.LVL153:
 1598              		.loc 4 125 12 view .LVU573
 1599              	.LBE83:
 1600              	.LBE82:
 352:Drivers/lvgl/src/draw/lv_draw_label.c ****         }
 1601              		.loc 1 352 48 view .LVU574
 1602 05c2 1B1A     		subs	r3, r3, r0
 352:Drivers/lvgl/src/draw/lv_draw_label.c ****         }
 1603              		.loc 1 352 19 view .LVU575
 1604 05c4 BDF8A420 		ldrh	r2, [sp, #164]
 1605 05c8 1344     		add	r3, r3, r2
 1606 05ca ADF8A430 		strh	r3, [sp, #164]	@ movhi
 1607 05ce 64E7     		b	.L53
 1608              	.L85:
 1609              		.align	2
 1610              	.L84:
 1611 05d0 00000000 		.word	_lv_txt_encoded_get_char_id
 1612              	.LBE84:
 1613              		.cfi_endproc
 1614              	.LFE162:
 1616              		.text
 1617              	.Letext0:
 1618              		.file 7 "/Users/johannes/Library/Application Support/Code/User/globalStorage/bmd.stm32-for-vscode/
 1619              		.file 8 "/Users/johannes/Library/Application Support/Code/User/globalStorage/bmd.stm32-for-vscode/
 1620              		.file 9 "/Users/johannes/Library/Application Support/Code/User/globalStorage/bmd.stm32-for-vscode/
 1621              		.file 10 "Drivers/lvgl/src/draw/../misc/lv_types.h"
 1622              		.file 11 "Drivers/lvgl/src/draw/../misc/lv_txt.h"
 1623              		.file 12 "Drivers/lvgl/src/draw/../misc/lv_style.h"
 1624              		.file 13 "Drivers/lvgl/src/draw/lv_img_buf.h"
 1625              		.file 14 "Drivers/lvgl/src/draw/lv_draw_rect.h"
 1626              		.file 15 "Drivers/lvgl/src/draw/lv_draw_label.h"
 1627              		.file 16 "Drivers/lvgl/src/draw/lv_draw_img.h"
 1628              		.file 17 "Drivers/lvgl/src/draw/lv_draw_line.h"
 1629              		.file 18 "Drivers/lvgl/src/draw/lv_draw_arc.h"
 1630              		.file 19 "Drivers/lvgl/src/draw/lv_draw_layer.h"
 1631              		.file 20 "Drivers/lvgl/src/draw/lv_draw.h"
ARM GAS  /var/folders/0z/tsy30v1j4xl4_7kw94k978ww0000gn/T//ccpQecOs.s 			page 68


DEFINED SYMBOLS
                            *ABS*:0000000000000000 lv_draw_label.c
/var/folders/0z/tsy30v1j4xl4_7kw94k978ww0000gn/T//ccpQecOs.s:20     .text.hex_char_to_num:0000000000000000 $t
/var/folders/0z/tsy30v1j4xl4_7kw94k978ww0000gn/T//ccpQecOs.s:25     .text.hex_char_to_num:0000000000000000 hex_char_to_num
/var/folders/0z/tsy30v1j4xl4_7kw94k978ww0000gn/T//ccpQecOs.s:65     .text.hex_char_to_num:000000000000001c $d
/var/folders/0z/tsy30v1j4xl4_7kw94k978ww0000gn/T//ccpQecOs.s:71     .text.hex_char_to_num:0000000000000022 $t
/var/folders/0z/tsy30v1j4xl4_7kw94k978ww0000gn/T//ccpQecOs.s:127    .text.lv_draw_label_dsc_init:0000000000000000 $t
/var/folders/0z/tsy30v1j4xl4_7kw94k978ww0000gn/T//ccpQecOs.s:133    .text.lv_draw_label_dsc_init:0000000000000000 lv_draw_label_dsc_init
/var/folders/0z/tsy30v1j4xl4_7kw94k978ww0000gn/T//ccpQecOs.s:223    .text.lv_draw_label_dsc_init:0000000000000034 $d
/var/folders/0z/tsy30v1j4xl4_7kw94k978ww0000gn/T//ccpQecOs.s:228    .text.lv_draw_letter:0000000000000000 $t
/var/folders/0z/tsy30v1j4xl4_7kw94k978ww0000gn/T//ccpQecOs.s:234    .text.lv_draw_letter:0000000000000000 lv_draw_letter
/var/folders/0z/tsy30v1j4xl4_7kw94k978ww0000gn/T//ccpQecOs.s:258    .text.lv_draw_label:0000000000000000 $t
/var/folders/0z/tsy30v1j4xl4_7kw94k978ww0000gn/T//ccpQecOs.s:264    .text.lv_draw_label:0000000000000000 lv_draw_label
/var/folders/0z/tsy30v1j4xl4_7kw94k978ww0000gn/T//ccpQecOs.s:1611   .text.lv_draw_label:00000000000005d0 $d

UNDEFINED SYMBOLS
lv_memset_00
lv_palette_main
lv_font_montserrat_14
_lv_area_intersect
lv_txt_get_size
_lv_txt_get_next_line
lv_draw_rect_dsc_init
lv_txt_get_width
lv_draw_line_dsc_init
_lv_txt_encoded_letter_next_2
lv_font_get_glyph_width
lv_draw_rect
lv_draw_line
_lv_txt_encoded_get_char_id
