ARM GAS  /var/folders/0z/tsy30v1j4xl4_7kw94k978ww0000gn/T//cci0thdE.s 			page 1


   1              		.cpu cortex-m4
   2              		.arch armv7e-m
   3              		.fpu fpv4-sp-d16
   4              		.eabi_attribute 27, 1
   5              		.eabi_attribute 28, 1
   6              		.eabi_attribute 20, 1
   7              		.eabi_attribute 21, 1
   8              		.eabi_attribute 23, 3
   9              		.eabi_attribute 24, 1
  10              		.eabi_attribute 25, 1
  11              		.eabi_attribute 26, 1
  12              		.eabi_attribute 30, 1
  13              		.eabi_attribute 34, 1
  14              		.eabi_attribute 18, 4
  15              		.file	"lv_draw_sw_gradient.c"
  16              		.text
  17              	.Ltext0:
  18              		.cfi_sections	.debug_frame
  19              		.section	.text.compute_key,"ax",%progbits
  20              		.align	1
  21              		.syntax unified
  22              		.thumb
  23              		.thumb_func
  25              	compute_key:
  26              	.LVL0:
  27              	.LFB56:
  28              		.file 1 "Drivers/lvgl/src/draw/sw/lv_draw_sw_gradient.c"
   1:Drivers/lvgl/src/draw/sw/lv_draw_sw_gradient.c **** /**
   2:Drivers/lvgl/src/draw/sw/lv_draw_sw_gradient.c ****  * @file lv_draw_sw_gradient.c
   3:Drivers/lvgl/src/draw/sw/lv_draw_sw_gradient.c ****  *
   4:Drivers/lvgl/src/draw/sw/lv_draw_sw_gradient.c ****  */
   5:Drivers/lvgl/src/draw/sw/lv_draw_sw_gradient.c **** 
   6:Drivers/lvgl/src/draw/sw/lv_draw_sw_gradient.c **** /*********************
   7:Drivers/lvgl/src/draw/sw/lv_draw_sw_gradient.c ****  *      INCLUDES
   8:Drivers/lvgl/src/draw/sw/lv_draw_sw_gradient.c ****  *********************/
   9:Drivers/lvgl/src/draw/sw/lv_draw_sw_gradient.c **** #include "lv_draw_sw_gradient.h"
  10:Drivers/lvgl/src/draw/sw/lv_draw_sw_gradient.c **** #include "../../misc/lv_gc.h"
  11:Drivers/lvgl/src/draw/sw/lv_draw_sw_gradient.c **** #include "../../misc/lv_types.h"
  12:Drivers/lvgl/src/draw/sw/lv_draw_sw_gradient.c **** 
  13:Drivers/lvgl/src/draw/sw/lv_draw_sw_gradient.c **** /*********************
  14:Drivers/lvgl/src/draw/sw/lv_draw_sw_gradient.c ****  *      DEFINES
  15:Drivers/lvgl/src/draw/sw/lv_draw_sw_gradient.c ****  *********************/
  16:Drivers/lvgl/src/draw/sw/lv_draw_sw_gradient.c **** #if _DITHER_GRADIENT
  17:Drivers/lvgl/src/draw/sw/lv_draw_sw_gradient.c ****     #define GRAD_CM(r,g,b) LV_COLOR_MAKE32(r,g,b)
  18:Drivers/lvgl/src/draw/sw/lv_draw_sw_gradient.c ****     #define GRAD_CONV(t, x) t.full = lv_color_to32(x)
  19:Drivers/lvgl/src/draw/sw/lv_draw_sw_gradient.c **** #else
  20:Drivers/lvgl/src/draw/sw/lv_draw_sw_gradient.c ****     #define GRAD_CM(r,g,b) LV_COLOR_MAKE(r,g,b)
  21:Drivers/lvgl/src/draw/sw/lv_draw_sw_gradient.c ****     #define GRAD_CONV(t, x) t = x
  22:Drivers/lvgl/src/draw/sw/lv_draw_sw_gradient.c **** #endif
  23:Drivers/lvgl/src/draw/sw/lv_draw_sw_gradient.c **** 
  24:Drivers/lvgl/src/draw/sw/lv_draw_sw_gradient.c **** #undef ALIGN
  25:Drivers/lvgl/src/draw/sw/lv_draw_sw_gradient.c **** #if defined(LV_ARCH_64)
  26:Drivers/lvgl/src/draw/sw/lv_draw_sw_gradient.c ****     #define ALIGN(X)    (((X) + 7) & ~7)
  27:Drivers/lvgl/src/draw/sw/lv_draw_sw_gradient.c **** #else
  28:Drivers/lvgl/src/draw/sw/lv_draw_sw_gradient.c ****     #define ALIGN(X)    (((X) + 3) & ~3)
  29:Drivers/lvgl/src/draw/sw/lv_draw_sw_gradient.c **** #endif
  30:Drivers/lvgl/src/draw/sw/lv_draw_sw_gradient.c **** 
ARM GAS  /var/folders/0z/tsy30v1j4xl4_7kw94k978ww0000gn/T//cci0thdE.s 			page 2


  31:Drivers/lvgl/src/draw/sw/lv_draw_sw_gradient.c **** #if LV_GRAD_CACHE_DEF_SIZE != 0 && LV_GRAD_CACHE_DEF_SIZE < 256
  32:Drivers/lvgl/src/draw/sw/lv_draw_sw_gradient.c ****     #error "LV_GRAD_CACHE_DEF_SIZE is too small"
  33:Drivers/lvgl/src/draw/sw/lv_draw_sw_gradient.c **** #endif
  34:Drivers/lvgl/src/draw/sw/lv_draw_sw_gradient.c **** 
  35:Drivers/lvgl/src/draw/sw/lv_draw_sw_gradient.c **** /**********************
  36:Drivers/lvgl/src/draw/sw/lv_draw_sw_gradient.c ****  *  STATIC PROTOTYPES
  37:Drivers/lvgl/src/draw/sw/lv_draw_sw_gradient.c ****  **********************/
  38:Drivers/lvgl/src/draw/sw/lv_draw_sw_gradient.c **** static lv_grad_t * next_in_cache(lv_grad_t * item);
  39:Drivers/lvgl/src/draw/sw/lv_draw_sw_gradient.c **** 
  40:Drivers/lvgl/src/draw/sw/lv_draw_sw_gradient.c **** typedef lv_res_t (*op_cache_t)(lv_grad_t * c, void * ctx);
  41:Drivers/lvgl/src/draw/sw/lv_draw_sw_gradient.c **** static lv_res_t iterate_cache(op_cache_t func, void * ctx, lv_grad_t ** out);
  42:Drivers/lvgl/src/draw/sw/lv_draw_sw_gradient.c **** static size_t get_cache_item_size(lv_grad_t * c);
  43:Drivers/lvgl/src/draw/sw/lv_draw_sw_gradient.c **** static lv_grad_t * allocate_item(const lv_grad_dsc_t * g, lv_coord_t w, lv_coord_t h);
  44:Drivers/lvgl/src/draw/sw/lv_draw_sw_gradient.c **** static lv_res_t find_oldest_item_life(lv_grad_t * c, void * ctx);
  45:Drivers/lvgl/src/draw/sw/lv_draw_sw_gradient.c **** static lv_res_t kill_oldest_item(lv_grad_t * c, void * ctx);
  46:Drivers/lvgl/src/draw/sw/lv_draw_sw_gradient.c **** static lv_res_t find_item(lv_grad_t * c, void * ctx);
  47:Drivers/lvgl/src/draw/sw/lv_draw_sw_gradient.c **** static void free_item(lv_grad_t * c);
  48:Drivers/lvgl/src/draw/sw/lv_draw_sw_gradient.c **** static  uint32_t compute_key(const lv_grad_dsc_t * g, lv_coord_t w, lv_coord_t h);
  49:Drivers/lvgl/src/draw/sw/lv_draw_sw_gradient.c **** 
  50:Drivers/lvgl/src/draw/sw/lv_draw_sw_gradient.c **** 
  51:Drivers/lvgl/src/draw/sw/lv_draw_sw_gradient.c **** /**********************
  52:Drivers/lvgl/src/draw/sw/lv_draw_sw_gradient.c ****  *   STATIC VARIABLE
  53:Drivers/lvgl/src/draw/sw/lv_draw_sw_gradient.c ****  **********************/
  54:Drivers/lvgl/src/draw/sw/lv_draw_sw_gradient.c **** static size_t    grad_cache_size = 0;
  55:Drivers/lvgl/src/draw/sw/lv_draw_sw_gradient.c **** static uint8_t * grad_cache_end = 0;
  56:Drivers/lvgl/src/draw/sw/lv_draw_sw_gradient.c **** 
  57:Drivers/lvgl/src/draw/sw/lv_draw_sw_gradient.c **** /**********************
  58:Drivers/lvgl/src/draw/sw/lv_draw_sw_gradient.c ****  *   STATIC FUNCTIONS
  59:Drivers/lvgl/src/draw/sw/lv_draw_sw_gradient.c ****  **********************/
  60:Drivers/lvgl/src/draw/sw/lv_draw_sw_gradient.c **** union void_cast {
  61:Drivers/lvgl/src/draw/sw/lv_draw_sw_gradient.c ****     const void * ptr;
  62:Drivers/lvgl/src/draw/sw/lv_draw_sw_gradient.c ****     const uint32_t value;
  63:Drivers/lvgl/src/draw/sw/lv_draw_sw_gradient.c **** };
  64:Drivers/lvgl/src/draw/sw/lv_draw_sw_gradient.c **** 
  65:Drivers/lvgl/src/draw/sw/lv_draw_sw_gradient.c **** static uint32_t compute_key(const lv_grad_dsc_t * g, lv_coord_t size, lv_coord_t w)
  66:Drivers/lvgl/src/draw/sw/lv_draw_sw_gradient.c **** {
  29              		.loc 1 66 1 view -0
  30              		.cfi_startproc
  31              		@ args = 0, pretend = 0, frame = 0
  32              		@ frame_needed = 0, uses_anonymous_args = 0
  33              		@ link register save eliminated.
  67:Drivers/lvgl/src/draw/sw/lv_draw_sw_gradient.c ****     union void_cast v;
  34              		.loc 1 67 5 view .LVU1
  68:Drivers/lvgl/src/draw/sw/lv_draw_sw_gradient.c ****     v.ptr = g;
  35              		.loc 1 68 5 view .LVU2
  69:Drivers/lvgl/src/draw/sw/lv_draw_sw_gradient.c ****     return (v.value ^ size ^ (w >> 1)); /*Yes, this is correct, it's like a hash that changes if th
  36              		.loc 1 69 5 view .LVU3
  37              		.loc 1 69 21 is_stmt 0 view .LVU4
  38 0000 4840     		eors	r0, r0, r1
  39              	.LVL1:
  70:Drivers/lvgl/src/draw/sw/lv_draw_sw_gradient.c **** }
  40              		.loc 1 70 1 view .LVU5
  41 0002 80EA6200 		eor	r0, r0, r2, asr #1
  42 0006 7047     		bx	lr
  43              		.cfi_endproc
  44              	.LFE56:
  46              		.section	.text.get_cache_item_size,"ax",%progbits
ARM GAS  /var/folders/0z/tsy30v1j4xl4_7kw94k978ww0000gn/T//cci0thdE.s 			page 3


  47              		.align	1
  48              		.syntax unified
  49              		.thumb
  50              		.thumb_func
  52              	get_cache_item_size:
  53              	.LVL2:
  54              	.LFB57:
  71:Drivers/lvgl/src/draw/sw/lv_draw_sw_gradient.c **** 
  72:Drivers/lvgl/src/draw/sw/lv_draw_sw_gradient.c **** static size_t get_cache_item_size(lv_grad_t * c)
  73:Drivers/lvgl/src/draw/sw/lv_draw_sw_gradient.c **** {
  55              		.loc 1 73 1 is_stmt 1 view -0
  56              		.cfi_startproc
  57              		@ args = 0, pretend = 0, frame = 0
  58              		@ frame_needed = 0, uses_anonymous_args = 0
  59              		@ link register save eliminated.
  74:Drivers/lvgl/src/draw/sw/lv_draw_sw_gradient.c ****     size_t s = ALIGN(sizeof(*c)) + ALIGN(c->alloc_size * sizeof(lv_color_t));
  60              		.loc 1 74 5 view .LVU7
  61              		.loc 1 74 36 is_stmt 0 view .LVU8
  62 0000 B0F90C00 		ldrsh	r0, [r0, #12]
  63              	.LVL3:
  64              		.loc 1 74 36 view .LVU9
  65 0004 4000     		lsls	r0, r0, #1
  66 0006 0330     		adds	r0, r0, #3
  67 0008 20F00300 		bic	r0, r0, #3
  68              	.LVL4:
  75:Drivers/lvgl/src/draw/sw/lv_draw_sw_gradient.c **** #if _DITHER_GRADIENT
  76:Drivers/lvgl/src/draw/sw/lv_draw_sw_gradient.c ****     s += ALIGN(c->size * sizeof(lv_color32_t));
  77:Drivers/lvgl/src/draw/sw/lv_draw_sw_gradient.c **** #if LV_DITHER_ERROR_DIFFUSION == 1
  78:Drivers/lvgl/src/draw/sw/lv_draw_sw_gradient.c ****     s += ALIGN(c->w * sizeof(lv_scolor24_t));
  79:Drivers/lvgl/src/draw/sw/lv_draw_sw_gradient.c **** #endif
  80:Drivers/lvgl/src/draw/sw/lv_draw_sw_gradient.c **** #endif
  81:Drivers/lvgl/src/draw/sw/lv_draw_sw_gradient.c ****     return s;
  69              		.loc 1 81 5 is_stmt 1 view .LVU10
  82:Drivers/lvgl/src/draw/sw/lv_draw_sw_gradient.c **** }
  70              		.loc 1 82 1 is_stmt 0 view .LVU11
  71 000c 1030     		adds	r0, r0, #16
  72              	.LVL5:
  73              		.loc 1 82 1 view .LVU12
  74 000e 7047     		bx	lr
  75              		.cfi_endproc
  76              	.LFE57:
  78              		.section	.text.next_in_cache,"ax",%progbits
  79              		.align	1
  80              		.syntax unified
  81              		.thumb
  82              		.thumb_func
  84              	next_in_cache:
  85              	.LVL6:
  86              	.LFB58:
  83:Drivers/lvgl/src/draw/sw/lv_draw_sw_gradient.c **** 
  84:Drivers/lvgl/src/draw/sw/lv_draw_sw_gradient.c **** static lv_grad_t * next_in_cache(lv_grad_t * item)
  85:Drivers/lvgl/src/draw/sw/lv_draw_sw_gradient.c **** {
  87              		.loc 1 85 1 is_stmt 1 view -0
  88              		.cfi_startproc
  89              		@ args = 0, pretend = 0, frame = 0
  90              		@ frame_needed = 0, uses_anonymous_args = 0
  86:Drivers/lvgl/src/draw/sw/lv_draw_sw_gradient.c ****     if(grad_cache_size == 0) return NULL;
ARM GAS  /var/folders/0z/tsy30v1j4xl4_7kw94k978ww0000gn/T//cci0thdE.s 			page 4


  91              		.loc 1 86 5 view .LVU14
  92              		.loc 1 86 24 is_stmt 0 view .LVU15
  93 0000 0A4B     		ldr	r3, .L13
  94 0002 1B68     		ldr	r3, [r3]
  95              		.loc 1 86 7 view .LVU16
  96 0004 7BB1     		cbz	r3, .L6
  85:Drivers/lvgl/src/draw/sw/lv_draw_sw_gradient.c ****     if(grad_cache_size == 0) return NULL;
  97              		.loc 1 85 1 view .LVU17
  98 0006 10B5     		push	{r4, lr}
  99              		.cfi_def_cfa_offset 8
 100              		.cfi_offset 4, -8
 101              		.cfi_offset 14, -4
 102 0008 0446     		mov	r4, r0
  87:Drivers/lvgl/src/draw/sw/lv_draw_sw_gradient.c **** 
  88:Drivers/lvgl/src/draw/sw/lv_draw_sw_gradient.c ****     if(item == NULL)
 103              		.loc 1 88 5 is_stmt 1 view .LVU18
 104              		.loc 1 88 7 is_stmt 0 view .LVU19
 105 000a 38B1     		cbz	r0, .L11
  89:Drivers/lvgl/src/draw/sw/lv_draw_sw_gradient.c ****         return (lv_grad_t *)LV_GC_ROOT(_lv_grad_cache_mem);
  90:Drivers/lvgl/src/draw/sw/lv_draw_sw_gradient.c **** 
  91:Drivers/lvgl/src/draw/sw/lv_draw_sw_gradient.c ****     size_t s = get_cache_item_size(item);
 106              		.loc 1 91 5 is_stmt 1 view .LVU20
 107              		.loc 1 91 16 is_stmt 0 view .LVU21
 108 000c FFF7FEFF 		bl	get_cache_item_size
 109              	.LVL7:
  92:Drivers/lvgl/src/draw/sw/lv_draw_sw_gradient.c ****     /*Compute the size for this cache item*/
  93:Drivers/lvgl/src/draw/sw/lv_draw_sw_gradient.c ****     if((uint8_t *)item + s >= grad_cache_end) return NULL;
 110              		.loc 1 93 5 is_stmt 1 view .LVU22
 111              		.loc 1 93 24 is_stmt 0 view .LVU23
 112 0010 2044     		add	r0, r0, r4
 113              	.LVL8:
 114              		.loc 1 93 28 view .LVU24
 115 0012 074B     		ldr	r3, .L13+4
 116 0014 1B68     		ldr	r3, [r3]
 117              		.loc 1 93 7 view .LVU25
 118 0016 9842     		cmp	r0, r3
 119 0018 03D2     		bcs	.L12
 120              	.L3:
  94:Drivers/lvgl/src/draw/sw/lv_draw_sw_gradient.c ****     else return (lv_grad_t *)((uint8_t *)item + s);
  95:Drivers/lvgl/src/draw/sw/lv_draw_sw_gradient.c **** }
 121              		.loc 1 95 1 view .LVU26
 122 001a 10BD     		pop	{r4, pc}
 123              	.LVL9:
 124              	.L11:
  89:Drivers/lvgl/src/draw/sw/lv_draw_sw_gradient.c **** 
 125              		.loc 1 89 9 is_stmt 1 view .LVU27
  89:Drivers/lvgl/src/draw/sw/lv_draw_sw_gradient.c **** 
 126              		.loc 1 89 16 is_stmt 0 view .LVU28
 127 001c 054B     		ldr	r3, .L13+8
 128 001e 1868     		ldr	r0, [r3]
 129              	.LVL10:
  89:Drivers/lvgl/src/draw/sw/lv_draw_sw_gradient.c **** 
 130              		.loc 1 89 16 view .LVU29
 131 0020 FBE7     		b	.L3
 132              	.L12:
  93:Drivers/lvgl/src/draw/sw/lv_draw_sw_gradient.c ****     else return (lv_grad_t *)((uint8_t *)item + s);
 133              		.loc 1 93 54 view .LVU30
ARM GAS  /var/folders/0z/tsy30v1j4xl4_7kw94k978ww0000gn/T//cci0thdE.s 			page 5


 134 0022 0020     		movs	r0, #0
 135 0024 F9E7     		b	.L3
 136              	.LVL11:
 137              	.L6:
 138              		.cfi_def_cfa_offset 0
 139              		.cfi_restore 4
 140              		.cfi_restore 14
  86:Drivers/lvgl/src/draw/sw/lv_draw_sw_gradient.c **** 
 141              		.loc 1 86 37 view .LVU31
 142 0026 0020     		movs	r0, #0
 143              	.LVL12:
 144              		.loc 1 95 1 view .LVU32
 145 0028 7047     		bx	lr
 146              	.L14:
 147 002a 00BF     		.align	2
 148              	.L13:
 149 002c 00000000 		.word	.LANCHOR0
 150 0030 00000000 		.word	.LANCHOR1
 151 0034 00000000 		.word	_lv_grad_cache_mem
 152              		.cfi_endproc
 153              	.LFE58:
 155              		.section	.text.iterate_cache,"ax",%progbits
 156              		.align	1
 157              		.syntax unified
 158              		.thumb
 159              		.thumb_func
 161              	iterate_cache:
 162              	.LVL13:
 163              	.LFB59:
  96:Drivers/lvgl/src/draw/sw/lv_draw_sw_gradient.c **** 
  97:Drivers/lvgl/src/draw/sw/lv_draw_sw_gradient.c **** static lv_res_t iterate_cache(op_cache_t func, void * ctx, lv_grad_t ** out)
  98:Drivers/lvgl/src/draw/sw/lv_draw_sw_gradient.c **** {
 164              		.loc 1 98 1 is_stmt 1 view -0
 165              		.cfi_startproc
 166              		@ args = 0, pretend = 0, frame = 0
 167              		@ frame_needed = 0, uses_anonymous_args = 0
 168              		.loc 1 98 1 is_stmt 0 view .LVU34
 169 0000 F8B5     		push	{r3, r4, r5, r6, r7, lr}
 170              		.cfi_def_cfa_offset 24
 171              		.cfi_offset 3, -24
 172              		.cfi_offset 4, -20
 173              		.cfi_offset 5, -16
 174              		.cfi_offset 6, -12
 175              		.cfi_offset 7, -8
 176              		.cfi_offset 14, -4
 177 0002 0646     		mov	r6, r0
 178 0004 0D46     		mov	r5, r1
 179 0006 1746     		mov	r7, r2
  99:Drivers/lvgl/src/draw/sw/lv_draw_sw_gradient.c ****     lv_grad_t * first = next_in_cache(NULL);
 180              		.loc 1 99 5 is_stmt 1 view .LVU35
 181              		.loc 1 99 25 is_stmt 0 view .LVU36
 182 0008 0020     		movs	r0, #0
 183              	.LVL14:
 184              		.loc 1 99 25 view .LVU37
 185 000a FFF7FEFF 		bl	next_in_cache
 186              	.LVL15:
 187              		.loc 1 99 25 view .LVU38
ARM GAS  /var/folders/0z/tsy30v1j4xl4_7kw94k978ww0000gn/T//cci0thdE.s 			page 6


 188 000e 0446     		mov	r4, r0
 189              	.LVL16:
 100:Drivers/lvgl/src/draw/sw/lv_draw_sw_gradient.c ****     while(first != NULL && first->life) {
 190              		.loc 1 100 5 is_stmt 1 view .LVU39
 191              		.loc 1 100 10 is_stmt 0 view .LVU40
 192 0010 03E0     		b	.L16
 193              	.LVL17:
 194              	.L17:
 101:Drivers/lvgl/src/draw/sw/lv_draw_sw_gradient.c ****         if((*func)(first, ctx) == LV_RES_OK) {
 102:Drivers/lvgl/src/draw/sw/lv_draw_sw_gradient.c ****             if(out != NULL) *out = first;
 103:Drivers/lvgl/src/draw/sw/lv_draw_sw_gradient.c ****             return LV_RES_OK;
 104:Drivers/lvgl/src/draw/sw/lv_draw_sw_gradient.c ****         }
 105:Drivers/lvgl/src/draw/sw/lv_draw_sw_gradient.c ****         first = next_in_cache(first);
 195              		.loc 1 105 9 is_stmt 1 view .LVU41
 196              		.loc 1 105 17 is_stmt 0 view .LVU42
 197 0012 2046     		mov	r0, r4
 198 0014 FFF7FEFF 		bl	next_in_cache
 199              	.LVL18:
 200 0018 0446     		mov	r4, r0
 201              	.LVL19:
 202              	.L16:
 100:Drivers/lvgl/src/draw/sw/lv_draw_sw_gradient.c ****     while(first != NULL && first->life) {
 203              		.loc 1 100 25 is_stmt 1 view .LVU43
 204 001a 6CB1     		cbz	r4, .L21
 100:Drivers/lvgl/src/draw/sw/lv_draw_sw_gradient.c ****     while(first != NULL && first->life) {
 205              		.loc 1 100 25 is_stmt 0 discriminator 1 view .LVU44
 206 001c 6368     		ldr	r3, [r4, #4]
 207 001e 33F04043 		bics	r3, r3, #-1073741824
 208 0022 07D0     		beq	.L23
 101:Drivers/lvgl/src/draw/sw/lv_draw_sw_gradient.c ****         if((*func)(first, ctx) == LV_RES_OK) {
 209              		.loc 1 101 9 is_stmt 1 view .LVU45
 101:Drivers/lvgl/src/draw/sw/lv_draw_sw_gradient.c ****         if((*func)(first, ctx) == LV_RES_OK) {
 210              		.loc 1 101 13 is_stmt 0 view .LVU46
 211 0024 2946     		mov	r1, r5
 212 0026 2046     		mov	r0, r4
 101:Drivers/lvgl/src/draw/sw/lv_draw_sw_gradient.c ****         if((*func)(first, ctx) == LV_RES_OK) {
 213              		.loc 1 101 13 view .LVU47
 214 0028 B047     		blx	r6
 215              	.LVL20:
 101:Drivers/lvgl/src/draw/sw/lv_draw_sw_gradient.c ****         if((*func)(first, ctx) == LV_RES_OK) {
 216              		.loc 1 101 11 view .LVU48
 217 002a 0128     		cmp	r0, #1
 218 002c F1D1     		bne	.L17
 102:Drivers/lvgl/src/draw/sw/lv_draw_sw_gradient.c ****             return LV_RES_OK;
 219              		.loc 1 102 13 is_stmt 1 view .LVU49
 102:Drivers/lvgl/src/draw/sw/lv_draw_sw_gradient.c ****             return LV_RES_OK;
 220              		.loc 1 102 15 is_stmt 0 view .LVU50
 221 002e 27B1     		cbz	r7, .L19
 102:Drivers/lvgl/src/draw/sw/lv_draw_sw_gradient.c ****             return LV_RES_OK;
 222              		.loc 1 102 29 is_stmt 1 discriminator 1 view .LVU51
 102:Drivers/lvgl/src/draw/sw/lv_draw_sw_gradient.c ****             return LV_RES_OK;
 223              		.loc 1 102 34 is_stmt 0 discriminator 1 view .LVU52
 224 0030 3C60     		str	r4, [r7]
 103:Drivers/lvgl/src/draw/sw/lv_draw_sw_gradient.c ****         }
 225              		.loc 1 103 13 is_stmt 1 discriminator 1 view .LVU53
 103:Drivers/lvgl/src/draw/sw/lv_draw_sw_gradient.c ****         }
 226              		.loc 1 103 20 is_stmt 0 discriminator 1 view .LVU54
ARM GAS  /var/folders/0z/tsy30v1j4xl4_7kw94k978ww0000gn/T//cci0thdE.s 			page 7


 227 0032 02E0     		b	.L19
 228              	.LVL21:
 229              	.L23:
 106:Drivers/lvgl/src/draw/sw/lv_draw_sw_gradient.c ****     }
 107:Drivers/lvgl/src/draw/sw/lv_draw_sw_gradient.c ****     return LV_RES_INV;
 230              		.loc 1 107 12 view .LVU55
 231 0034 0020     		movs	r0, #0
 232              	.LVL22:
 233              		.loc 1 107 12 view .LVU56
 234 0036 00E0     		b	.L19
 235              	.LVL23:
 236              	.L21:
 237              		.loc 1 107 12 view .LVU57
 238 0038 0020     		movs	r0, #0
 239              	.LVL24:
 240              	.L19:
 108:Drivers/lvgl/src/draw/sw/lv_draw_sw_gradient.c **** }
 241              		.loc 1 108 1 view .LVU58
 242 003a F8BD     		pop	{r3, r4, r5, r6, r7, pc}
 243              		.loc 1 108 1 view .LVU59
 244              		.cfi_endproc
 245              	.LFE59:
 247              		.section	.text.find_oldest_item_life,"ax",%progbits
 248              		.align	1
 249              		.syntax unified
 250              		.thumb
 251              		.thumb_func
 253              	find_oldest_item_life:
 254              	.LVL25:
 255              	.LFB60:
 109:Drivers/lvgl/src/draw/sw/lv_draw_sw_gradient.c **** 
 110:Drivers/lvgl/src/draw/sw/lv_draw_sw_gradient.c **** static lv_res_t find_oldest_item_life(lv_grad_t * c, void * ctx)
 111:Drivers/lvgl/src/draw/sw/lv_draw_sw_gradient.c **** {
 256              		.loc 1 111 1 is_stmt 1 view -0
 257              		.cfi_startproc
 258              		@ args = 0, pretend = 0, frame = 0
 259              		@ frame_needed = 0, uses_anonymous_args = 0
 260              		@ link register save eliminated.
 112:Drivers/lvgl/src/draw/sw/lv_draw_sw_gradient.c ****     uint32_t * min_life = (uint32_t *)ctx;
 261              		.loc 1 112 5 view .LVU61
 113:Drivers/lvgl/src/draw/sw/lv_draw_sw_gradient.c ****     if(c->life < *min_life) *min_life = c->life;
 262              		.loc 1 113 5 view .LVU62
 263              		.loc 1 113 9 is_stmt 0 view .LVU63
 264 0000 4368     		ldr	r3, [r0, #4]
 265 0002 C3F31D03 		ubfx	r3, r3, #0, #30
 266              		.loc 1 113 18 view .LVU64
 267 0006 0A68     		ldr	r2, [r1]
 268              		.loc 1 113 7 view .LVU65
 269 0008 9342     		cmp	r3, r2
 270 000a 00D2     		bcs	.L25
 271              		.loc 1 113 29 is_stmt 1 discriminator 1 view .LVU66
 272              		.loc 1 113 39 is_stmt 0 discriminator 1 view .LVU67
 273 000c 0B60     		str	r3, [r1]
 274              	.L25:
 114:Drivers/lvgl/src/draw/sw/lv_draw_sw_gradient.c ****     return LV_RES_INV;
 275              		.loc 1 114 5 is_stmt 1 view .LVU68
 115:Drivers/lvgl/src/draw/sw/lv_draw_sw_gradient.c **** }
ARM GAS  /var/folders/0z/tsy30v1j4xl4_7kw94k978ww0000gn/T//cci0thdE.s 			page 8


 276              		.loc 1 115 1 is_stmt 0 view .LVU69
 277 000e 0020     		movs	r0, #0
 278              	.LVL26:
 279              		.loc 1 115 1 view .LVU70
 280 0010 7047     		bx	lr
 281              		.cfi_endproc
 282              	.LFE60:
 284              		.section	.text.find_item,"ax",%progbits
 285              		.align	1
 286              		.syntax unified
 287              		.thumb
 288              		.thumb_func
 290              	find_item:
 291              	.LVL27:
 292              	.LFB63:
 116:Drivers/lvgl/src/draw/sw/lv_draw_sw_gradient.c **** 
 117:Drivers/lvgl/src/draw/sw/lv_draw_sw_gradient.c **** static void free_item(lv_grad_t * c)
 118:Drivers/lvgl/src/draw/sw/lv_draw_sw_gradient.c **** {
 119:Drivers/lvgl/src/draw/sw/lv_draw_sw_gradient.c ****     size_t size = get_cache_item_size(c);
 120:Drivers/lvgl/src/draw/sw/lv_draw_sw_gradient.c ****     size_t next_items_size = (size_t)(grad_cache_end - (uint8_t *)c) - size;
 121:Drivers/lvgl/src/draw/sw/lv_draw_sw_gradient.c ****     grad_cache_end -= size;
 122:Drivers/lvgl/src/draw/sw/lv_draw_sw_gradient.c ****     if(next_items_size) {
 123:Drivers/lvgl/src/draw/sw/lv_draw_sw_gradient.c ****         uint8_t * old = (uint8_t *)c;
 124:Drivers/lvgl/src/draw/sw/lv_draw_sw_gradient.c ****         lv_memcpy(c, ((uint8_t *)c) + size, next_items_size);
 125:Drivers/lvgl/src/draw/sw/lv_draw_sw_gradient.c ****         /* Then need to fix all internal pointers too */
 126:Drivers/lvgl/src/draw/sw/lv_draw_sw_gradient.c ****         while((uint8_t *)c != grad_cache_end) {
 127:Drivers/lvgl/src/draw/sw/lv_draw_sw_gradient.c ****             c->map = (lv_color_t *)(((uint8_t *)c->map) - size);
 128:Drivers/lvgl/src/draw/sw/lv_draw_sw_gradient.c **** #if _DITHER_GRADIENT
 129:Drivers/lvgl/src/draw/sw/lv_draw_sw_gradient.c ****             c->hmap = (lv_color32_t *)(((uint8_t *)c->hmap) - size);
 130:Drivers/lvgl/src/draw/sw/lv_draw_sw_gradient.c **** #if LV_DITHER_ERROR_DIFFUSION == 1
 131:Drivers/lvgl/src/draw/sw/lv_draw_sw_gradient.c ****             c->error_acc = (lv_scolor24_t *)(((uint8_t *)c->error_acc) - size);
 132:Drivers/lvgl/src/draw/sw/lv_draw_sw_gradient.c **** #endif
 133:Drivers/lvgl/src/draw/sw/lv_draw_sw_gradient.c **** #endif
 134:Drivers/lvgl/src/draw/sw/lv_draw_sw_gradient.c ****             c = (lv_grad_t *)(((uint8_t *)c) + get_cache_item_size(c));
 135:Drivers/lvgl/src/draw/sw/lv_draw_sw_gradient.c ****         }
 136:Drivers/lvgl/src/draw/sw/lv_draw_sw_gradient.c ****         lv_memset_00(old + next_items_size, size);
 137:Drivers/lvgl/src/draw/sw/lv_draw_sw_gradient.c ****     }
 138:Drivers/lvgl/src/draw/sw/lv_draw_sw_gradient.c **** }
 139:Drivers/lvgl/src/draw/sw/lv_draw_sw_gradient.c **** 
 140:Drivers/lvgl/src/draw/sw/lv_draw_sw_gradient.c **** static lv_res_t kill_oldest_item(lv_grad_t * c, void * ctx)
 141:Drivers/lvgl/src/draw/sw/lv_draw_sw_gradient.c **** {
 142:Drivers/lvgl/src/draw/sw/lv_draw_sw_gradient.c ****     uint32_t * min_life = (uint32_t *)ctx;
 143:Drivers/lvgl/src/draw/sw/lv_draw_sw_gradient.c ****     if(c->life == *min_life) {
 144:Drivers/lvgl/src/draw/sw/lv_draw_sw_gradient.c ****         /*Found, let's kill it*/
 145:Drivers/lvgl/src/draw/sw/lv_draw_sw_gradient.c ****         free_item(c);
 146:Drivers/lvgl/src/draw/sw/lv_draw_sw_gradient.c ****         return LV_RES_OK;
 147:Drivers/lvgl/src/draw/sw/lv_draw_sw_gradient.c ****     }
 148:Drivers/lvgl/src/draw/sw/lv_draw_sw_gradient.c ****     return LV_RES_INV;
 149:Drivers/lvgl/src/draw/sw/lv_draw_sw_gradient.c **** }
 150:Drivers/lvgl/src/draw/sw/lv_draw_sw_gradient.c **** 
 151:Drivers/lvgl/src/draw/sw/lv_draw_sw_gradient.c **** static lv_res_t find_item(lv_grad_t * c, void * ctx)
 152:Drivers/lvgl/src/draw/sw/lv_draw_sw_gradient.c **** {
 293              		.loc 1 152 1 is_stmt 1 view -0
 294              		.cfi_startproc
 295              		@ args = 0, pretend = 0, frame = 0
 296              		@ frame_needed = 0, uses_anonymous_args = 0
 297              		@ link register save eliminated.
ARM GAS  /var/folders/0z/tsy30v1j4xl4_7kw94k978ww0000gn/T//cci0thdE.s 			page 9


 153:Drivers/lvgl/src/draw/sw/lv_draw_sw_gradient.c ****     uint32_t * k = (uint32_t *)ctx;
 298              		.loc 1 153 5 view .LVU72
 154:Drivers/lvgl/src/draw/sw/lv_draw_sw_gradient.c ****     if(c->key == *k) return LV_RES_OK;
 299              		.loc 1 154 5 view .LVU73
 300              		.loc 1 154 9 is_stmt 0 view .LVU74
 301 0000 0268     		ldr	r2, [r0]
 302              		.loc 1 154 18 view .LVU75
 303 0002 0B68     		ldr	r3, [r1]
 304              		.loc 1 154 7 view .LVU76
 305 0004 9A42     		cmp	r2, r3
 306 0006 01D0     		beq	.L28
 155:Drivers/lvgl/src/draw/sw/lv_draw_sw_gradient.c ****     return LV_RES_INV;
 307              		.loc 1 155 12 view .LVU77
 308 0008 0020     		movs	r0, #0
 309              	.LVL28:
 310              		.loc 1 155 12 view .LVU78
 311 000a 7047     		bx	lr
 312              	.LVL29:
 313              	.L28:
 154:Drivers/lvgl/src/draw/sw/lv_draw_sw_gradient.c ****     if(c->key == *k) return LV_RES_OK;
 314              		.loc 1 154 29 view .LVU79
 315 000c 0120     		movs	r0, #1
 316              	.LVL30:
 156:Drivers/lvgl/src/draw/sw/lv_draw_sw_gradient.c **** }
 317              		.loc 1 156 1 view .LVU80
 318 000e 7047     		bx	lr
 319              		.cfi_endproc
 320              	.LFE63:
 322              		.section	.text.allocate_item,"ax",%progbits
 323              		.align	1
 324              		.syntax unified
 325              		.thumb
 326              		.thumb_func
 328              	allocate_item:
 329              	.LVL31:
 330              	.LFB64:
 157:Drivers/lvgl/src/draw/sw/lv_draw_sw_gradient.c **** 
 158:Drivers/lvgl/src/draw/sw/lv_draw_sw_gradient.c **** static lv_grad_t * allocate_item(const lv_grad_dsc_t * g, lv_coord_t w, lv_coord_t h)
 159:Drivers/lvgl/src/draw/sw/lv_draw_sw_gradient.c **** {
 331              		.loc 1 159 1 is_stmt 1 view -0
 332              		.cfi_startproc
 333              		@ args = 0, pretend = 0, frame = 8
 334              		@ frame_needed = 0, uses_anonymous_args = 0
 335              		.loc 1 159 1 is_stmt 0 view .LVU82
 336 0000 2DE9F043 		push	{r4, r5, r6, r7, r8, r9, lr}
 337              		.cfi_def_cfa_offset 28
 338              		.cfi_offset 4, -28
 339              		.cfi_offset 5, -24
 340              		.cfi_offset 6, -20
 341              		.cfi_offset 7, -16
 342              		.cfi_offset 8, -12
 343              		.cfi_offset 9, -8
 344              		.cfi_offset 14, -4
 345 0004 83B0     		sub	sp, sp, #12
 346              		.cfi_def_cfa_offset 40
 347 0006 0746     		mov	r7, r0
 348 0008 0E46     		mov	r6, r1
ARM GAS  /var/folders/0z/tsy30v1j4xl4_7kw94k978ww0000gn/T//cci0thdE.s 			page 10


 349 000a 1546     		mov	r5, r2
 160:Drivers/lvgl/src/draw/sw/lv_draw_sw_gradient.c ****     lv_coord_t size = g->dir == LV_GRAD_DIR_HOR ? w : h;
 350              		.loc 1 160 5 is_stmt 1 view .LVU83
 351              		.loc 1 160 30 is_stmt 0 view .LVU84
 352 000c 437A     		ldrb	r3, [r0, #9]	@ zero_extendqisi2
 353 000e 03F00703 		and	r3, r3, #7
 354              		.loc 1 160 16 view .LVU85
 355 0012 022B     		cmp	r3, #2
 356 0014 41D0     		beq	.L43
 357 0016 9046     		mov	r8, r2
 358              	.L30:
 359              	.LVL32:
 161:Drivers/lvgl/src/draw/sw/lv_draw_sw_gradient.c ****     lv_coord_t map_size = LV_MAX(w, h); /* The map is being used horizontally (width) unless
 360              		.loc 1 161 5 is_stmt 1 discriminator 4 view .LVU86
 361              		.loc 1 161 16 is_stmt 0 discriminator 4 view .LVU87
 362 0018 B542     		cmp	r5, r6
 363 001a B8BF     		it	lt
 364 001c 3546     		movlt	r5, r6
 365              	.LVL33:
 162:Drivers/lvgl/src/draw/sw/lv_draw_sw_gradient.c ****                                            no dithering is selected where it's used vertically */
 163:Drivers/lvgl/src/draw/sw/lv_draw_sw_gradient.c **** 
 164:Drivers/lvgl/src/draw/sw/lv_draw_sw_gradient.c ****     size_t req_size = ALIGN(sizeof(lv_grad_t)) + ALIGN(map_size * sizeof(lv_color_t));
 366              		.loc 1 164 5 is_stmt 1 discriminator 4 view .LVU88
 367              		.loc 1 164 50 is_stmt 0 discriminator 4 view .LVU89
 368 001e 6C00     		lsls	r4, r5, #1
 369 0020 0334     		adds	r4, r4, #3
 370 0022 24F00304 		bic	r4, r4, #3
 371              		.loc 1 164 12 discriminator 4 view .LVU90
 372 0026 1034     		adds	r4, r4, #16
 373              	.LVL34:
 165:Drivers/lvgl/src/draw/sw/lv_draw_sw_gradient.c **** #if _DITHER_GRADIENT
 166:Drivers/lvgl/src/draw/sw/lv_draw_sw_gradient.c ****     req_size += ALIGN(size * sizeof(lv_color32_t));
 167:Drivers/lvgl/src/draw/sw/lv_draw_sw_gradient.c **** #if LV_DITHER_ERROR_DIFFUSION == 1
 168:Drivers/lvgl/src/draw/sw/lv_draw_sw_gradient.c ****     req_size += ALIGN(w * sizeof(lv_scolor24_t));
 169:Drivers/lvgl/src/draw/sw/lv_draw_sw_gradient.c **** #endif
 170:Drivers/lvgl/src/draw/sw/lv_draw_sw_gradient.c **** #endif
 171:Drivers/lvgl/src/draw/sw/lv_draw_sw_gradient.c **** 
 172:Drivers/lvgl/src/draw/sw/lv_draw_sw_gradient.c ****     size_t act_size = (size_t)(grad_cache_end - LV_GC_ROOT(_lv_grad_cache_mem));
 374              		.loc 1 172 5 is_stmt 1 discriminator 4 view .LVU91
 375              		.loc 1 172 47 is_stmt 0 discriminator 4 view .LVU92
 376 0028 364B     		ldr	r3, .L45
 377 002a D3F80090 		ldr	r9, [r3]
 378 002e 364B     		ldr	r3, .L45+4
 379 0030 1B68     		ldr	r3, [r3]
 380 0032 A9EB0303 		sub	r3, r9, r3
 381              	.LVL35:
 173:Drivers/lvgl/src/draw/sw/lv_draw_sw_gradient.c ****     lv_grad_t * item = NULL;
 382              		.loc 1 173 5 is_stmt 1 discriminator 4 view .LVU93
 174:Drivers/lvgl/src/draw/sw/lv_draw_sw_gradient.c ****     if(req_size + act_size < grad_cache_size) {
 383              		.loc 1 174 5 discriminator 4 view .LVU94
 384              		.loc 1 174 17 is_stmt 0 discriminator 4 view .LVU95
 385 0036 E118     		adds	r1, r4, r3
 386              	.LVL36:
 387              		.loc 1 174 28 discriminator 4 view .LVU96
 388 0038 344A     		ldr	r2, .L45+8
 389              	.LVL37:
 390              		.loc 1 174 28 discriminator 4 view .LVU97
ARM GAS  /var/folders/0z/tsy30v1j4xl4_7kw94k978ww0000gn/T//cci0thdE.s 			page 11


 391 003a 1268     		ldr	r2, [r2]
 392              		.loc 1 174 7 discriminator 4 view .LVU98
 393 003c 9142     		cmp	r1, r2
 394 003e 2ED2     		bcs	.L31
 175:Drivers/lvgl/src/draw/sw/lv_draw_sw_gradient.c ****         item = (lv_grad_t *)grad_cache_end;
 395              		.loc 1 175 9 is_stmt 1 view .LVU99
 396              	.LVL38:
 176:Drivers/lvgl/src/draw/sw/lv_draw_sw_gradient.c ****         item->not_cached = 0;
 397              		.loc 1 176 9 view .LVU100
 398              		.loc 1 176 26 is_stmt 0 view .LVU101
 399 0040 99F80730 		ldrb	r3, [r9, #7]	@ zero_extendqisi2
 400              	.LVL39:
 401              		.loc 1 176 26 view .LVU102
 402 0044 6FF3C713 		bfc	r3, #7, #1
 403 0048 89F80730 		strb	r3, [r9, #7]
 404              	.LVL40:
 405              	.L32:
 177:Drivers/lvgl/src/draw/sw/lv_draw_sw_gradient.c ****     }
 178:Drivers/lvgl/src/draw/sw/lv_draw_sw_gradient.c ****     else {
 179:Drivers/lvgl/src/draw/sw/lv_draw_sw_gradient.c ****         /*Need to evict items from cache until we find enough space to allocate this one */
 180:Drivers/lvgl/src/draw/sw/lv_draw_sw_gradient.c ****         if(req_size <= grad_cache_size) {
 181:Drivers/lvgl/src/draw/sw/lv_draw_sw_gradient.c ****             while(act_size + req_size > grad_cache_size) {
 182:Drivers/lvgl/src/draw/sw/lv_draw_sw_gradient.c ****                 uint32_t oldest_life = UINT32_MAX;
 183:Drivers/lvgl/src/draw/sw/lv_draw_sw_gradient.c ****                 iterate_cache(&find_oldest_item_life, &oldest_life, NULL);
 184:Drivers/lvgl/src/draw/sw/lv_draw_sw_gradient.c ****                 iterate_cache(&kill_oldest_item, &oldest_life, NULL);
 185:Drivers/lvgl/src/draw/sw/lv_draw_sw_gradient.c ****                 act_size = (size_t)(grad_cache_end - LV_GC_ROOT(_lv_grad_cache_mem));
 186:Drivers/lvgl/src/draw/sw/lv_draw_sw_gradient.c ****             }
 187:Drivers/lvgl/src/draw/sw/lv_draw_sw_gradient.c ****             item = (lv_grad_t *)grad_cache_end;
 188:Drivers/lvgl/src/draw/sw/lv_draw_sw_gradient.c ****             item->not_cached = 0;
 189:Drivers/lvgl/src/draw/sw/lv_draw_sw_gradient.c ****         }
 190:Drivers/lvgl/src/draw/sw/lv_draw_sw_gradient.c ****         else {
 191:Drivers/lvgl/src/draw/sw/lv_draw_sw_gradient.c ****             /*The cache is too small. Allocate the item manually and free it later.*/
 192:Drivers/lvgl/src/draw/sw/lv_draw_sw_gradient.c ****             item = lv_mem_alloc(req_size);
 193:Drivers/lvgl/src/draw/sw/lv_draw_sw_gradient.c ****             LV_ASSERT_MALLOC(item);
 194:Drivers/lvgl/src/draw/sw/lv_draw_sw_gradient.c ****             if(item == NULL) return NULL;
 195:Drivers/lvgl/src/draw/sw/lv_draw_sw_gradient.c ****             item->not_cached = 1;
 196:Drivers/lvgl/src/draw/sw/lv_draw_sw_gradient.c ****         }
 197:Drivers/lvgl/src/draw/sw/lv_draw_sw_gradient.c ****     }
 198:Drivers/lvgl/src/draw/sw/lv_draw_sw_gradient.c **** 
 199:Drivers/lvgl/src/draw/sw/lv_draw_sw_gradient.c ****     item->key = compute_key(g, size, w);
 406              		.loc 1 199 5 is_stmt 1 view .LVU103
 407              		.loc 1 199 17 is_stmt 0 view .LVU104
 408 004c 3246     		mov	r2, r6
 409 004e 4146     		mov	r1, r8
 410 0050 3846     		mov	r0, r7
 411 0052 FFF7FEFF 		bl	compute_key
 412              	.LVL41:
 413              		.loc 1 199 15 view .LVU105
 414 0056 C9F80000 		str	r0, [r9]
 200:Drivers/lvgl/src/draw/sw/lv_draw_sw_gradient.c ****     item->life = 1;
 415              		.loc 1 200 5 is_stmt 1 view .LVU106
 416              		.loc 1 200 16 is_stmt 0 view .LVU107
 417 005a D9F80430 		ldr	r3, [r9, #4]
 418 005e 0122     		movs	r2, #1
 419 0060 62F31D03 		bfi	r3, r2, #0, #30
 420 0064 C9F80430 		str	r3, [r9, #4]
 201:Drivers/lvgl/src/draw/sw/lv_draw_sw_gradient.c ****     item->filled = 0;
ARM GAS  /var/folders/0z/tsy30v1j4xl4_7kw94k978ww0000gn/T//cci0thdE.s 			page 12


 421              		.loc 1 201 5 is_stmt 1 view .LVU108
 422              		.loc 1 201 18 is_stmt 0 view .LVU109
 423 0068 99F80730 		ldrb	r3, [r9, #7]	@ zero_extendqisi2
 424 006c 6FF38613 		bfc	r3, #6, #1
 425 0070 89F80730 		strb	r3, [r9, #7]
 202:Drivers/lvgl/src/draw/sw/lv_draw_sw_gradient.c ****     item->alloc_size = map_size;
 426              		.loc 1 202 5 is_stmt 1 view .LVU110
 427              		.loc 1 202 22 is_stmt 0 view .LVU111
 428 0074 A9F80C50 		strh	r5, [r9, #12]	@ movhi
 203:Drivers/lvgl/src/draw/sw/lv_draw_sw_gradient.c ****     item->size = size;
 429              		.loc 1 203 5 is_stmt 1 view .LVU112
 430              		.loc 1 203 16 is_stmt 0 view .LVU113
 431 0078 A9F80E80 		strh	r8, [r9, #14]	@ movhi
 204:Drivers/lvgl/src/draw/sw/lv_draw_sw_gradient.c ****     if(item->not_cached) {
 432              		.loc 1 204 5 is_stmt 1 view .LVU114
 433              		.loc 1 204 7 is_stmt 0 view .LVU115
 434 007c 5BB2     		sxtb	r3, r3
 435 007e 002B     		cmp	r3, #0
 436 0080 3BDB     		blt	.L44
 205:Drivers/lvgl/src/draw/sw/lv_draw_sw_gradient.c ****         uint8_t * p = (uint8_t *)item;
 206:Drivers/lvgl/src/draw/sw/lv_draw_sw_gradient.c ****         item->map = (lv_color_t *)(p + ALIGN(sizeof(*item)));
 207:Drivers/lvgl/src/draw/sw/lv_draw_sw_gradient.c **** #if _DITHER_GRADIENT
 208:Drivers/lvgl/src/draw/sw/lv_draw_sw_gradient.c ****         item->hmap = (lv_color32_t *)(p + ALIGN(sizeof(*item)) + ALIGN(map_size * sizeof(lv_color_t
 209:Drivers/lvgl/src/draw/sw/lv_draw_sw_gradient.c **** #if LV_DITHER_ERROR_DIFFUSION == 1
 210:Drivers/lvgl/src/draw/sw/lv_draw_sw_gradient.c ****         item->error_acc = (lv_scolor24_t *)(p + ALIGN(sizeof(*item)) + ALIGN(size * sizeof(lv_grad_
 211:Drivers/lvgl/src/draw/sw/lv_draw_sw_gradient.c ****                                             ALIGN(map_size * sizeof(lv_color_t)));
 212:Drivers/lvgl/src/draw/sw/lv_draw_sw_gradient.c ****         item->w = w;
 213:Drivers/lvgl/src/draw/sw/lv_draw_sw_gradient.c **** #endif
 214:Drivers/lvgl/src/draw/sw/lv_draw_sw_gradient.c **** #endif
 215:Drivers/lvgl/src/draw/sw/lv_draw_sw_gradient.c ****     }
 216:Drivers/lvgl/src/draw/sw/lv_draw_sw_gradient.c ****     else {
 217:Drivers/lvgl/src/draw/sw/lv_draw_sw_gradient.c ****         item->map = (lv_color_t *)(grad_cache_end + ALIGN(sizeof(*item)));
 437              		.loc 1 217 9 is_stmt 1 view .LVU116
 438              		.loc 1 217 51 is_stmt 0 view .LVU117
 439 0082 204A     		ldr	r2, .L45
 440 0084 1368     		ldr	r3, [r2]
 441 0086 03F11001 		add	r1, r3, #16
 442              		.loc 1 217 19 view .LVU118
 443 008a C9F80810 		str	r1, [r9, #8]
 218:Drivers/lvgl/src/draw/sw/lv_draw_sw_gradient.c **** #if _DITHER_GRADIENT
 219:Drivers/lvgl/src/draw/sw/lv_draw_sw_gradient.c ****         item->hmap = (lv_color32_t *)(grad_cache_end + ALIGN(sizeof(*item)) + ALIGN(map_size * size
 220:Drivers/lvgl/src/draw/sw/lv_draw_sw_gradient.c **** #if LV_DITHER_ERROR_DIFFUSION == 1
 221:Drivers/lvgl/src/draw/sw/lv_draw_sw_gradient.c ****         item->error_acc = (lv_scolor24_t *)(grad_cache_end + ALIGN(sizeof(*item)) + ALIGN(size * si
 222:Drivers/lvgl/src/draw/sw/lv_draw_sw_gradient.c ****                                             ALIGN(map_size * sizeof(lv_color_t)));
 223:Drivers/lvgl/src/draw/sw/lv_draw_sw_gradient.c ****         item->w = w;
 224:Drivers/lvgl/src/draw/sw/lv_draw_sw_gradient.c **** #endif
 225:Drivers/lvgl/src/draw/sw/lv_draw_sw_gradient.c **** #endif
 226:Drivers/lvgl/src/draw/sw/lv_draw_sw_gradient.c ****         grad_cache_end += req_size;
 444              		.loc 1 226 9 is_stmt 1 view .LVU119
 445              		.loc 1 226 24 is_stmt 0 view .LVU120
 446 008e 2344     		add	r3, r3, r4
 447 0090 1360     		str	r3, [r2]
 227:Drivers/lvgl/src/draw/sw/lv_draw_sw_gradient.c ****     }
 228:Drivers/lvgl/src/draw/sw/lv_draw_sw_gradient.c ****     return item;
 448              		.loc 1 228 5 is_stmt 1 view .LVU121
 449              	.L29:
 229:Drivers/lvgl/src/draw/sw/lv_draw_sw_gradient.c **** }
ARM GAS  /var/folders/0z/tsy30v1j4xl4_7kw94k978ww0000gn/T//cci0thdE.s 			page 13


 450              		.loc 1 229 1 is_stmt 0 view .LVU122
 451 0092 4846     		mov	r0, r9
 452 0094 03B0     		add	sp, sp, #12
 453              		.cfi_remember_state
 454              		.cfi_def_cfa_offset 28
 455              		@ sp needed
 456 0096 BDE8F083 		pop	{r4, r5, r6, r7, r8, r9, pc}
 457              	.LVL42:
 458              	.L43:
 459              		.cfi_restore_state
 160:Drivers/lvgl/src/draw/sw/lv_draw_sw_gradient.c ****     lv_coord_t map_size = LV_MAX(w, h); /* The map is being used horizontally (width) unless
 460              		.loc 1 160 16 view .LVU123
 461 009a 8846     		mov	r8, r1
 462 009c BCE7     		b	.L30
 463              	.LVL43:
 464              	.L31:
 180:Drivers/lvgl/src/draw/sw/lv_draw_sw_gradient.c ****             while(act_size + req_size > grad_cache_size) {
 465              		.loc 1 180 9 is_stmt 1 view .LVU124
 180:Drivers/lvgl/src/draw/sw/lv_draw_sw_gradient.c ****             while(act_size + req_size > grad_cache_size) {
 466              		.loc 1 180 11 is_stmt 0 view .LVU125
 467 009e A242     		cmp	r2, r4
 468 00a0 1BD2     		bcs	.L33
 192:Drivers/lvgl/src/draw/sw/lv_draw_sw_gradient.c ****             LV_ASSERT_MALLOC(item);
 469              		.loc 1 192 13 is_stmt 1 view .LVU126
 192:Drivers/lvgl/src/draw/sw/lv_draw_sw_gradient.c ****             LV_ASSERT_MALLOC(item);
 470              		.loc 1 192 20 is_stmt 0 view .LVU127
 471 00a2 2046     		mov	r0, r4
 472              	.LVL44:
 192:Drivers/lvgl/src/draw/sw/lv_draw_sw_gradient.c ****             LV_ASSERT_MALLOC(item);
 473              		.loc 1 192 20 view .LVU128
 474 00a4 FFF7FEFF 		bl	lv_mem_alloc
 475              	.LVL45:
 193:Drivers/lvgl/src/draw/sw/lv_draw_sw_gradient.c ****             if(item == NULL) return NULL;
 476              		.loc 1 193 13 is_stmt 1 view .LVU129
 193:Drivers/lvgl/src/draw/sw/lv_draw_sw_gradient.c ****             if(item == NULL) return NULL;
 477              		.loc 1 193 13 view .LVU130
 478 00a8 8146     		mov	r9, r0
 193:Drivers/lvgl/src/draw/sw/lv_draw_sw_gradient.c ****             if(item == NULL) return NULL;
 479              		.loc 1 193 13 is_stmt 0 view .LVU131
 480 00aa 28B3     		cbz	r0, .L37
 193:Drivers/lvgl/src/draw/sw/lv_draw_sw_gradient.c ****             if(item == NULL) return NULL;
 481              		.loc 1 193 13 is_stmt 1 view .LVU132
 193:Drivers/lvgl/src/draw/sw/lv_draw_sw_gradient.c ****             if(item == NULL) return NULL;
 482              		.loc 1 193 35 view .LVU133
 194:Drivers/lvgl/src/draw/sw/lv_draw_sw_gradient.c ****             item->not_cached = 1;
 483              		.loc 1 194 13 view .LVU134
 195:Drivers/lvgl/src/draw/sw/lv_draw_sw_gradient.c ****         }
 484              		.loc 1 195 13 view .LVU135
 195:Drivers/lvgl/src/draw/sw/lv_draw_sw_gradient.c ****         }
 485              		.loc 1 195 30 is_stmt 0 view .LVU136
 486 00ac C379     		ldrb	r3, [r0, #7]	@ zero_extendqisi2
 487 00ae 43F08003 		orr	r3, r3, #128
 488 00b2 C371     		strb	r3, [r0, #7]
 489 00b4 CAE7     		b	.L32
 490              	.LVL46:
 491              	.L35:
 492              	.LBB2:
ARM GAS  /var/folders/0z/tsy30v1j4xl4_7kw94k978ww0000gn/T//cci0thdE.s 			page 14


 182:Drivers/lvgl/src/draw/sw/lv_draw_sw_gradient.c ****                 iterate_cache(&find_oldest_item_life, &oldest_life, NULL);
 493              		.loc 1 182 17 is_stmt 1 view .LVU137
 182:Drivers/lvgl/src/draw/sw/lv_draw_sw_gradient.c ****                 iterate_cache(&find_oldest_item_life, &oldest_life, NULL);
 494              		.loc 1 182 26 is_stmt 0 view .LVU138
 495 00b6 4FF0FF33 		mov	r3, #-1
 496 00ba 0193     		str	r3, [sp, #4]
 183:Drivers/lvgl/src/draw/sw/lv_draw_sw_gradient.c ****                 iterate_cache(&kill_oldest_item, &oldest_life, NULL);
 497              		.loc 1 183 17 is_stmt 1 view .LVU139
 498 00bc 0022     		movs	r2, #0
 499 00be 01A9     		add	r1, sp, #4
 500 00c0 1348     		ldr	r0, .L45+12
 501 00c2 FFF7FEFF 		bl	iterate_cache
 502              	.LVL47:
 184:Drivers/lvgl/src/draw/sw/lv_draw_sw_gradient.c ****                 act_size = (size_t)(grad_cache_end - LV_GC_ROOT(_lv_grad_cache_mem));
 503              		.loc 1 184 17 view .LVU140
 504 00c6 0022     		movs	r2, #0
 505 00c8 01A9     		add	r1, sp, #4
 506 00ca 1248     		ldr	r0, .L45+16
 507 00cc FFF7FEFF 		bl	iterate_cache
 508              	.LVL48:
 185:Drivers/lvgl/src/draw/sw/lv_draw_sw_gradient.c ****             }
 509              		.loc 1 185 17 view .LVU141
 185:Drivers/lvgl/src/draw/sw/lv_draw_sw_gradient.c ****             }
 510              		.loc 1 185 52 is_stmt 0 view .LVU142
 511 00d0 0C4B     		ldr	r3, .L45
 512 00d2 1B68     		ldr	r3, [r3]
 513 00d4 0C4A     		ldr	r2, .L45+4
 514 00d6 1268     		ldr	r2, [r2]
 515 00d8 9B1A     		subs	r3, r3, r2
 516              	.LVL49:
 517              	.L33:
 185:Drivers/lvgl/src/draw/sw/lv_draw_sw_gradient.c ****             }
 518              		.loc 1 185 52 view .LVU143
 519              	.LBE2:
 181:Drivers/lvgl/src/draw/sw/lv_draw_sw_gradient.c ****                 uint32_t oldest_life = UINT32_MAX;
 520              		.loc 1 181 39 is_stmt 1 view .LVU144
 181:Drivers/lvgl/src/draw/sw/lv_draw_sw_gradient.c ****                 uint32_t oldest_life = UINT32_MAX;
 521              		.loc 1 181 28 is_stmt 0 view .LVU145
 522 00da 2344     		add	r3, r3, r4
 523              	.LVL50:
 181:Drivers/lvgl/src/draw/sw/lv_draw_sw_gradient.c ****                 uint32_t oldest_life = UINT32_MAX;
 524              		.loc 1 181 39 view .LVU146
 525 00dc 0B4A     		ldr	r2, .L45+8
 526 00de 1268     		ldr	r2, [r2]
 527 00e0 9342     		cmp	r3, r2
 528 00e2 E8D8     		bhi	.L35
 187:Drivers/lvgl/src/draw/sw/lv_draw_sw_gradient.c ****             item->not_cached = 0;
 529              		.loc 1 187 13 is_stmt 1 view .LVU147
 187:Drivers/lvgl/src/draw/sw/lv_draw_sw_gradient.c ****             item->not_cached = 0;
 530              		.loc 1 187 18 is_stmt 0 view .LVU148
 531 00e4 074B     		ldr	r3, .L45
 532 00e6 D3F80090 		ldr	r9, [r3]
 533              	.LVL51:
 188:Drivers/lvgl/src/draw/sw/lv_draw_sw_gradient.c ****         }
 534              		.loc 1 188 13 is_stmt 1 view .LVU149
 188:Drivers/lvgl/src/draw/sw/lv_draw_sw_gradient.c ****         }
 535              		.loc 1 188 30 is_stmt 0 view .LVU150
ARM GAS  /var/folders/0z/tsy30v1j4xl4_7kw94k978ww0000gn/T//cci0thdE.s 			page 15


 536 00ea 99F80730 		ldrb	r3, [r9, #7]	@ zero_extendqisi2
 537 00ee 6FF3C713 		bfc	r3, #7, #1
 538 00f2 89F80730 		strb	r3, [r9, #7]
 539 00f6 A9E7     		b	.L32
 540              	.LVL52:
 541              	.L37:
 193:Drivers/lvgl/src/draw/sw/lv_draw_sw_gradient.c ****             if(item == NULL) return NULL;
 542              		.loc 1 193 13 is_stmt 1 discriminator 1 view .LVU151
 193:Drivers/lvgl/src/draw/sw/lv_draw_sw_gradient.c ****             if(item == NULL) return NULL;
 543              		.loc 1 193 13 discriminator 1 view .LVU152
 193:Drivers/lvgl/src/draw/sw/lv_draw_sw_gradient.c ****             if(item == NULL) return NULL;
 544              		.loc 1 193 13 discriminator 1 view .LVU153
 193:Drivers/lvgl/src/draw/sw/lv_draw_sw_gradient.c ****             if(item == NULL) return NULL;
 545              		.loc 1 193 13 discriminator 1 view .LVU154
 193:Drivers/lvgl/src/draw/sw/lv_draw_sw_gradient.c ****             if(item == NULL) return NULL;
 546              		.loc 1 193 13 discriminator 1 view .LVU155
 547 00f8 FEE7     		b	.L37
 548              	.LVL53:
 549              	.L44:
 550              	.LBB3:
 205:Drivers/lvgl/src/draw/sw/lv_draw_sw_gradient.c ****         item->map = (lv_color_t *)(p + ALIGN(sizeof(*item)));
 551              		.loc 1 205 9 view .LVU156
 206:Drivers/lvgl/src/draw/sw/lv_draw_sw_gradient.c **** #if _DITHER_GRADIENT
 552              		.loc 1 206 9 view .LVU157
 206:Drivers/lvgl/src/draw/sw/lv_draw_sw_gradient.c **** #if _DITHER_GRADIENT
 553              		.loc 1 206 38 is_stmt 0 view .LVU158
 554 00fa 09F11003 		add	r3, r9, #16
 206:Drivers/lvgl/src/draw/sw/lv_draw_sw_gradient.c **** #if _DITHER_GRADIENT
 555              		.loc 1 206 19 view .LVU159
 556 00fe C9F80830 		str	r3, [r9, #8]
 557              	.LBE3:
 558 0102 C6E7     		b	.L29
 559              	.L46:
 560              		.align	2
 561              	.L45:
 562 0104 00000000 		.word	.LANCHOR1
 563 0108 00000000 		.word	_lv_grad_cache_mem
 564 010c 00000000 		.word	.LANCHOR0
 565 0110 00000000 		.word	find_oldest_item_life
 566 0114 00000000 		.word	kill_oldest_item
 567              		.cfi_endproc
 568              	.LFE64:
 570              		.section	.text.free_item,"ax",%progbits
 571              		.align	1
 572              		.syntax unified
 573              		.thumb
 574              		.thumb_func
 576              	free_item:
 577              	.LVL54:
 578              	.LFB61:
 118:Drivers/lvgl/src/draw/sw/lv_draw_sw_gradient.c ****     size_t size = get_cache_item_size(c);
 579              		.loc 1 118 1 is_stmt 1 view -0
 580              		.cfi_startproc
 581              		@ args = 0, pretend = 0, frame = 0
 582              		@ frame_needed = 0, uses_anonymous_args = 0
 118:Drivers/lvgl/src/draw/sw/lv_draw_sw_gradient.c ****     size_t size = get_cache_item_size(c);
 583              		.loc 1 118 1 is_stmt 0 view .LVU161
ARM GAS  /var/folders/0z/tsy30v1j4xl4_7kw94k978ww0000gn/T//cci0thdE.s 			page 16


 584 0000 2DE9F041 		push	{r4, r5, r6, r7, r8, lr}
 585              		.cfi_def_cfa_offset 24
 586              		.cfi_offset 4, -24
 587              		.cfi_offset 5, -20
 588              		.cfi_offset 6, -16
 589              		.cfi_offset 7, -12
 590              		.cfi_offset 8, -8
 591              		.cfi_offset 14, -4
 592 0004 0646     		mov	r6, r0
 119:Drivers/lvgl/src/draw/sw/lv_draw_sw_gradient.c ****     size_t next_items_size = (size_t)(grad_cache_end - (uint8_t *)c) - size;
 593              		.loc 1 119 5 is_stmt 1 view .LVU162
 119:Drivers/lvgl/src/draw/sw/lv_draw_sw_gradient.c ****     size_t next_items_size = (size_t)(grad_cache_end - (uint8_t *)c) - size;
 594              		.loc 1 119 19 is_stmt 0 view .LVU163
 595 0006 FFF7FEFF 		bl	get_cache_item_size
 596              	.LVL55:
 120:Drivers/lvgl/src/draw/sw/lv_draw_sw_gradient.c ****     grad_cache_end -= size;
 597              		.loc 1 120 5 is_stmt 1 view .LVU164
 120:Drivers/lvgl/src/draw/sw/lv_draw_sw_gradient.c ****     grad_cache_end -= size;
 598              		.loc 1 120 54 is_stmt 0 view .LVU165
 599 000a 114A     		ldr	r2, .L53
 600 000c 1368     		ldr	r3, [r2]
 601 000e 9F1B     		subs	r7, r3, r6
 602              	.LVL56:
 121:Drivers/lvgl/src/draw/sw/lv_draw_sw_gradient.c ****     if(next_items_size) {
 603              		.loc 1 121 5 is_stmt 1 view .LVU166
 121:Drivers/lvgl/src/draw/sw/lv_draw_sw_gradient.c ****     if(next_items_size) {
 604              		.loc 1 121 20 is_stmt 0 view .LVU167
 605 0010 1B1A     		subs	r3, r3, r0
 606 0012 1360     		str	r3, [r2]
 122:Drivers/lvgl/src/draw/sw/lv_draw_sw_gradient.c ****         uint8_t * old = (uint8_t *)c;
 607              		.loc 1 122 5 is_stmt 1 view .LVU168
 122:Drivers/lvgl/src/draw/sw/lv_draw_sw_gradient.c ****         uint8_t * old = (uint8_t *)c;
 608              		.loc 1 122 7 is_stmt 0 view .LVU169
 609 0014 3F1A     		subs	r7, r7, r0
 610              	.LVL57:
 122:Drivers/lvgl/src/draw/sw/lv_draw_sw_gradient.c ****         uint8_t * old = (uint8_t *)c;
 611              		.loc 1 122 7 view .LVU170
 612 0016 01D1     		bne	.L52
 613              	.LVL58:
 614              	.L47:
 138:Drivers/lvgl/src/draw/sw/lv_draw_sw_gradient.c **** 
 615              		.loc 1 138 1 view .LVU171
 616 0018 BDE8F081 		pop	{r4, r5, r6, r7, r8, pc}
 617              	.LVL59:
 618              	.L52:
 138:Drivers/lvgl/src/draw/sw/lv_draw_sw_gradient.c **** 
 619              		.loc 1 138 1 view .LVU172
 620 001c 0546     		mov	r5, r0
 621 001e C0F10008 		rsb	r8, r0, #0
 622              	.LBB4:
 123:Drivers/lvgl/src/draw/sw/lv_draw_sw_gradient.c ****         lv_memcpy(c, ((uint8_t *)c) + size, next_items_size);
 623              		.loc 1 123 9 is_stmt 1 view .LVU173
 624              	.LVL60:
 124:Drivers/lvgl/src/draw/sw/lv_draw_sw_gradient.c ****         /* Then need to fix all internal pointers too */
 625              		.loc 1 124 9 view .LVU174
 626 0022 3A46     		mov	r2, r7
 627 0024 3118     		adds	r1, r6, r0
ARM GAS  /var/folders/0z/tsy30v1j4xl4_7kw94k978ww0000gn/T//cci0thdE.s 			page 17


 628 0026 3046     		mov	r0, r6
 629              	.LVL61:
 124:Drivers/lvgl/src/draw/sw/lv_draw_sw_gradient.c ****         /* Then need to fix all internal pointers too */
 630              		.loc 1 124 9 is_stmt 0 view .LVU175
 631 0028 FFF7FEFF 		bl	lv_memcpy
 632              	.LVL62:
 126:Drivers/lvgl/src/draw/sw/lv_draw_sw_gradient.c ****             c->map = (lv_color_t *)(((uint8_t *)c->map) - size);
 633              		.loc 1 126 9 is_stmt 1 view .LVU176
 126:Drivers/lvgl/src/draw/sw/lv_draw_sw_gradient.c ****             c->map = (lv_color_t *)(((uint8_t *)c->map) - size);
 634              		.loc 1 126 14 is_stmt 0 view .LVU177
 635 002c 3446     		mov	r4, r6
 636 002e 06E0     		b	.L49
 637              	.LVL63:
 638              	.L50:
 127:Drivers/lvgl/src/draw/sw/lv_draw_sw_gradient.c **** #if _DITHER_GRADIENT
 639              		.loc 1 127 13 is_stmt 1 view .LVU178
 127:Drivers/lvgl/src/draw/sw/lv_draw_sw_gradient.c **** #if _DITHER_GRADIENT
 640              		.loc 1 127 50 is_stmt 0 view .LVU179
 641 0030 A368     		ldr	r3, [r4, #8]
 127:Drivers/lvgl/src/draw/sw/lv_draw_sw_gradient.c **** #if _DITHER_GRADIENT
 642              		.loc 1 127 22 view .LVU180
 643 0032 4344     		add	r3, r3, r8
 127:Drivers/lvgl/src/draw/sw/lv_draw_sw_gradient.c **** #if _DITHER_GRADIENT
 644              		.loc 1 127 20 view .LVU181
 645 0034 A360     		str	r3, [r4, #8]
 134:Drivers/lvgl/src/draw/sw/lv_draw_sw_gradient.c ****         }
 646              		.loc 1 134 13 is_stmt 1 view .LVU182
 134:Drivers/lvgl/src/draw/sw/lv_draw_sw_gradient.c ****         }
 647              		.loc 1 134 48 is_stmt 0 view .LVU183
 648 0036 2046     		mov	r0, r4
 649 0038 FFF7FEFF 		bl	get_cache_item_size
 650              	.LVL64:
 134:Drivers/lvgl/src/draw/sw/lv_draw_sw_gradient.c ****         }
 651              		.loc 1 134 15 view .LVU184
 652 003c 0444     		add	r4, r4, r0
 653              	.LVL65:
 654              	.L49:
 126:Drivers/lvgl/src/draw/sw/lv_draw_sw_gradient.c ****             c->map = (lv_color_t *)(((uint8_t *)c->map) - size);
 655              		.loc 1 126 28 is_stmt 1 view .LVU185
 656 003e 044B     		ldr	r3, .L53
 657 0040 1B68     		ldr	r3, [r3]
 658 0042 A342     		cmp	r3, r4
 659 0044 F4D1     		bne	.L50
 136:Drivers/lvgl/src/draw/sw/lv_draw_sw_gradient.c ****     }
 660              		.loc 1 136 9 view .LVU186
 661 0046 2946     		mov	r1, r5
 662 0048 F019     		adds	r0, r6, r7
 663 004a FFF7FEFF 		bl	lv_memset_00
 664              	.LVL66:
 665              	.LBE4:
 138:Drivers/lvgl/src/draw/sw/lv_draw_sw_gradient.c **** 
 666              		.loc 1 138 1 is_stmt 0 view .LVU187
 667 004e E3E7     		b	.L47
 668              	.L54:
 669              		.align	2
 670              	.L53:
 671 0050 00000000 		.word	.LANCHOR1
ARM GAS  /var/folders/0z/tsy30v1j4xl4_7kw94k978ww0000gn/T//cci0thdE.s 			page 18


 672              		.cfi_endproc
 673              	.LFE61:
 675              		.section	.text.kill_oldest_item,"ax",%progbits
 676              		.align	1
 677              		.syntax unified
 678              		.thumb
 679              		.thumb_func
 681              	kill_oldest_item:
 682              	.LVL67:
 683              	.LFB62:
 141:Drivers/lvgl/src/draw/sw/lv_draw_sw_gradient.c ****     uint32_t * min_life = (uint32_t *)ctx;
 684              		.loc 1 141 1 is_stmt 1 view -0
 685              		.cfi_startproc
 686              		@ args = 0, pretend = 0, frame = 0
 687              		@ frame_needed = 0, uses_anonymous_args = 0
 141:Drivers/lvgl/src/draw/sw/lv_draw_sw_gradient.c ****     uint32_t * min_life = (uint32_t *)ctx;
 688              		.loc 1 141 1 is_stmt 0 view .LVU189
 689 0000 08B5     		push	{r3, lr}
 690              		.cfi_def_cfa_offset 8
 691              		.cfi_offset 3, -8
 692              		.cfi_offset 14, -4
 142:Drivers/lvgl/src/draw/sw/lv_draw_sw_gradient.c ****     if(c->life == *min_life) {
 693              		.loc 1 142 5 is_stmt 1 view .LVU190
 694              	.LVL68:
 143:Drivers/lvgl/src/draw/sw/lv_draw_sw_gradient.c ****         /*Found, let's kill it*/
 695              		.loc 1 143 5 view .LVU191
 143:Drivers/lvgl/src/draw/sw/lv_draw_sw_gradient.c ****         /*Found, let's kill it*/
 696              		.loc 1 143 9 is_stmt 0 view .LVU192
 697 0002 4368     		ldr	r3, [r0, #4]
 698 0004 C3F31D03 		ubfx	r3, r3, #0, #30
 143:Drivers/lvgl/src/draw/sw/lv_draw_sw_gradient.c ****         /*Found, let's kill it*/
 699              		.loc 1 143 19 view .LVU193
 700 0008 0A68     		ldr	r2, [r1]
 143:Drivers/lvgl/src/draw/sw/lv_draw_sw_gradient.c ****         /*Found, let's kill it*/
 701              		.loc 1 143 7 view .LVU194
 702 000a 9342     		cmp	r3, r2
 703 000c 01D0     		beq	.L59
 148:Drivers/lvgl/src/draw/sw/lv_draw_sw_gradient.c **** }
 704              		.loc 1 148 12 view .LVU195
 705 000e 0020     		movs	r0, #0
 706              	.LVL69:
 707              	.L56:
 149:Drivers/lvgl/src/draw/sw/lv_draw_sw_gradient.c **** 
 708              		.loc 1 149 1 view .LVU196
 709 0010 08BD     		pop	{r3, pc}
 710              	.LVL70:
 711              	.L59:
 145:Drivers/lvgl/src/draw/sw/lv_draw_sw_gradient.c ****         return LV_RES_OK;
 712              		.loc 1 145 9 is_stmt 1 view .LVU197
 713 0012 FFF7FEFF 		bl	free_item
 714              	.LVL71:
 146:Drivers/lvgl/src/draw/sw/lv_draw_sw_gradient.c ****     }
 715              		.loc 1 146 9 view .LVU198
 146:Drivers/lvgl/src/draw/sw/lv_draw_sw_gradient.c ****     }
 716              		.loc 1 146 16 is_stmt 0 view .LVU199
 717 0016 0120     		movs	r0, #1
 718 0018 FAE7     		b	.L56
ARM GAS  /var/folders/0z/tsy30v1j4xl4_7kw94k978ww0000gn/T//cci0thdE.s 			page 19


 719              		.cfi_endproc
 720              	.LFE62:
 722              		.section	.text.lv_gradient_free_cache,"ax",%progbits
 723              		.align	1
 724              		.global	lv_gradient_free_cache
 725              		.syntax unified
 726              		.thumb
 727              		.thumb_func
 729              	lv_gradient_free_cache:
 730              	.LFB65:
 230:Drivers/lvgl/src/draw/sw/lv_draw_sw_gradient.c **** 
 231:Drivers/lvgl/src/draw/sw/lv_draw_sw_gradient.c **** 
 232:Drivers/lvgl/src/draw/sw/lv_draw_sw_gradient.c **** /**********************
 233:Drivers/lvgl/src/draw/sw/lv_draw_sw_gradient.c ****  *     FUNCTIONS
 234:Drivers/lvgl/src/draw/sw/lv_draw_sw_gradient.c ****  **********************/
 235:Drivers/lvgl/src/draw/sw/lv_draw_sw_gradient.c **** void lv_gradient_free_cache(void)
 236:Drivers/lvgl/src/draw/sw/lv_draw_sw_gradient.c **** {
 731              		.loc 1 236 1 is_stmt 1 view -0
 732              		.cfi_startproc
 733              		@ args = 0, pretend = 0, frame = 0
 734              		@ frame_needed = 0, uses_anonymous_args = 0
 735 0000 10B5     		push	{r4, lr}
 736              		.cfi_def_cfa_offset 8
 737              		.cfi_offset 4, -8
 738              		.cfi_offset 14, -4
 237:Drivers/lvgl/src/draw/sw/lv_draw_sw_gradient.c ****     lv_mem_free(LV_GC_ROOT(_lv_grad_cache_mem));
 739              		.loc 1 237 5 view .LVU201
 740 0002 054C     		ldr	r4, .L62
 741 0004 2068     		ldr	r0, [r4]
 742 0006 FFF7FEFF 		bl	lv_mem_free
 743              	.LVL72:
 238:Drivers/lvgl/src/draw/sw/lv_draw_sw_gradient.c ****     LV_GC_ROOT(_lv_grad_cache_mem) = grad_cache_end = NULL;
 744              		.loc 1 238 5 view .LVU202
 745              		.loc 1 238 53 is_stmt 0 view .LVU203
 746 000a 0023     		movs	r3, #0
 747 000c 034A     		ldr	r2, .L62+4
 748 000e 1360     		str	r3, [r2]
 749              		.loc 1 238 36 view .LVU204
 750 0010 2360     		str	r3, [r4]
 239:Drivers/lvgl/src/draw/sw/lv_draw_sw_gradient.c ****     grad_cache_size = 0;
 751              		.loc 1 239 5 is_stmt 1 view .LVU205
 752              		.loc 1 239 21 is_stmt 0 view .LVU206
 753 0012 034A     		ldr	r2, .L62+8
 754 0014 1360     		str	r3, [r2]
 240:Drivers/lvgl/src/draw/sw/lv_draw_sw_gradient.c **** }
 755              		.loc 1 240 1 view .LVU207
 756 0016 10BD     		pop	{r4, pc}
 757              	.L63:
 758              		.align	2
 759              	.L62:
 760 0018 00000000 		.word	_lv_grad_cache_mem
 761 001c 00000000 		.word	.LANCHOR1
 762 0020 00000000 		.word	.LANCHOR0
 763              		.cfi_endproc
 764              	.LFE65:
 766              		.section	.text.lv_gradient_set_cache_size,"ax",%progbits
 767              		.align	1
ARM GAS  /var/folders/0z/tsy30v1j4xl4_7kw94k978ww0000gn/T//cci0thdE.s 			page 20


 768              		.global	lv_gradient_set_cache_size
 769              		.syntax unified
 770              		.thumb
 771              		.thumb_func
 773              	lv_gradient_set_cache_size:
 774              	.LVL73:
 775              	.LFB66:
 241:Drivers/lvgl/src/draw/sw/lv_draw_sw_gradient.c **** 
 242:Drivers/lvgl/src/draw/sw/lv_draw_sw_gradient.c **** void lv_gradient_set_cache_size(size_t max_bytes)
 243:Drivers/lvgl/src/draw/sw/lv_draw_sw_gradient.c **** {
 776              		.loc 1 243 1 is_stmt 1 view -0
 777              		.cfi_startproc
 778              		@ args = 0, pretend = 0, frame = 0
 779              		@ frame_needed = 0, uses_anonymous_args = 0
 780              		.loc 1 243 1 is_stmt 0 view .LVU209
 781 0000 38B5     		push	{r3, r4, r5, lr}
 782              		.cfi_def_cfa_offset 16
 783              		.cfi_offset 3, -16
 784              		.cfi_offset 4, -12
 785              		.cfi_offset 5, -8
 786              		.cfi_offset 14, -4
 787 0002 0446     		mov	r4, r0
 244:Drivers/lvgl/src/draw/sw/lv_draw_sw_gradient.c ****     lv_mem_free(LV_GC_ROOT(_lv_grad_cache_mem));
 788              		.loc 1 244 5 is_stmt 1 view .LVU210
 789 0004 084D     		ldr	r5, .L68
 790 0006 2868     		ldr	r0, [r5]
 791              	.LVL74:
 792              		.loc 1 244 5 is_stmt 0 view .LVU211
 793 0008 FFF7FEFF 		bl	lv_mem_free
 794              	.LVL75:
 245:Drivers/lvgl/src/draw/sw/lv_draw_sw_gradient.c ****     grad_cache_end = LV_GC_ROOT(_lv_grad_cache_mem) = lv_mem_alloc(max_bytes);
 795              		.loc 1 245 5 is_stmt 1 view .LVU212
 796              		.loc 1 245 55 is_stmt 0 view .LVU213
 797 000c 2046     		mov	r0, r4
 798 000e FFF7FEFF 		bl	lv_mem_alloc
 799              	.LVL76:
 800              		.loc 1 245 53 view .LVU214
 801 0012 2860     		str	r0, [r5]
 802              		.loc 1 245 20 view .LVU215
 803 0014 054B     		ldr	r3, .L68+4
 804 0016 1860     		str	r0, [r3]
 246:Drivers/lvgl/src/draw/sw/lv_draw_sw_gradient.c ****     LV_ASSERT_MALLOC(LV_GC_ROOT(_lv_grad_cache_mem));
 805              		.loc 1 246 5 is_stmt 1 view .LVU216
 806              		.loc 1 246 5 view .LVU217
 807 0018 28B1     		cbz	r0, .L66
 808              		.loc 1 246 5 discriminator 2 view .LVU218
 809              		.loc 1 246 53 discriminator 2 view .LVU219
 247:Drivers/lvgl/src/draw/sw/lv_draw_sw_gradient.c ****     lv_memset_00(LV_GC_ROOT(_lv_grad_cache_mem), max_bytes);
 810              		.loc 1 247 5 discriminator 2 view .LVU220
 811 001a 2146     		mov	r1, r4
 812 001c FFF7FEFF 		bl	lv_memset_00
 813              	.LVL77:
 248:Drivers/lvgl/src/draw/sw/lv_draw_sw_gradient.c ****     grad_cache_size = max_bytes;
 814              		.loc 1 248 5 discriminator 2 view .LVU221
 815              		.loc 1 248 21 is_stmt 0 discriminator 2 view .LVU222
 816 0020 034B     		ldr	r3, .L68+8
 817 0022 1C60     		str	r4, [r3]
ARM GAS  /var/folders/0z/tsy30v1j4xl4_7kw94k978ww0000gn/T//cci0thdE.s 			page 21


 249:Drivers/lvgl/src/draw/sw/lv_draw_sw_gradient.c **** }
 818              		.loc 1 249 1 discriminator 2 view .LVU223
 819 0024 38BD     		pop	{r3, r4, r5, pc}
 820              	.LVL78:
 821              	.L66:
 246:Drivers/lvgl/src/draw/sw/lv_draw_sw_gradient.c ****     lv_memset_00(LV_GC_ROOT(_lv_grad_cache_mem), max_bytes);
 822              		.loc 1 246 5 is_stmt 1 discriminator 1 view .LVU224
 246:Drivers/lvgl/src/draw/sw/lv_draw_sw_gradient.c ****     lv_memset_00(LV_GC_ROOT(_lv_grad_cache_mem), max_bytes);
 823              		.loc 1 246 5 discriminator 1 view .LVU225
 246:Drivers/lvgl/src/draw/sw/lv_draw_sw_gradient.c ****     lv_memset_00(LV_GC_ROOT(_lv_grad_cache_mem), max_bytes);
 824              		.loc 1 246 5 discriminator 1 view .LVU226
 246:Drivers/lvgl/src/draw/sw/lv_draw_sw_gradient.c ****     lv_memset_00(LV_GC_ROOT(_lv_grad_cache_mem), max_bytes);
 825              		.loc 1 246 5 discriminator 1 view .LVU227
 246:Drivers/lvgl/src/draw/sw/lv_draw_sw_gradient.c ****     lv_memset_00(LV_GC_ROOT(_lv_grad_cache_mem), max_bytes);
 826              		.loc 1 246 5 discriminator 1 view .LVU228
 827 0026 FEE7     		b	.L66
 828              	.L69:
 829              		.align	2
 830              	.L68:
 831 0028 00000000 		.word	_lv_grad_cache_mem
 832 002c 00000000 		.word	.LANCHOR1
 833 0030 00000000 		.word	.LANCHOR0
 834              		.cfi_endproc
 835              	.LFE66:
 837              		.section	.text.lv_gradient_calculate,"ax",%progbits
 838              		.align	1
 839              		.global	lv_gradient_calculate
 840              		.syntax unified
 841              		.thumb
 842              		.thumb_func
 844              	lv_gradient_calculate:
 845              	.LVL79:
 846              	.LFB68:
 250:Drivers/lvgl/src/draw/sw/lv_draw_sw_gradient.c **** 
 251:Drivers/lvgl/src/draw/sw/lv_draw_sw_gradient.c **** lv_grad_t * lv_gradient_get(const lv_grad_dsc_t * g, lv_coord_t w, lv_coord_t h)
 252:Drivers/lvgl/src/draw/sw/lv_draw_sw_gradient.c **** {
 253:Drivers/lvgl/src/draw/sw/lv_draw_sw_gradient.c ****     /* No gradient, no cache */
 254:Drivers/lvgl/src/draw/sw/lv_draw_sw_gradient.c ****     if(g->dir == LV_GRAD_DIR_NONE) return NULL;
 255:Drivers/lvgl/src/draw/sw/lv_draw_sw_gradient.c **** 
 256:Drivers/lvgl/src/draw/sw/lv_draw_sw_gradient.c ****     /* Step 0: Check if the cache exist (else create it) */
 257:Drivers/lvgl/src/draw/sw/lv_draw_sw_gradient.c ****     static bool inited = false;
 258:Drivers/lvgl/src/draw/sw/lv_draw_sw_gradient.c ****     if(!inited) {
 259:Drivers/lvgl/src/draw/sw/lv_draw_sw_gradient.c ****         lv_gradient_set_cache_size(LV_GRAD_CACHE_DEF_SIZE);
 260:Drivers/lvgl/src/draw/sw/lv_draw_sw_gradient.c ****         inited = true;
 261:Drivers/lvgl/src/draw/sw/lv_draw_sw_gradient.c ****     }
 262:Drivers/lvgl/src/draw/sw/lv_draw_sw_gradient.c **** 
 263:Drivers/lvgl/src/draw/sw/lv_draw_sw_gradient.c ****     /* Step 1: Search cache for the given key */
 264:Drivers/lvgl/src/draw/sw/lv_draw_sw_gradient.c ****     lv_coord_t size = g->dir == LV_GRAD_DIR_HOR ? w : h;
 265:Drivers/lvgl/src/draw/sw/lv_draw_sw_gradient.c ****     uint32_t key = compute_key(g, size, w);
 266:Drivers/lvgl/src/draw/sw/lv_draw_sw_gradient.c ****     lv_grad_t * item = NULL;
 267:Drivers/lvgl/src/draw/sw/lv_draw_sw_gradient.c ****     if(iterate_cache(&find_item, &key, &item) == LV_RES_OK) {
 268:Drivers/lvgl/src/draw/sw/lv_draw_sw_gradient.c ****         item->life++; /* Don't forget to bump the counter */
 269:Drivers/lvgl/src/draw/sw/lv_draw_sw_gradient.c ****         return item;
 270:Drivers/lvgl/src/draw/sw/lv_draw_sw_gradient.c ****     }
 271:Drivers/lvgl/src/draw/sw/lv_draw_sw_gradient.c **** 
 272:Drivers/lvgl/src/draw/sw/lv_draw_sw_gradient.c ****     /* Step 2: Need to allocate an item for it */
 273:Drivers/lvgl/src/draw/sw/lv_draw_sw_gradient.c ****     item = allocate_item(g, w, h);
ARM GAS  /var/folders/0z/tsy30v1j4xl4_7kw94k978ww0000gn/T//cci0thdE.s 			page 22


 274:Drivers/lvgl/src/draw/sw/lv_draw_sw_gradient.c ****     if(item == NULL) {
 275:Drivers/lvgl/src/draw/sw/lv_draw_sw_gradient.c ****         LV_LOG_WARN("Faild to allcoate item for teh gradient");
 276:Drivers/lvgl/src/draw/sw/lv_draw_sw_gradient.c ****         return item;
 277:Drivers/lvgl/src/draw/sw/lv_draw_sw_gradient.c ****     }
 278:Drivers/lvgl/src/draw/sw/lv_draw_sw_gradient.c **** 
 279:Drivers/lvgl/src/draw/sw/lv_draw_sw_gradient.c ****     /* Step 3: Fill it with the gradient, as expected */
 280:Drivers/lvgl/src/draw/sw/lv_draw_sw_gradient.c **** #if _DITHER_GRADIENT
 281:Drivers/lvgl/src/draw/sw/lv_draw_sw_gradient.c ****     for(lv_coord_t i = 0; i < item->size; i++) {
 282:Drivers/lvgl/src/draw/sw/lv_draw_sw_gradient.c ****         item->hmap[i] = lv_gradient_calculate(g, item->size, i);
 283:Drivers/lvgl/src/draw/sw/lv_draw_sw_gradient.c ****     }
 284:Drivers/lvgl/src/draw/sw/lv_draw_sw_gradient.c **** #if LV_DITHER_ERROR_DIFFUSION == 1
 285:Drivers/lvgl/src/draw/sw/lv_draw_sw_gradient.c ****     lv_memset_00(item->error_acc, w * sizeof(lv_scolor24_t));
 286:Drivers/lvgl/src/draw/sw/lv_draw_sw_gradient.c **** #endif
 287:Drivers/lvgl/src/draw/sw/lv_draw_sw_gradient.c **** #else
 288:Drivers/lvgl/src/draw/sw/lv_draw_sw_gradient.c ****     for(lv_coord_t i = 0; i < item->size; i++) {
 289:Drivers/lvgl/src/draw/sw/lv_draw_sw_gradient.c ****         item->map[i] = lv_gradient_calculate(g, item->size, i);
 290:Drivers/lvgl/src/draw/sw/lv_draw_sw_gradient.c ****     }
 291:Drivers/lvgl/src/draw/sw/lv_draw_sw_gradient.c **** #endif
 292:Drivers/lvgl/src/draw/sw/lv_draw_sw_gradient.c **** 
 293:Drivers/lvgl/src/draw/sw/lv_draw_sw_gradient.c ****     return item;
 294:Drivers/lvgl/src/draw/sw/lv_draw_sw_gradient.c **** }
 295:Drivers/lvgl/src/draw/sw/lv_draw_sw_gradient.c **** 
 296:Drivers/lvgl/src/draw/sw/lv_draw_sw_gradient.c **** lv_grad_color_t LV_ATTRIBUTE_FAST_MEM lv_gradient_calculate(const lv_grad_dsc_t * dsc, lv_coord_t r
 297:Drivers/lvgl/src/draw/sw/lv_draw_sw_gradient.c ****                                                             lv_coord_t frac)
 298:Drivers/lvgl/src/draw/sw/lv_draw_sw_gradient.c **** {
 847              		.loc 1 298 1 view -0
 848              		.cfi_startproc
 849              		@ args = 0, pretend = 0, frame = 0
 850              		@ frame_needed = 0, uses_anonymous_args = 0
 299:Drivers/lvgl/src/draw/sw/lv_draw_sw_gradient.c ****     lv_grad_color_t tmp;
 851              		.loc 1 299 5 view .LVU230
 300:Drivers/lvgl/src/draw/sw/lv_draw_sw_gradient.c ****     lv_color32_t one, two;
 852              		.loc 1 300 5 view .LVU231
 301:Drivers/lvgl/src/draw/sw/lv_draw_sw_gradient.c ****     /*Clip out-of-bounds first*/
 302:Drivers/lvgl/src/draw/sw/lv_draw_sw_gradient.c ****     int32_t min = (dsc->stops[0].frac * range) >> 8;
 853              		.loc 1 302 5 view .LVU232
 854              		.loc 1 302 33 is_stmt 0 view .LVU233
 855 0000 8378     		ldrb	r3, [r0, #2]	@ zero_extendqisi2
 856              		.loc 1 302 39 view .LVU234
 857 0002 01FB03F3 		mul	r3, r1, r3
 858              	.LVL80:
 303:Drivers/lvgl/src/draw/sw/lv_draw_sw_gradient.c ****     if(frac <= min) {
 859              		.loc 1 303 5 is_stmt 1 view .LVU235
 860              		.loc 1 303 7 is_stmt 0 view .LVU236
 861 0006 B2EB232F 		cmp	r2, r3, asr #8
 862 000a 1EDD     		ble	.L83
 298:Drivers/lvgl/src/draw/sw/lv_draw_sw_gradient.c ****     lv_grad_color_t tmp;
 863              		.loc 1 298 1 view .LVU237
 864 000c 2DE9F041 		push	{r4, r5, r6, r7, r8, lr}
 865              		.cfi_def_cfa_offset 24
 866              		.cfi_offset 4, -24
 867              		.cfi_offset 5, -20
 868              		.cfi_offset 6, -16
 869              		.cfi_offset 7, -12
 870              		.cfi_offset 8, -8
 871              		.cfi_offset 14, -4
 872 0010 1F12     		asrs	r7, r3, #8
ARM GAS  /var/folders/0z/tsy30v1j4xl4_7kw94k978ww0000gn/T//cci0thdE.s 			page 23


 873              	.LVL81:
 304:Drivers/lvgl/src/draw/sw/lv_draw_sw_gradient.c ****         GRAD_CONV(tmp, dsc->stops[0].color);
 305:Drivers/lvgl/src/draw/sw/lv_draw_sw_gradient.c ****         return tmp;
 306:Drivers/lvgl/src/draw/sw/lv_draw_sw_gradient.c ****     }
 307:Drivers/lvgl/src/draw/sw/lv_draw_sw_gradient.c **** 
 308:Drivers/lvgl/src/draw/sw/lv_draw_sw_gradient.c ****     int32_t max = (dsc->stops[dsc->stops_count - 1].frac * range) >> 8;
 874              		.loc 1 308 5 is_stmt 1 view .LVU238
 875              		.loc 1 308 34 is_stmt 0 view .LVU239
 876 0012 057A     		ldrb	r5, [r0, #8]	@ zero_extendqisi2
 877              		.loc 1 308 48 view .LVU240
 878 0014 6E1E     		subs	r6, r5, #1
 879              		.loc 1 308 52 view .LVU241
 880 0016 00EB8603 		add	r3, r0, r6, lsl #2
 881 001a 9B78     		ldrb	r3, [r3, #2]	@ zero_extendqisi2
 882              		.loc 1 308 58 view .LVU242
 883 001c 01FB03F3 		mul	r3, r1, r3
 884              	.LVL82:
 309:Drivers/lvgl/src/draw/sw/lv_draw_sw_gradient.c ****     if(frac >= max) {
 885              		.loc 1 309 5 is_stmt 1 view .LVU243
 886              		.loc 1 309 7 is_stmt 0 view .LVU244
 887 0020 B2EB232F 		cmp	r2, r3, asr #8
 888 0024 13DA     		bge	.L84
 889              	.LBB11:
 310:Drivers/lvgl/src/draw/sw/lv_draw_sw_gradient.c ****         GRAD_CONV(tmp, dsc->stops[dsc->stops_count - 1].color);
 311:Drivers/lvgl/src/draw/sw/lv_draw_sw_gradient.c ****         return tmp;
 312:Drivers/lvgl/src/draw/sw/lv_draw_sw_gradient.c ****     }
 313:Drivers/lvgl/src/draw/sw/lv_draw_sw_gradient.c **** 
 314:Drivers/lvgl/src/draw/sw/lv_draw_sw_gradient.c ****     /*Find the 2 closest stop now*/
 315:Drivers/lvgl/src/draw/sw/lv_draw_sw_gradient.c ****     int32_t d = 0;
 316:Drivers/lvgl/src/draw/sw/lv_draw_sw_gradient.c ****     for(uint8_t i = 1; i < dsc->stops_count; i++) {
 890              		.loc 1 316 17 view .LVU245
 891 0026 0123     		movs	r3, #1
 892              	.LVL83:
 893              	.L73:
 894              		.loc 1 316 26 is_stmt 1 discriminator 1 view .LVU246
 895 0028 9D42     		cmp	r5, r3
 896 002a 73D9     		bls	.L85
 897              	.LBB12:
 317:Drivers/lvgl/src/draw/sw/lv_draw_sw_gradient.c ****         int32_t cur = (dsc->stops[i].frac * range) >> 8;
 898              		.loc 1 317 9 view .LVU247
 899              		.loc 1 317 37 is_stmt 0 view .LVU248
 900 002c 9846     		mov	r8, r3
 901 002e 00EB830C 		add	ip, r0, r3, lsl #2
 902 0032 9CF802C0 		ldrb	ip, [ip, #2]	@ zero_extendqisi2
 903              		.loc 1 317 43 view .LVU249
 904 0036 0CFB01FC 		mul	ip, ip, r1
 905              		.loc 1 317 17 view .LVU250
 906 003a 4FEA2C26 		asr	r6, ip, #8
 907              	.LVL84:
 318:Drivers/lvgl/src/draw/sw/lv_draw_sw_gradient.c ****         if(frac <= cur) {
 908              		.loc 1 318 9 is_stmt 1 view .LVU251
 909              		.loc 1 318 11 is_stmt 0 view .LVU252
 910 003e B2EB2C2F 		cmp	r2, ip, asr #8
 911 0042 08DD     		ble	.L86
 912              	.LBE12:
 316:Drivers/lvgl/src/draw/sw/lv_draw_sw_gradient.c ****         int32_t cur = (dsc->stops[i].frac * range) >> 8;
 913              		.loc 1 316 47 is_stmt 1 discriminator 2 view .LVU253
ARM GAS  /var/folders/0z/tsy30v1j4xl4_7kw94k978ww0000gn/T//cci0thdE.s 			page 24


 914 0044 0133     		adds	r3, r3, #1
 915              	.LVL85:
 316:Drivers/lvgl/src/draw/sw/lv_draw_sw_gradient.c ****         int32_t cur = (dsc->stops[i].frac * range) >> 8;
 916              		.loc 1 316 47 is_stmt 0 discriminator 2 view .LVU254
 917 0046 DBB2     		uxtb	r3, r3
 918              	.LVL86:
 316:Drivers/lvgl/src/draw/sw/lv_draw_sw_gradient.c ****         int32_t cur = (dsc->stops[i].frac * range) >> 8;
 919              		.loc 1 316 47 discriminator 2 view .LVU255
 920 0048 EEE7     		b	.L73
 921              	.LVL87:
 922              	.L83:
 923              		.cfi_def_cfa_offset 0
 924              		.cfi_restore 4
 925              		.cfi_restore 5
 926              		.cfi_restore 6
 927              		.cfi_restore 7
 928              		.cfi_restore 8
 929              		.cfi_restore 14
 316:Drivers/lvgl/src/draw/sw/lv_draw_sw_gradient.c ****         int32_t cur = (dsc->stops[i].frac * range) >> 8;
 930              		.loc 1 316 47 discriminator 2 view .LVU256
 931              	.LBE11:
 304:Drivers/lvgl/src/draw/sw/lv_draw_sw_gradient.c ****         return tmp;
 932              		.loc 1 304 9 is_stmt 1 view .LVU257
 933 004a 0088     		ldrh	r0, [r0]
 934              	.LVL88:
 305:Drivers/lvgl/src/draw/sw/lv_draw_sw_gradient.c ****     }
 935              		.loc 1 305 9 view .LVU258
 319:Drivers/lvgl/src/draw/sw/lv_draw_sw_gradient.c ****             one.full = lv_color_to32(dsc->stops[i - 1].color);
 320:Drivers/lvgl/src/draw/sw/lv_draw_sw_gradient.c ****             two.full = lv_color_to32(dsc->stops[i].color);
 321:Drivers/lvgl/src/draw/sw/lv_draw_sw_gradient.c ****             min = (dsc->stops[i - 1].frac * range) >> 8;
 322:Drivers/lvgl/src/draw/sw/lv_draw_sw_gradient.c ****             max = (dsc->stops[i].frac * range) >> 8;
 323:Drivers/lvgl/src/draw/sw/lv_draw_sw_gradient.c ****             d = max - min;
 324:Drivers/lvgl/src/draw/sw/lv_draw_sw_gradient.c ****             break;
 325:Drivers/lvgl/src/draw/sw/lv_draw_sw_gradient.c ****         }
 326:Drivers/lvgl/src/draw/sw/lv_draw_sw_gradient.c ****     }
 327:Drivers/lvgl/src/draw/sw/lv_draw_sw_gradient.c **** 
 328:Drivers/lvgl/src/draw/sw/lv_draw_sw_gradient.c ****     LV_ASSERT(d != 0);
 329:Drivers/lvgl/src/draw/sw/lv_draw_sw_gradient.c **** 
 330:Drivers/lvgl/src/draw/sw/lv_draw_sw_gradient.c ****     /*Then interpolate*/
 331:Drivers/lvgl/src/draw/sw/lv_draw_sw_gradient.c ****     frac -= min;
 332:Drivers/lvgl/src/draw/sw/lv_draw_sw_gradient.c ****     lv_opa_t mix = (frac * 255) / d;
 333:Drivers/lvgl/src/draw/sw/lv_draw_sw_gradient.c ****     lv_opa_t imix = 255 - mix;
 334:Drivers/lvgl/src/draw/sw/lv_draw_sw_gradient.c **** 
 335:Drivers/lvgl/src/draw/sw/lv_draw_sw_gradient.c ****     lv_grad_color_t r = GRAD_CM(LV_UDIV255(two.ch.red * mix   + one.ch.red * imix),
 336:Drivers/lvgl/src/draw/sw/lv_draw_sw_gradient.c ****                                 LV_UDIV255(two.ch.green * mix + one.ch.green * imix),
 337:Drivers/lvgl/src/draw/sw/lv_draw_sw_gradient.c ****                                 LV_UDIV255(two.ch.blue * mix  + one.ch.blue * imix));
 338:Drivers/lvgl/src/draw/sw/lv_draw_sw_gradient.c ****     return r;
 339:Drivers/lvgl/src/draw/sw/lv_draw_sw_gradient.c **** }
 936              		.loc 1 339 1 is_stmt 0 view .LVU259
 937 004c 7047     		bx	lr
 938              	.LVL89:
 939              	.L84:
 940              		.cfi_def_cfa_offset 24
 941              		.cfi_offset 4, -24
 942              		.cfi_offset 5, -20
 943              		.cfi_offset 6, -16
 944              		.cfi_offset 7, -12
ARM GAS  /var/folders/0z/tsy30v1j4xl4_7kw94k978ww0000gn/T//cci0thdE.s 			page 25


 945              		.cfi_offset 8, -8
 946              		.cfi_offset 14, -4
 310:Drivers/lvgl/src/draw/sw/lv_draw_sw_gradient.c ****         return tmp;
 947              		.loc 1 310 9 is_stmt 1 view .LVU260
 948 004e 30F82600 		ldrh	r0, [r0, r6, lsl #2]
 949              	.LVL90:
 311:Drivers/lvgl/src/draw/sw/lv_draw_sw_gradient.c ****     }
 950              		.loc 1 311 9 view .LVU261
 951              	.L72:
 952              	.LVL91:
 953              		.loc 1 339 1 is_stmt 0 view .LVU262
 954 0052 BDE8F081 		pop	{r4, r5, r6, r7, r8, pc}
 955              	.LVL92:
 956              	.L86:
 957              	.LBB18:
 958              	.LBB17:
 319:Drivers/lvgl/src/draw/sw/lv_draw_sw_gradient.c ****             one.full = lv_color_to32(dsc->stops[i - 1].color);
 959              		.loc 1 319 13 is_stmt 1 view .LVU263
 319:Drivers/lvgl/src/draw/sw/lv_draw_sw_gradient.c ****             one.full = lv_color_to32(dsc->stops[i - 1].color);
 960              		.loc 1 319 51 is_stmt 0 view .LVU264
 961 0056 5D1E     		subs	r5, r3, #1
 962              	.LVL93:
 319:Drivers/lvgl/src/draw/sw/lv_draw_sw_gradient.c ****             one.full = lv_color_to32(dsc->stops[i - 1].color);
 963              		.loc 1 319 51 view .LVU265
 964 0058 30F82530 		ldrh	r3, [r0, r5, lsl #2]
 965              	.LVL94:
 966              	.LBB13:
 967              	.LBI13:
 968              		.file 2 "Drivers/lvgl/src/draw/sw/../../misc/lv_color.h"
   1:Drivers/lvgl/src/draw/sw/../../misc/lv_color.h **** /**
   2:Drivers/lvgl/src/draw/sw/../../misc/lv_color.h ****  * @file lv_color.h
   3:Drivers/lvgl/src/draw/sw/../../misc/lv_color.h ****  *
   4:Drivers/lvgl/src/draw/sw/../../misc/lv_color.h ****  */
   5:Drivers/lvgl/src/draw/sw/../../misc/lv_color.h **** 
   6:Drivers/lvgl/src/draw/sw/../../misc/lv_color.h **** #ifndef LV_COLOR_H
   7:Drivers/lvgl/src/draw/sw/../../misc/lv_color.h **** #define LV_COLOR_H
   8:Drivers/lvgl/src/draw/sw/../../misc/lv_color.h **** 
   9:Drivers/lvgl/src/draw/sw/../../misc/lv_color.h **** #ifdef __cplusplus
  10:Drivers/lvgl/src/draw/sw/../../misc/lv_color.h **** extern "C" {
  11:Drivers/lvgl/src/draw/sw/../../misc/lv_color.h **** #endif
  12:Drivers/lvgl/src/draw/sw/../../misc/lv_color.h **** 
  13:Drivers/lvgl/src/draw/sw/../../misc/lv_color.h **** /*********************
  14:Drivers/lvgl/src/draw/sw/../../misc/lv_color.h ****  *      INCLUDES
  15:Drivers/lvgl/src/draw/sw/../../misc/lv_color.h ****  *********************/
  16:Drivers/lvgl/src/draw/sw/../../misc/lv_color.h **** #include "../lv_conf_internal.h"
  17:Drivers/lvgl/src/draw/sw/../../misc/lv_color.h **** #include "lv_assert.h"
  18:Drivers/lvgl/src/draw/sw/../../misc/lv_color.h **** #include "lv_math.h"
  19:Drivers/lvgl/src/draw/sw/../../misc/lv_color.h **** #include "lv_types.h"
  20:Drivers/lvgl/src/draw/sw/../../misc/lv_color.h **** 
  21:Drivers/lvgl/src/draw/sw/../../misc/lv_color.h **** /*Error checking*/
  22:Drivers/lvgl/src/draw/sw/../../misc/lv_color.h **** #if LV_COLOR_DEPTH == 24
  23:Drivers/lvgl/src/draw/sw/../../misc/lv_color.h **** #error "LV_COLOR_DEPTH 24 is deprecated. Use LV_COLOR_DEPTH 32 instead (lv_conf.h)"
  24:Drivers/lvgl/src/draw/sw/../../misc/lv_color.h **** #endif
  25:Drivers/lvgl/src/draw/sw/../../misc/lv_color.h **** 
  26:Drivers/lvgl/src/draw/sw/../../misc/lv_color.h **** #if LV_COLOR_DEPTH != 16 && LV_COLOR_16_SWAP != 0
  27:Drivers/lvgl/src/draw/sw/../../misc/lv_color.h **** #error "LV_COLOR_16_SWAP requires LV_COLOR_DEPTH == 16. Set it in lv_conf.h"
  28:Drivers/lvgl/src/draw/sw/../../misc/lv_color.h **** #endif
ARM GAS  /var/folders/0z/tsy30v1j4xl4_7kw94k978ww0000gn/T//cci0thdE.s 			page 26


  29:Drivers/lvgl/src/draw/sw/../../misc/lv_color.h **** 
  30:Drivers/lvgl/src/draw/sw/../../misc/lv_color.h **** #include <stdint.h>
  31:Drivers/lvgl/src/draw/sw/../../misc/lv_color.h **** 
  32:Drivers/lvgl/src/draw/sw/../../misc/lv_color.h **** /*********************
  33:Drivers/lvgl/src/draw/sw/../../misc/lv_color.h ****  *      DEFINES
  34:Drivers/lvgl/src/draw/sw/../../misc/lv_color.h ****  *********************/
  35:Drivers/lvgl/src/draw/sw/../../misc/lv_color.h **** LV_EXPORT_CONST_INT(LV_COLOR_DEPTH);
  36:Drivers/lvgl/src/draw/sw/../../misc/lv_color.h **** LV_EXPORT_CONST_INT(LV_COLOR_16_SWAP);
  37:Drivers/lvgl/src/draw/sw/../../misc/lv_color.h **** 
  38:Drivers/lvgl/src/draw/sw/../../misc/lv_color.h **** /**
  39:Drivers/lvgl/src/draw/sw/../../misc/lv_color.h ****  * Opacity percentages.
  40:Drivers/lvgl/src/draw/sw/../../misc/lv_color.h ****  */
  41:Drivers/lvgl/src/draw/sw/../../misc/lv_color.h **** enum {
  42:Drivers/lvgl/src/draw/sw/../../misc/lv_color.h ****     LV_OPA_TRANSP = 0,
  43:Drivers/lvgl/src/draw/sw/../../misc/lv_color.h ****     LV_OPA_0      = 0,
  44:Drivers/lvgl/src/draw/sw/../../misc/lv_color.h ****     LV_OPA_10     = 25,
  45:Drivers/lvgl/src/draw/sw/../../misc/lv_color.h ****     LV_OPA_20     = 51,
  46:Drivers/lvgl/src/draw/sw/../../misc/lv_color.h ****     LV_OPA_30     = 76,
  47:Drivers/lvgl/src/draw/sw/../../misc/lv_color.h ****     LV_OPA_40     = 102,
  48:Drivers/lvgl/src/draw/sw/../../misc/lv_color.h ****     LV_OPA_50     = 127,
  49:Drivers/lvgl/src/draw/sw/../../misc/lv_color.h ****     LV_OPA_60     = 153,
  50:Drivers/lvgl/src/draw/sw/../../misc/lv_color.h ****     LV_OPA_70     = 178,
  51:Drivers/lvgl/src/draw/sw/../../misc/lv_color.h ****     LV_OPA_80     = 204,
  52:Drivers/lvgl/src/draw/sw/../../misc/lv_color.h ****     LV_OPA_90     = 229,
  53:Drivers/lvgl/src/draw/sw/../../misc/lv_color.h ****     LV_OPA_100    = 255,
  54:Drivers/lvgl/src/draw/sw/../../misc/lv_color.h ****     LV_OPA_COVER  = 255,
  55:Drivers/lvgl/src/draw/sw/../../misc/lv_color.h **** };
  56:Drivers/lvgl/src/draw/sw/../../misc/lv_color.h **** 
  57:Drivers/lvgl/src/draw/sw/../../misc/lv_color.h **** #define LV_OPA_MIN 2    /*Opacities below this will be transparent*/
  58:Drivers/lvgl/src/draw/sw/../../misc/lv_color.h **** #define LV_OPA_MAX 253  /*Opacities above this will fully cover*/
  59:Drivers/lvgl/src/draw/sw/../../misc/lv_color.h **** 
  60:Drivers/lvgl/src/draw/sw/../../misc/lv_color.h **** #if LV_COLOR_DEPTH == 1
  61:Drivers/lvgl/src/draw/sw/../../misc/lv_color.h **** #define LV_COLOR_SIZE 8
  62:Drivers/lvgl/src/draw/sw/../../misc/lv_color.h **** #elif LV_COLOR_DEPTH == 8
  63:Drivers/lvgl/src/draw/sw/../../misc/lv_color.h **** #define LV_COLOR_SIZE 8
  64:Drivers/lvgl/src/draw/sw/../../misc/lv_color.h **** #elif LV_COLOR_DEPTH == 16
  65:Drivers/lvgl/src/draw/sw/../../misc/lv_color.h **** #define LV_COLOR_SIZE 16
  66:Drivers/lvgl/src/draw/sw/../../misc/lv_color.h **** #elif LV_COLOR_DEPTH == 32
  67:Drivers/lvgl/src/draw/sw/../../misc/lv_color.h **** #define LV_COLOR_SIZE 32
  68:Drivers/lvgl/src/draw/sw/../../misc/lv_color.h **** #else
  69:Drivers/lvgl/src/draw/sw/../../misc/lv_color.h **** #error "Invalid LV_COLOR_DEPTH in lv_conf.h! Set it to 1, 8, 16 or 32!"
  70:Drivers/lvgl/src/draw/sw/../../misc/lv_color.h **** #endif
  71:Drivers/lvgl/src/draw/sw/../../misc/lv_color.h **** 
  72:Drivers/lvgl/src/draw/sw/../../misc/lv_color.h **** #if defined(__cplusplus) && !defined(_LV_COLOR_HAS_MODERN_CPP)
  73:Drivers/lvgl/src/draw/sw/../../misc/lv_color.h **** /**
  74:Drivers/lvgl/src/draw/sw/../../misc/lv_color.h **** * MSVC compiler's definition of the __cplusplus indicating 199711L regardless to C++ standard versi
  75:Drivers/lvgl/src/draw/sw/../../misc/lv_color.h **** * see https://devblogs.microsoft.com/cppblog/msvc-now-correctly-reports-cplusplus
  76:Drivers/lvgl/src/draw/sw/../../misc/lv_color.h **** * so we use _MSC_VER macro instead of __cplusplus
  77:Drivers/lvgl/src/draw/sw/../../misc/lv_color.h **** */
  78:Drivers/lvgl/src/draw/sw/../../misc/lv_color.h **** #ifdef _MSC_VER
  79:Drivers/lvgl/src/draw/sw/../../misc/lv_color.h **** #if _MSC_VER >= 1900 /*Visual Studio 2015*/
  80:Drivers/lvgl/src/draw/sw/../../misc/lv_color.h **** #define _LV_COLOR_HAS_MODERN_CPP 1
  81:Drivers/lvgl/src/draw/sw/../../misc/lv_color.h **** #endif
  82:Drivers/lvgl/src/draw/sw/../../misc/lv_color.h **** #else
  83:Drivers/lvgl/src/draw/sw/../../misc/lv_color.h **** #if __cplusplus >= 201103L
  84:Drivers/lvgl/src/draw/sw/../../misc/lv_color.h **** #define _LV_COLOR_HAS_MODERN_CPP 1
  85:Drivers/lvgl/src/draw/sw/../../misc/lv_color.h **** #endif
ARM GAS  /var/folders/0z/tsy30v1j4xl4_7kw94k978ww0000gn/T//cci0thdE.s 			page 27


  86:Drivers/lvgl/src/draw/sw/../../misc/lv_color.h **** #endif
  87:Drivers/lvgl/src/draw/sw/../../misc/lv_color.h **** #endif /*__cplusplus*/
  88:Drivers/lvgl/src/draw/sw/../../misc/lv_color.h **** 
  89:Drivers/lvgl/src/draw/sw/../../misc/lv_color.h **** #ifndef _LV_COLOR_HAS_MODERN_CPP
  90:Drivers/lvgl/src/draw/sw/../../misc/lv_color.h **** #define _LV_COLOR_HAS_MODERN_CPP 0
  91:Drivers/lvgl/src/draw/sw/../../misc/lv_color.h **** #endif
  92:Drivers/lvgl/src/draw/sw/../../misc/lv_color.h **** 
  93:Drivers/lvgl/src/draw/sw/../../misc/lv_color.h **** #if _LV_COLOR_HAS_MODERN_CPP
  94:Drivers/lvgl/src/draw/sw/../../misc/lv_color.h **** /*Fix msvc compiler error C4576 inside C++ code*/
  95:Drivers/lvgl/src/draw/sw/../../misc/lv_color.h **** #define _LV_COLOR_MAKE_TYPE_HELPER lv_color_t
  96:Drivers/lvgl/src/draw/sw/../../misc/lv_color.h **** #else
  97:Drivers/lvgl/src/draw/sw/../../misc/lv_color.h **** #define _LV_COLOR_MAKE_TYPE_HELPER (lv_color_t)
  98:Drivers/lvgl/src/draw/sw/../../misc/lv_color.h **** #endif
  99:Drivers/lvgl/src/draw/sw/../../misc/lv_color.h **** 
 100:Drivers/lvgl/src/draw/sw/../../misc/lv_color.h **** /*---------------------------------------
 101:Drivers/lvgl/src/draw/sw/../../misc/lv_color.h ****  * Macros for all existing color depths
 102:Drivers/lvgl/src/draw/sw/../../misc/lv_color.h ****  * to set/get values of the color channels
 103:Drivers/lvgl/src/draw/sw/../../misc/lv_color.h ****  *------------------------------------------*/
 104:Drivers/lvgl/src/draw/sw/../../misc/lv_color.h **** # define LV_COLOR_SET_R1(c, v) (c).ch.red = (uint8_t)((v) & 0x1)
 105:Drivers/lvgl/src/draw/sw/../../misc/lv_color.h **** # define LV_COLOR_SET_G1(c, v) (c).ch.green = (uint8_t)((v) & 0x1)
 106:Drivers/lvgl/src/draw/sw/../../misc/lv_color.h **** # define LV_COLOR_SET_B1(c, v) (c).ch.blue = (uint8_t)((v) & 0x1)
 107:Drivers/lvgl/src/draw/sw/../../misc/lv_color.h **** # define LV_COLOR_SET_A1(c, v) do {} while(0)
 108:Drivers/lvgl/src/draw/sw/../../misc/lv_color.h **** 
 109:Drivers/lvgl/src/draw/sw/../../misc/lv_color.h **** # define LV_COLOR_GET_R1(c) (c).ch.red
 110:Drivers/lvgl/src/draw/sw/../../misc/lv_color.h **** # define LV_COLOR_GET_G1(c) (c).ch.green
 111:Drivers/lvgl/src/draw/sw/../../misc/lv_color.h **** # define LV_COLOR_GET_B1(c) (c).ch.blue
 112:Drivers/lvgl/src/draw/sw/../../misc/lv_color.h **** # define LV_COLOR_GET_A1(c) 0xFF
 113:Drivers/lvgl/src/draw/sw/../../misc/lv_color.h **** 
 114:Drivers/lvgl/src/draw/sw/../../misc/lv_color.h **** # define _LV_COLOR_ZERO_INITIALIZER1 {0x00}
 115:Drivers/lvgl/src/draw/sw/../../misc/lv_color.h **** # define LV_COLOR_MAKE1(r8, g8, b8)  {(uint8_t)((b8 >> 7) | (g8 >> 7) | (r8 >> 7))}
 116:Drivers/lvgl/src/draw/sw/../../misc/lv_color.h **** 
 117:Drivers/lvgl/src/draw/sw/../../misc/lv_color.h **** # define LV_COLOR_SET_R8(c, v) (c).ch.red = (uint8_t)((v) & 0x7U)
 118:Drivers/lvgl/src/draw/sw/../../misc/lv_color.h **** # define LV_COLOR_SET_G8(c, v) (c).ch.green = (uint8_t)((v) & 0x7U)
 119:Drivers/lvgl/src/draw/sw/../../misc/lv_color.h **** # define LV_COLOR_SET_B8(c, v) (c).ch.blue = (uint8_t)((v) & 0x3U)
 120:Drivers/lvgl/src/draw/sw/../../misc/lv_color.h **** # define LV_COLOR_SET_A8(c, v) do {} while(0)
 121:Drivers/lvgl/src/draw/sw/../../misc/lv_color.h **** 
 122:Drivers/lvgl/src/draw/sw/../../misc/lv_color.h **** # define LV_COLOR_GET_R8(c) (c).ch.red
 123:Drivers/lvgl/src/draw/sw/../../misc/lv_color.h **** # define LV_COLOR_GET_G8(c) (c).ch.green
 124:Drivers/lvgl/src/draw/sw/../../misc/lv_color.h **** # define LV_COLOR_GET_B8(c) (c).ch.blue
 125:Drivers/lvgl/src/draw/sw/../../misc/lv_color.h **** # define LV_COLOR_GET_A8(c) 0xFF
 126:Drivers/lvgl/src/draw/sw/../../misc/lv_color.h **** 
 127:Drivers/lvgl/src/draw/sw/../../misc/lv_color.h **** # define _LV_COLOR_ZERO_INITIALIZER8 {{0x00, 0x00, 0x00}}
 128:Drivers/lvgl/src/draw/sw/../../misc/lv_color.h **** # define LV_COLOR_MAKE8(r8, g8, b8) {{(uint8_t)((b8 >> 6) & 0x3U), (uint8_t)((g8 >> 5) & 0x7U), (ui
 129:Drivers/lvgl/src/draw/sw/../../misc/lv_color.h **** 
 130:Drivers/lvgl/src/draw/sw/../../misc/lv_color.h **** # define LV_COLOR_SET_R16(c, v) (c).ch.red = (uint8_t)((v) & 0x1FU)
 131:Drivers/lvgl/src/draw/sw/../../misc/lv_color.h **** #if LV_COLOR_16_SWAP == 0
 132:Drivers/lvgl/src/draw/sw/../../misc/lv_color.h **** # define LV_COLOR_SET_G16(c, v) (c).ch.green = (uint8_t)((v) & 0x3FU)
 133:Drivers/lvgl/src/draw/sw/../../misc/lv_color.h **** #else
 134:Drivers/lvgl/src/draw/sw/../../misc/lv_color.h **** # define LV_COLOR_SET_G16(c, v) {(c).ch.green_h = (uint8_t)(((v) >> 3) & 0x7); (c).ch.green_l = (ui
 135:Drivers/lvgl/src/draw/sw/../../misc/lv_color.h **** #endif
 136:Drivers/lvgl/src/draw/sw/../../misc/lv_color.h **** # define LV_COLOR_SET_B16(c, v) (c).ch.blue = (uint8_t)((v) & 0x1FU)
 137:Drivers/lvgl/src/draw/sw/../../misc/lv_color.h **** # define LV_COLOR_SET_A16(c, v) do {} while(0)
 138:Drivers/lvgl/src/draw/sw/../../misc/lv_color.h **** 
 139:Drivers/lvgl/src/draw/sw/../../misc/lv_color.h **** # define LV_COLOR_GET_R16(c) (c).ch.red
 140:Drivers/lvgl/src/draw/sw/../../misc/lv_color.h **** #if LV_COLOR_16_SWAP == 0
 141:Drivers/lvgl/src/draw/sw/../../misc/lv_color.h **** # define LV_COLOR_GET_G16(c) (c).ch.green
 142:Drivers/lvgl/src/draw/sw/../../misc/lv_color.h **** #else
ARM GAS  /var/folders/0z/tsy30v1j4xl4_7kw94k978ww0000gn/T//cci0thdE.s 			page 28


 143:Drivers/lvgl/src/draw/sw/../../misc/lv_color.h **** # define LV_COLOR_GET_G16(c) (((c).ch.green_h << 3) + (c).ch.green_l)
 144:Drivers/lvgl/src/draw/sw/../../misc/lv_color.h **** #endif
 145:Drivers/lvgl/src/draw/sw/../../misc/lv_color.h **** # define LV_COLOR_GET_B16(c) (c).ch.blue
 146:Drivers/lvgl/src/draw/sw/../../misc/lv_color.h **** # define LV_COLOR_GET_A16(c) 0xFF
 147:Drivers/lvgl/src/draw/sw/../../misc/lv_color.h **** 
 148:Drivers/lvgl/src/draw/sw/../../misc/lv_color.h **** #if LV_COLOR_16_SWAP == 0
 149:Drivers/lvgl/src/draw/sw/../../misc/lv_color.h **** # define _LV_COLOR_ZERO_INITIALIZER16  {{0x00, 0x00, 0x00}}
 150:Drivers/lvgl/src/draw/sw/../../misc/lv_color.h **** # define LV_COLOR_MAKE16(r8, g8, b8) {{(uint8_t)((b8 >> 3) & 0x1FU), (uint8_t)((g8 >> 2) & 0x3FU), 
 151:Drivers/lvgl/src/draw/sw/../../misc/lv_color.h **** #else
 152:Drivers/lvgl/src/draw/sw/../../misc/lv_color.h **** # define _LV_COLOR_ZERO_INITIALIZER16 {{0x00, 0x00, 0x00, 0x00}}
 153:Drivers/lvgl/src/draw/sw/../../misc/lv_color.h **** # define LV_COLOR_MAKE16(r8, g8, b8) {{(uint8_t)((g8 >> 5) & 0x7U), (uint8_t)((r8 >> 3) & 0x1FU), (
 154:Drivers/lvgl/src/draw/sw/../../misc/lv_color.h **** #endif
 155:Drivers/lvgl/src/draw/sw/../../misc/lv_color.h **** 
 156:Drivers/lvgl/src/draw/sw/../../misc/lv_color.h **** # define LV_COLOR_SET_R32(c, v) (c).ch.red = (uint8_t)((v) & 0xFF)
 157:Drivers/lvgl/src/draw/sw/../../misc/lv_color.h **** # define LV_COLOR_SET_G32(c, v) (c).ch.green = (uint8_t)((v) & 0xFF)
 158:Drivers/lvgl/src/draw/sw/../../misc/lv_color.h **** # define LV_COLOR_SET_B32(c, v) (c).ch.blue = (uint8_t)((v) & 0xFF)
 159:Drivers/lvgl/src/draw/sw/../../misc/lv_color.h **** # define LV_COLOR_SET_A32(c, v) (c).ch.alpha = (uint8_t)((v) & 0xFF)
 160:Drivers/lvgl/src/draw/sw/../../misc/lv_color.h **** 
 161:Drivers/lvgl/src/draw/sw/../../misc/lv_color.h **** # define LV_COLOR_GET_R32(c) (c).ch.red
 162:Drivers/lvgl/src/draw/sw/../../misc/lv_color.h **** # define LV_COLOR_GET_G32(c) (c).ch.green
 163:Drivers/lvgl/src/draw/sw/../../misc/lv_color.h **** # define LV_COLOR_GET_B32(c) (c).ch.blue
 164:Drivers/lvgl/src/draw/sw/../../misc/lv_color.h **** # define LV_COLOR_GET_A32(c) (c).ch.alpha
 165:Drivers/lvgl/src/draw/sw/../../misc/lv_color.h **** 
 166:Drivers/lvgl/src/draw/sw/../../misc/lv_color.h **** # define _LV_COLOR_ZERO_INITIALIZER32  {{0x00, 0x00, 0x00, 0x00}}
 167:Drivers/lvgl/src/draw/sw/../../misc/lv_color.h **** # define LV_COLOR_MAKE32(r8, g8, b8) {{b8, g8, r8, 0xff}} /*Fix 0xff alpha*/
 168:Drivers/lvgl/src/draw/sw/../../misc/lv_color.h **** 
 169:Drivers/lvgl/src/draw/sw/../../misc/lv_color.h **** /*---------------------------------------
 170:Drivers/lvgl/src/draw/sw/../../misc/lv_color.h ****  * Macros for the current color depth
 171:Drivers/lvgl/src/draw/sw/../../misc/lv_color.h ****  * to set/get values of the color channels
 172:Drivers/lvgl/src/draw/sw/../../misc/lv_color.h ****  *------------------------------------------*/
 173:Drivers/lvgl/src/draw/sw/../../misc/lv_color.h **** #define LV_COLOR_SET_R(c, v) LV_CONCAT(LV_COLOR_SET_R, LV_COLOR_DEPTH)(c, v)
 174:Drivers/lvgl/src/draw/sw/../../misc/lv_color.h **** #define LV_COLOR_SET_G(c, v) LV_CONCAT(LV_COLOR_SET_G, LV_COLOR_DEPTH)(c, v)
 175:Drivers/lvgl/src/draw/sw/../../misc/lv_color.h **** #define LV_COLOR_SET_B(c, v) LV_CONCAT(LV_COLOR_SET_B, LV_COLOR_DEPTH)(c, v)
 176:Drivers/lvgl/src/draw/sw/../../misc/lv_color.h **** #define LV_COLOR_SET_A(c, v) LV_CONCAT(LV_COLOR_SET_A, LV_COLOR_DEPTH)(c, v)
 177:Drivers/lvgl/src/draw/sw/../../misc/lv_color.h **** 
 178:Drivers/lvgl/src/draw/sw/../../misc/lv_color.h **** #define LV_COLOR_GET_R(c) LV_CONCAT(LV_COLOR_GET_R, LV_COLOR_DEPTH)(c)
 179:Drivers/lvgl/src/draw/sw/../../misc/lv_color.h **** #define LV_COLOR_GET_G(c) LV_CONCAT(LV_COLOR_GET_G, LV_COLOR_DEPTH)(c)
 180:Drivers/lvgl/src/draw/sw/../../misc/lv_color.h **** #define LV_COLOR_GET_B(c) LV_CONCAT(LV_COLOR_GET_B, LV_COLOR_DEPTH)(c)
 181:Drivers/lvgl/src/draw/sw/../../misc/lv_color.h **** #define LV_COLOR_GET_A(c) LV_CONCAT(LV_COLOR_GET_A, LV_COLOR_DEPTH)(c)
 182:Drivers/lvgl/src/draw/sw/../../misc/lv_color.h **** 
 183:Drivers/lvgl/src/draw/sw/../../misc/lv_color.h **** #define _LV_COLOR_ZERO_INITIALIZER LV_CONCAT(_LV_COLOR_ZERO_INITIALIZER, LV_COLOR_DEPTH)
 184:Drivers/lvgl/src/draw/sw/../../misc/lv_color.h **** #define LV_COLOR_MAKE(r8, g8, b8) LV_CONCAT(LV_COLOR_MAKE, LV_COLOR_DEPTH)(r8, g8, b8)
 185:Drivers/lvgl/src/draw/sw/../../misc/lv_color.h **** 
 186:Drivers/lvgl/src/draw/sw/../../misc/lv_color.h **** /**********************
 187:Drivers/lvgl/src/draw/sw/../../misc/lv_color.h ****  *      TYPEDEFS
 188:Drivers/lvgl/src/draw/sw/../../misc/lv_color.h ****  **********************/
 189:Drivers/lvgl/src/draw/sw/../../misc/lv_color.h **** 
 190:Drivers/lvgl/src/draw/sw/../../misc/lv_color.h **** typedef union {
 191:Drivers/lvgl/src/draw/sw/../../misc/lv_color.h ****     uint8_t full; /*must be declared first to set all bits of byte via initializer list*/
 192:Drivers/lvgl/src/draw/sw/../../misc/lv_color.h ****     union {
 193:Drivers/lvgl/src/draw/sw/../../misc/lv_color.h ****         uint8_t blue : 1;
 194:Drivers/lvgl/src/draw/sw/../../misc/lv_color.h ****         uint8_t green : 1;
 195:Drivers/lvgl/src/draw/sw/../../misc/lv_color.h ****         uint8_t red : 1;
 196:Drivers/lvgl/src/draw/sw/../../misc/lv_color.h ****     } ch;
 197:Drivers/lvgl/src/draw/sw/../../misc/lv_color.h **** } lv_color1_t;
 198:Drivers/lvgl/src/draw/sw/../../misc/lv_color.h **** 
 199:Drivers/lvgl/src/draw/sw/../../misc/lv_color.h **** typedef union {
ARM GAS  /var/folders/0z/tsy30v1j4xl4_7kw94k978ww0000gn/T//cci0thdE.s 			page 29


 200:Drivers/lvgl/src/draw/sw/../../misc/lv_color.h ****     struct {
 201:Drivers/lvgl/src/draw/sw/../../misc/lv_color.h ****         uint8_t blue : 2;
 202:Drivers/lvgl/src/draw/sw/../../misc/lv_color.h ****         uint8_t green : 3;
 203:Drivers/lvgl/src/draw/sw/../../misc/lv_color.h ****         uint8_t red : 3;
 204:Drivers/lvgl/src/draw/sw/../../misc/lv_color.h ****     } ch;
 205:Drivers/lvgl/src/draw/sw/../../misc/lv_color.h ****     uint8_t full;
 206:Drivers/lvgl/src/draw/sw/../../misc/lv_color.h **** } lv_color8_t;
 207:Drivers/lvgl/src/draw/sw/../../misc/lv_color.h **** 
 208:Drivers/lvgl/src/draw/sw/../../misc/lv_color.h **** typedef union {
 209:Drivers/lvgl/src/draw/sw/../../misc/lv_color.h ****     struct {
 210:Drivers/lvgl/src/draw/sw/../../misc/lv_color.h **** #if LV_COLOR_16_SWAP == 0
 211:Drivers/lvgl/src/draw/sw/../../misc/lv_color.h ****         uint16_t blue : 5;
 212:Drivers/lvgl/src/draw/sw/../../misc/lv_color.h ****         uint16_t green : 6;
 213:Drivers/lvgl/src/draw/sw/../../misc/lv_color.h ****         uint16_t red : 5;
 214:Drivers/lvgl/src/draw/sw/../../misc/lv_color.h **** #else
 215:Drivers/lvgl/src/draw/sw/../../misc/lv_color.h ****         uint16_t green_h : 3;
 216:Drivers/lvgl/src/draw/sw/../../misc/lv_color.h ****         uint16_t red : 5;
 217:Drivers/lvgl/src/draw/sw/../../misc/lv_color.h ****         uint16_t blue : 5;
 218:Drivers/lvgl/src/draw/sw/../../misc/lv_color.h ****         uint16_t green_l : 3;
 219:Drivers/lvgl/src/draw/sw/../../misc/lv_color.h **** #endif
 220:Drivers/lvgl/src/draw/sw/../../misc/lv_color.h ****     } ch;
 221:Drivers/lvgl/src/draw/sw/../../misc/lv_color.h ****     uint16_t full;
 222:Drivers/lvgl/src/draw/sw/../../misc/lv_color.h **** } lv_color16_t;
 223:Drivers/lvgl/src/draw/sw/../../misc/lv_color.h **** 
 224:Drivers/lvgl/src/draw/sw/../../misc/lv_color.h **** typedef union {
 225:Drivers/lvgl/src/draw/sw/../../misc/lv_color.h ****     struct {
 226:Drivers/lvgl/src/draw/sw/../../misc/lv_color.h ****         uint8_t blue;
 227:Drivers/lvgl/src/draw/sw/../../misc/lv_color.h ****         uint8_t green;
 228:Drivers/lvgl/src/draw/sw/../../misc/lv_color.h ****         uint8_t red;
 229:Drivers/lvgl/src/draw/sw/../../misc/lv_color.h ****         uint8_t alpha;
 230:Drivers/lvgl/src/draw/sw/../../misc/lv_color.h ****     } ch;
 231:Drivers/lvgl/src/draw/sw/../../misc/lv_color.h ****     uint32_t full;
 232:Drivers/lvgl/src/draw/sw/../../misc/lv_color.h **** } lv_color32_t;
 233:Drivers/lvgl/src/draw/sw/../../misc/lv_color.h **** 
 234:Drivers/lvgl/src/draw/sw/../../misc/lv_color.h **** typedef LV_CONCAT3(uint, LV_COLOR_SIZE, _t) lv_color_int_t;
 235:Drivers/lvgl/src/draw/sw/../../misc/lv_color.h **** typedef LV_CONCAT3(lv_color, LV_COLOR_DEPTH, _t) lv_color_t;
 236:Drivers/lvgl/src/draw/sw/../../misc/lv_color.h **** 
 237:Drivers/lvgl/src/draw/sw/../../misc/lv_color.h **** typedef struct {
 238:Drivers/lvgl/src/draw/sw/../../misc/lv_color.h ****     uint16_t h;
 239:Drivers/lvgl/src/draw/sw/../../misc/lv_color.h ****     uint8_t s;
 240:Drivers/lvgl/src/draw/sw/../../misc/lv_color.h ****     uint8_t v;
 241:Drivers/lvgl/src/draw/sw/../../misc/lv_color.h **** } lv_color_hsv_t;
 242:Drivers/lvgl/src/draw/sw/../../misc/lv_color.h **** 
 243:Drivers/lvgl/src/draw/sw/../../misc/lv_color.h **** //! @cond Doxygen_Suppress
 244:Drivers/lvgl/src/draw/sw/../../misc/lv_color.h **** /*No idea where the guard is required but else throws warnings in the docs*/
 245:Drivers/lvgl/src/draw/sw/../../misc/lv_color.h **** typedef uint8_t lv_opa_t;
 246:Drivers/lvgl/src/draw/sw/../../misc/lv_color.h **** //! @endcond
 247:Drivers/lvgl/src/draw/sw/../../misc/lv_color.h **** 
 248:Drivers/lvgl/src/draw/sw/../../misc/lv_color.h **** struct _lv_color_filter_dsc_t;
 249:Drivers/lvgl/src/draw/sw/../../misc/lv_color.h **** 
 250:Drivers/lvgl/src/draw/sw/../../misc/lv_color.h **** typedef lv_color_t (*lv_color_filter_cb_t)(const struct _lv_color_filter_dsc_t *, lv_color_t, lv_op
 251:Drivers/lvgl/src/draw/sw/../../misc/lv_color.h **** 
 252:Drivers/lvgl/src/draw/sw/../../misc/lv_color.h **** typedef struct _lv_color_filter_dsc_t {
 253:Drivers/lvgl/src/draw/sw/../../misc/lv_color.h ****     lv_color_filter_cb_t filter_cb;
 254:Drivers/lvgl/src/draw/sw/../../misc/lv_color.h ****     void * user_data;
 255:Drivers/lvgl/src/draw/sw/../../misc/lv_color.h **** } lv_color_filter_dsc_t;
 256:Drivers/lvgl/src/draw/sw/../../misc/lv_color.h **** 
ARM GAS  /var/folders/0z/tsy30v1j4xl4_7kw94k978ww0000gn/T//cci0thdE.s 			page 30


 257:Drivers/lvgl/src/draw/sw/../../misc/lv_color.h **** 
 258:Drivers/lvgl/src/draw/sw/../../misc/lv_color.h **** typedef enum {
 259:Drivers/lvgl/src/draw/sw/../../misc/lv_color.h ****     LV_PALETTE_RED,
 260:Drivers/lvgl/src/draw/sw/../../misc/lv_color.h ****     LV_PALETTE_PINK,
 261:Drivers/lvgl/src/draw/sw/../../misc/lv_color.h ****     LV_PALETTE_PURPLE,
 262:Drivers/lvgl/src/draw/sw/../../misc/lv_color.h ****     LV_PALETTE_DEEP_PURPLE,
 263:Drivers/lvgl/src/draw/sw/../../misc/lv_color.h ****     LV_PALETTE_INDIGO,
 264:Drivers/lvgl/src/draw/sw/../../misc/lv_color.h ****     LV_PALETTE_BLUE,
 265:Drivers/lvgl/src/draw/sw/../../misc/lv_color.h ****     LV_PALETTE_LIGHT_BLUE,
 266:Drivers/lvgl/src/draw/sw/../../misc/lv_color.h ****     LV_PALETTE_CYAN,
 267:Drivers/lvgl/src/draw/sw/../../misc/lv_color.h ****     LV_PALETTE_TEAL,
 268:Drivers/lvgl/src/draw/sw/../../misc/lv_color.h ****     LV_PALETTE_GREEN,
 269:Drivers/lvgl/src/draw/sw/../../misc/lv_color.h ****     LV_PALETTE_LIGHT_GREEN,
 270:Drivers/lvgl/src/draw/sw/../../misc/lv_color.h ****     LV_PALETTE_LIME,
 271:Drivers/lvgl/src/draw/sw/../../misc/lv_color.h ****     LV_PALETTE_YELLOW,
 272:Drivers/lvgl/src/draw/sw/../../misc/lv_color.h ****     LV_PALETTE_AMBER,
 273:Drivers/lvgl/src/draw/sw/../../misc/lv_color.h ****     LV_PALETTE_ORANGE,
 274:Drivers/lvgl/src/draw/sw/../../misc/lv_color.h ****     LV_PALETTE_DEEP_ORANGE,
 275:Drivers/lvgl/src/draw/sw/../../misc/lv_color.h ****     LV_PALETTE_BROWN,
 276:Drivers/lvgl/src/draw/sw/../../misc/lv_color.h ****     LV_PALETTE_BLUE_GREY,
 277:Drivers/lvgl/src/draw/sw/../../misc/lv_color.h ****     LV_PALETTE_GREY,
 278:Drivers/lvgl/src/draw/sw/../../misc/lv_color.h ****     _LV_PALETTE_LAST,
 279:Drivers/lvgl/src/draw/sw/../../misc/lv_color.h ****     LV_PALETTE_NONE = 0xff,
 280:Drivers/lvgl/src/draw/sw/../../misc/lv_color.h **** } lv_palette_t;
 281:Drivers/lvgl/src/draw/sw/../../misc/lv_color.h **** 
 282:Drivers/lvgl/src/draw/sw/../../misc/lv_color.h **** /**********************
 283:Drivers/lvgl/src/draw/sw/../../misc/lv_color.h ****  * GLOBAL PROTOTYPES
 284:Drivers/lvgl/src/draw/sw/../../misc/lv_color.h ****  **********************/
 285:Drivers/lvgl/src/draw/sw/../../misc/lv_color.h **** 
 286:Drivers/lvgl/src/draw/sw/../../misc/lv_color.h **** /*In color conversations:
 287:Drivers/lvgl/src/draw/sw/../../misc/lv_color.h ****  * - When converting to bigger color type the LSB weight of 1 LSB is calculated
 288:Drivers/lvgl/src/draw/sw/../../misc/lv_color.h ****  *   E.g. 16 bit Red has 5 bits
 289:Drivers/lvgl/src/draw/sw/../../misc/lv_color.h ****  *         8 bit Red has 3 bits
 290:Drivers/lvgl/src/draw/sw/../../misc/lv_color.h ****  *        ----------------------
 291:Drivers/lvgl/src/draw/sw/../../misc/lv_color.h ****  *        8 bit red LSB = (2^5 - 1) / (2^3 - 1) = 31 / 7 = 4
 292:Drivers/lvgl/src/draw/sw/../../misc/lv_color.h ****  *
 293:Drivers/lvgl/src/draw/sw/../../misc/lv_color.h ****  * - When calculating to smaller color type simply shift out the LSBs
 294:Drivers/lvgl/src/draw/sw/../../misc/lv_color.h ****  *   E.g.  8 bit Red has 3 bits
 295:Drivers/lvgl/src/draw/sw/../../misc/lv_color.h ****  *        16 bit Red has 5 bits
 296:Drivers/lvgl/src/draw/sw/../../misc/lv_color.h ****  *        ----------------------
 297:Drivers/lvgl/src/draw/sw/../../misc/lv_color.h ****  *         Shift right with 5 - 3 = 2
 298:Drivers/lvgl/src/draw/sw/../../misc/lv_color.h ****  */
 299:Drivers/lvgl/src/draw/sw/../../misc/lv_color.h **** static inline uint8_t lv_color_to1(lv_color_t color)
 300:Drivers/lvgl/src/draw/sw/../../misc/lv_color.h **** {
 301:Drivers/lvgl/src/draw/sw/../../misc/lv_color.h **** #if LV_COLOR_DEPTH == 1
 302:Drivers/lvgl/src/draw/sw/../../misc/lv_color.h ****     return color.full;
 303:Drivers/lvgl/src/draw/sw/../../misc/lv_color.h **** #elif LV_COLOR_DEPTH == 8
 304:Drivers/lvgl/src/draw/sw/../../misc/lv_color.h ****     if((LV_COLOR_GET_R(color) & 0x4) || (LV_COLOR_GET_G(color) & 0x4) || (LV_COLOR_GET_B(color) & 0
 305:Drivers/lvgl/src/draw/sw/../../misc/lv_color.h ****         return 1;
 306:Drivers/lvgl/src/draw/sw/../../misc/lv_color.h ****     }
 307:Drivers/lvgl/src/draw/sw/../../misc/lv_color.h ****     else {
 308:Drivers/lvgl/src/draw/sw/../../misc/lv_color.h ****         return 0;
 309:Drivers/lvgl/src/draw/sw/../../misc/lv_color.h ****     }
 310:Drivers/lvgl/src/draw/sw/../../misc/lv_color.h **** #elif LV_COLOR_DEPTH == 16
 311:Drivers/lvgl/src/draw/sw/../../misc/lv_color.h ****     if((LV_COLOR_GET_R(color) & 0x10) || (LV_COLOR_GET_G(color) & 0x20) || (LV_COLOR_GET_B(color) &
 312:Drivers/lvgl/src/draw/sw/../../misc/lv_color.h ****         return 1;
 313:Drivers/lvgl/src/draw/sw/../../misc/lv_color.h ****     }
ARM GAS  /var/folders/0z/tsy30v1j4xl4_7kw94k978ww0000gn/T//cci0thdE.s 			page 31


 314:Drivers/lvgl/src/draw/sw/../../misc/lv_color.h ****     else {
 315:Drivers/lvgl/src/draw/sw/../../misc/lv_color.h ****         return 0;
 316:Drivers/lvgl/src/draw/sw/../../misc/lv_color.h ****     }
 317:Drivers/lvgl/src/draw/sw/../../misc/lv_color.h **** #elif LV_COLOR_DEPTH == 32
 318:Drivers/lvgl/src/draw/sw/../../misc/lv_color.h ****     if((LV_COLOR_GET_R(color) & 0x80) || (LV_COLOR_GET_G(color) & 0x80) || (LV_COLOR_GET_B(color) &
 319:Drivers/lvgl/src/draw/sw/../../misc/lv_color.h ****         return 1;
 320:Drivers/lvgl/src/draw/sw/../../misc/lv_color.h ****     }
 321:Drivers/lvgl/src/draw/sw/../../misc/lv_color.h ****     else {
 322:Drivers/lvgl/src/draw/sw/../../misc/lv_color.h ****         return 0;
 323:Drivers/lvgl/src/draw/sw/../../misc/lv_color.h ****     }
 324:Drivers/lvgl/src/draw/sw/../../misc/lv_color.h **** #endif
 325:Drivers/lvgl/src/draw/sw/../../misc/lv_color.h **** }
 326:Drivers/lvgl/src/draw/sw/../../misc/lv_color.h **** 
 327:Drivers/lvgl/src/draw/sw/../../misc/lv_color.h **** static inline uint8_t lv_color_to8(lv_color_t color)
 328:Drivers/lvgl/src/draw/sw/../../misc/lv_color.h **** {
 329:Drivers/lvgl/src/draw/sw/../../misc/lv_color.h **** #if LV_COLOR_DEPTH == 1
 330:Drivers/lvgl/src/draw/sw/../../misc/lv_color.h ****     if(color.full == 0)
 331:Drivers/lvgl/src/draw/sw/../../misc/lv_color.h ****         return 0;
 332:Drivers/lvgl/src/draw/sw/../../misc/lv_color.h ****     else
 333:Drivers/lvgl/src/draw/sw/../../misc/lv_color.h ****         return 0xFF;
 334:Drivers/lvgl/src/draw/sw/../../misc/lv_color.h **** #elif LV_COLOR_DEPTH == 8
 335:Drivers/lvgl/src/draw/sw/../../misc/lv_color.h ****     return color.full;
 336:Drivers/lvgl/src/draw/sw/../../misc/lv_color.h **** #elif LV_COLOR_DEPTH == 16
 337:Drivers/lvgl/src/draw/sw/../../misc/lv_color.h ****     lv_color8_t ret;
 338:Drivers/lvgl/src/draw/sw/../../misc/lv_color.h ****     LV_COLOR_SET_R8(ret, LV_COLOR_GET_R(color) >> 2); /*5 - 3  = 2*/
 339:Drivers/lvgl/src/draw/sw/../../misc/lv_color.h ****     LV_COLOR_SET_G8(ret, LV_COLOR_GET_G(color) >> 3); /*6 - 3  = 3*/
 340:Drivers/lvgl/src/draw/sw/../../misc/lv_color.h ****     LV_COLOR_SET_B8(ret, LV_COLOR_GET_B(color) >> 3); /*5 - 2  = 3*/
 341:Drivers/lvgl/src/draw/sw/../../misc/lv_color.h ****     return ret.full;
 342:Drivers/lvgl/src/draw/sw/../../misc/lv_color.h **** #elif LV_COLOR_DEPTH == 32
 343:Drivers/lvgl/src/draw/sw/../../misc/lv_color.h ****     lv_color8_t ret;
 344:Drivers/lvgl/src/draw/sw/../../misc/lv_color.h ****     LV_COLOR_SET_R8(ret, LV_COLOR_GET_R(color) >> 5); /*8 - 3  = 5*/
 345:Drivers/lvgl/src/draw/sw/../../misc/lv_color.h ****     LV_COLOR_SET_G8(ret, LV_COLOR_GET_G(color) >> 5); /*8 - 3  = 5*/
 346:Drivers/lvgl/src/draw/sw/../../misc/lv_color.h ****     LV_COLOR_SET_B8(ret, LV_COLOR_GET_B(color) >> 6); /*8 - 2  = 6*/
 347:Drivers/lvgl/src/draw/sw/../../misc/lv_color.h ****     return ret.full;
 348:Drivers/lvgl/src/draw/sw/../../misc/lv_color.h **** #endif
 349:Drivers/lvgl/src/draw/sw/../../misc/lv_color.h **** }
 350:Drivers/lvgl/src/draw/sw/../../misc/lv_color.h **** 
 351:Drivers/lvgl/src/draw/sw/../../misc/lv_color.h **** static inline uint16_t lv_color_to16(lv_color_t color)
 352:Drivers/lvgl/src/draw/sw/../../misc/lv_color.h **** {
 353:Drivers/lvgl/src/draw/sw/../../misc/lv_color.h **** #if LV_COLOR_DEPTH == 1
 354:Drivers/lvgl/src/draw/sw/../../misc/lv_color.h ****     if(color.full == 0)
 355:Drivers/lvgl/src/draw/sw/../../misc/lv_color.h ****         return 0;
 356:Drivers/lvgl/src/draw/sw/../../misc/lv_color.h ****     else
 357:Drivers/lvgl/src/draw/sw/../../misc/lv_color.h ****         return 0xFFFF;
 358:Drivers/lvgl/src/draw/sw/../../misc/lv_color.h **** #elif LV_COLOR_DEPTH == 8
 359:Drivers/lvgl/src/draw/sw/../../misc/lv_color.h ****     lv_color16_t ret;
 360:Drivers/lvgl/src/draw/sw/../../misc/lv_color.h ****     LV_COLOR_SET_R16(ret, LV_COLOR_GET_R(color) * 4);  /*(2^5 - 1)/(2^3 - 1) = 31/7 = 4*/
 361:Drivers/lvgl/src/draw/sw/../../misc/lv_color.h ****     LV_COLOR_SET_G16(ret, LV_COLOR_GET_G(color) * 9);  /*(2^6 - 1)/(2^3 - 1) = 63/7 = 9*/
 362:Drivers/lvgl/src/draw/sw/../../misc/lv_color.h ****     LV_COLOR_SET_B16(ret, LV_COLOR_GET_B(color) * 10); /*(2^5 - 1)/(2^2 - 1) = 31/3 = 10*/
 363:Drivers/lvgl/src/draw/sw/../../misc/lv_color.h ****     return ret.full;
 364:Drivers/lvgl/src/draw/sw/../../misc/lv_color.h **** #elif LV_COLOR_DEPTH == 16
 365:Drivers/lvgl/src/draw/sw/../../misc/lv_color.h ****     return color.full;
 366:Drivers/lvgl/src/draw/sw/../../misc/lv_color.h **** #elif LV_COLOR_DEPTH == 32
 367:Drivers/lvgl/src/draw/sw/../../misc/lv_color.h ****     lv_color16_t ret;
 368:Drivers/lvgl/src/draw/sw/../../misc/lv_color.h ****     LV_COLOR_SET_R16(ret, LV_COLOR_GET_R(color) >> 3); /*8 - 5  = 3*/
 369:Drivers/lvgl/src/draw/sw/../../misc/lv_color.h ****     LV_COLOR_SET_G16(ret, LV_COLOR_GET_G(color) >> 2); /*8 - 6  = 2*/
 370:Drivers/lvgl/src/draw/sw/../../misc/lv_color.h ****     LV_COLOR_SET_B16(ret, LV_COLOR_GET_B(color) >> 3); /*8 - 5  = 3*/
ARM GAS  /var/folders/0z/tsy30v1j4xl4_7kw94k978ww0000gn/T//cci0thdE.s 			page 32


 371:Drivers/lvgl/src/draw/sw/../../misc/lv_color.h ****     return ret.full;
 372:Drivers/lvgl/src/draw/sw/../../misc/lv_color.h **** #endif
 373:Drivers/lvgl/src/draw/sw/../../misc/lv_color.h **** }
 374:Drivers/lvgl/src/draw/sw/../../misc/lv_color.h **** 
 375:Drivers/lvgl/src/draw/sw/../../misc/lv_color.h **** static inline uint32_t lv_color_to32(lv_color_t color)
 969              		.loc 2 375 24 is_stmt 1 view .LVU266
 970              	.LBB14:
 376:Drivers/lvgl/src/draw/sw/../../misc/lv_color.h **** {
 377:Drivers/lvgl/src/draw/sw/../../misc/lv_color.h **** #if LV_COLOR_DEPTH == 1
 378:Drivers/lvgl/src/draw/sw/../../misc/lv_color.h ****     if(color.full == 0)
 379:Drivers/lvgl/src/draw/sw/../../misc/lv_color.h ****         return 0xFF000000;
 380:Drivers/lvgl/src/draw/sw/../../misc/lv_color.h ****     else
 381:Drivers/lvgl/src/draw/sw/../../misc/lv_color.h ****         return 0xFFFFFFFF;
 382:Drivers/lvgl/src/draw/sw/../../misc/lv_color.h **** #elif LV_COLOR_DEPTH == 8
 383:Drivers/lvgl/src/draw/sw/../../misc/lv_color.h ****     lv_color32_t ret;
 384:Drivers/lvgl/src/draw/sw/../../misc/lv_color.h ****     LV_COLOR_SET_R32(ret, LV_COLOR_GET_R(color) * 36); /*(2^8 - 1)/(2^3 - 1) = 255/7 = 36*/
 385:Drivers/lvgl/src/draw/sw/../../misc/lv_color.h ****     LV_COLOR_SET_G32(ret, LV_COLOR_GET_G(color) * 36); /*(2^8 - 1)/(2^3 - 1) = 255/7 = 36*/
 386:Drivers/lvgl/src/draw/sw/../../misc/lv_color.h ****     LV_COLOR_SET_B32(ret, LV_COLOR_GET_B(color) * 85); /*(2^8 - 1)/(2^2 - 1) = 255/3 = 85*/
 387:Drivers/lvgl/src/draw/sw/../../misc/lv_color.h ****     LV_COLOR_SET_A32(ret, 0xFF);
 388:Drivers/lvgl/src/draw/sw/../../misc/lv_color.h ****     return ret.full;
 389:Drivers/lvgl/src/draw/sw/../../misc/lv_color.h **** #elif LV_COLOR_DEPTH == 16
 390:Drivers/lvgl/src/draw/sw/../../misc/lv_color.h ****     /**
 391:Drivers/lvgl/src/draw/sw/../../misc/lv_color.h ****      * The floating point math for conversion is:
 392:Drivers/lvgl/src/draw/sw/../../misc/lv_color.h ****      *  valueto = valuefrom * ( (2^bitsto - 1) / (float)(2^bitsfrom - 1) )
 393:Drivers/lvgl/src/draw/sw/../../misc/lv_color.h ****      * The faster integer math for conversion is:
 394:Drivers/lvgl/src/draw/sw/../../misc/lv_color.h ****      *  valueto = ( valuefrom * multiplier + adder ) >> divisor
 395:Drivers/lvgl/src/draw/sw/../../misc/lv_color.h ****      *   multiplier = FLOOR( ( (2^bitsto - 1) << divisor ) / (float)(2^bitsfrom - 1) )
 396:Drivers/lvgl/src/draw/sw/../../misc/lv_color.h ****      *
 397:Drivers/lvgl/src/draw/sw/../../misc/lv_color.h ****      * Find the first divisor where ( adder >> divisor ) <= 0
 398:Drivers/lvgl/src/draw/sw/../../misc/lv_color.h ****      *
 399:Drivers/lvgl/src/draw/sw/../../misc/lv_color.h ****      * 5-bit to 8-bit: ( 31 * multiplier + adder ) >> divisor = 255
 400:Drivers/lvgl/src/draw/sw/../../misc/lv_color.h ****      * divisor  multiplier  adder  min (0)  max (31)
 401:Drivers/lvgl/src/draw/sw/../../misc/lv_color.h ****      *       0           8      7        7       255
 402:Drivers/lvgl/src/draw/sw/../../misc/lv_color.h ****      *       1          16     14        7       255
 403:Drivers/lvgl/src/draw/sw/../../misc/lv_color.h ****      *       2          32     28        7       255
 404:Drivers/lvgl/src/draw/sw/../../misc/lv_color.h ****      *       3          65     25        3       255
 405:Drivers/lvgl/src/draw/sw/../../misc/lv_color.h ****      *       4         131     19        1       255
 406:Drivers/lvgl/src/draw/sw/../../misc/lv_color.h ****      *       5         263      7        0       255
 407:Drivers/lvgl/src/draw/sw/../../misc/lv_color.h ****      *
 408:Drivers/lvgl/src/draw/sw/../../misc/lv_color.h ****      * 6-bit to 8-bit: 255 = ( 63 * multiplier + adder ) >> divisor
 409:Drivers/lvgl/src/draw/sw/../../misc/lv_color.h ****      * divisor  multiplier  adder  min (0)  max (63)
 410:Drivers/lvgl/src/draw/sw/../../misc/lv_color.h ****      *       0           4      3        3       255
 411:Drivers/lvgl/src/draw/sw/../../misc/lv_color.h ****      *       1           8      6        3       255
 412:Drivers/lvgl/src/draw/sw/../../misc/lv_color.h ****      *       2          16     12        3       255
 413:Drivers/lvgl/src/draw/sw/../../misc/lv_color.h ****      *       3          32     24        3       255
 414:Drivers/lvgl/src/draw/sw/../../misc/lv_color.h ****      *       4          64     48        3       255
 415:Drivers/lvgl/src/draw/sw/../../misc/lv_color.h ****      *       5         129     33        1       255
 416:Drivers/lvgl/src/draw/sw/../../misc/lv_color.h ****      *       6         259      3        0       255
 417:Drivers/lvgl/src/draw/sw/../../misc/lv_color.h ****      */
 418:Drivers/lvgl/src/draw/sw/../../misc/lv_color.h **** 
 419:Drivers/lvgl/src/draw/sw/../../misc/lv_color.h ****     lv_color32_t ret;
 971              		.loc 2 419 5 view .LVU267
 420:Drivers/lvgl/src/draw/sw/../../misc/lv_color.h ****     LV_COLOR_SET_R32(ret, (LV_COLOR_GET_R(color) * 263 + 7) >> 5);
 972              		.loc 2 420 5 view .LVU268
 973              		.loc 2 420 5 is_stmt 0 view .LVU269
 974 005c C3F3C404 		ubfx	r4, r3, #3, #5
 975 0060 04EB4417 		add	r7, r4, r4, lsl #5
ARM GAS  /var/folders/0z/tsy30v1j4xl4_7kw94k978ww0000gn/T//cci0thdE.s 			page 33


 976              	.LVL95:
 977              		.loc 2 420 5 view .LVU270
 978 0064 C4EBC707 		rsb	r7, r4, r7, lsl #3
 979 0068 0737     		adds	r7, r7, #7
 980 006a C7F34717 		ubfx	r7, r7, #5, #8
 981 006e 0024     		movs	r4, #0
 982              	.LVL96:
 983              		.loc 2 420 5 view .LVU271
 984 0070 67F31744 		bfi	r4, r7, #16, #8
 985              	.LVL97:
 421:Drivers/lvgl/src/draw/sw/../../misc/lv_color.h ****     LV_COLOR_SET_G32(ret, (LV_COLOR_GET_G(color) * 259 + 3) >> 6);
 986              		.loc 2 421 5 is_stmt 1 view .LVU272
 987 0074 03F0070C 		and	ip, r3, #7
 988 0078 C3F34237 		ubfx	r7, r3, #13, #3
 989 007c 07EBCC07 		add	r7, r7, ip, lsl #3
 990 0080 07EBC71C 		add	ip, r7, r7, lsl #7
 991 0084 07EB4C07 		add	r7, r7, ip, lsl #1
 992 0088 0337     		adds	r7, r7, #3
 993 008a C7F38717 		ubfx	r7, r7, #6, #8
 994 008e 67F30F24 		bfi	r4, r7, #8, #8
 422:Drivers/lvgl/src/draw/sw/../../misc/lv_color.h ****     LV_COLOR_SET_B32(ret, (LV_COLOR_GET_B(color) * 263 + 7) >> 5);
 995              		.loc 2 422 5 view .LVU273
 996 0092 C3F30423 		ubfx	r3, r3, #8, #5
 997              	.LVL98:
 998              		.loc 2 422 5 is_stmt 0 view .LVU274
 999 0096 03EB4317 		add	r7, r3, r3, lsl #5
 1000 009a C3EBC703 		rsb	r3, r3, r7, lsl #3
 1001 009e 0733     		adds	r3, r3, #7
 1002 00a0 C3F34713 		ubfx	r3, r3, #5, #8
 1003 00a4 63F30704 		bfi	r4, r3, #0, #8
 423:Drivers/lvgl/src/draw/sw/../../misc/lv_color.h ****     LV_COLOR_SET_A32(ret, 0xFF);
 1004              		.loc 2 423 5 is_stmt 1 view .LVU275
 424:Drivers/lvgl/src/draw/sw/../../misc/lv_color.h ****     return ret.full;
 1005              		.loc 2 424 5 view .LVU276
 1006              	.LBE14:
 1007              	.LBE13:
 319:Drivers/lvgl/src/draw/sw/lv_draw_sw_gradient.c ****             two.full = lv_color_to32(dsc->stops[i].color);
 1008              		.loc 1 319 22 is_stmt 0 view .LVU277
 1009 00a8 44F07F44 		orr	r4, r4, #-16777216
 1010              	.LVL99:
 320:Drivers/lvgl/src/draw/sw/lv_draw_sw_gradient.c ****             min = (dsc->stops[i - 1].frac * range) >> 8;
 1011              		.loc 1 320 13 is_stmt 1 view .LVU278
 1012 00ac 30F82830 		ldrh	r3, [r0, r8, lsl #2]
 1013              	.LBB15:
 1014              	.LBI15:
 375:Drivers/lvgl/src/draw/sw/../../misc/lv_color.h **** {
 1015              		.loc 2 375 24 view .LVU279
 1016              	.LBB16:
 419:Drivers/lvgl/src/draw/sw/../../misc/lv_color.h ****     LV_COLOR_SET_R32(ret, (LV_COLOR_GET_R(color) * 263 + 7) >> 5);
 1017              		.loc 2 419 5 view .LVU280
 420:Drivers/lvgl/src/draw/sw/../../misc/lv_color.h ****     LV_COLOR_SET_G32(ret, (LV_COLOR_GET_G(color) * 259 + 3) >> 6);
 1018              		.loc 2 420 5 view .LVU281
 1019              	.LVL100:
 420:Drivers/lvgl/src/draw/sw/../../misc/lv_color.h ****     LV_COLOR_SET_G32(ret, (LV_COLOR_GET_G(color) * 259 + 3) >> 6);
 1020              		.loc 2 420 5 is_stmt 0 view .LVU282
 1021 00b0 C3F3C407 		ubfx	r7, r3, #3, #5
 1022 00b4 07EB471C 		add	ip, r7, r7, lsl #5
ARM GAS  /var/folders/0z/tsy30v1j4xl4_7kw94k978ww0000gn/T//cci0thdE.s 			page 34


 1023 00b8 C7EBCC07 		rsb	r7, r7, ip, lsl #3
 1024 00bc 0737     		adds	r7, r7, #7
 1025 00be C7F34717 		ubfx	r7, r7, #5, #8
 1026 00c2 4FF0000E 		mov	lr, #0
 1027              	.LVL101:
 420:Drivers/lvgl/src/draw/sw/../../misc/lv_color.h ****     LV_COLOR_SET_G32(ret, (LV_COLOR_GET_G(color) * 259 + 3) >> 6);
 1028              		.loc 2 420 5 view .LVU283
 1029 00c6 67F3174E 		bfi	lr, r7, #16, #8
 1030              	.LVL102:
 421:Drivers/lvgl/src/draw/sw/../../misc/lv_color.h ****     LV_COLOR_SET_B32(ret, (LV_COLOR_GET_B(color) * 263 + 7) >> 5);
 1031              		.loc 2 421 5 is_stmt 1 view .LVU284
 1032 00ca 03F0070C 		and	ip, r3, #7
 1033 00ce C3F34237 		ubfx	r7, r3, #13, #3
 1034 00d2 07EBCC07 		add	r7, r7, ip, lsl #3
 1035 00d6 07EBC71C 		add	ip, r7, r7, lsl #7
 1036 00da 07EB4C07 		add	r7, r7, ip, lsl #1
 1037 00de 0337     		adds	r7, r7, #3
 1038 00e0 C7F38717 		ubfx	r7, r7, #6, #8
 1039 00e4 67F30F2E 		bfi	lr, r7, #8, #8
 422:Drivers/lvgl/src/draw/sw/../../misc/lv_color.h ****     LV_COLOR_SET_A32(ret, 0xFF);
 1040              		.loc 2 422 5 view .LVU285
 1041 00e8 C3F30423 		ubfx	r3, r3, #8, #5
 1042              	.LVL103:
 422:Drivers/lvgl/src/draw/sw/../../misc/lv_color.h ****     LV_COLOR_SET_A32(ret, 0xFF);
 1043              		.loc 2 422 5 is_stmt 0 view .LVU286
 1044 00ec 03EB4317 		add	r7, r3, r3, lsl #5
 1045 00f0 C3EBC703 		rsb	r3, r3, r7, lsl #3
 1046 00f4 0733     		adds	r3, r3, #7
 1047 00f6 C3F34713 		ubfx	r3, r3, #5, #8
 1048 00fa 63F3070E 		bfi	lr, r3, #0, #8
 423:Drivers/lvgl/src/draw/sw/../../misc/lv_color.h ****     return ret.full;
 1049              		.loc 2 423 5 is_stmt 1 view .LVU287
 1050              		.loc 2 424 5 view .LVU288
 1051              	.LBE16:
 1052              	.LBE15:
 320:Drivers/lvgl/src/draw/sw/lv_draw_sw_gradient.c ****             min = (dsc->stops[i - 1].frac * range) >> 8;
 1053              		.loc 1 320 22 is_stmt 0 view .LVU289
 1054 00fe 4EF07F4E 		orr	lr, lr, #-16777216
 1055              	.LVL104:
 321:Drivers/lvgl/src/draw/sw/lv_draw_sw_gradient.c ****             max = (dsc->stops[i].frac * range) >> 8;
 1056              		.loc 1 321 13 is_stmt 1 view .LVU290
 321:Drivers/lvgl/src/draw/sw/lv_draw_sw_gradient.c ****             max = (dsc->stops[i].frac * range) >> 8;
 1057              		.loc 1 321 37 is_stmt 0 view .LVU291
 1058 0102 00EB8505 		add	r5, r0, r5, lsl #2
 1059 0106 AB78     		ldrb	r3, [r5, #2]	@ zero_extendqisi2
 321:Drivers/lvgl/src/draw/sw/lv_draw_sw_gradient.c ****             max = (dsc->stops[i].frac * range) >> 8;
 1060              		.loc 1 321 43 view .LVU292
 1061 0108 01FB03F3 		mul	r3, r1, r3
 321:Drivers/lvgl/src/draw/sw/lv_draw_sw_gradient.c ****             max = (dsc->stops[i].frac * range) >> 8;
 1062              		.loc 1 321 17 view .LVU293
 1063 010c 1F12     		asrs	r7, r3, #8
 1064              	.LVL105:
 322:Drivers/lvgl/src/draw/sw/lv_draw_sw_gradient.c ****             d = max - min;
 1065              		.loc 1 322 13 is_stmt 1 view .LVU294
 323:Drivers/lvgl/src/draw/sw/lv_draw_sw_gradient.c ****             break;
 1066              		.loc 1 323 13 view .LVU295
 323:Drivers/lvgl/src/draw/sw/lv_draw_sw_gradient.c ****             break;
ARM GAS  /var/folders/0z/tsy30v1j4xl4_7kw94k978ww0000gn/T//cci0thdE.s 			page 35


 1067              		.loc 1 323 15 is_stmt 0 view .LVU296
 1068 010e A6EB2326 		sub	r6, r6, r3, asr #8
 1069              	.LVL106:
 324:Drivers/lvgl/src/draw/sw/lv_draw_sw_gradient.c ****         }
 1070              		.loc 1 324 13 is_stmt 1 view .LVU297
 1071 0112 00E0     		b	.L75
 1072              	.LVL107:
 1073              	.L85:
 324:Drivers/lvgl/src/draw/sw/lv_draw_sw_gradient.c ****         }
 1074              		.loc 1 324 13 is_stmt 0 view .LVU298
 1075              	.LBE17:
 1076              	.LBE18:
 315:Drivers/lvgl/src/draw/sw/lv_draw_sw_gradient.c ****     for(uint8_t i = 1; i < dsc->stops_count; i++) {
 1077              		.loc 1 315 13 view .LVU299
 1078 0114 0026     		movs	r6, #0
 1079              	.LVL108:
 1080              	.L75:
 328:Drivers/lvgl/src/draw/sw/lv_draw_sw_gradient.c **** 
 1081              		.loc 1 328 5 is_stmt 1 view .LVU300
 328:Drivers/lvgl/src/draw/sw/lv_draw_sw_gradient.c **** 
 1082              		.loc 1 328 5 view .LVU301
 1083 0116 06B9     		cbnz	r6, .L77
 1084              	.L78:
 328:Drivers/lvgl/src/draw/sw/lv_draw_sw_gradient.c **** 
 1085              		.loc 1 328 5 discriminator 1 view .LVU302
 328:Drivers/lvgl/src/draw/sw/lv_draw_sw_gradient.c **** 
 1086              		.loc 1 328 5 discriminator 1 view .LVU303
 328:Drivers/lvgl/src/draw/sw/lv_draw_sw_gradient.c **** 
 1087              		.loc 1 328 5 discriminator 1 view .LVU304
 328:Drivers/lvgl/src/draw/sw/lv_draw_sw_gradient.c **** 
 1088              		.loc 1 328 5 discriminator 1 view .LVU305
 328:Drivers/lvgl/src/draw/sw/lv_draw_sw_gradient.c **** 
 1089              		.loc 1 328 5 discriminator 1 view .LVU306
 1090 0118 FEE7     		b	.L78
 1091              	.L77:
 328:Drivers/lvgl/src/draw/sw/lv_draw_sw_gradient.c **** 
 1092              		.loc 1 328 5 discriminator 2 view .LVU307
 331:Drivers/lvgl/src/draw/sw/lv_draw_sw_gradient.c ****     lv_opa_t mix = (frac * 255) / d;
 1093              		.loc 1 331 5 discriminator 2 view .LVU308
 331:Drivers/lvgl/src/draw/sw/lv_draw_sw_gradient.c ****     lv_opa_t mix = (frac * 255) / d;
 1094              		.loc 1 331 10 is_stmt 0 discriminator 2 view .LVU309
 1095 011a D31B     		subs	r3, r2, r7
 1096 011c 1BB2     		sxth	r3, r3
 1097              	.LVL109:
 332:Drivers/lvgl/src/draw/sw/lv_draw_sw_gradient.c ****     lv_opa_t imix = 255 - mix;
 1098              		.loc 1 332 5 is_stmt 1 discriminator 2 view .LVU310
 332:Drivers/lvgl/src/draw/sw/lv_draw_sw_gradient.c ****     lv_opa_t imix = 255 - mix;
 1099              		.loc 1 332 26 is_stmt 0 discriminator 2 view .LVU311
 1100 011e C3EB0323 		rsb	r3, r3, r3, lsl #8
 1101              	.LVL110:
 332:Drivers/lvgl/src/draw/sw/lv_draw_sw_gradient.c ****     lv_opa_t imix = 255 - mix;
 1102              		.loc 1 332 33 discriminator 2 view .LVU312
 1103 0122 93FBF6F3 		sdiv	r3, r3, r6
 332:Drivers/lvgl/src/draw/sw/lv_draw_sw_gradient.c ****     lv_opa_t imix = 255 - mix;
 1104              		.loc 1 332 14 discriminator 2 view .LVU313
 1105 0126 DBB2     		uxtb	r3, r3
 1106              	.LVL111:
ARM GAS  /var/folders/0z/tsy30v1j4xl4_7kw94k978ww0000gn/T//cci0thdE.s 			page 36


 333:Drivers/lvgl/src/draw/sw/lv_draw_sw_gradient.c **** 
 1107              		.loc 1 333 5 is_stmt 1 discriminator 2 view .LVU314
 333:Drivers/lvgl/src/draw/sw/lv_draw_sw_gradient.c **** 
 1108              		.loc 1 333 14 is_stmt 0 discriminator 2 view .LVU315
 1109 0128 DA43     		mvns	r2, r3
 1110              	.LVL112:
 333:Drivers/lvgl/src/draw/sw/lv_draw_sw_gradient.c **** 
 1111              		.loc 1 333 14 discriminator 2 view .LVU316
 1112 012a D2B2     		uxtb	r2, r2
 1113              	.LVL113:
 335:Drivers/lvgl/src/draw/sw/lv_draw_sw_gradient.c ****                                 LV_UDIV255(two.ch.green * mix + one.ch.green * imix),
 1114              		.loc 1 335 5 is_stmt 1 discriminator 2 view .LVU317
 335:Drivers/lvgl/src/draw/sw/lv_draw_sw_gradient.c ****                                 LV_UDIV255(two.ch.green * mix + one.ch.green * imix),
 1115              		.loc 1 335 25 is_stmt 0 discriminator 2 view .LVU318
 1116 012c CEF30720 		ubfx	r0, lr, #8, #8
 1117              	.LVL114:
 335:Drivers/lvgl/src/draw/sw/lv_draw_sw_gradient.c ****                                 LV_UDIV255(two.ch.green * mix + one.ch.green * imix),
 1118              		.loc 1 335 25 discriminator 2 view .LVU319
 1119 0130 C4F30721 		ubfx	r1, r4, #8, #8
 1120              	.LVL115:
 335:Drivers/lvgl/src/draw/sw/lv_draw_sw_gradient.c ****                                 LV_UDIV255(two.ch.green * mix + one.ch.green * imix),
 1121              		.loc 1 335 25 discriminator 2 view .LVU320
 1122 0134 02FB01F1 		mul	r1, r2, r1
 1123 0138 03FB0011 		mla	r1, r3, r0, r1
 1124 013c 01EB0120 		add	r0, r1, r1, lsl #8
 1125 0140 01EBC011 		add	r1, r1, r0, lsl #7
 1126 0144 C1F30275 		ubfx	r5, r1, #28, #3
 335:Drivers/lvgl/src/draw/sw/lv_draw_sw_gradient.c ****                                 LV_UDIV255(two.ch.green * mix + one.ch.green * imix),
 1127              		.loc 1 335 21 discriminator 2 view .LVU321
 1128 0148 4FF00000 		mov	r0, #0	@ movhi
 335:Drivers/lvgl/src/draw/sw/lv_draw_sw_gradient.c ****                                 LV_UDIV255(two.ch.green * mix + one.ch.green * imix),
 1129              		.loc 1 335 21 discriminator 2 view .LVU322
 1130 014c 65F30200 		bfi	r0, r5, #0, #3
 1131              	.LVL116:
 335:Drivers/lvgl/src/draw/sw/lv_draw_sw_gradient.c ****                                 LV_UDIV255(two.ch.green * mix + one.ch.green * imix),
 1132              		.loc 1 335 25 discriminator 2 view .LVU323
 1133 0150 CEF30746 		ubfx	r6, lr, #16, #8
 1134              	.LVL117:
 335:Drivers/lvgl/src/draw/sw/lv_draw_sw_gradient.c ****                                 LV_UDIV255(two.ch.green * mix + one.ch.green * imix),
 1135              		.loc 1 335 25 discriminator 2 view .LVU324
 1136 0154 C4F30745 		ubfx	r5, r4, #16, #8
 1137 0158 02FB05F5 		mul	r5, r2, r5
 1138 015c 03FB0655 		mla	r5, r3, r6, r5
 1139 0160 05EB0526 		add	r6, r5, r5, lsl #8
 1140 0164 05EBC615 		add	r5, r5, r6, lsl #7
 1141 0168 C5F38465 		ubfx	r5, r5, #26, #5
 335:Drivers/lvgl/src/draw/sw/lv_draw_sw_gradient.c ****                                 LV_UDIV255(two.ch.green * mix + one.ch.green * imix),
 1142              		.loc 1 335 21 discriminator 2 view .LVU325
 1143 016c 65F3C700 		bfi	r0, r5, #3, #5
 335:Drivers/lvgl/src/draw/sw/lv_draw_sw_gradient.c ****                                 LV_UDIV255(two.ch.green * mix + one.ch.green * imix),
 1144              		.loc 1 335 25 discriminator 2 view .LVU326
 1145 0170 5FFA8EFE 		uxtb	lr, lr
 1146              	.LVL118:
 335:Drivers/lvgl/src/draw/sw/lv_draw_sw_gradient.c ****                                 LV_UDIV255(two.ch.green * mix + one.ch.green * imix),
 1147              		.loc 1 335 25 discriminator 2 view .LVU327
 1148 0174 E4B2     		uxtb	r4, r4
 1149              	.LVL119:
ARM GAS  /var/folders/0z/tsy30v1j4xl4_7kw94k978ww0000gn/T//cci0thdE.s 			page 37


 335:Drivers/lvgl/src/draw/sw/lv_draw_sw_gradient.c ****                                 LV_UDIV255(two.ch.green * mix + one.ch.green * imix),
 1150              		.loc 1 335 25 discriminator 2 view .LVU328
 1151 0176 04FB02F2 		mul	r2, r4, r2
 1152              	.LVL120:
 335:Drivers/lvgl/src/draw/sw/lv_draw_sw_gradient.c ****                                 LV_UDIV255(two.ch.green * mix + one.ch.green * imix),
 1153              		.loc 1 335 25 discriminator 2 view .LVU329
 1154 017a 03FB0E23 		mla	r3, r3, lr, r2
 1155              	.LVL121:
 335:Drivers/lvgl/src/draw/sw/lv_draw_sw_gradient.c ****                                 LV_UDIV255(two.ch.green * mix + one.ch.green * imix),
 1156              		.loc 1 335 25 discriminator 2 view .LVU330
 1157 017e 03EB0322 		add	r2, r3, r3, lsl #8
 1158 0182 03EBC213 		add	r3, r3, r2, lsl #7
 1159 0186 C3F38463 		ubfx	r3, r3, #26, #5
 335:Drivers/lvgl/src/draw/sw/lv_draw_sw_gradient.c ****                                 LV_UDIV255(two.ch.green * mix + one.ch.green * imix),
 1160              		.loc 1 335 21 discriminator 2 view .LVU331
 1161 018a 63F30C20 		bfi	r0, r3, #8, #5
 335:Drivers/lvgl/src/draw/sw/lv_draw_sw_gradient.c ****                                 LV_UDIV255(two.ch.green * mix + one.ch.green * imix),
 1162              		.loc 1 335 25 discriminator 2 view .LVU332
 1163 018e C1F34261 		ubfx	r1, r1, #25, #3
 335:Drivers/lvgl/src/draw/sw/lv_draw_sw_gradient.c ****                                 LV_UDIV255(two.ch.green * mix + one.ch.green * imix),
 1164              		.loc 1 335 21 discriminator 2 view .LVU333
 1165 0192 61F34F30 		bfi	r0, r1, #13, #3
 338:Drivers/lvgl/src/draw/sw/lv_draw_sw_gradient.c **** }
 1166              		.loc 1 338 5 is_stmt 1 discriminator 2 view .LVU334
 338:Drivers/lvgl/src/draw/sw/lv_draw_sw_gradient.c **** }
 1167              		.loc 1 338 12 is_stmt 0 discriminator 2 view .LVU335
 1168 0196 5CE7     		b	.L72
 1169              		.cfi_endproc
 1170              	.LFE68:
 1172              		.section	.text.lv_gradient_get,"ax",%progbits
 1173              		.align	1
 1174              		.global	lv_gradient_get
 1175              		.syntax unified
 1176              		.thumb
 1177              		.thumb_func
 1179              	lv_gradient_get:
 1180              	.LVL122:
 1181              	.LFB67:
 252:Drivers/lvgl/src/draw/sw/lv_draw_sw_gradient.c ****     /* No gradient, no cache */
 1182              		.loc 1 252 1 is_stmt 1 view -0
 1183              		.cfi_startproc
 1184              		@ args = 0, pretend = 0, frame = 8
 1185              		@ frame_needed = 0, uses_anonymous_args = 0
 254:Drivers/lvgl/src/draw/sw/lv_draw_sw_gradient.c **** 
 1186              		.loc 1 254 5 view .LVU337
 254:Drivers/lvgl/src/draw/sw/lv_draw_sw_gradient.c **** 
 1187              		.loc 1 254 15 is_stmt 0 view .LVU338
 1188 0000 437A     		ldrb	r3, [r0, #9]	@ zero_extendqisi2
 254:Drivers/lvgl/src/draw/sw/lv_draw_sw_gradient.c **** 
 1189              		.loc 1 254 7 view .LVU339
 1190 0002 13F0070F 		tst	r3, #7
 1191 0006 46D0     		beq	.L94
 252:Drivers/lvgl/src/draw/sw/lv_draw_sw_gradient.c ****     /* No gradient, no cache */
 1192              		.loc 1 252 1 view .LVU340
 1193 0008 70B5     		push	{r4, r5, r6, lr}
 1194              		.cfi_def_cfa_offset 16
 1195              		.cfi_offset 4, -16
ARM GAS  /var/folders/0z/tsy30v1j4xl4_7kw94k978ww0000gn/T//cci0thdE.s 			page 38


 1196              		.cfi_offset 5, -12
 1197              		.cfi_offset 6, -8
 1198              		.cfi_offset 14, -4
 1199 000a 82B0     		sub	sp, sp, #8
 1200              		.cfi_def_cfa_offset 24
 1201 000c 0546     		mov	r5, r0
 1202 000e 0C46     		mov	r4, r1
 1203 0010 1646     		mov	r6, r2
 257:Drivers/lvgl/src/draw/sw/lv_draw_sw_gradient.c ****     if(!inited) {
 1204              		.loc 1 257 5 is_stmt 1 view .LVU341
 258:Drivers/lvgl/src/draw/sw/lv_draw_sw_gradient.c ****         lv_gradient_set_cache_size(LV_GRAD_CACHE_DEF_SIZE);
 1205              		.loc 1 258 5 view .LVU342
 258:Drivers/lvgl/src/draw/sw/lv_draw_sw_gradient.c ****         lv_gradient_set_cache_size(LV_GRAD_CACHE_DEF_SIZE);
 1206              		.loc 1 258 8 is_stmt 0 view .LVU343
 1207 0012 224B     		ldr	r3, .L103
 1208 0014 1B78     		ldrb	r3, [r3]	@ zero_extendqisi2
 258:Drivers/lvgl/src/draw/sw/lv_draw_sw_gradient.c ****         lv_gradient_set_cache_size(LV_GRAD_CACHE_DEF_SIZE);
 1209              		.loc 1 258 7 view .LVU344
 1210 0016 E3B1     		cbz	r3, .L100
 1211              	.LVL123:
 1212              	.L89:
 264:Drivers/lvgl/src/draw/sw/lv_draw_sw_gradient.c ****     uint32_t key = compute_key(g, size, w);
 1213              		.loc 1 264 5 is_stmt 1 view .LVU345
 264:Drivers/lvgl/src/draw/sw/lv_draw_sw_gradient.c ****     uint32_t key = compute_key(g, size, w);
 1214              		.loc 1 264 30 is_stmt 0 view .LVU346
 1215 0018 6B7A     		ldrb	r3, [r5, #9]	@ zero_extendqisi2
 1216 001a 03F00703 		and	r3, r3, #7
 264:Drivers/lvgl/src/draw/sw/lv_draw_sw_gradient.c ****     uint32_t key = compute_key(g, size, w);
 1217              		.loc 1 264 16 view .LVU347
 1218 001e 022B     		cmp	r3, #2
 1219 0020 1ED0     		beq	.L101
 1220 0022 3146     		mov	r1, r6
 1221              	.L90:
 1222              	.LVL124:
 265:Drivers/lvgl/src/draw/sw/lv_draw_sw_gradient.c ****     lv_grad_t * item = NULL;
 1223              		.loc 1 265 5 is_stmt 1 discriminator 4 view .LVU348
 265:Drivers/lvgl/src/draw/sw/lv_draw_sw_gradient.c ****     lv_grad_t * item = NULL;
 1224              		.loc 1 265 20 is_stmt 0 discriminator 4 view .LVU349
 1225 0024 2246     		mov	r2, r4
 1226 0026 2846     		mov	r0, r5
 1227 0028 FFF7FEFF 		bl	compute_key
 1228              	.LVL125:
 265:Drivers/lvgl/src/draw/sw/lv_draw_sw_gradient.c ****     lv_grad_t * item = NULL;
 1229              		.loc 1 265 14 discriminator 4 view .LVU350
 1230 002c 0190     		str	r0, [sp, #4]
 266:Drivers/lvgl/src/draw/sw/lv_draw_sw_gradient.c ****     if(iterate_cache(&find_item, &key, &item) == LV_RES_OK) {
 1231              		.loc 1 266 5 is_stmt 1 discriminator 4 view .LVU351
 266:Drivers/lvgl/src/draw/sw/lv_draw_sw_gradient.c ****     if(iterate_cache(&find_item, &key, &item) == LV_RES_OK) {
 1232              		.loc 1 266 17 is_stmt 0 discriminator 4 view .LVU352
 1233 002e 0023     		movs	r3, #0
 1234 0030 0093     		str	r3, [sp]
 267:Drivers/lvgl/src/draw/sw/lv_draw_sw_gradient.c ****         item->life++; /* Don't forget to bump the counter */
 1235              		.loc 1 267 5 is_stmt 1 discriminator 4 view .LVU353
 267:Drivers/lvgl/src/draw/sw/lv_draw_sw_gradient.c ****         item->life++; /* Don't forget to bump the counter */
 1236              		.loc 1 267 8 is_stmt 0 discriminator 4 view .LVU354
 1237 0032 6A46     		mov	r2, sp
 1238 0034 01A9     		add	r1, sp, #4
ARM GAS  /var/folders/0z/tsy30v1j4xl4_7kw94k978ww0000gn/T//cci0thdE.s 			page 39


 1239 0036 1A48     		ldr	r0, .L103+4
 1240 0038 FFF7FEFF 		bl	iterate_cache
 1241              	.LVL126:
 267:Drivers/lvgl/src/draw/sw/lv_draw_sw_gradient.c ****         item->life++; /* Don't forget to bump the counter */
 1242              		.loc 1 267 7 discriminator 4 view .LVU355
 1243 003c 0128     		cmp	r0, #1
 1244 003e 11D0     		beq	.L102
 273:Drivers/lvgl/src/draw/sw/lv_draw_sw_gradient.c ****     if(item == NULL) {
 1245              		.loc 1 273 5 is_stmt 1 view .LVU356
 273:Drivers/lvgl/src/draw/sw/lv_draw_sw_gradient.c ****     if(item == NULL) {
 1246              		.loc 1 273 12 is_stmt 0 view .LVU357
 1247 0040 3246     		mov	r2, r6
 1248 0042 2146     		mov	r1, r4
 1249 0044 2846     		mov	r0, r5
 1250 0046 FFF7FEFF 		bl	allocate_item
 1251              	.LVL127:
 273:Drivers/lvgl/src/draw/sw/lv_draw_sw_gradient.c ****     if(item == NULL) {
 1252              		.loc 1 273 10 view .LVU358
 1253 004a 0090     		str	r0, [sp]
 274:Drivers/lvgl/src/draw/sw/lv_draw_sw_gradient.c ****         LV_LOG_WARN("Faild to allcoate item for teh gradient");
 1254              		.loc 1 274 5 is_stmt 1 view .LVU359
 274:Drivers/lvgl/src/draw/sw/lv_draw_sw_gradient.c ****         LV_LOG_WARN("Faild to allcoate item for teh gradient");
 1255              		.loc 1 274 7 is_stmt 0 view .LVU360
 1256 004c 08B3     		cbz	r0, .L87
 1257              	.LBB19:
 288:Drivers/lvgl/src/draw/sw/lv_draw_sw_gradient.c ****         item->map[i] = lv_gradient_calculate(g, item->size, i);
 1258              		.loc 1 288 20 view .LVU361
 1259 004e 0024     		movs	r4, #0
 1260 0050 1AE0     		b	.L92
 1261              	.LVL128:
 1262              	.L100:
 288:Drivers/lvgl/src/draw/sw/lv_draw_sw_gradient.c ****         item->map[i] = lv_gradient_calculate(g, item->size, i);
 1263              		.loc 1 288 20 view .LVU362
 1264              	.LBE19:
 259:Drivers/lvgl/src/draw/sw/lv_draw_sw_gradient.c ****         inited = true;
 1265              		.loc 1 259 9 is_stmt 1 view .LVU363
 1266 0052 0020     		movs	r0, #0
 1267              	.LVL129:
 259:Drivers/lvgl/src/draw/sw/lv_draw_sw_gradient.c ****         inited = true;
 1268              		.loc 1 259 9 is_stmt 0 view .LVU364
 1269 0054 FFF7FEFF 		bl	lv_gradient_set_cache_size
 1270              	.LVL130:
 260:Drivers/lvgl/src/draw/sw/lv_draw_sw_gradient.c ****     }
 1271              		.loc 1 260 9 is_stmt 1 view .LVU365
 260:Drivers/lvgl/src/draw/sw/lv_draw_sw_gradient.c ****     }
 1272              		.loc 1 260 16 is_stmt 0 view .LVU366
 1273 0058 104B     		ldr	r3, .L103
 1274 005a 0122     		movs	r2, #1
 1275 005c 1A70     		strb	r2, [r3]
 1276 005e DBE7     		b	.L89
 1277              	.L101:
 264:Drivers/lvgl/src/draw/sw/lv_draw_sw_gradient.c ****     uint32_t key = compute_key(g, size, w);
 1278              		.loc 1 264 16 view .LVU367
 1279 0060 2146     		mov	r1, r4
 1280 0062 DFE7     		b	.L90
 1281              	.L102:
 268:Drivers/lvgl/src/draw/sw/lv_draw_sw_gradient.c ****         return item;
ARM GAS  /var/folders/0z/tsy30v1j4xl4_7kw94k978ww0000gn/T//cci0thdE.s 			page 40


 1282              		.loc 1 268 9 is_stmt 1 view .LVU368
 268:Drivers/lvgl/src/draw/sw/lv_draw_sw_gradient.c ****         return item;
 1283              		.loc 1 268 13 is_stmt 0 view .LVU369
 1284 0064 0098     		ldr	r0, [sp]
 1285 0066 4368     		ldr	r3, [r0, #4]
 1286 0068 C3F31D02 		ubfx	r2, r3, #0, #30
 268:Drivers/lvgl/src/draw/sw/lv_draw_sw_gradient.c ****         return item;
 1287              		.loc 1 268 19 view .LVU370
 1288 006c 0132     		adds	r2, r2, #1
 1289 006e 62F31D03 		bfi	r3, r2, #0, #30
 1290 0072 4360     		str	r3, [r0, #4]
 269:Drivers/lvgl/src/draw/sw/lv_draw_sw_gradient.c ****     }
 1291              		.loc 1 269 9 is_stmt 1 view .LVU371
 269:Drivers/lvgl/src/draw/sw/lv_draw_sw_gradient.c ****     }
 1292              		.loc 1 269 16 is_stmt 0 view .LVU372
 1293 0074 0DE0     		b	.L87
 1294              	.LVL131:
 1295              	.L93:
 1296              	.LBB20:
 289:Drivers/lvgl/src/draw/sw/lv_draw_sw_gradient.c ****     }
 1297              		.loc 1 289 9 is_stmt 1 discriminator 3 view .LVU373
 289:Drivers/lvgl/src/draw/sw/lv_draw_sw_gradient.c ****     }
 1298              		.loc 1 289 13 is_stmt 0 discriminator 3 view .LVU374
 1299 0076 8668     		ldr	r6, [r0, #8]
 289:Drivers/lvgl/src/draw/sw/lv_draw_sw_gradient.c ****     }
 1300              		.loc 1 289 24 discriminator 3 view .LVU375
 1301 0078 2246     		mov	r2, r4
 1302 007a 2846     		mov	r0, r5
 1303 007c FFF7FEFF 		bl	lv_gradient_calculate
 1304              	.LVL132:
 1305 0080 26F81400 		strh	r0, [r6, r4, lsl #1]	@ movhi
 288:Drivers/lvgl/src/draw/sw/lv_draw_sw_gradient.c ****         item->map[i] = lv_gradient_calculate(g, item->size, i);
 1306              		.loc 1 288 44 is_stmt 1 discriminator 3 view .LVU376
 1307 0084 0134     		adds	r4, r4, #1
 1308              	.LVL133:
 288:Drivers/lvgl/src/draw/sw/lv_draw_sw_gradient.c ****         item->map[i] = lv_gradient_calculate(g, item->size, i);
 1309              		.loc 1 288 44 is_stmt 0 discriminator 3 view .LVU377
 1310 0086 24B2     		sxth	r4, r4
 1311              	.LVL134:
 1312              	.L92:
 288:Drivers/lvgl/src/draw/sw/lv_draw_sw_gradient.c ****         item->map[i] = lv_gradient_calculate(g, item->size, i);
 1313              		.loc 1 288 29 is_stmt 1 discriminator 1 view .LVU378
 288:Drivers/lvgl/src/draw/sw/lv_draw_sw_gradient.c ****         item->map[i] = lv_gradient_calculate(g, item->size, i);
 1314              		.loc 1 288 35 is_stmt 0 discriminator 1 view .LVU379
 1315 0088 0098     		ldr	r0, [sp]
 1316 008a B0F90E10 		ldrsh	r1, [r0, #14]
 288:Drivers/lvgl/src/draw/sw/lv_draw_sw_gradient.c ****         item->map[i] = lv_gradient_calculate(g, item->size, i);
 1317              		.loc 1 288 29 discriminator 1 view .LVU380
 1318 008e A142     		cmp	r1, r4
 1319 0090 F1DC     		bgt	.L93
 1320              	.LVL135:
 1321              	.L87:
 288:Drivers/lvgl/src/draw/sw/lv_draw_sw_gradient.c ****         item->map[i] = lv_gradient_calculate(g, item->size, i);
 1322              		.loc 1 288 29 discriminator 1 view .LVU381
 1323              	.LBE20:
 294:Drivers/lvgl/src/draw/sw/lv_draw_sw_gradient.c **** 
 1324              		.loc 1 294 1 view .LVU382
ARM GAS  /var/folders/0z/tsy30v1j4xl4_7kw94k978ww0000gn/T//cci0thdE.s 			page 41


 1325 0092 02B0     		add	sp, sp, #8
 1326              		.cfi_def_cfa_offset 16
 1327              		@ sp needed
 1328 0094 70BD     		pop	{r4, r5, r6, pc}
 1329              	.LVL136:
 1330              	.L94:
 1331              		.cfi_def_cfa_offset 0
 1332              		.cfi_restore 4
 1333              		.cfi_restore 5
 1334              		.cfi_restore 6
 1335              		.cfi_restore 14
 254:Drivers/lvgl/src/draw/sw/lv_draw_sw_gradient.c **** 
 1336              		.loc 1 254 43 view .LVU383
 1337 0096 0020     		movs	r0, #0
 1338              	.LVL137:
 294:Drivers/lvgl/src/draw/sw/lv_draw_sw_gradient.c **** 
 1339              		.loc 1 294 1 view .LVU384
 1340 0098 7047     		bx	lr
 1341              	.L104:
 1342 009a 00BF     		.align	2
 1343              	.L103:
 1344 009c 00000000 		.word	.LANCHOR2
 1345 00a0 00000000 		.word	find_item
 1346              		.cfi_endproc
 1347              	.LFE67:
 1349              		.section	.text.lv_gradient_cleanup,"ax",%progbits
 1350              		.align	1
 1351              		.global	lv_gradient_cleanup
 1352              		.syntax unified
 1353              		.thumb
 1354              		.thumb_func
 1356              	lv_gradient_cleanup:
 1357              	.LVL138:
 1358              	.LFB69:
 340:Drivers/lvgl/src/draw/sw/lv_draw_sw_gradient.c **** 
 341:Drivers/lvgl/src/draw/sw/lv_draw_sw_gradient.c **** void lv_gradient_cleanup(lv_grad_t * grad)
 342:Drivers/lvgl/src/draw/sw/lv_draw_sw_gradient.c **** {
 1359              		.loc 1 342 1 is_stmt 1 view -0
 1360              		.cfi_startproc
 1361              		@ args = 0, pretend = 0, frame = 0
 1362              		@ frame_needed = 0, uses_anonymous_args = 0
 1363              		.loc 1 342 1 is_stmt 0 view .LVU386
 1364 0000 08B5     		push	{r3, lr}
 1365              		.cfi_def_cfa_offset 8
 1366              		.cfi_offset 3, -8
 1367              		.cfi_offset 14, -4
 343:Drivers/lvgl/src/draw/sw/lv_draw_sw_gradient.c ****     if(grad->not_cached) {
 1368              		.loc 1 343 5 is_stmt 1 view .LVU387
 1369              		.loc 1 343 7 is_stmt 0 view .LVU388
 1370 0002 90F90730 		ldrsb	r3, [r0, #7]
 1371 0006 002B     		cmp	r3, #0
 1372 0008 00DB     		blt	.L108
 1373              	.LVL139:
 1374              	.L105:
 344:Drivers/lvgl/src/draw/sw/lv_draw_sw_gradient.c ****         lv_mem_free(grad);
 345:Drivers/lvgl/src/draw/sw/lv_draw_sw_gradient.c ****     }
 346:Drivers/lvgl/src/draw/sw/lv_draw_sw_gradient.c **** }
ARM GAS  /var/folders/0z/tsy30v1j4xl4_7kw94k978ww0000gn/T//cci0thdE.s 			page 42


 1375              		.loc 1 346 1 view .LVU389
 1376 000a 08BD     		pop	{r3, pc}
 1377              	.LVL140:
 1378              	.L108:
 344:Drivers/lvgl/src/draw/sw/lv_draw_sw_gradient.c ****         lv_mem_free(grad);
 1379              		.loc 1 344 9 is_stmt 1 view .LVU390
 1380 000c FFF7FEFF 		bl	lv_mem_free
 1381              	.LVL141:
 1382              		.loc 1 346 1 is_stmt 0 view .LVU391
 1383 0010 FBE7     		b	.L105
 1384              		.cfi_endproc
 1385              	.LFE69:
 1387              		.section	.bss.grad_cache_end,"aw",%nobits
 1388              		.align	2
 1389              		.set	.LANCHOR1,. + 0
 1392              	grad_cache_end:
 1393 0000 00000000 		.space	4
 1394              		.section	.bss.grad_cache_size,"aw",%nobits
 1395              		.align	2
 1396              		.set	.LANCHOR0,. + 0
 1399              	grad_cache_size:
 1400 0000 00000000 		.space	4
 1401              		.section	.bss.inited.0,"aw",%nobits
 1402              		.set	.LANCHOR2,. + 0
 1405              	inited.0:
 1406 0000 00       		.space	1
 1407              		.text
 1408              	.Letext0:
 1409              		.file 3 "/Users/johannes/Library/Application Support/Code/User/globalStorage/bmd.stm32-for-vscode/
 1410              		.file 4 "/Users/johannes/Library/Application Support/Code/User/globalStorage/bmd.stm32-for-vscode/
 1411              		.file 5 "Drivers/lvgl/src/draw/sw/../../misc/lv_types.h"
 1412              		.file 6 "/Users/johannes/Library/Application Support/Code/User/globalStorage/bmd.stm32-for-vscode/
 1413              		.file 7 "Drivers/lvgl/src/draw/sw/../../misc/../font/../misc/lv_area.h"
 1414              		.file 8 "Drivers/lvgl/src/draw/sw/../../misc/lv_style.h"
 1415              		.file 9 "Drivers/lvgl/src/draw/sw/lv_draw_sw_gradient.h"
 1416              		.file 10 "Drivers/lvgl/src/draw/sw/../../misc/lv_mem.h"
 1417              		.file 11 "Drivers/lvgl/src/draw/sw/../../misc/lv_gc.h"
ARM GAS  /var/folders/0z/tsy30v1j4xl4_7kw94k978ww0000gn/T//cci0thdE.s 			page 43

