ARM GAS  /var/folders/0z/tsy30v1j4xl4_7kw94k978ww0000gn/T//cczCdckk.s 			page 1


   1              		.cpu cortex-m4
   2              		.arch armv7e-m
   3              		.fpu fpv4-sp-d16
   4              		.eabi_attribute 27, 1
   5              		.eabi_attribute 28, 1
   6              		.eabi_attribute 20, 1
   7              		.eabi_attribute 21, 1
   8              		.eabi_attribute 23, 3
   9              		.eabi_attribute 24, 1
  10              		.eabi_attribute 25, 1
  11              		.eabi_attribute 26, 1
  12              		.eabi_attribute 30, 1
  13              		.eabi_attribute 34, 1
  14              		.eabi_attribute 18, 4
  15              		.file	"lv_draw_sw_line.c"
  16              		.text
  17              	.Ltext0:
  18              		.cfi_sections	.debug_frame
  19              		.section	.text.draw_line_hor,"ax",%progbits
  20              		.align	1
  21              		.syntax unified
  22              		.thumb
  23              		.thumb_func
  25              	draw_line_hor:
  26              	.LVL0:
  27              	.LFB162:
  28              		.file 1 "Drivers/lvgl/src/draw/sw/lv_draw_sw_line.c"
   1:Drivers/lvgl/src/draw/sw/lv_draw_sw_line.c **** /**
   2:Drivers/lvgl/src/draw/sw/lv_draw_sw_line.c ****  * @file lv_draw_line.c
   3:Drivers/lvgl/src/draw/sw/lv_draw_sw_line.c ****  *
   4:Drivers/lvgl/src/draw/sw/lv_draw_sw_line.c ****  */
   5:Drivers/lvgl/src/draw/sw/lv_draw_sw_line.c **** 
   6:Drivers/lvgl/src/draw/sw/lv_draw_sw_line.c **** /*********************
   7:Drivers/lvgl/src/draw/sw/lv_draw_sw_line.c ****  *      INCLUDES
   8:Drivers/lvgl/src/draw/sw/lv_draw_sw_line.c ****  *********************/
   9:Drivers/lvgl/src/draw/sw/lv_draw_sw_line.c **** #include <stdbool.h>
  10:Drivers/lvgl/src/draw/sw/lv_draw_sw_line.c **** #include "lv_draw_sw.h"
  11:Drivers/lvgl/src/draw/sw/lv_draw_sw_line.c **** #include "../../misc/lv_math.h"
  12:Drivers/lvgl/src/draw/sw/lv_draw_sw_line.c **** #include "../../core/lv_refr.h"
  13:Drivers/lvgl/src/draw/sw/lv_draw_sw_line.c **** 
  14:Drivers/lvgl/src/draw/sw/lv_draw_sw_line.c **** /*********************
  15:Drivers/lvgl/src/draw/sw/lv_draw_sw_line.c ****  *      DEFINES
  16:Drivers/lvgl/src/draw/sw/lv_draw_sw_line.c ****  *********************/
  17:Drivers/lvgl/src/draw/sw/lv_draw_sw_line.c **** 
  18:Drivers/lvgl/src/draw/sw/lv_draw_sw_line.c **** /**********************
  19:Drivers/lvgl/src/draw/sw/lv_draw_sw_line.c ****  *      TYPEDEFS
  20:Drivers/lvgl/src/draw/sw/lv_draw_sw_line.c ****  **********************/
  21:Drivers/lvgl/src/draw/sw/lv_draw_sw_line.c **** 
  22:Drivers/lvgl/src/draw/sw/lv_draw_sw_line.c **** /**********************
  23:Drivers/lvgl/src/draw/sw/lv_draw_sw_line.c ****  *  STATIC PROTOTYPES
  24:Drivers/lvgl/src/draw/sw/lv_draw_sw_line.c ****  **********************/
  25:Drivers/lvgl/src/draw/sw/lv_draw_sw_line.c **** 
  26:Drivers/lvgl/src/draw/sw/lv_draw_sw_line.c **** static void /* LV_ATTRIBUTE_FAST_MEM */ draw_line_skew(struct _lv_draw_ctx_t * draw_ctx, const lv_d
  27:Drivers/lvgl/src/draw/sw/lv_draw_sw_line.c ****                                                        const lv_point_t * point1, const lv_point_t 
  28:Drivers/lvgl/src/draw/sw/lv_draw_sw_line.c **** static void /* LV_ATTRIBUTE_FAST_MEM */ draw_line_hor(struct _lv_draw_ctx_t * draw_ctx, const lv_dr
  29:Drivers/lvgl/src/draw/sw/lv_draw_sw_line.c ****                                                       const lv_point_t * point1, const lv_point_t *
  30:Drivers/lvgl/src/draw/sw/lv_draw_sw_line.c **** static void /* LV_ATTRIBUTE_FAST_MEM */ draw_line_ver(struct _lv_draw_ctx_t * draw_ctx, const lv_dr
ARM GAS  /var/folders/0z/tsy30v1j4xl4_7kw94k978ww0000gn/T//cczCdckk.s 			page 2


  31:Drivers/lvgl/src/draw/sw/lv_draw_sw_line.c ****                                                       const lv_point_t * point1, const lv_point_t *
  32:Drivers/lvgl/src/draw/sw/lv_draw_sw_line.c **** 
  33:Drivers/lvgl/src/draw/sw/lv_draw_sw_line.c **** /**********************
  34:Drivers/lvgl/src/draw/sw/lv_draw_sw_line.c ****  *  STATIC VARIABLES
  35:Drivers/lvgl/src/draw/sw/lv_draw_sw_line.c ****  **********************/
  36:Drivers/lvgl/src/draw/sw/lv_draw_sw_line.c **** 
  37:Drivers/lvgl/src/draw/sw/lv_draw_sw_line.c **** /**********************
  38:Drivers/lvgl/src/draw/sw/lv_draw_sw_line.c ****  *      MACROS
  39:Drivers/lvgl/src/draw/sw/lv_draw_sw_line.c ****  **********************/
  40:Drivers/lvgl/src/draw/sw/lv_draw_sw_line.c **** 
  41:Drivers/lvgl/src/draw/sw/lv_draw_sw_line.c **** /**********************
  42:Drivers/lvgl/src/draw/sw/lv_draw_sw_line.c ****  *   GLOBAL FUNCTIONS
  43:Drivers/lvgl/src/draw/sw/lv_draw_sw_line.c ****  **********************/
  44:Drivers/lvgl/src/draw/sw/lv_draw_sw_line.c **** 
  45:Drivers/lvgl/src/draw/sw/lv_draw_sw_line.c **** /**
  46:Drivers/lvgl/src/draw/sw/lv_draw_sw_line.c ****  * Draw a line
  47:Drivers/lvgl/src/draw/sw/lv_draw_sw_line.c ****  * @param point1 first point of the line
  48:Drivers/lvgl/src/draw/sw/lv_draw_sw_line.c ****  * @param point2 second point of the line
  49:Drivers/lvgl/src/draw/sw/lv_draw_sw_line.c ****  * @param clip the line will be drawn only in this area
  50:Drivers/lvgl/src/draw/sw/lv_draw_sw_line.c ****  * @param dsc pointer to an initialized `lv_draw_line_dsc_t` variable
  51:Drivers/lvgl/src/draw/sw/lv_draw_sw_line.c ****  */
  52:Drivers/lvgl/src/draw/sw/lv_draw_sw_line.c **** void LV_ATTRIBUTE_FAST_MEM lv_draw_sw_line(struct _lv_draw_ctx_t * draw_ctx, const lv_draw_line_dsc
  53:Drivers/lvgl/src/draw/sw/lv_draw_sw_line.c ****                                            const lv_point_t * point1, const lv_point_t * point2)
  54:Drivers/lvgl/src/draw/sw/lv_draw_sw_line.c **** {
  55:Drivers/lvgl/src/draw/sw/lv_draw_sw_line.c ****     if(dsc->width == 0) return;
  56:Drivers/lvgl/src/draw/sw/lv_draw_sw_line.c ****     if(dsc->opa <= LV_OPA_MIN) return;
  57:Drivers/lvgl/src/draw/sw/lv_draw_sw_line.c **** 
  58:Drivers/lvgl/src/draw/sw/lv_draw_sw_line.c ****     if(point1->x == point2->x && point1->y == point2->y) return;
  59:Drivers/lvgl/src/draw/sw/lv_draw_sw_line.c **** 
  60:Drivers/lvgl/src/draw/sw/lv_draw_sw_line.c ****     lv_area_t clip_line;
  61:Drivers/lvgl/src/draw/sw/lv_draw_sw_line.c ****     clip_line.x1 = LV_MIN(point1->x, point2->x) - dsc->width / 2;
  62:Drivers/lvgl/src/draw/sw/lv_draw_sw_line.c ****     clip_line.x2 = LV_MAX(point1->x, point2->x) + dsc->width / 2;
  63:Drivers/lvgl/src/draw/sw/lv_draw_sw_line.c ****     clip_line.y1 = LV_MIN(point1->y, point2->y) - dsc->width / 2;
  64:Drivers/lvgl/src/draw/sw/lv_draw_sw_line.c ****     clip_line.y2 = LV_MAX(point1->y, point2->y) + dsc->width / 2;
  65:Drivers/lvgl/src/draw/sw/lv_draw_sw_line.c **** 
  66:Drivers/lvgl/src/draw/sw/lv_draw_sw_line.c ****     bool is_common;
  67:Drivers/lvgl/src/draw/sw/lv_draw_sw_line.c ****     is_common = _lv_area_intersect(&clip_line, &clip_line, draw_ctx->clip_area);
  68:Drivers/lvgl/src/draw/sw/lv_draw_sw_line.c ****     if(!is_common) return;
  69:Drivers/lvgl/src/draw/sw/lv_draw_sw_line.c ****     const lv_area_t * clip_area_ori = draw_ctx->clip_area;
  70:Drivers/lvgl/src/draw/sw/lv_draw_sw_line.c ****     draw_ctx->clip_area = &clip_line;
  71:Drivers/lvgl/src/draw/sw/lv_draw_sw_line.c **** 
  72:Drivers/lvgl/src/draw/sw/lv_draw_sw_line.c ****     if(point1->y == point2->y) draw_line_hor(draw_ctx, dsc, point1, point2);
  73:Drivers/lvgl/src/draw/sw/lv_draw_sw_line.c ****     else if(point1->x == point2->x) draw_line_ver(draw_ctx, dsc, point1, point2);
  74:Drivers/lvgl/src/draw/sw/lv_draw_sw_line.c ****     else draw_line_skew(draw_ctx, dsc, point1, point2);
  75:Drivers/lvgl/src/draw/sw/lv_draw_sw_line.c **** 
  76:Drivers/lvgl/src/draw/sw/lv_draw_sw_line.c ****     if(dsc->round_end || dsc->round_start) {
  77:Drivers/lvgl/src/draw/sw/lv_draw_sw_line.c ****         lv_draw_rect_dsc_t cir_dsc;
  78:Drivers/lvgl/src/draw/sw/lv_draw_sw_line.c ****         lv_draw_rect_dsc_init(&cir_dsc);
  79:Drivers/lvgl/src/draw/sw/lv_draw_sw_line.c ****         cir_dsc.bg_color = dsc->color;
  80:Drivers/lvgl/src/draw/sw/lv_draw_sw_line.c ****         cir_dsc.radius = LV_RADIUS_CIRCLE;
  81:Drivers/lvgl/src/draw/sw/lv_draw_sw_line.c ****         cir_dsc.bg_opa = dsc->opa;
  82:Drivers/lvgl/src/draw/sw/lv_draw_sw_line.c **** 
  83:Drivers/lvgl/src/draw/sw/lv_draw_sw_line.c ****         int32_t r = (dsc->width >> 1);
  84:Drivers/lvgl/src/draw/sw/lv_draw_sw_line.c ****         int32_t r_corr = (dsc->width & 1) ? 0 : 1;
  85:Drivers/lvgl/src/draw/sw/lv_draw_sw_line.c ****         lv_area_t cir_area;
  86:Drivers/lvgl/src/draw/sw/lv_draw_sw_line.c **** 
  87:Drivers/lvgl/src/draw/sw/lv_draw_sw_line.c ****         if(dsc->round_start) {
ARM GAS  /var/folders/0z/tsy30v1j4xl4_7kw94k978ww0000gn/T//cczCdckk.s 			page 3


  88:Drivers/lvgl/src/draw/sw/lv_draw_sw_line.c ****             cir_area.x1 = point1->x - r;
  89:Drivers/lvgl/src/draw/sw/lv_draw_sw_line.c ****             cir_area.y1 = point1->y - r;
  90:Drivers/lvgl/src/draw/sw/lv_draw_sw_line.c ****             cir_area.x2 = point1->x + r - r_corr;
  91:Drivers/lvgl/src/draw/sw/lv_draw_sw_line.c ****             cir_area.y2 = point1->y + r - r_corr ;
  92:Drivers/lvgl/src/draw/sw/lv_draw_sw_line.c ****             lv_draw_rect(draw_ctx, &cir_dsc, &cir_area);
  93:Drivers/lvgl/src/draw/sw/lv_draw_sw_line.c ****         }
  94:Drivers/lvgl/src/draw/sw/lv_draw_sw_line.c **** 
  95:Drivers/lvgl/src/draw/sw/lv_draw_sw_line.c ****         if(dsc->round_end) {
  96:Drivers/lvgl/src/draw/sw/lv_draw_sw_line.c ****             cir_area.x1 = point2->x - r;
  97:Drivers/lvgl/src/draw/sw/lv_draw_sw_line.c ****             cir_area.y1 = point2->y - r;
  98:Drivers/lvgl/src/draw/sw/lv_draw_sw_line.c ****             cir_area.x2 = point2->x + r - r_corr;
  99:Drivers/lvgl/src/draw/sw/lv_draw_sw_line.c ****             cir_area.y2 = point2->y + r - r_corr ;
 100:Drivers/lvgl/src/draw/sw/lv_draw_sw_line.c ****             lv_draw_rect(draw_ctx, &cir_dsc, &cir_area);
 101:Drivers/lvgl/src/draw/sw/lv_draw_sw_line.c ****         }
 102:Drivers/lvgl/src/draw/sw/lv_draw_sw_line.c ****     }
 103:Drivers/lvgl/src/draw/sw/lv_draw_sw_line.c **** 
 104:Drivers/lvgl/src/draw/sw/lv_draw_sw_line.c ****     draw_ctx->clip_area = clip_area_ori;
 105:Drivers/lvgl/src/draw/sw/lv_draw_sw_line.c **** }
 106:Drivers/lvgl/src/draw/sw/lv_draw_sw_line.c **** 
 107:Drivers/lvgl/src/draw/sw/lv_draw_sw_line.c **** /**********************
 108:Drivers/lvgl/src/draw/sw/lv_draw_sw_line.c ****  *   STATIC FUNCTIONS
 109:Drivers/lvgl/src/draw/sw/lv_draw_sw_line.c ****  **********************/
 110:Drivers/lvgl/src/draw/sw/lv_draw_sw_line.c **** 
 111:Drivers/lvgl/src/draw/sw/lv_draw_sw_line.c **** 
 112:Drivers/lvgl/src/draw/sw/lv_draw_sw_line.c **** static void LV_ATTRIBUTE_FAST_MEM draw_line_hor(struct _lv_draw_ctx_t * draw_ctx, const lv_draw_lin
 113:Drivers/lvgl/src/draw/sw/lv_draw_sw_line.c ****                                                 const lv_point_t * point1, const lv_point_t * point
 114:Drivers/lvgl/src/draw/sw/lv_draw_sw_line.c **** {
  29              		.loc 1 114 1 view -0
  30              		.cfi_startproc
  31              		@ args = 0, pretend = 0, frame = 40
  32              		@ frame_needed = 0, uses_anonymous_args = 0
  33              		.loc 1 114 1 is_stmt 0 view .LVU1
  34 0000 2DE9F04F 		push	{r4, r5, r6, r7, r8, r9, r10, fp, lr}
  35              		.cfi_def_cfa_offset 36
  36              		.cfi_offset 4, -36
  37              		.cfi_offset 5, -32
  38              		.cfi_offset 6, -28
  39              		.cfi_offset 7, -24
  40              		.cfi_offset 8, -20
  41              		.cfi_offset 9, -16
  42              		.cfi_offset 10, -12
  43              		.cfi_offset 11, -8
  44              		.cfi_offset 14, -4
  45 0004 8BB0     		sub	sp, sp, #44
  46              		.cfi_def_cfa_offset 80
  47 0006 8046     		mov	r8, r0
  48 0008 0E46     		mov	r6, r1
 115:Drivers/lvgl/src/draw/sw/lv_draw_sw_line.c ****     int32_t w = dsc->width - 1;
  49              		.loc 1 115 5 is_stmt 1 view .LVU2
  50              		.loc 1 115 20 is_stmt 0 view .LVU3
  51 000a B1F90210 		ldrsh	r1, [r1, #2]
  52              	.LVL1:
  53              		.loc 1 115 13 view .LVU4
  54 000e 0139     		subs	r1, r1, #1
  55              	.LVL2:
 116:Drivers/lvgl/src/draw/sw/lv_draw_sw_line.c ****     int32_t w_half0 = w >> 1;
  56              		.loc 1 116 5 is_stmt 1 view .LVU5
ARM GAS  /var/folders/0z/tsy30v1j4xl4_7kw94k978ww0000gn/T//cczCdckk.s 			page 4


 117:Drivers/lvgl/src/draw/sw/lv_draw_sw_line.c ****     int32_t w_half1 = w_half0 + (w & 0x1); /*Compensate rounding error*/
  57              		.loc 1 117 5 view .LVU6
  58              		.loc 1 117 36 is_stmt 0 view .LVU7
  59 0010 01F00100 		and	r0, r1, #1
  60              	.LVL3:
  61              		.loc 1 117 13 view .LVU8
  62 0014 00EB6100 		add	r0, r0, r1, asr #1
  63              	.LVL4:
 118:Drivers/lvgl/src/draw/sw/lv_draw_sw_line.c **** 
 119:Drivers/lvgl/src/draw/sw/lv_draw_sw_line.c ****     lv_area_t blend_area;
  64              		.loc 1 119 5 is_stmt 1 view .LVU9
 120:Drivers/lvgl/src/draw/sw/lv_draw_sw_line.c ****     blend_area.x1 = LV_MIN(point1->x, point2->x);
  65              		.loc 1 120 5 view .LVU10
  66              		.loc 1 120 21 is_stmt 0 view .LVU11
  67 0018 B3F90030 		ldrsh	r3, [r3]
  68              	.LVL5:
  69              		.loc 1 120 21 view .LVU12
  70 001c B2F90040 		ldrsh	r4, [r2]
  71 0020 1D46     		mov	r5, r3
  72 0022 A342     		cmp	r3, r4
  73 0024 A8BF     		it	ge
  74 0026 2546     		movge	r5, r4
  75              		.loc 1 120 19 view .LVU13
  76 0028 ADF82050 		strh	r5, [sp, #32]	@ movhi
 121:Drivers/lvgl/src/draw/sw/lv_draw_sw_line.c ****     blend_area.x2 = LV_MAX(point1->x, point2->x)  - 1;
  77              		.loc 1 121 5 is_stmt 1 view .LVU14
  78              		.loc 1 121 21 is_stmt 0 view .LVU15
  79 002c A342     		cmp	r3, r4
  80 002e B8BF     		it	lt
  81 0030 2346     		movlt	r3, r4
  82 0032 9BB2     		uxth	r3, r3
  83              		.loc 1 121 51 view .LVU16
  84 0034 013B     		subs	r3, r3, #1
  85              		.loc 1 121 19 view .LVU17
  86 0036 ADF82430 		strh	r3, [sp, #36]	@ movhi
 122:Drivers/lvgl/src/draw/sw/lv_draw_sw_line.c ****     blend_area.y1 = point1->y - w_half1;
  87              		.loc 1 122 5 is_stmt 1 view .LVU18
  88              		.loc 1 122 27 is_stmt 0 view .LVU19
  89 003a 5388     		ldrh	r3, [r2, #2]
  90              		.loc 1 122 31 view .LVU20
  91 003c 181A     		subs	r0, r3, r0
  92              	.LVL6:
  93              		.loc 1 122 19 view .LVU21
  94 003e ADF82200 		strh	r0, [sp, #34]	@ movhi
 123:Drivers/lvgl/src/draw/sw/lv_draw_sw_line.c ****     blend_area.y2 = point1->y + w_half0;
  95              		.loc 1 123 5 is_stmt 1 view .LVU22
  96              		.loc 1 123 31 is_stmt 0 view .LVU23
  97 0042 03EB6103 		add	r3, r3, r1, asr #1
  98              		.loc 1 123 19 view .LVU24
  99 0046 ADF82630 		strh	r3, [sp, #38]	@ movhi
 124:Drivers/lvgl/src/draw/sw/lv_draw_sw_line.c **** 
 125:Drivers/lvgl/src/draw/sw/lv_draw_sw_line.c ****     bool is_common;
 100              		.loc 1 125 5 is_stmt 1 view .LVU25
 126:Drivers/lvgl/src/draw/sw/lv_draw_sw_line.c ****     is_common = _lv_area_intersect(&blend_area, &blend_area, draw_ctx->clip_area);
 101              		.loc 1 126 5 view .LVU26
 102              		.loc 1 126 17 is_stmt 0 view .LVU27
 103 004a D8F80820 		ldr	r2, [r8, #8]
ARM GAS  /var/folders/0z/tsy30v1j4xl4_7kw94k978ww0000gn/T//cczCdckk.s 			page 5


 104              	.LVL7:
 105              		.loc 1 126 17 view .LVU28
 106 004e 08A9     		add	r1, sp, #32
 107              	.LVL8:
 108              		.loc 1 126 17 view .LVU29
 109 0050 0846     		mov	r0, r1
 110 0052 FFF7FEFF 		bl	_lv_area_intersect
 111              	.LVL9:
 127:Drivers/lvgl/src/draw/sw/lv_draw_sw_line.c ****     if(!is_common) return;
 112              		.loc 1 127 5 is_stmt 1 view .LVU30
 113              		.loc 1 127 7 is_stmt 0 view .LVU31
 114 0056 0028     		cmp	r0, #0
 115 0058 00F09D80 		beq	.L1
 116 005c 0546     		mov	r5, r0
 128:Drivers/lvgl/src/draw/sw/lv_draw_sw_line.c **** 
 129:Drivers/lvgl/src/draw/sw/lv_draw_sw_line.c ****     bool dashed = dsc->dash_gap && dsc->dash_width ? true : false;
 117              		.loc 1 129 5 is_stmt 1 view .LVU32
 118              		.loc 1 129 22 is_stmt 0 view .LVU33
 119 005e B6F90630 		ldrsh	r3, [r6, #6]
 120              		.loc 1 129 59 view .LVU34
 121 0062 2BB1     		cbz	r3, .L16
 122              		.loc 1 129 39 discriminator 1 view .LVU35
 123 0064 B6F90430 		ldrsh	r3, [r6, #4]
 124              		.loc 1 129 59 discriminator 1 view .LVU36
 125 0068 73B9     		cbnz	r3, .L17
 126              		.loc 1 129 59 view .LVU37
 127 006a 4FF00009 		mov	r9, #0
 128 006e 01E0     		b	.L4
 129              	.L16:
 130 0070 4FF00009 		mov	r9, #0
 131              	.L4:
 132              	.LVL10:
 130:Drivers/lvgl/src/draw/sw/lv_draw_sw_line.c ****     bool simple_mode = true;
 133              		.loc 1 130 5 is_stmt 1 discriminator 6 view .LVU38
 131:Drivers/lvgl/src/draw/sw/lv_draw_sw_line.c ****     if(lv_draw_mask_is_any(&blend_area)) simple_mode = false;
 134              		.loc 1 131 5 discriminator 6 view .LVU39
 135              		.loc 1 131 8 is_stmt 0 discriminator 6 view .LVU40
 136 0074 08A8     		add	r0, sp, #32
 137              	.LVL11:
 138              		.loc 1 131 8 discriminator 6 view .LVU41
 139 0076 FFF7FEFF 		bl	lv_draw_mask_is_any
 140              	.LVL12:
 141              		.loc 1 131 7 discriminator 6 view .LVU42
 142 007a 0446     		mov	r4, r0
 143 007c 38B9     		cbnz	r0, .L18
 132:Drivers/lvgl/src/draw/sw/lv_draw_sw_line.c ****     else if(dashed) simple_mode = false;
 144              		.loc 1 132 10 is_stmt 1 view .LVU43
 145              		.loc 1 132 12 is_stmt 0 view .LVU44
 146 007e B9F1000F 		cmp	r9, #0
 147 0082 05D1     		bne	.L5
 130:Drivers/lvgl/src/draw/sw/lv_draw_sw_line.c ****     bool simple_mode = true;
 148              		.loc 1 130 10 view .LVU45
 149 0084 2C46     		mov	r4, r5
 150 0086 03E0     		b	.L5
 151              	.LVL13:
 152              	.L17:
 129:Drivers/lvgl/src/draw/sw/lv_draw_sw_line.c ****     bool simple_mode = true;
ARM GAS  /var/folders/0z/tsy30v1j4xl4_7kw94k978ww0000gn/T//cczCdckk.s 			page 6


 153              		.loc 1 129 59 view .LVU46
 154 0088 4FF00109 		mov	r9, #1
 155 008c F2E7     		b	.L4
 156              	.LVL14:
 157              	.L18:
 131:Drivers/lvgl/src/draw/sw/lv_draw_sw_line.c ****     if(lv_draw_mask_is_any(&blend_area)) simple_mode = false;
 158              		.loc 1 131 54 view .LVU47
 159 008e 0024     		movs	r4, #0
 160              	.L5:
 161              	.LVL15:
 133:Drivers/lvgl/src/draw/sw/lv_draw_sw_line.c **** 
 134:Drivers/lvgl/src/draw/sw/lv_draw_sw_line.c ****     lv_draw_sw_blend_dsc_t blend_dsc;
 162              		.loc 1 134 5 is_stmt 1 view .LVU48
 135:Drivers/lvgl/src/draw/sw/lv_draw_sw_line.c ****     lv_memset_00(&blend_dsc, sizeof(blend_dsc));
 163              		.loc 1 135 5 view .LVU49
 164 0090 1C21     		movs	r1, #28
 165 0092 01A8     		add	r0, sp, #4
 166 0094 FFF7FEFF 		bl	lv_memset_00
 167              	.LVL16:
 136:Drivers/lvgl/src/draw/sw/lv_draw_sw_line.c ****     blend_dsc.blend_area = &blend_area;
 168              		.loc 1 136 5 view .LVU50
 169              		.loc 1 136 26 is_stmt 0 view .LVU51
 170 0098 08AB     		add	r3, sp, #32
 171 009a 0193     		str	r3, [sp, #4]
 137:Drivers/lvgl/src/draw/sw/lv_draw_sw_line.c ****     blend_dsc.color = dsc->color;
 172              		.loc 1 137 5 is_stmt 1 view .LVU52
 173              		.loc 1 137 21 is_stmt 0 view .LVU53
 174 009c 3388     		ldrh	r3, [r6]
 175 009e ADF80C30 		strh	r3, [sp, #12]	@ movhi
 138:Drivers/lvgl/src/draw/sw/lv_draw_sw_line.c ****     blend_dsc.opa = dsc->opa;
 176              		.loc 1 138 5 is_stmt 1 view .LVU54
 177              		.loc 1 138 24 is_stmt 0 view .LVU55
 178 00a2 337A     		ldrb	r3, [r6, #8]	@ zero_extendqisi2
 179              		.loc 1 138 19 view .LVU56
 180 00a4 8DF81C30 		strb	r3, [sp, #28]
 139:Drivers/lvgl/src/draw/sw/lv_draw_sw_line.c **** 
 140:Drivers/lvgl/src/draw/sw/lv_draw_sw_line.c ****     /*If there is no mask then simply draw a rectangle*/
 141:Drivers/lvgl/src/draw/sw/lv_draw_sw_line.c ****     if(simple_mode) {
 181              		.loc 1 141 5 is_stmt 1 view .LVU57
 182              		.loc 1 141 7 is_stmt 0 view .LVU58
 183 00a8 3CBB     		cbnz	r4, .L23
 184              	.LBB12:
 142:Drivers/lvgl/src/draw/sw/lv_draw_sw_line.c ****         lv_draw_sw_blend(draw_ctx, &blend_dsc);
 143:Drivers/lvgl/src/draw/sw/lv_draw_sw_line.c ****     }
 144:Drivers/lvgl/src/draw/sw/lv_draw_sw_line.c **** #if LV_DRAW_COMPLEX
 145:Drivers/lvgl/src/draw/sw/lv_draw_sw_line.c ****     /*If there other mask apply it*/
 146:Drivers/lvgl/src/draw/sw/lv_draw_sw_line.c ****     else {
 147:Drivers/lvgl/src/draw/sw/lv_draw_sw_line.c **** 
 148:Drivers/lvgl/src/draw/sw/lv_draw_sw_line.c ****         int32_t blend_area_w = lv_area_get_width(&blend_area);
 185              		.loc 1 148 9 is_stmt 1 view .LVU59
 186              	.LVL17:
 187              	.LBB13:
 188              	.LBI13:
 189              		.file 2 "Drivers/lvgl/src/draw/sw/../../misc/lv_area.h"
   1:Drivers/lvgl/src/draw/sw/../../misc/lv_area.h **** /**
   2:Drivers/lvgl/src/draw/sw/../../misc/lv_area.h ****  * @file lv_area.h
   3:Drivers/lvgl/src/draw/sw/../../misc/lv_area.h ****  *
ARM GAS  /var/folders/0z/tsy30v1j4xl4_7kw94k978ww0000gn/T//cczCdckk.s 			page 7


   4:Drivers/lvgl/src/draw/sw/../../misc/lv_area.h ****  */
   5:Drivers/lvgl/src/draw/sw/../../misc/lv_area.h **** 
   6:Drivers/lvgl/src/draw/sw/../../misc/lv_area.h **** #ifndef LV_AREA_H
   7:Drivers/lvgl/src/draw/sw/../../misc/lv_area.h **** #define LV_AREA_H
   8:Drivers/lvgl/src/draw/sw/../../misc/lv_area.h **** 
   9:Drivers/lvgl/src/draw/sw/../../misc/lv_area.h **** #ifdef __cplusplus
  10:Drivers/lvgl/src/draw/sw/../../misc/lv_area.h **** extern "C" {
  11:Drivers/lvgl/src/draw/sw/../../misc/lv_area.h **** #endif
  12:Drivers/lvgl/src/draw/sw/../../misc/lv_area.h **** 
  13:Drivers/lvgl/src/draw/sw/../../misc/lv_area.h **** /*********************
  14:Drivers/lvgl/src/draw/sw/../../misc/lv_area.h ****  *      INCLUDES
  15:Drivers/lvgl/src/draw/sw/../../misc/lv_area.h ****  *********************/
  16:Drivers/lvgl/src/draw/sw/../../misc/lv_area.h **** #include "../lv_conf_internal.h"
  17:Drivers/lvgl/src/draw/sw/../../misc/lv_area.h **** #include <stdbool.h>
  18:Drivers/lvgl/src/draw/sw/../../misc/lv_area.h **** #include <stdint.h>
  19:Drivers/lvgl/src/draw/sw/../../misc/lv_area.h **** 
  20:Drivers/lvgl/src/draw/sw/../../misc/lv_area.h **** /*********************
  21:Drivers/lvgl/src/draw/sw/../../misc/lv_area.h ****  *      DEFINES
  22:Drivers/lvgl/src/draw/sw/../../misc/lv_area.h ****  *********************/
  23:Drivers/lvgl/src/draw/sw/../../misc/lv_area.h **** 
  24:Drivers/lvgl/src/draw/sw/../../misc/lv_area.h **** #if LV_USE_LARGE_COORD
  25:Drivers/lvgl/src/draw/sw/../../misc/lv_area.h **** typedef int32_t lv_coord_t;
  26:Drivers/lvgl/src/draw/sw/../../misc/lv_area.h **** #else
  27:Drivers/lvgl/src/draw/sw/../../misc/lv_area.h **** typedef int16_t lv_coord_t;
  28:Drivers/lvgl/src/draw/sw/../../misc/lv_area.h **** #endif
  29:Drivers/lvgl/src/draw/sw/../../misc/lv_area.h **** 
  30:Drivers/lvgl/src/draw/sw/../../misc/lv_area.h **** /**********************
  31:Drivers/lvgl/src/draw/sw/../../misc/lv_area.h ****  *      TYPEDEFS
  32:Drivers/lvgl/src/draw/sw/../../misc/lv_area.h ****  **********************/
  33:Drivers/lvgl/src/draw/sw/../../misc/lv_area.h **** 
  34:Drivers/lvgl/src/draw/sw/../../misc/lv_area.h **** /**
  35:Drivers/lvgl/src/draw/sw/../../misc/lv_area.h ****  * Represents a point on the screen.
  36:Drivers/lvgl/src/draw/sw/../../misc/lv_area.h ****  */
  37:Drivers/lvgl/src/draw/sw/../../misc/lv_area.h **** typedef struct {
  38:Drivers/lvgl/src/draw/sw/../../misc/lv_area.h ****     lv_coord_t x;
  39:Drivers/lvgl/src/draw/sw/../../misc/lv_area.h ****     lv_coord_t y;
  40:Drivers/lvgl/src/draw/sw/../../misc/lv_area.h **** } lv_point_t;
  41:Drivers/lvgl/src/draw/sw/../../misc/lv_area.h **** 
  42:Drivers/lvgl/src/draw/sw/../../misc/lv_area.h **** /** Represents an area of the screen.*/
  43:Drivers/lvgl/src/draw/sw/../../misc/lv_area.h **** typedef struct {
  44:Drivers/lvgl/src/draw/sw/../../misc/lv_area.h ****     lv_coord_t x1;
  45:Drivers/lvgl/src/draw/sw/../../misc/lv_area.h ****     lv_coord_t y1;
  46:Drivers/lvgl/src/draw/sw/../../misc/lv_area.h ****     lv_coord_t x2;
  47:Drivers/lvgl/src/draw/sw/../../misc/lv_area.h ****     lv_coord_t y2;
  48:Drivers/lvgl/src/draw/sw/../../misc/lv_area.h **** } lv_area_t;
  49:Drivers/lvgl/src/draw/sw/../../misc/lv_area.h **** 
  50:Drivers/lvgl/src/draw/sw/../../misc/lv_area.h **** /** Alignments*/
  51:Drivers/lvgl/src/draw/sw/../../misc/lv_area.h **** enum {
  52:Drivers/lvgl/src/draw/sw/../../misc/lv_area.h ****     LV_ALIGN_DEFAULT = 0,
  53:Drivers/lvgl/src/draw/sw/../../misc/lv_area.h ****     LV_ALIGN_TOP_LEFT,
  54:Drivers/lvgl/src/draw/sw/../../misc/lv_area.h ****     LV_ALIGN_TOP_MID,
  55:Drivers/lvgl/src/draw/sw/../../misc/lv_area.h ****     LV_ALIGN_TOP_RIGHT,
  56:Drivers/lvgl/src/draw/sw/../../misc/lv_area.h ****     LV_ALIGN_BOTTOM_LEFT,
  57:Drivers/lvgl/src/draw/sw/../../misc/lv_area.h ****     LV_ALIGN_BOTTOM_MID,
  58:Drivers/lvgl/src/draw/sw/../../misc/lv_area.h ****     LV_ALIGN_BOTTOM_RIGHT,
  59:Drivers/lvgl/src/draw/sw/../../misc/lv_area.h ****     LV_ALIGN_LEFT_MID,
  60:Drivers/lvgl/src/draw/sw/../../misc/lv_area.h ****     LV_ALIGN_RIGHT_MID,
ARM GAS  /var/folders/0z/tsy30v1j4xl4_7kw94k978ww0000gn/T//cczCdckk.s 			page 8


  61:Drivers/lvgl/src/draw/sw/../../misc/lv_area.h ****     LV_ALIGN_CENTER,
  62:Drivers/lvgl/src/draw/sw/../../misc/lv_area.h **** 
  63:Drivers/lvgl/src/draw/sw/../../misc/lv_area.h ****     LV_ALIGN_OUT_TOP_LEFT,
  64:Drivers/lvgl/src/draw/sw/../../misc/lv_area.h ****     LV_ALIGN_OUT_TOP_MID,
  65:Drivers/lvgl/src/draw/sw/../../misc/lv_area.h ****     LV_ALIGN_OUT_TOP_RIGHT,
  66:Drivers/lvgl/src/draw/sw/../../misc/lv_area.h ****     LV_ALIGN_OUT_BOTTOM_LEFT,
  67:Drivers/lvgl/src/draw/sw/../../misc/lv_area.h ****     LV_ALIGN_OUT_BOTTOM_MID,
  68:Drivers/lvgl/src/draw/sw/../../misc/lv_area.h ****     LV_ALIGN_OUT_BOTTOM_RIGHT,
  69:Drivers/lvgl/src/draw/sw/../../misc/lv_area.h ****     LV_ALIGN_OUT_LEFT_TOP,
  70:Drivers/lvgl/src/draw/sw/../../misc/lv_area.h ****     LV_ALIGN_OUT_LEFT_MID,
  71:Drivers/lvgl/src/draw/sw/../../misc/lv_area.h ****     LV_ALIGN_OUT_LEFT_BOTTOM,
  72:Drivers/lvgl/src/draw/sw/../../misc/lv_area.h ****     LV_ALIGN_OUT_RIGHT_TOP,
  73:Drivers/lvgl/src/draw/sw/../../misc/lv_area.h ****     LV_ALIGN_OUT_RIGHT_MID,
  74:Drivers/lvgl/src/draw/sw/../../misc/lv_area.h ****     LV_ALIGN_OUT_RIGHT_BOTTOM,
  75:Drivers/lvgl/src/draw/sw/../../misc/lv_area.h **** };
  76:Drivers/lvgl/src/draw/sw/../../misc/lv_area.h **** typedef uint8_t lv_align_t;
  77:Drivers/lvgl/src/draw/sw/../../misc/lv_area.h **** 
  78:Drivers/lvgl/src/draw/sw/../../misc/lv_area.h **** enum {
  79:Drivers/lvgl/src/draw/sw/../../misc/lv_area.h ****     LV_DIR_NONE     = 0x00,
  80:Drivers/lvgl/src/draw/sw/../../misc/lv_area.h ****     LV_DIR_LEFT     = (1 << 0),
  81:Drivers/lvgl/src/draw/sw/../../misc/lv_area.h ****     LV_DIR_RIGHT    = (1 << 1),
  82:Drivers/lvgl/src/draw/sw/../../misc/lv_area.h ****     LV_DIR_TOP      = (1 << 2),
  83:Drivers/lvgl/src/draw/sw/../../misc/lv_area.h ****     LV_DIR_BOTTOM   = (1 << 3),
  84:Drivers/lvgl/src/draw/sw/../../misc/lv_area.h ****     LV_DIR_HOR      = LV_DIR_LEFT | LV_DIR_RIGHT,
  85:Drivers/lvgl/src/draw/sw/../../misc/lv_area.h ****     LV_DIR_VER      = LV_DIR_TOP | LV_DIR_BOTTOM,
  86:Drivers/lvgl/src/draw/sw/../../misc/lv_area.h ****     LV_DIR_ALL      = LV_DIR_HOR | LV_DIR_VER,
  87:Drivers/lvgl/src/draw/sw/../../misc/lv_area.h **** };
  88:Drivers/lvgl/src/draw/sw/../../misc/lv_area.h **** 
  89:Drivers/lvgl/src/draw/sw/../../misc/lv_area.h **** typedef uint8_t lv_dir_t;
  90:Drivers/lvgl/src/draw/sw/../../misc/lv_area.h **** 
  91:Drivers/lvgl/src/draw/sw/../../misc/lv_area.h **** /**********************
  92:Drivers/lvgl/src/draw/sw/../../misc/lv_area.h ****  * GLOBAL PROTOTYPES
  93:Drivers/lvgl/src/draw/sw/../../misc/lv_area.h ****  **********************/
  94:Drivers/lvgl/src/draw/sw/../../misc/lv_area.h **** 
  95:Drivers/lvgl/src/draw/sw/../../misc/lv_area.h **** /**
  96:Drivers/lvgl/src/draw/sw/../../misc/lv_area.h ****  * Initialize an area
  97:Drivers/lvgl/src/draw/sw/../../misc/lv_area.h ****  * @param area_p pointer to an area
  98:Drivers/lvgl/src/draw/sw/../../misc/lv_area.h ****  * @param x1 left coordinate of the area
  99:Drivers/lvgl/src/draw/sw/../../misc/lv_area.h ****  * @param y1 top coordinate of the area
 100:Drivers/lvgl/src/draw/sw/../../misc/lv_area.h ****  * @param x2 right coordinate of the area
 101:Drivers/lvgl/src/draw/sw/../../misc/lv_area.h ****  * @param y2 bottom coordinate of the area
 102:Drivers/lvgl/src/draw/sw/../../misc/lv_area.h ****  */
 103:Drivers/lvgl/src/draw/sw/../../misc/lv_area.h **** void lv_area_set(lv_area_t * area_p, lv_coord_t x1, lv_coord_t y1, lv_coord_t x2, lv_coord_t y2);
 104:Drivers/lvgl/src/draw/sw/../../misc/lv_area.h **** 
 105:Drivers/lvgl/src/draw/sw/../../misc/lv_area.h **** /**
 106:Drivers/lvgl/src/draw/sw/../../misc/lv_area.h ****  * Copy an area
 107:Drivers/lvgl/src/draw/sw/../../misc/lv_area.h ****  * @param dest pointer to the destination area
 108:Drivers/lvgl/src/draw/sw/../../misc/lv_area.h ****  * @param src pointer to the source area
 109:Drivers/lvgl/src/draw/sw/../../misc/lv_area.h ****  */
 110:Drivers/lvgl/src/draw/sw/../../misc/lv_area.h **** inline static void lv_area_copy(lv_area_t * dest, const lv_area_t * src)
 111:Drivers/lvgl/src/draw/sw/../../misc/lv_area.h **** {
 112:Drivers/lvgl/src/draw/sw/../../misc/lv_area.h ****     dest->x1 = src->x1;
 113:Drivers/lvgl/src/draw/sw/../../misc/lv_area.h ****     dest->y1 = src->y1;
 114:Drivers/lvgl/src/draw/sw/../../misc/lv_area.h ****     dest->x2 = src->x2;
 115:Drivers/lvgl/src/draw/sw/../../misc/lv_area.h ****     dest->y2 = src->y2;
 116:Drivers/lvgl/src/draw/sw/../../misc/lv_area.h **** }
 117:Drivers/lvgl/src/draw/sw/../../misc/lv_area.h **** 
ARM GAS  /var/folders/0z/tsy30v1j4xl4_7kw94k978ww0000gn/T//cczCdckk.s 			page 9


 118:Drivers/lvgl/src/draw/sw/../../misc/lv_area.h **** /**
 119:Drivers/lvgl/src/draw/sw/../../misc/lv_area.h ****  * Get the width of an area
 120:Drivers/lvgl/src/draw/sw/../../misc/lv_area.h ****  * @param area_p pointer to an area
 121:Drivers/lvgl/src/draw/sw/../../misc/lv_area.h ****  * @return the width of the area (if x1 == x2 -> width = 1)
 122:Drivers/lvgl/src/draw/sw/../../misc/lv_area.h ****  */
 123:Drivers/lvgl/src/draw/sw/../../misc/lv_area.h **** static inline lv_coord_t lv_area_get_width(const lv_area_t * area_p)
 190              		.loc 2 123 26 view .LVU60
 191              	.LBB14:
 124:Drivers/lvgl/src/draw/sw/../../misc/lv_area.h **** {
 125:Drivers/lvgl/src/draw/sw/../../misc/lv_area.h ****     return (lv_coord_t)(area_p->x2 - area_p->x1 + 1);
 192              		.loc 2 125 5 view .LVU61
 193              		.loc 2 125 31 is_stmt 0 view .LVU62
 194 00aa BDF82440 		ldrh	r4, [sp, #36]
 195              	.LVL18:
 196              		.loc 2 125 44 view .LVU63
 197 00ae BDF920B0 		ldrsh	fp, [sp, #32]
 198 00b2 1FFA8BF3 		uxth	r3, fp
 199              		.loc 2 125 36 view .LVU64
 200 00b6 E41A     		subs	r4, r4, r3
 201 00b8 A4B2     		uxth	r4, r4
 202              		.loc 2 125 49 view .LVU65
 203 00ba 0134     		adds	r4, r4, #1
 204              		.loc 2 125 12 view .LVU66
 205 00bc 24B2     		sxth	r4, r4
 206              	.LVL19:
 207              		.loc 2 125 12 view .LVU67
 208              	.LBE14:
 209              	.LBE13:
 149:Drivers/lvgl/src/draw/sw/lv_draw_sw_line.c **** 
 150:Drivers/lvgl/src/draw/sw/lv_draw_sw_line.c ****         lv_coord_t y2 = blend_area.y2;
 210              		.loc 1 150 9 is_stmt 1 view .LVU68
 211              		.loc 1 150 20 is_stmt 0 view .LVU69
 212 00be BDF926A0 		ldrsh	r10, [sp, #38]
 213              	.LVL20:
 151:Drivers/lvgl/src/draw/sw/lv_draw_sw_line.c ****         blend_area.y2 = blend_area.y1;
 214              		.loc 1 151 9 is_stmt 1 view .LVU70
 215              		.loc 1 151 35 is_stmt 0 view .LVU71
 216 00c2 BDF92230 		ldrsh	r3, [sp, #34]
 217              		.loc 1 151 23 view .LVU72
 218 00c6 ADF82630 		strh	r3, [sp, #38]	@ movhi
 152:Drivers/lvgl/src/draw/sw/lv_draw_sw_line.c **** 
 153:Drivers/lvgl/src/draw/sw/lv_draw_sw_line.c ****         lv_coord_t dash_start = 0;
 219              		.loc 1 153 9 is_stmt 1 view .LVU73
 220              	.LVL21:
 154:Drivers/lvgl/src/draw/sw/lv_draw_sw_line.c ****         if(dashed) {
 221              		.loc 1 154 9 view .LVU74
 222              		.loc 1 154 11 is_stmt 0 view .LVU75
 223 00ca B9F1000F 		cmp	r9, #0
 224 00ce 19D0     		beq	.L19
 155:Drivers/lvgl/src/draw/sw/lv_draw_sw_line.c ****             dash_start = (blend_area.x1) % (dsc->dash_gap + dsc->dash_width);
 225              		.loc 1 155 13 is_stmt 1 view .LVU76
 226              		.loc 1 155 48 is_stmt 0 view .LVU77
 227 00d0 B6F90630 		ldrsh	r3, [r6, #6]
 228              		.loc 1 155 64 view .LVU78
 229 00d4 B6F90420 		ldrsh	r2, [r6, #4]
 230              		.loc 1 155 59 view .LVU79
 231 00d8 1344     		add	r3, r3, r2
ARM GAS  /var/folders/0z/tsy30v1j4xl4_7kw94k978ww0000gn/T//cczCdckk.s 			page 10


 232              		.loc 1 155 42 view .LVU80
 233 00da 9BFBF3F2 		sdiv	r2, fp, r3
 234 00de 03FB12BB 		mls	fp, r3, r2, fp
 235              		.loc 1 155 24 view .LVU81
 236 00e2 0FFA8BFB 		sxth	fp, fp
 237              	.LVL22:
 238              	.L8:
 156:Drivers/lvgl/src/draw/sw/lv_draw_sw_line.c ****         }
 157:Drivers/lvgl/src/draw/sw/lv_draw_sw_line.c **** 
 158:Drivers/lvgl/src/draw/sw/lv_draw_sw_line.c ****         lv_opa_t * mask_buf = lv_mem_buf_get(blend_area_w);
 239              		.loc 1 158 9 is_stmt 1 view .LVU82
 240              		.loc 1 158 31 is_stmt 0 view .LVU83
 241 00e6 2046     		mov	r0, r4
 242 00e8 FFF7FEFF 		bl	lv_mem_buf_get
 243              	.LVL23:
 244 00ec 0746     		mov	r7, r0
 245              	.LVL24:
 159:Drivers/lvgl/src/draw/sw/lv_draw_sw_line.c ****         blend_dsc.mask_buf = mask_buf;
 246              		.loc 1 159 9 is_stmt 1 view .LVU84
 247              		.loc 1 159 28 is_stmt 0 view .LVU85
 248 00ee 0490     		str	r0, [sp, #16]
 160:Drivers/lvgl/src/draw/sw/lv_draw_sw_line.c ****         blend_dsc.mask_area = &blend_area;
 249              		.loc 1 160 9 is_stmt 1 view .LVU86
 250              		.loc 1 160 29 is_stmt 0 view .LVU87
 251 00f0 08AB     		add	r3, sp, #32
 252 00f2 0693     		str	r3, [sp, #24]
 161:Drivers/lvgl/src/draw/sw/lv_draw_sw_line.c ****         int32_t h;
 253              		.loc 1 161 9 is_stmt 1 view .LVU88
 162:Drivers/lvgl/src/draw/sw/lv_draw_sw_line.c ****         for(h = blend_area.y1; h <= y2; h++) {
 254              		.loc 1 162 9 view .LVU89
 255              		.loc 1 162 27 is_stmt 0 view .LVU90
 256 00f4 BDF92250 		ldrsh	r5, [sp, #34]
 257              	.LVL25:
 258              		.loc 1 162 9 view .LVU91
 259 00f8 33E0     		b	.L9
 260              	.LVL26:
 261              	.L23:
 262              		.loc 1 162 9 view .LVU92
 263              	.LBE12:
 142:Drivers/lvgl/src/draw/sw/lv_draw_sw_line.c ****     }
 264              		.loc 1 142 9 is_stmt 1 view .LVU93
 265 00fa 01A9     		add	r1, sp, #4
 266 00fc 4046     		mov	r0, r8
 267 00fe FFF7FEFF 		bl	lv_draw_sw_blend
 268              	.LVL27:
 269 0102 48E0     		b	.L1
 270              	.LVL28:
 271              	.L19:
 272              	.LBB18:
 153:Drivers/lvgl/src/draw/sw/lv_draw_sw_line.c ****         if(dashed) {
 273              		.loc 1 153 20 is_stmt 0 view .LVU94
 274 0104 4FF0000B 		mov	fp, #0
 275 0108 EDE7     		b	.L8
 276              	.LVL29:
 277              	.L12:
 278              	.LBB15:
 163:Drivers/lvgl/src/draw/sw/lv_draw_sw_line.c ****             lv_memset_ff(mask_buf, blend_area_w);
ARM GAS  /var/folders/0z/tsy30v1j4xl4_7kw94k978ww0000gn/T//cczCdckk.s 			page 11


 164:Drivers/lvgl/src/draw/sw/lv_draw_sw_line.c ****             blend_dsc.mask_res = lv_draw_mask_apply(mask_buf, blend_area.x1, h, blend_area_w);
 165:Drivers/lvgl/src/draw/sw/lv_draw_sw_line.c **** 
 166:Drivers/lvgl/src/draw/sw/lv_draw_sw_line.c ****             if(dashed) {
 167:Drivers/lvgl/src/draw/sw/lv_draw_sw_line.c ****                 if(blend_dsc.mask_res != LV_DRAW_MASK_RES_TRANSP) {
 168:Drivers/lvgl/src/draw/sw/lv_draw_sw_line.c ****                     lv_coord_t dash_cnt = dash_start;
 169:Drivers/lvgl/src/draw/sw/lv_draw_sw_line.c ****                     lv_coord_t i;
 170:Drivers/lvgl/src/draw/sw/lv_draw_sw_line.c ****                     for(i = 0; i < blend_area_w; i++, dash_cnt++) {
 171:Drivers/lvgl/src/draw/sw/lv_draw_sw_line.c ****                         if(dash_cnt <= dsc->dash_width) {
 172:Drivers/lvgl/src/draw/sw/lv_draw_sw_line.c ****                             int16_t diff = dsc->dash_width - dash_cnt;
 173:Drivers/lvgl/src/draw/sw/lv_draw_sw_line.c ****                             i += diff;
 174:Drivers/lvgl/src/draw/sw/lv_draw_sw_line.c ****                             dash_cnt += diff;
 175:Drivers/lvgl/src/draw/sw/lv_draw_sw_line.c ****                         }
 176:Drivers/lvgl/src/draw/sw/lv_draw_sw_line.c ****                         else if(dash_cnt >= dsc->dash_gap + dsc->dash_width) {
 279              		.loc 1 176 30 is_stmt 1 view .LVU95
 280              		.loc 1 176 48 is_stmt 0 view .LVU96
 281 010a B6F90600 		ldrsh	r0, [r6, #6]
 282              		.loc 1 176 59 view .LVU97
 283 010e 0344     		add	r3, r3, r0
 284              		.loc 1 176 32 view .LVU98
 285 0110 9942     		cmp	r1, r3
 286 0112 12DA     		bge	.L21
 177:Drivers/lvgl/src/draw/sw/lv_draw_sw_line.c ****                             dash_cnt = 0;
 178:Drivers/lvgl/src/draw/sw/lv_draw_sw_line.c ****                         }
 179:Drivers/lvgl/src/draw/sw/lv_draw_sw_line.c ****                         else {
 180:Drivers/lvgl/src/draw/sw/lv_draw_sw_line.c ****                             mask_buf[i] = 0x00;
 287              		.loc 1 180 29 is_stmt 1 view .LVU99
 288              		.loc 1 180 41 is_stmt 0 view .LVU100
 289 0114 0023     		movs	r3, #0
 290 0116 BB54     		strb	r3, [r7, r2]
 291 0118 0B46     		mov	r3, r1
 292              	.LVL30:
 293              	.L13:
 170:Drivers/lvgl/src/draw/sw/lv_draw_sw_line.c ****                         if(dash_cnt <= dsc->dash_width) {
 294              		.loc 1 170 53 is_stmt 1 discriminator 2 view .LVU101
 170:Drivers/lvgl/src/draw/sw/lv_draw_sw_line.c ****                         if(dash_cnt <= dsc->dash_width) {
 295              		.loc 1 170 51 is_stmt 0 discriminator 2 view .LVU102
 296 011a 0132     		adds	r2, r2, #1
 297              	.LVL31:
 170:Drivers/lvgl/src/draw/sw/lv_draw_sw_line.c ****                         if(dash_cnt <= dsc->dash_width) {
 298              		.loc 1 170 51 discriminator 2 view .LVU103
 299 011c 12B2     		sxth	r2, r2
 300              	.LVL32:
 170:Drivers/lvgl/src/draw/sw/lv_draw_sw_line.c ****                         if(dash_cnt <= dsc->dash_width) {
 301              		.loc 1 170 63 discriminator 2 view .LVU104
 302 011e 0133     		adds	r3, r3, #1
 303              	.LVL33:
 170:Drivers/lvgl/src/draw/sw/lv_draw_sw_line.c ****                         if(dash_cnt <= dsc->dash_width) {
 304              		.loc 1 170 63 discriminator 2 view .LVU105
 305 0120 19B2     		sxth	r1, r3
 306              	.LVL34:
 307              	.L11:
 170:Drivers/lvgl/src/draw/sw/lv_draw_sw_line.c ****                         if(dash_cnt <= dsc->dash_width) {
 308              		.loc 1 170 34 is_stmt 1 discriminator 1 view .LVU106
 309 0122 A242     		cmp	r2, r4
 310 0124 0BDA     		bge	.L24
 171:Drivers/lvgl/src/draw/sw/lv_draw_sw_line.c ****                             int16_t diff = dsc->dash_width - dash_cnt;
 311              		.loc 1 171 25 view .LVU107
ARM GAS  /var/folders/0z/tsy30v1j4xl4_7kw94k978ww0000gn/T//cczCdckk.s 			page 12


 171:Drivers/lvgl/src/draw/sw/lv_draw_sw_line.c ****                             int16_t diff = dsc->dash_width - dash_cnt;
 312              		.loc 1 171 43 is_stmt 0 view .LVU108
 313 0126 B6F90430 		ldrsh	r3, [r6, #4]
 171:Drivers/lvgl/src/draw/sw/lv_draw_sw_line.c ****                             int16_t diff = dsc->dash_width - dash_cnt;
 314              		.loc 1 171 27 view .LVU109
 315 012a 8B42     		cmp	r3, r1
 316 012c EDDB     		blt	.L12
 317              	.LBB16:
 172:Drivers/lvgl/src/draw/sw/lv_draw_sw_line.c ****                             i += diff;
 318              		.loc 1 172 29 is_stmt 1 view .LVU110
 172:Drivers/lvgl/src/draw/sw/lv_draw_sw_line.c ****                             i += diff;
 319              		.loc 1 172 47 is_stmt 0 view .LVU111
 320 012e 98B2     		uxth	r0, r3
 172:Drivers/lvgl/src/draw/sw/lv_draw_sw_line.c ****                             i += diff;
 321              		.loc 1 172 60 view .LVU112
 322 0130 411A     		subs	r1, r0, r1
 323              	.LVL35:
 173:Drivers/lvgl/src/draw/sw/lv_draw_sw_line.c ****                             dash_cnt += diff;
 324              		.loc 1 173 29 is_stmt 1 view .LVU113
 173:Drivers/lvgl/src/draw/sw/lv_draw_sw_line.c ****                             dash_cnt += diff;
 325              		.loc 1 173 31 is_stmt 0 view .LVU114
 326 0132 12FA81F2 		uxtah	r2, r2, r1
 327              	.LVL36:
 173:Drivers/lvgl/src/draw/sw/lv_draw_sw_line.c ****                             dash_cnt += diff;
 328              		.loc 1 173 31 view .LVU115
 329 0136 12B2     		sxth	r2, r2
 330              	.LVL37:
 174:Drivers/lvgl/src/draw/sw/lv_draw_sw_line.c ****                         }
 331              		.loc 1 174 29 is_stmt 1 view .LVU116
 174:Drivers/lvgl/src/draw/sw/lv_draw_sw_line.c ****                         }
 332              		.loc 1 174 29 is_stmt 0 view .LVU117
 333              	.LBE16:
 334 0138 EFE7     		b	.L13
 335              	.LVL38:
 336              	.L21:
 177:Drivers/lvgl/src/draw/sw/lv_draw_sw_line.c ****                         }
 337              		.loc 1 177 38 view .LVU118
 338 013a 0023     		movs	r3, #0
 339 013c EDE7     		b	.L13
 340              	.L24:
 181:Drivers/lvgl/src/draw/sw/lv_draw_sw_line.c ****                         }
 182:Drivers/lvgl/src/draw/sw/lv_draw_sw_line.c ****                     }
 183:Drivers/lvgl/src/draw/sw/lv_draw_sw_line.c **** 
 184:Drivers/lvgl/src/draw/sw/lv_draw_sw_line.c ****                     blend_dsc.mask_res = LV_DRAW_MASK_RES_CHANGED;
 341              		.loc 1 184 21 is_stmt 1 view .LVU119
 342              		.loc 1 184 40 is_stmt 0 view .LVU120
 343 013e 0223     		movs	r3, #2
 344 0140 8DF81430 		strb	r3, [sp, #20]
 345              	.LVL39:
 346              	.L10:
 347              		.loc 1 184 40 view .LVU121
 348              	.LBE15:
 185:Drivers/lvgl/src/draw/sw/lv_draw_sw_line.c ****                 }
 186:Drivers/lvgl/src/draw/sw/lv_draw_sw_line.c ****             }
 187:Drivers/lvgl/src/draw/sw/lv_draw_sw_line.c **** 
 188:Drivers/lvgl/src/draw/sw/lv_draw_sw_line.c ****             lv_draw_sw_blend(draw_ctx, &blend_dsc);
 349              		.loc 1 188 13 is_stmt 1 discriminator 2 view .LVU122
ARM GAS  /var/folders/0z/tsy30v1j4xl4_7kw94k978ww0000gn/T//cczCdckk.s 			page 13


 350 0144 01A9     		add	r1, sp, #4
 351 0146 4046     		mov	r0, r8
 352 0148 FFF7FEFF 		bl	lv_draw_sw_blend
 353              	.LVL40:
 189:Drivers/lvgl/src/draw/sw/lv_draw_sw_line.c **** 
 190:Drivers/lvgl/src/draw/sw/lv_draw_sw_line.c ****             blend_area.y1++;
 354              		.loc 1 190 13 discriminator 2 view .LVU123
 355              		.loc 1 190 23 is_stmt 0 discriminator 2 view .LVU124
 356 014c BDF92230 		ldrsh	r3, [sp, #34]
 357              		.loc 1 190 26 discriminator 2 view .LVU125
 358 0150 0133     		adds	r3, r3, #1
 359 0152 ADF82230 		strh	r3, [sp, #34]	@ movhi
 191:Drivers/lvgl/src/draw/sw/lv_draw_sw_line.c ****             blend_area.y2++;
 360              		.loc 1 191 13 is_stmt 1 discriminator 2 view .LVU126
 361              		.loc 1 191 23 is_stmt 0 discriminator 2 view .LVU127
 362 0156 BDF92630 		ldrsh	r3, [sp, #38]
 363              		.loc 1 191 26 discriminator 2 view .LVU128
 364 015a 0133     		adds	r3, r3, #1
 365 015c ADF82630 		strh	r3, [sp, #38]	@ movhi
 162:Drivers/lvgl/src/draw/sw/lv_draw_sw_line.c ****             lv_memset_ff(mask_buf, blend_area_w);
 366              		.loc 1 162 42 is_stmt 1 discriminator 2 view .LVU129
 367 0160 0135     		adds	r5, r5, #1
 368              	.LVL41:
 369              	.L9:
 162:Drivers/lvgl/src/draw/sw/lv_draw_sw_line.c ****             lv_memset_ff(mask_buf, blend_area_w);
 370              		.loc 1 162 34 discriminator 1 view .LVU130
 371 0162 AA45     		cmp	r10, r5
 372 0164 14DB     		blt	.L25
 163:Drivers/lvgl/src/draw/sw/lv_draw_sw_line.c ****             blend_dsc.mask_res = lv_draw_mask_apply(mask_buf, blend_area.x1, h, blend_area_w);
 373              		.loc 1 163 13 view .LVU131
 374 0166 2146     		mov	r1, r4
 375 0168 3846     		mov	r0, r7
 376 016a FFF7FEFF 		bl	lv_memset_ff
 377              	.LVL42:
 164:Drivers/lvgl/src/draw/sw/lv_draw_sw_line.c **** 
 378              		.loc 1 164 13 view .LVU132
 164:Drivers/lvgl/src/draw/sw/lv_draw_sw_line.c **** 
 379              		.loc 1 164 34 is_stmt 0 view .LVU133
 380 016e 2346     		mov	r3, r4
 381 0170 2AB2     		sxth	r2, r5
 382 0172 BDF92010 		ldrsh	r1, [sp, #32]
 383 0176 3846     		mov	r0, r7
 384 0178 FFF7FEFF 		bl	lv_draw_mask_apply
 385              	.LVL43:
 164:Drivers/lvgl/src/draw/sw/lv_draw_sw_line.c **** 
 386              		.loc 1 164 32 view .LVU134
 387 017c 8DF81400 		strb	r0, [sp, #20]
 166:Drivers/lvgl/src/draw/sw/lv_draw_sw_line.c ****                 if(blend_dsc.mask_res != LV_DRAW_MASK_RES_TRANSP) {
 388              		.loc 1 166 13 is_stmt 1 view .LVU135
 166:Drivers/lvgl/src/draw/sw/lv_draw_sw_line.c ****                 if(blend_dsc.mask_res != LV_DRAW_MASK_RES_TRANSP) {
 389              		.loc 1 166 15 is_stmt 0 view .LVU136
 390 0180 B9F1000F 		cmp	r9, #0
 391 0184 DED0     		beq	.L10
 167:Drivers/lvgl/src/draw/sw/lv_draw_sw_line.c ****                     lv_coord_t dash_cnt = dash_start;
 392              		.loc 1 167 17 is_stmt 1 view .LVU137
 167:Drivers/lvgl/src/draw/sw/lv_draw_sw_line.c ****                     lv_coord_t dash_cnt = dash_start;
 393              		.loc 1 167 19 is_stmt 0 view .LVU138
ARM GAS  /var/folders/0z/tsy30v1j4xl4_7kw94k978ww0000gn/T//cczCdckk.s 			page 14


 394 0186 0028     		cmp	r0, #0
 395 0188 DCD0     		beq	.L10
 396              	.LBB17:
 168:Drivers/lvgl/src/draw/sw/lv_draw_sw_line.c ****                     lv_coord_t i;
 397              		.loc 1 168 32 view .LVU139
 398 018a 5946     		mov	r1, fp
 170:Drivers/lvgl/src/draw/sw/lv_draw_sw_line.c ****                         if(dash_cnt <= dsc->dash_width) {
 399              		.loc 1 170 27 view .LVU140
 400 018c 0022     		movs	r2, #0
 401 018e C8E7     		b	.L11
 402              	.L25:
 170:Drivers/lvgl/src/draw/sw/lv_draw_sw_line.c ****                         if(dash_cnt <= dsc->dash_width) {
 403              		.loc 1 170 27 view .LVU141
 404              	.LBE17:
 192:Drivers/lvgl/src/draw/sw/lv_draw_sw_line.c ****         }
 193:Drivers/lvgl/src/draw/sw/lv_draw_sw_line.c ****         lv_mem_buf_release(mask_buf);
 405              		.loc 1 193 9 is_stmt 1 view .LVU142
 406 0190 3846     		mov	r0, r7
 407 0192 FFF7FEFF 		bl	lv_mem_buf_release
 408              	.LVL44:
 409              	.L1:
 410              		.loc 1 193 9 is_stmt 0 view .LVU143
 411              	.LBE18:
 194:Drivers/lvgl/src/draw/sw/lv_draw_sw_line.c ****     }
 195:Drivers/lvgl/src/draw/sw/lv_draw_sw_line.c **** #endif /*LV_DRAW_COMPLEX*/
 196:Drivers/lvgl/src/draw/sw/lv_draw_sw_line.c **** }
 412              		.loc 1 196 1 view .LVU144
 413 0196 0BB0     		add	sp, sp, #44
 414              		.cfi_def_cfa_offset 36
 415              		@ sp needed
 416 0198 BDE8F08F 		pop	{r4, r5, r6, r7, r8, r9, r10, fp, pc}
 417              		.loc 1 196 1 view .LVU145
 418              		.cfi_endproc
 419              	.LFE162:
 421              		.section	.text.draw_line_ver,"ax",%progbits
 422              		.align	1
 423              		.syntax unified
 424              		.thumb
 425              		.thumb_func
 427              	draw_line_ver:
 428              	.LVL45:
 429              	.LFB163:
 197:Drivers/lvgl/src/draw/sw/lv_draw_sw_line.c **** 
 198:Drivers/lvgl/src/draw/sw/lv_draw_sw_line.c **** static void LV_ATTRIBUTE_FAST_MEM draw_line_ver(struct _lv_draw_ctx_t * draw_ctx, const lv_draw_lin
 199:Drivers/lvgl/src/draw/sw/lv_draw_sw_line.c ****                                                 const lv_point_t * point1, const lv_point_t * point
 200:Drivers/lvgl/src/draw/sw/lv_draw_sw_line.c **** {
 430              		.loc 1 200 1 is_stmt 1 view -0
 431              		.cfi_startproc
 432              		@ args = 0, pretend = 0, frame = 40
 433              		@ frame_needed = 0, uses_anonymous_args = 0
 434              		.loc 1 200 1 is_stmt 0 view .LVU147
 435 0000 2DE9F04F 		push	{r4, r5, r6, r7, r8, r9, r10, fp, lr}
 436              		.cfi_def_cfa_offset 36
 437              		.cfi_offset 4, -36
 438              		.cfi_offset 5, -32
 439              		.cfi_offset 6, -28
 440              		.cfi_offset 7, -24
ARM GAS  /var/folders/0z/tsy30v1j4xl4_7kw94k978ww0000gn/T//cczCdckk.s 			page 15


 441              		.cfi_offset 8, -20
 442              		.cfi_offset 9, -16
 443              		.cfi_offset 10, -12
 444              		.cfi_offset 11, -8
 445              		.cfi_offset 14, -4
 446 0004 8BB0     		sub	sp, sp, #44
 447              		.cfi_def_cfa_offset 80
 448 0006 8046     		mov	r8, r0
 449 0008 0E46     		mov	r6, r1
 201:Drivers/lvgl/src/draw/sw/lv_draw_sw_line.c ****     int32_t w = dsc->width - 1;
 450              		.loc 1 201 5 is_stmt 1 view .LVU148
 451              		.loc 1 201 20 is_stmt 0 view .LVU149
 452 000a B1F90210 		ldrsh	r1, [r1, #2]
 453              	.LVL46:
 454              		.loc 1 201 13 view .LVU150
 455 000e 0139     		subs	r1, r1, #1
 456              	.LVL47:
 202:Drivers/lvgl/src/draw/sw/lv_draw_sw_line.c ****     int32_t w_half0 = w >> 1;
 457              		.loc 1 202 5 is_stmt 1 view .LVU151
 203:Drivers/lvgl/src/draw/sw/lv_draw_sw_line.c ****     int32_t w_half1 = w_half0 + (w & 0x1); /*Compensate rounding error*/
 458              		.loc 1 203 5 view .LVU152
 459              		.loc 1 203 36 is_stmt 0 view .LVU153
 460 0010 01F00100 		and	r0, r1, #1
 461              	.LVL48:
 462              		.loc 1 203 13 view .LVU154
 463 0014 00EB6100 		add	r0, r0, r1, asr #1
 464              	.LVL49:
 204:Drivers/lvgl/src/draw/sw/lv_draw_sw_line.c **** 
 205:Drivers/lvgl/src/draw/sw/lv_draw_sw_line.c ****     lv_area_t blend_area;
 465              		.loc 1 205 5 is_stmt 1 view .LVU155
 206:Drivers/lvgl/src/draw/sw/lv_draw_sw_line.c ****     blend_area.x1 = point1->x - w_half1;
 466              		.loc 1 206 5 view .LVU156
 467              		.loc 1 206 27 is_stmt 0 view .LVU157
 468 0018 1488     		ldrh	r4, [r2]
 469              		.loc 1 206 31 view .LVU158
 470 001a 201A     		subs	r0, r4, r0
 471              	.LVL50:
 472              		.loc 1 206 19 view .LVU159
 473 001c ADF82000 		strh	r0, [sp, #32]	@ movhi
 207:Drivers/lvgl/src/draw/sw/lv_draw_sw_line.c ****     blend_area.x2 = point1->x + w_half0;
 474              		.loc 1 207 5 is_stmt 1 view .LVU160
 475              		.loc 1 207 31 is_stmt 0 view .LVU161
 476 0020 04EB6104 		add	r4, r4, r1, asr #1
 477              		.loc 1 207 19 view .LVU162
 478 0024 ADF82440 		strh	r4, [sp, #36]	@ movhi
 208:Drivers/lvgl/src/draw/sw/lv_draw_sw_line.c ****     blend_area.y1 = LV_MIN(point1->y, point2->y);
 479              		.loc 1 208 5 is_stmt 1 view .LVU163
 480              		.loc 1 208 21 is_stmt 0 view .LVU164
 481 0028 B3F90230 		ldrsh	r3, [r3, #2]
 482              	.LVL51:
 483              		.loc 1 208 21 view .LVU165
 484 002c B2F90220 		ldrsh	r2, [r2, #2]
 485              	.LVL52:
 486              		.loc 1 208 21 view .LVU166
 487 0030 1946     		mov	r1, r3
 488              	.LVL53:
 489              		.loc 1 208 21 view .LVU167
ARM GAS  /var/folders/0z/tsy30v1j4xl4_7kw94k978ww0000gn/T//cczCdckk.s 			page 16


 490 0032 9342     		cmp	r3, r2
 491 0034 A8BF     		it	ge
 492 0036 1146     		movge	r1, r2
 493              		.loc 1 208 19 view .LVU168
 494 0038 ADF82210 		strh	r1, [sp, #34]	@ movhi
 209:Drivers/lvgl/src/draw/sw/lv_draw_sw_line.c ****     blend_area.y2 = LV_MAX(point1->y, point2->y) - 1;
 495              		.loc 1 209 5 is_stmt 1 view .LVU169
 496              		.loc 1 209 21 is_stmt 0 view .LVU170
 497 003c 9342     		cmp	r3, r2
 498 003e B8BF     		it	lt
 499 0040 1346     		movlt	r3, r2
 500 0042 9BB2     		uxth	r3, r3
 501              		.loc 1 209 50 view .LVU171
 502 0044 013B     		subs	r3, r3, #1
 503              		.loc 1 209 19 view .LVU172
 504 0046 ADF82630 		strh	r3, [sp, #38]	@ movhi
 210:Drivers/lvgl/src/draw/sw/lv_draw_sw_line.c **** 
 211:Drivers/lvgl/src/draw/sw/lv_draw_sw_line.c ****     bool is_common;
 505              		.loc 1 211 5 is_stmt 1 view .LVU173
 212:Drivers/lvgl/src/draw/sw/lv_draw_sw_line.c ****     is_common = _lv_area_intersect(&blend_area, &blend_area, draw_ctx->clip_area);
 506              		.loc 1 212 5 view .LVU174
 507              		.loc 1 212 17 is_stmt 0 view .LVU175
 508 004a D8F80820 		ldr	r2, [r8, #8]
 509 004e 08A9     		add	r1, sp, #32
 510 0050 0846     		mov	r0, r1
 511 0052 FFF7FEFF 		bl	_lv_area_intersect
 512              	.LVL54:
 213:Drivers/lvgl/src/draw/sw/lv_draw_sw_line.c ****     if(!is_common) return;
 513              		.loc 1 213 5 is_stmt 1 view .LVU176
 514              		.loc 1 213 7 is_stmt 0 view .LVU177
 515 0056 50B3     		cbz	r0, .L26
 516 0058 0546     		mov	r5, r0
 214:Drivers/lvgl/src/draw/sw/lv_draw_sw_line.c **** 
 215:Drivers/lvgl/src/draw/sw/lv_draw_sw_line.c ****     bool dashed = dsc->dash_gap && dsc->dash_width ? true : false;
 517              		.loc 1 215 5 is_stmt 1 view .LVU178
 518              		.loc 1 215 22 is_stmt 0 view .LVU179
 519 005a B6F90630 		ldrsh	r3, [r6, #6]
 520              		.loc 1 215 59 view .LVU180
 521 005e 2BB1     		cbz	r3, .L39
 522              		.loc 1 215 39 discriminator 1 view .LVU181
 523 0060 B6F90430 		ldrsh	r3, [r6, #4]
 524              		.loc 1 215 59 discriminator 1 view .LVU182
 525 0064 73B9     		cbnz	r3, .L40
 526              		.loc 1 215 59 view .LVU183
 527 0066 4FF0000A 		mov	r10, #0
 528 006a 01E0     		b	.L29
 529              	.L39:
 530 006c 4FF0000A 		mov	r10, #0
 531              	.L29:
 532              	.LVL55:
 216:Drivers/lvgl/src/draw/sw/lv_draw_sw_line.c ****     bool simple_mode = true;
 533              		.loc 1 216 5 is_stmt 1 discriminator 6 view .LVU184
 217:Drivers/lvgl/src/draw/sw/lv_draw_sw_line.c ****     if(lv_draw_mask_is_any(&blend_area)) simple_mode = false;
 534              		.loc 1 217 5 discriminator 6 view .LVU185
 535              		.loc 1 217 8 is_stmt 0 discriminator 6 view .LVU186
 536 0070 08A8     		add	r0, sp, #32
 537              	.LVL56:
ARM GAS  /var/folders/0z/tsy30v1j4xl4_7kw94k978ww0000gn/T//cczCdckk.s 			page 17


 538              		.loc 1 217 8 discriminator 6 view .LVU187
 539 0072 FFF7FEFF 		bl	lv_draw_mask_is_any
 540              	.LVL57:
 541              		.loc 1 217 7 discriminator 6 view .LVU188
 542 0076 0446     		mov	r4, r0
 543 0078 38B9     		cbnz	r0, .L41
 218:Drivers/lvgl/src/draw/sw/lv_draw_sw_line.c ****     else if(dashed) simple_mode = false;
 544              		.loc 1 218 10 is_stmt 1 view .LVU189
 545              		.loc 1 218 12 is_stmt 0 view .LVU190
 546 007a BAF1000F 		cmp	r10, #0
 547 007e 05D1     		bne	.L30
 216:Drivers/lvgl/src/draw/sw/lv_draw_sw_line.c ****     bool simple_mode = true;
 548              		.loc 1 216 10 view .LVU191
 549 0080 2C46     		mov	r4, r5
 550 0082 03E0     		b	.L30
 551              	.LVL58:
 552              	.L40:
 215:Drivers/lvgl/src/draw/sw/lv_draw_sw_line.c ****     bool simple_mode = true;
 553              		.loc 1 215 59 view .LVU192
 554 0084 4FF0010A 		mov	r10, #1
 555 0088 F2E7     		b	.L29
 556              	.LVL59:
 557              	.L41:
 217:Drivers/lvgl/src/draw/sw/lv_draw_sw_line.c ****     if(lv_draw_mask_is_any(&blend_area)) simple_mode = false;
 558              		.loc 1 217 54 view .LVU193
 559 008a 0024     		movs	r4, #0
 560              	.L30:
 561              	.LVL60:
 219:Drivers/lvgl/src/draw/sw/lv_draw_sw_line.c **** 
 220:Drivers/lvgl/src/draw/sw/lv_draw_sw_line.c ****     lv_draw_sw_blend_dsc_t blend_dsc;
 562              		.loc 1 220 5 is_stmt 1 view .LVU194
 221:Drivers/lvgl/src/draw/sw/lv_draw_sw_line.c ****     lv_memset_00(&blend_dsc, sizeof(blend_dsc));
 563              		.loc 1 221 5 view .LVU195
 564 008c 1C21     		movs	r1, #28
 565 008e 01A8     		add	r0, sp, #4
 566 0090 FFF7FEFF 		bl	lv_memset_00
 567              	.LVL61:
 222:Drivers/lvgl/src/draw/sw/lv_draw_sw_line.c ****     blend_dsc.blend_area = &blend_area;
 568              		.loc 1 222 5 view .LVU196
 569              		.loc 1 222 26 is_stmt 0 view .LVU197
 570 0094 08AB     		add	r3, sp, #32
 571 0096 0193     		str	r3, [sp, #4]
 223:Drivers/lvgl/src/draw/sw/lv_draw_sw_line.c ****     blend_dsc.color = dsc->color;
 572              		.loc 1 223 5 is_stmt 1 view .LVU198
 573              		.loc 1 223 21 is_stmt 0 view .LVU199
 574 0098 3388     		ldrh	r3, [r6]
 575 009a ADF80C30 		strh	r3, [sp, #12]	@ movhi
 224:Drivers/lvgl/src/draw/sw/lv_draw_sw_line.c ****     blend_dsc.opa = dsc->opa;
 576              		.loc 1 224 5 is_stmt 1 view .LVU200
 577              		.loc 1 224 24 is_stmt 0 view .LVU201
 578 009e 337A     		ldrb	r3, [r6, #8]	@ zero_extendqisi2
 579              		.loc 1 224 19 view .LVU202
 580 00a0 8DF81C30 		strb	r3, [sp, #28]
 225:Drivers/lvgl/src/draw/sw/lv_draw_sw_line.c **** 
 226:Drivers/lvgl/src/draw/sw/lv_draw_sw_line.c ****     /*If there is no mask then simply draw a rectangle*/
 227:Drivers/lvgl/src/draw/sw/lv_draw_sw_line.c ****     if(simple_mode) {
 581              		.loc 1 227 5 is_stmt 1 view .LVU203
ARM GAS  /var/folders/0z/tsy30v1j4xl4_7kw94k978ww0000gn/T//cczCdckk.s 			page 18


 582              		.loc 1 227 7 is_stmt 0 view .LVU204
 583 00a4 34B1     		cbz	r4, .L31
 228:Drivers/lvgl/src/draw/sw/lv_draw_sw_line.c ****         lv_draw_sw_blend(draw_ctx, &blend_dsc);
 584              		.loc 1 228 9 is_stmt 1 view .LVU205
 585 00a6 01A9     		add	r1, sp, #4
 586 00a8 4046     		mov	r0, r8
 587 00aa FFF7FEFF 		bl	lv_draw_sw_blend
 588              	.LVL62:
 589              	.L26:
 229:Drivers/lvgl/src/draw/sw/lv_draw_sw_line.c ****     }
 230:Drivers/lvgl/src/draw/sw/lv_draw_sw_line.c **** 
 231:Drivers/lvgl/src/draw/sw/lv_draw_sw_line.c **** #if LV_DRAW_COMPLEX
 232:Drivers/lvgl/src/draw/sw/lv_draw_sw_line.c ****     /*If there other mask apply it*/
 233:Drivers/lvgl/src/draw/sw/lv_draw_sw_line.c ****     else {
 234:Drivers/lvgl/src/draw/sw/lv_draw_sw_line.c ****         int32_t draw_area_w = lv_area_get_width(&blend_area);
 235:Drivers/lvgl/src/draw/sw/lv_draw_sw_line.c **** 
 236:Drivers/lvgl/src/draw/sw/lv_draw_sw_line.c ****         lv_coord_t y2 = blend_area.y2;
 237:Drivers/lvgl/src/draw/sw/lv_draw_sw_line.c ****         blend_area.y2 = blend_area.y1;
 238:Drivers/lvgl/src/draw/sw/lv_draw_sw_line.c **** 
 239:Drivers/lvgl/src/draw/sw/lv_draw_sw_line.c ****         lv_opa_t * mask_buf = lv_mem_buf_get(draw_area_w);
 240:Drivers/lvgl/src/draw/sw/lv_draw_sw_line.c ****         blend_dsc.mask_buf = mask_buf;
 241:Drivers/lvgl/src/draw/sw/lv_draw_sw_line.c ****         blend_dsc.mask_area = &blend_area;
 242:Drivers/lvgl/src/draw/sw/lv_draw_sw_line.c **** 
 243:Drivers/lvgl/src/draw/sw/lv_draw_sw_line.c ****         lv_coord_t dash_start = 0;
 244:Drivers/lvgl/src/draw/sw/lv_draw_sw_line.c ****         if(dashed) {
 245:Drivers/lvgl/src/draw/sw/lv_draw_sw_line.c ****             dash_start = (blend_area.y1) % (dsc->dash_gap + dsc->dash_width);
 246:Drivers/lvgl/src/draw/sw/lv_draw_sw_line.c ****         }
 247:Drivers/lvgl/src/draw/sw/lv_draw_sw_line.c **** 
 248:Drivers/lvgl/src/draw/sw/lv_draw_sw_line.c ****         lv_coord_t dash_cnt = dash_start;
 249:Drivers/lvgl/src/draw/sw/lv_draw_sw_line.c **** 
 250:Drivers/lvgl/src/draw/sw/lv_draw_sw_line.c ****         int32_t h;
 251:Drivers/lvgl/src/draw/sw/lv_draw_sw_line.c ****         for(h = blend_area.y1; h <= y2; h++) {
 252:Drivers/lvgl/src/draw/sw/lv_draw_sw_line.c ****             lv_memset_ff(mask_buf, draw_area_w);
 253:Drivers/lvgl/src/draw/sw/lv_draw_sw_line.c ****             blend_dsc.mask_res = lv_draw_mask_apply(mask_buf, blend_area.x1, h, draw_area_w);
 254:Drivers/lvgl/src/draw/sw/lv_draw_sw_line.c **** 
 255:Drivers/lvgl/src/draw/sw/lv_draw_sw_line.c ****             if(dashed) {
 256:Drivers/lvgl/src/draw/sw/lv_draw_sw_line.c ****                 if(blend_dsc.mask_res != LV_DRAW_MASK_RES_TRANSP) {
 257:Drivers/lvgl/src/draw/sw/lv_draw_sw_line.c ****                     if(dash_cnt > dsc->dash_width) {
 258:Drivers/lvgl/src/draw/sw/lv_draw_sw_line.c ****                         blend_dsc.mask_res = LV_DRAW_MASK_RES_TRANSP;
 259:Drivers/lvgl/src/draw/sw/lv_draw_sw_line.c ****                     }
 260:Drivers/lvgl/src/draw/sw/lv_draw_sw_line.c **** 
 261:Drivers/lvgl/src/draw/sw/lv_draw_sw_line.c ****                     if(dash_cnt >= dsc->dash_gap + dsc->dash_width) {
 262:Drivers/lvgl/src/draw/sw/lv_draw_sw_line.c ****                         dash_cnt = 0;
 263:Drivers/lvgl/src/draw/sw/lv_draw_sw_line.c ****                     }
 264:Drivers/lvgl/src/draw/sw/lv_draw_sw_line.c ****                 }
 265:Drivers/lvgl/src/draw/sw/lv_draw_sw_line.c ****                 dash_cnt ++;
 266:Drivers/lvgl/src/draw/sw/lv_draw_sw_line.c ****             }
 267:Drivers/lvgl/src/draw/sw/lv_draw_sw_line.c **** 
 268:Drivers/lvgl/src/draw/sw/lv_draw_sw_line.c ****             lv_draw_sw_blend(draw_ctx, &blend_dsc);
 269:Drivers/lvgl/src/draw/sw/lv_draw_sw_line.c **** 
 270:Drivers/lvgl/src/draw/sw/lv_draw_sw_line.c ****             blend_area.y1++;
 271:Drivers/lvgl/src/draw/sw/lv_draw_sw_line.c ****             blend_area.y2++;
 272:Drivers/lvgl/src/draw/sw/lv_draw_sw_line.c ****         }
 273:Drivers/lvgl/src/draw/sw/lv_draw_sw_line.c ****         lv_mem_buf_release(mask_buf);
 274:Drivers/lvgl/src/draw/sw/lv_draw_sw_line.c ****     }
 275:Drivers/lvgl/src/draw/sw/lv_draw_sw_line.c **** #endif /*LV_DRAW_COMPLEX*/
 276:Drivers/lvgl/src/draw/sw/lv_draw_sw_line.c **** }
ARM GAS  /var/folders/0z/tsy30v1j4xl4_7kw94k978ww0000gn/T//cczCdckk.s 			page 19


 590              		.loc 1 276 1 is_stmt 0 view .LVU206
 591 00ae 0BB0     		add	sp, sp, #44
 592              		.cfi_remember_state
 593              		.cfi_def_cfa_offset 36
 594              		@ sp needed
 595 00b0 BDE8F08F 		pop	{r4, r5, r6, r7, r8, r9, r10, fp, pc}
 596              	.LVL63:
 597              	.L31:
 598              		.cfi_restore_state
 599              	.LBB19:
 234:Drivers/lvgl/src/draw/sw/lv_draw_sw_line.c **** 
 600              		.loc 1 234 9 is_stmt 1 view .LVU207
 601              	.LBB20:
 602              	.LBI20:
 123:Drivers/lvgl/src/draw/sw/../../misc/lv_area.h **** {
 603              		.loc 2 123 26 view .LVU208
 604              	.LBB21:
 605              		.loc 2 125 5 view .LVU209
 606              		.loc 2 125 31 is_stmt 0 view .LVU210
 607 00b4 BDF82450 		ldrh	r5, [sp, #36]
 608              		.loc 2 125 44 view .LVU211
 609 00b8 BDF82030 		ldrh	r3, [sp, #32]
 610              		.loc 2 125 36 view .LVU212
 611 00bc ED1A     		subs	r5, r5, r3
 612 00be ADB2     		uxth	r5, r5
 613              		.loc 2 125 49 view .LVU213
 614 00c0 0135     		adds	r5, r5, #1
 615              		.loc 2 125 12 view .LVU214
 616 00c2 2DB2     		sxth	r5, r5
 617              	.LVL64:
 618              		.loc 2 125 12 view .LVU215
 619              	.LBE21:
 620              	.LBE20:
 236:Drivers/lvgl/src/draw/sw/lv_draw_sw_line.c ****         blend_area.y2 = blend_area.y1;
 621              		.loc 1 236 9 is_stmt 1 view .LVU216
 236:Drivers/lvgl/src/draw/sw/lv_draw_sw_line.c ****         blend_area.y2 = blend_area.y1;
 622              		.loc 1 236 20 is_stmt 0 view .LVU217
 623 00c4 BDF926B0 		ldrsh	fp, [sp, #38]
 624              	.LVL65:
 237:Drivers/lvgl/src/draw/sw/lv_draw_sw_line.c **** 
 625              		.loc 1 237 9 is_stmt 1 view .LVU218
 237:Drivers/lvgl/src/draw/sw/lv_draw_sw_line.c **** 
 626              		.loc 1 237 35 is_stmt 0 view .LVU219
 627 00c8 BDF92230 		ldrsh	r3, [sp, #34]
 237:Drivers/lvgl/src/draw/sw/lv_draw_sw_line.c **** 
 628              		.loc 1 237 23 view .LVU220
 629 00cc ADF82630 		strh	r3, [sp, #38]	@ movhi
 239:Drivers/lvgl/src/draw/sw/lv_draw_sw_line.c ****         blend_dsc.mask_buf = mask_buf;
 630              		.loc 1 239 9 is_stmt 1 view .LVU221
 239:Drivers/lvgl/src/draw/sw/lv_draw_sw_line.c ****         blend_dsc.mask_buf = mask_buf;
 631              		.loc 1 239 31 is_stmt 0 view .LVU222
 632 00d0 2846     		mov	r0, r5
 633 00d2 FFF7FEFF 		bl	lv_mem_buf_get
 634              	.LVL66:
 635 00d6 8146     		mov	r9, r0
 636              	.LVL67:
 240:Drivers/lvgl/src/draw/sw/lv_draw_sw_line.c ****         blend_dsc.mask_area = &blend_area;
ARM GAS  /var/folders/0z/tsy30v1j4xl4_7kw94k978ww0000gn/T//cczCdckk.s 			page 20


 637              		.loc 1 240 9 is_stmt 1 view .LVU223
 240:Drivers/lvgl/src/draw/sw/lv_draw_sw_line.c ****         blend_dsc.mask_area = &blend_area;
 638              		.loc 1 240 28 is_stmt 0 view .LVU224
 639 00d8 0490     		str	r0, [sp, #16]
 241:Drivers/lvgl/src/draw/sw/lv_draw_sw_line.c **** 
 640              		.loc 1 241 9 is_stmt 1 view .LVU225
 241:Drivers/lvgl/src/draw/sw/lv_draw_sw_line.c **** 
 641              		.loc 1 241 29 is_stmt 0 view .LVU226
 642 00da 08AB     		add	r3, sp, #32
 643 00dc 0693     		str	r3, [sp, #24]
 243:Drivers/lvgl/src/draw/sw/lv_draw_sw_line.c ****         if(dashed) {
 644              		.loc 1 243 9 is_stmt 1 view .LVU227
 645              	.LVL68:
 244:Drivers/lvgl/src/draw/sw/lv_draw_sw_line.c ****             dash_start = (blend_area.y1) % (dsc->dash_gap + dsc->dash_width);
 646              		.loc 1 244 9 view .LVU228
 244:Drivers/lvgl/src/draw/sw/lv_draw_sw_line.c ****             dash_start = (blend_area.y1) % (dsc->dash_gap + dsc->dash_width);
 647              		.loc 1 244 11 is_stmt 0 view .LVU229
 648 00de BAF1000F 		cmp	r10, #0
 649 00e2 0ED0     		beq	.L42
 245:Drivers/lvgl/src/draw/sw/lv_draw_sw_line.c ****         }
 650              		.loc 1 245 13 is_stmt 1 view .LVU230
 245:Drivers/lvgl/src/draw/sw/lv_draw_sw_line.c ****         }
 651              		.loc 1 245 37 is_stmt 0 view .LVU231
 652 00e4 BDF92270 		ldrsh	r7, [sp, #34]
 245:Drivers/lvgl/src/draw/sw/lv_draw_sw_line.c ****         }
 653              		.loc 1 245 48 view .LVU232
 654 00e8 B6F90630 		ldrsh	r3, [r6, #6]
 245:Drivers/lvgl/src/draw/sw/lv_draw_sw_line.c ****         }
 655              		.loc 1 245 64 view .LVU233
 656 00ec B6F90420 		ldrsh	r2, [r6, #4]
 245:Drivers/lvgl/src/draw/sw/lv_draw_sw_line.c ****         }
 657              		.loc 1 245 59 view .LVU234
 658 00f0 1344     		add	r3, r3, r2
 245:Drivers/lvgl/src/draw/sw/lv_draw_sw_line.c ****         }
 659              		.loc 1 245 42 view .LVU235
 660 00f2 97FBF3F2 		sdiv	r2, r7, r3
 661 00f6 03FB1277 		mls	r7, r3, r2, r7
 245:Drivers/lvgl/src/draw/sw/lv_draw_sw_line.c ****         }
 662              		.loc 1 245 24 view .LVU236
 663 00fa 3FB2     		sxth	r7, r7
 664              	.LVL69:
 665              	.L33:
 248:Drivers/lvgl/src/draw/sw/lv_draw_sw_line.c **** 
 666              		.loc 1 248 9 is_stmt 1 view .LVU237
 250:Drivers/lvgl/src/draw/sw/lv_draw_sw_line.c ****         for(h = blend_area.y1; h <= y2; h++) {
 667              		.loc 1 250 9 view .LVU238
 251:Drivers/lvgl/src/draw/sw/lv_draw_sw_line.c ****             lv_memset_ff(mask_buf, draw_area_w);
 668              		.loc 1 251 9 view .LVU239
 251:Drivers/lvgl/src/draw/sw/lv_draw_sw_line.c ****             lv_memset_ff(mask_buf, draw_area_w);
 669              		.loc 1 251 27 is_stmt 0 view .LVU240
 670 00fc BDF92240 		ldrsh	r4, [sp, #34]
 671              	.LVL70:
 251:Drivers/lvgl/src/draw/sw/lv_draw_sw_line.c ****             lv_memset_ff(mask_buf, draw_area_w);
 672              		.loc 1 251 9 view .LVU241
 673 0100 12E0     		b	.L34
 674              	.LVL71:
 675              	.L42:
ARM GAS  /var/folders/0z/tsy30v1j4xl4_7kw94k978ww0000gn/T//cczCdckk.s 			page 21


 243:Drivers/lvgl/src/draw/sw/lv_draw_sw_line.c ****         if(dashed) {
 676              		.loc 1 243 20 view .LVU242
 677 0102 0027     		movs	r7, #0
 678 0104 FAE7     		b	.L33
 679              	.LVL72:
 680              	.L36:
 265:Drivers/lvgl/src/draw/sw/lv_draw_sw_line.c ****             }
 681              		.loc 1 265 17 is_stmt 1 view .LVU243
 265:Drivers/lvgl/src/draw/sw/lv_draw_sw_line.c ****             }
 682              		.loc 1 265 26 is_stmt 0 view .LVU244
 683 0106 0137     		adds	r7, r7, #1
 684              	.LVL73:
 265:Drivers/lvgl/src/draw/sw/lv_draw_sw_line.c ****             }
 685              		.loc 1 265 26 view .LVU245
 686 0108 3FB2     		sxth	r7, r7
 687              	.LVL74:
 688              	.L35:
 268:Drivers/lvgl/src/draw/sw/lv_draw_sw_line.c **** 
 689              		.loc 1 268 13 is_stmt 1 discriminator 2 view .LVU246
 690 010a 01A9     		add	r1, sp, #4
 691 010c 4046     		mov	r0, r8
 692 010e FFF7FEFF 		bl	lv_draw_sw_blend
 693              	.LVL75:
 270:Drivers/lvgl/src/draw/sw/lv_draw_sw_line.c ****             blend_area.y2++;
 694              		.loc 1 270 13 discriminator 2 view .LVU247
 270:Drivers/lvgl/src/draw/sw/lv_draw_sw_line.c ****             blend_area.y2++;
 695              		.loc 1 270 23 is_stmt 0 discriminator 2 view .LVU248
 696 0112 BDF92230 		ldrsh	r3, [sp, #34]
 270:Drivers/lvgl/src/draw/sw/lv_draw_sw_line.c ****             blend_area.y2++;
 697              		.loc 1 270 26 discriminator 2 view .LVU249
 698 0116 0133     		adds	r3, r3, #1
 699 0118 ADF82230 		strh	r3, [sp, #34]	@ movhi
 271:Drivers/lvgl/src/draw/sw/lv_draw_sw_line.c ****         }
 700              		.loc 1 271 13 is_stmt 1 discriminator 2 view .LVU250
 271:Drivers/lvgl/src/draw/sw/lv_draw_sw_line.c ****         }
 701              		.loc 1 271 23 is_stmt 0 discriminator 2 view .LVU251
 702 011c BDF92630 		ldrsh	r3, [sp, #38]
 271:Drivers/lvgl/src/draw/sw/lv_draw_sw_line.c ****         }
 703              		.loc 1 271 26 discriminator 2 view .LVU252
 704 0120 0133     		adds	r3, r3, #1
 705 0122 ADF82630 		strh	r3, [sp, #38]	@ movhi
 251:Drivers/lvgl/src/draw/sw/lv_draw_sw_line.c ****             lv_memset_ff(mask_buf, draw_area_w);
 706              		.loc 1 251 42 is_stmt 1 discriminator 2 view .LVU253
 707 0126 0134     		adds	r4, r4, #1
 708              	.LVL76:
 709              	.L34:
 251:Drivers/lvgl/src/draw/sw/lv_draw_sw_line.c ****             lv_memset_ff(mask_buf, draw_area_w);
 710              		.loc 1 251 34 discriminator 1 view .LVU254
 711 0128 A345     		cmp	fp, r4
 712 012a 21DB     		blt	.L45
 252:Drivers/lvgl/src/draw/sw/lv_draw_sw_line.c ****             blend_dsc.mask_res = lv_draw_mask_apply(mask_buf, blend_area.x1, h, draw_area_w);
 713              		.loc 1 252 13 view .LVU255
 714 012c 2946     		mov	r1, r5
 715 012e 4846     		mov	r0, r9
 716 0130 FFF7FEFF 		bl	lv_memset_ff
 717              	.LVL77:
 253:Drivers/lvgl/src/draw/sw/lv_draw_sw_line.c **** 
ARM GAS  /var/folders/0z/tsy30v1j4xl4_7kw94k978ww0000gn/T//cczCdckk.s 			page 22


 718              		.loc 1 253 13 view .LVU256
 253:Drivers/lvgl/src/draw/sw/lv_draw_sw_line.c **** 
 719              		.loc 1 253 34 is_stmt 0 view .LVU257
 720 0134 2B46     		mov	r3, r5
 721 0136 22B2     		sxth	r2, r4
 722 0138 BDF92010 		ldrsh	r1, [sp, #32]
 723 013c 4846     		mov	r0, r9
 724 013e FFF7FEFF 		bl	lv_draw_mask_apply
 725              	.LVL78:
 253:Drivers/lvgl/src/draw/sw/lv_draw_sw_line.c **** 
 726              		.loc 1 253 32 view .LVU258
 727 0142 8DF81400 		strb	r0, [sp, #20]
 255:Drivers/lvgl/src/draw/sw/lv_draw_sw_line.c ****                 if(blend_dsc.mask_res != LV_DRAW_MASK_RES_TRANSP) {
 728              		.loc 1 255 13 is_stmt 1 view .LVU259
 255:Drivers/lvgl/src/draw/sw/lv_draw_sw_line.c ****                 if(blend_dsc.mask_res != LV_DRAW_MASK_RES_TRANSP) {
 729              		.loc 1 255 15 is_stmt 0 view .LVU260
 730 0146 BAF1000F 		cmp	r10, #0
 731 014a DED0     		beq	.L35
 256:Drivers/lvgl/src/draw/sw/lv_draw_sw_line.c ****                     if(dash_cnt > dsc->dash_width) {
 732              		.loc 1 256 17 is_stmt 1 view .LVU261
 256:Drivers/lvgl/src/draw/sw/lv_draw_sw_line.c ****                     if(dash_cnt > dsc->dash_width) {
 733              		.loc 1 256 19 is_stmt 0 view .LVU262
 734 014c 0028     		cmp	r0, #0
 735 014e DAD0     		beq	.L36
 257:Drivers/lvgl/src/draw/sw/lv_draw_sw_line.c ****                         blend_dsc.mask_res = LV_DRAW_MASK_RES_TRANSP;
 736              		.loc 1 257 21 is_stmt 1 view .LVU263
 257:Drivers/lvgl/src/draw/sw/lv_draw_sw_line.c ****                         blend_dsc.mask_res = LV_DRAW_MASK_RES_TRANSP;
 737              		.loc 1 257 38 is_stmt 0 view .LVU264
 738 0150 B6F90430 		ldrsh	r3, [r6, #4]
 257:Drivers/lvgl/src/draw/sw/lv_draw_sw_line.c ****                         blend_dsc.mask_res = LV_DRAW_MASK_RES_TRANSP;
 739              		.loc 1 257 23 view .LVU265
 740 0154 BB42     		cmp	r3, r7
 741 0156 02DA     		bge	.L37
 258:Drivers/lvgl/src/draw/sw/lv_draw_sw_line.c ****                     }
 742              		.loc 1 258 25 is_stmt 1 view .LVU266
 258:Drivers/lvgl/src/draw/sw/lv_draw_sw_line.c ****                     }
 743              		.loc 1 258 44 is_stmt 0 view .LVU267
 744 0158 0023     		movs	r3, #0
 745 015a 8DF81430 		strb	r3, [sp, #20]
 746              	.L37:
 261:Drivers/lvgl/src/draw/sw/lv_draw_sw_line.c ****                         dash_cnt = 0;
 747              		.loc 1 261 21 is_stmt 1 view .LVU268
 261:Drivers/lvgl/src/draw/sw/lv_draw_sw_line.c ****                         dash_cnt = 0;
 748              		.loc 1 261 39 is_stmt 0 view .LVU269
 749 015e B6F90630 		ldrsh	r3, [r6, #6]
 261:Drivers/lvgl/src/draw/sw/lv_draw_sw_line.c ****                         dash_cnt = 0;
 750              		.loc 1 261 55 view .LVU270
 751 0162 B6F90420 		ldrsh	r2, [r6, #4]
 261:Drivers/lvgl/src/draw/sw/lv_draw_sw_line.c ****                         dash_cnt = 0;
 752              		.loc 1 261 50 view .LVU271
 753 0166 1344     		add	r3, r3, r2
 261:Drivers/lvgl/src/draw/sw/lv_draw_sw_line.c ****                         dash_cnt = 0;
 754              		.loc 1 261 23 view .LVU272
 755 0168 9F42     		cmp	r7, r3
 756 016a CCDB     		blt	.L36
 262:Drivers/lvgl/src/draw/sw/lv_draw_sw_line.c ****                     }
 757              		.loc 1 262 34 view .LVU273
ARM GAS  /var/folders/0z/tsy30v1j4xl4_7kw94k978ww0000gn/T//cczCdckk.s 			page 23


 758 016c 0027     		movs	r7, #0
 759              	.LVL79:
 262:Drivers/lvgl/src/draw/sw/lv_draw_sw_line.c ****                     }
 760              		.loc 1 262 34 view .LVU274
 761 016e CAE7     		b	.L36
 762              	.LVL80:
 763              	.L45:
 273:Drivers/lvgl/src/draw/sw/lv_draw_sw_line.c ****     }
 764              		.loc 1 273 9 is_stmt 1 view .LVU275
 765 0170 4846     		mov	r0, r9
 766 0172 FFF7FEFF 		bl	lv_mem_buf_release
 767              	.LVL81:
 768 0176 9AE7     		b	.L26
 769              	.LBE19:
 770              		.cfi_endproc
 771              	.LFE163:
 773              		.section	.text.draw_line_skew,"ax",%progbits
 774              		.align	1
 775              		.syntax unified
 776              		.thumb
 777              		.thumb_func
 779              	draw_line_skew:
 780              	.LVL82:
 781              	.LFB164:
 277:Drivers/lvgl/src/draw/sw/lv_draw_sw_line.c **** 
 278:Drivers/lvgl/src/draw/sw/lv_draw_sw_line.c **** static void LV_ATTRIBUTE_FAST_MEM draw_line_skew(struct _lv_draw_ctx_t * draw_ctx, const lv_draw_li
 279:Drivers/lvgl/src/draw/sw/lv_draw_sw_line.c ****                                                  const lv_point_t * point1, const lv_point_t * poin
 280:Drivers/lvgl/src/draw/sw/lv_draw_sw_line.c **** {
 782              		.loc 1 280 1 view -0
 783              		.cfi_startproc
 784              		@ args = 0, pretend = 0, frame = 248
 785              		@ frame_needed = 0, uses_anonymous_args = 0
 786              		.loc 1 280 1 is_stmt 0 view .LVU277
 787 0000 2DE9F04F 		push	{r4, r5, r6, r7, r8, r9, r10, fp, lr}
 788              		.cfi_def_cfa_offset 36
 789              		.cfi_offset 4, -36
 790              		.cfi_offset 5, -32
 791              		.cfi_offset 6, -28
 792              		.cfi_offset 7, -24
 793              		.cfi_offset 8, -20
 794              		.cfi_offset 9, -16
 795              		.cfi_offset 10, -12
 796              		.cfi_offset 11, -8
 797              		.cfi_offset 14, -4
 798 0004 C1B0     		sub	sp, sp, #260
 799              		.cfi_def_cfa_offset 296
 800 0006 0390     		str	r0, [sp, #12]
 801 0008 0C46     		mov	r4, r1
 281:Drivers/lvgl/src/draw/sw/lv_draw_sw_line.c **** #if LV_DRAW_COMPLEX
 282:Drivers/lvgl/src/draw/sw/lv_draw_sw_line.c ****     /*Keep the great y in p1*/
 283:Drivers/lvgl/src/draw/sw/lv_draw_sw_line.c ****     lv_point_t p1;
 802              		.loc 1 283 5 is_stmt 1 view .LVU278
 284:Drivers/lvgl/src/draw/sw/lv_draw_sw_line.c ****     lv_point_t p2;
 803              		.loc 1 284 5 view .LVU279
 285:Drivers/lvgl/src/draw/sw/lv_draw_sw_line.c ****     if(point1->y < point2->y) {
 804              		.loc 1 285 5 view .LVU280
 805              		.loc 1 285 14 is_stmt 0 view .LVU281
ARM GAS  /var/folders/0z/tsy30v1j4xl4_7kw94k978ww0000gn/T//cczCdckk.s 			page 24


 806 000a B2F90210 		ldrsh	r1, [r2, #2]
 807              	.LVL83:
 808              		.loc 1 285 26 view .LVU282
 809 000e B3F90200 		ldrsh	r0, [r3, #2]
 810              	.LVL84:
 811              		.loc 1 285 7 view .LVU283
 812 0012 8142     		cmp	r1, r0
 813 0014 80F2D380 		bge	.L47
 286:Drivers/lvgl/src/draw/sw/lv_draw_sw_line.c ****         p1.y = point1->y;
 814              		.loc 1 286 9 is_stmt 1 view .LVU284
 815              		.loc 1 286 14 is_stmt 0 view .LVU285
 816 0018 ADF8FE10 		strh	r1, [sp, #254]	@ movhi
 287:Drivers/lvgl/src/draw/sw/lv_draw_sw_line.c ****         p2.y = point2->y;
 817              		.loc 1 287 9 is_stmt 1 view .LVU286
 818              		.loc 1 287 14 is_stmt 0 view .LVU287
 819 001c ADF8FA00 		strh	r0, [sp, #250]	@ movhi
 288:Drivers/lvgl/src/draw/sw/lv_draw_sw_line.c ****         p1.x = point1->x;
 820              		.loc 1 288 9 is_stmt 1 view .LVU288
 821              		.loc 1 288 22 is_stmt 0 view .LVU289
 822 0020 B2F90020 		ldrsh	r2, [r2]
 823              	.LVL85:
 824              		.loc 1 288 14 view .LVU290
 825 0024 ADF8FC20 		strh	r2, [sp, #252]	@ movhi
 289:Drivers/lvgl/src/draw/sw/lv_draw_sw_line.c ****         p2.x = point2->x;
 826              		.loc 1 289 9 is_stmt 1 view .LVU291
 827              		.loc 1 289 22 is_stmt 0 view .LVU292
 828 0028 B3F90030 		ldrsh	r3, [r3]
 829              	.LVL86:
 830              		.loc 1 289 14 view .LVU293
 831 002c ADF8F830 		strh	r3, [sp, #248]	@ movhi
 832              	.L48:
 290:Drivers/lvgl/src/draw/sw/lv_draw_sw_line.c ****     }
 291:Drivers/lvgl/src/draw/sw/lv_draw_sw_line.c ****     else {
 292:Drivers/lvgl/src/draw/sw/lv_draw_sw_line.c ****         p1.y = point2->y;
 293:Drivers/lvgl/src/draw/sw/lv_draw_sw_line.c ****         p2.y = point1->y;
 294:Drivers/lvgl/src/draw/sw/lv_draw_sw_line.c ****         p1.x = point2->x;
 295:Drivers/lvgl/src/draw/sw/lv_draw_sw_line.c ****         p2.x = point1->x;
 296:Drivers/lvgl/src/draw/sw/lv_draw_sw_line.c ****     }
 297:Drivers/lvgl/src/draw/sw/lv_draw_sw_line.c **** 
 298:Drivers/lvgl/src/draw/sw/lv_draw_sw_line.c ****     int32_t xdiff = p2.x - p1.x;
 833              		.loc 1 298 5 is_stmt 1 view .LVU294
 834              		.loc 1 298 23 is_stmt 0 view .LVU295
 835 0030 BDF9F850 		ldrsh	r5, [sp, #248]
 836              		.loc 1 298 30 view .LVU296
 837 0034 BDF9FC60 		ldrsh	r6, [sp, #252]
 838              		.loc 1 298 13 view .LVU297
 839 0038 A5EB0609 		sub	r9, r5, r6
 840              	.LVL87:
 299:Drivers/lvgl/src/draw/sw/lv_draw_sw_line.c ****     int32_t ydiff = p2.y - p1.y;
 841              		.loc 1 299 5 is_stmt 1 view .LVU298
 842              		.loc 1 299 23 is_stmt 0 view .LVU299
 843 003c BDF9FA70 		ldrsh	r7, [sp, #250]
 844              		.loc 1 299 30 view .LVU300
 845 0040 BDF9FE80 		ldrsh	r8, [sp, #254]
 846              		.loc 1 299 13 view .LVU301
 847 0044 A7EB0803 		sub	r3, r7, r8
 848 0048 0793     		str	r3, [sp, #28]
ARM GAS  /var/folders/0z/tsy30v1j4xl4_7kw94k978ww0000gn/T//cczCdckk.s 			page 25


 849              	.LVL88:
 300:Drivers/lvgl/src/draw/sw/lv_draw_sw_line.c ****     bool flat = LV_ABS(xdiff) > LV_ABS(ydiff) ? true : false;
 850              		.loc 1 300 5 is_stmt 1 view .LVU302
 851              		.loc 1 300 17 is_stmt 0 view .LVU303
 852 004a 89EAE97B 		eor	fp, r9, r9, asr #31
 853 004e ABEBE97B 		sub	fp, fp, r9, asr #31
 854              		.loc 1 300 33 view .LVU304
 855 0052 83EAE37A 		eor	r10, r3, r3, asr #31
 856 0056 AAEBE37A 		sub	r10, r10, r3, asr #31
 857              	.LVL89:
 301:Drivers/lvgl/src/draw/sw/lv_draw_sw_line.c **** 
 302:Drivers/lvgl/src/draw/sw/lv_draw_sw_line.c ****     static const uint8_t wcorr[] = {
 858              		.loc 1 302 5 is_stmt 1 view .LVU305
 303:Drivers/lvgl/src/draw/sw/lv_draw_sw_line.c ****         128, 128, 128, 129, 129, 130, 130, 131,
 304:Drivers/lvgl/src/draw/sw/lv_draw_sw_line.c ****         132, 133, 134, 135, 137, 138, 140, 141,
 305:Drivers/lvgl/src/draw/sw/lv_draw_sw_line.c ****         143, 145, 147, 149, 151, 153, 155, 158,
 306:Drivers/lvgl/src/draw/sw/lv_draw_sw_line.c ****         160, 162, 165, 167, 170, 173, 175, 178,
 307:Drivers/lvgl/src/draw/sw/lv_draw_sw_line.c ****         181,
 308:Drivers/lvgl/src/draw/sw/lv_draw_sw_line.c ****     };
 309:Drivers/lvgl/src/draw/sw/lv_draw_sw_line.c **** 
 310:Drivers/lvgl/src/draw/sw/lv_draw_sw_line.c ****     int32_t w = dsc->width;
 859              		.loc 1 310 5 view .LVU306
 860              		.loc 1 310 20 is_stmt 0 view .LVU307
 861 005a B4F90220 		ldrsh	r2, [r4, #2]
 862              	.LVL90:
 311:Drivers/lvgl/src/draw/sw/lv_draw_sw_line.c ****     int32_t wcorr_i = 0;
 863              		.loc 1 311 5 is_stmt 1 view .LVU308
 312:Drivers/lvgl/src/draw/sw/lv_draw_sw_line.c ****     if(flat) wcorr_i = (LV_ABS(ydiff) << 5) / LV_ABS(xdiff);
 864              		.loc 1 312 5 view .LVU309
 865              		.loc 1 312 7 is_stmt 0 view .LVU310
 866 005e D345     		cmp	fp, r10
 867 0060 40F3BA80 		ble	.L49
 868              		.loc 1 312 14 is_stmt 1 discriminator 1 view .LVU311
 869              		.loc 1 312 39 is_stmt 0 discriminator 1 view .LVU312
 870 0064 4FEA4A13 		lsl	r3, r10, #5
 871              	.LVL91:
 872              		.loc 1 312 22 discriminator 1 view .LVU313
 873 0068 93FBFBF3 		sdiv	r3, r3, fp
 874              	.LVL92:
 875              	.L50:
 313:Drivers/lvgl/src/draw/sw/lv_draw_sw_line.c ****     else wcorr_i = (LV_ABS(xdiff) << 5) / LV_ABS(ydiff);
 314:Drivers/lvgl/src/draw/sw/lv_draw_sw_line.c **** 
 315:Drivers/lvgl/src/draw/sw/lv_draw_sw_line.c ****     w = (w * wcorr[wcorr_i] + 63) >> 7;     /*+ 63 for rounding*/
 876              		.loc 1 315 5 is_stmt 1 view .LVU314
 877              		.loc 1 315 19 is_stmt 0 view .LVU315
 878 006c C549     		ldr	r1, .L76
 879 006e CB5C     		ldrb	r3, [r1, r3]	@ zero_extendqisi2
 880              	.LVL93:
 881              		.loc 1 315 12 view .LVU316
 882 0070 02FB03F3 		mul	r3, r2, r3
 883              		.loc 1 315 29 view .LVU317
 884 0074 3F33     		adds	r3, r3, #63
 885              	.LVL94:
 316:Drivers/lvgl/src/draw/sw/lv_draw_sw_line.c ****     int32_t w_half0 = w >> 1;
 886              		.loc 1 316 5 is_stmt 1 view .LVU318
 887              		.loc 1 316 13 is_stmt 0 view .LVU319
 888 0076 1A12     		asrs	r2, r3, #8
ARM GAS  /var/folders/0z/tsy30v1j4xl4_7kw94k978ww0000gn/T//cczCdckk.s 			page 26


 889 0078 0492     		str	r2, [sp, #16]
 890              	.LVL95:
 317:Drivers/lvgl/src/draw/sw/lv_draw_sw_line.c ****     int32_t w_half1 = w_half0 + (w & 0x1); /*Compensate rounding error*/
 891              		.loc 1 317 5 is_stmt 1 view .LVU320
 892              		.loc 1 317 36 is_stmt 0 view .LVU321
 893 007a C3F3C012 		ubfx	r2, r3, #7, #1
 894              	.LVL96:
 895              		.loc 1 317 13 view .LVU322
 896 007e 02EB2321 		add	r1, r2, r3, asr #8
 897 0082 0591     		str	r1, [sp, #20]
 898              	.LVL97:
 318:Drivers/lvgl/src/draw/sw/lv_draw_sw_line.c **** 
 319:Drivers/lvgl/src/draw/sw/lv_draw_sw_line.c ****     lv_area_t blend_area;
 899              		.loc 1 319 5 is_stmt 1 view .LVU323
 320:Drivers/lvgl/src/draw/sw/lv_draw_sw_line.c ****     blend_area.x1 = LV_MIN(p1.x, p2.x) - w;
 900              		.loc 1 320 5 view .LVU324
 901              		.loc 1 320 21 is_stmt 0 view .LVU325
 902 0084 2A46     		mov	r2, r5
 903 0086 B542     		cmp	r5, r6
 904 0088 A8BF     		it	ge
 905 008a 3246     		movge	r2, r6
 906 008c 92B2     		uxth	r2, r2
 907              		.loc 1 320 40 view .LVU326
 908 008e C3F3CF13 		ubfx	r3, r3, #7, #16
 909              	.LVL98:
 910              		.loc 1 320 40 view .LVU327
 911 0092 D21A     		subs	r2, r2, r3
 912              		.loc 1 320 19 view .LVU328
 913 0094 ADF8F020 		strh	r2, [sp, #240]	@ movhi
 321:Drivers/lvgl/src/draw/sw/lv_draw_sw_line.c ****     blend_area.x2 = LV_MAX(p1.x, p2.x) + w;
 914              		.loc 1 321 5 is_stmt 1 view .LVU329
 915              		.loc 1 321 21 is_stmt 0 view .LVU330
 916 0098 2A46     		mov	r2, r5
 917 009a B542     		cmp	r5, r6
 918 009c B8BF     		it	lt
 919 009e 3246     		movlt	r2, r6
 920              		.loc 1 321 40 view .LVU331
 921 00a0 13FA82F2 		uxtah	r2, r3, r2
 922              		.loc 1 321 19 view .LVU332
 923 00a4 ADF8F420 		strh	r2, [sp, #244]	@ movhi
 322:Drivers/lvgl/src/draw/sw/lv_draw_sw_line.c ****     blend_area.y1 = LV_MIN(p1.y, p2.y) - w;
 924              		.loc 1 322 5 is_stmt 1 view .LVU333
 925              		.loc 1 322 21 is_stmt 0 view .LVU334
 926 00a8 3A46     		mov	r2, r7
 927 00aa 4745     		cmp	r7, r8
 928 00ac A8BF     		it	ge
 929 00ae 4246     		movge	r2, r8
 930 00b0 92B2     		uxth	r2, r2
 931              		.loc 1 322 40 view .LVU335
 932 00b2 D21A     		subs	r2, r2, r3
 933              		.loc 1 322 19 view .LVU336
 934 00b4 ADF8F220 		strh	r2, [sp, #242]	@ movhi
 323:Drivers/lvgl/src/draw/sw/lv_draw_sw_line.c ****     blend_area.y2 = LV_MAX(p1.y, p2.y) + w;
 935              		.loc 1 323 5 is_stmt 1 view .LVU337
 936              		.loc 1 323 21 is_stmt 0 view .LVU338
 937 00b8 3A46     		mov	r2, r7
 938 00ba 4745     		cmp	r7, r8
ARM GAS  /var/folders/0z/tsy30v1j4xl4_7kw94k978ww0000gn/T//cczCdckk.s 			page 27


 939 00bc B8BF     		it	lt
 940 00be 4246     		movlt	r2, r8
 941              		.loc 1 323 40 view .LVU339
 942 00c0 13FA82F3 		uxtah	r3, r3, r2
 943              		.loc 1 323 19 view .LVU340
 944 00c4 ADF8F630 		strh	r3, [sp, #246]	@ movhi
 324:Drivers/lvgl/src/draw/sw/lv_draw_sw_line.c **** 
 325:Drivers/lvgl/src/draw/sw/lv_draw_sw_line.c ****     /*Get the union of `coords` and `clip`*/
 326:Drivers/lvgl/src/draw/sw/lv_draw_sw_line.c ****     /*`clip` is already truncated to the `draw_buf` size
 327:Drivers/lvgl/src/draw/sw/lv_draw_sw_line.c ****      *in 'lv_refr_area' function*/
 328:Drivers/lvgl/src/draw/sw/lv_draw_sw_line.c ****     bool is_common = _lv_area_intersect(&blend_area, &blend_area, draw_ctx->clip_area);
 945              		.loc 1 328 5 is_stmt 1 view .LVU341
 946              		.loc 1 328 22 is_stmt 0 view .LVU342
 947 00c8 039B     		ldr	r3, [sp, #12]
 948 00ca 9A68     		ldr	r2, [r3, #8]
 949 00cc 3CAB     		add	r3, sp, #240
 950 00ce 1946     		mov	r1, r3
 951              	.LVL99:
 952              		.loc 1 328 22 view .LVU343
 953 00d0 1846     		mov	r0, r3
 954 00d2 FFF7FEFF 		bl	_lv_area_intersect
 955              	.LVL100:
 329:Drivers/lvgl/src/draw/sw/lv_draw_sw_line.c ****     if(is_common == false) return;
 956              		.loc 1 329 5 is_stmt 1 view .LVU344
 957              		.loc 1 329 7 is_stmt 0 view .LVU345
 958 00d6 0028     		cmp	r0, #0
 959 00d8 00F05181 		beq	.L46
 330:Drivers/lvgl/src/draw/sw/lv_draw_sw_line.c **** 
 331:Drivers/lvgl/src/draw/sw/lv_draw_sw_line.c ****     lv_draw_mask_line_param_t mask_left_param;
 960              		.loc 1 331 5 is_stmt 1 view .LVU346
 332:Drivers/lvgl/src/draw/sw/lv_draw_sw_line.c ****     lv_draw_mask_line_param_t mask_right_param;
 961              		.loc 1 332 5 view .LVU347
 333:Drivers/lvgl/src/draw/sw/lv_draw_sw_line.c ****     lv_draw_mask_line_param_t mask_top_param;
 962              		.loc 1 333 5 view .LVU348
 334:Drivers/lvgl/src/draw/sw/lv_draw_sw_line.c ****     lv_draw_mask_line_param_t mask_bottom_param;
 963              		.loc 1 334 5 view .LVU349
 335:Drivers/lvgl/src/draw/sw/lv_draw_sw_line.c **** 
 336:Drivers/lvgl/src/draw/sw/lv_draw_sw_line.c ****     if(flat) {
 964              		.loc 1 336 5 view .LVU350
 965              		.loc 1 336 7 is_stmt 0 view .LVU351
 966 00dc D345     		cmp	fp, r10
 967 00de 40F3A580 		ble	.L53
 337:Drivers/lvgl/src/draw/sw/lv_draw_sw_line.c ****         if(xdiff > 0) {
 968              		.loc 1 337 9 is_stmt 1 view .LVU352
 969              		.loc 1 337 11 is_stmt 0 view .LVU353
 970 00e2 B9F1000F 		cmp	r9, #0
 971 00e6 7CDD     		ble	.L54
 338:Drivers/lvgl/src/draw/sw/lv_draw_sw_line.c ****             lv_draw_mask_line_points_init(&mask_left_param, p1.x, p1.y - w_half0, p2.x, p2.y - w_ha
 972              		.loc 1 338 13 is_stmt 1 view .LVU354
 973              		.loc 1 338 69 is_stmt 0 view .LVU355
 974 00e8 1FFA88F2 		uxth	r2, r8
 975              		.loc 1 338 72 view .LVU356
 976 00ec BDF81030 		ldrh	r3, [sp, #16]
 977 00f0 9346     		mov	fp, r2
 978              	.LVL101:
 979              		.loc 1 338 72 view .LVU357
 980 00f2 D21A     		subs	r2, r2, r3
ARM GAS  /var/folders/0z/tsy30v1j4xl4_7kw94k978ww0000gn/T//cczCdckk.s 			page 28


 981              		.loc 1 338 91 view .LVU358
 982 00f4 1FFA87FA 		uxth	r10, r7
 983              	.LVL102:
 984              		.loc 1 338 94 view .LVU359
 985 00f8 AAEB0303 		sub	r3, r10, r3
 986              		.loc 1 338 13 view .LVU360
 987 00fc 0021     		movs	r1, #0
 988 00fe 0191     		str	r1, [sp, #4]
 989 0100 1BB2     		sxth	r3, r3
 990 0102 0093     		str	r3, [sp]
 991 0104 2B46     		mov	r3, r5
 992 0106 12B2     		sxth	r2, r2
 993 0108 3146     		mov	r1, r6
 994 010a 31A8     		add	r0, sp, #196
 995              	.LVL103:
 996              		.loc 1 338 13 view .LVU361
 997 010c FFF7FEFF 		bl	lv_draw_mask_line_points_init
 998              	.LVL104:
 339:Drivers/lvgl/src/draw/sw/lv_draw_sw_line.c ****                                           LV_DRAW_MASK_LINE_SIDE_LEFT);
 340:Drivers/lvgl/src/draw/sw/lv_draw_sw_line.c ****             lv_draw_mask_line_points_init(&mask_right_param, p1.x, p1.y + w_half1, p2.x, p2.y + w_h
 999              		.loc 1 340 13 is_stmt 1 view .LVU362
 1000              		.loc 1 340 73 is_stmt 0 view .LVU363
 1001 0110 BDF81430 		ldrh	r3, [sp, #20]
 1002 0114 0BEB0302 		add	r2, fp, r3
 1003              		.loc 1 340 95 view .LVU364
 1004 0118 9A44     		add	r10, r10, r3
 1005              		.loc 1 340 13 view .LVU365
 1006 011a 0123     		movs	r3, #1
 1007 011c 0193     		str	r3, [sp, #4]
 1008 011e 0FFA8AF3 		sxth	r3, r10
 1009 0122 0093     		str	r3, [sp]
 1010 0124 2B46     		mov	r3, r5
 1011 0126 12B2     		sxth	r2, r2
 1012 0128 3146     		mov	r1, r6
 1013 012a 26A8     		add	r0, sp, #152
 1014 012c FFF7FEFF 		bl	lv_draw_mask_line_points_init
 1015              	.LVL105:
 1016              	.L55:
 341:Drivers/lvgl/src/draw/sw/lv_draw_sw_line.c ****                                           LV_DRAW_MASK_LINE_SIDE_RIGHT);
 342:Drivers/lvgl/src/draw/sw/lv_draw_sw_line.c ****         }
 343:Drivers/lvgl/src/draw/sw/lv_draw_sw_line.c ****         else {
 344:Drivers/lvgl/src/draw/sw/lv_draw_sw_line.c ****             lv_draw_mask_line_points_init(&mask_left_param, p1.x, p1.y + w_half1, p2.x, p2.y + w_ha
 345:Drivers/lvgl/src/draw/sw/lv_draw_sw_line.c ****                                           LV_DRAW_MASK_LINE_SIDE_LEFT);
 346:Drivers/lvgl/src/draw/sw/lv_draw_sw_line.c ****             lv_draw_mask_line_points_init(&mask_right_param, p1.x, p1.y - w_half0, p2.x, p2.y - w_h
 347:Drivers/lvgl/src/draw/sw/lv_draw_sw_line.c ****                                           LV_DRAW_MASK_LINE_SIDE_RIGHT);
 348:Drivers/lvgl/src/draw/sw/lv_draw_sw_line.c ****         }
 349:Drivers/lvgl/src/draw/sw/lv_draw_sw_line.c ****     }
 350:Drivers/lvgl/src/draw/sw/lv_draw_sw_line.c ****     else {
 351:Drivers/lvgl/src/draw/sw/lv_draw_sw_line.c ****         lv_draw_mask_line_points_init(&mask_left_param, p1.x + w_half1, p1.y, p2.x + w_half1, p2.y,
 352:Drivers/lvgl/src/draw/sw/lv_draw_sw_line.c ****                                       LV_DRAW_MASK_LINE_SIDE_LEFT);
 353:Drivers/lvgl/src/draw/sw/lv_draw_sw_line.c ****         lv_draw_mask_line_points_init(&mask_right_param, p1.x - w_half0, p1.y, p2.x - w_half0, p2.y
 354:Drivers/lvgl/src/draw/sw/lv_draw_sw_line.c ****                                       LV_DRAW_MASK_LINE_SIDE_RIGHT);
 355:Drivers/lvgl/src/draw/sw/lv_draw_sw_line.c ****     }
 356:Drivers/lvgl/src/draw/sw/lv_draw_sw_line.c **** 
 357:Drivers/lvgl/src/draw/sw/lv_draw_sw_line.c ****     /*Use the normal vector for the endings*/
 358:Drivers/lvgl/src/draw/sw/lv_draw_sw_line.c **** 
 359:Drivers/lvgl/src/draw/sw/lv_draw_sw_line.c ****     int16_t mask_left_id = lv_draw_mask_add(&mask_left_param, NULL);
ARM GAS  /var/folders/0z/tsy30v1j4xl4_7kw94k978ww0000gn/T//cczCdckk.s 			page 29


 1017              		.loc 1 359 5 is_stmt 1 view .LVU366
 1018              		.loc 1 359 28 is_stmt 0 view .LVU367
 1019 0130 0021     		movs	r1, #0
 1020 0132 31A8     		add	r0, sp, #196
 1021 0134 FFF7FEFF 		bl	lv_draw_mask_add
 1022              	.LVL106:
 1023 0138 0590     		str	r0, [sp, #20]
 1024              	.LVL107:
 360:Drivers/lvgl/src/draw/sw/lv_draw_sw_line.c ****     int16_t mask_right_id = lv_draw_mask_add(&mask_right_param, NULL);
 1025              		.loc 1 360 5 is_stmt 1 view .LVU368
 1026              		.loc 1 360 29 is_stmt 0 view .LVU369
 1027 013a 0021     		movs	r1, #0
 1028 013c 26A8     		add	r0, sp, #152
 1029 013e FFF7FEFF 		bl	lv_draw_mask_add
 1030              	.LVL108:
 1031 0142 0690     		str	r0, [sp, #24]
 1032              	.LVL109:
 361:Drivers/lvgl/src/draw/sw/lv_draw_sw_line.c ****     int16_t mask_top_id = LV_MASK_ID_INV;
 1033              		.loc 1 361 5 is_stmt 1 view .LVU370
 362:Drivers/lvgl/src/draw/sw/lv_draw_sw_line.c ****     int16_t mask_bottom_id = LV_MASK_ID_INV;
 1034              		.loc 1 362 5 view .LVU371
 363:Drivers/lvgl/src/draw/sw/lv_draw_sw_line.c **** 
 364:Drivers/lvgl/src/draw/sw/lv_draw_sw_line.c ****     if(!dsc->raw_end) {
 1035              		.loc 1 364 5 view .LVU372
 1036              		.loc 1 364 8 is_stmt 0 view .LVU373
 1037 0144 637A     		ldrb	r3, [r4, #9]	@ zero_extendqisi2
 1038              		.loc 1 364 7 view .LVU374
 1039 0146 13F0100F 		tst	r3, #16
 1040 014a 00F09080 		beq	.L68
 362:Drivers/lvgl/src/draw/sw/lv_draw_sw_line.c ****     int16_t mask_bottom_id = LV_MASK_ID_INV;
 1041              		.loc 1 362 13 view .LVU375
 1042 014e 4FF0FF3B 		mov	fp, #-1
 361:Drivers/lvgl/src/draw/sw/lv_draw_sw_line.c ****     int16_t mask_bottom_id = LV_MASK_ID_INV;
 1043              		.loc 1 361 13 view .LVU376
 1044 0152 CDF810B0 		str	fp, [sp, #16]
 1045              	.LVL110:
 1046              	.L56:
 365:Drivers/lvgl/src/draw/sw/lv_draw_sw_line.c ****         lv_draw_mask_line_points_init(&mask_top_param, p1.x, p1.y, p1.x - ydiff, p1.y + xdiff, LV_D
 366:Drivers/lvgl/src/draw/sw/lv_draw_sw_line.c ****         lv_draw_mask_line_points_init(&mask_bottom_param, p2.x, p2.y, p2.x - ydiff, p2.y + xdiff,  
 367:Drivers/lvgl/src/draw/sw/lv_draw_sw_line.c ****         mask_top_id = lv_draw_mask_add(&mask_top_param, NULL);
 368:Drivers/lvgl/src/draw/sw/lv_draw_sw_line.c ****         mask_bottom_id = lv_draw_mask_add(&mask_bottom_param, NULL);
 369:Drivers/lvgl/src/draw/sw/lv_draw_sw_line.c ****     }
 370:Drivers/lvgl/src/draw/sw/lv_draw_sw_line.c **** 
 371:Drivers/lvgl/src/draw/sw/lv_draw_sw_line.c ****     /*The real draw area is around the line.
 372:Drivers/lvgl/src/draw/sw/lv_draw_sw_line.c ****      *It's easy to calculate with steep lines, but the area can be very wide with very flat lines.
 373:Drivers/lvgl/src/draw/sw/lv_draw_sw_line.c ****      *So deal with it only with steep lines.*/
 374:Drivers/lvgl/src/draw/sw/lv_draw_sw_line.c ****     int32_t draw_area_w = lv_area_get_width(&blend_area);
 1047              		.loc 1 374 5 is_stmt 1 view .LVU377
 1048              	.LBB22:
 1049              	.LBI22:
 123:Drivers/lvgl/src/draw/sw/../../misc/lv_area.h **** {
 1050              		.loc 2 123 26 view .LVU378
 1051              	.LBB23:
 1052              		.loc 2 125 5 view .LVU379
 1053              		.loc 2 125 31 is_stmt 0 view .LVU380
 1054 0156 BDF8F450 		ldrh	r5, [sp, #244]
 1055              	.LVL111:
ARM GAS  /var/folders/0z/tsy30v1j4xl4_7kw94k978ww0000gn/T//cczCdckk.s 			page 30


 1056              		.loc 2 125 44 view .LVU381
 1057 015a BDF8F030 		ldrh	r3, [sp, #240]
 1058              		.loc 2 125 36 view .LVU382
 1059 015e ED1A     		subs	r5, r5, r3
 1060 0160 ADB2     		uxth	r5, r5
 1061              		.loc 2 125 49 view .LVU383
 1062 0162 0135     		adds	r5, r5, #1
 1063              		.loc 2 125 12 view .LVU384
 1064 0164 2DB2     		sxth	r5, r5
 1065              	.LVL112:
 1066              		.loc 2 125 12 view .LVU385
 1067              	.LBE23:
 1068              	.LBE22:
 375:Drivers/lvgl/src/draw/sw/lv_draw_sw_line.c **** 
 376:Drivers/lvgl/src/draw/sw/lv_draw_sw_line.c ****     /*Draw the background line by line*/
 377:Drivers/lvgl/src/draw/sw/lv_draw_sw_line.c ****     int32_t h;
 1069              		.loc 1 377 5 is_stmt 1 view .LVU386
 378:Drivers/lvgl/src/draw/sw/lv_draw_sw_line.c ****     uint32_t hor_res = (uint32_t)lv_disp_get_hor_res(_lv_refr_get_disp_refreshing());
 1070              		.loc 1 378 5 view .LVU387
 1071              		.loc 1 378 34 is_stmt 0 view .LVU388
 1072 0166 FFF7FEFF 		bl	_lv_refr_get_disp_refreshing
 1073              	.LVL113:
 1074 016a FFF7FEFF 		bl	lv_disp_get_hor_res
 1075              	.LVL114:
 1076 016e 0646     		mov	r6, r0
 1077              	.LVL115:
 1078              		.loc 1 378 14 view .LVU389
 1079 0170 8146     		mov	r9, r0
 1080              	.LVL116:
 379:Drivers/lvgl/src/draw/sw/lv_draw_sw_line.c ****     size_t mask_buf_size = LV_MIN(lv_area_get_size(&blend_area), hor_res);
 1081              		.loc 1 379 5 is_stmt 1 view .LVU390
 1082              		.loc 1 379 28 is_stmt 0 view .LVU391
 1083 0172 3CA8     		add	r0, sp, #240
 1084              	.LVL117:
 1085              		.loc 1 379 28 view .LVU392
 1086 0174 FFF7FEFF 		bl	lv_area_get_size
 1087              	.LVL118:
 1088 0178 B042     		cmp	r0, r6
 1089 017a C0F0A680 		bcc	.L69
 1090              	.L57:
 1091              	.LVL119:
 380:Drivers/lvgl/src/draw/sw/lv_draw_sw_line.c ****     lv_opa_t * mask_buf = lv_mem_buf_get(mask_buf_size);
 1092              		.loc 1 380 5 is_stmt 1 discriminator 4 view .LVU393
 1093              		.loc 1 380 27 is_stmt 0 discriminator 4 view .LVU394
 1094 017e 4846     		mov	r0, r9
 1095 0180 FFF7FEFF 		bl	lv_mem_buf_get
 1096              	.LVL120:
 1097 0184 8046     		mov	r8, r0
 1098              	.LVL121:
 381:Drivers/lvgl/src/draw/sw/lv_draw_sw_line.c **** 
 382:Drivers/lvgl/src/draw/sw/lv_draw_sw_line.c ****     lv_coord_t y2 = blend_area.y2;
 1099              		.loc 1 382 5 is_stmt 1 discriminator 4 view .LVU395
 1100              		.loc 1 382 16 is_stmt 0 discriminator 4 view .LVU396
 1101 0186 BDF9F6A0 		ldrsh	r10, [sp, #246]
 1102              	.LVL122:
 383:Drivers/lvgl/src/draw/sw/lv_draw_sw_line.c ****     blend_area.y2 = blend_area.y1;
 1103              		.loc 1 383 5 is_stmt 1 discriminator 4 view .LVU397
ARM GAS  /var/folders/0z/tsy30v1j4xl4_7kw94k978ww0000gn/T//cczCdckk.s 			page 31


 1104              		.loc 1 383 31 is_stmt 0 discriminator 4 view .LVU398
 1105 018a BDF9F230 		ldrsh	r3, [sp, #242]
 1106              		.loc 1 383 19 discriminator 4 view .LVU399
 1107 018e ADF8F630 		strh	r3, [sp, #246]	@ movhi
 384:Drivers/lvgl/src/draw/sw/lv_draw_sw_line.c **** 
 385:Drivers/lvgl/src/draw/sw/lv_draw_sw_line.c ****     uint32_t mask_p = 0;
 1108              		.loc 1 385 5 is_stmt 1 discriminator 4 view .LVU400
 1109              	.LVL123:
 386:Drivers/lvgl/src/draw/sw/lv_draw_sw_line.c ****     lv_memset_ff(mask_buf, mask_buf_size);
 1110              		.loc 1 386 5 discriminator 4 view .LVU401
 1111 0192 4946     		mov	r1, r9
 1112 0194 FFF7FEFF 		bl	lv_memset_ff
 1113              	.LVL124:
 387:Drivers/lvgl/src/draw/sw/lv_draw_sw_line.c **** 
 388:Drivers/lvgl/src/draw/sw/lv_draw_sw_line.c ****     lv_draw_sw_blend_dsc_t blend_dsc;
 1114              		.loc 1 388 5 discriminator 4 view .LVU402
 389:Drivers/lvgl/src/draw/sw/lv_draw_sw_line.c ****     lv_memset_00(&blend_dsc, sizeof(blend_dsc));
 1115              		.loc 1 389 5 discriminator 4 view .LVU403
 1116 0198 1C21     		movs	r1, #28
 1117 019a 09A8     		add	r0, sp, #36
 1118 019c FFF7FEFF 		bl	lv_memset_00
 1119              	.LVL125:
 390:Drivers/lvgl/src/draw/sw/lv_draw_sw_line.c ****     blend_dsc.blend_area = &blend_area;
 1120              		.loc 1 390 5 discriminator 4 view .LVU404
 1121              		.loc 1 390 26 is_stmt 0 discriminator 4 view .LVU405
 1122 01a0 3CAB     		add	r3, sp, #240
 1123 01a2 0993     		str	r3, [sp, #36]
 391:Drivers/lvgl/src/draw/sw/lv_draw_sw_line.c ****     blend_dsc.color = dsc->color;
 1124              		.loc 1 391 5 is_stmt 1 discriminator 4 view .LVU406
 1125              		.loc 1 391 21 is_stmt 0 discriminator 4 view .LVU407
 1126 01a4 2288     		ldrh	r2, [r4]
 1127 01a6 ADF82C20 		strh	r2, [sp, #44]	@ movhi
 392:Drivers/lvgl/src/draw/sw/lv_draw_sw_line.c ****     blend_dsc.opa = dsc->opa;
 1128              		.loc 1 392 5 is_stmt 1 discriminator 4 view .LVU408
 1129              		.loc 1 392 24 is_stmt 0 discriminator 4 view .LVU409
 1130 01aa 227A     		ldrb	r2, [r4, #8]	@ zero_extendqisi2
 1131              		.loc 1 392 19 discriminator 4 view .LVU410
 1132 01ac 8DF83C20 		strb	r2, [sp, #60]
 393:Drivers/lvgl/src/draw/sw/lv_draw_sw_line.c ****     blend_dsc.mask_buf = mask_buf;
 1133              		.loc 1 393 5 is_stmt 1 discriminator 4 view .LVU411
 1134              		.loc 1 393 24 is_stmt 0 discriminator 4 view .LVU412
 1135 01b0 CDF83080 		str	r8, [sp, #48]
 394:Drivers/lvgl/src/draw/sw/lv_draw_sw_line.c ****     blend_dsc.mask_area = &blend_area;
 1136              		.loc 1 394 5 is_stmt 1 discriminator 4 view .LVU413
 1137              		.loc 1 394 25 is_stmt 0 discriminator 4 view .LVU414
 1138 01b4 0E93     		str	r3, [sp, #56]
 395:Drivers/lvgl/src/draw/sw/lv_draw_sw_line.c **** 
 396:Drivers/lvgl/src/draw/sw/lv_draw_sw_line.c ****     /*Fill the first row with 'color'*/
 397:Drivers/lvgl/src/draw/sw/lv_draw_sw_line.c ****     for(h = blend_area.y1; h <= y2; h++) {
 1139              		.loc 1 397 5 is_stmt 1 discriminator 4 view .LVU415
 1140              		.loc 1 397 23 is_stmt 0 discriminator 4 view .LVU416
 1141 01b6 BDF9F260 		ldrsh	r6, [sp, #242]
 1142              	.LVL126:
 385:Drivers/lvgl/src/draw/sw/lv_draw_sw_line.c ****     lv_memset_ff(mask_buf, mask_buf_size);
 1143              		.loc 1 385 14 discriminator 4 view .LVU417
 1144 01ba 0024     		movs	r4, #0
 1145              	.LVL127:
ARM GAS  /var/folders/0z/tsy30v1j4xl4_7kw94k978ww0000gn/T//cczCdckk.s 			page 32


 1146              		.loc 1 397 5 discriminator 4 view .LVU418
 1147 01bc 95E0     		b	.L58
 1148              	.LVL128:
 1149              	.L47:
 292:Drivers/lvgl/src/draw/sw/lv_draw_sw_line.c ****         p2.y = point1->y;
 1150              		.loc 1 292 9 is_stmt 1 view .LVU419
 292:Drivers/lvgl/src/draw/sw/lv_draw_sw_line.c ****         p2.y = point1->y;
 1151              		.loc 1 292 14 is_stmt 0 view .LVU420
 1152 01be ADF8FE00 		strh	r0, [sp, #254]	@ movhi
 293:Drivers/lvgl/src/draw/sw/lv_draw_sw_line.c ****         p1.x = point2->x;
 1153              		.loc 1 293 9 is_stmt 1 view .LVU421
 293:Drivers/lvgl/src/draw/sw/lv_draw_sw_line.c ****         p1.x = point2->x;
 1154              		.loc 1 293 14 is_stmt 0 view .LVU422
 1155 01c2 ADF8FA10 		strh	r1, [sp, #250]	@ movhi
 294:Drivers/lvgl/src/draw/sw/lv_draw_sw_line.c ****         p2.x = point1->x;
 1156              		.loc 1 294 9 is_stmt 1 view .LVU423
 294:Drivers/lvgl/src/draw/sw/lv_draw_sw_line.c ****         p2.x = point1->x;
 1157              		.loc 1 294 22 is_stmt 0 view .LVU424
 1158 01c6 B3F90030 		ldrsh	r3, [r3]
 1159              	.LVL129:
 294:Drivers/lvgl/src/draw/sw/lv_draw_sw_line.c ****         p2.x = point1->x;
 1160              		.loc 1 294 14 view .LVU425
 1161 01ca ADF8FC30 		strh	r3, [sp, #252]	@ movhi
 295:Drivers/lvgl/src/draw/sw/lv_draw_sw_line.c ****     }
 1162              		.loc 1 295 9 is_stmt 1 view .LVU426
 295:Drivers/lvgl/src/draw/sw/lv_draw_sw_line.c ****     }
 1163              		.loc 1 295 22 is_stmt 0 view .LVU427
 1164 01ce B2F90030 		ldrsh	r3, [r2]
 295:Drivers/lvgl/src/draw/sw/lv_draw_sw_line.c ****     }
 1165              		.loc 1 295 14 view .LVU428
 1166 01d2 ADF8F830 		strh	r3, [sp, #248]	@ movhi
 1167 01d6 2BE7     		b	.L48
 1168              	.LVL130:
 1169              	.L49:
 313:Drivers/lvgl/src/draw/sw/lv_draw_sw_line.c **** 
 1170              		.loc 1 313 10 is_stmt 1 view .LVU429
 313:Drivers/lvgl/src/draw/sw/lv_draw_sw_line.c **** 
 1171              		.loc 1 313 35 is_stmt 0 view .LVU430
 1172 01d8 4FEA4B13 		lsl	r3, fp, #5
 1173              	.LVL131:
 313:Drivers/lvgl/src/draw/sw/lv_draw_sw_line.c **** 
 1174              		.loc 1 313 18 view .LVU431
 1175 01dc 93FBFAF3 		sdiv	r3, r3, r10
 1176              	.LVL132:
 313:Drivers/lvgl/src/draw/sw/lv_draw_sw_line.c **** 
 1177              		.loc 1 313 18 view .LVU432
 1178 01e0 44E7     		b	.L50
 1179              	.LVL133:
 1180              	.L54:
 344:Drivers/lvgl/src/draw/sw/lv_draw_sw_line.c ****                                           LV_DRAW_MASK_LINE_SIDE_LEFT);
 1181              		.loc 1 344 13 is_stmt 1 view .LVU433
 344:Drivers/lvgl/src/draw/sw/lv_draw_sw_line.c ****                                           LV_DRAW_MASK_LINE_SIDE_LEFT);
 1182              		.loc 1 344 69 is_stmt 0 view .LVU434
 1183 01e2 1FFA88F2 		uxth	r2, r8
 344:Drivers/lvgl/src/draw/sw/lv_draw_sw_line.c ****                                           LV_DRAW_MASK_LINE_SIDE_LEFT);
 1184              		.loc 1 344 72 view .LVU435
 1185 01e6 BDF81430 		ldrh	r3, [sp, #20]
ARM GAS  /var/folders/0z/tsy30v1j4xl4_7kw94k978ww0000gn/T//cczCdckk.s 			page 33


 1186 01ea 9346     		mov	fp, r2
 1187              	.LVL134:
 344:Drivers/lvgl/src/draw/sw/lv_draw_sw_line.c ****                                           LV_DRAW_MASK_LINE_SIDE_LEFT);
 1188              		.loc 1 344 72 view .LVU436
 1189 01ec 1A44     		add	r2, r2, r3
 344:Drivers/lvgl/src/draw/sw/lv_draw_sw_line.c ****                                           LV_DRAW_MASK_LINE_SIDE_LEFT);
 1190              		.loc 1 344 91 view .LVU437
 1191 01ee 1FFA87FA 		uxth	r10, r7
 1192              	.LVL135:
 344:Drivers/lvgl/src/draw/sw/lv_draw_sw_line.c ****                                           LV_DRAW_MASK_LINE_SIDE_LEFT);
 1193              		.loc 1 344 94 view .LVU438
 1194 01f2 5344     		add	r3, r3, r10
 344:Drivers/lvgl/src/draw/sw/lv_draw_sw_line.c ****                                           LV_DRAW_MASK_LINE_SIDE_LEFT);
 1195              		.loc 1 344 13 view .LVU439
 1196 01f4 0021     		movs	r1, #0
 1197 01f6 0191     		str	r1, [sp, #4]
 1198 01f8 1BB2     		sxth	r3, r3
 1199 01fa 0093     		str	r3, [sp]
 1200 01fc 2B46     		mov	r3, r5
 1201 01fe 12B2     		sxth	r2, r2
 1202 0200 3146     		mov	r1, r6
 1203 0202 31A8     		add	r0, sp, #196
 1204              	.LVL136:
 344:Drivers/lvgl/src/draw/sw/lv_draw_sw_line.c ****                                           LV_DRAW_MASK_LINE_SIDE_LEFT);
 1205              		.loc 1 344 13 view .LVU440
 1206 0204 FFF7FEFF 		bl	lv_draw_mask_line_points_init
 1207              	.LVL137:
 346:Drivers/lvgl/src/draw/sw/lv_draw_sw_line.c ****                                           LV_DRAW_MASK_LINE_SIDE_RIGHT);
 1208              		.loc 1 346 13 is_stmt 1 view .LVU441
 346:Drivers/lvgl/src/draw/sw/lv_draw_sw_line.c ****                                           LV_DRAW_MASK_LINE_SIDE_RIGHT);
 1209              		.loc 1 346 73 is_stmt 0 view .LVU442
 1210 0208 BDF81030 		ldrh	r3, [sp, #16]
 1211 020c ABEB0302 		sub	r2, fp, r3
 346:Drivers/lvgl/src/draw/sw/lv_draw_sw_line.c ****                                           LV_DRAW_MASK_LINE_SIDE_RIGHT);
 1212              		.loc 1 346 95 view .LVU443
 1213 0210 AAEB030A 		sub	r10, r10, r3
 346:Drivers/lvgl/src/draw/sw/lv_draw_sw_line.c ****                                           LV_DRAW_MASK_LINE_SIDE_RIGHT);
 1214              		.loc 1 346 13 view .LVU444
 1215 0214 0123     		movs	r3, #1
 1216 0216 0193     		str	r3, [sp, #4]
 1217 0218 0FFA8AF3 		sxth	r3, r10
 1218 021c 0093     		str	r3, [sp]
 1219 021e 2B46     		mov	r3, r5
 1220 0220 12B2     		sxth	r2, r2
 1221 0222 3146     		mov	r1, r6
 1222 0224 26A8     		add	r0, sp, #152
 1223 0226 FFF7FEFF 		bl	lv_draw_mask_line_points_init
 1224              	.LVL138:
 1225 022a 81E7     		b	.L55
 1226              	.LVL139:
 1227              	.L53:
 351:Drivers/lvgl/src/draw/sw/lv_draw_sw_line.c ****                                       LV_DRAW_MASK_LINE_SIDE_LEFT);
 1228              		.loc 1 351 9 is_stmt 1 view .LVU445
 351:Drivers/lvgl/src/draw/sw/lv_draw_sw_line.c ****                                       LV_DRAW_MASK_LINE_SIDE_LEFT);
 1229              		.loc 1 351 59 is_stmt 0 view .LVU446
 1230 022c B2B2     		uxth	r2, r6
 351:Drivers/lvgl/src/draw/sw/lv_draw_sw_line.c ****                                       LV_DRAW_MASK_LINE_SIDE_LEFT);
ARM GAS  /var/folders/0z/tsy30v1j4xl4_7kw94k978ww0000gn/T//cczCdckk.s 			page 34


 1231              		.loc 1 351 62 view .LVU447
 1232 022e BDF81430 		ldrh	r3, [sp, #20]
 1233 0232 9346     		mov	fp, r2
 1234              	.LVL140:
 351:Drivers/lvgl/src/draw/sw/lv_draw_sw_line.c ****                                       LV_DRAW_MASK_LINE_SIDE_LEFT);
 1235              		.loc 1 351 62 view .LVU448
 1236 0234 D118     		adds	r1, r2, r3
 351:Drivers/lvgl/src/draw/sw/lv_draw_sw_line.c ****                                       LV_DRAW_MASK_LINE_SIDE_LEFT);
 1237              		.loc 1 351 81 view .LVU449
 1238 0236 1FFA85FA 		uxth	r10, r5
 1239              	.LVL141:
 351:Drivers/lvgl/src/draw/sw/lv_draw_sw_line.c ****                                       LV_DRAW_MASK_LINE_SIDE_LEFT);
 1240              		.loc 1 351 84 view .LVU450
 1241 023a 5344     		add	r3, r3, r10
 351:Drivers/lvgl/src/draw/sw/lv_draw_sw_line.c ****                                       LV_DRAW_MASK_LINE_SIDE_LEFT);
 1242              		.loc 1 351 9 view .LVU451
 1243 023c 0022     		movs	r2, #0
 1244 023e 0192     		str	r2, [sp, #4]
 1245 0240 0097     		str	r7, [sp]
 1246 0242 1BB2     		sxth	r3, r3
 1247 0244 4246     		mov	r2, r8
 1248 0246 09B2     		sxth	r1, r1
 1249 0248 31A8     		add	r0, sp, #196
 1250              	.LVL142:
 351:Drivers/lvgl/src/draw/sw/lv_draw_sw_line.c ****                                       LV_DRAW_MASK_LINE_SIDE_LEFT);
 1251              		.loc 1 351 9 view .LVU452
 1252 024a FFF7FEFF 		bl	lv_draw_mask_line_points_init
 1253              	.LVL143:
 353:Drivers/lvgl/src/draw/sw/lv_draw_sw_line.c ****                                       LV_DRAW_MASK_LINE_SIDE_RIGHT);
 1254              		.loc 1 353 9 is_stmt 1 view .LVU453
 353:Drivers/lvgl/src/draw/sw/lv_draw_sw_line.c ****                                       LV_DRAW_MASK_LINE_SIDE_RIGHT);
 1255              		.loc 1 353 63 is_stmt 0 view .LVU454
 1256 024e BDF81030 		ldrh	r3, [sp, #16]
 1257 0252 ABEB0301 		sub	r1, fp, r3
 353:Drivers/lvgl/src/draw/sw/lv_draw_sw_line.c ****                                       LV_DRAW_MASK_LINE_SIDE_RIGHT);
 1258              		.loc 1 353 85 view .LVU455
 1259 0256 AAEB0303 		sub	r3, r10, r3
 353:Drivers/lvgl/src/draw/sw/lv_draw_sw_line.c ****                                       LV_DRAW_MASK_LINE_SIDE_RIGHT);
 1260              		.loc 1 353 9 view .LVU456
 1261 025a 0122     		movs	r2, #1
 1262 025c 0192     		str	r2, [sp, #4]
 1263 025e 0097     		str	r7, [sp]
 1264 0260 1BB2     		sxth	r3, r3
 1265 0262 4246     		mov	r2, r8
 1266 0264 09B2     		sxth	r1, r1
 1267 0266 26A8     		add	r0, sp, #152
 1268 0268 FFF7FEFF 		bl	lv_draw_mask_line_points_init
 1269              	.LVL144:
 1270 026c 60E7     		b	.L55
 1271              	.LVL145:
 1272              	.L68:
 365:Drivers/lvgl/src/draw/sw/lv_draw_sw_line.c ****         lv_draw_mask_line_points_init(&mask_bottom_param, p2.x, p2.y, p2.x - ydiff, p2.y + xdiff,  
 1273              		.loc 1 365 9 is_stmt 1 view .LVU457
 365:Drivers/lvgl/src/draw/sw/lv_draw_sw_line.c ****         lv_draw_mask_line_points_init(&mask_bottom_param, p2.x, p2.y, p2.x - ydiff, p2.y + xdiff,  
 1274              		.loc 1 365 70 is_stmt 0 view .LVU458
 1275 026e B3B2     		uxth	r3, r6
 365:Drivers/lvgl/src/draw/sw/lv_draw_sw_line.c ****         lv_draw_mask_line_points_init(&mask_bottom_param, p2.x, p2.y, p2.x - ydiff, p2.y + xdiff,  
ARM GAS  /var/folders/0z/tsy30v1j4xl4_7kw94k978ww0000gn/T//cczCdckk.s 			page 35


 1276              		.loc 1 365 73 view .LVU459
 1277 0270 BDF81CA0 		ldrh	r10, [sp, #28]
 1278 0274 A3EB0A03 		sub	r3, r3, r10
 365:Drivers/lvgl/src/draw/sw/lv_draw_sw_line.c ****         lv_draw_mask_line_points_init(&mask_bottom_param, p2.x, p2.y, p2.x - ydiff, p2.y + xdiff,  
 1279              		.loc 1 365 87 view .LVU460
 1280 0278 1FFA89F9 		uxth	r9, r9
 1281              	.LVL146:
 365:Drivers/lvgl/src/draw/sw/lv_draw_sw_line.c ****         lv_draw_mask_line_points_init(&mask_bottom_param, p2.x, p2.y, p2.x - ydiff, p2.y + xdiff,  
 1282              		.loc 1 365 87 view .LVU461
 1283 027c 19FA88F2 		uxtah	r2, r9, r8
 365:Drivers/lvgl/src/draw/sw/lv_draw_sw_line.c ****         lv_draw_mask_line_points_init(&mask_bottom_param, p2.x, p2.y, p2.x - ydiff, p2.y + xdiff,  
 1284              		.loc 1 365 9 view .LVU462
 1285 0280 0321     		movs	r1, #3
 1286 0282 0191     		str	r1, [sp, #4]
 1287 0284 12B2     		sxth	r2, r2
 1288 0286 0092     		str	r2, [sp]
 1289 0288 1BB2     		sxth	r3, r3
 1290 028a 4246     		mov	r2, r8
 1291 028c 3146     		mov	r1, r6
 1292 028e 1BA8     		add	r0, sp, #108
 1293 0290 FFF7FEFF 		bl	lv_draw_mask_line_points_init
 1294              	.LVL147:
 366:Drivers/lvgl/src/draw/sw/lv_draw_sw_line.c ****         mask_top_id = lv_draw_mask_add(&mask_top_param, NULL);
 1295              		.loc 1 366 9 is_stmt 1 view .LVU463
 366:Drivers/lvgl/src/draw/sw/lv_draw_sw_line.c ****         mask_top_id = lv_draw_mask_add(&mask_top_param, NULL);
 1296              		.loc 1 366 73 is_stmt 0 view .LVU464
 1297 0294 ABB2     		uxth	r3, r5
 366:Drivers/lvgl/src/draw/sw/lv_draw_sw_line.c ****         mask_top_id = lv_draw_mask_add(&mask_top_param, NULL);
 1298              		.loc 1 366 76 view .LVU465
 1299 0296 A3EB0A03 		sub	r3, r3, r10
 366:Drivers/lvgl/src/draw/sw/lv_draw_sw_line.c ****         mask_top_id = lv_draw_mask_add(&mask_top_param, NULL);
 1300              		.loc 1 366 90 view .LVU466
 1301 029a 19FA87F9 		uxtah	r9, r9, r7
 366:Drivers/lvgl/src/draw/sw/lv_draw_sw_line.c ****         mask_top_id = lv_draw_mask_add(&mask_top_param, NULL);
 1302              		.loc 1 366 9 view .LVU467
 1303 029e 0222     		movs	r2, #2
 1304 02a0 0192     		str	r2, [sp, #4]
 1305 02a2 0FFA89F2 		sxth	r2, r9
 1306 02a6 0092     		str	r2, [sp]
 1307 02a8 1BB2     		sxth	r3, r3
 1308 02aa 3A46     		mov	r2, r7
 1309 02ac 2946     		mov	r1, r5
 1310 02ae 10A8     		add	r0, sp, #64
 1311 02b0 FFF7FEFF 		bl	lv_draw_mask_line_points_init
 1312              	.LVL148:
 367:Drivers/lvgl/src/draw/sw/lv_draw_sw_line.c ****         mask_bottom_id = lv_draw_mask_add(&mask_bottom_param, NULL);
 1313              		.loc 1 367 9 is_stmt 1 view .LVU468
 367:Drivers/lvgl/src/draw/sw/lv_draw_sw_line.c ****         mask_bottom_id = lv_draw_mask_add(&mask_bottom_param, NULL);
 1314              		.loc 1 367 23 is_stmt 0 view .LVU469
 1315 02b4 0021     		movs	r1, #0
 1316 02b6 1BA8     		add	r0, sp, #108
 1317 02b8 FFF7FEFF 		bl	lv_draw_mask_add
 1318              	.LVL149:
 1319 02bc 0490     		str	r0, [sp, #16]
 1320              	.LVL150:
 368:Drivers/lvgl/src/draw/sw/lv_draw_sw_line.c ****     }
 1321              		.loc 1 368 9 is_stmt 1 view .LVU470
ARM GAS  /var/folders/0z/tsy30v1j4xl4_7kw94k978ww0000gn/T//cczCdckk.s 			page 36


 368:Drivers/lvgl/src/draw/sw/lv_draw_sw_line.c ****     }
 1322              		.loc 1 368 26 is_stmt 0 view .LVU471
 1323 02be 0021     		movs	r1, #0
 1324 02c0 10A8     		add	r0, sp, #64
 1325 02c2 FFF7FEFF 		bl	lv_draw_mask_add
 1326              	.LVL151:
 1327 02c6 8346     		mov	fp, r0
 1328              	.LVL152:
 368:Drivers/lvgl/src/draw/sw/lv_draw_sw_line.c ****     }
 1329              		.loc 1 368 26 view .LVU472
 1330 02c8 45E7     		b	.L56
 1331              	.LVL153:
 1332              	.L69:
 379:Drivers/lvgl/src/draw/sw/lv_draw_sw_line.c ****     lv_opa_t * mask_buf = lv_mem_buf_get(mask_buf_size);
 1333              		.loc 1 379 28 discriminator 1 view .LVU473
 1334 02ca 3CA8     		add	r0, sp, #240
 1335 02cc FFF7FEFF 		bl	lv_area_get_size
 1336              	.LVL154:
 1337 02d0 8146     		mov	r9, r0
 1338 02d2 54E7     		b	.L57
 1339              	.LVL155:
 1340              	.L71:
 398:Drivers/lvgl/src/draw/sw/lv_draw_sw_line.c ****         blend_dsc.mask_res = lv_draw_mask_apply(&mask_buf[mask_p], blend_area.x1, h, draw_area_w);
 399:Drivers/lvgl/src/draw/sw/lv_draw_sw_line.c ****         if(blend_dsc.mask_res == LV_DRAW_MASK_RES_TRANSP) {
 400:Drivers/lvgl/src/draw/sw/lv_draw_sw_line.c ****             lv_memset_00(&mask_buf[mask_p], draw_area_w);
 1341              		.loc 1 400 13 is_stmt 1 view .LVU474
 1342 02d4 2946     		mov	r1, r5
 1343 02d6 3846     		mov	r0, r7
 1344 02d8 FFF7FEFF 		bl	lv_memset_00
 1345              	.LVL156:
 1346 02dc 14E0     		b	.L59
 1347              	.L72:
 401:Drivers/lvgl/src/draw/sw/lv_draw_sw_line.c ****         }
 402:Drivers/lvgl/src/draw/sw/lv_draw_sw_line.c **** 
 403:Drivers/lvgl/src/draw/sw/lv_draw_sw_line.c ****         mask_p += draw_area_w;
 404:Drivers/lvgl/src/draw/sw/lv_draw_sw_line.c ****         if((uint32_t) mask_p + draw_area_w < mask_buf_size) {
 405:Drivers/lvgl/src/draw/sw/lv_draw_sw_line.c ****             blend_area.y2 ++;
 1348              		.loc 1 405 13 view .LVU475
 1349              		.loc 1 405 23 is_stmt 0 view .LVU476
 1350 02de BDF9F630 		ldrsh	r3, [sp, #246]
 1351              		.loc 1 405 27 view .LVU477
 1352 02e2 0133     		adds	r3, r3, #1
 1353 02e4 ADF8F630 		strh	r3, [sp, #246]	@ movhi
 1354              	.LVL157:
 1355              	.L61:
 397:Drivers/lvgl/src/draw/sw/lv_draw_sw_line.c ****         blend_dsc.mask_res = lv_draw_mask_apply(&mask_buf[mask_p], blend_area.x1, h, draw_area_w);
 1356              		.loc 1 397 38 is_stmt 1 discriminator 2 view .LVU478
 1357 02e8 0136     		adds	r6, r6, #1
 1358              	.LVL158:
 1359              	.L58:
 397:Drivers/lvgl/src/draw/sw/lv_draw_sw_line.c ****         blend_dsc.mask_res = lv_draw_mask_apply(&mask_buf[mask_p], blend_area.x1, h, draw_area_w);
 1360              		.loc 1 397 30 discriminator 1 view .LVU479
 1361 02ea B245     		cmp	r10, r6
 1362 02ec 25DB     		blt	.L70
 398:Drivers/lvgl/src/draw/sw/lv_draw_sw_line.c ****         blend_dsc.mask_res = lv_draw_mask_apply(&mask_buf[mask_p], blend_area.x1, h, draw_area_w);
 1363              		.loc 1 398 9 view .LVU480
 398:Drivers/lvgl/src/draw/sw/lv_draw_sw_line.c ****         blend_dsc.mask_res = lv_draw_mask_apply(&mask_buf[mask_p], blend_area.x1, h, draw_area_w);
ARM GAS  /var/folders/0z/tsy30v1j4xl4_7kw94k978ww0000gn/T//cczCdckk.s 			page 37


 1364              		.loc 1 398 30 is_stmt 0 view .LVU481
 1365 02ee 08EB0407 		add	r7, r8, r4
 1366 02f2 2B46     		mov	r3, r5
 1367 02f4 32B2     		sxth	r2, r6
 1368 02f6 BDF9F010 		ldrsh	r1, [sp, #240]
 1369 02fa 3846     		mov	r0, r7
 1370 02fc FFF7FEFF 		bl	lv_draw_mask_apply
 1371              	.LVL159:
 398:Drivers/lvgl/src/draw/sw/lv_draw_sw_line.c ****         blend_dsc.mask_res = lv_draw_mask_apply(&mask_buf[mask_p], blend_area.x1, h, draw_area_w);
 1372              		.loc 1 398 28 view .LVU482
 1373 0300 8DF83400 		strb	r0, [sp, #52]
 399:Drivers/lvgl/src/draw/sw/lv_draw_sw_line.c ****             lv_memset_00(&mask_buf[mask_p], draw_area_w);
 1374              		.loc 1 399 9 is_stmt 1 view .LVU483
 399:Drivers/lvgl/src/draw/sw/lv_draw_sw_line.c ****             lv_memset_00(&mask_buf[mask_p], draw_area_w);
 1375              		.loc 1 399 11 is_stmt 0 view .LVU484
 1376 0304 0028     		cmp	r0, #0
 1377 0306 E5D0     		beq	.L71
 1378              	.L59:
 403:Drivers/lvgl/src/draw/sw/lv_draw_sw_line.c ****         if((uint32_t) mask_p + draw_area_w < mask_buf_size) {
 1379              		.loc 1 403 9 is_stmt 1 view .LVU485
 403:Drivers/lvgl/src/draw/sw/lv_draw_sw_line.c ****         if((uint32_t) mask_p + draw_area_w < mask_buf_size) {
 1380              		.loc 1 403 16 is_stmt 0 view .LVU486
 1381 0308 2C44     		add	r4, r4, r5
 1382              	.LVL160:
 404:Drivers/lvgl/src/draw/sw/lv_draw_sw_line.c ****             blend_area.y2 ++;
 1383              		.loc 1 404 9 is_stmt 1 view .LVU487
 404:Drivers/lvgl/src/draw/sw/lv_draw_sw_line.c ****             blend_area.y2 ++;
 1384              		.loc 1 404 30 is_stmt 0 view .LVU488
 1385 030a 2B19     		adds	r3, r5, r4
 404:Drivers/lvgl/src/draw/sw/lv_draw_sw_line.c ****             blend_area.y2 ++;
 1386              		.loc 1 404 11 view .LVU489
 1387 030c 4B45     		cmp	r3, r9
 1388 030e E6D3     		bcc	.L72
 406:Drivers/lvgl/src/draw/sw/lv_draw_sw_line.c ****         }
 407:Drivers/lvgl/src/draw/sw/lv_draw_sw_line.c ****         else {
 408:Drivers/lvgl/src/draw/sw/lv_draw_sw_line.c ****             blend_dsc.mask_res = LV_DRAW_MASK_RES_CHANGED;
 1389              		.loc 1 408 13 is_stmt 1 view .LVU490
 1390              		.loc 1 408 32 is_stmt 0 view .LVU491
 1391 0310 0223     		movs	r3, #2
 1392 0312 8DF83430 		strb	r3, [sp, #52]
 409:Drivers/lvgl/src/draw/sw/lv_draw_sw_line.c ****             lv_draw_sw_blend(draw_ctx, &blend_dsc);
 1393              		.loc 1 409 13 is_stmt 1 view .LVU492
 1394 0316 09A9     		add	r1, sp, #36
 1395 0318 0398     		ldr	r0, [sp, #12]
 1396 031a FFF7FEFF 		bl	lv_draw_sw_blend
 1397              	.LVL161:
 410:Drivers/lvgl/src/draw/sw/lv_draw_sw_line.c **** 
 411:Drivers/lvgl/src/draw/sw/lv_draw_sw_line.c ****             blend_area.y1 = blend_area.y2 + 1;
 1398              		.loc 1 411 13 view .LVU493
 1399              		.loc 1 411 39 is_stmt 0 view .LVU494
 1400 031e BDF8F630 		ldrh	r3, [sp, #246]
 1401              		.loc 1 411 43 view .LVU495
 1402 0322 0133     		adds	r3, r3, #1
 1403 0324 1BB2     		sxth	r3, r3
 1404              		.loc 1 411 27 view .LVU496
 1405 0326 ADF8F230 		strh	r3, [sp, #242]	@ movhi
 412:Drivers/lvgl/src/draw/sw/lv_draw_sw_line.c ****             blend_area.y2 = blend_area.y1;
ARM GAS  /var/folders/0z/tsy30v1j4xl4_7kw94k978ww0000gn/T//cczCdckk.s 			page 38


 1406              		.loc 1 412 13 is_stmt 1 view .LVU497
 1407              		.loc 1 412 27 is_stmt 0 view .LVU498
 1408 032a ADF8F630 		strh	r3, [sp, #246]	@ movhi
 413:Drivers/lvgl/src/draw/sw/lv_draw_sw_line.c ****             mask_p = 0;
 1409              		.loc 1 413 13 is_stmt 1 view .LVU499
 1410              	.LVL162:
 414:Drivers/lvgl/src/draw/sw/lv_draw_sw_line.c ****             lv_memset_ff(mask_buf, mask_buf_size);
 1411              		.loc 1 414 13 view .LVU500
 1412 032e 4946     		mov	r1, r9
 1413 0330 4046     		mov	r0, r8
 1414 0332 FFF7FEFF 		bl	lv_memset_ff
 1415              	.LVL163:
 413:Drivers/lvgl/src/draw/sw/lv_draw_sw_line.c ****             mask_p = 0;
 1416              		.loc 1 413 20 is_stmt 0 view .LVU501
 1417 0336 0024     		movs	r4, #0
 1418 0338 D6E7     		b	.L61
 1419              	.LVL164:
 1420              	.L70:
 415:Drivers/lvgl/src/draw/sw/lv_draw_sw_line.c ****         }
 416:Drivers/lvgl/src/draw/sw/lv_draw_sw_line.c ****     }
 417:Drivers/lvgl/src/draw/sw/lv_draw_sw_line.c **** 
 418:Drivers/lvgl/src/draw/sw/lv_draw_sw_line.c ****     /*Flush the last part*/
 419:Drivers/lvgl/src/draw/sw/lv_draw_sw_line.c ****     if(blend_area.y1 != blend_area.y2) {
 1421              		.loc 1 419 5 is_stmt 1 view .LVU502
 1422              		.loc 1 419 18 is_stmt 0 view .LVU503
 1423 033a BDF9F220 		ldrsh	r2, [sp, #242]
 1424              		.loc 1 419 35 view .LVU504
 1425 033e BDF9F630 		ldrsh	r3, [sp, #246]
 1426              		.loc 1 419 7 view .LVU505
 1427 0342 9A42     		cmp	r2, r3
 1428 0344 20D1     		bne	.L73
 1429              	.L63:
 420:Drivers/lvgl/src/draw/sw/lv_draw_sw_line.c ****         blend_area.y2--;
 421:Drivers/lvgl/src/draw/sw/lv_draw_sw_line.c ****         blend_dsc.mask_res = LV_DRAW_MASK_RES_CHANGED;
 422:Drivers/lvgl/src/draw/sw/lv_draw_sw_line.c ****         lv_draw_sw_blend(draw_ctx, &blend_dsc);
 423:Drivers/lvgl/src/draw/sw/lv_draw_sw_line.c ****     }
 424:Drivers/lvgl/src/draw/sw/lv_draw_sw_line.c **** 
 425:Drivers/lvgl/src/draw/sw/lv_draw_sw_line.c ****     lv_mem_buf_release(mask_buf);
 1430              		.loc 1 425 5 is_stmt 1 view .LVU506
 1431 0346 4046     		mov	r0, r8
 1432 0348 FFF7FEFF 		bl	lv_mem_buf_release
 1433              	.LVL165:
 426:Drivers/lvgl/src/draw/sw/lv_draw_sw_line.c **** 
 427:Drivers/lvgl/src/draw/sw/lv_draw_sw_line.c ****     lv_draw_mask_free_param(&mask_left_param);
 1434              		.loc 1 427 5 view .LVU507
 1435 034c 31A8     		add	r0, sp, #196
 1436 034e FFF7FEFF 		bl	lv_draw_mask_free_param
 1437              	.LVL166:
 428:Drivers/lvgl/src/draw/sw/lv_draw_sw_line.c ****     lv_draw_mask_free_param(&mask_right_param);
 1438              		.loc 1 428 5 view .LVU508
 1439 0352 26A8     		add	r0, sp, #152
 1440 0354 FFF7FEFF 		bl	lv_draw_mask_free_param
 1441              	.LVL167:
 429:Drivers/lvgl/src/draw/sw/lv_draw_sw_line.c ****     if(mask_top_id != LV_MASK_ID_INV) lv_draw_mask_free_param(&mask_top_param);
 1442              		.loc 1 429 5 view .LVU509
 1443              		.loc 1 429 7 is_stmt 0 view .LVU510
 1444 0358 049B     		ldr	r3, [sp, #16]
ARM GAS  /var/folders/0z/tsy30v1j4xl4_7kw94k978ww0000gn/T//cczCdckk.s 			page 39


 1445 035a B3F1FF3F 		cmp	r3, #-1
 1446 035e 1ED1     		bne	.L74
 1447              	.L64:
 430:Drivers/lvgl/src/draw/sw/lv_draw_sw_line.c ****     if(mask_bottom_id != LV_MASK_ID_INV) lv_draw_mask_free_param(&mask_bottom_param);
 1448              		.loc 1 430 5 is_stmt 1 view .LVU511
 1449              		.loc 1 430 7 is_stmt 0 view .LVU512
 1450 0360 BBF1FF3F 		cmp	fp, #-1
 1451 0364 1FD1     		bne	.L75
 1452              	.L65:
 431:Drivers/lvgl/src/draw/sw/lv_draw_sw_line.c ****     lv_draw_mask_remove_id(mask_left_id);
 1453              		.loc 1 431 5 is_stmt 1 view .LVU513
 1454 0366 0598     		ldr	r0, [sp, #20]
 1455 0368 FFF7FEFF 		bl	lv_draw_mask_remove_id
 1456              	.LVL168:
 432:Drivers/lvgl/src/draw/sw/lv_draw_sw_line.c ****     lv_draw_mask_remove_id(mask_right_id);
 1457              		.loc 1 432 5 view .LVU514
 1458 036c 0698     		ldr	r0, [sp, #24]
 1459 036e FFF7FEFF 		bl	lv_draw_mask_remove_id
 1460              	.LVL169:
 433:Drivers/lvgl/src/draw/sw/lv_draw_sw_line.c ****     lv_draw_mask_remove_id(mask_top_id);
 1461              		.loc 1 433 5 view .LVU515
 1462 0372 0498     		ldr	r0, [sp, #16]
 1463 0374 FFF7FEFF 		bl	lv_draw_mask_remove_id
 1464              	.LVL170:
 434:Drivers/lvgl/src/draw/sw/lv_draw_sw_line.c ****     lv_draw_mask_remove_id(mask_bottom_id);
 1465              		.loc 1 434 5 view .LVU516
 1466 0378 5846     		mov	r0, fp
 1467 037a FFF7FEFF 		bl	lv_draw_mask_remove_id
 1468              	.LVL171:
 1469              	.L46:
 435:Drivers/lvgl/src/draw/sw/lv_draw_sw_line.c **** #else
 436:Drivers/lvgl/src/draw/sw/lv_draw_sw_line.c ****     LV_UNUSED(point1);
 437:Drivers/lvgl/src/draw/sw/lv_draw_sw_line.c ****     LV_UNUSED(point2);
 438:Drivers/lvgl/src/draw/sw/lv_draw_sw_line.c ****     LV_UNUSED(draw_ctx);
 439:Drivers/lvgl/src/draw/sw/lv_draw_sw_line.c ****     LV_UNUSED(dsc);
 440:Drivers/lvgl/src/draw/sw/lv_draw_sw_line.c ****     LV_LOG_WARN("Can't draw skewed line with LV_DRAW_COMPLEX == 0");
 441:Drivers/lvgl/src/draw/sw/lv_draw_sw_line.c **** #endif /*LV_DRAW_COMPLEX*/
 442:Drivers/lvgl/src/draw/sw/lv_draw_sw_line.c **** }
 1470              		.loc 1 442 1 is_stmt 0 view .LVU517
 1471 037e 41B0     		add	sp, sp, #260
 1472              		.cfi_remember_state
 1473              		.cfi_def_cfa_offset 36
 1474              		@ sp needed
 1475 0380 BDE8F08F 		pop	{r4, r5, r6, r7, r8, r9, r10, fp, pc}
 1476              	.LVL172:
 1477              	.L77:
 1478              		.loc 1 442 1 view .LVU518
 1479              		.align	2
 1480              	.L76:
 1481 0384 00000000 		.word	.LANCHOR0
 1482              	.LVL173:
 1483              	.L73:
 1484              		.cfi_restore_state
 420:Drivers/lvgl/src/draw/sw/lv_draw_sw_line.c ****         blend_dsc.mask_res = LV_DRAW_MASK_RES_CHANGED;
 1485              		.loc 1 420 9 is_stmt 1 view .LVU519
 420:Drivers/lvgl/src/draw/sw/lv_draw_sw_line.c ****         blend_dsc.mask_res = LV_DRAW_MASK_RES_CHANGED;
 1486              		.loc 1 420 22 is_stmt 0 view .LVU520
ARM GAS  /var/folders/0z/tsy30v1j4xl4_7kw94k978ww0000gn/T//cczCdckk.s 			page 40


 1487 0388 013B     		subs	r3, r3, #1
 1488 038a ADF8F630 		strh	r3, [sp, #246]	@ movhi
 421:Drivers/lvgl/src/draw/sw/lv_draw_sw_line.c ****         lv_draw_sw_blend(draw_ctx, &blend_dsc);
 1489              		.loc 1 421 9 is_stmt 1 view .LVU521
 421:Drivers/lvgl/src/draw/sw/lv_draw_sw_line.c ****         lv_draw_sw_blend(draw_ctx, &blend_dsc);
 1490              		.loc 1 421 28 is_stmt 0 view .LVU522
 1491 038e 0223     		movs	r3, #2
 1492 0390 8DF83430 		strb	r3, [sp, #52]
 422:Drivers/lvgl/src/draw/sw/lv_draw_sw_line.c ****     }
 1493              		.loc 1 422 9 is_stmt 1 view .LVU523
 1494 0394 09A9     		add	r1, sp, #36
 1495 0396 0398     		ldr	r0, [sp, #12]
 1496 0398 FFF7FEFF 		bl	lv_draw_sw_blend
 1497              	.LVL174:
 1498 039c D3E7     		b	.L63
 1499              	.L74:
 429:Drivers/lvgl/src/draw/sw/lv_draw_sw_line.c ****     if(mask_bottom_id != LV_MASK_ID_INV) lv_draw_mask_free_param(&mask_bottom_param);
 1500              		.loc 1 429 39 discriminator 1 view .LVU524
 1501 039e 1BA8     		add	r0, sp, #108
 1502 03a0 FFF7FEFF 		bl	lv_draw_mask_free_param
 1503              	.LVL175:
 1504 03a4 DCE7     		b	.L64
 1505              	.L75:
 430:Drivers/lvgl/src/draw/sw/lv_draw_sw_line.c ****     lv_draw_mask_remove_id(mask_left_id);
 1506              		.loc 1 430 42 discriminator 1 view .LVU525
 1507 03a6 10A8     		add	r0, sp, #64
 1508 03a8 FFF7FEFF 		bl	lv_draw_mask_free_param
 1509              	.LVL176:
 1510 03ac DBE7     		b	.L65
 1511              		.cfi_endproc
 1512              	.LFE164:
 1514 03ae 00BF     		.section	.text.lv_draw_sw_line,"ax",%progbits
 1515              		.align	1
 1516              		.global	lv_draw_sw_line
 1517              		.syntax unified
 1518              		.thumb
 1519              		.thumb_func
 1521              	lv_draw_sw_line:
 1522              	.LVL177:
 1523              	.LFB161:
  54:Drivers/lvgl/src/draw/sw/lv_draw_sw_line.c ****     if(dsc->width == 0) return;
 1524              		.loc 1 54 1 view -0
 1525              		.cfi_startproc
 1526              		@ args = 0, pretend = 0, frame = 72
 1527              		@ frame_needed = 0, uses_anonymous_args = 0
  54:Drivers/lvgl/src/draw/sw/lv_draw_sw_line.c ****     if(dsc->width == 0) return;
 1528              		.loc 1 54 1 is_stmt 0 view .LVU527
 1529 0000 2DE9F047 		push	{r4, r5, r6, r7, r8, r9, r10, lr}
 1530              		.cfi_def_cfa_offset 32
 1531              		.cfi_offset 4, -32
 1532              		.cfi_offset 5, -28
 1533              		.cfi_offset 6, -24
 1534              		.cfi_offset 7, -20
 1535              		.cfi_offset 8, -16
 1536              		.cfi_offset 9, -12
 1537              		.cfi_offset 10, -8
 1538              		.cfi_offset 14, -4
ARM GAS  /var/folders/0z/tsy30v1j4xl4_7kw94k978ww0000gn/T//cczCdckk.s 			page 41


 1539 0004 92B0     		sub	sp, sp, #72
 1540              		.cfi_def_cfa_offset 104
 1541 0006 1D46     		mov	r5, r3
  55:Drivers/lvgl/src/draw/sw/lv_draw_sw_line.c ****     if(dsc->opa <= LV_OPA_MIN) return;
 1542              		.loc 1 55 5 is_stmt 1 view .LVU528
  55:Drivers/lvgl/src/draw/sw/lv_draw_sw_line.c ****     if(dsc->opa <= LV_OPA_MIN) return;
 1543              		.loc 1 55 11 is_stmt 0 view .LVU529
 1544 0008 B1F90230 		ldrsh	r3, [r1, #2]
 1545              	.LVL178:
  55:Drivers/lvgl/src/draw/sw/lv_draw_sw_line.c ****     if(dsc->opa <= LV_OPA_MIN) return;
 1546              		.loc 1 55 7 view .LVU530
 1547 000c 002B     		cmp	r3, #0
 1548 000e 62D0     		beq	.L78
 1549 0010 0746     		mov	r7, r0
 1550 0012 0C46     		mov	r4, r1
 1551 0014 1646     		mov	r6, r2
  56:Drivers/lvgl/src/draw/sw/lv_draw_sw_line.c **** 
 1552              		.loc 1 56 5 is_stmt 1 view .LVU531
  56:Drivers/lvgl/src/draw/sw/lv_draw_sw_line.c **** 
 1553              		.loc 1 56 11 is_stmt 0 view .LVU532
 1554 0016 0A7A     		ldrb	r2, [r1, #8]	@ zero_extendqisi2
 1555              	.LVL179:
  56:Drivers/lvgl/src/draw/sw/lv_draw_sw_line.c **** 
 1556              		.loc 1 56 7 view .LVU533
 1557 0018 022A     		cmp	r2, #2
 1558 001a 5CD9     		bls	.L78
  58:Drivers/lvgl/src/draw/sw/lv_draw_sw_line.c **** 
 1559              		.loc 1 58 5 is_stmt 1 view .LVU534
  58:Drivers/lvgl/src/draw/sw/lv_draw_sw_line.c **** 
 1560              		.loc 1 58 14 is_stmt 0 view .LVU535
 1561 001c B6F90020 		ldrsh	r2, [r6]
  58:Drivers/lvgl/src/draw/sw/lv_draw_sw_line.c **** 
 1562              		.loc 1 58 27 view .LVU536
 1563 0020 B5F90010 		ldrsh	r1, [r5]
 1564              	.LVL180:
  58:Drivers/lvgl/src/draw/sw/lv_draw_sw_line.c **** 
 1565              		.loc 1 58 7 view .LVU537
 1566 0024 8A42     		cmp	r2, r1
 1567 0026 05D1     		bne	.L80
  58:Drivers/lvgl/src/draw/sw/lv_draw_sw_line.c **** 
 1568              		.loc 1 58 40 discriminator 1 view .LVU538
 1569 0028 B6F902C0 		ldrsh	ip, [r6, #2]
  58:Drivers/lvgl/src/draw/sw/lv_draw_sw_line.c **** 
 1570              		.loc 1 58 53 discriminator 1 view .LVU539
 1571 002c B5F90200 		ldrsh	r0, [r5, #2]
 1572              	.LVL181:
  58:Drivers/lvgl/src/draw/sw/lv_draw_sw_line.c **** 
 1573              		.loc 1 58 31 discriminator 1 view .LVU540
 1574 0030 8445     		cmp	ip, r0
 1575 0032 50D0     		beq	.L78
 1576              	.L80:
  60:Drivers/lvgl/src/draw/sw/lv_draw_sw_line.c ****     clip_line.x1 = LV_MIN(point1->x, point2->x) - dsc->width / 2;
 1577              		.loc 1 60 5 is_stmt 1 view .LVU541
  61:Drivers/lvgl/src/draw/sw/lv_draw_sw_line.c ****     clip_line.x2 = LV_MAX(point1->x, point2->x) + dsc->width / 2;
 1578              		.loc 1 61 5 view .LVU542
  61:Drivers/lvgl/src/draw/sw/lv_draw_sw_line.c ****     clip_line.x2 = LV_MAX(point1->x, point2->x) + dsc->width / 2;
 1579              		.loc 1 61 20 is_stmt 0 view .LVU543
ARM GAS  /var/folders/0z/tsy30v1j4xl4_7kw94k978ww0000gn/T//cczCdckk.s 			page 42


 1580 0034 8A42     		cmp	r2, r1
 1581 0036 A8BF     		it	ge
 1582 0038 0A46     		movge	r2, r1
 1583 003a 92B2     		uxth	r2, r2
  61:Drivers/lvgl/src/draw/sw/lv_draw_sw_line.c ****     clip_line.x2 = LV_MAX(point1->x, point2->x) + dsc->width / 2;
 1584              		.loc 1 61 49 view .LVU544
 1585 003c 03EBD373 		add	r3, r3, r3, lsr #31
 1586 0040 C3F34F03 		ubfx	r3, r3, #1, #16
 1587 0044 D21A     		subs	r2, r2, r3
  61:Drivers/lvgl/src/draw/sw/lv_draw_sw_line.c ****     clip_line.x2 = LV_MAX(point1->x, point2->x) + dsc->width / 2;
 1588              		.loc 1 61 18 view .LVU545
 1589 0046 ADF84020 		strh	r2, [sp, #64]	@ movhi
  62:Drivers/lvgl/src/draw/sw/lv_draw_sw_line.c ****     clip_line.y1 = LV_MIN(point1->y, point2->y) - dsc->width / 2;
 1590              		.loc 1 62 5 is_stmt 1 view .LVU546
  62:Drivers/lvgl/src/draw/sw/lv_draw_sw_line.c ****     clip_line.y1 = LV_MIN(point1->y, point2->y) - dsc->width / 2;
 1591              		.loc 1 62 20 is_stmt 0 view .LVU547
 1592 004a B5F90020 		ldrsh	r2, [r5]
 1593 004e B6F90010 		ldrsh	r1, [r6]
 1594 0052 8A42     		cmp	r2, r1
 1595 0054 B8BF     		it	lt
 1596 0056 0A46     		movlt	r2, r1
  62:Drivers/lvgl/src/draw/sw/lv_draw_sw_line.c ****     clip_line.y1 = LV_MIN(point1->y, point2->y) - dsc->width / 2;
 1597              		.loc 1 62 49 view .LVU548
 1598 0058 13FA82F3 		uxtah	r3, r3, r2
  62:Drivers/lvgl/src/draw/sw/lv_draw_sw_line.c ****     clip_line.y1 = LV_MIN(point1->y, point2->y) - dsc->width / 2;
 1599              		.loc 1 62 18 view .LVU549
 1600 005c ADF84430 		strh	r3, [sp, #68]	@ movhi
  63:Drivers/lvgl/src/draw/sw/lv_draw_sw_line.c ****     clip_line.y2 = LV_MAX(point1->y, point2->y) + dsc->width / 2;
 1601              		.loc 1 63 5 is_stmt 1 view .LVU550
  63:Drivers/lvgl/src/draw/sw/lv_draw_sw_line.c ****     clip_line.y2 = LV_MAX(point1->y, point2->y) + dsc->width / 2;
 1602              		.loc 1 63 20 is_stmt 0 view .LVU551
 1603 0060 B5F90230 		ldrsh	r3, [r5, #2]
 1604 0064 B6F90200 		ldrsh	r0, [r6, #2]
 1605 0068 1946     		mov	r1, r3
 1606 006a 8342     		cmp	r3, r0
 1607 006c A8BF     		it	ge
 1608 006e 0146     		movge	r1, r0
 1609 0070 89B2     		uxth	r1, r1
  63:Drivers/lvgl/src/draw/sw/lv_draw_sw_line.c ****     clip_line.y2 = LV_MAX(point1->y, point2->y) + dsc->width / 2;
 1610              		.loc 1 63 54 view .LVU552
 1611 0072 B4F90220 		ldrsh	r2, [r4, #2]
  63:Drivers/lvgl/src/draw/sw/lv_draw_sw_line.c ****     clip_line.y2 = LV_MAX(point1->y, point2->y) + dsc->width / 2;
 1612              		.loc 1 63 49 view .LVU553
 1613 0076 02EBD272 		add	r2, r2, r2, lsr #31
 1614 007a A1EB6201 		sub	r1, r1, r2, asr #1
  63:Drivers/lvgl/src/draw/sw/lv_draw_sw_line.c ****     clip_line.y2 = LV_MAX(point1->y, point2->y) + dsc->width / 2;
 1615              		.loc 1 63 18 view .LVU554
 1616 007e ADF84210 		strh	r1, [sp, #66]	@ movhi
  64:Drivers/lvgl/src/draw/sw/lv_draw_sw_line.c **** 
 1617              		.loc 1 64 5 is_stmt 1 view .LVU555
  64:Drivers/lvgl/src/draw/sw/lv_draw_sw_line.c **** 
 1618              		.loc 1 64 20 is_stmt 0 view .LVU556
 1619 0082 8342     		cmp	r3, r0
 1620 0084 B8BF     		it	lt
 1621 0086 0346     		movlt	r3, r0
 1622 0088 9BB2     		uxth	r3, r3
  64:Drivers/lvgl/src/draw/sw/lv_draw_sw_line.c **** 
ARM GAS  /var/folders/0z/tsy30v1j4xl4_7kw94k978ww0000gn/T//cczCdckk.s 			page 43


 1623              		.loc 1 64 49 view .LVU557
 1624 008a 03EB6203 		add	r3, r3, r2, asr #1
  64:Drivers/lvgl/src/draw/sw/lv_draw_sw_line.c **** 
 1625              		.loc 1 64 18 view .LVU558
 1626 008e ADF84630 		strh	r3, [sp, #70]	@ movhi
  66:Drivers/lvgl/src/draw/sw/lv_draw_sw_line.c ****     is_common = _lv_area_intersect(&clip_line, &clip_line, draw_ctx->clip_area);
 1627              		.loc 1 66 5 is_stmt 1 view .LVU559
  67:Drivers/lvgl/src/draw/sw/lv_draw_sw_line.c ****     if(!is_common) return;
 1628              		.loc 1 67 5 view .LVU560
  67:Drivers/lvgl/src/draw/sw/lv_draw_sw_line.c ****     if(!is_common) return;
 1629              		.loc 1 67 17 is_stmt 0 view .LVU561
 1630 0092 BA68     		ldr	r2, [r7, #8]
 1631 0094 10A9     		add	r1, sp, #64
 1632 0096 0846     		mov	r0, r1
 1633 0098 FFF7FEFF 		bl	_lv_area_intersect
 1634              	.LVL182:
  68:Drivers/lvgl/src/draw/sw/lv_draw_sw_line.c ****     const lv_area_t * clip_area_ori = draw_ctx->clip_area;
 1635              		.loc 1 68 5 is_stmt 1 view .LVU562
  68:Drivers/lvgl/src/draw/sw/lv_draw_sw_line.c ****     const lv_area_t * clip_area_ori = draw_ctx->clip_area;
 1636              		.loc 1 68 7 is_stmt 0 view .LVU563
 1637 009c D8B1     		cbz	r0, .L78
  69:Drivers/lvgl/src/draw/sw/lv_draw_sw_line.c ****     draw_ctx->clip_area = &clip_line;
 1638              		.loc 1 69 5 is_stmt 1 view .LVU564
  69:Drivers/lvgl/src/draw/sw/lv_draw_sw_line.c ****     draw_ctx->clip_area = &clip_line;
 1639              		.loc 1 69 23 is_stmt 0 view .LVU565
 1640 009e D7F80890 		ldr	r9, [r7, #8]
 1641              	.LVL183:
  70:Drivers/lvgl/src/draw/sw/lv_draw_sw_line.c **** 
 1642              		.loc 1 70 5 is_stmt 1 view .LVU566
  70:Drivers/lvgl/src/draw/sw/lv_draw_sw_line.c **** 
 1643              		.loc 1 70 25 is_stmt 0 view .LVU567
 1644 00a2 10AB     		add	r3, sp, #64
 1645 00a4 BB60     		str	r3, [r7, #8]
  72:Drivers/lvgl/src/draw/sw/lv_draw_sw_line.c ****     else if(point1->x == point2->x) draw_line_ver(draw_ctx, dsc, point1, point2);
 1646              		.loc 1 72 5 is_stmt 1 view .LVU568
  72:Drivers/lvgl/src/draw/sw/lv_draw_sw_line.c ****     else if(point1->x == point2->x) draw_line_ver(draw_ctx, dsc, point1, point2);
 1647              		.loc 1 72 14 is_stmt 0 view .LVU569
 1648 00a6 B6F90220 		ldrsh	r2, [r6, #2]
  72:Drivers/lvgl/src/draw/sw/lv_draw_sw_line.c ****     else if(point1->x == point2->x) draw_line_ver(draw_ctx, dsc, point1, point2);
 1649              		.loc 1 72 27 view .LVU570
 1650 00aa B5F90230 		ldrsh	r3, [r5, #2]
  72:Drivers/lvgl/src/draw/sw/lv_draw_sw_line.c ****     else if(point1->x == point2->x) draw_line_ver(draw_ctx, dsc, point1, point2);
 1651              		.loc 1 72 7 view .LVU571
 1652 00ae 9A42     		cmp	r2, r3
 1653 00b0 14D0     		beq	.L89
  73:Drivers/lvgl/src/draw/sw/lv_draw_sw_line.c ****     else draw_line_skew(draw_ctx, dsc, point1, point2);
 1654              		.loc 1 73 10 is_stmt 1 view .LVU572
  73:Drivers/lvgl/src/draw/sw/lv_draw_sw_line.c ****     else draw_line_skew(draw_ctx, dsc, point1, point2);
 1655              		.loc 1 73 19 is_stmt 0 view .LVU573
 1656 00b2 B6F90020 		ldrsh	r2, [r6]
  73:Drivers/lvgl/src/draw/sw/lv_draw_sw_line.c ****     else draw_line_skew(draw_ctx, dsc, point1, point2);
 1657              		.loc 1 73 32 view .LVU574
 1658 00b6 B5F90030 		ldrsh	r3, [r5]
  73:Drivers/lvgl/src/draw/sw/lv_draw_sw_line.c ****     else draw_line_skew(draw_ctx, dsc, point1, point2);
 1659              		.loc 1 73 12 view .LVU575
 1660 00ba 9A42     		cmp	r2, r3
 1661 00bc 15D0     		beq	.L90
ARM GAS  /var/folders/0z/tsy30v1j4xl4_7kw94k978ww0000gn/T//cczCdckk.s 			page 44


  74:Drivers/lvgl/src/draw/sw/lv_draw_sw_line.c **** 
 1662              		.loc 1 74 10 is_stmt 1 view .LVU576
 1663 00be 2B46     		mov	r3, r5
 1664 00c0 3246     		mov	r2, r6
 1665 00c2 2146     		mov	r1, r4
 1666 00c4 3846     		mov	r0, r7
 1667              	.LVL184:
  74:Drivers/lvgl/src/draw/sw/lv_draw_sw_line.c **** 
 1668              		.loc 1 74 10 is_stmt 0 view .LVU577
 1669 00c6 FFF7FEFF 		bl	draw_line_skew
 1670              	.LVL185:
 1671              	.L82:
  76:Drivers/lvgl/src/draw/sw/lv_draw_sw_line.c ****         lv_draw_rect_dsc_t cir_dsc;
 1672              		.loc 1 76 5 is_stmt 1 view .LVU578
  76:Drivers/lvgl/src/draw/sw/lv_draw_sw_line.c ****         lv_draw_rect_dsc_t cir_dsc;
 1673              		.loc 1 76 23 is_stmt 0 view .LVU579
 1674 00ca 637A     		ldrb	r3, [r4, #9]	@ zero_extendqisi2
  76:Drivers/lvgl/src/draw/sw/lv_draw_sw_line.c ****         lv_draw_rect_dsc_t cir_dsc;
 1675              		.loc 1 76 7 view .LVU580
 1676 00cc 13F00C0F 		tst	r3, #12
 1677 00d0 12D1     		bne	.L91
 1678              	.L84:
 104:Drivers/lvgl/src/draw/sw/lv_draw_sw_line.c **** }
 1679              		.loc 1 104 5 is_stmt 1 discriminator 1 view .LVU581
 104:Drivers/lvgl/src/draw/sw/lv_draw_sw_line.c **** }
 1680              		.loc 1 104 25 is_stmt 0 discriminator 1 view .LVU582
 1681 00d2 C7F80890 		str	r9, [r7, #8]
 1682              	.LVL186:
 1683              	.L78:
 105:Drivers/lvgl/src/draw/sw/lv_draw_sw_line.c **** 
 1684              		.loc 1 105 1 view .LVU583
 1685 00d6 12B0     		add	sp, sp, #72
 1686              		.cfi_remember_state
 1687              		.cfi_def_cfa_offset 32
 1688              		@ sp needed
 1689 00d8 BDE8F087 		pop	{r4, r5, r6, r7, r8, r9, r10, pc}
 1690              	.LVL187:
 1691              	.L89:
 1692              		.cfi_restore_state
  72:Drivers/lvgl/src/draw/sw/lv_draw_sw_line.c ****     else if(point1->x == point2->x) draw_line_ver(draw_ctx, dsc, point1, point2);
 1693              		.loc 1 72 32 is_stmt 1 discriminator 1 view .LVU584
 1694 00dc 2B46     		mov	r3, r5
 1695 00de 3246     		mov	r2, r6
 1696 00e0 2146     		mov	r1, r4
 1697 00e2 3846     		mov	r0, r7
 1698              	.LVL188:
  72:Drivers/lvgl/src/draw/sw/lv_draw_sw_line.c ****     else if(point1->x == point2->x) draw_line_ver(draw_ctx, dsc, point1, point2);
 1699              		.loc 1 72 32 is_stmt 0 discriminator 1 view .LVU585
 1700 00e4 FFF7FEFF 		bl	draw_line_hor
 1701              	.LVL189:
 1702 00e8 EFE7     		b	.L82
 1703              	.LVL190:
 1704              	.L90:
  73:Drivers/lvgl/src/draw/sw/lv_draw_sw_line.c ****     else draw_line_skew(draw_ctx, dsc, point1, point2);
 1705              		.loc 1 73 37 is_stmt 1 discriminator 1 view .LVU586
 1706 00ea 2B46     		mov	r3, r5
 1707 00ec 3246     		mov	r2, r6
ARM GAS  /var/folders/0z/tsy30v1j4xl4_7kw94k978ww0000gn/T//cczCdckk.s 			page 45


 1708 00ee 2146     		mov	r1, r4
 1709 00f0 3846     		mov	r0, r7
 1710              	.LVL191:
  73:Drivers/lvgl/src/draw/sw/lv_draw_sw_line.c ****     else draw_line_skew(draw_ctx, dsc, point1, point2);
 1711              		.loc 1 73 37 is_stmt 0 discriminator 1 view .LVU587
 1712 00f2 FFF7FEFF 		bl	draw_line_ver
 1713              	.LVL192:
 1714 00f6 E8E7     		b	.L82
 1715              	.L91:
 1716              	.LBB24:
  77:Drivers/lvgl/src/draw/sw/lv_draw_sw_line.c ****         lv_draw_rect_dsc_init(&cir_dsc);
 1717              		.loc 1 77 9 is_stmt 1 view .LVU588
  78:Drivers/lvgl/src/draw/sw/lv_draw_sw_line.c ****         cir_dsc.bg_color = dsc->color;
 1718              		.loc 1 78 9 view .LVU589
 1719 00f8 02A8     		add	r0, sp, #8
 1720 00fa FFF7FEFF 		bl	lv_draw_rect_dsc_init
 1721              	.LVL193:
  79:Drivers/lvgl/src/draw/sw/lv_draw_sw_line.c ****         cir_dsc.radius = LV_RADIUS_CIRCLE;
 1722              		.loc 1 79 9 view .LVU590
  79:Drivers/lvgl/src/draw/sw/lv_draw_sw_line.c ****         cir_dsc.radius = LV_RADIUS_CIRCLE;
 1723              		.loc 1 79 26 is_stmt 0 view .LVU591
 1724 00fe 2388     		ldrh	r3, [r4]
 1725 0100 ADF80C30 		strh	r3, [sp, #12]	@ movhi
  80:Drivers/lvgl/src/draw/sw/lv_draw_sw_line.c ****         cir_dsc.bg_opa = dsc->opa;
 1726              		.loc 1 80 9 is_stmt 1 view .LVU592
  80:Drivers/lvgl/src/draw/sw/lv_draw_sw_line.c ****         cir_dsc.bg_opa = dsc->opa;
 1727              		.loc 1 80 24 is_stmt 0 view .LVU593
 1728 0104 47F6FF73 		movw	r3, #32767
 1729 0108 ADF80830 		strh	r3, [sp, #8]	@ movhi
  81:Drivers/lvgl/src/draw/sw/lv_draw_sw_line.c **** 
 1730              		.loc 1 81 9 is_stmt 1 view .LVU594
  81:Drivers/lvgl/src/draw/sw/lv_draw_sw_line.c **** 
 1731              		.loc 1 81 29 is_stmt 0 view .LVU595
 1732 010c 237A     		ldrb	r3, [r4, #8]	@ zero_extendqisi2
  81:Drivers/lvgl/src/draw/sw/lv_draw_sw_line.c **** 
 1733              		.loc 1 81 24 view .LVU596
 1734 010e 8DF80B30 		strb	r3, [sp, #11]
  83:Drivers/lvgl/src/draw/sw/lv_draw_sw_line.c ****         int32_t r_corr = (dsc->width & 1) ? 0 : 1;
 1735              		.loc 1 83 9 is_stmt 1 view .LVU597
  83:Drivers/lvgl/src/draw/sw/lv_draw_sw_line.c ****         int32_t r_corr = (dsc->width & 1) ? 0 : 1;
 1736              		.loc 1 83 25 is_stmt 0 view .LVU598
 1737 0112 B4F90230 		ldrsh	r3, [r4, #2]
  83:Drivers/lvgl/src/draw/sw/lv_draw_sw_line.c ****         int32_t r_corr = (dsc->width & 1) ? 0 : 1;
 1738              		.loc 1 83 33 view .LVU599
 1739 0116 4FEA630A 		asr	r10, r3, #1
 1740              	.LVL194:
  84:Drivers/lvgl/src/draw/sw/lv_draw_sw_line.c ****         lv_area_t cir_area;
 1741              		.loc 1 84 9 is_stmt 1 view .LVU600
  84:Drivers/lvgl/src/draw/sw/lv_draw_sw_line.c ****         lv_area_t cir_area;
 1742              		.loc 1 84 38 is_stmt 0 view .LVU601
 1743 011a 1FFA83F8 		uxth	r8, r3
  84:Drivers/lvgl/src/draw/sw/lv_draw_sw_line.c ****         lv_area_t cir_area;
 1744              		.loc 1 84 47 view .LVU602
 1745 011e 88F00108 		eor	r8, r8, #1
 1746 0122 08F00108 		and	r8, r8, #1
 1747              	.LVL195:
  85:Drivers/lvgl/src/draw/sw/lv_draw_sw_line.c **** 
ARM GAS  /var/folders/0z/tsy30v1j4xl4_7kw94k978ww0000gn/T//cczCdckk.s 			page 46


 1748              		.loc 1 85 9 is_stmt 1 view .LVU603
  87:Drivers/lvgl/src/draw/sw/lv_draw_sw_line.c ****             cir_area.x1 = point1->x - r;
 1749              		.loc 1 87 9 view .LVU604
  87:Drivers/lvgl/src/draw/sw/lv_draw_sw_line.c ****             cir_area.x1 = point1->x - r;
 1750              		.loc 1 87 12 is_stmt 0 view .LVU605
 1751 0126 637A     		ldrb	r3, [r4, #9]	@ zero_extendqisi2
  87:Drivers/lvgl/src/draw/sw/lv_draw_sw_line.c ****             cir_area.x1 = point1->x - r;
 1752              		.loc 1 87 11 view .LVU606
 1753 0128 13F0040F 		tst	r3, #4
 1754 012c 22D1     		bne	.L92
 1755              	.L85:
  95:Drivers/lvgl/src/draw/sw/lv_draw_sw_line.c ****             cir_area.x1 = point2->x - r;
 1756              		.loc 1 95 9 is_stmt 1 view .LVU607
  95:Drivers/lvgl/src/draw/sw/lv_draw_sw_line.c ****             cir_area.x1 = point2->x - r;
 1757              		.loc 1 95 12 is_stmt 0 view .LVU608
 1758 012e 637A     		ldrb	r3, [r4, #9]	@ zero_extendqisi2
  95:Drivers/lvgl/src/draw/sw/lv_draw_sw_line.c ****             cir_area.x1 = point2->x - r;
 1759              		.loc 1 95 11 view .LVU609
 1760 0130 13F0080F 		tst	r3, #8
 1761 0134 CDD0     		beq	.L84
  96:Drivers/lvgl/src/draw/sw/lv_draw_sw_line.c ****             cir_area.y1 = point2->y - r;
 1762              		.loc 1 96 13 is_stmt 1 view .LVU610
  96:Drivers/lvgl/src/draw/sw/lv_draw_sw_line.c ****             cir_area.y1 = point2->y - r;
 1763              		.loc 1 96 33 is_stmt 0 view .LVU611
 1764 0136 2B88     		ldrh	r3, [r5]
  96:Drivers/lvgl/src/draw/sw/lv_draw_sw_line.c ****             cir_area.y1 = point2->y - r;
 1765              		.loc 1 96 37 view .LVU612
 1766 0138 1FFA8AFA 		uxth	r10, r10
  96:Drivers/lvgl/src/draw/sw/lv_draw_sw_line.c ****             cir_area.y1 = point2->y - r;
 1767              		.loc 1 96 37 view .LVU613
 1768 013c A3EB0A02 		sub	r2, r3, r10
  96:Drivers/lvgl/src/draw/sw/lv_draw_sw_line.c ****             cir_area.y1 = point2->y - r;
 1769              		.loc 1 96 25 view .LVU614
 1770 0140 ADF80020 		strh	r2, [sp]	@ movhi
  97:Drivers/lvgl/src/draw/sw/lv_draw_sw_line.c ****             cir_area.x2 = point2->x + r - r_corr;
 1771              		.loc 1 97 13 is_stmt 1 view .LVU615
  97:Drivers/lvgl/src/draw/sw/lv_draw_sw_line.c ****             cir_area.x2 = point2->x + r - r_corr;
 1772              		.loc 1 97 33 is_stmt 0 view .LVU616
 1773 0144 6A88     		ldrh	r2, [r5, #2]
  97:Drivers/lvgl/src/draw/sw/lv_draw_sw_line.c ****             cir_area.x2 = point2->x + r - r_corr;
 1774              		.loc 1 97 37 view .LVU617
 1775 0146 A2EB0A01 		sub	r1, r2, r10
  97:Drivers/lvgl/src/draw/sw/lv_draw_sw_line.c ****             cir_area.x2 = point2->x + r - r_corr;
 1776              		.loc 1 97 25 view .LVU618
 1777 014a ADF80210 		strh	r1, [sp, #2]	@ movhi
  98:Drivers/lvgl/src/draw/sw/lv_draw_sw_line.c ****             cir_area.y2 = point2->y + r - r_corr ;
 1778              		.loc 1 98 13 is_stmt 1 view .LVU619
  98:Drivers/lvgl/src/draw/sw/lv_draw_sw_line.c ****             cir_area.y2 = point2->y + r - r_corr ;
 1779              		.loc 1 98 37 is_stmt 0 view .LVU620
 1780 014e 5344     		add	r3, r3, r10
 1781 0150 9BB2     		uxth	r3, r3
  98:Drivers/lvgl/src/draw/sw/lv_draw_sw_line.c ****             cir_area.y2 = point2->y + r - r_corr ;
 1782              		.loc 1 98 41 view .LVU621
 1783 0152 A3EB0803 		sub	r3, r3, r8
  98:Drivers/lvgl/src/draw/sw/lv_draw_sw_line.c ****             cir_area.y2 = point2->y + r - r_corr ;
 1784              		.loc 1 98 25 view .LVU622
 1785 0156 ADF80430 		strh	r3, [sp, #4]	@ movhi
ARM GAS  /var/folders/0z/tsy30v1j4xl4_7kw94k978ww0000gn/T//cczCdckk.s 			page 47


  99:Drivers/lvgl/src/draw/sw/lv_draw_sw_line.c ****             lv_draw_rect(draw_ctx, &cir_dsc, &cir_area);
 1786              		.loc 1 99 13 is_stmt 1 view .LVU623
  99:Drivers/lvgl/src/draw/sw/lv_draw_sw_line.c ****             lv_draw_rect(draw_ctx, &cir_dsc, &cir_area);
 1787              		.loc 1 99 37 is_stmt 0 view .LVU624
 1788 015a 9244     		add	r10, r10, r2
 1789              	.LVL196:
  99:Drivers/lvgl/src/draw/sw/lv_draw_sw_line.c ****             lv_draw_rect(draw_ctx, &cir_dsc, &cir_area);
 1790              		.loc 1 99 37 view .LVU625
 1791 015c 1FFA8AF3 		uxth	r3, r10
  99:Drivers/lvgl/src/draw/sw/lv_draw_sw_line.c ****             lv_draw_rect(draw_ctx, &cir_dsc, &cir_area);
 1792              		.loc 1 99 41 view .LVU626
 1793 0160 A3EB0803 		sub	r3, r3, r8
  99:Drivers/lvgl/src/draw/sw/lv_draw_sw_line.c ****             lv_draw_rect(draw_ctx, &cir_dsc, &cir_area);
 1794              		.loc 1 99 25 view .LVU627
 1795 0164 ADF80630 		strh	r3, [sp, #6]	@ movhi
 100:Drivers/lvgl/src/draw/sw/lv_draw_sw_line.c ****         }
 1796              		.loc 1 100 13 is_stmt 1 view .LVU628
 1797 0168 6A46     		mov	r2, sp
 1798 016a 02A9     		add	r1, sp, #8
 1799 016c 3846     		mov	r0, r7
 1800 016e FFF7FEFF 		bl	lv_draw_rect
 1801              	.LVL197:
 1802 0172 AEE7     		b	.L84
 1803              	.LVL198:
 1804              	.L92:
  88:Drivers/lvgl/src/draw/sw/lv_draw_sw_line.c ****             cir_area.y1 = point1->y - r;
 1805              		.loc 1 88 13 view .LVU629
  88:Drivers/lvgl/src/draw/sw/lv_draw_sw_line.c ****             cir_area.y1 = point1->y - r;
 1806              		.loc 1 88 33 is_stmt 0 view .LVU630
 1807 0174 3288     		ldrh	r2, [r6]
  88:Drivers/lvgl/src/draw/sw/lv_draw_sw_line.c ****             cir_area.y1 = point1->y - r;
 1808              		.loc 1 88 37 view .LVU631
 1809 0176 1FFA8AF3 		uxth	r3, r10
 1810 017a D11A     		subs	r1, r2, r3
  88:Drivers/lvgl/src/draw/sw/lv_draw_sw_line.c ****             cir_area.y1 = point1->y - r;
 1811              		.loc 1 88 25 view .LVU632
 1812 017c ADF80010 		strh	r1, [sp]	@ movhi
  89:Drivers/lvgl/src/draw/sw/lv_draw_sw_line.c ****             cir_area.x2 = point1->x + r - r_corr;
 1813              		.loc 1 89 13 is_stmt 1 view .LVU633
  89:Drivers/lvgl/src/draw/sw/lv_draw_sw_line.c ****             cir_area.x2 = point1->x + r - r_corr;
 1814              		.loc 1 89 33 is_stmt 0 view .LVU634
 1815 0180 7188     		ldrh	r1, [r6, #2]
  89:Drivers/lvgl/src/draw/sw/lv_draw_sw_line.c ****             cir_area.x2 = point1->x + r - r_corr;
 1816              		.loc 1 89 37 view .LVU635
 1817 0182 C81A     		subs	r0, r1, r3
  89:Drivers/lvgl/src/draw/sw/lv_draw_sw_line.c ****             cir_area.x2 = point1->x + r - r_corr;
 1818              		.loc 1 89 25 view .LVU636
 1819 0184 ADF80200 		strh	r0, [sp, #2]	@ movhi
  90:Drivers/lvgl/src/draw/sw/lv_draw_sw_line.c ****             cir_area.y2 = point1->y + r - r_corr ;
 1820              		.loc 1 90 13 is_stmt 1 view .LVU637
  90:Drivers/lvgl/src/draw/sw/lv_draw_sw_line.c ****             cir_area.y2 = point1->y + r - r_corr ;
 1821              		.loc 1 90 37 is_stmt 0 view .LVU638
 1822 0188 1A44     		add	r2, r2, r3
 1823 018a 92B2     		uxth	r2, r2
  90:Drivers/lvgl/src/draw/sw/lv_draw_sw_line.c ****             cir_area.y2 = point1->y + r - r_corr ;
 1824              		.loc 1 90 41 view .LVU639
 1825 018c A2EB0802 		sub	r2, r2, r8
ARM GAS  /var/folders/0z/tsy30v1j4xl4_7kw94k978ww0000gn/T//cczCdckk.s 			page 48


  90:Drivers/lvgl/src/draw/sw/lv_draw_sw_line.c ****             cir_area.y2 = point1->y + r - r_corr ;
 1826              		.loc 1 90 25 view .LVU640
 1827 0190 ADF80420 		strh	r2, [sp, #4]	@ movhi
  91:Drivers/lvgl/src/draw/sw/lv_draw_sw_line.c ****             lv_draw_rect(draw_ctx, &cir_dsc, &cir_area);
 1828              		.loc 1 91 13 is_stmt 1 view .LVU641
  91:Drivers/lvgl/src/draw/sw/lv_draw_sw_line.c ****             lv_draw_rect(draw_ctx, &cir_dsc, &cir_area);
 1829              		.loc 1 91 37 is_stmt 0 view .LVU642
 1830 0194 0B44     		add	r3, r3, r1
 1831 0196 9BB2     		uxth	r3, r3
  91:Drivers/lvgl/src/draw/sw/lv_draw_sw_line.c ****             lv_draw_rect(draw_ctx, &cir_dsc, &cir_area);
 1832              		.loc 1 91 41 view .LVU643
 1833 0198 A3EB0803 		sub	r3, r3, r8
  91:Drivers/lvgl/src/draw/sw/lv_draw_sw_line.c ****             lv_draw_rect(draw_ctx, &cir_dsc, &cir_area);
 1834              		.loc 1 91 25 view .LVU644
 1835 019c ADF80630 		strh	r3, [sp, #6]	@ movhi
  92:Drivers/lvgl/src/draw/sw/lv_draw_sw_line.c ****         }
 1836              		.loc 1 92 13 is_stmt 1 view .LVU645
 1837 01a0 6A46     		mov	r2, sp
 1838 01a2 02A9     		add	r1, sp, #8
 1839 01a4 3846     		mov	r0, r7
 1840 01a6 FFF7FEFF 		bl	lv_draw_rect
 1841              	.LVL199:
 1842 01aa C0E7     		b	.L85
 1843              	.LBE24:
 1844              		.cfi_endproc
 1845              	.LFE161:
 1847              		.section	.rodata.wcorr.0,"a"
 1848              		.align	2
 1849              		.set	.LANCHOR0,. + 0
 1852              	wcorr.0:
 1853 0000 80808081 		.ascii	"\200\200\200\201\201\202\202\203\204\205\206\207\211"
 1853      81828283 
 1853      84858687 
 1853      89
 1854 000d 8A8C8D8F 		.ascii	"\212\214\215\217\221\223\225\227\231\233\236\240\242"
 1854      91939597 
 1854      999B9EA0 
 1854      A2
 1855 001a A5A7AAAD 		.ascii	"\245\247\252\255\257\262\265"
 1855      AFB2B5
 1856              		.text
 1857              	.Letext0:
 1858              		.file 3 "/Users/johannes/Library/Application Support/Code/User/globalStorage/bmd.stm32-for-vscode/
 1859              		.file 4 "/Users/johannes/Library/Application Support/Code/User/globalStorage/bmd.stm32-for-vscode/
 1860              		.file 5 "Drivers/lvgl/src/draw/sw/../../misc/lv_types.h"
 1861              		.file 6 "/Users/johannes/Library/Application Support/Code/User/globalStorage/bmd.stm32-for-vscode/
 1862              		.file 7 "Drivers/lvgl/src/draw/sw/../../misc/lv_color.h"
 1863              		.file 8 "Drivers/lvgl/src/draw/sw/../../misc/../font/lv_font.h"
 1864              		.file 9 "Drivers/lvgl/src/draw/sw/../../misc/lv_txt.h"
 1865              		.file 10 "Drivers/lvgl/src/draw/sw/../../misc/lv_bidi.h"
 1866              		.file 11 "Drivers/lvgl/src/draw/sw/../../misc/lv_style.h"
 1867              		.file 12 "Drivers/lvgl/src/draw/sw/../lv_draw_mask.h"
 1868              		.file 13 "Drivers/lvgl/src/draw/sw/lv_draw_sw_blend.h"
 1869              		.file 14 "Drivers/lvgl/src/draw/sw/../lv_img_buf.h"
 1870              		.file 15 "Drivers/lvgl/src/draw/sw/../../core/lv_obj.h"
 1871              		.file 16 "Drivers/lvgl/src/draw/sw/../lv_draw_rect.h"
 1872              		.file 17 "Drivers/lvgl/src/draw/sw/../lv_draw_label.h"
ARM GAS  /var/folders/0z/tsy30v1j4xl4_7kw94k978ww0000gn/T//cczCdckk.s 			page 49


 1873              		.file 18 "Drivers/lvgl/src/draw/sw/../lv_draw_img.h"
 1874              		.file 19 "Drivers/lvgl/src/draw/sw/../lv_draw_line.h"
 1875              		.file 20 "Drivers/lvgl/src/draw/sw/../lv_draw_arc.h"
 1876              		.file 21 "Drivers/lvgl/src/draw/sw/../lv_draw_layer.h"
 1877              		.file 22 "Drivers/lvgl/src/draw/sw/../lv_draw.h"
 1878              		.file 23 "Drivers/lvgl/src/draw/sw/../../hal/../misc/lv_timer.h"
 1879              		.file 24 "Drivers/lvgl/src/draw/sw/../../hal/lv_hal_disp.h"
 1880              		.file 25 "Drivers/lvgl/src/draw/sw/../../core/lv_group.h"
 1881              		.file 26 "Drivers/lvgl/src/draw/sw/../../hal/../misc/lv_ll.h"
 1882              		.file 27 "Drivers/lvgl/src/draw/sw/../../core/lv_obj_scroll.h"
 1883              		.file 28 "Drivers/lvgl/src/draw/sw/../../core/lv_obj_style.h"
 1884              		.file 29 "Drivers/lvgl/src/draw/sw/../../core/lv_obj_class.h"
 1885              		.file 30 "Drivers/lvgl/src/draw/sw/../../core/lv_event.h"
 1886              		.file 31 "Drivers/lvgl/src/draw/sw/../../misc/lv_mem.h"
 1887              		.file 32 "Drivers/lvgl/src/draw/sw/../../core/lv_refr.h"
ARM GAS  /var/folders/0z/tsy30v1j4xl4_7kw94k978ww0000gn/T//cczCdckk.s 			page 50

