ARM GAS  /var/folders/0z/tsy30v1j4xl4_7kw94k978ww0000gn/T//cc3g6v1b.s 			page 1


   1              		.cpu cortex-m4
   2              		.arch armv7e-m
   3              		.fpu fpv4-sp-d16
   4              		.eabi_attribute 27, 1
   5              		.eabi_attribute 28, 1
   6              		.eabi_attribute 20, 1
   7              		.eabi_attribute 21, 1
   8              		.eabi_attribute 23, 3
   9              		.eabi_attribute 24, 1
  10              		.eabi_attribute 25, 1
  11              		.eabi_attribute 26, 1
  12              		.eabi_attribute 30, 1
  13              		.eabi_attribute 34, 1
  14              		.eabi_attribute 18, 4
  15              		.file	"lv_draw_sw_polygon.c"
  16              		.text
  17              	.Ltext0:
  18              		.cfi_sections	.debug_frame
  19              		.section	.text.lv_draw_sw_polygon,"ax",%progbits
  20              		.align	1
  21              		.global	lv_draw_sw_polygon
  22              		.syntax unified
  23              		.thumb
  24              		.thumb_func
  26              	lv_draw_sw_polygon:
  27              	.LVL0:
  28              	.LFB56:
  29              		.file 1 "Drivers/lvgl/src/draw/sw/lv_draw_sw_polygon.c"
   1:Drivers/lvgl/src/draw/sw/lv_draw_sw_polygon.c **** /**
   2:Drivers/lvgl/src/draw/sw/lv_draw_sw_polygon.c ****  * @file lv_draw_sw_polygon.c
   3:Drivers/lvgl/src/draw/sw/lv_draw_sw_polygon.c ****  *
   4:Drivers/lvgl/src/draw/sw/lv_draw_sw_polygon.c ****  */
   5:Drivers/lvgl/src/draw/sw/lv_draw_sw_polygon.c **** 
   6:Drivers/lvgl/src/draw/sw/lv_draw_sw_polygon.c **** /*********************
   7:Drivers/lvgl/src/draw/sw/lv_draw_sw_polygon.c ****  *      INCLUDES
   8:Drivers/lvgl/src/draw/sw/lv_draw_sw_polygon.c ****  *********************/
   9:Drivers/lvgl/src/draw/sw/lv_draw_sw_polygon.c **** #include "lv_draw_sw.h"
  10:Drivers/lvgl/src/draw/sw/lv_draw_sw_polygon.c **** #include "../../misc/lv_math.h"
  11:Drivers/lvgl/src/draw/sw/lv_draw_sw_polygon.c **** #include "../../misc/lv_mem.h"
  12:Drivers/lvgl/src/draw/sw/lv_draw_sw_polygon.c **** #include "../../misc/lv_area.h"
  13:Drivers/lvgl/src/draw/sw/lv_draw_sw_polygon.c **** #include "../../misc/lv_color.h"
  14:Drivers/lvgl/src/draw/sw/lv_draw_sw_polygon.c **** #include "../lv_draw_rect.h"
  15:Drivers/lvgl/src/draw/sw/lv_draw_sw_polygon.c **** 
  16:Drivers/lvgl/src/draw/sw/lv_draw_sw_polygon.c **** /*********************
  17:Drivers/lvgl/src/draw/sw/lv_draw_sw_polygon.c ****  *      DEFINES
  18:Drivers/lvgl/src/draw/sw/lv_draw_sw_polygon.c ****  *********************/
  19:Drivers/lvgl/src/draw/sw/lv_draw_sw_polygon.c **** 
  20:Drivers/lvgl/src/draw/sw/lv_draw_sw_polygon.c **** /**********************
  21:Drivers/lvgl/src/draw/sw/lv_draw_sw_polygon.c ****  *      TYPEDEFS
  22:Drivers/lvgl/src/draw/sw/lv_draw_sw_polygon.c ****  **********************/
  23:Drivers/lvgl/src/draw/sw/lv_draw_sw_polygon.c **** 
  24:Drivers/lvgl/src/draw/sw/lv_draw_sw_polygon.c **** /**********************
  25:Drivers/lvgl/src/draw/sw/lv_draw_sw_polygon.c ****  *  STATIC PROTOTYPES
  26:Drivers/lvgl/src/draw/sw/lv_draw_sw_polygon.c ****  **********************/
  27:Drivers/lvgl/src/draw/sw/lv_draw_sw_polygon.c **** 
  28:Drivers/lvgl/src/draw/sw/lv_draw_sw_polygon.c **** /**********************
  29:Drivers/lvgl/src/draw/sw/lv_draw_sw_polygon.c ****  *  STATIC VARIABLES
ARM GAS  /var/folders/0z/tsy30v1j4xl4_7kw94k978ww0000gn/T//cc3g6v1b.s 			page 2


  30:Drivers/lvgl/src/draw/sw/lv_draw_sw_polygon.c ****  **********************/
  31:Drivers/lvgl/src/draw/sw/lv_draw_sw_polygon.c **** 
  32:Drivers/lvgl/src/draw/sw/lv_draw_sw_polygon.c **** /**********************
  33:Drivers/lvgl/src/draw/sw/lv_draw_sw_polygon.c ****  *      MACROS
  34:Drivers/lvgl/src/draw/sw/lv_draw_sw_polygon.c ****  **********************/
  35:Drivers/lvgl/src/draw/sw/lv_draw_sw_polygon.c **** 
  36:Drivers/lvgl/src/draw/sw/lv_draw_sw_polygon.c **** /**********************
  37:Drivers/lvgl/src/draw/sw/lv_draw_sw_polygon.c ****  *   GLOBAL FUNCTIONS
  38:Drivers/lvgl/src/draw/sw/lv_draw_sw_polygon.c ****  **********************/
  39:Drivers/lvgl/src/draw/sw/lv_draw_sw_polygon.c **** 
  40:Drivers/lvgl/src/draw/sw/lv_draw_sw_polygon.c **** /**
  41:Drivers/lvgl/src/draw/sw/lv_draw_sw_polygon.c ****  * Draw a polygon. Only convex polygons are supported
  42:Drivers/lvgl/src/draw/sw/lv_draw_sw_polygon.c ****  * @param points an array of points
  43:Drivers/lvgl/src/draw/sw/lv_draw_sw_polygon.c ****  * @param point_cnt number of points
  44:Drivers/lvgl/src/draw/sw/lv_draw_sw_polygon.c ****  * @param clip_area polygon will be drawn only in this area
  45:Drivers/lvgl/src/draw/sw/lv_draw_sw_polygon.c ****  * @param draw_dsc pointer to an initialized `lv_draw_rect_dsc_t` variable
  46:Drivers/lvgl/src/draw/sw/lv_draw_sw_polygon.c ****  */
  47:Drivers/lvgl/src/draw/sw/lv_draw_sw_polygon.c **** void lv_draw_sw_polygon(lv_draw_ctx_t * draw_ctx, const lv_draw_rect_dsc_t * draw_dsc, const lv_poi
  48:Drivers/lvgl/src/draw/sw/lv_draw_sw_polygon.c ****                         uint16_t point_cnt)
  49:Drivers/lvgl/src/draw/sw/lv_draw_sw_polygon.c **** {
  30              		.loc 1 49 1 view -0
  31              		.cfi_startproc
  32              		@ args = 0, pretend = 0, frame = 40
  33              		@ frame_needed = 0, uses_anonymous_args = 0
  34              		.loc 1 49 1 is_stmt 0 view .LVU1
  35 0000 2DE9F04F 		push	{r4, r5, r6, r7, r8, r9, r10, fp, lr}
  36              		.cfi_def_cfa_offset 36
  37              		.cfi_offset 4, -36
  38              		.cfi_offset 5, -32
  39              		.cfi_offset 6, -28
  40              		.cfi_offset 7, -24
  41              		.cfi_offset 8, -20
  42              		.cfi_offset 9, -16
  43              		.cfi_offset 10, -12
  44              		.cfi_offset 11, -8
  45              		.cfi_offset 14, -4
  46 0004 8DB0     		sub	sp, sp, #52
  47              		.cfi_def_cfa_offset 88
  48 0006 0490     		str	r0, [sp, #16]
  49 0008 0691     		str	r1, [sp, #24]
  50:Drivers/lvgl/src/draw/sw/lv_draw_sw_polygon.c **** #if LV_DRAW_COMPLEX
  51:Drivers/lvgl/src/draw/sw/lv_draw_sw_polygon.c ****     if(point_cnt < 3) return;
  50              		.loc 1 51 5 is_stmt 1 view .LVU2
  51              		.loc 1 51 7 is_stmt 0 view .LVU3
  52 000a 022B     		cmp	r3, #2
  53 000c 40F24E81 		bls	.L1
  54 0010 1646     		mov	r6, r2
  55 0012 1F46     		mov	r7, r3
  52:Drivers/lvgl/src/draw/sw/lv_draw_sw_polygon.c ****     if(points == NULL) return;
  56              		.loc 1 52 5 is_stmt 1 view .LVU4
  57              		.loc 1 52 7 is_stmt 0 view .LVU5
  58 0014 002A     		cmp	r2, #0
  59 0016 00F04981 		beq	.L1
  53:Drivers/lvgl/src/draw/sw/lv_draw_sw_polygon.c **** 
  54:Drivers/lvgl/src/draw/sw/lv_draw_sw_polygon.c ****     /*Join adjacent points if they are on the same coordinate*/
  55:Drivers/lvgl/src/draw/sw/lv_draw_sw_polygon.c ****     lv_point_t * p = lv_mem_buf_get(point_cnt * sizeof(lv_point_t));
  60              		.loc 1 55 5 is_stmt 1 view .LVU6
ARM GAS  /var/folders/0z/tsy30v1j4xl4_7kw94k978ww0000gn/T//cc3g6v1b.s 			page 3


  61              		.loc 1 55 22 is_stmt 0 view .LVU7
  62 001a 9800     		lsls	r0, r3, #2
  63              	.LVL1:
  64              		.loc 1 55 22 view .LVU8
  65 001c FFF7FEFF 		bl	lv_mem_buf_get
  66              	.LVL2:
  56:Drivers/lvgl/src/draw/sw/lv_draw_sw_polygon.c ****     if(p == NULL) return;
  67              		.loc 1 56 5 is_stmt 1 view .LVU9
  68              		.loc 1 56 7 is_stmt 0 view .LVU10
  69 0020 0446     		mov	r4, r0
  70 0022 0028     		cmp	r0, #0
  71 0024 00F04281 		beq	.L1
  57:Drivers/lvgl/src/draw/sw/lv_draw_sw_polygon.c ****     uint16_t i;
  72              		.loc 1 57 5 is_stmt 1 view .LVU11
  58:Drivers/lvgl/src/draw/sw/lv_draw_sw_polygon.c ****     uint16_t pcnt = 0;
  73              		.loc 1 58 5 view .LVU12
  74              	.LVL3:
  59:Drivers/lvgl/src/draw/sw/lv_draw_sw_polygon.c ****     p[0] = points[0];
  75              		.loc 1 59 5 view .LVU13
  76              		.loc 1 59 10 is_stmt 0 view .LVU14
  77 0028 3368     		ldr	r3, [r6]	@ unaligned
  78 002a 0360     		str	r3, [r0]	@ unaligned
  60:Drivers/lvgl/src/draw/sw/lv_draw_sw_polygon.c ****     for(i = 0; i < point_cnt - 1; i++) {
  79              		.loc 1 60 5 is_stmt 1 view .LVU15
  80              	.LVL4:
  58:Drivers/lvgl/src/draw/sw/lv_draw_sw_polygon.c ****     uint16_t pcnt = 0;
  81              		.loc 1 58 14 is_stmt 0 view .LVU16
  82 002c 0025     		movs	r5, #0
  83              		.loc 1 60 11 view .LVU17
  84 002e 2946     		mov	r1, r5
  85              		.loc 1 60 5 view .LVU18
  86 0030 06E0     		b	.L3
  87              	.LVL5:
  88              	.L4:
  61:Drivers/lvgl/src/draw/sw/lv_draw_sw_polygon.c ****         if(points[i].x != points[i + 1].x || points[i].y != points[i + 1].y) {
  62:Drivers/lvgl/src/draw/sw/lv_draw_sw_polygon.c ****             p[pcnt] = points[i];
  89              		.loc 1 62 13 is_stmt 1 view .LVU19
  90              		.loc 1 62 21 is_stmt 0 view .LVU20
  91 0032 3358     		ldr	r3, [r6, r0]	@ unaligned
  92 0034 44F82530 		str	r3, [r4, r5, lsl #2]	@ unaligned
  63:Drivers/lvgl/src/draw/sw/lv_draw_sw_polygon.c ****             pcnt++;
  93              		.loc 1 63 13 is_stmt 1 view .LVU21
  94              		.loc 1 63 17 is_stmt 0 view .LVU22
  95 0038 0135     		adds	r5, r5, #1
  96              	.LVL6:
  97              		.loc 1 63 17 view .LVU23
  98 003a ADB2     		uxth	r5, r5
  99              	.LVL7:
 100              	.L5:
  60:Drivers/lvgl/src/draw/sw/lv_draw_sw_polygon.c ****     for(i = 0; i < point_cnt - 1; i++) {
 101              		.loc 1 60 36 is_stmt 1 discriminator 2 view .LVU24
 102 003c 0131     		adds	r1, r1, #1
 103              	.LVL8:
  60:Drivers/lvgl/src/draw/sw/lv_draw_sw_polygon.c ****     for(i = 0; i < point_cnt - 1; i++) {
 104              		.loc 1 60 36 is_stmt 0 discriminator 2 view .LVU25
 105 003e 89B2     		uxth	r1, r1
 106              	.LVL9:
ARM GAS  /var/folders/0z/tsy30v1j4xl4_7kw94k978ww0000gn/T//cc3g6v1b.s 			page 4


 107              	.L3:
  60:Drivers/lvgl/src/draw/sw/lv_draw_sw_polygon.c ****     for(i = 0; i < point_cnt - 1; i++) {
 108              		.loc 1 60 18 is_stmt 1 discriminator 1 view .LVU26
  60:Drivers/lvgl/src/draw/sw/lv_draw_sw_polygon.c ****     for(i = 0; i < point_cnt - 1; i++) {
 109              		.loc 1 60 30 is_stmt 0 discriminator 1 view .LVU27
 110 0040 7B1E     		subs	r3, r7, #1
  60:Drivers/lvgl/src/draw/sw/lv_draw_sw_polygon.c ****     for(i = 0; i < point_cnt - 1; i++) {
 111              		.loc 1 60 18 discriminator 1 view .LVU28
 112 0042 9942     		cmp	r1, r3
 113 0044 12DA     		bge	.L34
  61:Drivers/lvgl/src/draw/sw/lv_draw_sw_polygon.c ****         if(points[i].x != points[i + 1].x || points[i].y != points[i + 1].y) {
 114              		.loc 1 61 9 is_stmt 1 view .LVU29
  61:Drivers/lvgl/src/draw/sw/lv_draw_sw_polygon.c ****         if(points[i].x != points[i + 1].x || points[i].y != points[i + 1].y) {
 115              		.loc 1 61 18 is_stmt 0 view .LVU30
 116 0046 8800     		lsls	r0, r1, #2
 117 0048 06EB810E 		add	lr, r6, r1, lsl #2
  61:Drivers/lvgl/src/draw/sw/lv_draw_sw_polygon.c ****         if(points[i].x != points[i + 1].x || points[i].y != points[i + 1].y) {
 118              		.loc 1 61 21 view .LVU31
 119 004c 36F92120 		ldrsh	r2, [r6, r1, lsl #2]
  61:Drivers/lvgl/src/draw/sw/lv_draw_sw_polygon.c ****         if(points[i].x != points[i + 1].x || points[i].y != points[i + 1].y) {
 120              		.loc 1 61 33 view .LVU32
 121 0050 4B1C     		adds	r3, r1, #1
 122 0052 06EB830C 		add	ip, r6, r3, lsl #2
  61:Drivers/lvgl/src/draw/sw/lv_draw_sw_polygon.c ****         if(points[i].x != points[i + 1].x || points[i].y != points[i + 1].y) {
 123              		.loc 1 61 40 view .LVU33
 124 0056 36F92330 		ldrsh	r3, [r6, r3, lsl #2]
  61:Drivers/lvgl/src/draw/sw/lv_draw_sw_polygon.c ****         if(points[i].x != points[i + 1].x || points[i].y != points[i + 1].y) {
 125              		.loc 1 61 11 view .LVU34
 126 005a 9A42     		cmp	r2, r3
 127 005c E9D1     		bne	.L4
  61:Drivers/lvgl/src/draw/sw/lv_draw_sw_polygon.c ****         if(points[i].x != points[i + 1].x || points[i].y != points[i + 1].y) {
 128              		.loc 1 61 55 discriminator 1 view .LVU35
 129 005e BEF90220 		ldrsh	r2, [lr, #2]
  61:Drivers/lvgl/src/draw/sw/lv_draw_sw_polygon.c ****         if(points[i].x != points[i + 1].x || points[i].y != points[i + 1].y) {
 130              		.loc 1 61 74 discriminator 1 view .LVU36
 131 0062 BCF90230 		ldrsh	r3, [ip, #2]
  61:Drivers/lvgl/src/draw/sw/lv_draw_sw_polygon.c ****         if(points[i].x != points[i + 1].x || points[i].y != points[i + 1].y) {
 132              		.loc 1 61 43 discriminator 1 view .LVU37
 133 0066 9A42     		cmp	r2, r3
 134 0068 E3D1     		bne	.L4
 135 006a E7E7     		b	.L5
 136              	.L34:
  64:Drivers/lvgl/src/draw/sw/lv_draw_sw_polygon.c ****         }
  65:Drivers/lvgl/src/draw/sw/lv_draw_sw_polygon.c ****     }
  66:Drivers/lvgl/src/draw/sw/lv_draw_sw_polygon.c ****     /*The first and the last points are also adjacent*/
  67:Drivers/lvgl/src/draw/sw/lv_draw_sw_polygon.c ****     if(points[0].x != points[point_cnt - 1].x || points[0].y != points[point_cnt - 1].y) {
 137              		.loc 1 67 5 is_stmt 1 view .LVU38
 138              		.loc 1 67 17 is_stmt 0 view .LVU39
 139 006c B6F90020 		ldrsh	r2, [r6]
 140              		.loc 1 67 29 view .LVU40
 141 0070 07F18047 		add	r7, r7, #1073741824
 142 0074 013F     		subs	r7, r7, #1
 143 0076 06EB8701 		add	r1, r6, r7, lsl #2
 144              	.LVL10:
 145              		.loc 1 67 44 view .LVU41
 146 007a 36F92730 		ldrsh	r3, [r6, r7, lsl #2]
 147              		.loc 1 67 7 view .LVU42
ARM GAS  /var/folders/0z/tsy30v1j4xl4_7kw94k978ww0000gn/T//cc3g6v1b.s 			page 5


 148 007e 9A42     		cmp	r2, r3
 149 0080 0FD0     		beq	.L35
 150              	.L7:
  68:Drivers/lvgl/src/draw/sw/lv_draw_sw_polygon.c ****         p[pcnt] = points[point_cnt - 1];
 151              		.loc 1 68 9 is_stmt 1 view .LVU43
 152              		.loc 1 68 17 is_stmt 0 view .LVU44
 153 0082 56F82730 		ldr	r3, [r6, r7, lsl #2]	@ unaligned
 154 0086 44F82530 		str	r3, [r4, r5, lsl #2]	@ unaligned
  69:Drivers/lvgl/src/draw/sw/lv_draw_sw_polygon.c ****         pcnt++;
 155              		.loc 1 69 9 is_stmt 1 view .LVU45
 156              		.loc 1 69 13 is_stmt 0 view .LVU46
 157 008a 0135     		adds	r5, r5, #1
 158              	.LVL11:
 159              		.loc 1 69 13 view .LVU47
 160 008c ADB2     		uxth	r5, r5
 161              	.LVL12:
 162              	.L8:
  70:Drivers/lvgl/src/draw/sw/lv_draw_sw_polygon.c ****     }
  71:Drivers/lvgl/src/draw/sw/lv_draw_sw_polygon.c **** 
  72:Drivers/lvgl/src/draw/sw/lv_draw_sw_polygon.c ****     point_cnt = pcnt;
 163              		.loc 1 72 5 is_stmt 1 view .LVU48
  73:Drivers/lvgl/src/draw/sw/lv_draw_sw_polygon.c ****     if(point_cnt < 3) {
 164              		.loc 1 73 5 view .LVU49
 165              		.loc 1 73 7 is_stmt 0 view .LVU50
 166 008e 022D     		cmp	r5, #2
 167 0090 0ED9     		bls	.L36
  74:Drivers/lvgl/src/draw/sw/lv_draw_sw_polygon.c ****         lv_mem_buf_release(p);
  75:Drivers/lvgl/src/draw/sw/lv_draw_sw_polygon.c ****         return;
  76:Drivers/lvgl/src/draw/sw/lv_draw_sw_polygon.c ****     }
  77:Drivers/lvgl/src/draw/sw/lv_draw_sw_polygon.c **** 
  78:Drivers/lvgl/src/draw/sw/lv_draw_sw_polygon.c ****     lv_area_t poly_coords = {.x1 = LV_COORD_MAX, .y1 = LV_COORD_MAX, .x2 = LV_COORD_MIN, .y2 = LV_C
 168              		.loc 1 78 5 is_stmt 1 view .LVU51
 169              		.loc 1 78 15 is_stmt 0 view .LVU52
 170 0092 884B     		ldr	r3, .L44
 171 0094 93E80300 		ldm	r3, {r0, r1}
 172 0098 0CAB     		add	r3, sp, #48
 173 009a 03E90300 		stmdb	r3, {r0, r1}
  79:Drivers/lvgl/src/draw/sw/lv_draw_sw_polygon.c **** 
  80:Drivers/lvgl/src/draw/sw/lv_draw_sw_polygon.c ****     for(i = 0; i < point_cnt; i++) {
 174              		.loc 1 80 5 is_stmt 1 view .LVU53
 175              	.LVL13:
 176              		.loc 1 80 11 is_stmt 0 view .LVU54
 177 009e 0022     		movs	r2, #0
 178              		.loc 1 80 5 view .LVU55
 179 00a0 32E0     		b	.L10
 180              	.LVL14:
 181              	.L35:
  67:Drivers/lvgl/src/draw/sw/lv_draw_sw_polygon.c ****         p[pcnt] = points[point_cnt - 1];
 182              		.loc 1 67 59 discriminator 1 view .LVU56
 183 00a2 B6F90220 		ldrsh	r2, [r6, #2]
  67:Drivers/lvgl/src/draw/sw/lv_draw_sw_polygon.c ****         p[pcnt] = points[point_cnt - 1];
 184              		.loc 1 67 86 discriminator 1 view .LVU57
 185 00a6 B1F90230 		ldrsh	r3, [r1, #2]
  67:Drivers/lvgl/src/draw/sw/lv_draw_sw_polygon.c ****         p[pcnt] = points[point_cnt - 1];
 186              		.loc 1 67 47 discriminator 1 view .LVU58
 187 00aa 9A42     		cmp	r2, r3
 188 00ac E9D1     		bne	.L7
ARM GAS  /var/folders/0z/tsy30v1j4xl4_7kw94k978ww0000gn/T//cc3g6v1b.s 			page 6


 189 00ae EEE7     		b	.L8
 190              	.LVL15:
 191              	.L36:
  74:Drivers/lvgl/src/draw/sw/lv_draw_sw_polygon.c ****         lv_mem_buf_release(p);
 192              		.loc 1 74 9 is_stmt 1 view .LVU59
 193 00b0 2046     		mov	r0, r4
 194 00b2 FFF7FEFF 		bl	lv_mem_buf_release
 195              	.LVL16:
  75:Drivers/lvgl/src/draw/sw/lv_draw_sw_polygon.c ****     }
 196              		.loc 1 75 9 view .LVU60
 197 00b6 F9E0     		b	.L1
 198              	.LVL17:
 199              	.L11:
  81:Drivers/lvgl/src/draw/sw/lv_draw_sw_polygon.c ****         poly_coords.x1 = LV_MIN(poly_coords.x1, p[i].x);
 200              		.loc 1 81 9 discriminator 3 view .LVU61
 201              		.loc 1 81 26 is_stmt 0 discriminator 3 view .LVU62
 202 00b8 04EB8201 		add	r1, r4, r2, lsl #2
 203 00bc 34F92230 		ldrsh	r3, [r4, r2, lsl #2]
 204 00c0 BDF92800 		ldrsh	r0, [sp, #40]
 205 00c4 8342     		cmp	r3, r0
 206 00c6 A8BF     		it	ge
 207 00c8 0346     		movge	r3, r0
 208              		.loc 1 81 24 discriminator 3 view .LVU63
 209 00ca ADF82830 		strh	r3, [sp, #40]	@ movhi
  82:Drivers/lvgl/src/draw/sw/lv_draw_sw_polygon.c ****         poly_coords.y1 = LV_MIN(poly_coords.y1, p[i].y);
 210              		.loc 1 82 9 is_stmt 1 discriminator 3 view .LVU64
 211              		.loc 1 82 26 is_stmt 0 discriminator 3 view .LVU65
 212 00ce B1F90230 		ldrsh	r3, [r1, #2]
 213 00d2 BDF92A00 		ldrsh	r0, [sp, #42]
 214 00d6 8342     		cmp	r3, r0
 215 00d8 A8BF     		it	ge
 216 00da 0346     		movge	r3, r0
 217              		.loc 1 82 24 discriminator 3 view .LVU66
 218 00dc ADF82A30 		strh	r3, [sp, #42]	@ movhi
  83:Drivers/lvgl/src/draw/sw/lv_draw_sw_polygon.c ****         poly_coords.x2 = LV_MAX(poly_coords.x2, p[i].x);
 219              		.loc 1 83 9 is_stmt 1 discriminator 3 view .LVU67
 220              		.loc 1 83 26 is_stmt 0 discriminator 3 view .LVU68
 221 00e0 34F92230 		ldrsh	r3, [r4, r2, lsl #2]
 222 00e4 BDF92C00 		ldrsh	r0, [sp, #44]
 223 00e8 8342     		cmp	r3, r0
 224 00ea B8BF     		it	lt
 225 00ec 0346     		movlt	r3, r0
 226              		.loc 1 83 24 discriminator 3 view .LVU69
 227 00ee ADF82C30 		strh	r3, [sp, #44]	@ movhi
  84:Drivers/lvgl/src/draw/sw/lv_draw_sw_polygon.c ****         poly_coords.y2 = LV_MAX(poly_coords.y2, p[i].y);
 228              		.loc 1 84 9 is_stmt 1 discriminator 3 view .LVU70
 229              		.loc 1 84 26 is_stmt 0 discriminator 3 view .LVU71
 230 00f2 B1F90230 		ldrsh	r3, [r1, #2]
 231 00f6 BDF92E10 		ldrsh	r1, [sp, #46]
 232 00fa 8B42     		cmp	r3, r1
 233 00fc B8BF     		it	lt
 234 00fe 0B46     		movlt	r3, r1
 235              		.loc 1 84 24 discriminator 3 view .LVU72
 236 0100 ADF82E30 		strh	r3, [sp, #46]	@ movhi
  80:Drivers/lvgl/src/draw/sw/lv_draw_sw_polygon.c ****         poly_coords.x1 = LV_MIN(poly_coords.x1, p[i].x);
 237              		.loc 1 80 32 is_stmt 1 discriminator 3 view .LVU73
 238 0104 0132     		adds	r2, r2, #1
ARM GAS  /var/folders/0z/tsy30v1j4xl4_7kw94k978ww0000gn/T//cc3g6v1b.s 			page 7


 239              	.LVL18:
  80:Drivers/lvgl/src/draw/sw/lv_draw_sw_polygon.c ****         poly_coords.x1 = LV_MIN(poly_coords.x1, p[i].x);
 240              		.loc 1 80 32 is_stmt 0 discriminator 3 view .LVU74
 241 0106 92B2     		uxth	r2, r2
 242              	.LVL19:
 243              	.L10:
  80:Drivers/lvgl/src/draw/sw/lv_draw_sw_polygon.c ****         poly_coords.x1 = LV_MIN(poly_coords.x1, p[i].x);
 244              		.loc 1 80 18 is_stmt 1 discriminator 1 view .LVU75
 245 0108 AA42     		cmp	r2, r5
 246 010a D5D3     		bcc	.L11
  85:Drivers/lvgl/src/draw/sw/lv_draw_sw_polygon.c ****     }
  86:Drivers/lvgl/src/draw/sw/lv_draw_sw_polygon.c **** 
  87:Drivers/lvgl/src/draw/sw/lv_draw_sw_polygon.c ****     bool is_common;
 247              		.loc 1 87 5 view .LVU76
  88:Drivers/lvgl/src/draw/sw/lv_draw_sw_polygon.c ****     lv_area_t clip_area;
 248              		.loc 1 88 5 view .LVU77
  89:Drivers/lvgl/src/draw/sw/lv_draw_sw_polygon.c ****     is_common = _lv_area_intersect(&clip_area, &poly_coords, draw_ctx->clip_area);
 249              		.loc 1 89 5 view .LVU78
 250              		.loc 1 89 17 is_stmt 0 view .LVU79
 251 010c 049B     		ldr	r3, [sp, #16]
 252 010e 9A68     		ldr	r2, [r3, #8]
 253              	.LVL20:
 254              		.loc 1 89 17 view .LVU80
 255 0110 0AA9     		add	r1, sp, #40
 256 0112 08A8     		add	r0, sp, #32
 257 0114 FFF7FEFF 		bl	_lv_area_intersect
 258              	.LVL21:
  90:Drivers/lvgl/src/draw/sw/lv_draw_sw_polygon.c ****     if(!is_common) {
 259              		.loc 1 90 5 is_stmt 1 view .LVU81
 260              		.loc 1 90 7 is_stmt 0 view .LVU82
 261 0118 0390     		str	r0, [sp, #12]
 262 011a 48B1     		cbz	r0, .L37
  91:Drivers/lvgl/src/draw/sw/lv_draw_sw_polygon.c ****         lv_mem_buf_release(p);
  92:Drivers/lvgl/src/draw/sw/lv_draw_sw_polygon.c ****         return;
  93:Drivers/lvgl/src/draw/sw/lv_draw_sw_polygon.c ****     }
  94:Drivers/lvgl/src/draw/sw/lv_draw_sw_polygon.c **** 
  95:Drivers/lvgl/src/draw/sw/lv_draw_sw_polygon.c ****     const lv_area_t * clip_area_ori = draw_ctx->clip_area;
 263              		.loc 1 95 5 is_stmt 1 view .LVU83
 264              		.loc 1 95 23 is_stmt 0 view .LVU84
 265 011c 049A     		ldr	r2, [sp, #16]
 266 011e 9368     		ldr	r3, [r2, #8]
 267 0120 0793     		str	r3, [sp, #28]
 268              	.LVL22:
  96:Drivers/lvgl/src/draw/sw/lv_draw_sw_polygon.c ****     draw_ctx->clip_area = &clip_area;
 269              		.loc 1 96 5 is_stmt 1 view .LVU85
 270              		.loc 1 96 25 is_stmt 0 view .LVU86
 271 0122 08AB     		add	r3, sp, #32
 272              	.LVL23:
 273              		.loc 1 96 25 view .LVU87
 274 0124 9360     		str	r3, [r2, #8]
 275              	.LVL24:
  97:Drivers/lvgl/src/draw/sw/lv_draw_sw_polygon.c **** 
  98:Drivers/lvgl/src/draw/sw/lv_draw_sw_polygon.c ****     /*Find the lowest point*/
  99:Drivers/lvgl/src/draw/sw/lv_draw_sw_polygon.c ****     lv_coord_t y_min = p[0].y;
 276              		.loc 1 99 5 is_stmt 1 view .LVU88
 277              		.loc 1 99 16 is_stmt 0 view .LVU89
 278 0126 B4F90210 		ldrsh	r1, [r4, #2]
ARM GAS  /var/folders/0z/tsy30v1j4xl4_7kw94k978ww0000gn/T//cc3g6v1b.s 			page 8


 279              	.LVL25:
 100:Drivers/lvgl/src/draw/sw/lv_draw_sw_polygon.c ****     int16_t y_min_i = 0;
 280              		.loc 1 100 5 is_stmt 1 view .LVU90
 101:Drivers/lvgl/src/draw/sw/lv_draw_sw_polygon.c **** 
 102:Drivers/lvgl/src/draw/sw/lv_draw_sw_polygon.c ****     for(i = 1; i < point_cnt; i++) {
 281              		.loc 1 102 5 view .LVU91
 100:Drivers/lvgl/src/draw/sw/lv_draw_sw_polygon.c ****     int16_t y_min_i = 0;
 282              		.loc 1 100 13 is_stmt 0 view .LVU92
 283 012a 0026     		movs	r6, #0
 284              	.LVL26:
 285              		.loc 1 102 11 view .LVU93
 286 012c 0123     		movs	r3, #1
 287              		.loc 1 102 5 view .LVU94
 288 012e 05E0     		b	.L13
 289              	.LVL27:
 290              	.L37:
  91:Drivers/lvgl/src/draw/sw/lv_draw_sw_polygon.c ****         return;
 291              		.loc 1 91 9 is_stmt 1 view .LVU95
 292 0130 2046     		mov	r0, r4
 293              	.LVL28:
  91:Drivers/lvgl/src/draw/sw/lv_draw_sw_polygon.c ****         return;
 294              		.loc 1 91 9 is_stmt 0 view .LVU96
 295 0132 FFF7FEFF 		bl	lv_mem_buf_release
 296              	.LVL29:
  92:Drivers/lvgl/src/draw/sw/lv_draw_sw_polygon.c ****     }
 297              		.loc 1 92 9 is_stmt 1 view .LVU97
 298 0136 B9E0     		b	.L1
 299              	.LVL30:
 300              	.L14:
 301              		.loc 1 102 32 discriminator 2 view .LVU98
 302 0138 0133     		adds	r3, r3, #1
 303              	.LVL31:
 304              		.loc 1 102 32 is_stmt 0 discriminator 2 view .LVU99
 305 013a 9BB2     		uxth	r3, r3
 306              	.LVL32:
 307              	.L13:
 308              		.loc 1 102 18 is_stmt 1 discriminator 1 view .LVU100
 309 013c AB42     		cmp	r3, r5
 310 013e 08D2     		bcs	.L38
 103:Drivers/lvgl/src/draw/sw/lv_draw_sw_polygon.c ****         if(p[i].y < y_min) {
 311              		.loc 1 103 9 view .LVU101
 312              		.loc 1 103 13 is_stmt 0 view .LVU102
 313 0140 04EB8302 		add	r2, r4, r3, lsl #2
 314              		.loc 1 103 16 view .LVU103
 315 0144 B2F90220 		ldrsh	r2, [r2, #2]
 316              		.loc 1 103 11 view .LVU104
 317 0148 8A42     		cmp	r2, r1
 318 014a F5DA     		bge	.L14
 104:Drivers/lvgl/src/draw/sw/lv_draw_sw_polygon.c ****             y_min = p[i].y;
 319              		.loc 1 104 13 is_stmt 1 view .LVU105
 320              	.LVL33:
 105:Drivers/lvgl/src/draw/sw/lv_draw_sw_polygon.c ****             y_min_i = i;
 321              		.loc 1 105 13 view .LVU106
 322              		.loc 1 105 21 is_stmt 0 view .LVU107
 323 014c 1EB2     		sxth	r6, r3
 324              	.LVL34:
 104:Drivers/lvgl/src/draw/sw/lv_draw_sw_polygon.c ****             y_min = p[i].y;
ARM GAS  /var/folders/0z/tsy30v1j4xl4_7kw94k978ww0000gn/T//cc3g6v1b.s 			page 9


 325              		.loc 1 104 19 view .LVU108
 326 014e 1146     		mov	r1, r2
 327 0150 F2E7     		b	.L14
 328              	.LVL35:
 329              	.L38:
 106:Drivers/lvgl/src/draw/sw/lv_draw_sw_polygon.c ****         }
 107:Drivers/lvgl/src/draw/sw/lv_draw_sw_polygon.c ****     }
 108:Drivers/lvgl/src/draw/sw/lv_draw_sw_polygon.c **** 
 109:Drivers/lvgl/src/draw/sw/lv_draw_sw_polygon.c ****     lv_draw_mask_line_param_t * mp = lv_mem_buf_get(sizeof(lv_draw_mask_line_param_t) * point_cnt);
 330              		.loc 1 109 5 is_stmt 1 view .LVU109
 331              		.loc 1 109 38 is_stmt 0 view .LVU110
 332 0152 AA46     		mov	r10, r5
 333 0154 2C20     		movs	r0, #44
 334              	.LVL36:
 335              		.loc 1 109 38 view .LVU111
 336 0156 05FB00F0 		mul	r0, r5, r0
 337 015a FFF7FEFF 		bl	lv_mem_buf_get
 338              	.LVL37:
 339              		.loc 1 109 38 view .LVU112
 340 015e 0590     		str	r0, [sp, #20]
 341              	.LVL38:
 110:Drivers/lvgl/src/draw/sw/lv_draw_sw_polygon.c ****     lv_draw_mask_line_param_t * mp_next = mp;
 342              		.loc 1 110 5 is_stmt 1 view .LVU113
 111:Drivers/lvgl/src/draw/sw/lv_draw_sw_polygon.c **** 
 112:Drivers/lvgl/src/draw/sw/lv_draw_sw_polygon.c ****     int32_t i_prev_left = y_min_i;
 343              		.loc 1 112 5 view .LVU114
 344              		.loc 1 112 13 is_stmt 0 view .LVU115
 345 0160 3746     		mov	r7, r6
 346              	.LVL39:
 113:Drivers/lvgl/src/draw/sw/lv_draw_sw_polygon.c ****     int32_t i_prev_right = y_min_i;
 347              		.loc 1 113 5 is_stmt 1 view .LVU116
 114:Drivers/lvgl/src/draw/sw/lv_draw_sw_polygon.c ****     int32_t i_next_left;
 348              		.loc 1 114 5 view .LVU117
 115:Drivers/lvgl/src/draw/sw/lv_draw_sw_polygon.c ****     int32_t i_next_right;
 349              		.loc 1 115 5 view .LVU118
 116:Drivers/lvgl/src/draw/sw/lv_draw_sw_polygon.c ****     uint32_t mask_cnt = 0;
 350              		.loc 1 116 5 view .LVU119
 117:Drivers/lvgl/src/draw/sw/lv_draw_sw_polygon.c **** 
 118:Drivers/lvgl/src/draw/sw/lv_draw_sw_polygon.c ****     /*Get the index of the left and right points*/
 119:Drivers/lvgl/src/draw/sw/lv_draw_sw_polygon.c ****     i_next_left = y_min_i - 1;
 351              		.loc 1 119 5 view .LVU120
 120:Drivers/lvgl/src/draw/sw/lv_draw_sw_polygon.c ****     if(i_next_left < 0) i_next_left = point_cnt + i_next_left;
 352              		.loc 1 120 5 view .LVU121
 353              		.loc 1 120 7 is_stmt 0 view .LVU122
 354 0162 711E     		subs	r1, r6, #1
 355              	.LVL40:
 356              		.loc 1 120 7 view .LVU123
 357 0164 2BD4     		bmi	.L39
 358              	.L16:
 121:Drivers/lvgl/src/draw/sw/lv_draw_sw_polygon.c **** 
 122:Drivers/lvgl/src/draw/sw/lv_draw_sw_polygon.c ****     i_next_right = y_min_i + 1;
 359              		.loc 1 122 5 is_stmt 1 view .LVU124
 360              		.loc 1 122 18 is_stmt 0 view .LVU125
 361 0166 7B1C     		adds	r3, r7, #1
 362              	.LVL41:
 123:Drivers/lvgl/src/draw/sw/lv_draw_sw_polygon.c ****     if(i_next_right > point_cnt - 1) i_next_right = 0;
 363              		.loc 1 123 5 is_stmt 1 view .LVU126
ARM GAS  /var/folders/0z/tsy30v1j4xl4_7kw94k978ww0000gn/T//cc3g6v1b.s 			page 10


 364              		.loc 1 123 21 is_stmt 0 view .LVU127
 365 0168 AB46     		mov	fp, r5
 366              		.loc 1 123 7 view .LVU128
 367 016a 9D42     		cmp	r5, r3
 368 016c 00DC     		bgt	.L17
 369              		.loc 1 123 51 view .LVU129
 370 016e 0023     		movs	r3, #0
 371              	.LVL42:
 372              	.L17:
 124:Drivers/lvgl/src/draw/sw/lv_draw_sw_polygon.c **** 
 125:Drivers/lvgl/src/draw/sw/lv_draw_sw_polygon.c ****     /**
 126:Drivers/lvgl/src/draw/sw/lv_draw_sw_polygon.c ****      * Check if the order of points is inverted or not.
 127:Drivers/lvgl/src/draw/sw/lv_draw_sw_polygon.c ****      * The normal case is when the left point is on `y_min_i - 1`
 128:Drivers/lvgl/src/draw/sw/lv_draw_sw_polygon.c ****      * Explanation:
 129:Drivers/lvgl/src/draw/sw/lv_draw_sw_polygon.c ****      *   if angle(p_left) < angle(p_right) -> inverted
 130:Drivers/lvgl/src/draw/sw/lv_draw_sw_polygon.c ****      *   dy_left/dx_left < dy_right/dx_right
 131:Drivers/lvgl/src/draw/sw/lv_draw_sw_polygon.c ****      *   dy_left * dx_right < dy_right * dx_left
 132:Drivers/lvgl/src/draw/sw/lv_draw_sw_polygon.c ****      */
 133:Drivers/lvgl/src/draw/sw/lv_draw_sw_polygon.c ****     lv_coord_t dxl = p[i_next_left].x - p[y_min_i].x;
 373              		.loc 1 133 5 is_stmt 1 view .LVU130
 374              		.loc 1 133 23 is_stmt 0 view .LVU131
 375 0170 04EB8102 		add	r2, r4, r1, lsl #2
 376              		.loc 1 133 36 view .LVU132
 377 0174 34F82110 		ldrh	r1, [r4, r1, lsl #2]
 378              	.LVL43:
 379              		.loc 1 133 42 view .LVU133
 380 0178 04EB8605 		add	r5, r4, r6, lsl #2
 381              	.LVL44:
 382              		.loc 1 133 51 view .LVU134
 383 017c 34F826C0 		ldrh	ip, [r4, r6, lsl #2]
 384              		.loc 1 133 39 view .LVU135
 385 0180 A1EB0C01 		sub	r1, r1, ip
 386              		.loc 1 133 16 view .LVU136
 387 0184 09B2     		sxth	r1, r1
 388              	.LVL45:
 134:Drivers/lvgl/src/draw/sw/lv_draw_sw_polygon.c ****     lv_coord_t dxr = p[i_next_right].x - p[y_min_i].x;
 389              		.loc 1 134 5 is_stmt 1 view .LVU137
 390              		.loc 1 134 23 is_stmt 0 view .LVU138
 391 0186 04EB8306 		add	r6, r4, r3, lsl #2
 392              	.LVL46:
 393              		.loc 1 134 37 view .LVU139
 394 018a 34F82300 		ldrh	r0, [r4, r3, lsl #2]
 395              	.LVL47:
 396              		.loc 1 134 40 view .LVU140
 397 018e A0EB0C00 		sub	r0, r0, ip
 398              		.loc 1 134 16 view .LVU141
 399 0192 00B2     		sxth	r0, r0
 400              	.LVL48:
 135:Drivers/lvgl/src/draw/sw/lv_draw_sw_polygon.c ****     lv_coord_t dyl = p[i_next_left].y - p[y_min_i].y;
 401              		.loc 1 135 5 is_stmt 1 view .LVU142
 402              		.loc 1 135 36 is_stmt 0 view .LVU143
 403 0194 5288     		ldrh	r2, [r2, #2]
 404              		.loc 1 135 51 view .LVU144
 405 0196 6D88     		ldrh	r5, [r5, #2]
 406              		.loc 1 135 39 view .LVU145
 407 0198 521B     		subs	r2, r2, r5
 408              		.loc 1 135 16 view .LVU146
ARM GAS  /var/folders/0z/tsy30v1j4xl4_7kw94k978ww0000gn/T//cc3g6v1b.s 			page 11


 409 019a 12B2     		sxth	r2, r2
 410              	.LVL49:
 136:Drivers/lvgl/src/draw/sw/lv_draw_sw_polygon.c ****     lv_coord_t dyr = p[i_next_right].y - p[y_min_i].y;
 411              		.loc 1 136 5 is_stmt 1 view .LVU147
 412              		.loc 1 136 37 is_stmt 0 view .LVU148
 413 019c 7388     		ldrh	r3, [r6, #2]
 414              	.LVL50:
 415              		.loc 1 136 40 view .LVU149
 416 019e 5B1B     		subs	r3, r3, r5
 417              		.loc 1 136 16 view .LVU150
 418 01a0 1BB2     		sxth	r3, r3
 419              	.LVL51:
 137:Drivers/lvgl/src/draw/sw/lv_draw_sw_polygon.c **** 
 138:Drivers/lvgl/src/draw/sw/lv_draw_sw_polygon.c ****     bool inv = false;
 420              		.loc 1 138 5 is_stmt 1 view .LVU151
 139:Drivers/lvgl/src/draw/sw/lv_draw_sw_polygon.c ****     if(dyl * dxr < dyr * dxl) inv = true;
 421              		.loc 1 139 5 view .LVU152
 422              		.loc 1 139 12 is_stmt 0 view .LVU153
 423 01a2 00FB02F2 		mul	r2, r0, r2
 424              	.LVL52:
 425              		.loc 1 139 24 view .LVU154
 426 01a6 01FB03F3 		mul	r3, r1, r3
 427              	.LVL53:
 428              		.loc 1 139 7 view .LVU155
 429 01aa 9A42     		cmp	r2, r3
 430 01ac 01DB     		blt	.L18
 138:Drivers/lvgl/src/draw/sw/lv_draw_sw_polygon.c ****     if(dyl * dxr < dyr * dxl) inv = true;
 431              		.loc 1 138 10 view .LVU156
 432 01ae 0023     		movs	r3, #0
 433 01b0 0393     		str	r3, [sp, #12]
 434              	.L18:
 435              	.LVL54:
 138:Drivers/lvgl/src/draw/sw/lv_draw_sw_polygon.c ****     if(dyl * dxr < dyr * dxl) inv = true;
 436              		.loc 1 138 10 view .LVU157
 437 01b2 B946     		mov	r9, r7
 438 01b4 059B     		ldr	r3, [sp, #20]
 439 01b6 9E46     		mov	lr, r3
 440 01b8 4FF00008 		mov	r8, #0
 441 01bc 39E0     		b	.L28
 442              	.LVL55:
 443              	.L39:
 120:Drivers/lvgl/src/draw/sw/lv_draw_sw_polygon.c **** 
 444              		.loc 1 120 25 is_stmt 1 discriminator 1 view .LVU158
 120:Drivers/lvgl/src/draw/sw/lv_draw_sw_polygon.c **** 
 445              		.loc 1 120 37 is_stmt 0 discriminator 1 view .LVU159
 446 01be 2944     		add	r1, r1, r5
 447              	.LVL56:
 120:Drivers/lvgl/src/draw/sw/lv_draw_sw_polygon.c **** 
 448              		.loc 1 120 37 discriminator 1 view .LVU160
 449 01c0 D1E7     		b	.L16
 450              	.LVL57:
 451              	.L43:
 140:Drivers/lvgl/src/draw/sw/lv_draw_sw_polygon.c **** 
 141:Drivers/lvgl/src/draw/sw/lv_draw_sw_polygon.c ****     do {
 142:Drivers/lvgl/src/draw/sw/lv_draw_sw_polygon.c ****         if(!inv) {
 143:Drivers/lvgl/src/draw/sw/lv_draw_sw_polygon.c ****             i_next_left = i_prev_left - 1;
 144:Drivers/lvgl/src/draw/sw/lv_draw_sw_polygon.c ****             if(i_next_left < 0) i_next_left = point_cnt + i_next_left;
ARM GAS  /var/folders/0z/tsy30v1j4xl4_7kw94k978ww0000gn/T//cc3g6v1b.s 			page 12


 452              		.loc 1 144 33 is_stmt 1 discriminator 1 view .LVU161
 453              		.loc 1 144 45 is_stmt 0 discriminator 1 view .LVU162
 454 01c2 5D44     		add	r5, r5, fp
 455              	.LVL58:
 456              		.loc 1 144 45 discriminator 1 view .LVU163
 457 01c4 3AE0     		b	.L20
 458              	.LVL59:
 459              	.L19:
 145:Drivers/lvgl/src/draw/sw/lv_draw_sw_polygon.c **** 
 146:Drivers/lvgl/src/draw/sw/lv_draw_sw_polygon.c ****             i_next_right = i_prev_right + 1;
 147:Drivers/lvgl/src/draw/sw/lv_draw_sw_polygon.c ****             if(i_next_right > point_cnt - 1) i_next_right = 0;
 148:Drivers/lvgl/src/draw/sw/lv_draw_sw_polygon.c ****         }
 149:Drivers/lvgl/src/draw/sw/lv_draw_sw_polygon.c ****         else {
 150:Drivers/lvgl/src/draw/sw/lv_draw_sw_polygon.c ****             i_next_left = i_prev_left + 1;
 460              		.loc 1 150 13 is_stmt 1 view .LVU164
 461              		.loc 1 150 25 is_stmt 0 view .LVU165
 462 01c6 7D1C     		adds	r5, r7, #1
 463              	.LVL60:
 151:Drivers/lvgl/src/draw/sw/lv_draw_sw_polygon.c ****             if(i_next_left > point_cnt - 1) i_next_left = 0;
 464              		.loc 1 151 13 is_stmt 1 view .LVU166
 465              		.loc 1 151 15 is_stmt 0 view .LVU167
 466 01c8 AB45     		cmp	fp, r5
 467 01ca 00DC     		bgt	.L22
 468              		.loc 1 151 57 view .LVU168
 469 01cc 0025     		movs	r5, #0
 470              	.LVL61:
 471              	.L22:
 152:Drivers/lvgl/src/draw/sw/lv_draw_sw_polygon.c **** 
 153:Drivers/lvgl/src/draw/sw/lv_draw_sw_polygon.c ****             i_next_right = i_prev_right - 1;
 472              		.loc 1 153 13 is_stmt 1 view .LVU169
 154:Drivers/lvgl/src/draw/sw/lv_draw_sw_polygon.c ****             if(i_next_right < 0) i_next_right = point_cnt + i_next_right;
 473              		.loc 1 154 13 view .LVU170
 474              		.loc 1 154 15 is_stmt 0 view .LVU171
 475 01ce B9F10106 		subs	r6, r9, #1
 476              	.LVL62:
 477              		.loc 1 154 15 view .LVU172
 478 01d2 39D4     		bmi	.L40
 479              	.LVL63:
 480              	.L21:
 155:Drivers/lvgl/src/draw/sw/lv_draw_sw_polygon.c ****         }
 156:Drivers/lvgl/src/draw/sw/lv_draw_sw_polygon.c **** 
 157:Drivers/lvgl/src/draw/sw/lv_draw_sw_polygon.c ****         if(p[i_next_left].y >= p[i_prev_left].y) {
 481              		.loc 1 157 9 is_stmt 1 view .LVU173
 482              		.loc 1 157 13 is_stmt 0 view .LVU174
 483 01d4 4FEA850C 		lsl	ip, r5, #2
 484 01d8 04EB8503 		add	r3, r4, r5, lsl #2
 485              		.loc 1 157 26 view .LVU175
 486 01dc B3F90200 		ldrsh	r0, [r3, #2]
 487              		.loc 1 157 33 view .LVU176
 488 01e0 B900     		lsls	r1, r7, #2
 489 01e2 04EB8703 		add	r3, r4, r7, lsl #2
 490              		.loc 1 157 46 view .LVU177
 491 01e6 B3F90220 		ldrsh	r2, [r3, #2]
 492              		.loc 1 157 11 view .LVU178
 493 01ea 9042     		cmp	r0, r2
 494 01ec 08DB     		blt	.L23
 158:Drivers/lvgl/src/draw/sw/lv_draw_sw_polygon.c ****             if(p[i_next_left].y != p[i_prev_left].y &&
ARM GAS  /var/folders/0z/tsy30v1j4xl4_7kw94k978ww0000gn/T//cc3g6v1b.s 			page 13


 495              		.loc 1 158 13 is_stmt 1 view .LVU179
 496              		.loc 1 158 15 is_stmt 0 view .LVU180
 497 01ee 04D0     		beq	.L24
 159:Drivers/lvgl/src/draw/sw/lv_draw_sw_polygon.c ****                p[i_next_left].x != p[i_prev_left].x) {
 498              		.loc 1 159 30 discriminator 1 view .LVU181
 499 01f0 34F90C30 		ldrsh	r3, [r4, ip]
 500              		.loc 1 159 50 discriminator 1 view .LVU182
 501 01f4 615E     		ldrsh	r1, [r4, r1]
 158:Drivers/lvgl/src/draw/sw/lv_draw_sw_polygon.c ****             if(p[i_next_left].y != p[i_prev_left].y &&
 502              		.loc 1 158 53 discriminator 1 view .LVU183
 503 01f6 8B42     		cmp	r3, r1
 504 01f8 28D1     		bne	.L41
 505              	.LVL64:
 506              	.L24:
 160:Drivers/lvgl/src/draw/sw/lv_draw_sw_polygon.c ****                 lv_draw_mask_line_points_init(mp_next, p[i_prev_left].x, p[i_prev_left].y,
 161:Drivers/lvgl/src/draw/sw/lv_draw_sw_polygon.c ****                                               p[i_next_left].x, p[i_next_left].y,
 162:Drivers/lvgl/src/draw/sw/lv_draw_sw_polygon.c ****                                               LV_DRAW_MASK_LINE_SIDE_RIGHT);
 163:Drivers/lvgl/src/draw/sw/lv_draw_sw_polygon.c ****                 lv_draw_mask_add(mp_next, mp);
 164:Drivers/lvgl/src/draw/sw/lv_draw_sw_polygon.c ****                 mp_next++;
 165:Drivers/lvgl/src/draw/sw/lv_draw_sw_polygon.c ****             }
 166:Drivers/lvgl/src/draw/sw/lv_draw_sw_polygon.c ****             mask_cnt++;
 507              		.loc 1 166 13 is_stmt 1 view .LVU184
 508              		.loc 1 166 21 is_stmt 0 view .LVU185
 509 01fa 08F10108 		add	r8, r8, #1
 510              	.LVL65:
 167:Drivers/lvgl/src/draw/sw/lv_draw_sw_polygon.c ****             i_prev_left = i_next_left;
 511              		.loc 1 167 13 is_stmt 1 view .LVU186
 512              		.loc 1 167 25 is_stmt 0 view .LVU187
 513 01fe 2F46     		mov	r7, r5
 514              	.LVL66:
 515              	.L23:
 168:Drivers/lvgl/src/draw/sw/lv_draw_sw_polygon.c ****         }
 169:Drivers/lvgl/src/draw/sw/lv_draw_sw_polygon.c **** 
 170:Drivers/lvgl/src/draw/sw/lv_draw_sw_polygon.c ****         if(mask_cnt == point_cnt) break;
 516              		.loc 1 170 9 is_stmt 1 view .LVU188
 517              		.loc 1 170 11 is_stmt 0 view .LVU189
 518 0200 C245     		cmp	r10, r8
 519 0202 41D0     		beq	.L25
 171:Drivers/lvgl/src/draw/sw/lv_draw_sw_polygon.c **** 
 172:Drivers/lvgl/src/draw/sw/lv_draw_sw_polygon.c ****         if(p[i_next_right].y >= p[i_prev_right].y) {
 520              		.loc 1 172 9 is_stmt 1 view .LVU190
 521              		.loc 1 172 13 is_stmt 0 view .LVU191
 522 0204 B500     		lsls	r5, r6, #2
 523              	.LVL67:
 524              		.loc 1 172 13 view .LVU192
 525 0206 04EB8603 		add	r3, r4, r6, lsl #2
 526              		.loc 1 172 27 view .LVU193
 527 020a B3F90200 		ldrsh	r0, [r3, #2]
 528              		.loc 1 172 34 view .LVU194
 529 020e 4FEA8901 		lsl	r1, r9, #2
 530 0212 04EB8903 		add	r3, r4, r9, lsl #2
 531              		.loc 1 172 48 view .LVU195
 532 0216 B3F90220 		ldrsh	r2, [r3, #2]
 533              		.loc 1 172 11 view .LVU196
 534 021a 9042     		cmp	r0, r2
 535 021c 07DB     		blt	.L26
 173:Drivers/lvgl/src/draw/sw/lv_draw_sw_polygon.c ****             if(p[i_next_right].y != p[i_prev_right].y &&
ARM GAS  /var/folders/0z/tsy30v1j4xl4_7kw94k978ww0000gn/T//cc3g6v1b.s 			page 14


 536              		.loc 1 173 13 is_stmt 1 view .LVU197
 537              		.loc 1 173 15 is_stmt 0 view .LVU198
 538 021e 03D0     		beq	.L27
 174:Drivers/lvgl/src/draw/sw/lv_draw_sw_polygon.c ****                p[i_next_right].x != p[i_prev_right].x) {
 539              		.loc 1 174 31 discriminator 1 view .LVU199
 540 0220 635F     		ldrsh	r3, [r4, r5]
 541              		.loc 1 174 52 discriminator 1 view .LVU200
 542 0222 615E     		ldrsh	r1, [r4, r1]
 173:Drivers/lvgl/src/draw/sw/lv_draw_sw_polygon.c ****             if(p[i_next_right].y != p[i_prev_right].y &&
 543              		.loc 1 173 55 discriminator 1 view .LVU201
 544 0224 8B42     		cmp	r3, r1
 545 0226 20D1     		bne	.L42
 546              	.L27:
 175:Drivers/lvgl/src/draw/sw/lv_draw_sw_polygon.c **** 
 176:Drivers/lvgl/src/draw/sw/lv_draw_sw_polygon.c ****                 lv_draw_mask_line_points_init(mp_next, p[i_prev_right].x, p[i_prev_right].y,
 177:Drivers/lvgl/src/draw/sw/lv_draw_sw_polygon.c ****                                               p[i_next_right].x, p[i_next_right].y,
 178:Drivers/lvgl/src/draw/sw/lv_draw_sw_polygon.c ****                                               LV_DRAW_MASK_LINE_SIDE_LEFT);
 179:Drivers/lvgl/src/draw/sw/lv_draw_sw_polygon.c ****                 lv_draw_mask_add(mp_next, mp);
 180:Drivers/lvgl/src/draw/sw/lv_draw_sw_polygon.c ****                 mp_next++;
 181:Drivers/lvgl/src/draw/sw/lv_draw_sw_polygon.c ****             }
 182:Drivers/lvgl/src/draw/sw/lv_draw_sw_polygon.c ****             mask_cnt++;
 547              		.loc 1 182 13 is_stmt 1 view .LVU202
 548              		.loc 1 182 21 is_stmt 0 view .LVU203
 549 0228 08F10108 		add	r8, r8, #1
 550              	.LVL68:
 183:Drivers/lvgl/src/draw/sw/lv_draw_sw_polygon.c ****             i_prev_right = i_next_right;
 551              		.loc 1 183 13 is_stmt 1 view .LVU204
 552              		.loc 1 183 26 is_stmt 0 view .LVU205
 553 022c B146     		mov	r9, r6
 554              	.LVL69:
 555              	.L26:
 184:Drivers/lvgl/src/draw/sw/lv_draw_sw_polygon.c ****         }
 185:Drivers/lvgl/src/draw/sw/lv_draw_sw_polygon.c **** 
 186:Drivers/lvgl/src/draw/sw/lv_draw_sw_polygon.c ****     } while(mask_cnt < point_cnt);
 556              		.loc 1 186 22 is_stmt 1 view .LVU206
 557 022e C245     		cmp	r10, r8
 558 0230 2AD9     		bls	.L25
 559              	.LVL70:
 560              	.L28:
 141:Drivers/lvgl/src/draw/sw/lv_draw_sw_polygon.c ****         if(!inv) {
 561              		.loc 1 141 5 view .LVU207
 142:Drivers/lvgl/src/draw/sw/lv_draw_sw_polygon.c ****             i_next_left = i_prev_left - 1;
 562              		.loc 1 142 9 view .LVU208
 142:Drivers/lvgl/src/draw/sw/lv_draw_sw_polygon.c ****             i_next_left = i_prev_left - 1;
 563              		.loc 1 142 11 is_stmt 0 view .LVU209
 564 0232 039B     		ldr	r3, [sp, #12]
 565 0234 002B     		cmp	r3, #0
 566 0236 C6D1     		bne	.L19
 143:Drivers/lvgl/src/draw/sw/lv_draw_sw_polygon.c ****             if(i_next_left < 0) i_next_left = point_cnt + i_next_left;
 567              		.loc 1 143 13 is_stmt 1 view .LVU210
 568              	.LVL71:
 144:Drivers/lvgl/src/draw/sw/lv_draw_sw_polygon.c **** 
 569              		.loc 1 144 13 view .LVU211
 144:Drivers/lvgl/src/draw/sw/lv_draw_sw_polygon.c **** 
 570              		.loc 1 144 15 is_stmt 0 view .LVU212
 571 0238 7D1E     		subs	r5, r7, #1
 572              	.LVL72:
ARM GAS  /var/folders/0z/tsy30v1j4xl4_7kw94k978ww0000gn/T//cc3g6v1b.s 			page 15


 144:Drivers/lvgl/src/draw/sw/lv_draw_sw_polygon.c **** 
 573              		.loc 1 144 15 view .LVU213
 574 023a C2D4     		bmi	.L43
 575              	.L20:
 146:Drivers/lvgl/src/draw/sw/lv_draw_sw_polygon.c ****             if(i_next_right > point_cnt - 1) i_next_right = 0;
 576              		.loc 1 146 13 is_stmt 1 view .LVU214
 146:Drivers/lvgl/src/draw/sw/lv_draw_sw_polygon.c ****             if(i_next_right > point_cnt - 1) i_next_right = 0;
 577              		.loc 1 146 26 is_stmt 0 view .LVU215
 578 023c 09F10106 		add	r6, r9, #1
 579              	.LVL73:
 147:Drivers/lvgl/src/draw/sw/lv_draw_sw_polygon.c ****         }
 580              		.loc 1 147 13 is_stmt 1 view .LVU216
 147:Drivers/lvgl/src/draw/sw/lv_draw_sw_polygon.c ****         }
 581              		.loc 1 147 15 is_stmt 0 view .LVU217
 582 0240 B345     		cmp	fp, r6
 583 0242 C7DC     		bgt	.L21
 147:Drivers/lvgl/src/draw/sw/lv_draw_sw_polygon.c ****         }
 584              		.loc 1 147 59 view .LVU218
 585 0244 0026     		movs	r6, #0
 586              	.LVL74:
 147:Drivers/lvgl/src/draw/sw/lv_draw_sw_polygon.c ****         }
 587              		.loc 1 147 59 view .LVU219
 588 0246 C5E7     		b	.L21
 589              	.LVL75:
 590              	.L40:
 154:Drivers/lvgl/src/draw/sw/lv_draw_sw_polygon.c ****         }
 591              		.loc 1 154 34 is_stmt 1 discriminator 1 view .LVU220
 154:Drivers/lvgl/src/draw/sw/lv_draw_sw_polygon.c ****         }
 592              		.loc 1 154 47 is_stmt 0 discriminator 1 view .LVU221
 593 0248 5E44     		add	r6, r6, fp
 594              	.LVL76:
 154:Drivers/lvgl/src/draw/sw/lv_draw_sw_polygon.c ****         }
 595              		.loc 1 154 47 discriminator 1 view .LVU222
 596 024a C3E7     		b	.L21
 597              	.L41:
 160:Drivers/lvgl/src/draw/sw/lv_draw_sw_polygon.c ****                                               p[i_next_left].x, p[i_next_left].y,
 598              		.loc 1 160 17 is_stmt 1 view .LVU223
 599 024c 0127     		movs	r7, #1
 600              	.LVL77:
 160:Drivers/lvgl/src/draw/sw/lv_draw_sw_polygon.c ****                                               p[i_next_left].x, p[i_next_left].y,
 601              		.loc 1 160 17 is_stmt 0 view .LVU224
 602 024e 0197     		str	r7, [sp, #4]
 603 0250 0090     		str	r0, [sp]
 604 0252 7746     		mov	r7, lr
 605 0254 7046     		mov	r0, lr
 606 0256 FFF7FEFF 		bl	lv_draw_mask_line_points_init
 607              	.LVL78:
 163:Drivers/lvgl/src/draw/sw/lv_draw_sw_polygon.c ****                 mp_next++;
 608              		.loc 1 163 17 is_stmt 1 view .LVU225
 609 025a 0599     		ldr	r1, [sp, #20]
 610 025c 3846     		mov	r0, r7
 611 025e FFF7FEFF 		bl	lv_draw_mask_add
 612              	.LVL79:
 164:Drivers/lvgl/src/draw/sw/lv_draw_sw_polygon.c ****             }
 613              		.loc 1 164 17 view .LVU226
 164:Drivers/lvgl/src/draw/sw/lv_draw_sw_polygon.c ****             }
 614              		.loc 1 164 24 is_stmt 0 view .LVU227
ARM GAS  /var/folders/0z/tsy30v1j4xl4_7kw94k978ww0000gn/T//cc3g6v1b.s 			page 16


 615 0262 3B46     		mov	r3, r7
 616 0264 2C33     		adds	r3, r3, #44
 617 0266 9E46     		mov	lr, r3
 618              	.LVL80:
 164:Drivers/lvgl/src/draw/sw/lv_draw_sw_polygon.c ****             }
 619              		.loc 1 164 24 view .LVU228
 620 0268 C7E7     		b	.L24
 621              	.LVL81:
 622              	.L42:
 176:Drivers/lvgl/src/draw/sw/lv_draw_sw_polygon.c ****                                               p[i_next_right].x, p[i_next_right].y,
 623              		.loc 1 176 17 is_stmt 1 view .LVU229
 624 026a 0025     		movs	r5, #0
 625 026c 0195     		str	r5, [sp, #4]
 626 026e 0090     		str	r0, [sp]
 627 0270 7546     		mov	r5, lr
 628 0272 7046     		mov	r0, lr
 629 0274 FFF7FEFF 		bl	lv_draw_mask_line_points_init
 630              	.LVL82:
 179:Drivers/lvgl/src/draw/sw/lv_draw_sw_polygon.c ****                 mp_next++;
 631              		.loc 1 179 17 view .LVU230
 632 0278 0599     		ldr	r1, [sp, #20]
 633 027a 2846     		mov	r0, r5
 634 027c FFF7FEFF 		bl	lv_draw_mask_add
 635              	.LVL83:
 180:Drivers/lvgl/src/draw/sw/lv_draw_sw_polygon.c ****             }
 636              		.loc 1 180 17 view .LVU231
 180:Drivers/lvgl/src/draw/sw/lv_draw_sw_polygon.c ****             }
 637              		.loc 1 180 24 is_stmt 0 view .LVU232
 638 0280 2B46     		mov	r3, r5
 639 0282 2C33     		adds	r3, r3, #44
 640 0284 9E46     		mov	lr, r3
 641              	.LVL84:
 180:Drivers/lvgl/src/draw/sw/lv_draw_sw_polygon.c ****             }
 642              		.loc 1 180 24 view .LVU233
 643 0286 CFE7     		b	.L27
 644              	.LVL85:
 645              	.L25:
 187:Drivers/lvgl/src/draw/sw/lv_draw_sw_polygon.c **** 
 188:Drivers/lvgl/src/draw/sw/lv_draw_sw_polygon.c ****     lv_draw_rect(draw_ctx, draw_dsc, &poly_coords);
 646              		.loc 1 188 5 is_stmt 1 view .LVU234
 647 0288 0AAA     		add	r2, sp, #40
 648 028a 0699     		ldr	r1, [sp, #24]
 649 028c 049E     		ldr	r6, [sp, #16]
 650              	.LVL86:
 651              		.loc 1 188 5 is_stmt 0 view .LVU235
 652 028e 3046     		mov	r0, r6
 653 0290 FFF7FEFF 		bl	lv_draw_rect
 654              	.LVL87:
 189:Drivers/lvgl/src/draw/sw/lv_draw_sw_polygon.c **** 
 190:Drivers/lvgl/src/draw/sw/lv_draw_sw_polygon.c ****     lv_draw_mask_remove_custom(mp);
 655              		.loc 1 190 5 is_stmt 1 view .LVU236
 656 0294 059D     		ldr	r5, [sp, #20]
 657 0296 2846     		mov	r0, r5
 658 0298 FFF7FEFF 		bl	lv_draw_mask_remove_custom
 659              	.LVL88:
 191:Drivers/lvgl/src/draw/sw/lv_draw_sw_polygon.c **** 
 192:Drivers/lvgl/src/draw/sw/lv_draw_sw_polygon.c ****     lv_mem_buf_release(mp);
ARM GAS  /var/folders/0z/tsy30v1j4xl4_7kw94k978ww0000gn/T//cc3g6v1b.s 			page 17


 660              		.loc 1 192 5 view .LVU237
 661 029c 2846     		mov	r0, r5
 662 029e FFF7FEFF 		bl	lv_mem_buf_release
 663              	.LVL89:
 193:Drivers/lvgl/src/draw/sw/lv_draw_sw_polygon.c ****     lv_mem_buf_release(p);
 664              		.loc 1 193 5 view .LVU238
 665 02a2 2046     		mov	r0, r4
 666 02a4 FFF7FEFF 		bl	lv_mem_buf_release
 667              	.LVL90:
 194:Drivers/lvgl/src/draw/sw/lv_draw_sw_polygon.c **** 
 195:Drivers/lvgl/src/draw/sw/lv_draw_sw_polygon.c ****     draw_ctx->clip_area = clip_area_ori;
 668              		.loc 1 195 5 view .LVU239
 669              		.loc 1 195 25 is_stmt 0 view .LVU240
 670 02a8 079A     		ldr	r2, [sp, #28]
 671 02aa B260     		str	r2, [r6, #8]
 672              	.LVL91:
 673              	.L1:
 196:Drivers/lvgl/src/draw/sw/lv_draw_sw_polygon.c **** #else
 197:Drivers/lvgl/src/draw/sw/lv_draw_sw_polygon.c ****     LV_UNUSED(points);
 198:Drivers/lvgl/src/draw/sw/lv_draw_sw_polygon.c ****     LV_UNUSED(point_cnt);
 199:Drivers/lvgl/src/draw/sw/lv_draw_sw_polygon.c ****     LV_UNUSED(draw_ctx);
 200:Drivers/lvgl/src/draw/sw/lv_draw_sw_polygon.c ****     LV_UNUSED(draw_dsc);
 201:Drivers/lvgl/src/draw/sw/lv_draw_sw_polygon.c ****     LV_LOG_WARN("Can't draw polygon with LV_DRAW_COMPLEX == 0");
 202:Drivers/lvgl/src/draw/sw/lv_draw_sw_polygon.c **** #endif /*LV_DRAW_COMPLEX*/
 203:Drivers/lvgl/src/draw/sw/lv_draw_sw_polygon.c **** }
 674              		.loc 1 203 1 view .LVU241
 675 02ac 0DB0     		add	sp, sp, #52
 676              		.cfi_def_cfa_offset 36
 677              		@ sp needed
 678 02ae BDE8F08F 		pop	{r4, r5, r6, r7, r8, r9, r10, fp, pc}
 679              	.LVL92:
 680              	.L45:
 681              		.loc 1 203 1 view .LVU242
 682 02b2 00BF     		.align	2
 683              	.L44:
 684 02b4 00000000 		.word	.LANCHOR0
 685              		.cfi_endproc
 686              	.LFE56:
 688              		.section	.rodata
 689              		.align	2
 690              		.set	.LANCHOR0,. + 0
 691              	.LC0:
 692 0000 FF1F     		.short	8191
 693 0002 FF1F     		.short	8191
 694 0004 01E0     		.short	-8191
 695 0006 01E0     		.short	-8191
 696              		.text
 697              	.Letext0:
 698              		.file 2 "/Users/johannes/Library/Application Support/Code/User/globalStorage/bmd.stm32-for-vscode/
 699              		.file 3 "/Users/johannes/Library/Application Support/Code/User/globalStorage/bmd.stm32-for-vscode/
 700              		.file 4 "Drivers/lvgl/src/draw/sw/../../misc/lv_types.h"
 701              		.file 5 "/Users/johannes/Library/Application Support/Code/User/globalStorage/bmd.stm32-for-vscode/
 702              		.file 6 "Drivers/lvgl/src/draw/sw/../../misc/lv_color.h"
 703              		.file 7 "Drivers/lvgl/src/draw/sw/../../misc/lv_area.h"
 704              		.file 8 "Drivers/lvgl/src/draw/sw/../../misc/../font/lv_font.h"
 705              		.file 9 "Drivers/lvgl/src/draw/sw/../../misc/lv_txt.h"
 706              		.file 10 "Drivers/lvgl/src/draw/sw/../../misc/lv_bidi.h"
ARM GAS  /var/folders/0z/tsy30v1j4xl4_7kw94k978ww0000gn/T//cc3g6v1b.s 			page 18


 707              		.file 11 "Drivers/lvgl/src/draw/sw/../../misc/lv_style.h"
 708              		.file 12 "Drivers/lvgl/src/draw/sw/../lv_draw_mask.h"
 709              		.file 13 "Drivers/lvgl/src/draw/sw/../lv_img_buf.h"
 710              		.file 14 "Drivers/lvgl/src/draw/sw/../lv_draw_rect.h"
 711              		.file 15 "Drivers/lvgl/src/draw/sw/../lv_draw_label.h"
 712              		.file 16 "Drivers/lvgl/src/draw/sw/../lv_draw_img.h"
 713              		.file 17 "Drivers/lvgl/src/draw/sw/../lv_draw_line.h"
 714              		.file 18 "Drivers/lvgl/src/draw/sw/../lv_draw_arc.h"
 715              		.file 19 "Drivers/lvgl/src/draw/sw/../lv_draw_layer.h"
 716              		.file 20 "Drivers/lvgl/src/draw/sw/../lv_draw.h"
 717              		.file 21 "Drivers/lvgl/src/draw/sw/../../misc/lv_mem.h"
ARM GAS  /var/folders/0z/tsy30v1j4xl4_7kw94k978ww0000gn/T//cc3g6v1b.s 			page 19

