ARM GAS  /var/folders/0z/tsy30v1j4xl4_7kw94k978ww0000gn/T//cc0noGMx.s 			page 1


   1              		.cpu cortex-m4
   2              		.arch armv7e-m
   3              		.fpu fpv4-sp-d16
   4              		.eabi_attribute 27, 1
   5              		.eabi_attribute 28, 1
   6              		.eabi_attribute 20, 1
   7              		.eabi_attribute 21, 1
   8              		.eabi_attribute 23, 3
   9              		.eabi_attribute 24, 1
  10              		.eabi_attribute 25, 1
  11              		.eabi_attribute 26, 1
  12              		.eabi_attribute 30, 1
  13              		.eabi_attribute 34, 1
  14              		.eabi_attribute 18, 4
  15              		.file	"lv_draw_sw_rect.c"
  16              		.text
  17              	.Ltext0:
  18              		.cfi_sections	.debug_frame
  19              		.section	.text.draw_border_simple,"ax",%progbits
  20              		.align	1
  21              		.syntax unified
  22              		.thumb
  23              		.thumb_func
  25              	draw_border_simple:
  26              	.LVL0:
  27              	.LFB171:
  28              		.file 1 "Drivers/lvgl/src/draw/sw/lv_draw_sw_rect.c"
   1:Drivers/lvgl/src/draw/sw/lv_draw_sw_rect.c **** /**
   2:Drivers/lvgl/src/draw/sw/lv_draw_sw_rect.c ****  * @file lv_draw_rect.c
   3:Drivers/lvgl/src/draw/sw/lv_draw_sw_rect.c ****  *
   4:Drivers/lvgl/src/draw/sw/lv_draw_sw_rect.c ****  */
   5:Drivers/lvgl/src/draw/sw/lv_draw_sw_rect.c **** 
   6:Drivers/lvgl/src/draw/sw/lv_draw_sw_rect.c **** /*********************
   7:Drivers/lvgl/src/draw/sw/lv_draw_sw_rect.c ****  *      INCLUDES
   8:Drivers/lvgl/src/draw/sw/lv_draw_sw_rect.c ****  *********************/
   9:Drivers/lvgl/src/draw/sw/lv_draw_sw_rect.c **** #include "lv_draw_sw.h"
  10:Drivers/lvgl/src/draw/sw/lv_draw_sw_rect.c **** #include "../../misc/lv_math.h"
  11:Drivers/lvgl/src/draw/sw/lv_draw_sw_rect.c **** #include "../../misc/lv_txt_ap.h"
  12:Drivers/lvgl/src/draw/sw/lv_draw_sw_rect.c **** #include "../../core/lv_refr.h"
  13:Drivers/lvgl/src/draw/sw/lv_draw_sw_rect.c **** #include "../../misc/lv_assert.h"
  14:Drivers/lvgl/src/draw/sw/lv_draw_sw_rect.c **** #include "lv_draw_sw_dither.h"
  15:Drivers/lvgl/src/draw/sw/lv_draw_sw_rect.c **** 
  16:Drivers/lvgl/src/draw/sw/lv_draw_sw_rect.c **** /*********************
  17:Drivers/lvgl/src/draw/sw/lv_draw_sw_rect.c ****  *      DEFINES
  18:Drivers/lvgl/src/draw/sw/lv_draw_sw_rect.c ****  *********************/
  19:Drivers/lvgl/src/draw/sw/lv_draw_sw_rect.c **** #define SHADOW_UPSCALE_SHIFT    6
  20:Drivers/lvgl/src/draw/sw/lv_draw_sw_rect.c **** #define SHADOW_ENHANCE          1
  21:Drivers/lvgl/src/draw/sw/lv_draw_sw_rect.c **** #define SPLIT_LIMIT             50
  22:Drivers/lvgl/src/draw/sw/lv_draw_sw_rect.c **** 
  23:Drivers/lvgl/src/draw/sw/lv_draw_sw_rect.c **** 
  24:Drivers/lvgl/src/draw/sw/lv_draw_sw_rect.c **** /**********************
  25:Drivers/lvgl/src/draw/sw/lv_draw_sw_rect.c ****  *      TYPEDEFS
  26:Drivers/lvgl/src/draw/sw/lv_draw_sw_rect.c ****  **********************/
  27:Drivers/lvgl/src/draw/sw/lv_draw_sw_rect.c **** 
  28:Drivers/lvgl/src/draw/sw/lv_draw_sw_rect.c **** /**********************
  29:Drivers/lvgl/src/draw/sw/lv_draw_sw_rect.c ****  *  STATIC PROTOTYPES
  30:Drivers/lvgl/src/draw/sw/lv_draw_sw_rect.c ****  **********************/
ARM GAS  /var/folders/0z/tsy30v1j4xl4_7kw94k978ww0000gn/T//cc0noGMx.s 			page 2


  31:Drivers/lvgl/src/draw/sw/lv_draw_sw_rect.c **** static void draw_bg(lv_draw_ctx_t * draw_ctx, const lv_draw_rect_dsc_t * dsc, const lv_area_t * coo
  32:Drivers/lvgl/src/draw/sw/lv_draw_sw_rect.c **** static void draw_bg_img(lv_draw_ctx_t * draw_ctx, const lv_draw_rect_dsc_t * dsc, const lv_area_t *
  33:Drivers/lvgl/src/draw/sw/lv_draw_sw_rect.c **** static void draw_border(lv_draw_ctx_t * draw_ctx, const lv_draw_rect_dsc_t * dsc, const lv_area_t *
  34:Drivers/lvgl/src/draw/sw/lv_draw_sw_rect.c **** 
  35:Drivers/lvgl/src/draw/sw/lv_draw_sw_rect.c **** static void draw_outline(lv_draw_ctx_t * draw_ctx, const lv_draw_rect_dsc_t * dsc, const lv_area_t 
  36:Drivers/lvgl/src/draw/sw/lv_draw_sw_rect.c **** 
  37:Drivers/lvgl/src/draw/sw/lv_draw_sw_rect.c **** #if LV_DRAW_COMPLEX
  38:Drivers/lvgl/src/draw/sw/lv_draw_sw_rect.c **** static void /* LV_ATTRIBUTE_FAST_MEM */ draw_shadow(lv_draw_ctx_t * draw_ctx, const lv_draw_rect_ds
  39:Drivers/lvgl/src/draw/sw/lv_draw_sw_rect.c ****                                                     const lv_area_t * coords);
  40:Drivers/lvgl/src/draw/sw/lv_draw_sw_rect.c **** static void /* LV_ATTRIBUTE_FAST_MEM */ shadow_draw_corner_buf(const lv_area_t * coords, uint16_t *
  41:Drivers/lvgl/src/draw/sw/lv_draw_sw_rect.c ****                                                                lv_coord_t s, lv_coord_t r);
  42:Drivers/lvgl/src/draw/sw/lv_draw_sw_rect.c **** static void /* LV_ATTRIBUTE_FAST_MEM */ shadow_blur_corner(lv_coord_t size, lv_coord_t sw, uint16_t
  43:Drivers/lvgl/src/draw/sw/lv_draw_sw_rect.c **** #endif
  44:Drivers/lvgl/src/draw/sw/lv_draw_sw_rect.c **** 
  45:Drivers/lvgl/src/draw/sw/lv_draw_sw_rect.c **** void draw_border_generic(lv_draw_ctx_t * draw_ctx, const lv_area_t * outer_area, const lv_area_t * 
  46:Drivers/lvgl/src/draw/sw/lv_draw_sw_rect.c ****                          lv_coord_t rout, lv_coord_t rin, lv_color_t color, lv_opa_t opa, lv_blend_
  47:Drivers/lvgl/src/draw/sw/lv_draw_sw_rect.c **** 
  48:Drivers/lvgl/src/draw/sw/lv_draw_sw_rect.c **** static void draw_border_simple(lv_draw_ctx_t * draw_ctx, const lv_area_t * outer_area, const lv_are
  49:Drivers/lvgl/src/draw/sw/lv_draw_sw_rect.c ****                                lv_color_t color, lv_opa_t opa);
  50:Drivers/lvgl/src/draw/sw/lv_draw_sw_rect.c **** 
  51:Drivers/lvgl/src/draw/sw/lv_draw_sw_rect.c **** 
  52:Drivers/lvgl/src/draw/sw/lv_draw_sw_rect.c **** /**********************
  53:Drivers/lvgl/src/draw/sw/lv_draw_sw_rect.c ****  *  STATIC VARIABLES
  54:Drivers/lvgl/src/draw/sw/lv_draw_sw_rect.c ****  **********************/
  55:Drivers/lvgl/src/draw/sw/lv_draw_sw_rect.c **** #if defined(LV_SHADOW_CACHE_SIZE) && LV_SHADOW_CACHE_SIZE > 0
  56:Drivers/lvgl/src/draw/sw/lv_draw_sw_rect.c ****     static uint8_t sh_cache[LV_SHADOW_CACHE_SIZE * LV_SHADOW_CACHE_SIZE];
  57:Drivers/lvgl/src/draw/sw/lv_draw_sw_rect.c ****     static int32_t sh_cache_size = -1;
  58:Drivers/lvgl/src/draw/sw/lv_draw_sw_rect.c ****     static int32_t sh_cache_r = -1;
  59:Drivers/lvgl/src/draw/sw/lv_draw_sw_rect.c **** #endif
  60:Drivers/lvgl/src/draw/sw/lv_draw_sw_rect.c **** 
  61:Drivers/lvgl/src/draw/sw/lv_draw_sw_rect.c **** /**********************
  62:Drivers/lvgl/src/draw/sw/lv_draw_sw_rect.c ****  *      MACROS
  63:Drivers/lvgl/src/draw/sw/lv_draw_sw_rect.c ****  **********************/
  64:Drivers/lvgl/src/draw/sw/lv_draw_sw_rect.c **** 
  65:Drivers/lvgl/src/draw/sw/lv_draw_sw_rect.c **** /**********************
  66:Drivers/lvgl/src/draw/sw/lv_draw_sw_rect.c ****  *   GLOBAL FUNCTIONS
  67:Drivers/lvgl/src/draw/sw/lv_draw_sw_rect.c ****  **********************/
  68:Drivers/lvgl/src/draw/sw/lv_draw_sw_rect.c **** 
  69:Drivers/lvgl/src/draw/sw/lv_draw_sw_rect.c **** void lv_draw_sw_rect(lv_draw_ctx_t * draw_ctx, const lv_draw_rect_dsc_t * dsc, const lv_area_t * co
  70:Drivers/lvgl/src/draw/sw/lv_draw_sw_rect.c **** {
  71:Drivers/lvgl/src/draw/sw/lv_draw_sw_rect.c **** #if LV_DRAW_COMPLEX
  72:Drivers/lvgl/src/draw/sw/lv_draw_sw_rect.c ****     draw_shadow(draw_ctx, dsc, coords);
  73:Drivers/lvgl/src/draw/sw/lv_draw_sw_rect.c **** #endif
  74:Drivers/lvgl/src/draw/sw/lv_draw_sw_rect.c **** 
  75:Drivers/lvgl/src/draw/sw/lv_draw_sw_rect.c ****     draw_bg(draw_ctx, dsc, coords);
  76:Drivers/lvgl/src/draw/sw/lv_draw_sw_rect.c ****     draw_bg_img(draw_ctx, dsc, coords);
  77:Drivers/lvgl/src/draw/sw/lv_draw_sw_rect.c **** 
  78:Drivers/lvgl/src/draw/sw/lv_draw_sw_rect.c ****     draw_border(draw_ctx, dsc, coords);
  79:Drivers/lvgl/src/draw/sw/lv_draw_sw_rect.c **** 
  80:Drivers/lvgl/src/draw/sw/lv_draw_sw_rect.c ****     draw_outline(draw_ctx, dsc, coords);
  81:Drivers/lvgl/src/draw/sw/lv_draw_sw_rect.c **** 
  82:Drivers/lvgl/src/draw/sw/lv_draw_sw_rect.c ****     LV_ASSERT_MEM_INTEGRITY();
  83:Drivers/lvgl/src/draw/sw/lv_draw_sw_rect.c **** }
  84:Drivers/lvgl/src/draw/sw/lv_draw_sw_rect.c **** 
  85:Drivers/lvgl/src/draw/sw/lv_draw_sw_rect.c **** void lv_draw_sw_bg(lv_draw_ctx_t * draw_ctx, const lv_draw_rect_dsc_t * dsc, const lv_area_t * coor
  86:Drivers/lvgl/src/draw/sw/lv_draw_sw_rect.c **** {
  87:Drivers/lvgl/src/draw/sw/lv_draw_sw_rect.c **** #if LV_COLOR_SCREEN_TRANSP && LV_COLOR_DEPTH == 32
ARM GAS  /var/folders/0z/tsy30v1j4xl4_7kw94k978ww0000gn/T//cc0noGMx.s 			page 3


  88:Drivers/lvgl/src/draw/sw/lv_draw_sw_rect.c ****     lv_memset_00(draw_ctx->buf, lv_area_get_size(draw_ctx->buf_area) * sizeof(lv_color_t));
  89:Drivers/lvgl/src/draw/sw/lv_draw_sw_rect.c **** #endif
  90:Drivers/lvgl/src/draw/sw/lv_draw_sw_rect.c **** 
  91:Drivers/lvgl/src/draw/sw/lv_draw_sw_rect.c ****     draw_bg(draw_ctx, dsc, coords);
  92:Drivers/lvgl/src/draw/sw/lv_draw_sw_rect.c ****     draw_bg_img(draw_ctx, dsc, coords);
  93:Drivers/lvgl/src/draw/sw/lv_draw_sw_rect.c **** }
  94:Drivers/lvgl/src/draw/sw/lv_draw_sw_rect.c **** 
  95:Drivers/lvgl/src/draw/sw/lv_draw_sw_rect.c **** 
  96:Drivers/lvgl/src/draw/sw/lv_draw_sw_rect.c **** /**********************
  97:Drivers/lvgl/src/draw/sw/lv_draw_sw_rect.c ****  *   STATIC FUNCTIONS
  98:Drivers/lvgl/src/draw/sw/lv_draw_sw_rect.c ****  **********************/
  99:Drivers/lvgl/src/draw/sw/lv_draw_sw_rect.c **** 
 100:Drivers/lvgl/src/draw/sw/lv_draw_sw_rect.c **** static void draw_bg(lv_draw_ctx_t * draw_ctx, const lv_draw_rect_dsc_t * dsc, const lv_area_t * coo
 101:Drivers/lvgl/src/draw/sw/lv_draw_sw_rect.c **** {
 102:Drivers/lvgl/src/draw/sw/lv_draw_sw_rect.c ****     if(dsc->bg_opa <= LV_OPA_MIN) return;
 103:Drivers/lvgl/src/draw/sw/lv_draw_sw_rect.c **** 
 104:Drivers/lvgl/src/draw/sw/lv_draw_sw_rect.c ****     lv_area_t bg_coords;
 105:Drivers/lvgl/src/draw/sw/lv_draw_sw_rect.c ****     lv_area_copy(&bg_coords, coords);
 106:Drivers/lvgl/src/draw/sw/lv_draw_sw_rect.c **** 
 107:Drivers/lvgl/src/draw/sw/lv_draw_sw_rect.c ****     /*If the border fully covers make the bg area 1px smaller to avoid artifacts on the corners*/
 108:Drivers/lvgl/src/draw/sw/lv_draw_sw_rect.c ****     if(dsc->border_width > 1 && dsc->border_opa >= LV_OPA_MAX && dsc->radius != 0) {
 109:Drivers/lvgl/src/draw/sw/lv_draw_sw_rect.c ****         bg_coords.x1 += (dsc->border_side & LV_BORDER_SIDE_LEFT) ? 1 : 0;
 110:Drivers/lvgl/src/draw/sw/lv_draw_sw_rect.c ****         bg_coords.y1 += (dsc->border_side & LV_BORDER_SIDE_TOP) ? 1 : 0;
 111:Drivers/lvgl/src/draw/sw/lv_draw_sw_rect.c ****         bg_coords.x2 -= (dsc->border_side & LV_BORDER_SIDE_RIGHT) ? 1 : 0;
 112:Drivers/lvgl/src/draw/sw/lv_draw_sw_rect.c ****         bg_coords.y2 -= (dsc->border_side & LV_BORDER_SIDE_BOTTOM) ? 1 : 0;
 113:Drivers/lvgl/src/draw/sw/lv_draw_sw_rect.c ****     }
 114:Drivers/lvgl/src/draw/sw/lv_draw_sw_rect.c **** 
 115:Drivers/lvgl/src/draw/sw/lv_draw_sw_rect.c ****     lv_area_t clipped_coords;
 116:Drivers/lvgl/src/draw/sw/lv_draw_sw_rect.c ****     if(!_lv_area_intersect(&clipped_coords, &bg_coords, draw_ctx->clip_area)) return;
 117:Drivers/lvgl/src/draw/sw/lv_draw_sw_rect.c **** 
 118:Drivers/lvgl/src/draw/sw/lv_draw_sw_rect.c ****     lv_grad_dir_t grad_dir = dsc->bg_grad.dir;
 119:Drivers/lvgl/src/draw/sw/lv_draw_sw_rect.c ****     lv_color_t bg_color    = grad_dir == LV_GRAD_DIR_NONE ? dsc->bg_color : dsc->bg_grad.stops[0].c
 120:Drivers/lvgl/src/draw/sw/lv_draw_sw_rect.c ****     if(bg_color.full == dsc->bg_grad.stops[1].color.full) grad_dir = LV_GRAD_DIR_NONE;
 121:Drivers/lvgl/src/draw/sw/lv_draw_sw_rect.c **** 
 122:Drivers/lvgl/src/draw/sw/lv_draw_sw_rect.c ****     bool mask_any = lv_draw_mask_is_any(&bg_coords);
 123:Drivers/lvgl/src/draw/sw/lv_draw_sw_rect.c ****     lv_draw_sw_blend_dsc_t blend_dsc = {0};
 124:Drivers/lvgl/src/draw/sw/lv_draw_sw_rect.c ****     blend_dsc.blend_mode = dsc->blend_mode;
 125:Drivers/lvgl/src/draw/sw/lv_draw_sw_rect.c ****     blend_dsc.color = bg_color;
 126:Drivers/lvgl/src/draw/sw/lv_draw_sw_rect.c **** 
 127:Drivers/lvgl/src/draw/sw/lv_draw_sw_rect.c ****     /*Most simple case: just a plain rectangle*/
 128:Drivers/lvgl/src/draw/sw/lv_draw_sw_rect.c ****     if(!mask_any && dsc->radius == 0 && (grad_dir == LV_GRAD_DIR_NONE)) {
 129:Drivers/lvgl/src/draw/sw/lv_draw_sw_rect.c ****         blend_dsc.blend_area = &bg_coords;
 130:Drivers/lvgl/src/draw/sw/lv_draw_sw_rect.c ****         blend_dsc.opa = dsc->bg_opa;
 131:Drivers/lvgl/src/draw/sw/lv_draw_sw_rect.c ****         lv_draw_sw_blend(draw_ctx, &blend_dsc);
 132:Drivers/lvgl/src/draw/sw/lv_draw_sw_rect.c ****         return;
 133:Drivers/lvgl/src/draw/sw/lv_draw_sw_rect.c ****     }
 134:Drivers/lvgl/src/draw/sw/lv_draw_sw_rect.c **** 
 135:Drivers/lvgl/src/draw/sw/lv_draw_sw_rect.c ****     /*Complex case: there is gradient, mask, or radius*/
 136:Drivers/lvgl/src/draw/sw/lv_draw_sw_rect.c **** #if LV_DRAW_COMPLEX == 0
 137:Drivers/lvgl/src/draw/sw/lv_draw_sw_rect.c ****     LV_LOG_WARN("Can't draw complex rectangle because LV_DRAW_COMPLEX = 0");
 138:Drivers/lvgl/src/draw/sw/lv_draw_sw_rect.c **** #else
 139:Drivers/lvgl/src/draw/sw/lv_draw_sw_rect.c ****     lv_opa_t opa = dsc->bg_opa >= LV_OPA_MAX ? LV_OPA_COVER : dsc->bg_opa;
 140:Drivers/lvgl/src/draw/sw/lv_draw_sw_rect.c **** 
 141:Drivers/lvgl/src/draw/sw/lv_draw_sw_rect.c ****     /*Get the real radius. Can't be larger than the half of the shortest side */
 142:Drivers/lvgl/src/draw/sw/lv_draw_sw_rect.c ****     lv_coord_t coords_bg_w = lv_area_get_width(&bg_coords);
 143:Drivers/lvgl/src/draw/sw/lv_draw_sw_rect.c ****     lv_coord_t coords_bg_h = lv_area_get_height(&bg_coords);
 144:Drivers/lvgl/src/draw/sw/lv_draw_sw_rect.c ****     int32_t short_side = LV_MIN(coords_bg_w, coords_bg_h);
ARM GAS  /var/folders/0z/tsy30v1j4xl4_7kw94k978ww0000gn/T//cc0noGMx.s 			page 4


 145:Drivers/lvgl/src/draw/sw/lv_draw_sw_rect.c ****     int32_t rout = LV_MIN(dsc->radius, short_side >> 1);
 146:Drivers/lvgl/src/draw/sw/lv_draw_sw_rect.c **** 
 147:Drivers/lvgl/src/draw/sw/lv_draw_sw_rect.c ****     /*Add a radius mask if there is radius*/
 148:Drivers/lvgl/src/draw/sw/lv_draw_sw_rect.c ****     int32_t clipped_w = lv_area_get_width(&clipped_coords);
 149:Drivers/lvgl/src/draw/sw/lv_draw_sw_rect.c ****     int16_t mask_rout_id = LV_MASK_ID_INV;
 150:Drivers/lvgl/src/draw/sw/lv_draw_sw_rect.c ****     lv_opa_t * mask_buf = NULL;
 151:Drivers/lvgl/src/draw/sw/lv_draw_sw_rect.c ****     lv_draw_mask_radius_param_t mask_rout_param;
 152:Drivers/lvgl/src/draw/sw/lv_draw_sw_rect.c ****     if(rout > 0 || mask_any) {
 153:Drivers/lvgl/src/draw/sw/lv_draw_sw_rect.c ****         mask_buf = lv_mem_buf_get(clipped_w);
 154:Drivers/lvgl/src/draw/sw/lv_draw_sw_rect.c ****         lv_draw_mask_radius_init(&mask_rout_param, &bg_coords, rout, false);
 155:Drivers/lvgl/src/draw/sw/lv_draw_sw_rect.c ****         mask_rout_id = lv_draw_mask_add(&mask_rout_param, NULL);
 156:Drivers/lvgl/src/draw/sw/lv_draw_sw_rect.c ****     }
 157:Drivers/lvgl/src/draw/sw/lv_draw_sw_rect.c **** 
 158:Drivers/lvgl/src/draw/sw/lv_draw_sw_rect.c ****     int32_t h;
 159:Drivers/lvgl/src/draw/sw/lv_draw_sw_rect.c **** 
 160:Drivers/lvgl/src/draw/sw/lv_draw_sw_rect.c ****     lv_area_t blend_area;
 161:Drivers/lvgl/src/draw/sw/lv_draw_sw_rect.c ****     blend_area.x1 = clipped_coords.x1;
 162:Drivers/lvgl/src/draw/sw/lv_draw_sw_rect.c ****     blend_area.x2 = clipped_coords.x2;
 163:Drivers/lvgl/src/draw/sw/lv_draw_sw_rect.c **** 
 164:Drivers/lvgl/src/draw/sw/lv_draw_sw_rect.c ****     blend_dsc.mask_buf = mask_buf;
 165:Drivers/lvgl/src/draw/sw/lv_draw_sw_rect.c ****     blend_dsc.blend_area = &blend_area;
 166:Drivers/lvgl/src/draw/sw/lv_draw_sw_rect.c ****     blend_dsc.mask_area = &blend_area;
 167:Drivers/lvgl/src/draw/sw/lv_draw_sw_rect.c ****     blend_dsc.opa = LV_OPA_COVER;
 168:Drivers/lvgl/src/draw/sw/lv_draw_sw_rect.c **** 
 169:Drivers/lvgl/src/draw/sw/lv_draw_sw_rect.c **** 
 170:Drivers/lvgl/src/draw/sw/lv_draw_sw_rect.c ****     /*Get gradient if appropriate*/
 171:Drivers/lvgl/src/draw/sw/lv_draw_sw_rect.c ****     lv_grad_t * grad = lv_gradient_get(&dsc->bg_grad, coords_bg_w, coords_bg_h);
 172:Drivers/lvgl/src/draw/sw/lv_draw_sw_rect.c ****     if(grad && grad_dir == LV_GRAD_DIR_HOR) {
 173:Drivers/lvgl/src/draw/sw/lv_draw_sw_rect.c ****         blend_dsc.src_buf = grad->map + clipped_coords.x1 - bg_coords.x1;
 174:Drivers/lvgl/src/draw/sw/lv_draw_sw_rect.c ****     }
 175:Drivers/lvgl/src/draw/sw/lv_draw_sw_rect.c **** 
 176:Drivers/lvgl/src/draw/sw/lv_draw_sw_rect.c **** #if _DITHER_GRADIENT
 177:Drivers/lvgl/src/draw/sw/lv_draw_sw_rect.c ****     lv_dither_mode_t dither_mode = dsc->bg_grad.dither;
 178:Drivers/lvgl/src/draw/sw/lv_draw_sw_rect.c ****     lv_dither_func_t dither_func = &lv_dither_none;
 179:Drivers/lvgl/src/draw/sw/lv_draw_sw_rect.c ****     lv_coord_t grad_size = coords_bg_w;
 180:Drivers/lvgl/src/draw/sw/lv_draw_sw_rect.c ****     if(grad_dir == LV_GRAD_DIR_VER && dither_mode != LV_DITHER_NONE) {
 181:Drivers/lvgl/src/draw/sw/lv_draw_sw_rect.c ****         /* When dithering, we are still using a map that's changing from line to line*/
 182:Drivers/lvgl/src/draw/sw/lv_draw_sw_rect.c ****         blend_dsc.src_buf = grad->map;
 183:Drivers/lvgl/src/draw/sw/lv_draw_sw_rect.c ****     }
 184:Drivers/lvgl/src/draw/sw/lv_draw_sw_rect.c **** 
 185:Drivers/lvgl/src/draw/sw/lv_draw_sw_rect.c ****     if(grad && dither_mode == LV_DITHER_NONE) {
 186:Drivers/lvgl/src/draw/sw/lv_draw_sw_rect.c ****         grad->filled = 0; /*Should we force refilling it each draw call ?*/
 187:Drivers/lvgl/src/draw/sw/lv_draw_sw_rect.c ****         if(grad_dir == LV_GRAD_DIR_VER)
 188:Drivers/lvgl/src/draw/sw/lv_draw_sw_rect.c ****             grad_size = coords_bg_h;
 189:Drivers/lvgl/src/draw/sw/lv_draw_sw_rect.c ****     }
 190:Drivers/lvgl/src/draw/sw/lv_draw_sw_rect.c ****     else
 191:Drivers/lvgl/src/draw/sw/lv_draw_sw_rect.c **** #if LV_DITHER_ERROR_DIFFUSION
 192:Drivers/lvgl/src/draw/sw/lv_draw_sw_rect.c ****         if(dither_mode == LV_DITHER_ORDERED)
 193:Drivers/lvgl/src/draw/sw/lv_draw_sw_rect.c **** #endif
 194:Drivers/lvgl/src/draw/sw/lv_draw_sw_rect.c ****             switch(grad_dir) {
 195:Drivers/lvgl/src/draw/sw/lv_draw_sw_rect.c ****                 case LV_GRAD_DIR_HOR:
 196:Drivers/lvgl/src/draw/sw/lv_draw_sw_rect.c ****                     dither_func = lv_dither_ordered_hor;
 197:Drivers/lvgl/src/draw/sw/lv_draw_sw_rect.c ****                     break;
 198:Drivers/lvgl/src/draw/sw/lv_draw_sw_rect.c ****                 case LV_GRAD_DIR_VER:
 199:Drivers/lvgl/src/draw/sw/lv_draw_sw_rect.c ****                     dither_func = lv_dither_ordered_ver;
 200:Drivers/lvgl/src/draw/sw/lv_draw_sw_rect.c ****                     break;
 201:Drivers/lvgl/src/draw/sw/lv_draw_sw_rect.c ****                 default:
ARM GAS  /var/folders/0z/tsy30v1j4xl4_7kw94k978ww0000gn/T//cc0noGMx.s 			page 5


 202:Drivers/lvgl/src/draw/sw/lv_draw_sw_rect.c ****                     dither_func = NULL;
 203:Drivers/lvgl/src/draw/sw/lv_draw_sw_rect.c ****             }
 204:Drivers/lvgl/src/draw/sw/lv_draw_sw_rect.c **** 
 205:Drivers/lvgl/src/draw/sw/lv_draw_sw_rect.c **** #if LV_DITHER_ERROR_DIFFUSION
 206:Drivers/lvgl/src/draw/sw/lv_draw_sw_rect.c ****         else if(dither_mode == LV_DITHER_ERR_DIFF)
 207:Drivers/lvgl/src/draw/sw/lv_draw_sw_rect.c ****             switch(grad_dir) {
 208:Drivers/lvgl/src/draw/sw/lv_draw_sw_rect.c ****                 case LV_GRAD_DIR_HOR:
 209:Drivers/lvgl/src/draw/sw/lv_draw_sw_rect.c ****                     dither_func = lv_dither_err_diff_hor;
 210:Drivers/lvgl/src/draw/sw/lv_draw_sw_rect.c ****                     break;
 211:Drivers/lvgl/src/draw/sw/lv_draw_sw_rect.c ****                 case LV_GRAD_DIR_VER:
 212:Drivers/lvgl/src/draw/sw/lv_draw_sw_rect.c ****                     dither_func = lv_dither_err_diff_ver;
 213:Drivers/lvgl/src/draw/sw/lv_draw_sw_rect.c ****                     break;
 214:Drivers/lvgl/src/draw/sw/lv_draw_sw_rect.c ****                 default:
 215:Drivers/lvgl/src/draw/sw/lv_draw_sw_rect.c ****                     dither_func = NULL;
 216:Drivers/lvgl/src/draw/sw/lv_draw_sw_rect.c ****             }
 217:Drivers/lvgl/src/draw/sw/lv_draw_sw_rect.c **** #endif
 218:Drivers/lvgl/src/draw/sw/lv_draw_sw_rect.c **** #endif
 219:Drivers/lvgl/src/draw/sw/lv_draw_sw_rect.c **** 
 220:Drivers/lvgl/src/draw/sw/lv_draw_sw_rect.c ****     /*There is another mask too. Draw line by line. */
 221:Drivers/lvgl/src/draw/sw/lv_draw_sw_rect.c ****     if(mask_any) {
 222:Drivers/lvgl/src/draw/sw/lv_draw_sw_rect.c ****         for(h = clipped_coords.y1; h <= clipped_coords.y2; h++) {
 223:Drivers/lvgl/src/draw/sw/lv_draw_sw_rect.c ****             blend_area.y1 = h;
 224:Drivers/lvgl/src/draw/sw/lv_draw_sw_rect.c ****             blend_area.y2 = h;
 225:Drivers/lvgl/src/draw/sw/lv_draw_sw_rect.c **** 
 226:Drivers/lvgl/src/draw/sw/lv_draw_sw_rect.c ****             /* Initialize the mask to opa instead of 0xFF and blend with LV_OPA_COVER.
 227:Drivers/lvgl/src/draw/sw/lv_draw_sw_rect.c ****              * It saves calculating the final opa in lv_draw_sw_blend*/
 228:Drivers/lvgl/src/draw/sw/lv_draw_sw_rect.c ****             lv_memset(mask_buf, opa, clipped_w);
 229:Drivers/lvgl/src/draw/sw/lv_draw_sw_rect.c ****             blend_dsc.mask_res = lv_draw_mask_apply(mask_buf, clipped_coords.x1, h, clipped_w);
 230:Drivers/lvgl/src/draw/sw/lv_draw_sw_rect.c ****             if(blend_dsc.mask_res == LV_DRAW_MASK_RES_FULL_COVER) blend_dsc.mask_res = LV_DRAW_MASK
 231:Drivers/lvgl/src/draw/sw/lv_draw_sw_rect.c **** 
 232:Drivers/lvgl/src/draw/sw/lv_draw_sw_rect.c **** #if _DITHER_GRADIENT
 233:Drivers/lvgl/src/draw/sw/lv_draw_sw_rect.c ****             if(dither_func) dither_func(grad, blend_area.x1,  h - bg_coords.y1, grad_size);
 234:Drivers/lvgl/src/draw/sw/lv_draw_sw_rect.c **** #endif
 235:Drivers/lvgl/src/draw/sw/lv_draw_sw_rect.c ****             if(grad_dir == LV_GRAD_DIR_VER) blend_dsc.color = grad->map[h - bg_coords.y1];
 236:Drivers/lvgl/src/draw/sw/lv_draw_sw_rect.c ****             lv_draw_sw_blend(draw_ctx, &blend_dsc);
 237:Drivers/lvgl/src/draw/sw/lv_draw_sw_rect.c ****         }
 238:Drivers/lvgl/src/draw/sw/lv_draw_sw_rect.c ****         goto bg_clean_up;
 239:Drivers/lvgl/src/draw/sw/lv_draw_sw_rect.c ****     }
 240:Drivers/lvgl/src/draw/sw/lv_draw_sw_rect.c **** 
 241:Drivers/lvgl/src/draw/sw/lv_draw_sw_rect.c **** 
 242:Drivers/lvgl/src/draw/sw/lv_draw_sw_rect.c ****     /* Draw the top of the rectangle line by line and mirror it to the bottom. */
 243:Drivers/lvgl/src/draw/sw/lv_draw_sw_rect.c ****     for(h = 0; h < rout; h++) {
 244:Drivers/lvgl/src/draw/sw/lv_draw_sw_rect.c ****         lv_coord_t top_y = bg_coords.y1 + h;
 245:Drivers/lvgl/src/draw/sw/lv_draw_sw_rect.c ****         lv_coord_t bottom_y = bg_coords.y2 - h;
 246:Drivers/lvgl/src/draw/sw/lv_draw_sw_rect.c ****         if(top_y < clipped_coords.y1 && bottom_y > clipped_coords.y2) continue;   /*This line is cl
 247:Drivers/lvgl/src/draw/sw/lv_draw_sw_rect.c **** 
 248:Drivers/lvgl/src/draw/sw/lv_draw_sw_rect.c ****         /* Initialize the mask to opa instead of 0xFF and blend with LV_OPA_COVER.
 249:Drivers/lvgl/src/draw/sw/lv_draw_sw_rect.c ****          * It saves calculating the final opa in lv_draw_sw_blend*/
 250:Drivers/lvgl/src/draw/sw/lv_draw_sw_rect.c ****         lv_memset(mask_buf, opa, clipped_w);
 251:Drivers/lvgl/src/draw/sw/lv_draw_sw_rect.c ****         blend_dsc.mask_res = lv_draw_mask_apply(mask_buf, blend_area.x1, top_y, clipped_w);
 252:Drivers/lvgl/src/draw/sw/lv_draw_sw_rect.c ****         if(blend_dsc.mask_res == LV_DRAW_MASK_RES_FULL_COVER) blend_dsc.mask_res = LV_DRAW_MASK_RES
 253:Drivers/lvgl/src/draw/sw/lv_draw_sw_rect.c **** 
 254:Drivers/lvgl/src/draw/sw/lv_draw_sw_rect.c ****         if(top_y >= clipped_coords.y1) {
 255:Drivers/lvgl/src/draw/sw/lv_draw_sw_rect.c ****             blend_area.y1 = top_y;
 256:Drivers/lvgl/src/draw/sw/lv_draw_sw_rect.c ****             blend_area.y2 = top_y;
 257:Drivers/lvgl/src/draw/sw/lv_draw_sw_rect.c **** 
 258:Drivers/lvgl/src/draw/sw/lv_draw_sw_rect.c **** #if _DITHER_GRADIENT
ARM GAS  /var/folders/0z/tsy30v1j4xl4_7kw94k978ww0000gn/T//cc0noGMx.s 			page 6


 259:Drivers/lvgl/src/draw/sw/lv_draw_sw_rect.c ****             if(dither_func) dither_func(grad, blend_area.x1,  top_y - bg_coords.y1, grad_size);
 260:Drivers/lvgl/src/draw/sw/lv_draw_sw_rect.c **** #endif
 261:Drivers/lvgl/src/draw/sw/lv_draw_sw_rect.c ****             if(grad_dir == LV_GRAD_DIR_VER) blend_dsc.color = grad->map[top_y - bg_coords.y1];
 262:Drivers/lvgl/src/draw/sw/lv_draw_sw_rect.c ****             lv_draw_sw_blend(draw_ctx, &blend_dsc);
 263:Drivers/lvgl/src/draw/sw/lv_draw_sw_rect.c ****         }
 264:Drivers/lvgl/src/draw/sw/lv_draw_sw_rect.c **** 
 265:Drivers/lvgl/src/draw/sw/lv_draw_sw_rect.c ****         if(bottom_y <= clipped_coords.y2) {
 266:Drivers/lvgl/src/draw/sw/lv_draw_sw_rect.c ****             blend_area.y1 = bottom_y;
 267:Drivers/lvgl/src/draw/sw/lv_draw_sw_rect.c ****             blend_area.y2 = bottom_y;
 268:Drivers/lvgl/src/draw/sw/lv_draw_sw_rect.c **** 
 269:Drivers/lvgl/src/draw/sw/lv_draw_sw_rect.c **** #if _DITHER_GRADIENT
 270:Drivers/lvgl/src/draw/sw/lv_draw_sw_rect.c ****             if(dither_func) dither_func(grad, blend_area.x1,  bottom_y - bg_coords.y1, grad_size);
 271:Drivers/lvgl/src/draw/sw/lv_draw_sw_rect.c **** #endif
 272:Drivers/lvgl/src/draw/sw/lv_draw_sw_rect.c ****             if(grad_dir == LV_GRAD_DIR_VER) blend_dsc.color = grad->map[bottom_y - bg_coords.y1];
 273:Drivers/lvgl/src/draw/sw/lv_draw_sw_rect.c ****             lv_draw_sw_blend(draw_ctx, &blend_dsc);
 274:Drivers/lvgl/src/draw/sw/lv_draw_sw_rect.c ****         }
 275:Drivers/lvgl/src/draw/sw/lv_draw_sw_rect.c ****     }
 276:Drivers/lvgl/src/draw/sw/lv_draw_sw_rect.c **** 
 277:Drivers/lvgl/src/draw/sw/lv_draw_sw_rect.c ****     /* Draw the center of the rectangle.*/
 278:Drivers/lvgl/src/draw/sw/lv_draw_sw_rect.c **** 
 279:Drivers/lvgl/src/draw/sw/lv_draw_sw_rect.c ****     /*If no other masks and no gradient, the center is a simple rectangle*/
 280:Drivers/lvgl/src/draw/sw/lv_draw_sw_rect.c ****     lv_area_t center_coords;
 281:Drivers/lvgl/src/draw/sw/lv_draw_sw_rect.c ****     center_coords.x1 = bg_coords.x1;
 282:Drivers/lvgl/src/draw/sw/lv_draw_sw_rect.c ****     center_coords.x2 = bg_coords.x2;
 283:Drivers/lvgl/src/draw/sw/lv_draw_sw_rect.c ****     center_coords.y1 = bg_coords.y1 + rout;
 284:Drivers/lvgl/src/draw/sw/lv_draw_sw_rect.c ****     center_coords.y2 = bg_coords.y2 - rout;
 285:Drivers/lvgl/src/draw/sw/lv_draw_sw_rect.c ****     bool mask_any_center = lv_draw_mask_is_any(&center_coords);
 286:Drivers/lvgl/src/draw/sw/lv_draw_sw_rect.c ****     if(!mask_any_center && grad_dir == LV_GRAD_DIR_NONE) {
 287:Drivers/lvgl/src/draw/sw/lv_draw_sw_rect.c ****         blend_area.y1 = bg_coords.y1 + rout;
 288:Drivers/lvgl/src/draw/sw/lv_draw_sw_rect.c ****         blend_area.y2 = bg_coords.y2 - rout;
 289:Drivers/lvgl/src/draw/sw/lv_draw_sw_rect.c ****         blend_dsc.opa = opa;
 290:Drivers/lvgl/src/draw/sw/lv_draw_sw_rect.c ****         blend_dsc.mask_buf = NULL;
 291:Drivers/lvgl/src/draw/sw/lv_draw_sw_rect.c ****         lv_draw_sw_blend(draw_ctx, &blend_dsc);
 292:Drivers/lvgl/src/draw/sw/lv_draw_sw_rect.c ****     }
 293:Drivers/lvgl/src/draw/sw/lv_draw_sw_rect.c ****     /*With gradient and/or mask draw line by line*/
 294:Drivers/lvgl/src/draw/sw/lv_draw_sw_rect.c ****     else {
 295:Drivers/lvgl/src/draw/sw/lv_draw_sw_rect.c ****         blend_dsc.opa = opa;
 296:Drivers/lvgl/src/draw/sw/lv_draw_sw_rect.c ****         blend_dsc.mask_res = LV_DRAW_MASK_RES_FULL_COVER;
 297:Drivers/lvgl/src/draw/sw/lv_draw_sw_rect.c ****         int32_t h_end = bg_coords.y2 - rout;
 298:Drivers/lvgl/src/draw/sw/lv_draw_sw_rect.c ****         for(h = bg_coords.y1 + rout; h <= h_end; h++) {
 299:Drivers/lvgl/src/draw/sw/lv_draw_sw_rect.c ****             /*If there is no other mask do not apply mask as in the center there is no radius to ma
 300:Drivers/lvgl/src/draw/sw/lv_draw_sw_rect.c ****             if(mask_any_center) {
 301:Drivers/lvgl/src/draw/sw/lv_draw_sw_rect.c ****                 lv_memset(mask_buf, opa, clipped_w);
 302:Drivers/lvgl/src/draw/sw/lv_draw_sw_rect.c ****                 blend_dsc.mask_res = lv_draw_mask_apply(mask_buf, clipped_coords.x1, h, clipped_w);
 303:Drivers/lvgl/src/draw/sw/lv_draw_sw_rect.c ****             }
 304:Drivers/lvgl/src/draw/sw/lv_draw_sw_rect.c **** 
 305:Drivers/lvgl/src/draw/sw/lv_draw_sw_rect.c ****             blend_area.y1 = h;
 306:Drivers/lvgl/src/draw/sw/lv_draw_sw_rect.c ****             blend_area.y2 = h;
 307:Drivers/lvgl/src/draw/sw/lv_draw_sw_rect.c **** 
 308:Drivers/lvgl/src/draw/sw/lv_draw_sw_rect.c **** #if _DITHER_GRADIENT
 309:Drivers/lvgl/src/draw/sw/lv_draw_sw_rect.c ****             if(dither_func) dither_func(grad, blend_area.x1,  h - bg_coords.y1, grad_size);
 310:Drivers/lvgl/src/draw/sw/lv_draw_sw_rect.c **** #endif
 311:Drivers/lvgl/src/draw/sw/lv_draw_sw_rect.c ****             if(grad_dir == LV_GRAD_DIR_VER) blend_dsc.color = grad->map[h - bg_coords.y1];
 312:Drivers/lvgl/src/draw/sw/lv_draw_sw_rect.c ****             lv_draw_sw_blend(draw_ctx, &blend_dsc);
 313:Drivers/lvgl/src/draw/sw/lv_draw_sw_rect.c ****         }
 314:Drivers/lvgl/src/draw/sw/lv_draw_sw_rect.c ****     }
 315:Drivers/lvgl/src/draw/sw/lv_draw_sw_rect.c **** 
ARM GAS  /var/folders/0z/tsy30v1j4xl4_7kw94k978ww0000gn/T//cc0noGMx.s 			page 7


 316:Drivers/lvgl/src/draw/sw/lv_draw_sw_rect.c **** 
 317:Drivers/lvgl/src/draw/sw/lv_draw_sw_rect.c **** bg_clean_up:
 318:Drivers/lvgl/src/draw/sw/lv_draw_sw_rect.c ****     if(mask_buf) lv_mem_buf_release(mask_buf);
 319:Drivers/lvgl/src/draw/sw/lv_draw_sw_rect.c ****     if(mask_rout_id != LV_MASK_ID_INV) {
 320:Drivers/lvgl/src/draw/sw/lv_draw_sw_rect.c ****         lv_draw_mask_remove_id(mask_rout_id);
 321:Drivers/lvgl/src/draw/sw/lv_draw_sw_rect.c ****         lv_draw_mask_free_param(&mask_rout_param);
 322:Drivers/lvgl/src/draw/sw/lv_draw_sw_rect.c ****     }
 323:Drivers/lvgl/src/draw/sw/lv_draw_sw_rect.c ****     if(grad) {
 324:Drivers/lvgl/src/draw/sw/lv_draw_sw_rect.c ****         lv_gradient_cleanup(grad);
 325:Drivers/lvgl/src/draw/sw/lv_draw_sw_rect.c ****     }
 326:Drivers/lvgl/src/draw/sw/lv_draw_sw_rect.c **** 
 327:Drivers/lvgl/src/draw/sw/lv_draw_sw_rect.c **** #endif
 328:Drivers/lvgl/src/draw/sw/lv_draw_sw_rect.c **** }
 329:Drivers/lvgl/src/draw/sw/lv_draw_sw_rect.c **** 
 330:Drivers/lvgl/src/draw/sw/lv_draw_sw_rect.c **** static void draw_bg_img(lv_draw_ctx_t * draw_ctx, const lv_draw_rect_dsc_t * dsc, const lv_area_t *
 331:Drivers/lvgl/src/draw/sw/lv_draw_sw_rect.c **** {
 332:Drivers/lvgl/src/draw/sw/lv_draw_sw_rect.c ****     if(dsc->bg_img_src == NULL) return;
 333:Drivers/lvgl/src/draw/sw/lv_draw_sw_rect.c ****     if(dsc->bg_img_opa <= LV_OPA_MIN) return;
 334:Drivers/lvgl/src/draw/sw/lv_draw_sw_rect.c **** 
 335:Drivers/lvgl/src/draw/sw/lv_draw_sw_rect.c ****     lv_area_t clip_area;
 336:Drivers/lvgl/src/draw/sw/lv_draw_sw_rect.c ****     if(!_lv_area_intersect(&clip_area, coords, draw_ctx->clip_area)) {
 337:Drivers/lvgl/src/draw/sw/lv_draw_sw_rect.c ****         return;
 338:Drivers/lvgl/src/draw/sw/lv_draw_sw_rect.c ****     }
 339:Drivers/lvgl/src/draw/sw/lv_draw_sw_rect.c **** 
 340:Drivers/lvgl/src/draw/sw/lv_draw_sw_rect.c ****     const lv_area_t * clip_area_ori = draw_ctx->clip_area;
 341:Drivers/lvgl/src/draw/sw/lv_draw_sw_rect.c ****     draw_ctx->clip_area = &clip_area;
 342:Drivers/lvgl/src/draw/sw/lv_draw_sw_rect.c **** 
 343:Drivers/lvgl/src/draw/sw/lv_draw_sw_rect.c ****     lv_img_src_t src_type = lv_img_src_get_type(dsc->bg_img_src);
 344:Drivers/lvgl/src/draw/sw/lv_draw_sw_rect.c ****     if(src_type == LV_IMG_SRC_SYMBOL) {
 345:Drivers/lvgl/src/draw/sw/lv_draw_sw_rect.c ****         lv_point_t size;
 346:Drivers/lvgl/src/draw/sw/lv_draw_sw_rect.c ****         lv_txt_get_size(&size, dsc->bg_img_src, dsc->bg_img_symbol_font, 0, 0, LV_COORD_MAX, LV_TEX
 347:Drivers/lvgl/src/draw/sw/lv_draw_sw_rect.c ****         lv_area_t a;
 348:Drivers/lvgl/src/draw/sw/lv_draw_sw_rect.c ****         a.x1 = coords->x1 + lv_area_get_width(coords) / 2 - size.x / 2;
 349:Drivers/lvgl/src/draw/sw/lv_draw_sw_rect.c ****         a.x2 = a.x1 + size.x - 1;
 350:Drivers/lvgl/src/draw/sw/lv_draw_sw_rect.c ****         a.y1 = coords->y1 + lv_area_get_height(coords) / 2 - size.y / 2;
 351:Drivers/lvgl/src/draw/sw/lv_draw_sw_rect.c ****         a.y2 = a.y1 + size.y - 1;
 352:Drivers/lvgl/src/draw/sw/lv_draw_sw_rect.c **** 
 353:Drivers/lvgl/src/draw/sw/lv_draw_sw_rect.c ****         lv_draw_label_dsc_t label_draw_dsc;
 354:Drivers/lvgl/src/draw/sw/lv_draw_sw_rect.c ****         lv_draw_label_dsc_init(&label_draw_dsc);
 355:Drivers/lvgl/src/draw/sw/lv_draw_sw_rect.c ****         label_draw_dsc.font = dsc->bg_img_symbol_font;
 356:Drivers/lvgl/src/draw/sw/lv_draw_sw_rect.c ****         label_draw_dsc.color = dsc->bg_img_recolor;
 357:Drivers/lvgl/src/draw/sw/lv_draw_sw_rect.c ****         label_draw_dsc.opa = dsc->bg_img_opa;
 358:Drivers/lvgl/src/draw/sw/lv_draw_sw_rect.c ****         lv_draw_label(draw_ctx, &label_draw_dsc, &a, dsc->bg_img_src, NULL);
 359:Drivers/lvgl/src/draw/sw/lv_draw_sw_rect.c ****     }
 360:Drivers/lvgl/src/draw/sw/lv_draw_sw_rect.c ****     else {
 361:Drivers/lvgl/src/draw/sw/lv_draw_sw_rect.c ****         lv_img_header_t header;
 362:Drivers/lvgl/src/draw/sw/lv_draw_sw_rect.c ****         lv_res_t res = lv_img_decoder_get_info(dsc->bg_img_src, &header);
 363:Drivers/lvgl/src/draw/sw/lv_draw_sw_rect.c ****         if(res == LV_RES_OK) {
 364:Drivers/lvgl/src/draw/sw/lv_draw_sw_rect.c ****             lv_draw_img_dsc_t img_dsc;
 365:Drivers/lvgl/src/draw/sw/lv_draw_sw_rect.c ****             lv_draw_img_dsc_init(&img_dsc);
 366:Drivers/lvgl/src/draw/sw/lv_draw_sw_rect.c ****             img_dsc.blend_mode = dsc->blend_mode;
 367:Drivers/lvgl/src/draw/sw/lv_draw_sw_rect.c ****             img_dsc.recolor = dsc->bg_img_recolor;
 368:Drivers/lvgl/src/draw/sw/lv_draw_sw_rect.c ****             img_dsc.recolor_opa = dsc->bg_img_recolor_opa;
 369:Drivers/lvgl/src/draw/sw/lv_draw_sw_rect.c ****             img_dsc.opa = dsc->bg_img_opa;
 370:Drivers/lvgl/src/draw/sw/lv_draw_sw_rect.c **** 
 371:Drivers/lvgl/src/draw/sw/lv_draw_sw_rect.c ****             /*Center align*/
 372:Drivers/lvgl/src/draw/sw/lv_draw_sw_rect.c ****             if(dsc->bg_img_tiled == false) {
ARM GAS  /var/folders/0z/tsy30v1j4xl4_7kw94k978ww0000gn/T//cc0noGMx.s 			page 8


 373:Drivers/lvgl/src/draw/sw/lv_draw_sw_rect.c ****                 lv_area_t area;
 374:Drivers/lvgl/src/draw/sw/lv_draw_sw_rect.c ****                 area.x1 = coords->x1 + lv_area_get_width(coords) / 2 - header.w / 2;
 375:Drivers/lvgl/src/draw/sw/lv_draw_sw_rect.c ****                 area.y1 = coords->y1 + lv_area_get_height(coords) / 2 - header.h / 2;
 376:Drivers/lvgl/src/draw/sw/lv_draw_sw_rect.c ****                 area.x2 = area.x1 + header.w - 1;
 377:Drivers/lvgl/src/draw/sw/lv_draw_sw_rect.c ****                 area.y2 = area.y1 + header.h - 1;
 378:Drivers/lvgl/src/draw/sw/lv_draw_sw_rect.c **** 
 379:Drivers/lvgl/src/draw/sw/lv_draw_sw_rect.c ****                 lv_draw_img(draw_ctx, &img_dsc, &area, dsc->bg_img_src);
 380:Drivers/lvgl/src/draw/sw/lv_draw_sw_rect.c ****             }
 381:Drivers/lvgl/src/draw/sw/lv_draw_sw_rect.c ****             else {
 382:Drivers/lvgl/src/draw/sw/lv_draw_sw_rect.c ****                 lv_area_t area;
 383:Drivers/lvgl/src/draw/sw/lv_draw_sw_rect.c ****                 area.y1 = coords->y1;
 384:Drivers/lvgl/src/draw/sw/lv_draw_sw_rect.c ****                 area.y2 = area.y1 + header.h - 1;
 385:Drivers/lvgl/src/draw/sw/lv_draw_sw_rect.c **** 
 386:Drivers/lvgl/src/draw/sw/lv_draw_sw_rect.c ****                 for(; area.y1 <= coords->y2; area.y1 += header.h, area.y2 += header.h) {
 387:Drivers/lvgl/src/draw/sw/lv_draw_sw_rect.c **** 
 388:Drivers/lvgl/src/draw/sw/lv_draw_sw_rect.c ****                     area.x1 = coords->x1;
 389:Drivers/lvgl/src/draw/sw/lv_draw_sw_rect.c ****                     area.x2 = area.x1 + header.w - 1;
 390:Drivers/lvgl/src/draw/sw/lv_draw_sw_rect.c ****                     for(; area.x1 <= coords->x2; area.x1 += header.w, area.x2 += header.w) {
 391:Drivers/lvgl/src/draw/sw/lv_draw_sw_rect.c ****                         lv_draw_img(draw_ctx, &img_dsc, &area, dsc->bg_img_src);
 392:Drivers/lvgl/src/draw/sw/lv_draw_sw_rect.c ****                     }
 393:Drivers/lvgl/src/draw/sw/lv_draw_sw_rect.c ****                 }
 394:Drivers/lvgl/src/draw/sw/lv_draw_sw_rect.c ****             }
 395:Drivers/lvgl/src/draw/sw/lv_draw_sw_rect.c ****         }
 396:Drivers/lvgl/src/draw/sw/lv_draw_sw_rect.c ****         else {
 397:Drivers/lvgl/src/draw/sw/lv_draw_sw_rect.c ****             LV_LOG_WARN("Couldn't read the background image");
 398:Drivers/lvgl/src/draw/sw/lv_draw_sw_rect.c ****         }
 399:Drivers/lvgl/src/draw/sw/lv_draw_sw_rect.c ****     }
 400:Drivers/lvgl/src/draw/sw/lv_draw_sw_rect.c **** 
 401:Drivers/lvgl/src/draw/sw/lv_draw_sw_rect.c ****     draw_ctx->clip_area = clip_area_ori;
 402:Drivers/lvgl/src/draw/sw/lv_draw_sw_rect.c **** }
 403:Drivers/lvgl/src/draw/sw/lv_draw_sw_rect.c **** 
 404:Drivers/lvgl/src/draw/sw/lv_draw_sw_rect.c **** static void draw_border(lv_draw_ctx_t * draw_ctx, const lv_draw_rect_dsc_t * dsc, const lv_area_t *
 405:Drivers/lvgl/src/draw/sw/lv_draw_sw_rect.c **** {
 406:Drivers/lvgl/src/draw/sw/lv_draw_sw_rect.c ****     if(dsc->border_opa <= LV_OPA_MIN) return;
 407:Drivers/lvgl/src/draw/sw/lv_draw_sw_rect.c ****     if(dsc->border_width == 0) return;
 408:Drivers/lvgl/src/draw/sw/lv_draw_sw_rect.c ****     if(dsc->border_side == LV_BORDER_SIDE_NONE) return;
 409:Drivers/lvgl/src/draw/sw/lv_draw_sw_rect.c ****     if(dsc->border_post) return;
 410:Drivers/lvgl/src/draw/sw/lv_draw_sw_rect.c **** 
 411:Drivers/lvgl/src/draw/sw/lv_draw_sw_rect.c ****     int32_t coords_w = lv_area_get_width(coords);
 412:Drivers/lvgl/src/draw/sw/lv_draw_sw_rect.c ****     int32_t coords_h = lv_area_get_height(coords);
 413:Drivers/lvgl/src/draw/sw/lv_draw_sw_rect.c ****     int32_t rout = dsc->radius;
 414:Drivers/lvgl/src/draw/sw/lv_draw_sw_rect.c ****     int32_t short_side = LV_MIN(coords_w, coords_h);
 415:Drivers/lvgl/src/draw/sw/lv_draw_sw_rect.c ****     if(rout > short_side >> 1) rout = short_side >> 1;
 416:Drivers/lvgl/src/draw/sw/lv_draw_sw_rect.c **** 
 417:Drivers/lvgl/src/draw/sw/lv_draw_sw_rect.c ****     /*Get the inner area*/
 418:Drivers/lvgl/src/draw/sw/lv_draw_sw_rect.c ****     lv_area_t area_inner;
 419:Drivers/lvgl/src/draw/sw/lv_draw_sw_rect.c ****     lv_area_copy(&area_inner, coords);
 420:Drivers/lvgl/src/draw/sw/lv_draw_sw_rect.c ****     area_inner.x1 += ((dsc->border_side & LV_BORDER_SIDE_LEFT) ? dsc->border_width : - (dsc->border
 421:Drivers/lvgl/src/draw/sw/lv_draw_sw_rect.c ****     area_inner.x2 -= ((dsc->border_side & LV_BORDER_SIDE_RIGHT) ? dsc->border_width : - (dsc->borde
 422:Drivers/lvgl/src/draw/sw/lv_draw_sw_rect.c ****     area_inner.y1 += ((dsc->border_side & LV_BORDER_SIDE_TOP) ? dsc->border_width : - (dsc->border_
 423:Drivers/lvgl/src/draw/sw/lv_draw_sw_rect.c ****     area_inner.y2 -= ((dsc->border_side & LV_BORDER_SIDE_BOTTOM) ? dsc->border_width : - (dsc->bord
 424:Drivers/lvgl/src/draw/sw/lv_draw_sw_rect.c **** 
 425:Drivers/lvgl/src/draw/sw/lv_draw_sw_rect.c ****     lv_coord_t rin = rout - dsc->border_width;
 426:Drivers/lvgl/src/draw/sw/lv_draw_sw_rect.c ****     if(rin < 0) rin = 0;
 427:Drivers/lvgl/src/draw/sw/lv_draw_sw_rect.c **** 
 428:Drivers/lvgl/src/draw/sw/lv_draw_sw_rect.c ****     draw_border_generic(draw_ctx, coords, &area_inner, rout, rin, dsc->border_color, dsc->border_op
 429:Drivers/lvgl/src/draw/sw/lv_draw_sw_rect.c **** 
ARM GAS  /var/folders/0z/tsy30v1j4xl4_7kw94k978ww0000gn/T//cc0noGMx.s 			page 9


 430:Drivers/lvgl/src/draw/sw/lv_draw_sw_rect.c **** }
 431:Drivers/lvgl/src/draw/sw/lv_draw_sw_rect.c **** 
 432:Drivers/lvgl/src/draw/sw/lv_draw_sw_rect.c **** #if LV_DRAW_COMPLEX
 433:Drivers/lvgl/src/draw/sw/lv_draw_sw_rect.c **** static void LV_ATTRIBUTE_FAST_MEM draw_shadow(lv_draw_ctx_t * draw_ctx, const lv_draw_rect_dsc_t * 
 434:Drivers/lvgl/src/draw/sw/lv_draw_sw_rect.c ****                                               const lv_area_t * coords)
 435:Drivers/lvgl/src/draw/sw/lv_draw_sw_rect.c **** {
 436:Drivers/lvgl/src/draw/sw/lv_draw_sw_rect.c ****     /*Check whether the shadow is visible*/
 437:Drivers/lvgl/src/draw/sw/lv_draw_sw_rect.c ****     if(dsc->shadow_width == 0) return;
 438:Drivers/lvgl/src/draw/sw/lv_draw_sw_rect.c ****     if(dsc->shadow_opa <= LV_OPA_MIN) return;
 439:Drivers/lvgl/src/draw/sw/lv_draw_sw_rect.c **** 
 440:Drivers/lvgl/src/draw/sw/lv_draw_sw_rect.c ****     if(dsc->shadow_width == 1 && dsc->shadow_spread <= 0 &&
 441:Drivers/lvgl/src/draw/sw/lv_draw_sw_rect.c ****        dsc->shadow_ofs_x == 0 && dsc->shadow_ofs_y == 0) {
 442:Drivers/lvgl/src/draw/sw/lv_draw_sw_rect.c ****         return;
 443:Drivers/lvgl/src/draw/sw/lv_draw_sw_rect.c ****     }
 444:Drivers/lvgl/src/draw/sw/lv_draw_sw_rect.c **** 
 445:Drivers/lvgl/src/draw/sw/lv_draw_sw_rect.c ****     /*Calculate the rectangle which is blurred to get the shadow in `shadow_area`*/
 446:Drivers/lvgl/src/draw/sw/lv_draw_sw_rect.c ****     lv_area_t core_area;
 447:Drivers/lvgl/src/draw/sw/lv_draw_sw_rect.c ****     core_area.x1 = coords->x1  + dsc->shadow_ofs_x - dsc->shadow_spread;
 448:Drivers/lvgl/src/draw/sw/lv_draw_sw_rect.c ****     core_area.x2 = coords->x2  + dsc->shadow_ofs_x + dsc->shadow_spread;
 449:Drivers/lvgl/src/draw/sw/lv_draw_sw_rect.c ****     core_area.y1 = coords->y1  + dsc->shadow_ofs_y - dsc->shadow_spread;
 450:Drivers/lvgl/src/draw/sw/lv_draw_sw_rect.c ****     core_area.y2 = coords->y2  + dsc->shadow_ofs_y + dsc->shadow_spread;
 451:Drivers/lvgl/src/draw/sw/lv_draw_sw_rect.c **** 
 452:Drivers/lvgl/src/draw/sw/lv_draw_sw_rect.c ****     /*Calculate the bounding box of the shadow*/
 453:Drivers/lvgl/src/draw/sw/lv_draw_sw_rect.c ****     lv_area_t shadow_area;
 454:Drivers/lvgl/src/draw/sw/lv_draw_sw_rect.c ****     shadow_area.x1 = core_area.x1 - dsc->shadow_width / 2 - 1;
 455:Drivers/lvgl/src/draw/sw/lv_draw_sw_rect.c ****     shadow_area.x2 = core_area.x2 + dsc->shadow_width / 2 + 1;
 456:Drivers/lvgl/src/draw/sw/lv_draw_sw_rect.c ****     shadow_area.y1 = core_area.y1 - dsc->shadow_width / 2 - 1;
 457:Drivers/lvgl/src/draw/sw/lv_draw_sw_rect.c ****     shadow_area.y2 = core_area.y2 + dsc->shadow_width / 2 + 1;
 458:Drivers/lvgl/src/draw/sw/lv_draw_sw_rect.c **** 
 459:Drivers/lvgl/src/draw/sw/lv_draw_sw_rect.c ****     lv_opa_t opa = dsc->shadow_opa;
 460:Drivers/lvgl/src/draw/sw/lv_draw_sw_rect.c ****     if(opa > LV_OPA_MAX) opa = LV_OPA_COVER;
 461:Drivers/lvgl/src/draw/sw/lv_draw_sw_rect.c **** 
 462:Drivers/lvgl/src/draw/sw/lv_draw_sw_rect.c ****     /*Get clipped draw area which is the real draw area.
 463:Drivers/lvgl/src/draw/sw/lv_draw_sw_rect.c ****      *It is always the same or inside `shadow_area`*/
 464:Drivers/lvgl/src/draw/sw/lv_draw_sw_rect.c ****     lv_area_t draw_area;
 465:Drivers/lvgl/src/draw/sw/lv_draw_sw_rect.c ****     if(!_lv_area_intersect(&draw_area, &shadow_area, draw_ctx->clip_area)) return;
 466:Drivers/lvgl/src/draw/sw/lv_draw_sw_rect.c **** 
 467:Drivers/lvgl/src/draw/sw/lv_draw_sw_rect.c ****     /*Consider 1 px smaller bg to be sure the edge will be covered by the shadow*/
 468:Drivers/lvgl/src/draw/sw/lv_draw_sw_rect.c ****     lv_area_t bg_area;
 469:Drivers/lvgl/src/draw/sw/lv_draw_sw_rect.c ****     lv_area_copy(&bg_area, coords);
 470:Drivers/lvgl/src/draw/sw/lv_draw_sw_rect.c ****     lv_area_increase(&bg_area, -1, -1);
 471:Drivers/lvgl/src/draw/sw/lv_draw_sw_rect.c **** 
 472:Drivers/lvgl/src/draw/sw/lv_draw_sw_rect.c ****     /*Get the clamped radius*/
 473:Drivers/lvgl/src/draw/sw/lv_draw_sw_rect.c ****     int32_t r_bg = dsc->radius;
 474:Drivers/lvgl/src/draw/sw/lv_draw_sw_rect.c ****     lv_coord_t short_side = LV_MIN(lv_area_get_width(&bg_area), lv_area_get_height(&bg_area));
 475:Drivers/lvgl/src/draw/sw/lv_draw_sw_rect.c ****     if(r_bg > short_side >> 1) r_bg = short_side >> 1;
 476:Drivers/lvgl/src/draw/sw/lv_draw_sw_rect.c **** 
 477:Drivers/lvgl/src/draw/sw/lv_draw_sw_rect.c ****     /*Get the clamped radius*/
 478:Drivers/lvgl/src/draw/sw/lv_draw_sw_rect.c ****     int32_t r_sh = dsc->radius;
 479:Drivers/lvgl/src/draw/sw/lv_draw_sw_rect.c ****     short_side = LV_MIN(lv_area_get_width(&core_area), lv_area_get_height(&core_area));
 480:Drivers/lvgl/src/draw/sw/lv_draw_sw_rect.c ****     if(r_sh > short_side >> 1) r_sh = short_side >> 1;
 481:Drivers/lvgl/src/draw/sw/lv_draw_sw_rect.c **** 
 482:Drivers/lvgl/src/draw/sw/lv_draw_sw_rect.c **** 
 483:Drivers/lvgl/src/draw/sw/lv_draw_sw_rect.c ****     /*Get how many pixels are affected by the blur on the corners*/
 484:Drivers/lvgl/src/draw/sw/lv_draw_sw_rect.c ****     int32_t corner_size = dsc->shadow_width  + r_sh;
 485:Drivers/lvgl/src/draw/sw/lv_draw_sw_rect.c **** 
 486:Drivers/lvgl/src/draw/sw/lv_draw_sw_rect.c ****     lv_opa_t * sh_buf;
ARM GAS  /var/folders/0z/tsy30v1j4xl4_7kw94k978ww0000gn/T//cc0noGMx.s 			page 10


 487:Drivers/lvgl/src/draw/sw/lv_draw_sw_rect.c **** 
 488:Drivers/lvgl/src/draw/sw/lv_draw_sw_rect.c **** #if LV_SHADOW_CACHE_SIZE
 489:Drivers/lvgl/src/draw/sw/lv_draw_sw_rect.c ****     if(sh_cache_size == corner_size && sh_cache_r == r_sh) {
 490:Drivers/lvgl/src/draw/sw/lv_draw_sw_rect.c ****         /*Use the cache if available*/
 491:Drivers/lvgl/src/draw/sw/lv_draw_sw_rect.c ****         sh_buf = lv_mem_buf_get(corner_size * corner_size);
 492:Drivers/lvgl/src/draw/sw/lv_draw_sw_rect.c ****         lv_memcpy(sh_buf, sh_cache, corner_size * corner_size);
 493:Drivers/lvgl/src/draw/sw/lv_draw_sw_rect.c ****     }
 494:Drivers/lvgl/src/draw/sw/lv_draw_sw_rect.c ****     else {
 495:Drivers/lvgl/src/draw/sw/lv_draw_sw_rect.c ****         /*A larger buffer is required for calculation*/
 496:Drivers/lvgl/src/draw/sw/lv_draw_sw_rect.c ****         sh_buf = lv_mem_buf_get(corner_size * corner_size * sizeof(uint16_t));
 497:Drivers/lvgl/src/draw/sw/lv_draw_sw_rect.c ****         shadow_draw_corner_buf(&core_area, (uint16_t *)sh_buf, dsc->shadow_width, r_sh);
 498:Drivers/lvgl/src/draw/sw/lv_draw_sw_rect.c **** 
 499:Drivers/lvgl/src/draw/sw/lv_draw_sw_rect.c ****         /*Cache the corner if it fits into the cache size*/
 500:Drivers/lvgl/src/draw/sw/lv_draw_sw_rect.c ****         if((uint32_t)corner_size * corner_size < sizeof(sh_cache)) {
 501:Drivers/lvgl/src/draw/sw/lv_draw_sw_rect.c ****             lv_memcpy(sh_cache, sh_buf, corner_size * corner_size);
 502:Drivers/lvgl/src/draw/sw/lv_draw_sw_rect.c ****             sh_cache_size = corner_size;
 503:Drivers/lvgl/src/draw/sw/lv_draw_sw_rect.c ****             sh_cache_r = r_sh;
 504:Drivers/lvgl/src/draw/sw/lv_draw_sw_rect.c ****         }
 505:Drivers/lvgl/src/draw/sw/lv_draw_sw_rect.c ****     }
 506:Drivers/lvgl/src/draw/sw/lv_draw_sw_rect.c **** #else
 507:Drivers/lvgl/src/draw/sw/lv_draw_sw_rect.c ****     sh_buf = lv_mem_buf_get(corner_size * corner_size * sizeof(uint16_t));
 508:Drivers/lvgl/src/draw/sw/lv_draw_sw_rect.c ****     shadow_draw_corner_buf(&core_area, (uint16_t *)sh_buf, dsc->shadow_width, r_sh);
 509:Drivers/lvgl/src/draw/sw/lv_draw_sw_rect.c **** #endif
 510:Drivers/lvgl/src/draw/sw/lv_draw_sw_rect.c **** 
 511:Drivers/lvgl/src/draw/sw/lv_draw_sw_rect.c ****     /*Skip a lot of masking if the background will cover the shadow that would be masked out*/
 512:Drivers/lvgl/src/draw/sw/lv_draw_sw_rect.c ****     bool mask_any = lv_draw_mask_is_any(&shadow_area);
 513:Drivers/lvgl/src/draw/sw/lv_draw_sw_rect.c ****     bool simple = true;
 514:Drivers/lvgl/src/draw/sw/lv_draw_sw_rect.c ****     if(mask_any || dsc->bg_opa < LV_OPA_COVER || dsc->blend_mode != LV_BLEND_MODE_NORMAL) simple = 
 515:Drivers/lvgl/src/draw/sw/lv_draw_sw_rect.c **** 
 516:Drivers/lvgl/src/draw/sw/lv_draw_sw_rect.c ****     /*Create a radius mask to clip remove shadow on the bg area*/
 517:Drivers/lvgl/src/draw/sw/lv_draw_sw_rect.c **** 
 518:Drivers/lvgl/src/draw/sw/lv_draw_sw_rect.c ****     lv_draw_mask_radius_param_t mask_rout_param;
 519:Drivers/lvgl/src/draw/sw/lv_draw_sw_rect.c ****     int16_t mask_rout_id = LV_MASK_ID_INV;
 520:Drivers/lvgl/src/draw/sw/lv_draw_sw_rect.c ****     if(!simple) {
 521:Drivers/lvgl/src/draw/sw/lv_draw_sw_rect.c ****         lv_draw_mask_radius_init(&mask_rout_param, &bg_area, r_bg, true);
 522:Drivers/lvgl/src/draw/sw/lv_draw_sw_rect.c ****         mask_rout_id = lv_draw_mask_add(&mask_rout_param, NULL);
 523:Drivers/lvgl/src/draw/sw/lv_draw_sw_rect.c ****     }
 524:Drivers/lvgl/src/draw/sw/lv_draw_sw_rect.c ****     lv_opa_t * mask_buf = lv_mem_buf_get(lv_area_get_width(&shadow_area));
 525:Drivers/lvgl/src/draw/sw/lv_draw_sw_rect.c ****     lv_area_t blend_area;
 526:Drivers/lvgl/src/draw/sw/lv_draw_sw_rect.c ****     lv_area_t clip_area_sub;
 527:Drivers/lvgl/src/draw/sw/lv_draw_sw_rect.c ****     lv_opa_t * sh_buf_tmp;
 528:Drivers/lvgl/src/draw/sw/lv_draw_sw_rect.c ****     lv_coord_t y;
 529:Drivers/lvgl/src/draw/sw/lv_draw_sw_rect.c ****     bool simple_sub;
 530:Drivers/lvgl/src/draw/sw/lv_draw_sw_rect.c **** 
 531:Drivers/lvgl/src/draw/sw/lv_draw_sw_rect.c ****     lv_draw_sw_blend_dsc_t blend_dsc;
 532:Drivers/lvgl/src/draw/sw/lv_draw_sw_rect.c ****     lv_memset_00(&blend_dsc, sizeof(blend_dsc));
 533:Drivers/lvgl/src/draw/sw/lv_draw_sw_rect.c ****     blend_dsc.blend_area = &blend_area;
 534:Drivers/lvgl/src/draw/sw/lv_draw_sw_rect.c ****     blend_dsc.mask_area = &blend_area;
 535:Drivers/lvgl/src/draw/sw/lv_draw_sw_rect.c ****     blend_dsc.mask_buf = mask_buf;
 536:Drivers/lvgl/src/draw/sw/lv_draw_sw_rect.c ****     blend_dsc.color = dsc->shadow_color;
 537:Drivers/lvgl/src/draw/sw/lv_draw_sw_rect.c ****     blend_dsc.opa = dsc->shadow_opa;
 538:Drivers/lvgl/src/draw/sw/lv_draw_sw_rect.c ****     blend_dsc.blend_mode = dsc->blend_mode;
 539:Drivers/lvgl/src/draw/sw/lv_draw_sw_rect.c **** 
 540:Drivers/lvgl/src/draw/sw/lv_draw_sw_rect.c ****     lv_coord_t w_half = shadow_area.x1 + lv_area_get_width(&shadow_area) / 2;
 541:Drivers/lvgl/src/draw/sw/lv_draw_sw_rect.c ****     lv_coord_t h_half = shadow_area.y1 + lv_area_get_height(&shadow_area) / 2;
 542:Drivers/lvgl/src/draw/sw/lv_draw_sw_rect.c **** 
 543:Drivers/lvgl/src/draw/sw/lv_draw_sw_rect.c ****     /*Draw the corners if they are on the current clip area and not fully covered by the bg*/
ARM GAS  /var/folders/0z/tsy30v1j4xl4_7kw94k978ww0000gn/T//cc0noGMx.s 			page 11


 544:Drivers/lvgl/src/draw/sw/lv_draw_sw_rect.c **** 
 545:Drivers/lvgl/src/draw/sw/lv_draw_sw_rect.c ****     /*Top right corner*/
 546:Drivers/lvgl/src/draw/sw/lv_draw_sw_rect.c ****     blend_area.x2 = shadow_area.x2;
 547:Drivers/lvgl/src/draw/sw/lv_draw_sw_rect.c ****     blend_area.x1 = shadow_area.x2 - corner_size + 1;
 548:Drivers/lvgl/src/draw/sw/lv_draw_sw_rect.c ****     blend_area.y1 = shadow_area.y1;
 549:Drivers/lvgl/src/draw/sw/lv_draw_sw_rect.c ****     blend_area.y2 = shadow_area.y1 + corner_size - 1;
 550:Drivers/lvgl/src/draw/sw/lv_draw_sw_rect.c ****     /*Do not overdraw the other top corners*/
 551:Drivers/lvgl/src/draw/sw/lv_draw_sw_rect.c ****     blend_area.x1 = LV_MAX(blend_area.x1, w_half);
 552:Drivers/lvgl/src/draw/sw/lv_draw_sw_rect.c ****     blend_area.y2 = LV_MIN(blend_area.y2, h_half);
 553:Drivers/lvgl/src/draw/sw/lv_draw_sw_rect.c **** 
 554:Drivers/lvgl/src/draw/sw/lv_draw_sw_rect.c ****     if(_lv_area_intersect(&clip_area_sub, &blend_area, draw_ctx->clip_area) &&
 555:Drivers/lvgl/src/draw/sw/lv_draw_sw_rect.c ****        !_lv_area_is_in(&clip_area_sub, &bg_area, r_bg)) {
 556:Drivers/lvgl/src/draw/sw/lv_draw_sw_rect.c ****         lv_coord_t w = lv_area_get_width(&clip_area_sub);
 557:Drivers/lvgl/src/draw/sw/lv_draw_sw_rect.c ****         sh_buf_tmp = sh_buf;
 558:Drivers/lvgl/src/draw/sw/lv_draw_sw_rect.c ****         sh_buf_tmp += (clip_area_sub.y1 - shadow_area.y1) * corner_size;
 559:Drivers/lvgl/src/draw/sw/lv_draw_sw_rect.c ****         sh_buf_tmp += clip_area_sub.x1 - (shadow_area.x2 - corner_size + 1);
 560:Drivers/lvgl/src/draw/sw/lv_draw_sw_rect.c **** 
 561:Drivers/lvgl/src/draw/sw/lv_draw_sw_rect.c ****         /*Do not mask if out of the bg*/
 562:Drivers/lvgl/src/draw/sw/lv_draw_sw_rect.c ****         if(simple && _lv_area_is_out(&clip_area_sub, &bg_area, r_bg)) simple_sub = true;
 563:Drivers/lvgl/src/draw/sw/lv_draw_sw_rect.c ****         else simple_sub = simple;
 564:Drivers/lvgl/src/draw/sw/lv_draw_sw_rect.c ****         if(w > 0) {
 565:Drivers/lvgl/src/draw/sw/lv_draw_sw_rect.c ****             blend_dsc.mask_buf = mask_buf;
 566:Drivers/lvgl/src/draw/sw/lv_draw_sw_rect.c ****             blend_area.x1 = clip_area_sub.x1;
 567:Drivers/lvgl/src/draw/sw/lv_draw_sw_rect.c ****             blend_area.x2 = clip_area_sub.x2;
 568:Drivers/lvgl/src/draw/sw/lv_draw_sw_rect.c ****             blend_dsc.mask_res = LV_DRAW_MASK_RES_CHANGED;    /*In simple mode it won't be overwrit
 569:Drivers/lvgl/src/draw/sw/lv_draw_sw_rect.c ****             for(y = clip_area_sub.y1; y <= clip_area_sub.y2; y++) {
 570:Drivers/lvgl/src/draw/sw/lv_draw_sw_rect.c ****                 blend_area.y1 = y;
 571:Drivers/lvgl/src/draw/sw/lv_draw_sw_rect.c ****                 blend_area.y2 = y;
 572:Drivers/lvgl/src/draw/sw/lv_draw_sw_rect.c **** 
 573:Drivers/lvgl/src/draw/sw/lv_draw_sw_rect.c ****                 if(!simple_sub) {
 574:Drivers/lvgl/src/draw/sw/lv_draw_sw_rect.c ****                     lv_memcpy(mask_buf, sh_buf_tmp, corner_size);
 575:Drivers/lvgl/src/draw/sw/lv_draw_sw_rect.c ****                     blend_dsc.mask_res = lv_draw_mask_apply(mask_buf, clip_area_sub.x1, y, w);
 576:Drivers/lvgl/src/draw/sw/lv_draw_sw_rect.c ****                     if(blend_dsc.mask_res == LV_DRAW_MASK_RES_FULL_COVER) blend_dsc.mask_res = LV_D
 577:Drivers/lvgl/src/draw/sw/lv_draw_sw_rect.c ****                 }
 578:Drivers/lvgl/src/draw/sw/lv_draw_sw_rect.c ****                 else {
 579:Drivers/lvgl/src/draw/sw/lv_draw_sw_rect.c ****                     blend_dsc.mask_buf = sh_buf_tmp;
 580:Drivers/lvgl/src/draw/sw/lv_draw_sw_rect.c ****                 }
 581:Drivers/lvgl/src/draw/sw/lv_draw_sw_rect.c ****                 lv_draw_sw_blend(draw_ctx, &blend_dsc);
 582:Drivers/lvgl/src/draw/sw/lv_draw_sw_rect.c ****                 sh_buf_tmp += corner_size;
 583:Drivers/lvgl/src/draw/sw/lv_draw_sw_rect.c ****             }
 584:Drivers/lvgl/src/draw/sw/lv_draw_sw_rect.c ****         }
 585:Drivers/lvgl/src/draw/sw/lv_draw_sw_rect.c ****     }
 586:Drivers/lvgl/src/draw/sw/lv_draw_sw_rect.c **** 
 587:Drivers/lvgl/src/draw/sw/lv_draw_sw_rect.c ****     /*Bottom right corner.
 588:Drivers/lvgl/src/draw/sw/lv_draw_sw_rect.c ****      *Almost the same as top right just read the lines of `sh_buf` from then end*/
 589:Drivers/lvgl/src/draw/sw/lv_draw_sw_rect.c ****     blend_area.x2 = shadow_area.x2;
 590:Drivers/lvgl/src/draw/sw/lv_draw_sw_rect.c ****     blend_area.x1 = shadow_area.x2 - corner_size + 1;
 591:Drivers/lvgl/src/draw/sw/lv_draw_sw_rect.c ****     blend_area.y1 = shadow_area.y2 - corner_size + 1;
 592:Drivers/lvgl/src/draw/sw/lv_draw_sw_rect.c ****     blend_area.y2 = shadow_area.y2;
 593:Drivers/lvgl/src/draw/sw/lv_draw_sw_rect.c ****     /*Do not overdraw the other corners*/
 594:Drivers/lvgl/src/draw/sw/lv_draw_sw_rect.c ****     blend_area.x1 = LV_MAX(blend_area.x1, w_half);
 595:Drivers/lvgl/src/draw/sw/lv_draw_sw_rect.c ****     blend_area.y1 = LV_MAX(blend_area.y1, h_half + 1);
 596:Drivers/lvgl/src/draw/sw/lv_draw_sw_rect.c **** 
 597:Drivers/lvgl/src/draw/sw/lv_draw_sw_rect.c ****     if(_lv_area_intersect(&clip_area_sub, &blend_area, draw_ctx->clip_area) &&
 598:Drivers/lvgl/src/draw/sw/lv_draw_sw_rect.c ****        !_lv_area_is_in(&clip_area_sub, &bg_area, r_bg)) {
 599:Drivers/lvgl/src/draw/sw/lv_draw_sw_rect.c ****         lv_coord_t w = lv_area_get_width(&clip_area_sub);
 600:Drivers/lvgl/src/draw/sw/lv_draw_sw_rect.c ****         sh_buf_tmp = sh_buf;
ARM GAS  /var/folders/0z/tsy30v1j4xl4_7kw94k978ww0000gn/T//cc0noGMx.s 			page 12


 601:Drivers/lvgl/src/draw/sw/lv_draw_sw_rect.c ****         sh_buf_tmp += (blend_area.y2 - clip_area_sub.y2) * corner_size;
 602:Drivers/lvgl/src/draw/sw/lv_draw_sw_rect.c ****         sh_buf_tmp += clip_area_sub.x1 - (shadow_area.x2 - corner_size + 1);
 603:Drivers/lvgl/src/draw/sw/lv_draw_sw_rect.c ****         /*Do not mask if out of the bg*/
 604:Drivers/lvgl/src/draw/sw/lv_draw_sw_rect.c ****         if(simple && _lv_area_is_out(&clip_area_sub, &bg_area, r_bg)) simple_sub = true;
 605:Drivers/lvgl/src/draw/sw/lv_draw_sw_rect.c ****         else simple_sub = simple;
 606:Drivers/lvgl/src/draw/sw/lv_draw_sw_rect.c **** 
 607:Drivers/lvgl/src/draw/sw/lv_draw_sw_rect.c ****         if(w > 0) {
 608:Drivers/lvgl/src/draw/sw/lv_draw_sw_rect.c ****             blend_dsc.mask_buf = mask_buf;
 609:Drivers/lvgl/src/draw/sw/lv_draw_sw_rect.c ****             blend_area.x1 = clip_area_sub.x1;
 610:Drivers/lvgl/src/draw/sw/lv_draw_sw_rect.c ****             blend_area.x2 = clip_area_sub.x2;
 611:Drivers/lvgl/src/draw/sw/lv_draw_sw_rect.c ****             blend_dsc.mask_res = LV_DRAW_MASK_RES_CHANGED;    /*In simple mode it won't be overwrit
 612:Drivers/lvgl/src/draw/sw/lv_draw_sw_rect.c ****             for(y = clip_area_sub.y2; y >= clip_area_sub.y1; y--) {
 613:Drivers/lvgl/src/draw/sw/lv_draw_sw_rect.c ****                 blend_area.y1 = y;
 614:Drivers/lvgl/src/draw/sw/lv_draw_sw_rect.c ****                 blend_area.y2 = y;
 615:Drivers/lvgl/src/draw/sw/lv_draw_sw_rect.c **** 
 616:Drivers/lvgl/src/draw/sw/lv_draw_sw_rect.c ****                 if(!simple_sub) {
 617:Drivers/lvgl/src/draw/sw/lv_draw_sw_rect.c ****                     lv_memcpy(mask_buf, sh_buf_tmp, corner_size);
 618:Drivers/lvgl/src/draw/sw/lv_draw_sw_rect.c ****                     blend_dsc.mask_res = lv_draw_mask_apply(mask_buf, clip_area_sub.x1, y, w);
 619:Drivers/lvgl/src/draw/sw/lv_draw_sw_rect.c ****                     if(blend_dsc.mask_res == LV_DRAW_MASK_RES_FULL_COVER) blend_dsc.mask_res = LV_D
 620:Drivers/lvgl/src/draw/sw/lv_draw_sw_rect.c ****                 }
 621:Drivers/lvgl/src/draw/sw/lv_draw_sw_rect.c ****                 else {
 622:Drivers/lvgl/src/draw/sw/lv_draw_sw_rect.c ****                     blend_dsc.mask_buf = sh_buf_tmp;
 623:Drivers/lvgl/src/draw/sw/lv_draw_sw_rect.c ****                 }
 624:Drivers/lvgl/src/draw/sw/lv_draw_sw_rect.c ****                 lv_draw_sw_blend(draw_ctx, &blend_dsc);
 625:Drivers/lvgl/src/draw/sw/lv_draw_sw_rect.c ****                 sh_buf_tmp += corner_size;
 626:Drivers/lvgl/src/draw/sw/lv_draw_sw_rect.c ****             }
 627:Drivers/lvgl/src/draw/sw/lv_draw_sw_rect.c ****         }
 628:Drivers/lvgl/src/draw/sw/lv_draw_sw_rect.c ****     }
 629:Drivers/lvgl/src/draw/sw/lv_draw_sw_rect.c **** 
 630:Drivers/lvgl/src/draw/sw/lv_draw_sw_rect.c ****     /*Top side*/
 631:Drivers/lvgl/src/draw/sw/lv_draw_sw_rect.c ****     blend_area.x1 = shadow_area.x1 + corner_size;
 632:Drivers/lvgl/src/draw/sw/lv_draw_sw_rect.c ****     blend_area.x2 = shadow_area.x2 - corner_size;
 633:Drivers/lvgl/src/draw/sw/lv_draw_sw_rect.c ****     blend_area.y1 = shadow_area.y1;
 634:Drivers/lvgl/src/draw/sw/lv_draw_sw_rect.c ****     blend_area.y2 = shadow_area.y1 + corner_size - 1;
 635:Drivers/lvgl/src/draw/sw/lv_draw_sw_rect.c ****     blend_area.y2 = LV_MIN(blend_area.y2, h_half);
 636:Drivers/lvgl/src/draw/sw/lv_draw_sw_rect.c **** 
 637:Drivers/lvgl/src/draw/sw/lv_draw_sw_rect.c ****     if(_lv_area_intersect(&clip_area_sub, &blend_area, draw_ctx->clip_area) &&
 638:Drivers/lvgl/src/draw/sw/lv_draw_sw_rect.c ****        !_lv_area_is_in(&clip_area_sub, &bg_area, r_bg)) {
 639:Drivers/lvgl/src/draw/sw/lv_draw_sw_rect.c ****         lv_coord_t w = lv_area_get_width(&clip_area_sub);
 640:Drivers/lvgl/src/draw/sw/lv_draw_sw_rect.c ****         sh_buf_tmp = sh_buf;
 641:Drivers/lvgl/src/draw/sw/lv_draw_sw_rect.c ****         sh_buf_tmp += (clip_area_sub.y1 - blend_area.y1) * corner_size;
 642:Drivers/lvgl/src/draw/sw/lv_draw_sw_rect.c **** 
 643:Drivers/lvgl/src/draw/sw/lv_draw_sw_rect.c ****         /*Do not mask if out of the bg*/
 644:Drivers/lvgl/src/draw/sw/lv_draw_sw_rect.c ****         if(simple && _lv_area_is_out(&clip_area_sub, &bg_area, r_bg)) simple_sub = true;
 645:Drivers/lvgl/src/draw/sw/lv_draw_sw_rect.c ****         else simple_sub = simple;
 646:Drivers/lvgl/src/draw/sw/lv_draw_sw_rect.c **** 
 647:Drivers/lvgl/src/draw/sw/lv_draw_sw_rect.c ****         if(w > 0) {
 648:Drivers/lvgl/src/draw/sw/lv_draw_sw_rect.c ****             if(!simple_sub) {
 649:Drivers/lvgl/src/draw/sw/lv_draw_sw_rect.c ****                 blend_dsc.mask_buf = mask_buf;
 650:Drivers/lvgl/src/draw/sw/lv_draw_sw_rect.c ****             }
 651:Drivers/lvgl/src/draw/sw/lv_draw_sw_rect.c ****             else {
 652:Drivers/lvgl/src/draw/sw/lv_draw_sw_rect.c ****                 blend_dsc.mask_buf = NULL;
 653:Drivers/lvgl/src/draw/sw/lv_draw_sw_rect.c ****             }
 654:Drivers/lvgl/src/draw/sw/lv_draw_sw_rect.c ****             blend_area.x1 = clip_area_sub.x1;
 655:Drivers/lvgl/src/draw/sw/lv_draw_sw_rect.c ****             blend_area.x2 = clip_area_sub.x2;
 656:Drivers/lvgl/src/draw/sw/lv_draw_sw_rect.c **** 
 657:Drivers/lvgl/src/draw/sw/lv_draw_sw_rect.c ****             for(y = clip_area_sub.y1; y <= clip_area_sub.y2; y++) {
ARM GAS  /var/folders/0z/tsy30v1j4xl4_7kw94k978ww0000gn/T//cc0noGMx.s 			page 13


 658:Drivers/lvgl/src/draw/sw/lv_draw_sw_rect.c ****                 blend_area.y1 = y;
 659:Drivers/lvgl/src/draw/sw/lv_draw_sw_rect.c ****                 blend_area.y2 = y;
 660:Drivers/lvgl/src/draw/sw/lv_draw_sw_rect.c **** 
 661:Drivers/lvgl/src/draw/sw/lv_draw_sw_rect.c ****                 if(!simple_sub) {
 662:Drivers/lvgl/src/draw/sw/lv_draw_sw_rect.c ****                     lv_memset(mask_buf, sh_buf_tmp[0], w);
 663:Drivers/lvgl/src/draw/sw/lv_draw_sw_rect.c ****                     blend_dsc.mask_res = lv_draw_mask_apply(mask_buf, clip_area_sub.x1, y, w);
 664:Drivers/lvgl/src/draw/sw/lv_draw_sw_rect.c ****                     if(blend_dsc.mask_res == LV_DRAW_MASK_RES_FULL_COVER) blend_dsc.mask_res = LV_D
 665:Drivers/lvgl/src/draw/sw/lv_draw_sw_rect.c ****                     lv_draw_sw_blend(draw_ctx, &blend_dsc);
 666:Drivers/lvgl/src/draw/sw/lv_draw_sw_rect.c ****                 }
 667:Drivers/lvgl/src/draw/sw/lv_draw_sw_rect.c ****                 else {
 668:Drivers/lvgl/src/draw/sw/lv_draw_sw_rect.c ****                     blend_dsc.opa = opa == LV_OPA_COVER ? sh_buf_tmp[0] : (sh_buf_tmp[0] * dsc->sha
 669:Drivers/lvgl/src/draw/sw/lv_draw_sw_rect.c ****                     lv_draw_sw_blend(draw_ctx, &blend_dsc);
 670:Drivers/lvgl/src/draw/sw/lv_draw_sw_rect.c ****                 }
 671:Drivers/lvgl/src/draw/sw/lv_draw_sw_rect.c ****                 sh_buf_tmp += corner_size;
 672:Drivers/lvgl/src/draw/sw/lv_draw_sw_rect.c ****             }
 673:Drivers/lvgl/src/draw/sw/lv_draw_sw_rect.c ****         }
 674:Drivers/lvgl/src/draw/sw/lv_draw_sw_rect.c ****     }
 675:Drivers/lvgl/src/draw/sw/lv_draw_sw_rect.c ****     blend_dsc.opa = dsc->shadow_opa;    /*Restore*/
 676:Drivers/lvgl/src/draw/sw/lv_draw_sw_rect.c **** 
 677:Drivers/lvgl/src/draw/sw/lv_draw_sw_rect.c ****     /*Bottom side*/
 678:Drivers/lvgl/src/draw/sw/lv_draw_sw_rect.c ****     blend_area.x1 = shadow_area.x1 + corner_size;
 679:Drivers/lvgl/src/draw/sw/lv_draw_sw_rect.c ****     blend_area.x2 = shadow_area.x2 - corner_size;
 680:Drivers/lvgl/src/draw/sw/lv_draw_sw_rect.c ****     blend_area.y1 = shadow_area.y2 - corner_size + 1;
 681:Drivers/lvgl/src/draw/sw/lv_draw_sw_rect.c ****     blend_area.y2 = shadow_area.y2;
 682:Drivers/lvgl/src/draw/sw/lv_draw_sw_rect.c ****     blend_area.y1 = LV_MAX(blend_area.y1, h_half + 1);
 683:Drivers/lvgl/src/draw/sw/lv_draw_sw_rect.c **** 
 684:Drivers/lvgl/src/draw/sw/lv_draw_sw_rect.c **** 
 685:Drivers/lvgl/src/draw/sw/lv_draw_sw_rect.c ****     if(_lv_area_intersect(&clip_area_sub, &blend_area, draw_ctx->clip_area) &&
 686:Drivers/lvgl/src/draw/sw/lv_draw_sw_rect.c ****        !_lv_area_is_in(&clip_area_sub, &bg_area, r_bg)) {
 687:Drivers/lvgl/src/draw/sw/lv_draw_sw_rect.c ****         lv_coord_t w = lv_area_get_width(&clip_area_sub);
 688:Drivers/lvgl/src/draw/sw/lv_draw_sw_rect.c ****         sh_buf_tmp = sh_buf;
 689:Drivers/lvgl/src/draw/sw/lv_draw_sw_rect.c ****         sh_buf_tmp += (blend_area.y2 - clip_area_sub.y2) * corner_size;
 690:Drivers/lvgl/src/draw/sw/lv_draw_sw_rect.c ****         if(w > 0) {
 691:Drivers/lvgl/src/draw/sw/lv_draw_sw_rect.c ****             /*Do not mask if out of the bg*/
 692:Drivers/lvgl/src/draw/sw/lv_draw_sw_rect.c ****             if(simple && _lv_area_is_out(&clip_area_sub, &bg_area, r_bg)) simple_sub = true;
 693:Drivers/lvgl/src/draw/sw/lv_draw_sw_rect.c ****             else simple_sub = simple;
 694:Drivers/lvgl/src/draw/sw/lv_draw_sw_rect.c **** 
 695:Drivers/lvgl/src/draw/sw/lv_draw_sw_rect.c ****             if(!simple_sub) {
 696:Drivers/lvgl/src/draw/sw/lv_draw_sw_rect.c ****                 blend_dsc.mask_buf = mask_buf;
 697:Drivers/lvgl/src/draw/sw/lv_draw_sw_rect.c ****             }
 698:Drivers/lvgl/src/draw/sw/lv_draw_sw_rect.c ****             else {
 699:Drivers/lvgl/src/draw/sw/lv_draw_sw_rect.c ****                 blend_dsc.mask_buf = NULL;
 700:Drivers/lvgl/src/draw/sw/lv_draw_sw_rect.c ****             }
 701:Drivers/lvgl/src/draw/sw/lv_draw_sw_rect.c ****             blend_area.x1 = clip_area_sub.x1;
 702:Drivers/lvgl/src/draw/sw/lv_draw_sw_rect.c ****             blend_area.x2 = clip_area_sub.x2;
 703:Drivers/lvgl/src/draw/sw/lv_draw_sw_rect.c **** 
 704:Drivers/lvgl/src/draw/sw/lv_draw_sw_rect.c ****             for(y = clip_area_sub.y2; y >= clip_area_sub.y1; y--) {
 705:Drivers/lvgl/src/draw/sw/lv_draw_sw_rect.c ****                 blend_area.y1 = y;
 706:Drivers/lvgl/src/draw/sw/lv_draw_sw_rect.c ****                 blend_area.y2 = y;
 707:Drivers/lvgl/src/draw/sw/lv_draw_sw_rect.c **** 
 708:Drivers/lvgl/src/draw/sw/lv_draw_sw_rect.c ****                 /*Do not mask if out of the bg*/
 709:Drivers/lvgl/src/draw/sw/lv_draw_sw_rect.c ****                 if(simple && _lv_area_is_out(&clip_area_sub, &bg_area, r_bg)) simple_sub = true;
 710:Drivers/lvgl/src/draw/sw/lv_draw_sw_rect.c ****                 else simple_sub = simple;
 711:Drivers/lvgl/src/draw/sw/lv_draw_sw_rect.c **** 
 712:Drivers/lvgl/src/draw/sw/lv_draw_sw_rect.c ****                 if(!simple_sub) {
 713:Drivers/lvgl/src/draw/sw/lv_draw_sw_rect.c ****                     lv_memset(mask_buf, sh_buf_tmp[0], w);
 714:Drivers/lvgl/src/draw/sw/lv_draw_sw_rect.c ****                     blend_dsc.mask_res = lv_draw_mask_apply(mask_buf, clip_area_sub.x1, y, w);
ARM GAS  /var/folders/0z/tsy30v1j4xl4_7kw94k978ww0000gn/T//cc0noGMx.s 			page 14


 715:Drivers/lvgl/src/draw/sw/lv_draw_sw_rect.c ****                     if(blend_dsc.mask_res == LV_DRAW_MASK_RES_FULL_COVER) blend_dsc.mask_res = LV_D
 716:Drivers/lvgl/src/draw/sw/lv_draw_sw_rect.c ****                     lv_draw_sw_blend(draw_ctx, &blend_dsc);
 717:Drivers/lvgl/src/draw/sw/lv_draw_sw_rect.c ****                 }
 718:Drivers/lvgl/src/draw/sw/lv_draw_sw_rect.c ****                 else {
 719:Drivers/lvgl/src/draw/sw/lv_draw_sw_rect.c ****                     blend_dsc.opa = opa == LV_OPA_COVER ? sh_buf_tmp[0] : (sh_buf_tmp[0] * dsc->sha
 720:Drivers/lvgl/src/draw/sw/lv_draw_sw_rect.c ****                     lv_draw_sw_blend(draw_ctx, &blend_dsc);
 721:Drivers/lvgl/src/draw/sw/lv_draw_sw_rect.c **** 
 722:Drivers/lvgl/src/draw/sw/lv_draw_sw_rect.c ****                 }
 723:Drivers/lvgl/src/draw/sw/lv_draw_sw_rect.c ****                 sh_buf_tmp += corner_size;
 724:Drivers/lvgl/src/draw/sw/lv_draw_sw_rect.c ****             }
 725:Drivers/lvgl/src/draw/sw/lv_draw_sw_rect.c ****         }
 726:Drivers/lvgl/src/draw/sw/lv_draw_sw_rect.c ****     }
 727:Drivers/lvgl/src/draw/sw/lv_draw_sw_rect.c **** 
 728:Drivers/lvgl/src/draw/sw/lv_draw_sw_rect.c ****     blend_dsc.opa = dsc->shadow_opa;    /*Restore*/
 729:Drivers/lvgl/src/draw/sw/lv_draw_sw_rect.c **** 
 730:Drivers/lvgl/src/draw/sw/lv_draw_sw_rect.c ****     /*Right side*/
 731:Drivers/lvgl/src/draw/sw/lv_draw_sw_rect.c ****     blend_area.x1 = shadow_area.x2 - corner_size + 1;
 732:Drivers/lvgl/src/draw/sw/lv_draw_sw_rect.c ****     blend_area.x2 = shadow_area.x2;
 733:Drivers/lvgl/src/draw/sw/lv_draw_sw_rect.c ****     blend_area.y1 = shadow_area.y1 + corner_size;
 734:Drivers/lvgl/src/draw/sw/lv_draw_sw_rect.c ****     blend_area.y2 = shadow_area.y2 - corner_size;
 735:Drivers/lvgl/src/draw/sw/lv_draw_sw_rect.c ****     /*Do not overdraw the other corners*/
 736:Drivers/lvgl/src/draw/sw/lv_draw_sw_rect.c ****     blend_area.y1 = LV_MIN(blend_area.y1, h_half + 1);
 737:Drivers/lvgl/src/draw/sw/lv_draw_sw_rect.c ****     blend_area.y2 = LV_MAX(blend_area.y2, h_half);
 738:Drivers/lvgl/src/draw/sw/lv_draw_sw_rect.c ****     blend_area.x1 = LV_MAX(blend_area.x1, w_half);
 739:Drivers/lvgl/src/draw/sw/lv_draw_sw_rect.c **** 
 740:Drivers/lvgl/src/draw/sw/lv_draw_sw_rect.c ****     if(_lv_area_intersect(&clip_area_sub, &blend_area, draw_ctx->clip_area) &&
 741:Drivers/lvgl/src/draw/sw/lv_draw_sw_rect.c ****        !_lv_area_is_in(&clip_area_sub, &bg_area, r_bg)) {
 742:Drivers/lvgl/src/draw/sw/lv_draw_sw_rect.c ****         lv_coord_t w = lv_area_get_width(&clip_area_sub);
 743:Drivers/lvgl/src/draw/sw/lv_draw_sw_rect.c ****         sh_buf_tmp = sh_buf;
 744:Drivers/lvgl/src/draw/sw/lv_draw_sw_rect.c ****         sh_buf_tmp += (corner_size - 1) * corner_size;
 745:Drivers/lvgl/src/draw/sw/lv_draw_sw_rect.c ****         sh_buf_tmp += clip_area_sub.x1 - (shadow_area.x2 - corner_size + 1);
 746:Drivers/lvgl/src/draw/sw/lv_draw_sw_rect.c **** 
 747:Drivers/lvgl/src/draw/sw/lv_draw_sw_rect.c ****         /*Do not mask if out of the bg*/
 748:Drivers/lvgl/src/draw/sw/lv_draw_sw_rect.c ****         if(simple && _lv_area_is_out(&clip_area_sub, &bg_area, r_bg)) simple_sub = true;
 749:Drivers/lvgl/src/draw/sw/lv_draw_sw_rect.c ****         else simple_sub = simple;
 750:Drivers/lvgl/src/draw/sw/lv_draw_sw_rect.c ****         blend_dsc.mask_buf = simple_sub ? sh_buf_tmp : mask_buf;
 751:Drivers/lvgl/src/draw/sw/lv_draw_sw_rect.c **** 
 752:Drivers/lvgl/src/draw/sw/lv_draw_sw_rect.c ****         if(w > 0) {
 753:Drivers/lvgl/src/draw/sw/lv_draw_sw_rect.c ****             blend_area.x1 = clip_area_sub.x1;
 754:Drivers/lvgl/src/draw/sw/lv_draw_sw_rect.c ****             blend_area.x2 = clip_area_sub.x2;
 755:Drivers/lvgl/src/draw/sw/lv_draw_sw_rect.c ****             blend_dsc.mask_res = LV_DRAW_MASK_RES_CHANGED;    /*In simple mode it won't be overwrit
 756:Drivers/lvgl/src/draw/sw/lv_draw_sw_rect.c ****             for(y = clip_area_sub.y1; y <= clip_area_sub.y2; y++) {
 757:Drivers/lvgl/src/draw/sw/lv_draw_sw_rect.c ****                 blend_area.y1 = y;
 758:Drivers/lvgl/src/draw/sw/lv_draw_sw_rect.c ****                 blend_area.y2 = y;
 759:Drivers/lvgl/src/draw/sw/lv_draw_sw_rect.c **** 
 760:Drivers/lvgl/src/draw/sw/lv_draw_sw_rect.c ****                 if(!simple_sub) {
 761:Drivers/lvgl/src/draw/sw/lv_draw_sw_rect.c ****                     lv_memcpy(mask_buf, sh_buf_tmp, w);
 762:Drivers/lvgl/src/draw/sw/lv_draw_sw_rect.c ****                     blend_dsc.mask_res = lv_draw_mask_apply(mask_buf, clip_area_sub.x1, y, w);
 763:Drivers/lvgl/src/draw/sw/lv_draw_sw_rect.c ****                     if(blend_dsc.mask_res == LV_DRAW_MASK_RES_FULL_COVER) blend_dsc.mask_res = LV_D
 764:Drivers/lvgl/src/draw/sw/lv_draw_sw_rect.c ****                 }
 765:Drivers/lvgl/src/draw/sw/lv_draw_sw_rect.c ****                 lv_draw_sw_blend(draw_ctx, &blend_dsc);
 766:Drivers/lvgl/src/draw/sw/lv_draw_sw_rect.c ****             }
 767:Drivers/lvgl/src/draw/sw/lv_draw_sw_rect.c ****         }
 768:Drivers/lvgl/src/draw/sw/lv_draw_sw_rect.c ****     }
 769:Drivers/lvgl/src/draw/sw/lv_draw_sw_rect.c **** 
 770:Drivers/lvgl/src/draw/sw/lv_draw_sw_rect.c ****     /*Mirror the shadow corner buffer horizontally*/
 771:Drivers/lvgl/src/draw/sw/lv_draw_sw_rect.c ****     sh_buf_tmp = sh_buf ;
ARM GAS  /var/folders/0z/tsy30v1j4xl4_7kw94k978ww0000gn/T//cc0noGMx.s 			page 15


 772:Drivers/lvgl/src/draw/sw/lv_draw_sw_rect.c ****     for(y = 0; y < corner_size; y++) {
 773:Drivers/lvgl/src/draw/sw/lv_draw_sw_rect.c ****         int32_t x;
 774:Drivers/lvgl/src/draw/sw/lv_draw_sw_rect.c ****         lv_opa_t * start = sh_buf_tmp;
 775:Drivers/lvgl/src/draw/sw/lv_draw_sw_rect.c ****         lv_opa_t * end = sh_buf_tmp + corner_size - 1;
 776:Drivers/lvgl/src/draw/sw/lv_draw_sw_rect.c ****         for(x = 0; x < corner_size / 2; x++) {
 777:Drivers/lvgl/src/draw/sw/lv_draw_sw_rect.c ****             lv_opa_t tmp = *start;
 778:Drivers/lvgl/src/draw/sw/lv_draw_sw_rect.c ****             *start = *end;
 779:Drivers/lvgl/src/draw/sw/lv_draw_sw_rect.c ****             *end = tmp;
 780:Drivers/lvgl/src/draw/sw/lv_draw_sw_rect.c **** 
 781:Drivers/lvgl/src/draw/sw/lv_draw_sw_rect.c ****             start++;
 782:Drivers/lvgl/src/draw/sw/lv_draw_sw_rect.c ****             end--;
 783:Drivers/lvgl/src/draw/sw/lv_draw_sw_rect.c ****         }
 784:Drivers/lvgl/src/draw/sw/lv_draw_sw_rect.c ****         sh_buf_tmp += corner_size;
 785:Drivers/lvgl/src/draw/sw/lv_draw_sw_rect.c ****     }
 786:Drivers/lvgl/src/draw/sw/lv_draw_sw_rect.c **** 
 787:Drivers/lvgl/src/draw/sw/lv_draw_sw_rect.c ****     /*Left side*/
 788:Drivers/lvgl/src/draw/sw/lv_draw_sw_rect.c ****     blend_area.x1 = shadow_area.x1;
 789:Drivers/lvgl/src/draw/sw/lv_draw_sw_rect.c ****     blend_area.x2 = shadow_area.x1 + corner_size - 1;
 790:Drivers/lvgl/src/draw/sw/lv_draw_sw_rect.c ****     blend_area.y1 = shadow_area.y1 + corner_size;
 791:Drivers/lvgl/src/draw/sw/lv_draw_sw_rect.c ****     blend_area.y2 = shadow_area.y2 - corner_size;
 792:Drivers/lvgl/src/draw/sw/lv_draw_sw_rect.c ****     /*Do not overdraw the other corners*/
 793:Drivers/lvgl/src/draw/sw/lv_draw_sw_rect.c ****     blend_area.y1 = LV_MIN(blend_area.y1, h_half + 1);
 794:Drivers/lvgl/src/draw/sw/lv_draw_sw_rect.c ****     blend_area.y2 = LV_MAX(blend_area.y2, h_half);
 795:Drivers/lvgl/src/draw/sw/lv_draw_sw_rect.c ****     blend_area.x2 = LV_MIN(blend_area.x2, w_half - 1);
 796:Drivers/lvgl/src/draw/sw/lv_draw_sw_rect.c **** 
 797:Drivers/lvgl/src/draw/sw/lv_draw_sw_rect.c ****     if(_lv_area_intersect(&clip_area_sub, &blend_area, draw_ctx->clip_area) &&
 798:Drivers/lvgl/src/draw/sw/lv_draw_sw_rect.c ****        !_lv_area_is_in(&clip_area_sub, &bg_area, r_bg)) {
 799:Drivers/lvgl/src/draw/sw/lv_draw_sw_rect.c ****         lv_coord_t w = lv_area_get_width(&clip_area_sub);
 800:Drivers/lvgl/src/draw/sw/lv_draw_sw_rect.c ****         sh_buf_tmp = sh_buf;
 801:Drivers/lvgl/src/draw/sw/lv_draw_sw_rect.c ****         sh_buf_tmp += (corner_size - 1) * corner_size;
 802:Drivers/lvgl/src/draw/sw/lv_draw_sw_rect.c ****         sh_buf_tmp += clip_area_sub.x1 - blend_area.x1;
 803:Drivers/lvgl/src/draw/sw/lv_draw_sw_rect.c **** 
 804:Drivers/lvgl/src/draw/sw/lv_draw_sw_rect.c ****         /*Do not mask if out of the bg*/
 805:Drivers/lvgl/src/draw/sw/lv_draw_sw_rect.c ****         if(simple && _lv_area_is_out(&clip_area_sub, &bg_area, r_bg)) simple_sub = true;
 806:Drivers/lvgl/src/draw/sw/lv_draw_sw_rect.c ****         else simple_sub = simple;
 807:Drivers/lvgl/src/draw/sw/lv_draw_sw_rect.c ****         blend_dsc.mask_buf = simple_sub ? sh_buf_tmp : mask_buf;
 808:Drivers/lvgl/src/draw/sw/lv_draw_sw_rect.c ****         if(w > 0) {
 809:Drivers/lvgl/src/draw/sw/lv_draw_sw_rect.c ****             blend_area.x1 = clip_area_sub.x1;
 810:Drivers/lvgl/src/draw/sw/lv_draw_sw_rect.c ****             blend_area.x2 = clip_area_sub.x2;
 811:Drivers/lvgl/src/draw/sw/lv_draw_sw_rect.c ****             blend_dsc.mask_res = LV_DRAW_MASK_RES_CHANGED;    /*In simple mode it won't be overwrit
 812:Drivers/lvgl/src/draw/sw/lv_draw_sw_rect.c ****             for(y = clip_area_sub.y1; y <= clip_area_sub.y2; y++) {
 813:Drivers/lvgl/src/draw/sw/lv_draw_sw_rect.c ****                 blend_area.y1 = y;
 814:Drivers/lvgl/src/draw/sw/lv_draw_sw_rect.c ****                 blend_area.y2 = y;
 815:Drivers/lvgl/src/draw/sw/lv_draw_sw_rect.c **** 
 816:Drivers/lvgl/src/draw/sw/lv_draw_sw_rect.c ****                 if(!simple_sub) {
 817:Drivers/lvgl/src/draw/sw/lv_draw_sw_rect.c ****                     lv_memcpy(mask_buf, sh_buf_tmp, w);
 818:Drivers/lvgl/src/draw/sw/lv_draw_sw_rect.c ****                     blend_dsc.mask_res = lv_draw_mask_apply(mask_buf, clip_area_sub.x1, y, w);
 819:Drivers/lvgl/src/draw/sw/lv_draw_sw_rect.c ****                     if(blend_dsc.mask_res == LV_DRAW_MASK_RES_FULL_COVER) blend_dsc.mask_res = LV_D
 820:Drivers/lvgl/src/draw/sw/lv_draw_sw_rect.c ****                 }
 821:Drivers/lvgl/src/draw/sw/lv_draw_sw_rect.c **** 
 822:Drivers/lvgl/src/draw/sw/lv_draw_sw_rect.c ****                 lv_draw_sw_blend(draw_ctx, &blend_dsc);
 823:Drivers/lvgl/src/draw/sw/lv_draw_sw_rect.c ****             }
 824:Drivers/lvgl/src/draw/sw/lv_draw_sw_rect.c ****         }
 825:Drivers/lvgl/src/draw/sw/lv_draw_sw_rect.c ****     }
 826:Drivers/lvgl/src/draw/sw/lv_draw_sw_rect.c **** 
 827:Drivers/lvgl/src/draw/sw/lv_draw_sw_rect.c ****     /*Top left corner*/
 828:Drivers/lvgl/src/draw/sw/lv_draw_sw_rect.c ****     blend_area.x1 = shadow_area.x1;
ARM GAS  /var/folders/0z/tsy30v1j4xl4_7kw94k978ww0000gn/T//cc0noGMx.s 			page 16


 829:Drivers/lvgl/src/draw/sw/lv_draw_sw_rect.c ****     blend_area.x2 = shadow_area.x1 + corner_size - 1;
 830:Drivers/lvgl/src/draw/sw/lv_draw_sw_rect.c ****     blend_area.y1 = shadow_area.y1;
 831:Drivers/lvgl/src/draw/sw/lv_draw_sw_rect.c ****     blend_area.y2 = shadow_area.y1 + corner_size - 1;
 832:Drivers/lvgl/src/draw/sw/lv_draw_sw_rect.c ****     /*Do not overdraw the other corners*/
 833:Drivers/lvgl/src/draw/sw/lv_draw_sw_rect.c ****     blend_area.x2 = LV_MIN(blend_area.x2, w_half - 1);
 834:Drivers/lvgl/src/draw/sw/lv_draw_sw_rect.c ****     blend_area.y2 = LV_MIN(blend_area.y2, h_half);
 835:Drivers/lvgl/src/draw/sw/lv_draw_sw_rect.c **** 
 836:Drivers/lvgl/src/draw/sw/lv_draw_sw_rect.c ****     if(_lv_area_intersect(&clip_area_sub, &blend_area, draw_ctx->clip_area) &&
 837:Drivers/lvgl/src/draw/sw/lv_draw_sw_rect.c ****        !_lv_area_is_in(&clip_area_sub, &bg_area, r_bg)) {
 838:Drivers/lvgl/src/draw/sw/lv_draw_sw_rect.c ****         lv_coord_t w = lv_area_get_width(&clip_area_sub);
 839:Drivers/lvgl/src/draw/sw/lv_draw_sw_rect.c ****         sh_buf_tmp = sh_buf;
 840:Drivers/lvgl/src/draw/sw/lv_draw_sw_rect.c ****         sh_buf_tmp += (clip_area_sub.y1 - blend_area.y1) * corner_size;
 841:Drivers/lvgl/src/draw/sw/lv_draw_sw_rect.c ****         sh_buf_tmp += clip_area_sub.x1 - blend_area.x1;
 842:Drivers/lvgl/src/draw/sw/lv_draw_sw_rect.c **** 
 843:Drivers/lvgl/src/draw/sw/lv_draw_sw_rect.c ****         /*Do not mask if out of the bg*/
 844:Drivers/lvgl/src/draw/sw/lv_draw_sw_rect.c ****         if(simple && _lv_area_is_out(&clip_area_sub, &bg_area, r_bg)) simple_sub = true;
 845:Drivers/lvgl/src/draw/sw/lv_draw_sw_rect.c ****         else simple_sub = simple;
 846:Drivers/lvgl/src/draw/sw/lv_draw_sw_rect.c ****         blend_dsc.mask_buf = mask_buf;
 847:Drivers/lvgl/src/draw/sw/lv_draw_sw_rect.c **** 
 848:Drivers/lvgl/src/draw/sw/lv_draw_sw_rect.c ****         if(w > 0) {
 849:Drivers/lvgl/src/draw/sw/lv_draw_sw_rect.c ****             blend_area.x1 = clip_area_sub.x1;
 850:Drivers/lvgl/src/draw/sw/lv_draw_sw_rect.c ****             blend_area.x2 = clip_area_sub.x2;
 851:Drivers/lvgl/src/draw/sw/lv_draw_sw_rect.c ****             blend_dsc.mask_res = LV_DRAW_MASK_RES_CHANGED;    /*In simple mode it won't be overwrit
 852:Drivers/lvgl/src/draw/sw/lv_draw_sw_rect.c ****             for(y = clip_area_sub.y1; y <= clip_area_sub.y2; y++) {
 853:Drivers/lvgl/src/draw/sw/lv_draw_sw_rect.c ****                 blend_area.y1 = y;
 854:Drivers/lvgl/src/draw/sw/lv_draw_sw_rect.c ****                 blend_area.y2 = y;
 855:Drivers/lvgl/src/draw/sw/lv_draw_sw_rect.c **** 
 856:Drivers/lvgl/src/draw/sw/lv_draw_sw_rect.c ****                 if(!simple_sub) {
 857:Drivers/lvgl/src/draw/sw/lv_draw_sw_rect.c ****                     lv_memcpy(mask_buf, sh_buf_tmp, corner_size);
 858:Drivers/lvgl/src/draw/sw/lv_draw_sw_rect.c ****                     blend_dsc.mask_res = lv_draw_mask_apply(mask_buf, clip_area_sub.x1, y, w);
 859:Drivers/lvgl/src/draw/sw/lv_draw_sw_rect.c ****                     if(blend_dsc.mask_res == LV_DRAW_MASK_RES_FULL_COVER) blend_dsc.mask_res = LV_D
 860:Drivers/lvgl/src/draw/sw/lv_draw_sw_rect.c ****                 }
 861:Drivers/lvgl/src/draw/sw/lv_draw_sw_rect.c ****                 else {
 862:Drivers/lvgl/src/draw/sw/lv_draw_sw_rect.c ****                     blend_dsc.mask_buf = sh_buf_tmp;
 863:Drivers/lvgl/src/draw/sw/lv_draw_sw_rect.c ****                 }
 864:Drivers/lvgl/src/draw/sw/lv_draw_sw_rect.c **** 
 865:Drivers/lvgl/src/draw/sw/lv_draw_sw_rect.c ****                 lv_draw_sw_blend(draw_ctx, &blend_dsc);
 866:Drivers/lvgl/src/draw/sw/lv_draw_sw_rect.c ****                 sh_buf_tmp += corner_size;
 867:Drivers/lvgl/src/draw/sw/lv_draw_sw_rect.c ****             }
 868:Drivers/lvgl/src/draw/sw/lv_draw_sw_rect.c ****         }
 869:Drivers/lvgl/src/draw/sw/lv_draw_sw_rect.c ****     }
 870:Drivers/lvgl/src/draw/sw/lv_draw_sw_rect.c **** 
 871:Drivers/lvgl/src/draw/sw/lv_draw_sw_rect.c ****     /*Bottom left corner.
 872:Drivers/lvgl/src/draw/sw/lv_draw_sw_rect.c ****      *Almost the same as bottom right just read the lines of `sh_buf` from then end*/
 873:Drivers/lvgl/src/draw/sw/lv_draw_sw_rect.c ****     blend_area.x1 = shadow_area.x1 ;
 874:Drivers/lvgl/src/draw/sw/lv_draw_sw_rect.c ****     blend_area.x2 = shadow_area.x1 + corner_size - 1;
 875:Drivers/lvgl/src/draw/sw/lv_draw_sw_rect.c ****     blend_area.y1 = shadow_area.y2 - corner_size + 1;
 876:Drivers/lvgl/src/draw/sw/lv_draw_sw_rect.c ****     blend_area.y2 = shadow_area.y2;
 877:Drivers/lvgl/src/draw/sw/lv_draw_sw_rect.c ****     /*Do not overdraw the other corners*/
 878:Drivers/lvgl/src/draw/sw/lv_draw_sw_rect.c ****     blend_area.y1 = LV_MAX(blend_area.y1, h_half + 1);
 879:Drivers/lvgl/src/draw/sw/lv_draw_sw_rect.c ****     blend_area.x2 = LV_MIN(blend_area.x2, w_half - 1);
 880:Drivers/lvgl/src/draw/sw/lv_draw_sw_rect.c **** 
 881:Drivers/lvgl/src/draw/sw/lv_draw_sw_rect.c ****     if(_lv_area_intersect(&clip_area_sub, &blend_area, draw_ctx->clip_area) &&
 882:Drivers/lvgl/src/draw/sw/lv_draw_sw_rect.c ****        !_lv_area_is_in(&clip_area_sub, &bg_area, r_bg)) {
 883:Drivers/lvgl/src/draw/sw/lv_draw_sw_rect.c ****         lv_coord_t w = lv_area_get_width(&clip_area_sub);
 884:Drivers/lvgl/src/draw/sw/lv_draw_sw_rect.c ****         sh_buf_tmp = sh_buf;
 885:Drivers/lvgl/src/draw/sw/lv_draw_sw_rect.c ****         sh_buf_tmp += (blend_area.y2 - clip_area_sub.y2) * corner_size;
ARM GAS  /var/folders/0z/tsy30v1j4xl4_7kw94k978ww0000gn/T//cc0noGMx.s 			page 17


 886:Drivers/lvgl/src/draw/sw/lv_draw_sw_rect.c ****         sh_buf_tmp += clip_area_sub.x1 - blend_area.x1;
 887:Drivers/lvgl/src/draw/sw/lv_draw_sw_rect.c **** 
 888:Drivers/lvgl/src/draw/sw/lv_draw_sw_rect.c ****         /*Do not mask if out of the bg*/
 889:Drivers/lvgl/src/draw/sw/lv_draw_sw_rect.c ****         if(simple && _lv_area_is_out(&clip_area_sub, &bg_area, r_bg)) simple_sub = true;
 890:Drivers/lvgl/src/draw/sw/lv_draw_sw_rect.c ****         else simple_sub = simple;
 891:Drivers/lvgl/src/draw/sw/lv_draw_sw_rect.c ****         blend_dsc.mask_buf = mask_buf;
 892:Drivers/lvgl/src/draw/sw/lv_draw_sw_rect.c ****         if(w > 0) {
 893:Drivers/lvgl/src/draw/sw/lv_draw_sw_rect.c ****             blend_area.x1 = clip_area_sub.x1;
 894:Drivers/lvgl/src/draw/sw/lv_draw_sw_rect.c ****             blend_area.x2 = clip_area_sub.x2;
 895:Drivers/lvgl/src/draw/sw/lv_draw_sw_rect.c ****             blend_dsc.mask_res = LV_DRAW_MASK_RES_CHANGED;    /*In simple mode it won't be overwrit
 896:Drivers/lvgl/src/draw/sw/lv_draw_sw_rect.c ****             for(y = clip_area_sub.y2; y >= clip_area_sub.y1; y--) {
 897:Drivers/lvgl/src/draw/sw/lv_draw_sw_rect.c ****                 blend_area.y1 = y;
 898:Drivers/lvgl/src/draw/sw/lv_draw_sw_rect.c ****                 blend_area.y2 = y;
 899:Drivers/lvgl/src/draw/sw/lv_draw_sw_rect.c **** 
 900:Drivers/lvgl/src/draw/sw/lv_draw_sw_rect.c ****                 if(!simple_sub) {
 901:Drivers/lvgl/src/draw/sw/lv_draw_sw_rect.c ****                     lv_memcpy(mask_buf, sh_buf_tmp, corner_size);
 902:Drivers/lvgl/src/draw/sw/lv_draw_sw_rect.c ****                     blend_dsc.mask_res = lv_draw_mask_apply(mask_buf, clip_area_sub.x1, y, w);
 903:Drivers/lvgl/src/draw/sw/lv_draw_sw_rect.c ****                     if(blend_dsc.mask_res == LV_DRAW_MASK_RES_FULL_COVER) blend_dsc.mask_res = LV_D
 904:Drivers/lvgl/src/draw/sw/lv_draw_sw_rect.c ****                 }
 905:Drivers/lvgl/src/draw/sw/lv_draw_sw_rect.c ****                 else {
 906:Drivers/lvgl/src/draw/sw/lv_draw_sw_rect.c ****                     blend_dsc.mask_buf = sh_buf_tmp;
 907:Drivers/lvgl/src/draw/sw/lv_draw_sw_rect.c ****                 }
 908:Drivers/lvgl/src/draw/sw/lv_draw_sw_rect.c ****                 lv_draw_sw_blend(draw_ctx, &blend_dsc);
 909:Drivers/lvgl/src/draw/sw/lv_draw_sw_rect.c ****                 sh_buf_tmp += corner_size;
 910:Drivers/lvgl/src/draw/sw/lv_draw_sw_rect.c ****             }
 911:Drivers/lvgl/src/draw/sw/lv_draw_sw_rect.c ****         }
 912:Drivers/lvgl/src/draw/sw/lv_draw_sw_rect.c ****     }
 913:Drivers/lvgl/src/draw/sw/lv_draw_sw_rect.c **** 
 914:Drivers/lvgl/src/draw/sw/lv_draw_sw_rect.c ****     /*Draw the center rectangle.*/
 915:Drivers/lvgl/src/draw/sw/lv_draw_sw_rect.c ****     blend_area.x1 = shadow_area.x1 + corner_size ;
 916:Drivers/lvgl/src/draw/sw/lv_draw_sw_rect.c ****     blend_area.x2 = shadow_area.x2 - corner_size;
 917:Drivers/lvgl/src/draw/sw/lv_draw_sw_rect.c ****     blend_area.y1 = shadow_area.y1 + corner_size;
 918:Drivers/lvgl/src/draw/sw/lv_draw_sw_rect.c ****     blend_area.y2 = shadow_area.y2 - corner_size;
 919:Drivers/lvgl/src/draw/sw/lv_draw_sw_rect.c ****     blend_dsc.mask_buf = mask_buf;
 920:Drivers/lvgl/src/draw/sw/lv_draw_sw_rect.c **** 
 921:Drivers/lvgl/src/draw/sw/lv_draw_sw_rect.c ****     if(_lv_area_intersect(&clip_area_sub, &blend_area, draw_ctx->clip_area) &&
 922:Drivers/lvgl/src/draw/sw/lv_draw_sw_rect.c ****        !_lv_area_is_in(&clip_area_sub, &bg_area, r_bg)) {
 923:Drivers/lvgl/src/draw/sw/lv_draw_sw_rect.c ****         lv_coord_t w = lv_area_get_width(&clip_area_sub);
 924:Drivers/lvgl/src/draw/sw/lv_draw_sw_rect.c ****         if(w > 0) {
 925:Drivers/lvgl/src/draw/sw/lv_draw_sw_rect.c ****             blend_area.x1 = clip_area_sub.x1;
 926:Drivers/lvgl/src/draw/sw/lv_draw_sw_rect.c ****             blend_area.x2 = clip_area_sub.x2;
 927:Drivers/lvgl/src/draw/sw/lv_draw_sw_rect.c ****             for(y = clip_area_sub.y1; y <= clip_area_sub.y2; y++) {
 928:Drivers/lvgl/src/draw/sw/lv_draw_sw_rect.c ****                 blend_area.y1 = y;
 929:Drivers/lvgl/src/draw/sw/lv_draw_sw_rect.c ****                 blend_area.y2 = y;
 930:Drivers/lvgl/src/draw/sw/lv_draw_sw_rect.c **** 
 931:Drivers/lvgl/src/draw/sw/lv_draw_sw_rect.c ****                 lv_memset_ff(mask_buf, w);
 932:Drivers/lvgl/src/draw/sw/lv_draw_sw_rect.c ****                 blend_dsc.mask_res = lv_draw_mask_apply(mask_buf, clip_area_sub.x1, y, w);
 933:Drivers/lvgl/src/draw/sw/lv_draw_sw_rect.c ****                 lv_draw_sw_blend(draw_ctx, &blend_dsc);
 934:Drivers/lvgl/src/draw/sw/lv_draw_sw_rect.c ****             }
 935:Drivers/lvgl/src/draw/sw/lv_draw_sw_rect.c ****         }
 936:Drivers/lvgl/src/draw/sw/lv_draw_sw_rect.c ****     }
 937:Drivers/lvgl/src/draw/sw/lv_draw_sw_rect.c **** 
 938:Drivers/lvgl/src/draw/sw/lv_draw_sw_rect.c ****     if(!simple) {
 939:Drivers/lvgl/src/draw/sw/lv_draw_sw_rect.c ****         lv_draw_mask_free_param(&mask_rout_param);
 940:Drivers/lvgl/src/draw/sw/lv_draw_sw_rect.c ****         lv_draw_mask_remove_id(mask_rout_id);
 941:Drivers/lvgl/src/draw/sw/lv_draw_sw_rect.c ****     }
 942:Drivers/lvgl/src/draw/sw/lv_draw_sw_rect.c ****     lv_mem_buf_release(sh_buf);
ARM GAS  /var/folders/0z/tsy30v1j4xl4_7kw94k978ww0000gn/T//cc0noGMx.s 			page 18


 943:Drivers/lvgl/src/draw/sw/lv_draw_sw_rect.c ****     lv_mem_buf_release(mask_buf);
 944:Drivers/lvgl/src/draw/sw/lv_draw_sw_rect.c **** }
 945:Drivers/lvgl/src/draw/sw/lv_draw_sw_rect.c **** 
 946:Drivers/lvgl/src/draw/sw/lv_draw_sw_rect.c **** /**
 947:Drivers/lvgl/src/draw/sw/lv_draw_sw_rect.c ****  * Calculate a blurred corner
 948:Drivers/lvgl/src/draw/sw/lv_draw_sw_rect.c ****  * @param coords Coordinates of the shadow
 949:Drivers/lvgl/src/draw/sw/lv_draw_sw_rect.c ****  * @param sh_buf a buffer to store the result. Its size should be `(sw + r)^2 * 2`
 950:Drivers/lvgl/src/draw/sw/lv_draw_sw_rect.c ****  * @param sw shadow width
 951:Drivers/lvgl/src/draw/sw/lv_draw_sw_rect.c ****  * @param r radius
 952:Drivers/lvgl/src/draw/sw/lv_draw_sw_rect.c ****  */
 953:Drivers/lvgl/src/draw/sw/lv_draw_sw_rect.c **** static void LV_ATTRIBUTE_FAST_MEM shadow_draw_corner_buf(const lv_area_t * coords, uint16_t * sh_bu
 954:Drivers/lvgl/src/draw/sw/lv_draw_sw_rect.c ****                                                          lv_coord_t sw, lv_coord_t r)
 955:Drivers/lvgl/src/draw/sw/lv_draw_sw_rect.c **** {
 956:Drivers/lvgl/src/draw/sw/lv_draw_sw_rect.c ****     int32_t sw_ori = sw;
 957:Drivers/lvgl/src/draw/sw/lv_draw_sw_rect.c ****     int32_t size = sw_ori  + r;
 958:Drivers/lvgl/src/draw/sw/lv_draw_sw_rect.c **** 
 959:Drivers/lvgl/src/draw/sw/lv_draw_sw_rect.c ****     lv_area_t sh_area;
 960:Drivers/lvgl/src/draw/sw/lv_draw_sw_rect.c ****     lv_area_copy(&sh_area, coords);
 961:Drivers/lvgl/src/draw/sw/lv_draw_sw_rect.c ****     sh_area.x2 = sw / 2 + r - 1  - ((sw & 1) ? 0 : 1);
 962:Drivers/lvgl/src/draw/sw/lv_draw_sw_rect.c ****     sh_area.y1 = sw / 2 + 1;
 963:Drivers/lvgl/src/draw/sw/lv_draw_sw_rect.c **** 
 964:Drivers/lvgl/src/draw/sw/lv_draw_sw_rect.c ****     sh_area.x1 = sh_area.x2 - lv_area_get_width(coords);
 965:Drivers/lvgl/src/draw/sw/lv_draw_sw_rect.c ****     sh_area.y2 = sh_area.y1 + lv_area_get_height(coords);
 966:Drivers/lvgl/src/draw/sw/lv_draw_sw_rect.c **** 
 967:Drivers/lvgl/src/draw/sw/lv_draw_sw_rect.c ****     lv_draw_mask_radius_param_t mask_param;
 968:Drivers/lvgl/src/draw/sw/lv_draw_sw_rect.c ****     lv_draw_mask_radius_init(&mask_param, &sh_area, r, false);
 969:Drivers/lvgl/src/draw/sw/lv_draw_sw_rect.c **** 
 970:Drivers/lvgl/src/draw/sw/lv_draw_sw_rect.c **** #if SHADOW_ENHANCE
 971:Drivers/lvgl/src/draw/sw/lv_draw_sw_rect.c ****     /*Set half shadow width width because blur will be repeated*/
 972:Drivers/lvgl/src/draw/sw/lv_draw_sw_rect.c ****     if(sw_ori == 1) sw = 1;
 973:Drivers/lvgl/src/draw/sw/lv_draw_sw_rect.c ****     else sw = sw_ori >> 1;
 974:Drivers/lvgl/src/draw/sw/lv_draw_sw_rect.c **** #endif
 975:Drivers/lvgl/src/draw/sw/lv_draw_sw_rect.c **** 
 976:Drivers/lvgl/src/draw/sw/lv_draw_sw_rect.c ****     int32_t y;
 977:Drivers/lvgl/src/draw/sw/lv_draw_sw_rect.c ****     lv_opa_t * mask_line = lv_mem_buf_get(size);
 978:Drivers/lvgl/src/draw/sw/lv_draw_sw_rect.c ****     uint16_t * sh_ups_tmp_buf = (uint16_t *)sh_buf;
 979:Drivers/lvgl/src/draw/sw/lv_draw_sw_rect.c ****     for(y = 0; y < size; y++) {
 980:Drivers/lvgl/src/draw/sw/lv_draw_sw_rect.c ****         lv_memset_ff(mask_line, size);
 981:Drivers/lvgl/src/draw/sw/lv_draw_sw_rect.c ****         lv_draw_mask_res_t mask_res = mask_param.dsc.cb(mask_line, 0, y, size, &mask_param);
 982:Drivers/lvgl/src/draw/sw/lv_draw_sw_rect.c ****         if(mask_res == LV_DRAW_MASK_RES_TRANSP) {
 983:Drivers/lvgl/src/draw/sw/lv_draw_sw_rect.c ****             lv_memset_00(sh_ups_tmp_buf, size * sizeof(sh_ups_tmp_buf[0]));
 984:Drivers/lvgl/src/draw/sw/lv_draw_sw_rect.c ****         }
 985:Drivers/lvgl/src/draw/sw/lv_draw_sw_rect.c ****         else {
 986:Drivers/lvgl/src/draw/sw/lv_draw_sw_rect.c ****             int32_t i;
 987:Drivers/lvgl/src/draw/sw/lv_draw_sw_rect.c ****             sh_ups_tmp_buf[0] = (mask_line[0] << SHADOW_UPSCALE_SHIFT) / sw;
 988:Drivers/lvgl/src/draw/sw/lv_draw_sw_rect.c ****             for(i = 1; i < size; i++) {
 989:Drivers/lvgl/src/draw/sw/lv_draw_sw_rect.c ****                 if(mask_line[i] == mask_line[i - 1]) sh_ups_tmp_buf[i] = sh_ups_tmp_buf[i - 1];
 990:Drivers/lvgl/src/draw/sw/lv_draw_sw_rect.c ****                 else  sh_ups_tmp_buf[i] = (mask_line[i] << SHADOW_UPSCALE_SHIFT) / sw;
 991:Drivers/lvgl/src/draw/sw/lv_draw_sw_rect.c ****             }
 992:Drivers/lvgl/src/draw/sw/lv_draw_sw_rect.c ****         }
 993:Drivers/lvgl/src/draw/sw/lv_draw_sw_rect.c **** 
 994:Drivers/lvgl/src/draw/sw/lv_draw_sw_rect.c ****         sh_ups_tmp_buf += size;
 995:Drivers/lvgl/src/draw/sw/lv_draw_sw_rect.c ****     }
 996:Drivers/lvgl/src/draw/sw/lv_draw_sw_rect.c ****     lv_mem_buf_release(mask_line);
 997:Drivers/lvgl/src/draw/sw/lv_draw_sw_rect.c **** 
 998:Drivers/lvgl/src/draw/sw/lv_draw_sw_rect.c ****     lv_draw_mask_free_param(&mask_param);
 999:Drivers/lvgl/src/draw/sw/lv_draw_sw_rect.c **** 
ARM GAS  /var/folders/0z/tsy30v1j4xl4_7kw94k978ww0000gn/T//cc0noGMx.s 			page 19


1000:Drivers/lvgl/src/draw/sw/lv_draw_sw_rect.c ****     if(sw == 1) {
1001:Drivers/lvgl/src/draw/sw/lv_draw_sw_rect.c ****         int32_t i;
1002:Drivers/lvgl/src/draw/sw/lv_draw_sw_rect.c ****         lv_opa_t * res_buf = (lv_opa_t *)sh_buf;
1003:Drivers/lvgl/src/draw/sw/lv_draw_sw_rect.c ****         for(i = 0; i < size * size; i++) {
1004:Drivers/lvgl/src/draw/sw/lv_draw_sw_rect.c ****             res_buf[i] = (sh_buf[i] >> SHADOW_UPSCALE_SHIFT);
1005:Drivers/lvgl/src/draw/sw/lv_draw_sw_rect.c ****         }
1006:Drivers/lvgl/src/draw/sw/lv_draw_sw_rect.c ****         return;
1007:Drivers/lvgl/src/draw/sw/lv_draw_sw_rect.c ****     }
1008:Drivers/lvgl/src/draw/sw/lv_draw_sw_rect.c **** 
1009:Drivers/lvgl/src/draw/sw/lv_draw_sw_rect.c ****     shadow_blur_corner(size, sw, sh_buf);
1010:Drivers/lvgl/src/draw/sw/lv_draw_sw_rect.c **** 
1011:Drivers/lvgl/src/draw/sw/lv_draw_sw_rect.c **** #if SHADOW_ENHANCE == 0
1012:Drivers/lvgl/src/draw/sw/lv_draw_sw_rect.c ****     /*The result is required in lv_opa_t not uint16_t*/
1013:Drivers/lvgl/src/draw/sw/lv_draw_sw_rect.c ****     uint32_t x;
1014:Drivers/lvgl/src/draw/sw/lv_draw_sw_rect.c ****     lv_opa_t * res_buf = (lv_opa_t *)sh_buf;
1015:Drivers/lvgl/src/draw/sw/lv_draw_sw_rect.c ****     for(x = 0; x < size * size; x++) {
1016:Drivers/lvgl/src/draw/sw/lv_draw_sw_rect.c ****         res_buf[x] = sh_buf[x];
1017:Drivers/lvgl/src/draw/sw/lv_draw_sw_rect.c ****     }
1018:Drivers/lvgl/src/draw/sw/lv_draw_sw_rect.c **** #else
1019:Drivers/lvgl/src/draw/sw/lv_draw_sw_rect.c ****     sw += sw_ori & 1;
1020:Drivers/lvgl/src/draw/sw/lv_draw_sw_rect.c ****     if(sw > 1) {
1021:Drivers/lvgl/src/draw/sw/lv_draw_sw_rect.c ****         uint32_t i;
1022:Drivers/lvgl/src/draw/sw/lv_draw_sw_rect.c ****         uint32_t max_v_div = (LV_OPA_COVER << SHADOW_UPSCALE_SHIFT) / sw;
1023:Drivers/lvgl/src/draw/sw/lv_draw_sw_rect.c ****         for(i = 0; i < (uint32_t)size * size; i++) {
1024:Drivers/lvgl/src/draw/sw/lv_draw_sw_rect.c ****             if(sh_buf[i] == 0) continue;
1025:Drivers/lvgl/src/draw/sw/lv_draw_sw_rect.c ****             else if(sh_buf[i] == LV_OPA_COVER) sh_buf[i] = max_v_div;
1026:Drivers/lvgl/src/draw/sw/lv_draw_sw_rect.c ****             else  sh_buf[i] = (sh_buf[i] << SHADOW_UPSCALE_SHIFT) / sw;
1027:Drivers/lvgl/src/draw/sw/lv_draw_sw_rect.c ****         }
1028:Drivers/lvgl/src/draw/sw/lv_draw_sw_rect.c **** 
1029:Drivers/lvgl/src/draw/sw/lv_draw_sw_rect.c ****         shadow_blur_corner(size, sw, sh_buf);
1030:Drivers/lvgl/src/draw/sw/lv_draw_sw_rect.c ****     }
1031:Drivers/lvgl/src/draw/sw/lv_draw_sw_rect.c ****     int32_t x;
1032:Drivers/lvgl/src/draw/sw/lv_draw_sw_rect.c ****     lv_opa_t * res_buf = (lv_opa_t *)sh_buf;
1033:Drivers/lvgl/src/draw/sw/lv_draw_sw_rect.c ****     for(x = 0; x < size * size; x++) {
1034:Drivers/lvgl/src/draw/sw/lv_draw_sw_rect.c ****         res_buf[x] = sh_buf[x];
1035:Drivers/lvgl/src/draw/sw/lv_draw_sw_rect.c ****     }
1036:Drivers/lvgl/src/draw/sw/lv_draw_sw_rect.c **** #endif
1037:Drivers/lvgl/src/draw/sw/lv_draw_sw_rect.c **** 
1038:Drivers/lvgl/src/draw/sw/lv_draw_sw_rect.c **** }
1039:Drivers/lvgl/src/draw/sw/lv_draw_sw_rect.c **** 
1040:Drivers/lvgl/src/draw/sw/lv_draw_sw_rect.c **** static void LV_ATTRIBUTE_FAST_MEM shadow_blur_corner(lv_coord_t size, lv_coord_t sw, uint16_t * sh_
1041:Drivers/lvgl/src/draw/sw/lv_draw_sw_rect.c **** {
1042:Drivers/lvgl/src/draw/sw/lv_draw_sw_rect.c ****     int32_t s_left = sw >> 1;
1043:Drivers/lvgl/src/draw/sw/lv_draw_sw_rect.c ****     int32_t s_right = (sw >> 1);
1044:Drivers/lvgl/src/draw/sw/lv_draw_sw_rect.c ****     if((sw & 1) == 0) s_left--;
1045:Drivers/lvgl/src/draw/sw/lv_draw_sw_rect.c **** 
1046:Drivers/lvgl/src/draw/sw/lv_draw_sw_rect.c ****     /*Horizontal blur*/
1047:Drivers/lvgl/src/draw/sw/lv_draw_sw_rect.c ****     uint16_t * sh_ups_blur_buf = lv_mem_buf_get(size * sizeof(uint16_t));
1048:Drivers/lvgl/src/draw/sw/lv_draw_sw_rect.c **** 
1049:Drivers/lvgl/src/draw/sw/lv_draw_sw_rect.c ****     int32_t x;
1050:Drivers/lvgl/src/draw/sw/lv_draw_sw_rect.c ****     int32_t y;
1051:Drivers/lvgl/src/draw/sw/lv_draw_sw_rect.c **** 
1052:Drivers/lvgl/src/draw/sw/lv_draw_sw_rect.c ****     uint16_t * sh_ups_tmp_buf = sh_ups_buf;
1053:Drivers/lvgl/src/draw/sw/lv_draw_sw_rect.c **** 
1054:Drivers/lvgl/src/draw/sw/lv_draw_sw_rect.c ****     for(y = 0; y < size; y++) {
1055:Drivers/lvgl/src/draw/sw/lv_draw_sw_rect.c ****         int32_t v = sh_ups_tmp_buf[size - 1] * sw;
1056:Drivers/lvgl/src/draw/sw/lv_draw_sw_rect.c ****         for(x = size - 1; x >= 0; x--) {
ARM GAS  /var/folders/0z/tsy30v1j4xl4_7kw94k978ww0000gn/T//cc0noGMx.s 			page 20


1057:Drivers/lvgl/src/draw/sw/lv_draw_sw_rect.c ****             sh_ups_blur_buf[x] = v;
1058:Drivers/lvgl/src/draw/sw/lv_draw_sw_rect.c **** 
1059:Drivers/lvgl/src/draw/sw/lv_draw_sw_rect.c ****             /*Forget the right pixel*/
1060:Drivers/lvgl/src/draw/sw/lv_draw_sw_rect.c ****             uint32_t right_val = 0;
1061:Drivers/lvgl/src/draw/sw/lv_draw_sw_rect.c ****             if(x + s_right < size) right_val = sh_ups_tmp_buf[x + s_right];
1062:Drivers/lvgl/src/draw/sw/lv_draw_sw_rect.c ****             v -= right_val;
1063:Drivers/lvgl/src/draw/sw/lv_draw_sw_rect.c **** 
1064:Drivers/lvgl/src/draw/sw/lv_draw_sw_rect.c ****             /*Add the left pixel*/
1065:Drivers/lvgl/src/draw/sw/lv_draw_sw_rect.c ****             uint32_t left_val;
1066:Drivers/lvgl/src/draw/sw/lv_draw_sw_rect.c ****             if(x - s_left - 1 < 0) left_val = sh_ups_tmp_buf[0];
1067:Drivers/lvgl/src/draw/sw/lv_draw_sw_rect.c ****             else left_val = sh_ups_tmp_buf[x - s_left - 1];
1068:Drivers/lvgl/src/draw/sw/lv_draw_sw_rect.c ****             v += left_val;
1069:Drivers/lvgl/src/draw/sw/lv_draw_sw_rect.c ****         }
1070:Drivers/lvgl/src/draw/sw/lv_draw_sw_rect.c ****         lv_memcpy(sh_ups_tmp_buf, sh_ups_blur_buf, size * sizeof(uint16_t));
1071:Drivers/lvgl/src/draw/sw/lv_draw_sw_rect.c ****         sh_ups_tmp_buf += size;
1072:Drivers/lvgl/src/draw/sw/lv_draw_sw_rect.c ****     }
1073:Drivers/lvgl/src/draw/sw/lv_draw_sw_rect.c **** 
1074:Drivers/lvgl/src/draw/sw/lv_draw_sw_rect.c ****     /*Vertical blur*/
1075:Drivers/lvgl/src/draw/sw/lv_draw_sw_rect.c ****     uint32_t i;
1076:Drivers/lvgl/src/draw/sw/lv_draw_sw_rect.c ****     uint32_t max_v = LV_OPA_COVER << SHADOW_UPSCALE_SHIFT;
1077:Drivers/lvgl/src/draw/sw/lv_draw_sw_rect.c ****     uint32_t max_v_div = max_v / sw;
1078:Drivers/lvgl/src/draw/sw/lv_draw_sw_rect.c ****     for(i = 0; i < (uint32_t)size * size; i++) {
1079:Drivers/lvgl/src/draw/sw/lv_draw_sw_rect.c ****         if(sh_ups_buf[i] == 0) continue;
1080:Drivers/lvgl/src/draw/sw/lv_draw_sw_rect.c ****         else if(sh_ups_buf[i] == max_v) sh_ups_buf[i] = max_v_div;
1081:Drivers/lvgl/src/draw/sw/lv_draw_sw_rect.c ****         else sh_ups_buf[i] = sh_ups_buf[i] / sw;
1082:Drivers/lvgl/src/draw/sw/lv_draw_sw_rect.c ****     }
1083:Drivers/lvgl/src/draw/sw/lv_draw_sw_rect.c **** 
1084:Drivers/lvgl/src/draw/sw/lv_draw_sw_rect.c ****     for(x = 0; x < size; x++) {
1085:Drivers/lvgl/src/draw/sw/lv_draw_sw_rect.c ****         sh_ups_tmp_buf = &sh_ups_buf[x];
1086:Drivers/lvgl/src/draw/sw/lv_draw_sw_rect.c ****         int32_t v = sh_ups_tmp_buf[0] * sw;
1087:Drivers/lvgl/src/draw/sw/lv_draw_sw_rect.c ****         for(y = 0; y < size ; y++, sh_ups_tmp_buf += size) {
1088:Drivers/lvgl/src/draw/sw/lv_draw_sw_rect.c ****             sh_ups_blur_buf[y] = v < 0 ? 0 : (v >> SHADOW_UPSCALE_SHIFT);
1089:Drivers/lvgl/src/draw/sw/lv_draw_sw_rect.c **** 
1090:Drivers/lvgl/src/draw/sw/lv_draw_sw_rect.c ****             /*Forget the top pixel*/
1091:Drivers/lvgl/src/draw/sw/lv_draw_sw_rect.c ****             uint32_t top_val;
1092:Drivers/lvgl/src/draw/sw/lv_draw_sw_rect.c ****             if(y - s_right <= 0) top_val = sh_ups_tmp_buf[0];
1093:Drivers/lvgl/src/draw/sw/lv_draw_sw_rect.c ****             else top_val = sh_ups_buf[(y - s_right) * size + x];
1094:Drivers/lvgl/src/draw/sw/lv_draw_sw_rect.c ****             v -= top_val;
1095:Drivers/lvgl/src/draw/sw/lv_draw_sw_rect.c **** 
1096:Drivers/lvgl/src/draw/sw/lv_draw_sw_rect.c ****             /*Add the bottom pixel*/
1097:Drivers/lvgl/src/draw/sw/lv_draw_sw_rect.c ****             uint32_t bottom_val;
1098:Drivers/lvgl/src/draw/sw/lv_draw_sw_rect.c ****             if(y + s_left + 1 < size) bottom_val = sh_ups_buf[(y + s_left + 1) * size + x];
1099:Drivers/lvgl/src/draw/sw/lv_draw_sw_rect.c ****             else bottom_val = sh_ups_buf[(size - 1) * size + x];
1100:Drivers/lvgl/src/draw/sw/lv_draw_sw_rect.c ****             v += bottom_val;
1101:Drivers/lvgl/src/draw/sw/lv_draw_sw_rect.c ****         }
1102:Drivers/lvgl/src/draw/sw/lv_draw_sw_rect.c **** 
1103:Drivers/lvgl/src/draw/sw/lv_draw_sw_rect.c ****         /*Write back the result into `sh_ups_buf`*/
1104:Drivers/lvgl/src/draw/sw/lv_draw_sw_rect.c ****         sh_ups_tmp_buf = &sh_ups_buf[x];
1105:Drivers/lvgl/src/draw/sw/lv_draw_sw_rect.c ****         for(y = 0; y < size; y++, sh_ups_tmp_buf += size) {
1106:Drivers/lvgl/src/draw/sw/lv_draw_sw_rect.c ****             (*sh_ups_tmp_buf) = sh_ups_blur_buf[y];
1107:Drivers/lvgl/src/draw/sw/lv_draw_sw_rect.c ****         }
1108:Drivers/lvgl/src/draw/sw/lv_draw_sw_rect.c ****     }
1109:Drivers/lvgl/src/draw/sw/lv_draw_sw_rect.c **** 
1110:Drivers/lvgl/src/draw/sw/lv_draw_sw_rect.c ****     lv_mem_buf_release(sh_ups_blur_buf);
1111:Drivers/lvgl/src/draw/sw/lv_draw_sw_rect.c **** }
1112:Drivers/lvgl/src/draw/sw/lv_draw_sw_rect.c **** #endif
1113:Drivers/lvgl/src/draw/sw/lv_draw_sw_rect.c **** 
ARM GAS  /var/folders/0z/tsy30v1j4xl4_7kw94k978ww0000gn/T//cc0noGMx.s 			page 21


1114:Drivers/lvgl/src/draw/sw/lv_draw_sw_rect.c **** static void draw_outline(lv_draw_ctx_t * draw_ctx, const lv_draw_rect_dsc_t * dsc, const lv_area_t 
1115:Drivers/lvgl/src/draw/sw/lv_draw_sw_rect.c **** {
1116:Drivers/lvgl/src/draw/sw/lv_draw_sw_rect.c ****     if(dsc->outline_opa <= LV_OPA_MIN) return;
1117:Drivers/lvgl/src/draw/sw/lv_draw_sw_rect.c ****     if(dsc->outline_width == 0) return;
1118:Drivers/lvgl/src/draw/sw/lv_draw_sw_rect.c **** 
1119:Drivers/lvgl/src/draw/sw/lv_draw_sw_rect.c ****     lv_opa_t opa = dsc->outline_opa;
1120:Drivers/lvgl/src/draw/sw/lv_draw_sw_rect.c **** 
1121:Drivers/lvgl/src/draw/sw/lv_draw_sw_rect.c ****     if(opa > LV_OPA_MAX) opa = LV_OPA_COVER;
1122:Drivers/lvgl/src/draw/sw/lv_draw_sw_rect.c **** 
1123:Drivers/lvgl/src/draw/sw/lv_draw_sw_rect.c ****     /*Get the inner radius*/
1124:Drivers/lvgl/src/draw/sw/lv_draw_sw_rect.c ****     lv_area_t area_inner;
1125:Drivers/lvgl/src/draw/sw/lv_draw_sw_rect.c ****     lv_area_copy(&area_inner, coords);
1126:Drivers/lvgl/src/draw/sw/lv_draw_sw_rect.c **** 
1127:Drivers/lvgl/src/draw/sw/lv_draw_sw_rect.c ****     /*Bring the outline closer to make sure there is no color bleeding with pad=0*/
1128:Drivers/lvgl/src/draw/sw/lv_draw_sw_rect.c ****     lv_coord_t pad = dsc->outline_pad - 1;
1129:Drivers/lvgl/src/draw/sw/lv_draw_sw_rect.c ****     area_inner.x1 -= pad;
1130:Drivers/lvgl/src/draw/sw/lv_draw_sw_rect.c ****     area_inner.y1 -= pad;
1131:Drivers/lvgl/src/draw/sw/lv_draw_sw_rect.c ****     area_inner.x2 += pad;
1132:Drivers/lvgl/src/draw/sw/lv_draw_sw_rect.c ****     area_inner.y2 += pad;
1133:Drivers/lvgl/src/draw/sw/lv_draw_sw_rect.c **** 
1134:Drivers/lvgl/src/draw/sw/lv_draw_sw_rect.c ****     lv_area_t area_outer;
1135:Drivers/lvgl/src/draw/sw/lv_draw_sw_rect.c ****     lv_area_copy(&area_outer, &area_inner);
1136:Drivers/lvgl/src/draw/sw/lv_draw_sw_rect.c **** 
1137:Drivers/lvgl/src/draw/sw/lv_draw_sw_rect.c ****     area_outer.x1 -= dsc->outline_width;
1138:Drivers/lvgl/src/draw/sw/lv_draw_sw_rect.c ****     area_outer.x2 += dsc->outline_width;
1139:Drivers/lvgl/src/draw/sw/lv_draw_sw_rect.c ****     area_outer.y1 -= dsc->outline_width;
1140:Drivers/lvgl/src/draw/sw/lv_draw_sw_rect.c ****     area_outer.y2 += dsc->outline_width;
1141:Drivers/lvgl/src/draw/sw/lv_draw_sw_rect.c **** 
1142:Drivers/lvgl/src/draw/sw/lv_draw_sw_rect.c **** 
1143:Drivers/lvgl/src/draw/sw/lv_draw_sw_rect.c ****     int32_t inner_w = lv_area_get_width(&area_inner);
1144:Drivers/lvgl/src/draw/sw/lv_draw_sw_rect.c ****     int32_t inner_h = lv_area_get_height(&area_inner);
1145:Drivers/lvgl/src/draw/sw/lv_draw_sw_rect.c ****     int32_t rin = dsc->radius;
1146:Drivers/lvgl/src/draw/sw/lv_draw_sw_rect.c ****     int32_t short_side = LV_MIN(inner_w, inner_h);
1147:Drivers/lvgl/src/draw/sw/lv_draw_sw_rect.c ****     if(rin > short_side >> 1) rin = short_side >> 1;
1148:Drivers/lvgl/src/draw/sw/lv_draw_sw_rect.c **** 
1149:Drivers/lvgl/src/draw/sw/lv_draw_sw_rect.c ****     lv_coord_t rout = rin + dsc->outline_width;
1150:Drivers/lvgl/src/draw/sw/lv_draw_sw_rect.c **** 
1151:Drivers/lvgl/src/draw/sw/lv_draw_sw_rect.c ****     draw_border_generic(draw_ctx, &area_outer, &area_inner, rout, rin, dsc->outline_color, dsc->out
1152:Drivers/lvgl/src/draw/sw/lv_draw_sw_rect.c ****                         dsc->blend_mode);
1153:Drivers/lvgl/src/draw/sw/lv_draw_sw_rect.c **** }
1154:Drivers/lvgl/src/draw/sw/lv_draw_sw_rect.c **** 
1155:Drivers/lvgl/src/draw/sw/lv_draw_sw_rect.c **** void draw_border_generic(lv_draw_ctx_t * draw_ctx, const lv_area_t * outer_area, const lv_area_t * 
1156:Drivers/lvgl/src/draw/sw/lv_draw_sw_rect.c ****                          lv_coord_t rout, lv_coord_t rin, lv_color_t color, lv_opa_t opa, lv_blend_
1157:Drivers/lvgl/src/draw/sw/lv_draw_sw_rect.c **** {
1158:Drivers/lvgl/src/draw/sw/lv_draw_sw_rect.c ****     opa = opa >= LV_OPA_COVER ? LV_OPA_COVER : opa;
1159:Drivers/lvgl/src/draw/sw/lv_draw_sw_rect.c **** 
1160:Drivers/lvgl/src/draw/sw/lv_draw_sw_rect.c ****     bool mask_any = lv_draw_mask_is_any(outer_area);
1161:Drivers/lvgl/src/draw/sw/lv_draw_sw_rect.c **** 
1162:Drivers/lvgl/src/draw/sw/lv_draw_sw_rect.c **** #if LV_DRAW_COMPLEX
1163:Drivers/lvgl/src/draw/sw/lv_draw_sw_rect.c **** 
1164:Drivers/lvgl/src/draw/sw/lv_draw_sw_rect.c ****     if(!mask_any && rout == 0 && rin == 0) {
1165:Drivers/lvgl/src/draw/sw/lv_draw_sw_rect.c ****         draw_border_simple(draw_ctx, outer_area, inner_area, color, opa);
1166:Drivers/lvgl/src/draw/sw/lv_draw_sw_rect.c ****         return;
1167:Drivers/lvgl/src/draw/sw/lv_draw_sw_rect.c ****     }
1168:Drivers/lvgl/src/draw/sw/lv_draw_sw_rect.c **** 
1169:Drivers/lvgl/src/draw/sw/lv_draw_sw_rect.c ****     /*Get clipped draw area which is the real draw area.
1170:Drivers/lvgl/src/draw/sw/lv_draw_sw_rect.c ****      *It is always the same or inside `coords`*/
ARM GAS  /var/folders/0z/tsy30v1j4xl4_7kw94k978ww0000gn/T//cc0noGMx.s 			page 22


1171:Drivers/lvgl/src/draw/sw/lv_draw_sw_rect.c ****     lv_area_t draw_area;
1172:Drivers/lvgl/src/draw/sw/lv_draw_sw_rect.c ****     if(!_lv_area_intersect(&draw_area, outer_area, draw_ctx->clip_area)) return;
1173:Drivers/lvgl/src/draw/sw/lv_draw_sw_rect.c ****     int32_t draw_area_w = lv_area_get_width(&draw_area);
1174:Drivers/lvgl/src/draw/sw/lv_draw_sw_rect.c **** 
1175:Drivers/lvgl/src/draw/sw/lv_draw_sw_rect.c ****     lv_draw_sw_blend_dsc_t blend_dsc;
1176:Drivers/lvgl/src/draw/sw/lv_draw_sw_rect.c ****     lv_memset_00(&blend_dsc, sizeof(blend_dsc));
1177:Drivers/lvgl/src/draw/sw/lv_draw_sw_rect.c ****     blend_dsc.mask_buf = lv_mem_buf_get(draw_area_w);;
1178:Drivers/lvgl/src/draw/sw/lv_draw_sw_rect.c **** 
1179:Drivers/lvgl/src/draw/sw/lv_draw_sw_rect.c **** 
1180:Drivers/lvgl/src/draw/sw/lv_draw_sw_rect.c ****     /*Create mask for the outer area*/
1181:Drivers/lvgl/src/draw/sw/lv_draw_sw_rect.c ****     int16_t mask_rout_id = LV_MASK_ID_INV;
1182:Drivers/lvgl/src/draw/sw/lv_draw_sw_rect.c ****     lv_draw_mask_radius_param_t mask_rout_param;
1183:Drivers/lvgl/src/draw/sw/lv_draw_sw_rect.c ****     if(rout > 0) {
1184:Drivers/lvgl/src/draw/sw/lv_draw_sw_rect.c ****         lv_draw_mask_radius_init(&mask_rout_param, outer_area, rout, false);
1185:Drivers/lvgl/src/draw/sw/lv_draw_sw_rect.c ****         mask_rout_id = lv_draw_mask_add(&mask_rout_param, NULL);
1186:Drivers/lvgl/src/draw/sw/lv_draw_sw_rect.c ****     }
1187:Drivers/lvgl/src/draw/sw/lv_draw_sw_rect.c **** 
1188:Drivers/lvgl/src/draw/sw/lv_draw_sw_rect.c ****     /*Create mask for the inner mask*/
1189:Drivers/lvgl/src/draw/sw/lv_draw_sw_rect.c ****     lv_draw_mask_radius_param_t mask_rin_param;
1190:Drivers/lvgl/src/draw/sw/lv_draw_sw_rect.c ****     lv_draw_mask_radius_init(&mask_rin_param, inner_area, rin, true);
1191:Drivers/lvgl/src/draw/sw/lv_draw_sw_rect.c ****     int16_t mask_rin_id = lv_draw_mask_add(&mask_rin_param, NULL);
1192:Drivers/lvgl/src/draw/sw/lv_draw_sw_rect.c **** 
1193:Drivers/lvgl/src/draw/sw/lv_draw_sw_rect.c ****     int32_t h;
1194:Drivers/lvgl/src/draw/sw/lv_draw_sw_rect.c ****     lv_area_t blend_area;
1195:Drivers/lvgl/src/draw/sw/lv_draw_sw_rect.c ****     blend_dsc.blend_area = &blend_area;
1196:Drivers/lvgl/src/draw/sw/lv_draw_sw_rect.c ****     blend_dsc.mask_area = &blend_area;
1197:Drivers/lvgl/src/draw/sw/lv_draw_sw_rect.c ****     blend_dsc.color = color;
1198:Drivers/lvgl/src/draw/sw/lv_draw_sw_rect.c ****     blend_dsc.opa = opa;
1199:Drivers/lvgl/src/draw/sw/lv_draw_sw_rect.c ****     blend_dsc.blend_mode = blend_mode;
1200:Drivers/lvgl/src/draw/sw/lv_draw_sw_rect.c **** 
1201:Drivers/lvgl/src/draw/sw/lv_draw_sw_rect.c ****     /*Calculate the x and y coordinates where the straight parts area*/
1202:Drivers/lvgl/src/draw/sw/lv_draw_sw_rect.c ****     lv_area_t core_area;
1203:Drivers/lvgl/src/draw/sw/lv_draw_sw_rect.c ****     core_area.x1 = LV_MAX(outer_area->x1 + rout, inner_area->x1);
1204:Drivers/lvgl/src/draw/sw/lv_draw_sw_rect.c ****     core_area.x2 = LV_MIN(outer_area->x2 - rout, inner_area->x2);
1205:Drivers/lvgl/src/draw/sw/lv_draw_sw_rect.c ****     core_area.y1 = LV_MAX(outer_area->y1 + rout, inner_area->y1);
1206:Drivers/lvgl/src/draw/sw/lv_draw_sw_rect.c ****     core_area.y2 = LV_MIN(outer_area->y2 - rout, inner_area->y2);
1207:Drivers/lvgl/src/draw/sw/lv_draw_sw_rect.c ****     lv_coord_t core_w = lv_area_get_width(&core_area);
1208:Drivers/lvgl/src/draw/sw/lv_draw_sw_rect.c **** 
1209:Drivers/lvgl/src/draw/sw/lv_draw_sw_rect.c ****     bool top_side = outer_area->y1 <= inner_area->y1 ? true : false;
1210:Drivers/lvgl/src/draw/sw/lv_draw_sw_rect.c ****     bool bottom_side = outer_area->y2 >= inner_area->y2 ? true : false;
1211:Drivers/lvgl/src/draw/sw/lv_draw_sw_rect.c **** 
1212:Drivers/lvgl/src/draw/sw/lv_draw_sw_rect.c ****     /*If there is other masks, need to draw line by line*/
1213:Drivers/lvgl/src/draw/sw/lv_draw_sw_rect.c ****     if(mask_any) {
1214:Drivers/lvgl/src/draw/sw/lv_draw_sw_rect.c ****         blend_area.x1 = draw_area.x1;
1215:Drivers/lvgl/src/draw/sw/lv_draw_sw_rect.c ****         blend_area.x2 = draw_area.x2;
1216:Drivers/lvgl/src/draw/sw/lv_draw_sw_rect.c ****         for(h = draw_area.y1; h <= draw_area.y2; h++) {
1217:Drivers/lvgl/src/draw/sw/lv_draw_sw_rect.c ****             if(!top_side && h < core_area.y1) continue;
1218:Drivers/lvgl/src/draw/sw/lv_draw_sw_rect.c ****             if(!bottom_side && h > core_area.y2) break;
1219:Drivers/lvgl/src/draw/sw/lv_draw_sw_rect.c **** 
1220:Drivers/lvgl/src/draw/sw/lv_draw_sw_rect.c ****             blend_area.y1 = h;
1221:Drivers/lvgl/src/draw/sw/lv_draw_sw_rect.c ****             blend_area.y2 = h;
1222:Drivers/lvgl/src/draw/sw/lv_draw_sw_rect.c **** 
1223:Drivers/lvgl/src/draw/sw/lv_draw_sw_rect.c ****             lv_memset_ff(blend_dsc.mask_buf, draw_area_w);
1224:Drivers/lvgl/src/draw/sw/lv_draw_sw_rect.c ****             blend_dsc.mask_res = lv_draw_mask_apply(blend_dsc.mask_buf, draw_area.x1, h, draw_area_
1225:Drivers/lvgl/src/draw/sw/lv_draw_sw_rect.c ****             lv_draw_sw_blend(draw_ctx, &blend_dsc);
1226:Drivers/lvgl/src/draw/sw/lv_draw_sw_rect.c ****         }
1227:Drivers/lvgl/src/draw/sw/lv_draw_sw_rect.c **** 
ARM GAS  /var/folders/0z/tsy30v1j4xl4_7kw94k978ww0000gn/T//cc0noGMx.s 			page 23


1228:Drivers/lvgl/src/draw/sw/lv_draw_sw_rect.c ****         lv_draw_mask_free_param(&mask_rin_param);
1229:Drivers/lvgl/src/draw/sw/lv_draw_sw_rect.c ****         lv_draw_mask_remove_id(mask_rin_id);
1230:Drivers/lvgl/src/draw/sw/lv_draw_sw_rect.c ****         if(mask_rout_id != LV_MASK_ID_INV) {
1231:Drivers/lvgl/src/draw/sw/lv_draw_sw_rect.c ****             lv_draw_mask_free_param(&mask_rout_param);
1232:Drivers/lvgl/src/draw/sw/lv_draw_sw_rect.c ****             lv_draw_mask_remove_id(mask_rout_id);
1233:Drivers/lvgl/src/draw/sw/lv_draw_sw_rect.c ****         }
1234:Drivers/lvgl/src/draw/sw/lv_draw_sw_rect.c ****         lv_mem_buf_release(blend_dsc.mask_buf);
1235:Drivers/lvgl/src/draw/sw/lv_draw_sw_rect.c ****         return;
1236:Drivers/lvgl/src/draw/sw/lv_draw_sw_rect.c ****     }
1237:Drivers/lvgl/src/draw/sw/lv_draw_sw_rect.c **** 
1238:Drivers/lvgl/src/draw/sw/lv_draw_sw_rect.c ****     /*No masks*/
1239:Drivers/lvgl/src/draw/sw/lv_draw_sw_rect.c ****     bool left_side = outer_area->x1 <= inner_area->x1 ? true : false;
1240:Drivers/lvgl/src/draw/sw/lv_draw_sw_rect.c ****     bool right_side = outer_area->x2 >= inner_area->x2 ? true : false;
1241:Drivers/lvgl/src/draw/sw/lv_draw_sw_rect.c **** 
1242:Drivers/lvgl/src/draw/sw/lv_draw_sw_rect.c ****     bool split_hor = true;
1243:Drivers/lvgl/src/draw/sw/lv_draw_sw_rect.c ****     if(left_side && right_side && top_side && bottom_side &&
1244:Drivers/lvgl/src/draw/sw/lv_draw_sw_rect.c ****        core_w < SPLIT_LIMIT) {
1245:Drivers/lvgl/src/draw/sw/lv_draw_sw_rect.c ****         split_hor = false;
1246:Drivers/lvgl/src/draw/sw/lv_draw_sw_rect.c ****     }
1247:Drivers/lvgl/src/draw/sw/lv_draw_sw_rect.c **** 
1248:Drivers/lvgl/src/draw/sw/lv_draw_sw_rect.c ****     blend_dsc.mask_res = LV_DRAW_MASK_RES_FULL_COVER;
1249:Drivers/lvgl/src/draw/sw/lv_draw_sw_rect.c ****     /*Draw the straight lines first if they are long enough*/
1250:Drivers/lvgl/src/draw/sw/lv_draw_sw_rect.c ****     if(top_side && split_hor) {
1251:Drivers/lvgl/src/draw/sw/lv_draw_sw_rect.c ****         blend_area.x1 = core_area.x1;
1252:Drivers/lvgl/src/draw/sw/lv_draw_sw_rect.c ****         blend_area.x2 = core_area.x2;
1253:Drivers/lvgl/src/draw/sw/lv_draw_sw_rect.c ****         blend_area.y1 = outer_area->y1;
1254:Drivers/lvgl/src/draw/sw/lv_draw_sw_rect.c ****         blend_area.y2 = inner_area->y1 - 1;
1255:Drivers/lvgl/src/draw/sw/lv_draw_sw_rect.c ****         lv_draw_sw_blend(draw_ctx, &blend_dsc);
1256:Drivers/lvgl/src/draw/sw/lv_draw_sw_rect.c ****     }
1257:Drivers/lvgl/src/draw/sw/lv_draw_sw_rect.c **** 
1258:Drivers/lvgl/src/draw/sw/lv_draw_sw_rect.c ****     if(bottom_side && split_hor) {
1259:Drivers/lvgl/src/draw/sw/lv_draw_sw_rect.c ****         blend_area.x1 = core_area.x1;
1260:Drivers/lvgl/src/draw/sw/lv_draw_sw_rect.c ****         blend_area.x2 = core_area.x2;
1261:Drivers/lvgl/src/draw/sw/lv_draw_sw_rect.c ****         blend_area.y1 = inner_area->y2 + 1;
1262:Drivers/lvgl/src/draw/sw/lv_draw_sw_rect.c ****         blend_area.y2 = outer_area->y2;
1263:Drivers/lvgl/src/draw/sw/lv_draw_sw_rect.c ****         lv_draw_sw_blend(draw_ctx, &blend_dsc);
1264:Drivers/lvgl/src/draw/sw/lv_draw_sw_rect.c ****     }
1265:Drivers/lvgl/src/draw/sw/lv_draw_sw_rect.c **** 
1266:Drivers/lvgl/src/draw/sw/lv_draw_sw_rect.c ****     if(left_side) {
1267:Drivers/lvgl/src/draw/sw/lv_draw_sw_rect.c ****         blend_area.x1 = outer_area->x1;
1268:Drivers/lvgl/src/draw/sw/lv_draw_sw_rect.c ****         blend_area.x2 = inner_area->x1 - 1;
1269:Drivers/lvgl/src/draw/sw/lv_draw_sw_rect.c ****         blend_area.y1 = core_area.y1;
1270:Drivers/lvgl/src/draw/sw/lv_draw_sw_rect.c ****         blend_area.y2 = core_area.y2;
1271:Drivers/lvgl/src/draw/sw/lv_draw_sw_rect.c ****         lv_draw_sw_blend(draw_ctx, &blend_dsc);
1272:Drivers/lvgl/src/draw/sw/lv_draw_sw_rect.c ****     }
1273:Drivers/lvgl/src/draw/sw/lv_draw_sw_rect.c **** 
1274:Drivers/lvgl/src/draw/sw/lv_draw_sw_rect.c ****     if(right_side) {
1275:Drivers/lvgl/src/draw/sw/lv_draw_sw_rect.c ****         blend_area.x1 = inner_area->x2 + 1;
1276:Drivers/lvgl/src/draw/sw/lv_draw_sw_rect.c ****         blend_area.x2 = outer_area->x2;
1277:Drivers/lvgl/src/draw/sw/lv_draw_sw_rect.c ****         blend_area.y1 = core_area.y1;
1278:Drivers/lvgl/src/draw/sw/lv_draw_sw_rect.c ****         blend_area.y2 = core_area.y2;
1279:Drivers/lvgl/src/draw/sw/lv_draw_sw_rect.c ****         lv_draw_sw_blend(draw_ctx, &blend_dsc);
1280:Drivers/lvgl/src/draw/sw/lv_draw_sw_rect.c ****     }
1281:Drivers/lvgl/src/draw/sw/lv_draw_sw_rect.c **** 
1282:Drivers/lvgl/src/draw/sw/lv_draw_sw_rect.c ****     /*Draw the corners*/
1283:Drivers/lvgl/src/draw/sw/lv_draw_sw_rect.c ****     lv_coord_t blend_w;
1284:Drivers/lvgl/src/draw/sw/lv_draw_sw_rect.c **** 
ARM GAS  /var/folders/0z/tsy30v1j4xl4_7kw94k978ww0000gn/T//cc0noGMx.s 			page 24


1285:Drivers/lvgl/src/draw/sw/lv_draw_sw_rect.c ****     /*Left and right corner together if they are close to each other*/
1286:Drivers/lvgl/src/draw/sw/lv_draw_sw_rect.c ****     if(!split_hor) {
1287:Drivers/lvgl/src/draw/sw/lv_draw_sw_rect.c ****         /*Calculate the top corner and mirror it to the bottom*/
1288:Drivers/lvgl/src/draw/sw/lv_draw_sw_rect.c ****         blend_area.x1 = draw_area.x1;
1289:Drivers/lvgl/src/draw/sw/lv_draw_sw_rect.c ****         blend_area.x2 = draw_area.x2;
1290:Drivers/lvgl/src/draw/sw/lv_draw_sw_rect.c ****         lv_coord_t max_h = LV_MAX(rout, inner_area->y1 - outer_area->y1);
1291:Drivers/lvgl/src/draw/sw/lv_draw_sw_rect.c ****         for(h = 0; h < max_h; h++) {
1292:Drivers/lvgl/src/draw/sw/lv_draw_sw_rect.c ****             lv_coord_t top_y = outer_area->y1 + h;
1293:Drivers/lvgl/src/draw/sw/lv_draw_sw_rect.c ****             lv_coord_t bottom_y = outer_area->y2 - h;
1294:Drivers/lvgl/src/draw/sw/lv_draw_sw_rect.c ****             if(top_y < draw_area.y1 && bottom_y > draw_area.y2) continue;   /*This line is clipped 
1295:Drivers/lvgl/src/draw/sw/lv_draw_sw_rect.c **** 
1296:Drivers/lvgl/src/draw/sw/lv_draw_sw_rect.c ****             lv_memset_ff(blend_dsc.mask_buf, draw_area_w);
1297:Drivers/lvgl/src/draw/sw/lv_draw_sw_rect.c ****             blend_dsc.mask_res = lv_draw_mask_apply(blend_dsc.mask_buf, blend_area.x1, top_y, draw_
1298:Drivers/lvgl/src/draw/sw/lv_draw_sw_rect.c **** 
1299:Drivers/lvgl/src/draw/sw/lv_draw_sw_rect.c ****             if(top_y >= draw_area.y1) {
1300:Drivers/lvgl/src/draw/sw/lv_draw_sw_rect.c ****                 blend_area.y1 = top_y;
1301:Drivers/lvgl/src/draw/sw/lv_draw_sw_rect.c ****                 blend_area.y2 = top_y;
1302:Drivers/lvgl/src/draw/sw/lv_draw_sw_rect.c ****                 lv_draw_sw_blend(draw_ctx, &blend_dsc);
1303:Drivers/lvgl/src/draw/sw/lv_draw_sw_rect.c ****             }
1304:Drivers/lvgl/src/draw/sw/lv_draw_sw_rect.c **** 
1305:Drivers/lvgl/src/draw/sw/lv_draw_sw_rect.c ****             if(bottom_y <= draw_area.y2) {
1306:Drivers/lvgl/src/draw/sw/lv_draw_sw_rect.c ****                 blend_area.y1 = bottom_y;
1307:Drivers/lvgl/src/draw/sw/lv_draw_sw_rect.c ****                 blend_area.y2 = bottom_y;
1308:Drivers/lvgl/src/draw/sw/lv_draw_sw_rect.c ****                 lv_draw_sw_blend(draw_ctx, &blend_dsc);
1309:Drivers/lvgl/src/draw/sw/lv_draw_sw_rect.c ****             }
1310:Drivers/lvgl/src/draw/sw/lv_draw_sw_rect.c ****         }
1311:Drivers/lvgl/src/draw/sw/lv_draw_sw_rect.c ****     }
1312:Drivers/lvgl/src/draw/sw/lv_draw_sw_rect.c ****     else {
1313:Drivers/lvgl/src/draw/sw/lv_draw_sw_rect.c ****         /*Left corners*/
1314:Drivers/lvgl/src/draw/sw/lv_draw_sw_rect.c ****         blend_area.x1 = draw_area.x1;
1315:Drivers/lvgl/src/draw/sw/lv_draw_sw_rect.c ****         blend_area.x2 = LV_MIN(draw_area.x2, core_area.x1 - 1);
1316:Drivers/lvgl/src/draw/sw/lv_draw_sw_rect.c ****         blend_w = lv_area_get_width(&blend_area);
1317:Drivers/lvgl/src/draw/sw/lv_draw_sw_rect.c ****         if(blend_w > 0) {
1318:Drivers/lvgl/src/draw/sw/lv_draw_sw_rect.c ****             if(left_side || top_side) {
1319:Drivers/lvgl/src/draw/sw/lv_draw_sw_rect.c ****                 for(h = draw_area.y1; h < core_area.y1; h++) {
1320:Drivers/lvgl/src/draw/sw/lv_draw_sw_rect.c ****                     blend_area.y1 = h;
1321:Drivers/lvgl/src/draw/sw/lv_draw_sw_rect.c ****                     blend_area.y2 = h;
1322:Drivers/lvgl/src/draw/sw/lv_draw_sw_rect.c **** 
1323:Drivers/lvgl/src/draw/sw/lv_draw_sw_rect.c ****                     lv_memset_ff(blend_dsc.mask_buf, blend_w);
1324:Drivers/lvgl/src/draw/sw/lv_draw_sw_rect.c ****                     blend_dsc.mask_res = lv_draw_mask_apply(blend_dsc.mask_buf, blend_area.x1, h, b
1325:Drivers/lvgl/src/draw/sw/lv_draw_sw_rect.c ****                     lv_draw_sw_blend(draw_ctx, &blend_dsc);
1326:Drivers/lvgl/src/draw/sw/lv_draw_sw_rect.c ****                 }
1327:Drivers/lvgl/src/draw/sw/lv_draw_sw_rect.c ****             }
1328:Drivers/lvgl/src/draw/sw/lv_draw_sw_rect.c **** 
1329:Drivers/lvgl/src/draw/sw/lv_draw_sw_rect.c ****             if(left_side || bottom_side) {
1330:Drivers/lvgl/src/draw/sw/lv_draw_sw_rect.c ****                 for(h = core_area.y2 + 1; h <= draw_area.y2; h++) {
1331:Drivers/lvgl/src/draw/sw/lv_draw_sw_rect.c ****                     blend_area.y1 = h;
1332:Drivers/lvgl/src/draw/sw/lv_draw_sw_rect.c ****                     blend_area.y2 = h;
1333:Drivers/lvgl/src/draw/sw/lv_draw_sw_rect.c **** 
1334:Drivers/lvgl/src/draw/sw/lv_draw_sw_rect.c ****                     lv_memset_ff(blend_dsc.mask_buf, blend_w);
1335:Drivers/lvgl/src/draw/sw/lv_draw_sw_rect.c ****                     blend_dsc.mask_res = lv_draw_mask_apply(blend_dsc.mask_buf, blend_area.x1, h, b
1336:Drivers/lvgl/src/draw/sw/lv_draw_sw_rect.c ****                     lv_draw_sw_blend(draw_ctx, &blend_dsc);
1337:Drivers/lvgl/src/draw/sw/lv_draw_sw_rect.c ****                 }
1338:Drivers/lvgl/src/draw/sw/lv_draw_sw_rect.c ****             }
1339:Drivers/lvgl/src/draw/sw/lv_draw_sw_rect.c ****         }
1340:Drivers/lvgl/src/draw/sw/lv_draw_sw_rect.c **** 
1341:Drivers/lvgl/src/draw/sw/lv_draw_sw_rect.c ****         /*Right corners*/
ARM GAS  /var/folders/0z/tsy30v1j4xl4_7kw94k978ww0000gn/T//cc0noGMx.s 			page 25


1342:Drivers/lvgl/src/draw/sw/lv_draw_sw_rect.c ****         blend_area.x1 = LV_MAX(draw_area.x1, core_area.x2 + 1);
1343:Drivers/lvgl/src/draw/sw/lv_draw_sw_rect.c ****         blend_area.x2 = draw_area.x2;
1344:Drivers/lvgl/src/draw/sw/lv_draw_sw_rect.c ****         blend_w = lv_area_get_width(&blend_area);
1345:Drivers/lvgl/src/draw/sw/lv_draw_sw_rect.c **** 
1346:Drivers/lvgl/src/draw/sw/lv_draw_sw_rect.c ****         if(blend_w > 0) {
1347:Drivers/lvgl/src/draw/sw/lv_draw_sw_rect.c ****             if(right_side || top_side) {
1348:Drivers/lvgl/src/draw/sw/lv_draw_sw_rect.c ****                 for(h = draw_area.y1; h < core_area.y1; h++) {
1349:Drivers/lvgl/src/draw/sw/lv_draw_sw_rect.c ****                     blend_area.y1 = h;
1350:Drivers/lvgl/src/draw/sw/lv_draw_sw_rect.c ****                     blend_area.y2 = h;
1351:Drivers/lvgl/src/draw/sw/lv_draw_sw_rect.c **** 
1352:Drivers/lvgl/src/draw/sw/lv_draw_sw_rect.c ****                     lv_memset_ff(blend_dsc.mask_buf, blend_w);
1353:Drivers/lvgl/src/draw/sw/lv_draw_sw_rect.c ****                     blend_dsc.mask_res = lv_draw_mask_apply(blend_dsc.mask_buf, blend_area.x1, h, b
1354:Drivers/lvgl/src/draw/sw/lv_draw_sw_rect.c ****                     lv_draw_sw_blend(draw_ctx, &blend_dsc);
1355:Drivers/lvgl/src/draw/sw/lv_draw_sw_rect.c ****                 }
1356:Drivers/lvgl/src/draw/sw/lv_draw_sw_rect.c ****             }
1357:Drivers/lvgl/src/draw/sw/lv_draw_sw_rect.c **** 
1358:Drivers/lvgl/src/draw/sw/lv_draw_sw_rect.c ****             if(right_side || bottom_side) {
1359:Drivers/lvgl/src/draw/sw/lv_draw_sw_rect.c ****                 for(h = core_area.y2 + 1; h <= draw_area.y2; h++) {
1360:Drivers/lvgl/src/draw/sw/lv_draw_sw_rect.c ****                     blend_area.y1 = h;
1361:Drivers/lvgl/src/draw/sw/lv_draw_sw_rect.c ****                     blend_area.y2 = h;
1362:Drivers/lvgl/src/draw/sw/lv_draw_sw_rect.c **** 
1363:Drivers/lvgl/src/draw/sw/lv_draw_sw_rect.c ****                     lv_memset_ff(blend_dsc.mask_buf, blend_w);
1364:Drivers/lvgl/src/draw/sw/lv_draw_sw_rect.c ****                     blend_dsc.mask_res = lv_draw_mask_apply(blend_dsc.mask_buf, blend_area.x1, h, b
1365:Drivers/lvgl/src/draw/sw/lv_draw_sw_rect.c ****                     lv_draw_sw_blend(draw_ctx, &blend_dsc);
1366:Drivers/lvgl/src/draw/sw/lv_draw_sw_rect.c ****                 }
1367:Drivers/lvgl/src/draw/sw/lv_draw_sw_rect.c ****             }
1368:Drivers/lvgl/src/draw/sw/lv_draw_sw_rect.c ****         }
1369:Drivers/lvgl/src/draw/sw/lv_draw_sw_rect.c ****     }
1370:Drivers/lvgl/src/draw/sw/lv_draw_sw_rect.c **** 
1371:Drivers/lvgl/src/draw/sw/lv_draw_sw_rect.c ****     lv_draw_mask_free_param(&mask_rin_param);
1372:Drivers/lvgl/src/draw/sw/lv_draw_sw_rect.c ****     lv_draw_mask_remove_id(mask_rin_id);
1373:Drivers/lvgl/src/draw/sw/lv_draw_sw_rect.c ****     lv_draw_mask_free_param(&mask_rout_param);
1374:Drivers/lvgl/src/draw/sw/lv_draw_sw_rect.c ****     lv_draw_mask_remove_id(mask_rout_id);
1375:Drivers/lvgl/src/draw/sw/lv_draw_sw_rect.c ****     lv_mem_buf_release(blend_dsc.mask_buf);
1376:Drivers/lvgl/src/draw/sw/lv_draw_sw_rect.c **** 
1377:Drivers/lvgl/src/draw/sw/lv_draw_sw_rect.c **** #else /*LV_DRAW_COMPLEX*/
1378:Drivers/lvgl/src/draw/sw/lv_draw_sw_rect.c ****     LV_UNUSED(blend_mode);
1379:Drivers/lvgl/src/draw/sw/lv_draw_sw_rect.c ****     LV_UNUSED(rout);
1380:Drivers/lvgl/src/draw/sw/lv_draw_sw_rect.c ****     LV_UNUSED(rin);
1381:Drivers/lvgl/src/draw/sw/lv_draw_sw_rect.c ****     if(!mask_any) {
1382:Drivers/lvgl/src/draw/sw/lv_draw_sw_rect.c ****         draw_border_simple(draw_ctx, outer_area, inner_area, color, opa);
1383:Drivers/lvgl/src/draw/sw/lv_draw_sw_rect.c ****         return;
1384:Drivers/lvgl/src/draw/sw/lv_draw_sw_rect.c ****     }
1385:Drivers/lvgl/src/draw/sw/lv_draw_sw_rect.c **** 
1386:Drivers/lvgl/src/draw/sw/lv_draw_sw_rect.c **** #endif /*LV_DRAW_COMPLEX*/
1387:Drivers/lvgl/src/draw/sw/lv_draw_sw_rect.c **** }
1388:Drivers/lvgl/src/draw/sw/lv_draw_sw_rect.c **** static void draw_border_simple(lv_draw_ctx_t * draw_ctx, const lv_area_t * outer_area, const lv_are
1389:Drivers/lvgl/src/draw/sw/lv_draw_sw_rect.c ****                                lv_color_t color, lv_opa_t opa)
1390:Drivers/lvgl/src/draw/sw/lv_draw_sw_rect.c **** {
  29              		.loc 1 1390 1 view -0
  30              		.cfi_startproc
  31              		@ args = 4, pretend = 0, frame = 56
  32              		@ frame_needed = 0, uses_anonymous_args = 0
  33              		.loc 1 1390 1 is_stmt 0 view .LVU1
  34 0000 2DE9F04F 		push	{r4, r5, r6, r7, r8, r9, r10, fp, lr}
  35              		.cfi_def_cfa_offset 36
  36              		.cfi_offset 4, -36
ARM GAS  /var/folders/0z/tsy30v1j4xl4_7kw94k978ww0000gn/T//cc0noGMx.s 			page 26


  37              		.cfi_offset 5, -32
  38              		.cfi_offset 6, -28
  39              		.cfi_offset 7, -24
  40              		.cfi_offset 8, -20
  41              		.cfi_offset 9, -16
  42              		.cfi_offset 10, -12
  43              		.cfi_offset 11, -8
  44              		.cfi_offset 14, -4
  45 0004 8FB0     		sub	sp, sp, #60
  46              		.cfi_def_cfa_offset 96
  47 0006 0190     		str	r0, [sp, #4]
  48 0008 0D46     		mov	r5, r1
  49 000a 1446     		mov	r4, r2
  50 000c 1E46     		mov	r6, r3	@ movhi
  51              	.LVL1:
1391:Drivers/lvgl/src/draw/sw/lv_draw_sw_rect.c ****     lv_area_t a;
  52              		.loc 1 1391 5 is_stmt 1 view .LVU2
1392:Drivers/lvgl/src/draw/sw/lv_draw_sw_rect.c ****     lv_draw_sw_blend_dsc_t blend_dsc;
  53              		.loc 1 1392 5 view .LVU3
1393:Drivers/lvgl/src/draw/sw/lv_draw_sw_rect.c ****     lv_memset_00(&blend_dsc, sizeof(lv_draw_sw_blend_dsc_t));
  54              		.loc 1 1393 5 view .LVU4
  55 000e 1C21     		movs	r1, #28
  56              	.LVL2:
  57              		.loc 1 1393 5 is_stmt 0 view .LVU5
  58 0010 05A8     		add	r0, sp, #20
  59              	.LVL3:
  60              		.loc 1 1393 5 view .LVU6
  61 0012 FFF7FEFF 		bl	lv_memset_00
  62              	.LVL4:
1394:Drivers/lvgl/src/draw/sw/lv_draw_sw_rect.c ****     blend_dsc.blend_area = &a;
  63              		.loc 1 1394 5 is_stmt 1 view .LVU7
  64              		.loc 1 1394 26 is_stmt 0 view .LVU8
  65 0016 0CAB     		add	r3, sp, #48
  66 0018 0593     		str	r3, [sp, #20]
1395:Drivers/lvgl/src/draw/sw/lv_draw_sw_rect.c ****     blend_dsc.color = color;
  67              		.loc 1 1395 5 is_stmt 1 view .LVU9
  68              	.LVL5:
  69              		.loc 1 1395 21 is_stmt 0 view .LVU10
  70 001a ADF81C60 		strh	r6, [sp, #28]	@ movhi
1396:Drivers/lvgl/src/draw/sw/lv_draw_sw_rect.c ****     blend_dsc.opa = opa;
  71              		.loc 1 1396 5 is_stmt 1 view .LVU11
  72              		.loc 1 1396 19 is_stmt 0 view .LVU12
  73 001e 9DF86030 		ldrb	r3, [sp, #96]	@ zero_extendqisi2
  74 0022 8DF82C30 		strb	r3, [sp, #44]
1397:Drivers/lvgl/src/draw/sw/lv_draw_sw_rect.c **** 
1398:Drivers/lvgl/src/draw/sw/lv_draw_sw_rect.c ****     bool top_side = outer_area->y1 <= inner_area->y1 ? true : false;
  75              		.loc 1 1398 5 is_stmt 1 view .LVU13
  76              		.loc 1 1398 31 is_stmt 0 view .LVU14
  77 0026 B5F90260 		ldrsh	r6, [r5, #2]
  78              	.LVL6:
  79              		.loc 1 1398 49 view .LVU15
  80 002a B4F902B0 		ldrsh	fp, [r4, #2]
  81              	.LVL7:
1399:Drivers/lvgl/src/draw/sw/lv_draw_sw_rect.c ****     bool bottom_side = outer_area->y2 >= inner_area->y2 ? true : false;
  82              		.loc 1 1399 5 is_stmt 1 view .LVU16
  83              		.loc 1 1399 34 is_stmt 0 view .LVU17
  84 002e B5F906A0 		ldrsh	r10, [r5, #6]
ARM GAS  /var/folders/0z/tsy30v1j4xl4_7kw94k978ww0000gn/T//cc0noGMx.s 			page 27


  85              		.loc 1 1399 52 view .LVU18
  86 0032 B4F90690 		ldrsh	r9, [r4, #6]
  87              	.LVL8:
1400:Drivers/lvgl/src/draw/sw/lv_draw_sw_rect.c ****     bool left_side = outer_area->x1 <= inner_area->x1 ? true : false;
  88              		.loc 1 1400 5 is_stmt 1 view .LVU19
  89              		.loc 1 1400 32 is_stmt 0 view .LVU20
  90 0036 B5F90080 		ldrsh	r8, [r5]
  91              		.loc 1 1400 50 view .LVU21
  92 003a B4F90030 		ldrsh	r3, [r4]
  93 003e 0293     		str	r3, [sp, #8]
  94              	.LVL9:
1401:Drivers/lvgl/src/draw/sw/lv_draw_sw_rect.c ****     bool right_side = outer_area->x2 >= inner_area->x2 ? true : false;
  95              		.loc 1 1401 5 is_stmt 1 view .LVU22
  96              		.loc 1 1401 33 is_stmt 0 view .LVU23
  97 0040 B5F90470 		ldrsh	r7, [r5, #4]
  98              		.loc 1 1401 51 view .LVU24
  99 0044 B4F90430 		ldrsh	r3, [r4, #4]
 100 0048 0393     		str	r3, [sp, #12]
 101              	.LVL10:
1402:Drivers/lvgl/src/draw/sw/lv_draw_sw_rect.c **** 
1403:Drivers/lvgl/src/draw/sw/lv_draw_sw_rect.c **** 
1404:Drivers/lvgl/src/draw/sw/lv_draw_sw_rect.c ****     /*Top*/
1405:Drivers/lvgl/src/draw/sw/lv_draw_sw_rect.c ****     a.x1 = outer_area->x1;
 102              		.loc 1 1405 5 is_stmt 1 view .LVU25
 103              		.loc 1 1405 10 is_stmt 0 view .LVU26
 104 004a ADF83080 		strh	r8, [sp, #48]	@ movhi
1406:Drivers/lvgl/src/draw/sw/lv_draw_sw_rect.c ****     a.x2 = outer_area->x2;
 105              		.loc 1 1406 5 is_stmt 1 view .LVU27
 106              		.loc 1 1406 10 is_stmt 0 view .LVU28
 107 004e ADF83470 		strh	r7, [sp, #52]	@ movhi
1407:Drivers/lvgl/src/draw/sw/lv_draw_sw_rect.c ****     a.y1 = outer_area->y1;
 108              		.loc 1 1407 5 is_stmt 1 view .LVU29
 109              		.loc 1 1407 10 is_stmt 0 view .LVU30
 110 0052 ADF83260 		strh	r6, [sp, #50]	@ movhi
1408:Drivers/lvgl/src/draw/sw/lv_draw_sw_rect.c ****     a.y2 = inner_area->y1 - 1;
 111              		.loc 1 1408 5 is_stmt 1 view .LVU31
 112              		.loc 1 1408 22 is_stmt 0 view .LVU32
 113 0056 6388     		ldrh	r3, [r4, #2]
 114              		.loc 1 1408 27 view .LVU33
 115 0058 013B     		subs	r3, r3, #1
 116              		.loc 1 1408 10 view .LVU34
 117 005a ADF83630 		strh	r3, [sp, #54]	@ movhi
1409:Drivers/lvgl/src/draw/sw/lv_draw_sw_rect.c ****     if(top_side) {
 118              		.loc 1 1409 5 is_stmt 1 view .LVU35
 119              		.loc 1 1409 7 is_stmt 0 view .LVU36
 120 005e 5E45     		cmp	r6, fp
 121 0060 2EDD     		ble	.L11
 122              	.L2:
1410:Drivers/lvgl/src/draw/sw/lv_draw_sw_rect.c ****         lv_draw_sw_blend(draw_ctx, &blend_dsc);
1411:Drivers/lvgl/src/draw/sw/lv_draw_sw_rect.c ****     }
1412:Drivers/lvgl/src/draw/sw/lv_draw_sw_rect.c **** 
1413:Drivers/lvgl/src/draw/sw/lv_draw_sw_rect.c ****     /*Bottom*/
1414:Drivers/lvgl/src/draw/sw/lv_draw_sw_rect.c ****     a.y1 = inner_area->y2 + 1;
 123              		.loc 1 1414 5 is_stmt 1 view .LVU37
 124              		.loc 1 1414 22 is_stmt 0 view .LVU38
 125 0062 E388     		ldrh	r3, [r4, #6]
 126              		.loc 1 1414 27 view .LVU39
ARM GAS  /var/folders/0z/tsy30v1j4xl4_7kw94k978ww0000gn/T//cc0noGMx.s 			page 28


 127 0064 0133     		adds	r3, r3, #1
 128              		.loc 1 1414 10 view .LVU40
 129 0066 ADF83230 		strh	r3, [sp, #50]	@ movhi
1415:Drivers/lvgl/src/draw/sw/lv_draw_sw_rect.c ****     a.y2 = outer_area->y2;
 130              		.loc 1 1415 5 is_stmt 1 view .LVU41
 131              		.loc 1 1415 22 is_stmt 0 view .LVU42
 132 006a B5F90630 		ldrsh	r3, [r5, #6]
 133              		.loc 1 1415 10 view .LVU43
 134 006e ADF83630 		strh	r3, [sp, #54]	@ movhi
1416:Drivers/lvgl/src/draw/sw/lv_draw_sw_rect.c ****     if(bottom_side) {
 135              		.loc 1 1416 5 is_stmt 1 view .LVU44
 136              		.loc 1 1416 7 is_stmt 0 view .LVU45
 137 0072 CA45     		cmp	r10, r9
 138 0074 29DA     		bge	.L12
 139              	.L3:
1417:Drivers/lvgl/src/draw/sw/lv_draw_sw_rect.c ****         lv_draw_sw_blend(draw_ctx, &blend_dsc);
1418:Drivers/lvgl/src/draw/sw/lv_draw_sw_rect.c ****     }
1419:Drivers/lvgl/src/draw/sw/lv_draw_sw_rect.c **** 
1420:Drivers/lvgl/src/draw/sw/lv_draw_sw_rect.c ****     /*Left*/
1421:Drivers/lvgl/src/draw/sw/lv_draw_sw_rect.c ****     a.x1 = outer_area->x1;
 140              		.loc 1 1421 5 is_stmt 1 view .LVU46
 141              		.loc 1 1421 22 is_stmt 0 view .LVU47
 142 0076 B5F90030 		ldrsh	r3, [r5]
 143              		.loc 1 1421 10 view .LVU48
 144 007a ADF83030 		strh	r3, [sp, #48]	@ movhi
1422:Drivers/lvgl/src/draw/sw/lv_draw_sw_rect.c ****     a.x2 = inner_area->x1 - 1;
 145              		.loc 1 1422 5 is_stmt 1 view .LVU49
 146              		.loc 1 1422 22 is_stmt 0 view .LVU50
 147 007e 2388     		ldrh	r3, [r4]
 148              		.loc 1 1422 27 view .LVU51
 149 0080 013B     		subs	r3, r3, #1
 150              		.loc 1 1422 10 view .LVU52
 151 0082 ADF83430 		strh	r3, [sp, #52]	@ movhi
1423:Drivers/lvgl/src/draw/sw/lv_draw_sw_rect.c ****     a.y1 = (top_side) ? inner_area->y1 : outer_area->y1;
 152              		.loc 1 1423 5 is_stmt 1 view .LVU53
 153              		.loc 1 1423 10 is_stmt 0 view .LVU54
 154 0086 5E45     		cmp	r6, fp
 155 0088 24DC     		bgt	.L4
 156              		.loc 1 1423 10 discriminator 1 view .LVU55
 157 008a B4F90230 		ldrsh	r3, [r4, #2]
 158              	.L5:
 159              		.loc 1 1423 10 discriminator 4 view .LVU56
 160 008e ADF83230 		strh	r3, [sp, #50]	@ movhi
1424:Drivers/lvgl/src/draw/sw/lv_draw_sw_rect.c ****     a.y2 = (bottom_side) ? inner_area->y2 : outer_area->y2;
 161              		.loc 1 1424 5 is_stmt 1 discriminator 4 view .LVU57
 162              		.loc 1 1424 10 is_stmt 0 discriminator 4 view .LVU58
 163 0092 CA45     		cmp	r10, r9
 164 0094 21DB     		blt	.L6
 165              		.loc 1 1424 10 discriminator 1 view .LVU59
 166 0096 B4F90630 		ldrsh	r3, [r4, #6]
 167              	.L7:
 168              		.loc 1 1424 10 discriminator 4 view .LVU60
 169 009a ADF83630 		strh	r3, [sp, #54]	@ movhi
1425:Drivers/lvgl/src/draw/sw/lv_draw_sw_rect.c ****     if(left_side) {
 170              		.loc 1 1425 5 is_stmt 1 discriminator 4 view .LVU61
 171              		.loc 1 1425 7 is_stmt 0 discriminator 4 view .LVU62
 172 009e 029B     		ldr	r3, [sp, #8]
ARM GAS  /var/folders/0z/tsy30v1j4xl4_7kw94k978ww0000gn/T//cc0noGMx.s 			page 29


 173 00a0 9845     		cmp	r8, r3
 174 00a2 1DDD     		ble	.L13
 175              	.L8:
1426:Drivers/lvgl/src/draw/sw/lv_draw_sw_rect.c ****         lv_draw_sw_blend(draw_ctx, &blend_dsc);
1427:Drivers/lvgl/src/draw/sw/lv_draw_sw_rect.c ****     }
1428:Drivers/lvgl/src/draw/sw/lv_draw_sw_rect.c **** 
1429:Drivers/lvgl/src/draw/sw/lv_draw_sw_rect.c ****     /*Right*/
1430:Drivers/lvgl/src/draw/sw/lv_draw_sw_rect.c ****     a.x1 = inner_area->x2 + 1;
 176              		.loc 1 1430 5 is_stmt 1 view .LVU63
 177              		.loc 1 1430 22 is_stmt 0 view .LVU64
 178 00a4 A388     		ldrh	r3, [r4, #4]
 179              		.loc 1 1430 27 view .LVU65
 180 00a6 0133     		adds	r3, r3, #1
 181              		.loc 1 1430 10 view .LVU66
 182 00a8 ADF83030 		strh	r3, [sp, #48]	@ movhi
1431:Drivers/lvgl/src/draw/sw/lv_draw_sw_rect.c ****     a.x2 = outer_area->x2;
 183              		.loc 1 1431 5 is_stmt 1 view .LVU67
 184              		.loc 1 1431 22 is_stmt 0 view .LVU68
 185 00ac B5F90430 		ldrsh	r3, [r5, #4]
 186              		.loc 1 1431 10 view .LVU69
 187 00b0 ADF83430 		strh	r3, [sp, #52]	@ movhi
1432:Drivers/lvgl/src/draw/sw/lv_draw_sw_rect.c ****     if(right_side) {
 188              		.loc 1 1432 5 is_stmt 1 view .LVU70
 189              		.loc 1 1432 7 is_stmt 0 view .LVU71
 190 00b4 039B     		ldr	r3, [sp, #12]
 191 00b6 9F42     		cmp	r7, r3
 192 00b8 17DA     		bge	.L14
 193              	.L1:
1433:Drivers/lvgl/src/draw/sw/lv_draw_sw_rect.c ****         lv_draw_sw_blend(draw_ctx, &blend_dsc);
1434:Drivers/lvgl/src/draw/sw/lv_draw_sw_rect.c ****     }
1435:Drivers/lvgl/src/draw/sw/lv_draw_sw_rect.c **** }
 194              		.loc 1 1435 1 view .LVU72
 195 00ba 0FB0     		add	sp, sp, #60
 196              		.cfi_remember_state
 197              		.cfi_def_cfa_offset 36
 198              		@ sp needed
 199 00bc BDE8F08F 		pop	{r4, r5, r6, r7, r8, r9, r10, fp, pc}
 200              	.LVL11:
 201              	.L11:
 202              		.cfi_restore_state
1410:Drivers/lvgl/src/draw/sw/lv_draw_sw_rect.c ****     }
 203              		.loc 1 1410 9 is_stmt 1 view .LVU73
 204 00c0 05A9     		add	r1, sp, #20
 205 00c2 0198     		ldr	r0, [sp, #4]
 206 00c4 FFF7FEFF 		bl	lv_draw_sw_blend
 207              	.LVL12:
 208 00c8 CBE7     		b	.L2
 209              	.L12:
1417:Drivers/lvgl/src/draw/sw/lv_draw_sw_rect.c ****     }
 210              		.loc 1 1417 9 view .LVU74
 211 00ca 05A9     		add	r1, sp, #20
 212 00cc 0198     		ldr	r0, [sp, #4]
 213 00ce FFF7FEFF 		bl	lv_draw_sw_blend
 214              	.LVL13:
 215 00d2 D0E7     		b	.L3
 216              	.L4:
1423:Drivers/lvgl/src/draw/sw/lv_draw_sw_rect.c ****     a.y2 = (bottom_side) ? inner_area->y2 : outer_area->y2;
ARM GAS  /var/folders/0z/tsy30v1j4xl4_7kw94k978ww0000gn/T//cc0noGMx.s 			page 30


 217              		.loc 1 1423 10 is_stmt 0 discriminator 2 view .LVU75
 218 00d4 B5F90230 		ldrsh	r3, [r5, #2]
 219 00d8 D9E7     		b	.L5
 220              	.L6:
1424:Drivers/lvgl/src/draw/sw/lv_draw_sw_rect.c ****     if(left_side) {
 221              		.loc 1 1424 10 discriminator 2 view .LVU76
 222 00da B5F90630 		ldrsh	r3, [r5, #6]
 223 00de DCE7     		b	.L7
 224              	.L13:
1426:Drivers/lvgl/src/draw/sw/lv_draw_sw_rect.c ****     }
 225              		.loc 1 1426 9 is_stmt 1 view .LVU77
 226 00e0 05A9     		add	r1, sp, #20
 227 00e2 0198     		ldr	r0, [sp, #4]
 228 00e4 FFF7FEFF 		bl	lv_draw_sw_blend
 229              	.LVL14:
 230 00e8 DCE7     		b	.L8
 231              	.L14:
1433:Drivers/lvgl/src/draw/sw/lv_draw_sw_rect.c ****     }
 232              		.loc 1 1433 9 view .LVU78
 233 00ea 05A9     		add	r1, sp, #20
 234 00ec 0198     		ldr	r0, [sp, #4]
 235 00ee FFF7FEFF 		bl	lv_draw_sw_blend
 236              	.LVL15:
 237              		.loc 1 1435 1 is_stmt 0 view .LVU79
 238 00f2 E2E7     		b	.L1
 239              		.cfi_endproc
 240              	.LFE171:
 242              		.section	.text.shadow_blur_corner,"ax",%progbits
 243              		.align	1
 244              		.syntax unified
 245              		.thumb
 246              		.thumb_func
 248              	shadow_blur_corner:
 249              	.LVL16:
 250              	.LFB168:
1041:Drivers/lvgl/src/draw/sw/lv_draw_sw_rect.c ****     int32_t s_left = sw >> 1;
 251              		.loc 1 1041 1 is_stmt 1 view -0
 252              		.cfi_startproc
 253              		@ args = 0, pretend = 0, frame = 8
 254              		@ frame_needed = 0, uses_anonymous_args = 0
1041:Drivers/lvgl/src/draw/sw/lv_draw_sw_rect.c ****     int32_t s_left = sw >> 1;
 255              		.loc 1 1041 1 is_stmt 0 view .LVU81
 256 0000 2DE9F04F 		push	{r4, r5, r6, r7, r8, r9, r10, fp, lr}
 257              		.cfi_def_cfa_offset 36
 258              		.cfi_offset 4, -36
 259              		.cfi_offset 5, -32
 260              		.cfi_offset 6, -28
 261              		.cfi_offset 7, -24
 262              		.cfi_offset 8, -20
 263              		.cfi_offset 9, -16
 264              		.cfi_offset 10, -12
 265              		.cfi_offset 11, -8
 266              		.cfi_offset 14, -4
 267 0004 83B0     		sub	sp, sp, #12
 268              		.cfi_def_cfa_offset 48
 269 0006 0446     		mov	r4, r0
 270 0008 0191     		str	r1, [sp, #4]
ARM GAS  /var/folders/0z/tsy30v1j4xl4_7kw94k978ww0000gn/T//cc0noGMx.s 			page 31


 271 000a 1746     		mov	r7, r2
1042:Drivers/lvgl/src/draw/sw/lv_draw_sw_rect.c ****     int32_t s_right = (sw >> 1);
 272              		.loc 1 1042 5 is_stmt 1 view .LVU82
1042:Drivers/lvgl/src/draw/sw/lv_draw_sw_rect.c ****     int32_t s_right = (sw >> 1);
 273              		.loc 1 1042 25 is_stmt 0 view .LVU83
 274 000c 4FEA6108 		asr	r8, r1, #1
 275              	.LVL17:
1043:Drivers/lvgl/src/draw/sw/lv_draw_sw_rect.c ****     if((sw & 1) == 0) s_left--;
 276              		.loc 1 1043 5 is_stmt 1 view .LVU84
1044:Drivers/lvgl/src/draw/sw/lv_draw_sw_rect.c **** 
 277              		.loc 1 1044 5 view .LVU85
1044:Drivers/lvgl/src/draw/sw/lv_draw_sw_rect.c **** 
 278              		.loc 1 1044 7 is_stmt 0 view .LVU86
 279 0010 11F0010F 		tst	r1, #1
 280 0014 02D1     		bne	.L39
1044:Drivers/lvgl/src/draw/sw/lv_draw_sw_rect.c **** 
 281              		.loc 1 1044 23 is_stmt 1 discriminator 1 view .LVU87
1044:Drivers/lvgl/src/draw/sw/lv_draw_sw_rect.c **** 
 282              		.loc 1 1044 29 is_stmt 0 discriminator 1 view .LVU88
 283 0016 08F1FF39 		add	r9, r8, #-1
 284              	.LVL18:
1044:Drivers/lvgl/src/draw/sw/lv_draw_sw_rect.c **** 
 285              		.loc 1 1044 29 discriminator 1 view .LVU89
 286 001a 00E0     		b	.L16
 287              	.LVL19:
 288              	.L39:
1042:Drivers/lvgl/src/draw/sw/lv_draw_sw_rect.c ****     int32_t s_right = (sw >> 1);
 289              		.loc 1 1042 13 view .LVU90
 290 001c C146     		mov	r9, r8
 291              	.LVL20:
 292              	.L16:
1047:Drivers/lvgl/src/draw/sw/lv_draw_sw_rect.c **** 
 293              		.loc 1 1047 5 is_stmt 1 view .LVU91
1047:Drivers/lvgl/src/draw/sw/lv_draw_sw_rect.c **** 
 294              		.loc 1 1047 54 is_stmt 0 view .LVU92
 295 001e 6600     		lsls	r6, r4, #1
1047:Drivers/lvgl/src/draw/sw/lv_draw_sw_rect.c **** 
 296              		.loc 1 1047 34 view .LVU93
 297 0020 3046     		mov	r0, r6
 298              	.LVL21:
1047:Drivers/lvgl/src/draw/sw/lv_draw_sw_rect.c **** 
 299              		.loc 1 1047 34 view .LVU94
 300 0022 FFF7FEFF 		bl	lv_mem_buf_get
 301              	.LVL22:
1047:Drivers/lvgl/src/draw/sw/lv_draw_sw_rect.c **** 
 302              		.loc 1 1047 34 view .LVU95
 303 0026 0546     		mov	r5, r0
 304              	.LVL23:
1049:Drivers/lvgl/src/draw/sw/lv_draw_sw_rect.c ****     int32_t y;
 305              		.loc 1 1049 5 is_stmt 1 view .LVU96
1050:Drivers/lvgl/src/draw/sw/lv_draw_sw_rect.c **** 
 306              		.loc 1 1050 5 view .LVU97
1052:Drivers/lvgl/src/draw/sw/lv_draw_sw_rect.c **** 
 307              		.loc 1 1052 5 view .LVU98
1054:Drivers/lvgl/src/draw/sw/lv_draw_sw_rect.c ****         int32_t v = sh_ups_tmp_buf[size - 1] * sw;
 308              		.loc 1 1054 5 view .LVU99
1052:Drivers/lvgl/src/draw/sw/lv_draw_sw_rect.c **** 
ARM GAS  /var/folders/0z/tsy30v1j4xl4_7kw94k978ww0000gn/T//cc0noGMx.s 			page 32


 309              		.loc 1 1052 16 is_stmt 0 view .LVU100
 310 0028 BA46     		mov	r10, r7
1054:Drivers/lvgl/src/draw/sw/lv_draw_sw_rect.c ****         int32_t v = sh_ups_tmp_buf[size - 1] * sw;
 311              		.loc 1 1054 11 view .LVU101
 312 002a 4FF0000B 		mov	fp, #0
1054:Drivers/lvgl/src/draw/sw/lv_draw_sw_rect.c ****         int32_t v = sh_ups_tmp_buf[size - 1] * sw;
 313              		.loc 1 1054 5 view .LVU102
 314 002e 22E0     		b	.L17
 315              	.LVL24:
 316              	.L40:
 317              	.LBB112:
 318              	.LBB113:
1060:Drivers/lvgl/src/draw/sw/lv_draw_sw_rect.c ****             if(x + s_right < size) right_val = sh_ups_tmp_buf[x + s_right];
 319              		.loc 1 1060 22 view .LVU103
 320 0030 0021     		movs	r1, #0
 321              	.LVL25:
 322              	.L19:
1062:Drivers/lvgl/src/draw/sw/lv_draw_sw_rect.c **** 
 323              		.loc 1 1062 13 is_stmt 1 view .LVU104
1062:Drivers/lvgl/src/draw/sw/lv_draw_sw_rect.c **** 
 324              		.loc 1 1062 15 is_stmt 0 view .LVU105
 325 0032 521A     		subs	r2, r2, r1
 326              	.LVL26:
1065:Drivers/lvgl/src/draw/sw/lv_draw_sw_rect.c ****             if(x - s_left - 1 < 0) left_val = sh_ups_tmp_buf[0];
 327              		.loc 1 1065 13 is_stmt 1 view .LVU106
1066:Drivers/lvgl/src/draw/sw/lv_draw_sw_rect.c ****             else left_val = sh_ups_tmp_buf[x - s_left - 1];
 328              		.loc 1 1066 13 view .LVU107
1066:Drivers/lvgl/src/draw/sw/lv_draw_sw_rect.c ****             else left_val = sh_ups_tmp_buf[x - s_left - 1];
 329              		.loc 1 1066 18 is_stmt 0 view .LVU108
 330 0034 A3EB0901 		sub	r1, r3, r9
 331              	.LVL27:
1066:Drivers/lvgl/src/draw/sw/lv_draw_sw_rect.c ****             else left_val = sh_ups_tmp_buf[x - s_left - 1];
 332              		.loc 1 1066 15 view .LVU109
 333 0038 0029     		cmp	r1, #0
 334 003a 11DD     		ble	.L43
1067:Drivers/lvgl/src/draw/sw/lv_draw_sw_rect.c ****             v += left_val;
 335              		.loc 1 1067 18 is_stmt 1 view .LVU110
1067:Drivers/lvgl/src/draw/sw/lv_draw_sw_rect.c ****             v += left_val;
 336              		.loc 1 1067 43 is_stmt 0 view .LVU111
 337 003c 01F10041 		add	r1, r1, #-2147483648
 338 0040 0139     		subs	r1, r1, #1
 339 0042 3AF81110 		ldrh	r1, [r10, r1, lsl #1]
 340              	.LVL28:
 341              	.L21:
1068:Drivers/lvgl/src/draw/sw/lv_draw_sw_rect.c ****         }
 342              		.loc 1 1068 13 is_stmt 1 discriminator 2 view .LVU112
1068:Drivers/lvgl/src/draw/sw/lv_draw_sw_rect.c ****         }
 343              		.loc 1 1068 15 is_stmt 0 discriminator 2 view .LVU113
 344 0046 0A44     		add	r2, r2, r1
 345              	.LVL29:
1068:Drivers/lvgl/src/draw/sw/lv_draw_sw_rect.c ****         }
 346              		.loc 1 1068 15 discriminator 2 view .LVU114
 347              	.LBE113:
1056:Drivers/lvgl/src/draw/sw/lv_draw_sw_rect.c ****             sh_ups_blur_buf[x] = v;
 348              		.loc 1 1056 36 is_stmt 1 discriminator 2 view .LVU115
 349 0048 013B     		subs	r3, r3, #1
 350              	.LVL30:
ARM GAS  /var/folders/0z/tsy30v1j4xl4_7kw94k978ww0000gn/T//cc0noGMx.s 			page 33


 351              	.L18:
1056:Drivers/lvgl/src/draw/sw/lv_draw_sw_rect.c ****             sh_ups_blur_buf[x] = v;
 352              		.loc 1 1056 29 discriminator 1 view .LVU116
 353 004a 002B     		cmp	r3, #0
 354 004c 0BDB     		blt	.L44
 355              	.LBB114:
1057:Drivers/lvgl/src/draw/sw/lv_draw_sw_rect.c **** 
 356              		.loc 1 1057 13 view .LVU117
1057:Drivers/lvgl/src/draw/sw/lv_draw_sw_rect.c **** 
 357              		.loc 1 1057 32 is_stmt 0 view .LVU118
 358 004e 25F81320 		strh	r2, [r5, r3, lsl #1]	@ movhi
1060:Drivers/lvgl/src/draw/sw/lv_draw_sw_rect.c ****             if(x + s_right < size) right_val = sh_ups_tmp_buf[x + s_right];
 359              		.loc 1 1060 13 is_stmt 1 view .LVU119
 360              	.LVL31:
1061:Drivers/lvgl/src/draw/sw/lv_draw_sw_rect.c ****             v -= right_val;
 361              		.loc 1 1061 13 view .LVU120
1061:Drivers/lvgl/src/draw/sw/lv_draw_sw_rect.c ****             v -= right_val;
 362              		.loc 1 1061 18 is_stmt 0 view .LVU121
 363 0052 03EB0801 		add	r1, r3, r8
1061:Drivers/lvgl/src/draw/sw/lv_draw_sw_rect.c ****             v -= right_val;
 364              		.loc 1 1061 15 view .LVU122
 365 0056 A142     		cmp	r1, r4
 366 0058 EADA     		bge	.L40
1061:Drivers/lvgl/src/draw/sw/lv_draw_sw_rect.c ****             v -= right_val;
 367              		.loc 1 1061 36 is_stmt 1 discriminator 1 view .LVU123
1061:Drivers/lvgl/src/draw/sw/lv_draw_sw_rect.c ****             v -= right_val;
 368              		.loc 1 1061 62 is_stmt 0 discriminator 1 view .LVU124
 369 005a 3AF81110 		ldrh	r1, [r10, r1, lsl #1]
 370              	.LVL32:
1061:Drivers/lvgl/src/draw/sw/lv_draw_sw_rect.c ****             v -= right_val;
 371              		.loc 1 1061 62 discriminator 1 view .LVU125
 372 005e E8E7     		b	.L19
 373              	.LVL33:
 374              	.L43:
1066:Drivers/lvgl/src/draw/sw/lv_draw_sw_rect.c ****             else left_val = sh_ups_tmp_buf[x - s_left - 1];
 375              		.loc 1 1066 36 is_stmt 1 discriminator 1 view .LVU126
1066:Drivers/lvgl/src/draw/sw/lv_draw_sw_rect.c ****             else left_val = sh_ups_tmp_buf[x - s_left - 1];
 376              		.loc 1 1066 61 is_stmt 0 discriminator 1 view .LVU127
 377 0060 BAF80010 		ldrh	r1, [r10]
 378              	.LVL34:
1066:Drivers/lvgl/src/draw/sw/lv_draw_sw_rect.c ****             else left_val = sh_ups_tmp_buf[x - s_left - 1];
 379              		.loc 1 1066 61 discriminator 1 view .LVU128
 380 0064 EFE7     		b	.L21
 381              	.LVL35:
 382              	.L44:
1066:Drivers/lvgl/src/draw/sw/lv_draw_sw_rect.c ****             else left_val = sh_ups_tmp_buf[x - s_left - 1];
 383              		.loc 1 1066 61 discriminator 1 view .LVU129
 384              	.LBE114:
1070:Drivers/lvgl/src/draw/sw/lv_draw_sw_rect.c ****         sh_ups_tmp_buf += size;
 385              		.loc 1 1070 9 is_stmt 1 discriminator 2 view .LVU130
 386 0066 3246     		mov	r2, r6
 387              	.LVL36:
1070:Drivers/lvgl/src/draw/sw/lv_draw_sw_rect.c ****         sh_ups_tmp_buf += size;
 388              		.loc 1 1070 9 is_stmt 0 discriminator 2 view .LVU131
 389 0068 2946     		mov	r1, r5
 390 006a 5046     		mov	r0, r10
 391 006c FFF7FEFF 		bl	lv_memcpy
ARM GAS  /var/folders/0z/tsy30v1j4xl4_7kw94k978ww0000gn/T//cc0noGMx.s 			page 34


 392              	.LVL37:
1071:Drivers/lvgl/src/draw/sw/lv_draw_sw_rect.c ****     }
 393              		.loc 1 1071 9 is_stmt 1 discriminator 2 view .LVU132
1071:Drivers/lvgl/src/draw/sw/lv_draw_sw_rect.c ****     }
 394              		.loc 1 1071 24 is_stmt 0 discriminator 2 view .LVU133
 395 0070 B244     		add	r10, r10, r6
 396              	.LVL38:
1071:Drivers/lvgl/src/draw/sw/lv_draw_sw_rect.c ****     }
 397              		.loc 1 1071 24 discriminator 2 view .LVU134
 398              	.LBE112:
1054:Drivers/lvgl/src/draw/sw/lv_draw_sw_rect.c ****         int32_t v = sh_ups_tmp_buf[size - 1] * sw;
 399              		.loc 1 1054 27 is_stmt 1 discriminator 2 view .LVU135
 400 0072 0BF1010B 		add	fp, fp, #1
 401              	.LVL39:
 402              	.L17:
1054:Drivers/lvgl/src/draw/sw/lv_draw_sw_rect.c ****         int32_t v = sh_ups_tmp_buf[size - 1] * sw;
 403              		.loc 1 1054 18 discriminator 1 view .LVU136
 404 0076 5C45     		cmp	r4, fp
 405 0078 09DD     		ble	.L45
 406              	.LBB115:
1055:Drivers/lvgl/src/draw/sw/lv_draw_sw_rect.c ****         for(x = size - 1; x >= 0; x--) {
 407              		.loc 1 1055 9 view .LVU137
1055:Drivers/lvgl/src/draw/sw/lv_draw_sw_rect.c ****         for(x = size - 1; x >= 0; x--) {
 408              		.loc 1 1055 35 is_stmt 0 view .LVU138
 409 007a 04F10043 		add	r3, r4, #-2147483648
 410 007e 013B     		subs	r3, r3, #1
 411 0080 3AF81320 		ldrh	r2, [r10, r3, lsl #1]
1055:Drivers/lvgl/src/draw/sw/lv_draw_sw_rect.c ****         for(x = size - 1; x >= 0; x--) {
 412              		.loc 1 1055 17 view .LVU139
 413 0084 019B     		ldr	r3, [sp, #4]
 414 0086 03FB02F2 		mul	r2, r3, r2
 415              	.LVL40:
1056:Drivers/lvgl/src/draw/sw/lv_draw_sw_rect.c ****             sh_ups_blur_buf[x] = v;
 416              		.loc 1 1056 9 is_stmt 1 view .LVU140
1056:Drivers/lvgl/src/draw/sw/lv_draw_sw_rect.c ****             sh_ups_blur_buf[x] = v;
 417              		.loc 1 1056 15 is_stmt 0 view .LVU141
 418 008a 631E     		subs	r3, r4, #1
 419              	.LVL41:
1056:Drivers/lvgl/src/draw/sw/lv_draw_sw_rect.c ****             sh_ups_blur_buf[x] = v;
 420              		.loc 1 1056 9 view .LVU142
 421 008c DDE7     		b	.L18
 422              	.LVL42:
 423              	.L45:
1056:Drivers/lvgl/src/draw/sw/lv_draw_sw_rect.c ****             sh_ups_blur_buf[x] = v;
 424              		.loc 1 1056 9 view .LVU143
 425              	.LBE115:
1075:Drivers/lvgl/src/draw/sw/lv_draw_sw_rect.c ****     uint32_t max_v = LV_OPA_COVER << SHADOW_UPSCALE_SHIFT;
 426              		.loc 1 1075 5 is_stmt 1 view .LVU144
1076:Drivers/lvgl/src/draw/sw/lv_draw_sw_rect.c ****     uint32_t max_v_div = max_v / sw;
 427              		.loc 1 1076 5 view .LVU145
1077:Drivers/lvgl/src/draw/sw/lv_draw_sw_rect.c ****     for(i = 0; i < (uint32_t)size * size; i++) {
 428              		.loc 1 1077 5 view .LVU146
1077:Drivers/lvgl/src/draw/sw/lv_draw_sw_rect.c ****     for(i = 0; i < (uint32_t)size * size; i++) {
 429              		.loc 1 1077 14 is_stmt 0 view .LVU147
 430 008e 4FF47F50 		mov	r0, #16320
 431 0092 019B     		ldr	r3, [sp, #4]
 432 0094 B0FBF3FC 		udiv	ip, r0, r3
ARM GAS  /var/folders/0z/tsy30v1j4xl4_7kw94k978ww0000gn/T//cc0noGMx.s 			page 35


 433              	.LVL43:
1078:Drivers/lvgl/src/draw/sw/lv_draw_sw_rect.c ****         if(sh_ups_buf[i] == 0) continue;
 434              		.loc 1 1078 5 is_stmt 1 view .LVU148
1078:Drivers/lvgl/src/draw/sw/lv_draw_sw_rect.c ****         if(sh_ups_buf[i] == 0) continue;
 435              		.loc 1 1078 11 is_stmt 0 view .LVU149
 436 0098 0023     		movs	r3, #0
1078:Drivers/lvgl/src/draw/sw/lv_draw_sw_rect.c ****         if(sh_ups_buf[i] == 0) continue;
 437              		.loc 1 1078 5 view .LVU150
 438 009a 02E0     		b	.L24
 439              	.LVL44:
 440              	.L47:
1080:Drivers/lvgl/src/draw/sw/lv_draw_sw_rect.c ****         else sh_ups_buf[i] = sh_ups_buf[i] / sw;
 441              		.loc 1 1080 41 is_stmt 1 discriminator 1 view .LVU151
1080:Drivers/lvgl/src/draw/sw/lv_draw_sw_rect.c ****         else sh_ups_buf[i] = sh_ups_buf[i] / sw;
 442              		.loc 1 1080 55 is_stmt 0 discriminator 1 view .LVU152
 443 009c 27F801C0 		strh	ip, [r7, r1]	@ movhi
 444              	.L25:
1078:Drivers/lvgl/src/draw/sw/lv_draw_sw_rect.c ****         if(sh_ups_buf[i] == 0) continue;
 445              		.loc 1 1078 44 is_stmt 1 discriminator 2 view .LVU153
 446 00a0 0133     		adds	r3, r3, #1
 447              	.LVL45:
 448              	.L24:
1078:Drivers/lvgl/src/draw/sw/lv_draw_sw_rect.c ****         if(sh_ups_buf[i] == 0) continue;
 449              		.loc 1 1078 18 discriminator 1 view .LVU154
1078:Drivers/lvgl/src/draw/sw/lv_draw_sw_rect.c ****         if(sh_ups_buf[i] == 0) continue;
 450              		.loc 1 1078 35 is_stmt 0 discriminator 1 view .LVU155
 451 00a2 04FB04F2 		mul	r2, r4, r4
1078:Drivers/lvgl/src/draw/sw/lv_draw_sw_rect.c ****         if(sh_ups_buf[i] == 0) continue;
 452              		.loc 1 1078 18 discriminator 1 view .LVU156
 453 00a6 9A42     		cmp	r2, r3
 454 00a8 0CD9     		bls	.L46
1079:Drivers/lvgl/src/draw/sw/lv_draw_sw_rect.c ****         else if(sh_ups_buf[i] == max_v) sh_ups_buf[i] = max_v_div;
 455              		.loc 1 1079 9 is_stmt 1 view .LVU157
1079:Drivers/lvgl/src/draw/sw/lv_draw_sw_rect.c ****         else if(sh_ups_buf[i] == max_v) sh_ups_buf[i] = max_v_div;
 456              		.loc 1 1079 22 is_stmt 0 view .LVU158
 457 00aa 5900     		lsls	r1, r3, #1
 458 00ac 37F81320 		ldrh	r2, [r7, r3, lsl #1]
1079:Drivers/lvgl/src/draw/sw/lv_draw_sw_rect.c ****         else if(sh_ups_buf[i] == max_v) sh_ups_buf[i] = max_v_div;
 459              		.loc 1 1079 11 view .LVU159
 460 00b0 002A     		cmp	r2, #0
 461 00b2 F5D0     		beq	.L25
1080:Drivers/lvgl/src/draw/sw/lv_draw_sw_rect.c ****         else sh_ups_buf[i] = sh_ups_buf[i] / sw;
 462              		.loc 1 1080 14 is_stmt 1 view .LVU160
1080:Drivers/lvgl/src/draw/sw/lv_draw_sw_rect.c ****         else sh_ups_buf[i] = sh_ups_buf[i] / sw;
 463              		.loc 1 1080 16 is_stmt 0 view .LVU161
 464 00b4 B2F57F5F 		cmp	r2, #16320
 465 00b8 F0D0     		beq	.L47
1081:Drivers/lvgl/src/draw/sw/lv_draw_sw_rect.c ****     }
 466              		.loc 1 1081 14 is_stmt 1 view .LVU162
1081:Drivers/lvgl/src/draw/sw/lv_draw_sw_rect.c ****     }
 467              		.loc 1 1081 44 is_stmt 0 view .LVU163
 468 00ba 0198     		ldr	r0, [sp, #4]
 469 00bc 92FBF0F2 		sdiv	r2, r2, r0
1081:Drivers/lvgl/src/draw/sw/lv_draw_sw_rect.c ****     }
 470              		.loc 1 1081 28 view .LVU164
 471 00c0 7A52     		strh	r2, [r7, r1]	@ movhi
 472 00c2 EDE7     		b	.L25
ARM GAS  /var/folders/0z/tsy30v1j4xl4_7kw94k978ww0000gn/T//cc0noGMx.s 			page 36


 473              	.L46:
1084:Drivers/lvgl/src/draw/sw/lv_draw_sw_rect.c ****         sh_ups_tmp_buf = &sh_ups_buf[x];
 474              		.loc 1 1084 11 view .LVU165
 475 00c4 4FF0000C 		mov	ip, #0
 476              	.LVL46:
1084:Drivers/lvgl/src/draw/sw/lv_draw_sw_rect.c ****         sh_ups_tmp_buf = &sh_ups_buf[x];
 477              		.loc 1 1084 11 view .LVU166
 478 00c8 35E0     		b	.L28
 479              	.LVL47:
 480              	.L41:
 481              	.LBB116:
 482              	.LBB117:
1088:Drivers/lvgl/src/draw/sw/lv_draw_sw_rect.c **** 
 483              		.loc 1 1088 32 view .LVU167
 484 00ca 4FF0000E 		mov	lr, #0
 485 00ce 10E0     		b	.L30
 486              	.L49:
1092:Drivers/lvgl/src/draw/sw/lv_draw_sw_rect.c ****             else top_val = sh_ups_buf[(y - s_right) * size + x];
 487              		.loc 1 1092 34 is_stmt 1 discriminator 1 view .LVU168
1092:Drivers/lvgl/src/draw/sw/lv_draw_sw_rect.c ****             else top_val = sh_ups_buf[(y - s_right) * size + x];
 488              		.loc 1 1092 58 is_stmt 0 discriminator 1 view .LVU169
 489 00d0 B0F800E0 		ldrh	lr, [r0]
 490              	.LVL48:
1092:Drivers/lvgl/src/draw/sw/lv_draw_sw_rect.c ****             else top_val = sh_ups_buf[(y - s_right) * size + x];
 491              		.loc 1 1092 58 discriminator 1 view .LVU170
 492 00d4 18E0     		b	.L32
 493              	.LVL49:
 494              	.L33:
1099:Drivers/lvgl/src/draw/sw/lv_draw_sw_rect.c ****             v += bottom_val;
 495              		.loc 1 1099 18 is_stmt 1 view .LVU171
1099:Drivers/lvgl/src/draw/sw/lv_draw_sw_rect.c ****             v += bottom_val;
 496              		.loc 1 1099 48 is_stmt 0 view .LVU172
 497 00d6 621E     		subs	r2, r4, #1
1099:Drivers/lvgl/src/draw/sw/lv_draw_sw_rect.c ****             v += bottom_val;
 498              		.loc 1 1099 60 view .LVU173
 499 00d8 02FB04C2 		mla	r2, r2, r4, ip
1099:Drivers/lvgl/src/draw/sw/lv_draw_sw_rect.c ****             v += bottom_val;
 500              		.loc 1 1099 41 view .LVU174
 501 00dc 37F81220 		ldrh	r2, [r7, r2, lsl #1]
 502              	.LVL50:
 503              	.L34:
1100:Drivers/lvgl/src/draw/sw/lv_draw_sw_rect.c ****         }
 504              		.loc 1 1100 13 is_stmt 1 discriminator 2 view .LVU175
1100:Drivers/lvgl/src/draw/sw/lv_draw_sw_rect.c ****         }
 505              		.loc 1 1100 15 is_stmt 0 discriminator 2 view .LVU176
 506 00e0 7244     		add	r2, r2, lr
 507              	.LVL51:
1100:Drivers/lvgl/src/draw/sw/lv_draw_sw_rect.c ****         }
 508              		.loc 1 1100 15 discriminator 2 view .LVU177
 509              	.LBE117:
1087:Drivers/lvgl/src/draw/sw/lv_draw_sw_rect.c ****             sh_ups_blur_buf[y] = v < 0 ? 0 : (v >> SHADOW_UPSCALE_SHIFT);
 510              		.loc 1 1087 34 is_stmt 1 discriminator 2 view .LVU178
1087:Drivers/lvgl/src/draw/sw/lv_draw_sw_rect.c ****             sh_ups_blur_buf[y] = v < 0 ? 0 : (v >> SHADOW_UPSCALE_SHIFT);
 511              		.loc 1 1087 32 is_stmt 0 discriminator 2 view .LVU179
 512 00e2 0133     		adds	r3, r3, #1
 513              	.LVL52:
1087:Drivers/lvgl/src/draw/sw/lv_draw_sw_rect.c ****             sh_ups_blur_buf[y] = v < 0 ? 0 : (v >> SHADOW_UPSCALE_SHIFT);
ARM GAS  /var/folders/0z/tsy30v1j4xl4_7kw94k978ww0000gn/T//cc0noGMx.s 			page 37


 514              		.loc 1 1087 51 discriminator 2 view .LVU180
 515 00e4 3044     		add	r0, r0, r6
 516              	.LVL53:
 517              	.L29:
1087:Drivers/lvgl/src/draw/sw/lv_draw_sw_rect.c ****             sh_ups_blur_buf[y] = v < 0 ? 0 : (v >> SHADOW_UPSCALE_SHIFT);
 518              		.loc 1 1087 22 is_stmt 1 discriminator 1 view .LVU181
 519 00e6 9C42     		cmp	r4, r3
 520 00e8 1ADD     		ble	.L48
 521              	.LBB118:
1088:Drivers/lvgl/src/draw/sw/lv_draw_sw_rect.c **** 
 522              		.loc 1 1088 13 view .LVU182
1088:Drivers/lvgl/src/draw/sw/lv_draw_sw_rect.c **** 
 523              		.loc 1 1088 32 is_stmt 0 view .LVU183
 524 00ea 002A     		cmp	r2, #0
 525 00ec EDDB     		blt	.L41
1088:Drivers/lvgl/src/draw/sw/lv_draw_sw_rect.c **** 
 526              		.loc 1 1088 32 discriminator 1 view .LVU184
 527 00ee C2F38F1E 		ubfx	lr, r2, #6, #16
 528              	.L30:
1088:Drivers/lvgl/src/draw/sw/lv_draw_sw_rect.c **** 
 529              		.loc 1 1088 32 discriminator 4 view .LVU185
 530 00f2 25F813E0 		strh	lr, [r5, r3, lsl #1]	@ movhi
1091:Drivers/lvgl/src/draw/sw/lv_draw_sw_rect.c ****             if(y - s_right <= 0) top_val = sh_ups_tmp_buf[0];
 531              		.loc 1 1091 13 is_stmt 1 discriminator 4 view .LVU186
1092:Drivers/lvgl/src/draw/sw/lv_draw_sw_rect.c ****             else top_val = sh_ups_buf[(y - s_right) * size + x];
 532              		.loc 1 1092 13 discriminator 4 view .LVU187
1092:Drivers/lvgl/src/draw/sw/lv_draw_sw_rect.c ****             else top_val = sh_ups_buf[(y - s_right) * size + x];
 533              		.loc 1 1092 18 is_stmt 0 discriminator 4 view .LVU188
 534 00f6 A3EB080E 		sub	lr, r3, r8
1092:Drivers/lvgl/src/draw/sw/lv_draw_sw_rect.c ****             else top_val = sh_ups_buf[(y - s_right) * size + x];
 535              		.loc 1 1092 15 discriminator 4 view .LVU189
 536 00fa BEF1000F 		cmp	lr, #0
 537 00fe E7DD     		ble	.L49
1093:Drivers/lvgl/src/draw/sw/lv_draw_sw_rect.c ****             v -= top_val;
 538              		.loc 1 1093 18 is_stmt 1 view .LVU190
1093:Drivers/lvgl/src/draw/sw/lv_draw_sw_rect.c ****             v -= top_val;
 539              		.loc 1 1093 60 is_stmt 0 view .LVU191
 540 0100 0EFB04CE 		mla	lr, lr, r4, ip
1093:Drivers/lvgl/src/draw/sw/lv_draw_sw_rect.c ****             v -= top_val;
 541              		.loc 1 1093 38 view .LVU192
 542 0104 37F81EE0 		ldrh	lr, [r7, lr, lsl #1]
 543              	.LVL54:
 544              	.L32:
1094:Drivers/lvgl/src/draw/sw/lv_draw_sw_rect.c **** 
 545              		.loc 1 1094 13 is_stmt 1 view .LVU193
1094:Drivers/lvgl/src/draw/sw/lv_draw_sw_rect.c **** 
 546              		.loc 1 1094 15 is_stmt 0 view .LVU194
 547 0108 A2EB0E0E 		sub	lr, r2, lr
 548              	.LVL55:
1097:Drivers/lvgl/src/draw/sw/lv_draw_sw_rect.c ****             if(y + s_left + 1 < size) bottom_val = sh_ups_buf[(y + s_left + 1) * size + x];
 549              		.loc 1 1097 13 is_stmt 1 view .LVU195
1098:Drivers/lvgl/src/draw/sw/lv_draw_sw_rect.c ****             else bottom_val = sh_ups_buf[(size - 1) * size + x];
 550              		.loc 1 1098 13 view .LVU196
1098:Drivers/lvgl/src/draw/sw/lv_draw_sw_rect.c ****             else bottom_val = sh_ups_buf[(size - 1) * size + x];
 551              		.loc 1 1098 18 is_stmt 0 view .LVU197
 552 010c 09EB0302 		add	r2, r9, r3
1098:Drivers/lvgl/src/draw/sw/lv_draw_sw_rect.c ****             else bottom_val = sh_ups_buf[(size - 1) * size + x];
ARM GAS  /var/folders/0z/tsy30v1j4xl4_7kw94k978ww0000gn/T//cc0noGMx.s 			page 38


 553              		.loc 1 1098 27 view .LVU198
 554 0110 0132     		adds	r2, r2, #1
1098:Drivers/lvgl/src/draw/sw/lv_draw_sw_rect.c ****             else bottom_val = sh_ups_buf[(size - 1) * size + x];
 555              		.loc 1 1098 15 view .LVU199
 556 0112 9442     		cmp	r4, r2
 557 0114 DFDD     		ble	.L33
1098:Drivers/lvgl/src/draw/sw/lv_draw_sw_rect.c ****             else bottom_val = sh_ups_buf[(size - 1) * size + x];
 558              		.loc 1 1098 39 is_stmt 1 discriminator 1 view .LVU200
1098:Drivers/lvgl/src/draw/sw/lv_draw_sw_rect.c ****             else bottom_val = sh_ups_buf[(size - 1) * size + x];
 559              		.loc 1 1098 87 is_stmt 0 discriminator 1 view .LVU201
 560 0116 02FB04C2 		mla	r2, r2, r4, ip
1098:Drivers/lvgl/src/draw/sw/lv_draw_sw_rect.c ****             else bottom_val = sh_ups_buf[(size - 1) * size + x];
 561              		.loc 1 1098 62 discriminator 1 view .LVU202
 562 011a 37F81220 		ldrh	r2, [r7, r2, lsl #1]
 563              	.LVL56:
1098:Drivers/lvgl/src/draw/sw/lv_draw_sw_rect.c ****             else bottom_val = sh_ups_buf[(size - 1) * size + x];
 564              		.loc 1 1098 62 discriminator 1 view .LVU203
 565 011e DFE7     		b	.L34
 566              	.LVL57:
 567              	.L48:
1098:Drivers/lvgl/src/draw/sw/lv_draw_sw_rect.c ****             else bottom_val = sh_ups_buf[(size - 1) * size + x];
 568              		.loc 1 1098 62 discriminator 1 view .LVU204
 569              	.LBE118:
1105:Drivers/lvgl/src/draw/sw/lv_draw_sw_rect.c ****             (*sh_ups_tmp_buf) = sh_ups_blur_buf[y];
 570              		.loc 1 1105 15 view .LVU205
 571 0120 0023     		movs	r3, #0
 572              	.LVL58:
1105:Drivers/lvgl/src/draw/sw/lv_draw_sw_rect.c ****             (*sh_ups_tmp_buf) = sh_ups_blur_buf[y];
 573              		.loc 1 1105 15 view .LVU206
 574 0122 04E0     		b	.L36
 575              	.LVL59:
 576              	.L37:
1106:Drivers/lvgl/src/draw/sw/lv_draw_sw_rect.c ****         }
 577              		.loc 1 1106 13 is_stmt 1 discriminator 3 view .LVU207
1106:Drivers/lvgl/src/draw/sw/lv_draw_sw_rect.c ****         }
 578              		.loc 1 1106 48 is_stmt 0 discriminator 3 view .LVU208
 579 0124 35F81320 		ldrh	r2, [r5, r3, lsl #1]
1106:Drivers/lvgl/src/draw/sw/lv_draw_sw_rect.c ****         }
 580              		.loc 1 1106 31 discriminator 3 view .LVU209
 581 0128 0A80     		strh	r2, [r1]	@ movhi
1105:Drivers/lvgl/src/draw/sw/lv_draw_sw_rect.c ****             (*sh_ups_tmp_buf) = sh_ups_blur_buf[y];
 582              		.loc 1 1105 33 is_stmt 1 discriminator 3 view .LVU210
1105:Drivers/lvgl/src/draw/sw/lv_draw_sw_rect.c ****             (*sh_ups_tmp_buf) = sh_ups_blur_buf[y];
 583              		.loc 1 1105 31 is_stmt 0 discriminator 3 view .LVU211
 584 012a 0133     		adds	r3, r3, #1
 585              	.LVL60:
1105:Drivers/lvgl/src/draw/sw/lv_draw_sw_rect.c ****             (*sh_ups_tmp_buf) = sh_ups_blur_buf[y];
 586              		.loc 1 1105 50 discriminator 3 view .LVU212
 587 012c 3144     		add	r1, r1, r6
 588              	.LVL61:
 589              	.L36:
1105:Drivers/lvgl/src/draw/sw/lv_draw_sw_rect.c ****             (*sh_ups_tmp_buf) = sh_ups_blur_buf[y];
 590              		.loc 1 1105 22 is_stmt 1 discriminator 1 view .LVU213
 591 012e 9C42     		cmp	r4, r3
 592 0130 F8DC     		bgt	.L37
 593              	.LBE116:
1084:Drivers/lvgl/src/draw/sw/lv_draw_sw_rect.c ****         sh_ups_tmp_buf = &sh_ups_buf[x];
ARM GAS  /var/folders/0z/tsy30v1j4xl4_7kw94k978ww0000gn/T//cc0noGMx.s 			page 39


 594              		.loc 1 1084 27 discriminator 2 view .LVU214
 595 0132 0CF1010C 		add	ip, ip, #1
 596              	.LVL62:
 597              	.L28:
1084:Drivers/lvgl/src/draw/sw/lv_draw_sw_rect.c ****         sh_ups_tmp_buf = &sh_ups_buf[x];
 598              		.loc 1 1084 18 discriminator 1 view .LVU215
 599 0136 6445     		cmp	r4, ip
 600 0138 09DD     		ble	.L50
 601              	.LBB119:
1085:Drivers/lvgl/src/draw/sw/lv_draw_sw_rect.c ****         int32_t v = sh_ups_tmp_buf[0] * sw;
 602              		.loc 1 1085 9 view .LVU216
1085:Drivers/lvgl/src/draw/sw/lv_draw_sw_rect.c ****         int32_t v = sh_ups_tmp_buf[0] * sw;
 603              		.loc 1 1085 24 is_stmt 0 view .LVU217
 604 013a 07EB4C01 		add	r1, r7, ip, lsl #1
 605              	.LVL63:
1086:Drivers/lvgl/src/draw/sw/lv_draw_sw_rect.c ****         for(y = 0; y < size ; y++, sh_ups_tmp_buf += size) {
 606              		.loc 1 1086 9 is_stmt 1 view .LVU218
1086:Drivers/lvgl/src/draw/sw/lv_draw_sw_rect.c ****         for(y = 0; y < size ; y++, sh_ups_tmp_buf += size) {
 607              		.loc 1 1086 35 is_stmt 0 view .LVU219
 608 013e 37F81C20 		ldrh	r2, [r7, ip, lsl #1]
1086:Drivers/lvgl/src/draw/sw/lv_draw_sw_rect.c ****         for(y = 0; y < size ; y++, sh_ups_tmp_buf += size) {
 609              		.loc 1 1086 17 view .LVU220
 610 0142 019B     		ldr	r3, [sp, #4]
 611 0144 03FB02F2 		mul	r2, r3, r2
 612              	.LVL64:
1087:Drivers/lvgl/src/draw/sw/lv_draw_sw_rect.c ****             sh_ups_blur_buf[y] = v < 0 ? 0 : (v >> SHADOW_UPSCALE_SHIFT);
 613              		.loc 1 1087 9 is_stmt 1 view .LVU221
1085:Drivers/lvgl/src/draw/sw/lv_draw_sw_rect.c ****         int32_t v = sh_ups_tmp_buf[0] * sw;
 614              		.loc 1 1085 24 is_stmt 0 view .LVU222
 615 0148 0846     		mov	r0, r1
1087:Drivers/lvgl/src/draw/sw/lv_draw_sw_rect.c ****             sh_ups_blur_buf[y] = v < 0 ? 0 : (v >> SHADOW_UPSCALE_SHIFT);
 616              		.loc 1 1087 15 view .LVU223
 617 014a 0023     		movs	r3, #0
1087:Drivers/lvgl/src/draw/sw/lv_draw_sw_rect.c ****             sh_ups_blur_buf[y] = v < 0 ? 0 : (v >> SHADOW_UPSCALE_SHIFT);
 618              		.loc 1 1087 9 view .LVU224
 619 014c CBE7     		b	.L29
 620              	.LVL65:
 621              	.L50:
1087:Drivers/lvgl/src/draw/sw/lv_draw_sw_rect.c ****             sh_ups_blur_buf[y] = v < 0 ? 0 : (v >> SHADOW_UPSCALE_SHIFT);
 622              		.loc 1 1087 9 view .LVU225
 623              	.LBE119:
1110:Drivers/lvgl/src/draw/sw/lv_draw_sw_rect.c **** }
 624              		.loc 1 1110 5 is_stmt 1 view .LVU226
 625 014e 2846     		mov	r0, r5
 626 0150 FFF7FEFF 		bl	lv_mem_buf_release
 627              	.LVL66:
1111:Drivers/lvgl/src/draw/sw/lv_draw_sw_rect.c **** #endif
 628              		.loc 1 1111 1 is_stmt 0 view .LVU227
 629 0154 03B0     		add	sp, sp, #12
 630              		.cfi_def_cfa_offset 36
 631              		@ sp needed
 632 0156 BDE8F08F 		pop	{r4, r5, r6, r7, r8, r9, r10, fp, pc}
1111:Drivers/lvgl/src/draw/sw/lv_draw_sw_rect.c **** #endif
 633              		.loc 1 1111 1 view .LVU228
 634              		.cfi_endproc
 635              	.LFE168:
 637              		.section	.text.shadow_draw_corner_buf,"ax",%progbits
ARM GAS  /var/folders/0z/tsy30v1j4xl4_7kw94k978ww0000gn/T//cc0noGMx.s 			page 40


 638              		.align	1
 639              		.syntax unified
 640              		.thumb
 641              		.thumb_func
 643              	shadow_draw_corner_buf:
 644              	.LVL67:
 645              	.LFB167:
 955:Drivers/lvgl/src/draw/sw/lv_draw_sw_rect.c ****     int32_t sw_ori = sw;
 646              		.loc 1 955 1 is_stmt 1 view -0
 647              		.cfi_startproc
 648              		@ args = 0, pretend = 0, frame = 32
 649              		@ frame_needed = 0, uses_anonymous_args = 0
 955:Drivers/lvgl/src/draw/sw/lv_draw_sw_rect.c ****     int32_t sw_ori = sw;
 650              		.loc 1 955 1 is_stmt 0 view .LVU230
 651 0000 2DE9F04F 		push	{r4, r5, r6, r7, r8, r9, r10, fp, lr}
 652              		.cfi_def_cfa_offset 36
 653              		.cfi_offset 4, -36
 654              		.cfi_offset 5, -32
 655              		.cfi_offset 6, -28
 656              		.cfi_offset 7, -24
 657              		.cfi_offset 8, -20
 658              		.cfi_offset 9, -16
 659              		.cfi_offset 10, -12
 660              		.cfi_offset 11, -8
 661              		.cfi_offset 14, -4
 662 0004 8BB0     		sub	sp, sp, #44
 663              		.cfi_def_cfa_offset 80
 664 0006 8846     		mov	r8, r1
 665 0008 9146     		mov	r9, r2
 666 000a 1A46     		mov	r2, r3
 667              	.LVL68:
 956:Drivers/lvgl/src/draw/sw/lv_draw_sw_rect.c ****     int32_t size = sw_ori  + r;
 668              		.loc 1 956 5 is_stmt 1 view .LVU231
 957:Drivers/lvgl/src/draw/sw/lv_draw_sw_rect.c **** 
 669              		.loc 1 957 5 view .LVU232
 957:Drivers/lvgl/src/draw/sw/lv_draw_sw_rect.c **** 
 670              		.loc 1 957 13 is_stmt 0 view .LVU233
 671 000c 03EB0904 		add	r4, r3, r9
 672              	.LVL69:
 959:Drivers/lvgl/src/draw/sw/lv_draw_sw_rect.c ****     lv_area_copy(&sh_area, coords);
 673              		.loc 1 959 5 is_stmt 1 view .LVU234
 960:Drivers/lvgl/src/draw/sw/lv_draw_sw_rect.c ****     sh_area.x2 = sw / 2 + r - 1  - ((sw & 1) ? 0 : 1);
 674              		.loc 1 960 5 view .LVU235
 675              	.LBB120:
 676              	.LBI120:
 677              		.file 2 "Drivers/lvgl/src/draw/sw/../../misc/lv_area.h"
   1:Drivers/lvgl/src/draw/sw/../../misc/lv_area.h **** /**
   2:Drivers/lvgl/src/draw/sw/../../misc/lv_area.h ****  * @file lv_area.h
   3:Drivers/lvgl/src/draw/sw/../../misc/lv_area.h ****  *
   4:Drivers/lvgl/src/draw/sw/../../misc/lv_area.h ****  */
   5:Drivers/lvgl/src/draw/sw/../../misc/lv_area.h **** 
   6:Drivers/lvgl/src/draw/sw/../../misc/lv_area.h **** #ifndef LV_AREA_H
   7:Drivers/lvgl/src/draw/sw/../../misc/lv_area.h **** #define LV_AREA_H
   8:Drivers/lvgl/src/draw/sw/../../misc/lv_area.h **** 
   9:Drivers/lvgl/src/draw/sw/../../misc/lv_area.h **** #ifdef __cplusplus
  10:Drivers/lvgl/src/draw/sw/../../misc/lv_area.h **** extern "C" {
  11:Drivers/lvgl/src/draw/sw/../../misc/lv_area.h **** #endif
ARM GAS  /var/folders/0z/tsy30v1j4xl4_7kw94k978ww0000gn/T//cc0noGMx.s 			page 41


  12:Drivers/lvgl/src/draw/sw/../../misc/lv_area.h **** 
  13:Drivers/lvgl/src/draw/sw/../../misc/lv_area.h **** /*********************
  14:Drivers/lvgl/src/draw/sw/../../misc/lv_area.h ****  *      INCLUDES
  15:Drivers/lvgl/src/draw/sw/../../misc/lv_area.h ****  *********************/
  16:Drivers/lvgl/src/draw/sw/../../misc/lv_area.h **** #include "../lv_conf_internal.h"
  17:Drivers/lvgl/src/draw/sw/../../misc/lv_area.h **** #include <stdbool.h>
  18:Drivers/lvgl/src/draw/sw/../../misc/lv_area.h **** #include <stdint.h>
  19:Drivers/lvgl/src/draw/sw/../../misc/lv_area.h **** 
  20:Drivers/lvgl/src/draw/sw/../../misc/lv_area.h **** /*********************
  21:Drivers/lvgl/src/draw/sw/../../misc/lv_area.h ****  *      DEFINES
  22:Drivers/lvgl/src/draw/sw/../../misc/lv_area.h ****  *********************/
  23:Drivers/lvgl/src/draw/sw/../../misc/lv_area.h **** 
  24:Drivers/lvgl/src/draw/sw/../../misc/lv_area.h **** #if LV_USE_LARGE_COORD
  25:Drivers/lvgl/src/draw/sw/../../misc/lv_area.h **** typedef int32_t lv_coord_t;
  26:Drivers/lvgl/src/draw/sw/../../misc/lv_area.h **** #else
  27:Drivers/lvgl/src/draw/sw/../../misc/lv_area.h **** typedef int16_t lv_coord_t;
  28:Drivers/lvgl/src/draw/sw/../../misc/lv_area.h **** #endif
  29:Drivers/lvgl/src/draw/sw/../../misc/lv_area.h **** 
  30:Drivers/lvgl/src/draw/sw/../../misc/lv_area.h **** /**********************
  31:Drivers/lvgl/src/draw/sw/../../misc/lv_area.h ****  *      TYPEDEFS
  32:Drivers/lvgl/src/draw/sw/../../misc/lv_area.h ****  **********************/
  33:Drivers/lvgl/src/draw/sw/../../misc/lv_area.h **** 
  34:Drivers/lvgl/src/draw/sw/../../misc/lv_area.h **** /**
  35:Drivers/lvgl/src/draw/sw/../../misc/lv_area.h ****  * Represents a point on the screen.
  36:Drivers/lvgl/src/draw/sw/../../misc/lv_area.h ****  */
  37:Drivers/lvgl/src/draw/sw/../../misc/lv_area.h **** typedef struct {
  38:Drivers/lvgl/src/draw/sw/../../misc/lv_area.h ****     lv_coord_t x;
  39:Drivers/lvgl/src/draw/sw/../../misc/lv_area.h ****     lv_coord_t y;
  40:Drivers/lvgl/src/draw/sw/../../misc/lv_area.h **** } lv_point_t;
  41:Drivers/lvgl/src/draw/sw/../../misc/lv_area.h **** 
  42:Drivers/lvgl/src/draw/sw/../../misc/lv_area.h **** /** Represents an area of the screen.*/
  43:Drivers/lvgl/src/draw/sw/../../misc/lv_area.h **** typedef struct {
  44:Drivers/lvgl/src/draw/sw/../../misc/lv_area.h ****     lv_coord_t x1;
  45:Drivers/lvgl/src/draw/sw/../../misc/lv_area.h ****     lv_coord_t y1;
  46:Drivers/lvgl/src/draw/sw/../../misc/lv_area.h ****     lv_coord_t x2;
  47:Drivers/lvgl/src/draw/sw/../../misc/lv_area.h ****     lv_coord_t y2;
  48:Drivers/lvgl/src/draw/sw/../../misc/lv_area.h **** } lv_area_t;
  49:Drivers/lvgl/src/draw/sw/../../misc/lv_area.h **** 
  50:Drivers/lvgl/src/draw/sw/../../misc/lv_area.h **** /** Alignments*/
  51:Drivers/lvgl/src/draw/sw/../../misc/lv_area.h **** enum {
  52:Drivers/lvgl/src/draw/sw/../../misc/lv_area.h ****     LV_ALIGN_DEFAULT = 0,
  53:Drivers/lvgl/src/draw/sw/../../misc/lv_area.h ****     LV_ALIGN_TOP_LEFT,
  54:Drivers/lvgl/src/draw/sw/../../misc/lv_area.h ****     LV_ALIGN_TOP_MID,
  55:Drivers/lvgl/src/draw/sw/../../misc/lv_area.h ****     LV_ALIGN_TOP_RIGHT,
  56:Drivers/lvgl/src/draw/sw/../../misc/lv_area.h ****     LV_ALIGN_BOTTOM_LEFT,
  57:Drivers/lvgl/src/draw/sw/../../misc/lv_area.h ****     LV_ALIGN_BOTTOM_MID,
  58:Drivers/lvgl/src/draw/sw/../../misc/lv_area.h ****     LV_ALIGN_BOTTOM_RIGHT,
  59:Drivers/lvgl/src/draw/sw/../../misc/lv_area.h ****     LV_ALIGN_LEFT_MID,
  60:Drivers/lvgl/src/draw/sw/../../misc/lv_area.h ****     LV_ALIGN_RIGHT_MID,
  61:Drivers/lvgl/src/draw/sw/../../misc/lv_area.h ****     LV_ALIGN_CENTER,
  62:Drivers/lvgl/src/draw/sw/../../misc/lv_area.h **** 
  63:Drivers/lvgl/src/draw/sw/../../misc/lv_area.h ****     LV_ALIGN_OUT_TOP_LEFT,
  64:Drivers/lvgl/src/draw/sw/../../misc/lv_area.h ****     LV_ALIGN_OUT_TOP_MID,
  65:Drivers/lvgl/src/draw/sw/../../misc/lv_area.h ****     LV_ALIGN_OUT_TOP_RIGHT,
  66:Drivers/lvgl/src/draw/sw/../../misc/lv_area.h ****     LV_ALIGN_OUT_BOTTOM_LEFT,
  67:Drivers/lvgl/src/draw/sw/../../misc/lv_area.h ****     LV_ALIGN_OUT_BOTTOM_MID,
  68:Drivers/lvgl/src/draw/sw/../../misc/lv_area.h ****     LV_ALIGN_OUT_BOTTOM_RIGHT,
ARM GAS  /var/folders/0z/tsy30v1j4xl4_7kw94k978ww0000gn/T//cc0noGMx.s 			page 42


  69:Drivers/lvgl/src/draw/sw/../../misc/lv_area.h ****     LV_ALIGN_OUT_LEFT_TOP,
  70:Drivers/lvgl/src/draw/sw/../../misc/lv_area.h ****     LV_ALIGN_OUT_LEFT_MID,
  71:Drivers/lvgl/src/draw/sw/../../misc/lv_area.h ****     LV_ALIGN_OUT_LEFT_BOTTOM,
  72:Drivers/lvgl/src/draw/sw/../../misc/lv_area.h ****     LV_ALIGN_OUT_RIGHT_TOP,
  73:Drivers/lvgl/src/draw/sw/../../misc/lv_area.h ****     LV_ALIGN_OUT_RIGHT_MID,
  74:Drivers/lvgl/src/draw/sw/../../misc/lv_area.h ****     LV_ALIGN_OUT_RIGHT_BOTTOM,
  75:Drivers/lvgl/src/draw/sw/../../misc/lv_area.h **** };
  76:Drivers/lvgl/src/draw/sw/../../misc/lv_area.h **** typedef uint8_t lv_align_t;
  77:Drivers/lvgl/src/draw/sw/../../misc/lv_area.h **** 
  78:Drivers/lvgl/src/draw/sw/../../misc/lv_area.h **** enum {
  79:Drivers/lvgl/src/draw/sw/../../misc/lv_area.h ****     LV_DIR_NONE     = 0x00,
  80:Drivers/lvgl/src/draw/sw/../../misc/lv_area.h ****     LV_DIR_LEFT     = (1 << 0),
  81:Drivers/lvgl/src/draw/sw/../../misc/lv_area.h ****     LV_DIR_RIGHT    = (1 << 1),
  82:Drivers/lvgl/src/draw/sw/../../misc/lv_area.h ****     LV_DIR_TOP      = (1 << 2),
  83:Drivers/lvgl/src/draw/sw/../../misc/lv_area.h ****     LV_DIR_BOTTOM   = (1 << 3),
  84:Drivers/lvgl/src/draw/sw/../../misc/lv_area.h ****     LV_DIR_HOR      = LV_DIR_LEFT | LV_DIR_RIGHT,
  85:Drivers/lvgl/src/draw/sw/../../misc/lv_area.h ****     LV_DIR_VER      = LV_DIR_TOP | LV_DIR_BOTTOM,
  86:Drivers/lvgl/src/draw/sw/../../misc/lv_area.h ****     LV_DIR_ALL      = LV_DIR_HOR | LV_DIR_VER,
  87:Drivers/lvgl/src/draw/sw/../../misc/lv_area.h **** };
  88:Drivers/lvgl/src/draw/sw/../../misc/lv_area.h **** 
  89:Drivers/lvgl/src/draw/sw/../../misc/lv_area.h **** typedef uint8_t lv_dir_t;
  90:Drivers/lvgl/src/draw/sw/../../misc/lv_area.h **** 
  91:Drivers/lvgl/src/draw/sw/../../misc/lv_area.h **** /**********************
  92:Drivers/lvgl/src/draw/sw/../../misc/lv_area.h ****  * GLOBAL PROTOTYPES
  93:Drivers/lvgl/src/draw/sw/../../misc/lv_area.h ****  **********************/
  94:Drivers/lvgl/src/draw/sw/../../misc/lv_area.h **** 
  95:Drivers/lvgl/src/draw/sw/../../misc/lv_area.h **** /**
  96:Drivers/lvgl/src/draw/sw/../../misc/lv_area.h ****  * Initialize an area
  97:Drivers/lvgl/src/draw/sw/../../misc/lv_area.h ****  * @param area_p pointer to an area
  98:Drivers/lvgl/src/draw/sw/../../misc/lv_area.h ****  * @param x1 left coordinate of the area
  99:Drivers/lvgl/src/draw/sw/../../misc/lv_area.h ****  * @param y1 top coordinate of the area
 100:Drivers/lvgl/src/draw/sw/../../misc/lv_area.h ****  * @param x2 right coordinate of the area
 101:Drivers/lvgl/src/draw/sw/../../misc/lv_area.h ****  * @param y2 bottom coordinate of the area
 102:Drivers/lvgl/src/draw/sw/../../misc/lv_area.h ****  */
 103:Drivers/lvgl/src/draw/sw/../../misc/lv_area.h **** void lv_area_set(lv_area_t * area_p, lv_coord_t x1, lv_coord_t y1, lv_coord_t x2, lv_coord_t y2);
 104:Drivers/lvgl/src/draw/sw/../../misc/lv_area.h **** 
 105:Drivers/lvgl/src/draw/sw/../../misc/lv_area.h **** /**
 106:Drivers/lvgl/src/draw/sw/../../misc/lv_area.h ****  * Copy an area
 107:Drivers/lvgl/src/draw/sw/../../misc/lv_area.h ****  * @param dest pointer to the destination area
 108:Drivers/lvgl/src/draw/sw/../../misc/lv_area.h ****  * @param src pointer to the source area
 109:Drivers/lvgl/src/draw/sw/../../misc/lv_area.h ****  */
 110:Drivers/lvgl/src/draw/sw/../../misc/lv_area.h **** inline static void lv_area_copy(lv_area_t * dest, const lv_area_t * src)
 678              		.loc 2 110 20 view .LVU236
 679              	.LBB121:
 111:Drivers/lvgl/src/draw/sw/../../misc/lv_area.h **** {
 112:Drivers/lvgl/src/draw/sw/../../misc/lv_area.h ****     dest->x1 = src->x1;
 680              		.loc 2 112 5 view .LVU237
 681              		.loc 2 112 19 is_stmt 0 view .LVU238
 682 0010 B0F90030 		ldrsh	r3, [r0]
 683              	.LVL70:
 684              		.loc 2 112 14 view .LVU239
 685 0014 ADF82030 		strh	r3, [sp, #32]	@ movhi
 113:Drivers/lvgl/src/draw/sw/../../misc/lv_area.h ****     dest->y1 = src->y1;
 686              		.loc 2 113 5 is_stmt 1 view .LVU240
 687              		.loc 2 113 19 is_stmt 0 view .LVU241
 688 0018 B0F90230 		ldrsh	r3, [r0, #2]
 689              		.loc 2 113 14 view .LVU242
ARM GAS  /var/folders/0z/tsy30v1j4xl4_7kw94k978ww0000gn/T//cc0noGMx.s 			page 43


 690 001c ADF82230 		strh	r3, [sp, #34]	@ movhi
 114:Drivers/lvgl/src/draw/sw/../../misc/lv_area.h ****     dest->x2 = src->x2;
 691              		.loc 2 114 5 is_stmt 1 view .LVU243
 692              		.loc 2 114 19 is_stmt 0 view .LVU244
 693 0020 B0F90430 		ldrsh	r3, [r0, #4]
 694              		.loc 2 114 14 view .LVU245
 695 0024 ADF82430 		strh	r3, [sp, #36]	@ movhi
 115:Drivers/lvgl/src/draw/sw/../../misc/lv_area.h ****     dest->y2 = src->y2;
 696              		.loc 2 115 5 is_stmt 1 view .LVU246
 697              		.loc 2 115 19 is_stmt 0 view .LVU247
 698 0028 B0F90630 		ldrsh	r3, [r0, #6]
 699              		.loc 2 115 14 view .LVU248
 700 002c ADF82630 		strh	r3, [sp, #38]	@ movhi
 701              	.LVL71:
 702              		.loc 2 115 14 view .LVU249
 703              	.LBE121:
 704              	.LBE120:
 961:Drivers/lvgl/src/draw/sw/lv_draw_sw_rect.c ****     sh_area.y1 = sw / 2 + 1;
 705              		.loc 1 961 5 is_stmt 1 view .LVU250
 961:Drivers/lvgl/src/draw/sw/lv_draw_sw_rect.c ****     sh_area.y1 = sw / 2 + 1;
 706              		.loc 1 961 25 is_stmt 0 view .LVU251
 707 0030 09EBD971 		add	r1, r9, r9, lsr #31
 708              	.LVL72:
 961:Drivers/lvgl/src/draw/sw/lv_draw_sw_rect.c ****     sh_area.y1 = sw / 2 + 1;
 709              		.loc 1 961 25 view .LVU252
 710 0034 C1F34F01 		ubfx	r1, r1, #1, #16
 711 0038 8B18     		adds	r3, r1, r2
 712 003a 9BB2     		uxth	r3, r3
 961:Drivers/lvgl/src/draw/sw/lv_draw_sw_rect.c ****     sh_area.y1 = sw / 2 + 1;
 713              		.loc 1 961 50 view .LVU253
 714 003c 19F0010A 		ands	r10, r9, #1
 715 0040 0CBF     		ite	eq
 716 0042 0125     		moveq	r5, #1
 717 0044 0025     		movne	r5, #0
 961:Drivers/lvgl/src/draw/sw/lv_draw_sw_rect.c ****     sh_area.y1 = sw / 2 + 1;
 718              		.loc 1 961 34 view .LVU254
 719 0046 5B1B     		subs	r3, r3, r5
 720 0048 013B     		subs	r3, r3, #1
 721 004a 9EB2     		uxth	r6, r3
 961:Drivers/lvgl/src/draw/sw/lv_draw_sw_rect.c ****     sh_area.y1 = sw / 2 + 1;
 722              		.loc 1 961 16 view .LVU255
 723 004c ADF82430 		strh	r3, [sp, #36]	@ movhi
 962:Drivers/lvgl/src/draw/sw/lv_draw_sw_rect.c **** 
 724              		.loc 1 962 5 is_stmt 1 view .LVU256
 962:Drivers/lvgl/src/draw/sw/lv_draw_sw_rect.c **** 
 725              		.loc 1 962 25 is_stmt 0 view .LVU257
 726 0050 0131     		adds	r1, r1, #1
 962:Drivers/lvgl/src/draw/sw/lv_draw_sw_rect.c **** 
 727              		.loc 1 962 16 view .LVU258
 728 0052 ADF82210 		strh	r1, [sp, #34]	@ movhi
 964:Drivers/lvgl/src/draw/sw/lv_draw_sw_rect.c ****     sh_area.y2 = sh_area.y1 + lv_area_get_height(coords);
 729              		.loc 1 964 5 is_stmt 1 view .LVU259
 730              	.LVL73:
 731              	.LBB122:
 732              	.LBI122:
 116:Drivers/lvgl/src/draw/sw/../../misc/lv_area.h **** }
 117:Drivers/lvgl/src/draw/sw/../../misc/lv_area.h **** 
ARM GAS  /var/folders/0z/tsy30v1j4xl4_7kw94k978ww0000gn/T//cc0noGMx.s 			page 44


 118:Drivers/lvgl/src/draw/sw/../../misc/lv_area.h **** /**
 119:Drivers/lvgl/src/draw/sw/../../misc/lv_area.h ****  * Get the width of an area
 120:Drivers/lvgl/src/draw/sw/../../misc/lv_area.h ****  * @param area_p pointer to an area
 121:Drivers/lvgl/src/draw/sw/../../misc/lv_area.h ****  * @return the width of the area (if x1 == x2 -> width = 1)
 122:Drivers/lvgl/src/draw/sw/../../misc/lv_area.h ****  */
 123:Drivers/lvgl/src/draw/sw/../../misc/lv_area.h **** static inline lv_coord_t lv_area_get_width(const lv_area_t * area_p)
 733              		.loc 2 123 26 view .LVU260
 734              	.LBB123:
 124:Drivers/lvgl/src/draw/sw/../../misc/lv_area.h **** {
 125:Drivers/lvgl/src/draw/sw/../../misc/lv_area.h ****     return (lv_coord_t)(area_p->x2 - area_p->x1 + 1);
 735              		.loc 2 125 5 view .LVU261
 736              		.loc 2 125 31 is_stmt 0 view .LVU262
 737 0056 8588     		ldrh	r5, [r0, #4]
 738              		.loc 2 125 44 view .LVU263
 739 0058 0388     		ldrh	r3, [r0]
 740              		.loc 2 125 36 view .LVU264
 741 005a ED1A     		subs	r5, r5, r3
 742 005c ADB2     		uxth	r5, r5
 743              		.loc 2 125 49 view .LVU265
 744 005e 0135     		adds	r5, r5, #1
 745 0060 ADB2     		uxth	r5, r5
 746              	.LVL74:
 747              		.loc 2 125 49 view .LVU266
 748              	.LBE123:
 749              	.LBE122:
 964:Drivers/lvgl/src/draw/sw/lv_draw_sw_rect.c ****     sh_area.y2 = sh_area.y1 + lv_area_get_height(coords);
 750              		.loc 1 964 29 view .LVU267
 751 0062 761B     		subs	r6, r6, r5
 964:Drivers/lvgl/src/draw/sw/lv_draw_sw_rect.c ****     sh_area.y2 = sh_area.y1 + lv_area_get_height(coords);
 752              		.loc 1 964 16 view .LVU268
 753 0064 ADF82060 		strh	r6, [sp, #32]	@ movhi
 965:Drivers/lvgl/src/draw/sw/lv_draw_sw_rect.c **** 
 754              		.loc 1 965 5 is_stmt 1 view .LVU269
 755              	.LVL75:
 756              	.LBB124:
 757              	.LBI124:
 126:Drivers/lvgl/src/draw/sw/../../misc/lv_area.h **** }
 127:Drivers/lvgl/src/draw/sw/../../misc/lv_area.h **** 
 128:Drivers/lvgl/src/draw/sw/../../misc/lv_area.h **** /**
 129:Drivers/lvgl/src/draw/sw/../../misc/lv_area.h ****  * Get the height of an area
 130:Drivers/lvgl/src/draw/sw/../../misc/lv_area.h ****  * @param area_p pointer to an area
 131:Drivers/lvgl/src/draw/sw/../../misc/lv_area.h ****  * @return the height of the area (if y1 == y2 -> height = 1)
 132:Drivers/lvgl/src/draw/sw/../../misc/lv_area.h ****  */
 133:Drivers/lvgl/src/draw/sw/../../misc/lv_area.h **** static inline lv_coord_t lv_area_get_height(const lv_area_t * area_p)
 758              		.loc 2 133 26 view .LVU270
 759              	.LBB125:
 134:Drivers/lvgl/src/draw/sw/../../misc/lv_area.h **** {
 135:Drivers/lvgl/src/draw/sw/../../misc/lv_area.h ****     return (lv_coord_t)(area_p->y2 - area_p->y1 + 1);
 760              		.loc 2 135 5 view .LVU271
 761              		.loc 2 135 31 is_stmt 0 view .LVU272
 762 0068 C588     		ldrh	r5, [r0, #6]
 763              		.loc 2 135 44 view .LVU273
 764 006a 4388     		ldrh	r3, [r0, #2]
 765              		.loc 2 135 36 view .LVU274
 766 006c E81A     		subs	r0, r5, r3
 767              	.LVL76:
 768              		.loc 2 135 36 view .LVU275
ARM GAS  /var/folders/0z/tsy30v1j4xl4_7kw94k978ww0000gn/T//cc0noGMx.s 			page 45


 769 006e 80B2     		uxth	r0, r0
 770              		.loc 2 135 49 view .LVU276
 771 0070 0130     		adds	r0, r0, #1
 772 0072 80B2     		uxth	r0, r0
 773              	.LVL77:
 774              		.loc 2 135 49 view .LVU277
 775              	.LBE125:
 776              	.LBE124:
 965:Drivers/lvgl/src/draw/sw/lv_draw_sw_rect.c **** 
 777              		.loc 1 965 29 view .LVU278
 778 0074 10FA81F1 		uxtah	r1, r0, r1
 965:Drivers/lvgl/src/draw/sw/lv_draw_sw_rect.c **** 
 779              		.loc 1 965 16 view .LVU279
 780 0078 ADF82610 		strh	r1, [sp, #38]	@ movhi
 967:Drivers/lvgl/src/draw/sw/lv_draw_sw_rect.c ****     lv_draw_mask_radius_init(&mask_param, &sh_area, r, false);
 781              		.loc 1 967 5 is_stmt 1 view .LVU280
 968:Drivers/lvgl/src/draw/sw/lv_draw_sw_rect.c **** 
 782              		.loc 1 968 5 view .LVU281
 783 007c 0023     		movs	r3, #0
 784 007e 08A9     		add	r1, sp, #32
 785 0080 02A8     		add	r0, sp, #8
 786 0082 FFF7FEFF 		bl	lv_draw_mask_radius_init
 787              	.LVL78:
 972:Drivers/lvgl/src/draw/sw/lv_draw_sw_rect.c ****     else sw = sw_ori >> 1;
 788              		.loc 1 972 5 view .LVU282
 972:Drivers/lvgl/src/draw/sw/lv_draw_sw_rect.c ****     else sw = sw_ori >> 1;
 789              		.loc 1 972 7 is_stmt 0 view .LVU283
 790 0086 B9F1010F 		cmp	r9, #1
 791 008a 09D0     		beq	.L72
 973:Drivers/lvgl/src/draw/sw/lv_draw_sw_rect.c **** #endif
 792              		.loc 1 973 10 is_stmt 1 view .LVU284
 973:Drivers/lvgl/src/draw/sw/lv_draw_sw_rect.c **** #endif
 793              		.loc 1 973 13 is_stmt 0 view .LVU285
 794 008c 4FEA6909 		asr	r9, r9, #1
 795              	.LVL79:
 796              	.L52:
 976:Drivers/lvgl/src/draw/sw/lv_draw_sw_rect.c ****     lv_opa_t * mask_line = lv_mem_buf_get(size);
 797              		.loc 1 976 5 is_stmt 1 view .LVU286
 977:Drivers/lvgl/src/draw/sw/lv_draw_sw_rect.c ****     uint16_t * sh_ups_tmp_buf = (uint16_t *)sh_buf;
 798              		.loc 1 977 5 view .LVU287
 977:Drivers/lvgl/src/draw/sw/lv_draw_sw_rect.c ****     uint16_t * sh_ups_tmp_buf = (uint16_t *)sh_buf;
 799              		.loc 1 977 28 is_stmt 0 view .LVU288
 800 0090 2046     		mov	r0, r4
 801 0092 FFF7FEFF 		bl	lv_mem_buf_get
 802              	.LVL80:
 803 0096 0546     		mov	r5, r0
 804              	.LVL81:
 978:Drivers/lvgl/src/draw/sw/lv_draw_sw_rect.c ****     for(y = 0; y < size; y++) {
 805              		.loc 1 978 5 is_stmt 1 view .LVU289
 979:Drivers/lvgl/src/draw/sw/lv_draw_sw_rect.c ****         lv_memset_ff(mask_line, size);
 806              		.loc 1 979 5 view .LVU290
 978:Drivers/lvgl/src/draw/sw/lv_draw_sw_rect.c ****     for(y = 0; y < size; y++) {
 807              		.loc 1 978 16 is_stmt 0 view .LVU291
 808 0098 4646     		mov	r6, r8
 979:Drivers/lvgl/src/draw/sw/lv_draw_sw_rect.c ****         lv_memset_ff(mask_line, size);
 809              		.loc 1 979 11 view .LVU292
 810 009a 4FF0000B 		mov	fp, #0
ARM GAS  /var/folders/0z/tsy30v1j4xl4_7kw94k978ww0000gn/T//cc0noGMx.s 			page 46


 979:Drivers/lvgl/src/draw/sw/lv_draw_sw_rect.c ****         lv_memset_ff(mask_line, size);
 811              		.loc 1 979 5 view .LVU293
 812 009e 24E0     		b	.L53
 813              	.LVL82:
 814              	.L72:
 972:Drivers/lvgl/src/draw/sw/lv_draw_sw_rect.c ****     else sw = sw_ori >> 1;
 815              		.loc 1 972 24 view .LVU294
 816 00a0 4FF00109 		mov	r9, #1
 817              	.LVL83:
 972:Drivers/lvgl/src/draw/sw/lv_draw_sw_rect.c ****     else sw = sw_ori >> 1;
 818              		.loc 1 972 24 view .LVU295
 819 00a4 F4E7     		b	.L52
 820              	.LVL84:
 821              	.L54:
 822              	.LBB126:
 823              	.LBB127:
 986:Drivers/lvgl/src/draw/sw/lv_draw_sw_rect.c ****             sh_ups_tmp_buf[0] = (mask_line[0] << SHADOW_UPSCALE_SHIFT) / sw;
 824              		.loc 1 986 13 is_stmt 1 view .LVU296
 987:Drivers/lvgl/src/draw/sw/lv_draw_sw_rect.c ****             for(i = 1; i < size; i++) {
 825              		.loc 1 987 13 view .LVU297
 987:Drivers/lvgl/src/draw/sw/lv_draw_sw_rect.c ****             for(i = 1; i < size; i++) {
 826              		.loc 1 987 43 is_stmt 0 view .LVU298
 827 00a6 2B78     		ldrb	r3, [r5]	@ zero_extendqisi2
 987:Drivers/lvgl/src/draw/sw/lv_draw_sw_rect.c ****             for(i = 1; i < size; i++) {
 828              		.loc 1 987 47 view .LVU299
 829 00a8 9B01     		lsls	r3, r3, #6
 987:Drivers/lvgl/src/draw/sw/lv_draw_sw_rect.c ****             for(i = 1; i < size; i++) {
 830              		.loc 1 987 72 view .LVU300
 831 00aa 4846     		mov	r0, r9
 832              	.LVL85:
 987:Drivers/lvgl/src/draw/sw/lv_draw_sw_rect.c ****             for(i = 1; i < size; i++) {
 833              		.loc 1 987 72 view .LVU301
 834 00ac 93FBF9F3 		sdiv	r3, r3, r9
 987:Drivers/lvgl/src/draw/sw/lv_draw_sw_rect.c ****             for(i = 1; i < size; i++) {
 835              		.loc 1 987 31 view .LVU302
 836 00b0 3380     		strh	r3, [r6]	@ movhi
 988:Drivers/lvgl/src/draw/sw/lv_draw_sw_rect.c ****                 if(mask_line[i] == mask_line[i - 1]) sh_ups_tmp_buf[i] = sh_ups_tmp_buf[i - 1];
 837              		.loc 1 988 13 is_stmt 1 view .LVU303
 838              	.LVL86:
 988:Drivers/lvgl/src/draw/sw/lv_draw_sw_rect.c ****                 if(mask_line[i] == mask_line[i - 1]) sh_ups_tmp_buf[i] = sh_ups_tmp_buf[i - 1];
 839              		.loc 1 988 19 is_stmt 0 view .LVU304
 840 00b2 0123     		movs	r3, #1
 988:Drivers/lvgl/src/draw/sw/lv_draw_sw_rect.c ****                 if(mask_line[i] == mask_line[i - 1]) sh_ups_tmp_buf[i] = sh_ups_tmp_buf[i - 1];
 841              		.loc 1 988 13 view .LVU305
 842 00b4 07E0     		b	.L56
 843              	.LVL87:
 844              	.L76:
 989:Drivers/lvgl/src/draw/sw/lv_draw_sw_rect.c ****                 else  sh_ups_tmp_buf[i] = (mask_line[i] << SHADOW_UPSCALE_SHIFT) / sw;
 845              		.loc 1 989 54 is_stmt 1 discriminator 1 view .LVU306
 989:Drivers/lvgl/src/draw/sw/lv_draw_sw_rect.c ****                 else  sh_ups_tmp_buf[i] = (mask_line[i] << SHADOW_UPSCALE_SHIFT) / sw;
 846              		.loc 1 989 88 is_stmt 0 discriminator 1 view .LVU307
 847 00b6 03F10042 		add	r2, r3, #-2147483648
 848 00ba 013A     		subs	r2, r2, #1
 849 00bc 36F81220 		ldrh	r2, [r6, r2, lsl #1]
 989:Drivers/lvgl/src/draw/sw/lv_draw_sw_rect.c ****                 else  sh_ups_tmp_buf[i] = (mask_line[i] << SHADOW_UPSCALE_SHIFT) / sw;
 850              		.loc 1 989 72 discriminator 1 view .LVU308
 851 00c0 26F81320 		strh	r2, [r6, r3, lsl #1]	@ movhi
ARM GAS  /var/folders/0z/tsy30v1j4xl4_7kw94k978ww0000gn/T//cc0noGMx.s 			page 47


 852              	.L58:
 988:Drivers/lvgl/src/draw/sw/lv_draw_sw_rect.c ****                 if(mask_line[i] == mask_line[i - 1]) sh_ups_tmp_buf[i] = sh_ups_tmp_buf[i - 1];
 853              		.loc 1 988 35 is_stmt 1 discriminator 2 view .LVU309
 854 00c4 0133     		adds	r3, r3, #1
 855              	.LVL88:
 856              	.L56:
 988:Drivers/lvgl/src/draw/sw/lv_draw_sw_rect.c ****                 if(mask_line[i] == mask_line[i - 1]) sh_ups_tmp_buf[i] = sh_ups_tmp_buf[i - 1];
 857              		.loc 1 988 26 discriminator 1 view .LVU310
 858 00c6 A342     		cmp	r3, r4
 859 00c8 0BDA     		bge	.L55
 989:Drivers/lvgl/src/draw/sw/lv_draw_sw_rect.c ****                 else  sh_ups_tmp_buf[i] = (mask_line[i] << SHADOW_UPSCALE_SHIFT) / sw;
 860              		.loc 1 989 17 view .LVU311
 989:Drivers/lvgl/src/draw/sw/lv_draw_sw_rect.c ****                 else  sh_ups_tmp_buf[i] = (mask_line[i] << SHADOW_UPSCALE_SHIFT) / sw;
 861              		.loc 1 989 29 is_stmt 0 view .LVU312
 862 00ca EA5C     		ldrb	r2, [r5, r3]	@ zero_extendqisi2
 989:Drivers/lvgl/src/draw/sw/lv_draw_sw_rect.c ****                 else  sh_ups_tmp_buf[i] = (mask_line[i] << SHADOW_UPSCALE_SHIFT) / sw;
 863              		.loc 1 989 45 view .LVU313
 864 00cc E918     		adds	r1, r5, r3
 865 00ce 11F8011C 		ldrb	r1, [r1, #-1]	@ zero_extendqisi2
 989:Drivers/lvgl/src/draw/sw/lv_draw_sw_rect.c ****                 else  sh_ups_tmp_buf[i] = (mask_line[i] << SHADOW_UPSCALE_SHIFT) / sw;
 866              		.loc 1 989 19 view .LVU314
 867 00d2 8A42     		cmp	r2, r1
 868 00d4 EFD0     		beq	.L76
 990:Drivers/lvgl/src/draw/sw/lv_draw_sw_rect.c ****             }
 869              		.loc 1 990 23 is_stmt 1 view .LVU315
 990:Drivers/lvgl/src/draw/sw/lv_draw_sw_rect.c ****             }
 870              		.loc 1 990 57 is_stmt 0 view .LVU316
 871 00d6 9201     		lsls	r2, r2, #6
 990:Drivers/lvgl/src/draw/sw/lv_draw_sw_rect.c ****             }
 872              		.loc 1 990 82 view .LVU317
 873 00d8 92FBF0F2 		sdiv	r2, r2, r0
 990:Drivers/lvgl/src/draw/sw/lv_draw_sw_rect.c ****             }
 874              		.loc 1 990 41 view .LVU318
 875 00dc 26F81320 		strh	r2, [r6, r3, lsl #1]	@ movhi
 876 00e0 F0E7     		b	.L58
 877              	.LVL89:
 878              	.L55:
 990:Drivers/lvgl/src/draw/sw/lv_draw_sw_rect.c ****             }
 879              		.loc 1 990 41 view .LVU319
 880              	.LBE127:
 994:Drivers/lvgl/src/draw/sw/lv_draw_sw_rect.c ****     }
 881              		.loc 1 994 9 is_stmt 1 discriminator 2 view .LVU320
 994:Drivers/lvgl/src/draw/sw/lv_draw_sw_rect.c ****     }
 882              		.loc 1 994 24 is_stmt 0 discriminator 2 view .LVU321
 883 00e2 06EB4406 		add	r6, r6, r4, lsl #1
 884              	.LVL90:
 994:Drivers/lvgl/src/draw/sw/lv_draw_sw_rect.c ****     }
 885              		.loc 1 994 24 discriminator 2 view .LVU322
 886              	.LBE126:
 979:Drivers/lvgl/src/draw/sw/lv_draw_sw_rect.c ****         lv_memset_ff(mask_line, size);
 887              		.loc 1 979 27 is_stmt 1 discriminator 2 view .LVU323
 888 00e6 0BF1010B 		add	fp, fp, #1
 889              	.LVL91:
 890              	.L53:
 979:Drivers/lvgl/src/draw/sw/lv_draw_sw_rect.c ****         lv_memset_ff(mask_line, size);
 891              		.loc 1 979 18 discriminator 1 view .LVU324
 892 00ea A345     		cmp	fp, r4
ARM GAS  /var/folders/0z/tsy30v1j4xl4_7kw94k978ww0000gn/T//cc0noGMx.s 			page 48


 893 00ec 13DA     		bge	.L77
 894              	.LBB128:
 980:Drivers/lvgl/src/draw/sw/lv_draw_sw_rect.c ****         lv_draw_mask_res_t mask_res = mask_param.dsc.cb(mask_line, 0, y, size, &mask_param);
 895              		.loc 1 980 9 view .LVU325
 896 00ee 2146     		mov	r1, r4
 897 00f0 2846     		mov	r0, r5
 898 00f2 FFF7FEFF 		bl	lv_memset_ff
 899              	.LVL92:
 981:Drivers/lvgl/src/draw/sw/lv_draw_sw_rect.c ****         if(mask_res == LV_DRAW_MASK_RES_TRANSP) {
 900              		.loc 1 981 9 view .LVU326
 981:Drivers/lvgl/src/draw/sw/lv_draw_sw_rect.c ****         if(mask_res == LV_DRAW_MASK_RES_TRANSP) {
 901              		.loc 1 981 39 is_stmt 0 view .LVU327
 902 00f6 02AB     		add	r3, sp, #8
 903 00f8 0093     		str	r3, [sp]
 904 00fa 23B2     		sxth	r3, r4
 905 00fc 0FFA8BF2 		sxth	r2, fp
 906 0100 0021     		movs	r1, #0
 907 0102 2846     		mov	r0, r5
 908 0104 029F     		ldr	r7, [sp, #8]
 909 0106 B847     		blx	r7
 910              	.LVL93:
 982:Drivers/lvgl/src/draw/sw/lv_draw_sw_rect.c ****             lv_memset_00(sh_ups_tmp_buf, size * sizeof(sh_ups_tmp_buf[0]));
 911              		.loc 1 982 9 is_stmt 1 view .LVU328
 982:Drivers/lvgl/src/draw/sw/lv_draw_sw_rect.c ****             lv_memset_00(sh_ups_tmp_buf, size * sizeof(sh_ups_tmp_buf[0]));
 912              		.loc 1 982 11 is_stmt 0 view .LVU329
 913 0108 0028     		cmp	r0, #0
 914 010a CCD1     		bne	.L54
 983:Drivers/lvgl/src/draw/sw/lv_draw_sw_rect.c ****         }
 915              		.loc 1 983 13 is_stmt 1 view .LVU330
 916 010c 6100     		lsls	r1, r4, #1
 917 010e 3046     		mov	r0, r6
 918              	.LVL94:
 983:Drivers/lvgl/src/draw/sw/lv_draw_sw_rect.c ****         }
 919              		.loc 1 983 13 is_stmt 0 view .LVU331
 920 0110 FFF7FEFF 		bl	lv_memset_00
 921              	.LVL95:
 922 0114 E5E7     		b	.L55
 923              	.L77:
 983:Drivers/lvgl/src/draw/sw/lv_draw_sw_rect.c ****         }
 924              		.loc 1 983 13 view .LVU332
 925              	.LBE128:
 996:Drivers/lvgl/src/draw/sw/lv_draw_sw_rect.c **** 
 926              		.loc 1 996 5 is_stmt 1 view .LVU333
 927 0116 2846     		mov	r0, r5
 928 0118 FFF7FEFF 		bl	lv_mem_buf_release
 929              	.LVL96:
 998:Drivers/lvgl/src/draw/sw/lv_draw_sw_rect.c **** 
 930              		.loc 1 998 5 view .LVU334
 931 011c 02A8     		add	r0, sp, #8
 932 011e FFF7FEFF 		bl	lv_draw_mask_free_param
 933              	.LVL97:
1000:Drivers/lvgl/src/draw/sw/lv_draw_sw_rect.c ****         int32_t i;
 934              		.loc 1 1000 5 view .LVU335
1000:Drivers/lvgl/src/draw/sw/lv_draw_sw_rect.c ****         int32_t i;
 935              		.loc 1 1000 7 is_stmt 0 view .LVU336
 936 0122 B9F1010F 		cmp	r9, #1
 937 0126 1AD0     		beq	.L78
ARM GAS  /var/folders/0z/tsy30v1j4xl4_7kw94k978ww0000gn/T//cc0noGMx.s 			page 49


1009:Drivers/lvgl/src/draw/sw/lv_draw_sw_rect.c **** 
 938              		.loc 1 1009 5 is_stmt 1 view .LVU337
 939 0128 25B2     		sxth	r5, r4
 940              	.LVL98:
1009:Drivers/lvgl/src/draw/sw/lv_draw_sw_rect.c **** 
 941              		.loc 1 1009 5 is_stmt 0 view .LVU338
 942 012a 4246     		mov	r2, r8
 943 012c 4946     		mov	r1, r9
 944 012e 2846     		mov	r0, r5
 945 0130 FFF7FEFF 		bl	shadow_blur_corner
 946              	.LVL99:
1019:Drivers/lvgl/src/draw/sw/lv_draw_sw_rect.c ****     if(sw > 1) {
 947              		.loc 1 1019 5 is_stmt 1 view .LVU339
1019:Drivers/lvgl/src/draw/sw/lv_draw_sw_rect.c ****     if(sw > 1) {
 948              		.loc 1 1019 8 is_stmt 0 view .LVU340
 949 0134 0AEB0901 		add	r1, r10, r9
 950              	.LVL100:
1020:Drivers/lvgl/src/draw/sw/lv_draw_sw_rect.c ****         uint32_t i;
 951              		.loc 1 1020 5 is_stmt 1 view .LVU341
1020:Drivers/lvgl/src/draw/sw/lv_draw_sw_rect.c ****         uint32_t i;
 952              		.loc 1 1020 7 is_stmt 0 view .LVU342
 953 0138 0129     		cmp	r1, #1
 954 013a 2ADD     		ble	.L65
 955              	.LBB129:
1021:Drivers/lvgl/src/draw/sw/lv_draw_sw_rect.c ****         uint32_t max_v_div = (LV_OPA_COVER << SHADOW_UPSCALE_SHIFT) / sw;
 956              		.loc 1 1021 9 is_stmt 1 view .LVU343
1022:Drivers/lvgl/src/draw/sw/lv_draw_sw_rect.c ****         for(i = 0; i < (uint32_t)size * size; i++) {
 957              		.loc 1 1022 9 view .LVU344
1022:Drivers/lvgl/src/draw/sw/lv_draw_sw_rect.c ****         for(i = 0; i < (uint32_t)size * size; i++) {
 958              		.loc 1 1022 69 is_stmt 0 view .LVU345
 959 013c 4FF47F56 		mov	r6, #16320
 960              	.LVL101:
1022:Drivers/lvgl/src/draw/sw/lv_draw_sw_rect.c ****         for(i = 0; i < (uint32_t)size * size; i++) {
 961              		.loc 1 1022 69 view .LVU346
 962 0140 96FBF1F6 		sdiv	r6, r6, r1
 963              	.LVL102:
1023:Drivers/lvgl/src/draw/sw/lv_draw_sw_rect.c ****             if(sh_buf[i] == 0) continue;
 964              		.loc 1 1023 9 is_stmt 1 view .LVU347
1023:Drivers/lvgl/src/draw/sw/lv_draw_sw_rect.c ****             if(sh_buf[i] == 0) continue;
 965              		.loc 1 1023 15 is_stmt 0 view .LVU348
 966 0144 0023     		movs	r3, #0
1023:Drivers/lvgl/src/draw/sw/lv_draw_sw_rect.c ****             if(sh_buf[i] == 0) continue;
 967              		.loc 1 1023 9 view .LVU349
 968 0146 0FE0     		b	.L66
 969              	.LVL103:
 970              	.L63:
1023:Drivers/lvgl/src/draw/sw/lv_draw_sw_rect.c ****             if(sh_buf[i] == 0) continue;
 971              		.loc 1 1023 9 view .LVU350
 972              	.LBE129:
 973              	.LBB130:
1004:Drivers/lvgl/src/draw/sw/lv_draw_sw_rect.c ****         }
 974              		.loc 1 1004 13 is_stmt 1 discriminator 3 view .LVU351
1004:Drivers/lvgl/src/draw/sw/lv_draw_sw_rect.c ****         }
 975              		.loc 1 1004 33 is_stmt 0 discriminator 3 view .LVU352
 976 0148 38F81320 		ldrh	r2, [r8, r3, lsl #1]
1004:Drivers/lvgl/src/draw/sw/lv_draw_sw_rect.c ****         }
 977              		.loc 1 1004 24 discriminator 3 view .LVU353
ARM GAS  /var/folders/0z/tsy30v1j4xl4_7kw94k978ww0000gn/T//cc0noGMx.s 			page 50


 978 014c 9209     		lsrs	r2, r2, #6
 979 014e 08F80320 		strb	r2, [r8, r3]
1003:Drivers/lvgl/src/draw/sw/lv_draw_sw_rect.c ****             res_buf[i] = (sh_buf[i] >> SHADOW_UPSCALE_SHIFT);
 980              		.loc 1 1003 38 is_stmt 1 discriminator 3 view .LVU354
 981 0152 0133     		adds	r3, r3, #1
 982              	.LVL104:
 983              	.L61:
1003:Drivers/lvgl/src/draw/sw/lv_draw_sw_rect.c ****             res_buf[i] = (sh_buf[i] >> SHADOW_UPSCALE_SHIFT);
 984              		.loc 1 1003 22 discriminator 1 view .LVU355
1003:Drivers/lvgl/src/draw/sw/lv_draw_sw_rect.c ****             res_buf[i] = (sh_buf[i] >> SHADOW_UPSCALE_SHIFT);
 985              		.loc 1 1003 29 is_stmt 0 discriminator 1 view .LVU356
 986 0154 04FB04F2 		mul	r2, r4, r4
1003:Drivers/lvgl/src/draw/sw/lv_draw_sw_rect.c ****             res_buf[i] = (sh_buf[i] >> SHADOW_UPSCALE_SHIFT);
 987              		.loc 1 1003 22 discriminator 1 view .LVU357
 988 0158 9A42     		cmp	r2, r3
 989 015a F5DC     		bgt	.L63
 990 015c 24E0     		b	.L51
 991              	.LVL105:
 992              	.L78:
1003:Drivers/lvgl/src/draw/sw/lv_draw_sw_rect.c ****             res_buf[i] = (sh_buf[i] >> SHADOW_UPSCALE_SHIFT);
 993              		.loc 1 1003 15 view .LVU358
 994 015e 0023     		movs	r3, #0
 995 0160 F8E7     		b	.L61
 996              	.LVL106:
 997              	.L80:
1003:Drivers/lvgl/src/draw/sw/lv_draw_sw_rect.c ****             res_buf[i] = (sh_buf[i] >> SHADOW_UPSCALE_SHIFT);
 998              		.loc 1 1003 15 view .LVU359
 999              	.LBE130:
 1000              	.LBB131:
1025:Drivers/lvgl/src/draw/sw/lv_draw_sw_rect.c ****             else  sh_buf[i] = (sh_buf[i] << SHADOW_UPSCALE_SHIFT) / sw;
 1001              		.loc 1 1025 48 is_stmt 1 discriminator 1 view .LVU360
1025:Drivers/lvgl/src/draw/sw/lv_draw_sw_rect.c ****             else  sh_buf[i] = (sh_buf[i] << SHADOW_UPSCALE_SHIFT) / sw;
 1002              		.loc 1 1025 58 is_stmt 0 discriminator 1 view .LVU361
 1003 0162 28F80060 		strh	r6, [r8, r0]	@ movhi
 1004              	.L67:
1023:Drivers/lvgl/src/draw/sw/lv_draw_sw_rect.c ****             if(sh_buf[i] == 0) continue;
 1005              		.loc 1 1023 48 is_stmt 1 discriminator 2 view .LVU362
 1006 0166 0133     		adds	r3, r3, #1
 1007              	.LVL107:
 1008              	.L66:
1023:Drivers/lvgl/src/draw/sw/lv_draw_sw_rect.c ****             if(sh_buf[i] == 0) continue;
 1009              		.loc 1 1023 22 discriminator 1 view .LVU363
1023:Drivers/lvgl/src/draw/sw/lv_draw_sw_rect.c ****             if(sh_buf[i] == 0) continue;
 1010              		.loc 1 1023 39 is_stmt 0 discriminator 1 view .LVU364
 1011 0168 04FB04F2 		mul	r2, r4, r4
1023:Drivers/lvgl/src/draw/sw/lv_draw_sw_rect.c ****             if(sh_buf[i] == 0) continue;
 1012              		.loc 1 1023 22 discriminator 1 view .LVU365
 1013 016c 9A42     		cmp	r2, r3
 1014 016e 0CD9     		bls	.L79
1024:Drivers/lvgl/src/draw/sw/lv_draw_sw_rect.c ****             else if(sh_buf[i] == LV_OPA_COVER) sh_buf[i] = max_v_div;
 1015              		.loc 1 1024 13 is_stmt 1 view .LVU366
1024:Drivers/lvgl/src/draw/sw/lv_draw_sw_rect.c ****             else if(sh_buf[i] == LV_OPA_COVER) sh_buf[i] = max_v_div;
 1016              		.loc 1 1024 22 is_stmt 0 view .LVU367
 1017 0170 5800     		lsls	r0, r3, #1
 1018 0172 38F81320 		ldrh	r2, [r8, r3, lsl #1]
1024:Drivers/lvgl/src/draw/sw/lv_draw_sw_rect.c ****             else if(sh_buf[i] == LV_OPA_COVER) sh_buf[i] = max_v_div;
 1019              		.loc 1 1024 15 view .LVU368
ARM GAS  /var/folders/0z/tsy30v1j4xl4_7kw94k978ww0000gn/T//cc0noGMx.s 			page 51


 1020 0176 002A     		cmp	r2, #0
 1021 0178 F5D0     		beq	.L67
1025:Drivers/lvgl/src/draw/sw/lv_draw_sw_rect.c ****             else  sh_buf[i] = (sh_buf[i] << SHADOW_UPSCALE_SHIFT) / sw;
 1022              		.loc 1 1025 18 is_stmt 1 view .LVU369
1025:Drivers/lvgl/src/draw/sw/lv_draw_sw_rect.c ****             else  sh_buf[i] = (sh_buf[i] << SHADOW_UPSCALE_SHIFT) / sw;
 1023              		.loc 1 1025 20 is_stmt 0 view .LVU370
 1024 017a FF2A     		cmp	r2, #255
 1025 017c F1D0     		beq	.L80
1026:Drivers/lvgl/src/draw/sw/lv_draw_sw_rect.c ****         }
 1026              		.loc 1 1026 19 is_stmt 1 view .LVU371
1026:Drivers/lvgl/src/draw/sw/lv_draw_sw_rect.c ****         }
 1027              		.loc 1 1026 42 is_stmt 0 view .LVU372
 1028 017e 9201     		lsls	r2, r2, #6
1026:Drivers/lvgl/src/draw/sw/lv_draw_sw_rect.c ****         }
 1029              		.loc 1 1026 67 view .LVU373
 1030 0180 92FBF1F2 		sdiv	r2, r2, r1
1026:Drivers/lvgl/src/draw/sw/lv_draw_sw_rect.c ****         }
 1031              		.loc 1 1026 29 view .LVU374
 1032 0184 28F80020 		strh	r2, [r8, r0]	@ movhi
 1033 0188 EDE7     		b	.L67
 1034              	.L79:
1029:Drivers/lvgl/src/draw/sw/lv_draw_sw_rect.c ****     }
 1035              		.loc 1 1029 9 is_stmt 1 view .LVU375
 1036 018a 4246     		mov	r2, r8
 1037 018c 2846     		mov	r0, r5
 1038 018e FFF7FEFF 		bl	shadow_blur_corner
 1039              	.LVL108:
 1040              	.L65:
1023:Drivers/lvgl/src/draw/sw/lv_draw_sw_rect.c ****             if(sh_buf[i] == 0) continue;
 1041              		.loc 1 1023 15 is_stmt 0 discriminator 1 view .LVU376
 1042 0192 0023     		movs	r3, #0
 1043 0194 04E0     		b	.L70
 1044              	.LVL109:
 1045              	.L71:
1023:Drivers/lvgl/src/draw/sw/lv_draw_sw_rect.c ****             if(sh_buf[i] == 0) continue;
 1046              		.loc 1 1023 15 discriminator 1 view .LVU377
 1047              	.LBE131:
1034:Drivers/lvgl/src/draw/sw/lv_draw_sw_rect.c ****     }
 1048              		.loc 1 1034 9 is_stmt 1 discriminator 3 view .LVU378
1034:Drivers/lvgl/src/draw/sw/lv_draw_sw_rect.c ****     }
 1049              		.loc 1 1034 28 is_stmt 0 discriminator 3 view .LVU379
 1050 0196 38F81320 		ldrh	r2, [r8, r3, lsl #1]
1034:Drivers/lvgl/src/draw/sw/lv_draw_sw_rect.c ****     }
 1051              		.loc 1 1034 20 discriminator 3 view .LVU380
 1052 019a 08F80320 		strb	r2, [r8, r3]
1033:Drivers/lvgl/src/draw/sw/lv_draw_sw_rect.c ****         res_buf[x] = sh_buf[x];
 1053              		.loc 1 1033 34 is_stmt 1 discriminator 3 view .LVU381
 1054 019e 0133     		adds	r3, r3, #1
 1055              	.LVL110:
 1056              	.L70:
1033:Drivers/lvgl/src/draw/sw/lv_draw_sw_rect.c ****         res_buf[x] = sh_buf[x];
 1057              		.loc 1 1033 18 discriminator 1 view .LVU382
1033:Drivers/lvgl/src/draw/sw/lv_draw_sw_rect.c ****         res_buf[x] = sh_buf[x];
 1058              		.loc 1 1033 25 is_stmt 0 discriminator 1 view .LVU383
 1059 01a0 04FB04F2 		mul	r2, r4, r4
1033:Drivers/lvgl/src/draw/sw/lv_draw_sw_rect.c ****         res_buf[x] = sh_buf[x];
 1060              		.loc 1 1033 18 discriminator 1 view .LVU384
ARM GAS  /var/folders/0z/tsy30v1j4xl4_7kw94k978ww0000gn/T//cc0noGMx.s 			page 52


 1061 01a4 9A42     		cmp	r2, r3
 1062 01a6 F6DC     		bgt	.L71
 1063              	.LVL111:
 1064              	.L51:
1038:Drivers/lvgl/src/draw/sw/lv_draw_sw_rect.c **** 
 1065              		.loc 1 1038 1 view .LVU385
 1066 01a8 0BB0     		add	sp, sp, #44
 1067              		.cfi_def_cfa_offset 36
 1068              		@ sp needed
 1069 01aa BDE8F08F 		pop	{r4, r5, r6, r7, r8, r9, r10, fp, pc}
1038:Drivers/lvgl/src/draw/sw/lv_draw_sw_rect.c **** 
 1070              		.loc 1 1038 1 view .LVU386
 1071              		.cfi_endproc
 1072              	.LFE167:
 1074              		.section	.text.draw_shadow,"ax",%progbits
 1075              		.align	1
 1076              		.syntax unified
 1077              		.thumb
 1078              		.thumb_func
 1080              	draw_shadow:
 1081              	.LVL112:
 1082              	.LFB166:
 435:Drivers/lvgl/src/draw/sw/lv_draw_sw_rect.c ****     /*Check whether the shadow is visible*/
 1083              		.loc 1 435 1 is_stmt 1 view -0
 1084              		.cfi_startproc
 1085              		@ args = 0, pretend = 0, frame = 152
 1086              		@ frame_needed = 0, uses_anonymous_args = 0
 437:Drivers/lvgl/src/draw/sw/lv_draw_sw_rect.c ****     if(dsc->shadow_opa <= LV_OPA_MIN) return;
 1087              		.loc 1 437 5 view .LVU388
 437:Drivers/lvgl/src/draw/sw/lv_draw_sw_rect.c ****     if(dsc->shadow_opa <= LV_OPA_MIN) return;
 1088              		.loc 1 437 11 is_stmt 0 view .LVU389
 1089 0000 B1F92E30 		ldrsh	r3, [r1, #46]
 437:Drivers/lvgl/src/draw/sw/lv_draw_sw_rect.c ****     if(dsc->shadow_opa <= LV_OPA_MIN) return;
 1090              		.loc 1 437 7 view .LVU390
 1091 0004 002B     		cmp	r3, #0
 1092 0006 00F0CC86 		beq	.L178
 435:Drivers/lvgl/src/draw/sw/lv_draw_sw_rect.c ****     /*Check whether the shadow is visible*/
 1093              		.loc 1 435 1 view .LVU391
 1094 000a 2DE9F04F 		push	{r4, r5, r6, r7, r8, r9, r10, fp, lr}
 1095              		.cfi_def_cfa_offset 36
 1096              		.cfi_offset 4, -36
 1097              		.cfi_offset 5, -32
 1098              		.cfi_offset 6, -28
 1099              		.cfi_offset 7, -24
 1100              		.cfi_offset 8, -20
 1101              		.cfi_offset 9, -16
 1102              		.cfi_offset 10, -12
 1103              		.cfi_offset 11, -8
 1104              		.cfi_offset 14, -4
 1105 000e A7B0     		sub	sp, sp, #156
 1106              		.cfi_def_cfa_offset 192
 1107 0010 0646     		mov	r6, r0
 1108 0012 0D46     		mov	r5, r1
 1109 0014 1446     		mov	r4, r2
 438:Drivers/lvgl/src/draw/sw/lv_draw_sw_rect.c **** 
 1110              		.loc 1 438 5 is_stmt 1 view .LVU392
 438:Drivers/lvgl/src/draw/sw/lv_draw_sw_rect.c **** 
ARM GAS  /var/folders/0z/tsy30v1j4xl4_7kw94k978ww0000gn/T//cc0noGMx.s 			page 53


 1111              		.loc 1 438 11 is_stmt 0 view .LVU393
 1112 0016 91F83690 		ldrb	r9, [r1, #54]	@ zero_extendqisi2
 438:Drivers/lvgl/src/draw/sw/lv_draw_sw_rect.c **** 
 1113              		.loc 1 438 7 view .LVU394
 1114 001a B9F1020F 		cmp	r9, #2
 1115 001e 49D9     		bls	.L81
 440:Drivers/lvgl/src/draw/sw/lv_draw_sw_rect.c ****        dsc->shadow_ofs_x == 0 && dsc->shadow_ofs_y == 0) {
 1116              		.loc 1 440 5 is_stmt 1 view .LVU395
 440:Drivers/lvgl/src/draw/sw/lv_draw_sw_rect.c ****        dsc->shadow_ofs_x == 0 && dsc->shadow_ofs_y == 0) {
 1117              		.loc 1 440 7 is_stmt 0 view .LVU396
 1118 0020 012B     		cmp	r3, #1
 1119 0022 4AD0     		beq	.L181
 1120              	.LVL113:
 1121              	.L83:
 446:Drivers/lvgl/src/draw/sw/lv_draw_sw_rect.c ****     core_area.x1 = coords->x1  + dsc->shadow_ofs_x - dsc->shadow_spread;
 1122              		.loc 1 446 5 is_stmt 1 view .LVU397
 447:Drivers/lvgl/src/draw/sw/lv_draw_sw_rect.c ****     core_area.x2 = coords->x2  + dsc->shadow_ofs_x + dsc->shadow_spread;
 1123              		.loc 1 447 5 view .LVU398
 447:Drivers/lvgl/src/draw/sw/lv_draw_sw_rect.c ****     core_area.x2 = coords->x2  + dsc->shadow_ofs_x + dsc->shadow_spread;
 1124              		.loc 1 447 26 is_stmt 0 view .LVU399
 1125 0024 2288     		ldrh	r2, [r4]
 447:Drivers/lvgl/src/draw/sw/lv_draw_sw_rect.c ****     core_area.x2 = coords->x2  + dsc->shadow_ofs_x + dsc->shadow_spread;
 1126              		.loc 1 447 37 view .LVU400
 1127 0026 298E     		ldrh	r1, [r5, #48]
 1128              	.LVL114:
 447:Drivers/lvgl/src/draw/sw/lv_draw_sw_rect.c ****     core_area.x2 = coords->x2  + dsc->shadow_ofs_x + dsc->shadow_spread;
 1129              		.loc 1 447 32 view .LVU401
 1130 0028 0A44     		add	r2, r2, r1
 1131 002a 92B2     		uxth	r2, r2
 447:Drivers/lvgl/src/draw/sw/lv_draw_sw_rect.c ****     core_area.x2 = coords->x2  + dsc->shadow_ofs_x + dsc->shadow_spread;
 1132              		.loc 1 447 57 view .LVU402
 1133 002c B5F834E0 		ldrh	lr, [r5, #52]
 447:Drivers/lvgl/src/draw/sw/lv_draw_sw_rect.c ****     core_area.x2 = coords->x2  + dsc->shadow_ofs_x + dsc->shadow_spread;
 1134              		.loc 1 447 52 view .LVU403
 1135 0030 A2EB0E02 		sub	r2, r2, lr
 1136 0034 1FFA82FC 		uxth	ip, r2
 447:Drivers/lvgl/src/draw/sw/lv_draw_sw_rect.c ****     core_area.x2 = coords->x2  + dsc->shadow_ofs_x + dsc->shadow_spread;
 1137              		.loc 1 447 18 view .LVU404
 1138 0038 ADF89020 		strh	r2, [sp, #144]	@ movhi
 448:Drivers/lvgl/src/draw/sw/lv_draw_sw_rect.c ****     core_area.y1 = coords->y1  + dsc->shadow_ofs_y - dsc->shadow_spread;
 1139              		.loc 1 448 5 is_stmt 1 view .LVU405
 448:Drivers/lvgl/src/draw/sw/lv_draw_sw_rect.c ****     core_area.y1 = coords->y1  + dsc->shadow_ofs_y - dsc->shadow_spread;
 1140              		.loc 1 448 26 is_stmt 0 view .LVU406
 1141 003c A288     		ldrh	r2, [r4, #4]
 448:Drivers/lvgl/src/draw/sw/lv_draw_sw_rect.c ****     core_area.y1 = coords->y1  + dsc->shadow_ofs_y - dsc->shadow_spread;
 1142              		.loc 1 448 32 view .LVU407
 1143 003e 1144     		add	r1, r1, r2
 448:Drivers/lvgl/src/draw/sw/lv_draw_sw_rect.c ****     core_area.y1 = coords->y1  + dsc->shadow_ofs_y - dsc->shadow_spread;
 1144              		.loc 1 448 52 view .LVU408
 1145 0040 1EFA81F1 		uxtah	r1, lr, r1
 448:Drivers/lvgl/src/draw/sw/lv_draw_sw_rect.c ****     core_area.y1 = coords->y1  + dsc->shadow_ofs_y - dsc->shadow_spread;
 1146              		.loc 1 448 18 view .LVU409
 1147 0044 ADF89410 		strh	r1, [sp, #148]	@ movhi
 449:Drivers/lvgl/src/draw/sw/lv_draw_sw_rect.c ****     core_area.y2 = coords->y2  + dsc->shadow_ofs_y + dsc->shadow_spread;
 1148              		.loc 1 449 5 is_stmt 1 view .LVU410
 449:Drivers/lvgl/src/draw/sw/lv_draw_sw_rect.c ****     core_area.y2 = coords->y2  + dsc->shadow_ofs_y + dsc->shadow_spread;
 1149              		.loc 1 449 26 is_stmt 0 view .LVU411
ARM GAS  /var/folders/0z/tsy30v1j4xl4_7kw94k978ww0000gn/T//cc0noGMx.s 			page 54


 1150 0048 6088     		ldrh	r0, [r4, #2]
 1151              	.LVL115:
 449:Drivers/lvgl/src/draw/sw/lv_draw_sw_rect.c ****     core_area.y2 = coords->y2  + dsc->shadow_ofs_y + dsc->shadow_spread;
 1152              		.loc 1 449 37 view .LVU412
 1153 004a 6A8E     		ldrh	r2, [r5, #50]
 449:Drivers/lvgl/src/draw/sw/lv_draw_sw_rect.c ****     core_area.y2 = coords->y2  + dsc->shadow_ofs_y + dsc->shadow_spread;
 1154              		.loc 1 449 32 view .LVU413
 1155 004c 1044     		add	r0, r0, r2
 1156 004e 80B2     		uxth	r0, r0
 449:Drivers/lvgl/src/draw/sw/lv_draw_sw_rect.c ****     core_area.y2 = coords->y2  + dsc->shadow_ofs_y + dsc->shadow_spread;
 1157              		.loc 1 449 52 view .LVU414
 1158 0050 A0EB0E00 		sub	r0, r0, lr
 1159 0054 87B2     		uxth	r7, r0
 449:Drivers/lvgl/src/draw/sw/lv_draw_sw_rect.c ****     core_area.y2 = coords->y2  + dsc->shadow_ofs_y + dsc->shadow_spread;
 1160              		.loc 1 449 18 view .LVU415
 1161 0056 ADF89200 		strh	r0, [sp, #146]	@ movhi
 450:Drivers/lvgl/src/draw/sw/lv_draw_sw_rect.c **** 
 1162              		.loc 1 450 5 is_stmt 1 view .LVU416
 450:Drivers/lvgl/src/draw/sw/lv_draw_sw_rect.c **** 
 1163              		.loc 1 450 26 is_stmt 0 view .LVU417
 1164 005a E088     		ldrh	r0, [r4, #6]
 450:Drivers/lvgl/src/draw/sw/lv_draw_sw_rect.c **** 
 1165              		.loc 1 450 32 view .LVU418
 1166 005c 0244     		add	r2, r2, r0
 450:Drivers/lvgl/src/draw/sw/lv_draw_sw_rect.c **** 
 1167              		.loc 1 450 52 view .LVU419
 1168 005e 1EFA82F2 		uxtah	r2, lr, r2
 450:Drivers/lvgl/src/draw/sw/lv_draw_sw_rect.c **** 
 1169              		.loc 1 450 18 view .LVU420
 1170 0062 ADF89620 		strh	r2, [sp, #150]	@ movhi
 453:Drivers/lvgl/src/draw/sw/lv_draw_sw_rect.c ****     shadow_area.x1 = core_area.x1 - dsc->shadow_width / 2 - 1;
 1171              		.loc 1 453 5 is_stmt 1 view .LVU421
 454:Drivers/lvgl/src/draw/sw/lv_draw_sw_rect.c ****     shadow_area.x2 = core_area.x2 + dsc->shadow_width / 2 + 1;
 1172              		.loc 1 454 5 view .LVU422
 454:Drivers/lvgl/src/draw/sw/lv_draw_sw_rect.c ****     shadow_area.x2 = core_area.x2 + dsc->shadow_width / 2 + 1;
 1173              		.loc 1 454 35 is_stmt 0 view .LVU423
 1174 0066 03EBD373 		add	r3, r3, r3, lsr #31
 1175 006a C3F34F03 		ubfx	r3, r3, #1, #16
 1176 006e ACEB0300 		sub	r0, ip, r3
 1177 0072 80B2     		uxth	r0, r0
 454:Drivers/lvgl/src/draw/sw/lv_draw_sw_rect.c ****     shadow_area.x2 = core_area.x2 + dsc->shadow_width / 2 + 1;
 1178              		.loc 1 454 59 view .LVU424
 1179 0074 0138     		subs	r0, r0, #1
 454:Drivers/lvgl/src/draw/sw/lv_draw_sw_rect.c ****     shadow_area.x2 = core_area.x2 + dsc->shadow_width / 2 + 1;
 1180              		.loc 1 454 20 view .LVU425
 1181 0076 ADF88800 		strh	r0, [sp, #136]	@ movhi
 455:Drivers/lvgl/src/draw/sw/lv_draw_sw_rect.c ****     shadow_area.y1 = core_area.y1 - dsc->shadow_width / 2 - 1;
 1182              		.loc 1 455 5 is_stmt 1 view .LVU426
 455:Drivers/lvgl/src/draw/sw/lv_draw_sw_rect.c ****     shadow_area.y1 = core_area.y1 - dsc->shadow_width / 2 - 1;
 1183              		.loc 1 455 35 is_stmt 0 view .LVU427
 1184 007a 13FA81F1 		uxtah	r1, r3, r1
 1185 007e 89B2     		uxth	r1, r1
 455:Drivers/lvgl/src/draw/sw/lv_draw_sw_rect.c ****     shadow_area.y1 = core_area.y1 - dsc->shadow_width / 2 - 1;
 1186              		.loc 1 455 59 view .LVU428
 1187 0080 0131     		adds	r1, r1, #1
 455:Drivers/lvgl/src/draw/sw/lv_draw_sw_rect.c ****     shadow_area.y1 = core_area.y1 - dsc->shadow_width / 2 - 1;
 1188              		.loc 1 455 20 view .LVU429
ARM GAS  /var/folders/0z/tsy30v1j4xl4_7kw94k978ww0000gn/T//cc0noGMx.s 			page 55


 1189 0082 ADF88C10 		strh	r1, [sp, #140]	@ movhi
 456:Drivers/lvgl/src/draw/sw/lv_draw_sw_rect.c ****     shadow_area.y2 = core_area.y2 + dsc->shadow_width / 2 + 1;
 1190              		.loc 1 456 5 is_stmt 1 view .LVU430
 456:Drivers/lvgl/src/draw/sw/lv_draw_sw_rect.c ****     shadow_area.y2 = core_area.y2 + dsc->shadow_width / 2 + 1;
 1191              		.loc 1 456 35 is_stmt 0 view .LVU431
 1192 0086 F91A     		subs	r1, r7, r3
 1193 0088 89B2     		uxth	r1, r1
 456:Drivers/lvgl/src/draw/sw/lv_draw_sw_rect.c ****     shadow_area.y2 = core_area.y2 + dsc->shadow_width / 2 + 1;
 1194              		.loc 1 456 59 view .LVU432
 1195 008a 0139     		subs	r1, r1, #1
 456:Drivers/lvgl/src/draw/sw/lv_draw_sw_rect.c ****     shadow_area.y2 = core_area.y2 + dsc->shadow_width / 2 + 1;
 1196              		.loc 1 456 20 view .LVU433
 1197 008c ADF88A10 		strh	r1, [sp, #138]	@ movhi
 457:Drivers/lvgl/src/draw/sw/lv_draw_sw_rect.c **** 
 1198              		.loc 1 457 5 is_stmt 1 view .LVU434
 457:Drivers/lvgl/src/draw/sw/lv_draw_sw_rect.c **** 
 1199              		.loc 1 457 35 is_stmt 0 view .LVU435
 1200 0090 13FA82F3 		uxtah	r3, r3, r2
 1201 0094 9BB2     		uxth	r3, r3
 457:Drivers/lvgl/src/draw/sw/lv_draw_sw_rect.c **** 
 1202              		.loc 1 457 59 view .LVU436
 1203 0096 0133     		adds	r3, r3, #1
 457:Drivers/lvgl/src/draw/sw/lv_draw_sw_rect.c **** 
 1204              		.loc 1 457 20 view .LVU437
 1205 0098 ADF88E30 		strh	r3, [sp, #142]	@ movhi
 459:Drivers/lvgl/src/draw/sw/lv_draw_sw_rect.c ****     if(opa > LV_OPA_MAX) opa = LV_OPA_COVER;
 1206              		.loc 1 459 5 is_stmt 1 view .LVU438
 1207              	.LVL116:
 460:Drivers/lvgl/src/draw/sw/lv_draw_sw_rect.c **** 
 1208              		.loc 1 460 5 view .LVU439
 460:Drivers/lvgl/src/draw/sw/lv_draw_sw_rect.c **** 
 1209              		.loc 1 460 7 is_stmt 0 view .LVU440
 1210 009c B9F1FD0F 		cmp	r9, #253
 1211 00a0 01D9     		bls	.L84
 460:Drivers/lvgl/src/draw/sw/lv_draw_sw_rect.c **** 
 1212              		.loc 1 460 30 view .LVU441
 1213 00a2 4FF0FF09 		mov	r9, #255
 1214              	.LVL117:
 1215              	.L84:
 464:Drivers/lvgl/src/draw/sw/lv_draw_sw_rect.c ****     if(!_lv_area_intersect(&draw_area, &shadow_area, draw_ctx->clip_area)) return;
 1216              		.loc 1 464 5 is_stmt 1 view .LVU442
 465:Drivers/lvgl/src/draw/sw/lv_draw_sw_rect.c **** 
 1217              		.loc 1 465 5 view .LVU443
 465:Drivers/lvgl/src/draw/sw/lv_draw_sw_rect.c **** 
 1218              		.loc 1 465 9 is_stmt 0 view .LVU444
 1219 00a6 B268     		ldr	r2, [r6, #8]
 1220 00a8 22A9     		add	r1, sp, #136
 1221 00aa 20A8     		add	r0, sp, #128
 1222 00ac FFF7FEFF 		bl	_lv_area_intersect
 1223              	.LVL118:
 465:Drivers/lvgl/src/draw/sw/lv_draw_sw_rect.c **** 
 1224              		.loc 1 465 7 view .LVU445
 1225 00b0 0090     		str	r0, [sp]
 1226 00b2 50B9     		cbnz	r0, .L182
 1227              	.LVL119:
 1228              	.L81:
 944:Drivers/lvgl/src/draw/sw/lv_draw_sw_rect.c **** 
ARM GAS  /var/folders/0z/tsy30v1j4xl4_7kw94k978ww0000gn/T//cc0noGMx.s 			page 56


 1229              		.loc 1 944 1 view .LVU446
 1230 00b4 27B0     		add	sp, sp, #156
 1231              		.cfi_remember_state
 1232              		.cfi_def_cfa_offset 36
 1233              		@ sp needed
 1234 00b6 BDE8F08F 		pop	{r4, r5, r6, r7, r8, r9, r10, fp, pc}
 1235              	.LVL120:
 1236              	.L181:
 1237              		.cfi_restore_state
 440:Drivers/lvgl/src/draw/sw/lv_draw_sw_rect.c ****        dsc->shadow_ofs_x == 0 && dsc->shadow_ofs_y == 0) {
 1238              		.loc 1 440 37 discriminator 1 view .LVU447
 1239 00ba B1F93420 		ldrsh	r2, [r1, #52]
 1240              	.LVL121:
 440:Drivers/lvgl/src/draw/sw/lv_draw_sw_rect.c ****        dsc->shadow_ofs_x == 0 && dsc->shadow_ofs_y == 0) {
 1241              		.loc 1 440 31 discriminator 1 view .LVU448
 1242 00be 002A     		cmp	r2, #0
 1243 00c0 B0DC     		bgt	.L83
 441:Drivers/lvgl/src/draw/sw/lv_draw_sw_rect.c ****         return;
 1244              		.loc 1 441 31 view .LVU449
 1245 00c2 0A6B     		ldr	r2, [r1, #48]
 1246 00c4 002A     		cmp	r2, #0
 1247 00c6 ADD1     		bne	.L83
 1248 00c8 F4E7     		b	.L81
 1249              	.LVL122:
 1250              	.L182:
 468:Drivers/lvgl/src/draw/sw/lv_draw_sw_rect.c ****     lv_area_copy(&bg_area, coords);
 1251              		.loc 1 468 5 is_stmt 1 view .LVU450
 469:Drivers/lvgl/src/draw/sw/lv_draw_sw_rect.c ****     lv_area_increase(&bg_area, -1, -1);
 1252              		.loc 1 469 5 view .LVU451
 1253              	.LBB132:
 1254              	.LBI132:
 110:Drivers/lvgl/src/draw/sw/../../misc/lv_area.h **** {
 1255              		.loc 2 110 20 view .LVU452
 1256              	.LBB133:
 112:Drivers/lvgl/src/draw/sw/../../misc/lv_area.h ****     dest->y1 = src->y1;
 1257              		.loc 2 112 5 view .LVU453
 112:Drivers/lvgl/src/draw/sw/../../misc/lv_area.h ****     dest->y1 = src->y1;
 1258              		.loc 2 112 19 is_stmt 0 view .LVU454
 1259 00ca B4F90030 		ldrsh	r3, [r4]
 112:Drivers/lvgl/src/draw/sw/../../misc/lv_area.h ****     dest->y1 = src->y1;
 1260              		.loc 2 112 14 view .LVU455
 1261 00ce ADF87830 		strh	r3, [sp, #120]	@ movhi
 113:Drivers/lvgl/src/draw/sw/../../misc/lv_area.h ****     dest->x2 = src->x2;
 1262              		.loc 2 113 5 is_stmt 1 view .LVU456
 113:Drivers/lvgl/src/draw/sw/../../misc/lv_area.h ****     dest->x2 = src->x2;
 1263              		.loc 2 113 19 is_stmt 0 view .LVU457
 1264 00d2 B4F90230 		ldrsh	r3, [r4, #2]
 113:Drivers/lvgl/src/draw/sw/../../misc/lv_area.h ****     dest->x2 = src->x2;
 1265              		.loc 2 113 14 view .LVU458
 1266 00d6 ADF87A30 		strh	r3, [sp, #122]	@ movhi
 114:Drivers/lvgl/src/draw/sw/../../misc/lv_area.h ****     dest->y2 = src->y2;
 1267              		.loc 2 114 5 is_stmt 1 view .LVU459
 114:Drivers/lvgl/src/draw/sw/../../misc/lv_area.h ****     dest->y2 = src->y2;
 1268              		.loc 2 114 19 is_stmt 0 view .LVU460
 1269 00da B4F90430 		ldrsh	r3, [r4, #4]
 114:Drivers/lvgl/src/draw/sw/../../misc/lv_area.h ****     dest->y2 = src->y2;
 1270              		.loc 2 114 14 view .LVU461
ARM GAS  /var/folders/0z/tsy30v1j4xl4_7kw94k978ww0000gn/T//cc0noGMx.s 			page 57


 1271 00de ADF87C30 		strh	r3, [sp, #124]	@ movhi
 115:Drivers/lvgl/src/draw/sw/../../misc/lv_area.h **** }
 1272              		.loc 2 115 5 is_stmt 1 view .LVU462
 115:Drivers/lvgl/src/draw/sw/../../misc/lv_area.h **** }
 1273              		.loc 2 115 19 is_stmt 0 view .LVU463
 1274 00e2 B4F90630 		ldrsh	r3, [r4, #6]
 115:Drivers/lvgl/src/draw/sw/../../misc/lv_area.h **** }
 1275              		.loc 2 115 14 view .LVU464
 1276 00e6 ADF87E30 		strh	r3, [sp, #126]	@ movhi
 1277              	.LVL123:
 115:Drivers/lvgl/src/draw/sw/../../misc/lv_area.h **** }
 1278              		.loc 2 115 14 view .LVU465
 1279              	.LBE133:
 1280              	.LBE132:
 470:Drivers/lvgl/src/draw/sw/lv_draw_sw_rect.c **** 
 1281              		.loc 1 470 5 is_stmt 1 view .LVU466
 1282 00ea 4FF0FF32 		mov	r2, #-1
 1283 00ee 1146     		mov	r1, r2
 1284 00f0 1EA8     		add	r0, sp, #120
 1285 00f2 FFF7FEFF 		bl	lv_area_increase
 1286              	.LVL124:
 473:Drivers/lvgl/src/draw/sw/lv_draw_sw_rect.c ****     lv_coord_t short_side = LV_MIN(lv_area_get_width(&bg_area), lv_area_get_height(&bg_area));
 1287              		.loc 1 473 5 view .LVU467
 473:Drivers/lvgl/src/draw/sw/lv_draw_sw_rect.c ****     lv_coord_t short_side = LV_MIN(lv_area_get_width(&bg_area), lv_area_get_height(&bg_area));
 1288              		.loc 1 473 23 is_stmt 0 view .LVU468
 1289 00f6 B5F90020 		ldrsh	r2, [r5]
 1290              	.LVL125:
 474:Drivers/lvgl/src/draw/sw/lv_draw_sw_rect.c ****     if(r_bg > short_side >> 1) r_bg = short_side >> 1;
 1291              		.loc 1 474 5 is_stmt 1 view .LVU469
 1292              	.LBB134:
 1293              	.LBI134:
 123:Drivers/lvgl/src/draw/sw/../../misc/lv_area.h **** {
 1294              		.loc 2 123 26 view .LVU470
 1295              	.LBB135:
 125:Drivers/lvgl/src/draw/sw/../../misc/lv_area.h **** }
 1296              		.loc 2 125 5 view .LVU471
 125:Drivers/lvgl/src/draw/sw/../../misc/lv_area.h **** }
 1297              		.loc 2 125 31 is_stmt 0 view .LVU472
 1298 00fa BDF87C10 		ldrh	r1, [sp, #124]
 125:Drivers/lvgl/src/draw/sw/../../misc/lv_area.h **** }
 1299              		.loc 2 125 44 view .LVU473
 1300 00fe BDF87830 		ldrh	r3, [sp, #120]
 125:Drivers/lvgl/src/draw/sw/../../misc/lv_area.h **** }
 1301              		.loc 2 125 36 view .LVU474
 1302 0102 C91A     		subs	r1, r1, r3
 1303 0104 89B2     		uxth	r1, r1
 125:Drivers/lvgl/src/draw/sw/../../misc/lv_area.h **** }
 1304              		.loc 2 125 49 view .LVU475
 1305 0106 0131     		adds	r1, r1, #1
 125:Drivers/lvgl/src/draw/sw/../../misc/lv_area.h **** }
 1306              		.loc 2 125 12 view .LVU476
 1307 0108 09B2     		sxth	r1, r1
 1308              	.LVL126:
 125:Drivers/lvgl/src/draw/sw/../../misc/lv_area.h **** }
 1309              		.loc 2 125 12 view .LVU477
 1310              	.LBE135:
 1311              	.LBE134:
ARM GAS  /var/folders/0z/tsy30v1j4xl4_7kw94k978ww0000gn/T//cc0noGMx.s 			page 58


 1312              	.LBB136:
 1313              	.LBI136:
 133:Drivers/lvgl/src/draw/sw/../../misc/lv_area.h **** {
 1314              		.loc 2 133 26 is_stmt 1 view .LVU478
 1315              	.LBB137:
 1316              		.loc 2 135 5 view .LVU479
 1317              		.loc 2 135 31 is_stmt 0 view .LVU480
 1318 010a BDF87E30 		ldrh	r3, [sp, #126]
 1319              		.loc 2 135 44 view .LVU481
 1320 010e BDF87A00 		ldrh	r0, [sp, #122]
 1321              		.loc 2 135 36 view .LVU482
 1322 0112 1B1A     		subs	r3, r3, r0
 1323 0114 9BB2     		uxth	r3, r3
 1324              		.loc 2 135 49 view .LVU483
 1325 0116 0133     		adds	r3, r3, #1
 1326              		.loc 2 135 12 view .LVU484
 1327 0118 1BB2     		sxth	r3, r3
 1328              	.LVL127:
 1329              		.loc 2 135 12 view .LVU485
 1330              	.LBE137:
 1331              	.LBE136:
 474:Drivers/lvgl/src/draw/sw/lv_draw_sw_rect.c ****     if(r_bg > short_side >> 1) r_bg = short_side >> 1;
 1332              		.loc 1 474 16 view .LVU486
 1333 011a 9942     		cmp	r1, r3
 1334 011c 00DA     		bge	.L85
 474:Drivers/lvgl/src/draw/sw/lv_draw_sw_rect.c ****     if(r_bg > short_side >> 1) r_bg = short_side >> 1;
 1335              		.loc 1 474 29 view .LVU487
 1336 011e 0B46     		mov	r3, r1
 1337              	.L85:
 1338              	.LVL128:
 475:Drivers/lvgl/src/draw/sw/lv_draw_sw_rect.c **** 
 1339              		.loc 1 475 5 is_stmt 1 discriminator 4 view .LVU488
 475:Drivers/lvgl/src/draw/sw/lv_draw_sw_rect.c **** 
 1340              		.loc 1 475 26 is_stmt 0 discriminator 4 view .LVU489
 1341 0120 5910     		asrs	r1, r3, #1
 1342 0122 0191     		str	r1, [sp, #4]
 475:Drivers/lvgl/src/draw/sw/lv_draw_sw_rect.c **** 
 1343              		.loc 1 475 7 discriminator 4 view .LVU490
 1344 0124 B2EB630F 		cmp	r2, r3, asr #1
 1345 0128 00DC     		bgt	.L86
 473:Drivers/lvgl/src/draw/sw/lv_draw_sw_rect.c ****     lv_coord_t short_side = LV_MIN(lv_area_get_width(&bg_area), lv_area_get_height(&bg_area));
 1346              		.loc 1 473 13 view .LVU491
 1347 012a 0192     		str	r2, [sp, #4]
 1348              	.L86:
 1349              	.LVL129:
 478:Drivers/lvgl/src/draw/sw/lv_draw_sw_rect.c ****     short_side = LV_MIN(lv_area_get_width(&core_area), lv_area_get_height(&core_area));
 1350              		.loc 1 478 5 is_stmt 1 view .LVU492
 479:Drivers/lvgl/src/draw/sw/lv_draw_sw_rect.c ****     if(r_sh > short_side >> 1) r_sh = short_side >> 1;
 1351              		.loc 1 479 5 view .LVU493
 1352              	.LBB138:
 1353              	.LBI138:
 123:Drivers/lvgl/src/draw/sw/../../misc/lv_area.h **** {
 1354              		.loc 2 123 26 view .LVU494
 1355              	.LBB139:
 125:Drivers/lvgl/src/draw/sw/../../misc/lv_area.h **** }
 1356              		.loc 2 125 5 view .LVU495
 125:Drivers/lvgl/src/draw/sw/../../misc/lv_area.h **** }
ARM GAS  /var/folders/0z/tsy30v1j4xl4_7kw94k978ww0000gn/T//cc0noGMx.s 			page 59


 1357              		.loc 2 125 31 is_stmt 0 view .LVU496
 1358 012c BDF89410 		ldrh	r1, [sp, #148]
 125:Drivers/lvgl/src/draw/sw/../../misc/lv_area.h **** }
 1359              		.loc 2 125 44 view .LVU497
 1360 0130 BDF89030 		ldrh	r3, [sp, #144]
 1361              	.LVL130:
 125:Drivers/lvgl/src/draw/sw/../../misc/lv_area.h **** }
 1362              		.loc 2 125 36 view .LVU498
 1363 0134 C91A     		subs	r1, r1, r3
 1364 0136 89B2     		uxth	r1, r1
 125:Drivers/lvgl/src/draw/sw/../../misc/lv_area.h **** }
 1365              		.loc 2 125 49 view .LVU499
 1366 0138 0131     		adds	r1, r1, #1
 125:Drivers/lvgl/src/draw/sw/../../misc/lv_area.h **** }
 1367              		.loc 2 125 12 view .LVU500
 1368 013a 09B2     		sxth	r1, r1
 1369              	.LVL131:
 125:Drivers/lvgl/src/draw/sw/../../misc/lv_area.h **** }
 1370              		.loc 2 125 12 view .LVU501
 1371              	.LBE139:
 1372              	.LBE138:
 1373              	.LBB140:
 1374              	.LBI140:
 133:Drivers/lvgl/src/draw/sw/../../misc/lv_area.h **** {
 1375              		.loc 2 133 26 is_stmt 1 view .LVU502
 1376              	.LBB141:
 1377              		.loc 2 135 5 view .LVU503
 1378              		.loc 2 135 31 is_stmt 0 view .LVU504
 1379 013c BDF89630 		ldrh	r3, [sp, #150]
 1380              		.loc 2 135 44 view .LVU505
 1381 0140 BDF89200 		ldrh	r0, [sp, #146]
 1382              		.loc 2 135 36 view .LVU506
 1383 0144 1B1A     		subs	r3, r3, r0
 1384 0146 9BB2     		uxth	r3, r3
 1385              		.loc 2 135 49 view .LVU507
 1386 0148 0133     		adds	r3, r3, #1
 1387              		.loc 2 135 12 view .LVU508
 1388 014a 1BB2     		sxth	r3, r3
 1389              	.LVL132:
 1390              		.loc 2 135 12 view .LVU509
 1391              	.LBE141:
 1392              	.LBE140:
 479:Drivers/lvgl/src/draw/sw/lv_draw_sw_rect.c ****     if(r_sh > short_side >> 1) r_sh = short_side >> 1;
 1393              		.loc 1 479 16 view .LVU510
 1394 014c 8B42     		cmp	r3, r1
 1395 014e 00DD     		ble	.L87
 479:Drivers/lvgl/src/draw/sw/lv_draw_sw_rect.c ****     if(r_sh > short_side >> 1) r_sh = short_side >> 1;
 1396              		.loc 1 479 18 view .LVU511
 1397 0150 0B46     		mov	r3, r1
 1398              	.L87:
 1399              	.LVL133:
 480:Drivers/lvgl/src/draw/sw/lv_draw_sw_rect.c **** 
 1400              		.loc 1 480 5 is_stmt 1 discriminator 4 view .LVU512
 480:Drivers/lvgl/src/draw/sw/lv_draw_sw_rect.c **** 
 1401              		.loc 1 480 26 is_stmt 0 discriminator 4 view .LVU513
 1402 0152 5F10     		asrs	r7, r3, #1
 480:Drivers/lvgl/src/draw/sw/lv_draw_sw_rect.c **** 
ARM GAS  /var/folders/0z/tsy30v1j4xl4_7kw94k978ww0000gn/T//cc0noGMx.s 			page 60


 1403              		.loc 1 480 7 discriminator 4 view .LVU514
 1404 0154 B2EB630F 		cmp	r2, r3, asr #1
 1405 0158 00DC     		bgt	.L88
 478:Drivers/lvgl/src/draw/sw/lv_draw_sw_rect.c ****     short_side = LV_MIN(lv_area_get_width(&core_area), lv_area_get_height(&core_area));
 1406              		.loc 1 478 13 view .LVU515
 1407 015a 1746     		mov	r7, r2
 1408              	.L88:
 1409              	.LVL134:
 484:Drivers/lvgl/src/draw/sw/lv_draw_sw_rect.c **** 
 1410              		.loc 1 484 5 is_stmt 1 view .LVU516
 484:Drivers/lvgl/src/draw/sw/lv_draw_sw_rect.c **** 
 1411              		.loc 1 484 30 is_stmt 0 view .LVU517
 1412 015c B5F92E40 		ldrsh	r4, [r5, #46]
 1413              	.LVL135:
 484:Drivers/lvgl/src/draw/sw/lv_draw_sw_rect.c **** 
 1414              		.loc 1 484 13 view .LVU518
 1415 0160 3C44     		add	r4, r4, r7
 1416              	.LVL136:
 486:Drivers/lvgl/src/draw/sw/lv_draw_sw_rect.c **** 
 1417              		.loc 1 486 5 is_stmt 1 view .LVU519
 507:Drivers/lvgl/src/draw/sw/lv_draw_sw_rect.c ****     shadow_draw_corner_buf(&core_area, (uint16_t *)sh_buf, dsc->shadow_width, r_sh);
 1418              		.loc 1 507 5 view .LVU520
 507:Drivers/lvgl/src/draw/sw/lv_draw_sw_rect.c ****     shadow_draw_corner_buf(&core_area, (uint16_t *)sh_buf, dsc->shadow_width, r_sh);
 1419              		.loc 1 507 41 is_stmt 0 view .LVU521
 1420 0162 04FB04F0 		mul	r0, r4, r4
 507:Drivers/lvgl/src/draw/sw/lv_draw_sw_rect.c ****     shadow_draw_corner_buf(&core_area, (uint16_t *)sh_buf, dsc->shadow_width, r_sh);
 1421              		.loc 1 507 14 view .LVU522
 1422 0166 4000     		lsls	r0, r0, #1
 1423 0168 FFF7FEFF 		bl	lv_mem_buf_get
 1424              	.LVL137:
 507:Drivers/lvgl/src/draw/sw/lv_draw_sw_rect.c ****     shadow_draw_corner_buf(&core_area, (uint16_t *)sh_buf, dsc->shadow_width, r_sh);
 1425              		.loc 1 507 14 view .LVU523
 1426 016c 0146     		mov	r1, r0
 1427 016e 0390     		str	r0, [sp, #12]
 1428              	.LVL138:
 508:Drivers/lvgl/src/draw/sw/lv_draw_sw_rect.c **** #endif
 1429              		.loc 1 508 5 is_stmt 1 view .LVU524
 1430 0170 3B46     		mov	r3, r7
 1431 0172 B5F92E20 		ldrsh	r2, [r5, #46]
 1432 0176 24A8     		add	r0, sp, #144
 1433              	.LVL139:
 508:Drivers/lvgl/src/draw/sw/lv_draw_sw_rect.c **** #endif
 1434              		.loc 1 508 5 is_stmt 0 view .LVU525
 1435 0178 FFF7FEFF 		bl	shadow_draw_corner_buf
 1436              	.LVL140:
 512:Drivers/lvgl/src/draw/sw/lv_draw_sw_rect.c ****     bool simple = true;
 1437              		.loc 1 512 5 is_stmt 1 view .LVU526
 512:Drivers/lvgl/src/draw/sw/lv_draw_sw_rect.c ****     bool simple = true;
 1438              		.loc 1 512 21 is_stmt 0 view .LVU527
 1439 017c 22A8     		add	r0, sp, #136
 1440 017e FFF7FEFF 		bl	lv_draw_mask_is_any
 1441              	.LVL141:
 513:Drivers/lvgl/src/draw/sw/lv_draw_sw_rect.c ****     if(mask_any || dsc->bg_opa < LV_OPA_COVER || dsc->blend_mode != LV_BLEND_MODE_NORMAL) simple = 
 1442              		.loc 1 513 5 is_stmt 1 view .LVU528
 514:Drivers/lvgl/src/draw/sw/lv_draw_sw_rect.c **** 
 1443              		.loc 1 514 5 view .LVU529
 514:Drivers/lvgl/src/draw/sw/lv_draw_sw_rect.c **** 
ARM GAS  /var/folders/0z/tsy30v1j4xl4_7kw94k978ww0000gn/T//cc0noGMx.s 			page 61


 1444              		.loc 1 514 7 is_stmt 0 view .LVU530
 1445 0182 20B9     		cbnz	r0, .L89
 514:Drivers/lvgl/src/draw/sw/lv_draw_sw_rect.c **** 
 1446              		.loc 1 514 47 discriminator 2 view .LVU531
 1447 0184 6B88     		ldrh	r3, [r5, #2]
 1448 0186 B3F57F4F 		cmp	r3, #65280
 1449 018a 00F02181 		beq	.L162
 1450              	.L89:
 514:Drivers/lvgl/src/draw/sw/lv_draw_sw_rect.c **** 
 1451              		.loc 1 514 91 is_stmt 1 view .LVU532
 1452              	.LVL142:
 518:Drivers/lvgl/src/draw/sw/lv_draw_sw_rect.c ****     int16_t mask_rout_id = LV_MASK_ID_INV;
 1453              		.loc 1 518 5 view .LVU533
 519:Drivers/lvgl/src/draw/sw/lv_draw_sw_rect.c ****     if(!simple) {
 1454              		.loc 1 519 5 view .LVU534
 520:Drivers/lvgl/src/draw/sw/lv_draw_sw_rect.c ****         lv_draw_mask_radius_init(&mask_rout_param, &bg_area, r_bg, true);
 1455              		.loc 1 520 5 view .LVU535
 521:Drivers/lvgl/src/draw/sw/lv_draw_sw_rect.c ****         mask_rout_id = lv_draw_mask_add(&mask_rout_param, NULL);
 1456              		.loc 1 521 9 view .LVU536
 1457 018e 0123     		movs	r3, #1
 1458 0190 019A     		ldr	r2, [sp, #4]
 1459 0192 1EA9     		add	r1, sp, #120
 1460 0194 18A8     		add	r0, sp, #96
 1461              	.LVL143:
 521:Drivers/lvgl/src/draw/sw/lv_draw_sw_rect.c ****         mask_rout_id = lv_draw_mask_add(&mask_rout_param, NULL);
 1462              		.loc 1 521 9 is_stmt 0 view .LVU537
 1463 0196 FFF7FEFF 		bl	lv_draw_mask_radius_init
 1464              	.LVL144:
 522:Drivers/lvgl/src/draw/sw/lv_draw_sw_rect.c ****     }
 1465              		.loc 1 522 9 is_stmt 1 view .LVU538
 522:Drivers/lvgl/src/draw/sw/lv_draw_sw_rect.c ****     }
 1466              		.loc 1 522 24 is_stmt 0 view .LVU539
 1467 019a 0021     		movs	r1, #0
 1468 019c 18A8     		add	r0, sp, #96
 1469 019e FFF7FEFF 		bl	lv_draw_mask_add
 1470              	.LVL145:
 1471 01a2 0790     		str	r0, [sp, #28]
 1472              	.LVL146:
 514:Drivers/lvgl/src/draw/sw/lv_draw_sw_rect.c **** 
 1473              		.loc 1 514 98 view .LVU540
 1474 01a4 0023     		movs	r3, #0
 1475 01a6 0093     		str	r3, [sp]
 1476              	.LVL147:
 1477              	.L90:
 524:Drivers/lvgl/src/draw/sw/lv_draw_sw_rect.c ****     lv_area_t blend_area;
 1478              		.loc 1 524 5 is_stmt 1 view .LVU541
 1479              	.LBB142:
 1480              	.LBI142:
 123:Drivers/lvgl/src/draw/sw/../../misc/lv_area.h **** {
 1481              		.loc 2 123 26 view .LVU542
 1482              	.LBB143:
 125:Drivers/lvgl/src/draw/sw/../../misc/lv_area.h **** }
 1483              		.loc 2 125 5 view .LVU543
 125:Drivers/lvgl/src/draw/sw/../../misc/lv_area.h **** }
 1484              		.loc 2 125 31 is_stmt 0 view .LVU544
 1485 01a8 BDF88C00 		ldrh	r0, [sp, #140]
 125:Drivers/lvgl/src/draw/sw/../../misc/lv_area.h **** }
ARM GAS  /var/folders/0z/tsy30v1j4xl4_7kw94k978ww0000gn/T//cc0noGMx.s 			page 62


 1486              		.loc 2 125 44 view .LVU545
 1487 01ac BDF88830 		ldrh	r3, [sp, #136]
 125:Drivers/lvgl/src/draw/sw/../../misc/lv_area.h **** }
 1488              		.loc 2 125 36 view .LVU546
 1489 01b0 C01A     		subs	r0, r0, r3
 1490 01b2 80B2     		uxth	r0, r0
 125:Drivers/lvgl/src/draw/sw/../../misc/lv_area.h **** }
 1491              		.loc 2 125 49 view .LVU547
 1492 01b4 0130     		adds	r0, r0, #1
 1493              	.LVL148:
 125:Drivers/lvgl/src/draw/sw/../../misc/lv_area.h **** }
 1494              		.loc 2 125 49 view .LVU548
 1495              	.LBE143:
 1496              	.LBE142:
 524:Drivers/lvgl/src/draw/sw/lv_draw_sw_rect.c ****     lv_area_t blend_area;
 1497              		.loc 1 524 27 view .LVU549
 1498 01b6 00B2     		sxth	r0, r0
 1499 01b8 FFF7FEFF 		bl	lv_mem_buf_get
 1500              	.LVL149:
 1501 01bc 0746     		mov	r7, r0
 1502              	.LVL150:
 524:Drivers/lvgl/src/draw/sw/lv_draw_sw_rect.c ****     lv_area_t blend_area;
 1503              		.loc 1 524 27 view .LVU550
 1504 01be 0490     		str	r0, [sp, #16]
 1505              	.LVL151:
 525:Drivers/lvgl/src/draw/sw/lv_draw_sw_rect.c ****     lv_area_t clip_area_sub;
 1506              		.loc 1 525 5 is_stmt 1 view .LVU551
 526:Drivers/lvgl/src/draw/sw/lv_draw_sw_rect.c ****     lv_opa_t * sh_buf_tmp;
 1507              		.loc 1 526 5 view .LVU552
 527:Drivers/lvgl/src/draw/sw/lv_draw_sw_rect.c ****     lv_coord_t y;
 1508              		.loc 1 527 5 view .LVU553
 528:Drivers/lvgl/src/draw/sw/lv_draw_sw_rect.c ****     bool simple_sub;
 1509              		.loc 1 528 5 view .LVU554
 529:Drivers/lvgl/src/draw/sw/lv_draw_sw_rect.c **** 
 1510              		.loc 1 529 5 view .LVU555
 531:Drivers/lvgl/src/draw/sw/lv_draw_sw_rect.c ****     lv_memset_00(&blend_dsc, sizeof(blend_dsc));
 1511              		.loc 1 531 5 view .LVU556
 532:Drivers/lvgl/src/draw/sw/lv_draw_sw_rect.c ****     blend_dsc.blend_area = &blend_area;
 1512              		.loc 1 532 5 view .LVU557
 1513 01c0 1C21     		movs	r1, #28
 1514 01c2 0DA8     		add	r0, sp, #52
 1515              	.LVL152:
 532:Drivers/lvgl/src/draw/sw/lv_draw_sw_rect.c ****     blend_dsc.blend_area = &blend_area;
 1516              		.loc 1 532 5 is_stmt 0 view .LVU558
 1517 01c4 FFF7FEFF 		bl	lv_memset_00
 1518              	.LVL153:
 533:Drivers/lvgl/src/draw/sw/lv_draw_sw_rect.c ****     blend_dsc.mask_area = &blend_area;
 1519              		.loc 1 533 5 is_stmt 1 view .LVU559
 533:Drivers/lvgl/src/draw/sw/lv_draw_sw_rect.c ****     blend_dsc.mask_area = &blend_area;
 1520              		.loc 1 533 26 is_stmt 0 view .LVU560
 1521 01c8 16A9     		add	r1, sp, #88
 1522 01ca 0D91     		str	r1, [sp, #52]
 534:Drivers/lvgl/src/draw/sw/lv_draw_sw_rect.c ****     blend_dsc.mask_buf = mask_buf;
 1523              		.loc 1 534 5 is_stmt 1 view .LVU561
 534:Drivers/lvgl/src/draw/sw/lv_draw_sw_rect.c ****     blend_dsc.mask_buf = mask_buf;
 1524              		.loc 1 534 25 is_stmt 0 view .LVU562
 1525 01cc 1291     		str	r1, [sp, #72]
ARM GAS  /var/folders/0z/tsy30v1j4xl4_7kw94k978ww0000gn/T//cc0noGMx.s 			page 63


 535:Drivers/lvgl/src/draw/sw/lv_draw_sw_rect.c ****     blend_dsc.color = dsc->shadow_color;
 1526              		.loc 1 535 5 is_stmt 1 view .LVU563
 535:Drivers/lvgl/src/draw/sw/lv_draw_sw_rect.c ****     blend_dsc.color = dsc->shadow_color;
 1527              		.loc 1 535 24 is_stmt 0 view .LVU564
 1528 01ce 1097     		str	r7, [sp, #64]
 536:Drivers/lvgl/src/draw/sw/lv_draw_sw_rect.c ****     blend_dsc.opa = dsc->shadow_opa;
 1529              		.loc 1 536 5 is_stmt 1 view .LVU565
 536:Drivers/lvgl/src/draw/sw/lv_draw_sw_rect.c ****     blend_dsc.opa = dsc->shadow_opa;
 1530              		.loc 1 536 21 is_stmt 0 view .LVU566
 1531 01d0 AB8D     		ldrh	r3, [r5, #44]
 1532 01d2 ADF83C30 		strh	r3, [sp, #60]	@ movhi
 537:Drivers/lvgl/src/draw/sw/lv_draw_sw_rect.c ****     blend_dsc.blend_mode = dsc->blend_mode;
 1533              		.loc 1 537 5 is_stmt 1 view .LVU567
 537:Drivers/lvgl/src/draw/sw/lv_draw_sw_rect.c ****     blend_dsc.blend_mode = dsc->blend_mode;
 1534              		.loc 1 537 24 is_stmt 0 view .LVU568
 1535 01d6 95F83630 		ldrb	r3, [r5, #54]	@ zero_extendqisi2
 537:Drivers/lvgl/src/draw/sw/lv_draw_sw_rect.c ****     blend_dsc.blend_mode = dsc->blend_mode;
 1536              		.loc 1 537 19 view .LVU569
 1537 01da 8DF84C30 		strb	r3, [sp, #76]
 538:Drivers/lvgl/src/draw/sw/lv_draw_sw_rect.c **** 
 1538              		.loc 1 538 5 is_stmt 1 view .LVU570
 538:Drivers/lvgl/src/draw/sw/lv_draw_sw_rect.c **** 
 1539              		.loc 1 538 31 is_stmt 0 view .LVU571
 1540 01de AB78     		ldrb	r3, [r5, #2]	@ zero_extendqisi2
 538:Drivers/lvgl/src/draw/sw/lv_draw_sw_rect.c **** 
 1541              		.loc 1 538 26 view .LVU572
 1542 01e0 8DF84D30 		strb	r3, [sp, #77]
 540:Drivers/lvgl/src/draw/sw/lv_draw_sw_rect.c ****     lv_coord_t h_half = shadow_area.y1 + lv_area_get_height(&shadow_area) / 2;
 1543              		.loc 1 540 5 is_stmt 1 view .LVU573
 540:Drivers/lvgl/src/draw/sw/lv_draw_sw_rect.c ****     lv_coord_t h_half = shadow_area.y1 + lv_area_get_height(&shadow_area) / 2;
 1544              		.loc 1 540 36 is_stmt 0 view .LVU574
 1545 01e4 BDF88800 		ldrh	r0, [sp, #136]
 1546              	.LVL154:
 1547              	.LBB144:
 1548              	.LBI144:
 123:Drivers/lvgl/src/draw/sw/../../misc/lv_area.h **** {
 1549              		.loc 2 123 26 is_stmt 1 view .LVU575
 1550              	.LBB145:
 125:Drivers/lvgl/src/draw/sw/../../misc/lv_area.h **** }
 1551              		.loc 2 125 5 view .LVU576
 125:Drivers/lvgl/src/draw/sw/../../misc/lv_area.h **** }
 1552              		.loc 2 125 31 is_stmt 0 view .LVU577
 1553 01e8 BDF98C70 		ldrsh	r7, [sp, #140]
 1554              	.LVL155:
 125:Drivers/lvgl/src/draw/sw/../../misc/lv_area.h **** }
 1555              		.loc 2 125 31 view .LVU578
 1556 01ec BAB2     		uxth	r2, r7
 125:Drivers/lvgl/src/draw/sw/../../misc/lv_area.h **** }
 1557              		.loc 2 125 36 view .LVU579
 1558 01ee 131A     		subs	r3, r2, r0
 1559 01f0 9BB2     		uxth	r3, r3
 125:Drivers/lvgl/src/draw/sw/../../misc/lv_area.h **** }
 1560              		.loc 2 125 49 view .LVU580
 1561 01f2 0133     		adds	r3, r3, #1
 1562              	.LVL156:
 125:Drivers/lvgl/src/draw/sw/../../misc/lv_area.h **** }
 1563              		.loc 2 125 49 view .LVU581
ARM GAS  /var/folders/0z/tsy30v1j4xl4_7kw94k978ww0000gn/T//cc0noGMx.s 			page 64


 1564              	.LBE145:
 1565              	.LBE144:
 540:Drivers/lvgl/src/draw/sw/lv_draw_sw_rect.c ****     lv_coord_t h_half = shadow_area.y1 + lv_area_get_height(&shadow_area) / 2;
 1566              		.loc 1 540 40 view .LVU582
 1567 01f4 C3F3C03C 		ubfx	ip, r3, #15, #1
 1568 01f8 0CFA83F3 		sxtah	r3, ip, r3
 1569 01fc 00EB6300 		add	r0, r0, r3, asr #1
 540:Drivers/lvgl/src/draw/sw/lv_draw_sw_rect.c ****     lv_coord_t h_half = shadow_area.y1 + lv_area_get_height(&shadow_area) / 2;
 1570              		.loc 1 540 16 view .LVU583
 1571 0200 03B2     		sxth	r3, r0
 1572 0202 0293     		str	r3, [sp, #8]
 1573              	.LVL157:
 541:Drivers/lvgl/src/draw/sw/lv_draw_sw_rect.c **** 
 1574              		.loc 1 541 5 is_stmt 1 view .LVU584
 541:Drivers/lvgl/src/draw/sw/lv_draw_sw_rect.c **** 
 1575              		.loc 1 541 36 is_stmt 0 view .LVU585
 1576 0204 BDF98AC0 		ldrsh	ip, [sp, #138]
 1577 0208 1FFA8CF3 		uxth	r3, ip
 1578              	.LVL158:
 1579              	.LBB146:
 1580              	.LBI146:
 133:Drivers/lvgl/src/draw/sw/../../misc/lv_area.h **** {
 1581              		.loc 2 133 26 is_stmt 1 view .LVU586
 1582              	.LBB147:
 1583              		.loc 2 135 5 view .LVU587
 1584              		.loc 2 135 31 is_stmt 0 view .LVU588
 1585 020c BDF88E00 		ldrh	r0, [sp, #142]
 1586              		.loc 2 135 36 view .LVU589
 1587 0210 C01A     		subs	r0, r0, r3
 1588 0212 80B2     		uxth	r0, r0
 1589              		.loc 2 135 49 view .LVU590
 1590 0214 0130     		adds	r0, r0, #1
 1591              	.LVL159:
 1592              		.loc 2 135 49 view .LVU591
 1593              	.LBE147:
 1594              	.LBE146:
 541:Drivers/lvgl/src/draw/sw/lv_draw_sw_rect.c **** 
 1595              		.loc 1 541 40 view .LVU592
 1596 0216 C0F3C03E 		ubfx	lr, r0, #15, #1
 1597 021a 0EFA80F8 		sxtah	r8, lr, r0
 1598 021e 03EB6808 		add	r8, r3, r8, asr #1
 1599 0222 1FFA88F0 		uxth	r0, r8
 1600 0226 0690     		str	r0, [sp, #24]
 541:Drivers/lvgl/src/draw/sw/lv_draw_sw_rect.c **** 
 1601              		.loc 1 541 16 view .LVU593
 1602 0228 0FFA88F8 		sxth	r8, r8
 1603              	.LVL160:
 546:Drivers/lvgl/src/draw/sw/lv_draw_sw_rect.c ****     blend_area.x1 = shadow_area.x2 - corner_size + 1;
 1604              		.loc 1 546 5 is_stmt 1 view .LVU594
 546:Drivers/lvgl/src/draw/sw/lv_draw_sw_rect.c ****     blend_area.x1 = shadow_area.x2 - corner_size + 1;
 1605              		.loc 1 546 19 is_stmt 0 view .LVU595
 1606 022c ADF85C70 		strh	r7, [sp, #92]	@ movhi
 547:Drivers/lvgl/src/draw/sw/lv_draw_sw_rect.c ****     blend_area.y1 = shadow_area.y1;
 1607              		.loc 1 547 5 is_stmt 1 view .LVU596
 547:Drivers/lvgl/src/draw/sw/lv_draw_sw_rect.c ****     blend_area.y1 = shadow_area.y1;
 1608              		.loc 1 547 36 is_stmt 0 view .LVU597
 1609 0230 A7B2     		uxth	r7, r4
ARM GAS  /var/folders/0z/tsy30v1j4xl4_7kw94k978ww0000gn/T//cc0noGMx.s 			page 65


 1610 0232 D21B     		subs	r2, r2, r7
 1611 0234 92B2     		uxth	r2, r2
 547:Drivers/lvgl/src/draw/sw/lv_draw_sw_rect.c ****     blend_area.y1 = shadow_area.y1;
 1612              		.loc 1 547 50 view .LVU598
 1613 0236 0132     		adds	r2, r2, #1
 1614 0238 12B2     		sxth	r2, r2
 547:Drivers/lvgl/src/draw/sw/lv_draw_sw_rect.c ****     blend_area.y1 = shadow_area.y1;
 1615              		.loc 1 547 19 view .LVU599
 1616 023a ADF85820 		strh	r2, [sp, #88]	@ movhi
 548:Drivers/lvgl/src/draw/sw/lv_draw_sw_rect.c ****     blend_area.y2 = shadow_area.y1 + corner_size - 1;
 1617              		.loc 1 548 5 is_stmt 1 view .LVU600
 548:Drivers/lvgl/src/draw/sw/lv_draw_sw_rect.c ****     blend_area.y2 = shadow_area.y1 + corner_size - 1;
 1618              		.loc 1 548 19 is_stmt 0 view .LVU601
 1619 023e ADF85AC0 		strh	ip, [sp, #90]	@ movhi
 549:Drivers/lvgl/src/draw/sw/lv_draw_sw_rect.c ****     /*Do not overdraw the other top corners*/
 1620              		.loc 1 549 5 is_stmt 1 view .LVU602
 549:Drivers/lvgl/src/draw/sw/lv_draw_sw_rect.c ****     /*Do not overdraw the other top corners*/
 1621              		.loc 1 549 36 is_stmt 0 view .LVU603
 1622 0242 3B44     		add	r3, r3, r7
 1623 0244 9BB2     		uxth	r3, r3
 549:Drivers/lvgl/src/draw/sw/lv_draw_sw_rect.c ****     /*Do not overdraw the other top corners*/
 1624              		.loc 1 549 50 view .LVU604
 1625 0246 013B     		subs	r3, r3, #1
 1626 0248 1BB2     		sxth	r3, r3
 549:Drivers/lvgl/src/draw/sw/lv_draw_sw_rect.c ****     /*Do not overdraw the other top corners*/
 1627              		.loc 1 549 19 view .LVU605
 1628 024a ADF85E30 		strh	r3, [sp, #94]	@ movhi
 551:Drivers/lvgl/src/draw/sw/lv_draw_sw_rect.c ****     blend_area.y2 = LV_MIN(blend_area.y2, h_half);
 1629              		.loc 1 551 5 is_stmt 1 view .LVU606
 551:Drivers/lvgl/src/draw/sw/lv_draw_sw_rect.c ****     blend_area.y2 = LV_MIN(blend_area.y2, h_half);
 1630              		.loc 1 551 21 is_stmt 0 view .LVU607
 1631 024e 0298     		ldr	r0, [sp, #8]
 1632 0250 8242     		cmp	r2, r0
 1633 0252 B8BF     		it	lt
 1634 0254 0246     		movlt	r2, r0
 551:Drivers/lvgl/src/draw/sw/lv_draw_sw_rect.c ****     blend_area.y2 = LV_MIN(blend_area.y2, h_half);
 1635              		.loc 1 551 19 view .LVU608
 1636 0256 ADF85820 		strh	r2, [sp, #88]	@ movhi
 552:Drivers/lvgl/src/draw/sw/lv_draw_sw_rect.c **** 
 1637              		.loc 1 552 5 is_stmt 1 view .LVU609
 552:Drivers/lvgl/src/draw/sw/lv_draw_sw_rect.c **** 
 1638              		.loc 1 552 21 is_stmt 0 view .LVU610
 1639 025a 4345     		cmp	r3, r8
 1640 025c A8BF     		it	ge
 1641 025e 4346     		movge	r3, r8
 552:Drivers/lvgl/src/draw/sw/lv_draw_sw_rect.c **** 
 1642              		.loc 1 552 19 view .LVU611
 1643 0260 ADF85E30 		strh	r3, [sp, #94]	@ movhi
 554:Drivers/lvgl/src/draw/sw/lv_draw_sw_rect.c ****        !_lv_area_is_in(&clip_area_sub, &bg_area, r_bg)) {
 1644              		.loc 1 554 5 is_stmt 1 view .LVU612
 554:Drivers/lvgl/src/draw/sw/lv_draw_sw_rect.c ****        !_lv_area_is_in(&clip_area_sub, &bg_area, r_bg)) {
 1645              		.loc 1 554 8 is_stmt 0 view .LVU613
 1646 0264 B268     		ldr	r2, [r6, #8]
 1647 0266 14A8     		add	r0, sp, #80
 1648 0268 FFF7FEFF 		bl	_lv_area_intersect
 1649              	.LVL161:
 554:Drivers/lvgl/src/draw/sw/lv_draw_sw_rect.c ****        !_lv_area_is_in(&clip_area_sub, &bg_area, r_bg)) {
ARM GAS  /var/folders/0z/tsy30v1j4xl4_7kw94k978ww0000gn/T//cc0noGMx.s 			page 66


 1650              		.loc 1 554 7 view .LVU614
 1651 026c 0028     		cmp	r0, #0
 1652 026e 40F0B380 		bne	.L183
 1653              	.LVL162:
 1654              	.L91:
 589:Drivers/lvgl/src/draw/sw/lv_draw_sw_rect.c ****     blend_area.x1 = shadow_area.x2 - corner_size + 1;
 1655              		.loc 1 589 5 is_stmt 1 view .LVU615
 589:Drivers/lvgl/src/draw/sw/lv_draw_sw_rect.c ****     blend_area.x1 = shadow_area.x2 - corner_size + 1;
 1656              		.loc 1 589 32 is_stmt 0 view .LVU616
 1657 0272 BDF98C30 		ldrsh	r3, [sp, #140]
 589:Drivers/lvgl/src/draw/sw/lv_draw_sw_rect.c ****     blend_area.x1 = shadow_area.x2 - corner_size + 1;
 1658              		.loc 1 589 19 view .LVU617
 1659 0276 ADF85C30 		strh	r3, [sp, #92]	@ movhi
 590:Drivers/lvgl/src/draw/sw/lv_draw_sw_rect.c ****     blend_area.y1 = shadow_area.y2 - corner_size + 1;
 1660              		.loc 1 590 5 is_stmt 1 view .LVU618
 590:Drivers/lvgl/src/draw/sw/lv_draw_sw_rect.c ****     blend_area.y1 = shadow_area.y2 - corner_size + 1;
 1661              		.loc 1 590 32 is_stmt 0 view .LVU619
 1662 027a 9BB2     		uxth	r3, r3
 590:Drivers/lvgl/src/draw/sw/lv_draw_sw_rect.c ****     blend_area.y1 = shadow_area.y2 - corner_size + 1;
 1663              		.loc 1 590 36 view .LVU620
 1664 027c DB1B     		subs	r3, r3, r7
 1665 027e 9BB2     		uxth	r3, r3
 590:Drivers/lvgl/src/draw/sw/lv_draw_sw_rect.c ****     blend_area.y1 = shadow_area.y2 - corner_size + 1;
 1666              		.loc 1 590 50 view .LVU621
 1667 0280 0133     		adds	r3, r3, #1
 1668 0282 1BB2     		sxth	r3, r3
 590:Drivers/lvgl/src/draw/sw/lv_draw_sw_rect.c ****     blend_area.y1 = shadow_area.y2 - corner_size + 1;
 1669              		.loc 1 590 19 view .LVU622
 1670 0284 ADF85830 		strh	r3, [sp, #88]	@ movhi
 591:Drivers/lvgl/src/draw/sw/lv_draw_sw_rect.c ****     blend_area.y2 = shadow_area.y2;
 1671              		.loc 1 591 5 is_stmt 1 view .LVU623
 591:Drivers/lvgl/src/draw/sw/lv_draw_sw_rect.c ****     blend_area.y2 = shadow_area.y2;
 1672              		.loc 1 591 32 is_stmt 0 view .LVU624
 1673 0288 BDF98E10 		ldrsh	r1, [sp, #142]
 1674 028c 8AB2     		uxth	r2, r1
 591:Drivers/lvgl/src/draw/sw/lv_draw_sw_rect.c ****     blend_area.y2 = shadow_area.y2;
 1675              		.loc 1 591 36 view .LVU625
 1676 028e D21B     		subs	r2, r2, r7
 1677 0290 92B2     		uxth	r2, r2
 591:Drivers/lvgl/src/draw/sw/lv_draw_sw_rect.c ****     blend_area.y2 = shadow_area.y2;
 1678              		.loc 1 591 50 view .LVU626
 1679 0292 0132     		adds	r2, r2, #1
 1680 0294 12B2     		sxth	r2, r2
 591:Drivers/lvgl/src/draw/sw/lv_draw_sw_rect.c ****     blend_area.y2 = shadow_area.y2;
 1681              		.loc 1 591 19 view .LVU627
 1682 0296 ADF85A20 		strh	r2, [sp, #90]	@ movhi
 592:Drivers/lvgl/src/draw/sw/lv_draw_sw_rect.c ****     /*Do not overdraw the other corners*/
 1683              		.loc 1 592 5 is_stmt 1 view .LVU628
 592:Drivers/lvgl/src/draw/sw/lv_draw_sw_rect.c ****     /*Do not overdraw the other corners*/
 1684              		.loc 1 592 19 is_stmt 0 view .LVU629
 1685 029a ADF85E10 		strh	r1, [sp, #94]	@ movhi
 594:Drivers/lvgl/src/draw/sw/lv_draw_sw_rect.c ****     blend_area.y1 = LV_MAX(blend_area.y1, h_half + 1);
 1686              		.loc 1 594 5 is_stmt 1 view .LVU630
 594:Drivers/lvgl/src/draw/sw/lv_draw_sw_rect.c ****     blend_area.y1 = LV_MAX(blend_area.y1, h_half + 1);
 1687              		.loc 1 594 21 is_stmt 0 view .LVU631
 1688 029e 0299     		ldr	r1, [sp, #8]
 1689 02a0 8B42     		cmp	r3, r1
ARM GAS  /var/folders/0z/tsy30v1j4xl4_7kw94k978ww0000gn/T//cc0noGMx.s 			page 67


 1690 02a2 B8BF     		it	lt
 1691 02a4 0B46     		movlt	r3, r1
 594:Drivers/lvgl/src/draw/sw/lv_draw_sw_rect.c ****     blend_area.y1 = LV_MAX(blend_area.y1, h_half + 1);
 1692              		.loc 1 594 19 view .LVU632
 1693 02a6 ADF85830 		strh	r3, [sp, #88]	@ movhi
 595:Drivers/lvgl/src/draw/sw/lv_draw_sw_rect.c **** 
 1694              		.loc 1 595 5 is_stmt 1 view .LVU633
 595:Drivers/lvgl/src/draw/sw/lv_draw_sw_rect.c **** 
 1695              		.loc 1 595 21 is_stmt 0 view .LVU634
 1696 02aa 08F10103 		add	r3, r8, #1
 1697 02ae 0593     		str	r3, [sp, #20]
 1698 02b0 9A42     		cmp	r2, r3
 1699 02b2 B8BF     		it	lt
 1700 02b4 1A46     		movlt	r2, r3
 595:Drivers/lvgl/src/draw/sw/lv_draw_sw_rect.c **** 
 1701              		.loc 1 595 19 view .LVU635
 1702 02b6 ADF85A20 		strh	r2, [sp, #90]	@ movhi
 597:Drivers/lvgl/src/draw/sw/lv_draw_sw_rect.c ****        !_lv_area_is_in(&clip_area_sub, &bg_area, r_bg)) {
 1703              		.loc 1 597 5 is_stmt 1 view .LVU636
 597:Drivers/lvgl/src/draw/sw/lv_draw_sw_rect.c ****        !_lv_area_is_in(&clip_area_sub, &bg_area, r_bg)) {
 1704              		.loc 1 597 8 is_stmt 0 view .LVU637
 1705 02ba B268     		ldr	r2, [r6, #8]
 1706 02bc 16A9     		add	r1, sp, #88
 1707 02be 14A8     		add	r0, sp, #80
 1708 02c0 FFF7FEFF 		bl	_lv_area_intersect
 1709              	.LVL163:
 597:Drivers/lvgl/src/draw/sw/lv_draw_sw_rect.c ****        !_lv_area_is_in(&clip_area_sub, &bg_area, r_bg)) {
 1710              		.loc 1 597 7 view .LVU638
 1711 02c4 0028     		cmp	r0, #0
 1712 02c6 40F00481 		bne	.L184
 1713              	.L97:
 631:Drivers/lvgl/src/draw/sw/lv_draw_sw_rect.c ****     blend_area.x2 = shadow_area.x2 - corner_size;
 1714              		.loc 1 631 5 is_stmt 1 view .LVU639
 631:Drivers/lvgl/src/draw/sw/lv_draw_sw_rect.c ****     blend_area.x2 = shadow_area.x2 - corner_size;
 1715              		.loc 1 631 32 is_stmt 0 view .LVU640
 1716 02ca BDF88830 		ldrh	r3, [sp, #136]
 631:Drivers/lvgl/src/draw/sw/lv_draw_sw_rect.c ****     blend_area.x2 = shadow_area.x2 - corner_size;
 1717              		.loc 1 631 36 view .LVU641
 1718 02ce 3B44     		add	r3, r3, r7
 631:Drivers/lvgl/src/draw/sw/lv_draw_sw_rect.c ****     blend_area.x2 = shadow_area.x2 - corner_size;
 1719              		.loc 1 631 19 view .LVU642
 1720 02d0 ADF85830 		strh	r3, [sp, #88]	@ movhi
 632:Drivers/lvgl/src/draw/sw/lv_draw_sw_rect.c ****     blend_area.y1 = shadow_area.y1;
 1721              		.loc 1 632 5 is_stmt 1 view .LVU643
 632:Drivers/lvgl/src/draw/sw/lv_draw_sw_rect.c ****     blend_area.y1 = shadow_area.y1;
 1722              		.loc 1 632 32 is_stmt 0 view .LVU644
 1723 02d4 BDF88C30 		ldrh	r3, [sp, #140]
 632:Drivers/lvgl/src/draw/sw/lv_draw_sw_rect.c ****     blend_area.y1 = shadow_area.y1;
 1724              		.loc 1 632 36 view .LVU645
 1725 02d8 DB1B     		subs	r3, r3, r7
 632:Drivers/lvgl/src/draw/sw/lv_draw_sw_rect.c ****     blend_area.y1 = shadow_area.y1;
 1726              		.loc 1 632 19 view .LVU646
 1727 02da ADF85C30 		strh	r3, [sp, #92]	@ movhi
 633:Drivers/lvgl/src/draw/sw/lv_draw_sw_rect.c ****     blend_area.y2 = shadow_area.y1 + corner_size - 1;
 1728              		.loc 1 633 5 is_stmt 1 view .LVU647
 633:Drivers/lvgl/src/draw/sw/lv_draw_sw_rect.c ****     blend_area.y2 = shadow_area.y1 + corner_size - 1;
 1729              		.loc 1 633 32 is_stmt 0 view .LVU648
ARM GAS  /var/folders/0z/tsy30v1j4xl4_7kw94k978ww0000gn/T//cc0noGMx.s 			page 68


 1730 02de BDF98A30 		ldrsh	r3, [sp, #138]
 633:Drivers/lvgl/src/draw/sw/lv_draw_sw_rect.c ****     blend_area.y2 = shadow_area.y1 + corner_size - 1;
 1731              		.loc 1 633 19 view .LVU649
 1732 02e2 ADF85A30 		strh	r3, [sp, #90]	@ movhi
 634:Drivers/lvgl/src/draw/sw/lv_draw_sw_rect.c ****     blend_area.y2 = LV_MIN(blend_area.y2, h_half);
 1733              		.loc 1 634 5 is_stmt 1 view .LVU650
 634:Drivers/lvgl/src/draw/sw/lv_draw_sw_rect.c ****     blend_area.y2 = LV_MIN(blend_area.y2, h_half);
 1734              		.loc 1 634 36 is_stmt 0 view .LVU651
 1735 02e6 17FA83F3 		uxtah	r3, r7, r3
 1736 02ea 9BB2     		uxth	r3, r3
 634:Drivers/lvgl/src/draw/sw/lv_draw_sw_rect.c ****     blend_area.y2 = LV_MIN(blend_area.y2, h_half);
 1737              		.loc 1 634 50 view .LVU652
 1738 02ec 013B     		subs	r3, r3, #1
 1739 02ee 1BB2     		sxth	r3, r3
 634:Drivers/lvgl/src/draw/sw/lv_draw_sw_rect.c ****     blend_area.y2 = LV_MIN(blend_area.y2, h_half);
 1740              		.loc 1 634 19 view .LVU653
 1741 02f0 ADF85E30 		strh	r3, [sp, #94]	@ movhi
 635:Drivers/lvgl/src/draw/sw/lv_draw_sw_rect.c **** 
 1742              		.loc 1 635 5 is_stmt 1 view .LVU654
 635:Drivers/lvgl/src/draw/sw/lv_draw_sw_rect.c **** 
 1743              		.loc 1 635 21 is_stmt 0 view .LVU655
 1744 02f4 4345     		cmp	r3, r8
 1745 02f6 A8BF     		it	ge
 1746 02f8 4346     		movge	r3, r8
 635:Drivers/lvgl/src/draw/sw/lv_draw_sw_rect.c **** 
 1747              		.loc 1 635 19 view .LVU656
 1748 02fa ADF85E30 		strh	r3, [sp, #94]	@ movhi
 637:Drivers/lvgl/src/draw/sw/lv_draw_sw_rect.c ****        !_lv_area_is_in(&clip_area_sub, &bg_area, r_bg)) {
 1749              		.loc 1 637 5 is_stmt 1 view .LVU657
 637:Drivers/lvgl/src/draw/sw/lv_draw_sw_rect.c ****        !_lv_area_is_in(&clip_area_sub, &bg_area, r_bg)) {
 1750              		.loc 1 637 8 is_stmt 0 view .LVU658
 1751 02fe B268     		ldr	r2, [r6, #8]
 1752 0300 16A9     		add	r1, sp, #88
 1753 0302 14A8     		add	r0, sp, #80
 1754 0304 FFF7FEFF 		bl	_lv_area_intersect
 1755              	.LVL164:
 637:Drivers/lvgl/src/draw/sw/lv_draw_sw_rect.c ****        !_lv_area_is_in(&clip_area_sub, &bg_area, r_bg)) {
 1756              		.loc 1 637 7 view .LVU659
 1757 0308 0028     		cmp	r0, #0
 1758 030a 40F05F81 		bne	.L185
 1759              	.LVL165:
 1760              	.L103:
 675:Drivers/lvgl/src/draw/sw/lv_draw_sw_rect.c **** 
 1761              		.loc 1 675 5 is_stmt 1 view .LVU660
 675:Drivers/lvgl/src/draw/sw/lv_draw_sw_rect.c **** 
 1762              		.loc 1 675 24 is_stmt 0 view .LVU661
 1763 030e 95F83630 		ldrb	r3, [r5, #54]	@ zero_extendqisi2
 675:Drivers/lvgl/src/draw/sw/lv_draw_sw_rect.c **** 
 1764              		.loc 1 675 19 view .LVU662
 1765 0312 8DF84C30 		strb	r3, [sp, #76]
 678:Drivers/lvgl/src/draw/sw/lv_draw_sw_rect.c ****     blend_area.x2 = shadow_area.x2 - corner_size;
 1766              		.loc 1 678 5 is_stmt 1 view .LVU663
 678:Drivers/lvgl/src/draw/sw/lv_draw_sw_rect.c ****     blend_area.x2 = shadow_area.x2 - corner_size;
 1767              		.loc 1 678 32 is_stmt 0 view .LVU664
 1768 0316 BDF88830 		ldrh	r3, [sp, #136]
 678:Drivers/lvgl/src/draw/sw/lv_draw_sw_rect.c ****     blend_area.x2 = shadow_area.x2 - corner_size;
 1769              		.loc 1 678 36 view .LVU665
ARM GAS  /var/folders/0z/tsy30v1j4xl4_7kw94k978ww0000gn/T//cc0noGMx.s 			page 69


 1770 031a 3B44     		add	r3, r3, r7
 678:Drivers/lvgl/src/draw/sw/lv_draw_sw_rect.c ****     blend_area.x2 = shadow_area.x2 - corner_size;
 1771              		.loc 1 678 19 view .LVU666
 1772 031c ADF85830 		strh	r3, [sp, #88]	@ movhi
 679:Drivers/lvgl/src/draw/sw/lv_draw_sw_rect.c ****     blend_area.y1 = shadow_area.y2 - corner_size + 1;
 1773              		.loc 1 679 5 is_stmt 1 view .LVU667
 679:Drivers/lvgl/src/draw/sw/lv_draw_sw_rect.c ****     blend_area.y1 = shadow_area.y2 - corner_size + 1;
 1774              		.loc 1 679 32 is_stmt 0 view .LVU668
 1775 0320 BDF88C30 		ldrh	r3, [sp, #140]
 679:Drivers/lvgl/src/draw/sw/lv_draw_sw_rect.c ****     blend_area.y1 = shadow_area.y2 - corner_size + 1;
 1776              		.loc 1 679 36 view .LVU669
 1777 0324 DB1B     		subs	r3, r3, r7
 679:Drivers/lvgl/src/draw/sw/lv_draw_sw_rect.c ****     blend_area.y1 = shadow_area.y2 - corner_size + 1;
 1778              		.loc 1 679 19 view .LVU670
 1779 0326 ADF85C30 		strh	r3, [sp, #92]	@ movhi
 680:Drivers/lvgl/src/draw/sw/lv_draw_sw_rect.c ****     blend_area.y2 = shadow_area.y2;
 1780              		.loc 1 680 5 is_stmt 1 view .LVU671
 680:Drivers/lvgl/src/draw/sw/lv_draw_sw_rect.c ****     blend_area.y2 = shadow_area.y2;
 1781              		.loc 1 680 32 is_stmt 0 view .LVU672
 1782 032a BDF98E20 		ldrsh	r2, [sp, #142]
 1783 032e 93B2     		uxth	r3, r2
 680:Drivers/lvgl/src/draw/sw/lv_draw_sw_rect.c ****     blend_area.y2 = shadow_area.y2;
 1784              		.loc 1 680 36 view .LVU673
 1785 0330 DB1B     		subs	r3, r3, r7
 1786 0332 9BB2     		uxth	r3, r3
 680:Drivers/lvgl/src/draw/sw/lv_draw_sw_rect.c ****     blend_area.y2 = shadow_area.y2;
 1787              		.loc 1 680 50 view .LVU674
 1788 0334 0133     		adds	r3, r3, #1
 1789 0336 1BB2     		sxth	r3, r3
 680:Drivers/lvgl/src/draw/sw/lv_draw_sw_rect.c ****     blend_area.y2 = shadow_area.y2;
 1790              		.loc 1 680 19 view .LVU675
 1791 0338 ADF85A30 		strh	r3, [sp, #90]	@ movhi
 681:Drivers/lvgl/src/draw/sw/lv_draw_sw_rect.c ****     blend_area.y1 = LV_MAX(blend_area.y1, h_half + 1);
 1792              		.loc 1 681 5 is_stmt 1 view .LVU676
 681:Drivers/lvgl/src/draw/sw/lv_draw_sw_rect.c ****     blend_area.y1 = LV_MAX(blend_area.y1, h_half + 1);
 1793              		.loc 1 681 19 is_stmt 0 view .LVU677
 1794 033c ADF85E20 		strh	r2, [sp, #94]	@ movhi
 682:Drivers/lvgl/src/draw/sw/lv_draw_sw_rect.c **** 
 1795              		.loc 1 682 5 is_stmt 1 view .LVU678
 682:Drivers/lvgl/src/draw/sw/lv_draw_sw_rect.c **** 
 1796              		.loc 1 682 21 is_stmt 0 view .LVU679
 1797 0340 059A     		ldr	r2, [sp, #20]
 1798 0342 9342     		cmp	r3, r2
 1799 0344 B8BF     		it	lt
 1800 0346 1346     		movlt	r3, r2
 682:Drivers/lvgl/src/draw/sw/lv_draw_sw_rect.c **** 
 1801              		.loc 1 682 19 view .LVU680
 1802 0348 ADF85A30 		strh	r3, [sp, #90]	@ movhi
 685:Drivers/lvgl/src/draw/sw/lv_draw_sw_rect.c ****        !_lv_area_is_in(&clip_area_sub, &bg_area, r_bg)) {
 1803              		.loc 1 685 5 is_stmt 1 view .LVU681
 685:Drivers/lvgl/src/draw/sw/lv_draw_sw_rect.c ****        !_lv_area_is_in(&clip_area_sub, &bg_area, r_bg)) {
 1804              		.loc 1 685 8 is_stmt 0 view .LVU682
 1805 034c B268     		ldr	r2, [r6, #8]
 1806 034e 16A9     		add	r1, sp, #88
 1807 0350 14A8     		add	r0, sp, #80
 1808 0352 FFF7FEFF 		bl	_lv_area_intersect
 1809              	.LVL166:
ARM GAS  /var/folders/0z/tsy30v1j4xl4_7kw94k978ww0000gn/T//cc0noGMx.s 			page 70


 685:Drivers/lvgl/src/draw/sw/lv_draw_sw_rect.c ****        !_lv_area_is_in(&clip_area_sub, &bg_area, r_bg)) {
 1810              		.loc 1 685 7 view .LVU683
 1811 0356 0028     		cmp	r0, #0
 1812 0358 40F0BE81 		bne	.L186
 1813              	.L114:
 728:Drivers/lvgl/src/draw/sw/lv_draw_sw_rect.c **** 
 1814              		.loc 1 728 5 is_stmt 1 view .LVU684
 728:Drivers/lvgl/src/draw/sw/lv_draw_sw_rect.c **** 
 1815              		.loc 1 728 24 is_stmt 0 view .LVU685
 1816 035c 95F83630 		ldrb	r3, [r5, #54]	@ zero_extendqisi2
 728:Drivers/lvgl/src/draw/sw/lv_draw_sw_rect.c **** 
 1817              		.loc 1 728 19 view .LVU686
 1818 0360 8DF84C30 		strb	r3, [sp, #76]
 731:Drivers/lvgl/src/draw/sw/lv_draw_sw_rect.c ****     blend_area.x2 = shadow_area.x2;
 1819              		.loc 1 731 5 is_stmt 1 view .LVU687
 731:Drivers/lvgl/src/draw/sw/lv_draw_sw_rect.c ****     blend_area.x2 = shadow_area.x2;
 1820              		.loc 1 731 32 is_stmt 0 view .LVU688
 1821 0364 BDF98C30 		ldrsh	r3, [sp, #140]
 1822 0368 9AB2     		uxth	r2, r3
 731:Drivers/lvgl/src/draw/sw/lv_draw_sw_rect.c ****     blend_area.x2 = shadow_area.x2;
 1823              		.loc 1 731 36 view .LVU689
 1824 036a D21B     		subs	r2, r2, r7
 1825 036c 92B2     		uxth	r2, r2
 731:Drivers/lvgl/src/draw/sw/lv_draw_sw_rect.c ****     blend_area.x2 = shadow_area.x2;
 1826              		.loc 1 731 50 view .LVU690
 1827 036e 0132     		adds	r2, r2, #1
 1828 0370 12B2     		sxth	r2, r2
 731:Drivers/lvgl/src/draw/sw/lv_draw_sw_rect.c ****     blend_area.x2 = shadow_area.x2;
 1829              		.loc 1 731 19 view .LVU691
 1830 0372 ADF85820 		strh	r2, [sp, #88]	@ movhi
 732:Drivers/lvgl/src/draw/sw/lv_draw_sw_rect.c ****     blend_area.y1 = shadow_area.y1 + corner_size;
 1831              		.loc 1 732 5 is_stmt 1 view .LVU692
 732:Drivers/lvgl/src/draw/sw/lv_draw_sw_rect.c ****     blend_area.y1 = shadow_area.y1 + corner_size;
 1832              		.loc 1 732 19 is_stmt 0 view .LVU693
 1833 0376 ADF85C30 		strh	r3, [sp, #92]	@ movhi
 733:Drivers/lvgl/src/draw/sw/lv_draw_sw_rect.c ****     blend_area.y2 = shadow_area.y2 - corner_size;
 1834              		.loc 1 733 5 is_stmt 1 view .LVU694
 733:Drivers/lvgl/src/draw/sw/lv_draw_sw_rect.c ****     blend_area.y2 = shadow_area.y2 - corner_size;
 1835              		.loc 1 733 32 is_stmt 0 view .LVU695
 1836 037a BDF88A30 		ldrh	r3, [sp, #138]
 733:Drivers/lvgl/src/draw/sw/lv_draw_sw_rect.c ****     blend_area.y2 = shadow_area.y2 - corner_size;
 1837              		.loc 1 733 36 view .LVU696
 1838 037e 3B44     		add	r3, r3, r7
 1839 0380 1BB2     		sxth	r3, r3
 733:Drivers/lvgl/src/draw/sw/lv_draw_sw_rect.c ****     blend_area.y2 = shadow_area.y2 - corner_size;
 1840              		.loc 1 733 19 view .LVU697
 1841 0382 ADF85A30 		strh	r3, [sp, #90]	@ movhi
 734:Drivers/lvgl/src/draw/sw/lv_draw_sw_rect.c ****     /*Do not overdraw the other corners*/
 1842              		.loc 1 734 5 is_stmt 1 view .LVU698
 734:Drivers/lvgl/src/draw/sw/lv_draw_sw_rect.c ****     /*Do not overdraw the other corners*/
 1843              		.loc 1 734 32 is_stmt 0 view .LVU699
 1844 0386 BDF88E10 		ldrh	r1, [sp, #142]
 734:Drivers/lvgl/src/draw/sw/lv_draw_sw_rect.c ****     /*Do not overdraw the other corners*/
 1845              		.loc 1 734 36 view .LVU700
 1846 038a C91B     		subs	r1, r1, r7
 1847 038c 09B2     		sxth	r1, r1
 734:Drivers/lvgl/src/draw/sw/lv_draw_sw_rect.c ****     /*Do not overdraw the other corners*/
ARM GAS  /var/folders/0z/tsy30v1j4xl4_7kw94k978ww0000gn/T//cc0noGMx.s 			page 71


 1848              		.loc 1 734 19 view .LVU701
 1849 038e ADF85E10 		strh	r1, [sp, #94]	@ movhi
 736:Drivers/lvgl/src/draw/sw/lv_draw_sw_rect.c ****     blend_area.y2 = LV_MAX(blend_area.y2, h_half);
 1850              		.loc 1 736 5 is_stmt 1 view .LVU702
 736:Drivers/lvgl/src/draw/sw/lv_draw_sw_rect.c ****     blend_area.y2 = LV_MAX(blend_area.y2, h_half);
 1851              		.loc 1 736 19 is_stmt 0 view .LVU703
 1852 0392 4345     		cmp	r3, r8
 1853 0394 02DD     		ble	.L126
 736:Drivers/lvgl/src/draw/sw/lv_draw_sw_rect.c ****     blend_area.y2 = LV_MAX(blend_area.y2, h_half);
 1854              		.loc 1 736 21 discriminator 2 view .LVU704
 1855 0396 069B     		ldr	r3, [sp, #24]
 1856 0398 0133     		adds	r3, r3, #1
 736:Drivers/lvgl/src/draw/sw/lv_draw_sw_rect.c ****     blend_area.y2 = LV_MAX(blend_area.y2, h_half);
 1857              		.loc 1 736 19 discriminator 2 view .LVU705
 1858 039a 1BB2     		sxth	r3, r3
 1859              	.L126:
 736:Drivers/lvgl/src/draw/sw/lv_draw_sw_rect.c ****     blend_area.y2 = LV_MAX(blend_area.y2, h_half);
 1860              		.loc 1 736 19 discriminator 4 view .LVU706
 1861 039c ADF85A30 		strh	r3, [sp, #90]	@ movhi
 737:Drivers/lvgl/src/draw/sw/lv_draw_sw_rect.c ****     blend_area.x1 = LV_MAX(blend_area.x1, w_half);
 1862              		.loc 1 737 5 is_stmt 1 discriminator 4 view .LVU707
 737:Drivers/lvgl/src/draw/sw/lv_draw_sw_rect.c ****     blend_area.x1 = LV_MAX(blend_area.x1, w_half);
 1863              		.loc 1 737 21 is_stmt 0 discriminator 4 view .LVU708
 1864 03a0 4145     		cmp	r1, r8
 1865 03a2 B8BF     		it	lt
 1866 03a4 4146     		movlt	r1, r8
 737:Drivers/lvgl/src/draw/sw/lv_draw_sw_rect.c ****     blend_area.x1 = LV_MAX(blend_area.x1, w_half);
 1867              		.loc 1 737 19 discriminator 4 view .LVU709
 1868 03a6 ADF85E10 		strh	r1, [sp, #94]	@ movhi
 738:Drivers/lvgl/src/draw/sw/lv_draw_sw_rect.c **** 
 1869              		.loc 1 738 5 is_stmt 1 discriminator 4 view .LVU710
 738:Drivers/lvgl/src/draw/sw/lv_draw_sw_rect.c **** 
 1870              		.loc 1 738 21 is_stmt 0 discriminator 4 view .LVU711
 1871 03aa 029B     		ldr	r3, [sp, #8]
 1872 03ac 9A42     		cmp	r2, r3
 1873 03ae B8BF     		it	lt
 1874 03b0 1A46     		movlt	r2, r3
 738:Drivers/lvgl/src/draw/sw/lv_draw_sw_rect.c **** 
 1875              		.loc 1 738 19 discriminator 4 view .LVU712
 1876 03b2 ADF85820 		strh	r2, [sp, #88]	@ movhi
 740:Drivers/lvgl/src/draw/sw/lv_draw_sw_rect.c ****        !_lv_area_is_in(&clip_area_sub, &bg_area, r_bg)) {
 1877              		.loc 1 740 5 is_stmt 1 discriminator 4 view .LVU713
 740:Drivers/lvgl/src/draw/sw/lv_draw_sw_rect.c ****        !_lv_area_is_in(&clip_area_sub, &bg_area, r_bg)) {
 1878              		.loc 1 740 8 is_stmt 0 discriminator 4 view .LVU714
 1879 03b6 B268     		ldr	r2, [r6, #8]
 1880 03b8 16A9     		add	r1, sp, #88
 1881 03ba 14A8     		add	r0, sp, #80
 1882 03bc FFF7FEFF 		bl	_lv_area_intersect
 1883              	.LVL167:
 740:Drivers/lvgl/src/draw/sw/lv_draw_sw_rect.c ****        !_lv_area_is_in(&clip_area_sub, &bg_area, r_bg)) {
 1884              		.loc 1 740 7 discriminator 4 view .LVU715
 1885 03c0 0028     		cmp	r0, #0
 1886 03c2 40F01382 		bne	.L187
 1887              	.LVL168:
 1888              	.L127:
 1889              	.LBB148:
 776:Drivers/lvgl/src/draw/sw/lv_draw_sw_rect.c ****             lv_opa_t tmp = *start;
ARM GAS  /var/folders/0z/tsy30v1j4xl4_7kw94k978ww0000gn/T//cc0noGMx.s 			page 72


 1890              		.loc 1 776 15 discriminator 1 view .LVU716
 1891 03c6 DDF80CE0 		ldr	lr, [sp, #12]
 1892 03ca 4FF0000C 		mov	ip, #0
 1893 03ce 90E2     		b	.L135
 1894              	.LVL169:
 1895              	.L162:
 776:Drivers/lvgl/src/draw/sw/lv_draw_sw_rect.c ****             lv_opa_t tmp = *start;
 1896              		.loc 1 776 15 discriminator 1 view .LVU717
 1897              	.LBE148:
 519:Drivers/lvgl/src/draw/sw/lv_draw_sw_rect.c ****     if(!simple) {
 1898              		.loc 1 519 13 view .LVU718
 1899 03d0 4FF0FF33 		mov	r3, #-1
 1900 03d4 0793     		str	r3, [sp, #28]
 1901 03d6 E7E6     		b	.L90
 1902              	.LVL170:
 1903              	.L183:
 555:Drivers/lvgl/src/draw/sw/lv_draw_sw_rect.c ****         lv_coord_t w = lv_area_get_width(&clip_area_sub);
 1904              		.loc 1 555 9 discriminator 1 view .LVU719
 1905 03d8 BDF904A0 		ldrsh	r10, [sp, #4]
 1906 03dc 5246     		mov	r2, r10
 1907 03de 1EA9     		add	r1, sp, #120
 1908 03e0 14A8     		add	r0, sp, #80
 1909 03e2 FFF7FEFF 		bl	_lv_area_is_in
 1910              	.LVL171:
 554:Drivers/lvgl/src/draw/sw/lv_draw_sw_rect.c ****        !_lv_area_is_in(&clip_area_sub, &bg_area, r_bg)) {
 1911              		.loc 1 554 77 discriminator 1 view .LVU720
 1912 03e6 0028     		cmp	r0, #0
 1913 03e8 7FF443AF 		bne	.L91
 1914              	.LBB150:
 556:Drivers/lvgl/src/draw/sw/lv_draw_sw_rect.c ****         sh_buf_tmp = sh_buf;
 1915              		.loc 1 556 9 is_stmt 1 view .LVU721
 1916              	.LVL172:
 1917              	.LBB151:
 1918              	.LBI151:
 123:Drivers/lvgl/src/draw/sw/../../misc/lv_area.h **** {
 1919              		.loc 2 123 26 view .LVU722
 1920              	.LBB152:
 125:Drivers/lvgl/src/draw/sw/../../misc/lv_area.h **** }
 1921              		.loc 2 125 5 view .LVU723
 125:Drivers/lvgl/src/draw/sw/../../misc/lv_area.h **** }
 1922              		.loc 2 125 31 is_stmt 0 view .LVU724
 1923 03ec BDF85430 		ldrh	r3, [sp, #84]
 125:Drivers/lvgl/src/draw/sw/../../misc/lv_area.h **** }
 1924              		.loc 2 125 44 view .LVU725
 1925 03f0 BDF95020 		ldrsh	r2, [sp, #80]
 1926 03f4 91B2     		uxth	r1, r2
 125:Drivers/lvgl/src/draw/sw/../../misc/lv_area.h **** }
 1927              		.loc 2 125 36 view .LVU726
 1928 03f6 5B1A     		subs	r3, r3, r1
 1929 03f8 9BB2     		uxth	r3, r3
 125:Drivers/lvgl/src/draw/sw/../../misc/lv_area.h **** }
 1930              		.loc 2 125 49 view .LVU727
 1931 03fa 0133     		adds	r3, r3, #1
 125:Drivers/lvgl/src/draw/sw/../../misc/lv_area.h **** }
 1932              		.loc 2 125 12 view .LVU728
 1933 03fc 1BB2     		sxth	r3, r3
 1934 03fe 0593     		str	r3, [sp, #20]
ARM GAS  /var/folders/0z/tsy30v1j4xl4_7kw94k978ww0000gn/T//cc0noGMx.s 			page 73


 1935              	.LVL173:
 125:Drivers/lvgl/src/draw/sw/../../misc/lv_area.h **** }
 1936              		.loc 2 125 12 view .LVU729
 1937              	.LBE152:
 1938              	.LBE151:
 557:Drivers/lvgl/src/draw/sw/lv_draw_sw_rect.c ****         sh_buf_tmp += (clip_area_sub.y1 - shadow_area.y1) * corner_size;
 1939              		.loc 1 557 9 is_stmt 1 view .LVU730
 558:Drivers/lvgl/src/draw/sw/lv_draw_sw_rect.c ****         sh_buf_tmp += clip_area_sub.x1 - (shadow_area.x2 - corner_size + 1);
 1940              		.loc 1 558 9 view .LVU731
 558:Drivers/lvgl/src/draw/sw/lv_draw_sw_rect.c ****         sh_buf_tmp += clip_area_sub.x1 - (shadow_area.x2 - corner_size + 1);
 1941              		.loc 1 558 37 is_stmt 0 view .LVU732
 1942 0400 BDF95210 		ldrsh	r1, [sp, #82]
 558:Drivers/lvgl/src/draw/sw/lv_draw_sw_rect.c ****         sh_buf_tmp += clip_area_sub.x1 - (shadow_area.x2 - corner_size + 1);
 1943              		.loc 1 558 54 view .LVU733
 1944 0404 BDF98A30 		ldrsh	r3, [sp, #138]
 558:Drivers/lvgl/src/draw/sw/lv_draw_sw_rect.c ****         sh_buf_tmp += clip_area_sub.x1 - (shadow_area.x2 - corner_size + 1);
 1945              		.loc 1 558 41 view .LVU734
 1946 0408 C91A     		subs	r1, r1, r3
 1947              	.LVL174:
 559:Drivers/lvgl/src/draw/sw/lv_draw_sw_rect.c **** 
 1948              		.loc 1 559 9 is_stmt 1 view .LVU735
 559:Drivers/lvgl/src/draw/sw/lv_draw_sw_rect.c **** 
 1949              		.loc 1 559 54 is_stmt 0 view .LVU736
 1950 040a BDF98C30 		ldrsh	r3, [sp, #140]
 559:Drivers/lvgl/src/draw/sw/lv_draw_sw_rect.c **** 
 1951              		.loc 1 559 58 view .LVU737
 1952 040e 1B1B     		subs	r3, r3, r4
 559:Drivers/lvgl/src/draw/sw/lv_draw_sw_rect.c **** 
 1953              		.loc 1 559 72 view .LVU738
 1954 0410 0133     		adds	r3, r3, #1
 559:Drivers/lvgl/src/draw/sw/lv_draw_sw_rect.c **** 
 1955              		.loc 1 559 40 view .LVU739
 1956 0412 A2EB030B 		sub	fp, r2, r3
 559:Drivers/lvgl/src/draw/sw/lv_draw_sw_rect.c **** 
 1957              		.loc 1 559 20 view .LVU740
 1958 0416 04FB01BB 		mla	fp, r4, r1, fp
 1959 041a 039B     		ldr	r3, [sp, #12]
 1960 041c 9B44     		add	fp, fp, r3
 1961              	.LVL175:
 562:Drivers/lvgl/src/draw/sw/lv_draw_sw_rect.c ****         else simple_sub = simple;
 1962              		.loc 1 562 9 is_stmt 1 view .LVU741
 562:Drivers/lvgl/src/draw/sw/lv_draw_sw_rect.c ****         else simple_sub = simple;
 1963              		.loc 1 562 11 is_stmt 0 view .LVU742
 1964 041e 009B     		ldr	r3, [sp]
 1965 0420 EBB9     		cbnz	r3, .L188
 1966 0422 009B     		ldr	r3, [sp]
 1967 0424 1946     		mov	r1, r3
 1968              	.L92:
 1969              	.LVL176:
 564:Drivers/lvgl/src/draw/sw/lv_draw_sw_rect.c ****             blend_dsc.mask_buf = mask_buf;
 1970              		.loc 1 564 9 is_stmt 1 view .LVU743
 564:Drivers/lvgl/src/draw/sw/lv_draw_sw_rect.c ****             blend_dsc.mask_buf = mask_buf;
 1971              		.loc 1 564 11 is_stmt 0 view .LVU744
 1972 0426 059B     		ldr	r3, [sp, #20]
 1973 0428 002B     		cmp	r3, #0
 1974 042a 7FF722AF 		ble	.L91
 565:Drivers/lvgl/src/draw/sw/lv_draw_sw_rect.c ****             blend_area.x1 = clip_area_sub.x1;
ARM GAS  /var/folders/0z/tsy30v1j4xl4_7kw94k978ww0000gn/T//cc0noGMx.s 			page 74


 1975              		.loc 1 565 13 is_stmt 1 view .LVU745
 565:Drivers/lvgl/src/draw/sw/lv_draw_sw_rect.c ****             blend_area.x1 = clip_area_sub.x1;
 1976              		.loc 1 565 32 is_stmt 0 view .LVU746
 1977 042e 049A     		ldr	r2, [sp, #16]
 1978 0430 1092     		str	r2, [sp, #64]
 566:Drivers/lvgl/src/draw/sw/lv_draw_sw_rect.c ****             blend_area.x2 = clip_area_sub.x2;
 1979              		.loc 1 566 13 is_stmt 1 view .LVU747
 566:Drivers/lvgl/src/draw/sw/lv_draw_sw_rect.c ****             blend_area.x2 = clip_area_sub.x2;
 1980              		.loc 1 566 42 is_stmt 0 view .LVU748
 1981 0432 BDF95030 		ldrsh	r3, [sp, #80]
 566:Drivers/lvgl/src/draw/sw/lv_draw_sw_rect.c ****             blend_area.x2 = clip_area_sub.x2;
 1982              		.loc 1 566 27 view .LVU749
 1983 0436 ADF85830 		strh	r3, [sp, #88]	@ movhi
 567:Drivers/lvgl/src/draw/sw/lv_draw_sw_rect.c ****             blend_dsc.mask_res = LV_DRAW_MASK_RES_CHANGED;    /*In simple mode it won't be overwrit
 1984              		.loc 1 567 13 is_stmt 1 view .LVU750
 567:Drivers/lvgl/src/draw/sw/lv_draw_sw_rect.c ****             blend_dsc.mask_res = LV_DRAW_MASK_RES_CHANGED;    /*In simple mode it won't be overwrit
 1985              		.loc 1 567 42 is_stmt 0 view .LVU751
 1986 043a BDF95430 		ldrsh	r3, [sp, #84]
 567:Drivers/lvgl/src/draw/sw/lv_draw_sw_rect.c ****             blend_dsc.mask_res = LV_DRAW_MASK_RES_CHANGED;    /*In simple mode it won't be overwrit
 1987              		.loc 1 567 27 view .LVU752
 1988 043e ADF85C30 		strh	r3, [sp, #92]	@ movhi
 568:Drivers/lvgl/src/draw/sw/lv_draw_sw_rect.c ****             for(y = clip_area_sub.y1; y <= clip_area_sub.y2; y++) {
 1989              		.loc 1 568 13 is_stmt 1 view .LVU753
 568:Drivers/lvgl/src/draw/sw/lv_draw_sw_rect.c ****             for(y = clip_area_sub.y1; y <= clip_area_sub.y2; y++) {
 1990              		.loc 1 568 32 is_stmt 0 view .LVU754
 1991 0442 0223     		movs	r3, #2
 1992 0444 8DF84430 		strb	r3, [sp, #68]
 569:Drivers/lvgl/src/draw/sw/lv_draw_sw_rect.c ****                 blend_area.y1 = y;
 1993              		.loc 1 569 13 is_stmt 1 view .LVU755
 569:Drivers/lvgl/src/draw/sw/lv_draw_sw_rect.c ****                 blend_area.y1 = y;
 1994              		.loc 1 569 19 is_stmt 0 view .LVU756
 1995 0448 BDF952A0 		ldrsh	r10, [sp, #82]
 1996              	.LVL177:
 569:Drivers/lvgl/src/draw/sw/lv_draw_sw_rect.c ****                 blend_area.y1 = y;
 1997              		.loc 1 569 19 view .LVU757
 1998 044c CDF82090 		str	r9, [sp, #32]
 1999 0450 0997     		str	r7, [sp, #36]
 2000 0452 A146     		mov	r9, r4
 2001              	.LVL178:
 569:Drivers/lvgl/src/draw/sw/lv_draw_sw_rect.c ****                 blend_area.y1 = y;
 2002              		.loc 1 569 19 view .LVU758
 2003 0454 5C46     		mov	r4, fp
 2004              	.LVL179:
 569:Drivers/lvgl/src/draw/sw/lv_draw_sw_rect.c ****                 blend_area.y1 = y;
 2005              		.loc 1 569 19 view .LVU759
 2006 0456 1746     		mov	r7, r2
 2007 0458 AB46     		mov	fp, r5
 2008              	.LVL180:
 569:Drivers/lvgl/src/draw/sw/lv_draw_sw_rect.c ****                 blend_area.y1 = y;
 2009              		.loc 1 569 19 view .LVU760
 2010 045a 0D46     		mov	r5, r1
 2011              	.LVL181:
 569:Drivers/lvgl/src/draw/sw/lv_draw_sw_rect.c ****                 blend_area.y1 = y;
 2012              		.loc 1 569 13 view .LVU761
 2013 045c 23E0     		b	.L93
 2014              	.LVL182:
 2015              	.L188:
ARM GAS  /var/folders/0z/tsy30v1j4xl4_7kw94k978ww0000gn/T//cc0noGMx.s 			page 75


 562:Drivers/lvgl/src/draw/sw/lv_draw_sw_rect.c ****         else simple_sub = simple;
 2016              		.loc 1 562 22 discriminator 1 view .LVU762
 2017 045e 5246     		mov	r2, r10
 2018 0460 1EA9     		add	r1, sp, #120
 2019 0462 14A8     		add	r0, sp, #80
 2020 0464 FFF7FEFF 		bl	_lv_area_is_out
 2021              	.LVL183:
 562:Drivers/lvgl/src/draw/sw/lv_draw_sw_rect.c ****         else simple_sub = simple;
 2022              		.loc 1 562 19 discriminator 1 view .LVU763
 2023 0468 0146     		mov	r1, r0
 2024 046a 0028     		cmp	r0, #0
 2025 046c DBD1     		bne	.L92
 2026 046e 009B     		ldr	r3, [sp]
 2027 0470 1946     		mov	r1, r3
 2028 0472 D8E7     		b	.L92
 2029              	.LVL184:
 2030              	.L191:
 574:Drivers/lvgl/src/draw/sw/lv_draw_sw_rect.c ****                     blend_dsc.mask_res = lv_draw_mask_apply(mask_buf, clip_area_sub.x1, y, w);
 2031              		.loc 1 574 21 is_stmt 1 view .LVU764
 2032 0474 4A46     		mov	r2, r9
 2033 0476 2146     		mov	r1, r4
 2034 0478 3846     		mov	r0, r7
 2035 047a FFF7FEFF 		bl	lv_memcpy
 2036              	.LVL185:
 575:Drivers/lvgl/src/draw/sw/lv_draw_sw_rect.c ****                     if(blend_dsc.mask_res == LV_DRAW_MASK_RES_FULL_COVER) blend_dsc.mask_res = LV_D
 2037              		.loc 1 575 21 view .LVU765
 575:Drivers/lvgl/src/draw/sw/lv_draw_sw_rect.c ****                     if(blend_dsc.mask_res == LV_DRAW_MASK_RES_FULL_COVER) blend_dsc.mask_res = LV_D
 2038              		.loc 1 575 42 is_stmt 0 view .LVU766
 2039 047e 059B     		ldr	r3, [sp, #20]
 2040 0480 5246     		mov	r2, r10
 2041 0482 BDF95010 		ldrsh	r1, [sp, #80]
 2042 0486 3846     		mov	r0, r7
 2043 0488 FFF7FEFF 		bl	lv_draw_mask_apply
 2044              	.LVL186:
 575:Drivers/lvgl/src/draw/sw/lv_draw_sw_rect.c ****                     if(blend_dsc.mask_res == LV_DRAW_MASK_RES_FULL_COVER) blend_dsc.mask_res = LV_D
 2045              		.loc 1 575 40 view .LVU767
 2046 048c 8DF84400 		strb	r0, [sp, #68]
 576:Drivers/lvgl/src/draw/sw/lv_draw_sw_rect.c ****                 }
 2047              		.loc 1 576 21 is_stmt 1 view .LVU768
 576:Drivers/lvgl/src/draw/sw/lv_draw_sw_rect.c ****                 }
 2048              		.loc 1 576 23 is_stmt 0 view .LVU769
 2049 0490 0128     		cmp	r0, #1
 2050 0492 14D0     		beq	.L189
 2051              	.L95:
 581:Drivers/lvgl/src/draw/sw/lv_draw_sw_rect.c ****                 sh_buf_tmp += corner_size;
 2052              		.loc 1 581 17 is_stmt 1 discriminator 2 view .LVU770
 2053 0494 0DA9     		add	r1, sp, #52
 2054 0496 3046     		mov	r0, r6
 2055 0498 FFF7FEFF 		bl	lv_draw_sw_blend
 2056              	.LVL187:
 582:Drivers/lvgl/src/draw/sw/lv_draw_sw_rect.c ****             }
 2057              		.loc 1 582 17 discriminator 2 view .LVU771
 582:Drivers/lvgl/src/draw/sw/lv_draw_sw_rect.c ****             }
 2058              		.loc 1 582 28 is_stmt 0 discriminator 2 view .LVU772
 2059 049c 4C44     		add	r4, r4, r9
 2060              	.LVL188:
 569:Drivers/lvgl/src/draw/sw/lv_draw_sw_rect.c ****                 blend_area.y1 = y;
ARM GAS  /var/folders/0z/tsy30v1j4xl4_7kw94k978ww0000gn/T//cc0noGMx.s 			page 76


 2061              		.loc 1 569 63 is_stmt 1 discriminator 2 view .LVU773
 2062 049e 0AF1010A 		add	r10, r10, #1
 2063              	.LVL189:
 569:Drivers/lvgl/src/draw/sw/lv_draw_sw_rect.c ****                 blend_area.y1 = y;
 2064              		.loc 1 569 63 is_stmt 0 discriminator 2 view .LVU774
 2065 04a2 0FFA8AFA 		sxth	r10, r10
 2066              	.LVL190:
 2067              	.L93:
 569:Drivers/lvgl/src/draw/sw/lv_draw_sw_rect.c ****                 blend_area.y1 = y;
 2068              		.loc 1 569 41 is_stmt 1 discriminator 1 view .LVU775
 569:Drivers/lvgl/src/draw/sw/lv_draw_sw_rect.c ****                 blend_area.y1 = y;
 2069              		.loc 1 569 57 is_stmt 0 discriminator 1 view .LVU776
 2070 04a6 BDF95630 		ldrsh	r3, [sp, #86]
 569:Drivers/lvgl/src/draw/sw/lv_draw_sw_rect.c ****                 blend_area.y1 = y;
 2071              		.loc 1 569 41 discriminator 1 view .LVU777
 2072 04aa 5345     		cmp	r3, r10
 2073 04ac 0BDB     		blt	.L190
 570:Drivers/lvgl/src/draw/sw/lv_draw_sw_rect.c ****                 blend_area.y2 = y;
 2074              		.loc 1 570 17 is_stmt 1 view .LVU778
 570:Drivers/lvgl/src/draw/sw/lv_draw_sw_rect.c ****                 blend_area.y2 = y;
 2075              		.loc 1 570 31 is_stmt 0 view .LVU779
 2076 04ae ADF85AA0 		strh	r10, [sp, #90]	@ movhi
 571:Drivers/lvgl/src/draw/sw/lv_draw_sw_rect.c **** 
 2077              		.loc 1 571 17 is_stmt 1 view .LVU780
 571:Drivers/lvgl/src/draw/sw/lv_draw_sw_rect.c **** 
 2078              		.loc 1 571 31 is_stmt 0 view .LVU781
 2079 04b2 ADF85EA0 		strh	r10, [sp, #94]	@ movhi
 573:Drivers/lvgl/src/draw/sw/lv_draw_sw_rect.c ****                     lv_memcpy(mask_buf, sh_buf_tmp, corner_size);
 2080              		.loc 1 573 17 is_stmt 1 view .LVU782
 573:Drivers/lvgl/src/draw/sw/lv_draw_sw_rect.c ****                     lv_memcpy(mask_buf, sh_buf_tmp, corner_size);
 2081              		.loc 1 573 19 is_stmt 0 view .LVU783
 2082 04b6 002D     		cmp	r5, #0
 2083 04b8 DCD0     		beq	.L191
 579:Drivers/lvgl/src/draw/sw/lv_draw_sw_rect.c ****                 }
 2084              		.loc 1 579 21 is_stmt 1 view .LVU784
 579:Drivers/lvgl/src/draw/sw/lv_draw_sw_rect.c ****                 }
 2085              		.loc 1 579 40 is_stmt 0 view .LVU785
 2086 04ba 1094     		str	r4, [sp, #64]
 2087 04bc EAE7     		b	.L95
 2088              	.L189:
 576:Drivers/lvgl/src/draw/sw/lv_draw_sw_rect.c ****                 }
 2089              		.loc 1 576 75 is_stmt 1 discriminator 1 view .LVU786
 576:Drivers/lvgl/src/draw/sw/lv_draw_sw_rect.c ****                 }
 2090              		.loc 1 576 94 is_stmt 0 discriminator 1 view .LVU787
 2091 04be 0223     		movs	r3, #2
 2092 04c0 8DF84430 		strb	r3, [sp, #68]
 2093 04c4 E6E7     		b	.L95
 2094              	.L190:
 576:Drivers/lvgl/src/draw/sw/lv_draw_sw_rect.c ****                 }
 2095              		.loc 1 576 94 discriminator 1 view .LVU788
 2096 04c6 099F     		ldr	r7, [sp, #36]
 2097 04c8 4C46     		mov	r4, r9
 2098              	.LVL191:
 576:Drivers/lvgl/src/draw/sw/lv_draw_sw_rect.c ****                 }
 2099              		.loc 1 576 94 discriminator 1 view .LVU789
 2100 04ca DDF82090 		ldr	r9, [sp, #32]
 2101              	.LVL192:
ARM GAS  /var/folders/0z/tsy30v1j4xl4_7kw94k978ww0000gn/T//cc0noGMx.s 			page 77


 576:Drivers/lvgl/src/draw/sw/lv_draw_sw_rect.c ****                 }
 2102              		.loc 1 576 94 discriminator 1 view .LVU790
 2103 04ce 5D46     		mov	r5, fp
 2104 04d0 CFE6     		b	.L91
 2105              	.LVL193:
 2106              	.L184:
 576:Drivers/lvgl/src/draw/sw/lv_draw_sw_rect.c ****                 }
 2107              		.loc 1 576 94 discriminator 1 view .LVU791
 2108              	.LBE150:
 598:Drivers/lvgl/src/draw/sw/lv_draw_sw_rect.c ****         lv_coord_t w = lv_area_get_width(&clip_area_sub);
 2109              		.loc 1 598 9 discriminator 1 view .LVU792
 2110 04d2 BDF904A0 		ldrsh	r10, [sp, #4]
 2111 04d6 5246     		mov	r2, r10
 2112 04d8 1EA9     		add	r1, sp, #120
 2113 04da 14A8     		add	r0, sp, #80
 2114 04dc FFF7FEFF 		bl	_lv_area_is_in
 2115              	.LVL194:
 597:Drivers/lvgl/src/draw/sw/lv_draw_sw_rect.c ****        !_lv_area_is_in(&clip_area_sub, &bg_area, r_bg)) {
 2116              		.loc 1 597 77 discriminator 1 view .LVU793
 2117 04e0 0028     		cmp	r0, #0
 2118 04e2 7FF4F2AE 		bne	.L97
 2119              	.LBB153:
 599:Drivers/lvgl/src/draw/sw/lv_draw_sw_rect.c ****         sh_buf_tmp = sh_buf;
 2120              		.loc 1 599 9 is_stmt 1 view .LVU794
 2121              	.LVL195:
 2122              	.LBB154:
 2123              	.LBI154:
 123:Drivers/lvgl/src/draw/sw/../../misc/lv_area.h **** {
 2124              		.loc 2 123 26 view .LVU795
 2125              	.LBB155:
 125:Drivers/lvgl/src/draw/sw/../../misc/lv_area.h **** }
 2126              		.loc 2 125 5 view .LVU796
 125:Drivers/lvgl/src/draw/sw/../../misc/lv_area.h **** }
 2127              		.loc 2 125 31 is_stmt 0 view .LVU797
 2128 04e6 BDF85430 		ldrh	r3, [sp, #84]
 125:Drivers/lvgl/src/draw/sw/../../misc/lv_area.h **** }
 2129              		.loc 2 125 44 view .LVU798
 2130 04ea BDF95020 		ldrsh	r2, [sp, #80]
 2131 04ee 91B2     		uxth	r1, r2
 125:Drivers/lvgl/src/draw/sw/../../misc/lv_area.h **** }
 2132              		.loc 2 125 36 view .LVU799
 2133 04f0 5B1A     		subs	r3, r3, r1
 2134 04f2 9BB2     		uxth	r3, r3
 125:Drivers/lvgl/src/draw/sw/../../misc/lv_area.h **** }
 2135              		.loc 2 125 49 view .LVU800
 2136 04f4 0133     		adds	r3, r3, #1
 125:Drivers/lvgl/src/draw/sw/../../misc/lv_area.h **** }
 2137              		.loc 2 125 12 view .LVU801
 2138 04f6 1BB2     		sxth	r3, r3
 2139 04f8 0893     		str	r3, [sp, #32]
 2140              	.LVL196:
 125:Drivers/lvgl/src/draw/sw/../../misc/lv_area.h **** }
 2141              		.loc 2 125 12 view .LVU802
 2142              	.LBE155:
 2143              	.LBE154:
 600:Drivers/lvgl/src/draw/sw/lv_draw_sw_rect.c ****         sh_buf_tmp += (blend_area.y2 - clip_area_sub.y2) * corner_size;
 2144              		.loc 1 600 9 is_stmt 1 view .LVU803
ARM GAS  /var/folders/0z/tsy30v1j4xl4_7kw94k978ww0000gn/T//cc0noGMx.s 			page 78


 601:Drivers/lvgl/src/draw/sw/lv_draw_sw_rect.c ****         sh_buf_tmp += clip_area_sub.x1 - (shadow_area.x2 - corner_size + 1);
 2145              		.loc 1 601 9 view .LVU804
 601:Drivers/lvgl/src/draw/sw/lv_draw_sw_rect.c ****         sh_buf_tmp += clip_area_sub.x1 - (shadow_area.x2 - corner_size + 1);
 2146              		.loc 1 601 34 is_stmt 0 view .LVU805
 2147 04fa BDF95E10 		ldrsh	r1, [sp, #94]
 601:Drivers/lvgl/src/draw/sw/lv_draw_sw_rect.c ****         sh_buf_tmp += clip_area_sub.x1 - (shadow_area.x2 - corner_size + 1);
 2148              		.loc 1 601 53 view .LVU806
 2149 04fe BDF95630 		ldrsh	r3, [sp, #86]
 601:Drivers/lvgl/src/draw/sw/lv_draw_sw_rect.c ****         sh_buf_tmp += clip_area_sub.x1 - (shadow_area.x2 - corner_size + 1);
 2150              		.loc 1 601 38 view .LVU807
 2151 0502 C91A     		subs	r1, r1, r3
 2152              	.LVL197:
 602:Drivers/lvgl/src/draw/sw/lv_draw_sw_rect.c ****         /*Do not mask if out of the bg*/
 2153              		.loc 1 602 9 is_stmt 1 view .LVU808
 602:Drivers/lvgl/src/draw/sw/lv_draw_sw_rect.c ****         /*Do not mask if out of the bg*/
 2154              		.loc 1 602 54 is_stmt 0 view .LVU809
 2155 0504 BDF98C30 		ldrsh	r3, [sp, #140]
 602:Drivers/lvgl/src/draw/sw/lv_draw_sw_rect.c ****         /*Do not mask if out of the bg*/
 2156              		.loc 1 602 58 view .LVU810
 2157 0508 1B1B     		subs	r3, r3, r4
 602:Drivers/lvgl/src/draw/sw/lv_draw_sw_rect.c ****         /*Do not mask if out of the bg*/
 2158              		.loc 1 602 72 view .LVU811
 2159 050a 0133     		adds	r3, r3, #1
 602:Drivers/lvgl/src/draw/sw/lv_draw_sw_rect.c ****         /*Do not mask if out of the bg*/
 2160              		.loc 1 602 40 view .LVU812
 2161 050c A2EB030B 		sub	fp, r2, r3
 602:Drivers/lvgl/src/draw/sw/lv_draw_sw_rect.c ****         /*Do not mask if out of the bg*/
 2162              		.loc 1 602 20 view .LVU813
 2163 0510 04FB01BB 		mla	fp, r4, r1, fp
 2164 0514 039B     		ldr	r3, [sp, #12]
 2165 0516 9B44     		add	fp, fp, r3
 2166              	.LVL198:
 604:Drivers/lvgl/src/draw/sw/lv_draw_sw_rect.c ****         else simple_sub = simple;
 2167              		.loc 1 604 9 is_stmt 1 view .LVU814
 604:Drivers/lvgl/src/draw/sw/lv_draw_sw_rect.c ****         else simple_sub = simple;
 2168              		.loc 1 604 11 is_stmt 0 view .LVU815
 2169 0518 009B     		ldr	r3, [sp]
 2170 051a EBB9     		cbnz	r3, .L192
 2171 051c 009B     		ldr	r3, [sp]
 2172 051e 1946     		mov	r1, r3
 2173              	.L98:
 2174              	.LVL199:
 607:Drivers/lvgl/src/draw/sw/lv_draw_sw_rect.c ****             blend_dsc.mask_buf = mask_buf;
 2175              		.loc 1 607 9 is_stmt 1 view .LVU816
 607:Drivers/lvgl/src/draw/sw/lv_draw_sw_rect.c ****             blend_dsc.mask_buf = mask_buf;
 2176              		.loc 1 607 11 is_stmt 0 view .LVU817
 2177 0520 089B     		ldr	r3, [sp, #32]
 2178 0522 002B     		cmp	r3, #0
 2179 0524 7FF7D1AE 		ble	.L97
 608:Drivers/lvgl/src/draw/sw/lv_draw_sw_rect.c ****             blend_area.x1 = clip_area_sub.x1;
 2180              		.loc 1 608 13 is_stmt 1 view .LVU818
 608:Drivers/lvgl/src/draw/sw/lv_draw_sw_rect.c ****             blend_area.x1 = clip_area_sub.x1;
 2181              		.loc 1 608 32 is_stmt 0 view .LVU819
 2182 0528 049A     		ldr	r2, [sp, #16]
 2183 052a 1092     		str	r2, [sp, #64]
 609:Drivers/lvgl/src/draw/sw/lv_draw_sw_rect.c ****             blend_area.x2 = clip_area_sub.x2;
 2184              		.loc 1 609 13 is_stmt 1 view .LVU820
ARM GAS  /var/folders/0z/tsy30v1j4xl4_7kw94k978ww0000gn/T//cc0noGMx.s 			page 79


 609:Drivers/lvgl/src/draw/sw/lv_draw_sw_rect.c ****             blend_area.x2 = clip_area_sub.x2;
 2185              		.loc 1 609 42 is_stmt 0 view .LVU821
 2186 052c BDF95030 		ldrsh	r3, [sp, #80]
 609:Drivers/lvgl/src/draw/sw/lv_draw_sw_rect.c ****             blend_area.x2 = clip_area_sub.x2;
 2187              		.loc 1 609 27 view .LVU822
 2188 0530 ADF85830 		strh	r3, [sp, #88]	@ movhi
 610:Drivers/lvgl/src/draw/sw/lv_draw_sw_rect.c ****             blend_dsc.mask_res = LV_DRAW_MASK_RES_CHANGED;    /*In simple mode it won't be overwrit
 2189              		.loc 1 610 13 is_stmt 1 view .LVU823
 610:Drivers/lvgl/src/draw/sw/lv_draw_sw_rect.c ****             blend_dsc.mask_res = LV_DRAW_MASK_RES_CHANGED;    /*In simple mode it won't be overwrit
 2190              		.loc 1 610 42 is_stmt 0 view .LVU824
 2191 0534 BDF95430 		ldrsh	r3, [sp, #84]
 610:Drivers/lvgl/src/draw/sw/lv_draw_sw_rect.c ****             blend_dsc.mask_res = LV_DRAW_MASK_RES_CHANGED;    /*In simple mode it won't be overwrit
 2192              		.loc 1 610 27 view .LVU825
 2193 0538 ADF85C30 		strh	r3, [sp, #92]	@ movhi
 611:Drivers/lvgl/src/draw/sw/lv_draw_sw_rect.c ****             for(y = clip_area_sub.y2; y >= clip_area_sub.y1; y--) {
 2194              		.loc 1 611 13 is_stmt 1 view .LVU826
 611:Drivers/lvgl/src/draw/sw/lv_draw_sw_rect.c ****             for(y = clip_area_sub.y2; y >= clip_area_sub.y1; y--) {
 2195              		.loc 1 611 32 is_stmt 0 view .LVU827
 2196 053c 0223     		movs	r3, #2
 2197 053e 8DF84430 		strb	r3, [sp, #68]
 612:Drivers/lvgl/src/draw/sw/lv_draw_sw_rect.c ****                 blend_area.y1 = y;
 2198              		.loc 1 612 13 is_stmt 1 view .LVU828
 612:Drivers/lvgl/src/draw/sw/lv_draw_sw_rect.c ****                 blend_area.y1 = y;
 2199              		.loc 1 612 19 is_stmt 0 view .LVU829
 2200 0542 BDF956A0 		ldrsh	r10, [sp, #86]
 2201              	.LVL200:
 612:Drivers/lvgl/src/draw/sw/lv_draw_sw_rect.c ****                 blend_area.y1 = y;
 2202              		.loc 1 612 19 view .LVU830
 2203 0546 CDF82490 		str	r9, [sp, #36]
 2204 054a 0A97     		str	r7, [sp, #40]
 2205 054c A146     		mov	r9, r4
 2206 054e 5C46     		mov	r4, fp
 2207              	.LVL201:
 612:Drivers/lvgl/src/draw/sw/lv_draw_sw_rect.c ****                 blend_area.y1 = y;
 2208              		.loc 1 612 19 view .LVU831
 2209 0550 1746     		mov	r7, r2
 2210 0552 AB46     		mov	fp, r5
 2211              	.LVL202:
 612:Drivers/lvgl/src/draw/sw/lv_draw_sw_rect.c ****                 blend_area.y1 = y;
 2212              		.loc 1 612 19 view .LVU832
 2213 0554 0D46     		mov	r5, r1
 2214              	.LVL203:
 612:Drivers/lvgl/src/draw/sw/lv_draw_sw_rect.c ****                 blend_area.y1 = y;
 2215              		.loc 1 612 13 view .LVU833
 2216 0556 23E0     		b	.L99
 2217              	.LVL204:
 2218              	.L192:
 604:Drivers/lvgl/src/draw/sw/lv_draw_sw_rect.c ****         else simple_sub = simple;
 2219              		.loc 1 604 22 discriminator 1 view .LVU834
 2220 0558 5246     		mov	r2, r10
 2221 055a 1EA9     		add	r1, sp, #120
 2222 055c 14A8     		add	r0, sp, #80
 2223 055e FFF7FEFF 		bl	_lv_area_is_out
 2224              	.LVL205:
 604:Drivers/lvgl/src/draw/sw/lv_draw_sw_rect.c ****         else simple_sub = simple;
 2225              		.loc 1 604 19 discriminator 1 view .LVU835
 2226 0562 0146     		mov	r1, r0
ARM GAS  /var/folders/0z/tsy30v1j4xl4_7kw94k978ww0000gn/T//cc0noGMx.s 			page 80


 2227 0564 0028     		cmp	r0, #0
 2228 0566 DBD1     		bne	.L98
 2229 0568 009B     		ldr	r3, [sp]
 2230 056a 1946     		mov	r1, r3
 2231 056c D8E7     		b	.L98
 2232              	.LVL206:
 2233              	.L195:
 617:Drivers/lvgl/src/draw/sw/lv_draw_sw_rect.c ****                     blend_dsc.mask_res = lv_draw_mask_apply(mask_buf, clip_area_sub.x1, y, w);
 2234              		.loc 1 617 21 is_stmt 1 view .LVU836
 2235 056e 4A46     		mov	r2, r9
 2236 0570 2146     		mov	r1, r4
 2237 0572 3846     		mov	r0, r7
 2238 0574 FFF7FEFF 		bl	lv_memcpy
 2239              	.LVL207:
 618:Drivers/lvgl/src/draw/sw/lv_draw_sw_rect.c ****                     if(blend_dsc.mask_res == LV_DRAW_MASK_RES_FULL_COVER) blend_dsc.mask_res = LV_D
 2240              		.loc 1 618 21 view .LVU837
 618:Drivers/lvgl/src/draw/sw/lv_draw_sw_rect.c ****                     if(blend_dsc.mask_res == LV_DRAW_MASK_RES_FULL_COVER) blend_dsc.mask_res = LV_D
 2241              		.loc 1 618 42 is_stmt 0 view .LVU838
 2242 0578 089B     		ldr	r3, [sp, #32]
 2243 057a 5246     		mov	r2, r10
 2244 057c BDF95010 		ldrsh	r1, [sp, #80]
 2245 0580 3846     		mov	r0, r7
 2246 0582 FFF7FEFF 		bl	lv_draw_mask_apply
 2247              	.LVL208:
 618:Drivers/lvgl/src/draw/sw/lv_draw_sw_rect.c ****                     if(blend_dsc.mask_res == LV_DRAW_MASK_RES_FULL_COVER) blend_dsc.mask_res = LV_D
 2248              		.loc 1 618 40 view .LVU839
 2249 0586 8DF84400 		strb	r0, [sp, #68]
 619:Drivers/lvgl/src/draw/sw/lv_draw_sw_rect.c ****                 }
 2250              		.loc 1 619 21 is_stmt 1 view .LVU840
 619:Drivers/lvgl/src/draw/sw/lv_draw_sw_rect.c ****                 }
 2251              		.loc 1 619 23 is_stmt 0 view .LVU841
 2252 058a 0128     		cmp	r0, #1
 2253 058c 14D0     		beq	.L193
 2254              	.L101:
 624:Drivers/lvgl/src/draw/sw/lv_draw_sw_rect.c ****                 sh_buf_tmp += corner_size;
 2255              		.loc 1 624 17 is_stmt 1 discriminator 2 view .LVU842
 2256 058e 0DA9     		add	r1, sp, #52
 2257 0590 3046     		mov	r0, r6
 2258 0592 FFF7FEFF 		bl	lv_draw_sw_blend
 2259              	.LVL209:
 625:Drivers/lvgl/src/draw/sw/lv_draw_sw_rect.c ****             }
 2260              		.loc 1 625 17 discriminator 2 view .LVU843
 625:Drivers/lvgl/src/draw/sw/lv_draw_sw_rect.c ****             }
 2261              		.loc 1 625 28 is_stmt 0 discriminator 2 view .LVU844
 2262 0596 4C44     		add	r4, r4, r9
 2263              	.LVL210:
 612:Drivers/lvgl/src/draw/sw/lv_draw_sw_rect.c ****                 blend_area.y1 = y;
 2264              		.loc 1 612 63 is_stmt 1 discriminator 2 view .LVU845
 2265 0598 0AF1FF3A 		add	r10, r10, #-1
 2266              	.LVL211:
 612:Drivers/lvgl/src/draw/sw/lv_draw_sw_rect.c ****                 blend_area.y1 = y;
 2267              		.loc 1 612 63 is_stmt 0 discriminator 2 view .LVU846
 2268 059c 0FFA8AFA 		sxth	r10, r10
 2269              	.LVL212:
 2270              	.L99:
 612:Drivers/lvgl/src/draw/sw/lv_draw_sw_rect.c ****                 blend_area.y1 = y;
 2271              		.loc 1 612 41 is_stmt 1 discriminator 1 view .LVU847
ARM GAS  /var/folders/0z/tsy30v1j4xl4_7kw94k978ww0000gn/T//cc0noGMx.s 			page 81


 612:Drivers/lvgl/src/draw/sw/lv_draw_sw_rect.c ****                 blend_area.y1 = y;
 2272              		.loc 1 612 57 is_stmt 0 discriminator 1 view .LVU848
 2273 05a0 BDF95230 		ldrsh	r3, [sp, #82]
 612:Drivers/lvgl/src/draw/sw/lv_draw_sw_rect.c ****                 blend_area.y1 = y;
 2274              		.loc 1 612 41 discriminator 1 view .LVU849
 2275 05a4 5345     		cmp	r3, r10
 2276 05a6 0BDC     		bgt	.L194
 613:Drivers/lvgl/src/draw/sw/lv_draw_sw_rect.c ****                 blend_area.y2 = y;
 2277              		.loc 1 613 17 is_stmt 1 view .LVU850
 613:Drivers/lvgl/src/draw/sw/lv_draw_sw_rect.c ****                 blend_area.y2 = y;
 2278              		.loc 1 613 31 is_stmt 0 view .LVU851
 2279 05a8 ADF85AA0 		strh	r10, [sp, #90]	@ movhi
 614:Drivers/lvgl/src/draw/sw/lv_draw_sw_rect.c **** 
 2280              		.loc 1 614 17 is_stmt 1 view .LVU852
 614:Drivers/lvgl/src/draw/sw/lv_draw_sw_rect.c **** 
 2281              		.loc 1 614 31 is_stmt 0 view .LVU853
 2282 05ac ADF85EA0 		strh	r10, [sp, #94]	@ movhi
 616:Drivers/lvgl/src/draw/sw/lv_draw_sw_rect.c ****                     lv_memcpy(mask_buf, sh_buf_tmp, corner_size);
 2283              		.loc 1 616 17 is_stmt 1 view .LVU854
 616:Drivers/lvgl/src/draw/sw/lv_draw_sw_rect.c ****                     lv_memcpy(mask_buf, sh_buf_tmp, corner_size);
 2284              		.loc 1 616 19 is_stmt 0 view .LVU855
 2285 05b0 002D     		cmp	r5, #0
 2286 05b2 DCD0     		beq	.L195
 622:Drivers/lvgl/src/draw/sw/lv_draw_sw_rect.c ****                 }
 2287              		.loc 1 622 21 is_stmt 1 view .LVU856
 622:Drivers/lvgl/src/draw/sw/lv_draw_sw_rect.c ****                 }
 2288              		.loc 1 622 40 is_stmt 0 view .LVU857
 2289 05b4 1094     		str	r4, [sp, #64]
 2290 05b6 EAE7     		b	.L101
 2291              	.L193:
 619:Drivers/lvgl/src/draw/sw/lv_draw_sw_rect.c ****                 }
 2292              		.loc 1 619 75 is_stmt 1 discriminator 1 view .LVU858
 619:Drivers/lvgl/src/draw/sw/lv_draw_sw_rect.c ****                 }
 2293              		.loc 1 619 94 is_stmt 0 discriminator 1 view .LVU859
 2294 05b8 0223     		movs	r3, #2
 2295 05ba 8DF84430 		strb	r3, [sp, #68]
 2296 05be E6E7     		b	.L101
 2297              	.L194:
 619:Drivers/lvgl/src/draw/sw/lv_draw_sw_rect.c ****                 }
 2298              		.loc 1 619 94 discriminator 1 view .LVU860
 2299 05c0 0A9F     		ldr	r7, [sp, #40]
 2300 05c2 4C46     		mov	r4, r9
 2301              	.LVL213:
 619:Drivers/lvgl/src/draw/sw/lv_draw_sw_rect.c ****                 }
 2302              		.loc 1 619 94 discriminator 1 view .LVU861
 2303 05c4 DDF82490 		ldr	r9, [sp, #36]
 2304              	.LVL214:
 619:Drivers/lvgl/src/draw/sw/lv_draw_sw_rect.c ****                 }
 2305              		.loc 1 619 94 discriminator 1 view .LVU862
 2306 05c8 5D46     		mov	r5, fp
 2307 05ca 7EE6     		b	.L97
 2308              	.LVL215:
 2309              	.L185:
 619:Drivers/lvgl/src/draw/sw/lv_draw_sw_rect.c ****                 }
 2310              		.loc 1 619 94 discriminator 1 view .LVU863
 2311              	.LBE153:
 638:Drivers/lvgl/src/draw/sw/lv_draw_sw_rect.c ****         lv_coord_t w = lv_area_get_width(&clip_area_sub);
ARM GAS  /var/folders/0z/tsy30v1j4xl4_7kw94k978ww0000gn/T//cc0noGMx.s 			page 82


 2312              		.loc 1 638 9 discriminator 1 view .LVU864
 2313 05cc BDF904A0 		ldrsh	r10, [sp, #4]
 2314 05d0 5246     		mov	r2, r10
 2315 05d2 1EA9     		add	r1, sp, #120
 2316 05d4 14A8     		add	r0, sp, #80
 2317 05d6 FFF7FEFF 		bl	_lv_area_is_in
 2318              	.LVL216:
 637:Drivers/lvgl/src/draw/sw/lv_draw_sw_rect.c ****        !_lv_area_is_in(&clip_area_sub, &bg_area, r_bg)) {
 2319              		.loc 1 637 77 discriminator 1 view .LVU865
 2320 05da 0028     		cmp	r0, #0
 2321 05dc 7FF497AE 		bne	.L103
 2322              	.LBB156:
 639:Drivers/lvgl/src/draw/sw/lv_draw_sw_rect.c ****         sh_buf_tmp = sh_buf;
 2323              		.loc 1 639 9 is_stmt 1 view .LVU866
 2324              	.LVL217:
 2325              	.LBB157:
 2326              	.LBI157:
 123:Drivers/lvgl/src/draw/sw/../../misc/lv_area.h **** {
 2327              		.loc 2 123 26 view .LVU867
 2328              	.LBB158:
 125:Drivers/lvgl/src/draw/sw/../../misc/lv_area.h **** }
 2329              		.loc 2 125 5 view .LVU868
 125:Drivers/lvgl/src/draw/sw/../../misc/lv_area.h **** }
 2330              		.loc 2 125 31 is_stmt 0 view .LVU869
 2331 05e0 BDF85430 		ldrh	r3, [sp, #84]
 125:Drivers/lvgl/src/draw/sw/../../misc/lv_area.h **** }
 2332              		.loc 2 125 44 view .LVU870
 2333 05e4 BDF85020 		ldrh	r2, [sp, #80]
 125:Drivers/lvgl/src/draw/sw/../../misc/lv_area.h **** }
 2334              		.loc 2 125 36 view .LVU871
 2335 05e8 9B1A     		subs	r3, r3, r2
 2336 05ea 9BB2     		uxth	r3, r3
 125:Drivers/lvgl/src/draw/sw/../../misc/lv_area.h **** }
 2337              		.loc 2 125 49 view .LVU872
 2338 05ec 0133     		adds	r3, r3, #1
 125:Drivers/lvgl/src/draw/sw/../../misc/lv_area.h **** }
 2339              		.loc 2 125 12 view .LVU873
 2340 05ee 1BB2     		sxth	r3, r3
 2341 05f0 0893     		str	r3, [sp, #32]
 2342              	.LVL218:
 125:Drivers/lvgl/src/draw/sw/../../misc/lv_area.h **** }
 2343              		.loc 2 125 12 view .LVU874
 2344              	.LBE158:
 2345              	.LBE157:
 640:Drivers/lvgl/src/draw/sw/lv_draw_sw_rect.c ****         sh_buf_tmp += (clip_area_sub.y1 - blend_area.y1) * corner_size;
 2346              		.loc 1 640 9 is_stmt 1 view .LVU875
 641:Drivers/lvgl/src/draw/sw/lv_draw_sw_rect.c **** 
 2347              		.loc 1 641 9 view .LVU876
 641:Drivers/lvgl/src/draw/sw/lv_draw_sw_rect.c **** 
 2348              		.loc 1 641 37 is_stmt 0 view .LVU877
 2349 05f2 BDF952B0 		ldrsh	fp, [sp, #82]
 641:Drivers/lvgl/src/draw/sw/lv_draw_sw_rect.c **** 
 2350              		.loc 1 641 53 view .LVU878
 2351 05f6 BDF95A30 		ldrsh	r3, [sp, #90]
 641:Drivers/lvgl/src/draw/sw/lv_draw_sw_rect.c **** 
 2352              		.loc 1 641 41 view .LVU879
 2353 05fa ABEB030B 		sub	fp, fp, r3
ARM GAS  /var/folders/0z/tsy30v1j4xl4_7kw94k978ww0000gn/T//cc0noGMx.s 			page 83


 641:Drivers/lvgl/src/draw/sw/lv_draw_sw_rect.c **** 
 2354              		.loc 1 641 20 view .LVU880
 2355 05fe 039B     		ldr	r3, [sp, #12]
 2356 0600 04FB0B3B 		mla	fp, r4, fp, r3
 2357              	.LVL219:
 644:Drivers/lvgl/src/draw/sw/lv_draw_sw_rect.c ****         else simple_sub = simple;
 2358              		.loc 1 644 9 is_stmt 1 view .LVU881
 644:Drivers/lvgl/src/draw/sw/lv_draw_sw_rect.c ****         else simple_sub = simple;
 2359              		.loc 1 644 11 is_stmt 0 view .LVU882
 2360 0604 009B     		ldr	r3, [sp]
 2361 0606 CBB9     		cbnz	r3, .L196
 2362 0608 009B     		ldr	r3, [sp]
 2363 060a 1A46     		mov	r2, r3
 2364              	.L104:
 2365              	.LVL220:
 647:Drivers/lvgl/src/draw/sw/lv_draw_sw_rect.c ****             if(!simple_sub) {
 2366              		.loc 1 647 9 is_stmt 1 view .LVU883
 647:Drivers/lvgl/src/draw/sw/lv_draw_sw_rect.c ****             if(!simple_sub) {
 2367              		.loc 1 647 11 is_stmt 0 view .LVU884
 2368 060c 089B     		ldr	r3, [sp, #32]
 2369 060e 002B     		cmp	r3, #0
 2370 0610 7FF77DAE 		ble	.L103
 648:Drivers/lvgl/src/draw/sw/lv_draw_sw_rect.c ****                 blend_dsc.mask_buf = mask_buf;
 2371              		.loc 1 648 13 is_stmt 1 view .LVU885
 648:Drivers/lvgl/src/draw/sw/lv_draw_sw_rect.c ****                 blend_dsc.mask_buf = mask_buf;
 2372              		.loc 1 648 15 is_stmt 0 view .LVU886
 2373 0614 EAB9     		cbnz	r2, .L105
 649:Drivers/lvgl/src/draw/sw/lv_draw_sw_rect.c ****             }
 2374              		.loc 1 649 17 is_stmt 1 view .LVU887
 649:Drivers/lvgl/src/draw/sw/lv_draw_sw_rect.c ****             }
 2375              		.loc 1 649 36 is_stmt 0 view .LVU888
 2376 0616 049B     		ldr	r3, [sp, #16]
 2377 0618 1093     		str	r3, [sp, #64]
 2378              	.L106:
 654:Drivers/lvgl/src/draw/sw/lv_draw_sw_rect.c ****             blend_area.x2 = clip_area_sub.x2;
 2379              		.loc 1 654 13 is_stmt 1 view .LVU889
 654:Drivers/lvgl/src/draw/sw/lv_draw_sw_rect.c ****             blend_area.x2 = clip_area_sub.x2;
 2380              		.loc 1 654 42 is_stmt 0 view .LVU890
 2381 061a BDF95030 		ldrsh	r3, [sp, #80]
 654:Drivers/lvgl/src/draw/sw/lv_draw_sw_rect.c ****             blend_area.x2 = clip_area_sub.x2;
 2382              		.loc 1 654 27 view .LVU891
 2383 061e ADF85830 		strh	r3, [sp, #88]	@ movhi
 655:Drivers/lvgl/src/draw/sw/lv_draw_sw_rect.c **** 
 2384              		.loc 1 655 13 is_stmt 1 view .LVU892
 655:Drivers/lvgl/src/draw/sw/lv_draw_sw_rect.c **** 
 2385              		.loc 1 655 42 is_stmt 0 view .LVU893
 2386 0622 BDF95430 		ldrsh	r3, [sp, #84]
 655:Drivers/lvgl/src/draw/sw/lv_draw_sw_rect.c **** 
 2387              		.loc 1 655 27 view .LVU894
 2388 0626 ADF85C30 		strh	r3, [sp, #92]	@ movhi
 657:Drivers/lvgl/src/draw/sw/lv_draw_sw_rect.c ****                 blend_area.y1 = y;
 2389              		.loc 1 657 13 is_stmt 1 view .LVU895
 657:Drivers/lvgl/src/draw/sw/lv_draw_sw_rect.c ****                 blend_area.y1 = y;
 2390              		.loc 1 657 19 is_stmt 0 view .LVU896
 2391 062a BDF952A0 		ldrsh	r10, [sp, #82]
 2392              	.LVL221:
 657:Drivers/lvgl/src/draw/sw/lv_draw_sw_rect.c ****                 blend_area.y1 = y;
ARM GAS  /var/folders/0z/tsy30v1j4xl4_7kw94k978ww0000gn/T//cc0noGMx.s 			page 84


 2393              		.loc 1 657 19 view .LVU897
 2394 062e 0997     		str	r7, [sp, #36]
 2395 0630 1746     		mov	r7, r2
 2396 0632 CDF82880 		str	r8, [sp, #40]
 2397 0636 DDF81080 		ldr	r8, [sp, #16]
 2398              	.LVL222:
 657:Drivers/lvgl/src/draw/sw/lv_draw_sw_rect.c ****                 blend_area.y1 = y;
 2399              		.loc 1 657 13 view .LVU898
 2400 063a 34E0     		b	.L107
 2401              	.LVL223:
 2402              	.L196:
 644:Drivers/lvgl/src/draw/sw/lv_draw_sw_rect.c ****         else simple_sub = simple;
 2403              		.loc 1 644 22 discriminator 1 view .LVU899
 2404 063c 5246     		mov	r2, r10
 2405 063e 1EA9     		add	r1, sp, #120
 2406 0640 14A8     		add	r0, sp, #80
 2407 0642 FFF7FEFF 		bl	_lv_area_is_out
 2408              	.LVL224:
 644:Drivers/lvgl/src/draw/sw/lv_draw_sw_rect.c ****         else simple_sub = simple;
 2409              		.loc 1 644 19 discriminator 1 view .LVU900
 2410 0646 0246     		mov	r2, r0
 2411 0648 0028     		cmp	r0, #0
 2412 064a DFD1     		bne	.L104
 2413 064c 009B     		ldr	r3, [sp]
 2414 064e 1A46     		mov	r2, r3
 2415 0650 DCE7     		b	.L104
 2416              	.LVL225:
 2417              	.L105:
 652:Drivers/lvgl/src/draw/sw/lv_draw_sw_rect.c ****             }
 2418              		.loc 1 652 17 is_stmt 1 view .LVU901
 652:Drivers/lvgl/src/draw/sw/lv_draw_sw_rect.c ****             }
 2419              		.loc 1 652 36 is_stmt 0 view .LVU902
 2420 0652 0023     		movs	r3, #0
 2421 0654 1093     		str	r3, [sp, #64]
 2422 0656 E0E7     		b	.L106
 2423              	.LVL226:
 2424              	.L199:
 662:Drivers/lvgl/src/draw/sw/lv_draw_sw_rect.c ****                     blend_dsc.mask_res = lv_draw_mask_apply(mask_buf, clip_area_sub.x1, y, w);
 2425              		.loc 1 662 21 is_stmt 1 view .LVU903
 2426 0658 089A     		ldr	r2, [sp, #32]
 2427 065a 9BF80010 		ldrb	r1, [fp]	@ zero_extendqisi2
 2428 065e 4046     		mov	r0, r8
 2429 0660 FFF7FEFF 		bl	lv_memset
 2430              	.LVL227:
 663:Drivers/lvgl/src/draw/sw/lv_draw_sw_rect.c ****                     if(blend_dsc.mask_res == LV_DRAW_MASK_RES_FULL_COVER) blend_dsc.mask_res = LV_D
 2431              		.loc 1 663 21 view .LVU904
 663:Drivers/lvgl/src/draw/sw/lv_draw_sw_rect.c ****                     if(blend_dsc.mask_res == LV_DRAW_MASK_RES_FULL_COVER) blend_dsc.mask_res = LV_D
 2432              		.loc 1 663 42 is_stmt 0 view .LVU905
 2433 0664 089B     		ldr	r3, [sp, #32]
 2434 0666 5246     		mov	r2, r10
 2435 0668 BDF95010 		ldrsh	r1, [sp, #80]
 2436 066c 4046     		mov	r0, r8
 2437 066e FFF7FEFF 		bl	lv_draw_mask_apply
 2438              	.LVL228:
 663:Drivers/lvgl/src/draw/sw/lv_draw_sw_rect.c ****                     if(blend_dsc.mask_res == LV_DRAW_MASK_RES_FULL_COVER) blend_dsc.mask_res = LV_D
 2439              		.loc 1 663 40 view .LVU906
 2440 0672 8DF84400 		strb	r0, [sp, #68]
ARM GAS  /var/folders/0z/tsy30v1j4xl4_7kw94k978ww0000gn/T//cc0noGMx.s 			page 85


 664:Drivers/lvgl/src/draw/sw/lv_draw_sw_rect.c ****                     lv_draw_sw_blend(draw_ctx, &blend_dsc);
 2441              		.loc 1 664 21 is_stmt 1 view .LVU907
 664:Drivers/lvgl/src/draw/sw/lv_draw_sw_rect.c ****                     lv_draw_sw_blend(draw_ctx, &blend_dsc);
 2442              		.loc 1 664 23 is_stmt 0 view .LVU908
 2443 0676 0128     		cmp	r0, #1
 2444 0678 04D0     		beq	.L197
 2445              	.L109:
 665:Drivers/lvgl/src/draw/sw/lv_draw_sw_rect.c ****                 }
 2446              		.loc 1 665 21 is_stmt 1 view .LVU909
 2447 067a 0DA9     		add	r1, sp, #52
 2448 067c 3046     		mov	r0, r6
 2449 067e FFF7FEFF 		bl	lv_draw_sw_blend
 2450              	.LVL229:
 2451 0682 0BE0     		b	.L110
 2452              	.L197:
 664:Drivers/lvgl/src/draw/sw/lv_draw_sw_rect.c ****                     lv_draw_sw_blend(draw_ctx, &blend_dsc);
 2453              		.loc 1 664 75 discriminator 1 view .LVU910
 664:Drivers/lvgl/src/draw/sw/lv_draw_sw_rect.c ****                     lv_draw_sw_blend(draw_ctx, &blend_dsc);
 2454              		.loc 1 664 94 is_stmt 0 discriminator 1 view .LVU911
 2455 0684 0223     		movs	r3, #2
 2456 0686 8DF84430 		strb	r3, [sp, #68]
 2457 068a F6E7     		b	.L109
 2458              	.L200:
 668:Drivers/lvgl/src/draw/sw/lv_draw_sw_rect.c ****                     lv_draw_sw_blend(draw_ctx, &blend_dsc);
 2459              		.loc 1 668 35 discriminator 1 view .LVU912
 2460 068c 9BF80030 		ldrb	r3, [fp]	@ zero_extendqisi2
 2461              	.L112:
 668:Drivers/lvgl/src/draw/sw/lv_draw_sw_rect.c ****                     lv_draw_sw_blend(draw_ctx, &blend_dsc);
 2462              		.loc 1 668 35 discriminator 4 view .LVU913
 2463 0690 8DF84C30 		strb	r3, [sp, #76]
 669:Drivers/lvgl/src/draw/sw/lv_draw_sw_rect.c ****                 }
 2464              		.loc 1 669 21 is_stmt 1 discriminator 4 view .LVU914
 2465 0694 0DA9     		add	r1, sp, #52
 2466 0696 3046     		mov	r0, r6
 2467 0698 FFF7FEFF 		bl	lv_draw_sw_blend
 2468              	.LVL230:
 2469              	.L110:
 671:Drivers/lvgl/src/draw/sw/lv_draw_sw_rect.c ****             }
 2470              		.loc 1 671 17 discriminator 2 view .LVU915
 671:Drivers/lvgl/src/draw/sw/lv_draw_sw_rect.c ****             }
 2471              		.loc 1 671 28 is_stmt 0 discriminator 2 view .LVU916
 2472 069c A344     		add	fp, fp, r4
 2473              	.LVL231:
 657:Drivers/lvgl/src/draw/sw/lv_draw_sw_rect.c ****                 blend_area.y1 = y;
 2474              		.loc 1 657 63 is_stmt 1 discriminator 2 view .LVU917
 2475 069e 0AF1010A 		add	r10, r10, #1
 2476              	.LVL232:
 657:Drivers/lvgl/src/draw/sw/lv_draw_sw_rect.c ****                 blend_area.y1 = y;
 2477              		.loc 1 657 63 is_stmt 0 discriminator 2 view .LVU918
 2478 06a2 0FFA8AFA 		sxth	r10, r10
 2479              	.LVL233:
 2480              	.L107:
 657:Drivers/lvgl/src/draw/sw/lv_draw_sw_rect.c ****                 blend_area.y1 = y;
 2481              		.loc 1 657 41 is_stmt 1 discriminator 1 view .LVU919
 657:Drivers/lvgl/src/draw/sw/lv_draw_sw_rect.c ****                 blend_area.y1 = y;
 2482              		.loc 1 657 57 is_stmt 0 discriminator 1 view .LVU920
 2483 06a6 BDF95630 		ldrsh	r3, [sp, #86]
ARM GAS  /var/folders/0z/tsy30v1j4xl4_7kw94k978ww0000gn/T//cc0noGMx.s 			page 86


 657:Drivers/lvgl/src/draw/sw/lv_draw_sw_rect.c ****                 blend_area.y1 = y;
 2484              		.loc 1 657 41 discriminator 1 view .LVU921
 2485 06aa 5345     		cmp	r3, r10
 2486 06ac 10DB     		blt	.L198
 658:Drivers/lvgl/src/draw/sw/lv_draw_sw_rect.c ****                 blend_area.y2 = y;
 2487              		.loc 1 658 17 is_stmt 1 view .LVU922
 658:Drivers/lvgl/src/draw/sw/lv_draw_sw_rect.c ****                 blend_area.y2 = y;
 2488              		.loc 1 658 31 is_stmt 0 view .LVU923
 2489 06ae ADF85AA0 		strh	r10, [sp, #90]	@ movhi
 659:Drivers/lvgl/src/draw/sw/lv_draw_sw_rect.c **** 
 2490              		.loc 1 659 17 is_stmt 1 view .LVU924
 659:Drivers/lvgl/src/draw/sw/lv_draw_sw_rect.c **** 
 2491              		.loc 1 659 31 is_stmt 0 view .LVU925
 2492 06b2 ADF85EA0 		strh	r10, [sp, #94]	@ movhi
 661:Drivers/lvgl/src/draw/sw/lv_draw_sw_rect.c ****                     lv_memset(mask_buf, sh_buf_tmp[0], w);
 2493              		.loc 1 661 17 is_stmt 1 view .LVU926
 661:Drivers/lvgl/src/draw/sw/lv_draw_sw_rect.c ****                     lv_memset(mask_buf, sh_buf_tmp[0], w);
 2494              		.loc 1 661 19 is_stmt 0 view .LVU927
 2495 06b6 002F     		cmp	r7, #0
 2496 06b8 CED0     		beq	.L199
 668:Drivers/lvgl/src/draw/sw/lv_draw_sw_rect.c ****                     lv_draw_sw_blend(draw_ctx, &blend_dsc);
 2497              		.loc 1 668 21 is_stmt 1 view .LVU928
 668:Drivers/lvgl/src/draw/sw/lv_draw_sw_rect.c ****                     lv_draw_sw_blend(draw_ctx, &blend_dsc);
 2498              		.loc 1 668 35 is_stmt 0 view .LVU929
 2499 06ba B9F1FF0F 		cmp	r9, #255
 2500 06be E5D0     		beq	.L200
 668:Drivers/lvgl/src/draw/sw/lv_draw_sw_rect.c ****                     lv_draw_sw_blend(draw_ctx, &blend_dsc);
 2501              		.loc 1 668 86 discriminator 2 view .LVU930
 2502 06c0 9BF80030 		ldrb	r3, [fp]	@ zero_extendqisi2
 668:Drivers/lvgl/src/draw/sw/lv_draw_sw_rect.c ****                     lv_draw_sw_blend(draw_ctx, &blend_dsc);
 2503              		.loc 1 668 95 discriminator 2 view .LVU931
 2504 06c4 95F83620 		ldrb	r2, [r5, #54]	@ zero_extendqisi2
 668:Drivers/lvgl/src/draw/sw/lv_draw_sw_rect.c ****                     lv_draw_sw_blend(draw_ctx, &blend_dsc);
 2505              		.loc 1 668 90 discriminator 2 view .LVU932
 2506 06c8 02FB03F3 		mul	r3, r2, r3
 668:Drivers/lvgl/src/draw/sw/lv_draw_sw_rect.c ****                     lv_draw_sw_blend(draw_ctx, &blend_dsc);
 2507              		.loc 1 668 35 discriminator 2 view .LVU933
 2508 06cc 1B0A     		lsrs	r3, r3, #8
 2509 06ce DFE7     		b	.L112
 2510              	.L198:
 668:Drivers/lvgl/src/draw/sw/lv_draw_sw_rect.c ****                     lv_draw_sw_blend(draw_ctx, &blend_dsc);
 2511              		.loc 1 668 35 discriminator 2 view .LVU934
 2512 06d0 099F     		ldr	r7, [sp, #36]
 2513 06d2 DDF82880 		ldr	r8, [sp, #40]
 2514 06d6 1AE6     		b	.L103
 2515              	.LVL234:
 2516              	.L186:
 668:Drivers/lvgl/src/draw/sw/lv_draw_sw_rect.c ****                     lv_draw_sw_blend(draw_ctx, &blend_dsc);
 2517              		.loc 1 668 35 discriminator 2 view .LVU935
 2518              	.LBE156:
 686:Drivers/lvgl/src/draw/sw/lv_draw_sw_rect.c ****         lv_coord_t w = lv_area_get_width(&clip_area_sub);
 2519              		.loc 1 686 9 discriminator 1 view .LVU936
 2520 06d8 BDF90430 		ldrsh	r3, [sp, #4]
 2521 06dc 0893     		str	r3, [sp, #32]
 2522 06de 1A46     		mov	r2, r3
 2523 06e0 1EA9     		add	r1, sp, #120
 2524 06e2 14A8     		add	r0, sp, #80
ARM GAS  /var/folders/0z/tsy30v1j4xl4_7kw94k978ww0000gn/T//cc0noGMx.s 			page 87


 2525 06e4 FFF7FEFF 		bl	_lv_area_is_in
 2526              	.LVL235:
 685:Drivers/lvgl/src/draw/sw/lv_draw_sw_rect.c ****        !_lv_area_is_in(&clip_area_sub, &bg_area, r_bg)) {
 2527              		.loc 1 685 77 discriminator 1 view .LVU937
 2528 06e8 0028     		cmp	r0, #0
 2529 06ea 7FF437AE 		bne	.L114
 2530              	.LBB159:
 687:Drivers/lvgl/src/draw/sw/lv_draw_sw_rect.c ****         sh_buf_tmp = sh_buf;
 2531              		.loc 1 687 9 is_stmt 1 view .LVU938
 2532              	.LVL236:
 2533              	.LBB160:
 2534              	.LBI160:
 123:Drivers/lvgl/src/draw/sw/../../misc/lv_area.h **** {
 2535              		.loc 2 123 26 view .LVU939
 2536              	.LBB161:
 125:Drivers/lvgl/src/draw/sw/../../misc/lv_area.h **** }
 2537              		.loc 2 125 5 view .LVU940
 125:Drivers/lvgl/src/draw/sw/../../misc/lv_area.h **** }
 2538              		.loc 2 125 31 is_stmt 0 view .LVU941
 2539 06ee BDF85430 		ldrh	r3, [sp, #84]
 125:Drivers/lvgl/src/draw/sw/../../misc/lv_area.h **** }
 2540              		.loc 2 125 44 view .LVU942
 2541 06f2 BDF85020 		ldrh	r2, [sp, #80]
 125:Drivers/lvgl/src/draw/sw/../../misc/lv_area.h **** }
 2542              		.loc 2 125 36 view .LVU943
 2543 06f6 9B1A     		subs	r3, r3, r2
 2544 06f8 9BB2     		uxth	r3, r3
 125:Drivers/lvgl/src/draw/sw/../../misc/lv_area.h **** }
 2545              		.loc 2 125 49 view .LVU944
 2546 06fa 0133     		adds	r3, r3, #1
 125:Drivers/lvgl/src/draw/sw/../../misc/lv_area.h **** }
 2547              		.loc 2 125 12 view .LVU945
 2548 06fc 1AB2     		sxth	r2, r3
 2549 06fe 0992     		str	r2, [sp, #36]
 2550              	.LVL237:
 125:Drivers/lvgl/src/draw/sw/../../misc/lv_area.h **** }
 2551              		.loc 2 125 12 view .LVU946
 2552              	.LBE161:
 2553              	.LBE160:
 688:Drivers/lvgl/src/draw/sw/lv_draw_sw_rect.c ****         sh_buf_tmp += (blend_area.y2 - clip_area_sub.y2) * corner_size;
 2554              		.loc 1 688 9 is_stmt 1 view .LVU947
 689:Drivers/lvgl/src/draw/sw/lv_draw_sw_rect.c ****         if(w > 0) {
 2555              		.loc 1 689 9 view .LVU948
 689:Drivers/lvgl/src/draw/sw/lv_draw_sw_rect.c ****         if(w > 0) {
 2556              		.loc 1 689 34 is_stmt 0 view .LVU949
 2557 0700 BDF95EB0 		ldrsh	fp, [sp, #94]
 689:Drivers/lvgl/src/draw/sw/lv_draw_sw_rect.c ****         if(w > 0) {
 2558              		.loc 1 689 53 view .LVU950
 2559 0704 BDF95630 		ldrsh	r3, [sp, #86]
 689:Drivers/lvgl/src/draw/sw/lv_draw_sw_rect.c ****         if(w > 0) {
 2560              		.loc 1 689 38 view .LVU951
 2561 0708 ABEB030B 		sub	fp, fp, r3
 689:Drivers/lvgl/src/draw/sw/lv_draw_sw_rect.c ****         if(w > 0) {
 2562              		.loc 1 689 20 view .LVU952
 2563 070c 039B     		ldr	r3, [sp, #12]
 2564 070e 04FB0B3B 		mla	fp, r4, fp, r3
 2565              	.LVL238:
ARM GAS  /var/folders/0z/tsy30v1j4xl4_7kw94k978ww0000gn/T//cc0noGMx.s 			page 88


 690:Drivers/lvgl/src/draw/sw/lv_draw_sw_rect.c ****             /*Do not mask if out of the bg*/
 2566              		.loc 1 690 9 is_stmt 1 view .LVU953
 690:Drivers/lvgl/src/draw/sw/lv_draw_sw_rect.c ****             /*Do not mask if out of the bg*/
 2567              		.loc 1 690 11 is_stmt 0 view .LVU954
 2568 0712 002A     		cmp	r2, #0
 2569 0714 7FF722AE 		ble	.L114
 692:Drivers/lvgl/src/draw/sw/lv_draw_sw_rect.c ****             else simple_sub = simple;
 2570              		.loc 1 692 13 is_stmt 1 view .LVU955
 692:Drivers/lvgl/src/draw/sw/lv_draw_sw_rect.c ****             else simple_sub = simple;
 2571              		.loc 1 692 15 is_stmt 0 view .LVU956
 2572 0718 009B     		ldr	r3, [sp]
 2573 071a 23B9     		cbnz	r3, .L201
 2574              	.LVL239:
 2575              	.L115:
 693:Drivers/lvgl/src/draw/sw/lv_draw_sw_rect.c **** 
 2576              		.loc 1 693 18 is_stmt 1 view .LVU957
 695:Drivers/lvgl/src/draw/sw/lv_draw_sw_rect.c ****                 blend_dsc.mask_buf = mask_buf;
 2577              		.loc 1 695 13 view .LVU958
 695:Drivers/lvgl/src/draw/sw/lv_draw_sw_rect.c ****                 blend_dsc.mask_buf = mask_buf;
 2578              		.loc 1 695 15 is_stmt 0 view .LVU959
 2579 071c 009B     		ldr	r3, [sp]
 2580 071e 4BB9     		cbnz	r3, .L116
 696:Drivers/lvgl/src/draw/sw/lv_draw_sw_rect.c ****             }
 2581              		.loc 1 696 17 is_stmt 1 view .LVU960
 696:Drivers/lvgl/src/draw/sw/lv_draw_sw_rect.c ****             }
 2582              		.loc 1 696 36 is_stmt 0 view .LVU961
 2583 0720 049B     		ldr	r3, [sp, #16]
 2584 0722 1093     		str	r3, [sp, #64]
 2585 0724 08E0     		b	.L117
 2586              	.LVL240:
 2587              	.L201:
 692:Drivers/lvgl/src/draw/sw/lv_draw_sw_rect.c ****             else simple_sub = simple;
 2588              		.loc 1 692 26 discriminator 1 view .LVU962
 2589 0726 089A     		ldr	r2, [sp, #32]
 2590              	.LVL241:
 692:Drivers/lvgl/src/draw/sw/lv_draw_sw_rect.c ****             else simple_sub = simple;
 2591              		.loc 1 692 26 discriminator 1 view .LVU963
 2592 0728 1EA9     		add	r1, sp, #120
 2593 072a 14A8     		add	r0, sp, #80
 2594 072c FFF7FEFF 		bl	_lv_area_is_out
 2595              	.LVL242:
 692:Drivers/lvgl/src/draw/sw/lv_draw_sw_rect.c ****             else simple_sub = simple;
 2596              		.loc 1 692 23 discriminator 1 view .LVU964
 2597 0730 0028     		cmp	r0, #0
 2598 0732 F3D0     		beq	.L115
 2599              	.L116:
 699:Drivers/lvgl/src/draw/sw/lv_draw_sw_rect.c ****             }
 2600              		.loc 1 699 17 is_stmt 1 view .LVU965
 699:Drivers/lvgl/src/draw/sw/lv_draw_sw_rect.c ****             }
 2601              		.loc 1 699 36 is_stmt 0 view .LVU966
 2602 0734 0023     		movs	r3, #0
 2603 0736 1093     		str	r3, [sp, #64]
 2604              	.L117:
 701:Drivers/lvgl/src/draw/sw/lv_draw_sw_rect.c ****             blend_area.x2 = clip_area_sub.x2;
 2605              		.loc 1 701 13 is_stmt 1 view .LVU967
 701:Drivers/lvgl/src/draw/sw/lv_draw_sw_rect.c ****             blend_area.x2 = clip_area_sub.x2;
 2606              		.loc 1 701 42 is_stmt 0 view .LVU968
ARM GAS  /var/folders/0z/tsy30v1j4xl4_7kw94k978ww0000gn/T//cc0noGMx.s 			page 89


 2607 0738 BDF95030 		ldrsh	r3, [sp, #80]
 701:Drivers/lvgl/src/draw/sw/lv_draw_sw_rect.c ****             blend_area.x2 = clip_area_sub.x2;
 2608              		.loc 1 701 27 view .LVU969
 2609 073c ADF85830 		strh	r3, [sp, #88]	@ movhi
 702:Drivers/lvgl/src/draw/sw/lv_draw_sw_rect.c **** 
 2610              		.loc 1 702 13 is_stmt 1 view .LVU970
 702:Drivers/lvgl/src/draw/sw/lv_draw_sw_rect.c **** 
 2611              		.loc 1 702 42 is_stmt 0 view .LVU971
 2612 0740 BDF95430 		ldrsh	r3, [sp, #84]
 702:Drivers/lvgl/src/draw/sw/lv_draw_sw_rect.c **** 
 2613              		.loc 1 702 27 view .LVU972
 2614 0744 ADF85C30 		strh	r3, [sp, #92]	@ movhi
 704:Drivers/lvgl/src/draw/sw/lv_draw_sw_rect.c ****                 blend_area.y1 = y;
 2615              		.loc 1 704 13 is_stmt 1 view .LVU973
 704:Drivers/lvgl/src/draw/sw/lv_draw_sw_rect.c ****                 blend_area.y1 = y;
 2616              		.loc 1 704 19 is_stmt 0 view .LVU974
 2617 0748 BDF956A0 		ldrsh	r10, [sp, #86]
 2618              	.LVL243:
 704:Drivers/lvgl/src/draw/sw/lv_draw_sw_rect.c ****                 blend_area.y1 = y;
 2619              		.loc 1 704 19 view .LVU975
 2620 074c 0A97     		str	r7, [sp, #40]
 2621 074e 009F     		ldr	r7, [sp]
 2622 0750 CDF82C80 		str	r8, [sp, #44]
 2623 0754 DDF81080 		ldr	r8, [sp, #16]
 704:Drivers/lvgl/src/draw/sw/lv_draw_sw_rect.c ****                 blend_area.y1 = y;
 2624              		.loc 1 704 13 view .LVU976
 2625 0758 2DE0     		b	.L118
 2626              	.L204:
 709:Drivers/lvgl/src/draw/sw/lv_draw_sw_rect.c ****                 else simple_sub = simple;
 2627              		.loc 1 709 30 discriminator 1 view .LVU977
 2628 075a 089A     		ldr	r2, [sp, #32]
 2629 075c 1EA9     		add	r1, sp, #120
 2630 075e 14A8     		add	r0, sp, #80
 2631 0760 FFF7FEFF 		bl	_lv_area_is_out
 2632              	.LVL244:
 709:Drivers/lvgl/src/draw/sw/lv_draw_sw_rect.c ****                 else simple_sub = simple;
 2633              		.loc 1 709 27 discriminator 1 view .LVU978
 2634 0764 98BB     		cbnz	r0, .L120
 2635 0766 30E0     		b	.L119
 2636              	.LVL245:
 2637              	.L205:
 713:Drivers/lvgl/src/draw/sw/lv_draw_sw_rect.c ****                     blend_dsc.mask_res = lv_draw_mask_apply(mask_buf, clip_area_sub.x1, y, w);
 2638              		.loc 1 713 21 is_stmt 1 view .LVU979
 2639 0768 099A     		ldr	r2, [sp, #36]
 2640 076a 9BF80010 		ldrb	r1, [fp]	@ zero_extendqisi2
 2641 076e 4046     		mov	r0, r8
 2642 0770 FFF7FEFF 		bl	lv_memset
 2643              	.LVL246:
 714:Drivers/lvgl/src/draw/sw/lv_draw_sw_rect.c ****                     if(blend_dsc.mask_res == LV_DRAW_MASK_RES_FULL_COVER) blend_dsc.mask_res = LV_D
 2644              		.loc 1 714 21 view .LVU980
 714:Drivers/lvgl/src/draw/sw/lv_draw_sw_rect.c ****                     if(blend_dsc.mask_res == LV_DRAW_MASK_RES_FULL_COVER) blend_dsc.mask_res = LV_D
 2645              		.loc 1 714 42 is_stmt 0 view .LVU981
 2646 0774 099B     		ldr	r3, [sp, #36]
 2647 0776 5246     		mov	r2, r10
 2648 0778 BDF95010 		ldrsh	r1, [sp, #80]
 2649 077c 4046     		mov	r0, r8
 2650 077e FFF7FEFF 		bl	lv_draw_mask_apply
ARM GAS  /var/folders/0z/tsy30v1j4xl4_7kw94k978ww0000gn/T//cc0noGMx.s 			page 90


 2651              	.LVL247:
 714:Drivers/lvgl/src/draw/sw/lv_draw_sw_rect.c ****                     if(blend_dsc.mask_res == LV_DRAW_MASK_RES_FULL_COVER) blend_dsc.mask_res = LV_D
 2652              		.loc 1 714 40 view .LVU982
 2653 0782 8DF84400 		strb	r0, [sp, #68]
 715:Drivers/lvgl/src/draw/sw/lv_draw_sw_rect.c ****                     lv_draw_sw_blend(draw_ctx, &blend_dsc);
 2654              		.loc 1 715 21 is_stmt 1 view .LVU983
 715:Drivers/lvgl/src/draw/sw/lv_draw_sw_rect.c ****                     lv_draw_sw_blend(draw_ctx, &blend_dsc);
 2655              		.loc 1 715 23 is_stmt 0 view .LVU984
 2656 0786 0128     		cmp	r0, #1
 2657 0788 04D0     		beq	.L202
 2658              	.L121:
 716:Drivers/lvgl/src/draw/sw/lv_draw_sw_rect.c ****                 }
 2659              		.loc 1 716 21 is_stmt 1 view .LVU985
 2660 078a 0DA9     		add	r1, sp, #52
 2661 078c 3046     		mov	r0, r6
 2662 078e FFF7FEFF 		bl	lv_draw_sw_blend
 2663              	.LVL248:
 2664 0792 0BE0     		b	.L122
 2665              	.L202:
 715:Drivers/lvgl/src/draw/sw/lv_draw_sw_rect.c ****                     lv_draw_sw_blend(draw_ctx, &blend_dsc);
 2666              		.loc 1 715 75 discriminator 1 view .LVU986
 715:Drivers/lvgl/src/draw/sw/lv_draw_sw_rect.c ****                     lv_draw_sw_blend(draw_ctx, &blend_dsc);
 2667              		.loc 1 715 94 is_stmt 0 discriminator 1 view .LVU987
 2668 0794 0223     		movs	r3, #2
 2669 0796 8DF84430 		strb	r3, [sp, #68]
 2670 079a F6E7     		b	.L121
 2671              	.LVL249:
 2672              	.L206:
 719:Drivers/lvgl/src/draw/sw/lv_draw_sw_rect.c ****                     lv_draw_sw_blend(draw_ctx, &blend_dsc);
 2673              		.loc 1 719 35 discriminator 1 view .LVU988
 2674 079c 9BF80030 		ldrb	r3, [fp]	@ zero_extendqisi2
 2675              	.L124:
 719:Drivers/lvgl/src/draw/sw/lv_draw_sw_rect.c ****                     lv_draw_sw_blend(draw_ctx, &blend_dsc);
 2676              		.loc 1 719 35 discriminator 4 view .LVU989
 2677 07a0 8DF84C30 		strb	r3, [sp, #76]
 720:Drivers/lvgl/src/draw/sw/lv_draw_sw_rect.c **** 
 2678              		.loc 1 720 21 is_stmt 1 discriminator 4 view .LVU990
 2679 07a4 0DA9     		add	r1, sp, #52
 2680 07a6 3046     		mov	r0, r6
 2681 07a8 FFF7FEFF 		bl	lv_draw_sw_blend
 2682              	.LVL250:
 2683              	.L122:
 723:Drivers/lvgl/src/draw/sw/lv_draw_sw_rect.c ****             }
 2684              		.loc 1 723 17 discriminator 2 view .LVU991
 723:Drivers/lvgl/src/draw/sw/lv_draw_sw_rect.c ****             }
 2685              		.loc 1 723 28 is_stmt 0 discriminator 2 view .LVU992
 2686 07ac A344     		add	fp, fp, r4
 2687              	.LVL251:
 704:Drivers/lvgl/src/draw/sw/lv_draw_sw_rect.c ****                 blend_area.y1 = y;
 2688              		.loc 1 704 63 is_stmt 1 discriminator 2 view .LVU993
 2689 07ae 0AF1FF3A 		add	r10, r10, #-1
 2690              	.LVL252:
 704:Drivers/lvgl/src/draw/sw/lv_draw_sw_rect.c ****                 blend_area.y1 = y;
 2691              		.loc 1 704 63 is_stmt 0 discriminator 2 view .LVU994
 2692 07b2 0FFA8AFA 		sxth	r10, r10
 2693              	.LVL253:
 2694              	.L118:
ARM GAS  /var/folders/0z/tsy30v1j4xl4_7kw94k978ww0000gn/T//cc0noGMx.s 			page 91


 704:Drivers/lvgl/src/draw/sw/lv_draw_sw_rect.c ****                 blend_area.y1 = y;
 2695              		.loc 1 704 41 is_stmt 1 discriminator 1 view .LVU995
 704:Drivers/lvgl/src/draw/sw/lv_draw_sw_rect.c ****                 blend_area.y1 = y;
 2696              		.loc 1 704 57 is_stmt 0 discriminator 1 view .LVU996
 2697 07b6 BDF95230 		ldrsh	r3, [sp, #82]
 704:Drivers/lvgl/src/draw/sw/lv_draw_sw_rect.c ****                 blend_area.y1 = y;
 2698              		.loc 1 704 41 discriminator 1 view .LVU997
 2699 07ba 5345     		cmp	r3, r10
 2700 07bc 12DC     		bgt	.L203
 705:Drivers/lvgl/src/draw/sw/lv_draw_sw_rect.c ****                 blend_area.y2 = y;
 2701              		.loc 1 705 17 is_stmt 1 view .LVU998
 705:Drivers/lvgl/src/draw/sw/lv_draw_sw_rect.c ****                 blend_area.y2 = y;
 2702              		.loc 1 705 31 is_stmt 0 view .LVU999
 2703 07be ADF85AA0 		strh	r10, [sp, #90]	@ movhi
 706:Drivers/lvgl/src/draw/sw/lv_draw_sw_rect.c **** 
 2704              		.loc 1 706 17 is_stmt 1 view .LVU1000
 706:Drivers/lvgl/src/draw/sw/lv_draw_sw_rect.c **** 
 2705              		.loc 1 706 31 is_stmt 0 view .LVU1001
 2706 07c2 ADF85EA0 		strh	r10, [sp, #94]	@ movhi
 709:Drivers/lvgl/src/draw/sw/lv_draw_sw_rect.c ****                 else simple_sub = simple;
 2707              		.loc 1 709 17 is_stmt 1 view .LVU1002
 709:Drivers/lvgl/src/draw/sw/lv_draw_sw_rect.c ****                 else simple_sub = simple;
 2708              		.loc 1 709 19 is_stmt 0 view .LVU1003
 2709 07c6 002F     		cmp	r7, #0
 2710 07c8 C7D1     		bne	.L204
 2711              	.L119:
 710:Drivers/lvgl/src/draw/sw/lv_draw_sw_rect.c **** 
 2712              		.loc 1 710 22 is_stmt 1 view .LVU1004
 2713              	.LVL254:
 712:Drivers/lvgl/src/draw/sw/lv_draw_sw_rect.c ****                     lv_memset(mask_buf, sh_buf_tmp[0], w);
 2714              		.loc 1 712 17 view .LVU1005
 712:Drivers/lvgl/src/draw/sw/lv_draw_sw_rect.c ****                     lv_memset(mask_buf, sh_buf_tmp[0], w);
 2715              		.loc 1 712 19 is_stmt 0 view .LVU1006
 2716 07ca 002F     		cmp	r7, #0
 2717 07cc CCD0     		beq	.L205
 2718              	.LVL255:
 2719              	.L120:
 719:Drivers/lvgl/src/draw/sw/lv_draw_sw_rect.c ****                     lv_draw_sw_blend(draw_ctx, &blend_dsc);
 2720              		.loc 1 719 21 is_stmt 1 view .LVU1007
 719:Drivers/lvgl/src/draw/sw/lv_draw_sw_rect.c ****                     lv_draw_sw_blend(draw_ctx, &blend_dsc);
 2721              		.loc 1 719 35 is_stmt 0 view .LVU1008
 2722 07ce B9F1FF0F 		cmp	r9, #255
 2723 07d2 E3D0     		beq	.L206
 719:Drivers/lvgl/src/draw/sw/lv_draw_sw_rect.c ****                     lv_draw_sw_blend(draw_ctx, &blend_dsc);
 2724              		.loc 1 719 86 discriminator 2 view .LVU1009
 2725 07d4 9BF80030 		ldrb	r3, [fp]	@ zero_extendqisi2
 719:Drivers/lvgl/src/draw/sw/lv_draw_sw_rect.c ****                     lv_draw_sw_blend(draw_ctx, &blend_dsc);
 2726              		.loc 1 719 95 discriminator 2 view .LVU1010
 2727 07d8 95F83620 		ldrb	r2, [r5, #54]	@ zero_extendqisi2
 719:Drivers/lvgl/src/draw/sw/lv_draw_sw_rect.c ****                     lv_draw_sw_blend(draw_ctx, &blend_dsc);
 2728              		.loc 1 719 90 discriminator 2 view .LVU1011
 2729 07dc 02FB03F3 		mul	r3, r2, r3
 719:Drivers/lvgl/src/draw/sw/lv_draw_sw_rect.c ****                     lv_draw_sw_blend(draw_ctx, &blend_dsc);
 2730              		.loc 1 719 35 discriminator 2 view .LVU1012
 2731 07e0 1B0A     		lsrs	r3, r3, #8
 2732 07e2 DDE7     		b	.L124
 2733              	.L203:
ARM GAS  /var/folders/0z/tsy30v1j4xl4_7kw94k978ww0000gn/T//cc0noGMx.s 			page 92


 719:Drivers/lvgl/src/draw/sw/lv_draw_sw_rect.c ****                     lv_draw_sw_blend(draw_ctx, &blend_dsc);
 2734              		.loc 1 719 35 discriminator 2 view .LVU1013
 2735 07e4 0A9F     		ldr	r7, [sp, #40]
 2736 07e6 DDF82C80 		ldr	r8, [sp, #44]
 2737 07ea B7E5     		b	.L114
 2738              	.LVL256:
 2739              	.L187:
 719:Drivers/lvgl/src/draw/sw/lv_draw_sw_rect.c ****                     lv_draw_sw_blend(draw_ctx, &blend_dsc);
 2740              		.loc 1 719 35 discriminator 2 view .LVU1014
 2741              	.LBE159:
 741:Drivers/lvgl/src/draw/sw/lv_draw_sw_rect.c ****         lv_coord_t w = lv_area_get_width(&clip_area_sub);
 2742              		.loc 1 741 9 discriminator 1 view .LVU1015
 2743 07ec BDF90450 		ldrsh	r5, [sp, #4]
 2744              	.LVL257:
 741:Drivers/lvgl/src/draw/sw/lv_draw_sw_rect.c ****         lv_coord_t w = lv_area_get_width(&clip_area_sub);
 2745              		.loc 1 741 9 discriminator 1 view .LVU1016
 2746 07f0 2A46     		mov	r2, r5
 2747 07f2 1EA9     		add	r1, sp, #120
 2748 07f4 14A8     		add	r0, sp, #80
 2749 07f6 FFF7FEFF 		bl	_lv_area_is_in
 2750              	.LVL258:
 740:Drivers/lvgl/src/draw/sw/lv_draw_sw_rect.c ****        !_lv_area_is_in(&clip_area_sub, &bg_area, r_bg)) {
 2751              		.loc 1 740 77 discriminator 1 view .LVU1017
 2752 07fa 0028     		cmp	r0, #0
 2753 07fc 7FF4E3AD 		bne	.L127
 2754              	.LBB162:
 742:Drivers/lvgl/src/draw/sw/lv_draw_sw_rect.c ****         sh_buf_tmp = sh_buf;
 2755              		.loc 1 742 9 is_stmt 1 view .LVU1018
 2756              	.LVL259:
 2757              	.LBB163:
 2758              	.LBI163:
 123:Drivers/lvgl/src/draw/sw/../../misc/lv_area.h **** {
 2759              		.loc 2 123 26 view .LVU1019
 2760              	.LBB164:
 125:Drivers/lvgl/src/draw/sw/../../misc/lv_area.h **** }
 2761              		.loc 2 125 5 view .LVU1020
 125:Drivers/lvgl/src/draw/sw/../../misc/lv_area.h **** }
 2762              		.loc 2 125 31 is_stmt 0 view .LVU1021
 2763 0800 BDF85430 		ldrh	r3, [sp, #84]
 125:Drivers/lvgl/src/draw/sw/../../misc/lv_area.h **** }
 2764              		.loc 2 125 44 view .LVU1022
 2765 0804 BDF95020 		ldrsh	r2, [sp, #80]
 2766 0808 91B2     		uxth	r1, r2
 125:Drivers/lvgl/src/draw/sw/../../misc/lv_area.h **** }
 2767              		.loc 2 125 36 view .LVU1023
 2768 080a 5B1A     		subs	r3, r3, r1
 2769 080c 9BB2     		uxth	r3, r3
 125:Drivers/lvgl/src/draw/sw/../../misc/lv_area.h **** }
 2770              		.loc 2 125 49 view .LVU1024
 2771 080e 0133     		adds	r3, r3, #1
 125:Drivers/lvgl/src/draw/sw/../../misc/lv_area.h **** }
 2772              		.loc 2 125 12 view .LVU1025
 2773 0810 0FFA83FA 		sxth	r10, r3
 2774              	.LVL260:
 125:Drivers/lvgl/src/draw/sw/../../misc/lv_area.h **** }
 2775              		.loc 2 125 12 view .LVU1026
 2776              	.LBE164:
ARM GAS  /var/folders/0z/tsy30v1j4xl4_7kw94k978ww0000gn/T//cc0noGMx.s 			page 93


 2777              	.LBE163:
 743:Drivers/lvgl/src/draw/sw/lv_draw_sw_rect.c ****         sh_buf_tmp += (corner_size - 1) * corner_size;
 2778              		.loc 1 743 9 is_stmt 1 view .LVU1027
 744:Drivers/lvgl/src/draw/sw/lv_draw_sw_rect.c ****         sh_buf_tmp += clip_area_sub.x1 - (shadow_area.x2 - corner_size + 1);
 2779              		.loc 1 744 9 view .LVU1028
 744:Drivers/lvgl/src/draw/sw/lv_draw_sw_rect.c ****         sh_buf_tmp += clip_area_sub.x1 - (shadow_area.x2 - corner_size + 1);
 2780              		.loc 1 744 36 is_stmt 0 view .LVU1029
 2781 0814 611E     		subs	r1, r4, #1
 2782              	.LVL261:
 745:Drivers/lvgl/src/draw/sw/lv_draw_sw_rect.c **** 
 2783              		.loc 1 745 9 is_stmt 1 view .LVU1030
 745:Drivers/lvgl/src/draw/sw/lv_draw_sw_rect.c **** 
 2784              		.loc 1 745 54 is_stmt 0 view .LVU1031
 2785 0816 BDF98C30 		ldrsh	r3, [sp, #140]
 745:Drivers/lvgl/src/draw/sw/lv_draw_sw_rect.c **** 
 2786              		.loc 1 745 58 view .LVU1032
 2787 081a 1B1B     		subs	r3, r3, r4
 745:Drivers/lvgl/src/draw/sw/lv_draw_sw_rect.c **** 
 2788              		.loc 1 745 72 view .LVU1033
 2789 081c 0133     		adds	r3, r3, #1
 745:Drivers/lvgl/src/draw/sw/lv_draw_sw_rect.c **** 
 2790              		.loc 1 745 40 view .LVU1034
 2791 081e D31A     		subs	r3, r2, r3
 745:Drivers/lvgl/src/draw/sw/lv_draw_sw_rect.c **** 
 2792              		.loc 1 745 20 view .LVU1035
 2793 0820 04FB0133 		mla	r3, r4, r1, r3
 2794 0824 039A     		ldr	r2, [sp, #12]
 2795 0826 02EB030B 		add	fp, r2, r3
 2796              	.LVL262:
 748:Drivers/lvgl/src/draw/sw/lv_draw_sw_rect.c ****         else simple_sub = simple;
 2797              		.loc 1 748 9 is_stmt 1 view .LVU1036
 748:Drivers/lvgl/src/draw/sw/lv_draw_sw_rect.c ****         else simple_sub = simple;
 2798              		.loc 1 748 11 is_stmt 0 view .LVU1037
 2799 082a 009B     		ldr	r3, [sp]
 2800 082c DBB9     		cbnz	r3, .L207
 2801              	.L128:
 749:Drivers/lvgl/src/draw/sw/lv_draw_sw_rect.c ****         blend_dsc.mask_buf = simple_sub ? sh_buf_tmp : mask_buf;
 2802              		.loc 1 749 14 is_stmt 1 view .LVU1038
 2803              	.LVL263:
 750:Drivers/lvgl/src/draw/sw/lv_draw_sw_rect.c **** 
 2804              		.loc 1 750 9 view .LVU1039
 750:Drivers/lvgl/src/draw/sw/lv_draw_sw_rect.c **** 
 2805              		.loc 1 750 54 is_stmt 0 view .LVU1040
 2806 082e 009B     		ldr	r3, [sp]
 2807 0830 1BB3     		cbz	r3, .L170
 2808 0832 9946     		mov	r9, r3
 2809 0834 5B46     		mov	r3, fp
 2810              	.LVL264:
 2811              	.L129:
 750:Drivers/lvgl/src/draw/sw/lv_draw_sw_rect.c **** 
 2812              		.loc 1 750 28 discriminator 4 view .LVU1041
 2813 0836 1093     		str	r3, [sp, #64]
 752:Drivers/lvgl/src/draw/sw/lv_draw_sw_rect.c ****             blend_area.x1 = clip_area_sub.x1;
 2814              		.loc 1 752 9 is_stmt 1 discriminator 4 view .LVU1042
 752:Drivers/lvgl/src/draw/sw/lv_draw_sw_rect.c ****             blend_area.x1 = clip_area_sub.x1;
 2815              		.loc 1 752 11 is_stmt 0 discriminator 4 view .LVU1043
 2816 0838 BAF1000F 		cmp	r10, #0
ARM GAS  /var/folders/0z/tsy30v1j4xl4_7kw94k978ww0000gn/T//cc0noGMx.s 			page 94


 2817 083c 7FF7C3AD 		ble	.L127
 753:Drivers/lvgl/src/draw/sw/lv_draw_sw_rect.c ****             blend_area.x2 = clip_area_sub.x2;
 2818              		.loc 1 753 13 is_stmt 1 view .LVU1044
 753:Drivers/lvgl/src/draw/sw/lv_draw_sw_rect.c ****             blend_area.x2 = clip_area_sub.x2;
 2819              		.loc 1 753 42 is_stmt 0 view .LVU1045
 2820 0840 BDF95030 		ldrsh	r3, [sp, #80]
 753:Drivers/lvgl/src/draw/sw/lv_draw_sw_rect.c ****             blend_area.x2 = clip_area_sub.x2;
 2821              		.loc 1 753 27 view .LVU1046
 2822 0844 ADF85830 		strh	r3, [sp, #88]	@ movhi
 754:Drivers/lvgl/src/draw/sw/lv_draw_sw_rect.c ****             blend_dsc.mask_res = LV_DRAW_MASK_RES_CHANGED;    /*In simple mode it won't be overwrit
 2823              		.loc 1 754 13 is_stmt 1 view .LVU1047
 754:Drivers/lvgl/src/draw/sw/lv_draw_sw_rect.c ****             blend_dsc.mask_res = LV_DRAW_MASK_RES_CHANGED;    /*In simple mode it won't be overwrit
 2824              		.loc 1 754 42 is_stmt 0 view .LVU1048
 2825 0848 BDF95430 		ldrsh	r3, [sp, #84]
 754:Drivers/lvgl/src/draw/sw/lv_draw_sw_rect.c ****             blend_dsc.mask_res = LV_DRAW_MASK_RES_CHANGED;    /*In simple mode it won't be overwrit
 2826              		.loc 1 754 27 view .LVU1049
 2827 084c ADF85C30 		strh	r3, [sp, #92]	@ movhi
 755:Drivers/lvgl/src/draw/sw/lv_draw_sw_rect.c ****             for(y = clip_area_sub.y1; y <= clip_area_sub.y2; y++) {
 2828              		.loc 1 755 13 is_stmt 1 view .LVU1050
 755:Drivers/lvgl/src/draw/sw/lv_draw_sw_rect.c ****             for(y = clip_area_sub.y1; y <= clip_area_sub.y2; y++) {
 2829              		.loc 1 755 32 is_stmt 0 view .LVU1051
 2830 0850 0223     		movs	r3, #2
 2831 0852 8DF84430 		strb	r3, [sp, #68]
 756:Drivers/lvgl/src/draw/sw/lv_draw_sw_rect.c ****                 blend_area.y1 = y;
 2832              		.loc 1 756 13 is_stmt 1 view .LVU1052
 756:Drivers/lvgl/src/draw/sw/lv_draw_sw_rect.c ****                 blend_area.y1 = y;
 2833              		.loc 1 756 19 is_stmt 0 view .LVU1053
 2834 0856 BDF95250 		ldrsh	r5, [sp, #82]
 2835              	.LVL265:
 756:Drivers/lvgl/src/draw/sw/lv_draw_sw_rect.c ****                 blend_area.y1 = y;
 2836              		.loc 1 756 19 view .LVU1054
 2837 085a 0897     		str	r7, [sp, #32]
 2838 085c 2346     		mov	r3, r4
 2839 085e 4C46     		mov	r4, r9
 2840              	.LVL266:
 756:Drivers/lvgl/src/draw/sw/lv_draw_sw_rect.c ****                 blend_area.y1 = y;
 2841              		.loc 1 756 19 view .LVU1055
 2842 0860 049F     		ldr	r7, [sp, #16]
 2843 0862 9946     		mov	r9, r3
 756:Drivers/lvgl/src/draw/sw/lv_draw_sw_rect.c ****                 blend_area.y1 = y;
 2844              		.loc 1 756 13 view .LVU1056
 2845 0864 13E0     		b	.L130
 2846              	.LVL267:
 2847              	.L207:
 748:Drivers/lvgl/src/draw/sw/lv_draw_sw_rect.c ****         else simple_sub = simple;
 2848              		.loc 1 748 22 discriminator 1 view .LVU1057
 2849 0866 2A46     		mov	r2, r5
 2850 0868 1EA9     		add	r1, sp, #120
 2851 086a 14A8     		add	r0, sp, #80
 2852 086c FFF7FEFF 		bl	_lv_area_is_out
 2853              	.LVL268:
 748:Drivers/lvgl/src/draw/sw/lv_draw_sw_rect.c ****         else simple_sub = simple;
 2854              		.loc 1 748 19 discriminator 1 view .LVU1058
 2855 0870 8146     		mov	r9, r0
 2856 0872 0028     		cmp	r0, #0
 2857 0874 DBD0     		beq	.L128
 750:Drivers/lvgl/src/draw/sw/lv_draw_sw_rect.c **** 
ARM GAS  /var/folders/0z/tsy30v1j4xl4_7kw94k978ww0000gn/T//cc0noGMx.s 			page 95


 2858              		.loc 1 750 54 view .LVU1059
 2859 0876 5B46     		mov	r3, fp
 2860 0878 DDE7     		b	.L129
 2861              	.LVL269:
 2862              	.L170:
 750:Drivers/lvgl/src/draw/sw/lv_draw_sw_rect.c **** 
 2863              		.loc 1 750 54 view .LVU1060
 2864 087a DDF80090 		ldr	r9, [sp]
 2865 087e 049B     		ldr	r3, [sp, #16]
 2866 0880 D9E7     		b	.L129
 2867              	.LVL270:
 2868              	.L131:
 765:Drivers/lvgl/src/draw/sw/lv_draw_sw_rect.c ****             }
 2869              		.loc 1 765 17 is_stmt 1 discriminator 2 view .LVU1061
 2870 0882 0DA9     		add	r1, sp, #52
 2871 0884 3046     		mov	r0, r6
 2872 0886 FFF7FEFF 		bl	lv_draw_sw_blend
 2873              	.LVL271:
 756:Drivers/lvgl/src/draw/sw/lv_draw_sw_rect.c ****                 blend_area.y1 = y;
 2874              		.loc 1 756 63 discriminator 2 view .LVU1062
 2875 088a 0135     		adds	r5, r5, #1
 2876              	.LVL272:
 756:Drivers/lvgl/src/draw/sw/lv_draw_sw_rect.c ****                 blend_area.y1 = y;
 2877              		.loc 1 756 63 is_stmt 0 discriminator 2 view .LVU1063
 2878 088c 2DB2     		sxth	r5, r5
 2879              	.LVL273:
 2880              	.L130:
 756:Drivers/lvgl/src/draw/sw/lv_draw_sw_rect.c ****                 blend_area.y1 = y;
 2881              		.loc 1 756 41 is_stmt 1 discriminator 1 view .LVU1064
 756:Drivers/lvgl/src/draw/sw/lv_draw_sw_rect.c ****                 blend_area.y1 = y;
 2882              		.loc 1 756 57 is_stmt 0 discriminator 1 view .LVU1065
 2883 088e BDF95630 		ldrsh	r3, [sp, #86]
 756:Drivers/lvgl/src/draw/sw/lv_draw_sw_rect.c ****                 blend_area.y1 = y;
 2884              		.loc 1 756 41 discriminator 1 view .LVU1066
 2885 0892 AB42     		cmp	r3, r5
 2886 0894 19DB     		blt	.L208
 757:Drivers/lvgl/src/draw/sw/lv_draw_sw_rect.c ****                 blend_area.y2 = y;
 2887              		.loc 1 757 17 is_stmt 1 view .LVU1067
 757:Drivers/lvgl/src/draw/sw/lv_draw_sw_rect.c ****                 blend_area.y2 = y;
 2888              		.loc 1 757 31 is_stmt 0 view .LVU1068
 2889 0896 ADF85A50 		strh	r5, [sp, #90]	@ movhi
 758:Drivers/lvgl/src/draw/sw/lv_draw_sw_rect.c **** 
 2890              		.loc 1 758 17 is_stmt 1 view .LVU1069
 758:Drivers/lvgl/src/draw/sw/lv_draw_sw_rect.c **** 
 2891              		.loc 1 758 31 is_stmt 0 view .LVU1070
 2892 089a ADF85E50 		strh	r5, [sp, #94]	@ movhi
 760:Drivers/lvgl/src/draw/sw/lv_draw_sw_rect.c ****                     lv_memcpy(mask_buf, sh_buf_tmp, w);
 2893              		.loc 1 760 17 is_stmt 1 view .LVU1071
 760:Drivers/lvgl/src/draw/sw/lv_draw_sw_rect.c ****                     lv_memcpy(mask_buf, sh_buf_tmp, w);
 2894              		.loc 1 760 19 is_stmt 0 view .LVU1072
 2895 089e 002C     		cmp	r4, #0
 2896 08a0 EFD1     		bne	.L131
 761:Drivers/lvgl/src/draw/sw/lv_draw_sw_rect.c ****                     blend_dsc.mask_res = lv_draw_mask_apply(mask_buf, clip_area_sub.x1, y, w);
 2897              		.loc 1 761 21 is_stmt 1 view .LVU1073
 2898 08a2 5246     		mov	r2, r10
 2899 08a4 5946     		mov	r1, fp
 2900 08a6 3846     		mov	r0, r7
ARM GAS  /var/folders/0z/tsy30v1j4xl4_7kw94k978ww0000gn/T//cc0noGMx.s 			page 96


 2901 08a8 FFF7FEFF 		bl	lv_memcpy
 2902              	.LVL274:
 762:Drivers/lvgl/src/draw/sw/lv_draw_sw_rect.c ****                     if(blend_dsc.mask_res == LV_DRAW_MASK_RES_FULL_COVER) blend_dsc.mask_res = LV_D
 2903              		.loc 1 762 21 view .LVU1074
 762:Drivers/lvgl/src/draw/sw/lv_draw_sw_rect.c ****                     if(blend_dsc.mask_res == LV_DRAW_MASK_RES_FULL_COVER) blend_dsc.mask_res = LV_D
 2904              		.loc 1 762 42 is_stmt 0 view .LVU1075
 2905 08ac 5346     		mov	r3, r10
 2906 08ae 2A46     		mov	r2, r5
 2907 08b0 BDF95010 		ldrsh	r1, [sp, #80]
 2908 08b4 3846     		mov	r0, r7
 2909 08b6 FFF7FEFF 		bl	lv_draw_mask_apply
 2910              	.LVL275:
 762:Drivers/lvgl/src/draw/sw/lv_draw_sw_rect.c ****                     if(blend_dsc.mask_res == LV_DRAW_MASK_RES_FULL_COVER) blend_dsc.mask_res = LV_D
 2911              		.loc 1 762 40 view .LVU1076
 2912 08ba 8DF84400 		strb	r0, [sp, #68]
 763:Drivers/lvgl/src/draw/sw/lv_draw_sw_rect.c ****                 }
 2913              		.loc 1 763 21 is_stmt 1 view .LVU1077
 763:Drivers/lvgl/src/draw/sw/lv_draw_sw_rect.c ****                 }
 2914              		.loc 1 763 23 is_stmt 0 view .LVU1078
 2915 08be 0128     		cmp	r0, #1
 2916 08c0 DFD1     		bne	.L131
 763:Drivers/lvgl/src/draw/sw/lv_draw_sw_rect.c ****                 }
 2917              		.loc 1 763 75 is_stmt 1 discriminator 1 view .LVU1079
 763:Drivers/lvgl/src/draw/sw/lv_draw_sw_rect.c ****                 }
 2918              		.loc 1 763 94 is_stmt 0 discriminator 1 view .LVU1080
 2919 08c2 0223     		movs	r3, #2
 2920 08c4 8DF84430 		strb	r3, [sp, #68]
 2921 08c8 DBE7     		b	.L131
 2922              	.L208:
 763:Drivers/lvgl/src/draw/sw/lv_draw_sw_rect.c ****                 }
 2923              		.loc 1 763 94 discriminator 1 view .LVU1081
 2924 08ca 089F     		ldr	r7, [sp, #32]
 2925 08cc 4C46     		mov	r4, r9
 2926 08ce 7AE5     		b	.L127
 2927              	.LVL276:
 2928              	.L134:
 763:Drivers/lvgl/src/draw/sw/lv_draw_sw_rect.c ****                 }
 2929              		.loc 1 763 94 discriminator 1 view .LVU1082
 2930              	.LBE162:
 2931              	.LBB165:
 2932              	.LBB149:
 777:Drivers/lvgl/src/draw/sw/lv_draw_sw_rect.c ****             *start = *end;
 2933              		.loc 1 777 13 is_stmt 1 discriminator 3 view .LVU1083
 777:Drivers/lvgl/src/draw/sw/lv_draw_sw_rect.c ****             *start = *end;
 2934              		.loc 1 777 22 is_stmt 0 discriminator 3 view .LVU1084
 2935 08d0 0878     		ldrb	r0, [r1]	@ zero_extendqisi2
 2936              	.LVL277:
 778:Drivers/lvgl/src/draw/sw/lv_draw_sw_rect.c ****             *end = tmp;
 2937              		.loc 1 778 13 is_stmt 1 discriminator 3 view .LVU1085
 778:Drivers/lvgl/src/draw/sw/lv_draw_sw_rect.c ****             *end = tmp;
 2938              		.loc 1 778 22 is_stmt 0 discriminator 3 view .LVU1086
 2939 08d2 1D78     		ldrb	r5, [r3]	@ zero_extendqisi2
 778:Drivers/lvgl/src/draw/sw/lv_draw_sw_rect.c ****             *end = tmp;
 2940              		.loc 1 778 20 discriminator 3 view .LVU1087
 2941 08d4 01F8015B 		strb	r5, [r1], #1
 2942              	.LVL278:
 779:Drivers/lvgl/src/draw/sw/lv_draw_sw_rect.c **** 
ARM GAS  /var/folders/0z/tsy30v1j4xl4_7kw94k978ww0000gn/T//cc0noGMx.s 			page 97


 2943              		.loc 1 779 13 is_stmt 1 discriminator 3 view .LVU1088
 779:Drivers/lvgl/src/draw/sw/lv_draw_sw_rect.c **** 
 2944              		.loc 1 779 18 is_stmt 0 discriminator 3 view .LVU1089
 2945 08d8 03F80109 		strb	r0, [r3], #-1
 2946              	.LVL279:
 781:Drivers/lvgl/src/draw/sw/lv_draw_sw_rect.c ****             end--;
 2947              		.loc 1 781 13 is_stmt 1 discriminator 3 view .LVU1090
 782:Drivers/lvgl/src/draw/sw/lv_draw_sw_rect.c ****         }
 2948              		.loc 1 782 13 discriminator 3 view .LVU1091
 782:Drivers/lvgl/src/draw/sw/lv_draw_sw_rect.c ****         }
 2949              		.loc 1 782 13 is_stmt 0 discriminator 3 view .LVU1092
 2950              	.LBE149:
 776:Drivers/lvgl/src/draw/sw/lv_draw_sw_rect.c ****             lv_opa_t tmp = *start;
 2951              		.loc 1 776 42 is_stmt 1 discriminator 3 view .LVU1093
 2952 08dc 0132     		adds	r2, r2, #1
 2953              	.LVL280:
 2954              	.L133:
 776:Drivers/lvgl/src/draw/sw/lv_draw_sw_rect.c ****             lv_opa_t tmp = *start;
 2955              		.loc 1 776 22 discriminator 1 view .LVU1094
 776:Drivers/lvgl/src/draw/sw/lv_draw_sw_rect.c ****             lv_opa_t tmp = *start;
 2956              		.loc 1 776 36 is_stmt 0 discriminator 1 view .LVU1095
 2957 08de 04EBD470 		add	r0, r4, r4, lsr #31
 776:Drivers/lvgl/src/draw/sw/lv_draw_sw_rect.c ****             lv_opa_t tmp = *start;
 2958              		.loc 1 776 22 discriminator 1 view .LVU1096
 2959 08e2 B2EB600F 		cmp	r2, r0, asr #1
 2960 08e6 F3DB     		blt	.L134
 784:Drivers/lvgl/src/draw/sw/lv_draw_sw_rect.c ****     }
 2961              		.loc 1 784 9 is_stmt 1 discriminator 2 view .LVU1097
 784:Drivers/lvgl/src/draw/sw/lv_draw_sw_rect.c ****     }
 2962              		.loc 1 784 20 is_stmt 0 discriminator 2 view .LVU1098
 2963 08e8 A644     		add	lr, lr, r4
 2964              	.LVL281:
 784:Drivers/lvgl/src/draw/sw/lv_draw_sw_rect.c ****     }
 2965              		.loc 1 784 20 discriminator 2 view .LVU1099
 2966              	.LBE165:
 772:Drivers/lvgl/src/draw/sw/lv_draw_sw_rect.c ****         int32_t x;
 2967              		.loc 1 772 34 is_stmt 1 discriminator 2 view .LVU1100
 2968 08ea 0CF1010C 		add	ip, ip, #1
 2969              	.LVL282:
 772:Drivers/lvgl/src/draw/sw/lv_draw_sw_rect.c ****         int32_t x;
 2970              		.loc 1 772 34 is_stmt 0 discriminator 2 view .LVU1101
 2971 08ee 0FFA8CFC 		sxth	ip, ip
 2972              	.LVL283:
 2973              	.L135:
 772:Drivers/lvgl/src/draw/sw/lv_draw_sw_rect.c ****         int32_t x;
 2974              		.loc 1 772 18 is_stmt 1 discriminator 1 view .LVU1102
 2975 08f2 A445     		cmp	ip, r4
 2976 08f4 04DA     		bge	.L209
 2977              	.LBB166:
 773:Drivers/lvgl/src/draw/sw/lv_draw_sw_rect.c ****         lv_opa_t * start = sh_buf_tmp;
 2978              		.loc 1 773 9 view .LVU1103
 774:Drivers/lvgl/src/draw/sw/lv_draw_sw_rect.c ****         lv_opa_t * end = sh_buf_tmp + corner_size - 1;
 2979              		.loc 1 774 9 view .LVU1104
 2980              	.LVL284:
 775:Drivers/lvgl/src/draw/sw/lv_draw_sw_rect.c ****         for(x = 0; x < corner_size / 2; x++) {
 2981              		.loc 1 775 9 view .LVU1105
 775:Drivers/lvgl/src/draw/sw/lv_draw_sw_rect.c ****         for(x = 0; x < corner_size / 2; x++) {
ARM GAS  /var/folders/0z/tsy30v1j4xl4_7kw94k978ww0000gn/T//cc0noGMx.s 			page 98


 2982              		.loc 1 775 51 is_stmt 0 view .LVU1106
 2983 08f6 631E     		subs	r3, r4, #1
 775:Drivers/lvgl/src/draw/sw/lv_draw_sw_rect.c ****         for(x = 0; x < corner_size / 2; x++) {
 2984              		.loc 1 775 20 view .LVU1107
 2985 08f8 7344     		add	r3, r3, lr
 2986              	.LVL285:
 776:Drivers/lvgl/src/draw/sw/lv_draw_sw_rect.c ****             lv_opa_t tmp = *start;
 2987              		.loc 1 776 9 is_stmt 1 view .LVU1108
 774:Drivers/lvgl/src/draw/sw/lv_draw_sw_rect.c ****         lv_opa_t * end = sh_buf_tmp + corner_size - 1;
 2988              		.loc 1 774 20 is_stmt 0 view .LVU1109
 2989 08fa 7146     		mov	r1, lr
 776:Drivers/lvgl/src/draw/sw/lv_draw_sw_rect.c ****             lv_opa_t tmp = *start;
 2990              		.loc 1 776 15 view .LVU1110
 2991 08fc 0022     		movs	r2, #0
 776:Drivers/lvgl/src/draw/sw/lv_draw_sw_rect.c ****             lv_opa_t tmp = *start;
 2992              		.loc 1 776 9 view .LVU1111
 2993 08fe EEE7     		b	.L133
 2994              	.LVL286:
 2995              	.L209:
 776:Drivers/lvgl/src/draw/sw/lv_draw_sw_rect.c ****             lv_opa_t tmp = *start;
 2996              		.loc 1 776 9 view .LVU1112
 2997              	.LBE166:
 788:Drivers/lvgl/src/draw/sw/lv_draw_sw_rect.c ****     blend_area.x2 = shadow_area.x1 + corner_size - 1;
 2998              		.loc 1 788 5 is_stmt 1 view .LVU1113
 788:Drivers/lvgl/src/draw/sw/lv_draw_sw_rect.c ****     blend_area.x2 = shadow_area.x1 + corner_size - 1;
 2999              		.loc 1 788 32 is_stmt 0 view .LVU1114
 3000 0900 BDF98830 		ldrsh	r3, [sp, #136]
 788:Drivers/lvgl/src/draw/sw/lv_draw_sw_rect.c ****     blend_area.x2 = shadow_area.x1 + corner_size - 1;
 3001              		.loc 1 788 19 view .LVU1115
 3002 0904 ADF85830 		strh	r3, [sp, #88]	@ movhi
 789:Drivers/lvgl/src/draw/sw/lv_draw_sw_rect.c ****     blend_area.y1 = shadow_area.y1 + corner_size;
 3003              		.loc 1 789 5 is_stmt 1 view .LVU1116
 789:Drivers/lvgl/src/draw/sw/lv_draw_sw_rect.c ****     blend_area.y1 = shadow_area.y1 + corner_size;
 3004              		.loc 1 789 36 is_stmt 0 view .LVU1117
 3005 0908 17FA83F3 		uxtah	r3, r7, r3
 3006 090c 9BB2     		uxth	r3, r3
 789:Drivers/lvgl/src/draw/sw/lv_draw_sw_rect.c ****     blend_area.y1 = shadow_area.y1 + corner_size;
 3007              		.loc 1 789 50 view .LVU1118
 3008 090e 013B     		subs	r3, r3, #1
 3009 0910 1BB2     		sxth	r3, r3
 789:Drivers/lvgl/src/draw/sw/lv_draw_sw_rect.c ****     blend_area.y1 = shadow_area.y1 + corner_size;
 3010              		.loc 1 789 19 view .LVU1119
 3011 0912 ADF85C30 		strh	r3, [sp, #92]	@ movhi
 790:Drivers/lvgl/src/draw/sw/lv_draw_sw_rect.c ****     blend_area.y2 = shadow_area.y2 - corner_size;
 3012              		.loc 1 790 5 is_stmt 1 view .LVU1120
 790:Drivers/lvgl/src/draw/sw/lv_draw_sw_rect.c ****     blend_area.y2 = shadow_area.y2 - corner_size;
 3013              		.loc 1 790 32 is_stmt 0 view .LVU1121
 3014 0916 BDF88A10 		ldrh	r1, [sp, #138]
 790:Drivers/lvgl/src/draw/sw/lv_draw_sw_rect.c ****     blend_area.y2 = shadow_area.y2 - corner_size;
 3015              		.loc 1 790 36 view .LVU1122
 3016 091a 3944     		add	r1, r1, r7
 3017 091c 09B2     		sxth	r1, r1
 790:Drivers/lvgl/src/draw/sw/lv_draw_sw_rect.c ****     blend_area.y2 = shadow_area.y2 - corner_size;
 3018              		.loc 1 790 19 view .LVU1123
 3019 091e ADF85A10 		strh	r1, [sp, #90]	@ movhi
 791:Drivers/lvgl/src/draw/sw/lv_draw_sw_rect.c ****     /*Do not overdraw the other corners*/
 3020              		.loc 1 791 5 is_stmt 1 view .LVU1124
ARM GAS  /var/folders/0z/tsy30v1j4xl4_7kw94k978ww0000gn/T//cc0noGMx.s 			page 99


 791:Drivers/lvgl/src/draw/sw/lv_draw_sw_rect.c ****     /*Do not overdraw the other corners*/
 3021              		.loc 1 791 32 is_stmt 0 view .LVU1125
 3022 0922 BDF88E20 		ldrh	r2, [sp, #142]
 791:Drivers/lvgl/src/draw/sw/lv_draw_sw_rect.c ****     /*Do not overdraw the other corners*/
 3023              		.loc 1 791 36 view .LVU1126
 3024 0926 D21B     		subs	r2, r2, r7
 3025 0928 12B2     		sxth	r2, r2
 791:Drivers/lvgl/src/draw/sw/lv_draw_sw_rect.c ****     /*Do not overdraw the other corners*/
 3026              		.loc 1 791 19 view .LVU1127
 3027 092a ADF85E20 		strh	r2, [sp, #94]	@ movhi
 793:Drivers/lvgl/src/draw/sw/lv_draw_sw_rect.c ****     blend_area.y2 = LV_MAX(blend_area.y2, h_half);
 3028              		.loc 1 793 5 is_stmt 1 view .LVU1128
 793:Drivers/lvgl/src/draw/sw/lv_draw_sw_rect.c ****     blend_area.y2 = LV_MAX(blend_area.y2, h_half);
 3029              		.loc 1 793 19 is_stmt 0 view .LVU1129
 3030 092e 4145     		cmp	r1, r8
 3031 0930 02DD     		ble	.L137
 793:Drivers/lvgl/src/draw/sw/lv_draw_sw_rect.c ****     blend_area.y2 = LV_MAX(blend_area.y2, h_half);
 3032              		.loc 1 793 21 discriminator 2 view .LVU1130
 3033 0932 0699     		ldr	r1, [sp, #24]
 3034 0934 0131     		adds	r1, r1, #1
 793:Drivers/lvgl/src/draw/sw/lv_draw_sw_rect.c ****     blend_area.y2 = LV_MAX(blend_area.y2, h_half);
 3035              		.loc 1 793 19 discriminator 2 view .LVU1131
 3036 0936 09B2     		sxth	r1, r1
 3037              	.L137:
 793:Drivers/lvgl/src/draw/sw/lv_draw_sw_rect.c ****     blend_area.y2 = LV_MAX(blend_area.y2, h_half);
 3038              		.loc 1 793 19 discriminator 4 view .LVU1132
 3039 0938 ADF85A10 		strh	r1, [sp, #90]	@ movhi
 794:Drivers/lvgl/src/draw/sw/lv_draw_sw_rect.c ****     blend_area.x2 = LV_MIN(blend_area.x2, w_half - 1);
 3040              		.loc 1 794 5 is_stmt 1 discriminator 4 view .LVU1133
 794:Drivers/lvgl/src/draw/sw/lv_draw_sw_rect.c ****     blend_area.x2 = LV_MIN(blend_area.x2, w_half - 1);
 3041              		.loc 1 794 21 is_stmt 0 discriminator 4 view .LVU1134
 3042 093c 4245     		cmp	r2, r8
 3043 093e B8BF     		it	lt
 3044 0940 4246     		movlt	r2, r8
 794:Drivers/lvgl/src/draw/sw/lv_draw_sw_rect.c ****     blend_area.x2 = LV_MIN(blend_area.x2, w_half - 1);
 3045              		.loc 1 794 19 discriminator 4 view .LVU1135
 3046 0942 ADF85E20 		strh	r2, [sp, #94]	@ movhi
 795:Drivers/lvgl/src/draw/sw/lv_draw_sw_rect.c **** 
 3047              		.loc 1 795 5 is_stmt 1 discriminator 4 view .LVU1136
 795:Drivers/lvgl/src/draw/sw/lv_draw_sw_rect.c **** 
 3048              		.loc 1 795 21 is_stmt 0 discriminator 4 view .LVU1137
 3049 0946 029A     		ldr	r2, [sp, #8]
 3050 0948 551E     		subs	r5, r2, #1
 3051 094a AB42     		cmp	r3, r5
 3052 094c A8BF     		it	ge
 3053 094e 2B46     		movge	r3, r5
 795:Drivers/lvgl/src/draw/sw/lv_draw_sw_rect.c **** 
 3054              		.loc 1 795 19 discriminator 4 view .LVU1138
 3055 0950 ADF85C30 		strh	r3, [sp, #92]	@ movhi
 797:Drivers/lvgl/src/draw/sw/lv_draw_sw_rect.c ****        !_lv_area_is_in(&clip_area_sub, &bg_area, r_bg)) {
 3056              		.loc 1 797 5 is_stmt 1 discriminator 4 view .LVU1139
 797:Drivers/lvgl/src/draw/sw/lv_draw_sw_rect.c ****        !_lv_area_is_in(&clip_area_sub, &bg_area, r_bg)) {
 3057              		.loc 1 797 8 is_stmt 0 discriminator 4 view .LVU1140
 3058 0954 B268     		ldr	r2, [r6, #8]
 3059 0956 16A9     		add	r1, sp, #88
 3060 0958 14A8     		add	r0, sp, #80
 3061 095a FFF7FEFF 		bl	_lv_area_intersect
ARM GAS  /var/folders/0z/tsy30v1j4xl4_7kw94k978ww0000gn/T//cc0noGMx.s 			page 100


 3062              	.LVL287:
 797:Drivers/lvgl/src/draw/sw/lv_draw_sw_rect.c ****        !_lv_area_is_in(&clip_area_sub, &bg_area, r_bg)) {
 3063              		.loc 1 797 7 discriminator 4 view .LVU1141
 3064 095e 0028     		cmp	r0, #0
 3065 0960 7AD1     		bne	.L210
 3066              	.LVL288:
 3067              	.L138:
 828:Drivers/lvgl/src/draw/sw/lv_draw_sw_rect.c ****     blend_area.x2 = shadow_area.x1 + corner_size - 1;
 3068              		.loc 1 828 5 is_stmt 1 view .LVU1142
 828:Drivers/lvgl/src/draw/sw/lv_draw_sw_rect.c ****     blend_area.x2 = shadow_area.x1 + corner_size - 1;
 3069              		.loc 1 828 32 is_stmt 0 view .LVU1143
 3070 0962 BDF98830 		ldrsh	r3, [sp, #136]
 828:Drivers/lvgl/src/draw/sw/lv_draw_sw_rect.c ****     blend_area.x2 = shadow_area.x1 + corner_size - 1;
 3071              		.loc 1 828 19 view .LVU1144
 3072 0966 ADF85830 		strh	r3, [sp, #88]	@ movhi
 829:Drivers/lvgl/src/draw/sw/lv_draw_sw_rect.c ****     blend_area.y1 = shadow_area.y1;
 3073              		.loc 1 829 5 is_stmt 1 view .LVU1145
 829:Drivers/lvgl/src/draw/sw/lv_draw_sw_rect.c ****     blend_area.y1 = shadow_area.y1;
 3074              		.loc 1 829 36 is_stmt 0 view .LVU1146
 3075 096a 17FA83F2 		uxtah	r2, r7, r3
 3076 096e 92B2     		uxth	r2, r2
 829:Drivers/lvgl/src/draw/sw/lv_draw_sw_rect.c ****     blend_area.y1 = shadow_area.y1;
 3077              		.loc 1 829 50 view .LVU1147
 3078 0970 013A     		subs	r2, r2, #1
 3079 0972 12B2     		sxth	r2, r2
 829:Drivers/lvgl/src/draw/sw/lv_draw_sw_rect.c ****     blend_area.y1 = shadow_area.y1;
 3080              		.loc 1 829 19 view .LVU1148
 3081 0974 ADF85C20 		strh	r2, [sp, #92]	@ movhi
 830:Drivers/lvgl/src/draw/sw/lv_draw_sw_rect.c ****     blend_area.y2 = shadow_area.y1 + corner_size - 1;
 3082              		.loc 1 830 5 is_stmt 1 view .LVU1149
 830:Drivers/lvgl/src/draw/sw/lv_draw_sw_rect.c ****     blend_area.y2 = shadow_area.y1 + corner_size - 1;
 3083              		.loc 1 830 32 is_stmt 0 view .LVU1150
 3084 0978 BDF98A30 		ldrsh	r3, [sp, #138]
 830:Drivers/lvgl/src/draw/sw/lv_draw_sw_rect.c ****     blend_area.y2 = shadow_area.y1 + corner_size - 1;
 3085              		.loc 1 830 19 view .LVU1151
 3086 097c ADF85A30 		strh	r3, [sp, #90]	@ movhi
 831:Drivers/lvgl/src/draw/sw/lv_draw_sw_rect.c ****     /*Do not overdraw the other corners*/
 3087              		.loc 1 831 5 is_stmt 1 view .LVU1152
 831:Drivers/lvgl/src/draw/sw/lv_draw_sw_rect.c ****     /*Do not overdraw the other corners*/
 3088              		.loc 1 831 36 is_stmt 0 view .LVU1153
 3089 0980 17FA83F3 		uxtah	r3, r7, r3
 3090 0984 9BB2     		uxth	r3, r3
 831:Drivers/lvgl/src/draw/sw/lv_draw_sw_rect.c ****     /*Do not overdraw the other corners*/
 3091              		.loc 1 831 50 view .LVU1154
 3092 0986 013B     		subs	r3, r3, #1
 3093 0988 1BB2     		sxth	r3, r3
 831:Drivers/lvgl/src/draw/sw/lv_draw_sw_rect.c ****     /*Do not overdraw the other corners*/
 3094              		.loc 1 831 19 view .LVU1155
 3095 098a ADF85E30 		strh	r3, [sp, #94]	@ movhi
 833:Drivers/lvgl/src/draw/sw/lv_draw_sw_rect.c ****     blend_area.y2 = LV_MIN(blend_area.y2, h_half);
 3096              		.loc 1 833 5 is_stmt 1 view .LVU1156
 833:Drivers/lvgl/src/draw/sw/lv_draw_sw_rect.c ****     blend_area.y2 = LV_MIN(blend_area.y2, h_half);
 3097              		.loc 1 833 21 is_stmt 0 view .LVU1157
 3098 098e AA42     		cmp	r2, r5
 3099 0990 A8BF     		it	ge
 3100 0992 2A46     		movge	r2, r5
 833:Drivers/lvgl/src/draw/sw/lv_draw_sw_rect.c ****     blend_area.y2 = LV_MIN(blend_area.y2, h_half);
ARM GAS  /var/folders/0z/tsy30v1j4xl4_7kw94k978ww0000gn/T//cc0noGMx.s 			page 101


 3101              		.loc 1 833 19 view .LVU1158
 3102 0994 ADF85C20 		strh	r2, [sp, #92]	@ movhi
 834:Drivers/lvgl/src/draw/sw/lv_draw_sw_rect.c **** 
 3103              		.loc 1 834 5 is_stmt 1 view .LVU1159
 834:Drivers/lvgl/src/draw/sw/lv_draw_sw_rect.c **** 
 3104              		.loc 1 834 21 is_stmt 0 view .LVU1160
 3105 0998 4345     		cmp	r3, r8
 3106 099a A8BF     		it	ge
 3107 099c 4346     		movge	r3, r8
 834:Drivers/lvgl/src/draw/sw/lv_draw_sw_rect.c **** 
 3108              		.loc 1 834 19 view .LVU1161
 3109 099e ADF85E30 		strh	r3, [sp, #94]	@ movhi
 836:Drivers/lvgl/src/draw/sw/lv_draw_sw_rect.c ****        !_lv_area_is_in(&clip_area_sub, &bg_area, r_bg)) {
 3110              		.loc 1 836 5 is_stmt 1 view .LVU1162
 836:Drivers/lvgl/src/draw/sw/lv_draw_sw_rect.c ****        !_lv_area_is_in(&clip_area_sub, &bg_area, r_bg)) {
 3111              		.loc 1 836 8 is_stmt 0 view .LVU1163
 3112 09a2 B268     		ldr	r2, [r6, #8]
 3113 09a4 16A9     		add	r1, sp, #88
 3114 09a6 14A8     		add	r0, sp, #80
 3115 09a8 FFF7FEFF 		bl	_lv_area_intersect
 3116              	.LVL289:
 836:Drivers/lvgl/src/draw/sw/lv_draw_sw_rect.c ****        !_lv_area_is_in(&clip_area_sub, &bg_area, r_bg)) {
 3117              		.loc 1 836 7 view .LVU1164
 3118 09ac 0028     		cmp	r0, #0
 3119 09ae 40F0C580 		bne	.L211
 3120              	.L144:
 873:Drivers/lvgl/src/draw/sw/lv_draw_sw_rect.c ****     blend_area.x2 = shadow_area.x1 + corner_size - 1;
 3121              		.loc 1 873 5 is_stmt 1 view .LVU1165
 873:Drivers/lvgl/src/draw/sw/lv_draw_sw_rect.c ****     blend_area.x2 = shadow_area.x1 + corner_size - 1;
 3122              		.loc 1 873 32 is_stmt 0 view .LVU1166
 3123 09b2 BDF98830 		ldrsh	r3, [sp, #136]
 873:Drivers/lvgl/src/draw/sw/lv_draw_sw_rect.c ****     blend_area.x2 = shadow_area.x1 + corner_size - 1;
 3124              		.loc 1 873 19 view .LVU1167
 3125 09b6 ADF85830 		strh	r3, [sp, #88]	@ movhi
 874:Drivers/lvgl/src/draw/sw/lv_draw_sw_rect.c ****     blend_area.y1 = shadow_area.y2 - corner_size + 1;
 3126              		.loc 1 874 5 is_stmt 1 view .LVU1168
 874:Drivers/lvgl/src/draw/sw/lv_draw_sw_rect.c ****     blend_area.y1 = shadow_area.y2 - corner_size + 1;
 3127              		.loc 1 874 36 is_stmt 0 view .LVU1169
 3128 09ba 17FA83F3 		uxtah	r3, r7, r3
 3129 09be 9BB2     		uxth	r3, r3
 874:Drivers/lvgl/src/draw/sw/lv_draw_sw_rect.c ****     blend_area.y1 = shadow_area.y2 - corner_size + 1;
 3130              		.loc 1 874 50 view .LVU1170
 3131 09c0 013B     		subs	r3, r3, #1
 3132 09c2 1BB2     		sxth	r3, r3
 874:Drivers/lvgl/src/draw/sw/lv_draw_sw_rect.c ****     blend_area.y1 = shadow_area.y2 - corner_size + 1;
 3133              		.loc 1 874 19 view .LVU1171
 3134 09c4 ADF85C30 		strh	r3, [sp, #92]	@ movhi
 875:Drivers/lvgl/src/draw/sw/lv_draw_sw_rect.c ****     blend_area.y2 = shadow_area.y2;
 3135              		.loc 1 875 5 is_stmt 1 view .LVU1172
 875:Drivers/lvgl/src/draw/sw/lv_draw_sw_rect.c ****     blend_area.y2 = shadow_area.y2;
 3136              		.loc 1 875 32 is_stmt 0 view .LVU1173
 3137 09c8 BDF98E10 		ldrsh	r1, [sp, #142]
 3138 09cc 8AB2     		uxth	r2, r1
 875:Drivers/lvgl/src/draw/sw/lv_draw_sw_rect.c ****     blend_area.y2 = shadow_area.y2;
 3139              		.loc 1 875 36 view .LVU1174
 3140 09ce D21B     		subs	r2, r2, r7
 3141 09d0 92B2     		uxth	r2, r2
ARM GAS  /var/folders/0z/tsy30v1j4xl4_7kw94k978ww0000gn/T//cc0noGMx.s 			page 102


 875:Drivers/lvgl/src/draw/sw/lv_draw_sw_rect.c ****     blend_area.y2 = shadow_area.y2;
 3142              		.loc 1 875 50 view .LVU1175
 3143 09d2 0132     		adds	r2, r2, #1
 3144 09d4 12B2     		sxth	r2, r2
 875:Drivers/lvgl/src/draw/sw/lv_draw_sw_rect.c ****     blend_area.y2 = shadow_area.y2;
 3145              		.loc 1 875 19 view .LVU1176
 3146 09d6 ADF85A20 		strh	r2, [sp, #90]	@ movhi
 876:Drivers/lvgl/src/draw/sw/lv_draw_sw_rect.c ****     /*Do not overdraw the other corners*/
 3147              		.loc 1 876 5 is_stmt 1 view .LVU1177
 876:Drivers/lvgl/src/draw/sw/lv_draw_sw_rect.c ****     /*Do not overdraw the other corners*/
 3148              		.loc 1 876 19 is_stmt 0 view .LVU1178
 3149 09da ADF85E10 		strh	r1, [sp, #94]	@ movhi
 878:Drivers/lvgl/src/draw/sw/lv_draw_sw_rect.c ****     blend_area.x2 = LV_MIN(blend_area.x2, w_half - 1);
 3150              		.loc 1 878 5 is_stmt 1 view .LVU1179
 878:Drivers/lvgl/src/draw/sw/lv_draw_sw_rect.c ****     blend_area.x2 = LV_MIN(blend_area.x2, w_half - 1);
 3151              		.loc 1 878 21 is_stmt 0 view .LVU1180
 3152 09de 0599     		ldr	r1, [sp, #20]
 3153 09e0 9142     		cmp	r1, r2
 3154 09e2 B8BF     		it	lt
 3155 09e4 1146     		movlt	r1, r2
 878:Drivers/lvgl/src/draw/sw/lv_draw_sw_rect.c ****     blend_area.x2 = LV_MIN(blend_area.x2, w_half - 1);
 3156              		.loc 1 878 19 view .LVU1181
 3157 09e6 ADF85A10 		strh	r1, [sp, #90]	@ movhi
 879:Drivers/lvgl/src/draw/sw/lv_draw_sw_rect.c **** 
 3158              		.loc 1 879 5 is_stmt 1 view .LVU1182
 879:Drivers/lvgl/src/draw/sw/lv_draw_sw_rect.c **** 
 3159              		.loc 1 879 21 is_stmt 0 view .LVU1183
 3160 09ea 9D42     		cmp	r5, r3
 3161 09ec A8BF     		it	ge
 3162 09ee 1D46     		movge	r5, r3
 879:Drivers/lvgl/src/draw/sw/lv_draw_sw_rect.c **** 
 3163              		.loc 1 879 19 view .LVU1184
 3164 09f0 ADF85C50 		strh	r5, [sp, #92]	@ movhi
 881:Drivers/lvgl/src/draw/sw/lv_draw_sw_rect.c ****        !_lv_area_is_in(&clip_area_sub, &bg_area, r_bg)) {
 3165              		.loc 1 881 5 is_stmt 1 view .LVU1185
 881:Drivers/lvgl/src/draw/sw/lv_draw_sw_rect.c ****        !_lv_area_is_in(&clip_area_sub, &bg_area, r_bg)) {
 3166              		.loc 1 881 8 is_stmt 0 view .LVU1186
 3167 09f4 B268     		ldr	r2, [r6, #8]
 3168 09f6 16A9     		add	r1, sp, #88
 3169 09f8 14A8     		add	r0, sp, #80
 3170 09fa FFF7FEFF 		bl	_lv_area_intersect
 3171              	.LVL290:
 881:Drivers/lvgl/src/draw/sw/lv_draw_sw_rect.c ****        !_lv_area_is_in(&clip_area_sub, &bg_area, r_bg)) {
 3172              		.loc 1 881 7 view .LVU1187
 3173 09fe 0028     		cmp	r0, #0
 3174 0a00 40F01881 		bne	.L212
 3175              	.LVL291:
 3176              	.L150:
 915:Drivers/lvgl/src/draw/sw/lv_draw_sw_rect.c ****     blend_area.x2 = shadow_area.x2 - corner_size;
 3177              		.loc 1 915 5 is_stmt 1 view .LVU1188
 915:Drivers/lvgl/src/draw/sw/lv_draw_sw_rect.c ****     blend_area.x2 = shadow_area.x2 - corner_size;
 3178              		.loc 1 915 32 is_stmt 0 view .LVU1189
 3179 0a04 BDF88830 		ldrh	r3, [sp, #136]
 915:Drivers/lvgl/src/draw/sw/lv_draw_sw_rect.c ****     blend_area.x2 = shadow_area.x2 - corner_size;
 3180              		.loc 1 915 36 view .LVU1190
 3181 0a08 3B44     		add	r3, r3, r7
 915:Drivers/lvgl/src/draw/sw/lv_draw_sw_rect.c ****     blend_area.x2 = shadow_area.x2 - corner_size;
ARM GAS  /var/folders/0z/tsy30v1j4xl4_7kw94k978ww0000gn/T//cc0noGMx.s 			page 103


 3182              		.loc 1 915 19 view .LVU1191
 3183 0a0a ADF85830 		strh	r3, [sp, #88]	@ movhi
 916:Drivers/lvgl/src/draw/sw/lv_draw_sw_rect.c ****     blend_area.y1 = shadow_area.y1 + corner_size;
 3184              		.loc 1 916 5 is_stmt 1 view .LVU1192
 916:Drivers/lvgl/src/draw/sw/lv_draw_sw_rect.c ****     blend_area.y1 = shadow_area.y1 + corner_size;
 3185              		.loc 1 916 32 is_stmt 0 view .LVU1193
 3186 0a0e BDF88C30 		ldrh	r3, [sp, #140]
 916:Drivers/lvgl/src/draw/sw/lv_draw_sw_rect.c ****     blend_area.y1 = shadow_area.y1 + corner_size;
 3187              		.loc 1 916 36 view .LVU1194
 3188 0a12 DB1B     		subs	r3, r3, r7
 916:Drivers/lvgl/src/draw/sw/lv_draw_sw_rect.c ****     blend_area.y1 = shadow_area.y1 + corner_size;
 3189              		.loc 1 916 19 view .LVU1195
 3190 0a14 ADF85C30 		strh	r3, [sp, #92]	@ movhi
 917:Drivers/lvgl/src/draw/sw/lv_draw_sw_rect.c ****     blend_area.y2 = shadow_area.y2 - corner_size;
 3191              		.loc 1 917 5 is_stmt 1 view .LVU1196
 917:Drivers/lvgl/src/draw/sw/lv_draw_sw_rect.c ****     blend_area.y2 = shadow_area.y2 - corner_size;
 3192              		.loc 1 917 32 is_stmt 0 view .LVU1197
 3193 0a18 BDF88A30 		ldrh	r3, [sp, #138]
 917:Drivers/lvgl/src/draw/sw/lv_draw_sw_rect.c ****     blend_area.y2 = shadow_area.y2 - corner_size;
 3194              		.loc 1 917 36 view .LVU1198
 3195 0a1c 3B44     		add	r3, r3, r7
 917:Drivers/lvgl/src/draw/sw/lv_draw_sw_rect.c ****     blend_area.y2 = shadow_area.y2 - corner_size;
 3196              		.loc 1 917 19 view .LVU1199
 3197 0a1e ADF85A30 		strh	r3, [sp, #90]	@ movhi
 918:Drivers/lvgl/src/draw/sw/lv_draw_sw_rect.c ****     blend_dsc.mask_buf = mask_buf;
 3198              		.loc 1 918 5 is_stmt 1 view .LVU1200
 918:Drivers/lvgl/src/draw/sw/lv_draw_sw_rect.c ****     blend_dsc.mask_buf = mask_buf;
 3199              		.loc 1 918 32 is_stmt 0 view .LVU1201
 3200 0a22 BDF88E30 		ldrh	r3, [sp, #142]
 918:Drivers/lvgl/src/draw/sw/lv_draw_sw_rect.c ****     blend_dsc.mask_buf = mask_buf;
 3201              		.loc 1 918 36 view .LVU1202
 3202 0a26 DB1B     		subs	r3, r3, r7
 918:Drivers/lvgl/src/draw/sw/lv_draw_sw_rect.c ****     blend_dsc.mask_buf = mask_buf;
 3203              		.loc 1 918 19 view .LVU1203
 3204 0a28 ADF85E30 		strh	r3, [sp, #94]	@ movhi
 919:Drivers/lvgl/src/draw/sw/lv_draw_sw_rect.c **** 
 3205              		.loc 1 919 5 is_stmt 1 view .LVU1204
 919:Drivers/lvgl/src/draw/sw/lv_draw_sw_rect.c **** 
 3206              		.loc 1 919 24 is_stmt 0 view .LVU1205
 3207 0a2c 049B     		ldr	r3, [sp, #16]
 3208 0a2e 1093     		str	r3, [sp, #64]
 921:Drivers/lvgl/src/draw/sw/lv_draw_sw_rect.c ****        !_lv_area_is_in(&clip_area_sub, &bg_area, r_bg)) {
 3209              		.loc 1 921 5 is_stmt 1 view .LVU1206
 921:Drivers/lvgl/src/draw/sw/lv_draw_sw_rect.c ****        !_lv_area_is_in(&clip_area_sub, &bg_area, r_bg)) {
 3210              		.loc 1 921 8 is_stmt 0 view .LVU1207
 3211 0a30 B268     		ldr	r2, [r6, #8]
 3212 0a32 16A9     		add	r1, sp, #88
 3213 0a34 14A8     		add	r0, sp, #80
 3214 0a36 FFF7FEFF 		bl	_lv_area_intersect
 3215              	.LVL292:
 921:Drivers/lvgl/src/draw/sw/lv_draw_sw_rect.c ****        !_lv_area_is_in(&clip_area_sub, &bg_area, r_bg)) {
 3216              		.loc 1 921 7 view .LVU1208
 3217 0a3a 0028     		cmp	r0, #0
 3218 0a3c 40F07181 		bne	.L213
 3219              	.L156:
 938:Drivers/lvgl/src/draw/sw/lv_draw_sw_rect.c ****         lv_draw_mask_free_param(&mask_rout_param);
 3220              		.loc 1 938 5 is_stmt 1 view .LVU1209
ARM GAS  /var/folders/0z/tsy30v1j4xl4_7kw94k978ww0000gn/T//cc0noGMx.s 			page 104


 938:Drivers/lvgl/src/draw/sw/lv_draw_sw_rect.c ****         lv_draw_mask_free_param(&mask_rout_param);
 3221              		.loc 1 938 7 is_stmt 0 view .LVU1210
 3222 0a40 009B     		ldr	r3, [sp]
 3223 0a42 002B     		cmp	r3, #0
 3224 0a44 00F0A681 		beq	.L214
 3225              	.L159:
 942:Drivers/lvgl/src/draw/sw/lv_draw_sw_rect.c ****     lv_mem_buf_release(mask_buf);
 3226              		.loc 1 942 5 is_stmt 1 view .LVU1211
 3227 0a48 0398     		ldr	r0, [sp, #12]
 3228 0a4a FFF7FEFF 		bl	lv_mem_buf_release
 3229              	.LVL293:
 943:Drivers/lvgl/src/draw/sw/lv_draw_sw_rect.c **** }
 3230              		.loc 1 943 5 view .LVU1212
 3231 0a4e 0498     		ldr	r0, [sp, #16]
 3232 0a50 FFF7FEFF 		bl	lv_mem_buf_release
 3233              	.LVL294:
 3234 0a54 FFF72EBB 		b	.L81
 3235              	.LVL295:
 3236              	.L210:
 798:Drivers/lvgl/src/draw/sw/lv_draw_sw_rect.c ****         lv_coord_t w = lv_area_get_width(&clip_area_sub);
 3237              		.loc 1 798 9 is_stmt 0 discriminator 1 view .LVU1213
 3238 0a58 BDF90490 		ldrsh	r9, [sp, #4]
 3239 0a5c 4A46     		mov	r2, r9
 3240 0a5e 1EA9     		add	r1, sp, #120
 3241 0a60 14A8     		add	r0, sp, #80
 3242 0a62 FFF7FEFF 		bl	_lv_area_is_in
 3243              	.LVL296:
 797:Drivers/lvgl/src/draw/sw/lv_draw_sw_rect.c ****        !_lv_area_is_in(&clip_area_sub, &bg_area, r_bg)) {
 3244              		.loc 1 797 77 discriminator 1 view .LVU1214
 3245 0a66 0028     		cmp	r0, #0
 3246 0a68 7FF47BAF 		bne	.L138
 3247              	.LBB167:
 799:Drivers/lvgl/src/draw/sw/lv_draw_sw_rect.c ****         sh_buf_tmp = sh_buf;
 3248              		.loc 1 799 9 is_stmt 1 view .LVU1215
 3249              	.LVL297:
 3250              	.LBB168:
 3251              	.LBI168:
 123:Drivers/lvgl/src/draw/sw/../../misc/lv_area.h **** {
 3252              		.loc 2 123 26 view .LVU1216
 3253              	.LBB169:
 125:Drivers/lvgl/src/draw/sw/../../misc/lv_area.h **** }
 3254              		.loc 2 125 5 view .LVU1217
 125:Drivers/lvgl/src/draw/sw/../../misc/lv_area.h **** }
 3255              		.loc 2 125 31 is_stmt 0 view .LVU1218
 3256 0a6c BDF85430 		ldrh	r3, [sp, #84]
 125:Drivers/lvgl/src/draw/sw/../../misc/lv_area.h **** }
 3257              		.loc 2 125 44 view .LVU1219
 3258 0a70 BDF95020 		ldrsh	r2, [sp, #80]
 3259 0a74 91B2     		uxth	r1, r2
 125:Drivers/lvgl/src/draw/sw/../../misc/lv_area.h **** }
 3260              		.loc 2 125 36 view .LVU1220
 3261 0a76 5B1A     		subs	r3, r3, r1
 3262 0a78 9BB2     		uxth	r3, r3
 125:Drivers/lvgl/src/draw/sw/../../misc/lv_area.h **** }
 3263              		.loc 2 125 49 view .LVU1221
 3264 0a7a 0133     		adds	r3, r3, #1
 125:Drivers/lvgl/src/draw/sw/../../misc/lv_area.h **** }
ARM GAS  /var/folders/0z/tsy30v1j4xl4_7kw94k978ww0000gn/T//cc0noGMx.s 			page 105


 3265              		.loc 2 125 12 view .LVU1222
 3266 0a7c 0FFA83FB 		sxth	fp, r3
 3267              	.LVL298:
 125:Drivers/lvgl/src/draw/sw/../../misc/lv_area.h **** }
 3268              		.loc 2 125 12 view .LVU1223
 3269              	.LBE169:
 3270              	.LBE168:
 800:Drivers/lvgl/src/draw/sw/lv_draw_sw_rect.c ****         sh_buf_tmp += (corner_size - 1) * corner_size;
 3271              		.loc 1 800 9 is_stmt 1 view .LVU1224
 801:Drivers/lvgl/src/draw/sw/lv_draw_sw_rect.c ****         sh_buf_tmp += clip_area_sub.x1 - blend_area.x1;
 3272              		.loc 1 801 9 view .LVU1225
 801:Drivers/lvgl/src/draw/sw/lv_draw_sw_rect.c ****         sh_buf_tmp += clip_area_sub.x1 - blend_area.x1;
 3273              		.loc 1 801 36 is_stmt 0 view .LVU1226
 3274 0a80 611E     		subs	r1, r4, #1
 3275              	.LVL299:
 802:Drivers/lvgl/src/draw/sw/lv_draw_sw_rect.c **** 
 3276              		.loc 1 802 9 is_stmt 1 view .LVU1227
 802:Drivers/lvgl/src/draw/sw/lv_draw_sw_rect.c **** 
 3277              		.loc 1 802 52 is_stmt 0 view .LVU1228
 3278 0a82 BDF95830 		ldrsh	r3, [sp, #88]
 802:Drivers/lvgl/src/draw/sw/lv_draw_sw_rect.c **** 
 3279              		.loc 1 802 40 view .LVU1229
 3280 0a86 D31A     		subs	r3, r2, r3
 802:Drivers/lvgl/src/draw/sw/lv_draw_sw_rect.c **** 
 3281              		.loc 1 802 20 view .LVU1230
 3282 0a88 04FB0133 		mla	r3, r4, r1, r3
 3283 0a8c 039A     		ldr	r2, [sp, #12]
 3284 0a8e D318     		adds	r3, r2, r3
 3285 0a90 0293     		str	r3, [sp, #8]
 3286              	.LVL300:
 805:Drivers/lvgl/src/draw/sw/lv_draw_sw_rect.c ****         else simple_sub = simple;
 3287              		.loc 1 805 9 is_stmt 1 view .LVU1231
 805:Drivers/lvgl/src/draw/sw/lv_draw_sw_rect.c ****         else simple_sub = simple;
 3288              		.loc 1 805 11 is_stmt 0 view .LVU1232
 3289 0a92 009B     		ldr	r3, [sp]
 3290              	.LVL301:
 805:Drivers/lvgl/src/draw/sw/lv_draw_sw_rect.c ****         else simple_sub = simple;
 3291              		.loc 1 805 11 view .LVU1233
 3292 0a94 DBB9     		cbnz	r3, .L215
 3293              	.L139:
 806:Drivers/lvgl/src/draw/sw/lv_draw_sw_rect.c ****         blend_dsc.mask_buf = simple_sub ? sh_buf_tmp : mask_buf;
 3294              		.loc 1 806 14 is_stmt 1 view .LVU1234
 3295              	.LVL302:
 807:Drivers/lvgl/src/draw/sw/lv_draw_sw_rect.c ****         if(w > 0) {
 3296              		.loc 1 807 9 view .LVU1235
 807:Drivers/lvgl/src/draw/sw/lv_draw_sw_rect.c ****         if(w > 0) {
 3297              		.loc 1 807 54 is_stmt 0 view .LVU1236
 3298 0a96 009B     		ldr	r3, [sp]
 3299 0a98 1BB3     		cbz	r3, .L172
 3300 0a9a 9A46     		mov	r10, r3
 3301 0a9c 029B     		ldr	r3, [sp, #8]
 3302              	.LVL303:
 3303              	.L140:
 807:Drivers/lvgl/src/draw/sw/lv_draw_sw_rect.c ****         if(w > 0) {
 3304              		.loc 1 807 28 discriminator 4 view .LVU1237
 3305 0a9e 1093     		str	r3, [sp, #64]
 808:Drivers/lvgl/src/draw/sw/lv_draw_sw_rect.c ****             blend_area.x1 = clip_area_sub.x1;
ARM GAS  /var/folders/0z/tsy30v1j4xl4_7kw94k978ww0000gn/T//cc0noGMx.s 			page 106


 3306              		.loc 1 808 9 is_stmt 1 discriminator 4 view .LVU1238
 808:Drivers/lvgl/src/draw/sw/lv_draw_sw_rect.c ****             blend_area.x1 = clip_area_sub.x1;
 3307              		.loc 1 808 11 is_stmt 0 discriminator 4 view .LVU1239
 3308 0aa0 BBF1000F 		cmp	fp, #0
 3309 0aa4 7FF75DAF 		ble	.L138
 809:Drivers/lvgl/src/draw/sw/lv_draw_sw_rect.c ****             blend_area.x2 = clip_area_sub.x2;
 3310              		.loc 1 809 13 is_stmt 1 view .LVU1240
 809:Drivers/lvgl/src/draw/sw/lv_draw_sw_rect.c ****             blend_area.x2 = clip_area_sub.x2;
 3311              		.loc 1 809 42 is_stmt 0 view .LVU1241
 3312 0aa8 BDF95030 		ldrsh	r3, [sp, #80]
 809:Drivers/lvgl/src/draw/sw/lv_draw_sw_rect.c ****             blend_area.x2 = clip_area_sub.x2;
 3313              		.loc 1 809 27 view .LVU1242
 3314 0aac ADF85830 		strh	r3, [sp, #88]	@ movhi
 810:Drivers/lvgl/src/draw/sw/lv_draw_sw_rect.c ****             blend_dsc.mask_res = LV_DRAW_MASK_RES_CHANGED;    /*In simple mode it won't be overwrit
 3315              		.loc 1 810 13 is_stmt 1 view .LVU1243
 810:Drivers/lvgl/src/draw/sw/lv_draw_sw_rect.c ****             blend_dsc.mask_res = LV_DRAW_MASK_RES_CHANGED;    /*In simple mode it won't be overwrit
 3316              		.loc 1 810 42 is_stmt 0 view .LVU1244
 3317 0ab0 BDF95430 		ldrsh	r3, [sp, #84]
 810:Drivers/lvgl/src/draw/sw/lv_draw_sw_rect.c ****             blend_dsc.mask_res = LV_DRAW_MASK_RES_CHANGED;    /*In simple mode it won't be overwrit
 3318              		.loc 1 810 27 view .LVU1245
 3319 0ab4 ADF85C30 		strh	r3, [sp, #92]	@ movhi
 811:Drivers/lvgl/src/draw/sw/lv_draw_sw_rect.c ****             for(y = clip_area_sub.y1; y <= clip_area_sub.y2; y++) {
 3320              		.loc 1 811 13 is_stmt 1 view .LVU1246
 811:Drivers/lvgl/src/draw/sw/lv_draw_sw_rect.c ****             for(y = clip_area_sub.y1; y <= clip_area_sub.y2; y++) {
 3321              		.loc 1 811 32 is_stmt 0 view .LVU1247
 3322 0ab8 0223     		movs	r3, #2
 3323 0aba 8DF84430 		strb	r3, [sp, #68]
 812:Drivers/lvgl/src/draw/sw/lv_draw_sw_rect.c ****                 blend_area.y1 = y;
 3324              		.loc 1 812 13 is_stmt 1 view .LVU1248
 812:Drivers/lvgl/src/draw/sw/lv_draw_sw_rect.c ****                 blend_area.y1 = y;
 3325              		.loc 1 812 19 is_stmt 0 view .LVU1249
 3326 0abe BDF95290 		ldrsh	r9, [sp, #82]
 3327              	.LVL304:
 812:Drivers/lvgl/src/draw/sw/lv_draw_sw_rect.c ****                 blend_area.y1 = y;
 3328              		.loc 1 812 19 view .LVU1250
 3329 0ac2 0695     		str	r5, [sp, #24]
 3330 0ac4 2346     		mov	r3, r4
 3331 0ac6 5446     		mov	r4, r10
 3332              	.LVL305:
 812:Drivers/lvgl/src/draw/sw/lv_draw_sw_rect.c ****                 blend_area.y1 = y;
 3333              		.loc 1 812 19 view .LVU1251
 3334 0ac8 049D     		ldr	r5, [sp, #16]
 3335 0aca 9A46     		mov	r10, r3
 812:Drivers/lvgl/src/draw/sw/lv_draw_sw_rect.c ****                 blend_area.y1 = y;
 3336              		.loc 1 812 13 view .LVU1252
 3337 0acc 15E0     		b	.L141
 3338              	.LVL306:
 3339              	.L215:
 805:Drivers/lvgl/src/draw/sw/lv_draw_sw_rect.c ****         else simple_sub = simple;
 3340              		.loc 1 805 22 discriminator 1 view .LVU1253
 3341 0ace 4A46     		mov	r2, r9
 3342 0ad0 1EA9     		add	r1, sp, #120
 3343 0ad2 14A8     		add	r0, sp, #80
 3344 0ad4 FFF7FEFF 		bl	_lv_area_is_out
 3345              	.LVL307:
 805:Drivers/lvgl/src/draw/sw/lv_draw_sw_rect.c ****         else simple_sub = simple;
 3346              		.loc 1 805 19 discriminator 1 view .LVU1254
ARM GAS  /var/folders/0z/tsy30v1j4xl4_7kw94k978ww0000gn/T//cc0noGMx.s 			page 107


 3347 0ad8 8246     		mov	r10, r0
 3348 0ada 0028     		cmp	r0, #0
 3349 0adc DBD0     		beq	.L139
 807:Drivers/lvgl/src/draw/sw/lv_draw_sw_rect.c ****         if(w > 0) {
 3350              		.loc 1 807 54 view .LVU1255
 3351 0ade 029B     		ldr	r3, [sp, #8]
 3352 0ae0 DDE7     		b	.L140
 3353              	.LVL308:
 3354              	.L172:
 807:Drivers/lvgl/src/draw/sw/lv_draw_sw_rect.c ****         if(w > 0) {
 3355              		.loc 1 807 54 view .LVU1256
 3356 0ae2 DDF800A0 		ldr	r10, [sp]
 3357 0ae6 049B     		ldr	r3, [sp, #16]
 3358 0ae8 D9E7     		b	.L140
 3359              	.LVL309:
 3360              	.L142:
 822:Drivers/lvgl/src/draw/sw/lv_draw_sw_rect.c ****             }
 3361              		.loc 1 822 17 is_stmt 1 discriminator 2 view .LVU1257
 3362 0aea 0DA9     		add	r1, sp, #52
 3363 0aec 3046     		mov	r0, r6
 3364 0aee FFF7FEFF 		bl	lv_draw_sw_blend
 3365              	.LVL310:
 812:Drivers/lvgl/src/draw/sw/lv_draw_sw_rect.c ****                 blend_area.y1 = y;
 3366              		.loc 1 812 63 discriminator 2 view .LVU1258
 3367 0af2 09F10109 		add	r9, r9, #1
 3368              	.LVL311:
 812:Drivers/lvgl/src/draw/sw/lv_draw_sw_rect.c ****                 blend_area.y1 = y;
 3369              		.loc 1 812 63 is_stmt 0 discriminator 2 view .LVU1259
 3370 0af6 0FFA89F9 		sxth	r9, r9
 3371              	.LVL312:
 3372              	.L141:
 812:Drivers/lvgl/src/draw/sw/lv_draw_sw_rect.c ****                 blend_area.y1 = y;
 3373              		.loc 1 812 41 is_stmt 1 discriminator 1 view .LVU1260
 812:Drivers/lvgl/src/draw/sw/lv_draw_sw_rect.c ****                 blend_area.y1 = y;
 3374              		.loc 1 812 57 is_stmt 0 discriminator 1 view .LVU1261
 3375 0afa BDF95630 		ldrsh	r3, [sp, #86]
 812:Drivers/lvgl/src/draw/sw/lv_draw_sw_rect.c ****                 blend_area.y1 = y;
 3376              		.loc 1 812 41 discriminator 1 view .LVU1262
 3377 0afe 4B45     		cmp	r3, r9
 3378 0b00 19DB     		blt	.L216
 813:Drivers/lvgl/src/draw/sw/lv_draw_sw_rect.c ****                 blend_area.y2 = y;
 3379              		.loc 1 813 17 is_stmt 1 view .LVU1263
 813:Drivers/lvgl/src/draw/sw/lv_draw_sw_rect.c ****                 blend_area.y2 = y;
 3380              		.loc 1 813 31 is_stmt 0 view .LVU1264
 3381 0b02 ADF85A90 		strh	r9, [sp, #90]	@ movhi
 814:Drivers/lvgl/src/draw/sw/lv_draw_sw_rect.c **** 
 3382              		.loc 1 814 17 is_stmt 1 view .LVU1265
 814:Drivers/lvgl/src/draw/sw/lv_draw_sw_rect.c **** 
 3383              		.loc 1 814 31 is_stmt 0 view .LVU1266
 3384 0b06 ADF85E90 		strh	r9, [sp, #94]	@ movhi
 816:Drivers/lvgl/src/draw/sw/lv_draw_sw_rect.c ****                     lv_memcpy(mask_buf, sh_buf_tmp, w);
 3385              		.loc 1 816 17 is_stmt 1 view .LVU1267
 816:Drivers/lvgl/src/draw/sw/lv_draw_sw_rect.c ****                     lv_memcpy(mask_buf, sh_buf_tmp, w);
 3386              		.loc 1 816 19 is_stmt 0 view .LVU1268
 3387 0b0a 002C     		cmp	r4, #0
 3388 0b0c EDD1     		bne	.L142
 817:Drivers/lvgl/src/draw/sw/lv_draw_sw_rect.c ****                     blend_dsc.mask_res = lv_draw_mask_apply(mask_buf, clip_area_sub.x1, y, w);
ARM GAS  /var/folders/0z/tsy30v1j4xl4_7kw94k978ww0000gn/T//cc0noGMx.s 			page 108


 3389              		.loc 1 817 21 is_stmt 1 view .LVU1269
 3390 0b0e 5A46     		mov	r2, fp
 3391 0b10 0299     		ldr	r1, [sp, #8]
 3392 0b12 2846     		mov	r0, r5
 3393 0b14 FFF7FEFF 		bl	lv_memcpy
 3394              	.LVL313:
 818:Drivers/lvgl/src/draw/sw/lv_draw_sw_rect.c ****                     if(blend_dsc.mask_res == LV_DRAW_MASK_RES_FULL_COVER) blend_dsc.mask_res = LV_D
 3395              		.loc 1 818 21 view .LVU1270
 818:Drivers/lvgl/src/draw/sw/lv_draw_sw_rect.c ****                     if(blend_dsc.mask_res == LV_DRAW_MASK_RES_FULL_COVER) blend_dsc.mask_res = LV_D
 3396              		.loc 1 818 42 is_stmt 0 view .LVU1271
 3397 0b18 5B46     		mov	r3, fp
 3398 0b1a 4A46     		mov	r2, r9
 3399 0b1c BDF95010 		ldrsh	r1, [sp, #80]
 3400 0b20 2846     		mov	r0, r5
 3401 0b22 FFF7FEFF 		bl	lv_draw_mask_apply
 3402              	.LVL314:
 818:Drivers/lvgl/src/draw/sw/lv_draw_sw_rect.c ****                     if(blend_dsc.mask_res == LV_DRAW_MASK_RES_FULL_COVER) blend_dsc.mask_res = LV_D
 3403              		.loc 1 818 40 view .LVU1272
 3404 0b26 8DF84400 		strb	r0, [sp, #68]
 819:Drivers/lvgl/src/draw/sw/lv_draw_sw_rect.c ****                 }
 3405              		.loc 1 819 21 is_stmt 1 view .LVU1273
 819:Drivers/lvgl/src/draw/sw/lv_draw_sw_rect.c ****                 }
 3406              		.loc 1 819 23 is_stmt 0 view .LVU1274
 3407 0b2a 0128     		cmp	r0, #1
 3408 0b2c DDD1     		bne	.L142
 819:Drivers/lvgl/src/draw/sw/lv_draw_sw_rect.c ****                 }
 3409              		.loc 1 819 75 is_stmt 1 discriminator 1 view .LVU1275
 819:Drivers/lvgl/src/draw/sw/lv_draw_sw_rect.c ****                 }
 3410              		.loc 1 819 94 is_stmt 0 discriminator 1 view .LVU1276
 3411 0b2e 0223     		movs	r3, #2
 3412 0b30 8DF84430 		strb	r3, [sp, #68]
 3413 0b34 D9E7     		b	.L142
 3414              	.L216:
 3415 0b36 069D     		ldr	r5, [sp, #24]
 3416 0b38 5446     		mov	r4, r10
 3417 0b3a 12E7     		b	.L138
 3418              	.LVL315:
 3419              	.L211:
 819:Drivers/lvgl/src/draw/sw/lv_draw_sw_rect.c ****                 }
 3420              		.loc 1 819 94 discriminator 1 view .LVU1277
 3421              	.LBE167:
 837:Drivers/lvgl/src/draw/sw/lv_draw_sw_rect.c ****         lv_coord_t w = lv_area_get_width(&clip_area_sub);
 3422              		.loc 1 837 9 discriminator 1 view .LVU1278
 3423 0b3c BDF90480 		ldrsh	r8, [sp, #4]
 3424 0b40 4246     		mov	r2, r8
 3425 0b42 1EA9     		add	r1, sp, #120
 3426 0b44 14A8     		add	r0, sp, #80
 3427 0b46 FFF7FEFF 		bl	_lv_area_is_in
 3428              	.LVL316:
 836:Drivers/lvgl/src/draw/sw/lv_draw_sw_rect.c ****        !_lv_area_is_in(&clip_area_sub, &bg_area, r_bg)) {
 3429              		.loc 1 836 77 discriminator 1 view .LVU1279
 3430 0b4a 0028     		cmp	r0, #0
 3431 0b4c 7FF431AF 		bne	.L144
 3432              	.LBB170:
 838:Drivers/lvgl/src/draw/sw/lv_draw_sw_rect.c ****         sh_buf_tmp = sh_buf;
 3433              		.loc 1 838 9 is_stmt 1 view .LVU1280
 3434              	.LVL317:
ARM GAS  /var/folders/0z/tsy30v1j4xl4_7kw94k978ww0000gn/T//cc0noGMx.s 			page 109


 3435              	.LBB171:
 3436              	.LBI171:
 123:Drivers/lvgl/src/draw/sw/../../misc/lv_area.h **** {
 3437              		.loc 2 123 26 view .LVU1281
 3438              	.LBB172:
 125:Drivers/lvgl/src/draw/sw/../../misc/lv_area.h **** }
 3439              		.loc 2 125 5 view .LVU1282
 125:Drivers/lvgl/src/draw/sw/../../misc/lv_area.h **** }
 3440              		.loc 2 125 31 is_stmt 0 view .LVU1283
 3441 0b50 BDF854A0 		ldrh	r10, [sp, #84]
 125:Drivers/lvgl/src/draw/sw/../../misc/lv_area.h **** }
 3442              		.loc 2 125 44 view .LVU1284
 3443 0b54 BDF95030 		ldrsh	r3, [sp, #80]
 3444 0b58 9AB2     		uxth	r2, r3
 125:Drivers/lvgl/src/draw/sw/../../misc/lv_area.h **** }
 3445              		.loc 2 125 36 view .LVU1285
 3446 0b5a AAEB020A 		sub	r10, r10, r2
 3447 0b5e 1FFA8AFA 		uxth	r10, r10
 125:Drivers/lvgl/src/draw/sw/../../misc/lv_area.h **** }
 3448              		.loc 2 125 49 view .LVU1286
 3449 0b62 0AF1010A 		add	r10, r10, #1
 125:Drivers/lvgl/src/draw/sw/../../misc/lv_area.h **** }
 3450              		.loc 2 125 12 view .LVU1287
 3451 0b66 0FFA8AFA 		sxth	r10, r10
 3452              	.LVL318:
 125:Drivers/lvgl/src/draw/sw/../../misc/lv_area.h **** }
 3453              		.loc 2 125 12 view .LVU1288
 3454              	.LBE172:
 3455              	.LBE171:
 839:Drivers/lvgl/src/draw/sw/lv_draw_sw_rect.c ****         sh_buf_tmp += (clip_area_sub.y1 - blend_area.y1) * corner_size;
 3456              		.loc 1 839 9 is_stmt 1 view .LVU1289
 840:Drivers/lvgl/src/draw/sw/lv_draw_sw_rect.c ****         sh_buf_tmp += clip_area_sub.x1 - blend_area.x1;
 3457              		.loc 1 840 9 view .LVU1290
 840:Drivers/lvgl/src/draw/sw/lv_draw_sw_rect.c ****         sh_buf_tmp += clip_area_sub.x1 - blend_area.x1;
 3458              		.loc 1 840 37 is_stmt 0 view .LVU1291
 3459 0b6a BDF95220 		ldrsh	r2, [sp, #82]
 840:Drivers/lvgl/src/draw/sw/lv_draw_sw_rect.c ****         sh_buf_tmp += clip_area_sub.x1 - blend_area.x1;
 3460              		.loc 1 840 53 view .LVU1292
 3461 0b6e BDF95A10 		ldrsh	r1, [sp, #90]
 840:Drivers/lvgl/src/draw/sw/lv_draw_sw_rect.c ****         sh_buf_tmp += clip_area_sub.x1 - blend_area.x1;
 3462              		.loc 1 840 41 view .LVU1293
 3463 0b72 521A     		subs	r2, r2, r1
 3464              	.LVL319:
 841:Drivers/lvgl/src/draw/sw/lv_draw_sw_rect.c **** 
 3465              		.loc 1 841 9 is_stmt 1 view .LVU1294
 841:Drivers/lvgl/src/draw/sw/lv_draw_sw_rect.c **** 
 3466              		.loc 1 841 52 is_stmt 0 view .LVU1295
 3467 0b74 BDF95810 		ldrsh	r1, [sp, #88]
 841:Drivers/lvgl/src/draw/sw/lv_draw_sw_rect.c **** 
 3468              		.loc 1 841 40 view .LVU1296
 3469 0b78 A3EB0109 		sub	r9, r3, r1
 841:Drivers/lvgl/src/draw/sw/lv_draw_sw_rect.c **** 
 3470              		.loc 1 841 20 view .LVU1297
 3471 0b7c 04FB0299 		mla	r9, r4, r2, r9
 3472 0b80 039B     		ldr	r3, [sp, #12]
 3473 0b82 9944     		add	r9, r9, r3
 3474              	.LVL320:
ARM GAS  /var/folders/0z/tsy30v1j4xl4_7kw94k978ww0000gn/T//cc0noGMx.s 			page 110


 844:Drivers/lvgl/src/draw/sw/lv_draw_sw_rect.c ****         else simple_sub = simple;
 3475              		.loc 1 844 9 is_stmt 1 view .LVU1298
 844:Drivers/lvgl/src/draw/sw/lv_draw_sw_rect.c ****         else simple_sub = simple;
 3476              		.loc 1 844 11 is_stmt 0 view .LVU1299
 3477 0b84 009B     		ldr	r3, [sp]
 3478 0b86 EBB9     		cbnz	r3, .L217
 3479 0b88 DDF800B0 		ldr	fp, [sp]
 3480              	.L145:
 3481              	.LVL321:
 846:Drivers/lvgl/src/draw/sw/lv_draw_sw_rect.c **** 
 3482              		.loc 1 846 9 is_stmt 1 view .LVU1300
 846:Drivers/lvgl/src/draw/sw/lv_draw_sw_rect.c **** 
 3483              		.loc 1 846 28 is_stmt 0 view .LVU1301
 3484 0b8c 049A     		ldr	r2, [sp, #16]
 3485 0b8e 1092     		str	r2, [sp, #64]
 848:Drivers/lvgl/src/draw/sw/lv_draw_sw_rect.c ****             blend_area.x1 = clip_area_sub.x1;
 3486              		.loc 1 848 9 is_stmt 1 view .LVU1302
 848:Drivers/lvgl/src/draw/sw/lv_draw_sw_rect.c ****             blend_area.x1 = clip_area_sub.x1;
 3487              		.loc 1 848 11 is_stmt 0 view .LVU1303
 3488 0b90 BAF1000F 		cmp	r10, #0
 3489 0b94 7FF70DAF 		ble	.L144
 849:Drivers/lvgl/src/draw/sw/lv_draw_sw_rect.c ****             blend_area.x2 = clip_area_sub.x2;
 3490              		.loc 1 849 13 is_stmt 1 view .LVU1304
 849:Drivers/lvgl/src/draw/sw/lv_draw_sw_rect.c ****             blend_area.x2 = clip_area_sub.x2;
 3491              		.loc 1 849 42 is_stmt 0 view .LVU1305
 3492 0b98 BDF95030 		ldrsh	r3, [sp, #80]
 849:Drivers/lvgl/src/draw/sw/lv_draw_sw_rect.c ****             blend_area.x2 = clip_area_sub.x2;
 3493              		.loc 1 849 27 view .LVU1306
 3494 0b9c ADF85830 		strh	r3, [sp, #88]	@ movhi
 850:Drivers/lvgl/src/draw/sw/lv_draw_sw_rect.c ****             blend_dsc.mask_res = LV_DRAW_MASK_RES_CHANGED;    /*In simple mode it won't be overwrit
 3495              		.loc 1 850 13 is_stmt 1 view .LVU1307
 850:Drivers/lvgl/src/draw/sw/lv_draw_sw_rect.c ****             blend_dsc.mask_res = LV_DRAW_MASK_RES_CHANGED;    /*In simple mode it won't be overwrit
 3496              		.loc 1 850 42 is_stmt 0 view .LVU1308
 3497 0ba0 BDF95430 		ldrsh	r3, [sp, #84]
 850:Drivers/lvgl/src/draw/sw/lv_draw_sw_rect.c ****             blend_dsc.mask_res = LV_DRAW_MASK_RES_CHANGED;    /*In simple mode it won't be overwrit
 3498              		.loc 1 850 27 view .LVU1309
 3499 0ba4 ADF85C30 		strh	r3, [sp, #92]	@ movhi
 851:Drivers/lvgl/src/draw/sw/lv_draw_sw_rect.c ****             for(y = clip_area_sub.y1; y <= clip_area_sub.y2; y++) {
 3500              		.loc 1 851 13 is_stmt 1 view .LVU1310
 851:Drivers/lvgl/src/draw/sw/lv_draw_sw_rect.c ****             for(y = clip_area_sub.y1; y <= clip_area_sub.y2; y++) {
 3501              		.loc 1 851 32 is_stmt 0 view .LVU1311
 3502 0ba8 0223     		movs	r3, #2
 3503 0baa 8DF84430 		strb	r3, [sp, #68]
 852:Drivers/lvgl/src/draw/sw/lv_draw_sw_rect.c ****                 blend_area.y1 = y;
 3504              		.loc 1 852 13 is_stmt 1 view .LVU1312
 852:Drivers/lvgl/src/draw/sw/lv_draw_sw_rect.c ****                 blend_area.y1 = y;
 3505              		.loc 1 852 19 is_stmt 0 view .LVU1313
 3506 0bae BDF95280 		ldrsh	r8, [sp, #82]
 3507              	.LVL322:
 852:Drivers/lvgl/src/draw/sw/lv_draw_sw_rect.c ****                 blend_area.y1 = y;
 3508              		.loc 1 852 19 view .LVU1314
 3509 0bb2 0297     		str	r7, [sp, #8]
 3510 0bb4 5946     		mov	r1, fp
 3511 0bb6 AB46     		mov	fp, r5
 3512              	.LVL323:
 852:Drivers/lvgl/src/draw/sw/lv_draw_sw_rect.c ****                 blend_area.y1 = y;
 3513              		.loc 1 852 19 view .LVU1315
ARM GAS  /var/folders/0z/tsy30v1j4xl4_7kw94k978ww0000gn/T//cc0noGMx.s 			page 111


 3514 0bb8 2346     		mov	r3, r4
 3515 0bba 4C46     		mov	r4, r9
 3516              	.LVL324:
 852:Drivers/lvgl/src/draw/sw/lv_draw_sw_rect.c ****                 blend_area.y1 = y;
 3517              		.loc 1 852 19 view .LVU1316
 3518 0bbc 1746     		mov	r7, r2
 3519 0bbe 9946     		mov	r9, r3
 3520              	.LVL325:
 852:Drivers/lvgl/src/draw/sw/lv_draw_sw_rect.c ****                 blend_area.y1 = y;
 3521              		.loc 1 852 19 view .LVU1317
 3522 0bc0 0D46     		mov	r5, r1
 852:Drivers/lvgl/src/draw/sw/lv_draw_sw_rect.c ****                 blend_area.y1 = y;
 3523              		.loc 1 852 13 view .LVU1318
 3524 0bc2 23E0     		b	.L146
 3525              	.LVL326:
 3526              	.L217:
 844:Drivers/lvgl/src/draw/sw/lv_draw_sw_rect.c ****         else simple_sub = simple;
 3527              		.loc 1 844 22 discriminator 1 view .LVU1319
 3528 0bc4 4246     		mov	r2, r8
 3529 0bc6 1EA9     		add	r1, sp, #120
 3530 0bc8 14A8     		add	r0, sp, #80
 3531 0bca FFF7FEFF 		bl	_lv_area_is_out
 3532              	.LVL327:
 844:Drivers/lvgl/src/draw/sw/lv_draw_sw_rect.c ****         else simple_sub = simple;
 3533              		.loc 1 844 19 discriminator 1 view .LVU1320
 3534 0bce 8346     		mov	fp, r0
 3535 0bd0 0028     		cmp	r0, #0
 3536 0bd2 DBD1     		bne	.L145
 3537 0bd4 DDF800B0 		ldr	fp, [sp]
 3538 0bd8 D8E7     		b	.L145
 3539              	.LVL328:
 3540              	.L220:
 857:Drivers/lvgl/src/draw/sw/lv_draw_sw_rect.c ****                     blend_dsc.mask_res = lv_draw_mask_apply(mask_buf, clip_area_sub.x1, y, w);
 3541              		.loc 1 857 21 is_stmt 1 view .LVU1321
 3542 0bda 4A46     		mov	r2, r9
 3543 0bdc 2146     		mov	r1, r4
 3544 0bde 3846     		mov	r0, r7
 3545 0be0 FFF7FEFF 		bl	lv_memcpy
 3546              	.LVL329:
 858:Drivers/lvgl/src/draw/sw/lv_draw_sw_rect.c ****                     if(blend_dsc.mask_res == LV_DRAW_MASK_RES_FULL_COVER) blend_dsc.mask_res = LV_D
 3547              		.loc 1 858 21 view .LVU1322
 858:Drivers/lvgl/src/draw/sw/lv_draw_sw_rect.c ****                     if(blend_dsc.mask_res == LV_DRAW_MASK_RES_FULL_COVER) blend_dsc.mask_res = LV_D
 3548              		.loc 1 858 42 is_stmt 0 view .LVU1323
 3549 0be4 5346     		mov	r3, r10
 3550 0be6 4246     		mov	r2, r8
 3551 0be8 BDF95010 		ldrsh	r1, [sp, #80]
 3552 0bec 3846     		mov	r0, r7
 3553 0bee FFF7FEFF 		bl	lv_draw_mask_apply
 3554              	.LVL330:
 858:Drivers/lvgl/src/draw/sw/lv_draw_sw_rect.c ****                     if(blend_dsc.mask_res == LV_DRAW_MASK_RES_FULL_COVER) blend_dsc.mask_res = LV_D
 3555              		.loc 1 858 40 view .LVU1324
 3556 0bf2 8DF84400 		strb	r0, [sp, #68]
 859:Drivers/lvgl/src/draw/sw/lv_draw_sw_rect.c ****                 }
 3557              		.loc 1 859 21 is_stmt 1 view .LVU1325
 859:Drivers/lvgl/src/draw/sw/lv_draw_sw_rect.c ****                 }
 3558              		.loc 1 859 23 is_stmt 0 view .LVU1326
 3559 0bf6 0128     		cmp	r0, #1
ARM GAS  /var/folders/0z/tsy30v1j4xl4_7kw94k978ww0000gn/T//cc0noGMx.s 			page 112


 3560 0bf8 14D0     		beq	.L218
 3561              	.L148:
 865:Drivers/lvgl/src/draw/sw/lv_draw_sw_rect.c ****                 sh_buf_tmp += corner_size;
 3562              		.loc 1 865 17 is_stmt 1 discriminator 2 view .LVU1327
 3563 0bfa 0DA9     		add	r1, sp, #52
 3564 0bfc 3046     		mov	r0, r6
 3565 0bfe FFF7FEFF 		bl	lv_draw_sw_blend
 3566              	.LVL331:
 866:Drivers/lvgl/src/draw/sw/lv_draw_sw_rect.c ****             }
 3567              		.loc 1 866 17 discriminator 2 view .LVU1328
 866:Drivers/lvgl/src/draw/sw/lv_draw_sw_rect.c ****             }
 3568              		.loc 1 866 28 is_stmt 0 discriminator 2 view .LVU1329
 3569 0c02 4C44     		add	r4, r4, r9
 3570              	.LVL332:
 852:Drivers/lvgl/src/draw/sw/lv_draw_sw_rect.c ****                 blend_area.y1 = y;
 3571              		.loc 1 852 63 is_stmt 1 discriminator 2 view .LVU1330
 3572 0c04 08F10108 		add	r8, r8, #1
 3573              	.LVL333:
 852:Drivers/lvgl/src/draw/sw/lv_draw_sw_rect.c ****                 blend_area.y1 = y;
 3574              		.loc 1 852 63 is_stmt 0 discriminator 2 view .LVU1331
 3575 0c08 0FFA88F8 		sxth	r8, r8
 3576              	.LVL334:
 3577              	.L146:
 852:Drivers/lvgl/src/draw/sw/lv_draw_sw_rect.c ****                 blend_area.y1 = y;
 3578              		.loc 1 852 41 is_stmt 1 discriminator 1 view .LVU1332
 852:Drivers/lvgl/src/draw/sw/lv_draw_sw_rect.c ****                 blend_area.y1 = y;
 3579              		.loc 1 852 57 is_stmt 0 discriminator 1 view .LVU1333
 3580 0c0c BDF95630 		ldrsh	r3, [sp, #86]
 852:Drivers/lvgl/src/draw/sw/lv_draw_sw_rect.c ****                 blend_area.y1 = y;
 3581              		.loc 1 852 41 discriminator 1 view .LVU1334
 3582 0c10 4345     		cmp	r3, r8
 3583 0c12 0BDB     		blt	.L219
 853:Drivers/lvgl/src/draw/sw/lv_draw_sw_rect.c ****                 blend_area.y2 = y;
 3584              		.loc 1 853 17 is_stmt 1 view .LVU1335
 853:Drivers/lvgl/src/draw/sw/lv_draw_sw_rect.c ****                 blend_area.y2 = y;
 3585              		.loc 1 853 31 is_stmt 0 view .LVU1336
 3586 0c14 ADF85A80 		strh	r8, [sp, #90]	@ movhi
 854:Drivers/lvgl/src/draw/sw/lv_draw_sw_rect.c **** 
 3587              		.loc 1 854 17 is_stmt 1 view .LVU1337
 854:Drivers/lvgl/src/draw/sw/lv_draw_sw_rect.c **** 
 3588              		.loc 1 854 31 is_stmt 0 view .LVU1338
 3589 0c18 ADF85E80 		strh	r8, [sp, #94]	@ movhi
 856:Drivers/lvgl/src/draw/sw/lv_draw_sw_rect.c ****                     lv_memcpy(mask_buf, sh_buf_tmp, corner_size);
 3590              		.loc 1 856 17 is_stmt 1 view .LVU1339
 856:Drivers/lvgl/src/draw/sw/lv_draw_sw_rect.c ****                     lv_memcpy(mask_buf, sh_buf_tmp, corner_size);
 3591              		.loc 1 856 19 is_stmt 0 view .LVU1340
 3592 0c1c 002D     		cmp	r5, #0
 3593 0c1e DCD0     		beq	.L220
 862:Drivers/lvgl/src/draw/sw/lv_draw_sw_rect.c ****                 }
 3594              		.loc 1 862 21 is_stmt 1 view .LVU1341
 862:Drivers/lvgl/src/draw/sw/lv_draw_sw_rect.c ****                 }
 3595              		.loc 1 862 40 is_stmt 0 view .LVU1342
 3596 0c20 1094     		str	r4, [sp, #64]
 3597 0c22 EAE7     		b	.L148
 3598              	.L218:
 859:Drivers/lvgl/src/draw/sw/lv_draw_sw_rect.c ****                 }
 3599              		.loc 1 859 75 is_stmt 1 discriminator 1 view .LVU1343
ARM GAS  /var/folders/0z/tsy30v1j4xl4_7kw94k978ww0000gn/T//cc0noGMx.s 			page 113


 859:Drivers/lvgl/src/draw/sw/lv_draw_sw_rect.c ****                 }
 3600              		.loc 1 859 94 is_stmt 0 discriminator 1 view .LVU1344
 3601 0c24 0223     		movs	r3, #2
 3602 0c26 8DF84430 		strb	r3, [sp, #68]
 3603 0c2a E6E7     		b	.L148
 3604              	.L219:
 859:Drivers/lvgl/src/draw/sw/lv_draw_sw_rect.c ****                 }
 3605              		.loc 1 859 94 discriminator 1 view .LVU1345
 3606 0c2c 029F     		ldr	r7, [sp, #8]
 3607 0c2e 5D46     		mov	r5, fp
 3608 0c30 4C46     		mov	r4, r9
 3609              	.LVL335:
 859:Drivers/lvgl/src/draw/sw/lv_draw_sw_rect.c ****                 }
 3610              		.loc 1 859 94 discriminator 1 view .LVU1346
 3611 0c32 BEE6     		b	.L144
 3612              	.LVL336:
 3613              	.L212:
 859:Drivers/lvgl/src/draw/sw/lv_draw_sw_rect.c ****                 }
 3614              		.loc 1 859 94 discriminator 1 view .LVU1347
 3615              	.LBE170:
 882:Drivers/lvgl/src/draw/sw/lv_draw_sw_rect.c ****         lv_coord_t w = lv_area_get_width(&clip_area_sub);
 3616              		.loc 1 882 9 discriminator 1 view .LVU1348
 3617 0c34 BDF90450 		ldrsh	r5, [sp, #4]
 3618 0c38 2A46     		mov	r2, r5
 3619 0c3a 1EA9     		add	r1, sp, #120
 3620 0c3c 14A8     		add	r0, sp, #80
 3621 0c3e FFF7FEFF 		bl	_lv_area_is_in
 3622              	.LVL337:
 881:Drivers/lvgl/src/draw/sw/lv_draw_sw_rect.c ****        !_lv_area_is_in(&clip_area_sub, &bg_area, r_bg)) {
 3623              		.loc 1 881 77 discriminator 1 view .LVU1349
 3624 0c42 0028     		cmp	r0, #0
 3625 0c44 7FF4DEAE 		bne	.L150
 3626              	.LBB173:
 883:Drivers/lvgl/src/draw/sw/lv_draw_sw_rect.c ****         sh_buf_tmp = sh_buf;
 3627              		.loc 1 883 9 is_stmt 1 view .LVU1350
 3628              	.LVL338:
 3629              	.LBB174:
 3630              	.LBI174:
 123:Drivers/lvgl/src/draw/sw/../../misc/lv_area.h **** {
 3631              		.loc 2 123 26 view .LVU1351
 3632              	.LBB175:
 125:Drivers/lvgl/src/draw/sw/../../misc/lv_area.h **** }
 3633              		.loc 2 125 5 view .LVU1352
 125:Drivers/lvgl/src/draw/sw/../../misc/lv_area.h **** }
 3634              		.loc 2 125 31 is_stmt 0 view .LVU1353
 3635 0c48 BDF85490 		ldrh	r9, [sp, #84]
 125:Drivers/lvgl/src/draw/sw/../../misc/lv_area.h **** }
 3636              		.loc 2 125 44 view .LVU1354
 3637 0c4c BDF95030 		ldrsh	r3, [sp, #80]
 3638 0c50 9AB2     		uxth	r2, r3
 125:Drivers/lvgl/src/draw/sw/../../misc/lv_area.h **** }
 3639              		.loc 2 125 36 view .LVU1355
 3640 0c52 A9EB0209 		sub	r9, r9, r2
 3641 0c56 1FFA89F9 		uxth	r9, r9
 125:Drivers/lvgl/src/draw/sw/../../misc/lv_area.h **** }
 3642              		.loc 2 125 49 view .LVU1356
 3643 0c5a 09F10109 		add	r9, r9, #1
ARM GAS  /var/folders/0z/tsy30v1j4xl4_7kw94k978ww0000gn/T//cc0noGMx.s 			page 114


 125:Drivers/lvgl/src/draw/sw/../../misc/lv_area.h **** }
 3644              		.loc 2 125 12 view .LVU1357
 3645 0c5e 0FFA89F9 		sxth	r9, r9
 3646              	.LVL339:
 125:Drivers/lvgl/src/draw/sw/../../misc/lv_area.h **** }
 3647              		.loc 2 125 12 view .LVU1358
 3648              	.LBE175:
 3649              	.LBE174:
 884:Drivers/lvgl/src/draw/sw/lv_draw_sw_rect.c ****         sh_buf_tmp += (blend_area.y2 - clip_area_sub.y2) * corner_size;
 3650              		.loc 1 884 9 is_stmt 1 view .LVU1359
 885:Drivers/lvgl/src/draw/sw/lv_draw_sw_rect.c ****         sh_buf_tmp += clip_area_sub.x1 - blend_area.x1;
 3651              		.loc 1 885 9 view .LVU1360
 885:Drivers/lvgl/src/draw/sw/lv_draw_sw_rect.c ****         sh_buf_tmp += clip_area_sub.x1 - blend_area.x1;
 3652              		.loc 1 885 34 is_stmt 0 view .LVU1361
 3653 0c62 BDF95E20 		ldrsh	r2, [sp, #94]
 885:Drivers/lvgl/src/draw/sw/lv_draw_sw_rect.c ****         sh_buf_tmp += clip_area_sub.x1 - blend_area.x1;
 3654              		.loc 1 885 53 view .LVU1362
 3655 0c66 BDF95610 		ldrsh	r1, [sp, #86]
 885:Drivers/lvgl/src/draw/sw/lv_draw_sw_rect.c ****         sh_buf_tmp += clip_area_sub.x1 - blend_area.x1;
 3656              		.loc 1 885 38 view .LVU1363
 3657 0c6a 521A     		subs	r2, r2, r1
 3658              	.LVL340:
 886:Drivers/lvgl/src/draw/sw/lv_draw_sw_rect.c **** 
 3659              		.loc 1 886 9 is_stmt 1 view .LVU1364
 886:Drivers/lvgl/src/draw/sw/lv_draw_sw_rect.c **** 
 3660              		.loc 1 886 52 is_stmt 0 view .LVU1365
 3661 0c6c BDF95810 		ldrsh	r1, [sp, #88]
 886:Drivers/lvgl/src/draw/sw/lv_draw_sw_rect.c **** 
 3662              		.loc 1 886 40 view .LVU1366
 3663 0c70 A3EB0108 		sub	r8, r3, r1
 886:Drivers/lvgl/src/draw/sw/lv_draw_sw_rect.c **** 
 3664              		.loc 1 886 20 view .LVU1367
 3665 0c74 04FB0288 		mla	r8, r4, r2, r8
 3666 0c78 039B     		ldr	r3, [sp, #12]
 3667 0c7a 9844     		add	r8, r8, r3
 3668              	.LVL341:
 889:Drivers/lvgl/src/draw/sw/lv_draw_sw_rect.c ****         else simple_sub = simple;
 3669              		.loc 1 889 9 is_stmt 1 view .LVU1368
 889:Drivers/lvgl/src/draw/sw/lv_draw_sw_rect.c ****         else simple_sub = simple;
 3670              		.loc 1 889 11 is_stmt 0 view .LVU1369
 3671 0c7c 009B     		ldr	r3, [sp]
 3672 0c7e E3B9     		cbnz	r3, .L221
 3673 0c80 DDF800A0 		ldr	r10, [sp]
 3674              	.L151:
 3675              	.LVL342:
 891:Drivers/lvgl/src/draw/sw/lv_draw_sw_rect.c ****         if(w > 0) {
 3676              		.loc 1 891 9 is_stmt 1 view .LVU1370
 891:Drivers/lvgl/src/draw/sw/lv_draw_sw_rect.c ****         if(w > 0) {
 3677              		.loc 1 891 28 is_stmt 0 view .LVU1371
 3678 0c84 049A     		ldr	r2, [sp, #16]
 3679 0c86 1092     		str	r2, [sp, #64]
 892:Drivers/lvgl/src/draw/sw/lv_draw_sw_rect.c ****             blend_area.x1 = clip_area_sub.x1;
 3680              		.loc 1 892 9 is_stmt 1 view .LVU1372
 892:Drivers/lvgl/src/draw/sw/lv_draw_sw_rect.c ****             blend_area.x1 = clip_area_sub.x1;
 3681              		.loc 1 892 11 is_stmt 0 view .LVU1373
 3682 0c88 B9F1000F 		cmp	r9, #0
 3683 0c8c 7FF7BAAE 		ble	.L150
ARM GAS  /var/folders/0z/tsy30v1j4xl4_7kw94k978ww0000gn/T//cc0noGMx.s 			page 115


 893:Drivers/lvgl/src/draw/sw/lv_draw_sw_rect.c ****             blend_area.x2 = clip_area_sub.x2;
 3684              		.loc 1 893 13 is_stmt 1 view .LVU1374
 893:Drivers/lvgl/src/draw/sw/lv_draw_sw_rect.c ****             blend_area.x2 = clip_area_sub.x2;
 3685              		.loc 1 893 42 is_stmt 0 view .LVU1375
 3686 0c90 BDF95030 		ldrsh	r3, [sp, #80]
 893:Drivers/lvgl/src/draw/sw/lv_draw_sw_rect.c ****             blend_area.x2 = clip_area_sub.x2;
 3687              		.loc 1 893 27 view .LVU1376
 3688 0c94 ADF85830 		strh	r3, [sp, #88]	@ movhi
 894:Drivers/lvgl/src/draw/sw/lv_draw_sw_rect.c ****             blend_dsc.mask_res = LV_DRAW_MASK_RES_CHANGED;    /*In simple mode it won't be overwrit
 3689              		.loc 1 894 13 is_stmt 1 view .LVU1377
 894:Drivers/lvgl/src/draw/sw/lv_draw_sw_rect.c ****             blend_dsc.mask_res = LV_DRAW_MASK_RES_CHANGED;    /*In simple mode it won't be overwrit
 3690              		.loc 1 894 42 is_stmt 0 view .LVU1378
 3691 0c98 BDF95430 		ldrsh	r3, [sp, #84]
 894:Drivers/lvgl/src/draw/sw/lv_draw_sw_rect.c ****             blend_dsc.mask_res = LV_DRAW_MASK_RES_CHANGED;    /*In simple mode it won't be overwrit
 3692              		.loc 1 894 27 view .LVU1379
 3693 0c9c ADF85C30 		strh	r3, [sp, #92]	@ movhi
 895:Drivers/lvgl/src/draw/sw/lv_draw_sw_rect.c ****             for(y = clip_area_sub.y2; y >= clip_area_sub.y1; y--) {
 3694              		.loc 1 895 13 is_stmt 1 view .LVU1380
 895:Drivers/lvgl/src/draw/sw/lv_draw_sw_rect.c ****             for(y = clip_area_sub.y2; y >= clip_area_sub.y1; y--) {
 3695              		.loc 1 895 32 is_stmt 0 view .LVU1381
 3696 0ca0 0223     		movs	r3, #2
 3697 0ca2 8DF84430 		strb	r3, [sp, #68]
 896:Drivers/lvgl/src/draw/sw/lv_draw_sw_rect.c ****                 blend_area.y1 = y;
 3698              		.loc 1 896 13 is_stmt 1 view .LVU1382
 896:Drivers/lvgl/src/draw/sw/lv_draw_sw_rect.c ****                 blend_area.y1 = y;
 3699              		.loc 1 896 19 is_stmt 0 view .LVU1383
 3700 0ca6 BDF95650 		ldrsh	r5, [sp, #86]
 3701              	.LVL343:
 896:Drivers/lvgl/src/draw/sw/lv_draw_sw_rect.c ****                 blend_area.y1 = y;
 3702              		.loc 1 896 19 view .LVU1384
 3703 0caa 2146     		mov	r1, r4
 3704 0cac 4446     		mov	r4, r8
 3705              	.LVL344:
 896:Drivers/lvgl/src/draw/sw/lv_draw_sw_rect.c ****                 blend_area.y1 = y;
 3706              		.loc 1 896 19 view .LVU1385
 3707 0cae 9346     		mov	fp, r2
 3708 0cb0 3346     		mov	r3, r6
 3709 0cb2 5646     		mov	r6, r10
 3710              	.LVL345:
 896:Drivers/lvgl/src/draw/sw/lv_draw_sw_rect.c ****                 blend_area.y1 = y;
 3711              		.loc 1 896 19 view .LVU1386
 3712 0cb4 9A46     		mov	r10, r3
 3713              	.LVL346:
 896:Drivers/lvgl/src/draw/sw/lv_draw_sw_rect.c ****                 blend_area.y1 = y;
 3714              		.loc 1 896 19 view .LVU1387
 3715 0cb6 8846     		mov	r8, r1
 3716              	.LVL347:
 896:Drivers/lvgl/src/draw/sw/lv_draw_sw_rect.c ****                 blend_area.y1 = y;
 3717              		.loc 1 896 13 view .LVU1388
 3718 0cb8 21E0     		b	.L152
 3719              	.LVL348:
 3720              	.L221:
 889:Drivers/lvgl/src/draw/sw/lv_draw_sw_rect.c ****         else simple_sub = simple;
 3721              		.loc 1 889 22 discriminator 1 view .LVU1389
 3722 0cba 2A46     		mov	r2, r5
 3723 0cbc 1EA9     		add	r1, sp, #120
 3724 0cbe 14A8     		add	r0, sp, #80
ARM GAS  /var/folders/0z/tsy30v1j4xl4_7kw94k978ww0000gn/T//cc0noGMx.s 			page 116


 3725 0cc0 FFF7FEFF 		bl	_lv_area_is_out
 3726              	.LVL349:
 889:Drivers/lvgl/src/draw/sw/lv_draw_sw_rect.c ****         else simple_sub = simple;
 3727              		.loc 1 889 19 discriminator 1 view .LVU1390
 3728 0cc4 8246     		mov	r10, r0
 3729 0cc6 0028     		cmp	r0, #0
 3730 0cc8 DCD1     		bne	.L151
 3731 0cca DDF800A0 		ldr	r10, [sp]
 3732 0cce D9E7     		b	.L151
 3733              	.LVL350:
 3734              	.L224:
 901:Drivers/lvgl/src/draw/sw/lv_draw_sw_rect.c ****                     blend_dsc.mask_res = lv_draw_mask_apply(mask_buf, clip_area_sub.x1, y, w);
 3735              		.loc 1 901 21 is_stmt 1 view .LVU1391
 3736 0cd0 4246     		mov	r2, r8
 3737 0cd2 2146     		mov	r1, r4
 3738 0cd4 5846     		mov	r0, fp
 3739 0cd6 FFF7FEFF 		bl	lv_memcpy
 3740              	.LVL351:
 902:Drivers/lvgl/src/draw/sw/lv_draw_sw_rect.c ****                     if(blend_dsc.mask_res == LV_DRAW_MASK_RES_FULL_COVER) blend_dsc.mask_res = LV_D
 3741              		.loc 1 902 21 view .LVU1392
 902:Drivers/lvgl/src/draw/sw/lv_draw_sw_rect.c ****                     if(blend_dsc.mask_res == LV_DRAW_MASK_RES_FULL_COVER) blend_dsc.mask_res = LV_D
 3742              		.loc 1 902 42 is_stmt 0 view .LVU1393
 3743 0cda 4B46     		mov	r3, r9
 3744 0cdc 2A46     		mov	r2, r5
 3745 0cde BDF95010 		ldrsh	r1, [sp, #80]
 3746 0ce2 5846     		mov	r0, fp
 3747 0ce4 FFF7FEFF 		bl	lv_draw_mask_apply
 3748              	.LVL352:
 902:Drivers/lvgl/src/draw/sw/lv_draw_sw_rect.c ****                     if(blend_dsc.mask_res == LV_DRAW_MASK_RES_FULL_COVER) blend_dsc.mask_res = LV_D
 3749              		.loc 1 902 40 view .LVU1394
 3750 0ce8 8DF84400 		strb	r0, [sp, #68]
 903:Drivers/lvgl/src/draw/sw/lv_draw_sw_rect.c ****                 }
 3751              		.loc 1 903 21 is_stmt 1 view .LVU1395
 903:Drivers/lvgl/src/draw/sw/lv_draw_sw_rect.c ****                 }
 3752              		.loc 1 903 23 is_stmt 0 view .LVU1396
 3753 0cec 0128     		cmp	r0, #1
 3754 0cee 12D0     		beq	.L222
 3755              	.L154:
 908:Drivers/lvgl/src/draw/sw/lv_draw_sw_rect.c ****                 sh_buf_tmp += corner_size;
 3756              		.loc 1 908 17 is_stmt 1 discriminator 2 view .LVU1397
 3757 0cf0 0DA9     		add	r1, sp, #52
 3758 0cf2 5046     		mov	r0, r10
 3759 0cf4 FFF7FEFF 		bl	lv_draw_sw_blend
 3760              	.LVL353:
 909:Drivers/lvgl/src/draw/sw/lv_draw_sw_rect.c ****             }
 3761              		.loc 1 909 17 discriminator 2 view .LVU1398
 909:Drivers/lvgl/src/draw/sw/lv_draw_sw_rect.c ****             }
 3762              		.loc 1 909 28 is_stmt 0 discriminator 2 view .LVU1399
 3763 0cf8 4444     		add	r4, r4, r8
 3764              	.LVL354:
 896:Drivers/lvgl/src/draw/sw/lv_draw_sw_rect.c ****                 blend_area.y1 = y;
 3765              		.loc 1 896 63 is_stmt 1 discriminator 2 view .LVU1400
 3766 0cfa 013D     		subs	r5, r5, #1
 3767              	.LVL355:
 896:Drivers/lvgl/src/draw/sw/lv_draw_sw_rect.c ****                 blend_area.y1 = y;
 3768              		.loc 1 896 63 is_stmt 0 discriminator 2 view .LVU1401
 3769 0cfc 2DB2     		sxth	r5, r5
ARM GAS  /var/folders/0z/tsy30v1j4xl4_7kw94k978ww0000gn/T//cc0noGMx.s 			page 117


 3770              	.LVL356:
 3771              	.L152:
 896:Drivers/lvgl/src/draw/sw/lv_draw_sw_rect.c ****                 blend_area.y1 = y;
 3772              		.loc 1 896 41 is_stmt 1 discriminator 1 view .LVU1402
 896:Drivers/lvgl/src/draw/sw/lv_draw_sw_rect.c ****                 blend_area.y1 = y;
 3773              		.loc 1 896 57 is_stmt 0 discriminator 1 view .LVU1403
 3774 0cfe BDF95230 		ldrsh	r3, [sp, #82]
 896:Drivers/lvgl/src/draw/sw/lv_draw_sw_rect.c ****                 blend_area.y1 = y;
 3775              		.loc 1 896 41 discriminator 1 view .LVU1404
 3776 0d02 AB42     		cmp	r3, r5
 3777 0d04 0BDC     		bgt	.L223
 897:Drivers/lvgl/src/draw/sw/lv_draw_sw_rect.c ****                 blend_area.y2 = y;
 3778              		.loc 1 897 17 is_stmt 1 view .LVU1405
 897:Drivers/lvgl/src/draw/sw/lv_draw_sw_rect.c ****                 blend_area.y2 = y;
 3779              		.loc 1 897 31 is_stmt 0 view .LVU1406
 3780 0d06 ADF85A50 		strh	r5, [sp, #90]	@ movhi
 898:Drivers/lvgl/src/draw/sw/lv_draw_sw_rect.c **** 
 3781              		.loc 1 898 17 is_stmt 1 view .LVU1407
 898:Drivers/lvgl/src/draw/sw/lv_draw_sw_rect.c **** 
 3782              		.loc 1 898 31 is_stmt 0 view .LVU1408
 3783 0d0a ADF85E50 		strh	r5, [sp, #94]	@ movhi
 900:Drivers/lvgl/src/draw/sw/lv_draw_sw_rect.c ****                     lv_memcpy(mask_buf, sh_buf_tmp, corner_size);
 3784              		.loc 1 900 17 is_stmt 1 view .LVU1409
 900:Drivers/lvgl/src/draw/sw/lv_draw_sw_rect.c ****                     lv_memcpy(mask_buf, sh_buf_tmp, corner_size);
 3785              		.loc 1 900 19 is_stmt 0 view .LVU1410
 3786 0d0e 002E     		cmp	r6, #0
 3787 0d10 DED0     		beq	.L224
 906:Drivers/lvgl/src/draw/sw/lv_draw_sw_rect.c ****                 }
 3788              		.loc 1 906 21 is_stmt 1 view .LVU1411
 906:Drivers/lvgl/src/draw/sw/lv_draw_sw_rect.c ****                 }
 3789              		.loc 1 906 40 is_stmt 0 view .LVU1412
 3790 0d12 1094     		str	r4, [sp, #64]
 3791 0d14 ECE7     		b	.L154
 3792              	.L222:
 903:Drivers/lvgl/src/draw/sw/lv_draw_sw_rect.c ****                 }
 3793              		.loc 1 903 75 is_stmt 1 discriminator 1 view .LVU1413
 903:Drivers/lvgl/src/draw/sw/lv_draw_sw_rect.c ****                 }
 3794              		.loc 1 903 94 is_stmt 0 discriminator 1 view .LVU1414
 3795 0d16 0223     		movs	r3, #2
 3796 0d18 8DF84430 		strb	r3, [sp, #68]
 3797 0d1c E8E7     		b	.L154
 3798              	.L223:
 903:Drivers/lvgl/src/draw/sw/lv_draw_sw_rect.c ****                 }
 3799              		.loc 1 903 94 discriminator 1 view .LVU1415
 3800 0d1e 5646     		mov	r6, r10
 3801 0d20 70E6     		b	.L150
 3802              	.LVL357:
 3803              	.L213:
 903:Drivers/lvgl/src/draw/sw/lv_draw_sw_rect.c ****                 }
 3804              		.loc 1 903 94 discriminator 1 view .LVU1416
 3805              	.LBE173:
 922:Drivers/lvgl/src/draw/sw/lv_draw_sw_rect.c ****         lv_coord_t w = lv_area_get_width(&clip_area_sub);
 3806              		.loc 1 922 9 discriminator 1 view .LVU1417
 3807 0d22 019A     		ldr	r2, [sp, #4]
 3808 0d24 1EA9     		add	r1, sp, #120
 3809 0d26 14A8     		add	r0, sp, #80
 3810 0d28 FFF7FEFF 		bl	_lv_area_is_in
ARM GAS  /var/folders/0z/tsy30v1j4xl4_7kw94k978ww0000gn/T//cc0noGMx.s 			page 118


 3811              	.LVL358:
 921:Drivers/lvgl/src/draw/sw/lv_draw_sw_rect.c ****        !_lv_area_is_in(&clip_area_sub, &bg_area, r_bg)) {
 3812              		.loc 1 921 77 discriminator 1 view .LVU1418
 3813 0d2c 0028     		cmp	r0, #0
 3814 0d2e 7FF487AE 		bne	.L156
 3815              	.LBB176:
 923:Drivers/lvgl/src/draw/sw/lv_draw_sw_rect.c ****         if(w > 0) {
 3816              		.loc 1 923 9 is_stmt 1 view .LVU1419
 3817              	.LVL359:
 3818              	.LBB177:
 3819              	.LBI177:
 123:Drivers/lvgl/src/draw/sw/../../misc/lv_area.h **** {
 3820              		.loc 2 123 26 view .LVU1420
 3821              	.LBB178:
 125:Drivers/lvgl/src/draw/sw/../../misc/lv_area.h **** }
 3822              		.loc 2 125 5 view .LVU1421
 125:Drivers/lvgl/src/draw/sw/../../misc/lv_area.h **** }
 3823              		.loc 2 125 31 is_stmt 0 view .LVU1422
 3824 0d32 BDF95430 		ldrsh	r3, [sp, #84]
 3825 0d36 9DB2     		uxth	r5, r3
 125:Drivers/lvgl/src/draw/sw/../../misc/lv_area.h **** }
 3826              		.loc 2 125 44 view .LVU1423
 3827 0d38 BDF95020 		ldrsh	r2, [sp, #80]
 3828 0d3c 91B2     		uxth	r1, r2
 125:Drivers/lvgl/src/draw/sw/../../misc/lv_area.h **** }
 3829              		.loc 2 125 36 view .LVU1424
 3830 0d3e 6D1A     		subs	r5, r5, r1
 3831 0d40 ADB2     		uxth	r5, r5
 125:Drivers/lvgl/src/draw/sw/../../misc/lv_area.h **** }
 3832              		.loc 2 125 49 view .LVU1425
 3833 0d42 0135     		adds	r5, r5, #1
 125:Drivers/lvgl/src/draw/sw/../../misc/lv_area.h **** }
 3834              		.loc 2 125 12 view .LVU1426
 3835 0d44 2DB2     		sxth	r5, r5
 3836              	.LVL360:
 125:Drivers/lvgl/src/draw/sw/../../misc/lv_area.h **** }
 3837              		.loc 2 125 12 view .LVU1427
 3838              	.LBE178:
 3839              	.LBE177:
 924:Drivers/lvgl/src/draw/sw/lv_draw_sw_rect.c ****             blend_area.x1 = clip_area_sub.x1;
 3840              		.loc 1 924 9 is_stmt 1 view .LVU1428
 924:Drivers/lvgl/src/draw/sw/lv_draw_sw_rect.c ****             blend_area.x1 = clip_area_sub.x1;
 3841              		.loc 1 924 11 is_stmt 0 view .LVU1429
 3842 0d46 002D     		cmp	r5, #0
 3843 0d48 7FF77AAE 		ble	.L156
 925:Drivers/lvgl/src/draw/sw/lv_draw_sw_rect.c ****             blend_area.x2 = clip_area_sub.x2;
 3844              		.loc 1 925 13 is_stmt 1 view .LVU1430
 925:Drivers/lvgl/src/draw/sw/lv_draw_sw_rect.c ****             blend_area.x2 = clip_area_sub.x2;
 3845              		.loc 1 925 27 is_stmt 0 view .LVU1431
 3846 0d4c ADF85820 		strh	r2, [sp, #88]	@ movhi
 926:Drivers/lvgl/src/draw/sw/lv_draw_sw_rect.c ****             for(y = clip_area_sub.y1; y <= clip_area_sub.y2; y++) {
 3847              		.loc 1 926 13 is_stmt 1 view .LVU1432
 926:Drivers/lvgl/src/draw/sw/lv_draw_sw_rect.c ****             for(y = clip_area_sub.y1; y <= clip_area_sub.y2; y++) {
 3848              		.loc 1 926 27 is_stmt 0 view .LVU1433
 3849 0d50 ADF85C30 		strh	r3, [sp, #92]	@ movhi
 927:Drivers/lvgl/src/draw/sw/lv_draw_sw_rect.c ****                 blend_area.y1 = y;
 3850              		.loc 1 927 13 is_stmt 1 view .LVU1434
ARM GAS  /var/folders/0z/tsy30v1j4xl4_7kw94k978ww0000gn/T//cc0noGMx.s 			page 119


 927:Drivers/lvgl/src/draw/sw/lv_draw_sw_rect.c ****                 blend_area.y1 = y;
 3851              		.loc 1 927 19 is_stmt 0 view .LVU1435
 3852 0d54 BDF95240 		ldrsh	r4, [sp, #82]
 3853              	.LVL361:
 927:Drivers/lvgl/src/draw/sw/lv_draw_sw_rect.c ****                 blend_area.y1 = y;
 3854              		.loc 1 927 19 view .LVU1436
 3855 0d58 049F     		ldr	r7, [sp, #16]
 3856              	.L157:
 927:Drivers/lvgl/src/draw/sw/lv_draw_sw_rect.c ****                 blend_area.y1 = y;
 3857              		.loc 1 927 41 is_stmt 1 discriminator 1 view .LVU1437
 927:Drivers/lvgl/src/draw/sw/lv_draw_sw_rect.c ****                 blend_area.y1 = y;
 3858              		.loc 1 927 57 is_stmt 0 discriminator 1 view .LVU1438
 3859 0d5a BDF95630 		ldrsh	r3, [sp, #86]
 927:Drivers/lvgl/src/draw/sw/lv_draw_sw_rect.c ****                 blend_area.y1 = y;
 3860              		.loc 1 927 41 discriminator 1 view .LVU1439
 3861 0d5e A342     		cmp	r3, r4
 3862 0d60 FFF66EAE 		blt	.L156
 928:Drivers/lvgl/src/draw/sw/lv_draw_sw_rect.c ****                 blend_area.y2 = y;
 3863              		.loc 1 928 17 is_stmt 1 discriminator 3 view .LVU1440
 928:Drivers/lvgl/src/draw/sw/lv_draw_sw_rect.c ****                 blend_area.y2 = y;
 3864              		.loc 1 928 31 is_stmt 0 discriminator 3 view .LVU1441
 3865 0d64 ADF85A40 		strh	r4, [sp, #90]	@ movhi
 929:Drivers/lvgl/src/draw/sw/lv_draw_sw_rect.c **** 
 3866              		.loc 1 929 17 is_stmt 1 discriminator 3 view .LVU1442
 929:Drivers/lvgl/src/draw/sw/lv_draw_sw_rect.c **** 
 3867              		.loc 1 929 31 is_stmt 0 discriminator 3 view .LVU1443
 3868 0d68 ADF85E40 		strh	r4, [sp, #94]	@ movhi
 931:Drivers/lvgl/src/draw/sw/lv_draw_sw_rect.c ****                 blend_dsc.mask_res = lv_draw_mask_apply(mask_buf, clip_area_sub.x1, y, w);
 3869              		.loc 1 931 17 is_stmt 1 discriminator 3 view .LVU1444
 3870 0d6c 2946     		mov	r1, r5
 3871 0d6e 3846     		mov	r0, r7
 3872 0d70 FFF7FEFF 		bl	lv_memset_ff
 3873              	.LVL362:
 932:Drivers/lvgl/src/draw/sw/lv_draw_sw_rect.c ****                 lv_draw_sw_blend(draw_ctx, &blend_dsc);
 3874              		.loc 1 932 17 discriminator 3 view .LVU1445
 932:Drivers/lvgl/src/draw/sw/lv_draw_sw_rect.c ****                 lv_draw_sw_blend(draw_ctx, &blend_dsc);
 3875              		.loc 1 932 38 is_stmt 0 discriminator 3 view .LVU1446
 3876 0d74 2B46     		mov	r3, r5
 3877 0d76 2246     		mov	r2, r4
 3878 0d78 BDF95010 		ldrsh	r1, [sp, #80]
 3879 0d7c 3846     		mov	r0, r7
 3880 0d7e FFF7FEFF 		bl	lv_draw_mask_apply
 3881              	.LVL363:
 932:Drivers/lvgl/src/draw/sw/lv_draw_sw_rect.c ****                 lv_draw_sw_blend(draw_ctx, &blend_dsc);
 3882              		.loc 1 932 36 discriminator 3 view .LVU1447
 3883 0d82 8DF84400 		strb	r0, [sp, #68]
 933:Drivers/lvgl/src/draw/sw/lv_draw_sw_rect.c ****             }
 3884              		.loc 1 933 17 is_stmt 1 discriminator 3 view .LVU1448
 3885 0d86 0DA9     		add	r1, sp, #52
 3886 0d88 3046     		mov	r0, r6
 3887 0d8a FFF7FEFF 		bl	lv_draw_sw_blend
 3888              	.LVL364:
 927:Drivers/lvgl/src/draw/sw/lv_draw_sw_rect.c ****                 blend_area.y1 = y;
 3889              		.loc 1 927 63 discriminator 3 view .LVU1449
 3890 0d8e 0134     		adds	r4, r4, #1
 3891              	.LVL365:
 927:Drivers/lvgl/src/draw/sw/lv_draw_sw_rect.c ****                 blend_area.y1 = y;
ARM GAS  /var/folders/0z/tsy30v1j4xl4_7kw94k978ww0000gn/T//cc0noGMx.s 			page 120


 3892              		.loc 1 927 63 is_stmt 0 discriminator 3 view .LVU1450
 3893 0d90 24B2     		sxth	r4, r4
 3894              	.LVL366:
 927:Drivers/lvgl/src/draw/sw/lv_draw_sw_rect.c ****                 blend_area.y1 = y;
 3895              		.loc 1 927 63 discriminator 3 view .LVU1451
 3896 0d92 E2E7     		b	.L157
 3897              	.LVL367:
 3898              	.L214:
 927:Drivers/lvgl/src/draw/sw/lv_draw_sw_rect.c ****                 blend_area.y1 = y;
 3899              		.loc 1 927 63 discriminator 3 view .LVU1452
 3900              	.LBE176:
 939:Drivers/lvgl/src/draw/sw/lv_draw_sw_rect.c ****         lv_draw_mask_remove_id(mask_rout_id);
 3901              		.loc 1 939 9 is_stmt 1 view .LVU1453
 3902 0d94 18A8     		add	r0, sp, #96
 3903 0d96 FFF7FEFF 		bl	lv_draw_mask_free_param
 3904              	.LVL368:
 940:Drivers/lvgl/src/draw/sw/lv_draw_sw_rect.c ****     }
 3905              		.loc 1 940 9 view .LVU1454
 3906 0d9a 0798     		ldr	r0, [sp, #28]
 3907 0d9c FFF7FEFF 		bl	lv_draw_mask_remove_id
 3908              	.LVL369:
 3909 0da0 52E6     		b	.L159
 3910              	.LVL370:
 3911              	.L178:
 3912              		.cfi_def_cfa_offset 0
 3913              		.cfi_restore 4
 3914              		.cfi_restore 5
 3915              		.cfi_restore 6
 3916              		.cfi_restore 7
 3917              		.cfi_restore 8
 3918              		.cfi_restore 9
 3919              		.cfi_restore 10
 3920              		.cfi_restore 11
 3921              		.cfi_restore 14
 940:Drivers/lvgl/src/draw/sw/lv_draw_sw_rect.c ****     }
 3922              		.loc 1 940 9 is_stmt 0 view .LVU1455
 3923 0da2 7047     		bx	lr
 3924              		.cfi_endproc
 3925              	.LFE166:
 3927              		.section	.text.draw_bg,"ax",%progbits
 3928              		.align	1
 3929              		.syntax unified
 3930              		.thumb
 3931              		.thumb_func
 3933              	draw_bg:
 3934              	.LVL371:
 3935              	.LFB163:
 101:Drivers/lvgl/src/draw/sw/lv_draw_sw_rect.c ****     if(dsc->bg_opa <= LV_OPA_MIN) return;
 3936              		.loc 1 101 1 is_stmt 1 view -0
 3937              		.cfi_startproc
 3938              		@ args = 0, pretend = 0, frame = 104
 3939              		@ frame_needed = 0, uses_anonymous_args = 0
 102:Drivers/lvgl/src/draw/sw/lv_draw_sw_rect.c **** 
 3940              		.loc 1 102 5 view .LVU1457
 102:Drivers/lvgl/src/draw/sw/lv_draw_sw_rect.c **** 
 3941              		.loc 1 102 11 is_stmt 0 view .LVU1458
 3942 0000 CB78     		ldrb	r3, [r1, #3]	@ zero_extendqisi2
ARM GAS  /var/folders/0z/tsy30v1j4xl4_7kw94k978ww0000gn/T//cc0noGMx.s 			page 121


 102:Drivers/lvgl/src/draw/sw/lv_draw_sw_rect.c **** 
 3943              		.loc 1 102 7 view .LVU1459
 3944 0002 022B     		cmp	r3, #2
 3945 0004 40F2ED81 		bls	.L262
 101:Drivers/lvgl/src/draw/sw/lv_draw_sw_rect.c ****     if(dsc->bg_opa <= LV_OPA_MIN) return;
 3946              		.loc 1 101 1 view .LVU1460
 3947 0008 2DE9F04F 		push	{r4, r5, r6, r7, r8, r9, r10, fp, lr}
 3948              		.cfi_def_cfa_offset 36
 3949              		.cfi_offset 4, -36
 3950              		.cfi_offset 5, -32
 3951              		.cfi_offset 6, -28
 3952              		.cfi_offset 7, -24
 3953              		.cfi_offset 8, -20
 3954              		.cfi_offset 9, -16
 3955              		.cfi_offset 10, -12
 3956              		.cfi_offset 11, -8
 3957              		.cfi_offset 14, -4
 3958 000c 9BB0     		sub	sp, sp, #108
 3959              		.cfi_def_cfa_offset 144
 3960 000e 8146     		mov	r9, r0
 3961 0010 0C46     		mov	r4, r1
 104:Drivers/lvgl/src/draw/sw/lv_draw_sw_rect.c ****     lv_area_copy(&bg_coords, coords);
 3962              		.loc 1 104 5 is_stmt 1 view .LVU1461
 105:Drivers/lvgl/src/draw/sw/lv_draw_sw_rect.c **** 
 3963              		.loc 1 105 5 view .LVU1462
 3964              	.LVL372:
 3965              	.LBB179:
 3966              	.LBI179:
 110:Drivers/lvgl/src/draw/sw/../../misc/lv_area.h **** {
 3967              		.loc 2 110 20 view .LVU1463
 3968              	.LBB180:
 112:Drivers/lvgl/src/draw/sw/../../misc/lv_area.h ****     dest->y1 = src->y1;
 3969              		.loc 2 112 5 view .LVU1464
 112:Drivers/lvgl/src/draw/sw/../../misc/lv_area.h ****     dest->y1 = src->y1;
 3970              		.loc 2 112 19 is_stmt 0 view .LVU1465
 3971 0012 B2F90050 		ldrsh	r5, [r2]
 112:Drivers/lvgl/src/draw/sw/../../misc/lv_area.h ****     dest->y1 = src->y1;
 3972              		.loc 2 112 14 view .LVU1466
 3973 0016 ADF86050 		strh	r5, [sp, #96]	@ movhi
 113:Drivers/lvgl/src/draw/sw/../../misc/lv_area.h ****     dest->x2 = src->x2;
 3974              		.loc 2 113 5 is_stmt 1 view .LVU1467
 113:Drivers/lvgl/src/draw/sw/../../misc/lv_area.h ****     dest->x2 = src->x2;
 3975              		.loc 2 113 19 is_stmt 0 view .LVU1468
 3976 001a B2F90200 		ldrsh	r0, [r2, #2]
 3977              	.LVL373:
 113:Drivers/lvgl/src/draw/sw/../../misc/lv_area.h ****     dest->x2 = src->x2;
 3978              		.loc 2 113 14 view .LVU1469
 3979 001e ADF86200 		strh	r0, [sp, #98]	@ movhi
 114:Drivers/lvgl/src/draw/sw/../../misc/lv_area.h ****     dest->y2 = src->y2;
 3980              		.loc 2 114 5 is_stmt 1 view .LVU1470
 114:Drivers/lvgl/src/draw/sw/../../misc/lv_area.h ****     dest->y2 = src->y2;
 3981              		.loc 2 114 19 is_stmt 0 view .LVU1471
 3982 0022 B2F90410 		ldrsh	r1, [r2, #4]
 3983              	.LVL374:
 114:Drivers/lvgl/src/draw/sw/../../misc/lv_area.h ****     dest->y2 = src->y2;
 3984              		.loc 2 114 14 view .LVU1472
 3985 0026 ADF86410 		strh	r1, [sp, #100]	@ movhi
ARM GAS  /var/folders/0z/tsy30v1j4xl4_7kw94k978ww0000gn/T//cc0noGMx.s 			page 122


 115:Drivers/lvgl/src/draw/sw/../../misc/lv_area.h **** }
 3986              		.loc 2 115 5 is_stmt 1 view .LVU1473
 115:Drivers/lvgl/src/draw/sw/../../misc/lv_area.h **** }
 3987              		.loc 2 115 19 is_stmt 0 view .LVU1474
 3988 002a B2F90630 		ldrsh	r3, [r2, #6]
 115:Drivers/lvgl/src/draw/sw/../../misc/lv_area.h **** }
 3989              		.loc 2 115 14 view .LVU1475
 3990 002e ADF86630 		strh	r3, [sp, #102]	@ movhi
 3991              	.LVL375:
 115:Drivers/lvgl/src/draw/sw/../../misc/lv_area.h **** }
 3992              		.loc 2 115 14 view .LVU1476
 3993              	.LBE180:
 3994              	.LBE179:
 108:Drivers/lvgl/src/draw/sw/lv_draw_sw_rect.c ****         bg_coords.x1 += (dsc->border_side & LV_BORDER_SIDE_LEFT) ? 1 : 0;
 3995              		.loc 1 108 5 is_stmt 1 view .LVU1477
 108:Drivers/lvgl/src/draw/sw/lv_draw_sw_rect.c ****         bg_coords.x1 += (dsc->border_side & LV_BORDER_SIDE_LEFT) ? 1 : 0;
 3996              		.loc 1 108 11 is_stmt 0 view .LVU1478
 3997 0032 B4F92020 		ldrsh	r2, [r4, #32]
 3998              	.LVL376:
 108:Drivers/lvgl/src/draw/sw/lv_draw_sw_rect.c ****         bg_coords.x1 += (dsc->border_side & LV_BORDER_SIDE_LEFT) ? 1 : 0;
 3999              		.loc 1 108 7 view .LVU1479
 4000 0036 012A     		cmp	r2, #1
 4001 0038 1CDD     		ble	.L227
 108:Drivers/lvgl/src/draw/sw/lv_draw_sw_rect.c ****         bg_coords.x1 += (dsc->border_side & LV_BORDER_SIDE_LEFT) ? 1 : 0;
 4002              		.loc 1 108 36 discriminator 1 view .LVU1480
 4003 003a 94F82220 		ldrb	r2, [r4, #34]	@ zero_extendqisi2
 108:Drivers/lvgl/src/draw/sw/lv_draw_sw_rect.c ****         bg_coords.x1 += (dsc->border_side & LV_BORDER_SIDE_LEFT) ? 1 : 0;
 4004              		.loc 1 108 30 discriminator 1 view .LVU1481
 4005 003e FC2A     		cmp	r2, #252
 4006 0040 18D9     		bls	.L227
 108:Drivers/lvgl/src/draw/sw/lv_draw_sw_rect.c ****         bg_coords.x1 += (dsc->border_side & LV_BORDER_SIDE_LEFT) ? 1 : 0;
 4007              		.loc 1 108 69 discriminator 2 view .LVU1482
 4008 0042 B4F90020 		ldrsh	r2, [r4]
 108:Drivers/lvgl/src/draw/sw/lv_draw_sw_rect.c ****         bg_coords.x1 += (dsc->border_side & LV_BORDER_SIDE_LEFT) ? 1 : 0;
 4009              		.loc 1 108 63 discriminator 2 view .LVU1483
 4010 0046 AAB1     		cbz	r2, .L227
 109:Drivers/lvgl/src/draw/sw/lv_draw_sw_rect.c ****         bg_coords.y1 += (dsc->border_side & LV_BORDER_SIDE_TOP) ? 1 : 0;
 4011              		.loc 1 109 9 is_stmt 1 view .LVU1484
 109:Drivers/lvgl/src/draw/sw/lv_draw_sw_rect.c ****         bg_coords.y1 += (dsc->border_side & LV_BORDER_SIDE_TOP) ? 1 : 0;
 4012              		.loc 1 109 29 is_stmt 0 view .LVU1485
 4013 0048 94F82320 		ldrb	r2, [r4, #35]	@ zero_extendqisi2
 109:Drivers/lvgl/src/draw/sw/lv_draw_sw_rect.c ****         bg_coords.y1 += (dsc->border_side & LV_BORDER_SIDE_TOP) ? 1 : 0;
 4014              		.loc 1 109 70 view .LVU1486
 4015 004c C2F3C006 		ubfx	r6, r2, #3, #1
 109:Drivers/lvgl/src/draw/sw/lv_draw_sw_rect.c ****         bg_coords.y1 += (dsc->border_side & LV_BORDER_SIDE_TOP) ? 1 : 0;
 4016              		.loc 1 109 22 view .LVU1487
 4017 0050 3544     		add	r5, r5, r6
 4018 0052 ADF86050 		strh	r5, [sp, #96]	@ movhi
 110:Drivers/lvgl/src/draw/sw/lv_draw_sw_rect.c ****         bg_coords.x2 -= (dsc->border_side & LV_BORDER_SIDE_RIGHT) ? 1 : 0;
 4019              		.loc 1 110 9 is_stmt 1 view .LVU1488
 110:Drivers/lvgl/src/draw/sw/lv_draw_sw_rect.c ****         bg_coords.x2 -= (dsc->border_side & LV_BORDER_SIDE_RIGHT) ? 1 : 0;
 4020              		.loc 1 110 69 is_stmt 0 view .LVU1489
 4021 0056 C2F38005 		ubfx	r5, r2, #2, #1
 110:Drivers/lvgl/src/draw/sw/lv_draw_sw_rect.c ****         bg_coords.x2 -= (dsc->border_side & LV_BORDER_SIDE_RIGHT) ? 1 : 0;
 4022              		.loc 1 110 22 view .LVU1490
 4023 005a 2844     		add	r0, r0, r5
 4024 005c ADF86200 		strh	r0, [sp, #98]	@ movhi
ARM GAS  /var/folders/0z/tsy30v1j4xl4_7kw94k978ww0000gn/T//cc0noGMx.s 			page 123


 111:Drivers/lvgl/src/draw/sw/lv_draw_sw_rect.c ****         bg_coords.y2 -= (dsc->border_side & LV_BORDER_SIDE_BOTTOM) ? 1 : 0;
 4025              		.loc 1 111 9 is_stmt 1 view .LVU1491
 111:Drivers/lvgl/src/draw/sw/lv_draw_sw_rect.c ****         bg_coords.y2 -= (dsc->border_side & LV_BORDER_SIDE_BOTTOM) ? 1 : 0;
 4026              		.loc 1 111 71 is_stmt 0 view .LVU1492
 4027 0060 C2F30010 		ubfx	r0, r2, #4, #1
 111:Drivers/lvgl/src/draw/sw/lv_draw_sw_rect.c ****         bg_coords.y2 -= (dsc->border_side & LV_BORDER_SIDE_BOTTOM) ? 1 : 0;
 4028              		.loc 1 111 22 view .LVU1493
 4029 0064 091A     		subs	r1, r1, r0
 4030 0066 ADF86410 		strh	r1, [sp, #100]	@ movhi
 112:Drivers/lvgl/src/draw/sw/lv_draw_sw_rect.c ****     }
 4031              		.loc 1 112 9 is_stmt 1 view .LVU1494
 112:Drivers/lvgl/src/draw/sw/lv_draw_sw_rect.c ****     }
 4032              		.loc 1 112 72 is_stmt 0 view .LVU1495
 4033 006a C2F34002 		ubfx	r2, r2, #1, #1
 112:Drivers/lvgl/src/draw/sw/lv_draw_sw_rect.c ****     }
 4034              		.loc 1 112 22 view .LVU1496
 4035 006e 9B1A     		subs	r3, r3, r2
 4036 0070 ADF86630 		strh	r3, [sp, #102]	@ movhi
 4037              	.L227:
 115:Drivers/lvgl/src/draw/sw/lv_draw_sw_rect.c ****     if(!_lv_area_intersect(&clipped_coords, &bg_coords, draw_ctx->clip_area)) return;
 4038              		.loc 1 115 5 is_stmt 1 view .LVU1497
 116:Drivers/lvgl/src/draw/sw/lv_draw_sw_rect.c **** 
 4039              		.loc 1 116 5 view .LVU1498
 116:Drivers/lvgl/src/draw/sw/lv_draw_sw_rect.c **** 
 4040              		.loc 1 116 9 is_stmt 0 view .LVU1499
 4041 0074 D9F80820 		ldr	r2, [r9, #8]
 4042 0078 18A9     		add	r1, sp, #96
 4043 007a 16A8     		add	r0, sp, #88
 4044 007c FFF7FEFF 		bl	_lv_area_intersect
 4045              	.LVL377:
 116:Drivers/lvgl/src/draw/sw/lv_draw_sw_rect.c **** 
 4046              		.loc 1 116 7 view .LVU1500
 4047 0080 0028     		cmp	r0, #0
 4048 0082 00F07A81 		beq	.L225
 118:Drivers/lvgl/src/draw/sw/lv_draw_sw_rect.c ****     lv_color_t bg_color    = grad_dir == LV_GRAD_DIR_NONE ? dsc->bg_color : dsc->bg_grad.stops[0].c
 4049              		.loc 1 118 5 is_stmt 1 view .LVU1501
 118:Drivers/lvgl/src/draw/sw/lv_draw_sw_rect.c ****     lv_color_t bg_color    = grad_dir == LV_GRAD_DIR_NONE ? dsc->bg_color : dsc->bg_grad.stops[0].c
 4050              		.loc 1 118 42 is_stmt 0 view .LVU1502
 4051 0086 94F80FA0 		ldrb	r10, [r4, #15]	@ zero_extendqisi2
 4052              	.LVL378:
 119:Drivers/lvgl/src/draw/sw/lv_draw_sw_rect.c ****     if(bg_color.full == dsc->bg_grad.stops[1].color.full) grad_dir = LV_GRAD_DIR_NONE;
 4053              		.loc 1 119 5 is_stmt 1 view .LVU1503
 119:Drivers/lvgl/src/draw/sw/lv_draw_sw_rect.c ****     if(bg_color.full == dsc->bg_grad.stops[1].color.full) grad_dir = LV_GRAD_DIR_NONE;
 4054              		.loc 1 119 16 is_stmt 0 view .LVU1504
 4055 008a 1AF0070A 		ands	r10, r10, #7
 4056              	.LVL379:
 119:Drivers/lvgl/src/draw/sw/lv_draw_sw_rect.c ****     if(bg_color.full == dsc->bg_grad.stops[1].color.full) grad_dir = LV_GRAD_DIR_NONE;
 4057              		.loc 1 119 16 view .LVU1505
 4058 008e 78D1     		bne	.L228
 119:Drivers/lvgl/src/draw/sw/lv_draw_sw_rect.c ****     if(bg_color.full == dsc->bg_grad.stops[1].color.full) grad_dir = LV_GRAD_DIR_NONE;
 4059              		.loc 1 119 16 discriminator 1 view .LVU1506
 4060 0090 A588     		ldrh	r5, [r4, #4]
 4061              	.L229:
 120:Drivers/lvgl/src/draw/sw/lv_draw_sw_rect.c **** 
 4062              		.loc 1 120 5 is_stmt 1 view .LVU1507
 4063              	.LVL380:
 120:Drivers/lvgl/src/draw/sw/lv_draw_sw_rect.c **** 
ARM GAS  /var/folders/0z/tsy30v1j4xl4_7kw94k978ww0000gn/T//cc0noGMx.s 			page 124


 4064              		.loc 1 120 16 is_stmt 0 view .LVU1508
 4065 0092 ABB2     		uxth	r3, r5
 120:Drivers/lvgl/src/draw/sw/lv_draw_sw_rect.c **** 
 4066              		.loc 1 120 52 view .LVU1509
 4067 0094 6289     		ldrh	r2, [r4, #10]
 120:Drivers/lvgl/src/draw/sw/lv_draw_sw_rect.c **** 
 4068              		.loc 1 120 7 view .LVU1510
 4069 0096 9342     		cmp	r3, r2
 4070 0098 75D0     		beq	.L265
 4071              	.L230:
 4072              	.LVL381:
 122:Drivers/lvgl/src/draw/sw/lv_draw_sw_rect.c ****     lv_draw_sw_blend_dsc_t blend_dsc = {0};
 4073              		.loc 1 122 5 is_stmt 1 view .LVU1511
 122:Drivers/lvgl/src/draw/sw/lv_draw_sw_rect.c ****     lv_draw_sw_blend_dsc_t blend_dsc = {0};
 4074              		.loc 1 122 21 is_stmt 0 view .LVU1512
 4075 009a 18A8     		add	r0, sp, #96
 4076 009c FFF7FEFF 		bl	lv_draw_mask_is_any
 4077              	.LVL382:
 123:Drivers/lvgl/src/draw/sw/lv_draw_sw_rect.c ****     blend_dsc.blend_mode = dsc->blend_mode;
 4078              		.loc 1 123 5 is_stmt 1 view .LVU1513
 123:Drivers/lvgl/src/draw/sw/lv_draw_sw_rect.c ****     blend_dsc.blend_mode = dsc->blend_mode;
 4079              		.loc 1 123 28 is_stmt 0 view .LVU1514
 4080 00a0 0023     		movs	r3, #0
 4081 00a2 0F93     		str	r3, [sp, #60]
 4082 00a4 1093     		str	r3, [sp, #64]
 4083 00a6 1193     		str	r3, [sp, #68]
 4084 00a8 1293     		str	r3, [sp, #72]
 4085 00aa 1393     		str	r3, [sp, #76]
 4086 00ac 1493     		str	r3, [sp, #80]
 4087 00ae 1593     		str	r3, [sp, #84]
 124:Drivers/lvgl/src/draw/sw/lv_draw_sw_rect.c ****     blend_dsc.color = bg_color;
 4088              		.loc 1 124 5 is_stmt 1 view .LVU1515
 124:Drivers/lvgl/src/draw/sw/lv_draw_sw_rect.c ****     blend_dsc.color = bg_color;
 4089              		.loc 1 124 31 is_stmt 0 view .LVU1516
 4090 00b0 A378     		ldrb	r3, [r4, #2]	@ zero_extendqisi2
 124:Drivers/lvgl/src/draw/sw/lv_draw_sw_rect.c ****     blend_dsc.color = bg_color;
 4091              		.loc 1 124 26 view .LVU1517
 4092 00b2 8DF85530 		strb	r3, [sp, #85]
 125:Drivers/lvgl/src/draw/sw/lv_draw_sw_rect.c **** 
 4093              		.loc 1 125 5 is_stmt 1 view .LVU1518
 125:Drivers/lvgl/src/draw/sw/lv_draw_sw_rect.c **** 
 4094              		.loc 1 125 21 is_stmt 0 view .LVU1519
 4095 00b6 ADF84450 		strh	r5, [sp, #68]	@ movhi
 128:Drivers/lvgl/src/draw/sw/lv_draw_sw_rect.c ****         blend_dsc.blend_area = &bg_coords;
 4096              		.loc 1 128 5 is_stmt 1 view .LVU1520
 128:Drivers/lvgl/src/draw/sw/lv_draw_sw_rect.c ****         blend_dsc.blend_area = &bg_coords;
 4097              		.loc 1 128 7 is_stmt 0 view .LVU1521
 4098 00ba 0290     		str	r0, [sp, #8]
 4099 00bc 28B9     		cbnz	r0, .L231
 128:Drivers/lvgl/src/draw/sw/lv_draw_sw_rect.c ****         blend_dsc.blend_area = &bg_coords;
 4100              		.loc 1 128 24 discriminator 1 view .LVU1522
 4101 00be B4F90030 		ldrsh	r3, [r4]
 128:Drivers/lvgl/src/draw/sw/lv_draw_sw_rect.c ****         blend_dsc.blend_area = &bg_coords;
 4102              		.loc 1 128 18 discriminator 1 view .LVU1523
 4103 00c2 13B9     		cbnz	r3, .L231
 128:Drivers/lvgl/src/draw/sw/lv_draw_sw_rect.c ****         blend_dsc.blend_area = &bg_coords;
 4104              		.loc 1 128 38 discriminator 2 view .LVU1524
ARM GAS  /var/folders/0z/tsy30v1j4xl4_7kw94k978ww0000gn/T//cc0noGMx.s 			page 125


 4105 00c4 BAF1000F 		cmp	r10, #0
 4106 00c8 60D0     		beq	.L266
 4107              	.L231:
 139:Drivers/lvgl/src/draw/sw/lv_draw_sw_rect.c **** 
 4108              		.loc 1 139 5 is_stmt 1 view .LVU1525
 139:Drivers/lvgl/src/draw/sw/lv_draw_sw_rect.c **** 
 4109              		.loc 1 139 23 is_stmt 0 view .LVU1526
 4110 00ca E378     		ldrb	r3, [r4, #3]	@ zero_extendqisi2
 4111 00cc 0093     		str	r3, [sp]
 139:Drivers/lvgl/src/draw/sw/lv_draw_sw_rect.c **** 
 4112              		.loc 1 139 14 view .LVU1527
 4113 00ce FC2B     		cmp	r3, #252
 4114 00d0 01D9     		bls	.L232
 4115 00d2 FF23     		movs	r3, #255
 4116 00d4 0093     		str	r3, [sp]
 4117              	.L232:
 4118              	.LVL383:
 142:Drivers/lvgl/src/draw/sw/lv_draw_sw_rect.c ****     lv_coord_t coords_bg_h = lv_area_get_height(&bg_coords);
 4119              		.loc 1 142 5 is_stmt 1 discriminator 4 view .LVU1528
 4120              	.LBB181:
 4121              	.LBI181:
 123:Drivers/lvgl/src/draw/sw/../../misc/lv_area.h **** {
 4122              		.loc 2 123 26 discriminator 4 view .LVU1529
 4123              	.LBB182:
 125:Drivers/lvgl/src/draw/sw/../../misc/lv_area.h **** }
 4124              		.loc 2 125 5 discriminator 4 view .LVU1530
 125:Drivers/lvgl/src/draw/sw/../../misc/lv_area.h **** }
 4125              		.loc 2 125 31 is_stmt 0 discriminator 4 view .LVU1531
 4126 00d6 BDF86450 		ldrh	r5, [sp, #100]
 4127              	.LVL384:
 125:Drivers/lvgl/src/draw/sw/../../misc/lv_area.h **** }
 4128              		.loc 2 125 44 discriminator 4 view .LVU1532
 4129 00da BDF86030 		ldrh	r3, [sp, #96]
 125:Drivers/lvgl/src/draw/sw/../../misc/lv_area.h **** }
 4130              		.loc 2 125 36 discriminator 4 view .LVU1533
 4131 00de ED1A     		subs	r5, r5, r3
 4132 00e0 ADB2     		uxth	r5, r5
 125:Drivers/lvgl/src/draw/sw/../../misc/lv_area.h **** }
 4133              		.loc 2 125 49 discriminator 4 view .LVU1534
 4134 00e2 0135     		adds	r5, r5, #1
 125:Drivers/lvgl/src/draw/sw/../../misc/lv_area.h **** }
 4135              		.loc 2 125 12 discriminator 4 view .LVU1535
 4136 00e4 2DB2     		sxth	r5, r5
 4137              	.LVL385:
 125:Drivers/lvgl/src/draw/sw/../../misc/lv_area.h **** }
 4138              		.loc 2 125 12 discriminator 4 view .LVU1536
 4139              	.LBE182:
 4140              	.LBE181:
 143:Drivers/lvgl/src/draw/sw/lv_draw_sw_rect.c ****     int32_t short_side = LV_MIN(coords_bg_w, coords_bg_h);
 4141              		.loc 1 143 5 is_stmt 1 discriminator 4 view .LVU1537
 4142              	.LBB183:
 4143              	.LBI183:
 133:Drivers/lvgl/src/draw/sw/../../misc/lv_area.h **** {
 4144              		.loc 2 133 26 discriminator 4 view .LVU1538
 4145              	.LBB184:
 4146              		.loc 2 135 5 discriminator 4 view .LVU1539
 4147              		.loc 2 135 31 is_stmt 0 discriminator 4 view .LVU1540
ARM GAS  /var/folders/0z/tsy30v1j4xl4_7kw94k978ww0000gn/T//cc0noGMx.s 			page 126


 4148 00e6 BDF86670 		ldrh	r7, [sp, #102]
 4149              		.loc 2 135 44 discriminator 4 view .LVU1541
 4150 00ea BDF86230 		ldrh	r3, [sp, #98]
 4151              		.loc 2 135 36 discriminator 4 view .LVU1542
 4152 00ee FF1A     		subs	r7, r7, r3
 4153 00f0 BFB2     		uxth	r7, r7
 4154              		.loc 2 135 49 discriminator 4 view .LVU1543
 4155 00f2 0137     		adds	r7, r7, #1
 4156              		.loc 2 135 12 discriminator 4 view .LVU1544
 4157 00f4 3FB2     		sxth	r7, r7
 4158              	.LVL386:
 4159              		.loc 2 135 12 discriminator 4 view .LVU1545
 4160              	.LBE184:
 4161              	.LBE183:
 144:Drivers/lvgl/src/draw/sw/lv_draw_sw_rect.c ****     int32_t rout = LV_MIN(dsc->radius, short_side >> 1);
 4162              		.loc 1 144 5 is_stmt 1 discriminator 4 view .LVU1546
 144:Drivers/lvgl/src/draw/sw/lv_draw_sw_rect.c ****     int32_t rout = LV_MIN(dsc->radius, short_side >> 1);
 4163              		.loc 1 144 26 is_stmt 0 discriminator 4 view .LVU1547
 4164 00f6 BB46     		mov	fp, r7
 4165 00f8 AF42     		cmp	r7, r5
 4166 00fa A8BF     		it	ge
 4167 00fc AB46     		movge	fp, r5
 4168              	.LVL387:
 145:Drivers/lvgl/src/draw/sw/lv_draw_sw_rect.c **** 
 4169              		.loc 1 145 5 is_stmt 1 discriminator 4 view .LVU1548
 145:Drivers/lvgl/src/draw/sw/lv_draw_sw_rect.c **** 
 4170              		.loc 1 145 20 is_stmt 0 discriminator 4 view .LVU1549
 4171 00fe 4FEA6B0B 		asr	fp, fp, #1
 4172              	.LVL388:
 145:Drivers/lvgl/src/draw/sw/lv_draw_sw_rect.c **** 
 4173              		.loc 1 145 20 discriminator 4 view .LVU1550
 4174 0102 B4F90030 		ldrsh	r3, [r4]
 145:Drivers/lvgl/src/draw/sw/lv_draw_sw_rect.c **** 
 4175              		.loc 1 145 13 discriminator 4 view .LVU1551
 4176 0106 9B45     		cmp	fp, r3
 4177              	.LVL389:
 145:Drivers/lvgl/src/draw/sw/lv_draw_sw_rect.c **** 
 4178              		.loc 1 145 13 discriminator 4 view .LVU1552
 4179 0108 A8BF     		it	ge
 4180 010a 9B46     		movge	fp, r3
 4181              	.LVL390:
 148:Drivers/lvgl/src/draw/sw/lv_draw_sw_rect.c ****     int16_t mask_rout_id = LV_MASK_ID_INV;
 4182              		.loc 1 148 5 is_stmt 1 discriminator 4 view .LVU1553
 4183              	.LBB185:
 4184              	.LBI185:
 123:Drivers/lvgl/src/draw/sw/../../misc/lv_area.h **** {
 4185              		.loc 2 123 26 discriminator 4 view .LVU1554
 4186              	.LBB186:
 125:Drivers/lvgl/src/draw/sw/../../misc/lv_area.h **** }
 4187              		.loc 2 125 5 discriminator 4 view .LVU1555
 125:Drivers/lvgl/src/draw/sw/../../misc/lv_area.h **** }
 4188              		.loc 2 125 31 is_stmt 0 discriminator 4 view .LVU1556
 4189 010c BDF85C60 		ldrh	r6, [sp, #92]
 125:Drivers/lvgl/src/draw/sw/../../misc/lv_area.h **** }
 4190              		.loc 2 125 44 discriminator 4 view .LVU1557
 4191 0110 BDF85830 		ldrh	r3, [sp, #88]
 125:Drivers/lvgl/src/draw/sw/../../misc/lv_area.h **** }
ARM GAS  /var/folders/0z/tsy30v1j4xl4_7kw94k978ww0000gn/T//cc0noGMx.s 			page 127


 4192              		.loc 2 125 36 discriminator 4 view .LVU1558
 4193 0114 F61A     		subs	r6, r6, r3
 4194 0116 B6B2     		uxth	r6, r6
 125:Drivers/lvgl/src/draw/sw/../../misc/lv_area.h **** }
 4195              		.loc 2 125 49 discriminator 4 view .LVU1559
 4196 0118 0136     		adds	r6, r6, #1
 125:Drivers/lvgl/src/draw/sw/../../misc/lv_area.h **** }
 4197              		.loc 2 125 12 discriminator 4 view .LVU1560
 4198 011a 36B2     		sxth	r6, r6
 4199              	.LVL391:
 125:Drivers/lvgl/src/draw/sw/../../misc/lv_area.h **** }
 4200              		.loc 2 125 12 discriminator 4 view .LVU1561
 4201              	.LBE186:
 4202              	.LBE185:
 149:Drivers/lvgl/src/draw/sw/lv_draw_sw_rect.c ****     lv_opa_t * mask_buf = NULL;
 4203              		.loc 1 149 5 is_stmt 1 discriminator 4 view .LVU1562
 150:Drivers/lvgl/src/draw/sw/lv_draw_sw_rect.c ****     lv_draw_mask_radius_param_t mask_rout_param;
 4204              		.loc 1 150 5 discriminator 4 view .LVU1563
 151:Drivers/lvgl/src/draw/sw/lv_draw_sw_rect.c ****     if(rout > 0 || mask_any) {
 4205              		.loc 1 151 5 discriminator 4 view .LVU1564
 152:Drivers/lvgl/src/draw/sw/lv_draw_sw_rect.c ****         mask_buf = lv_mem_buf_get(clipped_w);
 4206              		.loc 1 152 5 discriminator 4 view .LVU1565
 152:Drivers/lvgl/src/draw/sw/lv_draw_sw_rect.c ****         mask_buf = lv_mem_buf_get(clipped_w);
 4207              		.loc 1 152 7 is_stmt 0 discriminator 4 view .LVU1566
 4208 011c BBF1000F 		cmp	fp, #0
 4209 0120 02DC     		bgt	.L233
 152:Drivers/lvgl/src/draw/sw/lv_draw_sw_rect.c ****         mask_buf = lv_mem_buf_get(clipped_w);
 4210              		.loc 1 152 17 discriminator 1 view .LVU1567
 4211 0122 029B     		ldr	r3, [sp, #8]
 4212 0124 002B     		cmp	r3, #0
 4213 0126 3BD0     		beq	.L259
 4214              	.L233:
 153:Drivers/lvgl/src/draw/sw/lv_draw_sw_rect.c ****         lv_draw_mask_radius_init(&mask_rout_param, &bg_coords, rout, false);
 4215              		.loc 1 153 9 is_stmt 1 view .LVU1568
 153:Drivers/lvgl/src/draw/sw/lv_draw_sw_rect.c ****         lv_draw_mask_radius_init(&mask_rout_param, &bg_coords, rout, false);
 4216              		.loc 1 153 20 is_stmt 0 view .LVU1569
 4217 0128 3046     		mov	r0, r6
 4218              	.LVL392:
 153:Drivers/lvgl/src/draw/sw/lv_draw_sw_rect.c ****         lv_draw_mask_radius_init(&mask_rout_param, &bg_coords, rout, false);
 4219              		.loc 1 153 20 view .LVU1570
 4220 012a FFF7FEFF 		bl	lv_mem_buf_get
 4221              	.LVL393:
 4222 012e 8046     		mov	r8, r0
 4223              	.LVL394:
 154:Drivers/lvgl/src/draw/sw/lv_draw_sw_rect.c ****         mask_rout_id = lv_draw_mask_add(&mask_rout_param, NULL);
 4224              		.loc 1 154 9 is_stmt 1 view .LVU1571
 4225 0130 0023     		movs	r3, #0
 4226 0132 5A46     		mov	r2, fp
 4227 0134 18A9     		add	r1, sp, #96
 4228 0136 09A8     		add	r0, sp, #36
 4229              	.LVL395:
 154:Drivers/lvgl/src/draw/sw/lv_draw_sw_rect.c ****         mask_rout_id = lv_draw_mask_add(&mask_rout_param, NULL);
 4230              		.loc 1 154 9 is_stmt 0 view .LVU1572
 4231 0138 FFF7FEFF 		bl	lv_draw_mask_radius_init
 4232              	.LVL396:
 155:Drivers/lvgl/src/draw/sw/lv_draw_sw_rect.c ****     }
 4233              		.loc 1 155 9 is_stmt 1 view .LVU1573
ARM GAS  /var/folders/0z/tsy30v1j4xl4_7kw94k978ww0000gn/T//cc0noGMx.s 			page 128


 155:Drivers/lvgl/src/draw/sw/lv_draw_sw_rect.c ****     }
 4234              		.loc 1 155 24 is_stmt 0 view .LVU1574
 4235 013c 0021     		movs	r1, #0
 4236 013e 09A8     		add	r0, sp, #36
 4237 0140 FFF7FEFF 		bl	lv_draw_mask_add
 4238              	.LVL397:
 4239 0144 0390     		str	r0, [sp, #12]
 4240              	.LVL398:
 4241              	.L234:
 158:Drivers/lvgl/src/draw/sw/lv_draw_sw_rect.c **** 
 4242              		.loc 1 158 5 is_stmt 1 view .LVU1575
 160:Drivers/lvgl/src/draw/sw/lv_draw_sw_rect.c ****     blend_area.x1 = clipped_coords.x1;
 4243              		.loc 1 160 5 view .LVU1576
 161:Drivers/lvgl/src/draw/sw/lv_draw_sw_rect.c ****     blend_area.x2 = clipped_coords.x2;
 4244              		.loc 1 161 5 view .LVU1577
 161:Drivers/lvgl/src/draw/sw/lv_draw_sw_rect.c ****     blend_area.x2 = clipped_coords.x2;
 4245              		.loc 1 161 35 is_stmt 0 view .LVU1578
 4246 0146 BDF95830 		ldrsh	r3, [sp, #88]
 161:Drivers/lvgl/src/draw/sw/lv_draw_sw_rect.c ****     blend_area.x2 = clipped_coords.x2;
 4247              		.loc 1 161 19 view .LVU1579
 4248 014a ADF81C30 		strh	r3, [sp, #28]	@ movhi
 162:Drivers/lvgl/src/draw/sw/lv_draw_sw_rect.c **** 
 4249              		.loc 1 162 5 is_stmt 1 view .LVU1580
 162:Drivers/lvgl/src/draw/sw/lv_draw_sw_rect.c **** 
 4250              		.loc 1 162 35 is_stmt 0 view .LVU1581
 4251 014e BDF95C30 		ldrsh	r3, [sp, #92]
 162:Drivers/lvgl/src/draw/sw/lv_draw_sw_rect.c **** 
 4252              		.loc 1 162 19 view .LVU1582
 4253 0152 ADF82030 		strh	r3, [sp, #32]	@ movhi
 164:Drivers/lvgl/src/draw/sw/lv_draw_sw_rect.c ****     blend_dsc.blend_area = &blend_area;
 4254              		.loc 1 164 5 is_stmt 1 view .LVU1583
 164:Drivers/lvgl/src/draw/sw/lv_draw_sw_rect.c ****     blend_dsc.blend_area = &blend_area;
 4255              		.loc 1 164 24 is_stmt 0 view .LVU1584
 4256 0156 CDF84880 		str	r8, [sp, #72]
 165:Drivers/lvgl/src/draw/sw/lv_draw_sw_rect.c ****     blend_dsc.mask_area = &blend_area;
 4257              		.loc 1 165 5 is_stmt 1 view .LVU1585
 165:Drivers/lvgl/src/draw/sw/lv_draw_sw_rect.c ****     blend_dsc.mask_area = &blend_area;
 4258              		.loc 1 165 26 is_stmt 0 view .LVU1586
 4259 015a 07AB     		add	r3, sp, #28
 4260 015c 0F93     		str	r3, [sp, #60]
 166:Drivers/lvgl/src/draw/sw/lv_draw_sw_rect.c ****     blend_dsc.opa = LV_OPA_COVER;
 4261              		.loc 1 166 5 is_stmt 1 view .LVU1587
 166:Drivers/lvgl/src/draw/sw/lv_draw_sw_rect.c ****     blend_dsc.opa = LV_OPA_COVER;
 4262              		.loc 1 166 25 is_stmt 0 view .LVU1588
 4263 015e 1493     		str	r3, [sp, #80]
 167:Drivers/lvgl/src/draw/sw/lv_draw_sw_rect.c **** 
 4264              		.loc 1 167 5 is_stmt 1 view .LVU1589
 167:Drivers/lvgl/src/draw/sw/lv_draw_sw_rect.c **** 
 4265              		.loc 1 167 19 is_stmt 0 view .LVU1590
 4266 0160 FF23     		movs	r3, #255
 4267 0162 8DF85430 		strb	r3, [sp, #84]
 171:Drivers/lvgl/src/draw/sw/lv_draw_sw_rect.c ****     if(grad && grad_dir == LV_GRAD_DIR_HOR) {
 4268              		.loc 1 171 5 is_stmt 1 view .LVU1591
 171:Drivers/lvgl/src/draw/sw/lv_draw_sw_rect.c ****     if(grad && grad_dir == LV_GRAD_DIR_HOR) {
 4269              		.loc 1 171 24 is_stmt 0 view .LVU1592
 4270 0166 3A46     		mov	r2, r7
 4271 0168 2946     		mov	r1, r5
ARM GAS  /var/folders/0z/tsy30v1j4xl4_7kw94k978ww0000gn/T//cc0noGMx.s 			page 129


 4272 016a A01D     		adds	r0, r4, #6
 4273 016c FFF7FEFF 		bl	lv_gradient_get
 4274              	.LVL399:
 172:Drivers/lvgl/src/draw/sw/lv_draw_sw_rect.c ****         blend_dsc.src_buf = grad->map + clipped_coords.x1 - bg_coords.x1;
 4275              		.loc 1 172 5 is_stmt 1 view .LVU1593
 172:Drivers/lvgl/src/draw/sw/lv_draw_sw_rect.c ****         blend_dsc.src_buf = grad->map + clipped_coords.x1 - bg_coords.x1;
 4276              		.loc 1 172 7 is_stmt 0 view .LVU1594
 4277 0170 0190     		str	r0, [sp, #4]
 4278 0172 10B1     		cbz	r0, .L235
 172:Drivers/lvgl/src/draw/sw/lv_draw_sw_rect.c ****         blend_dsc.src_buf = grad->map + clipped_coords.x1 - bg_coords.x1;
 4279              		.loc 1 172 13 discriminator 1 view .LVU1595
 4280 0174 BAF1020F 		cmp	r10, #2
 4281 0178 18D0     		beq	.L267
 4282              	.L235:
 221:Drivers/lvgl/src/draw/sw/lv_draw_sw_rect.c ****         for(h = clipped_coords.y1; h <= clipped_coords.y2; h++) {
 4283              		.loc 1 221 5 is_stmt 1 view .LVU1596
 221:Drivers/lvgl/src/draw/sw/lv_draw_sw_rect.c ****         for(h = clipped_coords.y1; h <= clipped_coords.y2; h++) {
 4284              		.loc 1 221 7 is_stmt 0 view .LVU1597
 4285 017a 029B     		ldr	r3, [sp, #8]
 4286 017c 03BB     		cbnz	r3, .L268
 243:Drivers/lvgl/src/draw/sw/lv_draw_sw_rect.c ****         lv_coord_t top_y = bg_coords.y1 + h;
 4287              		.loc 1 243 11 view .LVU1598
 4288 017e 0027     		movs	r7, #0
 4289              	.LVL400:
 243:Drivers/lvgl/src/draw/sw/lv_draw_sw_rect.c ****         lv_coord_t top_y = bg_coords.y1 + h;
 4290              		.loc 1 243 11 view .LVU1599
 4291 0180 66E0     		b	.L236
 4292              	.LVL401:
 4293              	.L228:
 119:Drivers/lvgl/src/draw/sw/lv_draw_sw_rect.c ****     if(bg_color.full == dsc->bg_grad.stops[1].color.full) grad_dir = LV_GRAD_DIR_NONE;
 4294              		.loc 1 119 16 discriminator 2 view .LVU1600
 4295 0182 E588     		ldrh	r5, [r4, #6]
 4296 0184 85E7     		b	.L229
 4297              	.LVL402:
 4298              	.L265:
 120:Drivers/lvgl/src/draw/sw/lv_draw_sw_rect.c **** 
 4299              		.loc 1 120 68 view .LVU1601
 4300 0186 4FF0000A 		mov	r10, #0
 4301 018a 86E7     		b	.L230
 4302              	.LVL403:
 4303              	.L266:
 129:Drivers/lvgl/src/draw/sw/lv_draw_sw_rect.c ****         blend_dsc.opa = dsc->bg_opa;
 4304              		.loc 1 129 9 is_stmt 1 view .LVU1602
 129:Drivers/lvgl/src/draw/sw/lv_draw_sw_rect.c ****         blend_dsc.opa = dsc->bg_opa;
 4305              		.loc 1 129 30 is_stmt 0 view .LVU1603
 4306 018c 18AB     		add	r3, sp, #96
 4307 018e 0F93     		str	r3, [sp, #60]
 130:Drivers/lvgl/src/draw/sw/lv_draw_sw_rect.c ****         lv_draw_sw_blend(draw_ctx, &blend_dsc);
 4308              		.loc 1 130 9 is_stmt 1 view .LVU1604
 130:Drivers/lvgl/src/draw/sw/lv_draw_sw_rect.c ****         lv_draw_sw_blend(draw_ctx, &blend_dsc);
 4309              		.loc 1 130 28 is_stmt 0 view .LVU1605
 4310 0190 E378     		ldrb	r3, [r4, #3]	@ zero_extendqisi2
 130:Drivers/lvgl/src/draw/sw/lv_draw_sw_rect.c ****         lv_draw_sw_blend(draw_ctx, &blend_dsc);
 4311              		.loc 1 130 23 view .LVU1606
 4312 0192 8DF85430 		strb	r3, [sp, #84]
 131:Drivers/lvgl/src/draw/sw/lv_draw_sw_rect.c ****         return;
 4313              		.loc 1 131 9 is_stmt 1 view .LVU1607
ARM GAS  /var/folders/0z/tsy30v1j4xl4_7kw94k978ww0000gn/T//cc0noGMx.s 			page 130


 4314 0196 0FA9     		add	r1, sp, #60
 4315 0198 4846     		mov	r0, r9
 4316              	.LVL404:
 131:Drivers/lvgl/src/draw/sw/lv_draw_sw_rect.c ****         return;
 4317              		.loc 1 131 9 is_stmt 0 view .LVU1608
 4318 019a FFF7FEFF 		bl	lv_draw_sw_blend
 4319              	.LVL405:
 132:Drivers/lvgl/src/draw/sw/lv_draw_sw_rect.c ****     }
 4320              		.loc 1 132 9 is_stmt 1 view .LVU1609
 4321 019e ECE0     		b	.L225
 4322              	.LVL406:
 4323              	.L259:
 150:Drivers/lvgl/src/draw/sw/lv_draw_sw_rect.c ****     lv_draw_mask_radius_param_t mask_rout_param;
 4324              		.loc 1 150 16 is_stmt 0 view .LVU1610
 4325 01a0 4FF00008 		mov	r8, #0
 149:Drivers/lvgl/src/draw/sw/lv_draw_sw_rect.c ****     lv_opa_t * mask_buf = NULL;
 4326              		.loc 1 149 13 view .LVU1611
 4327 01a4 4FF0FF33 		mov	r3, #-1
 4328 01a8 0393     		str	r3, [sp, #12]
 4329 01aa CCE7     		b	.L234
 4330              	.LVL407:
 4331              	.L267:
 173:Drivers/lvgl/src/draw/sw/lv_draw_sw_rect.c ****     }
 4332              		.loc 1 173 9 is_stmt 1 view .LVU1612
 173:Drivers/lvgl/src/draw/sw/lv_draw_sw_rect.c ****     }
 4333              		.loc 1 173 33 is_stmt 0 view .LVU1613
 4334 01ac 8368     		ldr	r3, [r0, #8]
 173:Drivers/lvgl/src/draw/sw/lv_draw_sw_rect.c ****     }
 4335              		.loc 1 173 55 view .LVU1614
 4336 01ae BDF95820 		ldrsh	r2, [sp, #88]
 173:Drivers/lvgl/src/draw/sw/lv_draw_sw_rect.c ****     }
 4337              		.loc 1 173 70 view .LVU1615
 4338 01b2 BDF96010 		ldrsh	r1, [sp, #96]
 173:Drivers/lvgl/src/draw/sw/lv_draw_sw_rect.c ****     }
 4339              		.loc 1 173 59 view .LVU1616
 4340 01b6 521A     		subs	r2, r2, r1
 4341 01b8 03EB4203 		add	r3, r3, r2, lsl #1
 173:Drivers/lvgl/src/draw/sw/lv_draw_sw_rect.c ****     }
 4342              		.loc 1 173 27 view .LVU1617
 4343 01bc 1093     		str	r3, [sp, #64]
 4344 01be DCE7     		b	.L235
 4345              	.L268:
 222:Drivers/lvgl/src/draw/sw/lv_draw_sw_rect.c ****             blend_area.y1 = h;
 4346              		.loc 1 222 9 is_stmt 1 view .LVU1618
 222:Drivers/lvgl/src/draw/sw/lv_draw_sw_rect.c ****             blend_area.y1 = h;
 4347              		.loc 1 222 31 is_stmt 0 view .LVU1619
 4348 01c0 BDF95A40 		ldrsh	r4, [sp, #90]
 4349              	.LVL408:
 222:Drivers/lvgl/src/draw/sw/lv_draw_sw_rect.c ****             blend_area.y1 = h;
 4350              		.loc 1 222 31 view .LVU1620
 4351 01c4 009D     		ldr	r5, [sp]
 4352              	.LVL409:
 222:Drivers/lvgl/src/draw/sw/lv_draw_sw_rect.c ****             blend_area.y1 = h;
 4353              		.loc 1 222 31 view .LVU1621
 4354 01c6 019F     		ldr	r7, [sp, #4]
 4355              	.LVL410:
 222:Drivers/lvgl/src/draw/sw/lv_draw_sw_rect.c ****             blend_area.y1 = h;
ARM GAS  /var/folders/0z/tsy30v1j4xl4_7kw94k978ww0000gn/T//cc0noGMx.s 			page 131


 4356              		.loc 1 222 9 view .LVU1622
 4357 01c8 08E0     		b	.L237
 4358              	.LVL411:
 4359              	.L269:
 230:Drivers/lvgl/src/draw/sw/lv_draw_sw_rect.c **** 
 4360              		.loc 1 230 67 is_stmt 1 discriminator 1 view .LVU1623
 230:Drivers/lvgl/src/draw/sw/lv_draw_sw_rect.c **** 
 4361              		.loc 1 230 86 is_stmt 0 discriminator 1 view .LVU1624
 4362 01ca 0223     		movs	r3, #2
 4363 01cc 8DF84C30 		strb	r3, [sp, #76]
 4364 01d0 1FE0     		b	.L238
 4365              	.L239:
 236:Drivers/lvgl/src/draw/sw/lv_draw_sw_rect.c ****         }
 4366              		.loc 1 236 13 is_stmt 1 discriminator 2 view .LVU1625
 4367 01d2 0FA9     		add	r1, sp, #60
 4368 01d4 4846     		mov	r0, r9
 4369 01d6 FFF7FEFF 		bl	lv_draw_sw_blend
 4370              	.LVL412:
 222:Drivers/lvgl/src/draw/sw/lv_draw_sw_rect.c ****             blend_area.y1 = h;
 4371              		.loc 1 222 61 discriminator 2 view .LVU1626
 4372 01da 0134     		adds	r4, r4, #1
 4373              	.LVL413:
 4374              	.L237:
 222:Drivers/lvgl/src/draw/sw/lv_draw_sw_rect.c ****             blend_area.y1 = h;
 4375              		.loc 1 222 38 discriminator 1 view .LVU1627
 222:Drivers/lvgl/src/draw/sw/lv_draw_sw_rect.c ****             blend_area.y1 = h;
 4376              		.loc 1 222 55 is_stmt 0 discriminator 1 view .LVU1628
 4377 01dc BDF95E30 		ldrsh	r3, [sp, #94]
 222:Drivers/lvgl/src/draw/sw/lv_draw_sw_rect.c ****             blend_area.y1 = h;
 4378              		.loc 1 222 38 discriminator 1 view .LVU1629
 4379 01e0 A342     		cmp	r3, r4
 4380 01e2 C0F2BB80 		blt	.L241
 223:Drivers/lvgl/src/draw/sw/lv_draw_sw_rect.c ****             blend_area.y2 = h;
 4381              		.loc 1 223 13 is_stmt 1 view .LVU1630
 223:Drivers/lvgl/src/draw/sw/lv_draw_sw_rect.c ****             blend_area.y2 = h;
 4382              		.loc 1 223 27 is_stmt 0 view .LVU1631
 4383 01e6 0FFA84FB 		sxth	fp, r4
 4384 01ea ADF81EB0 		strh	fp, [sp, #30]	@ movhi
 224:Drivers/lvgl/src/draw/sw/lv_draw_sw_rect.c **** 
 4385              		.loc 1 224 13 is_stmt 1 view .LVU1632
 224:Drivers/lvgl/src/draw/sw/lv_draw_sw_rect.c **** 
 4386              		.loc 1 224 27 is_stmt 0 view .LVU1633
 4387 01ee ADF822B0 		strh	fp, [sp, #34]	@ movhi
 228:Drivers/lvgl/src/draw/sw/lv_draw_sw_rect.c ****             blend_dsc.mask_res = lv_draw_mask_apply(mask_buf, clipped_coords.x1, h, clipped_w);
 4388              		.loc 1 228 13 is_stmt 1 view .LVU1634
 4389 01f2 3246     		mov	r2, r6
 4390 01f4 2946     		mov	r1, r5
 4391 01f6 4046     		mov	r0, r8
 4392 01f8 FFF7FEFF 		bl	lv_memset
 4393              	.LVL414:
 229:Drivers/lvgl/src/draw/sw/lv_draw_sw_rect.c ****             if(blend_dsc.mask_res == LV_DRAW_MASK_RES_FULL_COVER) blend_dsc.mask_res = LV_DRAW_MASK
 4394              		.loc 1 229 13 view .LVU1635
 229:Drivers/lvgl/src/draw/sw/lv_draw_sw_rect.c ****             if(blend_dsc.mask_res == LV_DRAW_MASK_RES_FULL_COVER) blend_dsc.mask_res = LV_DRAW_MASK
 4395              		.loc 1 229 34 is_stmt 0 view .LVU1636
 4396 01fc 3346     		mov	r3, r6
 4397 01fe 5A46     		mov	r2, fp
 4398 0200 BDF95810 		ldrsh	r1, [sp, #88]
ARM GAS  /var/folders/0z/tsy30v1j4xl4_7kw94k978ww0000gn/T//cc0noGMx.s 			page 132


 4399 0204 4046     		mov	r0, r8
 4400 0206 FFF7FEFF 		bl	lv_draw_mask_apply
 4401              	.LVL415:
 229:Drivers/lvgl/src/draw/sw/lv_draw_sw_rect.c ****             if(blend_dsc.mask_res == LV_DRAW_MASK_RES_FULL_COVER) blend_dsc.mask_res = LV_DRAW_MASK
 4402              		.loc 1 229 32 view .LVU1637
 4403 020a 8DF84C00 		strb	r0, [sp, #76]
 230:Drivers/lvgl/src/draw/sw/lv_draw_sw_rect.c **** 
 4404              		.loc 1 230 13 is_stmt 1 view .LVU1638
 230:Drivers/lvgl/src/draw/sw/lv_draw_sw_rect.c **** 
 4405              		.loc 1 230 15 is_stmt 0 view .LVU1639
 4406 020e 0128     		cmp	r0, #1
 4407 0210 DBD0     		beq	.L269
 4408              	.L238:
 235:Drivers/lvgl/src/draw/sw/lv_draw_sw_rect.c ****             lv_draw_sw_blend(draw_ctx, &blend_dsc);
 4409              		.loc 1 235 13 is_stmt 1 view .LVU1640
 235:Drivers/lvgl/src/draw/sw/lv_draw_sw_rect.c ****             lv_draw_sw_blend(draw_ctx, &blend_dsc);
 4410              		.loc 1 235 15 is_stmt 0 view .LVU1641
 4411 0212 BAF1010F 		cmp	r10, #1
 4412 0216 DCD1     		bne	.L239
 235:Drivers/lvgl/src/draw/sw/lv_draw_sw_rect.c ****             lv_draw_sw_blend(draw_ctx, &blend_dsc);
 4413              		.loc 1 235 45 is_stmt 1 discriminator 1 view .LVU1642
 235:Drivers/lvgl/src/draw/sw/lv_draw_sw_rect.c ****             lv_draw_sw_blend(draw_ctx, &blend_dsc);
 4414              		.loc 1 235 67 is_stmt 0 discriminator 1 view .LVU1643
 4415 0218 BA68     		ldr	r2, [r7, #8]
 235:Drivers/lvgl/src/draw/sw/lv_draw_sw_rect.c ****             lv_draw_sw_blend(draw_ctx, &blend_dsc);
 4416              		.loc 1 235 86 discriminator 1 view .LVU1644
 4417 021a BDF96230 		ldrsh	r3, [sp, #98]
 235:Drivers/lvgl/src/draw/sw/lv_draw_sw_rect.c ****             lv_draw_sw_blend(draw_ctx, &blend_dsc);
 4418              		.loc 1 235 75 discriminator 1 view .LVU1645
 4419 021e E31A     		subs	r3, r4, r3
 235:Drivers/lvgl/src/draw/sw/lv_draw_sw_rect.c ****             lv_draw_sw_blend(draw_ctx, &blend_dsc);
 4420              		.loc 1 235 61 discriminator 1 view .LVU1646
 4421 0220 32F81330 		ldrh	r3, [r2, r3, lsl #1]
 4422 0224 ADF84430 		strh	r3, [sp, #68]	@ movhi
 4423 0228 D3E7     		b	.L239
 4424              	.LVL416:
 4425              	.L271:
 4426              	.LBB187:
 252:Drivers/lvgl/src/draw/sw/lv_draw_sw_rect.c **** 
 4427              		.loc 1 252 63 is_stmt 1 discriminator 1 view .LVU1647
 252:Drivers/lvgl/src/draw/sw/lv_draw_sw_rect.c **** 
 4428              		.loc 1 252 82 is_stmt 0 discriminator 1 view .LVU1648
 4429 022a 0223     		movs	r3, #2
 4430 022c 8DF84C30 		strb	r3, [sp, #76]
 4431 0230 31E0     		b	.L244
 4432              	.L272:
 261:Drivers/lvgl/src/draw/sw/lv_draw_sw_rect.c ****             lv_draw_sw_blend(draw_ctx, &blend_dsc);
 4433              		.loc 1 261 45 is_stmt 1 discriminator 1 view .LVU1649
 261:Drivers/lvgl/src/draw/sw/lv_draw_sw_rect.c ****             lv_draw_sw_blend(draw_ctx, &blend_dsc);
 4434              		.loc 1 261 67 is_stmt 0 discriminator 1 view .LVU1650
 4435 0232 019B     		ldr	r3, [sp, #4]
 4436 0234 9B68     		ldr	r3, [r3, #8]
 261:Drivers/lvgl/src/draw/sw/lv_draw_sw_rect.c ****             lv_draw_sw_blend(draw_ctx, &blend_dsc);
 4437              		.loc 1 261 90 discriminator 1 view .LVU1651
 4438 0236 BDF96220 		ldrsh	r2, [sp, #98]
 261:Drivers/lvgl/src/draw/sw/lv_draw_sw_rect.c ****             lv_draw_sw_blend(draw_ctx, &blend_dsc);
 4439              		.loc 1 261 79 discriminator 1 view .LVU1652
ARM GAS  /var/folders/0z/tsy30v1j4xl4_7kw94k978ww0000gn/T//cc0noGMx.s 			page 133


 4440 023a A41A     		subs	r4, r4, r2
 4441              	.LVL417:
 261:Drivers/lvgl/src/draw/sw/lv_draw_sw_rect.c ****             lv_draw_sw_blend(draw_ctx, &blend_dsc);
 4442              		.loc 1 261 61 discriminator 1 view .LVU1653
 4443 023c 33F81430 		ldrh	r3, [r3, r4, lsl #1]
 4444 0240 ADF84430 		strh	r3, [sp, #68]	@ movhi
 4445 0244 32E0     		b	.L246
 4446              	.LVL418:
 4447              	.L247:
 273:Drivers/lvgl/src/draw/sw/lv_draw_sw_rect.c ****         }
 4448              		.loc 1 273 13 is_stmt 1 view .LVU1654
 4449 0246 0FA9     		add	r1, sp, #60
 4450 0248 4846     		mov	r0, r9
 4451 024a FFF7FEFF 		bl	lv_draw_sw_blend
 4452              	.LVL419:
 4453              	.L243:
 273:Drivers/lvgl/src/draw/sw/lv_draw_sw_rect.c ****         }
 4454              		.loc 1 273 13 is_stmt 0 view .LVU1655
 4455              	.LBE187:
 243:Drivers/lvgl/src/draw/sw/lv_draw_sw_rect.c ****         lv_coord_t top_y = bg_coords.y1 + h;
 4456              		.loc 1 243 27 is_stmt 1 discriminator 2 view .LVU1656
 4457 024e 0137     		adds	r7, r7, #1
 4458              	.LVL420:
 4459              	.L236:
 243:Drivers/lvgl/src/draw/sw/lv_draw_sw_rect.c ****         lv_coord_t top_y = bg_coords.y1 + h;
 4460              		.loc 1 243 18 discriminator 1 view .LVU1657
 4461 0250 5F45     		cmp	r7, fp
 4462 0252 44DA     		bge	.L270
 4463              	.LBB188:
 244:Drivers/lvgl/src/draw/sw/lv_draw_sw_rect.c ****         lv_coord_t bottom_y = bg_coords.y2 - h;
 4464              		.loc 1 244 9 view .LVU1658
 244:Drivers/lvgl/src/draw/sw/lv_draw_sw_rect.c ****         lv_coord_t bottom_y = bg_coords.y2 - h;
 4465              		.loc 1 244 37 is_stmt 0 view .LVU1659
 4466 0254 BDF86240 		ldrh	r4, [sp, #98]
 244:Drivers/lvgl/src/draw/sw/lv_draw_sw_rect.c ****         lv_coord_t bottom_y = bg_coords.y2 - h;
 4467              		.loc 1 244 41 view .LVU1660
 4468 0258 BBB2     		uxth	r3, r7
 4469 025a 1C44     		add	r4, r4, r3
 244:Drivers/lvgl/src/draw/sw/lv_draw_sw_rect.c ****         lv_coord_t bottom_y = bg_coords.y2 - h;
 4470              		.loc 1 244 20 view .LVU1661
 4471 025c 24B2     		sxth	r4, r4
 4472              	.LVL421:
 245:Drivers/lvgl/src/draw/sw/lv_draw_sw_rect.c ****         if(top_y < clipped_coords.y1 && bottom_y > clipped_coords.y2) continue;   /*This line is cl
 4473              		.loc 1 245 9 is_stmt 1 view .LVU1662
 245:Drivers/lvgl/src/draw/sw/lv_draw_sw_rect.c ****         if(top_y < clipped_coords.y1 && bottom_y > clipped_coords.y2) continue;   /*This line is cl
 4474              		.loc 1 245 40 is_stmt 0 view .LVU1663
 4475 025e BDF86650 		ldrh	r5, [sp, #102]
 245:Drivers/lvgl/src/draw/sw/lv_draw_sw_rect.c ****         if(top_y < clipped_coords.y1 && bottom_y > clipped_coords.y2) continue;   /*This line is cl
 4476              		.loc 1 245 44 view .LVU1664
 4477 0262 ED1A     		subs	r5, r5, r3
 245:Drivers/lvgl/src/draw/sw/lv_draw_sw_rect.c ****         if(top_y < clipped_coords.y1 && bottom_y > clipped_coords.y2) continue;   /*This line is cl
 4478              		.loc 1 245 20 view .LVU1665
 4479 0264 2DB2     		sxth	r5, r5
 4480              	.LVL422:
 246:Drivers/lvgl/src/draw/sw/lv_draw_sw_rect.c **** 
 4481              		.loc 1 246 9 is_stmt 1 view .LVU1666
 246:Drivers/lvgl/src/draw/sw/lv_draw_sw_rect.c **** 
ARM GAS  /var/folders/0z/tsy30v1j4xl4_7kw94k978ww0000gn/T//cc0noGMx.s 			page 134


 4482              		.loc 1 246 34 is_stmt 0 view .LVU1667
 4483 0266 BDF95A30 		ldrsh	r3, [sp, #90]
 246:Drivers/lvgl/src/draw/sw/lv_draw_sw_rect.c **** 
 4484              		.loc 1 246 11 view .LVU1668
 4485 026a A342     		cmp	r3, r4
 4486 026c 03DD     		ble	.L242
 246:Drivers/lvgl/src/draw/sw/lv_draw_sw_rect.c **** 
 4487              		.loc 1 246 66 discriminator 1 view .LVU1669
 4488 026e BDF95E30 		ldrsh	r3, [sp, #94]
 246:Drivers/lvgl/src/draw/sw/lv_draw_sw_rect.c **** 
 4489              		.loc 1 246 38 discriminator 1 view .LVU1670
 4490 0272 AB42     		cmp	r3, r5
 4491 0274 EBDB     		blt	.L243
 4492              	.L242:
 250:Drivers/lvgl/src/draw/sw/lv_draw_sw_rect.c ****         blend_dsc.mask_res = lv_draw_mask_apply(mask_buf, blend_area.x1, top_y, clipped_w);
 4493              		.loc 1 250 9 is_stmt 1 view .LVU1671
 4494 0276 3246     		mov	r2, r6
 4495 0278 0099     		ldr	r1, [sp]
 4496 027a 4046     		mov	r0, r8
 4497 027c FFF7FEFF 		bl	lv_memset
 4498              	.LVL423:
 251:Drivers/lvgl/src/draw/sw/lv_draw_sw_rect.c ****         if(blend_dsc.mask_res == LV_DRAW_MASK_RES_FULL_COVER) blend_dsc.mask_res = LV_DRAW_MASK_RES
 4499              		.loc 1 251 9 view .LVU1672
 251:Drivers/lvgl/src/draw/sw/lv_draw_sw_rect.c ****         if(blend_dsc.mask_res == LV_DRAW_MASK_RES_FULL_COVER) blend_dsc.mask_res = LV_DRAW_MASK_RES
 4500              		.loc 1 251 30 is_stmt 0 view .LVU1673
 4501 0280 3346     		mov	r3, r6
 4502 0282 2246     		mov	r2, r4
 4503 0284 BDF91C10 		ldrsh	r1, [sp, #28]
 4504 0288 4046     		mov	r0, r8
 4505 028a FFF7FEFF 		bl	lv_draw_mask_apply
 4506              	.LVL424:
 251:Drivers/lvgl/src/draw/sw/lv_draw_sw_rect.c ****         if(blend_dsc.mask_res == LV_DRAW_MASK_RES_FULL_COVER) blend_dsc.mask_res = LV_DRAW_MASK_RES
 4507              		.loc 1 251 28 view .LVU1674
 4508 028e 8DF84C00 		strb	r0, [sp, #76]
 252:Drivers/lvgl/src/draw/sw/lv_draw_sw_rect.c **** 
 4509              		.loc 1 252 9 is_stmt 1 view .LVU1675
 252:Drivers/lvgl/src/draw/sw/lv_draw_sw_rect.c **** 
 4510              		.loc 1 252 11 is_stmt 0 view .LVU1676
 4511 0292 0128     		cmp	r0, #1
 4512 0294 C9D0     		beq	.L271
 4513              	.L244:
 254:Drivers/lvgl/src/draw/sw/lv_draw_sw_rect.c ****             blend_area.y1 = top_y;
 4514              		.loc 1 254 9 is_stmt 1 view .LVU1677
 254:Drivers/lvgl/src/draw/sw/lv_draw_sw_rect.c ****             blend_area.y1 = top_y;
 4515              		.loc 1 254 35 is_stmt 0 view .LVU1678
 4516 0296 BDF95A30 		ldrsh	r3, [sp, #90]
 254:Drivers/lvgl/src/draw/sw/lv_draw_sw_rect.c ****             blend_area.y1 = top_y;
 4517              		.loc 1 254 11 view .LVU1679
 4518 029a A342     		cmp	r3, r4
 4519 029c 0ADC     		bgt	.L245
 255:Drivers/lvgl/src/draw/sw/lv_draw_sw_rect.c ****             blend_area.y2 = top_y;
 4520              		.loc 1 255 13 is_stmt 1 view .LVU1680
 255:Drivers/lvgl/src/draw/sw/lv_draw_sw_rect.c ****             blend_area.y2 = top_y;
 4521              		.loc 1 255 27 is_stmt 0 view .LVU1681
 4522 029e ADF81E40 		strh	r4, [sp, #30]	@ movhi
 256:Drivers/lvgl/src/draw/sw/lv_draw_sw_rect.c **** 
 4523              		.loc 1 256 13 is_stmt 1 view .LVU1682
ARM GAS  /var/folders/0z/tsy30v1j4xl4_7kw94k978ww0000gn/T//cc0noGMx.s 			page 135


 256:Drivers/lvgl/src/draw/sw/lv_draw_sw_rect.c **** 
 4524              		.loc 1 256 27 is_stmt 0 view .LVU1683
 4525 02a2 ADF82240 		strh	r4, [sp, #34]	@ movhi
 261:Drivers/lvgl/src/draw/sw/lv_draw_sw_rect.c ****             lv_draw_sw_blend(draw_ctx, &blend_dsc);
 4526              		.loc 1 261 13 is_stmt 1 view .LVU1684
 261:Drivers/lvgl/src/draw/sw/lv_draw_sw_rect.c ****             lv_draw_sw_blend(draw_ctx, &blend_dsc);
 4527              		.loc 1 261 15 is_stmt 0 view .LVU1685
 4528 02a6 BAF1010F 		cmp	r10, #1
 4529 02aa C2D0     		beq	.L272
 4530              	.LVL425:
 4531              	.L246:
 262:Drivers/lvgl/src/draw/sw/lv_draw_sw_rect.c ****         }
 4532              		.loc 1 262 13 is_stmt 1 view .LVU1686
 4533 02ac 0FA9     		add	r1, sp, #60
 4534 02ae 4846     		mov	r0, r9
 4535 02b0 FFF7FEFF 		bl	lv_draw_sw_blend
 4536              	.LVL426:
 4537              	.L245:
 265:Drivers/lvgl/src/draw/sw/lv_draw_sw_rect.c ****             blend_area.y1 = bottom_y;
 4538              		.loc 1 265 9 view .LVU1687
 265:Drivers/lvgl/src/draw/sw/lv_draw_sw_rect.c ****             blend_area.y1 = bottom_y;
 4539              		.loc 1 265 38 is_stmt 0 view .LVU1688
 4540 02b4 BDF95E30 		ldrsh	r3, [sp, #94]
 265:Drivers/lvgl/src/draw/sw/lv_draw_sw_rect.c ****             blend_area.y1 = bottom_y;
 4541              		.loc 1 265 11 view .LVU1689
 4542 02b8 AB42     		cmp	r3, r5
 4543 02ba C8DB     		blt	.L243
 266:Drivers/lvgl/src/draw/sw/lv_draw_sw_rect.c ****             blend_area.y2 = bottom_y;
 4544              		.loc 1 266 13 is_stmt 1 view .LVU1690
 266:Drivers/lvgl/src/draw/sw/lv_draw_sw_rect.c ****             blend_area.y2 = bottom_y;
 4545              		.loc 1 266 27 is_stmt 0 view .LVU1691
 4546 02bc ADF81E50 		strh	r5, [sp, #30]	@ movhi
 267:Drivers/lvgl/src/draw/sw/lv_draw_sw_rect.c **** 
 4547              		.loc 1 267 13 is_stmt 1 view .LVU1692
 267:Drivers/lvgl/src/draw/sw/lv_draw_sw_rect.c **** 
 4548              		.loc 1 267 27 is_stmt 0 view .LVU1693
 4549 02c0 ADF82250 		strh	r5, [sp, #34]	@ movhi
 272:Drivers/lvgl/src/draw/sw/lv_draw_sw_rect.c ****             lv_draw_sw_blend(draw_ctx, &blend_dsc);
 4550              		.loc 1 272 13 is_stmt 1 view .LVU1694
 272:Drivers/lvgl/src/draw/sw/lv_draw_sw_rect.c ****             lv_draw_sw_blend(draw_ctx, &blend_dsc);
 4551              		.loc 1 272 15 is_stmt 0 view .LVU1695
 4552 02c4 BAF1010F 		cmp	r10, #1
 4553 02c8 BDD1     		bne	.L247
 272:Drivers/lvgl/src/draw/sw/lv_draw_sw_rect.c ****             lv_draw_sw_blend(draw_ctx, &blend_dsc);
 4554              		.loc 1 272 45 is_stmt 1 discriminator 1 view .LVU1696
 272:Drivers/lvgl/src/draw/sw/lv_draw_sw_rect.c ****             lv_draw_sw_blend(draw_ctx, &blend_dsc);
 4555              		.loc 1 272 67 is_stmt 0 discriminator 1 view .LVU1697
 4556 02ca 019B     		ldr	r3, [sp, #4]
 4557 02cc 9B68     		ldr	r3, [r3, #8]
 272:Drivers/lvgl/src/draw/sw/lv_draw_sw_rect.c ****             lv_draw_sw_blend(draw_ctx, &blend_dsc);
 4558              		.loc 1 272 93 discriminator 1 view .LVU1698
 4559 02ce BDF96220 		ldrsh	r2, [sp, #98]
 272:Drivers/lvgl/src/draw/sw/lv_draw_sw_rect.c ****             lv_draw_sw_blend(draw_ctx, &blend_dsc);
 4560              		.loc 1 272 82 discriminator 1 view .LVU1699
 4561 02d2 AD1A     		subs	r5, r5, r2
 4562              	.LVL427:
 272:Drivers/lvgl/src/draw/sw/lv_draw_sw_rect.c ****             lv_draw_sw_blend(draw_ctx, &blend_dsc);
ARM GAS  /var/folders/0z/tsy30v1j4xl4_7kw94k978ww0000gn/T//cc0noGMx.s 			page 136


 4563              		.loc 1 272 61 discriminator 1 view .LVU1700
 4564 02d4 33F81530 		ldrh	r3, [r3, r5, lsl #1]
 4565 02d8 ADF84430 		strh	r3, [sp, #68]	@ movhi
 4566 02dc B3E7     		b	.L247
 4567              	.LVL428:
 4568              	.L270:
 272:Drivers/lvgl/src/draw/sw/lv_draw_sw_rect.c ****             lv_draw_sw_blend(draw_ctx, &blend_dsc);
 4569              		.loc 1 272 61 discriminator 1 view .LVU1701
 4570              	.LBE188:
 280:Drivers/lvgl/src/draw/sw/lv_draw_sw_rect.c ****     center_coords.x1 = bg_coords.x1;
 4571              		.loc 1 280 5 is_stmt 1 view .LVU1702
 281:Drivers/lvgl/src/draw/sw/lv_draw_sw_rect.c ****     center_coords.x2 = bg_coords.x2;
 4572              		.loc 1 281 5 view .LVU1703
 281:Drivers/lvgl/src/draw/sw/lv_draw_sw_rect.c ****     center_coords.x2 = bg_coords.x2;
 4573              		.loc 1 281 33 is_stmt 0 view .LVU1704
 4574 02de BDF96030 		ldrsh	r3, [sp, #96]
 281:Drivers/lvgl/src/draw/sw/lv_draw_sw_rect.c ****     center_coords.x2 = bg_coords.x2;
 4575              		.loc 1 281 22 view .LVU1705
 4576 02e2 ADF81430 		strh	r3, [sp, #20]	@ movhi
 282:Drivers/lvgl/src/draw/sw/lv_draw_sw_rect.c ****     center_coords.y1 = bg_coords.y1 + rout;
 4577              		.loc 1 282 5 is_stmt 1 view .LVU1706
 282:Drivers/lvgl/src/draw/sw/lv_draw_sw_rect.c ****     center_coords.y1 = bg_coords.y1 + rout;
 4578              		.loc 1 282 33 is_stmt 0 view .LVU1707
 4579 02e6 BDF96430 		ldrsh	r3, [sp, #100]
 282:Drivers/lvgl/src/draw/sw/lv_draw_sw_rect.c ****     center_coords.y1 = bg_coords.y1 + rout;
 4580              		.loc 1 282 22 view .LVU1708
 4581 02ea ADF81830 		strh	r3, [sp, #24]	@ movhi
 283:Drivers/lvgl/src/draw/sw/lv_draw_sw_rect.c ****     center_coords.y2 = bg_coords.y2 - rout;
 4582              		.loc 1 283 5 is_stmt 1 view .LVU1709
 283:Drivers/lvgl/src/draw/sw/lv_draw_sw_rect.c ****     center_coords.y2 = bg_coords.y2 - rout;
 4583              		.loc 1 283 33 is_stmt 0 view .LVU1710
 4584 02ee BDF86230 		ldrh	r3, [sp, #98]
 283:Drivers/lvgl/src/draw/sw/lv_draw_sw_rect.c ****     center_coords.y2 = bg_coords.y2 - rout;
 4585              		.loc 1 283 37 view .LVU1711
 4586 02f2 1FFA8BF4 		uxth	r4, fp
 4587 02f6 2344     		add	r3, r3, r4
 283:Drivers/lvgl/src/draw/sw/lv_draw_sw_rect.c ****     center_coords.y2 = bg_coords.y2 - rout;
 4588              		.loc 1 283 22 view .LVU1712
 4589 02f8 ADF81630 		strh	r3, [sp, #22]	@ movhi
 284:Drivers/lvgl/src/draw/sw/lv_draw_sw_rect.c ****     bool mask_any_center = lv_draw_mask_is_any(&center_coords);
 4590              		.loc 1 284 5 is_stmt 1 view .LVU1713
 284:Drivers/lvgl/src/draw/sw/lv_draw_sw_rect.c ****     bool mask_any_center = lv_draw_mask_is_any(&center_coords);
 4591              		.loc 1 284 33 is_stmt 0 view .LVU1714
 4592 02fc BDF86630 		ldrh	r3, [sp, #102]
 284:Drivers/lvgl/src/draw/sw/lv_draw_sw_rect.c ****     bool mask_any_center = lv_draw_mask_is_any(&center_coords);
 4593              		.loc 1 284 37 view .LVU1715
 4594 0300 1B1B     		subs	r3, r3, r4
 284:Drivers/lvgl/src/draw/sw/lv_draw_sw_rect.c ****     bool mask_any_center = lv_draw_mask_is_any(&center_coords);
 4595              		.loc 1 284 22 view .LVU1716
 4596 0302 ADF81A30 		strh	r3, [sp, #26]	@ movhi
 285:Drivers/lvgl/src/draw/sw/lv_draw_sw_rect.c ****     if(!mask_any_center && grad_dir == LV_GRAD_DIR_NONE) {
 4597              		.loc 1 285 5 is_stmt 1 view .LVU1717
 285:Drivers/lvgl/src/draw/sw/lv_draw_sw_rect.c ****     if(!mask_any_center && grad_dir == LV_GRAD_DIR_NONE) {
 4598              		.loc 1 285 28 is_stmt 0 view .LVU1718
 4599 0306 05A8     		add	r0, sp, #20
 4600 0308 FFF7FEFF 		bl	lv_draw_mask_is_any
 4601              	.LVL429:
ARM GAS  /var/folders/0z/tsy30v1j4xl4_7kw94k978ww0000gn/T//cc0noGMx.s 			page 137


 286:Drivers/lvgl/src/draw/sw/lv_draw_sw_rect.c ****         blend_area.y1 = bg_coords.y1 + rout;
 4602              		.loc 1 286 5 is_stmt 1 view .LVU1719
 286:Drivers/lvgl/src/draw/sw/lv_draw_sw_rect.c ****         blend_area.y1 = bg_coords.y1 + rout;
 4603              		.loc 1 286 7 is_stmt 0 view .LVU1720
 4604 030c 0546     		mov	r5, r0
 4605 030e 10B9     		cbnz	r0, .L249
 286:Drivers/lvgl/src/draw/sw/lv_draw_sw_rect.c ****         blend_area.y1 = bg_coords.y1 + rout;
 4606              		.loc 1 286 25 discriminator 1 view .LVU1721
 4607 0310 BAF1000F 		cmp	r10, #0
 4608 0314 0FD0     		beq	.L273
 4609              	.L249:
 4610              	.LBB189:
 295:Drivers/lvgl/src/draw/sw/lv_draw_sw_rect.c ****         blend_dsc.mask_res = LV_DRAW_MASK_RES_FULL_COVER;
 4611              		.loc 1 295 9 is_stmt 1 view .LVU1722
 295:Drivers/lvgl/src/draw/sw/lv_draw_sw_rect.c ****         blend_dsc.mask_res = LV_DRAW_MASK_RES_FULL_COVER;
 4612              		.loc 1 295 23 is_stmt 0 view .LVU1723
 4613 0316 009B     		ldr	r3, [sp]
 4614 0318 8DF85430 		strb	r3, [sp, #84]
 296:Drivers/lvgl/src/draw/sw/lv_draw_sw_rect.c ****         int32_t h_end = bg_coords.y2 - rout;
 4615              		.loc 1 296 9 is_stmt 1 view .LVU1724
 296:Drivers/lvgl/src/draw/sw/lv_draw_sw_rect.c ****         int32_t h_end = bg_coords.y2 - rout;
 4616              		.loc 1 296 28 is_stmt 0 view .LVU1725
 4617 031c 0123     		movs	r3, #1
 4618 031e 8DF84C30 		strb	r3, [sp, #76]
 297:Drivers/lvgl/src/draw/sw/lv_draw_sw_rect.c ****         for(h = bg_coords.y1 + rout; h <= h_end; h++) {
 4619              		.loc 1 297 9 is_stmt 1 view .LVU1726
 297:Drivers/lvgl/src/draw/sw/lv_draw_sw_rect.c ****         for(h = bg_coords.y1 + rout; h <= h_end; h++) {
 4620              		.loc 1 297 34 is_stmt 0 view .LVU1727
 4621 0322 BDF96640 		ldrsh	r4, [sp, #102]
 297:Drivers/lvgl/src/draw/sw/lv_draw_sw_rect.c ****         for(h = bg_coords.y1 + rout; h <= h_end; h++) {
 4622              		.loc 1 297 17 view .LVU1728
 4623 0326 A4EB0B04 		sub	r4, r4, fp
 4624              	.LVL430:
 298:Drivers/lvgl/src/draw/sw/lv_draw_sw_rect.c ****             /*If there is no other mask do not apply mask as in the center there is no radius to ma
 4625              		.loc 1 298 9 is_stmt 1 view .LVU1729
 298:Drivers/lvgl/src/draw/sw/lv_draw_sw_rect.c ****             /*If there is no other mask do not apply mask as in the center there is no radius to ma
 4626              		.loc 1 298 26 is_stmt 0 view .LVU1730
 4627 032a BDF96270 		ldrsh	r7, [sp, #98]
 4628              	.LVL431:
 298:Drivers/lvgl/src/draw/sw/lv_draw_sw_rect.c ****             /*If there is no other mask do not apply mask as in the center there is no radius to ma
 4629              		.loc 1 298 15 view .LVU1731
 4630 032e 5F44     		add	r7, r7, fp
 4631              	.LVL432:
 298:Drivers/lvgl/src/draw/sw/lv_draw_sw_rect.c ****             /*If there is no other mask do not apply mask as in the center there is no radius to ma
 4632              		.loc 1 298 15 view .LVU1732
 4633 0330 DDF804B0 		ldr	fp, [sp, #4]
 4634              	.LVL433:
 298:Drivers/lvgl/src/draw/sw/lv_draw_sw_rect.c ****             /*If there is no other mask do not apply mask as in the center there is no radius to ma
 4635              		.loc 1 298 9 view .LVU1733
 4636 0334 38E0     		b	.L250
 4637              	.LVL434:
 4638              	.L273:
 298:Drivers/lvgl/src/draw/sw/lv_draw_sw_rect.c ****             /*If there is no other mask do not apply mask as in the center there is no radius to ma
 4639              		.loc 1 298 9 view .LVU1734
 4640              	.LBE189:
 287:Drivers/lvgl/src/draw/sw/lv_draw_sw_rect.c ****         blend_area.y2 = bg_coords.y2 - rout;
 4641              		.loc 1 287 9 is_stmt 1 view .LVU1735
ARM GAS  /var/folders/0z/tsy30v1j4xl4_7kw94k978ww0000gn/T//cc0noGMx.s 			page 138


 287:Drivers/lvgl/src/draw/sw/lv_draw_sw_rect.c ****         blend_area.y2 = bg_coords.y2 - rout;
 4642              		.loc 1 287 34 is_stmt 0 view .LVU1736
 4643 0336 BDF86230 		ldrh	r3, [sp, #98]
 287:Drivers/lvgl/src/draw/sw/lv_draw_sw_rect.c ****         blend_area.y2 = bg_coords.y2 - rout;
 4644              		.loc 1 287 38 view .LVU1737
 4645 033a 2344     		add	r3, r3, r4
 287:Drivers/lvgl/src/draw/sw/lv_draw_sw_rect.c ****         blend_area.y2 = bg_coords.y2 - rout;
 4646              		.loc 1 287 23 view .LVU1738
 4647 033c ADF81E30 		strh	r3, [sp, #30]	@ movhi
 288:Drivers/lvgl/src/draw/sw/lv_draw_sw_rect.c ****         blend_dsc.opa = opa;
 4648              		.loc 1 288 9 is_stmt 1 view .LVU1739
 288:Drivers/lvgl/src/draw/sw/lv_draw_sw_rect.c ****         blend_dsc.opa = opa;
 4649              		.loc 1 288 34 is_stmt 0 view .LVU1740
 4650 0340 BDF86630 		ldrh	r3, [sp, #102]
 288:Drivers/lvgl/src/draw/sw/lv_draw_sw_rect.c ****         blend_dsc.opa = opa;
 4651              		.loc 1 288 38 view .LVU1741
 4652 0344 1B1B     		subs	r3, r3, r4
 288:Drivers/lvgl/src/draw/sw/lv_draw_sw_rect.c ****         blend_dsc.opa = opa;
 4653              		.loc 1 288 23 view .LVU1742
 4654 0346 ADF82230 		strh	r3, [sp, #34]	@ movhi
 289:Drivers/lvgl/src/draw/sw/lv_draw_sw_rect.c ****         blend_dsc.mask_buf = NULL;
 4655              		.loc 1 289 9 is_stmt 1 view .LVU1743
 289:Drivers/lvgl/src/draw/sw/lv_draw_sw_rect.c ****         blend_dsc.mask_buf = NULL;
 4656              		.loc 1 289 23 is_stmt 0 view .LVU1744
 4657 034a 009B     		ldr	r3, [sp]
 4658 034c 8DF85430 		strb	r3, [sp, #84]
 290:Drivers/lvgl/src/draw/sw/lv_draw_sw_rect.c ****         lv_draw_sw_blend(draw_ctx, &blend_dsc);
 4659              		.loc 1 290 9 is_stmt 1 view .LVU1745
 290:Drivers/lvgl/src/draw/sw/lv_draw_sw_rect.c ****         lv_draw_sw_blend(draw_ctx, &blend_dsc);
 4660              		.loc 1 290 28 is_stmt 0 view .LVU1746
 4661 0350 0023     		movs	r3, #0
 4662 0352 1293     		str	r3, [sp, #72]
 291:Drivers/lvgl/src/draw/sw/lv_draw_sw_rect.c ****     }
 4663              		.loc 1 291 9 is_stmt 1 view .LVU1747
 4664 0354 0FA9     		add	r1, sp, #60
 4665 0356 4846     		mov	r0, r9
 4666              	.LVL435:
 291:Drivers/lvgl/src/draw/sw/lv_draw_sw_rect.c ****     }
 4667              		.loc 1 291 9 is_stmt 0 view .LVU1748
 4668 0358 FFF7FEFF 		bl	lv_draw_sw_blend
 4669              	.LVL436:
 4670              	.L241:
 318:Drivers/lvgl/src/draw/sw/lv_draw_sw_rect.c ****     if(mask_rout_id != LV_MASK_ID_INV) {
 4671              		.loc 1 318 5 is_stmt 1 view .LVU1749
 318:Drivers/lvgl/src/draw/sw/lv_draw_sw_rect.c ****     if(mask_rout_id != LV_MASK_ID_INV) {
 4672              		.loc 1 318 7 is_stmt 0 view .LVU1750
 4673 035c B8F1000F 		cmp	r8, #0
 4674 0360 02D0     		beq	.L254
 318:Drivers/lvgl/src/draw/sw/lv_draw_sw_rect.c ****     if(mask_rout_id != LV_MASK_ID_INV) {
 4675              		.loc 1 318 18 is_stmt 1 discriminator 1 view .LVU1751
 4676 0362 4046     		mov	r0, r8
 4677 0364 FFF7FEFF 		bl	lv_mem_buf_release
 4678              	.LVL437:
 4679              	.L254:
 319:Drivers/lvgl/src/draw/sw/lv_draw_sw_rect.c ****         lv_draw_mask_remove_id(mask_rout_id);
 4680              		.loc 1 319 5 view .LVU1752
 319:Drivers/lvgl/src/draw/sw/lv_draw_sw_rect.c ****         lv_draw_mask_remove_id(mask_rout_id);
ARM GAS  /var/folders/0z/tsy30v1j4xl4_7kw94k978ww0000gn/T//cc0noGMx.s 			page 139


 4681              		.loc 1 319 7 is_stmt 0 view .LVU1753
 4682 0368 039B     		ldr	r3, [sp, #12]
 4683 036a B3F1FF3F 		cmp	r3, #-1
 4684 036e 31D1     		bne	.L274
 4685              	.L255:
 323:Drivers/lvgl/src/draw/sw/lv_draw_sw_rect.c ****         lv_gradient_cleanup(grad);
 4686              		.loc 1 323 5 is_stmt 1 view .LVU1754
 323:Drivers/lvgl/src/draw/sw/lv_draw_sw_rect.c ****         lv_gradient_cleanup(grad);
 4687              		.loc 1 323 7 is_stmt 0 view .LVU1755
 4688 0370 019B     		ldr	r3, [sp, #4]
 4689 0372 13B1     		cbz	r3, .L225
 324:Drivers/lvgl/src/draw/sw/lv_draw_sw_rect.c ****     }
 4690              		.loc 1 324 9 is_stmt 1 view .LVU1756
 4691 0374 1846     		mov	r0, r3
 4692 0376 FFF7FEFF 		bl	lv_gradient_cleanup
 4693              	.LVL438:
 4694              	.L225:
 328:Drivers/lvgl/src/draw/sw/lv_draw_sw_rect.c **** 
 4695              		.loc 1 328 1 is_stmt 0 view .LVU1757
 4696 037a 1BB0     		add	sp, sp, #108
 4697              		.cfi_remember_state
 4698              		.cfi_def_cfa_offset 36
 4699              		@ sp needed
 4700 037c BDE8F08F 		pop	{r4, r5, r6, r7, r8, r9, r10, fp, pc}
 4701              	.LVL439:
 4702              	.L275:
 4703              		.cfi_restore_state
 4704              	.LBB190:
 301:Drivers/lvgl/src/draw/sw/lv_draw_sw_rect.c ****                 blend_dsc.mask_res = lv_draw_mask_apply(mask_buf, clipped_coords.x1, h, clipped_w);
 4705              		.loc 1 301 17 is_stmt 1 view .LVU1758
 4706 0380 3246     		mov	r2, r6
 4707 0382 0099     		ldr	r1, [sp]
 4708 0384 4046     		mov	r0, r8
 4709 0386 FFF7FEFF 		bl	lv_memset
 4710              	.LVL440:
 302:Drivers/lvgl/src/draw/sw/lv_draw_sw_rect.c ****             }
 4711              		.loc 1 302 17 view .LVU1759
 302:Drivers/lvgl/src/draw/sw/lv_draw_sw_rect.c ****             }
 4712              		.loc 1 302 38 is_stmt 0 view .LVU1760
 4713 038a 3346     		mov	r3, r6
 4714 038c 3AB2     		sxth	r2, r7
 4715 038e BDF95810 		ldrsh	r1, [sp, #88]
 4716 0392 4046     		mov	r0, r8
 4717 0394 FFF7FEFF 		bl	lv_draw_mask_apply
 4718              	.LVL441:
 302:Drivers/lvgl/src/draw/sw/lv_draw_sw_rect.c ****             }
 4719              		.loc 1 302 36 view .LVU1761
 4720 0398 8DF84C00 		strb	r0, [sp, #76]
 4721 039c 08E0     		b	.L251
 4722              	.L252:
 312:Drivers/lvgl/src/draw/sw/lv_draw_sw_rect.c ****         }
 4723              		.loc 1 312 13 is_stmt 1 discriminator 2 view .LVU1762
 4724 039e 0FA9     		add	r1, sp, #60
 4725 03a0 4846     		mov	r0, r9
 4726 03a2 FFF7FEFF 		bl	lv_draw_sw_blend
 4727              	.LVL442:
 298:Drivers/lvgl/src/draw/sw/lv_draw_sw_rect.c ****             /*If there is no other mask do not apply mask as in the center there is no radius to ma
ARM GAS  /var/folders/0z/tsy30v1j4xl4_7kw94k978ww0000gn/T//cc0noGMx.s 			page 140


 4728              		.loc 1 298 51 discriminator 2 view .LVU1763
 4729 03a6 0137     		adds	r7, r7, #1
 4730              	.LVL443:
 4731              	.L250:
 298:Drivers/lvgl/src/draw/sw/lv_draw_sw_rect.c ****             /*If there is no other mask do not apply mask as in the center there is no radius to ma
 4732              		.loc 1 298 40 discriminator 1 view .LVU1764
 4733 03a8 A742     		cmp	r7, r4
 4734 03aa D7DC     		bgt	.L241
 300:Drivers/lvgl/src/draw/sw/lv_draw_sw_rect.c ****                 lv_memset(mask_buf, opa, clipped_w);
 4735              		.loc 1 300 13 view .LVU1765
 300:Drivers/lvgl/src/draw/sw/lv_draw_sw_rect.c ****                 lv_memset(mask_buf, opa, clipped_w);
 4736              		.loc 1 300 15 is_stmt 0 view .LVU1766
 4737 03ac 002D     		cmp	r5, #0
 4738 03ae E7D1     		bne	.L275
 4739              	.L251:
 305:Drivers/lvgl/src/draw/sw/lv_draw_sw_rect.c ****             blend_area.y2 = h;
 4740              		.loc 1 305 13 is_stmt 1 view .LVU1767
 305:Drivers/lvgl/src/draw/sw/lv_draw_sw_rect.c ****             blend_area.y2 = h;
 4741              		.loc 1 305 27 is_stmt 0 view .LVU1768
 4742 03b0 3BB2     		sxth	r3, r7
 4743 03b2 ADF81E30 		strh	r3, [sp, #30]	@ movhi
 306:Drivers/lvgl/src/draw/sw/lv_draw_sw_rect.c **** 
 4744              		.loc 1 306 13 is_stmt 1 view .LVU1769
 306:Drivers/lvgl/src/draw/sw/lv_draw_sw_rect.c **** 
 4745              		.loc 1 306 27 is_stmt 0 view .LVU1770
 4746 03b6 ADF82230 		strh	r3, [sp, #34]	@ movhi
 311:Drivers/lvgl/src/draw/sw/lv_draw_sw_rect.c ****             lv_draw_sw_blend(draw_ctx, &blend_dsc);
 4747              		.loc 1 311 13 is_stmt 1 view .LVU1771
 311:Drivers/lvgl/src/draw/sw/lv_draw_sw_rect.c ****             lv_draw_sw_blend(draw_ctx, &blend_dsc);
 4748              		.loc 1 311 15 is_stmt 0 view .LVU1772
 4749 03ba BAF1010F 		cmp	r10, #1
 4750 03be EED1     		bne	.L252
 311:Drivers/lvgl/src/draw/sw/lv_draw_sw_rect.c ****             lv_draw_sw_blend(draw_ctx, &blend_dsc);
 4751              		.loc 1 311 45 is_stmt 1 discriminator 1 view .LVU1773
 311:Drivers/lvgl/src/draw/sw/lv_draw_sw_rect.c ****             lv_draw_sw_blend(draw_ctx, &blend_dsc);
 4752              		.loc 1 311 67 is_stmt 0 discriminator 1 view .LVU1774
 4753 03c0 DBF80820 		ldr	r2, [fp, #8]
 311:Drivers/lvgl/src/draw/sw/lv_draw_sw_rect.c ****             lv_draw_sw_blend(draw_ctx, &blend_dsc);
 4754              		.loc 1 311 86 discriminator 1 view .LVU1775
 4755 03c4 BDF96230 		ldrsh	r3, [sp, #98]
 311:Drivers/lvgl/src/draw/sw/lv_draw_sw_rect.c ****             lv_draw_sw_blend(draw_ctx, &blend_dsc);
 4756              		.loc 1 311 75 discriminator 1 view .LVU1776
 4757 03c8 FB1A     		subs	r3, r7, r3
 311:Drivers/lvgl/src/draw/sw/lv_draw_sw_rect.c ****             lv_draw_sw_blend(draw_ctx, &blend_dsc);
 4758              		.loc 1 311 61 discriminator 1 view .LVU1777
 4759 03ca 32F81330 		ldrh	r3, [r2, r3, lsl #1]
 4760 03ce ADF84430 		strh	r3, [sp, #68]	@ movhi
 4761 03d2 E4E7     		b	.L252
 4762              	.LVL444:
 4763              	.L274:
 311:Drivers/lvgl/src/draw/sw/lv_draw_sw_rect.c ****             lv_draw_sw_blend(draw_ctx, &blend_dsc);
 4764              		.loc 1 311 61 discriminator 1 view .LVU1778
 4765              	.LBE190:
 320:Drivers/lvgl/src/draw/sw/lv_draw_sw_rect.c ****         lv_draw_mask_free_param(&mask_rout_param);
 4766              		.loc 1 320 9 is_stmt 1 view .LVU1779
 4767 03d4 1846     		mov	r0, r3
 4768 03d6 FFF7FEFF 		bl	lv_draw_mask_remove_id
ARM GAS  /var/folders/0z/tsy30v1j4xl4_7kw94k978ww0000gn/T//cc0noGMx.s 			page 141


 4769              	.LVL445:
 321:Drivers/lvgl/src/draw/sw/lv_draw_sw_rect.c ****     }
 4770              		.loc 1 321 9 view .LVU1780
 4771 03da 09A8     		add	r0, sp, #36
 4772 03dc FFF7FEFF 		bl	lv_draw_mask_free_param
 4773              	.LVL446:
 4774 03e0 C6E7     		b	.L255
 4775              	.LVL447:
 4776              	.L262:
 4777              		.cfi_def_cfa_offset 0
 4778              		.cfi_restore 4
 4779              		.cfi_restore 5
 4780              		.cfi_restore 6
 4781              		.cfi_restore 7
 4782              		.cfi_restore 8
 4783              		.cfi_restore 9
 4784              		.cfi_restore 10
 4785              		.cfi_restore 11
 4786              		.cfi_restore 14
 321:Drivers/lvgl/src/draw/sw/lv_draw_sw_rect.c ****     }
 4787              		.loc 1 321 9 is_stmt 0 view .LVU1781
 4788 03e2 7047     		bx	lr
 4789              		.cfi_endproc
 4790              	.LFE163:
 4792              		.section	.text.draw_bg_img,"ax",%progbits
 4793              		.align	1
 4794              		.syntax unified
 4795              		.thumb
 4796              		.thumb_func
 4798              	draw_bg_img:
 4799              	.LVL448:
 4800              	.LFB164:
 331:Drivers/lvgl/src/draw/sw/lv_draw_sw_rect.c ****     if(dsc->bg_img_src == NULL) return;
 4801              		.loc 1 331 1 is_stmt 1 view -0
 4802              		.cfi_startproc
 4803              		@ args = 0, pretend = 0, frame = 56
 4804              		@ frame_needed = 0, uses_anonymous_args = 0
 332:Drivers/lvgl/src/draw/sw/lv_draw_sw_rect.c ****     if(dsc->bg_img_opa <= LV_OPA_MIN) return;
 4805              		.loc 1 332 5 view .LVU1783
 332:Drivers/lvgl/src/draw/sw/lv_draw_sw_rect.c ****     if(dsc->bg_img_opa <= LV_OPA_MIN) return;
 4806              		.loc 1 332 11 is_stmt 0 view .LVU1784
 4807 0000 0B69     		ldr	r3, [r1, #16]
 332:Drivers/lvgl/src/draw/sw/lv_draw_sw_rect.c ****     if(dsc->bg_img_opa <= LV_OPA_MIN) return;
 4808              		.loc 1 332 7 view .LVU1785
 4809 0002 002B     		cmp	r3, #0
 4810 0004 00F01A81 		beq	.L289
 331:Drivers/lvgl/src/draw/sw/lv_draw_sw_rect.c ****     if(dsc->bg_img_src == NULL) return;
 4811              		.loc 1 331 1 view .LVU1786
 4812 0008 2DE9F041 		push	{r4, r5, r6, r7, r8, lr}
 4813              		.cfi_def_cfa_offset 24
 4814              		.cfi_offset 4, -24
 4815              		.cfi_offset 5, -20
 4816              		.cfi_offset 6, -16
 4817              		.cfi_offset 7, -12
 4818              		.cfi_offset 8, -8
 4819              		.cfi_offset 14, -4
 4820 000c 92B0     		sub	sp, sp, #72
ARM GAS  /var/folders/0z/tsy30v1j4xl4_7kw94k978ww0000gn/T//cc0noGMx.s 			page 142


 4821              		.cfi_def_cfa_offset 96
 4822 000e 0646     		mov	r6, r0
 4823 0010 0C46     		mov	r4, r1
 4824 0012 1546     		mov	r5, r2
 333:Drivers/lvgl/src/draw/sw/lv_draw_sw_rect.c **** 
 4825              		.loc 1 333 5 is_stmt 1 view .LVU1787
 333:Drivers/lvgl/src/draw/sw/lv_draw_sw_rect.c **** 
 4826              		.loc 1 333 11 is_stmt 0 view .LVU1788
 4827 0014 8B7E     		ldrb	r3, [r1, #26]	@ zero_extendqisi2
 333:Drivers/lvgl/src/draw/sw/lv_draw_sw_rect.c **** 
 4828              		.loc 1 333 7 view .LVU1789
 4829 0016 022B     		cmp	r3, #2
 4830 0018 02D8     		bhi	.L292
 4831              	.LVL449:
 4832              	.L276:
 402:Drivers/lvgl/src/draw/sw/lv_draw_sw_rect.c **** 
 4833              		.loc 1 402 1 view .LVU1790
 4834 001a 12B0     		add	sp, sp, #72
 4835              		.cfi_remember_state
 4836              		.cfi_def_cfa_offset 24
 4837              		@ sp needed
 4838 001c BDE8F081 		pop	{r4, r5, r6, r7, r8, pc}
 4839              	.LVL450:
 4840              	.L292:
 4841              		.cfi_restore_state
 335:Drivers/lvgl/src/draw/sw/lv_draw_sw_rect.c ****     if(!_lv_area_intersect(&clip_area, coords, draw_ctx->clip_area)) {
 4842              		.loc 1 335 5 is_stmt 1 view .LVU1791
 336:Drivers/lvgl/src/draw/sw/lv_draw_sw_rect.c ****         return;
 4843              		.loc 1 336 5 view .LVU1792
 336:Drivers/lvgl/src/draw/sw/lv_draw_sw_rect.c ****         return;
 4844              		.loc 1 336 9 is_stmt 0 view .LVU1793
 4845 0020 8268     		ldr	r2, [r0, #8]
 4846              	.LVL451:
 336:Drivers/lvgl/src/draw/sw/lv_draw_sw_rect.c ****         return;
 4847              		.loc 1 336 9 view .LVU1794
 4848 0022 2946     		mov	r1, r5
 4849              	.LVL452:
 336:Drivers/lvgl/src/draw/sw/lv_draw_sw_rect.c ****         return;
 4850              		.loc 1 336 9 view .LVU1795
 4851 0024 10A8     		add	r0, sp, #64
 4852              	.LVL453:
 336:Drivers/lvgl/src/draw/sw/lv_draw_sw_rect.c ****         return;
 4853              		.loc 1 336 9 view .LVU1796
 4854 0026 FFF7FEFF 		bl	_lv_area_intersect
 4855              	.LVL454:
 336:Drivers/lvgl/src/draw/sw/lv_draw_sw_rect.c ****         return;
 4856              		.loc 1 336 7 view .LVU1797
 4857 002a 0028     		cmp	r0, #0
 4858 002c F5D0     		beq	.L276
 340:Drivers/lvgl/src/draw/sw/lv_draw_sw_rect.c ****     draw_ctx->clip_area = &clip_area;
 4859              		.loc 1 340 5 is_stmt 1 view .LVU1798
 340:Drivers/lvgl/src/draw/sw/lv_draw_sw_rect.c ****     draw_ctx->clip_area = &clip_area;
 4860              		.loc 1 340 23 is_stmt 0 view .LVU1799
 4861 002e B768     		ldr	r7, [r6, #8]
 4862              	.LVL455:
 341:Drivers/lvgl/src/draw/sw/lv_draw_sw_rect.c **** 
 4863              		.loc 1 341 5 is_stmt 1 view .LVU1800
ARM GAS  /var/folders/0z/tsy30v1j4xl4_7kw94k978ww0000gn/T//cc0noGMx.s 			page 143


 341:Drivers/lvgl/src/draw/sw/lv_draw_sw_rect.c **** 
 4864              		.loc 1 341 25 is_stmt 0 view .LVU1801
 4865 0030 10AB     		add	r3, sp, #64
 4866 0032 B360     		str	r3, [r6, #8]
 343:Drivers/lvgl/src/draw/sw/lv_draw_sw_rect.c ****     if(src_type == LV_IMG_SRC_SYMBOL) {
 4867              		.loc 1 343 5 is_stmt 1 view .LVU1802
 343:Drivers/lvgl/src/draw/sw/lv_draw_sw_rect.c ****     if(src_type == LV_IMG_SRC_SYMBOL) {
 4868              		.loc 1 343 29 is_stmt 0 view .LVU1803
 4869 0034 2069     		ldr	r0, [r4, #16]
 4870 0036 FFF7FEFF 		bl	lv_img_src_get_type
 4871              	.LVL456:
 344:Drivers/lvgl/src/draw/sw/lv_draw_sw_rect.c ****         lv_point_t size;
 4872              		.loc 1 344 5 is_stmt 1 view .LVU1804
 344:Drivers/lvgl/src/draw/sw/lv_draw_sw_rect.c ****         lv_point_t size;
 4873              		.loc 1 344 7 is_stmt 0 view .LVU1805
 4874 003a 0228     		cmp	r0, #2
 4875 003c 07D0     		beq	.L293
 4876              	.LBB191:
 361:Drivers/lvgl/src/draw/sw/lv_draw_sw_rect.c ****         lv_res_t res = lv_img_decoder_get_info(dsc->bg_img_src, &header);
 4877              		.loc 1 361 9 is_stmt 1 view .LVU1806
 362:Drivers/lvgl/src/draw/sw/lv_draw_sw_rect.c ****         if(res == LV_RES_OK) {
 4878              		.loc 1 362 9 view .LVU1807
 362:Drivers/lvgl/src/draw/sw/lv_draw_sw_rect.c ****         if(res == LV_RES_OK) {
 4879              		.loc 1 362 24 is_stmt 0 view .LVU1808
 4880 003e 05A9     		add	r1, sp, #20
 4881 0040 2069     		ldr	r0, [r4, #16]
 4882              	.LVL457:
 362:Drivers/lvgl/src/draw/sw/lv_draw_sw_rect.c ****         if(res == LV_RES_OK) {
 4883              		.loc 1 362 24 view .LVU1809
 4884 0042 FFF7FEFF 		bl	lv_img_decoder_get_info
 4885              	.LVL458:
 363:Drivers/lvgl/src/draw/sw/lv_draw_sw_rect.c ****             lv_draw_img_dsc_t img_dsc;
 4886              		.loc 1 363 9 is_stmt 1 view .LVU1810
 363:Drivers/lvgl/src/draw/sw/lv_draw_sw_rect.c ****             lv_draw_img_dsc_t img_dsc;
 4887              		.loc 1 363 11 is_stmt 0 view .LVU1811
 4888 0046 0128     		cmp	r0, #1
 4889 0048 5AD0     		beq	.L294
 4890              	.LVL459:
 4891              	.L279:
 363:Drivers/lvgl/src/draw/sw/lv_draw_sw_rect.c ****             lv_draw_img_dsc_t img_dsc;
 4892              		.loc 1 363 11 view .LVU1812
 4893              	.LBE191:
 401:Drivers/lvgl/src/draw/sw/lv_draw_sw_rect.c **** }
 4894              		.loc 1 401 5 is_stmt 1 discriminator 5 view .LVU1813
 401:Drivers/lvgl/src/draw/sw/lv_draw_sw_rect.c **** }
 4895              		.loc 1 401 25 is_stmt 0 discriminator 5 view .LVU1814
 4896 004a B760     		str	r7, [r6, #8]
 4897 004c E5E7     		b	.L276
 4898              	.LVL460:
 4899              	.L293:
 4900              	.LBB200:
 345:Drivers/lvgl/src/draw/sw/lv_draw_sw_rect.c ****         lv_txt_get_size(&size, dsc->bg_img_src, dsc->bg_img_symbol_font, 0, 0, LV_COORD_MAX, LV_TEX
 4901              		.loc 1 345 9 is_stmt 1 view .LVU1815
 346:Drivers/lvgl/src/draw/sw/lv_draw_sw_rect.c ****         lv_area_t a;
 4902              		.loc 1 346 9 view .LVU1816
 4903 004e 4FF00008 		mov	r8, #0
 4904 0052 CDF80880 		str	r8, [sp, #8]
ARM GAS  /var/folders/0z/tsy30v1j4xl4_7kw94k978ww0000gn/T//cc0noGMx.s 			page 144


 4905 0056 41F6FF73 		movw	r3, #8191
 4906 005a 0193     		str	r3, [sp, #4]
 4907 005c CDF80080 		str	r8, [sp]
 4908 0060 4346     		mov	r3, r8
 4909 0062 6269     		ldr	r2, [r4, #20]
 4910 0064 2169     		ldr	r1, [r4, #16]
 4911 0066 05A8     		add	r0, sp, #20
 4912              	.LVL461:
 346:Drivers/lvgl/src/draw/sw/lv_draw_sw_rect.c ****         lv_area_t a;
 4913              		.loc 1 346 9 is_stmt 0 view .LVU1817
 4914 0068 FFF7FEFF 		bl	lv_txt_get_size
 4915              	.LVL462:
 347:Drivers/lvgl/src/draw/sw/lv_draw_sw_rect.c ****         a.x1 = coords->x1 + lv_area_get_width(coords) / 2 - size.x / 2;
 4916              		.loc 1 347 9 is_stmt 1 view .LVU1818
 348:Drivers/lvgl/src/draw/sw/lv_draw_sw_rect.c ****         a.x2 = a.x1 + size.x - 1;
 4917              		.loc 1 348 9 view .LVU1819
 348:Drivers/lvgl/src/draw/sw/lv_draw_sw_rect.c ****         a.x2 = a.x1 + size.x - 1;
 4918              		.loc 1 348 22 is_stmt 0 view .LVU1820
 4919 006c 2B88     		ldrh	r3, [r5]
 4920              	.LVL463:
 4921              	.LBB201:
 4922              	.LBI201:
 123:Drivers/lvgl/src/draw/sw/../../misc/lv_area.h **** {
 4923              		.loc 2 123 26 is_stmt 1 view .LVU1821
 4924              	.LBB202:
 125:Drivers/lvgl/src/draw/sw/../../misc/lv_area.h **** }
 4925              		.loc 2 125 5 view .LVU1822
 125:Drivers/lvgl/src/draw/sw/../../misc/lv_area.h **** }
 4926              		.loc 2 125 31 is_stmt 0 view .LVU1823
 4927 006e AA88     		ldrh	r2, [r5, #4]
 125:Drivers/lvgl/src/draw/sw/../../misc/lv_area.h **** }
 4928              		.loc 2 125 36 view .LVU1824
 4929 0070 D21A     		subs	r2, r2, r3
 4930 0072 92B2     		uxth	r2, r2
 125:Drivers/lvgl/src/draw/sw/../../misc/lv_area.h **** }
 4931              		.loc 2 125 49 view .LVU1825
 4932 0074 0132     		adds	r2, r2, #1
 4933              	.LVL464:
 125:Drivers/lvgl/src/draw/sw/../../misc/lv_area.h **** }
 4934              		.loc 2 125 49 view .LVU1826
 4935              	.LBE202:
 4936              	.LBE201:
 348:Drivers/lvgl/src/draw/sw/lv_draw_sw_rect.c ****         a.x2 = a.x1 + size.x - 1;
 4937              		.loc 1 348 27 view .LVU1827
 4938 0076 C2F3C031 		ubfx	r1, r2, #15, #1
 4939 007a 01FA82F2 		sxtah	r2, r1, r2
 4940 007e 03EB6203 		add	r3, r3, r2, asr #1
 4941 0082 9BB2     		uxth	r3, r3
 348:Drivers/lvgl/src/draw/sw/lv_draw_sw_rect.c ****         a.x2 = a.x1 + size.x - 1;
 4942              		.loc 1 348 65 view .LVU1828
 4943 0084 BDF91420 		ldrsh	r2, [sp, #20]
 348:Drivers/lvgl/src/draw/sw/lv_draw_sw_rect.c ****         a.x2 = a.x1 + size.x - 1;
 4944              		.loc 1 348 59 view .LVU1829
 4945 0088 02EBD271 		add	r1, r2, r2, lsr #31
 4946 008c A3EB6103 		sub	r3, r3, r1, asr #1
 348:Drivers/lvgl/src/draw/sw/lv_draw_sw_rect.c ****         a.x2 = a.x1 + size.x - 1;
 4947              		.loc 1 348 14 view .LVU1830
ARM GAS  /var/folders/0z/tsy30v1j4xl4_7kw94k978ww0000gn/T//cc0noGMx.s 			page 145


 4948 0090 ADF81830 		strh	r3, [sp, #24]	@ movhi
 349:Drivers/lvgl/src/draw/sw/lv_draw_sw_rect.c ****         a.y1 = coords->y1 + lv_area_get_height(coords) / 2 - size.y / 2;
 4949              		.loc 1 349 9 is_stmt 1 view .LVU1831
 349:Drivers/lvgl/src/draw/sw/lv_draw_sw_rect.c ****         a.y1 = coords->y1 + lv_area_get_height(coords) / 2 - size.y / 2;
 4950              		.loc 1 349 27 is_stmt 0 view .LVU1832
 4951 0094 92B2     		uxth	r2, r2
 349:Drivers/lvgl/src/draw/sw/lv_draw_sw_rect.c ****         a.y1 = coords->y1 + lv_area_get_height(coords) / 2 - size.y / 2;
 4952              		.loc 1 349 21 view .LVU1833
 4953 0096 12FA83F3 		uxtah	r3, r2, r3
 4954 009a 9BB2     		uxth	r3, r3
 349:Drivers/lvgl/src/draw/sw/lv_draw_sw_rect.c ****         a.y1 = coords->y1 + lv_area_get_height(coords) / 2 - size.y / 2;
 4955              		.loc 1 349 30 view .LVU1834
 4956 009c 013B     		subs	r3, r3, #1
 349:Drivers/lvgl/src/draw/sw/lv_draw_sw_rect.c ****         a.y1 = coords->y1 + lv_area_get_height(coords) / 2 - size.y / 2;
 4957              		.loc 1 349 14 view .LVU1835
 4958 009e ADF81C30 		strh	r3, [sp, #28]	@ movhi
 350:Drivers/lvgl/src/draw/sw/lv_draw_sw_rect.c ****         a.y2 = a.y1 + size.y - 1;
 4959              		.loc 1 350 9 is_stmt 1 view .LVU1836
 350:Drivers/lvgl/src/draw/sw/lv_draw_sw_rect.c ****         a.y2 = a.y1 + size.y - 1;
 4960              		.loc 1 350 22 is_stmt 0 view .LVU1837
 4961 00a2 6B88     		ldrh	r3, [r5, #2]
 4962              	.LVL465:
 4963              	.LBB203:
 4964              	.LBI203:
 133:Drivers/lvgl/src/draw/sw/../../misc/lv_area.h **** {
 4965              		.loc 2 133 26 is_stmt 1 view .LVU1838
 4966              	.LBB204:
 4967              		.loc 2 135 5 view .LVU1839
 4968              		.loc 2 135 31 is_stmt 0 view .LVU1840
 4969 00a4 EA88     		ldrh	r2, [r5, #6]
 4970              		.loc 2 135 36 view .LVU1841
 4971 00a6 D21A     		subs	r2, r2, r3
 4972 00a8 92B2     		uxth	r2, r2
 4973              		.loc 2 135 49 view .LVU1842
 4974 00aa 0132     		adds	r2, r2, #1
 4975              	.LVL466:
 4976              		.loc 2 135 49 view .LVU1843
 4977              	.LBE204:
 4978              	.LBE203:
 350:Drivers/lvgl/src/draw/sw/lv_draw_sw_rect.c ****         a.y2 = a.y1 + size.y - 1;
 4979              		.loc 1 350 27 view .LVU1844
 4980 00ac C2F3C031 		ubfx	r1, r2, #15, #1
 4981 00b0 01FA82F2 		sxtah	r2, r1, r2
 4982 00b4 03EB6203 		add	r3, r3, r2, asr #1
 4983 00b8 9BB2     		uxth	r3, r3
 350:Drivers/lvgl/src/draw/sw/lv_draw_sw_rect.c ****         a.y2 = a.y1 + size.y - 1;
 4984              		.loc 1 350 66 view .LVU1845
 4985 00ba BDF91620 		ldrsh	r2, [sp, #22]
 350:Drivers/lvgl/src/draw/sw/lv_draw_sw_rect.c ****         a.y2 = a.y1 + size.y - 1;
 4986              		.loc 1 350 60 view .LVU1846
 4987 00be 02EBD271 		add	r1, r2, r2, lsr #31
 4988 00c2 A3EB6103 		sub	r3, r3, r1, asr #1
 350:Drivers/lvgl/src/draw/sw/lv_draw_sw_rect.c ****         a.y2 = a.y1 + size.y - 1;
 4989              		.loc 1 350 14 view .LVU1847
 4990 00c6 ADF81A30 		strh	r3, [sp, #26]	@ movhi
 351:Drivers/lvgl/src/draw/sw/lv_draw_sw_rect.c **** 
 4991              		.loc 1 351 9 is_stmt 1 view .LVU1848
ARM GAS  /var/folders/0z/tsy30v1j4xl4_7kw94k978ww0000gn/T//cc0noGMx.s 			page 146


 351:Drivers/lvgl/src/draw/sw/lv_draw_sw_rect.c **** 
 4992              		.loc 1 351 27 is_stmt 0 view .LVU1849
 4993 00ca 92B2     		uxth	r2, r2
 351:Drivers/lvgl/src/draw/sw/lv_draw_sw_rect.c **** 
 4994              		.loc 1 351 21 view .LVU1850
 4995 00cc 12FA83F3 		uxtah	r3, r2, r3
 4996 00d0 9BB2     		uxth	r3, r3
 351:Drivers/lvgl/src/draw/sw/lv_draw_sw_rect.c **** 
 4997              		.loc 1 351 30 view .LVU1851
 4998 00d2 013B     		subs	r3, r3, #1
 351:Drivers/lvgl/src/draw/sw/lv_draw_sw_rect.c **** 
 4999              		.loc 1 351 14 view .LVU1852
 5000 00d4 ADF81E30 		strh	r3, [sp, #30]	@ movhi
 353:Drivers/lvgl/src/draw/sw/lv_draw_sw_rect.c ****         lv_draw_label_dsc_init(&label_draw_dsc);
 5001              		.loc 1 353 9 is_stmt 1 view .LVU1853
 354:Drivers/lvgl/src/draw/sw/lv_draw_sw_rect.c ****         label_draw_dsc.font = dsc->bg_img_symbol_font;
 5002              		.loc 1 354 9 view .LVU1854
 5003 00d8 08A8     		add	r0, sp, #32
 5004 00da FFF7FEFF 		bl	lv_draw_label_dsc_init
 5005              	.LVL467:
 355:Drivers/lvgl/src/draw/sw/lv_draw_sw_rect.c ****         label_draw_dsc.color = dsc->bg_img_recolor;
 5006              		.loc 1 355 9 view .LVU1855
 355:Drivers/lvgl/src/draw/sw/lv_draw_sw_rect.c ****         label_draw_dsc.color = dsc->bg_img_recolor;
 5007              		.loc 1 355 34 is_stmt 0 view .LVU1856
 5008 00de 6369     		ldr	r3, [r4, #20]
 355:Drivers/lvgl/src/draw/sw/lv_draw_sw_rect.c ****         label_draw_dsc.color = dsc->bg_img_recolor;
 5009              		.loc 1 355 29 view .LVU1857
 5010 00e0 0893     		str	r3, [sp, #32]
 356:Drivers/lvgl/src/draw/sw/lv_draw_sw_rect.c ****         label_draw_dsc.opa = dsc->bg_img_opa;
 5011              		.loc 1 356 9 is_stmt 1 view .LVU1858
 356:Drivers/lvgl/src/draw/sw/lv_draw_sw_rect.c ****         label_draw_dsc.opa = dsc->bg_img_opa;
 5012              		.loc 1 356 30 is_stmt 0 view .LVU1859
 5013 00e2 238B     		ldrh	r3, [r4, #24]
 5014 00e4 ADF82C30 		strh	r3, [sp, #44]	@ movhi
 357:Drivers/lvgl/src/draw/sw/lv_draw_sw_rect.c ****         lv_draw_label(draw_ctx, &label_draw_dsc, &a, dsc->bg_img_src, NULL);
 5015              		.loc 1 357 9 is_stmt 1 view .LVU1860
 357:Drivers/lvgl/src/draw/sw/lv_draw_sw_rect.c ****         lv_draw_label(draw_ctx, &label_draw_dsc, &a, dsc->bg_img_src, NULL);
 5016              		.loc 1 357 33 is_stmt 0 view .LVU1861
 5017 00e8 A37E     		ldrb	r3, [r4, #26]	@ zero_extendqisi2
 357:Drivers/lvgl/src/draw/sw/lv_draw_sw_rect.c ****         lv_draw_label(draw_ctx, &label_draw_dsc, &a, dsc->bg_img_src, NULL);
 5018              		.loc 1 357 28 view .LVU1862
 5019 00ea 8DF83A30 		strb	r3, [sp, #58]
 358:Drivers/lvgl/src/draw/sw/lv_draw_sw_rect.c ****     }
 5020              		.loc 1 358 9 is_stmt 1 view .LVU1863
 5021 00ee CDF80080 		str	r8, [sp]
 5022 00f2 2369     		ldr	r3, [r4, #16]
 5023 00f4 06AA     		add	r2, sp, #24
 5024 00f6 08A9     		add	r1, sp, #32
 5025 00f8 3046     		mov	r0, r6
 5026 00fa FFF7FEFF 		bl	lv_draw_label
 5027              	.LVL468:
 5028              	.LBE200:
 5029 00fe A4E7     		b	.L279
 5030              	.LVL469:
 5031              	.L294:
 5032              	.LBB205:
 5033              	.LBB192:
ARM GAS  /var/folders/0z/tsy30v1j4xl4_7kw94k978ww0000gn/T//cc0noGMx.s 			page 147


 364:Drivers/lvgl/src/draw/sw/lv_draw_sw_rect.c ****             lv_draw_img_dsc_init(&img_dsc);
 5034              		.loc 1 364 13 view .LVU1864
 365:Drivers/lvgl/src/draw/sw/lv_draw_sw_rect.c ****             img_dsc.blend_mode = dsc->blend_mode;
 5035              		.loc 1 365 13 view .LVU1865
 5036 0100 08A8     		add	r0, sp, #32
 5037              	.LVL470:
 365:Drivers/lvgl/src/draw/sw/lv_draw_sw_rect.c ****             img_dsc.blend_mode = dsc->blend_mode;
 5038              		.loc 1 365 13 is_stmt 0 view .LVU1866
 5039 0102 FFF7FEFF 		bl	lv_draw_img_dsc_init
 5040              	.LVL471:
 366:Drivers/lvgl/src/draw/sw/lv_draw_sw_rect.c ****             img_dsc.recolor = dsc->bg_img_recolor;
 5041              		.loc 1 366 13 is_stmt 1 view .LVU1867
 366:Drivers/lvgl/src/draw/sw/lv_draw_sw_rect.c ****             img_dsc.recolor = dsc->bg_img_recolor;
 5042              		.loc 1 366 37 is_stmt 0 view .LVU1868
 5043 0106 A278     		ldrb	r2, [r4, #2]	@ zero_extendqisi2
 366:Drivers/lvgl/src/draw/sw/lv_draw_sw_rect.c ****             img_dsc.recolor = dsc->bg_img_recolor;
 5044              		.loc 1 366 32 view .LVU1869
 5045 0108 9DF82C30 		ldrb	r3, [sp, #44]	@ zero_extendqisi2
 5046 010c 62F30303 		bfi	r3, r2, #0, #4
 5047 0110 8DF82C30 		strb	r3, [sp, #44]
 367:Drivers/lvgl/src/draw/sw/lv_draw_sw_rect.c ****             img_dsc.recolor_opa = dsc->bg_img_recolor_opa;
 5048              		.loc 1 367 13 is_stmt 1 view .LVU1870
 367:Drivers/lvgl/src/draw/sw/lv_draw_sw_rect.c ****             img_dsc.recolor_opa = dsc->bg_img_recolor_opa;
 5049              		.loc 1 367 29 is_stmt 0 view .LVU1871
 5050 0114 238B     		ldrh	r3, [r4, #24]
 5051 0116 ADF82830 		strh	r3, [sp, #40]	@ movhi
 368:Drivers/lvgl/src/draw/sw/lv_draw_sw_rect.c ****             img_dsc.opa = dsc->bg_img_opa;
 5052              		.loc 1 368 13 is_stmt 1 view .LVU1872
 368:Drivers/lvgl/src/draw/sw/lv_draw_sw_rect.c ****             img_dsc.opa = dsc->bg_img_opa;
 5053              		.loc 1 368 38 is_stmt 0 view .LVU1873
 5054 011a E37E     		ldrb	r3, [r4, #27]	@ zero_extendqisi2
 368:Drivers/lvgl/src/draw/sw/lv_draw_sw_rect.c ****             img_dsc.opa = dsc->bg_img_opa;
 5055              		.loc 1 368 33 view .LVU1874
 5056 011c 8DF82A30 		strb	r3, [sp, #42]
 369:Drivers/lvgl/src/draw/sw/lv_draw_sw_rect.c **** 
 5057              		.loc 1 369 13 is_stmt 1 view .LVU1875
 369:Drivers/lvgl/src/draw/sw/lv_draw_sw_rect.c **** 
 5058              		.loc 1 369 30 is_stmt 0 view .LVU1876
 5059 0120 A37E     		ldrb	r3, [r4, #26]	@ zero_extendqisi2
 369:Drivers/lvgl/src/draw/sw/lv_draw_sw_rect.c **** 
 5060              		.loc 1 369 25 view .LVU1877
 5061 0122 8DF82B30 		strb	r3, [sp, #43]
 372:Drivers/lvgl/src/draw/sw/lv_draw_sw_rect.c ****                 lv_area_t area;
 5062              		.loc 1 372 13 is_stmt 1 view .LVU1878
 372:Drivers/lvgl/src/draw/sw/lv_draw_sw_rect.c ****                 lv_area_t area;
 5063              		.loc 1 372 19 is_stmt 0 view .LVU1879
 5064 0126 237F     		ldrb	r3, [r4, #28]	@ zero_extendqisi2
 372:Drivers/lvgl/src/draw/sw/lv_draw_sw_rect.c ****                 lv_area_t area;
 5065              		.loc 1 372 15 view .LVU1880
 5066 0128 73B1     		cbz	r3, .L295
 5067              	.LBB193:
 382:Drivers/lvgl/src/draw/sw/lv_draw_sw_rect.c ****                 area.y1 = coords->y1;
 5068              		.loc 1 382 17 is_stmt 1 view .LVU1881
 383:Drivers/lvgl/src/draw/sw/lv_draw_sw_rect.c ****                 area.y2 = area.y1 + header.h - 1;
 5069              		.loc 1 383 17 view .LVU1882
 383:Drivers/lvgl/src/draw/sw/lv_draw_sw_rect.c ****                 area.y2 = area.y1 + header.h - 1;
 5070              		.loc 1 383 33 is_stmt 0 view .LVU1883
ARM GAS  /var/folders/0z/tsy30v1j4xl4_7kw94k978ww0000gn/T//cc0noGMx.s 			page 148


 5071 012a B5F90230 		ldrsh	r3, [r5, #2]
 383:Drivers/lvgl/src/draw/sw/lv_draw_sw_rect.c ****                 area.y2 = area.y1 + header.h - 1;
 5072              		.loc 1 383 25 view .LVU1884
 5073 012e ADF81A30 		strh	r3, [sp, #26]	@ movhi
 384:Drivers/lvgl/src/draw/sw/lv_draw_sw_rect.c **** 
 5074              		.loc 1 384 17 is_stmt 1 view .LVU1885
 384:Drivers/lvgl/src/draw/sw/lv_draw_sw_rect.c **** 
 5075              		.loc 1 384 43 is_stmt 0 view .LVU1886
 5076 0132 BDF81620 		ldrh	r2, [sp, #22]
 5077 0136 C2F34A12 		ubfx	r2, r2, #5, #11
 384:Drivers/lvgl/src/draw/sw/lv_draw_sw_rect.c **** 
 5078              		.loc 1 384 35 view .LVU1887
 5079 013a 12FA83F3 		uxtah	r3, r2, r3
 5080 013e 9BB2     		uxth	r3, r3
 384:Drivers/lvgl/src/draw/sw/lv_draw_sw_rect.c **** 
 5081              		.loc 1 384 46 view .LVU1888
 5082 0140 013B     		subs	r3, r3, #1
 384:Drivers/lvgl/src/draw/sw/lv_draw_sw_rect.c **** 
 5083              		.loc 1 384 25 view .LVU1889
 5084 0142 ADF81E30 		strh	r3, [sp, #30]	@ movhi
 386:Drivers/lvgl/src/draw/sw/lv_draw_sw_rect.c **** 
 5085              		.loc 1 386 17 is_stmt 1 view .LVU1890
 5086 0146 64E0     		b	.L283
 5087              	.L295:
 386:Drivers/lvgl/src/draw/sw/lv_draw_sw_rect.c **** 
 5088              		.loc 1 386 17 is_stmt 0 view .LVU1891
 5089              	.LBE193:
 5090              	.LBB194:
 373:Drivers/lvgl/src/draw/sw/lv_draw_sw_rect.c ****                 area.x1 = coords->x1 + lv_area_get_width(coords) / 2 - header.w / 2;
 5091              		.loc 1 373 17 is_stmt 1 view .LVU1892
 374:Drivers/lvgl/src/draw/sw/lv_draw_sw_rect.c ****                 area.y1 = coords->y1 + lv_area_get_height(coords) / 2 - header.h / 2;
 5092              		.loc 1 374 17 view .LVU1893
 374:Drivers/lvgl/src/draw/sw/lv_draw_sw_rect.c ****                 area.y1 = coords->y1 + lv_area_get_height(coords) / 2 - header.h / 2;
 5093              		.loc 1 374 33 is_stmt 0 view .LVU1894
 5094 0148 2A88     		ldrh	r2, [r5]
 5095              	.LVL472:
 5096              	.LBB195:
 5097              	.LBI195:
 123:Drivers/lvgl/src/draw/sw/../../misc/lv_area.h **** {
 5098              		.loc 2 123 26 is_stmt 1 view .LVU1895
 5099              	.LBB196:
 125:Drivers/lvgl/src/draw/sw/../../misc/lv_area.h **** }
 5100              		.loc 2 125 5 view .LVU1896
 125:Drivers/lvgl/src/draw/sw/../../misc/lv_area.h **** }
 5101              		.loc 2 125 31 is_stmt 0 view .LVU1897
 5102 014a AB88     		ldrh	r3, [r5, #4]
 125:Drivers/lvgl/src/draw/sw/../../misc/lv_area.h **** }
 5103              		.loc 2 125 36 view .LVU1898
 5104 014c 9B1A     		subs	r3, r3, r2
 5105 014e 9BB2     		uxth	r3, r3
 125:Drivers/lvgl/src/draw/sw/../../misc/lv_area.h **** }
 5106              		.loc 2 125 49 view .LVU1899
 5107 0150 0133     		adds	r3, r3, #1
 5108              	.LVL473:
 125:Drivers/lvgl/src/draw/sw/../../misc/lv_area.h **** }
 5109              		.loc 2 125 49 view .LVU1900
 5110              	.LBE196:
ARM GAS  /var/folders/0z/tsy30v1j4xl4_7kw94k978ww0000gn/T//cc0noGMx.s 			page 149


 5111              	.LBE195:
 374:Drivers/lvgl/src/draw/sw/lv_draw_sw_rect.c ****                 area.y1 = coords->y1 + lv_area_get_height(coords) / 2 - header.h / 2;
 5112              		.loc 1 374 38 view .LVU1901
 5113 0152 C3F3C031 		ubfx	r1, r3, #15, #1
 5114 0156 01FA83F3 		sxtah	r3, r1, r3
 5115 015a 02EB6302 		add	r2, r2, r3, asr #1
 374:Drivers/lvgl/src/draw/sw/lv_draw_sw_rect.c ****                 area.y1 = coords->y1 + lv_area_get_height(coords) / 2 - header.h / 2;
 5116              		.loc 1 374 78 view .LVU1902
 5117 015e 059B     		ldr	r3, [sp, #20]
 5118 0160 C3F38A20 		ubfx	r0, r3, #10, #11
 374:Drivers/lvgl/src/draw/sw/lv_draw_sw_rect.c ****                 area.y1 = coords->y1 + lv_area_get_height(coords) / 2 - header.h / 2;
 5119              		.loc 1 374 81 view .LVU1903
 5120 0164 C3F3C923 		ubfx	r3, r3, #11, #10
 5121 0168 5B42     		rsbs	r3, r3, #0
 374:Drivers/lvgl/src/draw/sw/lv_draw_sw_rect.c ****                 area.y1 = coords->y1 + lv_area_get_height(coords) / 2 - header.h / 2;
 5122              		.loc 1 374 70 view .LVU1904
 5123 016a 13FA82F2 		uxtah	r2, r3, r2
 374:Drivers/lvgl/src/draw/sw/lv_draw_sw_rect.c ****                 area.y1 = coords->y1 + lv_area_get_height(coords) / 2 - header.h / 2;
 5124              		.loc 1 374 25 view .LVU1905
 5125 016e ADF81820 		strh	r2, [sp, #24]	@ movhi
 375:Drivers/lvgl/src/draw/sw/lv_draw_sw_rect.c ****                 area.x2 = area.x1 + header.w - 1;
 5126              		.loc 1 375 17 is_stmt 1 view .LVU1906
 375:Drivers/lvgl/src/draw/sw/lv_draw_sw_rect.c ****                 area.x2 = area.x1 + header.w - 1;
 5127              		.loc 1 375 33 is_stmt 0 view .LVU1907
 5128 0172 6B88     		ldrh	r3, [r5, #2]
 5129              	.LVL474:
 5130              	.LBB197:
 5131              	.LBI197:
 133:Drivers/lvgl/src/draw/sw/../../misc/lv_area.h **** {
 5132              		.loc 2 133 26 is_stmt 1 view .LVU1908
 5133              	.LBB198:
 5134              		.loc 2 135 5 view .LVU1909
 5135              		.loc 2 135 31 is_stmt 0 view .LVU1910
 5136 0174 E988     		ldrh	r1, [r5, #6]
 5137              		.loc 2 135 36 view .LVU1911
 5138 0176 C91A     		subs	r1, r1, r3
 5139 0178 89B2     		uxth	r1, r1
 5140              		.loc 2 135 49 view .LVU1912
 5141 017a 0131     		adds	r1, r1, #1
 5142              	.LVL475:
 5143              		.loc 2 135 49 view .LVU1913
 5144              	.LBE198:
 5145              	.LBE197:
 375:Drivers/lvgl/src/draw/sw/lv_draw_sw_rect.c ****                 area.x2 = area.x1 + header.w - 1;
 5146              		.loc 1 375 38 view .LVU1914
 5147 017c C1F3C035 		ubfx	r5, r1, #15, #1
 5148              	.LVL476:
 375:Drivers/lvgl/src/draw/sw/lv_draw_sw_rect.c ****                 area.x2 = area.x1 + header.w - 1;
 5149              		.loc 1 375 38 view .LVU1915
 5150 0180 05FA81F1 		sxtah	r1, r5, r1
 5151 0184 03EB6103 		add	r3, r3, r1, asr #1
 375:Drivers/lvgl/src/draw/sw/lv_draw_sw_rect.c ****                 area.x2 = area.x1 + header.w - 1;
 5152              		.loc 1 375 79 view .LVU1916
 5153 0188 BDF81610 		ldrh	r1, [sp, #22]
 5154 018c C1F34A15 		ubfx	r5, r1, #5, #11
 375:Drivers/lvgl/src/draw/sw/lv_draw_sw_rect.c ****                 area.x2 = area.x1 + header.w - 1;
 5155              		.loc 1 375 82 view .LVU1917
ARM GAS  /var/folders/0z/tsy30v1j4xl4_7kw94k978ww0000gn/T//cc0noGMx.s 			page 150


 5156 0190 C1F38911 		ubfx	r1, r1, #6, #10
 5157 0194 4942     		rsbs	r1, r1, #0
 375:Drivers/lvgl/src/draw/sw/lv_draw_sw_rect.c ****                 area.x2 = area.x1 + header.w - 1;
 5158              		.loc 1 375 71 view .LVU1918
 5159 0196 11FA83F3 		uxtah	r3, r1, r3
 375:Drivers/lvgl/src/draw/sw/lv_draw_sw_rect.c ****                 area.x2 = area.x1 + header.w - 1;
 5160              		.loc 1 375 25 view .LVU1919
 5161 019a ADF81A30 		strh	r3, [sp, #26]	@ movhi
 376:Drivers/lvgl/src/draw/sw/lv_draw_sw_rect.c ****                 area.y2 = area.y1 + header.h - 1;
 5162              		.loc 1 376 17 is_stmt 1 view .LVU1920
 376:Drivers/lvgl/src/draw/sw/lv_draw_sw_rect.c ****                 area.y2 = area.y1 + header.h - 1;
 5163              		.loc 1 376 35 is_stmt 0 view .LVU1921
 5164 019e 10FA82F2 		uxtah	r2, r0, r2
 5165 01a2 92B2     		uxth	r2, r2
 376:Drivers/lvgl/src/draw/sw/lv_draw_sw_rect.c ****                 area.y2 = area.y1 + header.h - 1;
 5166              		.loc 1 376 46 view .LVU1922
 5167 01a4 013A     		subs	r2, r2, #1
 376:Drivers/lvgl/src/draw/sw/lv_draw_sw_rect.c ****                 area.y2 = area.y1 + header.h - 1;
 5168              		.loc 1 376 25 view .LVU1923
 5169 01a6 ADF81C20 		strh	r2, [sp, #28]	@ movhi
 377:Drivers/lvgl/src/draw/sw/lv_draw_sw_rect.c **** 
 5170              		.loc 1 377 17 is_stmt 1 view .LVU1924
 377:Drivers/lvgl/src/draw/sw/lv_draw_sw_rect.c **** 
 5171              		.loc 1 377 35 is_stmt 0 view .LVU1925
 5172 01aa 15FA83F3 		uxtah	r3, r5, r3
 5173 01ae 9BB2     		uxth	r3, r3
 377:Drivers/lvgl/src/draw/sw/lv_draw_sw_rect.c **** 
 5174              		.loc 1 377 46 view .LVU1926
 5175 01b0 013B     		subs	r3, r3, #1
 377:Drivers/lvgl/src/draw/sw/lv_draw_sw_rect.c **** 
 5176              		.loc 1 377 25 view .LVU1927
 5177 01b2 ADF81E30 		strh	r3, [sp, #30]	@ movhi
 379:Drivers/lvgl/src/draw/sw/lv_draw_sw_rect.c ****             }
 5178              		.loc 1 379 17 is_stmt 1 view .LVU1928
 5179 01b6 2369     		ldr	r3, [r4, #16]
 5180 01b8 06AA     		add	r2, sp, #24
 5181 01ba 08A9     		add	r1, sp, #32
 5182 01bc 3046     		mov	r0, r6
 5183 01be FFF7FEFF 		bl	lv_draw_img
 5184              	.LVL477:
 5185              	.LBE194:
 5186 01c2 42E7     		b	.L279
 5187              	.LVL478:
 5188              	.L285:
 5189              	.LBB199:
 391:Drivers/lvgl/src/draw/sw/lv_draw_sw_rect.c ****                     }
 5190              		.loc 1 391 25 discriminator 2 view .LVU1929
 5191 01c4 2369     		ldr	r3, [r4, #16]
 5192 01c6 06AA     		add	r2, sp, #24
 5193 01c8 08A9     		add	r1, sp, #32
 5194 01ca 3046     		mov	r0, r6
 5195 01cc FFF7FEFF 		bl	lv_draw_img
 5196              	.LVL479:
 390:Drivers/lvgl/src/draw/sw/lv_draw_sw_rect.c ****                         lv_draw_img(draw_ctx, &img_dsc, &area, dsc->bg_img_src);
 5197              		.loc 1 390 69 discriminator 2 view .LVU1930
 390:Drivers/lvgl/src/draw/sw/lv_draw_sw_rect.c ****                         lv_draw_img(draw_ctx, &img_dsc, &area, dsc->bg_img_src);
 5198              		.loc 1 390 67 is_stmt 0 discriminator 2 view .LVU1931
ARM GAS  /var/folders/0z/tsy30v1j4xl4_7kw94k978ww0000gn/T//cc0noGMx.s 			page 151


 5199 01d0 059B     		ldr	r3, [sp, #20]
 5200 01d2 C3F38A23 		ubfx	r3, r3, #10, #11
 390:Drivers/lvgl/src/draw/sw/lv_draw_sw_rect.c ****                         lv_draw_img(draw_ctx, &img_dsc, &area, dsc->bg_img_src);
 5201              		.loc 1 390 58 discriminator 2 view .LVU1932
 5202 01d6 BDF81820 		ldrh	r2, [sp, #24]
 5203 01da 1A44     		add	r2, r2, r3
 5204 01dc ADF81820 		strh	r2, [sp, #24]	@ movhi
 390:Drivers/lvgl/src/draw/sw/lv_draw_sw_rect.c ****                         lv_draw_img(draw_ctx, &img_dsc, &area, dsc->bg_img_src);
 5205              		.loc 1 390 79 discriminator 2 view .LVU1933
 5206 01e0 BDF81C20 		ldrh	r2, [sp, #28]
 5207 01e4 1344     		add	r3, r3, r2
 5208 01e6 ADF81C30 		strh	r3, [sp, #28]	@ movhi
 5209              	.L284:
 390:Drivers/lvgl/src/draw/sw/lv_draw_sw_rect.c ****                         lv_draw_img(draw_ctx, &img_dsc, &area, dsc->bg_img_src);
 5210              		.loc 1 390 35 is_stmt 1 discriminator 1 view .LVU1934
 390:Drivers/lvgl/src/draw/sw/lv_draw_sw_rect.c ****                         lv_draw_img(draw_ctx, &img_dsc, &area, dsc->bg_img_src);
 5211              		.loc 1 390 31 is_stmt 0 discriminator 1 view .LVU1935
 5212 01ea BDF91820 		ldrsh	r2, [sp, #24]
 390:Drivers/lvgl/src/draw/sw/lv_draw_sw_rect.c ****                         lv_draw_img(draw_ctx, &img_dsc, &area, dsc->bg_img_src);
 5213              		.loc 1 390 44 discriminator 1 view .LVU1936
 5214 01ee B5F90430 		ldrsh	r3, [r5, #4]
 390:Drivers/lvgl/src/draw/sw/lv_draw_sw_rect.c ****                         lv_draw_img(draw_ctx, &img_dsc, &area, dsc->bg_img_src);
 5215              		.loc 1 390 35 discriminator 1 view .LVU1937
 5216 01f2 9A42     		cmp	r2, r3
 5217 01f4 E6DD     		ble	.L285
 386:Drivers/lvgl/src/draw/sw/lv_draw_sw_rect.c **** 
 5218              		.loc 1 386 65 is_stmt 1 view .LVU1938
 386:Drivers/lvgl/src/draw/sw/lv_draw_sw_rect.c **** 
 5219              		.loc 1 386 63 is_stmt 0 view .LVU1939
 5220 01f6 BDF81630 		ldrh	r3, [sp, #22]
 5221 01fa C3F34A13 		ubfx	r3, r3, #5, #11
 386:Drivers/lvgl/src/draw/sw/lv_draw_sw_rect.c **** 
 5222              		.loc 1 386 54 view .LVU1940
 5223 01fe BDF81A20 		ldrh	r2, [sp, #26]
 5224 0202 1A44     		add	r2, r2, r3
 5225 0204 ADF81A20 		strh	r2, [sp, #26]	@ movhi
 386:Drivers/lvgl/src/draw/sw/lv_draw_sw_rect.c **** 
 5226              		.loc 1 386 75 view .LVU1941
 5227 0208 BDF81E20 		ldrh	r2, [sp, #30]
 5228 020c 1344     		add	r3, r3, r2
 5229 020e ADF81E30 		strh	r3, [sp, #30]	@ movhi
 5230              	.L283:
 386:Drivers/lvgl/src/draw/sw/lv_draw_sw_rect.c **** 
 5231              		.loc 1 386 31 is_stmt 1 discriminator 1 view .LVU1942
 386:Drivers/lvgl/src/draw/sw/lv_draw_sw_rect.c **** 
 5232              		.loc 1 386 27 is_stmt 0 discriminator 1 view .LVU1943
 5233 0212 BDF91A20 		ldrsh	r2, [sp, #26]
 386:Drivers/lvgl/src/draw/sw/lv_draw_sw_rect.c **** 
 5234              		.loc 1 386 40 discriminator 1 view .LVU1944
 5235 0216 B5F90630 		ldrsh	r3, [r5, #6]
 386:Drivers/lvgl/src/draw/sw/lv_draw_sw_rect.c **** 
 5236              		.loc 1 386 31 discriminator 1 view .LVU1945
 5237 021a 9A42     		cmp	r2, r3
 5238 021c 3FF715AF 		bgt	.L279
 388:Drivers/lvgl/src/draw/sw/lv_draw_sw_rect.c ****                     area.x2 = area.x1 + header.w - 1;
 5239              		.loc 1 388 21 is_stmt 1 view .LVU1946
 388:Drivers/lvgl/src/draw/sw/lv_draw_sw_rect.c ****                     area.x2 = area.x1 + header.w - 1;
ARM GAS  /var/folders/0z/tsy30v1j4xl4_7kw94k978ww0000gn/T//cc0noGMx.s 			page 152


 5240              		.loc 1 388 37 is_stmt 0 view .LVU1947
 5241 0220 B5F90030 		ldrsh	r3, [r5]
 388:Drivers/lvgl/src/draw/sw/lv_draw_sw_rect.c ****                     area.x2 = area.x1 + header.w - 1;
 5242              		.loc 1 388 29 view .LVU1948
 5243 0224 ADF81830 		strh	r3, [sp, #24]	@ movhi
 389:Drivers/lvgl/src/draw/sw/lv_draw_sw_rect.c ****                     for(; area.x1 <= coords->x2; area.x1 += header.w, area.x2 += header.w) {
 5244              		.loc 1 389 21 is_stmt 1 view .LVU1949
 389:Drivers/lvgl/src/draw/sw/lv_draw_sw_rect.c ****                     for(; area.x1 <= coords->x2; area.x1 += header.w, area.x2 += header.w) {
 5245              		.loc 1 389 47 is_stmt 0 view .LVU1950
 5246 0228 059A     		ldr	r2, [sp, #20]
 5247 022a C2F38A22 		ubfx	r2, r2, #10, #11
 389:Drivers/lvgl/src/draw/sw/lv_draw_sw_rect.c ****                     for(; area.x1 <= coords->x2; area.x1 += header.w, area.x2 += header.w) {
 5248              		.loc 1 389 39 view .LVU1951
 5249 022e 12FA83F3 		uxtah	r3, r2, r3
 5250 0232 9BB2     		uxth	r3, r3
 389:Drivers/lvgl/src/draw/sw/lv_draw_sw_rect.c ****                     for(; area.x1 <= coords->x2; area.x1 += header.w, area.x2 += header.w) {
 5251              		.loc 1 389 50 view .LVU1952
 5252 0234 013B     		subs	r3, r3, #1
 389:Drivers/lvgl/src/draw/sw/lv_draw_sw_rect.c ****                     for(; area.x1 <= coords->x2; area.x1 += header.w, area.x2 += header.w) {
 5253              		.loc 1 389 29 view .LVU1953
 5254 0236 ADF81C30 		strh	r3, [sp, #28]	@ movhi
 390:Drivers/lvgl/src/draw/sw/lv_draw_sw_rect.c ****                         lv_draw_img(draw_ctx, &img_dsc, &area, dsc->bg_img_src);
 5255              		.loc 1 390 21 is_stmt 1 view .LVU1954
 5256 023a D6E7     		b	.L284
 5257              	.LVL480:
 5258              	.L289:
 5259              		.cfi_def_cfa_offset 0
 5260              		.cfi_restore 4
 5261              		.cfi_restore 5
 5262              		.cfi_restore 6
 5263              		.cfi_restore 7
 5264              		.cfi_restore 8
 5265              		.cfi_restore 14
 390:Drivers/lvgl/src/draw/sw/lv_draw_sw_rect.c ****                         lv_draw_img(draw_ctx, &img_dsc, &area, dsc->bg_img_src);
 5266              		.loc 1 390 21 is_stmt 0 view .LVU1955
 5267 023c 7047     		bx	lr
 5268              	.LBE199:
 5269              	.LBE192:
 5270              	.LBE205:
 5271              		.cfi_endproc
 5272              	.LFE164:
 5274              		.section	.text.lv_draw_sw_bg,"ax",%progbits
 5275              		.align	1
 5276              		.global	lv_draw_sw_bg
 5277              		.syntax unified
 5278              		.thumb
 5279              		.thumb_func
 5281              	lv_draw_sw_bg:
 5282              	.LVL481:
 5283              	.LFB162:
  86:Drivers/lvgl/src/draw/sw/lv_draw_sw_rect.c **** #if LV_COLOR_SCREEN_TRANSP && LV_COLOR_DEPTH == 32
 5284              		.loc 1 86 1 is_stmt 1 view -0
 5285              		.cfi_startproc
 5286              		@ args = 0, pretend = 0, frame = 0
 5287              		@ frame_needed = 0, uses_anonymous_args = 0
  86:Drivers/lvgl/src/draw/sw/lv_draw_sw_rect.c **** #if LV_COLOR_SCREEN_TRANSP && LV_COLOR_DEPTH == 32
 5288              		.loc 1 86 1 is_stmt 0 view .LVU1957
ARM GAS  /var/folders/0z/tsy30v1j4xl4_7kw94k978ww0000gn/T//cc0noGMx.s 			page 153


 5289 0000 70B5     		push	{r4, r5, r6, lr}
 5290              		.cfi_def_cfa_offset 16
 5291              		.cfi_offset 4, -16
 5292              		.cfi_offset 5, -12
 5293              		.cfi_offset 6, -8
 5294              		.cfi_offset 14, -4
 5295 0002 0446     		mov	r4, r0
 5296 0004 0D46     		mov	r5, r1
 5297 0006 1646     		mov	r6, r2
  91:Drivers/lvgl/src/draw/sw/lv_draw_sw_rect.c ****     draw_bg_img(draw_ctx, dsc, coords);
 5298              		.loc 1 91 5 is_stmt 1 view .LVU1958
 5299 0008 FFF7FEFF 		bl	draw_bg
 5300              	.LVL482:
  92:Drivers/lvgl/src/draw/sw/lv_draw_sw_rect.c **** }
 5301              		.loc 1 92 5 view .LVU1959
 5302 000c 3246     		mov	r2, r6
 5303 000e 2946     		mov	r1, r5
 5304 0010 2046     		mov	r0, r4
 5305 0012 FFF7FEFF 		bl	draw_bg_img
 5306              	.LVL483:
  93:Drivers/lvgl/src/draw/sw/lv_draw_sw_rect.c **** 
 5307              		.loc 1 93 1 is_stmt 0 view .LVU1960
 5308 0016 70BD     		pop	{r4, r5, r6, pc}
  93:Drivers/lvgl/src/draw/sw/lv_draw_sw_rect.c **** 
 5309              		.loc 1 93 1 view .LVU1961
 5310              		.cfi_endproc
 5311              	.LFE162:
 5313              		.section	.text.draw_border_generic,"ax",%progbits
 5314              		.align	1
 5315              		.global	draw_border_generic
 5316              		.syntax unified
 5317              		.thumb
 5318              		.thumb_func
 5320              	draw_border_generic:
 5321              	.LVL484:
 5322              	.LFB170:
1157:Drivers/lvgl/src/draw/sw/lv_draw_sw_rect.c ****     opa = opa >= LV_OPA_COVER ? LV_OPA_COVER : opa;
 5323              		.loc 1 1157 1 is_stmt 1 view -0
 5324              		.cfi_startproc
 5325              		@ args = 16, pretend = 0, frame = 160
 5326              		@ frame_needed = 0, uses_anonymous_args = 0
1157:Drivers/lvgl/src/draw/sw/lv_draw_sw_rect.c ****     opa = opa >= LV_OPA_COVER ? LV_OPA_COVER : opa;
 5327              		.loc 1 1157 1 is_stmt 0 view .LVU1963
 5328 0000 2DE9F04F 		push	{r4, r5, r6, r7, r8, r9, r10, fp, lr}
 5329              		.cfi_def_cfa_offset 36
 5330              		.cfi_offset 4, -36
 5331              		.cfi_offset 5, -32
 5332              		.cfi_offset 6, -28
 5333              		.cfi_offset 7, -24
 5334              		.cfi_offset 8, -20
 5335              		.cfi_offset 9, -16
 5336              		.cfi_offset 10, -12
 5337              		.cfi_offset 11, -8
 5338              		.cfi_offset 14, -4
 5339 0004 ABB0     		sub	sp, sp, #172
 5340              		.cfi_def_cfa_offset 208
 5341 0006 0646     		mov	r6, r0
ARM GAS  /var/folders/0z/tsy30v1j4xl4_7kw94k978ww0000gn/T//cc0noGMx.s 			page 154


 5342 0008 0C46     		mov	r4, r1
 5343 000a 0392     		str	r2, [sp, #12]
 5344 000c 1F46     		mov	r7, r3
 5345 000e BDF9D090 		ldrsh	r9, [sp, #208]
 5346 0012 9DF8D8A0 		ldrb	r10, [sp, #216]	@ zero_extendqisi2
1158:Drivers/lvgl/src/draw/sw/lv_draw_sw_rect.c **** 
 5347              		.loc 1 1158 5 is_stmt 1 view .LVU1964
 5348              	.LVL485:
1160:Drivers/lvgl/src/draw/sw/lv_draw_sw_rect.c **** 
 5349              		.loc 1 1160 5 view .LVU1965
1160:Drivers/lvgl/src/draw/sw/lv_draw_sw_rect.c **** 
 5350              		.loc 1 1160 21 is_stmt 0 view .LVU1966
 5351 0016 0846     		mov	r0, r1
 5352              	.LVL486:
1160:Drivers/lvgl/src/draw/sw/lv_draw_sw_rect.c **** 
 5353              		.loc 1 1160 21 view .LVU1967
 5354 0018 FFF7FEFF 		bl	lv_draw_mask_is_any
 5355              	.LVL487:
1164:Drivers/lvgl/src/draw/sw/lv_draw_sw_rect.c ****         draw_border_simple(draw_ctx, outer_area, inner_area, color, opa);
 5356              		.loc 1 1164 5 is_stmt 1 view .LVU1968
1164:Drivers/lvgl/src/draw/sw/lv_draw_sw_rect.c ****         draw_border_simple(draw_ctx, outer_area, inner_area, color, opa);
 5357              		.loc 1 1164 7 is_stmt 0 view .LVU1969
 5358 001c 0690     		str	r0, [sp, #24]
 5359 001e 18B9     		cbnz	r0, .L299
1164:Drivers/lvgl/src/draw/sw/lv_draw_sw_rect.c ****         draw_border_simple(draw_ctx, outer_area, inner_area, color, opa);
 5360              		.loc 1 1164 18 discriminator 1 view .LVU1970
 5361 0020 17B9     		cbnz	r7, .L299
1164:Drivers/lvgl/src/draw/sw/lv_draw_sw_rect.c ****         draw_border_simple(draw_ctx, outer_area, inner_area, color, opa);
 5362              		.loc 1 1164 31 discriminator 2 view .LVU1971
 5363 0022 B9F1000F 		cmp	r9, #0
 5364 0026 09D0     		beq	.L341
 5365              	.L299:
1171:Drivers/lvgl/src/draw/sw/lv_draw_sw_rect.c ****     if(!_lv_area_intersect(&draw_area, outer_area, draw_ctx->clip_area)) return;
 5366              		.loc 1 1171 5 is_stmt 1 view .LVU1972
1172:Drivers/lvgl/src/draw/sw/lv_draw_sw_rect.c ****     int32_t draw_area_w = lv_area_get_width(&draw_area);
 5367              		.loc 1 1172 5 view .LVU1973
1172:Drivers/lvgl/src/draw/sw/lv_draw_sw_rect.c ****     int32_t draw_area_w = lv_area_get_width(&draw_area);
 5368              		.loc 1 1172 9 is_stmt 0 view .LVU1974
 5369 0028 B268     		ldr	r2, [r6, #8]
 5370 002a 2146     		mov	r1, r4
 5371 002c 28A8     		add	r0, sp, #160
 5372              	.LVL488:
1172:Drivers/lvgl/src/draw/sw/lv_draw_sw_rect.c ****     int32_t draw_area_w = lv_area_get_width(&draw_area);
 5373              		.loc 1 1172 9 view .LVU1975
 5374 002e FFF7FEFF 		bl	_lv_area_intersect
 5375              	.LVL489:
1172:Drivers/lvgl/src/draw/sw/lv_draw_sw_rect.c ****     int32_t draw_area_w = lv_area_get_width(&draw_area);
 5376              		.loc 1 1172 7 view .LVU1976
 5377 0032 0590     		str	r0, [sp, #20]
 5378 0034 60B9     		cbnz	r0, .L342
 5379              	.LVL490:
 5380              	.L298:
1387:Drivers/lvgl/src/draw/sw/lv_draw_sw_rect.c **** static void draw_border_simple(lv_draw_ctx_t * draw_ctx, const lv_area_t * outer_area, const lv_are
 5381              		.loc 1 1387 1 view .LVU1977
 5382 0036 2BB0     		add	sp, sp, #172
 5383              		.cfi_remember_state
 5384              		.cfi_def_cfa_offset 36
ARM GAS  /var/folders/0z/tsy30v1j4xl4_7kw94k978ww0000gn/T//cc0noGMx.s 			page 155


 5385              		@ sp needed
 5386 0038 BDE8F08F 		pop	{r4, r5, r6, r7, r8, r9, r10, fp, pc}
 5387              	.LVL491:
 5388              	.L341:
 5389              		.cfi_restore_state
1165:Drivers/lvgl/src/draw/sw/lv_draw_sw_rect.c ****         return;
 5390              		.loc 1 1165 9 is_stmt 1 view .LVU1978
 5391 003c CDF800A0 		str	r10, [sp]
 5392 0040 BDF8D430 		ldrh	r3, [sp, #212]
 5393 0044 039A     		ldr	r2, [sp, #12]
 5394 0046 2146     		mov	r1, r4
 5395 0048 3046     		mov	r0, r6
 5396              	.LVL492:
1165:Drivers/lvgl/src/draw/sw/lv_draw_sw_rect.c ****         return;
 5397              		.loc 1 1165 9 is_stmt 0 view .LVU1979
 5398 004a FFF7FEFF 		bl	draw_border_simple
 5399              	.LVL493:
1166:Drivers/lvgl/src/draw/sw/lv_draw_sw_rect.c ****     }
 5400              		.loc 1 1166 9 is_stmt 1 view .LVU1980
 5401 004e F2E7     		b	.L298
 5402              	.L342:
1173:Drivers/lvgl/src/draw/sw/lv_draw_sw_rect.c **** 
 5403              		.loc 1 1173 5 view .LVU1981
 5404              	.LVL494:
 5405              	.LBB206:
 5406              	.LBI206:
 123:Drivers/lvgl/src/draw/sw/../../misc/lv_area.h **** {
 5407              		.loc 2 123 26 view .LVU1982
 5408              	.LBB207:
 125:Drivers/lvgl/src/draw/sw/../../misc/lv_area.h **** }
 5409              		.loc 2 125 5 view .LVU1983
 125:Drivers/lvgl/src/draw/sw/../../misc/lv_area.h **** }
 5410              		.loc 2 125 31 is_stmt 0 view .LVU1984
 5411 0050 BDF8A450 		ldrh	r5, [sp, #164]
 125:Drivers/lvgl/src/draw/sw/../../misc/lv_area.h **** }
 5412              		.loc 2 125 44 view .LVU1985
 5413 0054 BDF8A030 		ldrh	r3, [sp, #160]
 125:Drivers/lvgl/src/draw/sw/../../misc/lv_area.h **** }
 5414              		.loc 2 125 36 view .LVU1986
 5415 0058 ED1A     		subs	r5, r5, r3
 5416 005a ADB2     		uxth	r5, r5
 125:Drivers/lvgl/src/draw/sw/../../misc/lv_area.h **** }
 5417              		.loc 2 125 49 view .LVU1987
 5418 005c 0135     		adds	r5, r5, #1
 125:Drivers/lvgl/src/draw/sw/../../misc/lv_area.h **** }
 5419              		.loc 2 125 12 view .LVU1988
 5420 005e 2DB2     		sxth	r5, r5
 5421              	.LVL495:
 125:Drivers/lvgl/src/draw/sw/../../misc/lv_area.h **** }
 5422              		.loc 2 125 12 view .LVU1989
 5423              	.LBE207:
 5424              	.LBE206:
1175:Drivers/lvgl/src/draw/sw/lv_draw_sw_rect.c ****     lv_memset_00(&blend_dsc, sizeof(blend_dsc));
 5425              		.loc 1 1175 5 is_stmt 1 view .LVU1990
1176:Drivers/lvgl/src/draw/sw/lv_draw_sw_rect.c ****     blend_dsc.mask_buf = lv_mem_buf_get(draw_area_w);;
 5426              		.loc 1 1176 5 view .LVU1991
 5427 0060 1C21     		movs	r1, #28
ARM GAS  /var/folders/0z/tsy30v1j4xl4_7kw94k978ww0000gn/T//cc0noGMx.s 			page 156


 5428 0062 21A8     		add	r0, sp, #132
 5429 0064 FFF7FEFF 		bl	lv_memset_00
 5430              	.LVL496:
1177:Drivers/lvgl/src/draw/sw/lv_draw_sw_rect.c **** 
 5431              		.loc 1 1177 5 view .LVU1992
1177:Drivers/lvgl/src/draw/sw/lv_draw_sw_rect.c **** 
 5432              		.loc 1 1177 26 is_stmt 0 view .LVU1993
 5433 0068 2846     		mov	r0, r5
 5434 006a FFF7FEFF 		bl	lv_mem_buf_get
 5435              	.LVL497:
1177:Drivers/lvgl/src/draw/sw/lv_draw_sw_rect.c **** 
 5436              		.loc 1 1177 24 view .LVU1994
 5437 006e 2490     		str	r0, [sp, #144]
1177:Drivers/lvgl/src/draw/sw/lv_draw_sw_rect.c **** 
 5438              		.loc 1 1177 54 is_stmt 1 view .LVU1995
1181:Drivers/lvgl/src/draw/sw/lv_draw_sw_rect.c ****     lv_draw_mask_radius_param_t mask_rout_param;
 5439              		.loc 1 1181 5 view .LVU1996
 5440              	.LVL498:
1182:Drivers/lvgl/src/draw/sw/lv_draw_sw_rect.c ****     if(rout > 0) {
 5441              		.loc 1 1182 5 view .LVU1997
1183:Drivers/lvgl/src/draw/sw/lv_draw_sw_rect.c ****         lv_draw_mask_radius_init(&mask_rout_param, outer_area, rout, false);
 5442              		.loc 1 1183 5 view .LVU1998
1183:Drivers/lvgl/src/draw/sw/lv_draw_sw_rect.c ****         lv_draw_mask_radius_init(&mask_rout_param, outer_area, rout, false);
 5443              		.loc 1 1183 7 is_stmt 0 view .LVU1999
 5444 0070 002F     		cmp	r7, #0
 5445 0072 00F3A180 		bgt	.L343
1181:Drivers/lvgl/src/draw/sw/lv_draw_sw_rect.c ****     lv_draw_mask_radius_param_t mask_rout_param;
 5446              		.loc 1 1181 13 view .LVU2000
 5447 0076 4FF0FF33 		mov	r3, #-1
 5448 007a 0D93     		str	r3, [sp, #52]
 5449              	.LVL499:
 5450              	.L301:
1189:Drivers/lvgl/src/draw/sw/lv_draw_sw_rect.c ****     lv_draw_mask_radius_init(&mask_rin_param, inner_area, rin, true);
 5451              		.loc 1 1189 5 is_stmt 1 view .LVU2001
1190:Drivers/lvgl/src/draw/sw/lv_draw_sw_rect.c ****     int16_t mask_rin_id = lv_draw_mask_add(&mask_rin_param, NULL);
 5452              		.loc 1 1190 5 view .LVU2002
 5453 007c 0123     		movs	r3, #1
 5454 007e 4A46     		mov	r2, r9
 5455 0080 DDF80C80 		ldr	r8, [sp, #12]
 5456 0084 4146     		mov	r1, r8
 5457 0086 15A8     		add	r0, sp, #84
 5458 0088 FFF7FEFF 		bl	lv_draw_mask_radius_init
 5459              	.LVL500:
1191:Drivers/lvgl/src/draw/sw/lv_draw_sw_rect.c **** 
 5460              		.loc 1 1191 5 view .LVU2003
1191:Drivers/lvgl/src/draw/sw/lv_draw_sw_rect.c **** 
 5461              		.loc 1 1191 27 is_stmt 0 view .LVU2004
 5462 008c 0021     		movs	r1, #0
 5463 008e 15A8     		add	r0, sp, #84
 5464 0090 FFF7FEFF 		bl	lv_draw_mask_add
 5465              	.LVL501:
 5466 0094 0C90     		str	r0, [sp, #48]
 5467              	.LVL502:
1193:Drivers/lvgl/src/draw/sw/lv_draw_sw_rect.c ****     lv_area_t blend_area;
 5468              		.loc 1 1193 5 is_stmt 1 view .LVU2005
1194:Drivers/lvgl/src/draw/sw/lv_draw_sw_rect.c ****     blend_dsc.blend_area = &blend_area;
 5469              		.loc 1 1194 5 view .LVU2006
ARM GAS  /var/folders/0z/tsy30v1j4xl4_7kw94k978ww0000gn/T//cc0noGMx.s 			page 157


1195:Drivers/lvgl/src/draw/sw/lv_draw_sw_rect.c ****     blend_dsc.mask_area = &blend_area;
 5470              		.loc 1 1195 5 view .LVU2007
1195:Drivers/lvgl/src/draw/sw/lv_draw_sw_rect.c ****     blend_dsc.mask_area = &blend_area;
 5471              		.loc 1 1195 26 is_stmt 0 view .LVU2008
 5472 0096 13AB     		add	r3, sp, #76
 5473 0098 2193     		str	r3, [sp, #132]
1196:Drivers/lvgl/src/draw/sw/lv_draw_sw_rect.c ****     blend_dsc.color = color;
 5474              		.loc 1 1196 5 is_stmt 1 view .LVU2009
1196:Drivers/lvgl/src/draw/sw/lv_draw_sw_rect.c ****     blend_dsc.color = color;
 5475              		.loc 1 1196 25 is_stmt 0 view .LVU2010
 5476 009a 2693     		str	r3, [sp, #152]
1197:Drivers/lvgl/src/draw/sw/lv_draw_sw_rect.c ****     blend_dsc.opa = opa;
 5477              		.loc 1 1197 5 is_stmt 1 view .LVU2011
1197:Drivers/lvgl/src/draw/sw/lv_draw_sw_rect.c ****     blend_dsc.opa = opa;
 5478              		.loc 1 1197 21 is_stmt 0 view .LVU2012
 5479 009c BDF8D430 		ldrh	r3, [sp, #212]
 5480 00a0 ADF88C30 		strh	r3, [sp, #140]	@ movhi
1198:Drivers/lvgl/src/draw/sw/lv_draw_sw_rect.c ****     blend_dsc.blend_mode = blend_mode;
 5481              		.loc 1 1198 5 is_stmt 1 view .LVU2013
1198:Drivers/lvgl/src/draw/sw/lv_draw_sw_rect.c ****     blend_dsc.blend_mode = blend_mode;
 5482              		.loc 1 1198 19 is_stmt 0 view .LVU2014
 5483 00a4 8DF89CA0 		strb	r10, [sp, #156]
1199:Drivers/lvgl/src/draw/sw/lv_draw_sw_rect.c **** 
 5484              		.loc 1 1199 5 is_stmt 1 view .LVU2015
1199:Drivers/lvgl/src/draw/sw/lv_draw_sw_rect.c **** 
 5485              		.loc 1 1199 26 is_stmt 0 view .LVU2016
 5486 00a8 9DF8DC30 		ldrb	r3, [sp, #220]	@ zero_extendqisi2
 5487 00ac 8DF89D30 		strb	r3, [sp, #157]
1202:Drivers/lvgl/src/draw/sw/lv_draw_sw_rect.c ****     core_area.x1 = LV_MAX(outer_area->x1 + rout, inner_area->x1);
 5488              		.loc 1 1202 5 is_stmt 1 view .LVU2017
1203:Drivers/lvgl/src/draw/sw/lv_draw_sw_rect.c ****     core_area.x2 = LV_MIN(outer_area->x2 - rout, inner_area->x2);
 5489              		.loc 1 1203 5 view .LVU2018
1203:Drivers/lvgl/src/draw/sw/lv_draw_sw_rect.c ****     core_area.x2 = LV_MIN(outer_area->x2 - rout, inner_area->x2);
 5490              		.loc 1 1203 20 is_stmt 0 view .LVU2019
 5491 00b0 B8F90010 		ldrsh	r1, [r8]
 5492 00b4 0791     		str	r1, [sp, #28]
 5493 00b6 B4F90030 		ldrsh	r3, [r4]
 5494 00ba 0893     		str	r3, [sp, #32]
 5495 00bc 3B44     		add	r3, r3, r7
 5496 00be 8B42     		cmp	r3, r1
 5497 00c0 B8BF     		it	lt
 5498 00c2 0B46     		movlt	r3, r1
1203:Drivers/lvgl/src/draw/sw/lv_draw_sw_rect.c ****     core_area.x2 = LV_MIN(outer_area->x2 - rout, inner_area->x2);
 5499              		.loc 1 1203 18 view .LVU2020
 5500 00c4 19B2     		sxth	r1, r3
 5501 00c6 0E91     		str	r1, [sp, #56]
 5502 00c8 ADF84410 		strh	r1, [sp, #68]	@ movhi
1204:Drivers/lvgl/src/draw/sw/lv_draw_sw_rect.c ****     core_area.y1 = LV_MAX(outer_area->y1 + rout, inner_area->y1);
 5503              		.loc 1 1204 5 is_stmt 1 view .LVU2021
1204:Drivers/lvgl/src/draw/sw/lv_draw_sw_rect.c ****     core_area.y1 = LV_MAX(outer_area->y1 + rout, inner_area->y1);
 5504              		.loc 1 1204 20 is_stmt 0 view .LVU2022
 5505 00cc B8F90400 		ldrsh	r0, [r8, #4]
 5506 00d0 0990     		str	r0, [sp, #36]
 5507 00d2 B4F90430 		ldrsh	r3, [r4, #4]
 5508 00d6 0A93     		str	r3, [sp, #40]
 5509 00d8 DB1B     		subs	r3, r3, r7
 5510 00da 8342     		cmp	r3, r0
ARM GAS  /var/folders/0z/tsy30v1j4xl4_7kw94k978ww0000gn/T//cc0noGMx.s 			page 158


 5511 00dc A8BF     		it	ge
 5512 00de 0346     		movge	r3, r0
1204:Drivers/lvgl/src/draw/sw/lv_draw_sw_rect.c ****     core_area.y1 = LV_MAX(outer_area->y1 + rout, inner_area->y1);
 5513              		.loc 1 1204 18 view .LVU2023
 5514 00e0 18B2     		sxth	r0, r3
 5515 00e2 0F90     		str	r0, [sp, #60]
 5516 00e4 ADF84800 		strh	r0, [sp, #72]	@ movhi
1205:Drivers/lvgl/src/draw/sw/lv_draw_sw_rect.c ****     core_area.y2 = LV_MIN(outer_area->y2 - rout, inner_area->y2);
 5517              		.loc 1 1205 5 is_stmt 1 view .LVU2024
1205:Drivers/lvgl/src/draw/sw/lv_draw_sw_rect.c ****     core_area.y2 = LV_MIN(outer_area->y2 - rout, inner_area->y2);
 5518              		.loc 1 1205 20 is_stmt 0 view .LVU2025
 5519 00e8 B8F902B0 		ldrsh	fp, [r8, #2]
 5520 00ec B4F902A0 		ldrsh	r10, [r4, #2]
 5521              	.LVL503:
1205:Drivers/lvgl/src/draw/sw/lv_draw_sw_rect.c ****     core_area.y2 = LV_MIN(outer_area->y2 - rout, inner_area->y2);
 5522              		.loc 1 1205 20 view .LVU2026
 5523 00f0 07EB0A09 		add	r9, r7, r10
 5524 00f4 D945     		cmp	r9, fp
 5525 00f6 B8BF     		it	lt
 5526 00f8 D946     		movlt	r9, fp
1205:Drivers/lvgl/src/draw/sw/lv_draw_sw_rect.c ****     core_area.y2 = LV_MIN(outer_area->y2 - rout, inner_area->y2);
 5527              		.loc 1 1205 18 view .LVU2027
 5528 00fa 0FFA89F9 		sxth	r9, r9
 5529 00fe ADF84690 		strh	r9, [sp, #70]	@ movhi
1206:Drivers/lvgl/src/draw/sw/lv_draw_sw_rect.c ****     lv_coord_t core_w = lv_area_get_width(&core_area);
 5530              		.loc 1 1206 5 is_stmt 1 view .LVU2028
1206:Drivers/lvgl/src/draw/sw/lv_draw_sw_rect.c ****     lv_coord_t core_w = lv_area_get_width(&core_area);
 5531              		.loc 1 1206 20 is_stmt 0 view .LVU2029
 5532 0102 B8F90630 		ldrsh	r3, [r8, #6]
 5533 0106 1A46     		mov	r2, r3
 5534 0108 0B93     		str	r3, [sp, #44]
 5535 010a B4F90680 		ldrsh	r8, [r4, #6]
 5536 010e A8EB0703 		sub	r3, r8, r7
 5537 0112 9342     		cmp	r3, r2
 5538 0114 A8BF     		it	ge
 5539 0116 1346     		movge	r3, r2
1206:Drivers/lvgl/src/draw/sw/lv_draw_sw_rect.c ****     lv_coord_t core_w = lv_area_get_width(&core_area);
 5540              		.loc 1 1206 18 view .LVU2030
 5541 0118 1BB2     		sxth	r3, r3
 5542 011a 0493     		str	r3, [sp, #16]
 5543 011c ADF84A30 		strh	r3, [sp, #74]	@ movhi
1207:Drivers/lvgl/src/draw/sw/lv_draw_sw_rect.c **** 
 5544              		.loc 1 1207 5 is_stmt 1 view .LVU2031
 5545              	.LVL504:
 5546              	.LBB208:
 5547              	.LBI208:
 123:Drivers/lvgl/src/draw/sw/../../misc/lv_area.h **** {
 5548              		.loc 2 123 26 view .LVU2032
 5549              	.LBB209:
 125:Drivers/lvgl/src/draw/sw/../../misc/lv_area.h **** }
 5550              		.loc 2 125 5 view .LVU2033
 125:Drivers/lvgl/src/draw/sw/../../misc/lv_area.h **** }
 5551              		.loc 2 125 31 is_stmt 0 view .LVU2034
 5552 0120 83B2     		uxth	r3, r0
 125:Drivers/lvgl/src/draw/sw/../../misc/lv_area.h **** }
 5553              		.loc 2 125 44 view .LVU2035
 5554 0122 8AB2     		uxth	r2, r1
ARM GAS  /var/folders/0z/tsy30v1j4xl4_7kw94k978ww0000gn/T//cc0noGMx.s 			page 159


 125:Drivers/lvgl/src/draw/sw/../../misc/lv_area.h **** }
 5555              		.loc 2 125 36 view .LVU2036
 5556 0124 9B1A     		subs	r3, r3, r2
 5557 0126 9BB2     		uxth	r3, r3
 125:Drivers/lvgl/src/draw/sw/../../misc/lv_area.h **** }
 5558              		.loc 2 125 49 view .LVU2037
 5559 0128 0133     		adds	r3, r3, #1
 125:Drivers/lvgl/src/draw/sw/../../misc/lv_area.h **** }
 5560              		.loc 2 125 12 view .LVU2038
 5561 012a 1BB2     		sxth	r3, r3
 5562              	.LVL505:
 125:Drivers/lvgl/src/draw/sw/../../misc/lv_area.h **** }
 5563              		.loc 2 125 12 view .LVU2039
 5564              	.LBE209:
 5565              	.LBE208:
1209:Drivers/lvgl/src/draw/sw/lv_draw_sw_rect.c ****     bool bottom_side = outer_area->y2 >= inner_area->y2 ? true : false;
 5566              		.loc 1 1209 5 is_stmt 1 view .LVU2040
1210:Drivers/lvgl/src/draw/sw/lv_draw_sw_rect.c **** 
 5567              		.loc 1 1210 5 view .LVU2041
1213:Drivers/lvgl/src/draw/sw/lv_draw_sw_rect.c ****         blend_area.x1 = draw_area.x1;
 5568              		.loc 1 1213 5 view .LVU2042
1213:Drivers/lvgl/src/draw/sw/lv_draw_sw_rect.c ****         blend_area.x1 = draw_area.x1;
 5569              		.loc 1 1213 7 is_stmt 0 view .LVU2043
 5570 012c 069A     		ldr	r2, [sp, #24]
 5571 012e 002A     		cmp	r2, #0
 5572 0130 4ED1     		bne	.L344
1239:Drivers/lvgl/src/draw/sw/lv_draw_sw_rect.c ****     bool right_side = outer_area->x2 >= inner_area->x2 ? true : false;
 5573              		.loc 1 1239 5 is_stmt 1 view .LVU2044
 5574              	.LVL506:
1240:Drivers/lvgl/src/draw/sw/lv_draw_sw_rect.c **** 
 5575              		.loc 1 1240 5 view .LVU2045
1242:Drivers/lvgl/src/draw/sw/lv_draw_sw_rect.c ****     if(left_side && right_side && top_side && bottom_side &&
 5576              		.loc 1 1242 5 view .LVU2046
1243:Drivers/lvgl/src/draw/sw/lv_draw_sw_rect.c ****        core_w < SPLIT_LIMIT) {
 5577              		.loc 1 1243 5 view .LVU2047
1243:Drivers/lvgl/src/draw/sw/lv_draw_sw_rect.c ****        core_w < SPLIT_LIMIT) {
 5578              		.loc 1 1243 7 is_stmt 0 view .LVU2048
 5579 0132 079A     		ldr	r2, [sp, #28]
 5580 0134 0899     		ldr	r1, [sp, #32]
 5581 0136 8A42     		cmp	r2, r1
 5582 0138 0CDB     		blt	.L310
1243:Drivers/lvgl/src/draw/sw/lv_draw_sw_rect.c ****        core_w < SPLIT_LIMIT) {
 5583              		.loc 1 1243 18 discriminator 1 view .LVU2049
 5584 013a 099A     		ldr	r2, [sp, #36]
 5585 013c 0A99     		ldr	r1, [sp, #40]
 5586 013e 8A42     		cmp	r2, r1
 5587 0140 08DC     		bgt	.L310
1243:Drivers/lvgl/src/draw/sw/lv_draw_sw_rect.c ****        core_w < SPLIT_LIMIT) {
 5588              		.loc 1 1243 32 discriminator 2 view .LVU2050
 5589 0142 D345     		cmp	fp, r10
 5590 0144 06DB     		blt	.L310
1243:Drivers/lvgl/src/draw/sw/lv_draw_sw_rect.c ****        core_w < SPLIT_LIMIT) {
 5591              		.loc 1 1243 44 discriminator 3 view .LVU2051
 5592 0146 0B9A     		ldr	r2, [sp, #44]
 5593 0148 4245     		cmp	r2, r8
 5594 014a 03DC     		bgt	.L310
1243:Drivers/lvgl/src/draw/sw/lv_draw_sw_rect.c ****        core_w < SPLIT_LIMIT) {
ARM GAS  /var/folders/0z/tsy30v1j4xl4_7kw94k978ww0000gn/T//cc0noGMx.s 			page 160


 5595              		.loc 1 1243 59 discriminator 4 view .LVU2052
 5596 014c 312B     		cmp	r3, #49
 5597 014e 01DC     		bgt	.L310
1245:Drivers/lvgl/src/draw/sw/lv_draw_sw_rect.c ****     }
 5598              		.loc 1 1245 19 view .LVU2053
 5599 0150 069B     		ldr	r3, [sp, #24]
 5600              	.LVL507:
1245:Drivers/lvgl/src/draw/sw/lv_draw_sw_rect.c ****     }
 5601              		.loc 1 1245 19 view .LVU2054
 5602 0152 0593     		str	r3, [sp, #20]
 5603              	.L310:
 5604              	.LVL508:
1248:Drivers/lvgl/src/draw/sw/lv_draw_sw_rect.c ****     /*Draw the straight lines first if they are long enough*/
 5605              		.loc 1 1248 5 is_stmt 1 view .LVU2055
1248:Drivers/lvgl/src/draw/sw/lv_draw_sw_rect.c ****     /*Draw the straight lines first if they are long enough*/
 5606              		.loc 1 1248 24 is_stmt 0 view .LVU2056
 5607 0154 0123     		movs	r3, #1
 5608 0156 8DF89430 		strb	r3, [sp, #148]
1250:Drivers/lvgl/src/draw/sw/lv_draw_sw_rect.c ****         blend_area.x1 = core_area.x1;
 5609              		.loc 1 1250 5 is_stmt 1 view .LVU2057
1250:Drivers/lvgl/src/draw/sw/lv_draw_sw_rect.c ****         blend_area.x1 = core_area.x1;
 5610              		.loc 1 1250 7 is_stmt 0 view .LVU2058
 5611 015a D345     		cmp	fp, r10
 5612 015c 02DB     		blt	.L311
1250:Drivers/lvgl/src/draw/sw/lv_draw_sw_rect.c ****         blend_area.x1 = core_area.x1;
 5613              		.loc 1 1250 17 discriminator 1 view .LVU2059
 5614 015e 059B     		ldr	r3, [sp, #20]
 5615 0160 002B     		cmp	r3, #0
 5616 0162 7FD1     		bne	.L345
 5617              	.LVL509:
 5618              	.L311:
1258:Drivers/lvgl/src/draw/sw/lv_draw_sw_rect.c ****         blend_area.x1 = core_area.x1;
 5619              		.loc 1 1258 5 is_stmt 1 view .LVU2060
1258:Drivers/lvgl/src/draw/sw/lv_draw_sw_rect.c ****         blend_area.x1 = core_area.x1;
 5620              		.loc 1 1258 7 is_stmt 0 view .LVU2061
 5621 0164 0B9B     		ldr	r3, [sp, #44]
 5622 0166 4345     		cmp	r3, r8
 5623 0168 03DC     		bgt	.L312
1258:Drivers/lvgl/src/draw/sw/lv_draw_sw_rect.c ****         blend_area.x1 = core_area.x1;
 5624              		.loc 1 1258 20 discriminator 1 view .LVU2062
 5625 016a 059B     		ldr	r3, [sp, #20]
 5626 016c 002B     		cmp	r3, #0
 5627 016e 40F08D80 		bne	.L346
 5628              	.L312:
1266:Drivers/lvgl/src/draw/sw/lv_draw_sw_rect.c ****         blend_area.x1 = outer_area->x1;
 5629              		.loc 1 1266 5 is_stmt 1 view .LVU2063
1266:Drivers/lvgl/src/draw/sw/lv_draw_sw_rect.c ****         blend_area.x1 = outer_area->x1;
 5630              		.loc 1 1266 7 is_stmt 0 view .LVU2064
 5631 0172 079B     		ldr	r3, [sp, #28]
 5632 0174 089A     		ldr	r2, [sp, #32]
 5633 0176 9342     		cmp	r3, r2
 5634 0178 80F29C80 		bge	.L347
 5635              	.L313:
1274:Drivers/lvgl/src/draw/sw/lv_draw_sw_rect.c ****         blend_area.x1 = inner_area->x2 + 1;
 5636              		.loc 1 1274 5 is_stmt 1 view .LVU2065
1274:Drivers/lvgl/src/draw/sw/lv_draw_sw_rect.c ****         blend_area.x1 = inner_area->x2 + 1;
 5637              		.loc 1 1274 7 is_stmt 0 view .LVU2066
ARM GAS  /var/folders/0z/tsy30v1j4xl4_7kw94k978ww0000gn/T//cc0noGMx.s 			page 161


 5638 017c 099B     		ldr	r3, [sp, #36]
 5639 017e 0A9A     		ldr	r2, [sp, #40]
 5640 0180 9342     		cmp	r3, r2
 5641 0182 40F3AA80 		ble	.L348
 5642              	.L314:
1283:Drivers/lvgl/src/draw/sw/lv_draw_sw_rect.c **** 
 5643              		.loc 1 1283 5 is_stmt 1 view .LVU2067
1286:Drivers/lvgl/src/draw/sw/lv_draw_sw_rect.c ****         /*Calculate the top corner and mirror it to the bottom*/
 5644              		.loc 1 1286 5 view .LVU2068
1286:Drivers/lvgl/src/draw/sw/lv_draw_sw_rect.c ****         /*Calculate the top corner and mirror it to the bottom*/
 5645              		.loc 1 1286 7 is_stmt 0 view .LVU2069
 5646 0186 059B     		ldr	r3, [sp, #20]
 5647 0188 002B     		cmp	r3, #0
 5648 018a 40F0FB80 		bne	.L315
 5649              	.LBB210:
1288:Drivers/lvgl/src/draw/sw/lv_draw_sw_rect.c ****         blend_area.x2 = draw_area.x2;
 5650              		.loc 1 1288 9 is_stmt 1 view .LVU2070
1288:Drivers/lvgl/src/draw/sw/lv_draw_sw_rect.c ****         blend_area.x2 = draw_area.x2;
 5651              		.loc 1 1288 34 is_stmt 0 view .LVU2071
 5652 018e BDF9A030 		ldrsh	r3, [sp, #160]
1288:Drivers/lvgl/src/draw/sw/lv_draw_sw_rect.c ****         blend_area.x2 = draw_area.x2;
 5653              		.loc 1 1288 23 view .LVU2072
 5654 0192 ADF84C30 		strh	r3, [sp, #76]	@ movhi
1289:Drivers/lvgl/src/draw/sw/lv_draw_sw_rect.c ****         lv_coord_t max_h = LV_MAX(rout, inner_area->y1 - outer_area->y1);
 5655              		.loc 1 1289 9 is_stmt 1 view .LVU2073
1289:Drivers/lvgl/src/draw/sw/lv_draw_sw_rect.c ****         lv_coord_t max_h = LV_MAX(rout, inner_area->y1 - outer_area->y1);
 5656              		.loc 1 1289 34 is_stmt 0 view .LVU2074
 5657 0196 BDF9A430 		ldrsh	r3, [sp, #164]
1289:Drivers/lvgl/src/draw/sw/lv_draw_sw_rect.c ****         lv_coord_t max_h = LV_MAX(rout, inner_area->y1 - outer_area->y1);
 5658              		.loc 1 1289 23 view .LVU2075
 5659 019a ADF85030 		strh	r3, [sp, #80]	@ movhi
1290:Drivers/lvgl/src/draw/sw/lv_draw_sw_rect.c ****         for(h = 0; h < max_h; h++) {
 5660              		.loc 1 1290 9 is_stmt 1 view .LVU2076
1290:Drivers/lvgl/src/draw/sw/lv_draw_sw_rect.c ****         for(h = 0; h < max_h; h++) {
 5661              		.loc 1 1290 28 is_stmt 0 view .LVU2077
 5662 019e 039B     		ldr	r3, [sp, #12]
 5663 01a0 B3F90230 		ldrsh	r3, [r3, #2]
 5664 01a4 B4F90220 		ldrsh	r2, [r4, #2]
 5665 01a8 9B1A     		subs	r3, r3, r2
 5666 01aa 9F42     		cmp	r7, r3
 5667 01ac B8BF     		it	lt
 5668 01ae 1F46     		movlt	r7, r3
1290:Drivers/lvgl/src/draw/sw/lv_draw_sw_rect.c ****         for(h = 0; h < max_h; h++) {
 5669              		.loc 1 1290 20 view .LVU2078
 5670 01b0 3FB2     		sxth	r7, r7
 5671              	.LVL510:
1291:Drivers/lvgl/src/draw/sw/lv_draw_sw_rect.c ****             lv_coord_t top_y = outer_area->y1 + h;
 5672              		.loc 1 1291 9 is_stmt 1 view .LVU2079
1291:Drivers/lvgl/src/draw/sw/lv_draw_sw_rect.c ****             lv_coord_t top_y = outer_area->y1 + h;
 5673              		.loc 1 1291 15 is_stmt 0 view .LVU2080
 5674 01b2 4FF0000A 		mov	r10, #0
 5675              	.LVL511:
1291:Drivers/lvgl/src/draw/sw/lv_draw_sw_rect.c ****             lv_coord_t top_y = outer_area->y1 + h;
 5676              		.loc 1 1291 9 view .LVU2081
 5677 01b6 BAE0     		b	.L316
 5678              	.LVL512:
 5679              	.L343:
ARM GAS  /var/folders/0z/tsy30v1j4xl4_7kw94k978ww0000gn/T//cc0noGMx.s 			page 162


1291:Drivers/lvgl/src/draw/sw/lv_draw_sw_rect.c ****             lv_coord_t top_y = outer_area->y1 + h;
 5680              		.loc 1 1291 9 view .LVU2082
 5681              	.LBE210:
1184:Drivers/lvgl/src/draw/sw/lv_draw_sw_rect.c ****         mask_rout_id = lv_draw_mask_add(&mask_rout_param, NULL);
 5682              		.loc 1 1184 9 is_stmt 1 view .LVU2083
 5683 01b8 0023     		movs	r3, #0
 5684 01ba 3A46     		mov	r2, r7
 5685 01bc 2146     		mov	r1, r4
 5686 01be 1BA8     		add	r0, sp, #108
 5687 01c0 FFF7FEFF 		bl	lv_draw_mask_radius_init
 5688              	.LVL513:
1185:Drivers/lvgl/src/draw/sw/lv_draw_sw_rect.c ****     }
 5689              		.loc 1 1185 9 view .LVU2084
1185:Drivers/lvgl/src/draw/sw/lv_draw_sw_rect.c ****     }
 5690              		.loc 1 1185 24 is_stmt 0 view .LVU2085
 5691 01c4 0021     		movs	r1, #0
 5692 01c6 1BA8     		add	r0, sp, #108
 5693 01c8 FFF7FEFF 		bl	lv_draw_mask_add
 5694              	.LVL514:
 5695 01cc 0D90     		str	r0, [sp, #52]
 5696              	.LVL515:
1185:Drivers/lvgl/src/draw/sw/lv_draw_sw_rect.c ****     }
 5697              		.loc 1 1185 24 view .LVU2086
 5698 01ce 55E7     		b	.L301
 5699              	.LVL516:
 5700              	.L344:
1214:Drivers/lvgl/src/draw/sw/lv_draw_sw_rect.c ****         blend_area.x2 = draw_area.x2;
 5701              		.loc 1 1214 9 is_stmt 1 view .LVU2087
1214:Drivers/lvgl/src/draw/sw/lv_draw_sw_rect.c ****         blend_area.x2 = draw_area.x2;
 5702              		.loc 1 1214 34 is_stmt 0 view .LVU2088
 5703 01d0 BDF9A030 		ldrsh	r3, [sp, #160]
 5704              	.LVL517:
1214:Drivers/lvgl/src/draw/sw/lv_draw_sw_rect.c ****         blend_area.x2 = draw_area.x2;
 5705              		.loc 1 1214 23 view .LVU2089
 5706 01d4 ADF84C30 		strh	r3, [sp, #76]	@ movhi
1215:Drivers/lvgl/src/draw/sw/lv_draw_sw_rect.c ****         for(h = draw_area.y1; h <= draw_area.y2; h++) {
 5707              		.loc 1 1215 9 is_stmt 1 view .LVU2090
1215:Drivers/lvgl/src/draw/sw/lv_draw_sw_rect.c ****         for(h = draw_area.y1; h <= draw_area.y2; h++) {
 5708              		.loc 1 1215 34 is_stmt 0 view .LVU2091
 5709 01d8 BDF9A430 		ldrsh	r3, [sp, #164]
1215:Drivers/lvgl/src/draw/sw/lv_draw_sw_rect.c ****         for(h = draw_area.y1; h <= draw_area.y2; h++) {
 5710              		.loc 1 1215 23 view .LVU2092
 5711 01dc ADF85030 		strh	r3, [sp, #80]	@ movhi
1216:Drivers/lvgl/src/draw/sw/lv_draw_sw_rect.c ****             if(!top_side && h < core_area.y1) continue;
 5712              		.loc 1 1216 9 is_stmt 1 view .LVU2093
1216:Drivers/lvgl/src/draw/sw/lv_draw_sw_rect.c ****             if(!top_side && h < core_area.y1) continue;
 5713              		.loc 1 1216 26 is_stmt 0 view .LVU2094
 5714 01e0 BDF9A240 		ldrsh	r4, [sp, #162]
 5715              	.LVL518:
1216:Drivers/lvgl/src/draw/sw/lv_draw_sw_rect.c ****             if(!top_side && h < core_area.y1) continue;
 5716              		.loc 1 1216 26 view .LVU2095
 5717 01e4 CDF80C90 		str	r9, [sp, #12]
 5718              	.LVL519:
1216:Drivers/lvgl/src/draw/sw/lv_draw_sw_rect.c ****             if(!top_side && h < core_area.y1) continue;
 5719              		.loc 1 1216 26 view .LVU2096
 5720 01e8 DDF82C90 		ldr	r9, [sp, #44]
1216:Drivers/lvgl/src/draw/sw/lv_draw_sw_rect.c ****             if(!top_side && h < core_area.y1) continue;
ARM GAS  /var/folders/0z/tsy30v1j4xl4_7kw94k978ww0000gn/T//cc0noGMx.s 			page 163


 5721              		.loc 1 1216 9 view .LVU2097
 5722 01ec 1BE0     		b	.L303
 5723              	.LVL520:
 5724              	.L304:
1218:Drivers/lvgl/src/draw/sw/lv_draw_sw_rect.c **** 
 5725              		.loc 1 1218 13 is_stmt 1 view .LVU2098
1218:Drivers/lvgl/src/draw/sw/lv_draw_sw_rect.c **** 
 5726              		.loc 1 1218 15 is_stmt 0 view .LVU2099
 5727 01ee C145     		cmp	r9, r8
 5728 01f0 02DD     		ble	.L306
1218:Drivers/lvgl/src/draw/sw/lv_draw_sw_rect.c **** 
 5729              		.loc 1 1218 29 discriminator 1 view .LVU2100
 5730 01f2 049B     		ldr	r3, [sp, #16]
 5731 01f4 A342     		cmp	r3, r4
 5732 01f6 20DB     		blt	.L307
 5733              	.L306:
1220:Drivers/lvgl/src/draw/sw/lv_draw_sw_rect.c ****             blend_area.y2 = h;
 5734              		.loc 1 1220 13 is_stmt 1 view .LVU2101
1220:Drivers/lvgl/src/draw/sw/lv_draw_sw_rect.c ****             blend_area.y2 = h;
 5735              		.loc 1 1220 27 is_stmt 0 view .LVU2102
 5736 01f8 27B2     		sxth	r7, r4
 5737 01fa ADF84E70 		strh	r7, [sp, #78]	@ movhi
1221:Drivers/lvgl/src/draw/sw/lv_draw_sw_rect.c **** 
 5738              		.loc 1 1221 13 is_stmt 1 view .LVU2103
1221:Drivers/lvgl/src/draw/sw/lv_draw_sw_rect.c **** 
 5739              		.loc 1 1221 27 is_stmt 0 view .LVU2104
 5740 01fe ADF85270 		strh	r7, [sp, #82]	@ movhi
1223:Drivers/lvgl/src/draw/sw/lv_draw_sw_rect.c ****             blend_dsc.mask_res = lv_draw_mask_apply(blend_dsc.mask_buf, draw_area.x1, h, draw_area_
 5741              		.loc 1 1223 13 is_stmt 1 view .LVU2105
 5742 0202 2946     		mov	r1, r5
 5743 0204 2498     		ldr	r0, [sp, #144]
 5744 0206 FFF7FEFF 		bl	lv_memset_ff
 5745              	.LVL521:
1224:Drivers/lvgl/src/draw/sw/lv_draw_sw_rect.c ****             lv_draw_sw_blend(draw_ctx, &blend_dsc);
 5746              		.loc 1 1224 13 view .LVU2106
1224:Drivers/lvgl/src/draw/sw/lv_draw_sw_rect.c ****             lv_draw_sw_blend(draw_ctx, &blend_dsc);
 5747              		.loc 1 1224 34 is_stmt 0 view .LVU2107
 5748 020a 2B46     		mov	r3, r5
 5749 020c 3A46     		mov	r2, r7
 5750 020e BDF9A010 		ldrsh	r1, [sp, #160]
 5751 0212 2498     		ldr	r0, [sp, #144]
 5752 0214 FFF7FEFF 		bl	lv_draw_mask_apply
 5753              	.LVL522:
1224:Drivers/lvgl/src/draw/sw/lv_draw_sw_rect.c ****             lv_draw_sw_blend(draw_ctx, &blend_dsc);
 5754              		.loc 1 1224 32 view .LVU2108
 5755 0218 8DF89400 		strb	r0, [sp, #148]
1225:Drivers/lvgl/src/draw/sw/lv_draw_sw_rect.c ****         }
 5756              		.loc 1 1225 13 is_stmt 1 view .LVU2109
 5757 021c 21A9     		add	r1, sp, #132
 5758 021e 3046     		mov	r0, r6
 5759 0220 FFF7FEFF 		bl	lv_draw_sw_blend
 5760              	.LVL523:
 5761              	.L305:
1216:Drivers/lvgl/src/draw/sw/lv_draw_sw_rect.c ****             if(!top_side && h < core_area.y1) continue;
 5762              		.loc 1 1216 51 discriminator 2 view .LVU2110
 5763 0224 0134     		adds	r4, r4, #1
 5764              	.LVL524:
ARM GAS  /var/folders/0z/tsy30v1j4xl4_7kw94k978ww0000gn/T//cc0noGMx.s 			page 164


 5765              	.L303:
1216:Drivers/lvgl/src/draw/sw/lv_draw_sw_rect.c ****             if(!top_side && h < core_area.y1) continue;
 5766              		.loc 1 1216 33 discriminator 1 view .LVU2111
1216:Drivers/lvgl/src/draw/sw/lv_draw_sw_rect.c ****             if(!top_side && h < core_area.y1) continue;
 5767              		.loc 1 1216 45 is_stmt 0 discriminator 1 view .LVU2112
 5768 0226 BDF9A630 		ldrsh	r3, [sp, #166]
1216:Drivers/lvgl/src/draw/sw/lv_draw_sw_rect.c ****             if(!top_side && h < core_area.y1) continue;
 5769              		.loc 1 1216 33 discriminator 1 view .LVU2113
 5770 022a A342     		cmp	r3, r4
 5771 022c 05DB     		blt	.L307
1217:Drivers/lvgl/src/draw/sw/lv_draw_sw_rect.c ****             if(!bottom_side && h > core_area.y2) break;
 5772              		.loc 1 1217 13 is_stmt 1 view .LVU2114
1217:Drivers/lvgl/src/draw/sw/lv_draw_sw_rect.c ****             if(!bottom_side && h > core_area.y2) break;
 5773              		.loc 1 1217 15 is_stmt 0 view .LVU2115
 5774 022e D345     		cmp	fp, r10
 5775 0230 DDDA     		bge	.L304
1217:Drivers/lvgl/src/draw/sw/lv_draw_sw_rect.c ****             if(!bottom_side && h > core_area.y2) break;
 5776              		.loc 1 1217 26 discriminator 1 view .LVU2116
 5777 0232 039B     		ldr	r3, [sp, #12]
 5778 0234 A342     		cmp	r3, r4
 5779 0236 DADD     		ble	.L304
 5780 0238 F4E7     		b	.L305
 5781              	.L307:
1228:Drivers/lvgl/src/draw/sw/lv_draw_sw_rect.c ****         lv_draw_mask_remove_id(mask_rin_id);
 5782              		.loc 1 1228 9 is_stmt 1 view .LVU2117
 5783 023a 15A8     		add	r0, sp, #84
 5784 023c FFF7FEFF 		bl	lv_draw_mask_free_param
 5785              	.LVL525:
1229:Drivers/lvgl/src/draw/sw/lv_draw_sw_rect.c ****         if(mask_rout_id != LV_MASK_ID_INV) {
 5786              		.loc 1 1229 9 view .LVU2118
 5787 0240 0C98     		ldr	r0, [sp, #48]
 5788 0242 FFF7FEFF 		bl	lv_draw_mask_remove_id
 5789              	.LVL526:
1230:Drivers/lvgl/src/draw/sw/lv_draw_sw_rect.c ****             lv_draw_mask_free_param(&mask_rout_param);
 5790              		.loc 1 1230 9 view .LVU2119
1230:Drivers/lvgl/src/draw/sw/lv_draw_sw_rect.c ****             lv_draw_mask_free_param(&mask_rout_param);
 5791              		.loc 1 1230 11 is_stmt 0 view .LVU2120
 5792 0246 0D9C     		ldr	r4, [sp, #52]
 5793              	.LVL527:
1230:Drivers/lvgl/src/draw/sw/lv_draw_sw_rect.c ****             lv_draw_mask_free_param(&mask_rout_param);
 5794              		.loc 1 1230 11 view .LVU2121
 5795 0248 B4F1FF3F 		cmp	r4, #-1
 5796 024c 03D1     		bne	.L349
 5797              	.L309:
1234:Drivers/lvgl/src/draw/sw/lv_draw_sw_rect.c ****         return;
 5798              		.loc 1 1234 9 is_stmt 1 view .LVU2122
 5799 024e 2498     		ldr	r0, [sp, #144]
 5800 0250 FFF7FEFF 		bl	lv_mem_buf_release
 5801              	.LVL528:
1235:Drivers/lvgl/src/draw/sw/lv_draw_sw_rect.c ****     }
 5802              		.loc 1 1235 9 view .LVU2123
 5803 0254 EFE6     		b	.L298
 5804              	.L349:
1231:Drivers/lvgl/src/draw/sw/lv_draw_sw_rect.c ****             lv_draw_mask_remove_id(mask_rout_id);
 5805              		.loc 1 1231 13 view .LVU2124
 5806 0256 1BA8     		add	r0, sp, #108
 5807 0258 FFF7FEFF 		bl	lv_draw_mask_free_param
ARM GAS  /var/folders/0z/tsy30v1j4xl4_7kw94k978ww0000gn/T//cc0noGMx.s 			page 165


 5808              	.LVL529:
1232:Drivers/lvgl/src/draw/sw/lv_draw_sw_rect.c ****         }
 5809              		.loc 1 1232 13 view .LVU2125
 5810 025c 2046     		mov	r0, r4
 5811 025e FFF7FEFF 		bl	lv_draw_mask_remove_id
 5812              	.LVL530:
 5813 0262 F4E7     		b	.L309
 5814              	.LVL531:
 5815              	.L345:
1251:Drivers/lvgl/src/draw/sw/lv_draw_sw_rect.c ****         blend_area.x2 = core_area.x2;
 5816              		.loc 1 1251 9 view .LVU2126
1251:Drivers/lvgl/src/draw/sw/lv_draw_sw_rect.c ****         blend_area.x2 = core_area.x2;
 5817              		.loc 1 1251 23 is_stmt 0 view .LVU2127
 5818 0264 0E9B     		ldr	r3, [sp, #56]
 5819 0266 ADF84C30 		strh	r3, [sp, #76]	@ movhi
1252:Drivers/lvgl/src/draw/sw/lv_draw_sw_rect.c ****         blend_area.y1 = outer_area->y1;
 5820              		.loc 1 1252 9 is_stmt 1 view .LVU2128
1252:Drivers/lvgl/src/draw/sw/lv_draw_sw_rect.c ****         blend_area.y1 = outer_area->y1;
 5821              		.loc 1 1252 23 is_stmt 0 view .LVU2129
 5822 026a 0F9B     		ldr	r3, [sp, #60]
 5823 026c ADF85030 		strh	r3, [sp, #80]	@ movhi
1253:Drivers/lvgl/src/draw/sw/lv_draw_sw_rect.c ****         blend_area.y2 = inner_area->y1 - 1;
 5824              		.loc 1 1253 9 is_stmt 1 view .LVU2130
1253:Drivers/lvgl/src/draw/sw/lv_draw_sw_rect.c ****         blend_area.y2 = inner_area->y1 - 1;
 5825              		.loc 1 1253 35 is_stmt 0 view .LVU2131
 5826 0270 B4F90230 		ldrsh	r3, [r4, #2]
1253:Drivers/lvgl/src/draw/sw/lv_draw_sw_rect.c ****         blend_area.y2 = inner_area->y1 - 1;
 5827              		.loc 1 1253 23 view .LVU2132
 5828 0274 ADF84E30 		strh	r3, [sp, #78]	@ movhi
1254:Drivers/lvgl/src/draw/sw/lv_draw_sw_rect.c ****         lv_draw_sw_blend(draw_ctx, &blend_dsc);
 5829              		.loc 1 1254 9 is_stmt 1 view .LVU2133
1254:Drivers/lvgl/src/draw/sw/lv_draw_sw_rect.c ****         lv_draw_sw_blend(draw_ctx, &blend_dsc);
 5830              		.loc 1 1254 35 is_stmt 0 view .LVU2134
 5831 0278 039B     		ldr	r3, [sp, #12]
 5832 027a 5B88     		ldrh	r3, [r3, #2]
1254:Drivers/lvgl/src/draw/sw/lv_draw_sw_rect.c ****         lv_draw_sw_blend(draw_ctx, &blend_dsc);
 5833              		.loc 1 1254 40 view .LVU2135
 5834 027c 013B     		subs	r3, r3, #1
1254:Drivers/lvgl/src/draw/sw/lv_draw_sw_rect.c ****         lv_draw_sw_blend(draw_ctx, &blend_dsc);
 5835              		.loc 1 1254 23 view .LVU2136
 5836 027e ADF85230 		strh	r3, [sp, #82]	@ movhi
1255:Drivers/lvgl/src/draw/sw/lv_draw_sw_rect.c ****     }
 5837              		.loc 1 1255 9 is_stmt 1 view .LVU2137
 5838 0282 21A9     		add	r1, sp, #132
 5839 0284 3046     		mov	r0, r6
 5840              	.LVL532:
1255:Drivers/lvgl/src/draw/sw/lv_draw_sw_rect.c ****     }
 5841              		.loc 1 1255 9 is_stmt 0 view .LVU2138
 5842 0286 FFF7FEFF 		bl	lv_draw_sw_blend
 5843              	.LVL533:
1255:Drivers/lvgl/src/draw/sw/lv_draw_sw_rect.c ****     }
 5844              		.loc 1 1255 9 view .LVU2139
 5845 028a 6BE7     		b	.L311
 5846              	.L346:
1259:Drivers/lvgl/src/draw/sw/lv_draw_sw_rect.c ****         blend_area.x2 = core_area.x2;
 5847              		.loc 1 1259 9 is_stmt 1 view .LVU2140
1259:Drivers/lvgl/src/draw/sw/lv_draw_sw_rect.c ****         blend_area.x2 = core_area.x2;
ARM GAS  /var/folders/0z/tsy30v1j4xl4_7kw94k978ww0000gn/T//cc0noGMx.s 			page 166


 5848              		.loc 1 1259 23 is_stmt 0 view .LVU2141
 5849 028c 0E9B     		ldr	r3, [sp, #56]
 5850 028e ADF84C30 		strh	r3, [sp, #76]	@ movhi
1260:Drivers/lvgl/src/draw/sw/lv_draw_sw_rect.c ****         blend_area.y1 = inner_area->y2 + 1;
 5851              		.loc 1 1260 9 is_stmt 1 view .LVU2142
1260:Drivers/lvgl/src/draw/sw/lv_draw_sw_rect.c ****         blend_area.y1 = inner_area->y2 + 1;
 5852              		.loc 1 1260 23 is_stmt 0 view .LVU2143
 5853 0292 0F9B     		ldr	r3, [sp, #60]
 5854 0294 ADF85030 		strh	r3, [sp, #80]	@ movhi
1261:Drivers/lvgl/src/draw/sw/lv_draw_sw_rect.c ****         blend_area.y2 = outer_area->y2;
 5855              		.loc 1 1261 9 is_stmt 1 view .LVU2144
1261:Drivers/lvgl/src/draw/sw/lv_draw_sw_rect.c ****         blend_area.y2 = outer_area->y2;
 5856              		.loc 1 1261 35 is_stmt 0 view .LVU2145
 5857 0298 039B     		ldr	r3, [sp, #12]
 5858 029a DB88     		ldrh	r3, [r3, #6]
1261:Drivers/lvgl/src/draw/sw/lv_draw_sw_rect.c ****         blend_area.y2 = outer_area->y2;
 5859              		.loc 1 1261 40 view .LVU2146
 5860 029c 0133     		adds	r3, r3, #1
1261:Drivers/lvgl/src/draw/sw/lv_draw_sw_rect.c ****         blend_area.y2 = outer_area->y2;
 5861              		.loc 1 1261 23 view .LVU2147
 5862 029e ADF84E30 		strh	r3, [sp, #78]	@ movhi
1262:Drivers/lvgl/src/draw/sw/lv_draw_sw_rect.c ****         lv_draw_sw_blend(draw_ctx, &blend_dsc);
 5863              		.loc 1 1262 9 is_stmt 1 view .LVU2148
1262:Drivers/lvgl/src/draw/sw/lv_draw_sw_rect.c ****         lv_draw_sw_blend(draw_ctx, &blend_dsc);
 5864              		.loc 1 1262 35 is_stmt 0 view .LVU2149
 5865 02a2 B4F90630 		ldrsh	r3, [r4, #6]
1262:Drivers/lvgl/src/draw/sw/lv_draw_sw_rect.c ****         lv_draw_sw_blend(draw_ctx, &blend_dsc);
 5866              		.loc 1 1262 23 view .LVU2150
 5867 02a6 ADF85230 		strh	r3, [sp, #82]	@ movhi
1263:Drivers/lvgl/src/draw/sw/lv_draw_sw_rect.c ****     }
 5868              		.loc 1 1263 9 is_stmt 1 view .LVU2151
 5869 02aa 21A9     		add	r1, sp, #132
 5870 02ac 3046     		mov	r0, r6
 5871 02ae FFF7FEFF 		bl	lv_draw_sw_blend
 5872              	.LVL534:
 5873 02b2 5EE7     		b	.L312
 5874              	.L347:
1267:Drivers/lvgl/src/draw/sw/lv_draw_sw_rect.c ****         blend_area.x2 = inner_area->x1 - 1;
 5875              		.loc 1 1267 9 view .LVU2152
1267:Drivers/lvgl/src/draw/sw/lv_draw_sw_rect.c ****         blend_area.x2 = inner_area->x1 - 1;
 5876              		.loc 1 1267 35 is_stmt 0 view .LVU2153
 5877 02b4 B4F90030 		ldrsh	r3, [r4]
1267:Drivers/lvgl/src/draw/sw/lv_draw_sw_rect.c ****         blend_area.x2 = inner_area->x1 - 1;
 5878              		.loc 1 1267 23 view .LVU2154
 5879 02b8 ADF84C30 		strh	r3, [sp, #76]	@ movhi
1268:Drivers/lvgl/src/draw/sw/lv_draw_sw_rect.c ****         blend_area.y1 = core_area.y1;
 5880              		.loc 1 1268 9 is_stmt 1 view .LVU2155
1268:Drivers/lvgl/src/draw/sw/lv_draw_sw_rect.c ****         blend_area.y1 = core_area.y1;
 5881              		.loc 1 1268 35 is_stmt 0 view .LVU2156
 5882 02bc 039B     		ldr	r3, [sp, #12]
 5883 02be 1B88     		ldrh	r3, [r3]
1268:Drivers/lvgl/src/draw/sw/lv_draw_sw_rect.c ****         blend_area.y1 = core_area.y1;
 5884              		.loc 1 1268 40 view .LVU2157
 5885 02c0 013B     		subs	r3, r3, #1
1268:Drivers/lvgl/src/draw/sw/lv_draw_sw_rect.c ****         blend_area.y1 = core_area.y1;
 5886              		.loc 1 1268 23 view .LVU2158
 5887 02c2 ADF85030 		strh	r3, [sp, #80]	@ movhi
ARM GAS  /var/folders/0z/tsy30v1j4xl4_7kw94k978ww0000gn/T//cc0noGMx.s 			page 167


1269:Drivers/lvgl/src/draw/sw/lv_draw_sw_rect.c ****         blend_area.y2 = core_area.y2;
 5888              		.loc 1 1269 9 is_stmt 1 view .LVU2159
1269:Drivers/lvgl/src/draw/sw/lv_draw_sw_rect.c ****         blend_area.y2 = core_area.y2;
 5889              		.loc 1 1269 23 is_stmt 0 view .LVU2160
 5890 02c6 ADF84E90 		strh	r9, [sp, #78]	@ movhi
1270:Drivers/lvgl/src/draw/sw/lv_draw_sw_rect.c ****         lv_draw_sw_blend(draw_ctx, &blend_dsc);
 5891              		.loc 1 1270 9 is_stmt 1 view .LVU2161
1270:Drivers/lvgl/src/draw/sw/lv_draw_sw_rect.c ****         lv_draw_sw_blend(draw_ctx, &blend_dsc);
 5892              		.loc 1 1270 23 is_stmt 0 view .LVU2162
 5893 02ca 049B     		ldr	r3, [sp, #16]
 5894 02cc ADF85230 		strh	r3, [sp, #82]	@ movhi
1271:Drivers/lvgl/src/draw/sw/lv_draw_sw_rect.c ****     }
 5895              		.loc 1 1271 9 is_stmt 1 view .LVU2163
 5896 02d0 21A9     		add	r1, sp, #132
 5897 02d2 3046     		mov	r0, r6
 5898 02d4 FFF7FEFF 		bl	lv_draw_sw_blend
 5899              	.LVL535:
 5900 02d8 50E7     		b	.L313
 5901              	.L348:
1275:Drivers/lvgl/src/draw/sw/lv_draw_sw_rect.c ****         blend_area.x2 = outer_area->x2;
 5902              		.loc 1 1275 9 view .LVU2164
1275:Drivers/lvgl/src/draw/sw/lv_draw_sw_rect.c ****         blend_area.x2 = outer_area->x2;
 5903              		.loc 1 1275 35 is_stmt 0 view .LVU2165
 5904 02da 039B     		ldr	r3, [sp, #12]
 5905 02dc 9B88     		ldrh	r3, [r3, #4]
1275:Drivers/lvgl/src/draw/sw/lv_draw_sw_rect.c ****         blend_area.x2 = outer_area->x2;
 5906              		.loc 1 1275 40 view .LVU2166
 5907 02de 0133     		adds	r3, r3, #1
1275:Drivers/lvgl/src/draw/sw/lv_draw_sw_rect.c ****         blend_area.x2 = outer_area->x2;
 5908              		.loc 1 1275 23 view .LVU2167
 5909 02e0 ADF84C30 		strh	r3, [sp, #76]	@ movhi
1276:Drivers/lvgl/src/draw/sw/lv_draw_sw_rect.c ****         blend_area.y1 = core_area.y1;
 5910              		.loc 1 1276 9 is_stmt 1 view .LVU2168
1276:Drivers/lvgl/src/draw/sw/lv_draw_sw_rect.c ****         blend_area.y1 = core_area.y1;
 5911              		.loc 1 1276 35 is_stmt 0 view .LVU2169
 5912 02e4 B4F90430 		ldrsh	r3, [r4, #4]
1276:Drivers/lvgl/src/draw/sw/lv_draw_sw_rect.c ****         blend_area.y1 = core_area.y1;
 5913              		.loc 1 1276 23 view .LVU2170
 5914 02e8 ADF85030 		strh	r3, [sp, #80]	@ movhi
1277:Drivers/lvgl/src/draw/sw/lv_draw_sw_rect.c ****         blend_area.y2 = core_area.y2;
 5915              		.loc 1 1277 9 is_stmt 1 view .LVU2171
1277:Drivers/lvgl/src/draw/sw/lv_draw_sw_rect.c ****         blend_area.y2 = core_area.y2;
 5916              		.loc 1 1277 23 is_stmt 0 view .LVU2172
 5917 02ec ADF84E90 		strh	r9, [sp, #78]	@ movhi
1278:Drivers/lvgl/src/draw/sw/lv_draw_sw_rect.c ****         lv_draw_sw_blend(draw_ctx, &blend_dsc);
 5918              		.loc 1 1278 9 is_stmt 1 view .LVU2173
1278:Drivers/lvgl/src/draw/sw/lv_draw_sw_rect.c ****         lv_draw_sw_blend(draw_ctx, &blend_dsc);
 5919              		.loc 1 1278 23 is_stmt 0 view .LVU2174
 5920 02f0 049B     		ldr	r3, [sp, #16]
 5921 02f2 ADF85230 		strh	r3, [sp, #82]	@ movhi
1279:Drivers/lvgl/src/draw/sw/lv_draw_sw_rect.c ****     }
 5922              		.loc 1 1279 9 is_stmt 1 view .LVU2175
 5923 02f6 21A9     		add	r1, sp, #132
 5924 02f8 3046     		mov	r0, r6
 5925 02fa FFF7FEFF 		bl	lv_draw_sw_blend
 5926              	.LVL536:
 5927 02fe 42E7     		b	.L314
ARM GAS  /var/folders/0z/tsy30v1j4xl4_7kw94k978ww0000gn/T//cc0noGMx.s 			page 168


 5928              	.LVL537:
 5929              	.L317:
 5930              	.LBB213:
 5931              	.LBB211:
1296:Drivers/lvgl/src/draw/sw/lv_draw_sw_rect.c ****             blend_dsc.mask_res = lv_draw_mask_apply(blend_dsc.mask_buf, blend_area.x1, top_y, draw_
 5932              		.loc 1 1296 13 view .LVU2176
 5933 0300 2946     		mov	r1, r5
 5934 0302 2498     		ldr	r0, [sp, #144]
 5935 0304 FFF7FEFF 		bl	lv_memset_ff
 5936              	.LVL538:
1297:Drivers/lvgl/src/draw/sw/lv_draw_sw_rect.c **** 
 5937              		.loc 1 1297 13 view .LVU2177
1297:Drivers/lvgl/src/draw/sw/lv_draw_sw_rect.c **** 
 5938              		.loc 1 1297 34 is_stmt 0 view .LVU2178
 5939 0308 2B46     		mov	r3, r5
 5940 030a 4246     		mov	r2, r8
 5941 030c BDF94C10 		ldrsh	r1, [sp, #76]
 5942 0310 2498     		ldr	r0, [sp, #144]
 5943 0312 FFF7FEFF 		bl	lv_draw_mask_apply
 5944              	.LVL539:
1297:Drivers/lvgl/src/draw/sw/lv_draw_sw_rect.c **** 
 5945              		.loc 1 1297 32 view .LVU2179
 5946 0316 8DF89400 		strb	r0, [sp, #148]
1299:Drivers/lvgl/src/draw/sw/lv_draw_sw_rect.c ****                 blend_area.y1 = top_y;
 5947              		.loc 1 1299 13 is_stmt 1 view .LVU2180
1299:Drivers/lvgl/src/draw/sw/lv_draw_sw_rect.c ****                 blend_area.y1 = top_y;
 5948              		.loc 1 1299 34 is_stmt 0 view .LVU2181
 5949 031a BDF9A230 		ldrsh	r3, [sp, #162]
1299:Drivers/lvgl/src/draw/sw/lv_draw_sw_rect.c ****                 blend_area.y1 = top_y;
 5950              		.loc 1 1299 15 view .LVU2182
 5951 031e 4345     		cmp	r3, r8
 5952 0320 1EDD     		ble	.L350
 5953              	.L319:
1305:Drivers/lvgl/src/draw/sw/lv_draw_sw_rect.c ****                 blend_area.y1 = bottom_y;
 5954              		.loc 1 1305 13 is_stmt 1 view .LVU2183
1305:Drivers/lvgl/src/draw/sw/lv_draw_sw_rect.c ****                 blend_area.y1 = bottom_y;
 5955              		.loc 1 1305 37 is_stmt 0 view .LVU2184
 5956 0322 BDF9A630 		ldrsh	r3, [sp, #166]
1305:Drivers/lvgl/src/draw/sw/lv_draw_sw_rect.c ****                 blend_area.y1 = bottom_y;
 5957              		.loc 1 1305 15 view .LVU2185
 5958 0326 4B45     		cmp	r3, r9
 5959 0328 23DA     		bge	.L351
 5960              	.L318:
 5961              	.LBE211:
1291:Drivers/lvgl/src/draw/sw/lv_draw_sw_rect.c ****             lv_coord_t top_y = outer_area->y1 + h;
 5962              		.loc 1 1291 32 is_stmt 1 discriminator 2 view .LVU2186
 5963 032a 0AF1010A 		add	r10, r10, #1
 5964              	.LVL540:
 5965              	.L316:
1291:Drivers/lvgl/src/draw/sw/lv_draw_sw_rect.c ****             lv_coord_t top_y = outer_area->y1 + h;
 5966              		.loc 1 1291 22 discriminator 1 view .LVU2187
 5967 032e 5745     		cmp	r7, r10
 5968 0330 40F3E280 		ble	.L321
 5969              	.LBB212:
1292:Drivers/lvgl/src/draw/sw/lv_draw_sw_rect.c ****             lv_coord_t bottom_y = outer_area->y2 - h;
 5970              		.loc 1 1292 13 view .LVU2188
1292:Drivers/lvgl/src/draw/sw/lv_draw_sw_rect.c ****             lv_coord_t bottom_y = outer_area->y2 - h;
ARM GAS  /var/folders/0z/tsy30v1j4xl4_7kw94k978ww0000gn/T//cc0noGMx.s 			page 169


 5971              		.loc 1 1292 42 is_stmt 0 view .LVU2189
 5972 0334 B4F80280 		ldrh	r8, [r4, #2]
1292:Drivers/lvgl/src/draw/sw/lv_draw_sw_rect.c ****             lv_coord_t bottom_y = outer_area->y2 - h;
 5973              		.loc 1 1292 47 view .LVU2190
 5974 0338 1FFA8AF3 		uxth	r3, r10
 5975 033c 9844     		add	r8, r8, r3
1292:Drivers/lvgl/src/draw/sw/lv_draw_sw_rect.c ****             lv_coord_t bottom_y = outer_area->y2 - h;
 5976              		.loc 1 1292 24 view .LVU2191
 5977 033e 0FFA88F8 		sxth	r8, r8
 5978              	.LVL541:
1293:Drivers/lvgl/src/draw/sw/lv_draw_sw_rect.c ****             if(top_y < draw_area.y1 && bottom_y > draw_area.y2) continue;   /*This line is clipped 
 5979              		.loc 1 1293 13 is_stmt 1 view .LVU2192
1293:Drivers/lvgl/src/draw/sw/lv_draw_sw_rect.c ****             if(top_y < draw_area.y1 && bottom_y > draw_area.y2) continue;   /*This line is clipped 
 5980              		.loc 1 1293 45 is_stmt 0 view .LVU2193
 5981 0342 B4F80690 		ldrh	r9, [r4, #6]
1293:Drivers/lvgl/src/draw/sw/lv_draw_sw_rect.c ****             if(top_y < draw_area.y1 && bottom_y > draw_area.y2) continue;   /*This line is clipped 
 5982              		.loc 1 1293 50 view .LVU2194
 5983 0346 A9EB0309 		sub	r9, r9, r3
1293:Drivers/lvgl/src/draw/sw/lv_draw_sw_rect.c ****             if(top_y < draw_area.y1 && bottom_y > draw_area.y2) continue;   /*This line is clipped 
 5984              		.loc 1 1293 24 view .LVU2195
 5985 034a 0FFA89F9 		sxth	r9, r9
 5986              	.LVL542:
1294:Drivers/lvgl/src/draw/sw/lv_draw_sw_rect.c **** 
 5987              		.loc 1 1294 13 is_stmt 1 view .LVU2196
1294:Drivers/lvgl/src/draw/sw/lv_draw_sw_rect.c **** 
 5988              		.loc 1 1294 33 is_stmt 0 view .LVU2197
 5989 034e BDF9A230 		ldrsh	r3, [sp, #162]
1294:Drivers/lvgl/src/draw/sw/lv_draw_sw_rect.c **** 
 5990              		.loc 1 1294 15 view .LVU2198
 5991 0352 4345     		cmp	r3, r8
 5992 0354 D4DD     		ble	.L317
1294:Drivers/lvgl/src/draw/sw/lv_draw_sw_rect.c **** 
 5993              		.loc 1 1294 60 discriminator 1 view .LVU2199
 5994 0356 BDF9A630 		ldrsh	r3, [sp, #166]
1294:Drivers/lvgl/src/draw/sw/lv_draw_sw_rect.c **** 
 5995              		.loc 1 1294 37 discriminator 1 view .LVU2200
 5996 035a 4B45     		cmp	r3, r9
 5997 035c D0DA     		bge	.L317
 5998 035e E4E7     		b	.L318
 5999              	.L350:
1300:Drivers/lvgl/src/draw/sw/lv_draw_sw_rect.c ****                 blend_area.y2 = top_y;
 6000              		.loc 1 1300 17 is_stmt 1 view .LVU2201
1300:Drivers/lvgl/src/draw/sw/lv_draw_sw_rect.c ****                 blend_area.y2 = top_y;
 6001              		.loc 1 1300 31 is_stmt 0 view .LVU2202
 6002 0360 ADF84E80 		strh	r8, [sp, #78]	@ movhi
1301:Drivers/lvgl/src/draw/sw/lv_draw_sw_rect.c ****                 lv_draw_sw_blend(draw_ctx, &blend_dsc);
 6003              		.loc 1 1301 17 is_stmt 1 view .LVU2203
1301:Drivers/lvgl/src/draw/sw/lv_draw_sw_rect.c ****                 lv_draw_sw_blend(draw_ctx, &blend_dsc);
 6004              		.loc 1 1301 31 is_stmt 0 view .LVU2204
 6005 0364 ADF85280 		strh	r8, [sp, #82]	@ movhi
1302:Drivers/lvgl/src/draw/sw/lv_draw_sw_rect.c ****             }
 6006              		.loc 1 1302 17 is_stmt 1 view .LVU2205
 6007 0368 21A9     		add	r1, sp, #132
 6008 036a 3046     		mov	r0, r6
 6009 036c FFF7FEFF 		bl	lv_draw_sw_blend
 6010              	.LVL543:
 6011 0370 D7E7     		b	.L319
ARM GAS  /var/folders/0z/tsy30v1j4xl4_7kw94k978ww0000gn/T//cc0noGMx.s 			page 170


 6012              	.L351:
1306:Drivers/lvgl/src/draw/sw/lv_draw_sw_rect.c ****                 blend_area.y2 = bottom_y;
 6013              		.loc 1 1306 17 view .LVU2206
1306:Drivers/lvgl/src/draw/sw/lv_draw_sw_rect.c ****                 blend_area.y2 = bottom_y;
 6014              		.loc 1 1306 31 is_stmt 0 view .LVU2207
 6015 0372 ADF84E90 		strh	r9, [sp, #78]	@ movhi
1307:Drivers/lvgl/src/draw/sw/lv_draw_sw_rect.c ****                 lv_draw_sw_blend(draw_ctx, &blend_dsc);
 6016              		.loc 1 1307 17 is_stmt 1 view .LVU2208
1307:Drivers/lvgl/src/draw/sw/lv_draw_sw_rect.c ****                 lv_draw_sw_blend(draw_ctx, &blend_dsc);
 6017              		.loc 1 1307 31 is_stmt 0 view .LVU2209
 6018 0376 ADF85290 		strh	r9, [sp, #82]	@ movhi
1308:Drivers/lvgl/src/draw/sw/lv_draw_sw_rect.c ****             }
 6019              		.loc 1 1308 17 is_stmt 1 view .LVU2210
 6020 037a 21A9     		add	r1, sp, #132
 6021 037c 3046     		mov	r0, r6
 6022 037e FFF7FEFF 		bl	lv_draw_sw_blend
 6023              	.LVL544:
 6024 0382 D2E7     		b	.L318
 6025              	.LVL545:
 6026              	.L315:
1308:Drivers/lvgl/src/draw/sw/lv_draw_sw_rect.c ****             }
 6027              		.loc 1 1308 17 is_stmt 0 view .LVU2211
 6028              	.LBE212:
 6029              	.LBE213:
1314:Drivers/lvgl/src/draw/sw/lv_draw_sw_rect.c ****         blend_area.x2 = LV_MIN(draw_area.x2, core_area.x1 - 1);
 6030              		.loc 1 1314 9 is_stmt 1 view .LVU2212
1314:Drivers/lvgl/src/draw/sw/lv_draw_sw_rect.c ****         blend_area.x2 = LV_MIN(draw_area.x2, core_area.x1 - 1);
 6031              		.loc 1 1314 34 is_stmt 0 view .LVU2213
 6032 0384 BDF9A020 		ldrsh	r2, [sp, #160]
1314:Drivers/lvgl/src/draw/sw/lv_draw_sw_rect.c ****         blend_area.x2 = LV_MIN(draw_area.x2, core_area.x1 - 1);
 6033              		.loc 1 1314 23 view .LVU2214
 6034 0388 ADF84C20 		strh	r2, [sp, #76]	@ movhi
1315:Drivers/lvgl/src/draw/sw/lv_draw_sw_rect.c ****         blend_w = lv_area_get_width(&blend_area);
 6035              		.loc 1 1315 9 is_stmt 1 view .LVU2215
1315:Drivers/lvgl/src/draw/sw/lv_draw_sw_rect.c ****         blend_w = lv_area_get_width(&blend_area);
 6036              		.loc 1 1315 25 is_stmt 0 view .LVU2216
 6037 038c 0E9B     		ldr	r3, [sp, #56]
 6038 038e 013B     		subs	r3, r3, #1
 6039 0390 BDF9A410 		ldrsh	r1, [sp, #164]
 6040 0394 8B42     		cmp	r3, r1
 6041 0396 A8BF     		it	ge
 6042 0398 0B46     		movge	r3, r1
1315:Drivers/lvgl/src/draw/sw/lv_draw_sw_rect.c ****         blend_w = lv_area_get_width(&blend_area);
 6043              		.loc 1 1315 23 view .LVU2217
 6044 039a 1BB2     		sxth	r3, r3
 6045 039c ADF85030 		strh	r3, [sp, #80]	@ movhi
1316:Drivers/lvgl/src/draw/sw/lv_draw_sw_rect.c ****         if(blend_w > 0) {
 6046              		.loc 1 1316 9 is_stmt 1 view .LVU2218
 6047              	.LVL546:
 6048              	.LBB214:
 6049              	.LBI214:
 123:Drivers/lvgl/src/draw/sw/../../misc/lv_area.h **** {
 6050              		.loc 2 123 26 view .LVU2219
 6051              	.LBB215:
 125:Drivers/lvgl/src/draw/sw/../../misc/lv_area.h **** }
 6052              		.loc 2 125 5 view .LVU2220
 125:Drivers/lvgl/src/draw/sw/../../misc/lv_area.h **** }
ARM GAS  /var/folders/0z/tsy30v1j4xl4_7kw94k978ww0000gn/T//cc0noGMx.s 			page 171


 6053              		.loc 2 125 31 is_stmt 0 view .LVU2221
 6054 03a0 9CB2     		uxth	r4, r3
 6055              	.LVL547:
 125:Drivers/lvgl/src/draw/sw/../../misc/lv_area.h **** }
 6056              		.loc 2 125 44 view .LVU2222
 6057 03a2 92B2     		uxth	r2, r2
 125:Drivers/lvgl/src/draw/sw/../../misc/lv_area.h **** }
 6058              		.loc 2 125 36 view .LVU2223
 6059 03a4 A41A     		subs	r4, r4, r2
 6060 03a6 A4B2     		uxth	r4, r4
 125:Drivers/lvgl/src/draw/sw/../../misc/lv_area.h **** }
 6061              		.loc 2 125 49 view .LVU2224
 6062 03a8 0134     		adds	r4, r4, #1
 125:Drivers/lvgl/src/draw/sw/../../misc/lv_area.h **** }
 6063              		.loc 2 125 12 view .LVU2225
 6064 03aa 24B2     		sxth	r4, r4
 6065              	.LVL548:
 125:Drivers/lvgl/src/draw/sw/../../misc/lv_area.h **** }
 6066              		.loc 2 125 12 view .LVU2226
 6067              	.LBE215:
 6068              	.LBE214:
1317:Drivers/lvgl/src/draw/sw/lv_draw_sw_rect.c ****             if(left_side || top_side) {
 6069              		.loc 1 1317 9 is_stmt 1 view .LVU2227
1317:Drivers/lvgl/src/draw/sw/lv_draw_sw_rect.c ****             if(left_side || top_side) {
 6070              		.loc 1 1317 11 is_stmt 0 view .LVU2228
 6071 03ac 002C     		cmp	r4, #0
 6072 03ae 46DD     		ble	.L322
1318:Drivers/lvgl/src/draw/sw/lv_draw_sw_rect.c ****                 for(h = draw_area.y1; h < core_area.y1; h++) {
 6073              		.loc 1 1318 13 is_stmt 1 view .LVU2229
1318:Drivers/lvgl/src/draw/sw/lv_draw_sw_rect.c ****                 for(h = draw_area.y1; h < core_area.y1; h++) {
 6074              		.loc 1 1318 15 is_stmt 0 view .LVU2230
 6075 03b0 079B     		ldr	r3, [sp, #28]
 6076 03b2 089A     		ldr	r2, [sp, #32]
 6077 03b4 9342     		cmp	r3, r2
 6078 03b6 01DA     		bge	.L323
1318:Drivers/lvgl/src/draw/sw/lv_draw_sw_rect.c ****                 for(h = draw_area.y1; h < core_area.y1; h++) {
 6079              		.loc 1 1318 26 discriminator 1 view .LVU2231
 6080 03b8 D345     		cmp	fp, r10
 6081 03ba 1BDB     		blt	.L324
 6082              	.L323:
1319:Drivers/lvgl/src/draw/sw/lv_draw_sw_rect.c ****                     blend_area.y1 = h;
 6083              		.loc 1 1319 17 is_stmt 1 view .LVU2232
1319:Drivers/lvgl/src/draw/sw/lv_draw_sw_rect.c ****                     blend_area.y1 = h;
 6084              		.loc 1 1319 34 is_stmt 0 view .LVU2233
 6085 03bc BDF9A250 		ldrsh	r5, [sp, #162]
 6086              	.LVL549:
1319:Drivers/lvgl/src/draw/sw/lv_draw_sw_rect.c ****                     blend_area.y1 = h;
 6087              		.loc 1 1319 17 view .LVU2234
 6088 03c0 16E0     		b	.L325
 6089              	.L326:
1320:Drivers/lvgl/src/draw/sw/lv_draw_sw_rect.c ****                     blend_area.y2 = h;
 6090              		.loc 1 1320 21 is_stmt 1 discriminator 3 view .LVU2235
1320:Drivers/lvgl/src/draw/sw/lv_draw_sw_rect.c ****                     blend_area.y2 = h;
 6091              		.loc 1 1320 35 is_stmt 0 discriminator 3 view .LVU2236
 6092 03c2 2FB2     		sxth	r7, r5
 6093 03c4 ADF84E70 		strh	r7, [sp, #78]	@ movhi
1321:Drivers/lvgl/src/draw/sw/lv_draw_sw_rect.c **** 
ARM GAS  /var/folders/0z/tsy30v1j4xl4_7kw94k978ww0000gn/T//cc0noGMx.s 			page 172


 6094              		.loc 1 1321 21 is_stmt 1 discriminator 3 view .LVU2237
1321:Drivers/lvgl/src/draw/sw/lv_draw_sw_rect.c **** 
 6095              		.loc 1 1321 35 is_stmt 0 discriminator 3 view .LVU2238
 6096 03c8 ADF85270 		strh	r7, [sp, #82]	@ movhi
1323:Drivers/lvgl/src/draw/sw/lv_draw_sw_rect.c ****                     blend_dsc.mask_res = lv_draw_mask_apply(blend_dsc.mask_buf, blend_area.x1, h, b
 6097              		.loc 1 1323 21 is_stmt 1 discriminator 3 view .LVU2239
 6098 03cc 2146     		mov	r1, r4
 6099 03ce 2498     		ldr	r0, [sp, #144]
 6100 03d0 FFF7FEFF 		bl	lv_memset_ff
 6101              	.LVL550:
1324:Drivers/lvgl/src/draw/sw/lv_draw_sw_rect.c ****                     lv_draw_sw_blend(draw_ctx, &blend_dsc);
 6102              		.loc 1 1324 21 discriminator 3 view .LVU2240
1324:Drivers/lvgl/src/draw/sw/lv_draw_sw_rect.c ****                     lv_draw_sw_blend(draw_ctx, &blend_dsc);
 6103              		.loc 1 1324 42 is_stmt 0 discriminator 3 view .LVU2241
 6104 03d4 2346     		mov	r3, r4
 6105 03d6 3A46     		mov	r2, r7
 6106 03d8 BDF94C10 		ldrsh	r1, [sp, #76]
 6107 03dc 2498     		ldr	r0, [sp, #144]
 6108 03de FFF7FEFF 		bl	lv_draw_mask_apply
 6109              	.LVL551:
1324:Drivers/lvgl/src/draw/sw/lv_draw_sw_rect.c ****                     lv_draw_sw_blend(draw_ctx, &blend_dsc);
 6110              		.loc 1 1324 40 discriminator 3 view .LVU2242
 6111 03e2 8DF89400 		strb	r0, [sp, #148]
1325:Drivers/lvgl/src/draw/sw/lv_draw_sw_rect.c ****                 }
 6112              		.loc 1 1325 21 is_stmt 1 discriminator 3 view .LVU2243
 6113 03e6 21A9     		add	r1, sp, #132
 6114 03e8 3046     		mov	r0, r6
 6115 03ea FFF7FEFF 		bl	lv_draw_sw_blend
 6116              	.LVL552:
1319:Drivers/lvgl/src/draw/sw/lv_draw_sw_rect.c ****                     blend_area.y1 = h;
 6117              		.loc 1 1319 58 discriminator 3 view .LVU2244
 6118 03ee 0135     		adds	r5, r5, #1
 6119              	.LVL553:
 6120              	.L325:
1319:Drivers/lvgl/src/draw/sw/lv_draw_sw_rect.c ****                     blend_area.y1 = h;
 6121              		.loc 1 1319 41 discriminator 1 view .LVU2245
 6122 03f0 A945     		cmp	r9, r5
 6123 03f2 E6DC     		bgt	.L326
 6124              	.LVL554:
 6125              	.L324:
1329:Drivers/lvgl/src/draw/sw/lv_draw_sw_rect.c ****                 for(h = core_area.y2 + 1; h <= draw_area.y2; h++) {
 6126              		.loc 1 1329 13 view .LVU2246
1329:Drivers/lvgl/src/draw/sw/lv_draw_sw_rect.c ****                 for(h = core_area.y2 + 1; h <= draw_area.y2; h++) {
 6127              		.loc 1 1329 15 is_stmt 0 view .LVU2247
 6128 03f4 079B     		ldr	r3, [sp, #28]
 6129 03f6 089A     		ldr	r2, [sp, #32]
 6130 03f8 9342     		cmp	r3, r2
 6131 03fa 02DA     		bge	.L327
1329:Drivers/lvgl/src/draw/sw/lv_draw_sw_rect.c ****                 for(h = core_area.y2 + 1; h <= draw_area.y2; h++) {
 6132              		.loc 1 1329 26 discriminator 1 view .LVU2248
 6133 03fc 0B9B     		ldr	r3, [sp, #44]
 6134 03fe 4345     		cmp	r3, r8
 6135 0400 1DDC     		bgt	.L322
 6136              	.L327:
1330:Drivers/lvgl/src/draw/sw/lv_draw_sw_rect.c ****                     blend_area.y1 = h;
 6137              		.loc 1 1330 17 is_stmt 1 view .LVU2249
1330:Drivers/lvgl/src/draw/sw/lv_draw_sw_rect.c ****                     blend_area.y1 = h;
ARM GAS  /var/folders/0z/tsy30v1j4xl4_7kw94k978ww0000gn/T//cc0noGMx.s 			page 173


 6138              		.loc 1 1330 23 is_stmt 0 view .LVU2250
 6139 0402 049B     		ldr	r3, [sp, #16]
 6140 0404 5D1C     		adds	r5, r3, #1
 6141              	.LVL555:
1330:Drivers/lvgl/src/draw/sw/lv_draw_sw_rect.c ****                     blend_area.y1 = h;
 6142              		.loc 1 1330 17 view .LVU2251
 6143 0406 16E0     		b	.L328
 6144              	.L329:
1331:Drivers/lvgl/src/draw/sw/lv_draw_sw_rect.c ****                     blend_area.y2 = h;
 6145              		.loc 1 1331 21 is_stmt 1 discriminator 3 view .LVU2252
1331:Drivers/lvgl/src/draw/sw/lv_draw_sw_rect.c ****                     blend_area.y2 = h;
 6146              		.loc 1 1331 35 is_stmt 0 discriminator 3 view .LVU2253
 6147 0408 2FB2     		sxth	r7, r5
 6148 040a ADF84E70 		strh	r7, [sp, #78]	@ movhi
1332:Drivers/lvgl/src/draw/sw/lv_draw_sw_rect.c **** 
 6149              		.loc 1 1332 21 is_stmt 1 discriminator 3 view .LVU2254
1332:Drivers/lvgl/src/draw/sw/lv_draw_sw_rect.c **** 
 6150              		.loc 1 1332 35 is_stmt 0 discriminator 3 view .LVU2255
 6151 040e ADF85270 		strh	r7, [sp, #82]	@ movhi
1334:Drivers/lvgl/src/draw/sw/lv_draw_sw_rect.c ****                     blend_dsc.mask_res = lv_draw_mask_apply(blend_dsc.mask_buf, blend_area.x1, h, b
 6152              		.loc 1 1334 21 is_stmt 1 discriminator 3 view .LVU2256
 6153 0412 2146     		mov	r1, r4
 6154 0414 2498     		ldr	r0, [sp, #144]
 6155 0416 FFF7FEFF 		bl	lv_memset_ff
 6156              	.LVL556:
1335:Drivers/lvgl/src/draw/sw/lv_draw_sw_rect.c ****                     lv_draw_sw_blend(draw_ctx, &blend_dsc);
 6157              		.loc 1 1335 21 discriminator 3 view .LVU2257
1335:Drivers/lvgl/src/draw/sw/lv_draw_sw_rect.c ****                     lv_draw_sw_blend(draw_ctx, &blend_dsc);
 6158              		.loc 1 1335 42 is_stmt 0 discriminator 3 view .LVU2258
 6159 041a 2346     		mov	r3, r4
 6160 041c 3A46     		mov	r2, r7
 6161 041e BDF94C10 		ldrsh	r1, [sp, #76]
 6162 0422 2498     		ldr	r0, [sp, #144]
 6163 0424 FFF7FEFF 		bl	lv_draw_mask_apply
 6164              	.LVL557:
1335:Drivers/lvgl/src/draw/sw/lv_draw_sw_rect.c ****                     lv_draw_sw_blend(draw_ctx, &blend_dsc);
 6165              		.loc 1 1335 40 discriminator 3 view .LVU2259
 6166 0428 8DF89400 		strb	r0, [sp, #148]
1336:Drivers/lvgl/src/draw/sw/lv_draw_sw_rect.c ****                 }
 6167              		.loc 1 1336 21 is_stmt 1 discriminator 3 view .LVU2260
 6168 042c 21A9     		add	r1, sp, #132
 6169 042e 3046     		mov	r0, r6
 6170 0430 FFF7FEFF 		bl	lv_draw_sw_blend
 6171              	.LVL558:
1330:Drivers/lvgl/src/draw/sw/lv_draw_sw_rect.c ****                     blend_area.y1 = h;
 6172              		.loc 1 1330 63 discriminator 3 view .LVU2261
 6173 0434 0135     		adds	r5, r5, #1
 6174              	.LVL559:
 6175              	.L328:
1330:Drivers/lvgl/src/draw/sw/lv_draw_sw_rect.c ****                     blend_area.y1 = h;
 6176              		.loc 1 1330 45 discriminator 1 view .LVU2262
1330:Drivers/lvgl/src/draw/sw/lv_draw_sw_rect.c ****                     blend_area.y1 = h;
 6177              		.loc 1 1330 57 is_stmt 0 discriminator 1 view .LVU2263
 6178 0436 BDF9A630 		ldrsh	r3, [sp, #166]
1330:Drivers/lvgl/src/draw/sw/lv_draw_sw_rect.c ****                     blend_area.y1 = h;
 6179              		.loc 1 1330 45 discriminator 1 view .LVU2264
 6180 043a AB42     		cmp	r3, r5
ARM GAS  /var/folders/0z/tsy30v1j4xl4_7kw94k978ww0000gn/T//cc0noGMx.s 			page 174


 6181 043c E4DA     		bge	.L329
 6182              	.LVL560:
 6183              	.L322:
1342:Drivers/lvgl/src/draw/sw/lv_draw_sw_rect.c ****         blend_area.x2 = draw_area.x2;
 6184              		.loc 1 1342 9 is_stmt 1 view .LVU2265
1342:Drivers/lvgl/src/draw/sw/lv_draw_sw_rect.c ****         blend_area.x2 = draw_area.x2;
 6185              		.loc 1 1342 25 is_stmt 0 view .LVU2266
 6186 043e 0F9B     		ldr	r3, [sp, #60]
 6187 0440 0133     		adds	r3, r3, #1
 6188 0442 BDF9A020 		ldrsh	r2, [sp, #160]
 6189 0446 9342     		cmp	r3, r2
 6190 0448 B8BF     		it	lt
 6191 044a 1346     		movlt	r3, r2
1342:Drivers/lvgl/src/draw/sw/lv_draw_sw_rect.c ****         blend_area.x2 = draw_area.x2;
 6192              		.loc 1 1342 23 view .LVU2267
 6193 044c 1BB2     		sxth	r3, r3
 6194 044e ADF84C30 		strh	r3, [sp, #76]	@ movhi
1343:Drivers/lvgl/src/draw/sw/lv_draw_sw_rect.c ****         blend_w = lv_area_get_width(&blend_area);
 6195              		.loc 1 1343 9 is_stmt 1 view .LVU2268
1343:Drivers/lvgl/src/draw/sw/lv_draw_sw_rect.c ****         blend_w = lv_area_get_width(&blend_area);
 6196              		.loc 1 1343 34 is_stmt 0 view .LVU2269
 6197 0452 BDF9A420 		ldrsh	r2, [sp, #164]
1343:Drivers/lvgl/src/draw/sw/lv_draw_sw_rect.c ****         blend_w = lv_area_get_width(&blend_area);
 6198              		.loc 1 1343 23 view .LVU2270
 6199 0456 ADF85020 		strh	r2, [sp, #80]	@ movhi
1344:Drivers/lvgl/src/draw/sw/lv_draw_sw_rect.c **** 
 6200              		.loc 1 1344 9 is_stmt 1 view .LVU2271
 6201              	.LVL561:
 6202              	.LBB216:
 6203              	.LBI216:
 123:Drivers/lvgl/src/draw/sw/../../misc/lv_area.h **** {
 6204              		.loc 2 123 26 view .LVU2272
 6205              	.LBB217:
 125:Drivers/lvgl/src/draw/sw/../../misc/lv_area.h **** }
 6206              		.loc 2 125 5 view .LVU2273
 125:Drivers/lvgl/src/draw/sw/../../misc/lv_area.h **** }
 6207              		.loc 2 125 31 is_stmt 0 view .LVU2274
 6208 045a 94B2     		uxth	r4, r2
 6209              	.LVL562:
 125:Drivers/lvgl/src/draw/sw/../../misc/lv_area.h **** }
 6210              		.loc 2 125 44 view .LVU2275
 6211 045c 9BB2     		uxth	r3, r3
 125:Drivers/lvgl/src/draw/sw/../../misc/lv_area.h **** }
 6212              		.loc 2 125 36 view .LVU2276
 6213 045e E41A     		subs	r4, r4, r3
 6214 0460 A4B2     		uxth	r4, r4
 125:Drivers/lvgl/src/draw/sw/../../misc/lv_area.h **** }
 6215              		.loc 2 125 49 view .LVU2277
 6216 0462 0134     		adds	r4, r4, #1
 125:Drivers/lvgl/src/draw/sw/../../misc/lv_area.h **** }
 6217              		.loc 2 125 12 view .LVU2278
 6218 0464 24B2     		sxth	r4, r4
 6219              	.LVL563:
 125:Drivers/lvgl/src/draw/sw/../../misc/lv_area.h **** }
 6220              		.loc 2 125 12 view .LVU2279
 6221              	.LBE217:
 6222              	.LBE216:
ARM GAS  /var/folders/0z/tsy30v1j4xl4_7kw94k978ww0000gn/T//cc0noGMx.s 			page 175


1346:Drivers/lvgl/src/draw/sw/lv_draw_sw_rect.c ****             if(right_side || top_side) {
 6223              		.loc 1 1346 9 is_stmt 1 view .LVU2280
1346:Drivers/lvgl/src/draw/sw/lv_draw_sw_rect.c ****             if(right_side || top_side) {
 6224              		.loc 1 1346 11 is_stmt 0 view .LVU2281
 6225 0466 002C     		cmp	r4, #0
 6226 0468 46DD     		ble	.L321
1347:Drivers/lvgl/src/draw/sw/lv_draw_sw_rect.c ****                 for(h = draw_area.y1; h < core_area.y1; h++) {
 6227              		.loc 1 1347 13 is_stmt 1 view .LVU2282
1347:Drivers/lvgl/src/draw/sw/lv_draw_sw_rect.c ****                 for(h = draw_area.y1; h < core_area.y1; h++) {
 6228              		.loc 1 1347 15 is_stmt 0 view .LVU2283
 6229 046a 099B     		ldr	r3, [sp, #36]
 6230 046c 0A9A     		ldr	r2, [sp, #40]
 6231 046e 9342     		cmp	r3, r2
 6232 0470 01DD     		ble	.L330
1347:Drivers/lvgl/src/draw/sw/lv_draw_sw_rect.c ****                 for(h = draw_area.y1; h < core_area.y1; h++) {
 6233              		.loc 1 1347 27 discriminator 1 view .LVU2284
 6234 0472 D345     		cmp	fp, r10
 6235 0474 1BDB     		blt	.L331
 6236              	.L330:
1348:Drivers/lvgl/src/draw/sw/lv_draw_sw_rect.c ****                     blend_area.y1 = h;
 6237              		.loc 1 1348 17 is_stmt 1 view .LVU2285
1348:Drivers/lvgl/src/draw/sw/lv_draw_sw_rect.c ****                     blend_area.y1 = h;
 6238              		.loc 1 1348 34 is_stmt 0 view .LVU2286
 6239 0476 BDF9A250 		ldrsh	r5, [sp, #162]
 6240              	.LVL564:
1348:Drivers/lvgl/src/draw/sw/lv_draw_sw_rect.c ****                     blend_area.y1 = h;
 6241              		.loc 1 1348 17 view .LVU2287
 6242 047a 16E0     		b	.L332
 6243              	.L333:
1349:Drivers/lvgl/src/draw/sw/lv_draw_sw_rect.c ****                     blend_area.y2 = h;
 6244              		.loc 1 1349 21 is_stmt 1 discriminator 3 view .LVU2288
1349:Drivers/lvgl/src/draw/sw/lv_draw_sw_rect.c ****                     blend_area.y2 = h;
 6245              		.loc 1 1349 35 is_stmt 0 discriminator 3 view .LVU2289
 6246 047c 2FB2     		sxth	r7, r5
 6247 047e ADF84E70 		strh	r7, [sp, #78]	@ movhi
1350:Drivers/lvgl/src/draw/sw/lv_draw_sw_rect.c **** 
 6248              		.loc 1 1350 21 is_stmt 1 discriminator 3 view .LVU2290
1350:Drivers/lvgl/src/draw/sw/lv_draw_sw_rect.c **** 
 6249              		.loc 1 1350 35 is_stmt 0 discriminator 3 view .LVU2291
 6250 0482 ADF85270 		strh	r7, [sp, #82]	@ movhi
1352:Drivers/lvgl/src/draw/sw/lv_draw_sw_rect.c ****                     blend_dsc.mask_res = lv_draw_mask_apply(blend_dsc.mask_buf, blend_area.x1, h, b
 6251              		.loc 1 1352 21 is_stmt 1 discriminator 3 view .LVU2292
 6252 0486 2146     		mov	r1, r4
 6253 0488 2498     		ldr	r0, [sp, #144]
 6254 048a FFF7FEFF 		bl	lv_memset_ff
 6255              	.LVL565:
1353:Drivers/lvgl/src/draw/sw/lv_draw_sw_rect.c ****                     lv_draw_sw_blend(draw_ctx, &blend_dsc);
 6256              		.loc 1 1353 21 discriminator 3 view .LVU2293
1353:Drivers/lvgl/src/draw/sw/lv_draw_sw_rect.c ****                     lv_draw_sw_blend(draw_ctx, &blend_dsc);
 6257              		.loc 1 1353 42 is_stmt 0 discriminator 3 view .LVU2294
 6258 048e 2346     		mov	r3, r4
 6259 0490 3A46     		mov	r2, r7
 6260 0492 BDF94C10 		ldrsh	r1, [sp, #76]
 6261 0496 2498     		ldr	r0, [sp, #144]
 6262 0498 FFF7FEFF 		bl	lv_draw_mask_apply
 6263              	.LVL566:
1353:Drivers/lvgl/src/draw/sw/lv_draw_sw_rect.c ****                     lv_draw_sw_blend(draw_ctx, &blend_dsc);
ARM GAS  /var/folders/0z/tsy30v1j4xl4_7kw94k978ww0000gn/T//cc0noGMx.s 			page 176


 6264              		.loc 1 1353 40 discriminator 3 view .LVU2295
 6265 049c 8DF89400 		strb	r0, [sp, #148]
1354:Drivers/lvgl/src/draw/sw/lv_draw_sw_rect.c ****                 }
 6266              		.loc 1 1354 21 is_stmt 1 discriminator 3 view .LVU2296
 6267 04a0 21A9     		add	r1, sp, #132
 6268 04a2 3046     		mov	r0, r6
 6269 04a4 FFF7FEFF 		bl	lv_draw_sw_blend
 6270              	.LVL567:
1348:Drivers/lvgl/src/draw/sw/lv_draw_sw_rect.c ****                     blend_area.y1 = h;
 6271              		.loc 1 1348 58 discriminator 3 view .LVU2297
 6272 04a8 0135     		adds	r5, r5, #1
 6273              	.LVL568:
 6274              	.L332:
1348:Drivers/lvgl/src/draw/sw/lv_draw_sw_rect.c ****                     blend_area.y1 = h;
 6275              		.loc 1 1348 41 discriminator 1 view .LVU2298
 6276 04aa A945     		cmp	r9, r5
 6277 04ac E6DC     		bgt	.L333
 6278              	.LVL569:
 6279              	.L331:
1358:Drivers/lvgl/src/draw/sw/lv_draw_sw_rect.c ****                 for(h = core_area.y2 + 1; h <= draw_area.y2; h++) {
 6280              		.loc 1 1358 13 view .LVU2299
1358:Drivers/lvgl/src/draw/sw/lv_draw_sw_rect.c ****                 for(h = core_area.y2 + 1; h <= draw_area.y2; h++) {
 6281              		.loc 1 1358 15 is_stmt 0 view .LVU2300
 6282 04ae 099B     		ldr	r3, [sp, #36]
 6283 04b0 0A9A     		ldr	r2, [sp, #40]
 6284 04b2 9342     		cmp	r3, r2
 6285 04b4 02DD     		ble	.L334
1358:Drivers/lvgl/src/draw/sw/lv_draw_sw_rect.c ****                 for(h = core_area.y2 + 1; h <= draw_area.y2; h++) {
 6286              		.loc 1 1358 27 discriminator 1 view .LVU2301
 6287 04b6 0B9B     		ldr	r3, [sp, #44]
 6288 04b8 4345     		cmp	r3, r8
 6289 04ba 1DDC     		bgt	.L321
 6290              	.L334:
1359:Drivers/lvgl/src/draw/sw/lv_draw_sw_rect.c ****                     blend_area.y1 = h;
 6291              		.loc 1 1359 17 is_stmt 1 view .LVU2302
1359:Drivers/lvgl/src/draw/sw/lv_draw_sw_rect.c ****                     blend_area.y1 = h;
 6292              		.loc 1 1359 23 is_stmt 0 view .LVU2303
 6293 04bc 049D     		ldr	r5, [sp, #16]
 6294 04be 0135     		adds	r5, r5, #1
 6295              	.LVL570:
1359:Drivers/lvgl/src/draw/sw/lv_draw_sw_rect.c ****                     blend_area.y1 = h;
 6296              		.loc 1 1359 17 view .LVU2304
 6297 04c0 16E0     		b	.L335
 6298              	.L336:
1360:Drivers/lvgl/src/draw/sw/lv_draw_sw_rect.c ****                     blend_area.y2 = h;
 6299              		.loc 1 1360 21 is_stmt 1 discriminator 3 view .LVU2305
1360:Drivers/lvgl/src/draw/sw/lv_draw_sw_rect.c ****                     blend_area.y2 = h;
 6300              		.loc 1 1360 35 is_stmt 0 discriminator 3 view .LVU2306
 6301 04c2 2FB2     		sxth	r7, r5
 6302 04c4 ADF84E70 		strh	r7, [sp, #78]	@ movhi
1361:Drivers/lvgl/src/draw/sw/lv_draw_sw_rect.c **** 
 6303              		.loc 1 1361 21 is_stmt 1 discriminator 3 view .LVU2307
1361:Drivers/lvgl/src/draw/sw/lv_draw_sw_rect.c **** 
 6304              		.loc 1 1361 35 is_stmt 0 discriminator 3 view .LVU2308
 6305 04c8 ADF85270 		strh	r7, [sp, #82]	@ movhi
1363:Drivers/lvgl/src/draw/sw/lv_draw_sw_rect.c ****                     blend_dsc.mask_res = lv_draw_mask_apply(blend_dsc.mask_buf, blend_area.x1, h, b
 6306              		.loc 1 1363 21 is_stmt 1 discriminator 3 view .LVU2309
ARM GAS  /var/folders/0z/tsy30v1j4xl4_7kw94k978ww0000gn/T//cc0noGMx.s 			page 177


 6307 04cc 2146     		mov	r1, r4
 6308 04ce 2498     		ldr	r0, [sp, #144]
 6309 04d0 FFF7FEFF 		bl	lv_memset_ff
 6310              	.LVL571:
1364:Drivers/lvgl/src/draw/sw/lv_draw_sw_rect.c ****                     lv_draw_sw_blend(draw_ctx, &blend_dsc);
 6311              		.loc 1 1364 21 discriminator 3 view .LVU2310
1364:Drivers/lvgl/src/draw/sw/lv_draw_sw_rect.c ****                     lv_draw_sw_blend(draw_ctx, &blend_dsc);
 6312              		.loc 1 1364 42 is_stmt 0 discriminator 3 view .LVU2311
 6313 04d4 2346     		mov	r3, r4
 6314 04d6 3A46     		mov	r2, r7
 6315 04d8 BDF94C10 		ldrsh	r1, [sp, #76]
 6316 04dc 2498     		ldr	r0, [sp, #144]
 6317 04de FFF7FEFF 		bl	lv_draw_mask_apply
 6318              	.LVL572:
1364:Drivers/lvgl/src/draw/sw/lv_draw_sw_rect.c ****                     lv_draw_sw_blend(draw_ctx, &blend_dsc);
 6319              		.loc 1 1364 40 discriminator 3 view .LVU2312
 6320 04e2 8DF89400 		strb	r0, [sp, #148]
1365:Drivers/lvgl/src/draw/sw/lv_draw_sw_rect.c ****                 }
 6321              		.loc 1 1365 21 is_stmt 1 discriminator 3 view .LVU2313
 6322 04e6 21A9     		add	r1, sp, #132
 6323 04e8 3046     		mov	r0, r6
 6324 04ea FFF7FEFF 		bl	lv_draw_sw_blend
 6325              	.LVL573:
1359:Drivers/lvgl/src/draw/sw/lv_draw_sw_rect.c ****                     blend_area.y1 = h;
 6326              		.loc 1 1359 63 discriminator 3 view .LVU2314
 6327 04ee 0135     		adds	r5, r5, #1
 6328              	.LVL574:
 6329              	.L335:
1359:Drivers/lvgl/src/draw/sw/lv_draw_sw_rect.c ****                     blend_area.y1 = h;
 6330              		.loc 1 1359 45 discriminator 1 view .LVU2315
1359:Drivers/lvgl/src/draw/sw/lv_draw_sw_rect.c ****                     blend_area.y1 = h;
 6331              		.loc 1 1359 57 is_stmt 0 discriminator 1 view .LVU2316
 6332 04f0 BDF9A630 		ldrsh	r3, [sp, #166]
1359:Drivers/lvgl/src/draw/sw/lv_draw_sw_rect.c ****                     blend_area.y1 = h;
 6333              		.loc 1 1359 45 discriminator 1 view .LVU2317
 6334 04f4 AB42     		cmp	r3, r5
 6335 04f6 E4DA     		bge	.L336
 6336              	.LVL575:
 6337              	.L321:
1371:Drivers/lvgl/src/draw/sw/lv_draw_sw_rect.c ****     lv_draw_mask_remove_id(mask_rin_id);
 6338              		.loc 1 1371 5 is_stmt 1 discriminator 1 view .LVU2318
 6339 04f8 15A8     		add	r0, sp, #84
 6340 04fa FFF7FEFF 		bl	lv_draw_mask_free_param
 6341              	.LVL576:
1372:Drivers/lvgl/src/draw/sw/lv_draw_sw_rect.c ****     lv_draw_mask_free_param(&mask_rout_param);
 6342              		.loc 1 1372 5 discriminator 1 view .LVU2319
 6343 04fe 0C98     		ldr	r0, [sp, #48]
 6344 0500 FFF7FEFF 		bl	lv_draw_mask_remove_id
 6345              	.LVL577:
1373:Drivers/lvgl/src/draw/sw/lv_draw_sw_rect.c ****     lv_draw_mask_remove_id(mask_rout_id);
 6346              		.loc 1 1373 5 discriminator 1 view .LVU2320
 6347 0504 1BA8     		add	r0, sp, #108
 6348 0506 FFF7FEFF 		bl	lv_draw_mask_free_param
 6349              	.LVL578:
1374:Drivers/lvgl/src/draw/sw/lv_draw_sw_rect.c ****     lv_mem_buf_release(blend_dsc.mask_buf);
 6350              		.loc 1 1374 5 discriminator 1 view .LVU2321
 6351 050a 0D98     		ldr	r0, [sp, #52]
ARM GAS  /var/folders/0z/tsy30v1j4xl4_7kw94k978ww0000gn/T//cc0noGMx.s 			page 178


 6352 050c FFF7FEFF 		bl	lv_draw_mask_remove_id
 6353              	.LVL579:
1375:Drivers/lvgl/src/draw/sw/lv_draw_sw_rect.c **** 
 6354              		.loc 1 1375 5 discriminator 1 view .LVU2322
 6355 0510 2498     		ldr	r0, [sp, #144]
 6356 0512 FFF7FEFF 		bl	lv_mem_buf_release
 6357              	.LVL580:
 6358 0516 8EE5     		b	.L298
 6359              		.cfi_endproc
 6360              	.LFE170:
 6362              		.section	.text.draw_border,"ax",%progbits
 6363              		.align	1
 6364              		.syntax unified
 6365              		.thumb
 6366              		.thumb_func
 6368              	draw_border:
 6369              	.LVL581:
 6370              	.LFB165:
 405:Drivers/lvgl/src/draw/sw/lv_draw_sw_rect.c ****     if(dsc->border_opa <= LV_OPA_MIN) return;
 6371              		.loc 1 405 1 view -0
 6372              		.cfi_startproc
 6373              		@ args = 0, pretend = 0, frame = 16
 6374              		@ frame_needed = 0, uses_anonymous_args = 0
 405:Drivers/lvgl/src/draw/sw/lv_draw_sw_rect.c ****     if(dsc->border_opa <= LV_OPA_MIN) return;
 6375              		.loc 1 405 1 is_stmt 0 view .LVU2324
 6376 0000 2DE9F04F 		push	{r4, r5, r6, r7, r8, r9, r10, fp, lr}
 6377              		.cfi_def_cfa_offset 36
 6378              		.cfi_offset 4, -36
 6379              		.cfi_offset 5, -32
 6380              		.cfi_offset 6, -28
 6381              		.cfi_offset 7, -24
 6382              		.cfi_offset 8, -20
 6383              		.cfi_offset 9, -16
 6384              		.cfi_offset 10, -12
 6385              		.cfi_offset 11, -8
 6386              		.cfi_offset 14, -4
 6387 0004 89B0     		sub	sp, sp, #36
 6388              		.cfi_def_cfa_offset 72
 6389 0006 0490     		str	r0, [sp, #16]
 6390 0008 0846     		mov	r0, r1
 6391              	.LVL582:
 406:Drivers/lvgl/src/draw/sw/lv_draw_sw_rect.c ****     if(dsc->border_width == 0) return;
 6392              		.loc 1 406 5 is_stmt 1 view .LVU2325
 406:Drivers/lvgl/src/draw/sw/lv_draw_sw_rect.c ****     if(dsc->border_width == 0) return;
 6393              		.loc 1 406 11 is_stmt 0 view .LVU2326
 6394 000a 91F82240 		ldrb	r4, [r1, #34]	@ zero_extendqisi2
 406:Drivers/lvgl/src/draw/sw/lv_draw_sw_rect.c ****     if(dsc->border_width == 0) return;
 6395              		.loc 1 406 7 view .LVU2327
 6396 000e 022C     		cmp	r4, #2
 6397 0010 6FD9     		bls	.L352
 6398 0012 1146     		mov	r1, r2
 6399              	.LVL583:
 407:Drivers/lvgl/src/draw/sw/lv_draw_sw_rect.c ****     if(dsc->border_side == LV_BORDER_SIDE_NONE) return;
 6400              		.loc 1 407 5 is_stmt 1 view .LVU2328
 407:Drivers/lvgl/src/draw/sw/lv_draw_sw_rect.c ****     if(dsc->border_side == LV_BORDER_SIDE_NONE) return;
 6401              		.loc 1 407 11 is_stmt 0 view .LVU2329
 6402 0014 B0F92020 		ldrsh	r2, [r0, #32]
ARM GAS  /var/folders/0z/tsy30v1j4xl4_7kw94k978ww0000gn/T//cc0noGMx.s 			page 179


 6403              	.LVL584:
 407:Drivers/lvgl/src/draw/sw/lv_draw_sw_rect.c ****     if(dsc->border_side == LV_BORDER_SIDE_NONE) return;
 6404              		.loc 1 407 7 view .LVU2330
 6405 0018 002A     		cmp	r2, #0
 6406 001a 6AD0     		beq	.L352
 408:Drivers/lvgl/src/draw/sw/lv_draw_sw_rect.c ****     if(dsc->border_post) return;
 6407              		.loc 1 408 5 is_stmt 1 view .LVU2331
 408:Drivers/lvgl/src/draw/sw/lv_draw_sw_rect.c ****     if(dsc->border_post) return;
 6408              		.loc 1 408 25 is_stmt 0 view .LVU2332
 6409 001c 90F82330 		ldrb	r3, [r0, #35]	@ zero_extendqisi2
 408:Drivers/lvgl/src/draw/sw/lv_draw_sw_rect.c ****     if(dsc->border_post) return;
 6410              		.loc 1 408 7 view .LVU2333
 6411 0020 13F03E0F 		tst	r3, #62
 6412 0024 65D0     		beq	.L352
 409:Drivers/lvgl/src/draw/sw/lv_draw_sw_rect.c **** 
 6413              		.loc 1 409 5 is_stmt 1 view .LVU2334
 409:Drivers/lvgl/src/draw/sw/lv_draw_sw_rect.c **** 
 6414              		.loc 1 409 7 is_stmt 0 view .LVU2335
 6415 0026 13F0010F 		tst	r3, #1
 6416 002a 62D1     		bne	.L352
 411:Drivers/lvgl/src/draw/sw/lv_draw_sw_rect.c ****     int32_t coords_h = lv_area_get_height(coords);
 6417              		.loc 1 411 5 is_stmt 1 view .LVU2336
 6418              	.LVL585:
 6419              	.LBB218:
 6420              	.LBI218:
 123:Drivers/lvgl/src/draw/sw/../../misc/lv_area.h **** {
 6421              		.loc 2 123 26 view .LVU2337
 6422              	.LBB219:
 125:Drivers/lvgl/src/draw/sw/../../misc/lv_area.h **** }
 6423              		.loc 2 125 5 view .LVU2338
 125:Drivers/lvgl/src/draw/sw/../../misc/lv_area.h **** }
 6424              		.loc 2 125 31 is_stmt 0 view .LVU2339
 6425 002c B1F90480 		ldrsh	r8, [r1, #4]
 6426 0030 1FFA88F3 		uxth	r3, r8
 6427 0034 0593     		str	r3, [sp, #20]
 125:Drivers/lvgl/src/draw/sw/../../misc/lv_area.h **** }
 6428              		.loc 2 125 44 view .LVU2340
 6429 0036 B1F900A0 		ldrsh	r10, [r1]
 6430 003a 1FFA8AF7 		uxth	r7, r10
 125:Drivers/lvgl/src/draw/sw/../../misc/lv_area.h **** }
 6431              		.loc 2 125 36 view .LVU2341
 6432 003e DB1B     		subs	r3, r3, r7
 6433 0040 9BB2     		uxth	r3, r3
 125:Drivers/lvgl/src/draw/sw/../../misc/lv_area.h **** }
 6434              		.loc 2 125 49 view .LVU2342
 6435 0042 0133     		adds	r3, r3, #1
 125:Drivers/lvgl/src/draw/sw/../../misc/lv_area.h **** }
 6436              		.loc 2 125 12 view .LVU2343
 6437 0044 1BB2     		sxth	r3, r3
 6438              	.LVL586:
 125:Drivers/lvgl/src/draw/sw/../../misc/lv_area.h **** }
 6439              		.loc 2 125 12 view .LVU2344
 6440              	.LBE219:
 6441              	.LBE218:
 412:Drivers/lvgl/src/draw/sw/lv_draw_sw_rect.c ****     int32_t rout = dsc->radius;
 6442              		.loc 1 412 5 is_stmt 1 view .LVU2345
 6443              	.LBB220:
ARM GAS  /var/folders/0z/tsy30v1j4xl4_7kw94k978ww0000gn/T//cc0noGMx.s 			page 180


 6444              	.LBI220:
 133:Drivers/lvgl/src/draw/sw/../../misc/lv_area.h **** {
 6445              		.loc 2 133 26 view .LVU2346
 6446              	.LBB221:
 6447              		.loc 2 135 5 view .LVU2347
 6448              		.loc 2 135 31 is_stmt 0 view .LVU2348
 6449 0046 B1F906B0 		ldrsh	fp, [r1, #6]
 6450 004a 1FFA8BFE 		uxth	lr, fp
 6451              		.loc 2 135 44 view .LVU2349
 6452 004e B1F90290 		ldrsh	r9, [r1, #2]
 6453 0052 1FFA89F6 		uxth	r6, r9
 6454              		.loc 2 135 36 view .LVU2350
 6455 0056 AEEB060C 		sub	ip, lr, r6
 6456 005a 1FFA8CFC 		uxth	ip, ip
 6457              		.loc 2 135 49 view .LVU2351
 6458 005e 0CF1010C 		add	ip, ip, #1
 6459              		.loc 2 135 12 view .LVU2352
 6460 0062 0FFA8CFC 		sxth	ip, ip
 6461              	.LVL587:
 6462              		.loc 2 135 12 view .LVU2353
 6463              	.LBE221:
 6464              	.LBE220:
 413:Drivers/lvgl/src/draw/sw/lv_draw_sw_rect.c ****     int32_t short_side = LV_MIN(coords_w, coords_h);
 6465              		.loc 1 413 5 is_stmt 1 view .LVU2354
 413:Drivers/lvgl/src/draw/sw/lv_draw_sw_rect.c ****     int32_t short_side = LV_MIN(coords_w, coords_h);
 6466              		.loc 1 413 23 is_stmt 0 view .LVU2355
 6467 0066 B0F90050 		ldrsh	r5, [r0]
 6468              	.LVL588:
 414:Drivers/lvgl/src/draw/sw/lv_draw_sw_rect.c ****     if(rout > short_side >> 1) rout = short_side >> 1;
 6469              		.loc 1 414 5 is_stmt 1 view .LVU2356
 414:Drivers/lvgl/src/draw/sw/lv_draw_sw_rect.c ****     if(rout > short_side >> 1) rout = short_side >> 1;
 6470              		.loc 1 414 13 is_stmt 0 view .LVU2357
 6471 006a 9C45     		cmp	ip, r3
 6472 006c A8BF     		it	ge
 6473 006e 9C46     		movge	ip, r3
 6474              	.LVL589:
 415:Drivers/lvgl/src/draw/sw/lv_draw_sw_rect.c **** 
 6475              		.loc 1 415 5 is_stmt 1 view .LVU2358
 415:Drivers/lvgl/src/draw/sw/lv_draw_sw_rect.c **** 
 6476              		.loc 1 415 26 is_stmt 0 view .LVU2359
 6477 0070 4FEA6C03 		asr	r3, ip, #1
 6478              	.LVL590:
 415:Drivers/lvgl/src/draw/sw/lv_draw_sw_rect.c **** 
 6479              		.loc 1 415 7 view .LVU2360
 6480 0074 B5EB6C0F 		cmp	r5, ip, asr #1
 6481 0078 00DC     		bgt	.L354
 413:Drivers/lvgl/src/draw/sw/lv_draw_sw_rect.c ****     int32_t short_side = LV_MIN(coords_w, coords_h);
 6482              		.loc 1 413 13 view .LVU2361
 6483 007a 2B46     		mov	r3, r5
 6484              	.L354:
 6485              	.LVL591:
 418:Drivers/lvgl/src/draw/sw/lv_draw_sw_rect.c ****     lv_area_copy(&area_inner, coords);
 6486              		.loc 1 418 5 is_stmt 1 view .LVU2362
 419:Drivers/lvgl/src/draw/sw/lv_draw_sw_rect.c ****     area_inner.x1 += ((dsc->border_side & LV_BORDER_SIDE_LEFT) ? dsc->border_width : - (dsc->border
 6487              		.loc 1 419 5 view .LVU2363
 6488              	.LBB222:
 6489              	.LBI222:
ARM GAS  /var/folders/0z/tsy30v1j4xl4_7kw94k978ww0000gn/T//cc0noGMx.s 			page 181


 110:Drivers/lvgl/src/draw/sw/../../misc/lv_area.h **** {
 6490              		.loc 2 110 20 view .LVU2364
 6491              	.LBB223:
 112:Drivers/lvgl/src/draw/sw/../../misc/lv_area.h ****     dest->y1 = src->y1;
 6492              		.loc 2 112 5 view .LVU2365
 112:Drivers/lvgl/src/draw/sw/../../misc/lv_area.h ****     dest->y1 = src->y1;
 6493              		.loc 2 112 14 is_stmt 0 view .LVU2366
 6494 007c ADF818A0 		strh	r10, [sp, #24]	@ movhi
 113:Drivers/lvgl/src/draw/sw/../../misc/lv_area.h ****     dest->x2 = src->x2;
 6495              		.loc 2 113 5 is_stmt 1 view .LVU2367
 113:Drivers/lvgl/src/draw/sw/../../misc/lv_area.h ****     dest->x2 = src->x2;
 6496              		.loc 2 113 14 is_stmt 0 view .LVU2368
 6497 0080 ADF81A90 		strh	r9, [sp, #26]	@ movhi
 114:Drivers/lvgl/src/draw/sw/../../misc/lv_area.h ****     dest->y2 = src->y2;
 6498              		.loc 2 114 5 is_stmt 1 view .LVU2369
 114:Drivers/lvgl/src/draw/sw/../../misc/lv_area.h ****     dest->y2 = src->y2;
 6499              		.loc 2 114 14 is_stmt 0 view .LVU2370
 6500 0084 ADF81C80 		strh	r8, [sp, #28]	@ movhi
 115:Drivers/lvgl/src/draw/sw/../../misc/lv_area.h **** }
 6501              		.loc 2 115 5 is_stmt 1 view .LVU2371
 115:Drivers/lvgl/src/draw/sw/../../misc/lv_area.h **** }
 6502              		.loc 2 115 14 is_stmt 0 view .LVU2372
 6503 0088 ADF81EB0 		strh	fp, [sp, #30]	@ movhi
 6504              	.LVL592:
 115:Drivers/lvgl/src/draw/sw/../../misc/lv_area.h **** }
 6505              		.loc 2 115 14 view .LVU2373
 6506              	.LBE223:
 6507              	.LBE222:
 420:Drivers/lvgl/src/draw/sw/lv_draw_sw_rect.c ****     area_inner.x2 -= ((dsc->border_side & LV_BORDER_SIDE_RIGHT) ? dsc->border_width : - (dsc->borde
 6508              		.loc 1 420 5 is_stmt 1 view .LVU2374
 420:Drivers/lvgl/src/draw/sw/lv_draw_sw_rect.c ****     area_inner.x2 -= ((dsc->border_side & LV_BORDER_SIDE_RIGHT) ? dsc->border_width : - (dsc->borde
 6509              		.loc 1 420 27 is_stmt 0 view .LVU2375
 6510 008c 90F82380 		ldrb	r8, [r0, #35]	@ zero_extendqisi2
 6511 0090 C8F3440C 		ubfx	ip, r8, #1, #5
 6512              	.LVL593:
 420:Drivers/lvgl/src/draw/sw/lv_draw_sw_rect.c ****     area_inner.x2 -= ((dsc->border_side & LV_BORDER_SIDE_RIGHT) ? dsc->border_width : - (dsc->borde
 6513              		.loc 1 420 19 view .LVU2376
 6514 0094 18F0080F 		tst	r8, #8
 6515 0098 2ED0     		beq	.L355
 420:Drivers/lvgl/src/draw/sw/lv_draw_sw_rect.c ****     area_inner.x2 -= ((dsc->border_side & LV_BORDER_SIDE_RIGHT) ? dsc->border_width : - (dsc->borde
 6516              		.loc 1 420 19 discriminator 1 view .LVU2377
 6517 009a 1FFA82F8 		uxth	r8, r2
 6518              	.L356:
 420:Drivers/lvgl/src/draw/sw/lv_draw_sw_rect.c ****     area_inner.x2 -= ((dsc->border_side & LV_BORDER_SIDE_RIGHT) ? dsc->border_width : - (dsc->borde
 6519              		.loc 1 420 19 discriminator 4 view .LVU2378
 6520 009e 4744     		add	r7, r7, r8
 6521              	.LVL594:
 420:Drivers/lvgl/src/draw/sw/lv_draw_sw_rect.c ****     area_inner.x2 -= ((dsc->border_side & LV_BORDER_SIDE_RIGHT) ? dsc->border_width : - (dsc->borde
 6522              		.loc 1 420 19 discriminator 4 view .LVU2379
 6523 00a0 ADF81870 		strh	r7, [sp, #24]	@ movhi
 421:Drivers/lvgl/src/draw/sw/lv_draw_sw_rect.c ****     area_inner.y1 += ((dsc->border_side & LV_BORDER_SIDE_TOP) ? dsc->border_width : - (dsc->border_
 6524              		.loc 1 421 5 is_stmt 1 discriminator 4 view .LVU2380
 421:Drivers/lvgl/src/draw/sw/lv_draw_sw_rect.c ****     area_inner.y1 += ((dsc->border_side & LV_BORDER_SIDE_TOP) ? dsc->border_width : - (dsc->border_
 6525              		.loc 1 421 19 is_stmt 0 discriminator 4 view .LVU2381
 6526 00a4 1CF0080F 		tst	ip, #8
 6527 00a8 2FD0     		beq	.L357
 421:Drivers/lvgl/src/draw/sw/lv_draw_sw_rect.c ****     area_inner.y1 += ((dsc->border_side & LV_BORDER_SIDE_TOP) ? dsc->border_width : - (dsc->border_
ARM GAS  /var/folders/0z/tsy30v1j4xl4_7kw94k978ww0000gn/T//cc0noGMx.s 			page 182


 6528              		.loc 1 421 19 discriminator 1 view .LVU2382
 6529 00aa 97B2     		uxth	r7, r2
 6530              	.L358:
 421:Drivers/lvgl/src/draw/sw/lv_draw_sw_rect.c ****     area_inner.y1 += ((dsc->border_side & LV_BORDER_SIDE_TOP) ? dsc->border_width : - (dsc->border_
 6531              		.loc 1 421 19 discriminator 4 view .LVU2383
 6532 00ac 059D     		ldr	r5, [sp, #20]
 6533 00ae ED1B     		subs	r5, r5, r7
 6534 00b0 ADF81C50 		strh	r5, [sp, #28]	@ movhi
 422:Drivers/lvgl/src/draw/sw/lv_draw_sw_rect.c ****     area_inner.y2 -= ((dsc->border_side & LV_BORDER_SIDE_BOTTOM) ? dsc->border_width : - (dsc->bord
 6535              		.loc 1 422 5 is_stmt 1 discriminator 4 view .LVU2384
 422:Drivers/lvgl/src/draw/sw/lv_draw_sw_rect.c ****     area_inner.y2 -= ((dsc->border_side & LV_BORDER_SIDE_BOTTOM) ? dsc->border_width : - (dsc->bord
 6536              		.loc 1 422 19 is_stmt 0 discriminator 4 view .LVU2385
 6537 00b4 1CF0020F 		tst	ip, #2
 6538 00b8 2DD0     		beq	.L359
 422:Drivers/lvgl/src/draw/sw/lv_draw_sw_rect.c ****     area_inner.y2 -= ((dsc->border_side & LV_BORDER_SIDE_BOTTOM) ? dsc->border_width : - (dsc->bord
 6539              		.loc 1 422 19 discriminator 1 view .LVU2386
 6540 00ba 95B2     		uxth	r5, r2
 6541              	.L360:
 422:Drivers/lvgl/src/draw/sw/lv_draw_sw_rect.c ****     area_inner.y2 -= ((dsc->border_side & LV_BORDER_SIDE_BOTTOM) ? dsc->border_width : - (dsc->bord
 6542              		.loc 1 422 19 discriminator 4 view .LVU2387
 6543 00bc 3544     		add	r5, r5, r6
 6544 00be ADF81A50 		strh	r5, [sp, #26]	@ movhi
 423:Drivers/lvgl/src/draw/sw/lv_draw_sw_rect.c **** 
 6545              		.loc 1 423 5 is_stmt 1 discriminator 4 view .LVU2388
 423:Drivers/lvgl/src/draw/sw/lv_draw_sw_rect.c **** 
 6546              		.loc 1 423 19 is_stmt 0 discriminator 4 view .LVU2389
 6547 00c2 1CF0010F 		tst	ip, #1
 6548 00c6 2CD0     		beq	.L361
 423:Drivers/lvgl/src/draw/sw/lv_draw_sw_rect.c **** 
 6549              		.loc 1 423 19 discriminator 1 view .LVU2390
 6550 00c8 95B2     		uxth	r5, r2
 6551              	.L362:
 423:Drivers/lvgl/src/draw/sw/lv_draw_sw_rect.c **** 
 6552              		.loc 1 423 19 discriminator 4 view .LVU2391
 6553 00ca AEEB050E 		sub	lr, lr, r5
 6554              	.LVL595:
 423:Drivers/lvgl/src/draw/sw/lv_draw_sw_rect.c **** 
 6555              		.loc 1 423 19 discriminator 4 view .LVU2392
 6556 00ce ADF81EE0 		strh	lr, [sp, #30]	@ movhi
 425:Drivers/lvgl/src/draw/sw/lv_draw_sw_rect.c ****     if(rin < 0) rin = 0;
 6557              		.loc 1 425 5 is_stmt 1 discriminator 4 view .LVU2393
 425:Drivers/lvgl/src/draw/sw/lv_draw_sw_rect.c ****     if(rin < 0) rin = 0;
 6558              		.loc 1 425 32 is_stmt 0 discriminator 4 view .LVU2394
 6559 00d2 92B2     		uxth	r2, r2
 425:Drivers/lvgl/src/draw/sw/lv_draw_sw_rect.c ****     if(rin < 0) rin = 0;
 6560              		.loc 1 425 27 discriminator 4 view .LVU2395
 6561 00d4 9A1A     		subs	r2, r3, r2
 425:Drivers/lvgl/src/draw/sw/lv_draw_sw_rect.c ****     if(rin < 0) rin = 0;
 6562              		.loc 1 425 16 discriminator 4 view .LVU2396
 6563 00d6 12B2     		sxth	r2, r2
 6564              	.LVL596:
 426:Drivers/lvgl/src/draw/sw/lv_draw_sw_rect.c **** 
 6565              		.loc 1 426 5 is_stmt 1 discriminator 4 view .LVU2397
 426:Drivers/lvgl/src/draw/sw/lv_draw_sw_rect.c **** 
 6566              		.loc 1 426 7 is_stmt 0 discriminator 4 view .LVU2398
 6567 00d8 002A     		cmp	r2, #0
 6568 00da 28DB     		blt	.L367
ARM GAS  /var/folders/0z/tsy30v1j4xl4_7kw94k978ww0000gn/T//cc0noGMx.s 			page 183


 6569              	.LVL597:
 6570              	.L363:
 428:Drivers/lvgl/src/draw/sw/lv_draw_sw_rect.c **** 
 6571              		.loc 1 428 5 is_stmt 1 view .LVU2399
 428:Drivers/lvgl/src/draw/sw/lv_draw_sw_rect.c **** 
 6572              		.loc 1 428 106 is_stmt 0 view .LVU2400
 6573 00dc 8578     		ldrb	r5, [r0, #2]	@ zero_extendqisi2
 428:Drivers/lvgl/src/draw/sw/lv_draw_sw_rect.c **** 
 6574              		.loc 1 428 5 view .LVU2401
 6575 00de 0395     		str	r5, [sp, #12]
 6576 00e0 0294     		str	r4, [sp, #8]
 6577 00e2 C08B     		ldrh	r0, [r0, #30]
 6578              	.LVL598:
 428:Drivers/lvgl/src/draw/sw/lv_draw_sw_rect.c **** 
 6579              		.loc 1 428 5 view .LVU2402
 6580 00e4 ADF80400 		strh	r0, [sp, #4]	@ movhi
 6581 00e8 0092     		str	r2, [sp]
 6582 00ea 06AA     		add	r2, sp, #24
 6583              	.LVL599:
 428:Drivers/lvgl/src/draw/sw/lv_draw_sw_rect.c **** 
 6584              		.loc 1 428 5 view .LVU2403
 6585 00ec 0498     		ldr	r0, [sp, #16]
 6586 00ee FFF7FEFF 		bl	draw_border_generic
 6587              	.LVL600:
 6588              	.L352:
 430:Drivers/lvgl/src/draw/sw/lv_draw_sw_rect.c **** 
 6589              		.loc 1 430 1 view .LVU2404
 6590 00f2 09B0     		add	sp, sp, #36
 6591              		.cfi_remember_state
 6592              		.cfi_def_cfa_offset 36
 6593              		@ sp needed
 6594 00f4 BDE8F08F 		pop	{r4, r5, r6, r7, r8, r9, r10, fp, pc}
 6595              	.LVL601:
 6596              	.L355:
 6597              		.cfi_restore_state
 420:Drivers/lvgl/src/draw/sw/lv_draw_sw_rect.c ****     area_inner.x2 -= ((dsc->border_side & LV_BORDER_SIDE_RIGHT) ? dsc->border_width : - (dsc->borde
 6598              		.loc 1 420 107 discriminator 2 view .LVU2405
 6599 00f8 13FA82F8 		uxtah	r8, r3, r2
 6600 00fc 1FFA88F8 		uxth	r8, r8
 420:Drivers/lvgl/src/draw/sw/lv_draw_sw_rect.c ****     area_inner.x2 -= ((dsc->border_side & LV_BORDER_SIDE_RIGHT) ? dsc->border_width : - (dsc->borde
 6601              		.loc 1 420 19 discriminator 2 view .LVU2406
 6602 0100 C8F10008 		rsb	r8, r8, #0
 6603 0104 1FFA88F8 		uxth	r8, r8
 6604 0108 C9E7     		b	.L356
 6605              	.LVL602:
 6606              	.L357:
 421:Drivers/lvgl/src/draw/sw/lv_draw_sw_rect.c ****     area_inner.y1 += ((dsc->border_side & LV_BORDER_SIDE_TOP) ? dsc->border_width : - (dsc->border_
 6607              		.loc 1 421 108 discriminator 2 view .LVU2407
 6608 010a 13FA82F7 		uxtah	r7, r3, r2
 6609 010e BFB2     		uxth	r7, r7
 421:Drivers/lvgl/src/draw/sw/lv_draw_sw_rect.c ****     area_inner.y1 += ((dsc->border_side & LV_BORDER_SIDE_TOP) ? dsc->border_width : - (dsc->border_
 6610              		.loc 1 421 19 discriminator 2 view .LVU2408
 6611 0110 7F42     		rsbs	r7, r7, #0
 6612 0112 BFB2     		uxth	r7, r7
 6613 0114 CAE7     		b	.L358
 6614              	.L359:
 422:Drivers/lvgl/src/draw/sw/lv_draw_sw_rect.c ****     area_inner.y2 -= ((dsc->border_side & LV_BORDER_SIDE_BOTTOM) ? dsc->border_width : - (dsc->bord
ARM GAS  /var/folders/0z/tsy30v1j4xl4_7kw94k978ww0000gn/T//cc0noGMx.s 			page 184


 6615              		.loc 1 422 106 discriminator 2 view .LVU2409
 6616 0116 13FA82F5 		uxtah	r5, r3, r2
 6617 011a ADB2     		uxth	r5, r5
 422:Drivers/lvgl/src/draw/sw/lv_draw_sw_rect.c ****     area_inner.y2 -= ((dsc->border_side & LV_BORDER_SIDE_BOTTOM) ? dsc->border_width : - (dsc->bord
 6618              		.loc 1 422 19 discriminator 2 view .LVU2410
 6619 011c 6D42     		rsbs	r5, r5, #0
 6620 011e ADB2     		uxth	r5, r5
 6621 0120 CCE7     		b	.L360
 6622              	.L361:
 423:Drivers/lvgl/src/draw/sw/lv_draw_sw_rect.c **** 
 6623              		.loc 1 423 109 discriminator 2 view .LVU2411
 6624 0122 13FA82F5 		uxtah	r5, r3, r2
 6625 0126 ADB2     		uxth	r5, r5
 423:Drivers/lvgl/src/draw/sw/lv_draw_sw_rect.c **** 
 6626              		.loc 1 423 19 discriminator 2 view .LVU2412
 6627 0128 6D42     		rsbs	r5, r5, #0
 6628 012a ADB2     		uxth	r5, r5
 6629 012c CDE7     		b	.L362
 6630              	.LVL603:
 6631              	.L367:
 426:Drivers/lvgl/src/draw/sw/lv_draw_sw_rect.c **** 
 6632              		.loc 1 426 21 view .LVU2413
 6633 012e 0022     		movs	r2, #0
 6634              	.LVL604:
 426:Drivers/lvgl/src/draw/sw/lv_draw_sw_rect.c **** 
 6635              		.loc 1 426 21 view .LVU2414
 6636 0130 D4E7     		b	.L363
 6637              		.cfi_endproc
 6638              	.LFE165:
 6640              		.section	.text.draw_outline,"ax",%progbits
 6641              		.align	1
 6642              		.syntax unified
 6643              		.thumb
 6644              		.thumb_func
 6646              	draw_outline:
 6647              	.LVL605:
 6648              	.LFB169:
1115:Drivers/lvgl/src/draw/sw/lv_draw_sw_rect.c ****     if(dsc->outline_opa <= LV_OPA_MIN) return;
 6649              		.loc 1 1115 1 is_stmt 1 view -0
 6650              		.cfi_startproc
 6651              		@ args = 0, pretend = 0, frame = 16
 6652              		@ frame_needed = 0, uses_anonymous_args = 0
1115:Drivers/lvgl/src/draw/sw/lv_draw_sw_rect.c ****     if(dsc->outline_opa <= LV_OPA_MIN) return;
 6653              		.loc 1 1115 1 is_stmt 0 view .LVU2416
 6654 0000 2DE9F043 		push	{r4, r5, r6, r7, r8, r9, lr}
 6655              		.cfi_def_cfa_offset 28
 6656              		.cfi_offset 4, -28
 6657              		.cfi_offset 5, -24
 6658              		.cfi_offset 6, -20
 6659              		.cfi_offset 7, -16
 6660              		.cfi_offset 8, -12
 6661              		.cfi_offset 9, -8
 6662              		.cfi_offset 14, -4
 6663 0004 89B0     		sub	sp, sp, #36
 6664              		.cfi_def_cfa_offset 64
1116:Drivers/lvgl/src/draw/sw/lv_draw_sw_rect.c ****     if(dsc->outline_width == 0) return;
 6665              		.loc 1 1116 5 is_stmt 1 view .LVU2417
ARM GAS  /var/folders/0z/tsy30v1j4xl4_7kw94k978ww0000gn/T//cc0noGMx.s 			page 185


1116:Drivers/lvgl/src/draw/sw/lv_draw_sw_rect.c ****     if(dsc->outline_width == 0) return;
 6666              		.loc 1 1116 11 is_stmt 0 view .LVU2418
 6667 0006 91F82A40 		ldrb	r4, [r1, #42]	@ zero_extendqisi2
1116:Drivers/lvgl/src/draw/sw/lv_draw_sw_rect.c ****     if(dsc->outline_width == 0) return;
 6668              		.loc 1 1116 7 view .LVU2419
 6669 000a 022C     		cmp	r4, #2
 6670 000c 6BD9     		bls	.L368
1117:Drivers/lvgl/src/draw/sw/lv_draw_sw_rect.c **** 
 6671              		.loc 1 1117 5 is_stmt 1 view .LVU2420
1117:Drivers/lvgl/src/draw/sw/lv_draw_sw_rect.c **** 
 6672              		.loc 1 1117 11 is_stmt 0 view .LVU2421
 6673 000e B1F92670 		ldrsh	r7, [r1, #38]
1117:Drivers/lvgl/src/draw/sw/lv_draw_sw_rect.c **** 
 6674              		.loc 1 1117 7 view .LVU2422
 6675 0012 002F     		cmp	r7, #0
 6676 0014 67D0     		beq	.L368
1119:Drivers/lvgl/src/draw/sw/lv_draw_sw_rect.c **** 
 6677              		.loc 1 1119 5 is_stmt 1 view .LVU2423
 6678              	.LVL606:
1121:Drivers/lvgl/src/draw/sw/lv_draw_sw_rect.c **** 
 6679              		.loc 1 1121 5 view .LVU2424
1124:Drivers/lvgl/src/draw/sw/lv_draw_sw_rect.c ****     lv_area_copy(&area_inner, coords);
 6680              		.loc 1 1124 5 view .LVU2425
1125:Drivers/lvgl/src/draw/sw/lv_draw_sw_rect.c **** 
 6681              		.loc 1 1125 5 view .LVU2426
 6682              	.LBB224:
 6683              	.LBI224:
 110:Drivers/lvgl/src/draw/sw/../../misc/lv_area.h **** {
 6684              		.loc 2 110 20 view .LVU2427
 6685              	.LBB225:
 112:Drivers/lvgl/src/draw/sw/../../misc/lv_area.h ****     dest->y1 = src->y1;
 6686              		.loc 2 112 5 view .LVU2428
 112:Drivers/lvgl/src/draw/sw/../../misc/lv_area.h ****     dest->y1 = src->y1;
 6687              		.loc 2 112 19 is_stmt 0 view .LVU2429
 6688 0016 B2F90090 		ldrsh	r9, [r2]
 112:Drivers/lvgl/src/draw/sw/../../misc/lv_area.h ****     dest->y1 = src->y1;
 6689              		.loc 2 112 14 view .LVU2430
 6690 001a ADF81890 		strh	r9, [sp, #24]	@ movhi
 113:Drivers/lvgl/src/draw/sw/../../misc/lv_area.h ****     dest->x2 = src->x2;
 6691              		.loc 2 113 5 is_stmt 1 view .LVU2431
 113:Drivers/lvgl/src/draw/sw/../../misc/lv_area.h ****     dest->x2 = src->x2;
 6692              		.loc 2 113 19 is_stmt 0 view .LVU2432
 6693 001e B2F90260 		ldrsh	r6, [r2, #2]
 113:Drivers/lvgl/src/draw/sw/../../misc/lv_area.h ****     dest->x2 = src->x2;
 6694              		.loc 2 113 14 view .LVU2433
 6695 0022 ADF81A60 		strh	r6, [sp, #26]	@ movhi
 114:Drivers/lvgl/src/draw/sw/../../misc/lv_area.h ****     dest->y2 = src->y2;
 6696              		.loc 2 114 5 is_stmt 1 view .LVU2434
 114:Drivers/lvgl/src/draw/sw/../../misc/lv_area.h ****     dest->y2 = src->y2;
 6697              		.loc 2 114 19 is_stmt 0 view .LVU2435
 6698 0026 B2F90450 		ldrsh	r5, [r2, #4]
 114:Drivers/lvgl/src/draw/sw/../../misc/lv_area.h ****     dest->y2 = src->y2;
 6699              		.loc 2 114 14 view .LVU2436
 6700 002a ADF81C50 		strh	r5, [sp, #28]	@ movhi
 115:Drivers/lvgl/src/draw/sw/../../misc/lv_area.h **** }
 6701              		.loc 2 115 5 is_stmt 1 view .LVU2437
 115:Drivers/lvgl/src/draw/sw/../../misc/lv_area.h **** }
ARM GAS  /var/folders/0z/tsy30v1j4xl4_7kw94k978ww0000gn/T//cc0noGMx.s 			page 186


 6702              		.loc 2 115 19 is_stmt 0 view .LVU2438
 6703 002e B2F906C0 		ldrsh	ip, [r2, #6]
 115:Drivers/lvgl/src/draw/sw/../../misc/lv_area.h **** }
 6704              		.loc 2 115 14 view .LVU2439
 6705 0032 ADF81EC0 		strh	ip, [sp, #30]	@ movhi
 6706              	.LVL607:
 115:Drivers/lvgl/src/draw/sw/../../misc/lv_area.h **** }
 6707              		.loc 2 115 14 view .LVU2440
 6708              	.LBE225:
 6709              	.LBE224:
1128:Drivers/lvgl/src/draw/sw/lv_draw_sw_rect.c ****     area_inner.x1 -= pad;
 6710              		.loc 1 1128 5 is_stmt 1 view .LVU2441
1128:Drivers/lvgl/src/draw/sw/lv_draw_sw_rect.c ****     area_inner.x1 -= pad;
 6711              		.loc 1 1128 25 is_stmt 0 view .LVU2442
 6712 0036 0B8D     		ldrh	r3, [r1, #40]
1128:Drivers/lvgl/src/draw/sw/lv_draw_sw_rect.c ****     area_inner.x1 -= pad;
 6713              		.loc 1 1128 39 view .LVU2443
 6714 0038 013B     		subs	r3, r3, #1
 6715 003a 9BB2     		uxth	r3, r3
 6716              	.LVL608:
1129:Drivers/lvgl/src/draw/sw/lv_draw_sw_rect.c ****     area_inner.y1 -= pad;
 6717              		.loc 1 1129 5 is_stmt 1 view .LVU2444
1129:Drivers/lvgl/src/draw/sw/lv_draw_sw_rect.c ****     area_inner.y1 -= pad;
 6718              		.loc 1 1129 19 is_stmt 0 view .LVU2445
 6719 003c A9EB0309 		sub	r9, r9, r3
 6720 0040 1FFA89F8 		uxth	r8, r9
 6721 0044 0FFA89F9 		sxth	r9, r9
 6722 0048 ADF81890 		strh	r9, [sp, #24]	@ movhi
1130:Drivers/lvgl/src/draw/sw/lv_draw_sw_rect.c ****     area_inner.x2 += pad;
 6723              		.loc 1 1130 5 is_stmt 1 view .LVU2446
1130:Drivers/lvgl/src/draw/sw/lv_draw_sw_rect.c ****     area_inner.x2 += pad;
 6724              		.loc 1 1130 19 is_stmt 0 view .LVU2447
 6725 004c F61A     		subs	r6, r6, r3
 6726 004e 1FFA86FE 		uxth	lr, r6
 6727 0052 36B2     		sxth	r6, r6
 6728 0054 ADF81A60 		strh	r6, [sp, #26]	@ movhi
1131:Drivers/lvgl/src/draw/sw/lv_draw_sw_rect.c ****     area_inner.y2 += pad;
 6729              		.loc 1 1131 5 is_stmt 1 view .LVU2448
1131:Drivers/lvgl/src/draw/sw/lv_draw_sw_rect.c ****     area_inner.y2 += pad;
 6730              		.loc 1 1131 19 is_stmt 0 view .LVU2449
 6731 0058 1D44     		add	r5, r5, r3
 6732 005a AAB2     		uxth	r2, r5
 6733              	.LVL609:
1131:Drivers/lvgl/src/draw/sw/lv_draw_sw_rect.c ****     area_inner.y2 += pad;
 6734              		.loc 1 1131 19 view .LVU2450
 6735 005c 2DB2     		sxth	r5, r5
 6736 005e ADF81C50 		strh	r5, [sp, #28]	@ movhi
1132:Drivers/lvgl/src/draw/sw/lv_draw_sw_rect.c **** 
 6737              		.loc 1 1132 5 is_stmt 1 view .LVU2451
1132:Drivers/lvgl/src/draw/sw/lv_draw_sw_rect.c **** 
 6738              		.loc 1 1132 19 is_stmt 0 view .LVU2452
 6739 0062 6344     		add	r3, r3, ip
 6740              	.LVL610:
1132:Drivers/lvgl/src/draw/sw/lv_draw_sw_rect.c **** 
 6741              		.loc 1 1132 19 view .LVU2453
 6742 0064 1FFA83FC 		uxth	ip, r3
 6743 0068 1BB2     		sxth	r3, r3
ARM GAS  /var/folders/0z/tsy30v1j4xl4_7kw94k978ww0000gn/T//cc0noGMx.s 			page 187


 6744 006a ADF81E30 		strh	r3, [sp, #30]	@ movhi
1134:Drivers/lvgl/src/draw/sw/lv_draw_sw_rect.c ****     lv_area_copy(&area_outer, &area_inner);
 6745              		.loc 1 1134 5 is_stmt 1 view .LVU2454
1135:Drivers/lvgl/src/draw/sw/lv_draw_sw_rect.c **** 
 6746              		.loc 1 1135 5 view .LVU2455
 6747              	.LVL611:
 6748              	.LBB226:
 6749              	.LBI226:
 110:Drivers/lvgl/src/draw/sw/../../misc/lv_area.h **** {
 6750              		.loc 2 110 20 view .LVU2456
 6751              	.LBB227:
 112:Drivers/lvgl/src/draw/sw/../../misc/lv_area.h ****     dest->y1 = src->y1;
 6752              		.loc 2 112 5 view .LVU2457
 112:Drivers/lvgl/src/draw/sw/../../misc/lv_area.h ****     dest->y1 = src->y1;
 6753              		.loc 2 112 14 is_stmt 0 view .LVU2458
 6754 006e ADF81090 		strh	r9, [sp, #16]	@ movhi
 113:Drivers/lvgl/src/draw/sw/../../misc/lv_area.h ****     dest->x2 = src->x2;
 6755              		.loc 2 113 5 is_stmt 1 view .LVU2459
 113:Drivers/lvgl/src/draw/sw/../../misc/lv_area.h ****     dest->x2 = src->x2;
 6756              		.loc 2 113 14 is_stmt 0 view .LVU2460
 6757 0072 ADF81260 		strh	r6, [sp, #18]	@ movhi
 114:Drivers/lvgl/src/draw/sw/../../misc/lv_area.h ****     dest->y2 = src->y2;
 6758              		.loc 2 114 5 is_stmt 1 view .LVU2461
 114:Drivers/lvgl/src/draw/sw/../../misc/lv_area.h ****     dest->y2 = src->y2;
 6759              		.loc 2 114 14 is_stmt 0 view .LVU2462
 6760 0076 ADF81450 		strh	r5, [sp, #20]	@ movhi
 115:Drivers/lvgl/src/draw/sw/../../misc/lv_area.h **** }
 6761              		.loc 2 115 5 is_stmt 1 view .LVU2463
 115:Drivers/lvgl/src/draw/sw/../../misc/lv_area.h **** }
 6762              		.loc 2 115 14 is_stmt 0 view .LVU2464
 6763 007a ADF81630 		strh	r3, [sp, #22]	@ movhi
 6764              	.LVL612:
 115:Drivers/lvgl/src/draw/sw/../../misc/lv_area.h **** }
 6765              		.loc 2 115 14 view .LVU2465
 6766              	.LBE227:
 6767              	.LBE226:
1137:Drivers/lvgl/src/draw/sw/lv_draw_sw_rect.c ****     area_outer.x2 += dsc->outline_width;
 6768              		.loc 1 1137 5 is_stmt 1 view .LVU2466
1137:Drivers/lvgl/src/draw/sw/lv_draw_sw_rect.c ****     area_outer.x2 += dsc->outline_width;
 6769              		.loc 1 1137 25 is_stmt 0 view .LVU2467
 6770 007e BBB2     		uxth	r3, r7
1137:Drivers/lvgl/src/draw/sw/lv_draw_sw_rect.c ****     area_outer.x2 += dsc->outline_width;
 6771              		.loc 1 1137 19 view .LVU2468
 6772 0080 A8EB0305 		sub	r5, r8, r3
 6773 0084 ADF81050 		strh	r5, [sp, #16]	@ movhi
1138:Drivers/lvgl/src/draw/sw/lv_draw_sw_rect.c ****     area_outer.y1 -= dsc->outline_width;
 6774              		.loc 1 1138 5 is_stmt 1 view .LVU2469
1138:Drivers/lvgl/src/draw/sw/lv_draw_sw_rect.c ****     area_outer.y1 -= dsc->outline_width;
 6775              		.loc 1 1138 19 is_stmt 0 view .LVU2470
 6776 0088 D518     		adds	r5, r2, r3
 6777 008a ADF81450 		strh	r5, [sp, #20]	@ movhi
1139:Drivers/lvgl/src/draw/sw/lv_draw_sw_rect.c ****     area_outer.y2 += dsc->outline_width;
 6778              		.loc 1 1139 5 is_stmt 1 view .LVU2471
1139:Drivers/lvgl/src/draw/sw/lv_draw_sw_rect.c ****     area_outer.y2 += dsc->outline_width;
 6779              		.loc 1 1139 19 is_stmt 0 view .LVU2472
 6780 008e AEEB0305 		sub	r5, lr, r3
 6781 0092 ADF81250 		strh	r5, [sp, #18]	@ movhi
ARM GAS  /var/folders/0z/tsy30v1j4xl4_7kw94k978ww0000gn/T//cc0noGMx.s 			page 188


1140:Drivers/lvgl/src/draw/sw/lv_draw_sw_rect.c **** 
 6782              		.loc 1 1140 5 is_stmt 1 view .LVU2473
1140:Drivers/lvgl/src/draw/sw/lv_draw_sw_rect.c **** 
 6783              		.loc 1 1140 19 is_stmt 0 view .LVU2474
 6784 0096 0CEB0305 		add	r5, ip, r3
 6785 009a ADF81650 		strh	r5, [sp, #22]	@ movhi
1143:Drivers/lvgl/src/draw/sw/lv_draw_sw_rect.c ****     int32_t inner_h = lv_area_get_height(&area_inner);
 6786              		.loc 1 1143 5 is_stmt 1 view .LVU2475
 6787              	.LVL613:
 6788              	.LBB228:
 6789              	.LBI228:
 123:Drivers/lvgl/src/draw/sw/../../misc/lv_area.h **** {
 6790              		.loc 2 123 26 view .LVU2476
 6791              	.LBB229:
 125:Drivers/lvgl/src/draw/sw/../../misc/lv_area.h **** }
 6792              		.loc 2 125 5 view .LVU2477
 125:Drivers/lvgl/src/draw/sw/../../misc/lv_area.h **** }
 6793              		.loc 2 125 36 is_stmt 0 view .LVU2478
 6794 009e A2EB0802 		sub	r2, r2, r8
 6795 00a2 92B2     		uxth	r2, r2
 125:Drivers/lvgl/src/draw/sw/../../misc/lv_area.h **** }
 6796              		.loc 2 125 49 view .LVU2479
 6797 00a4 0132     		adds	r2, r2, #1
 125:Drivers/lvgl/src/draw/sw/../../misc/lv_area.h **** }
 6798              		.loc 2 125 12 view .LVU2480
 6799 00a6 12B2     		sxth	r2, r2
 6800              	.LVL614:
 125:Drivers/lvgl/src/draw/sw/../../misc/lv_area.h **** }
 6801              		.loc 2 125 12 view .LVU2481
 6802              	.LBE229:
 6803              	.LBE228:
1144:Drivers/lvgl/src/draw/sw/lv_draw_sw_rect.c ****     int32_t rin = dsc->radius;
 6804              		.loc 1 1144 5 is_stmt 1 view .LVU2482
 6805              	.LBB230:
 6806              	.LBI230:
 133:Drivers/lvgl/src/draw/sw/../../misc/lv_area.h **** {
 6807              		.loc 2 133 26 view .LVU2483
 6808              	.LBB231:
 6809              		.loc 2 135 5 view .LVU2484
 6810              		.loc 2 135 36 is_stmt 0 view .LVU2485
 6811 00a8 ACEB0E0C 		sub	ip, ip, lr
 6812 00ac 1FFA8CFC 		uxth	ip, ip
 6813              		.loc 2 135 49 view .LVU2486
 6814 00b0 0CF1010C 		add	ip, ip, #1
 6815              		.loc 2 135 12 view .LVU2487
 6816 00b4 0FFA8CFC 		sxth	ip, ip
 6817              	.LVL615:
 6818              		.loc 2 135 12 view .LVU2488
 6819              	.LBE231:
 6820              	.LBE230:
1145:Drivers/lvgl/src/draw/sw/lv_draw_sw_rect.c ****     int32_t short_side = LV_MIN(inner_w, inner_h);
 6821              		.loc 1 1145 5 is_stmt 1 view .LVU2489
1145:Drivers/lvgl/src/draw/sw/lv_draw_sw_rect.c ****     int32_t short_side = LV_MIN(inner_w, inner_h);
 6822              		.loc 1 1145 22 is_stmt 0 view .LVU2490
 6823 00b8 B1F90060 		ldrsh	r6, [r1]
 6824              	.LVL616:
1146:Drivers/lvgl/src/draw/sw/lv_draw_sw_rect.c ****     if(rin > short_side >> 1) rin = short_side >> 1;
ARM GAS  /var/folders/0z/tsy30v1j4xl4_7kw94k978ww0000gn/T//cc0noGMx.s 			page 189


 6825              		.loc 1 1146 5 is_stmt 1 view .LVU2491
1146:Drivers/lvgl/src/draw/sw/lv_draw_sw_rect.c ****     if(rin > short_side >> 1) rin = short_side >> 1;
 6826              		.loc 1 1146 13 is_stmt 0 view .LVU2492
 6827 00bc 6245     		cmp	r2, ip
 6828 00be A8BF     		it	ge
 6829 00c0 6246     		movge	r2, ip
 6830              	.LVL617:
1147:Drivers/lvgl/src/draw/sw/lv_draw_sw_rect.c **** 
 6831              		.loc 1 1147 5 is_stmt 1 view .LVU2493
1147:Drivers/lvgl/src/draw/sw/lv_draw_sw_rect.c **** 
 6832              		.loc 1 1147 25 is_stmt 0 view .LVU2494
 6833 00c2 5510     		asrs	r5, r2, #1
1147:Drivers/lvgl/src/draw/sw/lv_draw_sw_rect.c **** 
 6834              		.loc 1 1147 7 view .LVU2495
 6835 00c4 B6EB620F 		cmp	r6, r2, asr #1
 6836 00c8 00DC     		bgt	.L370
1145:Drivers/lvgl/src/draw/sw/lv_draw_sw_rect.c ****     int32_t short_side = LV_MIN(inner_w, inner_h);
 6837              		.loc 1 1145 13 view .LVU2496
 6838 00ca 3546     		mov	r5, r6
 6839              	.L370:
 6840              	.LVL618:
1149:Drivers/lvgl/src/draw/sw/lv_draw_sw_rect.c **** 
 6841              		.loc 1 1149 5 is_stmt 1 view .LVU2497
1149:Drivers/lvgl/src/draw/sw/lv_draw_sw_rect.c **** 
 6842              		.loc 1 1149 27 is_stmt 0 view .LVU2498
 6843 00cc 2B44     		add	r3, r3, r5
 6844              	.LVL619:
1151:Drivers/lvgl/src/draw/sw/lv_draw_sw_rect.c ****                         dsc->blend_mode);
 6845              		.loc 1 1151 5 is_stmt 1 view .LVU2499
1152:Drivers/lvgl/src/draw/sw/lv_draw_sw_rect.c **** }
 6846              		.loc 1 1152 28 is_stmt 0 view .LVU2500
 6847 00ce 8A78     		ldrb	r2, [r1, #2]	@ zero_extendqisi2
 6848              	.LVL620:
1151:Drivers/lvgl/src/draw/sw/lv_draw_sw_rect.c ****                         dsc->blend_mode);
 6849              		.loc 1 1151 5 view .LVU2501
 6850 00d0 0392     		str	r2, [sp, #12]
 6851              	.LVL621:
1151:Drivers/lvgl/src/draw/sw/lv_draw_sw_rect.c ****                         dsc->blend_mode);
 6852              		.loc 1 1151 5 view .LVU2502
 6853 00d2 0294     		str	r4, [sp, #8]
 6854 00d4 8A8C     		ldrh	r2, [r1, #36]
 6855 00d6 ADF80420 		strh	r2, [sp, #4]	@ movhi
 6856 00da 0095     		str	r5, [sp]
 6857 00dc 1BB2     		sxth	r3, r3
1151:Drivers/lvgl/src/draw/sw/lv_draw_sw_rect.c ****                         dsc->blend_mode);
 6858              		.loc 1 1151 5 view .LVU2503
 6859 00de 06AA     		add	r2, sp, #24
 6860 00e0 04A9     		add	r1, sp, #16
 6861              	.LVL622:
1151:Drivers/lvgl/src/draw/sw/lv_draw_sw_rect.c ****                         dsc->blend_mode);
 6862              		.loc 1 1151 5 view .LVU2504
 6863 00e2 FFF7FEFF 		bl	draw_border_generic
 6864              	.LVL623:
 6865              	.L368:
1153:Drivers/lvgl/src/draw/sw/lv_draw_sw_rect.c **** 
 6866              		.loc 1 1153 1 view .LVU2505
 6867 00e6 09B0     		add	sp, sp, #36
ARM GAS  /var/folders/0z/tsy30v1j4xl4_7kw94k978ww0000gn/T//cc0noGMx.s 			page 190


 6868              		.cfi_def_cfa_offset 28
 6869              		@ sp needed
 6870 00e8 BDE8F083 		pop	{r4, r5, r6, r7, r8, r9, pc}
 6871              		.cfi_endproc
 6872              	.LFE169:
 6874              		.section	.text.lv_draw_sw_rect,"ax",%progbits
 6875              		.align	1
 6876              		.global	lv_draw_sw_rect
 6877              		.syntax unified
 6878              		.thumb
 6879              		.thumb_func
 6881              	lv_draw_sw_rect:
 6882              	.LVL624:
 6883              	.LFB161:
  70:Drivers/lvgl/src/draw/sw/lv_draw_sw_rect.c **** #if LV_DRAW_COMPLEX
 6884              		.loc 1 70 1 is_stmt 1 view -0
 6885              		.cfi_startproc
 6886              		@ args = 0, pretend = 0, frame = 0
 6887              		@ frame_needed = 0, uses_anonymous_args = 0
  70:Drivers/lvgl/src/draw/sw/lv_draw_sw_rect.c **** #if LV_DRAW_COMPLEX
 6888              		.loc 1 70 1 is_stmt 0 view .LVU2507
 6889 0000 70B5     		push	{r4, r5, r6, lr}
 6890              		.cfi_def_cfa_offset 16
 6891              		.cfi_offset 4, -16
 6892              		.cfi_offset 5, -12
 6893              		.cfi_offset 6, -8
 6894              		.cfi_offset 14, -4
 6895 0002 0446     		mov	r4, r0
 6896 0004 0D46     		mov	r5, r1
 6897 0006 1646     		mov	r6, r2
  72:Drivers/lvgl/src/draw/sw/lv_draw_sw_rect.c **** #endif
 6898              		.loc 1 72 5 is_stmt 1 view .LVU2508
 6899 0008 FFF7FEFF 		bl	draw_shadow
 6900              	.LVL625:
  75:Drivers/lvgl/src/draw/sw/lv_draw_sw_rect.c ****     draw_bg_img(draw_ctx, dsc, coords);
 6901              		.loc 1 75 5 view .LVU2509
 6902 000c 3246     		mov	r2, r6
 6903 000e 2946     		mov	r1, r5
 6904 0010 2046     		mov	r0, r4
 6905 0012 FFF7FEFF 		bl	draw_bg
 6906              	.LVL626:
  76:Drivers/lvgl/src/draw/sw/lv_draw_sw_rect.c **** 
 6907              		.loc 1 76 5 view .LVU2510
 6908 0016 3246     		mov	r2, r6
 6909 0018 2946     		mov	r1, r5
 6910 001a 2046     		mov	r0, r4
 6911 001c FFF7FEFF 		bl	draw_bg_img
 6912              	.LVL627:
  78:Drivers/lvgl/src/draw/sw/lv_draw_sw_rect.c **** 
 6913              		.loc 1 78 5 view .LVU2511
 6914 0020 3246     		mov	r2, r6
 6915 0022 2946     		mov	r1, r5
 6916 0024 2046     		mov	r0, r4
 6917 0026 FFF7FEFF 		bl	draw_border
 6918              	.LVL628:
  80:Drivers/lvgl/src/draw/sw/lv_draw_sw_rect.c **** 
 6919              		.loc 1 80 5 view .LVU2512
ARM GAS  /var/folders/0z/tsy30v1j4xl4_7kw94k978ww0000gn/T//cc0noGMx.s 			page 191


 6920 002a 3246     		mov	r2, r6
 6921 002c 2946     		mov	r1, r5
 6922 002e 2046     		mov	r0, r4
 6923 0030 FFF7FEFF 		bl	draw_outline
 6924              	.LVL629:
  82:Drivers/lvgl/src/draw/sw/lv_draw_sw_rect.c **** }
 6925              		.loc 1 82 30 view .LVU2513
  83:Drivers/lvgl/src/draw/sw/lv_draw_sw_rect.c **** 
 6926              		.loc 1 83 1 is_stmt 0 view .LVU2514
 6927 0034 70BD     		pop	{r4, r5, r6, pc}
  83:Drivers/lvgl/src/draw/sw/lv_draw_sw_rect.c **** 
 6928              		.loc 1 83 1 view .LVU2515
 6929              		.cfi_endproc
 6930              	.LFE161:
 6932              		.text
 6933              	.Letext0:
 6934              		.file 3 "/Users/johannes/Library/Application Support/Code/User/globalStorage/bmd.stm32-for-vscode/
 6935              		.file 4 "/Users/johannes/Library/Application Support/Code/User/globalStorage/bmd.stm32-for-vscode/
 6936              		.file 5 "Drivers/lvgl/src/draw/sw/../../misc/lv_types.h"
 6937              		.file 6 "/Users/johannes/Library/Application Support/Code/User/globalStorage/bmd.stm32-for-vscode/
 6938              		.file 7 "Drivers/lvgl/src/draw/sw/../../misc/lv_color.h"
 6939              		.file 8 "Drivers/lvgl/src/draw/sw/../../misc/../font/lv_font.h"
 6940              		.file 9 "Drivers/lvgl/src/draw/sw/../../misc/lv_txt.h"
 6941              		.file 10 "Drivers/lvgl/src/draw/sw/../../misc/lv_bidi.h"
 6942              		.file 11 "Drivers/lvgl/src/draw/sw/../../misc/lv_style.h"
 6943              		.file 12 "Drivers/lvgl/src/draw/sw/../lv_draw_mask.h"
 6944              		.file 13 "Drivers/lvgl/src/draw/sw/lv_draw_sw_blend.h"
 6945              		.file 14 "Drivers/lvgl/src/draw/sw/../lv_img_buf.h"
 6946              		.file 15 "Drivers/lvgl/src/draw/sw/../lv_img_decoder.h"
 6947              		.file 16 "Drivers/lvgl/src/draw/sw/../sw/lv_draw_sw_gradient.h"
 6948              		.file 17 "Drivers/lvgl/src/draw/sw/../lv_draw_rect.h"
 6949              		.file 18 "Drivers/lvgl/src/draw/sw/../lv_draw_label.h"
 6950              		.file 19 "Drivers/lvgl/src/draw/sw/../lv_draw_img.h"
 6951              		.file 20 "Drivers/lvgl/src/draw/sw/../lv_draw_line.h"
 6952              		.file 21 "Drivers/lvgl/src/draw/sw/../lv_draw_arc.h"
 6953              		.file 22 "Drivers/lvgl/src/draw/sw/../lv_draw_layer.h"
 6954              		.file 23 "Drivers/lvgl/src/draw/sw/../lv_draw.h"
 6955              		.file 24 "Drivers/lvgl/src/draw/sw/../../misc/lv_mem.h"
ARM GAS  /var/folders/0z/tsy30v1j4xl4_7kw94k978ww0000gn/T//cc0noGMx.s 			page 192


DEFINED SYMBOLS
                            *ABS*:0000000000000000 lv_draw_sw_rect.c
/var/folders/0z/tsy30v1j4xl4_7kw94k978ww0000gn/T//cc0noGMx.s:20     .text.draw_border_simple:0000000000000000 $t
/var/folders/0z/tsy30v1j4xl4_7kw94k978ww0000gn/T//cc0noGMx.s:25     .text.draw_border_simple:0000000000000000 draw_border_simple
/var/folders/0z/tsy30v1j4xl4_7kw94k978ww0000gn/T//cc0noGMx.s:243    .text.shadow_blur_corner:0000000000000000 $t
/var/folders/0z/tsy30v1j4xl4_7kw94k978ww0000gn/T//cc0noGMx.s:248    .text.shadow_blur_corner:0000000000000000 shadow_blur_corner
/var/folders/0z/tsy30v1j4xl4_7kw94k978ww0000gn/T//cc0noGMx.s:638    .text.shadow_draw_corner_buf:0000000000000000 $t
/var/folders/0z/tsy30v1j4xl4_7kw94k978ww0000gn/T//cc0noGMx.s:643    .text.shadow_draw_corner_buf:0000000000000000 shadow_draw_corner_buf
/var/folders/0z/tsy30v1j4xl4_7kw94k978ww0000gn/T//cc0noGMx.s:1075   .text.draw_shadow:0000000000000000 $t
/var/folders/0z/tsy30v1j4xl4_7kw94k978ww0000gn/T//cc0noGMx.s:1080   .text.draw_shadow:0000000000000000 draw_shadow
/var/folders/0z/tsy30v1j4xl4_7kw94k978ww0000gn/T//cc0noGMx.s:3928   .text.draw_bg:0000000000000000 $t
/var/folders/0z/tsy30v1j4xl4_7kw94k978ww0000gn/T//cc0noGMx.s:3933   .text.draw_bg:0000000000000000 draw_bg
/var/folders/0z/tsy30v1j4xl4_7kw94k978ww0000gn/T//cc0noGMx.s:4793   .text.draw_bg_img:0000000000000000 $t
/var/folders/0z/tsy30v1j4xl4_7kw94k978ww0000gn/T//cc0noGMx.s:4798   .text.draw_bg_img:0000000000000000 draw_bg_img
/var/folders/0z/tsy30v1j4xl4_7kw94k978ww0000gn/T//cc0noGMx.s:5275   .text.lv_draw_sw_bg:0000000000000000 $t
/var/folders/0z/tsy30v1j4xl4_7kw94k978ww0000gn/T//cc0noGMx.s:5281   .text.lv_draw_sw_bg:0000000000000000 lv_draw_sw_bg
/var/folders/0z/tsy30v1j4xl4_7kw94k978ww0000gn/T//cc0noGMx.s:5314   .text.draw_border_generic:0000000000000000 $t
/var/folders/0z/tsy30v1j4xl4_7kw94k978ww0000gn/T//cc0noGMx.s:5320   .text.draw_border_generic:0000000000000000 draw_border_generic
/var/folders/0z/tsy30v1j4xl4_7kw94k978ww0000gn/T//cc0noGMx.s:6363   .text.draw_border:0000000000000000 $t
/var/folders/0z/tsy30v1j4xl4_7kw94k978ww0000gn/T//cc0noGMx.s:6368   .text.draw_border:0000000000000000 draw_border
/var/folders/0z/tsy30v1j4xl4_7kw94k978ww0000gn/T//cc0noGMx.s:6641   .text.draw_outline:0000000000000000 $t
/var/folders/0z/tsy30v1j4xl4_7kw94k978ww0000gn/T//cc0noGMx.s:6646   .text.draw_outline:0000000000000000 draw_outline
/var/folders/0z/tsy30v1j4xl4_7kw94k978ww0000gn/T//cc0noGMx.s:6875   .text.lv_draw_sw_rect:0000000000000000 $t
/var/folders/0z/tsy30v1j4xl4_7kw94k978ww0000gn/T//cc0noGMx.s:6881   .text.lv_draw_sw_rect:0000000000000000 lv_draw_sw_rect

UNDEFINED SYMBOLS
lv_memset_00
lv_draw_sw_blend
lv_mem_buf_get
lv_memcpy
lv_mem_buf_release
lv_draw_mask_radius_init
lv_memset_ff
lv_draw_mask_free_param
_lv_area_intersect
lv_area_increase
lv_draw_mask_is_any
lv_draw_mask_add
_lv_area_is_in
_lv_area_is_out
lv_draw_mask_apply
lv_memset
lv_draw_mask_remove_id
lv_gradient_get
lv_gradient_cleanup
lv_img_src_get_type
lv_img_decoder_get_info
lv_txt_get_size
lv_draw_label_dsc_init
lv_draw_label
lv_draw_img_dsc_init
lv_draw_img
