ARM GAS  /var/folders/0z/tsy30v1j4xl4_7kw94k978ww0000gn/T//ccvV8C1Y.s 			page 1


   1              		.cpu cortex-m4
   2              		.arch armv7e-m
   3              		.fpu fpv4-sp-d16
   4              		.eabi_attribute 27, 1
   5              		.eabi_attribute 28, 1
   6              		.eabi_attribute 20, 1
   7              		.eabi_attribute 21, 1
   8              		.eabi_attribute 23, 3
   9              		.eabi_attribute 24, 1
  10              		.eabi_attribute 25, 1
  11              		.eabi_attribute 26, 1
  12              		.eabi_attribute 30, 1
  13              		.eabi_attribute 34, 1
  14              		.eabi_attribute 18, 4
  15              		.file	"lv_disp.c"
  16              		.text
  17              	.Ltext0:
  18              		.cfi_sections	.debug_frame
  19              		.section	.text.is_out_anim,"ax",%progbits
  20              		.align	1
  21              		.syntax unified
  22              		.thumb
  23              		.thumb_func
  25              	is_out_anim:
  26              	.LVL0:
  27              	.LFB190:
  28              		.file 1 "Drivers/lvgl/src/core/lv_disp.c"
   1:Drivers/lvgl/src/core/lv_disp.c **** /**
   2:Drivers/lvgl/src/core/lv_disp.c ****  * @file lv_disp.c
   3:Drivers/lvgl/src/core/lv_disp.c ****  *
   4:Drivers/lvgl/src/core/lv_disp.c ****  */
   5:Drivers/lvgl/src/core/lv_disp.c **** 
   6:Drivers/lvgl/src/core/lv_disp.c **** /*********************
   7:Drivers/lvgl/src/core/lv_disp.c ****  *      INCLUDES
   8:Drivers/lvgl/src/core/lv_disp.c ****  *********************/
   9:Drivers/lvgl/src/core/lv_disp.c **** #include "lv_disp.h"
  10:Drivers/lvgl/src/core/lv_disp.c **** #include "../misc/lv_math.h"
  11:Drivers/lvgl/src/core/lv_disp.c **** #include "../core/lv_refr.h"
  12:Drivers/lvgl/src/core/lv_disp.c **** 
  13:Drivers/lvgl/src/core/lv_disp.c **** /*********************
  14:Drivers/lvgl/src/core/lv_disp.c ****  *      DEFINES
  15:Drivers/lvgl/src/core/lv_disp.c ****  *********************/
  16:Drivers/lvgl/src/core/lv_disp.c **** 
  17:Drivers/lvgl/src/core/lv_disp.c **** /**********************
  18:Drivers/lvgl/src/core/lv_disp.c ****  *      TYPEDEFS
  19:Drivers/lvgl/src/core/lv_disp.c ****  **********************/
  20:Drivers/lvgl/src/core/lv_disp.c **** 
  21:Drivers/lvgl/src/core/lv_disp.c **** /**********************
  22:Drivers/lvgl/src/core/lv_disp.c ****  *  STATIC PROTOTYPES
  23:Drivers/lvgl/src/core/lv_disp.c ****  **********************/
  24:Drivers/lvgl/src/core/lv_disp.c **** static void scr_load_internal(lv_obj_t * scr);
  25:Drivers/lvgl/src/core/lv_disp.c **** static void scr_load_anim_start(lv_anim_t * a);
  26:Drivers/lvgl/src/core/lv_disp.c **** static void opa_scale_anim(void * obj, int32_t v);
  27:Drivers/lvgl/src/core/lv_disp.c **** static void set_x_anim(void * obj, int32_t v);
  28:Drivers/lvgl/src/core/lv_disp.c **** static void set_y_anim(void * obj, int32_t v);
  29:Drivers/lvgl/src/core/lv_disp.c **** static void scr_anim_ready(lv_anim_t * a);
  30:Drivers/lvgl/src/core/lv_disp.c **** static bool is_out_anim(lv_scr_load_anim_t a);
ARM GAS  /var/folders/0z/tsy30v1j4xl4_7kw94k978ww0000gn/T//ccvV8C1Y.s 			page 2


  31:Drivers/lvgl/src/core/lv_disp.c **** 
  32:Drivers/lvgl/src/core/lv_disp.c **** /**********************
  33:Drivers/lvgl/src/core/lv_disp.c ****  *  STATIC VARIABLES
  34:Drivers/lvgl/src/core/lv_disp.c ****  **********************/
  35:Drivers/lvgl/src/core/lv_disp.c **** 
  36:Drivers/lvgl/src/core/lv_disp.c **** /**********************
  37:Drivers/lvgl/src/core/lv_disp.c ****  *      MACROS
  38:Drivers/lvgl/src/core/lv_disp.c ****  **********************/
  39:Drivers/lvgl/src/core/lv_disp.c **** 
  40:Drivers/lvgl/src/core/lv_disp.c **** /**********************
  41:Drivers/lvgl/src/core/lv_disp.c ****  *   GLOBAL FUNCTIONS
  42:Drivers/lvgl/src/core/lv_disp.c ****  **********************/
  43:Drivers/lvgl/src/core/lv_disp.c **** 
  44:Drivers/lvgl/src/core/lv_disp.c **** /**
  45:Drivers/lvgl/src/core/lv_disp.c ****  * Return with a pointer to the active screen
  46:Drivers/lvgl/src/core/lv_disp.c ****  * @param disp pointer to display which active screen should be get. (NULL to use the default
  47:Drivers/lvgl/src/core/lv_disp.c ****  * screen)
  48:Drivers/lvgl/src/core/lv_disp.c ****  * @return pointer to the active screen object (loaded by 'lv_scr_load()')
  49:Drivers/lvgl/src/core/lv_disp.c ****  */
  50:Drivers/lvgl/src/core/lv_disp.c **** lv_obj_t * lv_disp_get_scr_act(lv_disp_t * disp)
  51:Drivers/lvgl/src/core/lv_disp.c **** {
  52:Drivers/lvgl/src/core/lv_disp.c ****     if(!disp) disp = lv_disp_get_default();
  53:Drivers/lvgl/src/core/lv_disp.c ****     if(!disp) {
  54:Drivers/lvgl/src/core/lv_disp.c ****         LV_LOG_WARN("no display registered to get its active screen");
  55:Drivers/lvgl/src/core/lv_disp.c ****         return NULL;
  56:Drivers/lvgl/src/core/lv_disp.c ****     }
  57:Drivers/lvgl/src/core/lv_disp.c **** 
  58:Drivers/lvgl/src/core/lv_disp.c ****     return disp->act_scr;
  59:Drivers/lvgl/src/core/lv_disp.c **** }
  60:Drivers/lvgl/src/core/lv_disp.c **** 
  61:Drivers/lvgl/src/core/lv_disp.c **** /**
  62:Drivers/lvgl/src/core/lv_disp.c ****  * Return with a pointer to the previous screen. Only used during screen transitions.
  63:Drivers/lvgl/src/core/lv_disp.c ****  * @param disp pointer to display which previous screen should be get. (NULL to use the default
  64:Drivers/lvgl/src/core/lv_disp.c ****  * screen)
  65:Drivers/lvgl/src/core/lv_disp.c ****  * @return pointer to the previous screen object or NULL if not used now
  66:Drivers/lvgl/src/core/lv_disp.c ****  */
  67:Drivers/lvgl/src/core/lv_disp.c **** lv_obj_t * lv_disp_get_scr_prev(lv_disp_t * disp)
  68:Drivers/lvgl/src/core/lv_disp.c **** {
  69:Drivers/lvgl/src/core/lv_disp.c ****     if(!disp) disp = lv_disp_get_default();
  70:Drivers/lvgl/src/core/lv_disp.c ****     if(!disp) {
  71:Drivers/lvgl/src/core/lv_disp.c ****         LV_LOG_WARN("no display registered to get its previous screen");
  72:Drivers/lvgl/src/core/lv_disp.c ****         return NULL;
  73:Drivers/lvgl/src/core/lv_disp.c ****     }
  74:Drivers/lvgl/src/core/lv_disp.c **** 
  75:Drivers/lvgl/src/core/lv_disp.c ****     return disp->prev_scr;
  76:Drivers/lvgl/src/core/lv_disp.c **** }
  77:Drivers/lvgl/src/core/lv_disp.c **** 
  78:Drivers/lvgl/src/core/lv_disp.c **** /**
  79:Drivers/lvgl/src/core/lv_disp.c ****  * Make a screen active
  80:Drivers/lvgl/src/core/lv_disp.c ****  * @param scr pointer to a screen
  81:Drivers/lvgl/src/core/lv_disp.c ****  */
  82:Drivers/lvgl/src/core/lv_disp.c **** void lv_disp_load_scr(lv_obj_t * scr)
  83:Drivers/lvgl/src/core/lv_disp.c **** {
  84:Drivers/lvgl/src/core/lv_disp.c ****     lv_scr_load_anim(scr, LV_SCR_LOAD_ANIM_NONE, 0, 0, false);
  85:Drivers/lvgl/src/core/lv_disp.c **** }
  86:Drivers/lvgl/src/core/lv_disp.c **** 
  87:Drivers/lvgl/src/core/lv_disp.c **** /**
ARM GAS  /var/folders/0z/tsy30v1j4xl4_7kw94k978ww0000gn/T//ccvV8C1Y.s 			page 3


  88:Drivers/lvgl/src/core/lv_disp.c ****  * Return with the top layer. (Same on every screen and it is above the normal screen layer)
  89:Drivers/lvgl/src/core/lv_disp.c ****  * @param disp pointer to display which top layer should be get. (NULL to use the default screen)
  90:Drivers/lvgl/src/core/lv_disp.c ****  * @return pointer to the top layer object (transparent screen sized lv_obj)
  91:Drivers/lvgl/src/core/lv_disp.c ****  */
  92:Drivers/lvgl/src/core/lv_disp.c **** lv_obj_t * lv_disp_get_layer_top(lv_disp_t * disp)
  93:Drivers/lvgl/src/core/lv_disp.c **** {
  94:Drivers/lvgl/src/core/lv_disp.c ****     if(!disp) disp = lv_disp_get_default();
  95:Drivers/lvgl/src/core/lv_disp.c ****     if(!disp) {
  96:Drivers/lvgl/src/core/lv_disp.c ****         LV_LOG_WARN("lv_layer_top: no display registered to get its top layer");
  97:Drivers/lvgl/src/core/lv_disp.c ****         return NULL;
  98:Drivers/lvgl/src/core/lv_disp.c ****     }
  99:Drivers/lvgl/src/core/lv_disp.c **** 
 100:Drivers/lvgl/src/core/lv_disp.c ****     return disp->top_layer;
 101:Drivers/lvgl/src/core/lv_disp.c **** }
 102:Drivers/lvgl/src/core/lv_disp.c **** 
 103:Drivers/lvgl/src/core/lv_disp.c **** /**
 104:Drivers/lvgl/src/core/lv_disp.c ****  * Return with the sys. layer. (Same on every screen and it is above the normal screen and the top
 105:Drivers/lvgl/src/core/lv_disp.c ****  * layer)
 106:Drivers/lvgl/src/core/lv_disp.c ****  * @param disp pointer to display which sys. layer should be retrieved. (NULL to use the default sc
 107:Drivers/lvgl/src/core/lv_disp.c ****  * @return pointer to the sys layer object (transparent screen sized lv_obj)
 108:Drivers/lvgl/src/core/lv_disp.c ****  */
 109:Drivers/lvgl/src/core/lv_disp.c **** lv_obj_t * lv_disp_get_layer_sys(lv_disp_t * disp)
 110:Drivers/lvgl/src/core/lv_disp.c **** {
 111:Drivers/lvgl/src/core/lv_disp.c ****     if(!disp) disp = lv_disp_get_default();
 112:Drivers/lvgl/src/core/lv_disp.c ****     if(!disp) {
 113:Drivers/lvgl/src/core/lv_disp.c ****         LV_LOG_WARN("lv_layer_sys: no display registered to get its sys. layer");
 114:Drivers/lvgl/src/core/lv_disp.c ****         return NULL;
 115:Drivers/lvgl/src/core/lv_disp.c ****     }
 116:Drivers/lvgl/src/core/lv_disp.c **** 
 117:Drivers/lvgl/src/core/lv_disp.c ****     return disp->sys_layer;
 118:Drivers/lvgl/src/core/lv_disp.c **** }
 119:Drivers/lvgl/src/core/lv_disp.c **** 
 120:Drivers/lvgl/src/core/lv_disp.c **** /**
 121:Drivers/lvgl/src/core/lv_disp.c ****  * Set the theme of a display
 122:Drivers/lvgl/src/core/lv_disp.c ****  * @param disp pointer to a display
 123:Drivers/lvgl/src/core/lv_disp.c ****  */
 124:Drivers/lvgl/src/core/lv_disp.c **** void lv_disp_set_theme(lv_disp_t * disp, lv_theme_t * th)
 125:Drivers/lvgl/src/core/lv_disp.c **** {
 126:Drivers/lvgl/src/core/lv_disp.c ****     if(!disp) disp = lv_disp_get_default();
 127:Drivers/lvgl/src/core/lv_disp.c ****     if(!disp) {
 128:Drivers/lvgl/src/core/lv_disp.c ****         LV_LOG_WARN("no display registered");
 129:Drivers/lvgl/src/core/lv_disp.c ****         return;
 130:Drivers/lvgl/src/core/lv_disp.c ****     }
 131:Drivers/lvgl/src/core/lv_disp.c **** 
 132:Drivers/lvgl/src/core/lv_disp.c ****     disp->theme = th;
 133:Drivers/lvgl/src/core/lv_disp.c **** 
 134:Drivers/lvgl/src/core/lv_disp.c ****     if(disp->screen_cnt == 3 &&
 135:Drivers/lvgl/src/core/lv_disp.c ****        lv_obj_get_child_cnt(disp->screens[0]) == 0 &&
 136:Drivers/lvgl/src/core/lv_disp.c ****        lv_obj_get_child_cnt(disp->screens[1]) == 0 &&
 137:Drivers/lvgl/src/core/lv_disp.c ****        lv_obj_get_child_cnt(disp->screens[2]) == 0) {
 138:Drivers/lvgl/src/core/lv_disp.c ****         lv_theme_apply(disp->screens[0]);
 139:Drivers/lvgl/src/core/lv_disp.c ****     }
 140:Drivers/lvgl/src/core/lv_disp.c **** }
 141:Drivers/lvgl/src/core/lv_disp.c **** /**
 142:Drivers/lvgl/src/core/lv_disp.c ****  * Get the theme of a display
 143:Drivers/lvgl/src/core/lv_disp.c ****  * @param disp pointer to a display
 144:Drivers/lvgl/src/core/lv_disp.c ****  * @return the display's theme (can be NULL)
ARM GAS  /var/folders/0z/tsy30v1j4xl4_7kw94k978ww0000gn/T//ccvV8C1Y.s 			page 4


 145:Drivers/lvgl/src/core/lv_disp.c ****  */
 146:Drivers/lvgl/src/core/lv_disp.c **** lv_theme_t * lv_disp_get_theme(lv_disp_t * disp)
 147:Drivers/lvgl/src/core/lv_disp.c **** {
 148:Drivers/lvgl/src/core/lv_disp.c ****     if(disp == NULL) disp = lv_disp_get_default();
 149:Drivers/lvgl/src/core/lv_disp.c ****     return disp->theme;
 150:Drivers/lvgl/src/core/lv_disp.c **** }
 151:Drivers/lvgl/src/core/lv_disp.c **** 
 152:Drivers/lvgl/src/core/lv_disp.c **** /**
 153:Drivers/lvgl/src/core/lv_disp.c ****  * Set the background color of a display
 154:Drivers/lvgl/src/core/lv_disp.c ****  * @param disp pointer to a display
 155:Drivers/lvgl/src/core/lv_disp.c ****  * @param color color of the background
 156:Drivers/lvgl/src/core/lv_disp.c ****  */
 157:Drivers/lvgl/src/core/lv_disp.c **** void lv_disp_set_bg_color(lv_disp_t * disp, lv_color_t color)
 158:Drivers/lvgl/src/core/lv_disp.c **** {
 159:Drivers/lvgl/src/core/lv_disp.c ****     if(!disp) disp = lv_disp_get_default();
 160:Drivers/lvgl/src/core/lv_disp.c ****     if(!disp) {
 161:Drivers/lvgl/src/core/lv_disp.c ****         LV_LOG_WARN("no display registered");
 162:Drivers/lvgl/src/core/lv_disp.c ****         return;
 163:Drivers/lvgl/src/core/lv_disp.c ****     }
 164:Drivers/lvgl/src/core/lv_disp.c **** 
 165:Drivers/lvgl/src/core/lv_disp.c ****     disp->bg_color = color;
 166:Drivers/lvgl/src/core/lv_disp.c **** 
 167:Drivers/lvgl/src/core/lv_disp.c ****     lv_area_t a;
 168:Drivers/lvgl/src/core/lv_disp.c ****     lv_area_set(&a, 0, 0, lv_disp_get_hor_res(disp) - 1, lv_disp_get_ver_res(disp) - 1);
 169:Drivers/lvgl/src/core/lv_disp.c ****     _lv_inv_area(disp, &a);
 170:Drivers/lvgl/src/core/lv_disp.c **** 
 171:Drivers/lvgl/src/core/lv_disp.c **** }
 172:Drivers/lvgl/src/core/lv_disp.c **** 
 173:Drivers/lvgl/src/core/lv_disp.c **** /**
 174:Drivers/lvgl/src/core/lv_disp.c ****  * Set the background image of a display
 175:Drivers/lvgl/src/core/lv_disp.c ****  * @param disp pointer to a display
 176:Drivers/lvgl/src/core/lv_disp.c ****  * @param img_src path to file or pointer to an `lv_img_dsc_t` variable
 177:Drivers/lvgl/src/core/lv_disp.c ****  */
 178:Drivers/lvgl/src/core/lv_disp.c **** void lv_disp_set_bg_image(lv_disp_t * disp, const void  * img_src)
 179:Drivers/lvgl/src/core/lv_disp.c **** {
 180:Drivers/lvgl/src/core/lv_disp.c ****     if(!disp) disp = lv_disp_get_default();
 181:Drivers/lvgl/src/core/lv_disp.c ****     if(!disp) {
 182:Drivers/lvgl/src/core/lv_disp.c ****         LV_LOG_WARN("no display registered");
 183:Drivers/lvgl/src/core/lv_disp.c ****         return;
 184:Drivers/lvgl/src/core/lv_disp.c ****     }
 185:Drivers/lvgl/src/core/lv_disp.c **** 
 186:Drivers/lvgl/src/core/lv_disp.c ****     disp->bg_img = img_src;
 187:Drivers/lvgl/src/core/lv_disp.c **** 
 188:Drivers/lvgl/src/core/lv_disp.c ****     lv_area_t a;
 189:Drivers/lvgl/src/core/lv_disp.c ****     lv_area_set(&a, 0, 0, lv_disp_get_hor_res(disp) - 1, lv_disp_get_ver_res(disp) - 1);
 190:Drivers/lvgl/src/core/lv_disp.c ****     _lv_inv_area(disp, &a);
 191:Drivers/lvgl/src/core/lv_disp.c **** }
 192:Drivers/lvgl/src/core/lv_disp.c **** 
 193:Drivers/lvgl/src/core/lv_disp.c **** /**
 194:Drivers/lvgl/src/core/lv_disp.c ****  * Set opacity of the background
 195:Drivers/lvgl/src/core/lv_disp.c ****  * @param disp pointer to a display
 196:Drivers/lvgl/src/core/lv_disp.c ****  * @param opa opacity (0..255)
 197:Drivers/lvgl/src/core/lv_disp.c ****  */
 198:Drivers/lvgl/src/core/lv_disp.c **** void lv_disp_set_bg_opa(lv_disp_t * disp, lv_opa_t opa)
 199:Drivers/lvgl/src/core/lv_disp.c **** {
 200:Drivers/lvgl/src/core/lv_disp.c ****     if(!disp) disp = lv_disp_get_default();
 201:Drivers/lvgl/src/core/lv_disp.c ****     if(!disp) {
ARM GAS  /var/folders/0z/tsy30v1j4xl4_7kw94k978ww0000gn/T//ccvV8C1Y.s 			page 5


 202:Drivers/lvgl/src/core/lv_disp.c ****         LV_LOG_WARN("no display registered");
 203:Drivers/lvgl/src/core/lv_disp.c ****         return;
 204:Drivers/lvgl/src/core/lv_disp.c ****     }
 205:Drivers/lvgl/src/core/lv_disp.c **** 
 206:Drivers/lvgl/src/core/lv_disp.c ****     disp->bg_opa = opa;
 207:Drivers/lvgl/src/core/lv_disp.c **** 
 208:Drivers/lvgl/src/core/lv_disp.c ****     lv_area_t a;
 209:Drivers/lvgl/src/core/lv_disp.c ****     lv_area_set(&a, 0, 0, lv_disp_get_hor_res(disp) - 1, lv_disp_get_ver_res(disp) - 1);
 210:Drivers/lvgl/src/core/lv_disp.c ****     _lv_inv_area(disp, &a);
 211:Drivers/lvgl/src/core/lv_disp.c **** }
 212:Drivers/lvgl/src/core/lv_disp.c **** 
 213:Drivers/lvgl/src/core/lv_disp.c **** /**
 214:Drivers/lvgl/src/core/lv_disp.c ****  * Switch screen with animation
 215:Drivers/lvgl/src/core/lv_disp.c ****  * @param scr pointer to the new screen to load
 216:Drivers/lvgl/src/core/lv_disp.c ****  * @param anim_type type of the animation from `lv_scr_load_anim_t`, e.g. `LV_SCR_LOAD_ANIM_MOVE_LE
 217:Drivers/lvgl/src/core/lv_disp.c ****  * @param time time of the animation
 218:Drivers/lvgl/src/core/lv_disp.c ****  * @param delay delay before the transition
 219:Drivers/lvgl/src/core/lv_disp.c ****  * @param auto_del true: automatically delete the old screen
 220:Drivers/lvgl/src/core/lv_disp.c ****  */
 221:Drivers/lvgl/src/core/lv_disp.c **** void lv_scr_load_anim(lv_obj_t * new_scr, lv_scr_load_anim_t anim_type, uint32_t time, uint32_t del
 222:Drivers/lvgl/src/core/lv_disp.c **** {
 223:Drivers/lvgl/src/core/lv_disp.c **** 
 224:Drivers/lvgl/src/core/lv_disp.c ****     lv_disp_t * d = lv_obj_get_disp(new_scr);
 225:Drivers/lvgl/src/core/lv_disp.c ****     lv_obj_t * act_scr = lv_scr_act();
 226:Drivers/lvgl/src/core/lv_disp.c **** 
 227:Drivers/lvgl/src/core/lv_disp.c ****     if(act_scr == new_scr || d->scr_to_load == new_scr) {
 228:Drivers/lvgl/src/core/lv_disp.c ****         return;
 229:Drivers/lvgl/src/core/lv_disp.c ****     }
 230:Drivers/lvgl/src/core/lv_disp.c **** 
 231:Drivers/lvgl/src/core/lv_disp.c ****     /*If an other screen load animation is in progress
 232:Drivers/lvgl/src/core/lv_disp.c ****      *make target screen loaded immediately. */
 233:Drivers/lvgl/src/core/lv_disp.c ****     if(d->scr_to_load) {
 234:Drivers/lvgl/src/core/lv_disp.c ****         scr_load_internal(d->scr_to_load);
 235:Drivers/lvgl/src/core/lv_disp.c ****         lv_anim_del(d->scr_to_load, NULL);
 236:Drivers/lvgl/src/core/lv_disp.c ****         lv_obj_set_pos(d->scr_to_load, 0, 0);
 237:Drivers/lvgl/src/core/lv_disp.c ****         lv_obj_remove_local_style_prop(d->scr_to_load, LV_STYLE_OPA, 0);
 238:Drivers/lvgl/src/core/lv_disp.c **** 
 239:Drivers/lvgl/src/core/lv_disp.c ****         if(d->del_prev) {
 240:Drivers/lvgl/src/core/lv_disp.c ****             lv_obj_del(act_scr);
 241:Drivers/lvgl/src/core/lv_disp.c ****         }
 242:Drivers/lvgl/src/core/lv_disp.c ****         act_scr = d->scr_to_load;
 243:Drivers/lvgl/src/core/lv_disp.c ****     }
 244:Drivers/lvgl/src/core/lv_disp.c **** 
 245:Drivers/lvgl/src/core/lv_disp.c ****     d->scr_to_load = new_scr;
 246:Drivers/lvgl/src/core/lv_disp.c **** 
 247:Drivers/lvgl/src/core/lv_disp.c ****     if(d->prev_scr && d->del_prev) {
 248:Drivers/lvgl/src/core/lv_disp.c ****         lv_obj_del(d->prev_scr);
 249:Drivers/lvgl/src/core/lv_disp.c ****         d->prev_scr = NULL;
 250:Drivers/lvgl/src/core/lv_disp.c ****     }
 251:Drivers/lvgl/src/core/lv_disp.c **** 
 252:Drivers/lvgl/src/core/lv_disp.c ****     d->draw_prev_over_act = is_out_anim(anim_type);
 253:Drivers/lvgl/src/core/lv_disp.c ****     d->del_prev = auto_del;
 254:Drivers/lvgl/src/core/lv_disp.c **** 
 255:Drivers/lvgl/src/core/lv_disp.c ****     /*Be sure there is no other animation on the screens*/
 256:Drivers/lvgl/src/core/lv_disp.c ****     lv_anim_del(new_scr, NULL);
 257:Drivers/lvgl/src/core/lv_disp.c ****     lv_anim_del(lv_scr_act(), NULL);
 258:Drivers/lvgl/src/core/lv_disp.c **** 
ARM GAS  /var/folders/0z/tsy30v1j4xl4_7kw94k978ww0000gn/T//ccvV8C1Y.s 			page 6


 259:Drivers/lvgl/src/core/lv_disp.c ****     /*Be sure both screens are in a normal position*/
 260:Drivers/lvgl/src/core/lv_disp.c ****     lv_obj_set_pos(new_scr, 0, 0);
 261:Drivers/lvgl/src/core/lv_disp.c ****     lv_obj_set_pos(lv_scr_act(), 0, 0);
 262:Drivers/lvgl/src/core/lv_disp.c ****     lv_obj_remove_local_style_prop(new_scr, LV_STYLE_OPA, 0);
 263:Drivers/lvgl/src/core/lv_disp.c ****     lv_obj_remove_local_style_prop(lv_scr_act(), LV_STYLE_OPA, 0);
 264:Drivers/lvgl/src/core/lv_disp.c **** 
 265:Drivers/lvgl/src/core/lv_disp.c ****     /*Shortcut for immediate load*/
 266:Drivers/lvgl/src/core/lv_disp.c ****     if(time == 0 && delay == 0) {
 267:Drivers/lvgl/src/core/lv_disp.c ****         scr_load_internal(new_scr);
 268:Drivers/lvgl/src/core/lv_disp.c ****         if(auto_del) lv_obj_del(act_scr);
 269:Drivers/lvgl/src/core/lv_disp.c ****         return;
 270:Drivers/lvgl/src/core/lv_disp.c ****     }
 271:Drivers/lvgl/src/core/lv_disp.c **** 
 272:Drivers/lvgl/src/core/lv_disp.c ****     lv_anim_t a_new;
 273:Drivers/lvgl/src/core/lv_disp.c ****     lv_anim_init(&a_new);
 274:Drivers/lvgl/src/core/lv_disp.c ****     lv_anim_set_var(&a_new, new_scr);
 275:Drivers/lvgl/src/core/lv_disp.c ****     lv_anim_set_start_cb(&a_new, scr_load_anim_start);
 276:Drivers/lvgl/src/core/lv_disp.c ****     lv_anim_set_ready_cb(&a_new, scr_anim_ready);
 277:Drivers/lvgl/src/core/lv_disp.c ****     lv_anim_set_time(&a_new, time);
 278:Drivers/lvgl/src/core/lv_disp.c ****     lv_anim_set_delay(&a_new, delay);
 279:Drivers/lvgl/src/core/lv_disp.c **** 
 280:Drivers/lvgl/src/core/lv_disp.c ****     lv_anim_t a_old;
 281:Drivers/lvgl/src/core/lv_disp.c ****     lv_anim_init(&a_old);
 282:Drivers/lvgl/src/core/lv_disp.c ****     lv_anim_set_var(&a_old, d->act_scr);
 283:Drivers/lvgl/src/core/lv_disp.c ****     lv_anim_set_time(&a_old, time);
 284:Drivers/lvgl/src/core/lv_disp.c ****     lv_anim_set_delay(&a_old, delay);
 285:Drivers/lvgl/src/core/lv_disp.c **** 
 286:Drivers/lvgl/src/core/lv_disp.c ****     switch(anim_type) {
 287:Drivers/lvgl/src/core/lv_disp.c ****         case LV_SCR_LOAD_ANIM_NONE:
 288:Drivers/lvgl/src/core/lv_disp.c ****             /*Create a dummy animation to apply the delay*/
 289:Drivers/lvgl/src/core/lv_disp.c ****             lv_anim_set_exec_cb(&a_new, set_x_anim);
 290:Drivers/lvgl/src/core/lv_disp.c ****             lv_anim_set_values(&a_new, 0, 0);
 291:Drivers/lvgl/src/core/lv_disp.c ****             break;
 292:Drivers/lvgl/src/core/lv_disp.c ****         case LV_SCR_LOAD_ANIM_OVER_LEFT:
 293:Drivers/lvgl/src/core/lv_disp.c ****             lv_anim_set_exec_cb(&a_new, set_x_anim);
 294:Drivers/lvgl/src/core/lv_disp.c ****             lv_anim_set_values(&a_new, lv_disp_get_hor_res(d), 0);
 295:Drivers/lvgl/src/core/lv_disp.c ****             break;
 296:Drivers/lvgl/src/core/lv_disp.c ****         case LV_SCR_LOAD_ANIM_OVER_RIGHT:
 297:Drivers/lvgl/src/core/lv_disp.c ****             lv_anim_set_exec_cb(&a_new, set_x_anim);
 298:Drivers/lvgl/src/core/lv_disp.c ****             lv_anim_set_values(&a_new, -lv_disp_get_hor_res(d), 0);
 299:Drivers/lvgl/src/core/lv_disp.c ****             break;
 300:Drivers/lvgl/src/core/lv_disp.c ****         case LV_SCR_LOAD_ANIM_OVER_TOP:
 301:Drivers/lvgl/src/core/lv_disp.c ****             lv_anim_set_exec_cb(&a_new, set_y_anim);
 302:Drivers/lvgl/src/core/lv_disp.c ****             lv_anim_set_values(&a_new, lv_disp_get_ver_res(d), 0);
 303:Drivers/lvgl/src/core/lv_disp.c ****             break;
 304:Drivers/lvgl/src/core/lv_disp.c ****         case LV_SCR_LOAD_ANIM_OVER_BOTTOM:
 305:Drivers/lvgl/src/core/lv_disp.c ****             lv_anim_set_exec_cb(&a_new, set_y_anim);
 306:Drivers/lvgl/src/core/lv_disp.c ****             lv_anim_set_values(&a_new, -lv_disp_get_ver_res(d), 0);
 307:Drivers/lvgl/src/core/lv_disp.c ****             break;
 308:Drivers/lvgl/src/core/lv_disp.c ****         case LV_SCR_LOAD_ANIM_MOVE_LEFT:
 309:Drivers/lvgl/src/core/lv_disp.c ****             lv_anim_set_exec_cb(&a_new, set_x_anim);
 310:Drivers/lvgl/src/core/lv_disp.c ****             lv_anim_set_values(&a_new, lv_disp_get_hor_res(d), 0);
 311:Drivers/lvgl/src/core/lv_disp.c **** 
 312:Drivers/lvgl/src/core/lv_disp.c ****             lv_anim_set_exec_cb(&a_old, set_x_anim);
 313:Drivers/lvgl/src/core/lv_disp.c ****             lv_anim_set_values(&a_old, 0, -lv_disp_get_hor_res(d));
 314:Drivers/lvgl/src/core/lv_disp.c ****             break;
 315:Drivers/lvgl/src/core/lv_disp.c ****         case LV_SCR_LOAD_ANIM_MOVE_RIGHT:
ARM GAS  /var/folders/0z/tsy30v1j4xl4_7kw94k978ww0000gn/T//ccvV8C1Y.s 			page 7


 316:Drivers/lvgl/src/core/lv_disp.c ****             lv_anim_set_exec_cb(&a_new, set_x_anim);
 317:Drivers/lvgl/src/core/lv_disp.c ****             lv_anim_set_values(&a_new, -lv_disp_get_hor_res(d), 0);
 318:Drivers/lvgl/src/core/lv_disp.c **** 
 319:Drivers/lvgl/src/core/lv_disp.c ****             lv_anim_set_exec_cb(&a_old, set_x_anim);
 320:Drivers/lvgl/src/core/lv_disp.c ****             lv_anim_set_values(&a_old, 0, lv_disp_get_hor_res(d));
 321:Drivers/lvgl/src/core/lv_disp.c ****             break;
 322:Drivers/lvgl/src/core/lv_disp.c ****         case LV_SCR_LOAD_ANIM_MOVE_TOP:
 323:Drivers/lvgl/src/core/lv_disp.c ****             lv_anim_set_exec_cb(&a_new, set_y_anim);
 324:Drivers/lvgl/src/core/lv_disp.c ****             lv_anim_set_values(&a_new, lv_disp_get_ver_res(d), 0);
 325:Drivers/lvgl/src/core/lv_disp.c **** 
 326:Drivers/lvgl/src/core/lv_disp.c ****             lv_anim_set_exec_cb(&a_old, set_y_anim);
 327:Drivers/lvgl/src/core/lv_disp.c ****             lv_anim_set_values(&a_old, 0, -lv_disp_get_ver_res(d));
 328:Drivers/lvgl/src/core/lv_disp.c ****             break;
 329:Drivers/lvgl/src/core/lv_disp.c ****         case LV_SCR_LOAD_ANIM_MOVE_BOTTOM:
 330:Drivers/lvgl/src/core/lv_disp.c ****             lv_anim_set_exec_cb(&a_new, set_y_anim);
 331:Drivers/lvgl/src/core/lv_disp.c ****             lv_anim_set_values(&a_new, -lv_disp_get_ver_res(d), 0);
 332:Drivers/lvgl/src/core/lv_disp.c **** 
 333:Drivers/lvgl/src/core/lv_disp.c ****             lv_anim_set_exec_cb(&a_old, set_y_anim);
 334:Drivers/lvgl/src/core/lv_disp.c ****             lv_anim_set_values(&a_old, 0, lv_disp_get_ver_res(d));
 335:Drivers/lvgl/src/core/lv_disp.c ****             break;
 336:Drivers/lvgl/src/core/lv_disp.c ****         case LV_SCR_LOAD_ANIM_FADE_IN:
 337:Drivers/lvgl/src/core/lv_disp.c ****             lv_anim_set_exec_cb(&a_new, opa_scale_anim);
 338:Drivers/lvgl/src/core/lv_disp.c ****             lv_anim_set_values(&a_new, LV_OPA_TRANSP, LV_OPA_COVER);
 339:Drivers/lvgl/src/core/lv_disp.c ****             break;
 340:Drivers/lvgl/src/core/lv_disp.c ****         case LV_SCR_LOAD_ANIM_FADE_OUT:
 341:Drivers/lvgl/src/core/lv_disp.c ****             lv_anim_set_exec_cb(&a_old, opa_scale_anim);
 342:Drivers/lvgl/src/core/lv_disp.c ****             lv_anim_set_values(&a_old, LV_OPA_COVER, LV_OPA_TRANSP);
 343:Drivers/lvgl/src/core/lv_disp.c ****             break;
 344:Drivers/lvgl/src/core/lv_disp.c ****         case LV_SCR_LOAD_ANIM_OUT_LEFT:
 345:Drivers/lvgl/src/core/lv_disp.c ****             lv_anim_set_exec_cb(&a_old, set_x_anim);
 346:Drivers/lvgl/src/core/lv_disp.c ****             lv_anim_set_values(&a_old, 0, -lv_disp_get_hor_res(d));
 347:Drivers/lvgl/src/core/lv_disp.c ****             break;
 348:Drivers/lvgl/src/core/lv_disp.c ****         case LV_SCR_LOAD_ANIM_OUT_RIGHT:
 349:Drivers/lvgl/src/core/lv_disp.c ****             lv_anim_set_exec_cb(&a_old, set_x_anim);
 350:Drivers/lvgl/src/core/lv_disp.c ****             lv_anim_set_values(&a_old, 0, lv_disp_get_hor_res(d));
 351:Drivers/lvgl/src/core/lv_disp.c ****             break;
 352:Drivers/lvgl/src/core/lv_disp.c ****         case LV_SCR_LOAD_ANIM_OUT_TOP:
 353:Drivers/lvgl/src/core/lv_disp.c ****             lv_anim_set_exec_cb(&a_old, set_y_anim);
 354:Drivers/lvgl/src/core/lv_disp.c ****             lv_anim_set_values(&a_old, 0, -lv_disp_get_ver_res(d));
 355:Drivers/lvgl/src/core/lv_disp.c ****             break;
 356:Drivers/lvgl/src/core/lv_disp.c ****         case LV_SCR_LOAD_ANIM_OUT_BOTTOM:
 357:Drivers/lvgl/src/core/lv_disp.c ****             lv_anim_set_exec_cb(&a_old, set_y_anim);
 358:Drivers/lvgl/src/core/lv_disp.c ****             lv_anim_set_values(&a_old, 0, lv_disp_get_ver_res(d));
 359:Drivers/lvgl/src/core/lv_disp.c ****             break;
 360:Drivers/lvgl/src/core/lv_disp.c ****     }
 361:Drivers/lvgl/src/core/lv_disp.c **** 
 362:Drivers/lvgl/src/core/lv_disp.c ****     lv_event_send(act_scr, LV_EVENT_SCREEN_UNLOAD_START, NULL);
 363:Drivers/lvgl/src/core/lv_disp.c **** 
 364:Drivers/lvgl/src/core/lv_disp.c ****     lv_anim_start(&a_new);
 365:Drivers/lvgl/src/core/lv_disp.c ****     lv_anim_start(&a_old);
 366:Drivers/lvgl/src/core/lv_disp.c **** }
 367:Drivers/lvgl/src/core/lv_disp.c **** 
 368:Drivers/lvgl/src/core/lv_disp.c **** /**
 369:Drivers/lvgl/src/core/lv_disp.c ****  * Get elapsed time since last user activity on a display (e.g. click)
 370:Drivers/lvgl/src/core/lv_disp.c ****  * @param disp pointer to a display (NULL to get the overall smallest inactivity)
 371:Drivers/lvgl/src/core/lv_disp.c ****  * @return elapsed ticks (milliseconds) since the last activity
 372:Drivers/lvgl/src/core/lv_disp.c ****  */
ARM GAS  /var/folders/0z/tsy30v1j4xl4_7kw94k978ww0000gn/T//ccvV8C1Y.s 			page 8


 373:Drivers/lvgl/src/core/lv_disp.c **** uint32_t lv_disp_get_inactive_time(const lv_disp_t * disp)
 374:Drivers/lvgl/src/core/lv_disp.c **** {
 375:Drivers/lvgl/src/core/lv_disp.c ****     if(disp) return lv_tick_elaps(disp->last_activity_time);
 376:Drivers/lvgl/src/core/lv_disp.c **** 
 377:Drivers/lvgl/src/core/lv_disp.c ****     lv_disp_t * d;
 378:Drivers/lvgl/src/core/lv_disp.c ****     uint32_t t = UINT32_MAX;
 379:Drivers/lvgl/src/core/lv_disp.c ****     d          = lv_disp_get_next(NULL);
 380:Drivers/lvgl/src/core/lv_disp.c ****     while(d) {
 381:Drivers/lvgl/src/core/lv_disp.c ****         uint32_t elaps = lv_tick_elaps(d->last_activity_time);
 382:Drivers/lvgl/src/core/lv_disp.c ****         t = LV_MIN(t, elaps);
 383:Drivers/lvgl/src/core/lv_disp.c ****         d = lv_disp_get_next(d);
 384:Drivers/lvgl/src/core/lv_disp.c ****     }
 385:Drivers/lvgl/src/core/lv_disp.c **** 
 386:Drivers/lvgl/src/core/lv_disp.c ****     return t;
 387:Drivers/lvgl/src/core/lv_disp.c **** }
 388:Drivers/lvgl/src/core/lv_disp.c **** 
 389:Drivers/lvgl/src/core/lv_disp.c **** /**
 390:Drivers/lvgl/src/core/lv_disp.c ****  * Manually trigger an activity on a display
 391:Drivers/lvgl/src/core/lv_disp.c ****  * @param disp pointer to a display (NULL to use the default display)
 392:Drivers/lvgl/src/core/lv_disp.c ****  */
 393:Drivers/lvgl/src/core/lv_disp.c **** void lv_disp_trig_activity(lv_disp_t * disp)
 394:Drivers/lvgl/src/core/lv_disp.c **** {
 395:Drivers/lvgl/src/core/lv_disp.c ****     if(!disp) disp = lv_disp_get_default();
 396:Drivers/lvgl/src/core/lv_disp.c ****     if(!disp) {
 397:Drivers/lvgl/src/core/lv_disp.c ****         LV_LOG_WARN("lv_disp_trig_activity: no display registered");
 398:Drivers/lvgl/src/core/lv_disp.c ****         return;
 399:Drivers/lvgl/src/core/lv_disp.c ****     }
 400:Drivers/lvgl/src/core/lv_disp.c **** 
 401:Drivers/lvgl/src/core/lv_disp.c ****     disp->last_activity_time = lv_tick_get();
 402:Drivers/lvgl/src/core/lv_disp.c **** }
 403:Drivers/lvgl/src/core/lv_disp.c **** 
 404:Drivers/lvgl/src/core/lv_disp.c **** /**
 405:Drivers/lvgl/src/core/lv_disp.c ****  * Clean any CPU cache that is related to the display.
 406:Drivers/lvgl/src/core/lv_disp.c ****  * @param disp pointer to a display (NULL to use the default display)
 407:Drivers/lvgl/src/core/lv_disp.c ****  */
 408:Drivers/lvgl/src/core/lv_disp.c **** void lv_disp_clean_dcache(lv_disp_t * disp)
 409:Drivers/lvgl/src/core/lv_disp.c **** {
 410:Drivers/lvgl/src/core/lv_disp.c ****     if(!disp) disp = lv_disp_get_default();
 411:Drivers/lvgl/src/core/lv_disp.c ****     if(!disp) {
 412:Drivers/lvgl/src/core/lv_disp.c ****         LV_LOG_WARN("lv_disp_clean_dcache: no display registered");
 413:Drivers/lvgl/src/core/lv_disp.c ****         return;
 414:Drivers/lvgl/src/core/lv_disp.c ****     }
 415:Drivers/lvgl/src/core/lv_disp.c **** 
 416:Drivers/lvgl/src/core/lv_disp.c ****     if(disp->driver->clean_dcache_cb)
 417:Drivers/lvgl/src/core/lv_disp.c ****         disp->driver->clean_dcache_cb(disp->driver);
 418:Drivers/lvgl/src/core/lv_disp.c **** }
 419:Drivers/lvgl/src/core/lv_disp.c **** 
 420:Drivers/lvgl/src/core/lv_disp.c **** /**
 421:Drivers/lvgl/src/core/lv_disp.c ****  * Temporarily enable and disable the invalidation of the display.
 422:Drivers/lvgl/src/core/lv_disp.c ****  * @param disp pointer to a display (NULL to use the default display)
 423:Drivers/lvgl/src/core/lv_disp.c ****  * @param en true: enable invalidation; false: invalidation
 424:Drivers/lvgl/src/core/lv_disp.c ****  */
 425:Drivers/lvgl/src/core/lv_disp.c **** void lv_disp_enable_invalidation(lv_disp_t * disp, bool en)
 426:Drivers/lvgl/src/core/lv_disp.c **** {
 427:Drivers/lvgl/src/core/lv_disp.c ****     if(!disp) disp = lv_disp_get_default();
 428:Drivers/lvgl/src/core/lv_disp.c ****     if(!disp) {
 429:Drivers/lvgl/src/core/lv_disp.c ****         LV_LOG_WARN("no display registered");
ARM GAS  /var/folders/0z/tsy30v1j4xl4_7kw94k978ww0000gn/T//ccvV8C1Y.s 			page 9


 430:Drivers/lvgl/src/core/lv_disp.c ****         return;
 431:Drivers/lvgl/src/core/lv_disp.c ****     }
 432:Drivers/lvgl/src/core/lv_disp.c **** 
 433:Drivers/lvgl/src/core/lv_disp.c ****     disp->inv_en_cnt += en ? 1 : -1;
 434:Drivers/lvgl/src/core/lv_disp.c **** }
 435:Drivers/lvgl/src/core/lv_disp.c **** 
 436:Drivers/lvgl/src/core/lv_disp.c **** /**
 437:Drivers/lvgl/src/core/lv_disp.c ****  * Get display invalidation is enabled.
 438:Drivers/lvgl/src/core/lv_disp.c ****  * @param disp pointer to a display (NULL to use the default display)
 439:Drivers/lvgl/src/core/lv_disp.c ****  * @return return true if invalidation is enabled
 440:Drivers/lvgl/src/core/lv_disp.c ****  */
 441:Drivers/lvgl/src/core/lv_disp.c **** bool lv_disp_is_invalidation_enabled(lv_disp_t * disp)
 442:Drivers/lvgl/src/core/lv_disp.c **** {
 443:Drivers/lvgl/src/core/lv_disp.c ****     if(!disp) disp = lv_disp_get_default();
 444:Drivers/lvgl/src/core/lv_disp.c ****     if(!disp) {
 445:Drivers/lvgl/src/core/lv_disp.c ****         LV_LOG_WARN("no display registered");
 446:Drivers/lvgl/src/core/lv_disp.c ****         return false;
 447:Drivers/lvgl/src/core/lv_disp.c ****     }
 448:Drivers/lvgl/src/core/lv_disp.c **** 
 449:Drivers/lvgl/src/core/lv_disp.c ****     return (disp->inv_en_cnt > 0);
 450:Drivers/lvgl/src/core/lv_disp.c **** }
 451:Drivers/lvgl/src/core/lv_disp.c **** 
 452:Drivers/lvgl/src/core/lv_disp.c **** /**
 453:Drivers/lvgl/src/core/lv_disp.c ****  * Get a pointer to the screen refresher timer to
 454:Drivers/lvgl/src/core/lv_disp.c ****  * modify its parameters with `lv_timer_...` functions.
 455:Drivers/lvgl/src/core/lv_disp.c ****  * @param disp pointer to a display
 456:Drivers/lvgl/src/core/lv_disp.c ****  * @return pointer to the display refresher timer. (NULL on error)
 457:Drivers/lvgl/src/core/lv_disp.c ****  */
 458:Drivers/lvgl/src/core/lv_disp.c **** lv_timer_t * _lv_disp_get_refr_timer(lv_disp_t * disp)
 459:Drivers/lvgl/src/core/lv_disp.c **** {
 460:Drivers/lvgl/src/core/lv_disp.c ****     if(!disp) disp = lv_disp_get_default();
 461:Drivers/lvgl/src/core/lv_disp.c ****     if(!disp) {
 462:Drivers/lvgl/src/core/lv_disp.c ****         LV_LOG_WARN("lv_disp_get_refr_timer: no display registered");
 463:Drivers/lvgl/src/core/lv_disp.c ****         return NULL;
 464:Drivers/lvgl/src/core/lv_disp.c ****     }
 465:Drivers/lvgl/src/core/lv_disp.c **** 
 466:Drivers/lvgl/src/core/lv_disp.c ****     return disp->refr_timer;
 467:Drivers/lvgl/src/core/lv_disp.c **** }
 468:Drivers/lvgl/src/core/lv_disp.c **** 
 469:Drivers/lvgl/src/core/lv_disp.c **** /**********************
 470:Drivers/lvgl/src/core/lv_disp.c ****  *   STATIC FUNCTIONS
 471:Drivers/lvgl/src/core/lv_disp.c ****  **********************/
 472:Drivers/lvgl/src/core/lv_disp.c **** 
 473:Drivers/lvgl/src/core/lv_disp.c **** static void scr_load_internal(lv_obj_t * scr)
 474:Drivers/lvgl/src/core/lv_disp.c **** {
 475:Drivers/lvgl/src/core/lv_disp.c ****     lv_disp_t * d = lv_obj_get_disp(scr);
 476:Drivers/lvgl/src/core/lv_disp.c ****     if(!d) return;  /*Shouldn't happen, just to be sure*/
 477:Drivers/lvgl/src/core/lv_disp.c **** 
 478:Drivers/lvgl/src/core/lv_disp.c ****     lv_obj_t * old_scr = d->act_scr;
 479:Drivers/lvgl/src/core/lv_disp.c **** 
 480:Drivers/lvgl/src/core/lv_disp.c ****     if(d->act_scr) lv_event_send(old_scr, LV_EVENT_SCREEN_UNLOAD_START, NULL);
 481:Drivers/lvgl/src/core/lv_disp.c ****     if(d->act_scr) lv_event_send(scr, LV_EVENT_SCREEN_LOAD_START, NULL);
 482:Drivers/lvgl/src/core/lv_disp.c **** 
 483:Drivers/lvgl/src/core/lv_disp.c ****     d->act_scr = scr;
 484:Drivers/lvgl/src/core/lv_disp.c ****     d->scr_to_load = NULL;
 485:Drivers/lvgl/src/core/lv_disp.c **** 
 486:Drivers/lvgl/src/core/lv_disp.c ****     if(d->act_scr) lv_event_send(scr, LV_EVENT_SCREEN_LOADED, NULL);
ARM GAS  /var/folders/0z/tsy30v1j4xl4_7kw94k978ww0000gn/T//ccvV8C1Y.s 			page 10


 487:Drivers/lvgl/src/core/lv_disp.c ****     if(d->act_scr) lv_event_send(old_scr, LV_EVENT_SCREEN_UNLOADED, NULL);
 488:Drivers/lvgl/src/core/lv_disp.c **** 
 489:Drivers/lvgl/src/core/lv_disp.c ****     lv_obj_invalidate(scr);
 490:Drivers/lvgl/src/core/lv_disp.c **** }
 491:Drivers/lvgl/src/core/lv_disp.c **** 
 492:Drivers/lvgl/src/core/lv_disp.c **** static void scr_load_anim_start(lv_anim_t * a)
 493:Drivers/lvgl/src/core/lv_disp.c **** {
 494:Drivers/lvgl/src/core/lv_disp.c ****     lv_disp_t * d = lv_obj_get_disp(a->var);
 495:Drivers/lvgl/src/core/lv_disp.c **** 
 496:Drivers/lvgl/src/core/lv_disp.c ****     d->prev_scr = lv_scr_act();
 497:Drivers/lvgl/src/core/lv_disp.c ****     d->act_scr = a->var;
 498:Drivers/lvgl/src/core/lv_disp.c **** 
 499:Drivers/lvgl/src/core/lv_disp.c ****     lv_event_send(d->act_scr, LV_EVENT_SCREEN_LOAD_START, NULL);
 500:Drivers/lvgl/src/core/lv_disp.c **** }
 501:Drivers/lvgl/src/core/lv_disp.c **** 
 502:Drivers/lvgl/src/core/lv_disp.c **** static void opa_scale_anim(void * obj, int32_t v)
 503:Drivers/lvgl/src/core/lv_disp.c **** {
 504:Drivers/lvgl/src/core/lv_disp.c ****     lv_obj_set_style_opa(obj, v, 0);
 505:Drivers/lvgl/src/core/lv_disp.c **** }
 506:Drivers/lvgl/src/core/lv_disp.c **** 
 507:Drivers/lvgl/src/core/lv_disp.c **** static void set_x_anim(void * obj, int32_t v)
 508:Drivers/lvgl/src/core/lv_disp.c **** {
 509:Drivers/lvgl/src/core/lv_disp.c ****     lv_obj_set_x(obj, v);
 510:Drivers/lvgl/src/core/lv_disp.c **** }
 511:Drivers/lvgl/src/core/lv_disp.c **** 
 512:Drivers/lvgl/src/core/lv_disp.c **** static void set_y_anim(void * obj, int32_t v)
 513:Drivers/lvgl/src/core/lv_disp.c **** {
 514:Drivers/lvgl/src/core/lv_disp.c ****     lv_obj_set_y(obj, v);
 515:Drivers/lvgl/src/core/lv_disp.c **** }
 516:Drivers/lvgl/src/core/lv_disp.c **** 
 517:Drivers/lvgl/src/core/lv_disp.c **** static void scr_anim_ready(lv_anim_t * a)
 518:Drivers/lvgl/src/core/lv_disp.c **** {
 519:Drivers/lvgl/src/core/lv_disp.c ****     lv_disp_t * d = lv_obj_get_disp(a->var);
 520:Drivers/lvgl/src/core/lv_disp.c **** 
 521:Drivers/lvgl/src/core/lv_disp.c ****     lv_event_send(d->act_scr, LV_EVENT_SCREEN_LOADED, NULL);
 522:Drivers/lvgl/src/core/lv_disp.c ****     lv_event_send(d->prev_scr, LV_EVENT_SCREEN_UNLOADED, NULL);
 523:Drivers/lvgl/src/core/lv_disp.c **** 
 524:Drivers/lvgl/src/core/lv_disp.c ****     if(d->prev_scr && d->del_prev) lv_obj_del(d->prev_scr);
 525:Drivers/lvgl/src/core/lv_disp.c ****     d->prev_scr = NULL;
 526:Drivers/lvgl/src/core/lv_disp.c ****     d->draw_prev_over_act = false;
 527:Drivers/lvgl/src/core/lv_disp.c ****     d->scr_to_load = NULL;
 528:Drivers/lvgl/src/core/lv_disp.c ****     lv_obj_remove_local_style_prop(a->var, LV_STYLE_OPA, 0);
 529:Drivers/lvgl/src/core/lv_disp.c ****     lv_obj_invalidate(d->act_scr);
 530:Drivers/lvgl/src/core/lv_disp.c **** }
 531:Drivers/lvgl/src/core/lv_disp.c **** 
 532:Drivers/lvgl/src/core/lv_disp.c **** static bool is_out_anim(lv_scr_load_anim_t anim_type)
 533:Drivers/lvgl/src/core/lv_disp.c **** {
  29              		.loc 1 533 1 view -0
  30              		.cfi_startproc
  31              		@ args = 0, pretend = 0, frame = 0
  32              		@ frame_needed = 0, uses_anonymous_args = 0
  33              		@ link register save eliminated.
 534:Drivers/lvgl/src/core/lv_disp.c ****     return anim_type == LV_SCR_LOAD_ANIM_FADE_OUT  ||
  34              		.loc 1 534 5 view .LVU1
 535:Drivers/lvgl/src/core/lv_disp.c ****            anim_type == LV_SCR_LOAD_ANIM_OUT_LEFT  ||
 536:Drivers/lvgl/src/core/lv_disp.c ****            anim_type == LV_SCR_LOAD_ANIM_OUT_RIGHT ||
 537:Drivers/lvgl/src/core/lv_disp.c ****            anim_type == LV_SCR_LOAD_ANIM_OUT_TOP   ||
ARM GAS  /var/folders/0z/tsy30v1j4xl4_7kw94k978ww0000gn/T//ccvV8C1Y.s 			page 11


  35              		.loc 1 537 52 is_stmt 0 view .LVU2
  36 0000 0A38     		subs	r0, r0, #10
  37              	.LVL1:
  38              		.loc 1 537 52 view .LVU3
  39 0002 C0B2     		uxtb	r0, r0
 538:Drivers/lvgl/src/core/lv_disp.c ****            anim_type == LV_SCR_LOAD_ANIM_OUT_BOTTOM;
 539:Drivers/lvgl/src/core/lv_disp.c **** }
  40              		.loc 1 539 1 view .LVU4
  41 0004 0428     		cmp	r0, #4
  42 0006 8CBF     		ite	hi
  43 0008 0020     		movhi	r0, #0
  44 000a 0120     		movls	r0, #1
  45 000c 7047     		bx	lr
  46              		.cfi_endproc
  47              	.LFE190:
  49              		.section	.text.opa_scale_anim,"ax",%progbits
  50              		.align	1
  51              		.syntax unified
  52              		.thumb
  53              		.thumb_func
  55              	opa_scale_anim:
  56              	.LVL2:
  57              	.LFB186:
 503:Drivers/lvgl/src/core/lv_disp.c ****     lv_obj_set_style_opa(obj, v, 0);
  58              		.loc 1 503 1 is_stmt 1 view -0
  59              		.cfi_startproc
  60              		@ args = 0, pretend = 0, frame = 0
  61              		@ frame_needed = 0, uses_anonymous_args = 0
 503:Drivers/lvgl/src/core/lv_disp.c ****     lv_obj_set_style_opa(obj, v, 0);
  62              		.loc 1 503 1 is_stmt 0 view .LVU6
  63 0000 08B5     		push	{r3, lr}
  64              		.cfi_def_cfa_offset 8
  65              		.cfi_offset 3, -8
  66              		.cfi_offset 14, -4
 504:Drivers/lvgl/src/core/lv_disp.c **** }
  67              		.loc 1 504 5 is_stmt 1 view .LVU7
  68 0002 0022     		movs	r2, #0
  69 0004 C9B2     		uxtb	r1, r1
  70              	.LVL3:
 504:Drivers/lvgl/src/core/lv_disp.c **** }
  71              		.loc 1 504 5 is_stmt 0 view .LVU8
  72 0006 FFF7FEFF 		bl	lv_obj_set_style_opa
  73              	.LVL4:
 505:Drivers/lvgl/src/core/lv_disp.c **** 
  74              		.loc 1 505 1 view .LVU9
  75 000a 08BD     		pop	{r3, pc}
  76              		.cfi_endproc
  77              	.LFE186:
  79              		.section	.text.set_y_anim,"ax",%progbits
  80              		.align	1
  81              		.syntax unified
  82              		.thumb
  83              		.thumb_func
  85              	set_y_anim:
  86              	.LVL5:
  87              	.LFB188:
 513:Drivers/lvgl/src/core/lv_disp.c ****     lv_obj_set_y(obj, v);
ARM GAS  /var/folders/0z/tsy30v1j4xl4_7kw94k978ww0000gn/T//ccvV8C1Y.s 			page 12


  88              		.loc 1 513 1 is_stmt 1 view -0
  89              		.cfi_startproc
  90              		@ args = 0, pretend = 0, frame = 0
  91              		@ frame_needed = 0, uses_anonymous_args = 0
 513:Drivers/lvgl/src/core/lv_disp.c ****     lv_obj_set_y(obj, v);
  92              		.loc 1 513 1 is_stmt 0 view .LVU11
  93 0000 08B5     		push	{r3, lr}
  94              		.cfi_def_cfa_offset 8
  95              		.cfi_offset 3, -8
  96              		.cfi_offset 14, -4
 514:Drivers/lvgl/src/core/lv_disp.c **** }
  97              		.loc 1 514 5 is_stmt 1 view .LVU12
  98 0002 09B2     		sxth	r1, r1
  99              	.LVL6:
 514:Drivers/lvgl/src/core/lv_disp.c **** }
 100              		.loc 1 514 5 is_stmt 0 view .LVU13
 101 0004 FFF7FEFF 		bl	lv_obj_set_y
 102              	.LVL7:
 515:Drivers/lvgl/src/core/lv_disp.c **** 
 103              		.loc 1 515 1 view .LVU14
 104 0008 08BD     		pop	{r3, pc}
 105              		.cfi_endproc
 106              	.LFE188:
 108              		.section	.text.set_x_anim,"ax",%progbits
 109              		.align	1
 110              		.syntax unified
 111              		.thumb
 112              		.thumb_func
 114              	set_x_anim:
 115              	.LVL8:
 116              	.LFB187:
 508:Drivers/lvgl/src/core/lv_disp.c ****     lv_obj_set_x(obj, v);
 117              		.loc 1 508 1 is_stmt 1 view -0
 118              		.cfi_startproc
 119              		@ args = 0, pretend = 0, frame = 0
 120              		@ frame_needed = 0, uses_anonymous_args = 0
 508:Drivers/lvgl/src/core/lv_disp.c ****     lv_obj_set_x(obj, v);
 121              		.loc 1 508 1 is_stmt 0 view .LVU16
 122 0000 08B5     		push	{r3, lr}
 123              		.cfi_def_cfa_offset 8
 124              		.cfi_offset 3, -8
 125              		.cfi_offset 14, -4
 509:Drivers/lvgl/src/core/lv_disp.c **** }
 126              		.loc 1 509 5 is_stmt 1 view .LVU17
 127 0002 09B2     		sxth	r1, r1
 128              	.LVL9:
 509:Drivers/lvgl/src/core/lv_disp.c **** }
 129              		.loc 1 509 5 is_stmt 0 view .LVU18
 130 0004 FFF7FEFF 		bl	lv_obj_set_x
 131              	.LVL10:
 510:Drivers/lvgl/src/core/lv_disp.c **** 
 132              		.loc 1 510 1 view .LVU19
 133 0008 08BD     		pop	{r3, pc}
 134              		.cfi_endproc
 135              	.LFE187:
 137              		.section	.text.scr_anim_ready,"ax",%progbits
 138              		.align	1
ARM GAS  /var/folders/0z/tsy30v1j4xl4_7kw94k978ww0000gn/T//ccvV8C1Y.s 			page 13


 139              		.syntax unified
 140              		.thumb
 141              		.thumb_func
 143              	scr_anim_ready:
 144              	.LVL11:
 145              	.LFB189:
 518:Drivers/lvgl/src/core/lv_disp.c ****     lv_disp_t * d = lv_obj_get_disp(a->var);
 146              		.loc 1 518 1 is_stmt 1 view -0
 147              		.cfi_startproc
 148              		@ args = 0, pretend = 0, frame = 0
 149              		@ frame_needed = 0, uses_anonymous_args = 0
 518:Drivers/lvgl/src/core/lv_disp.c ****     lv_disp_t * d = lv_obj_get_disp(a->var);
 150              		.loc 1 518 1 is_stmt 0 view .LVU21
 151 0000 38B5     		push	{r3, r4, r5, lr}
 152              		.cfi_def_cfa_offset 16
 153              		.cfi_offset 3, -16
 154              		.cfi_offset 4, -12
 155              		.cfi_offset 5, -8
 156              		.cfi_offset 14, -4
 157 0002 0546     		mov	r5, r0
 519:Drivers/lvgl/src/core/lv_disp.c **** 
 158              		.loc 1 519 5 is_stmt 1 view .LVU22
 519:Drivers/lvgl/src/core/lv_disp.c **** 
 159              		.loc 1 519 21 is_stmt 0 view .LVU23
 160 0004 0068     		ldr	r0, [r0]
 161              	.LVL12:
 519:Drivers/lvgl/src/core/lv_disp.c **** 
 162              		.loc 1 519 21 view .LVU24
 163 0006 FFF7FEFF 		bl	lv_obj_get_disp
 164              	.LVL13:
 165 000a 0446     		mov	r4, r0
 166              	.LVL14:
 521:Drivers/lvgl/src/core/lv_disp.c ****     lv_event_send(d->prev_scr, LV_EVENT_SCREEN_UNLOADED, NULL);
 167              		.loc 1 521 5 is_stmt 1 view .LVU25
 168 000c 0022     		movs	r2, #0
 169 000e 2721     		movs	r1, #39
 170 0010 0069     		ldr	r0, [r0, #16]
 171              	.LVL15:
 521:Drivers/lvgl/src/core/lv_disp.c ****     lv_event_send(d->prev_scr, LV_EVENT_SCREEN_UNLOADED, NULL);
 172              		.loc 1 521 5 is_stmt 0 view .LVU26
 173 0012 FFF7FEFF 		bl	lv_event_send
 174              	.LVL16:
 522:Drivers/lvgl/src/core/lv_disp.c **** 
 175              		.loc 1 522 5 is_stmt 1 view .LVU27
 176 0016 0022     		movs	r2, #0
 177 0018 2821     		movs	r1, #40
 178 001a 6069     		ldr	r0, [r4, #20]
 179 001c FFF7FEFF 		bl	lv_event_send
 180              	.LVL17:
 524:Drivers/lvgl/src/core/lv_disp.c ****     d->prev_scr = NULL;
 181              		.loc 1 524 5 view .LVU28
 524:Drivers/lvgl/src/core/lv_disp.c ****     d->prev_scr = NULL;
 182              		.loc 1 524 9 is_stmt 0 view .LVU29
 183 0020 6069     		ldr	r0, [r4, #20]
 524:Drivers/lvgl/src/core/lv_disp.c ****     d->prev_scr = NULL;
 184              		.loc 1 524 7 view .LVU30
 185 0022 20B1     		cbz	r0, .L9
ARM GAS  /var/folders/0z/tsy30v1j4xl4_7kw94k978ww0000gn/T//ccvV8C1Y.s 			page 14


 524:Drivers/lvgl/src/core/lv_disp.c ****     d->prev_scr = NULL;
 186              		.loc 1 524 20 discriminator 1 view .LVU31
 187 0024 94F82830 		ldrb	r3, [r4, #40]	@ zero_extendqisi2
 188 0028 13F0020F 		tst	r3, #2
 189 002c 10D1     		bne	.L11
 190              	.L9:
 525:Drivers/lvgl/src/core/lv_disp.c ****     d->draw_prev_over_act = false;
 191              		.loc 1 525 5 is_stmt 1 view .LVU32
 525:Drivers/lvgl/src/core/lv_disp.c ****     d->draw_prev_over_act = false;
 192              		.loc 1 525 17 is_stmt 0 view .LVU33
 193 002e 0022     		movs	r2, #0
 194 0030 6261     		str	r2, [r4, #20]
 526:Drivers/lvgl/src/core/lv_disp.c ****     d->scr_to_load = NULL;
 195              		.loc 1 526 5 is_stmt 1 view .LVU34
 526:Drivers/lvgl/src/core/lv_disp.c ****     d->scr_to_load = NULL;
 196              		.loc 1 526 27 is_stmt 0 view .LVU35
 197 0032 94F82830 		ldrb	r3, [r4, #40]	@ zero_extendqisi2
 198 0036 62F30003 		bfi	r3, r2, #0, #1
 199 003a 84F82830 		strb	r3, [r4, #40]
 527:Drivers/lvgl/src/core/lv_disp.c ****     lv_obj_remove_local_style_prop(a->var, LV_STYLE_OPA, 0);
 200              		.loc 1 527 5 is_stmt 1 view .LVU36
 527:Drivers/lvgl/src/core/lv_disp.c ****     lv_obj_remove_local_style_prop(a->var, LV_STYLE_OPA, 0);
 201              		.loc 1 527 20 is_stmt 0 view .LVU37
 202 003e A261     		str	r2, [r4, #24]
 528:Drivers/lvgl/src/core/lv_disp.c ****     lv_obj_invalidate(d->act_scr);
 203              		.loc 1 528 5 is_stmt 1 view .LVU38
 204 0040 6021     		movs	r1, #96
 205 0042 2868     		ldr	r0, [r5]
 206 0044 FFF7FEFF 		bl	lv_obj_remove_local_style_prop
 207              	.LVL18:
 529:Drivers/lvgl/src/core/lv_disp.c **** }
 208              		.loc 1 529 5 view .LVU39
 209 0048 2069     		ldr	r0, [r4, #16]
 210 004a FFF7FEFF 		bl	lv_obj_invalidate
 211              	.LVL19:
 530:Drivers/lvgl/src/core/lv_disp.c **** 
 212              		.loc 1 530 1 is_stmt 0 view .LVU40
 213 004e 38BD     		pop	{r3, r4, r5, pc}
 214              	.LVL20:
 215              	.L11:
 524:Drivers/lvgl/src/core/lv_disp.c ****     d->prev_scr = NULL;
 216              		.loc 1 524 36 is_stmt 1 discriminator 2 view .LVU41
 217 0050 FFF7FEFF 		bl	lv_obj_del
 218              	.LVL21:
 219 0054 EBE7     		b	.L9
 220              		.cfi_endproc
 221              	.LFE189:
 223              		.section	.text.scr_load_internal,"ax",%progbits
 224              		.align	1
 225              		.syntax unified
 226              		.thumb
 227              		.thumb_func
 229              	scr_load_internal:
 230              	.LVL22:
 231              	.LFB184:
 474:Drivers/lvgl/src/core/lv_disp.c ****     lv_disp_t * d = lv_obj_get_disp(scr);
 232              		.loc 1 474 1 view -0
ARM GAS  /var/folders/0z/tsy30v1j4xl4_7kw94k978ww0000gn/T//ccvV8C1Y.s 			page 15


 233              		.cfi_startproc
 234              		@ args = 0, pretend = 0, frame = 0
 235              		@ frame_needed = 0, uses_anonymous_args = 0
 474:Drivers/lvgl/src/core/lv_disp.c ****     lv_disp_t * d = lv_obj_get_disp(scr);
 236              		.loc 1 474 1 is_stmt 0 view .LVU43
 237 0000 70B5     		push	{r4, r5, r6, lr}
 238              		.cfi_def_cfa_offset 16
 239              		.cfi_offset 4, -16
 240              		.cfi_offset 5, -12
 241              		.cfi_offset 6, -8
 242              		.cfi_offset 14, -4
 243 0002 0446     		mov	r4, r0
 475:Drivers/lvgl/src/core/lv_disp.c ****     if(!d) return;  /*Shouldn't happen, just to be sure*/
 244              		.loc 1 475 5 is_stmt 1 view .LVU44
 475:Drivers/lvgl/src/core/lv_disp.c ****     if(!d) return;  /*Shouldn't happen, just to be sure*/
 245              		.loc 1 475 21 is_stmt 0 view .LVU45
 246 0004 FFF7FEFF 		bl	lv_obj_get_disp
 247              	.LVL23:
 476:Drivers/lvgl/src/core/lv_disp.c **** 
 248              		.loc 1 476 5 is_stmt 1 view .LVU46
 476:Drivers/lvgl/src/core/lv_disp.c **** 
 249              		.loc 1 476 7 is_stmt 0 view .LVU47
 250 0008 08B3     		cbz	r0, .L12
 251 000a 0546     		mov	r5, r0
 478:Drivers/lvgl/src/core/lv_disp.c **** 
 252              		.loc 1 478 5 is_stmt 1 view .LVU48
 478:Drivers/lvgl/src/core/lv_disp.c **** 
 253              		.loc 1 478 16 is_stmt 0 view .LVU49
 254 000c 0669     		ldr	r6, [r0, #16]
 255              	.LVL24:
 480:Drivers/lvgl/src/core/lv_disp.c ****     if(d->act_scr) lv_event_send(scr, LV_EVENT_SCREEN_LOAD_START, NULL);
 256              		.loc 1 480 5 is_stmt 1 view .LVU50
 480:Drivers/lvgl/src/core/lv_disp.c ****     if(d->act_scr) lv_event_send(scr, LV_EVENT_SCREEN_LOAD_START, NULL);
 257              		.loc 1 480 7 is_stmt 0 view .LVU51
 258 000e 26B1     		cbz	r6, .L14
 480:Drivers/lvgl/src/core/lv_disp.c ****     if(d->act_scr) lv_event_send(scr, LV_EVENT_SCREEN_LOAD_START, NULL);
 259              		.loc 1 480 20 is_stmt 1 discriminator 1 view .LVU52
 260 0010 0022     		movs	r2, #0
 261 0012 2521     		movs	r1, #37
 262 0014 3046     		mov	r0, r6
 263              	.LVL25:
 480:Drivers/lvgl/src/core/lv_disp.c ****     if(d->act_scr) lv_event_send(scr, LV_EVENT_SCREEN_LOAD_START, NULL);
 264              		.loc 1 480 20 is_stmt 0 discriminator 1 view .LVU53
 265 0016 FFF7FEFF 		bl	lv_event_send
 266              	.LVL26:
 267              	.L14:
 481:Drivers/lvgl/src/core/lv_disp.c **** 
 268              		.loc 1 481 5 is_stmt 1 view .LVU54
 481:Drivers/lvgl/src/core/lv_disp.c **** 
 269              		.loc 1 481 9 is_stmt 0 view .LVU55
 270 001a 2B69     		ldr	r3, [r5, #16]
 481:Drivers/lvgl/src/core/lv_disp.c **** 
 271              		.loc 1 481 7 view .LVU56
 272 001c 23B1     		cbz	r3, .L15
 481:Drivers/lvgl/src/core/lv_disp.c **** 
 273              		.loc 1 481 20 is_stmt 1 discriminator 1 view .LVU57
 274 001e 0022     		movs	r2, #0
ARM GAS  /var/folders/0z/tsy30v1j4xl4_7kw94k978ww0000gn/T//ccvV8C1Y.s 			page 16


 275 0020 2621     		movs	r1, #38
 276 0022 2046     		mov	r0, r4
 277 0024 FFF7FEFF 		bl	lv_event_send
 278              	.LVL27:
 279              	.L15:
 483:Drivers/lvgl/src/core/lv_disp.c ****     d->scr_to_load = NULL;
 280              		.loc 1 483 5 view .LVU58
 483:Drivers/lvgl/src/core/lv_disp.c ****     d->scr_to_load = NULL;
 281              		.loc 1 483 16 is_stmt 0 view .LVU59
 282 0028 2C61     		str	r4, [r5, #16]
 484:Drivers/lvgl/src/core/lv_disp.c **** 
 283              		.loc 1 484 5 is_stmt 1 view .LVU60
 484:Drivers/lvgl/src/core/lv_disp.c **** 
 284              		.loc 1 484 20 is_stmt 0 view .LVU61
 285 002a 0023     		movs	r3, #0
 286 002c AB61     		str	r3, [r5, #24]
 486:Drivers/lvgl/src/core/lv_disp.c ****     if(d->act_scr) lv_event_send(old_scr, LV_EVENT_SCREEN_UNLOADED, NULL);
 287              		.loc 1 486 5 is_stmt 1 view .LVU62
 486:Drivers/lvgl/src/core/lv_disp.c ****     if(d->act_scr) lv_event_send(old_scr, LV_EVENT_SCREEN_UNLOADED, NULL);
 288              		.loc 1 486 7 is_stmt 0 view .LVU63
 289 002e 24B1     		cbz	r4, .L16
 486:Drivers/lvgl/src/core/lv_disp.c ****     if(d->act_scr) lv_event_send(old_scr, LV_EVENT_SCREEN_UNLOADED, NULL);
 290              		.loc 1 486 20 is_stmt 1 discriminator 1 view .LVU64
 291 0030 1A46     		mov	r2, r3
 292 0032 2721     		movs	r1, #39
 293 0034 2046     		mov	r0, r4
 294 0036 FFF7FEFF 		bl	lv_event_send
 295              	.LVL28:
 296              	.L16:
 487:Drivers/lvgl/src/core/lv_disp.c **** 
 297              		.loc 1 487 5 view .LVU65
 487:Drivers/lvgl/src/core/lv_disp.c **** 
 298              		.loc 1 487 9 is_stmt 0 view .LVU66
 299 003a 2B69     		ldr	r3, [r5, #16]
 487:Drivers/lvgl/src/core/lv_disp.c **** 
 300              		.loc 1 487 7 view .LVU67
 301 003c 23B1     		cbz	r3, .L17
 487:Drivers/lvgl/src/core/lv_disp.c **** 
 302              		.loc 1 487 20 is_stmt 1 discriminator 1 view .LVU68
 303 003e 0022     		movs	r2, #0
 304 0040 2821     		movs	r1, #40
 305 0042 3046     		mov	r0, r6
 306 0044 FFF7FEFF 		bl	lv_event_send
 307              	.LVL29:
 308              	.L17:
 489:Drivers/lvgl/src/core/lv_disp.c **** }
 309              		.loc 1 489 5 view .LVU69
 310 0048 2046     		mov	r0, r4
 311 004a FFF7FEFF 		bl	lv_obj_invalidate
 312              	.LVL30:
 313              	.L12:
 490:Drivers/lvgl/src/core/lv_disp.c **** 
 314              		.loc 1 490 1 is_stmt 0 view .LVU70
 315 004e 70BD     		pop	{r4, r5, r6, pc}
 490:Drivers/lvgl/src/core/lv_disp.c **** 
 316              		.loc 1 490 1 view .LVU71
 317              		.cfi_endproc
ARM GAS  /var/folders/0z/tsy30v1j4xl4_7kw94k978ww0000gn/T//ccvV8C1Y.s 			page 17


 318              	.LFE184:
 320              		.section	.text.lv_disp_get_scr_act,"ax",%progbits
 321              		.align	1
 322              		.global	lv_disp_get_scr_act
 323              		.syntax unified
 324              		.thumb
 325              		.thumb_func
 327              	lv_disp_get_scr_act:
 328              	.LVL31:
 329              	.LFB167:
  51:Drivers/lvgl/src/core/lv_disp.c ****     if(!disp) disp = lv_disp_get_default();
 330              		.loc 1 51 1 is_stmt 1 view -0
 331              		.cfi_startproc
 332              		@ args = 0, pretend = 0, frame = 0
 333              		@ frame_needed = 0, uses_anonymous_args = 0
  51:Drivers/lvgl/src/core/lv_disp.c ****     if(!disp) disp = lv_disp_get_default();
 334              		.loc 1 51 1 is_stmt 0 view .LVU73
 335 0000 08B5     		push	{r3, lr}
 336              		.cfi_def_cfa_offset 8
 337              		.cfi_offset 3, -8
 338              		.cfi_offset 14, -4
  52:Drivers/lvgl/src/core/lv_disp.c ****     if(!disp) {
 339              		.loc 1 52 5 is_stmt 1 view .LVU74
  52:Drivers/lvgl/src/core/lv_disp.c ****     if(!disp) {
 340              		.loc 1 52 7 is_stmt 0 view .LVU75
 341 0002 0346     		mov	r3, r0
 342 0004 10B1     		cbz	r0, .L24
 343              	.L20:
  53:Drivers/lvgl/src/core/lv_disp.c ****         LV_LOG_WARN("no display registered to get its active screen");
 344              		.loc 1 53 5 is_stmt 1 view .LVU76
  53:Drivers/lvgl/src/core/lv_disp.c ****         LV_LOG_WARN("no display registered to get its active screen");
 345              		.loc 1 53 7 is_stmt 0 view .LVU77
 346 0006 2BB1     		cbz	r3, .L22
  58:Drivers/lvgl/src/core/lv_disp.c **** }
 347              		.loc 1 58 5 is_stmt 1 view .LVU78
  58:Drivers/lvgl/src/core/lv_disp.c **** }
 348              		.loc 1 58 16 is_stmt 0 view .LVU79
 349 0008 1869     		ldr	r0, [r3, #16]
 350              	.LVL32:
 351              	.L19:
  59:Drivers/lvgl/src/core/lv_disp.c **** 
 352              		.loc 1 59 1 view .LVU80
 353 000a 08BD     		pop	{r3, pc}
 354              	.LVL33:
 355              	.L24:
  52:Drivers/lvgl/src/core/lv_disp.c ****     if(!disp) {
 356              		.loc 1 52 15 is_stmt 1 discriminator 1 view .LVU81
  52:Drivers/lvgl/src/core/lv_disp.c ****     if(!disp) {
 357              		.loc 1 52 22 is_stmt 0 discriminator 1 view .LVU82
 358 000c FFF7FEFF 		bl	lv_disp_get_default
 359              	.LVL34:
  52:Drivers/lvgl/src/core/lv_disp.c ****     if(!disp) {
 360              		.loc 1 52 22 discriminator 1 view .LVU83
 361 0010 0346     		mov	r3, r0
 362              	.LVL35:
  52:Drivers/lvgl/src/core/lv_disp.c ****     if(!disp) {
 363              		.loc 1 52 22 discriminator 1 view .LVU84
ARM GAS  /var/folders/0z/tsy30v1j4xl4_7kw94k978ww0000gn/T//ccvV8C1Y.s 			page 18


 364 0012 F8E7     		b	.L20
 365              	.L22:
  55:Drivers/lvgl/src/core/lv_disp.c ****     }
 366              		.loc 1 55 16 view .LVU85
 367 0014 1846     		mov	r0, r3
 368              	.LVL36:
  55:Drivers/lvgl/src/core/lv_disp.c ****     }
 369              		.loc 1 55 16 view .LVU86
 370 0016 F8E7     		b	.L19
 371              		.cfi_endproc
 372              	.LFE167:
 374              		.section	.text.scr_load_anim_start,"ax",%progbits
 375              		.align	1
 376              		.syntax unified
 377              		.thumb
 378              		.thumb_func
 380              	scr_load_anim_start:
 381              	.LVL37:
 382              	.LFB185:
 493:Drivers/lvgl/src/core/lv_disp.c ****     lv_disp_t * d = lv_obj_get_disp(a->var);
 383              		.loc 1 493 1 is_stmt 1 view -0
 384              		.cfi_startproc
 385              		@ args = 0, pretend = 0, frame = 0
 386              		@ frame_needed = 0, uses_anonymous_args = 0
 493:Drivers/lvgl/src/core/lv_disp.c ****     lv_disp_t * d = lv_obj_get_disp(a->var);
 387              		.loc 1 493 1 is_stmt 0 view .LVU88
 388 0000 38B5     		push	{r3, r4, r5, lr}
 389              		.cfi_def_cfa_offset 16
 390              		.cfi_offset 3, -16
 391              		.cfi_offset 4, -12
 392              		.cfi_offset 5, -8
 393              		.cfi_offset 14, -4
 394 0002 0546     		mov	r5, r0
 494:Drivers/lvgl/src/core/lv_disp.c **** 
 395              		.loc 1 494 5 is_stmt 1 view .LVU89
 494:Drivers/lvgl/src/core/lv_disp.c **** 
 396              		.loc 1 494 21 is_stmt 0 view .LVU90
 397 0004 0068     		ldr	r0, [r0]
 398              	.LVL38:
 494:Drivers/lvgl/src/core/lv_disp.c **** 
 399              		.loc 1 494 21 view .LVU91
 400 0006 FFF7FEFF 		bl	lv_obj_get_disp
 401              	.LVL39:
 402 000a 0446     		mov	r4, r0
 403              	.LVL40:
 496:Drivers/lvgl/src/core/lv_disp.c ****     d->act_scr = a->var;
 404              		.loc 1 496 5 is_stmt 1 view .LVU92
 405              	.LBB96:
 406              	.LBI96:
 407              		.file 2 "Drivers/lvgl/src/core/lv_disp.h"
   1:Drivers/lvgl/src/core/lv_disp.h **** /**
   2:Drivers/lvgl/src/core/lv_disp.h ****  * @file lv_disp.h
   3:Drivers/lvgl/src/core/lv_disp.h ****  *
   4:Drivers/lvgl/src/core/lv_disp.h ****  */
   5:Drivers/lvgl/src/core/lv_disp.h **** 
   6:Drivers/lvgl/src/core/lv_disp.h **** #ifndef LV_DISP_H
   7:Drivers/lvgl/src/core/lv_disp.h **** #define LV_DISP_H
ARM GAS  /var/folders/0z/tsy30v1j4xl4_7kw94k978ww0000gn/T//ccvV8C1Y.s 			page 19


   8:Drivers/lvgl/src/core/lv_disp.h **** 
   9:Drivers/lvgl/src/core/lv_disp.h **** #ifdef __cplusplus
  10:Drivers/lvgl/src/core/lv_disp.h **** extern "C" {
  11:Drivers/lvgl/src/core/lv_disp.h **** #endif
  12:Drivers/lvgl/src/core/lv_disp.h **** 
  13:Drivers/lvgl/src/core/lv_disp.h **** /*********************
  14:Drivers/lvgl/src/core/lv_disp.h ****  *      INCLUDES
  15:Drivers/lvgl/src/core/lv_disp.h ****  *********************/
  16:Drivers/lvgl/src/core/lv_disp.h **** #include "../hal/lv_hal.h"
  17:Drivers/lvgl/src/core/lv_disp.h **** #include "lv_obj.h"
  18:Drivers/lvgl/src/core/lv_disp.h **** #include "lv_theme.h"
  19:Drivers/lvgl/src/core/lv_disp.h **** 
  20:Drivers/lvgl/src/core/lv_disp.h **** /*********************
  21:Drivers/lvgl/src/core/lv_disp.h ****  *      DEFINES
  22:Drivers/lvgl/src/core/lv_disp.h ****  *********************/
  23:Drivers/lvgl/src/core/lv_disp.h **** 
  24:Drivers/lvgl/src/core/lv_disp.h **** /**********************
  25:Drivers/lvgl/src/core/lv_disp.h ****  *      TYPEDEFS
  26:Drivers/lvgl/src/core/lv_disp.h ****  **********************/
  27:Drivers/lvgl/src/core/lv_disp.h **** 
  28:Drivers/lvgl/src/core/lv_disp.h **** typedef enum {
  29:Drivers/lvgl/src/core/lv_disp.h ****     LV_SCR_LOAD_ANIM_NONE,
  30:Drivers/lvgl/src/core/lv_disp.h ****     LV_SCR_LOAD_ANIM_OVER_LEFT,
  31:Drivers/lvgl/src/core/lv_disp.h ****     LV_SCR_LOAD_ANIM_OVER_RIGHT,
  32:Drivers/lvgl/src/core/lv_disp.h ****     LV_SCR_LOAD_ANIM_OVER_TOP,
  33:Drivers/lvgl/src/core/lv_disp.h ****     LV_SCR_LOAD_ANIM_OVER_BOTTOM,
  34:Drivers/lvgl/src/core/lv_disp.h ****     LV_SCR_LOAD_ANIM_MOVE_LEFT,
  35:Drivers/lvgl/src/core/lv_disp.h ****     LV_SCR_LOAD_ANIM_MOVE_RIGHT,
  36:Drivers/lvgl/src/core/lv_disp.h ****     LV_SCR_LOAD_ANIM_MOVE_TOP,
  37:Drivers/lvgl/src/core/lv_disp.h ****     LV_SCR_LOAD_ANIM_MOVE_BOTTOM,
  38:Drivers/lvgl/src/core/lv_disp.h ****     LV_SCR_LOAD_ANIM_FADE_IN,
  39:Drivers/lvgl/src/core/lv_disp.h ****     LV_SCR_LOAD_ANIM_FADE_ON = LV_SCR_LOAD_ANIM_FADE_IN, /*For backward compatibility*/
  40:Drivers/lvgl/src/core/lv_disp.h ****     LV_SCR_LOAD_ANIM_FADE_OUT,
  41:Drivers/lvgl/src/core/lv_disp.h ****     LV_SCR_LOAD_ANIM_OUT_LEFT,
  42:Drivers/lvgl/src/core/lv_disp.h ****     LV_SCR_LOAD_ANIM_OUT_RIGHT,
  43:Drivers/lvgl/src/core/lv_disp.h ****     LV_SCR_LOAD_ANIM_OUT_TOP,
  44:Drivers/lvgl/src/core/lv_disp.h ****     LV_SCR_LOAD_ANIM_OUT_BOTTOM,
  45:Drivers/lvgl/src/core/lv_disp.h **** } lv_scr_load_anim_t;
  46:Drivers/lvgl/src/core/lv_disp.h **** 
  47:Drivers/lvgl/src/core/lv_disp.h **** /**********************
  48:Drivers/lvgl/src/core/lv_disp.h ****  * GLOBAL PROTOTYPES
  49:Drivers/lvgl/src/core/lv_disp.h ****  **********************/
  50:Drivers/lvgl/src/core/lv_disp.h **** 
  51:Drivers/lvgl/src/core/lv_disp.h **** /**
  52:Drivers/lvgl/src/core/lv_disp.h ****  * Return with a pointer to the active screen
  53:Drivers/lvgl/src/core/lv_disp.h ****  * @param disp pointer to display which active screen should be get. (NULL to use the default
  54:Drivers/lvgl/src/core/lv_disp.h ****  * screen)
  55:Drivers/lvgl/src/core/lv_disp.h ****  * @return pointer to the active screen object (loaded by 'lv_scr_load()')
  56:Drivers/lvgl/src/core/lv_disp.h ****  */
  57:Drivers/lvgl/src/core/lv_disp.h **** lv_obj_t * lv_disp_get_scr_act(lv_disp_t * disp);
  58:Drivers/lvgl/src/core/lv_disp.h **** 
  59:Drivers/lvgl/src/core/lv_disp.h **** /**
  60:Drivers/lvgl/src/core/lv_disp.h ****  * Return with a pointer to the previous screen. Only used during screen transitions.
  61:Drivers/lvgl/src/core/lv_disp.h ****  * @param disp pointer to display which previous screen should be get. (NULL to use the default
  62:Drivers/lvgl/src/core/lv_disp.h ****  * screen)
  63:Drivers/lvgl/src/core/lv_disp.h ****  * @return pointer to the previous screen object or NULL if not used now
  64:Drivers/lvgl/src/core/lv_disp.h ****  */
ARM GAS  /var/folders/0z/tsy30v1j4xl4_7kw94k978ww0000gn/T//ccvV8C1Y.s 			page 20


  65:Drivers/lvgl/src/core/lv_disp.h **** lv_obj_t * lv_disp_get_scr_prev(lv_disp_t * disp);
  66:Drivers/lvgl/src/core/lv_disp.h **** 
  67:Drivers/lvgl/src/core/lv_disp.h **** /**
  68:Drivers/lvgl/src/core/lv_disp.h ****  * Make a screen active
  69:Drivers/lvgl/src/core/lv_disp.h ****  * @param scr pointer to a screen
  70:Drivers/lvgl/src/core/lv_disp.h ****  */
  71:Drivers/lvgl/src/core/lv_disp.h **** void lv_disp_load_scr(lv_obj_t * scr);
  72:Drivers/lvgl/src/core/lv_disp.h **** 
  73:Drivers/lvgl/src/core/lv_disp.h **** /**
  74:Drivers/lvgl/src/core/lv_disp.h ****  * Return with the top layer. (Same on every screen and it is above the normal screen layer)
  75:Drivers/lvgl/src/core/lv_disp.h ****  * @param disp pointer to display which top layer should be get. (NULL to use the default screen)
  76:Drivers/lvgl/src/core/lv_disp.h ****  * @return pointer to the top layer object (transparent screen sized lv_obj)
  77:Drivers/lvgl/src/core/lv_disp.h ****  */
  78:Drivers/lvgl/src/core/lv_disp.h **** lv_obj_t * lv_disp_get_layer_top(lv_disp_t * disp);
  79:Drivers/lvgl/src/core/lv_disp.h **** 
  80:Drivers/lvgl/src/core/lv_disp.h **** /**
  81:Drivers/lvgl/src/core/lv_disp.h ****  * Return with the sys. layer. (Same on every screen and it is above the normal screen and the top
  82:Drivers/lvgl/src/core/lv_disp.h ****  * layer)
  83:Drivers/lvgl/src/core/lv_disp.h ****  * @param disp pointer to display which sys. layer should be retrieved. (NULL to use the default sc
  84:Drivers/lvgl/src/core/lv_disp.h ****  * @return pointer to the sys layer object (transparent screen sized lv_obj)
  85:Drivers/lvgl/src/core/lv_disp.h ****  */
  86:Drivers/lvgl/src/core/lv_disp.h **** lv_obj_t * lv_disp_get_layer_sys(lv_disp_t * disp);
  87:Drivers/lvgl/src/core/lv_disp.h **** 
  88:Drivers/lvgl/src/core/lv_disp.h **** /**
  89:Drivers/lvgl/src/core/lv_disp.h ****  * Set the theme of a display
  90:Drivers/lvgl/src/core/lv_disp.h ****  * @param disp pointer to a display
  91:Drivers/lvgl/src/core/lv_disp.h ****  */
  92:Drivers/lvgl/src/core/lv_disp.h **** void lv_disp_set_theme(lv_disp_t * disp, lv_theme_t * th);
  93:Drivers/lvgl/src/core/lv_disp.h **** 
  94:Drivers/lvgl/src/core/lv_disp.h **** /**
  95:Drivers/lvgl/src/core/lv_disp.h ****  * Get the theme of a display
  96:Drivers/lvgl/src/core/lv_disp.h ****  * @param disp pointer to a display
  97:Drivers/lvgl/src/core/lv_disp.h ****  * @return the display's theme (can be NULL)
  98:Drivers/lvgl/src/core/lv_disp.h ****  */
  99:Drivers/lvgl/src/core/lv_disp.h **** lv_theme_t * lv_disp_get_theme(lv_disp_t * disp);
 100:Drivers/lvgl/src/core/lv_disp.h **** 
 101:Drivers/lvgl/src/core/lv_disp.h **** /**
 102:Drivers/lvgl/src/core/lv_disp.h ****  * Set the background color of a display
 103:Drivers/lvgl/src/core/lv_disp.h ****  * @param disp pointer to a display
 104:Drivers/lvgl/src/core/lv_disp.h ****  * @param color color of the background
 105:Drivers/lvgl/src/core/lv_disp.h ****  */
 106:Drivers/lvgl/src/core/lv_disp.h **** void lv_disp_set_bg_color(lv_disp_t * disp, lv_color_t color);
 107:Drivers/lvgl/src/core/lv_disp.h **** 
 108:Drivers/lvgl/src/core/lv_disp.h **** /**
 109:Drivers/lvgl/src/core/lv_disp.h ****  * Set the background image of a display
 110:Drivers/lvgl/src/core/lv_disp.h ****  * @param disp pointer to a display
 111:Drivers/lvgl/src/core/lv_disp.h ****  * @param img_src path to file or pointer to an `lv_img_dsc_t` variable
 112:Drivers/lvgl/src/core/lv_disp.h ****  */
 113:Drivers/lvgl/src/core/lv_disp.h **** void lv_disp_set_bg_image(lv_disp_t * disp, const void  * img_src);
 114:Drivers/lvgl/src/core/lv_disp.h **** 
 115:Drivers/lvgl/src/core/lv_disp.h **** /**
 116:Drivers/lvgl/src/core/lv_disp.h ****  * Set opacity of the background
 117:Drivers/lvgl/src/core/lv_disp.h ****  * @param disp pointer to a display
 118:Drivers/lvgl/src/core/lv_disp.h ****  * @param opa opacity (0..255)
 119:Drivers/lvgl/src/core/lv_disp.h ****  */
 120:Drivers/lvgl/src/core/lv_disp.h **** void lv_disp_set_bg_opa(lv_disp_t * disp, lv_opa_t opa);
 121:Drivers/lvgl/src/core/lv_disp.h **** 
ARM GAS  /var/folders/0z/tsy30v1j4xl4_7kw94k978ww0000gn/T//ccvV8C1Y.s 			page 21


 122:Drivers/lvgl/src/core/lv_disp.h **** /**
 123:Drivers/lvgl/src/core/lv_disp.h ****  * Switch screen with animation
 124:Drivers/lvgl/src/core/lv_disp.h ****  * @param scr pointer to the new screen to load
 125:Drivers/lvgl/src/core/lv_disp.h ****  * @param anim_type type of the animation from `lv_scr_load_anim_t`, e.g. `LV_SCR_LOAD_ANIM_MOVE_LE
 126:Drivers/lvgl/src/core/lv_disp.h ****  * @param time time of the animation
 127:Drivers/lvgl/src/core/lv_disp.h ****  * @param delay delay before the transition
 128:Drivers/lvgl/src/core/lv_disp.h ****  * @param auto_del true: automatically delete the old screen
 129:Drivers/lvgl/src/core/lv_disp.h ****  */
 130:Drivers/lvgl/src/core/lv_disp.h **** void lv_scr_load_anim(lv_obj_t * scr, lv_scr_load_anim_t anim_type, uint32_t time, uint32_t delay, 
 131:Drivers/lvgl/src/core/lv_disp.h **** 
 132:Drivers/lvgl/src/core/lv_disp.h **** /**
 133:Drivers/lvgl/src/core/lv_disp.h ****  * Get elapsed time since last user activity on a display (e.g. click)
 134:Drivers/lvgl/src/core/lv_disp.h ****  * @param disp pointer to a display (NULL to get the overall smallest inactivity)
 135:Drivers/lvgl/src/core/lv_disp.h ****  * @return elapsed ticks (milliseconds) since the last activity
 136:Drivers/lvgl/src/core/lv_disp.h ****  */
 137:Drivers/lvgl/src/core/lv_disp.h **** uint32_t lv_disp_get_inactive_time(const lv_disp_t * disp);
 138:Drivers/lvgl/src/core/lv_disp.h **** 
 139:Drivers/lvgl/src/core/lv_disp.h **** /**
 140:Drivers/lvgl/src/core/lv_disp.h ****  * Manually trigger an activity on a display
 141:Drivers/lvgl/src/core/lv_disp.h ****  * @param disp pointer to a display (NULL to use the default display)
 142:Drivers/lvgl/src/core/lv_disp.h ****  */
 143:Drivers/lvgl/src/core/lv_disp.h **** void lv_disp_trig_activity(lv_disp_t * disp);
 144:Drivers/lvgl/src/core/lv_disp.h **** 
 145:Drivers/lvgl/src/core/lv_disp.h **** /**
 146:Drivers/lvgl/src/core/lv_disp.h ****  * Clean any CPU cache that is related to the display.
 147:Drivers/lvgl/src/core/lv_disp.h ****  * @param disp pointer to a display (NULL to use the default display)
 148:Drivers/lvgl/src/core/lv_disp.h ****  */
 149:Drivers/lvgl/src/core/lv_disp.h **** void lv_disp_clean_dcache(lv_disp_t * disp);
 150:Drivers/lvgl/src/core/lv_disp.h **** 
 151:Drivers/lvgl/src/core/lv_disp.h **** /**
 152:Drivers/lvgl/src/core/lv_disp.h ****  * Temporarily enable and disable the invalidation of the display.
 153:Drivers/lvgl/src/core/lv_disp.h ****  * @param disp pointer to a display (NULL to use the default display)
 154:Drivers/lvgl/src/core/lv_disp.h ****  * @param en true: enable invalidation; false: invalidation
 155:Drivers/lvgl/src/core/lv_disp.h ****  */
 156:Drivers/lvgl/src/core/lv_disp.h **** void lv_disp_enable_invalidation(lv_disp_t * disp, bool en);
 157:Drivers/lvgl/src/core/lv_disp.h **** 
 158:Drivers/lvgl/src/core/lv_disp.h **** /**
 159:Drivers/lvgl/src/core/lv_disp.h ****  * Get display invalidation is enabled.
 160:Drivers/lvgl/src/core/lv_disp.h ****  * @param disp pointer to a display (NULL to use the default display)
 161:Drivers/lvgl/src/core/lv_disp.h ****  * @return return true if invalidation is enabled
 162:Drivers/lvgl/src/core/lv_disp.h ****  */
 163:Drivers/lvgl/src/core/lv_disp.h **** bool lv_disp_is_invalidation_enabled(lv_disp_t * disp);
 164:Drivers/lvgl/src/core/lv_disp.h **** 
 165:Drivers/lvgl/src/core/lv_disp.h **** /**
 166:Drivers/lvgl/src/core/lv_disp.h ****  * Get a pointer to the screen refresher timer to
 167:Drivers/lvgl/src/core/lv_disp.h ****  * modify its parameters with `lv_timer_...` functions.
 168:Drivers/lvgl/src/core/lv_disp.h ****  * @param disp pointer to a display
 169:Drivers/lvgl/src/core/lv_disp.h ****  * @return pointer to the display refresher timer. (NULL on error)
 170:Drivers/lvgl/src/core/lv_disp.h ****  */
 171:Drivers/lvgl/src/core/lv_disp.h **** lv_timer_t * _lv_disp_get_refr_timer(lv_disp_t * disp);
 172:Drivers/lvgl/src/core/lv_disp.h **** 
 173:Drivers/lvgl/src/core/lv_disp.h **** /*------------------------------------------------
 174:Drivers/lvgl/src/core/lv_disp.h ****  * To improve backward compatibility
 175:Drivers/lvgl/src/core/lv_disp.h ****  * Recommended only if you have one display
 176:Drivers/lvgl/src/core/lv_disp.h ****  *------------------------------------------------*/
 177:Drivers/lvgl/src/core/lv_disp.h **** 
 178:Drivers/lvgl/src/core/lv_disp.h **** /**
ARM GAS  /var/folders/0z/tsy30v1j4xl4_7kw94k978ww0000gn/T//ccvV8C1Y.s 			page 22


 179:Drivers/lvgl/src/core/lv_disp.h ****  * Get the active screen of the default display
 180:Drivers/lvgl/src/core/lv_disp.h ****  * @return pointer to the active screen
 181:Drivers/lvgl/src/core/lv_disp.h ****  */
 182:Drivers/lvgl/src/core/lv_disp.h **** static inline lv_obj_t * lv_scr_act(void)
 408              		.loc 2 182 26 view .LVU93
 409              	.LBB97:
 183:Drivers/lvgl/src/core/lv_disp.h **** {
 184:Drivers/lvgl/src/core/lv_disp.h ****     return lv_disp_get_scr_act(lv_disp_get_default());
 410              		.loc 2 184 5 view .LVU94
 411              		.loc 2 184 12 is_stmt 0 view .LVU95
 412 000c FFF7FEFF 		bl	lv_disp_get_default
 413              	.LVL41:
 414              		.loc 2 184 12 view .LVU96
 415 0010 FFF7FEFF 		bl	lv_disp_get_scr_act
 416              	.LVL42:
 417              	.LBE97:
 418              	.LBE96:
 496:Drivers/lvgl/src/core/lv_disp.c ****     d->act_scr = a->var;
 419              		.loc 1 496 17 view .LVU97
 420 0014 6061     		str	r0, [r4, #20]
 497:Drivers/lvgl/src/core/lv_disp.c **** 
 421              		.loc 1 497 5 is_stmt 1 view .LVU98
 497:Drivers/lvgl/src/core/lv_disp.c **** 
 422              		.loc 1 497 19 is_stmt 0 view .LVU99
 423 0016 2868     		ldr	r0, [r5]
 497:Drivers/lvgl/src/core/lv_disp.c **** 
 424              		.loc 1 497 16 view .LVU100
 425 0018 2061     		str	r0, [r4, #16]
 499:Drivers/lvgl/src/core/lv_disp.c **** }
 426              		.loc 1 499 5 is_stmt 1 view .LVU101
 427 001a 0022     		movs	r2, #0
 428 001c 2621     		movs	r1, #38
 429 001e FFF7FEFF 		bl	lv_event_send
 430              	.LVL43:
 500:Drivers/lvgl/src/core/lv_disp.c **** 
 431              		.loc 1 500 1 is_stmt 0 view .LVU102
 432 0022 38BD     		pop	{r3, r4, r5, pc}
 500:Drivers/lvgl/src/core/lv_disp.c **** 
 433              		.loc 1 500 1 view .LVU103
 434              		.cfi_endproc
 435              	.LFE185:
 437              		.section	.text.lv_disp_get_scr_prev,"ax",%progbits
 438              		.align	1
 439              		.global	lv_disp_get_scr_prev
 440              		.syntax unified
 441              		.thumb
 442              		.thumb_func
 444              	lv_disp_get_scr_prev:
 445              	.LVL44:
 446              	.LFB168:
  68:Drivers/lvgl/src/core/lv_disp.c ****     if(!disp) disp = lv_disp_get_default();
 447              		.loc 1 68 1 is_stmt 1 view -0
 448              		.cfi_startproc
 449              		@ args = 0, pretend = 0, frame = 0
 450              		@ frame_needed = 0, uses_anonymous_args = 0
  68:Drivers/lvgl/src/core/lv_disp.c ****     if(!disp) disp = lv_disp_get_default();
 451              		.loc 1 68 1 is_stmt 0 view .LVU105
ARM GAS  /var/folders/0z/tsy30v1j4xl4_7kw94k978ww0000gn/T//ccvV8C1Y.s 			page 23


 452 0000 08B5     		push	{r3, lr}
 453              		.cfi_def_cfa_offset 8
 454              		.cfi_offset 3, -8
 455              		.cfi_offset 14, -4
  69:Drivers/lvgl/src/core/lv_disp.c ****     if(!disp) {
 456              		.loc 1 69 5 is_stmt 1 view .LVU106
  69:Drivers/lvgl/src/core/lv_disp.c ****     if(!disp) {
 457              		.loc 1 69 7 is_stmt 0 view .LVU107
 458 0002 0346     		mov	r3, r0
 459 0004 10B1     		cbz	r0, .L32
 460              	.L28:
  70:Drivers/lvgl/src/core/lv_disp.c ****         LV_LOG_WARN("no display registered to get its previous screen");
 461              		.loc 1 70 5 is_stmt 1 view .LVU108
  70:Drivers/lvgl/src/core/lv_disp.c ****         LV_LOG_WARN("no display registered to get its previous screen");
 462              		.loc 1 70 7 is_stmt 0 view .LVU109
 463 0006 2BB1     		cbz	r3, .L30
  75:Drivers/lvgl/src/core/lv_disp.c **** }
 464              		.loc 1 75 5 is_stmt 1 view .LVU110
  75:Drivers/lvgl/src/core/lv_disp.c **** }
 465              		.loc 1 75 16 is_stmt 0 view .LVU111
 466 0008 5869     		ldr	r0, [r3, #20]
 467              	.LVL45:
 468              	.L27:
  76:Drivers/lvgl/src/core/lv_disp.c **** 
 469              		.loc 1 76 1 view .LVU112
 470 000a 08BD     		pop	{r3, pc}
 471              	.LVL46:
 472              	.L32:
  69:Drivers/lvgl/src/core/lv_disp.c ****     if(!disp) {
 473              		.loc 1 69 15 is_stmt 1 discriminator 1 view .LVU113
  69:Drivers/lvgl/src/core/lv_disp.c ****     if(!disp) {
 474              		.loc 1 69 22 is_stmt 0 discriminator 1 view .LVU114
 475 000c FFF7FEFF 		bl	lv_disp_get_default
 476              	.LVL47:
  69:Drivers/lvgl/src/core/lv_disp.c ****     if(!disp) {
 477              		.loc 1 69 22 discriminator 1 view .LVU115
 478 0010 0346     		mov	r3, r0
 479              	.LVL48:
  69:Drivers/lvgl/src/core/lv_disp.c ****     if(!disp) {
 480              		.loc 1 69 22 discriminator 1 view .LVU116
 481 0012 F8E7     		b	.L28
 482              	.L30:
  72:Drivers/lvgl/src/core/lv_disp.c ****     }
 483              		.loc 1 72 16 view .LVU117
 484 0014 1846     		mov	r0, r3
 485              	.LVL49:
  72:Drivers/lvgl/src/core/lv_disp.c ****     }
 486              		.loc 1 72 16 view .LVU118
 487 0016 F8E7     		b	.L27
 488              		.cfi_endproc
 489              	.LFE168:
 491              		.section	.text.lv_disp_get_layer_top,"ax",%progbits
 492              		.align	1
 493              		.global	lv_disp_get_layer_top
 494              		.syntax unified
 495              		.thumb
 496              		.thumb_func
ARM GAS  /var/folders/0z/tsy30v1j4xl4_7kw94k978ww0000gn/T//ccvV8C1Y.s 			page 24


 498              	lv_disp_get_layer_top:
 499              	.LVL50:
 500              	.LFB170:
  93:Drivers/lvgl/src/core/lv_disp.c ****     if(!disp) disp = lv_disp_get_default();
 501              		.loc 1 93 1 is_stmt 1 view -0
 502              		.cfi_startproc
 503              		@ args = 0, pretend = 0, frame = 0
 504              		@ frame_needed = 0, uses_anonymous_args = 0
  93:Drivers/lvgl/src/core/lv_disp.c ****     if(!disp) disp = lv_disp_get_default();
 505              		.loc 1 93 1 is_stmt 0 view .LVU120
 506 0000 08B5     		push	{r3, lr}
 507              		.cfi_def_cfa_offset 8
 508              		.cfi_offset 3, -8
 509              		.cfi_offset 14, -4
  94:Drivers/lvgl/src/core/lv_disp.c ****     if(!disp) {
 510              		.loc 1 94 5 is_stmt 1 view .LVU121
  94:Drivers/lvgl/src/core/lv_disp.c ****     if(!disp) {
 511              		.loc 1 94 7 is_stmt 0 view .LVU122
 512 0002 0346     		mov	r3, r0
 513 0004 10B1     		cbz	r0, .L38
 514              	.L34:
  95:Drivers/lvgl/src/core/lv_disp.c ****         LV_LOG_WARN("lv_layer_top: no display registered to get its top layer");
 515              		.loc 1 95 5 is_stmt 1 view .LVU123
  95:Drivers/lvgl/src/core/lv_disp.c ****         LV_LOG_WARN("lv_layer_top: no display registered to get its top layer");
 516              		.loc 1 95 7 is_stmt 0 view .LVU124
 517 0006 2BB1     		cbz	r3, .L36
 100:Drivers/lvgl/src/core/lv_disp.c **** }
 518              		.loc 1 100 5 is_stmt 1 view .LVU125
 100:Drivers/lvgl/src/core/lv_disp.c **** }
 519              		.loc 1 100 16 is_stmt 0 view .LVU126
 520 0008 D869     		ldr	r0, [r3, #28]
 521              	.LVL51:
 522              	.L33:
 101:Drivers/lvgl/src/core/lv_disp.c **** 
 523              		.loc 1 101 1 view .LVU127
 524 000a 08BD     		pop	{r3, pc}
 525              	.LVL52:
 526              	.L38:
  94:Drivers/lvgl/src/core/lv_disp.c ****     if(!disp) {
 527              		.loc 1 94 15 is_stmt 1 discriminator 1 view .LVU128
  94:Drivers/lvgl/src/core/lv_disp.c ****     if(!disp) {
 528              		.loc 1 94 22 is_stmt 0 discriminator 1 view .LVU129
 529 000c FFF7FEFF 		bl	lv_disp_get_default
 530              	.LVL53:
  94:Drivers/lvgl/src/core/lv_disp.c ****     if(!disp) {
 531              		.loc 1 94 22 discriminator 1 view .LVU130
 532 0010 0346     		mov	r3, r0
 533              	.LVL54:
  94:Drivers/lvgl/src/core/lv_disp.c ****     if(!disp) {
 534              		.loc 1 94 22 discriminator 1 view .LVU131
 535 0012 F8E7     		b	.L34
 536              	.L36:
  97:Drivers/lvgl/src/core/lv_disp.c ****     }
 537              		.loc 1 97 16 view .LVU132
 538 0014 1846     		mov	r0, r3
 539              	.LVL55:
  97:Drivers/lvgl/src/core/lv_disp.c ****     }
ARM GAS  /var/folders/0z/tsy30v1j4xl4_7kw94k978ww0000gn/T//ccvV8C1Y.s 			page 25


 540              		.loc 1 97 16 view .LVU133
 541 0016 F8E7     		b	.L33
 542              		.cfi_endproc
 543              	.LFE170:
 545              		.section	.text.lv_disp_get_layer_sys,"ax",%progbits
 546              		.align	1
 547              		.global	lv_disp_get_layer_sys
 548              		.syntax unified
 549              		.thumb
 550              		.thumb_func
 552              	lv_disp_get_layer_sys:
 553              	.LVL56:
 554              	.LFB171:
 110:Drivers/lvgl/src/core/lv_disp.c ****     if(!disp) disp = lv_disp_get_default();
 555              		.loc 1 110 1 is_stmt 1 view -0
 556              		.cfi_startproc
 557              		@ args = 0, pretend = 0, frame = 0
 558              		@ frame_needed = 0, uses_anonymous_args = 0
 110:Drivers/lvgl/src/core/lv_disp.c ****     if(!disp) disp = lv_disp_get_default();
 559              		.loc 1 110 1 is_stmt 0 view .LVU135
 560 0000 08B5     		push	{r3, lr}
 561              		.cfi_def_cfa_offset 8
 562              		.cfi_offset 3, -8
 563              		.cfi_offset 14, -4
 111:Drivers/lvgl/src/core/lv_disp.c ****     if(!disp) {
 564              		.loc 1 111 5 is_stmt 1 view .LVU136
 111:Drivers/lvgl/src/core/lv_disp.c ****     if(!disp) {
 565              		.loc 1 111 7 is_stmt 0 view .LVU137
 566 0002 0346     		mov	r3, r0
 567 0004 10B1     		cbz	r0, .L44
 568              	.L40:
 112:Drivers/lvgl/src/core/lv_disp.c ****         LV_LOG_WARN("lv_layer_sys: no display registered to get its sys. layer");
 569              		.loc 1 112 5 is_stmt 1 view .LVU138
 112:Drivers/lvgl/src/core/lv_disp.c ****         LV_LOG_WARN("lv_layer_sys: no display registered to get its sys. layer");
 570              		.loc 1 112 7 is_stmt 0 view .LVU139
 571 0006 2BB1     		cbz	r3, .L42
 117:Drivers/lvgl/src/core/lv_disp.c **** }
 572              		.loc 1 117 5 is_stmt 1 view .LVU140
 117:Drivers/lvgl/src/core/lv_disp.c **** }
 573              		.loc 1 117 16 is_stmt 0 view .LVU141
 574 0008 186A     		ldr	r0, [r3, #32]
 575              	.LVL57:
 576              	.L39:
 118:Drivers/lvgl/src/core/lv_disp.c **** 
 577              		.loc 1 118 1 view .LVU142
 578 000a 08BD     		pop	{r3, pc}
 579              	.LVL58:
 580              	.L44:
 111:Drivers/lvgl/src/core/lv_disp.c ****     if(!disp) {
 581              		.loc 1 111 15 is_stmt 1 discriminator 1 view .LVU143
 111:Drivers/lvgl/src/core/lv_disp.c ****     if(!disp) {
 582              		.loc 1 111 22 is_stmt 0 discriminator 1 view .LVU144
 583 000c FFF7FEFF 		bl	lv_disp_get_default
 584              	.LVL59:
 111:Drivers/lvgl/src/core/lv_disp.c ****     if(!disp) {
 585              		.loc 1 111 22 discriminator 1 view .LVU145
 586 0010 0346     		mov	r3, r0
ARM GAS  /var/folders/0z/tsy30v1j4xl4_7kw94k978ww0000gn/T//ccvV8C1Y.s 			page 26


 587              	.LVL60:
 111:Drivers/lvgl/src/core/lv_disp.c ****     if(!disp) {
 588              		.loc 1 111 22 discriminator 1 view .LVU146
 589 0012 F8E7     		b	.L40
 590              	.L42:
 114:Drivers/lvgl/src/core/lv_disp.c ****     }
 591              		.loc 1 114 16 view .LVU147
 592 0014 1846     		mov	r0, r3
 593              	.LVL61:
 114:Drivers/lvgl/src/core/lv_disp.c ****     }
 594              		.loc 1 114 16 view .LVU148
 595 0016 F8E7     		b	.L39
 596              		.cfi_endproc
 597              	.LFE171:
 599              		.section	.text.lv_disp_set_theme,"ax",%progbits
 600              		.align	1
 601              		.global	lv_disp_set_theme
 602              		.syntax unified
 603              		.thumb
 604              		.thumb_func
 606              	lv_disp_set_theme:
 607              	.LVL62:
 608              	.LFB172:
 125:Drivers/lvgl/src/core/lv_disp.c ****     if(!disp) disp = lv_disp_get_default();
 609              		.loc 1 125 1 is_stmt 1 view -0
 610              		.cfi_startproc
 611              		@ args = 0, pretend = 0, frame = 0
 612              		@ frame_needed = 0, uses_anonymous_args = 0
 125:Drivers/lvgl/src/core/lv_disp.c ****     if(!disp) disp = lv_disp_get_default();
 613              		.loc 1 125 1 is_stmt 0 view .LVU150
 614 0000 38B5     		push	{r3, r4, r5, lr}
 615              		.cfi_def_cfa_offset 16
 616              		.cfi_offset 3, -16
 617              		.cfi_offset 4, -12
 618              		.cfi_offset 5, -8
 619              		.cfi_offset 14, -4
 620 0002 0D46     		mov	r5, r1
 126:Drivers/lvgl/src/core/lv_disp.c ****     if(!disp) {
 621              		.loc 1 126 5 is_stmt 1 view .LVU151
 126:Drivers/lvgl/src/core/lv_disp.c ****     if(!disp) {
 622              		.loc 1 126 7 is_stmt 0 view .LVU152
 623 0004 0446     		mov	r4, r0
 624 0006 28B1     		cbz	r0, .L49
 625              	.LVL63:
 626              	.L46:
 127:Drivers/lvgl/src/core/lv_disp.c ****         LV_LOG_WARN("no display registered");
 627              		.loc 1 127 5 is_stmt 1 view .LVU153
 127:Drivers/lvgl/src/core/lv_disp.c ****         LV_LOG_WARN("no display registered");
 628              		.loc 1 127 7 is_stmt 0 view .LVU154
 629 0008 1CB1     		cbz	r4, .L45
 132:Drivers/lvgl/src/core/lv_disp.c **** 
 630              		.loc 1 132 5 is_stmt 1 view .LVU155
 132:Drivers/lvgl/src/core/lv_disp.c **** 
 631              		.loc 1 132 17 is_stmt 0 view .LVU156
 632 000a A560     		str	r5, [r4, #8]
 134:Drivers/lvgl/src/core/lv_disp.c ****        lv_obj_get_child_cnt(disp->screens[0]) == 0 &&
 633              		.loc 1 134 5 is_stmt 1 view .LVU157
ARM GAS  /var/folders/0z/tsy30v1j4xl4_7kw94k978ww0000gn/T//ccvV8C1Y.s 			page 27


 134:Drivers/lvgl/src/core/lv_disp.c ****        lv_obj_get_child_cnt(disp->screens[0]) == 0 &&
 634              		.loc 1 134 12 is_stmt 0 view .LVU158
 635 000c 636A     		ldr	r3, [r4, #36]
 134:Drivers/lvgl/src/core/lv_disp.c ****        lv_obj_get_child_cnt(disp->screens[0]) == 0 &&
 636              		.loc 1 134 7 view .LVU159
 637 000e 032B     		cmp	r3, #3
 638 0010 04D0     		beq	.L50
 639              	.LVL64:
 640              	.L45:
 140:Drivers/lvgl/src/core/lv_disp.c **** /**
 641              		.loc 1 140 1 view .LVU160
 642 0012 38BD     		pop	{r3, r4, r5, pc}
 643              	.LVL65:
 644              	.L49:
 126:Drivers/lvgl/src/core/lv_disp.c ****     if(!disp) {
 645              		.loc 1 126 15 is_stmt 1 discriminator 1 view .LVU161
 126:Drivers/lvgl/src/core/lv_disp.c ****     if(!disp) {
 646              		.loc 1 126 22 is_stmt 0 discriminator 1 view .LVU162
 647 0014 FFF7FEFF 		bl	lv_disp_get_default
 648              	.LVL66:
 126:Drivers/lvgl/src/core/lv_disp.c ****     if(!disp) {
 649              		.loc 1 126 22 discriminator 1 view .LVU163
 650 0018 0446     		mov	r4, r0
 651              	.LVL67:
 126:Drivers/lvgl/src/core/lv_disp.c ****     if(!disp) {
 652              		.loc 1 126 22 discriminator 1 view .LVU164
 653 001a F5E7     		b	.L46
 654              	.L50:
 135:Drivers/lvgl/src/core/lv_disp.c ****        lv_obj_get_child_cnt(disp->screens[1]) == 0 &&
 655              		.loc 1 135 33 discriminator 1 view .LVU165
 656 001c E368     		ldr	r3, [r4, #12]
 135:Drivers/lvgl/src/core/lv_disp.c ****        lv_obj_get_child_cnt(disp->screens[1]) == 0 &&
 657              		.loc 1 135 8 discriminator 1 view .LVU166
 658 001e 1868     		ldr	r0, [r3]
 659              	.LVL68:
 135:Drivers/lvgl/src/core/lv_disp.c ****        lv_obj_get_child_cnt(disp->screens[1]) == 0 &&
 660              		.loc 1 135 8 discriminator 1 view .LVU167
 661 0020 FFF7FEFF 		bl	lv_obj_get_child_cnt
 662              	.LVL69:
 134:Drivers/lvgl/src/core/lv_disp.c ****        lv_obj_get_child_cnt(disp->screens[0]) == 0 &&
 663              		.loc 1 134 30 discriminator 1 view .LVU168
 664 0024 0028     		cmp	r0, #0
 665 0026 F4D1     		bne	.L45
 136:Drivers/lvgl/src/core/lv_disp.c ****        lv_obj_get_child_cnt(disp->screens[2]) == 0) {
 666              		.loc 1 136 33 view .LVU169
 667 0028 E368     		ldr	r3, [r4, #12]
 136:Drivers/lvgl/src/core/lv_disp.c ****        lv_obj_get_child_cnt(disp->screens[2]) == 0) {
 668              		.loc 1 136 8 view .LVU170
 669 002a 5868     		ldr	r0, [r3, #4]
 670 002c FFF7FEFF 		bl	lv_obj_get_child_cnt
 671              	.LVL70:
 135:Drivers/lvgl/src/core/lv_disp.c ****        lv_obj_get_child_cnt(disp->screens[1]) == 0 &&
 672              		.loc 1 135 52 view .LVU171
 673 0030 0028     		cmp	r0, #0
 674 0032 EED1     		bne	.L45
 137:Drivers/lvgl/src/core/lv_disp.c ****         lv_theme_apply(disp->screens[0]);
 675              		.loc 1 137 33 view .LVU172
ARM GAS  /var/folders/0z/tsy30v1j4xl4_7kw94k978ww0000gn/T//ccvV8C1Y.s 			page 28


 676 0034 E368     		ldr	r3, [r4, #12]
 137:Drivers/lvgl/src/core/lv_disp.c ****         lv_theme_apply(disp->screens[0]);
 677              		.loc 1 137 8 view .LVU173
 678 0036 9868     		ldr	r0, [r3, #8]
 679 0038 FFF7FEFF 		bl	lv_obj_get_child_cnt
 680              	.LVL71:
 136:Drivers/lvgl/src/core/lv_disp.c ****        lv_obj_get_child_cnt(disp->screens[2]) == 0) {
 681              		.loc 1 136 52 view .LVU174
 682 003c 0028     		cmp	r0, #0
 683 003e E8D1     		bne	.L45
 138:Drivers/lvgl/src/core/lv_disp.c ****     }
 684              		.loc 1 138 9 is_stmt 1 view .LVU175
 138:Drivers/lvgl/src/core/lv_disp.c ****     }
 685              		.loc 1 138 28 is_stmt 0 view .LVU176
 686 0040 E368     		ldr	r3, [r4, #12]
 138:Drivers/lvgl/src/core/lv_disp.c ****     }
 687              		.loc 1 138 9 view .LVU177
 688 0042 1868     		ldr	r0, [r3]
 689 0044 FFF7FEFF 		bl	lv_theme_apply
 690              	.LVL72:
 691 0048 E3E7     		b	.L45
 692              		.cfi_endproc
 693              	.LFE172:
 695              		.section	.text.lv_disp_get_theme,"ax",%progbits
 696              		.align	1
 697              		.global	lv_disp_get_theme
 698              		.syntax unified
 699              		.thumb
 700              		.thumb_func
 702              	lv_disp_get_theme:
 703              	.LVL73:
 704              	.LFB173:
 147:Drivers/lvgl/src/core/lv_disp.c ****     if(disp == NULL) disp = lv_disp_get_default();
 705              		.loc 1 147 1 is_stmt 1 view -0
 706              		.cfi_startproc
 707              		@ args = 0, pretend = 0, frame = 0
 708              		@ frame_needed = 0, uses_anonymous_args = 0
 147:Drivers/lvgl/src/core/lv_disp.c ****     if(disp == NULL) disp = lv_disp_get_default();
 709              		.loc 1 147 1 is_stmt 0 view .LVU179
 710 0000 08B5     		push	{r3, lr}
 711              		.cfi_def_cfa_offset 8
 712              		.cfi_offset 3, -8
 713              		.cfi_offset 14, -4
 148:Drivers/lvgl/src/core/lv_disp.c ****     return disp->theme;
 714              		.loc 1 148 5 is_stmt 1 view .LVU180
 148:Drivers/lvgl/src/core/lv_disp.c ****     return disp->theme;
 715              		.loc 1 148 7 is_stmt 0 view .LVU181
 716 0002 0346     		mov	r3, r0
 717 0004 08B1     		cbz	r0, .L54
 718              	.L52:
 149:Drivers/lvgl/src/core/lv_disp.c **** }
 719              		.loc 1 149 5 is_stmt 1 view .LVU182
 150:Drivers/lvgl/src/core/lv_disp.c **** 
 720              		.loc 1 150 1 is_stmt 0 view .LVU183
 721 0006 9868     		ldr	r0, [r3, #8]
 722              	.LVL74:
 150:Drivers/lvgl/src/core/lv_disp.c **** 
ARM GAS  /var/folders/0z/tsy30v1j4xl4_7kw94k978ww0000gn/T//ccvV8C1Y.s 			page 29


 723              		.loc 1 150 1 view .LVU184
 724 0008 08BD     		pop	{r3, pc}
 725              	.LVL75:
 726              	.L54:
 148:Drivers/lvgl/src/core/lv_disp.c ****     return disp->theme;
 727              		.loc 1 148 22 is_stmt 1 discriminator 1 view .LVU185
 148:Drivers/lvgl/src/core/lv_disp.c ****     return disp->theme;
 728              		.loc 1 148 29 is_stmt 0 discriminator 1 view .LVU186
 729 000a FFF7FEFF 		bl	lv_disp_get_default
 730              	.LVL76:
 148:Drivers/lvgl/src/core/lv_disp.c ****     return disp->theme;
 731              		.loc 1 148 29 discriminator 1 view .LVU187
 732 000e 0346     		mov	r3, r0
 733              	.LVL77:
 148:Drivers/lvgl/src/core/lv_disp.c ****     return disp->theme;
 734              		.loc 1 148 29 discriminator 1 view .LVU188
 735 0010 F9E7     		b	.L52
 736              		.cfi_endproc
 737              	.LFE173:
 739              		.section	.text.lv_disp_set_bg_color,"ax",%progbits
 740              		.align	1
 741              		.global	lv_disp_set_bg_color
 742              		.syntax unified
 743              		.thumb
 744              		.thumb_func
 746              	lv_disp_set_bg_color:
 747              	.LVL78:
 748              	.LFB174:
 158:Drivers/lvgl/src/core/lv_disp.c ****     if(!disp) disp = lv_disp_get_default();
 749              		.loc 1 158 1 is_stmt 1 view -0
 750              		.cfi_startproc
 751              		@ args = 0, pretend = 0, frame = 8
 752              		@ frame_needed = 0, uses_anonymous_args = 0
 158:Drivers/lvgl/src/core/lv_disp.c ****     if(!disp) disp = lv_disp_get_default();
 753              		.loc 1 158 1 is_stmt 0 view .LVU190
 754 0000 30B5     		push	{r4, r5, lr}
 755              		.cfi_def_cfa_offset 12
 756              		.cfi_offset 4, -12
 757              		.cfi_offset 5, -8
 758              		.cfi_offset 14, -4
 759 0002 85B0     		sub	sp, sp, #20
 760              		.cfi_def_cfa_offset 32
 761 0004 0C46     		mov	r4, r1	@ movhi
 762              	.LVL79:
 159:Drivers/lvgl/src/core/lv_disp.c ****     if(!disp) {
 763              		.loc 1 159 5 is_stmt 1 view .LVU191
 159:Drivers/lvgl/src/core/lv_disp.c ****     if(!disp) {
 764              		.loc 1 159 7 is_stmt 0 view .LVU192
 765 0006 0546     		mov	r5, r0
 766 0008 D0B1     		cbz	r0, .L60
 767              	.L56:
 160:Drivers/lvgl/src/core/lv_disp.c ****         LV_LOG_WARN("no display registered");
 768              		.loc 1 160 5 is_stmt 1 view .LVU193
 160:Drivers/lvgl/src/core/lv_disp.c ****         LV_LOG_WARN("no display registered");
 769              		.loc 1 160 7 is_stmt 0 view .LVU194
 770 000a BDB1     		cbz	r5, .L55
 165:Drivers/lvgl/src/core/lv_disp.c **** 
ARM GAS  /var/folders/0z/tsy30v1j4xl4_7kw94k978ww0000gn/T//ccvV8C1Y.s 			page 30


 771              		.loc 1 165 5 is_stmt 1 view .LVU195
 772              	.LVL80:
 165:Drivers/lvgl/src/core/lv_disp.c **** 
 773              		.loc 1 165 20 is_stmt 0 view .LVU196
 774 000c 6C85     		strh	r4, [r5, #42]	@ movhi
 167:Drivers/lvgl/src/core/lv_disp.c ****     lv_area_set(&a, 0, 0, lv_disp_get_hor_res(disp) - 1, lv_disp_get_ver_res(disp) - 1);
 775              		.loc 1 167 5 is_stmt 1 view .LVU197
 168:Drivers/lvgl/src/core/lv_disp.c ****     _lv_inv_area(disp, &a);
 776              		.loc 1 168 5 view .LVU198
 168:Drivers/lvgl/src/core/lv_disp.c ****     _lv_inv_area(disp, &a);
 777              		.loc 1 168 27 is_stmt 0 view .LVU199
 778 000e 2846     		mov	r0, r5
 168:Drivers/lvgl/src/core/lv_disp.c ****     _lv_inv_area(disp, &a);
 779              		.loc 1 168 27 view .LVU200
 780 0010 FFF7FEFF 		bl	lv_disp_get_hor_res
 781              	.LVL81:
 168:Drivers/lvgl/src/core/lv_disp.c ****     _lv_inv_area(disp, &a);
 782              		.loc 1 168 27 view .LVU201
 783 0014 84B2     		uxth	r4, r0
 784              	.LVL82:
 168:Drivers/lvgl/src/core/lv_disp.c ****     _lv_inv_area(disp, &a);
 785              		.loc 1 168 53 view .LVU202
 786 0016 013C     		subs	r4, r4, #1
 787 0018 A4B2     		uxth	r4, r4
 168:Drivers/lvgl/src/core/lv_disp.c ****     _lv_inv_area(disp, &a);
 788              		.loc 1 168 58 view .LVU203
 789 001a 2846     		mov	r0, r5
 790 001c FFF7FEFF 		bl	lv_disp_get_ver_res
 791              	.LVL83:
 792 0020 83B2     		uxth	r3, r0
 168:Drivers/lvgl/src/core/lv_disp.c ****     _lv_inv_area(disp, &a);
 793              		.loc 1 168 84 view .LVU204
 794 0022 013B     		subs	r3, r3, #1
 168:Drivers/lvgl/src/core/lv_disp.c ****     _lv_inv_area(disp, &a);
 795              		.loc 1 168 5 view .LVU205
 796 0024 1BB2     		sxth	r3, r3
 797 0026 0093     		str	r3, [sp]
 798 0028 23B2     		sxth	r3, r4
 799 002a 0022     		movs	r2, #0
 800 002c 1146     		mov	r1, r2
 801 002e 02A8     		add	r0, sp, #8
 802 0030 FFF7FEFF 		bl	lv_area_set
 803              	.LVL84:
 169:Drivers/lvgl/src/core/lv_disp.c **** 
 804              		.loc 1 169 5 is_stmt 1 view .LVU206
 805 0034 02A9     		add	r1, sp, #8
 806 0036 2846     		mov	r0, r5
 807 0038 FFF7FEFF 		bl	_lv_inv_area
 808              	.LVL85:
 809              	.L55:
 171:Drivers/lvgl/src/core/lv_disp.c **** 
 810              		.loc 1 171 1 is_stmt 0 view .LVU207
 811 003c 05B0     		add	sp, sp, #20
 812              		.cfi_remember_state
 813              		.cfi_def_cfa_offset 12
 814              		@ sp needed
 815 003e 30BD     		pop	{r4, r5, pc}
ARM GAS  /var/folders/0z/tsy30v1j4xl4_7kw94k978ww0000gn/T//ccvV8C1Y.s 			page 31


 816              	.LVL86:
 817              	.L60:
 818              		.cfi_restore_state
 159:Drivers/lvgl/src/core/lv_disp.c ****     if(!disp) {
 819              		.loc 1 159 15 is_stmt 1 discriminator 1 view .LVU208
 159:Drivers/lvgl/src/core/lv_disp.c ****     if(!disp) {
 820              		.loc 1 159 22 is_stmt 0 discriminator 1 view .LVU209
 821 0040 FFF7FEFF 		bl	lv_disp_get_default
 822              	.LVL87:
 159:Drivers/lvgl/src/core/lv_disp.c ****     if(!disp) {
 823              		.loc 1 159 22 discriminator 1 view .LVU210
 824 0044 0546     		mov	r5, r0
 825              	.LVL88:
 159:Drivers/lvgl/src/core/lv_disp.c ****     if(!disp) {
 826              		.loc 1 159 22 discriminator 1 view .LVU211
 827 0046 E0E7     		b	.L56
 828              		.cfi_endproc
 829              	.LFE174:
 831              		.section	.text.lv_disp_set_bg_image,"ax",%progbits
 832              		.align	1
 833              		.global	lv_disp_set_bg_image
 834              		.syntax unified
 835              		.thumb
 836              		.thumb_func
 838              	lv_disp_set_bg_image:
 839              	.LVL89:
 840              	.LFB175:
 179:Drivers/lvgl/src/core/lv_disp.c ****     if(!disp) disp = lv_disp_get_default();
 841              		.loc 1 179 1 is_stmt 1 view -0
 842              		.cfi_startproc
 843              		@ args = 0, pretend = 0, frame = 8
 844              		@ frame_needed = 0, uses_anonymous_args = 0
 179:Drivers/lvgl/src/core/lv_disp.c ****     if(!disp) disp = lv_disp_get_default();
 845              		.loc 1 179 1 is_stmt 0 view .LVU213
 846 0000 30B5     		push	{r4, r5, lr}
 847              		.cfi_def_cfa_offset 12
 848              		.cfi_offset 4, -12
 849              		.cfi_offset 5, -8
 850              		.cfi_offset 14, -4
 851 0002 85B0     		sub	sp, sp, #20
 852              		.cfi_def_cfa_offset 32
 853 0004 0C46     		mov	r4, r1
 180:Drivers/lvgl/src/core/lv_disp.c ****     if(!disp) {
 854              		.loc 1 180 5 is_stmt 1 view .LVU214
 180:Drivers/lvgl/src/core/lv_disp.c ****     if(!disp) {
 855              		.loc 1 180 7 is_stmt 0 view .LVU215
 856 0006 0546     		mov	r5, r0
 857 0008 D0B1     		cbz	r0, .L66
 858              	.LVL90:
 859              	.L62:
 181:Drivers/lvgl/src/core/lv_disp.c ****         LV_LOG_WARN("no display registered");
 860              		.loc 1 181 5 is_stmt 1 view .LVU216
 181:Drivers/lvgl/src/core/lv_disp.c ****         LV_LOG_WARN("no display registered");
 861              		.loc 1 181 7 is_stmt 0 view .LVU217
 862 000a BDB1     		cbz	r5, .L61
 186:Drivers/lvgl/src/core/lv_disp.c **** 
 863              		.loc 1 186 5 is_stmt 1 view .LVU218
ARM GAS  /var/folders/0z/tsy30v1j4xl4_7kw94k978ww0000gn/T//ccvV8C1Y.s 			page 32


 186:Drivers/lvgl/src/core/lv_disp.c **** 
 864              		.loc 1 186 18 is_stmt 0 view .LVU219
 865 000c EC62     		str	r4, [r5, #44]
 188:Drivers/lvgl/src/core/lv_disp.c ****     lv_area_set(&a, 0, 0, lv_disp_get_hor_res(disp) - 1, lv_disp_get_ver_res(disp) - 1);
 866              		.loc 1 188 5 is_stmt 1 view .LVU220
 189:Drivers/lvgl/src/core/lv_disp.c ****     _lv_inv_area(disp, &a);
 867              		.loc 1 189 5 view .LVU221
 189:Drivers/lvgl/src/core/lv_disp.c ****     _lv_inv_area(disp, &a);
 868              		.loc 1 189 27 is_stmt 0 view .LVU222
 869 000e 2846     		mov	r0, r5
 189:Drivers/lvgl/src/core/lv_disp.c ****     _lv_inv_area(disp, &a);
 870              		.loc 1 189 27 view .LVU223
 871 0010 FFF7FEFF 		bl	lv_disp_get_hor_res
 872              	.LVL91:
 189:Drivers/lvgl/src/core/lv_disp.c ****     _lv_inv_area(disp, &a);
 873              		.loc 1 189 27 view .LVU224
 874 0014 84B2     		uxth	r4, r0
 875              	.LVL92:
 189:Drivers/lvgl/src/core/lv_disp.c ****     _lv_inv_area(disp, &a);
 876              		.loc 1 189 53 view .LVU225
 877 0016 013C     		subs	r4, r4, #1
 878 0018 A4B2     		uxth	r4, r4
 189:Drivers/lvgl/src/core/lv_disp.c ****     _lv_inv_area(disp, &a);
 879              		.loc 1 189 58 view .LVU226
 880 001a 2846     		mov	r0, r5
 881 001c FFF7FEFF 		bl	lv_disp_get_ver_res
 882              	.LVL93:
 883 0020 83B2     		uxth	r3, r0
 189:Drivers/lvgl/src/core/lv_disp.c ****     _lv_inv_area(disp, &a);
 884              		.loc 1 189 84 view .LVU227
 885 0022 013B     		subs	r3, r3, #1
 189:Drivers/lvgl/src/core/lv_disp.c ****     _lv_inv_area(disp, &a);
 886              		.loc 1 189 5 view .LVU228
 887 0024 1BB2     		sxth	r3, r3
 888 0026 0093     		str	r3, [sp]
 889 0028 23B2     		sxth	r3, r4
 890 002a 0022     		movs	r2, #0
 891 002c 1146     		mov	r1, r2
 892 002e 02A8     		add	r0, sp, #8
 893 0030 FFF7FEFF 		bl	lv_area_set
 894              	.LVL94:
 190:Drivers/lvgl/src/core/lv_disp.c **** }
 895              		.loc 1 190 5 is_stmt 1 view .LVU229
 896 0034 02A9     		add	r1, sp, #8
 897 0036 2846     		mov	r0, r5
 898 0038 FFF7FEFF 		bl	_lv_inv_area
 899              	.LVL95:
 900              	.L61:
 191:Drivers/lvgl/src/core/lv_disp.c **** 
 901              		.loc 1 191 1 is_stmt 0 view .LVU230
 902 003c 05B0     		add	sp, sp, #20
 903              		.cfi_remember_state
 904              		.cfi_def_cfa_offset 12
 905              		@ sp needed
 906 003e 30BD     		pop	{r4, r5, pc}
 907              	.LVL96:
 908              	.L66:
ARM GAS  /var/folders/0z/tsy30v1j4xl4_7kw94k978ww0000gn/T//ccvV8C1Y.s 			page 33


 909              		.cfi_restore_state
 180:Drivers/lvgl/src/core/lv_disp.c ****     if(!disp) {
 910              		.loc 1 180 15 is_stmt 1 discriminator 1 view .LVU231
 180:Drivers/lvgl/src/core/lv_disp.c ****     if(!disp) {
 911              		.loc 1 180 22 is_stmt 0 discriminator 1 view .LVU232
 912 0040 FFF7FEFF 		bl	lv_disp_get_default
 913              	.LVL97:
 180:Drivers/lvgl/src/core/lv_disp.c ****     if(!disp) {
 914              		.loc 1 180 22 discriminator 1 view .LVU233
 915 0044 0546     		mov	r5, r0
 916              	.LVL98:
 180:Drivers/lvgl/src/core/lv_disp.c ****     if(!disp) {
 917              		.loc 1 180 22 discriminator 1 view .LVU234
 918 0046 E0E7     		b	.L62
 919              		.cfi_endproc
 920              	.LFE175:
 922              		.section	.text.lv_disp_set_bg_opa,"ax",%progbits
 923              		.align	1
 924              		.global	lv_disp_set_bg_opa
 925              		.syntax unified
 926              		.thumb
 927              		.thumb_func
 929              	lv_disp_set_bg_opa:
 930              	.LVL99:
 931              	.LFB176:
 199:Drivers/lvgl/src/core/lv_disp.c ****     if(!disp) disp = lv_disp_get_default();
 932              		.loc 1 199 1 is_stmt 1 view -0
 933              		.cfi_startproc
 934              		@ args = 0, pretend = 0, frame = 8
 935              		@ frame_needed = 0, uses_anonymous_args = 0
 199:Drivers/lvgl/src/core/lv_disp.c ****     if(!disp) disp = lv_disp_get_default();
 936              		.loc 1 199 1 is_stmt 0 view .LVU236
 937 0000 30B5     		push	{r4, r5, lr}
 938              		.cfi_def_cfa_offset 12
 939              		.cfi_offset 4, -12
 940              		.cfi_offset 5, -8
 941              		.cfi_offset 14, -4
 942 0002 85B0     		sub	sp, sp, #20
 943              		.cfi_def_cfa_offset 32
 944 0004 0C46     		mov	r4, r1
 200:Drivers/lvgl/src/core/lv_disp.c ****     if(!disp) {
 945              		.loc 1 200 5 is_stmt 1 view .LVU237
 200:Drivers/lvgl/src/core/lv_disp.c ****     if(!disp) {
 946              		.loc 1 200 7 is_stmt 0 view .LVU238
 947 0006 0546     		mov	r5, r0
 948 0008 D8B1     		cbz	r0, .L72
 949              	.LVL100:
 950              	.L68:
 201:Drivers/lvgl/src/core/lv_disp.c ****         LV_LOG_WARN("no display registered");
 951              		.loc 1 201 5 is_stmt 1 view .LVU239
 201:Drivers/lvgl/src/core/lv_disp.c ****         LV_LOG_WARN("no display registered");
 952              		.loc 1 201 7 is_stmt 0 view .LVU240
 953 000a C5B1     		cbz	r5, .L67
 206:Drivers/lvgl/src/core/lv_disp.c **** 
 954              		.loc 1 206 5 is_stmt 1 view .LVU241
 206:Drivers/lvgl/src/core/lv_disp.c **** 
 955              		.loc 1 206 18 is_stmt 0 view .LVU242
ARM GAS  /var/folders/0z/tsy30v1j4xl4_7kw94k978ww0000gn/T//ccvV8C1Y.s 			page 34


 956 000c 85F82940 		strb	r4, [r5, #41]
 208:Drivers/lvgl/src/core/lv_disp.c ****     lv_area_set(&a, 0, 0, lv_disp_get_hor_res(disp) - 1, lv_disp_get_ver_res(disp) - 1);
 957              		.loc 1 208 5 is_stmt 1 view .LVU243
 209:Drivers/lvgl/src/core/lv_disp.c ****     _lv_inv_area(disp, &a);
 958              		.loc 1 209 5 view .LVU244
 209:Drivers/lvgl/src/core/lv_disp.c ****     _lv_inv_area(disp, &a);
 959              		.loc 1 209 27 is_stmt 0 view .LVU245
 960 0010 2846     		mov	r0, r5
 209:Drivers/lvgl/src/core/lv_disp.c ****     _lv_inv_area(disp, &a);
 961              		.loc 1 209 27 view .LVU246
 962 0012 FFF7FEFF 		bl	lv_disp_get_hor_res
 963              	.LVL101:
 209:Drivers/lvgl/src/core/lv_disp.c ****     _lv_inv_area(disp, &a);
 964              		.loc 1 209 27 view .LVU247
 965 0016 84B2     		uxth	r4, r0
 209:Drivers/lvgl/src/core/lv_disp.c ****     _lv_inv_area(disp, &a);
 966              		.loc 1 209 53 view .LVU248
 967 0018 013C     		subs	r4, r4, #1
 968 001a A4B2     		uxth	r4, r4
 209:Drivers/lvgl/src/core/lv_disp.c ****     _lv_inv_area(disp, &a);
 969              		.loc 1 209 58 view .LVU249
 970 001c 2846     		mov	r0, r5
 971 001e FFF7FEFF 		bl	lv_disp_get_ver_res
 972              	.LVL102:
 973 0022 83B2     		uxth	r3, r0
 209:Drivers/lvgl/src/core/lv_disp.c ****     _lv_inv_area(disp, &a);
 974              		.loc 1 209 84 view .LVU250
 975 0024 013B     		subs	r3, r3, #1
 209:Drivers/lvgl/src/core/lv_disp.c ****     _lv_inv_area(disp, &a);
 976              		.loc 1 209 5 view .LVU251
 977 0026 1BB2     		sxth	r3, r3
 978 0028 0093     		str	r3, [sp]
 979 002a 23B2     		sxth	r3, r4
 980 002c 0022     		movs	r2, #0
 981 002e 1146     		mov	r1, r2
 982 0030 02A8     		add	r0, sp, #8
 983 0032 FFF7FEFF 		bl	lv_area_set
 984              	.LVL103:
 210:Drivers/lvgl/src/core/lv_disp.c **** }
 985              		.loc 1 210 5 is_stmt 1 view .LVU252
 986 0036 02A9     		add	r1, sp, #8
 987 0038 2846     		mov	r0, r5
 988 003a FFF7FEFF 		bl	_lv_inv_area
 989              	.LVL104:
 990              	.L67:
 211:Drivers/lvgl/src/core/lv_disp.c **** 
 991              		.loc 1 211 1 is_stmt 0 view .LVU253
 992 003e 05B0     		add	sp, sp, #20
 993              		.cfi_remember_state
 994              		.cfi_def_cfa_offset 12
 995              		@ sp needed
 996 0040 30BD     		pop	{r4, r5, pc}
 997              	.LVL105:
 998              	.L72:
 999              		.cfi_restore_state
 200:Drivers/lvgl/src/core/lv_disp.c ****     if(!disp) {
 1000              		.loc 1 200 15 is_stmt 1 discriminator 1 view .LVU254
ARM GAS  /var/folders/0z/tsy30v1j4xl4_7kw94k978ww0000gn/T//ccvV8C1Y.s 			page 35


 200:Drivers/lvgl/src/core/lv_disp.c ****     if(!disp) {
 1001              		.loc 1 200 22 is_stmt 0 discriminator 1 view .LVU255
 1002 0042 FFF7FEFF 		bl	lv_disp_get_default
 1003              	.LVL106:
 200:Drivers/lvgl/src/core/lv_disp.c ****     if(!disp) {
 1004              		.loc 1 200 22 discriminator 1 view .LVU256
 1005 0046 0546     		mov	r5, r0
 1006              	.LVL107:
 200:Drivers/lvgl/src/core/lv_disp.c ****     if(!disp) {
 1007              		.loc 1 200 22 discriminator 1 view .LVU257
 1008 0048 DFE7     		b	.L68
 1009              		.cfi_endproc
 1010              	.LFE176:
 1012              		.section	.text.lv_scr_load_anim,"ax",%progbits
 1013              		.align	1
 1014              		.global	lv_scr_load_anim
 1015              		.syntax unified
 1016              		.thumb
 1017              		.thumb_func
 1019              	lv_scr_load_anim:
 1020              	.LVL108:
 1021              	.LFB177:
 222:Drivers/lvgl/src/core/lv_disp.c **** 
 1022              		.loc 1 222 1 is_stmt 1 view -0
 1023              		.cfi_startproc
 1024              		@ args = 4, pretend = 0, frame = 136
 1025              		@ frame_needed = 0, uses_anonymous_args = 0
 222:Drivers/lvgl/src/core/lv_disp.c **** 
 1026              		.loc 1 222 1 is_stmt 0 view .LVU259
 1027 0000 2DE9F047 		push	{r4, r5, r6, r7, r8, r9, r10, lr}
 1028              		.cfi_def_cfa_offset 32
 1029              		.cfi_offset 4, -32
 1030              		.cfi_offset 5, -28
 1031              		.cfi_offset 6, -24
 1032              		.cfi_offset 7, -20
 1033              		.cfi_offset 8, -16
 1034              		.cfi_offset 9, -12
 1035              		.cfi_offset 10, -8
 1036              		.cfi_offset 14, -4
 1037 0004 A2B0     		sub	sp, sp, #136
 1038              		.cfi_def_cfa_offset 168
 1039 0006 0546     		mov	r5, r0
 1040 0008 8846     		mov	r8, r1
 1041 000a 9146     		mov	r9, r2
 1042 000c 1E46     		mov	r6, r3
 1043 000e 9DF8A8A0 		ldrb	r10, [sp, #168]	@ zero_extendqisi2
 224:Drivers/lvgl/src/core/lv_disp.c ****     lv_obj_t * act_scr = lv_scr_act();
 1044              		.loc 1 224 5 is_stmt 1 view .LVU260
 224:Drivers/lvgl/src/core/lv_disp.c ****     lv_obj_t * act_scr = lv_scr_act();
 1045              		.loc 1 224 21 is_stmt 0 view .LVU261
 1046 0012 FFF7FEFF 		bl	lv_obj_get_disp
 1047              	.LVL109:
 224:Drivers/lvgl/src/core/lv_disp.c ****     lv_obj_t * act_scr = lv_scr_act();
 1048              		.loc 1 224 21 view .LVU262
 1049 0016 0446     		mov	r4, r0
 1050              	.LVL110:
 225:Drivers/lvgl/src/core/lv_disp.c **** 
ARM GAS  /var/folders/0z/tsy30v1j4xl4_7kw94k978ww0000gn/T//ccvV8C1Y.s 			page 36


 1051              		.loc 1 225 5 is_stmt 1 view .LVU263
 1052              	.LBB198:
 1053              	.LBI198:
 182:Drivers/lvgl/src/core/lv_disp.h **** {
 1054              		.loc 2 182 26 view .LVU264
 1055              	.LBB199:
 1056              		.loc 2 184 5 view .LVU265
 1057              		.loc 2 184 12 is_stmt 0 view .LVU266
 1058 0018 FFF7FEFF 		bl	lv_disp_get_default
 1059              	.LVL111:
 1060              		.loc 2 184 12 view .LVU267
 1061 001c FFF7FEFF 		bl	lv_disp_get_scr_act
 1062              	.LVL112:
 1063              		.loc 2 184 12 view .LVU268
 1064              	.LBE199:
 1065              	.LBE198:
 227:Drivers/lvgl/src/core/lv_disp.c ****         return;
 1066              		.loc 1 227 5 is_stmt 1 view .LVU269
 227:Drivers/lvgl/src/core/lv_disp.c ****         return;
 1067              		.loc 1 227 7 is_stmt 0 view .LVU270
 1068 0020 8542     		cmp	r5, r0
 1069 0022 00F0A780 		beq	.L73
 1070 0026 0746     		mov	r7, r0
 227:Drivers/lvgl/src/core/lv_disp.c ****         return;
 1071              		.loc 1 227 31 discriminator 1 view .LVU271
 1072 0028 A069     		ldr	r0, [r4, #24]
 1073              	.LVL113:
 227:Drivers/lvgl/src/core/lv_disp.c ****         return;
 1074              		.loc 1 227 27 discriminator 1 view .LVU272
 1075 002a A842     		cmp	r0, r5
 1076 002c 00F0A280 		beq	.L73
 233:Drivers/lvgl/src/core/lv_disp.c ****         scr_load_internal(d->scr_to_load);
 1077              		.loc 1 233 5 is_stmt 1 view .LVU273
 233:Drivers/lvgl/src/core/lv_disp.c ****         scr_load_internal(d->scr_to_load);
 1078              		.loc 1 233 7 is_stmt 0 view .LVU274
 1079 0030 A8B1     		cbz	r0, .L75
 234:Drivers/lvgl/src/core/lv_disp.c ****         lv_anim_del(d->scr_to_load, NULL);
 1080              		.loc 1 234 9 is_stmt 1 view .LVU275
 1081 0032 FFF7FEFF 		bl	scr_load_internal
 1082              	.LVL114:
 235:Drivers/lvgl/src/core/lv_disp.c ****         lv_obj_set_pos(d->scr_to_load, 0, 0);
 1083              		.loc 1 235 9 view .LVU276
 1084 0036 0021     		movs	r1, #0
 1085 0038 A069     		ldr	r0, [r4, #24]
 1086 003a FFF7FEFF 		bl	lv_anim_del
 1087              	.LVL115:
 236:Drivers/lvgl/src/core/lv_disp.c ****         lv_obj_remove_local_style_prop(d->scr_to_load, LV_STYLE_OPA, 0);
 1088              		.loc 1 236 9 view .LVU277
 1089 003e 0022     		movs	r2, #0
 1090 0040 1146     		mov	r1, r2
 1091 0042 A069     		ldr	r0, [r4, #24]
 1092 0044 FFF7FEFF 		bl	lv_obj_set_pos
 1093              	.LVL116:
 237:Drivers/lvgl/src/core/lv_disp.c **** 
 1094              		.loc 1 237 9 view .LVU278
 1095 0048 0022     		movs	r2, #0
 1096 004a 6021     		movs	r1, #96
ARM GAS  /var/folders/0z/tsy30v1j4xl4_7kw94k978ww0000gn/T//ccvV8C1Y.s 			page 37


 1097 004c A069     		ldr	r0, [r4, #24]
 1098 004e FFF7FEFF 		bl	lv_obj_remove_local_style_prop
 1099              	.LVL117:
 239:Drivers/lvgl/src/core/lv_disp.c ****             lv_obj_del(act_scr);
 1100              		.loc 1 239 9 view .LVU279
 239:Drivers/lvgl/src/core/lv_disp.c ****             lv_obj_del(act_scr);
 1101              		.loc 1 239 12 is_stmt 0 view .LVU280
 1102 0052 94F82830 		ldrb	r3, [r4, #40]	@ zero_extendqisi2
 239:Drivers/lvgl/src/core/lv_disp.c ****             lv_obj_del(act_scr);
 1103              		.loc 1 239 11 view .LVU281
 1104 0056 13F0020F 		tst	r3, #2
 1105 005a 67D1     		bne	.L100
 1106              	.L76:
 242:Drivers/lvgl/src/core/lv_disp.c ****     }
 1107              		.loc 1 242 9 is_stmt 1 view .LVU282
 242:Drivers/lvgl/src/core/lv_disp.c ****     }
 1108              		.loc 1 242 17 is_stmt 0 view .LVU283
 1109 005c A769     		ldr	r7, [r4, #24]
 1110              	.LVL118:
 1111              	.L75:
 245:Drivers/lvgl/src/core/lv_disp.c **** 
 1112              		.loc 1 245 5 is_stmt 1 view .LVU284
 245:Drivers/lvgl/src/core/lv_disp.c **** 
 1113              		.loc 1 245 20 is_stmt 0 view .LVU285
 1114 005e A561     		str	r5, [r4, #24]
 247:Drivers/lvgl/src/core/lv_disp.c ****         lv_obj_del(d->prev_scr);
 1115              		.loc 1 247 5 is_stmt 1 view .LVU286
 247:Drivers/lvgl/src/core/lv_disp.c ****         lv_obj_del(d->prev_scr);
 1116              		.loc 1 247 9 is_stmt 0 view .LVU287
 1117 0060 6069     		ldr	r0, [r4, #20]
 247:Drivers/lvgl/src/core/lv_disp.c ****         lv_obj_del(d->prev_scr);
 1118              		.loc 1 247 7 view .LVU288
 1119 0062 20B1     		cbz	r0, .L77
 247:Drivers/lvgl/src/core/lv_disp.c ****         lv_obj_del(d->prev_scr);
 1120              		.loc 1 247 20 discriminator 1 view .LVU289
 1121 0064 94F82830 		ldrb	r3, [r4, #40]	@ zero_extendqisi2
 1122 0068 13F0020F 		tst	r3, #2
 1123 006c 62D1     		bne	.L101
 1124              	.L77:
 252:Drivers/lvgl/src/core/lv_disp.c ****     d->del_prev = auto_del;
 1125              		.loc 1 252 5 is_stmt 1 view .LVU290
 252:Drivers/lvgl/src/core/lv_disp.c ****     d->del_prev = auto_del;
 1126              		.loc 1 252 29 is_stmt 0 view .LVU291
 1127 006e 4046     		mov	r0, r8
 1128 0070 FFF7FEFF 		bl	is_out_anim
 1129              	.LVL119:
 252:Drivers/lvgl/src/core/lv_disp.c ****     d->del_prev = auto_del;
 1130              		.loc 1 252 27 view .LVU292
 1131 0074 94F82830 		ldrb	r3, [r4, #40]	@ zero_extendqisi2
 1132 0078 60F30003 		bfi	r3, r0, #0, #1
 1133 007c 84F82830 		strb	r3, [r4, #40]
 253:Drivers/lvgl/src/core/lv_disp.c **** 
 1134              		.loc 1 253 5 is_stmt 1 view .LVU293
 253:Drivers/lvgl/src/core/lv_disp.c **** 
 1135              		.loc 1 253 17 is_stmt 0 view .LVU294
 1136 0080 DBB2     		uxtb	r3, r3
 1137 0082 6AF34103 		bfi	r3, r10, #1, #1
ARM GAS  /var/folders/0z/tsy30v1j4xl4_7kw94k978ww0000gn/T//ccvV8C1Y.s 			page 38


 1138 0086 84F82830 		strb	r3, [r4, #40]
 256:Drivers/lvgl/src/core/lv_disp.c ****     lv_anim_del(lv_scr_act(), NULL);
 1139              		.loc 1 256 5 is_stmt 1 view .LVU295
 1140 008a 0021     		movs	r1, #0
 1141 008c 2846     		mov	r0, r5
 1142 008e FFF7FEFF 		bl	lv_anim_del
 1143              	.LVL120:
 257:Drivers/lvgl/src/core/lv_disp.c **** 
 1144              		.loc 1 257 5 view .LVU296
 1145              	.LBB200:
 1146              	.LBI200:
 182:Drivers/lvgl/src/core/lv_disp.h **** {
 1147              		.loc 2 182 26 view .LVU297
 1148              	.LBB201:
 1149              		.loc 2 184 5 view .LVU298
 1150              		.loc 2 184 12 is_stmt 0 view .LVU299
 1151 0092 FFF7FEFF 		bl	lv_disp_get_default
 1152              	.LVL121:
 1153 0096 FFF7FEFF 		bl	lv_disp_get_scr_act
 1154              	.LVL122:
 1155              	.LBE201:
 1156              	.LBE200:
 257:Drivers/lvgl/src/core/lv_disp.c **** 
 1157              		.loc 1 257 5 view .LVU300
 1158 009a 0021     		movs	r1, #0
 1159 009c FFF7FEFF 		bl	lv_anim_del
 1160              	.LVL123:
 260:Drivers/lvgl/src/core/lv_disp.c ****     lv_obj_set_pos(lv_scr_act(), 0, 0);
 1161              		.loc 1 260 5 is_stmt 1 view .LVU301
 1162 00a0 0022     		movs	r2, #0
 1163 00a2 1146     		mov	r1, r2
 1164 00a4 2846     		mov	r0, r5
 1165 00a6 FFF7FEFF 		bl	lv_obj_set_pos
 1166              	.LVL124:
 261:Drivers/lvgl/src/core/lv_disp.c ****     lv_obj_remove_local_style_prop(new_scr, LV_STYLE_OPA, 0);
 1167              		.loc 1 261 5 view .LVU302
 1168              	.LBB202:
 1169              	.LBI202:
 182:Drivers/lvgl/src/core/lv_disp.h **** {
 1170              		.loc 2 182 26 view .LVU303
 1171              	.LBB203:
 1172              		.loc 2 184 5 view .LVU304
 1173              		.loc 2 184 12 is_stmt 0 view .LVU305
 1174 00aa FFF7FEFF 		bl	lv_disp_get_default
 1175              	.LVL125:
 1176 00ae FFF7FEFF 		bl	lv_disp_get_scr_act
 1177              	.LVL126:
 1178              	.LBE203:
 1179              	.LBE202:
 261:Drivers/lvgl/src/core/lv_disp.c ****     lv_obj_remove_local_style_prop(new_scr, LV_STYLE_OPA, 0);
 1180              		.loc 1 261 5 view .LVU306
 1181 00b2 0022     		movs	r2, #0
 1182 00b4 1146     		mov	r1, r2
 1183 00b6 FFF7FEFF 		bl	lv_obj_set_pos
 1184              	.LVL127:
 262:Drivers/lvgl/src/core/lv_disp.c ****     lv_obj_remove_local_style_prop(lv_scr_act(), LV_STYLE_OPA, 0);
 1185              		.loc 1 262 5 is_stmt 1 view .LVU307
ARM GAS  /var/folders/0z/tsy30v1j4xl4_7kw94k978ww0000gn/T//ccvV8C1Y.s 			page 39


 1186 00ba 0022     		movs	r2, #0
 1187 00bc 6021     		movs	r1, #96
 1188 00be 2846     		mov	r0, r5
 1189 00c0 FFF7FEFF 		bl	lv_obj_remove_local_style_prop
 1190              	.LVL128:
 263:Drivers/lvgl/src/core/lv_disp.c **** 
 1191              		.loc 1 263 5 view .LVU308
 1192              	.LBB204:
 1193              	.LBI204:
 182:Drivers/lvgl/src/core/lv_disp.h **** {
 1194              		.loc 2 182 26 view .LVU309
 1195              	.LBB205:
 1196              		.loc 2 184 5 view .LVU310
 1197              		.loc 2 184 12 is_stmt 0 view .LVU311
 1198 00c4 FFF7FEFF 		bl	lv_disp_get_default
 1199              	.LVL129:
 1200 00c8 FFF7FEFF 		bl	lv_disp_get_scr_act
 1201              	.LVL130:
 1202              	.LBE205:
 1203              	.LBE204:
 263:Drivers/lvgl/src/core/lv_disp.c **** 
 1204              		.loc 1 263 5 view .LVU312
 1205 00cc 0022     		movs	r2, #0
 1206 00ce 6021     		movs	r1, #96
 1207 00d0 FFF7FEFF 		bl	lv_obj_remove_local_style_prop
 1208              	.LVL131:
 266:Drivers/lvgl/src/core/lv_disp.c ****         scr_load_internal(new_scr);
 1209              		.loc 1 266 5 is_stmt 1 view .LVU313
 266:Drivers/lvgl/src/core/lv_disp.c ****         scr_load_internal(new_scr);
 1210              		.loc 1 266 7 is_stmt 0 view .LVU314
 1211 00d4 B9F1000F 		cmp	r9, #0
 1212 00d8 00D1     		bne	.L78
 266:Drivers/lvgl/src/core/lv_disp.c ****         scr_load_internal(new_scr);
 1213              		.loc 1 266 18 discriminator 1 view .LVU315
 1214 00da 86B3     		cbz	r6, .L102
 1215              	.L78:
 272:Drivers/lvgl/src/core/lv_disp.c ****     lv_anim_init(&a_new);
 1216              		.loc 1 272 5 is_stmt 1 view .LVU316
 273:Drivers/lvgl/src/core/lv_disp.c ****     lv_anim_set_var(&a_new, new_scr);
 1217              		.loc 1 273 5 view .LVU317
 1218 00dc 11A8     		add	r0, sp, #68
 1219 00de FFF7FEFF 		bl	lv_anim_init
 1220              	.LVL132:
 274:Drivers/lvgl/src/core/lv_disp.c ****     lv_anim_set_start_cb(&a_new, scr_load_anim_start);
 1221              		.loc 1 274 5 view .LVU318
 1222              	.LBB206:
 1223              	.LBI206:
 1224              		.file 3 "Drivers/lvgl/src/core/../hal/../draw/../misc/lv_anim.h"
   1:Drivers/lvgl/src/core/../hal/../draw/../misc/lv_anim.h **** /**
   2:Drivers/lvgl/src/core/../hal/../draw/../misc/lv_anim.h ****  * @file lv_anim.h
   3:Drivers/lvgl/src/core/../hal/../draw/../misc/lv_anim.h ****  *
   4:Drivers/lvgl/src/core/../hal/../draw/../misc/lv_anim.h ****  */
   5:Drivers/lvgl/src/core/../hal/../draw/../misc/lv_anim.h **** 
   6:Drivers/lvgl/src/core/../hal/../draw/../misc/lv_anim.h **** #ifndef LV_ANIM_H
   7:Drivers/lvgl/src/core/../hal/../draw/../misc/lv_anim.h **** #define LV_ANIM_H
   8:Drivers/lvgl/src/core/../hal/../draw/../misc/lv_anim.h **** 
   9:Drivers/lvgl/src/core/../hal/../draw/../misc/lv_anim.h **** #ifdef __cplusplus
ARM GAS  /var/folders/0z/tsy30v1j4xl4_7kw94k978ww0000gn/T//ccvV8C1Y.s 			page 40


  10:Drivers/lvgl/src/core/../hal/../draw/../misc/lv_anim.h **** extern "C" {
  11:Drivers/lvgl/src/core/../hal/../draw/../misc/lv_anim.h **** #endif
  12:Drivers/lvgl/src/core/../hal/../draw/../misc/lv_anim.h **** 
  13:Drivers/lvgl/src/core/../hal/../draw/../misc/lv_anim.h **** /*********************
  14:Drivers/lvgl/src/core/../hal/../draw/../misc/lv_anim.h ****  *      INCLUDES
  15:Drivers/lvgl/src/core/../hal/../draw/../misc/lv_anim.h ****  *********************/
  16:Drivers/lvgl/src/core/../hal/../draw/../misc/lv_anim.h **** #include "../lv_conf_internal.h"
  17:Drivers/lvgl/src/core/../hal/../draw/../misc/lv_anim.h **** 
  18:Drivers/lvgl/src/core/../hal/../draw/../misc/lv_anim.h **** #include <stdint.h>
  19:Drivers/lvgl/src/core/../hal/../draw/../misc/lv_anim.h **** #include <stdbool.h>
  20:Drivers/lvgl/src/core/../hal/../draw/../misc/lv_anim.h **** #include <stddef.h>
  21:Drivers/lvgl/src/core/../hal/../draw/../misc/lv_anim.h **** 
  22:Drivers/lvgl/src/core/../hal/../draw/../misc/lv_anim.h **** /*********************
  23:Drivers/lvgl/src/core/../hal/../draw/../misc/lv_anim.h ****  *      DEFINES
  24:Drivers/lvgl/src/core/../hal/../draw/../misc/lv_anim.h ****  *********************/
  25:Drivers/lvgl/src/core/../hal/../draw/../misc/lv_anim.h **** 
  26:Drivers/lvgl/src/core/../hal/../draw/../misc/lv_anim.h **** #define LV_ANIM_REPEAT_INFINITE      0xFFFF
  27:Drivers/lvgl/src/core/../hal/../draw/../misc/lv_anim.h **** #define LV_ANIM_PLAYTIME_INFINITE    0xFFFFFFFF
  28:Drivers/lvgl/src/core/../hal/../draw/../misc/lv_anim.h **** 
  29:Drivers/lvgl/src/core/../hal/../draw/../misc/lv_anim.h **** LV_EXPORT_CONST_INT(LV_ANIM_REPEAT_INFINITE);
  30:Drivers/lvgl/src/core/../hal/../draw/../misc/lv_anim.h **** LV_EXPORT_CONST_INT(LV_ANIM_PLAYTIME_INFINITE);
  31:Drivers/lvgl/src/core/../hal/../draw/../misc/lv_anim.h **** 
  32:Drivers/lvgl/src/core/../hal/../draw/../misc/lv_anim.h **** /**********************
  33:Drivers/lvgl/src/core/../hal/../draw/../misc/lv_anim.h ****  *      TYPEDEFS
  34:Drivers/lvgl/src/core/../hal/../draw/../misc/lv_anim.h ****  **********************/
  35:Drivers/lvgl/src/core/../hal/../draw/../misc/lv_anim.h **** 
  36:Drivers/lvgl/src/core/../hal/../draw/../misc/lv_anim.h **** /** Can be used to indicate if animations are enabled or disabled in a case*/
  37:Drivers/lvgl/src/core/../hal/../draw/../misc/lv_anim.h **** typedef enum {
  38:Drivers/lvgl/src/core/../hal/../draw/../misc/lv_anim.h ****     LV_ANIM_OFF,
  39:Drivers/lvgl/src/core/../hal/../draw/../misc/lv_anim.h ****     LV_ANIM_ON,
  40:Drivers/lvgl/src/core/../hal/../draw/../misc/lv_anim.h **** } lv_anim_enable_t;
  41:Drivers/lvgl/src/core/../hal/../draw/../misc/lv_anim.h **** 
  42:Drivers/lvgl/src/core/../hal/../draw/../misc/lv_anim.h **** struct _lv_anim_t;
  43:Drivers/lvgl/src/core/../hal/../draw/../misc/lv_anim.h **** struct _lv_timer_t;
  44:Drivers/lvgl/src/core/../hal/../draw/../misc/lv_anim.h **** 
  45:Drivers/lvgl/src/core/../hal/../draw/../misc/lv_anim.h **** /** Get the current value during an animation*/
  46:Drivers/lvgl/src/core/../hal/../draw/../misc/lv_anim.h **** typedef int32_t (*lv_anim_path_cb_t)(const struct _lv_anim_t *);
  47:Drivers/lvgl/src/core/../hal/../draw/../misc/lv_anim.h **** 
  48:Drivers/lvgl/src/core/../hal/../draw/../misc/lv_anim.h **** /** Generic prototype of "animator" functions.
  49:Drivers/lvgl/src/core/../hal/../draw/../misc/lv_anim.h ****  * First parameter is the variable to animate.
  50:Drivers/lvgl/src/core/../hal/../draw/../misc/lv_anim.h ****  * Second parameter is the value to set.
  51:Drivers/lvgl/src/core/../hal/../draw/../misc/lv_anim.h ****  * Compatible with `lv_xxx_set_yyy(obj, value)` functions
  52:Drivers/lvgl/src/core/../hal/../draw/../misc/lv_anim.h ****  * The `x` in `_xcb_t` means it's not a fully generic prototype because
  53:Drivers/lvgl/src/core/../hal/../draw/../misc/lv_anim.h ****  * it doesn't receive `lv_anim_t *` as its first argument*/
  54:Drivers/lvgl/src/core/../hal/../draw/../misc/lv_anim.h **** typedef void (*lv_anim_exec_xcb_t)(void *, int32_t);
  55:Drivers/lvgl/src/core/../hal/../draw/../misc/lv_anim.h **** 
  56:Drivers/lvgl/src/core/../hal/../draw/../misc/lv_anim.h **** /** Same as `lv_anim_exec_xcb_t` but receives `lv_anim_t *` as the first parameter.
  57:Drivers/lvgl/src/core/../hal/../draw/../misc/lv_anim.h ****  * It's more consistent but less convenient. Might be used by binding generator functions.*/
  58:Drivers/lvgl/src/core/../hal/../draw/../misc/lv_anim.h **** typedef void (*lv_anim_custom_exec_cb_t)(struct _lv_anim_t *, int32_t);
  59:Drivers/lvgl/src/core/../hal/../draw/../misc/lv_anim.h **** 
  60:Drivers/lvgl/src/core/../hal/../draw/../misc/lv_anim.h **** /** Callback to call when the animation is ready*/
  61:Drivers/lvgl/src/core/../hal/../draw/../misc/lv_anim.h **** typedef void (*lv_anim_ready_cb_t)(struct _lv_anim_t *);
  62:Drivers/lvgl/src/core/../hal/../draw/../misc/lv_anim.h **** 
  63:Drivers/lvgl/src/core/../hal/../draw/../misc/lv_anim.h **** /** Callback to call when the animation really stars (considering `delay`)*/
  64:Drivers/lvgl/src/core/../hal/../draw/../misc/lv_anim.h **** typedef void (*lv_anim_start_cb_t)(struct _lv_anim_t *);
  65:Drivers/lvgl/src/core/../hal/../draw/../misc/lv_anim.h **** 
  66:Drivers/lvgl/src/core/../hal/../draw/../misc/lv_anim.h **** /** Callback used when the animation values are relative to get the current value*/
ARM GAS  /var/folders/0z/tsy30v1j4xl4_7kw94k978ww0000gn/T//ccvV8C1Y.s 			page 41


  67:Drivers/lvgl/src/core/../hal/../draw/../misc/lv_anim.h **** typedef int32_t (*lv_anim_get_value_cb_t)(struct _lv_anim_t *);
  68:Drivers/lvgl/src/core/../hal/../draw/../misc/lv_anim.h **** 
  69:Drivers/lvgl/src/core/../hal/../draw/../misc/lv_anim.h **** /** Callback used when the animation is deleted*/
  70:Drivers/lvgl/src/core/../hal/../draw/../misc/lv_anim.h **** typedef void (*lv_anim_deleted_cb_t)(struct _lv_anim_t *);
  71:Drivers/lvgl/src/core/../hal/../draw/../misc/lv_anim.h **** 
  72:Drivers/lvgl/src/core/../hal/../draw/../misc/lv_anim.h **** /** Describes an animation*/
  73:Drivers/lvgl/src/core/../hal/../draw/../misc/lv_anim.h **** typedef struct _lv_anim_t {
  74:Drivers/lvgl/src/core/../hal/../draw/../misc/lv_anim.h ****     void * var;                          /**<Variable to animate*/
  75:Drivers/lvgl/src/core/../hal/../draw/../misc/lv_anim.h ****     lv_anim_exec_xcb_t exec_cb;          /**< Function to execute to animate*/
  76:Drivers/lvgl/src/core/../hal/../draw/../misc/lv_anim.h ****     lv_anim_start_cb_t start_cb;         /**< Call it when the animation is starts (considering `de
  77:Drivers/lvgl/src/core/../hal/../draw/../misc/lv_anim.h ****     lv_anim_ready_cb_t ready_cb;         /**< Call it when the animation is ready*/
  78:Drivers/lvgl/src/core/../hal/../draw/../misc/lv_anim.h ****     lv_anim_deleted_cb_t deleted_cb;     /**< Call it when the animation is deleted*/
  79:Drivers/lvgl/src/core/../hal/../draw/../misc/lv_anim.h ****     lv_anim_get_value_cb_t get_value_cb; /**< Get the current value in relative mode*/
  80:Drivers/lvgl/src/core/../hal/../draw/../misc/lv_anim.h **** #if LV_USE_USER_DATA
  81:Drivers/lvgl/src/core/../hal/../draw/../misc/lv_anim.h ****     void * user_data; /**< Custom user data*/
  82:Drivers/lvgl/src/core/../hal/../draw/../misc/lv_anim.h **** #endif
  83:Drivers/lvgl/src/core/../hal/../draw/../misc/lv_anim.h ****     lv_anim_path_cb_t path_cb;         /**< Describe the path (curve) of animations*/
  84:Drivers/lvgl/src/core/../hal/../draw/../misc/lv_anim.h ****     int32_t start_value;               /**< Start value*/
  85:Drivers/lvgl/src/core/../hal/../draw/../misc/lv_anim.h ****     int32_t current_value;             /**< Current value*/
  86:Drivers/lvgl/src/core/../hal/../draw/../misc/lv_anim.h ****     int32_t end_value;                 /**< End value*/
  87:Drivers/lvgl/src/core/../hal/../draw/../misc/lv_anim.h ****     int32_t time;                /**< Animation time in ms*/
  88:Drivers/lvgl/src/core/../hal/../draw/../misc/lv_anim.h ****     int32_t act_time;            /**< Current time in animation. Set to negative to make delay.*/
  89:Drivers/lvgl/src/core/../hal/../draw/../misc/lv_anim.h ****     uint32_t playback_delay;     /**< Wait before play back*/
  90:Drivers/lvgl/src/core/../hal/../draw/../misc/lv_anim.h ****     uint32_t playback_time;      /**< Duration of playback animation*/
  91:Drivers/lvgl/src/core/../hal/../draw/../misc/lv_anim.h ****     uint32_t repeat_delay;       /**< Wait before repeat*/
  92:Drivers/lvgl/src/core/../hal/../draw/../misc/lv_anim.h ****     uint16_t repeat_cnt;         /**< Repeat count for the animation*/
  93:Drivers/lvgl/src/core/../hal/../draw/../misc/lv_anim.h ****     uint8_t early_apply  : 1;    /**< 1: Apply start value immediately even is there is `delay`*/
  94:Drivers/lvgl/src/core/../hal/../draw/../misc/lv_anim.h **** 
  95:Drivers/lvgl/src/core/../hal/../draw/../misc/lv_anim.h ****     /*Animation system use these - user shouldn't set*/
  96:Drivers/lvgl/src/core/../hal/../draw/../misc/lv_anim.h ****     uint8_t playback_now : 1; /**< Play back is in progress*/
  97:Drivers/lvgl/src/core/../hal/../draw/../misc/lv_anim.h ****     uint8_t run_round : 1;    /**< Indicates the animation has run in this round*/
  98:Drivers/lvgl/src/core/../hal/../draw/../misc/lv_anim.h ****     uint8_t start_cb_called : 1;    /**< Indicates that the `start_cb` was already called*/
  99:Drivers/lvgl/src/core/../hal/../draw/../misc/lv_anim.h **** } lv_anim_t;
 100:Drivers/lvgl/src/core/../hal/../draw/../misc/lv_anim.h **** 
 101:Drivers/lvgl/src/core/../hal/../draw/../misc/lv_anim.h **** /**********************
 102:Drivers/lvgl/src/core/../hal/../draw/../misc/lv_anim.h ****  * GLOBAL PROTOTYPES
 103:Drivers/lvgl/src/core/../hal/../draw/../misc/lv_anim.h ****  **********************/
 104:Drivers/lvgl/src/core/../hal/../draw/../misc/lv_anim.h **** 
 105:Drivers/lvgl/src/core/../hal/../draw/../misc/lv_anim.h **** /**
 106:Drivers/lvgl/src/core/../hal/../draw/../misc/lv_anim.h ****  * Init. the animation module
 107:Drivers/lvgl/src/core/../hal/../draw/../misc/lv_anim.h ****  */
 108:Drivers/lvgl/src/core/../hal/../draw/../misc/lv_anim.h **** void _lv_anim_core_init(void);
 109:Drivers/lvgl/src/core/../hal/../draw/../misc/lv_anim.h **** 
 110:Drivers/lvgl/src/core/../hal/../draw/../misc/lv_anim.h **** /**
 111:Drivers/lvgl/src/core/../hal/../draw/../misc/lv_anim.h ****  * Initialize an animation variable.
 112:Drivers/lvgl/src/core/../hal/../draw/../misc/lv_anim.h ****  * E.g.:
 113:Drivers/lvgl/src/core/../hal/../draw/../misc/lv_anim.h ****  * lv_anim_t a;
 114:Drivers/lvgl/src/core/../hal/../draw/../misc/lv_anim.h ****  * lv_anim_init(&a);
 115:Drivers/lvgl/src/core/../hal/../draw/../misc/lv_anim.h ****  * lv_anim_set_...(&a);
 116:Drivers/lvgl/src/core/../hal/../draw/../misc/lv_anim.h ****  * lv_anim_start(&a);
 117:Drivers/lvgl/src/core/../hal/../draw/../misc/lv_anim.h ****  * @param a     pointer to an `lv_anim_t` variable to initialize
 118:Drivers/lvgl/src/core/../hal/../draw/../misc/lv_anim.h ****  */
 119:Drivers/lvgl/src/core/../hal/../draw/../misc/lv_anim.h **** void lv_anim_init(lv_anim_t * a);
 120:Drivers/lvgl/src/core/../hal/../draw/../misc/lv_anim.h **** 
 121:Drivers/lvgl/src/core/../hal/../draw/../misc/lv_anim.h **** /**
 122:Drivers/lvgl/src/core/../hal/../draw/../misc/lv_anim.h ****  * Set a variable to animate
 123:Drivers/lvgl/src/core/../hal/../draw/../misc/lv_anim.h ****  * @param a     pointer to an initialized `lv_anim_t` variable
ARM GAS  /var/folders/0z/tsy30v1j4xl4_7kw94k978ww0000gn/T//ccvV8C1Y.s 			page 42


 124:Drivers/lvgl/src/core/../hal/../draw/../misc/lv_anim.h ****  * @param var   pointer to a variable to animate
 125:Drivers/lvgl/src/core/../hal/../draw/../misc/lv_anim.h ****  */
 126:Drivers/lvgl/src/core/../hal/../draw/../misc/lv_anim.h **** static inline void lv_anim_set_var(lv_anim_t * a, void * var)
 1225              		.loc 3 126 20 view .LVU319
 1226              	.LBB207:
 127:Drivers/lvgl/src/core/../hal/../draw/../misc/lv_anim.h **** {
 128:Drivers/lvgl/src/core/../hal/../draw/../misc/lv_anim.h ****     a->var = var;
 1227              		.loc 3 128 5 view .LVU320
 1228              		.loc 3 128 12 is_stmt 0 view .LVU321
 1229 00e2 1195     		str	r5, [sp, #68]
 1230              	.LVL133:
 1231              		.loc 3 128 12 view .LVU322
 1232              	.LBE207:
 1233              	.LBE206:
 275:Drivers/lvgl/src/core/lv_disp.c ****     lv_anim_set_ready_cb(&a_new, scr_anim_ready);
 1234              		.loc 1 275 5 is_stmt 1 view .LVU323
 1235              	.LBB208:
 1236              	.LBI208:
 129:Drivers/lvgl/src/core/../hal/../draw/../misc/lv_anim.h **** }
 130:Drivers/lvgl/src/core/../hal/../draw/../misc/lv_anim.h **** 
 131:Drivers/lvgl/src/core/../hal/../draw/../misc/lv_anim.h **** /**
 132:Drivers/lvgl/src/core/../hal/../draw/../misc/lv_anim.h ****  * Set a function to animate `var`
 133:Drivers/lvgl/src/core/../hal/../draw/../misc/lv_anim.h ****  * @param a         pointer to an initialized `lv_anim_t` variable
 134:Drivers/lvgl/src/core/../hal/../draw/../misc/lv_anim.h ****  * @param exec_cb   a function to execute during animation
 135:Drivers/lvgl/src/core/../hal/../draw/../misc/lv_anim.h ****  *                  LVGL's built-in functions can be used.
 136:Drivers/lvgl/src/core/../hal/../draw/../misc/lv_anim.h ****  *                  E.g. lv_obj_set_x
 137:Drivers/lvgl/src/core/../hal/../draw/../misc/lv_anim.h ****  */
 138:Drivers/lvgl/src/core/../hal/../draw/../misc/lv_anim.h **** static inline void lv_anim_set_exec_cb(lv_anim_t * a, lv_anim_exec_xcb_t exec_cb)
 139:Drivers/lvgl/src/core/../hal/../draw/../misc/lv_anim.h **** {
 140:Drivers/lvgl/src/core/../hal/../draw/../misc/lv_anim.h ****     a->exec_cb = exec_cb;
 141:Drivers/lvgl/src/core/../hal/../draw/../misc/lv_anim.h **** }
 142:Drivers/lvgl/src/core/../hal/../draw/../misc/lv_anim.h **** 
 143:Drivers/lvgl/src/core/../hal/../draw/../misc/lv_anim.h **** /**
 144:Drivers/lvgl/src/core/../hal/../draw/../misc/lv_anim.h ****  * Set the duration of an animation
 145:Drivers/lvgl/src/core/../hal/../draw/../misc/lv_anim.h ****  * @param a         pointer to an initialized `lv_anim_t` variable
 146:Drivers/lvgl/src/core/../hal/../draw/../misc/lv_anim.h ****  * @param duration  duration of the animation in milliseconds
 147:Drivers/lvgl/src/core/../hal/../draw/../misc/lv_anim.h ****  */
 148:Drivers/lvgl/src/core/../hal/../draw/../misc/lv_anim.h **** static inline void lv_anim_set_time(lv_anim_t * a, uint32_t duration)
 149:Drivers/lvgl/src/core/../hal/../draw/../misc/lv_anim.h **** {
 150:Drivers/lvgl/src/core/../hal/../draw/../misc/lv_anim.h ****     a->time = duration;
 151:Drivers/lvgl/src/core/../hal/../draw/../misc/lv_anim.h **** }
 152:Drivers/lvgl/src/core/../hal/../draw/../misc/lv_anim.h **** 
 153:Drivers/lvgl/src/core/../hal/../draw/../misc/lv_anim.h **** /**
 154:Drivers/lvgl/src/core/../hal/../draw/../misc/lv_anim.h ****  * Set a delay before starting the animation
 155:Drivers/lvgl/src/core/../hal/../draw/../misc/lv_anim.h ****  * @param a         pointer to an initialized `lv_anim_t` variable
 156:Drivers/lvgl/src/core/../hal/../draw/../misc/lv_anim.h ****  * @param delay     delay before the animation in milliseconds
 157:Drivers/lvgl/src/core/../hal/../draw/../misc/lv_anim.h ****  */
 158:Drivers/lvgl/src/core/../hal/../draw/../misc/lv_anim.h **** static inline void lv_anim_set_delay(lv_anim_t * a, uint32_t delay)
 159:Drivers/lvgl/src/core/../hal/../draw/../misc/lv_anim.h **** {
 160:Drivers/lvgl/src/core/../hal/../draw/../misc/lv_anim.h ****     a->act_time = -(int32_t)(delay);
 161:Drivers/lvgl/src/core/../hal/../draw/../misc/lv_anim.h **** }
 162:Drivers/lvgl/src/core/../hal/../draw/../misc/lv_anim.h **** 
 163:Drivers/lvgl/src/core/../hal/../draw/../misc/lv_anim.h **** /**
 164:Drivers/lvgl/src/core/../hal/../draw/../misc/lv_anim.h ****  * Set the start and end values of an animation
 165:Drivers/lvgl/src/core/../hal/../draw/../misc/lv_anim.h ****  * @param a         pointer to an initialized `lv_anim_t` variable
 166:Drivers/lvgl/src/core/../hal/../draw/../misc/lv_anim.h ****  * @param start     the start value
 167:Drivers/lvgl/src/core/../hal/../draw/../misc/lv_anim.h ****  * @param end       the end value
ARM GAS  /var/folders/0z/tsy30v1j4xl4_7kw94k978ww0000gn/T//ccvV8C1Y.s 			page 43


 168:Drivers/lvgl/src/core/../hal/../draw/../misc/lv_anim.h ****  */
 169:Drivers/lvgl/src/core/../hal/../draw/../misc/lv_anim.h **** static inline void lv_anim_set_values(lv_anim_t * a, int32_t start, int32_t end)
 170:Drivers/lvgl/src/core/../hal/../draw/../misc/lv_anim.h **** {
 171:Drivers/lvgl/src/core/../hal/../draw/../misc/lv_anim.h ****     a->start_value = start;
 172:Drivers/lvgl/src/core/../hal/../draw/../misc/lv_anim.h ****     a->current_value = start;
 173:Drivers/lvgl/src/core/../hal/../draw/../misc/lv_anim.h ****     a->end_value = end;
 174:Drivers/lvgl/src/core/../hal/../draw/../misc/lv_anim.h **** }
 175:Drivers/lvgl/src/core/../hal/../draw/../misc/lv_anim.h **** 
 176:Drivers/lvgl/src/core/../hal/../draw/../misc/lv_anim.h **** /**
 177:Drivers/lvgl/src/core/../hal/../draw/../misc/lv_anim.h ****  * Similar to `lv_anim_set_exec_cb` but `lv_anim_custom_exec_cb_t` receives
 178:Drivers/lvgl/src/core/../hal/../draw/../misc/lv_anim.h ****  * `lv_anim_t * ` as its first parameter instead of `void *`.
 179:Drivers/lvgl/src/core/../hal/../draw/../misc/lv_anim.h ****  * This function might be used when LVGL is bound to other languages because
 180:Drivers/lvgl/src/core/../hal/../draw/../misc/lv_anim.h ****  * it's more consistent to have `lv_anim_t *` as first parameter.
 181:Drivers/lvgl/src/core/../hal/../draw/../misc/lv_anim.h ****  * The variable to animate can be stored in the animation's `user_data`
 182:Drivers/lvgl/src/core/../hal/../draw/../misc/lv_anim.h ****  * @param a         pointer to an initialized `lv_anim_t` variable
 183:Drivers/lvgl/src/core/../hal/../draw/../misc/lv_anim.h ****  * @param exec_cb   a function to execute.
 184:Drivers/lvgl/src/core/../hal/../draw/../misc/lv_anim.h ****  */
 185:Drivers/lvgl/src/core/../hal/../draw/../misc/lv_anim.h **** static inline void lv_anim_set_custom_exec_cb(lv_anim_t * a, lv_anim_custom_exec_cb_t exec_cb)
 186:Drivers/lvgl/src/core/../hal/../draw/../misc/lv_anim.h **** {
 187:Drivers/lvgl/src/core/../hal/../draw/../misc/lv_anim.h ****     a->var     = a;
 188:Drivers/lvgl/src/core/../hal/../draw/../misc/lv_anim.h ****     a->exec_cb = (lv_anim_exec_xcb_t)exec_cb;
 189:Drivers/lvgl/src/core/../hal/../draw/../misc/lv_anim.h **** }
 190:Drivers/lvgl/src/core/../hal/../draw/../misc/lv_anim.h **** 
 191:Drivers/lvgl/src/core/../hal/../draw/../misc/lv_anim.h **** /**
 192:Drivers/lvgl/src/core/../hal/../draw/../misc/lv_anim.h ****  * Set the path (curve) of the animation.
 193:Drivers/lvgl/src/core/../hal/../draw/../misc/lv_anim.h ****  * @param a         pointer to an initialized `lv_anim_t` variable
 194:Drivers/lvgl/src/core/../hal/../draw/../misc/lv_anim.h ****  * @param path_cb a function to set the current value of the animation.
 195:Drivers/lvgl/src/core/../hal/../draw/../misc/lv_anim.h ****  */
 196:Drivers/lvgl/src/core/../hal/../draw/../misc/lv_anim.h **** static inline void lv_anim_set_path_cb(lv_anim_t * a, lv_anim_path_cb_t path_cb)
 197:Drivers/lvgl/src/core/../hal/../draw/../misc/lv_anim.h **** {
 198:Drivers/lvgl/src/core/../hal/../draw/../misc/lv_anim.h ****     a->path_cb = path_cb;
 199:Drivers/lvgl/src/core/../hal/../draw/../misc/lv_anim.h **** }
 200:Drivers/lvgl/src/core/../hal/../draw/../misc/lv_anim.h **** 
 201:Drivers/lvgl/src/core/../hal/../draw/../misc/lv_anim.h **** /**
 202:Drivers/lvgl/src/core/../hal/../draw/../misc/lv_anim.h ****  * Set a function call when the animation really starts (considering `delay`)
 203:Drivers/lvgl/src/core/../hal/../draw/../misc/lv_anim.h ****  * @param a         pointer to an initialized `lv_anim_t` variable
 204:Drivers/lvgl/src/core/../hal/../draw/../misc/lv_anim.h ****  * @param start_cb  a function call when the animation starts
 205:Drivers/lvgl/src/core/../hal/../draw/../misc/lv_anim.h ****  */
 206:Drivers/lvgl/src/core/../hal/../draw/../misc/lv_anim.h **** static inline void lv_anim_set_start_cb(lv_anim_t * a, lv_anim_start_cb_t start_cb)
 1237              		.loc 3 206 20 view .LVU324
 1238              	.LBB209:
 207:Drivers/lvgl/src/core/../hal/../draw/../misc/lv_anim.h **** {
 208:Drivers/lvgl/src/core/../hal/../draw/../misc/lv_anim.h ****     a->start_cb = start_cb;
 1239              		.loc 3 208 5 view .LVU325
 1240              		.loc 3 208 17 is_stmt 0 view .LVU326
 1241 00e4 7B4B     		ldr	r3, .L103
 1242 00e6 1393     		str	r3, [sp, #76]
 1243              	.LVL134:
 1244              		.loc 3 208 17 view .LVU327
 1245              	.LBE209:
 1246              	.LBE208:
 276:Drivers/lvgl/src/core/lv_disp.c ****     lv_anim_set_time(&a_new, time);
 1247              		.loc 1 276 5 is_stmt 1 view .LVU328
 1248              	.LBB210:
 1249              	.LBI210:
 209:Drivers/lvgl/src/core/../hal/../draw/../misc/lv_anim.h **** }
 210:Drivers/lvgl/src/core/../hal/../draw/../misc/lv_anim.h **** 
ARM GAS  /var/folders/0z/tsy30v1j4xl4_7kw94k978ww0000gn/T//ccvV8C1Y.s 			page 44


 211:Drivers/lvgl/src/core/../hal/../draw/../misc/lv_anim.h **** /**
 212:Drivers/lvgl/src/core/../hal/../draw/../misc/lv_anim.h ****  * Set a function to use the current value of the variable and make start and end value
 213:Drivers/lvgl/src/core/../hal/../draw/../misc/lv_anim.h ****  * relative to the returned current value.
 214:Drivers/lvgl/src/core/../hal/../draw/../misc/lv_anim.h ****  * @param a             pointer to an initialized `lv_anim_t` variable
 215:Drivers/lvgl/src/core/../hal/../draw/../misc/lv_anim.h ****  * @param get_value_cb  a function call when the animation starts
 216:Drivers/lvgl/src/core/../hal/../draw/../misc/lv_anim.h ****  */
 217:Drivers/lvgl/src/core/../hal/../draw/../misc/lv_anim.h **** static inline void lv_anim_set_get_value_cb(lv_anim_t * a, lv_anim_get_value_cb_t get_value_cb)
 218:Drivers/lvgl/src/core/../hal/../draw/../misc/lv_anim.h **** {
 219:Drivers/lvgl/src/core/../hal/../draw/../misc/lv_anim.h ****     a->get_value_cb = get_value_cb;
 220:Drivers/lvgl/src/core/../hal/../draw/../misc/lv_anim.h **** }
 221:Drivers/lvgl/src/core/../hal/../draw/../misc/lv_anim.h **** 
 222:Drivers/lvgl/src/core/../hal/../draw/../misc/lv_anim.h **** /**
 223:Drivers/lvgl/src/core/../hal/../draw/../misc/lv_anim.h ****  * Set a function call when the animation is ready
 224:Drivers/lvgl/src/core/../hal/../draw/../misc/lv_anim.h ****  * @param a         pointer to an initialized `lv_anim_t` variable
 225:Drivers/lvgl/src/core/../hal/../draw/../misc/lv_anim.h ****  * @param ready_cb  a function call when the animation is ready
 226:Drivers/lvgl/src/core/../hal/../draw/../misc/lv_anim.h ****  */
 227:Drivers/lvgl/src/core/../hal/../draw/../misc/lv_anim.h **** static inline void lv_anim_set_ready_cb(lv_anim_t * a, lv_anim_ready_cb_t ready_cb)
 1250              		.loc 3 227 20 view .LVU329
 1251              	.LBB211:
 228:Drivers/lvgl/src/core/../hal/../draw/../misc/lv_anim.h **** {
 229:Drivers/lvgl/src/core/../hal/../draw/../misc/lv_anim.h ****     a->ready_cb = ready_cb;
 1252              		.loc 3 229 5 view .LVU330
 1253              		.loc 3 229 17 is_stmt 0 view .LVU331
 1254 00e8 7B4B     		ldr	r3, .L103+4
 1255 00ea 1493     		str	r3, [sp, #80]
 1256              	.LVL135:
 1257              		.loc 3 229 17 view .LVU332
 1258              	.LBE211:
 1259              	.LBE210:
 277:Drivers/lvgl/src/core/lv_disp.c ****     lv_anim_set_delay(&a_new, delay);
 1260              		.loc 1 277 5 is_stmt 1 view .LVU333
 1261              	.LBB212:
 1262              	.LBI212:
 148:Drivers/lvgl/src/core/../hal/../draw/../misc/lv_anim.h **** {
 1263              		.loc 3 148 20 view .LVU334
 1264              	.LBB213:
 150:Drivers/lvgl/src/core/../hal/../draw/../misc/lv_anim.h **** }
 1265              		.loc 3 150 5 view .LVU335
 150:Drivers/lvgl/src/core/../hal/../draw/../misc/lv_anim.h **** }
 1266              		.loc 3 150 13 is_stmt 0 view .LVU336
 1267 00ec CDF87090 		str	r9, [sp, #112]
 1268              	.LVL136:
 150:Drivers/lvgl/src/core/../hal/../draw/../misc/lv_anim.h **** }
 1269              		.loc 3 150 13 view .LVU337
 1270              	.LBE213:
 1271              	.LBE212:
 278:Drivers/lvgl/src/core/lv_disp.c **** 
 1272              		.loc 1 278 5 is_stmt 1 view .LVU338
 1273              	.LBB214:
 1274              	.LBI214:
 158:Drivers/lvgl/src/core/../hal/../draw/../misc/lv_anim.h **** {
 1275              		.loc 3 158 20 view .LVU339
 1276              	.LBB215:
 160:Drivers/lvgl/src/core/../hal/../draw/../misc/lv_anim.h **** }
 1277              		.loc 3 160 5 view .LVU340
 160:Drivers/lvgl/src/core/../hal/../draw/../misc/lv_anim.h **** }
 1278              		.loc 3 160 19 is_stmt 0 view .LVU341
ARM GAS  /var/folders/0z/tsy30v1j4xl4_7kw94k978ww0000gn/T//ccvV8C1Y.s 			page 45


 1279 00f0 7642     		rsbs	r6, r6, #0
 1280              	.LVL137:
 160:Drivers/lvgl/src/core/../hal/../draw/../misc/lv_anim.h **** }
 1281              		.loc 3 160 17 view .LVU342
 1282 00f2 1D96     		str	r6, [sp, #116]
 1283              	.LVL138:
 160:Drivers/lvgl/src/core/../hal/../draw/../misc/lv_anim.h **** }
 1284              		.loc 3 160 17 view .LVU343
 1285              	.LBE215:
 1286              	.LBE214:
 280:Drivers/lvgl/src/core/lv_disp.c ****     lv_anim_init(&a_old);
 1287              		.loc 1 280 5 is_stmt 1 view .LVU344
 281:Drivers/lvgl/src/core/lv_disp.c ****     lv_anim_set_var(&a_old, d->act_scr);
 1288              		.loc 1 281 5 view .LVU345
 1289 00f4 6846     		mov	r0, sp
 1290 00f6 FFF7FEFF 		bl	lv_anim_init
 1291              	.LVL139:
 282:Drivers/lvgl/src/core/lv_disp.c ****     lv_anim_set_time(&a_old, time);
 1292              		.loc 1 282 5 view .LVU346
 282:Drivers/lvgl/src/core/lv_disp.c ****     lv_anim_set_time(&a_old, time);
 1293              		.loc 1 282 30 is_stmt 0 view .LVU347
 1294 00fa 2369     		ldr	r3, [r4, #16]
 1295              	.LVL140:
 1296              	.LBB216:
 1297              	.LBI216:
 126:Drivers/lvgl/src/core/../hal/../draw/../misc/lv_anim.h **** {
 1298              		.loc 3 126 20 is_stmt 1 view .LVU348
 1299              	.LBB217:
 128:Drivers/lvgl/src/core/../hal/../draw/../misc/lv_anim.h **** }
 1300              		.loc 3 128 5 view .LVU349
 128:Drivers/lvgl/src/core/../hal/../draw/../misc/lv_anim.h **** }
 1301              		.loc 3 128 12 is_stmt 0 view .LVU350
 1302 00fc 0093     		str	r3, [sp]
 1303              	.LVL141:
 128:Drivers/lvgl/src/core/../hal/../draw/../misc/lv_anim.h **** }
 1304              		.loc 3 128 12 view .LVU351
 1305              	.LBE217:
 1306              	.LBE216:
 283:Drivers/lvgl/src/core/lv_disp.c ****     lv_anim_set_delay(&a_old, delay);
 1307              		.loc 1 283 5 is_stmt 1 view .LVU352
 1308              	.LBB218:
 1309              	.LBI218:
 148:Drivers/lvgl/src/core/../hal/../draw/../misc/lv_anim.h **** {
 1310              		.loc 3 148 20 view .LVU353
 1311              	.LBB219:
 150:Drivers/lvgl/src/core/../hal/../draw/../misc/lv_anim.h **** }
 1312              		.loc 3 150 5 view .LVU354
 150:Drivers/lvgl/src/core/../hal/../draw/../misc/lv_anim.h **** }
 1313              		.loc 3 150 13 is_stmt 0 view .LVU355
 1314 00fe CDF82C90 		str	r9, [sp, #44]
 1315              	.LVL142:
 150:Drivers/lvgl/src/core/../hal/../draw/../misc/lv_anim.h **** }
 1316              		.loc 3 150 13 view .LVU356
 1317              	.LBE219:
 1318              	.LBE218:
 284:Drivers/lvgl/src/core/lv_disp.c **** 
 1319              		.loc 1 284 5 is_stmt 1 view .LVU357
ARM GAS  /var/folders/0z/tsy30v1j4xl4_7kw94k978ww0000gn/T//ccvV8C1Y.s 			page 46


 1320              	.LBB220:
 1321              	.LBI220:
 158:Drivers/lvgl/src/core/../hal/../draw/../misc/lv_anim.h **** {
 1322              		.loc 3 158 20 view .LVU358
 1323              	.LBB221:
 160:Drivers/lvgl/src/core/../hal/../draw/../misc/lv_anim.h **** }
 1324              		.loc 3 160 5 view .LVU359
 160:Drivers/lvgl/src/core/../hal/../draw/../misc/lv_anim.h **** }
 1325              		.loc 3 160 17 is_stmt 0 view .LVU360
 1326 0102 0C96     		str	r6, [sp, #48]
 1327              	.LVL143:
 160:Drivers/lvgl/src/core/../hal/../draw/../misc/lv_anim.h **** }
 1328              		.loc 3 160 17 view .LVU361
 1329              	.LBE221:
 1330              	.LBE220:
 286:Drivers/lvgl/src/core/lv_disp.c ****         case LV_SCR_LOAD_ANIM_NONE:
 1331              		.loc 1 286 5 is_stmt 1 view .LVU362
 1332 0104 B8F10E0F 		cmp	r8, #14
 1333 0108 29D8     		bhi	.L80
 1334 010a DFE818F0 		tbh	[pc, r8, lsl #1]
 1335              	.L82:
 1336 010e 2200     		.2byte	(.L96-.L82)/2
 1337 0110 3600     		.2byte	(.L95-.L82)/2
 1338 0112 4000     		.2byte	(.L94-.L82)/2
 1339 0114 4B00     		.2byte	(.L93-.L82)/2
 1340 0116 5500     		.2byte	(.L92-.L82)/2
 1341 0118 6000     		.2byte	(.L91-.L82)/2
 1342 011a 7200     		.2byte	(.L90-.L82)/2
 1343 011c 8400     		.2byte	(.L89-.L82)/2
 1344 011e 9600     		.2byte	(.L88-.L82)/2
 1345 0120 A800     		.2byte	(.L87-.L82)/2
 1346 0122 B000     		.2byte	(.L86-.L82)/2
 1347 0124 B800     		.2byte	(.L85-.L82)/2
 1348 0126 C300     		.2byte	(.L84-.L82)/2
 1349 0128 CD00     		.2byte	(.L83-.L82)/2
 1350 012a D800     		.2byte	(.L81-.L82)/2
 1351              	.LVL144:
 1352              		.p2align 1
 1353              	.L100:
 240:Drivers/lvgl/src/core/lv_disp.c ****         }
 1354              		.loc 1 240 13 view .LVU363
 1355 012c 3846     		mov	r0, r7
 1356 012e FFF7FEFF 		bl	lv_obj_del
 1357              	.LVL145:
 1358 0132 93E7     		b	.L76
 1359              	.L101:
 248:Drivers/lvgl/src/core/lv_disp.c ****         d->prev_scr = NULL;
 1360              		.loc 1 248 9 view .LVU364
 1361 0134 FFF7FEFF 		bl	lv_obj_del
 1362              	.LVL146:
 249:Drivers/lvgl/src/core/lv_disp.c ****     }
 1363              		.loc 1 249 9 view .LVU365
 249:Drivers/lvgl/src/core/lv_disp.c ****     }
 1364              		.loc 1 249 21 is_stmt 0 view .LVU366
 1365 0138 0023     		movs	r3, #0
 1366 013a 6361     		str	r3, [r4, #20]
 1367 013c 97E7     		b	.L77
ARM GAS  /var/folders/0z/tsy30v1j4xl4_7kw94k978ww0000gn/T//ccvV8C1Y.s 			page 47


 1368              	.L102:
 267:Drivers/lvgl/src/core/lv_disp.c ****         if(auto_del) lv_obj_del(act_scr);
 1369              		.loc 1 267 9 is_stmt 1 view .LVU367
 1370 013e 2846     		mov	r0, r5
 1371 0140 FFF7FEFF 		bl	scr_load_internal
 1372              	.LVL147:
 268:Drivers/lvgl/src/core/lv_disp.c ****         return;
 1373              		.loc 1 268 9 view .LVU368
 268:Drivers/lvgl/src/core/lv_disp.c ****         return;
 1374              		.loc 1 268 11 is_stmt 0 view .LVU369
 1375 0144 BAF1000F 		cmp	r10, #0
 1376 0148 14D0     		beq	.L73
 268:Drivers/lvgl/src/core/lv_disp.c ****         return;
 1377              		.loc 1 268 22 is_stmt 1 discriminator 1 view .LVU370
 1378 014a 3846     		mov	r0, r7
 1379 014c FFF7FEFF 		bl	lv_obj_del
 1380              	.LVL148:
 269:Drivers/lvgl/src/core/lv_disp.c ****     }
 1381              		.loc 1 269 9 discriminator 1 view .LVU371
 1382 0150 10E0     		b	.L73
 1383              	.LVL149:
 1384              	.L96:
 289:Drivers/lvgl/src/core/lv_disp.c ****             lv_anim_set_values(&a_new, 0, 0);
 1385              		.loc 1 289 13 view .LVU372
 1386              	.LBB222:
 1387              	.LBI222:
 138:Drivers/lvgl/src/core/../hal/../draw/../misc/lv_anim.h **** {
 1388              		.loc 3 138 20 view .LVU373
 1389              	.LBB223:
 140:Drivers/lvgl/src/core/../hal/../draw/../misc/lv_anim.h **** }
 1390              		.loc 3 140 5 view .LVU374
 140:Drivers/lvgl/src/core/../hal/../draw/../misc/lv_anim.h **** }
 1391              		.loc 3 140 16 is_stmt 0 view .LVU375
 1392 0152 624B     		ldr	r3, .L103+8
 1393 0154 1293     		str	r3, [sp, #72]
 1394              	.LVL150:
 140:Drivers/lvgl/src/core/../hal/../draw/../misc/lv_anim.h **** }
 1395              		.loc 3 140 16 view .LVU376
 1396              	.LBE223:
 1397              	.LBE222:
 290:Drivers/lvgl/src/core/lv_disp.c ****             break;
 1398              		.loc 1 290 13 is_stmt 1 view .LVU377
 1399              	.LBB224:
 1400              	.LBI224:
 169:Drivers/lvgl/src/core/../hal/../draw/../misc/lv_anim.h **** {
 1401              		.loc 3 169 20 view .LVU378
 1402              	.LBB225:
 171:Drivers/lvgl/src/core/../hal/../draw/../misc/lv_anim.h ****     a->current_value = start;
 1403              		.loc 3 171 5 view .LVU379
 171:Drivers/lvgl/src/core/../hal/../draw/../misc/lv_anim.h ****     a->current_value = start;
 1404              		.loc 3 171 20 is_stmt 0 view .LVU380
 1405 0156 0023     		movs	r3, #0
 1406 0158 1993     		str	r3, [sp, #100]
 172:Drivers/lvgl/src/core/../hal/../draw/../misc/lv_anim.h ****     a->end_value = end;
 1407              		.loc 3 172 5 is_stmt 1 view .LVU381
 172:Drivers/lvgl/src/core/../hal/../draw/../misc/lv_anim.h ****     a->end_value = end;
 1408              		.loc 3 172 22 is_stmt 0 view .LVU382
ARM GAS  /var/folders/0z/tsy30v1j4xl4_7kw94k978ww0000gn/T//ccvV8C1Y.s 			page 48


 1409 015a 1A93     		str	r3, [sp, #104]
 173:Drivers/lvgl/src/core/../hal/../draw/../misc/lv_anim.h **** }
 1410              		.loc 3 173 5 is_stmt 1 view .LVU383
 173:Drivers/lvgl/src/core/../hal/../draw/../misc/lv_anim.h **** }
 1411              		.loc 3 173 18 is_stmt 0 view .LVU384
 1412 015c 1B93     		str	r3, [sp, #108]
 1413              	.LVL151:
 1414              	.L80:
 173:Drivers/lvgl/src/core/../hal/../draw/../misc/lv_anim.h **** }
 1415              		.loc 3 173 18 view .LVU385
 1416              	.LBE225:
 1417              	.LBE224:
 362:Drivers/lvgl/src/core/lv_disp.c **** 
 1418              		.loc 1 362 5 is_stmt 1 view .LVU386
 1419 015e 0022     		movs	r2, #0
 1420 0160 2521     		movs	r1, #37
 1421 0162 3846     		mov	r0, r7
 1422 0164 FFF7FEFF 		bl	lv_event_send
 1423              	.LVL152:
 364:Drivers/lvgl/src/core/lv_disp.c ****     lv_anim_start(&a_old);
 1424              		.loc 1 364 5 view .LVU387
 1425 0168 11A8     		add	r0, sp, #68
 1426 016a FFF7FEFF 		bl	lv_anim_start
 1427              	.LVL153:
 365:Drivers/lvgl/src/core/lv_disp.c **** }
 1428              		.loc 1 365 5 view .LVU388
 1429 016e 6846     		mov	r0, sp
 1430 0170 FFF7FEFF 		bl	lv_anim_start
 1431              	.LVL154:
 1432              	.L73:
 366:Drivers/lvgl/src/core/lv_disp.c **** 
 1433              		.loc 1 366 1 is_stmt 0 view .LVU389
 1434 0174 22B0     		add	sp, sp, #136
 1435              		.cfi_remember_state
 1436              		.cfi_def_cfa_offset 32
 1437              		@ sp needed
 1438 0176 BDE8F087 		pop	{r4, r5, r6, r7, r8, r9, r10, pc}
 1439              	.LVL155:
 1440              	.L95:
 1441              		.cfi_restore_state
 293:Drivers/lvgl/src/core/lv_disp.c ****             lv_anim_set_values(&a_new, lv_disp_get_hor_res(d), 0);
 1442              		.loc 1 293 13 is_stmt 1 view .LVU390
 1443              	.LBB226:
 1444              	.LBI226:
 138:Drivers/lvgl/src/core/../hal/../draw/../misc/lv_anim.h **** {
 1445              		.loc 3 138 20 view .LVU391
 1446              	.LBB227:
 140:Drivers/lvgl/src/core/../hal/../draw/../misc/lv_anim.h **** }
 1447              		.loc 3 140 5 view .LVU392
 140:Drivers/lvgl/src/core/../hal/../draw/../misc/lv_anim.h **** }
 1448              		.loc 3 140 16 is_stmt 0 view .LVU393
 1449 017a 584B     		ldr	r3, .L103+8
 1450 017c 1293     		str	r3, [sp, #72]
 1451              	.LVL156:
 140:Drivers/lvgl/src/core/../hal/../draw/../misc/lv_anim.h **** }
 1452              		.loc 3 140 16 view .LVU394
 1453              	.LBE227:
ARM GAS  /var/folders/0z/tsy30v1j4xl4_7kw94k978ww0000gn/T//ccvV8C1Y.s 			page 49


 1454              	.LBE226:
 294:Drivers/lvgl/src/core/lv_disp.c ****             break;
 1455              		.loc 1 294 13 is_stmt 1 view .LVU395
 294:Drivers/lvgl/src/core/lv_disp.c ****             break;
 1456              		.loc 1 294 40 is_stmt 0 view .LVU396
 1457 017e 2046     		mov	r0, r4
 1458 0180 FFF7FEFF 		bl	lv_disp_get_hor_res
 1459              	.LVL157:
 1460              	.LBB228:
 1461              	.LBI228:
 169:Drivers/lvgl/src/core/../hal/../draw/../misc/lv_anim.h **** {
 1462              		.loc 3 169 20 is_stmt 1 view .LVU397
 1463              	.LBB229:
 171:Drivers/lvgl/src/core/../hal/../draw/../misc/lv_anim.h ****     a->current_value = start;
 1464              		.loc 3 171 5 view .LVU398
 171:Drivers/lvgl/src/core/../hal/../draw/../misc/lv_anim.h ****     a->current_value = start;
 1465              		.loc 3 171 20 is_stmt 0 view .LVU399
 1466 0184 1990     		str	r0, [sp, #100]
 172:Drivers/lvgl/src/core/../hal/../draw/../misc/lv_anim.h ****     a->end_value = end;
 1467              		.loc 3 172 5 is_stmt 1 view .LVU400
 172:Drivers/lvgl/src/core/../hal/../draw/../misc/lv_anim.h ****     a->end_value = end;
 1468              		.loc 3 172 22 is_stmt 0 view .LVU401
 1469 0186 1A90     		str	r0, [sp, #104]
 173:Drivers/lvgl/src/core/../hal/../draw/../misc/lv_anim.h **** }
 1470              		.loc 3 173 5 is_stmt 1 view .LVU402
 173:Drivers/lvgl/src/core/../hal/../draw/../misc/lv_anim.h **** }
 1471              		.loc 3 173 18 is_stmt 0 view .LVU403
 1472 0188 0023     		movs	r3, #0
 1473 018a 1B93     		str	r3, [sp, #108]
 174:Drivers/lvgl/src/core/../hal/../draw/../misc/lv_anim.h **** 
 1474              		.loc 3 174 1 view .LVU404
 1475 018c E7E7     		b	.L80
 1476              	.LVL158:
 1477              	.L94:
 174:Drivers/lvgl/src/core/../hal/../draw/../misc/lv_anim.h **** 
 1478              		.loc 3 174 1 view .LVU405
 1479              	.LBE229:
 1480              	.LBE228:
 297:Drivers/lvgl/src/core/lv_disp.c ****             lv_anim_set_values(&a_new, -lv_disp_get_hor_res(d), 0);
 1481              		.loc 1 297 13 is_stmt 1 view .LVU406
 1482              	.LBB230:
 1483              	.LBI230:
 138:Drivers/lvgl/src/core/../hal/../draw/../misc/lv_anim.h **** {
 1484              		.loc 3 138 20 view .LVU407
 1485              	.LBB231:
 140:Drivers/lvgl/src/core/../hal/../draw/../misc/lv_anim.h **** }
 1486              		.loc 3 140 5 view .LVU408
 140:Drivers/lvgl/src/core/../hal/../draw/../misc/lv_anim.h **** }
 1487              		.loc 3 140 16 is_stmt 0 view .LVU409
 1488 018e 534B     		ldr	r3, .L103+8
 1489 0190 1293     		str	r3, [sp, #72]
 1490              	.LVL159:
 140:Drivers/lvgl/src/core/../hal/../draw/../misc/lv_anim.h **** }
 1491              		.loc 3 140 16 view .LVU410
 1492              	.LBE231:
 1493              	.LBE230:
 298:Drivers/lvgl/src/core/lv_disp.c ****             break;
ARM GAS  /var/folders/0z/tsy30v1j4xl4_7kw94k978ww0000gn/T//ccvV8C1Y.s 			page 50


 1494              		.loc 1 298 13 is_stmt 1 view .LVU411
 298:Drivers/lvgl/src/core/lv_disp.c ****             break;
 1495              		.loc 1 298 41 is_stmt 0 view .LVU412
 1496 0192 2046     		mov	r0, r4
 1497 0194 FFF7FEFF 		bl	lv_disp_get_hor_res
 1498              	.LVL160:
 298:Drivers/lvgl/src/core/lv_disp.c ****             break;
 1499              		.loc 1 298 40 view .LVU413
 1500 0198 4042     		rsbs	r0, r0, #0
 1501              	.LVL161:
 1502              	.LBB232:
 1503              	.LBI232:
 169:Drivers/lvgl/src/core/../hal/../draw/../misc/lv_anim.h **** {
 1504              		.loc 3 169 20 is_stmt 1 view .LVU414
 1505              	.LBB233:
 171:Drivers/lvgl/src/core/../hal/../draw/../misc/lv_anim.h ****     a->current_value = start;
 1506              		.loc 3 171 5 view .LVU415
 171:Drivers/lvgl/src/core/../hal/../draw/../misc/lv_anim.h ****     a->current_value = start;
 1507              		.loc 3 171 20 is_stmt 0 view .LVU416
 1508 019a 1990     		str	r0, [sp, #100]
 172:Drivers/lvgl/src/core/../hal/../draw/../misc/lv_anim.h ****     a->end_value = end;
 1509              		.loc 3 172 5 is_stmt 1 view .LVU417
 172:Drivers/lvgl/src/core/../hal/../draw/../misc/lv_anim.h ****     a->end_value = end;
 1510              		.loc 3 172 22 is_stmt 0 view .LVU418
 1511 019c 1A90     		str	r0, [sp, #104]
 173:Drivers/lvgl/src/core/../hal/../draw/../misc/lv_anim.h **** }
 1512              		.loc 3 173 5 is_stmt 1 view .LVU419
 173:Drivers/lvgl/src/core/../hal/../draw/../misc/lv_anim.h **** }
 1513              		.loc 3 173 18 is_stmt 0 view .LVU420
 1514 019e 0023     		movs	r3, #0
 1515 01a0 1B93     		str	r3, [sp, #108]
 174:Drivers/lvgl/src/core/../hal/../draw/../misc/lv_anim.h **** 
 1516              		.loc 3 174 1 view .LVU421
 1517 01a2 DCE7     		b	.L80
 1518              	.LVL162:
 1519              	.L93:
 174:Drivers/lvgl/src/core/../hal/../draw/../misc/lv_anim.h **** 
 1520              		.loc 3 174 1 view .LVU422
 1521              	.LBE233:
 1522              	.LBE232:
 301:Drivers/lvgl/src/core/lv_disp.c ****             lv_anim_set_values(&a_new, lv_disp_get_ver_res(d), 0);
 1523              		.loc 1 301 13 is_stmt 1 view .LVU423
 1524              	.LBB234:
 1525              	.LBI234:
 138:Drivers/lvgl/src/core/../hal/../draw/../misc/lv_anim.h **** {
 1526              		.loc 3 138 20 view .LVU424
 1527              	.LBB235:
 140:Drivers/lvgl/src/core/../hal/../draw/../misc/lv_anim.h **** }
 1528              		.loc 3 140 5 view .LVU425
 140:Drivers/lvgl/src/core/../hal/../draw/../misc/lv_anim.h **** }
 1529              		.loc 3 140 16 is_stmt 0 view .LVU426
 1530 01a4 4E4B     		ldr	r3, .L103+12
 1531 01a6 1293     		str	r3, [sp, #72]
 1532              	.LVL163:
 140:Drivers/lvgl/src/core/../hal/../draw/../misc/lv_anim.h **** }
 1533              		.loc 3 140 16 view .LVU427
 1534              	.LBE235:
ARM GAS  /var/folders/0z/tsy30v1j4xl4_7kw94k978ww0000gn/T//ccvV8C1Y.s 			page 51


 1535              	.LBE234:
 302:Drivers/lvgl/src/core/lv_disp.c ****             break;
 1536              		.loc 1 302 13 is_stmt 1 view .LVU428
 302:Drivers/lvgl/src/core/lv_disp.c ****             break;
 1537              		.loc 1 302 40 is_stmt 0 view .LVU429
 1538 01a8 2046     		mov	r0, r4
 1539 01aa FFF7FEFF 		bl	lv_disp_get_ver_res
 1540              	.LVL164:
 1541              	.LBB236:
 1542              	.LBI236:
 169:Drivers/lvgl/src/core/../hal/../draw/../misc/lv_anim.h **** {
 1543              		.loc 3 169 20 is_stmt 1 view .LVU430
 1544              	.LBB237:
 171:Drivers/lvgl/src/core/../hal/../draw/../misc/lv_anim.h ****     a->current_value = start;
 1545              		.loc 3 171 5 view .LVU431
 171:Drivers/lvgl/src/core/../hal/../draw/../misc/lv_anim.h ****     a->current_value = start;
 1546              		.loc 3 171 20 is_stmt 0 view .LVU432
 1547 01ae 1990     		str	r0, [sp, #100]
 172:Drivers/lvgl/src/core/../hal/../draw/../misc/lv_anim.h ****     a->end_value = end;
 1548              		.loc 3 172 5 is_stmt 1 view .LVU433
 172:Drivers/lvgl/src/core/../hal/../draw/../misc/lv_anim.h ****     a->end_value = end;
 1549              		.loc 3 172 22 is_stmt 0 view .LVU434
 1550 01b0 1A90     		str	r0, [sp, #104]
 173:Drivers/lvgl/src/core/../hal/../draw/../misc/lv_anim.h **** }
 1551              		.loc 3 173 5 is_stmt 1 view .LVU435
 173:Drivers/lvgl/src/core/../hal/../draw/../misc/lv_anim.h **** }
 1552              		.loc 3 173 18 is_stmt 0 view .LVU436
 1553 01b2 0023     		movs	r3, #0
 1554 01b4 1B93     		str	r3, [sp, #108]
 174:Drivers/lvgl/src/core/../hal/../draw/../misc/lv_anim.h **** 
 1555              		.loc 3 174 1 view .LVU437
 1556 01b6 D2E7     		b	.L80
 1557              	.LVL165:
 1558              	.L92:
 174:Drivers/lvgl/src/core/../hal/../draw/../misc/lv_anim.h **** 
 1559              		.loc 3 174 1 view .LVU438
 1560              	.LBE237:
 1561              	.LBE236:
 305:Drivers/lvgl/src/core/lv_disp.c ****             lv_anim_set_values(&a_new, -lv_disp_get_ver_res(d), 0);
 1562              		.loc 1 305 13 is_stmt 1 view .LVU439
 1563              	.LBB238:
 1564              	.LBI238:
 138:Drivers/lvgl/src/core/../hal/../draw/../misc/lv_anim.h **** {
 1565              		.loc 3 138 20 view .LVU440
 1566              	.LBB239:
 140:Drivers/lvgl/src/core/../hal/../draw/../misc/lv_anim.h **** }
 1567              		.loc 3 140 5 view .LVU441
 140:Drivers/lvgl/src/core/../hal/../draw/../misc/lv_anim.h **** }
 1568              		.loc 3 140 16 is_stmt 0 view .LVU442
 1569 01b8 494B     		ldr	r3, .L103+12
 1570 01ba 1293     		str	r3, [sp, #72]
 1571              	.LVL166:
 140:Drivers/lvgl/src/core/../hal/../draw/../misc/lv_anim.h **** }
 1572              		.loc 3 140 16 view .LVU443
 1573              	.LBE239:
 1574              	.LBE238:
 306:Drivers/lvgl/src/core/lv_disp.c ****             break;
ARM GAS  /var/folders/0z/tsy30v1j4xl4_7kw94k978ww0000gn/T//ccvV8C1Y.s 			page 52


 1575              		.loc 1 306 13 is_stmt 1 view .LVU444
 306:Drivers/lvgl/src/core/lv_disp.c ****             break;
 1576              		.loc 1 306 41 is_stmt 0 view .LVU445
 1577 01bc 2046     		mov	r0, r4
 1578 01be FFF7FEFF 		bl	lv_disp_get_ver_res
 1579              	.LVL167:
 306:Drivers/lvgl/src/core/lv_disp.c ****             break;
 1580              		.loc 1 306 40 view .LVU446
 1581 01c2 4042     		rsbs	r0, r0, #0
 1582              	.LVL168:
 1583              	.LBB240:
 1584              	.LBI240:
 169:Drivers/lvgl/src/core/../hal/../draw/../misc/lv_anim.h **** {
 1585              		.loc 3 169 20 is_stmt 1 view .LVU447
 1586              	.LBB241:
 171:Drivers/lvgl/src/core/../hal/../draw/../misc/lv_anim.h ****     a->current_value = start;
 1587              		.loc 3 171 5 view .LVU448
 171:Drivers/lvgl/src/core/../hal/../draw/../misc/lv_anim.h ****     a->current_value = start;
 1588              		.loc 3 171 20 is_stmt 0 view .LVU449
 1589 01c4 1990     		str	r0, [sp, #100]
 172:Drivers/lvgl/src/core/../hal/../draw/../misc/lv_anim.h ****     a->end_value = end;
 1590              		.loc 3 172 5 is_stmt 1 view .LVU450
 172:Drivers/lvgl/src/core/../hal/../draw/../misc/lv_anim.h ****     a->end_value = end;
 1591              		.loc 3 172 22 is_stmt 0 view .LVU451
 1592 01c6 1A90     		str	r0, [sp, #104]
 173:Drivers/lvgl/src/core/../hal/../draw/../misc/lv_anim.h **** }
 1593              		.loc 3 173 5 is_stmt 1 view .LVU452
 173:Drivers/lvgl/src/core/../hal/../draw/../misc/lv_anim.h **** }
 1594              		.loc 3 173 18 is_stmt 0 view .LVU453
 1595 01c8 0023     		movs	r3, #0
 1596 01ca 1B93     		str	r3, [sp, #108]
 174:Drivers/lvgl/src/core/../hal/../draw/../misc/lv_anim.h **** 
 1597              		.loc 3 174 1 view .LVU454
 1598 01cc C7E7     		b	.L80
 1599              	.LVL169:
 1600              	.L91:
 174:Drivers/lvgl/src/core/../hal/../draw/../misc/lv_anim.h **** 
 1601              		.loc 3 174 1 view .LVU455
 1602              	.LBE241:
 1603              	.LBE240:
 309:Drivers/lvgl/src/core/lv_disp.c ****             lv_anim_set_values(&a_new, lv_disp_get_hor_res(d), 0);
 1604              		.loc 1 309 13 is_stmt 1 view .LVU456
 1605              	.LBB242:
 1606              	.LBI242:
 138:Drivers/lvgl/src/core/../hal/../draw/../misc/lv_anim.h **** {
 1607              		.loc 3 138 20 view .LVU457
 1608              	.LBB243:
 140:Drivers/lvgl/src/core/../hal/../draw/../misc/lv_anim.h **** }
 1609              		.loc 3 140 5 view .LVU458
 140:Drivers/lvgl/src/core/../hal/../draw/../misc/lv_anim.h **** }
 1610              		.loc 3 140 16 is_stmt 0 view .LVU459
 1611 01ce 434E     		ldr	r6, .L103+8
 1612              	.LVL170:
 140:Drivers/lvgl/src/core/../hal/../draw/../misc/lv_anim.h **** }
 1613              		.loc 3 140 16 view .LVU460
 1614 01d0 1296     		str	r6, [sp, #72]
 1615              	.LVL171:
ARM GAS  /var/folders/0z/tsy30v1j4xl4_7kw94k978ww0000gn/T//ccvV8C1Y.s 			page 53


 140:Drivers/lvgl/src/core/../hal/../draw/../misc/lv_anim.h **** }
 1616              		.loc 3 140 16 view .LVU461
 1617              	.LBE243:
 1618              	.LBE242:
 310:Drivers/lvgl/src/core/lv_disp.c **** 
 1619              		.loc 1 310 13 is_stmt 1 view .LVU462
 310:Drivers/lvgl/src/core/lv_disp.c **** 
 1620              		.loc 1 310 40 is_stmt 0 view .LVU463
 1621 01d2 2046     		mov	r0, r4
 1622 01d4 FFF7FEFF 		bl	lv_disp_get_hor_res
 1623              	.LVL172:
 1624              	.LBB244:
 1625              	.LBI244:
 169:Drivers/lvgl/src/core/../hal/../draw/../misc/lv_anim.h **** {
 1626              		.loc 3 169 20 is_stmt 1 view .LVU464
 1627              	.LBB245:
 171:Drivers/lvgl/src/core/../hal/../draw/../misc/lv_anim.h ****     a->current_value = start;
 1628              		.loc 3 171 5 view .LVU465
 171:Drivers/lvgl/src/core/../hal/../draw/../misc/lv_anim.h ****     a->current_value = start;
 1629              		.loc 3 171 20 is_stmt 0 view .LVU466
 1630 01d8 1990     		str	r0, [sp, #100]
 172:Drivers/lvgl/src/core/../hal/../draw/../misc/lv_anim.h ****     a->end_value = end;
 1631              		.loc 3 172 5 is_stmt 1 view .LVU467
 172:Drivers/lvgl/src/core/../hal/../draw/../misc/lv_anim.h ****     a->end_value = end;
 1632              		.loc 3 172 22 is_stmt 0 view .LVU468
 1633 01da 1A90     		str	r0, [sp, #104]
 173:Drivers/lvgl/src/core/../hal/../draw/../misc/lv_anim.h **** }
 1634              		.loc 3 173 5 is_stmt 1 view .LVU469
 173:Drivers/lvgl/src/core/../hal/../draw/../misc/lv_anim.h **** }
 1635              		.loc 3 173 18 is_stmt 0 view .LVU470
 1636 01dc 0025     		movs	r5, #0
 1637              	.LVL173:
 173:Drivers/lvgl/src/core/../hal/../draw/../misc/lv_anim.h **** }
 1638              		.loc 3 173 18 view .LVU471
 1639 01de 1B95     		str	r5, [sp, #108]
 1640              	.LVL174:
 173:Drivers/lvgl/src/core/../hal/../draw/../misc/lv_anim.h **** }
 1641              		.loc 3 173 18 view .LVU472
 1642              	.LBE245:
 1643              	.LBE244:
 312:Drivers/lvgl/src/core/lv_disp.c ****             lv_anim_set_values(&a_old, 0, -lv_disp_get_hor_res(d));
 1644              		.loc 1 312 13 is_stmt 1 view .LVU473
 1645              	.LBB246:
 1646              	.LBI246:
 138:Drivers/lvgl/src/core/../hal/../draw/../misc/lv_anim.h **** {
 1647              		.loc 3 138 20 view .LVU474
 1648              	.LBB247:
 140:Drivers/lvgl/src/core/../hal/../draw/../misc/lv_anim.h **** }
 1649              		.loc 3 140 5 view .LVU475
 140:Drivers/lvgl/src/core/../hal/../draw/../misc/lv_anim.h **** }
 1650              		.loc 3 140 16 is_stmt 0 view .LVU476
 1651 01e0 0196     		str	r6, [sp, #4]
 1652              	.LVL175:
 140:Drivers/lvgl/src/core/../hal/../draw/../misc/lv_anim.h **** }
 1653              		.loc 3 140 16 view .LVU477
 1654              	.LBE247:
 1655              	.LBE246:
ARM GAS  /var/folders/0z/tsy30v1j4xl4_7kw94k978ww0000gn/T//ccvV8C1Y.s 			page 54


 313:Drivers/lvgl/src/core/lv_disp.c ****             break;
 1656              		.loc 1 313 13 is_stmt 1 view .LVU478
 313:Drivers/lvgl/src/core/lv_disp.c ****             break;
 1657              		.loc 1 313 44 is_stmt 0 view .LVU479
 1658 01e2 2046     		mov	r0, r4
 1659 01e4 FFF7FEFF 		bl	lv_disp_get_hor_res
 1660              	.LVL176:
 313:Drivers/lvgl/src/core/lv_disp.c ****             break;
 1661              		.loc 1 313 43 view .LVU480
 1662 01e8 4042     		rsbs	r0, r0, #0
 1663              	.LVL177:
 1664              	.LBB248:
 1665              	.LBI248:
 169:Drivers/lvgl/src/core/../hal/../draw/../misc/lv_anim.h **** {
 1666              		.loc 3 169 20 is_stmt 1 view .LVU481
 1667              	.LBB249:
 171:Drivers/lvgl/src/core/../hal/../draw/../misc/lv_anim.h ****     a->current_value = start;
 1668              		.loc 3 171 5 view .LVU482
 171:Drivers/lvgl/src/core/../hal/../draw/../misc/lv_anim.h ****     a->current_value = start;
 1669              		.loc 3 171 20 is_stmt 0 view .LVU483
 1670 01ea 0895     		str	r5, [sp, #32]
 172:Drivers/lvgl/src/core/../hal/../draw/../misc/lv_anim.h ****     a->end_value = end;
 1671              		.loc 3 172 5 is_stmt 1 view .LVU484
 172:Drivers/lvgl/src/core/../hal/../draw/../misc/lv_anim.h ****     a->end_value = end;
 1672              		.loc 3 172 22 is_stmt 0 view .LVU485
 1673 01ec 0995     		str	r5, [sp, #36]
 173:Drivers/lvgl/src/core/../hal/../draw/../misc/lv_anim.h **** }
 1674              		.loc 3 173 5 is_stmt 1 view .LVU486
 173:Drivers/lvgl/src/core/../hal/../draw/../misc/lv_anim.h **** }
 1675              		.loc 3 173 18 is_stmt 0 view .LVU487
 1676 01ee 0A90     		str	r0, [sp, #40]
 174:Drivers/lvgl/src/core/../hal/../draw/../misc/lv_anim.h **** 
 1677              		.loc 3 174 1 view .LVU488
 1678 01f0 B5E7     		b	.L80
 1679              	.LVL178:
 1680              	.L90:
 174:Drivers/lvgl/src/core/../hal/../draw/../misc/lv_anim.h **** 
 1681              		.loc 3 174 1 view .LVU489
 1682              	.LBE249:
 1683              	.LBE248:
 316:Drivers/lvgl/src/core/lv_disp.c ****             lv_anim_set_values(&a_new, -lv_disp_get_hor_res(d), 0);
 1684              		.loc 1 316 13 is_stmt 1 view .LVU490
 1685              	.LBB250:
 1686              	.LBI250:
 138:Drivers/lvgl/src/core/../hal/../draw/../misc/lv_anim.h **** {
 1687              		.loc 3 138 20 view .LVU491
 1688              	.LBB251:
 140:Drivers/lvgl/src/core/../hal/../draw/../misc/lv_anim.h **** }
 1689              		.loc 3 140 5 view .LVU492
 140:Drivers/lvgl/src/core/../hal/../draw/../misc/lv_anim.h **** }
 1690              		.loc 3 140 16 is_stmt 0 view .LVU493
 1691 01f2 3A4E     		ldr	r6, .L103+8
 1692 01f4 1296     		str	r6, [sp, #72]
 1693              	.LVL179:
 140:Drivers/lvgl/src/core/../hal/../draw/../misc/lv_anim.h **** }
 1694              		.loc 3 140 16 view .LVU494
 1695              	.LBE251:
ARM GAS  /var/folders/0z/tsy30v1j4xl4_7kw94k978ww0000gn/T//ccvV8C1Y.s 			page 55


 1696              	.LBE250:
 317:Drivers/lvgl/src/core/lv_disp.c **** 
 1697              		.loc 1 317 13 is_stmt 1 view .LVU495
 317:Drivers/lvgl/src/core/lv_disp.c **** 
 1698              		.loc 1 317 41 is_stmt 0 view .LVU496
 1699 01f6 2046     		mov	r0, r4
 1700 01f8 FFF7FEFF 		bl	lv_disp_get_hor_res
 1701              	.LVL180:
 317:Drivers/lvgl/src/core/lv_disp.c **** 
 1702              		.loc 1 317 40 view .LVU497
 1703 01fc 4042     		rsbs	r0, r0, #0
 1704              	.LVL181:
 1705              	.LBB252:
 1706              	.LBI252:
 169:Drivers/lvgl/src/core/../hal/../draw/../misc/lv_anim.h **** {
 1707              		.loc 3 169 20 is_stmt 1 view .LVU498
 1708              	.LBB253:
 171:Drivers/lvgl/src/core/../hal/../draw/../misc/lv_anim.h ****     a->current_value = start;
 1709              		.loc 3 171 5 view .LVU499
 171:Drivers/lvgl/src/core/../hal/../draw/../misc/lv_anim.h ****     a->current_value = start;
 1710              		.loc 3 171 20 is_stmt 0 view .LVU500
 1711 01fe 1990     		str	r0, [sp, #100]
 172:Drivers/lvgl/src/core/../hal/../draw/../misc/lv_anim.h ****     a->end_value = end;
 1712              		.loc 3 172 5 is_stmt 1 view .LVU501
 172:Drivers/lvgl/src/core/../hal/../draw/../misc/lv_anim.h ****     a->end_value = end;
 1713              		.loc 3 172 22 is_stmt 0 view .LVU502
 1714 0200 1A90     		str	r0, [sp, #104]
 173:Drivers/lvgl/src/core/../hal/../draw/../misc/lv_anim.h **** }
 1715              		.loc 3 173 5 is_stmt 1 view .LVU503
 173:Drivers/lvgl/src/core/../hal/../draw/../misc/lv_anim.h **** }
 1716              		.loc 3 173 18 is_stmt 0 view .LVU504
 1717 0202 0025     		movs	r5, #0
 1718              	.LVL182:
 173:Drivers/lvgl/src/core/../hal/../draw/../misc/lv_anim.h **** }
 1719              		.loc 3 173 18 view .LVU505
 1720 0204 1B95     		str	r5, [sp, #108]
 1721              	.LVL183:
 173:Drivers/lvgl/src/core/../hal/../draw/../misc/lv_anim.h **** }
 1722              		.loc 3 173 18 view .LVU506
 1723              	.LBE253:
 1724              	.LBE252:
 319:Drivers/lvgl/src/core/lv_disp.c ****             lv_anim_set_values(&a_old, 0, lv_disp_get_hor_res(d));
 1725              		.loc 1 319 13 is_stmt 1 view .LVU507
 1726              	.LBB254:
 1727              	.LBI254:
 138:Drivers/lvgl/src/core/../hal/../draw/../misc/lv_anim.h **** {
 1728              		.loc 3 138 20 view .LVU508
 1729              	.LBB255:
 140:Drivers/lvgl/src/core/../hal/../draw/../misc/lv_anim.h **** }
 1730              		.loc 3 140 5 view .LVU509
 140:Drivers/lvgl/src/core/../hal/../draw/../misc/lv_anim.h **** }
 1731              		.loc 3 140 16 is_stmt 0 view .LVU510
 1732 0206 0196     		str	r6, [sp, #4]
 1733              	.LVL184:
 140:Drivers/lvgl/src/core/../hal/../draw/../misc/lv_anim.h **** }
 1734              		.loc 3 140 16 view .LVU511
 1735              	.LBE255:
ARM GAS  /var/folders/0z/tsy30v1j4xl4_7kw94k978ww0000gn/T//ccvV8C1Y.s 			page 56


 1736              	.LBE254:
 320:Drivers/lvgl/src/core/lv_disp.c ****             break;
 1737              		.loc 1 320 13 is_stmt 1 view .LVU512
 320:Drivers/lvgl/src/core/lv_disp.c ****             break;
 1738              		.loc 1 320 43 is_stmt 0 view .LVU513
 1739 0208 2046     		mov	r0, r4
 1740 020a FFF7FEFF 		bl	lv_disp_get_hor_res
 1741              	.LVL185:
 1742              	.LBB256:
 1743              	.LBI256:
 169:Drivers/lvgl/src/core/../hal/../draw/../misc/lv_anim.h **** {
 1744              		.loc 3 169 20 is_stmt 1 view .LVU514
 1745              	.LBB257:
 171:Drivers/lvgl/src/core/../hal/../draw/../misc/lv_anim.h ****     a->current_value = start;
 1746              		.loc 3 171 5 view .LVU515
 171:Drivers/lvgl/src/core/../hal/../draw/../misc/lv_anim.h ****     a->current_value = start;
 1747              		.loc 3 171 20 is_stmt 0 view .LVU516
 1748 020e 0895     		str	r5, [sp, #32]
 172:Drivers/lvgl/src/core/../hal/../draw/../misc/lv_anim.h ****     a->end_value = end;
 1749              		.loc 3 172 5 is_stmt 1 view .LVU517
 172:Drivers/lvgl/src/core/../hal/../draw/../misc/lv_anim.h ****     a->end_value = end;
 1750              		.loc 3 172 22 is_stmt 0 view .LVU518
 1751 0210 0995     		str	r5, [sp, #36]
 173:Drivers/lvgl/src/core/../hal/../draw/../misc/lv_anim.h **** }
 1752              		.loc 3 173 5 is_stmt 1 view .LVU519
 173:Drivers/lvgl/src/core/../hal/../draw/../misc/lv_anim.h **** }
 1753              		.loc 3 173 18 is_stmt 0 view .LVU520
 1754 0212 0A90     		str	r0, [sp, #40]
 174:Drivers/lvgl/src/core/../hal/../draw/../misc/lv_anim.h **** 
 1755              		.loc 3 174 1 view .LVU521
 1756 0214 A3E7     		b	.L80
 1757              	.LVL186:
 1758              	.L89:
 174:Drivers/lvgl/src/core/../hal/../draw/../misc/lv_anim.h **** 
 1759              		.loc 3 174 1 view .LVU522
 1760              	.LBE257:
 1761              	.LBE256:
 323:Drivers/lvgl/src/core/lv_disp.c ****             lv_anim_set_values(&a_new, lv_disp_get_ver_res(d), 0);
 1762              		.loc 1 323 13 is_stmt 1 view .LVU523
 1763              	.LBB258:
 1764              	.LBI258:
 138:Drivers/lvgl/src/core/../hal/../draw/../misc/lv_anim.h **** {
 1765              		.loc 3 138 20 view .LVU524
 1766              	.LBB259:
 140:Drivers/lvgl/src/core/../hal/../draw/../misc/lv_anim.h **** }
 1767              		.loc 3 140 5 view .LVU525
 140:Drivers/lvgl/src/core/../hal/../draw/../misc/lv_anim.h **** }
 1768              		.loc 3 140 16 is_stmt 0 view .LVU526
 1769 0216 324E     		ldr	r6, .L103+12
 1770 0218 1296     		str	r6, [sp, #72]
 1771              	.LVL187:
 140:Drivers/lvgl/src/core/../hal/../draw/../misc/lv_anim.h **** }
 1772              		.loc 3 140 16 view .LVU527
 1773              	.LBE259:
 1774              	.LBE258:
 324:Drivers/lvgl/src/core/lv_disp.c **** 
 1775              		.loc 1 324 13 is_stmt 1 view .LVU528
ARM GAS  /var/folders/0z/tsy30v1j4xl4_7kw94k978ww0000gn/T//ccvV8C1Y.s 			page 57


 324:Drivers/lvgl/src/core/lv_disp.c **** 
 1776              		.loc 1 324 40 is_stmt 0 view .LVU529
 1777 021a 2046     		mov	r0, r4
 1778 021c FFF7FEFF 		bl	lv_disp_get_ver_res
 1779              	.LVL188:
 1780              	.LBB260:
 1781              	.LBI260:
 169:Drivers/lvgl/src/core/../hal/../draw/../misc/lv_anim.h **** {
 1782              		.loc 3 169 20 is_stmt 1 view .LVU530
 1783              	.LBB261:
 171:Drivers/lvgl/src/core/../hal/../draw/../misc/lv_anim.h ****     a->current_value = start;
 1784              		.loc 3 171 5 view .LVU531
 171:Drivers/lvgl/src/core/../hal/../draw/../misc/lv_anim.h ****     a->current_value = start;
 1785              		.loc 3 171 20 is_stmt 0 view .LVU532
 1786 0220 1990     		str	r0, [sp, #100]
 172:Drivers/lvgl/src/core/../hal/../draw/../misc/lv_anim.h ****     a->end_value = end;
 1787              		.loc 3 172 5 is_stmt 1 view .LVU533
 172:Drivers/lvgl/src/core/../hal/../draw/../misc/lv_anim.h ****     a->end_value = end;
 1788              		.loc 3 172 22 is_stmt 0 view .LVU534
 1789 0222 1A90     		str	r0, [sp, #104]
 173:Drivers/lvgl/src/core/../hal/../draw/../misc/lv_anim.h **** }
 1790              		.loc 3 173 5 is_stmt 1 view .LVU535
 173:Drivers/lvgl/src/core/../hal/../draw/../misc/lv_anim.h **** }
 1791              		.loc 3 173 18 is_stmt 0 view .LVU536
 1792 0224 0025     		movs	r5, #0
 1793              	.LVL189:
 173:Drivers/lvgl/src/core/../hal/../draw/../misc/lv_anim.h **** }
 1794              		.loc 3 173 18 view .LVU537
 1795 0226 1B95     		str	r5, [sp, #108]
 1796              	.LVL190:
 173:Drivers/lvgl/src/core/../hal/../draw/../misc/lv_anim.h **** }
 1797              		.loc 3 173 18 view .LVU538
 1798              	.LBE261:
 1799              	.LBE260:
 326:Drivers/lvgl/src/core/lv_disp.c ****             lv_anim_set_values(&a_old, 0, -lv_disp_get_ver_res(d));
 1800              		.loc 1 326 13 is_stmt 1 view .LVU539
 1801              	.LBB262:
 1802              	.LBI262:
 138:Drivers/lvgl/src/core/../hal/../draw/../misc/lv_anim.h **** {
 1803              		.loc 3 138 20 view .LVU540
 1804              	.LBB263:
 140:Drivers/lvgl/src/core/../hal/../draw/../misc/lv_anim.h **** }
 1805              		.loc 3 140 5 view .LVU541
 140:Drivers/lvgl/src/core/../hal/../draw/../misc/lv_anim.h **** }
 1806              		.loc 3 140 16 is_stmt 0 view .LVU542
 1807 0228 0196     		str	r6, [sp, #4]
 1808              	.LVL191:
 140:Drivers/lvgl/src/core/../hal/../draw/../misc/lv_anim.h **** }
 1809              		.loc 3 140 16 view .LVU543
 1810              	.LBE263:
 1811              	.LBE262:
 327:Drivers/lvgl/src/core/lv_disp.c ****             break;
 1812              		.loc 1 327 13 is_stmt 1 view .LVU544
 327:Drivers/lvgl/src/core/lv_disp.c ****             break;
 1813              		.loc 1 327 44 is_stmt 0 view .LVU545
 1814 022a 2046     		mov	r0, r4
 1815 022c FFF7FEFF 		bl	lv_disp_get_ver_res
ARM GAS  /var/folders/0z/tsy30v1j4xl4_7kw94k978ww0000gn/T//ccvV8C1Y.s 			page 58


 1816              	.LVL192:
 327:Drivers/lvgl/src/core/lv_disp.c ****             break;
 1817              		.loc 1 327 43 view .LVU546
 1818 0230 4042     		rsbs	r0, r0, #0
 1819              	.LVL193:
 1820              	.LBB264:
 1821              	.LBI264:
 169:Drivers/lvgl/src/core/../hal/../draw/../misc/lv_anim.h **** {
 1822              		.loc 3 169 20 is_stmt 1 view .LVU547
 1823              	.LBB265:
 171:Drivers/lvgl/src/core/../hal/../draw/../misc/lv_anim.h ****     a->current_value = start;
 1824              		.loc 3 171 5 view .LVU548
 171:Drivers/lvgl/src/core/../hal/../draw/../misc/lv_anim.h ****     a->current_value = start;
 1825              		.loc 3 171 20 is_stmt 0 view .LVU549
 1826 0232 0895     		str	r5, [sp, #32]
 172:Drivers/lvgl/src/core/../hal/../draw/../misc/lv_anim.h ****     a->end_value = end;
 1827              		.loc 3 172 5 is_stmt 1 view .LVU550
 172:Drivers/lvgl/src/core/../hal/../draw/../misc/lv_anim.h ****     a->end_value = end;
 1828              		.loc 3 172 22 is_stmt 0 view .LVU551
 1829 0234 0995     		str	r5, [sp, #36]
 173:Drivers/lvgl/src/core/../hal/../draw/../misc/lv_anim.h **** }
 1830              		.loc 3 173 5 is_stmt 1 view .LVU552
 173:Drivers/lvgl/src/core/../hal/../draw/../misc/lv_anim.h **** }
 1831              		.loc 3 173 18 is_stmt 0 view .LVU553
 1832 0236 0A90     		str	r0, [sp, #40]
 174:Drivers/lvgl/src/core/../hal/../draw/../misc/lv_anim.h **** 
 1833              		.loc 3 174 1 view .LVU554
 1834 0238 91E7     		b	.L80
 1835              	.LVL194:
 1836              	.L88:
 174:Drivers/lvgl/src/core/../hal/../draw/../misc/lv_anim.h **** 
 1837              		.loc 3 174 1 view .LVU555
 1838              	.LBE265:
 1839              	.LBE264:
 330:Drivers/lvgl/src/core/lv_disp.c ****             lv_anim_set_values(&a_new, -lv_disp_get_ver_res(d), 0);
 1840              		.loc 1 330 13 is_stmt 1 view .LVU556
 1841              	.LBB266:
 1842              	.LBI266:
 138:Drivers/lvgl/src/core/../hal/../draw/../misc/lv_anim.h **** {
 1843              		.loc 3 138 20 view .LVU557
 1844              	.LBB267:
 140:Drivers/lvgl/src/core/../hal/../draw/../misc/lv_anim.h **** }
 1845              		.loc 3 140 5 view .LVU558
 140:Drivers/lvgl/src/core/../hal/../draw/../misc/lv_anim.h **** }
 1846              		.loc 3 140 16 is_stmt 0 view .LVU559
 1847 023a 294E     		ldr	r6, .L103+12
 1848 023c 1296     		str	r6, [sp, #72]
 1849              	.LVL195:
 140:Drivers/lvgl/src/core/../hal/../draw/../misc/lv_anim.h **** }
 1850              		.loc 3 140 16 view .LVU560
 1851              	.LBE267:
 1852              	.LBE266:
 331:Drivers/lvgl/src/core/lv_disp.c **** 
 1853              		.loc 1 331 13 is_stmt 1 view .LVU561
 331:Drivers/lvgl/src/core/lv_disp.c **** 
 1854              		.loc 1 331 41 is_stmt 0 view .LVU562
 1855 023e 2046     		mov	r0, r4
ARM GAS  /var/folders/0z/tsy30v1j4xl4_7kw94k978ww0000gn/T//ccvV8C1Y.s 			page 59


 1856 0240 FFF7FEFF 		bl	lv_disp_get_ver_res
 1857              	.LVL196:
 331:Drivers/lvgl/src/core/lv_disp.c **** 
 1858              		.loc 1 331 40 view .LVU563
 1859 0244 4042     		rsbs	r0, r0, #0
 1860              	.LVL197:
 1861              	.LBB268:
 1862              	.LBI268:
 169:Drivers/lvgl/src/core/../hal/../draw/../misc/lv_anim.h **** {
 1863              		.loc 3 169 20 is_stmt 1 view .LVU564
 1864              	.LBB269:
 171:Drivers/lvgl/src/core/../hal/../draw/../misc/lv_anim.h ****     a->current_value = start;
 1865              		.loc 3 171 5 view .LVU565
 171:Drivers/lvgl/src/core/../hal/../draw/../misc/lv_anim.h ****     a->current_value = start;
 1866              		.loc 3 171 20 is_stmt 0 view .LVU566
 1867 0246 1990     		str	r0, [sp, #100]
 172:Drivers/lvgl/src/core/../hal/../draw/../misc/lv_anim.h ****     a->end_value = end;
 1868              		.loc 3 172 5 is_stmt 1 view .LVU567
 172:Drivers/lvgl/src/core/../hal/../draw/../misc/lv_anim.h ****     a->end_value = end;
 1869              		.loc 3 172 22 is_stmt 0 view .LVU568
 1870 0248 1A90     		str	r0, [sp, #104]
 173:Drivers/lvgl/src/core/../hal/../draw/../misc/lv_anim.h **** }
 1871              		.loc 3 173 5 is_stmt 1 view .LVU569
 173:Drivers/lvgl/src/core/../hal/../draw/../misc/lv_anim.h **** }
 1872              		.loc 3 173 18 is_stmt 0 view .LVU570
 1873 024a 0025     		movs	r5, #0
 1874              	.LVL198:
 173:Drivers/lvgl/src/core/../hal/../draw/../misc/lv_anim.h **** }
 1875              		.loc 3 173 18 view .LVU571
 1876 024c 1B95     		str	r5, [sp, #108]
 1877              	.LVL199:
 173:Drivers/lvgl/src/core/../hal/../draw/../misc/lv_anim.h **** }
 1878              		.loc 3 173 18 view .LVU572
 1879              	.LBE269:
 1880              	.LBE268:
 333:Drivers/lvgl/src/core/lv_disp.c ****             lv_anim_set_values(&a_old, 0, lv_disp_get_ver_res(d));
 1881              		.loc 1 333 13 is_stmt 1 view .LVU573
 1882              	.LBB270:
 1883              	.LBI270:
 138:Drivers/lvgl/src/core/../hal/../draw/../misc/lv_anim.h **** {
 1884              		.loc 3 138 20 view .LVU574
 1885              	.LBB271:
 140:Drivers/lvgl/src/core/../hal/../draw/../misc/lv_anim.h **** }
 1886              		.loc 3 140 5 view .LVU575
 140:Drivers/lvgl/src/core/../hal/../draw/../misc/lv_anim.h **** }
 1887              		.loc 3 140 16 is_stmt 0 view .LVU576
 1888 024e 0196     		str	r6, [sp, #4]
 1889              	.LVL200:
 140:Drivers/lvgl/src/core/../hal/../draw/../misc/lv_anim.h **** }
 1890              		.loc 3 140 16 view .LVU577
 1891              	.LBE271:
 1892              	.LBE270:
 334:Drivers/lvgl/src/core/lv_disp.c ****             break;
 1893              		.loc 1 334 13 is_stmt 1 view .LVU578
 334:Drivers/lvgl/src/core/lv_disp.c ****             break;
 1894              		.loc 1 334 43 is_stmt 0 view .LVU579
 1895 0250 2046     		mov	r0, r4
ARM GAS  /var/folders/0z/tsy30v1j4xl4_7kw94k978ww0000gn/T//ccvV8C1Y.s 			page 60


 1896 0252 FFF7FEFF 		bl	lv_disp_get_ver_res
 1897              	.LVL201:
 1898              	.LBB272:
 1899              	.LBI272:
 169:Drivers/lvgl/src/core/../hal/../draw/../misc/lv_anim.h **** {
 1900              		.loc 3 169 20 is_stmt 1 view .LVU580
 1901              	.LBB273:
 171:Drivers/lvgl/src/core/../hal/../draw/../misc/lv_anim.h ****     a->current_value = start;
 1902              		.loc 3 171 5 view .LVU581
 171:Drivers/lvgl/src/core/../hal/../draw/../misc/lv_anim.h ****     a->current_value = start;
 1903              		.loc 3 171 20 is_stmt 0 view .LVU582
 1904 0256 0895     		str	r5, [sp, #32]
 172:Drivers/lvgl/src/core/../hal/../draw/../misc/lv_anim.h ****     a->end_value = end;
 1905              		.loc 3 172 5 is_stmt 1 view .LVU583
 172:Drivers/lvgl/src/core/../hal/../draw/../misc/lv_anim.h ****     a->end_value = end;
 1906              		.loc 3 172 22 is_stmt 0 view .LVU584
 1907 0258 0995     		str	r5, [sp, #36]
 173:Drivers/lvgl/src/core/../hal/../draw/../misc/lv_anim.h **** }
 1908              		.loc 3 173 5 is_stmt 1 view .LVU585
 173:Drivers/lvgl/src/core/../hal/../draw/../misc/lv_anim.h **** }
 1909              		.loc 3 173 18 is_stmt 0 view .LVU586
 1910 025a 0A90     		str	r0, [sp, #40]
 174:Drivers/lvgl/src/core/../hal/../draw/../misc/lv_anim.h **** 
 1911              		.loc 3 174 1 view .LVU587
 1912 025c 7FE7     		b	.L80
 1913              	.LVL202:
 1914              	.L87:
 174:Drivers/lvgl/src/core/../hal/../draw/../misc/lv_anim.h **** 
 1915              		.loc 3 174 1 view .LVU588
 1916              	.LBE273:
 1917              	.LBE272:
 337:Drivers/lvgl/src/core/lv_disp.c ****             lv_anim_set_values(&a_new, LV_OPA_TRANSP, LV_OPA_COVER);
 1918              		.loc 1 337 13 is_stmt 1 view .LVU589
 1919              	.LBB274:
 1920              	.LBI274:
 138:Drivers/lvgl/src/core/../hal/../draw/../misc/lv_anim.h **** {
 1921              		.loc 3 138 20 view .LVU590
 1922              	.LBB275:
 140:Drivers/lvgl/src/core/../hal/../draw/../misc/lv_anim.h **** }
 1923              		.loc 3 140 5 view .LVU591
 140:Drivers/lvgl/src/core/../hal/../draw/../misc/lv_anim.h **** }
 1924              		.loc 3 140 16 is_stmt 0 view .LVU592
 1925 025e 214B     		ldr	r3, .L103+16
 1926 0260 1293     		str	r3, [sp, #72]
 1927              	.LVL203:
 140:Drivers/lvgl/src/core/../hal/../draw/../misc/lv_anim.h **** }
 1928              		.loc 3 140 16 view .LVU593
 1929              	.LBE275:
 1930              	.LBE274:
 338:Drivers/lvgl/src/core/lv_disp.c ****             break;
 1931              		.loc 1 338 13 is_stmt 1 view .LVU594
 1932              	.LBB276:
 1933              	.LBI276:
 169:Drivers/lvgl/src/core/../hal/../draw/../misc/lv_anim.h **** {
 1934              		.loc 3 169 20 view .LVU595
 1935              	.LBB277:
 171:Drivers/lvgl/src/core/../hal/../draw/../misc/lv_anim.h ****     a->current_value = start;
ARM GAS  /var/folders/0z/tsy30v1j4xl4_7kw94k978ww0000gn/T//ccvV8C1Y.s 			page 61


 1936              		.loc 3 171 5 view .LVU596
 171:Drivers/lvgl/src/core/../hal/../draw/../misc/lv_anim.h ****     a->current_value = start;
 1937              		.loc 3 171 20 is_stmt 0 view .LVU597
 1938 0262 0023     		movs	r3, #0
 1939 0264 1993     		str	r3, [sp, #100]
 172:Drivers/lvgl/src/core/../hal/../draw/../misc/lv_anim.h ****     a->end_value = end;
 1940              		.loc 3 172 5 is_stmt 1 view .LVU598
 172:Drivers/lvgl/src/core/../hal/../draw/../misc/lv_anim.h ****     a->end_value = end;
 1941              		.loc 3 172 22 is_stmt 0 view .LVU599
 1942 0266 1A93     		str	r3, [sp, #104]
 173:Drivers/lvgl/src/core/../hal/../draw/../misc/lv_anim.h **** }
 1943              		.loc 3 173 5 is_stmt 1 view .LVU600
 173:Drivers/lvgl/src/core/../hal/../draw/../misc/lv_anim.h **** }
 1944              		.loc 3 173 18 is_stmt 0 view .LVU601
 1945 0268 FF23     		movs	r3, #255
 1946 026a 1B93     		str	r3, [sp, #108]
 174:Drivers/lvgl/src/core/../hal/../draw/../misc/lv_anim.h **** 
 1947              		.loc 3 174 1 view .LVU602
 1948 026c 77E7     		b	.L80
 1949              	.LVL204:
 1950              	.L86:
 174:Drivers/lvgl/src/core/../hal/../draw/../misc/lv_anim.h **** 
 1951              		.loc 3 174 1 view .LVU603
 1952              	.LBE277:
 1953              	.LBE276:
 341:Drivers/lvgl/src/core/lv_disp.c ****             lv_anim_set_values(&a_old, LV_OPA_COVER, LV_OPA_TRANSP);
 1954              		.loc 1 341 13 is_stmt 1 view .LVU604
 1955              	.LBB278:
 1956              	.LBI278:
 138:Drivers/lvgl/src/core/../hal/../draw/../misc/lv_anim.h **** {
 1957              		.loc 3 138 20 view .LVU605
 1958              	.LBB279:
 140:Drivers/lvgl/src/core/../hal/../draw/../misc/lv_anim.h **** }
 1959              		.loc 3 140 5 view .LVU606
 140:Drivers/lvgl/src/core/../hal/../draw/../misc/lv_anim.h **** }
 1960              		.loc 3 140 16 is_stmt 0 view .LVU607
 1961 026e 1D4B     		ldr	r3, .L103+16
 1962 0270 0193     		str	r3, [sp, #4]
 1963              	.LVL205:
 140:Drivers/lvgl/src/core/../hal/../draw/../misc/lv_anim.h **** }
 1964              		.loc 3 140 16 view .LVU608
 1965              	.LBE279:
 1966              	.LBE278:
 342:Drivers/lvgl/src/core/lv_disp.c ****             break;
 1967              		.loc 1 342 13 is_stmt 1 view .LVU609
 1968              	.LBB280:
 1969              	.LBI280:
 169:Drivers/lvgl/src/core/../hal/../draw/../misc/lv_anim.h **** {
 1970              		.loc 3 169 20 view .LVU610
 1971              	.LBB281:
 171:Drivers/lvgl/src/core/../hal/../draw/../misc/lv_anim.h ****     a->current_value = start;
 1972              		.loc 3 171 5 view .LVU611
 171:Drivers/lvgl/src/core/../hal/../draw/../misc/lv_anim.h ****     a->current_value = start;
 1973              		.loc 3 171 20 is_stmt 0 view .LVU612
 1974 0272 FF23     		movs	r3, #255
 1975 0274 0893     		str	r3, [sp, #32]
 172:Drivers/lvgl/src/core/../hal/../draw/../misc/lv_anim.h ****     a->end_value = end;
ARM GAS  /var/folders/0z/tsy30v1j4xl4_7kw94k978ww0000gn/T//ccvV8C1Y.s 			page 62


 1976              		.loc 3 172 5 is_stmt 1 view .LVU613
 172:Drivers/lvgl/src/core/../hal/../draw/../misc/lv_anim.h ****     a->end_value = end;
 1977              		.loc 3 172 22 is_stmt 0 view .LVU614
 1978 0276 0993     		str	r3, [sp, #36]
 173:Drivers/lvgl/src/core/../hal/../draw/../misc/lv_anim.h **** }
 1979              		.loc 3 173 5 is_stmt 1 view .LVU615
 173:Drivers/lvgl/src/core/../hal/../draw/../misc/lv_anim.h **** }
 1980              		.loc 3 173 18 is_stmt 0 view .LVU616
 1981 0278 0023     		movs	r3, #0
 1982 027a 0A93     		str	r3, [sp, #40]
 174:Drivers/lvgl/src/core/../hal/../draw/../misc/lv_anim.h **** 
 1983              		.loc 3 174 1 view .LVU617
 1984 027c 6FE7     		b	.L80
 1985              	.LVL206:
 1986              	.L85:
 174:Drivers/lvgl/src/core/../hal/../draw/../misc/lv_anim.h **** 
 1987              		.loc 3 174 1 view .LVU618
 1988              	.LBE281:
 1989              	.LBE280:
 345:Drivers/lvgl/src/core/lv_disp.c ****             lv_anim_set_values(&a_old, 0, -lv_disp_get_hor_res(d));
 1990              		.loc 1 345 13 is_stmt 1 view .LVU619
 1991              	.LBB282:
 1992              	.LBI282:
 138:Drivers/lvgl/src/core/../hal/../draw/../misc/lv_anim.h **** {
 1993              		.loc 3 138 20 view .LVU620
 1994              	.LBB283:
 140:Drivers/lvgl/src/core/../hal/../draw/../misc/lv_anim.h **** }
 1995              		.loc 3 140 5 view .LVU621
 140:Drivers/lvgl/src/core/../hal/../draw/../misc/lv_anim.h **** }
 1996              		.loc 3 140 16 is_stmt 0 view .LVU622
 1997 027e 174B     		ldr	r3, .L103+8
 1998 0280 0193     		str	r3, [sp, #4]
 1999              	.LVL207:
 140:Drivers/lvgl/src/core/../hal/../draw/../misc/lv_anim.h **** }
 2000              		.loc 3 140 16 view .LVU623
 2001              	.LBE283:
 2002              	.LBE282:
 346:Drivers/lvgl/src/core/lv_disp.c ****             break;
 2003              		.loc 1 346 13 is_stmt 1 view .LVU624
 346:Drivers/lvgl/src/core/lv_disp.c ****             break;
 2004              		.loc 1 346 44 is_stmt 0 view .LVU625
 2005 0282 2046     		mov	r0, r4
 2006 0284 FFF7FEFF 		bl	lv_disp_get_hor_res
 2007              	.LVL208:
 346:Drivers/lvgl/src/core/lv_disp.c ****             break;
 2008              		.loc 1 346 43 view .LVU626
 2009 0288 4042     		rsbs	r0, r0, #0
 2010              	.LVL209:
 2011              	.LBB284:
 2012              	.LBI284:
 169:Drivers/lvgl/src/core/../hal/../draw/../misc/lv_anim.h **** {
 2013              		.loc 3 169 20 is_stmt 1 view .LVU627
 2014              	.LBB285:
 171:Drivers/lvgl/src/core/../hal/../draw/../misc/lv_anim.h ****     a->current_value = start;
 2015              		.loc 3 171 5 view .LVU628
 171:Drivers/lvgl/src/core/../hal/../draw/../misc/lv_anim.h ****     a->current_value = start;
 2016              		.loc 3 171 20 is_stmt 0 view .LVU629
ARM GAS  /var/folders/0z/tsy30v1j4xl4_7kw94k978ww0000gn/T//ccvV8C1Y.s 			page 63


 2017 028a 0023     		movs	r3, #0
 2018 028c 0893     		str	r3, [sp, #32]
 172:Drivers/lvgl/src/core/../hal/../draw/../misc/lv_anim.h ****     a->end_value = end;
 2019              		.loc 3 172 5 is_stmt 1 view .LVU630
 172:Drivers/lvgl/src/core/../hal/../draw/../misc/lv_anim.h ****     a->end_value = end;
 2020              		.loc 3 172 22 is_stmt 0 view .LVU631
 2021 028e 0993     		str	r3, [sp, #36]
 173:Drivers/lvgl/src/core/../hal/../draw/../misc/lv_anim.h **** }
 2022              		.loc 3 173 5 is_stmt 1 view .LVU632
 173:Drivers/lvgl/src/core/../hal/../draw/../misc/lv_anim.h **** }
 2023              		.loc 3 173 18 is_stmt 0 view .LVU633
 2024 0290 0A90     		str	r0, [sp, #40]
 174:Drivers/lvgl/src/core/../hal/../draw/../misc/lv_anim.h **** 
 2025              		.loc 3 174 1 view .LVU634
 2026 0292 64E7     		b	.L80
 2027              	.LVL210:
 2028              	.L84:
 174:Drivers/lvgl/src/core/../hal/../draw/../misc/lv_anim.h **** 
 2029              		.loc 3 174 1 view .LVU635
 2030              	.LBE285:
 2031              	.LBE284:
 349:Drivers/lvgl/src/core/lv_disp.c ****             lv_anim_set_values(&a_old, 0, lv_disp_get_hor_res(d));
 2032              		.loc 1 349 13 is_stmt 1 view .LVU636
 2033              	.LBB286:
 2034              	.LBI286:
 138:Drivers/lvgl/src/core/../hal/../draw/../misc/lv_anim.h **** {
 2035              		.loc 3 138 20 view .LVU637
 2036              	.LBB287:
 140:Drivers/lvgl/src/core/../hal/../draw/../misc/lv_anim.h **** }
 2037              		.loc 3 140 5 view .LVU638
 140:Drivers/lvgl/src/core/../hal/../draw/../misc/lv_anim.h **** }
 2038              		.loc 3 140 16 is_stmt 0 view .LVU639
 2039 0294 114B     		ldr	r3, .L103+8
 2040 0296 0193     		str	r3, [sp, #4]
 2041              	.LVL211:
 140:Drivers/lvgl/src/core/../hal/../draw/../misc/lv_anim.h **** }
 2042              		.loc 3 140 16 view .LVU640
 2043              	.LBE287:
 2044              	.LBE286:
 350:Drivers/lvgl/src/core/lv_disp.c ****             break;
 2045              		.loc 1 350 13 is_stmt 1 view .LVU641
 350:Drivers/lvgl/src/core/lv_disp.c ****             break;
 2046              		.loc 1 350 43 is_stmt 0 view .LVU642
 2047 0298 2046     		mov	r0, r4
 2048 029a FFF7FEFF 		bl	lv_disp_get_hor_res
 2049              	.LVL212:
 2050              	.LBB288:
 2051              	.LBI288:
 169:Drivers/lvgl/src/core/../hal/../draw/../misc/lv_anim.h **** {
 2052              		.loc 3 169 20 is_stmt 1 view .LVU643
 2053              	.LBB289:
 171:Drivers/lvgl/src/core/../hal/../draw/../misc/lv_anim.h ****     a->current_value = start;
 2054              		.loc 3 171 5 view .LVU644
 171:Drivers/lvgl/src/core/../hal/../draw/../misc/lv_anim.h ****     a->current_value = start;
 2055              		.loc 3 171 20 is_stmt 0 view .LVU645
 2056 029e 0023     		movs	r3, #0
 2057 02a0 0893     		str	r3, [sp, #32]
ARM GAS  /var/folders/0z/tsy30v1j4xl4_7kw94k978ww0000gn/T//ccvV8C1Y.s 			page 64


 172:Drivers/lvgl/src/core/../hal/../draw/../misc/lv_anim.h ****     a->end_value = end;
 2058              		.loc 3 172 5 is_stmt 1 view .LVU646
 172:Drivers/lvgl/src/core/../hal/../draw/../misc/lv_anim.h ****     a->end_value = end;
 2059              		.loc 3 172 22 is_stmt 0 view .LVU647
 2060 02a2 0993     		str	r3, [sp, #36]
 173:Drivers/lvgl/src/core/../hal/../draw/../misc/lv_anim.h **** }
 2061              		.loc 3 173 5 is_stmt 1 view .LVU648
 173:Drivers/lvgl/src/core/../hal/../draw/../misc/lv_anim.h **** }
 2062              		.loc 3 173 18 is_stmt 0 view .LVU649
 2063 02a4 0A90     		str	r0, [sp, #40]
 174:Drivers/lvgl/src/core/../hal/../draw/../misc/lv_anim.h **** 
 2064              		.loc 3 174 1 view .LVU650
 2065 02a6 5AE7     		b	.L80
 2066              	.LVL213:
 2067              	.L83:
 174:Drivers/lvgl/src/core/../hal/../draw/../misc/lv_anim.h **** 
 2068              		.loc 3 174 1 view .LVU651
 2069              	.LBE289:
 2070              	.LBE288:
 353:Drivers/lvgl/src/core/lv_disp.c ****             lv_anim_set_values(&a_old, 0, -lv_disp_get_ver_res(d));
 2071              		.loc 1 353 13 is_stmt 1 view .LVU652
 2072              	.LBB290:
 2073              	.LBI290:
 138:Drivers/lvgl/src/core/../hal/../draw/../misc/lv_anim.h **** {
 2074              		.loc 3 138 20 view .LVU653
 2075              	.LBB291:
 140:Drivers/lvgl/src/core/../hal/../draw/../misc/lv_anim.h **** }
 2076              		.loc 3 140 5 view .LVU654
 140:Drivers/lvgl/src/core/../hal/../draw/../misc/lv_anim.h **** }
 2077              		.loc 3 140 16 is_stmt 0 view .LVU655
 2078 02a8 0D4B     		ldr	r3, .L103+12
 2079 02aa 0193     		str	r3, [sp, #4]
 2080              	.LVL214:
 140:Drivers/lvgl/src/core/../hal/../draw/../misc/lv_anim.h **** }
 2081              		.loc 3 140 16 view .LVU656
 2082              	.LBE291:
 2083              	.LBE290:
 354:Drivers/lvgl/src/core/lv_disp.c ****             break;
 2084              		.loc 1 354 13 is_stmt 1 view .LVU657
 354:Drivers/lvgl/src/core/lv_disp.c ****             break;
 2085              		.loc 1 354 44 is_stmt 0 view .LVU658
 2086 02ac 2046     		mov	r0, r4
 2087 02ae FFF7FEFF 		bl	lv_disp_get_ver_res
 2088              	.LVL215:
 354:Drivers/lvgl/src/core/lv_disp.c ****             break;
 2089              		.loc 1 354 43 view .LVU659
 2090 02b2 4042     		rsbs	r0, r0, #0
 2091              	.LVL216:
 2092              	.LBB292:
 2093              	.LBI292:
 169:Drivers/lvgl/src/core/../hal/../draw/../misc/lv_anim.h **** {
 2094              		.loc 3 169 20 is_stmt 1 view .LVU660
 2095              	.LBB293:
 171:Drivers/lvgl/src/core/../hal/../draw/../misc/lv_anim.h ****     a->current_value = start;
 2096              		.loc 3 171 5 view .LVU661
 171:Drivers/lvgl/src/core/../hal/../draw/../misc/lv_anim.h ****     a->current_value = start;
 2097              		.loc 3 171 20 is_stmt 0 view .LVU662
ARM GAS  /var/folders/0z/tsy30v1j4xl4_7kw94k978ww0000gn/T//ccvV8C1Y.s 			page 65


 2098 02b4 0023     		movs	r3, #0
 2099 02b6 0893     		str	r3, [sp, #32]
 172:Drivers/lvgl/src/core/../hal/../draw/../misc/lv_anim.h ****     a->end_value = end;
 2100              		.loc 3 172 5 is_stmt 1 view .LVU663
 172:Drivers/lvgl/src/core/../hal/../draw/../misc/lv_anim.h ****     a->end_value = end;
 2101              		.loc 3 172 22 is_stmt 0 view .LVU664
 2102 02b8 0993     		str	r3, [sp, #36]
 173:Drivers/lvgl/src/core/../hal/../draw/../misc/lv_anim.h **** }
 2103              		.loc 3 173 5 is_stmt 1 view .LVU665
 173:Drivers/lvgl/src/core/../hal/../draw/../misc/lv_anim.h **** }
 2104              		.loc 3 173 18 is_stmt 0 view .LVU666
 2105 02ba 0A90     		str	r0, [sp, #40]
 174:Drivers/lvgl/src/core/../hal/../draw/../misc/lv_anim.h **** 
 2106              		.loc 3 174 1 view .LVU667
 2107 02bc 4FE7     		b	.L80
 2108              	.LVL217:
 2109              	.L81:
 174:Drivers/lvgl/src/core/../hal/../draw/../misc/lv_anim.h **** 
 2110              		.loc 3 174 1 view .LVU668
 2111              	.LBE293:
 2112              	.LBE292:
 357:Drivers/lvgl/src/core/lv_disp.c ****             lv_anim_set_values(&a_old, 0, lv_disp_get_ver_res(d));
 2113              		.loc 1 357 13 is_stmt 1 view .LVU669
 2114              	.LBB294:
 2115              	.LBI294:
 138:Drivers/lvgl/src/core/../hal/../draw/../misc/lv_anim.h **** {
 2116              		.loc 3 138 20 view .LVU670
 2117              	.LBB295:
 140:Drivers/lvgl/src/core/../hal/../draw/../misc/lv_anim.h **** }
 2118              		.loc 3 140 5 view .LVU671
 140:Drivers/lvgl/src/core/../hal/../draw/../misc/lv_anim.h **** }
 2119              		.loc 3 140 16 is_stmt 0 view .LVU672
 2120 02be 084B     		ldr	r3, .L103+12
 2121 02c0 0193     		str	r3, [sp, #4]
 2122              	.LVL218:
 140:Drivers/lvgl/src/core/../hal/../draw/../misc/lv_anim.h **** }
 2123              		.loc 3 140 16 view .LVU673
 2124              	.LBE295:
 2125              	.LBE294:
 358:Drivers/lvgl/src/core/lv_disp.c ****             break;
 2126              		.loc 1 358 13 is_stmt 1 view .LVU674
 358:Drivers/lvgl/src/core/lv_disp.c ****             break;
 2127              		.loc 1 358 43 is_stmt 0 view .LVU675
 2128 02c2 2046     		mov	r0, r4
 2129 02c4 FFF7FEFF 		bl	lv_disp_get_ver_res
 2130              	.LVL219:
 2131              	.LBB296:
 2132              	.LBI296:
 169:Drivers/lvgl/src/core/../hal/../draw/../misc/lv_anim.h **** {
 2133              		.loc 3 169 20 is_stmt 1 view .LVU676
 2134              	.LBB297:
 171:Drivers/lvgl/src/core/../hal/../draw/../misc/lv_anim.h ****     a->current_value = start;
 2135              		.loc 3 171 5 view .LVU677
 171:Drivers/lvgl/src/core/../hal/../draw/../misc/lv_anim.h ****     a->current_value = start;
 2136              		.loc 3 171 20 is_stmt 0 view .LVU678
 2137 02c8 0023     		movs	r3, #0
 2138 02ca 0893     		str	r3, [sp, #32]
ARM GAS  /var/folders/0z/tsy30v1j4xl4_7kw94k978ww0000gn/T//ccvV8C1Y.s 			page 66


 172:Drivers/lvgl/src/core/../hal/../draw/../misc/lv_anim.h ****     a->end_value = end;
 2139              		.loc 3 172 5 is_stmt 1 view .LVU679
 172:Drivers/lvgl/src/core/../hal/../draw/../misc/lv_anim.h ****     a->end_value = end;
 2140              		.loc 3 172 22 is_stmt 0 view .LVU680
 2141 02cc 0993     		str	r3, [sp, #36]
 173:Drivers/lvgl/src/core/../hal/../draw/../misc/lv_anim.h **** }
 2142              		.loc 3 173 5 is_stmt 1 view .LVU681
 173:Drivers/lvgl/src/core/../hal/../draw/../misc/lv_anim.h **** }
 2143              		.loc 3 173 18 is_stmt 0 view .LVU682
 2144 02ce 0A90     		str	r0, [sp, #40]
 174:Drivers/lvgl/src/core/../hal/../draw/../misc/lv_anim.h **** 
 2145              		.loc 3 174 1 view .LVU683
 2146 02d0 45E7     		b	.L80
 2147              	.L104:
 2148 02d2 00BF     		.align	2
 2149              	.L103:
 2150 02d4 00000000 		.word	scr_load_anim_start
 2151 02d8 00000000 		.word	scr_anim_ready
 2152 02dc 00000000 		.word	set_x_anim
 2153 02e0 00000000 		.word	set_y_anim
 2154 02e4 00000000 		.word	opa_scale_anim
 2155              	.LBE297:
 2156              	.LBE296:
 2157              		.cfi_endproc
 2158              	.LFE177:
 2160              		.section	.text.lv_disp_load_scr,"ax",%progbits
 2161              		.align	1
 2162              		.global	lv_disp_load_scr
 2163              		.syntax unified
 2164              		.thumb
 2165              		.thumb_func
 2167              	lv_disp_load_scr:
 2168              	.LVL220:
 2169              	.LFB169:
  83:Drivers/lvgl/src/core/lv_disp.c ****     lv_scr_load_anim(scr, LV_SCR_LOAD_ANIM_NONE, 0, 0, false);
 2170              		.loc 1 83 1 is_stmt 1 view -0
 2171              		.cfi_startproc
 2172              		@ args = 0, pretend = 0, frame = 0
 2173              		@ frame_needed = 0, uses_anonymous_args = 0
  83:Drivers/lvgl/src/core/lv_disp.c ****     lv_scr_load_anim(scr, LV_SCR_LOAD_ANIM_NONE, 0, 0, false);
 2174              		.loc 1 83 1 is_stmt 0 view .LVU685
 2175 0000 00B5     		push	{lr}
 2176              		.cfi_def_cfa_offset 4
 2177              		.cfi_offset 14, -4
 2178 0002 83B0     		sub	sp, sp, #12
 2179              		.cfi_def_cfa_offset 16
  84:Drivers/lvgl/src/core/lv_disp.c **** }
 2180              		.loc 1 84 5 is_stmt 1 view .LVU686
 2181 0004 0021     		movs	r1, #0
 2182 0006 0091     		str	r1, [sp]
 2183 0008 0B46     		mov	r3, r1
 2184 000a 0A46     		mov	r2, r1
 2185 000c FFF7FEFF 		bl	lv_scr_load_anim
 2186              	.LVL221:
  85:Drivers/lvgl/src/core/lv_disp.c **** 
 2187              		.loc 1 85 1 is_stmt 0 view .LVU687
 2188 0010 03B0     		add	sp, sp, #12
ARM GAS  /var/folders/0z/tsy30v1j4xl4_7kw94k978ww0000gn/T//ccvV8C1Y.s 			page 67


 2189              		.cfi_def_cfa_offset 4
 2190              		@ sp needed
 2191 0012 5DF804FB 		ldr	pc, [sp], #4
 2192              		.cfi_endproc
 2193              	.LFE169:
 2195              		.section	.text.lv_disp_get_inactive_time,"ax",%progbits
 2196              		.align	1
 2197              		.global	lv_disp_get_inactive_time
 2198              		.syntax unified
 2199              		.thumb
 2200              		.thumb_func
 2202              	lv_disp_get_inactive_time:
 2203              	.LVL222:
 2204              	.LFB178:
 374:Drivers/lvgl/src/core/lv_disp.c ****     if(disp) return lv_tick_elaps(disp->last_activity_time);
 2205              		.loc 1 374 1 is_stmt 1 view -0
 2206              		.cfi_startproc
 2207              		@ args = 0, pretend = 0, frame = 0
 2208              		@ frame_needed = 0, uses_anonymous_args = 0
 374:Drivers/lvgl/src/core/lv_disp.c ****     if(disp) return lv_tick_elaps(disp->last_activity_time);
 2209              		.loc 1 374 1 is_stmt 0 view .LVU689
 2210 0000 38B5     		push	{r3, r4, r5, lr}
 2211              		.cfi_def_cfa_offset 16
 2212              		.cfi_offset 3, -16
 2213              		.cfi_offset 4, -12
 2214              		.cfi_offset 5, -8
 2215              		.cfi_offset 14, -4
 375:Drivers/lvgl/src/core/lv_disp.c **** 
 2216              		.loc 1 375 5 is_stmt 1 view .LVU690
 375:Drivers/lvgl/src/core/lv_disp.c **** 
 2217              		.loc 1 375 7 is_stmt 0 view .LVU691
 2218 0002 30B1     		cbz	r0, .L108
 375:Drivers/lvgl/src/core/lv_disp.c **** 
 2219              		.loc 1 375 14 is_stmt 1 discriminator 1 view .LVU692
 375:Drivers/lvgl/src/core/lv_disp.c **** 
 2220              		.loc 1 375 21 is_stmt 0 discriminator 1 view .LVU693
 2221 0004 D0F86401 		ldr	r0, [r0, #356]
 2222              	.LVL223:
 375:Drivers/lvgl/src/core/lv_disp.c **** 
 2223              		.loc 1 375 21 discriminator 1 view .LVU694
 2224 0008 FFF7FEFF 		bl	lv_tick_elaps
 2225              	.LVL224:
 2226 000c 0546     		mov	r5, r0
 2227              	.L107:
 387:Drivers/lvgl/src/core/lv_disp.c **** 
 2228              		.loc 1 387 1 view .LVU695
 2229 000e 2846     		mov	r0, r5
 2230 0010 38BD     		pop	{r3, r4, r5, pc}
 2231              	.LVL225:
 2232              	.L108:
 377:Drivers/lvgl/src/core/lv_disp.c ****     uint32_t t = UINT32_MAX;
 2233              		.loc 1 377 5 is_stmt 1 view .LVU696
 378:Drivers/lvgl/src/core/lv_disp.c ****     d          = lv_disp_get_next(NULL);
 2234              		.loc 1 378 5 view .LVU697
 379:Drivers/lvgl/src/core/lv_disp.c ****     while(d) {
 2235              		.loc 1 379 5 view .LVU698
 379:Drivers/lvgl/src/core/lv_disp.c ****     while(d) {
ARM GAS  /var/folders/0z/tsy30v1j4xl4_7kw94k978ww0000gn/T//ccvV8C1Y.s 			page 68


 2236              		.loc 1 379 18 is_stmt 0 view .LVU699
 2237 0012 0020     		movs	r0, #0
 2238              	.LVL226:
 379:Drivers/lvgl/src/core/lv_disp.c ****     while(d) {
 2239              		.loc 1 379 18 view .LVU700
 2240 0014 FFF7FEFF 		bl	lv_disp_get_next
 2241              	.LVL227:
 2242 0018 0446     		mov	r4, r0
 2243              	.LVL228:
 380:Drivers/lvgl/src/core/lv_disp.c ****         uint32_t elaps = lv_tick_elaps(d->last_activity_time);
 2244              		.loc 1 380 5 is_stmt 1 view .LVU701
 378:Drivers/lvgl/src/core/lv_disp.c ****     d          = lv_disp_get_next(NULL);
 2245              		.loc 1 378 14 is_stmt 0 view .LVU702
 2246 001a 4FF0FF35 		mov	r5, #-1
 380:Drivers/lvgl/src/core/lv_disp.c ****         uint32_t elaps = lv_tick_elaps(d->last_activity_time);
 2247              		.loc 1 380 10 view .LVU703
 2248 001e 0AE0     		b	.L110
 2249              	.LVL229:
 2250              	.L111:
 2251              	.LBB298:
 381:Drivers/lvgl/src/core/lv_disp.c ****         t = LV_MIN(t, elaps);
 2252              		.loc 1 381 9 is_stmt 1 view .LVU704
 381:Drivers/lvgl/src/core/lv_disp.c ****         t = LV_MIN(t, elaps);
 2253              		.loc 1 381 26 is_stmt 0 view .LVU705
 2254 0020 D4F86401 		ldr	r0, [r4, #356]
 2255              	.LVL230:
 381:Drivers/lvgl/src/core/lv_disp.c ****         t = LV_MIN(t, elaps);
 2256              		.loc 1 381 26 view .LVU706
 2257 0024 FFF7FEFF 		bl	lv_tick_elaps
 2258              	.LVL231:
 382:Drivers/lvgl/src/core/lv_disp.c ****         d = lv_disp_get_next(d);
 2259              		.loc 1 382 9 is_stmt 1 view .LVU707
 382:Drivers/lvgl/src/core/lv_disp.c ****         d = lv_disp_get_next(d);
 2260              		.loc 1 382 11 is_stmt 0 view .LVU708
 2261 0028 8542     		cmp	r5, r0
 2262 002a 28BF     		it	cs
 2263 002c 0546     		movcs	r5, r0
 2264              	.LVL232:
 383:Drivers/lvgl/src/core/lv_disp.c ****     }
 2265              		.loc 1 383 9 is_stmt 1 view .LVU709
 383:Drivers/lvgl/src/core/lv_disp.c ****     }
 2266              		.loc 1 383 13 is_stmt 0 view .LVU710
 2267 002e 2046     		mov	r0, r4
 2268              	.LVL233:
 383:Drivers/lvgl/src/core/lv_disp.c ****     }
 2269              		.loc 1 383 13 view .LVU711
 2270 0030 FFF7FEFF 		bl	lv_disp_get_next
 2271              	.LVL234:
 2272 0034 0446     		mov	r4, r0
 2273              	.LVL235:
 2274              	.L110:
 383:Drivers/lvgl/src/core/lv_disp.c ****     }
 2275              		.loc 1 383 13 view .LVU712
 2276              	.LBE298:
 380:Drivers/lvgl/src/core/lv_disp.c ****         uint32_t elaps = lv_tick_elaps(d->last_activity_time);
 2277              		.loc 1 380 11 is_stmt 1 view .LVU713
 2278 0036 002C     		cmp	r4, #0
ARM GAS  /var/folders/0z/tsy30v1j4xl4_7kw94k978ww0000gn/T//ccvV8C1Y.s 			page 69


 2279 0038 F2D1     		bne	.L111
 380:Drivers/lvgl/src/core/lv_disp.c ****         uint32_t elaps = lv_tick_elaps(d->last_activity_time);
 2280              		.loc 1 380 11 is_stmt 0 view .LVU714
 2281 003a E8E7     		b	.L107
 2282              		.cfi_endproc
 2283              	.LFE178:
 2285              		.section	.text.lv_disp_trig_activity,"ax",%progbits
 2286              		.align	1
 2287              		.global	lv_disp_trig_activity
 2288              		.syntax unified
 2289              		.thumb
 2290              		.thumb_func
 2292              	lv_disp_trig_activity:
 2293              	.LVL236:
 2294              	.LFB179:
 394:Drivers/lvgl/src/core/lv_disp.c ****     if(!disp) disp = lv_disp_get_default();
 2295              		.loc 1 394 1 is_stmt 1 view -0
 2296              		.cfi_startproc
 2297              		@ args = 0, pretend = 0, frame = 0
 2298              		@ frame_needed = 0, uses_anonymous_args = 0
 394:Drivers/lvgl/src/core/lv_disp.c ****     if(!disp) disp = lv_disp_get_default();
 2299              		.loc 1 394 1 is_stmt 0 view .LVU716
 2300 0000 10B5     		push	{r4, lr}
 2301              		.cfi_def_cfa_offset 8
 2302              		.cfi_offset 4, -8
 2303              		.cfi_offset 14, -4
 395:Drivers/lvgl/src/core/lv_disp.c ****     if(!disp) {
 2304              		.loc 1 395 5 is_stmt 1 view .LVU717
 395:Drivers/lvgl/src/core/lv_disp.c ****     if(!disp) {
 2305              		.loc 1 395 7 is_stmt 0 view .LVU718
 2306 0002 0446     		mov	r4, r0
 2307 0004 28B1     		cbz	r0, .L117
 2308              	.L114:
 396:Drivers/lvgl/src/core/lv_disp.c ****         LV_LOG_WARN("lv_disp_trig_activity: no display registered");
 2309              		.loc 1 396 5 is_stmt 1 view .LVU719
 396:Drivers/lvgl/src/core/lv_disp.c ****         LV_LOG_WARN("lv_disp_trig_activity: no display registered");
 2310              		.loc 1 396 7 is_stmt 0 view .LVU720
 2311 0006 1CB1     		cbz	r4, .L113
 401:Drivers/lvgl/src/core/lv_disp.c **** }
 2312              		.loc 1 401 5 is_stmt 1 view .LVU721
 401:Drivers/lvgl/src/core/lv_disp.c **** }
 2313              		.loc 1 401 32 is_stmt 0 view .LVU722
 2314 0008 FFF7FEFF 		bl	lv_tick_get
 2315              	.LVL237:
 401:Drivers/lvgl/src/core/lv_disp.c **** }
 2316              		.loc 1 401 30 view .LVU723
 2317 000c C4F86401 		str	r0, [r4, #356]
 2318              	.L113:
 402:Drivers/lvgl/src/core/lv_disp.c **** 
 2319              		.loc 1 402 1 view .LVU724
 2320 0010 10BD     		pop	{r4, pc}
 2321              	.LVL238:
 2322              	.L117:
 395:Drivers/lvgl/src/core/lv_disp.c ****     if(!disp) {
 2323              		.loc 1 395 15 is_stmt 1 discriminator 1 view .LVU725
 395:Drivers/lvgl/src/core/lv_disp.c ****     if(!disp) {
 2324              		.loc 1 395 22 is_stmt 0 discriminator 1 view .LVU726
ARM GAS  /var/folders/0z/tsy30v1j4xl4_7kw94k978ww0000gn/T//ccvV8C1Y.s 			page 70


 2325 0012 FFF7FEFF 		bl	lv_disp_get_default
 2326              	.LVL239:
 395:Drivers/lvgl/src/core/lv_disp.c ****     if(!disp) {
 2327              		.loc 1 395 22 discriminator 1 view .LVU727
 2328 0016 0446     		mov	r4, r0
 2329              	.LVL240:
 395:Drivers/lvgl/src/core/lv_disp.c ****     if(!disp) {
 2330              		.loc 1 395 22 discriminator 1 view .LVU728
 2331 0018 F5E7     		b	.L114
 2332              		.cfi_endproc
 2333              	.LFE179:
 2335              		.section	.text.lv_disp_clean_dcache,"ax",%progbits
 2336              		.align	1
 2337              		.global	lv_disp_clean_dcache
 2338              		.syntax unified
 2339              		.thumb
 2340              		.thumb_func
 2342              	lv_disp_clean_dcache:
 2343              	.LVL241:
 2344              	.LFB180:
 409:Drivers/lvgl/src/core/lv_disp.c ****     if(!disp) disp = lv_disp_get_default();
 2345              		.loc 1 409 1 is_stmt 1 view -0
 2346              		.cfi_startproc
 2347              		@ args = 0, pretend = 0, frame = 0
 2348              		@ frame_needed = 0, uses_anonymous_args = 0
 409:Drivers/lvgl/src/core/lv_disp.c ****     if(!disp) disp = lv_disp_get_default();
 2349              		.loc 1 409 1 is_stmt 0 view .LVU730
 2350 0000 08B5     		push	{r3, lr}
 2351              		.cfi_def_cfa_offset 8
 2352              		.cfi_offset 3, -8
 2353              		.cfi_offset 14, -4
 410:Drivers/lvgl/src/core/lv_disp.c ****     if(!disp) {
 2354              		.loc 1 410 5 is_stmt 1 view .LVU731
 410:Drivers/lvgl/src/core/lv_disp.c ****     if(!disp) {
 2355              		.loc 1 410 7 is_stmt 0 view .LVU732
 2356 0002 0346     		mov	r3, r0
 2357 0004 28B1     		cbz	r0, .L122
 2358              	.L119:
 411:Drivers/lvgl/src/core/lv_disp.c ****         LV_LOG_WARN("lv_disp_clean_dcache: no display registered");
 2359              		.loc 1 411 5 is_stmt 1 view .LVU733
 411:Drivers/lvgl/src/core/lv_disp.c ****         LV_LOG_WARN("lv_disp_clean_dcache: no display registered");
 2360              		.loc 1 411 7 is_stmt 0 view .LVU734
 2361 0006 1BB1     		cbz	r3, .L118
 416:Drivers/lvgl/src/core/lv_disp.c ****         disp->driver->clean_dcache_cb(disp->driver);
 2362              		.loc 1 416 5 is_stmt 1 view .LVU735
 416:Drivers/lvgl/src/core/lv_disp.c ****         disp->driver->clean_dcache_cb(disp->driver);
 2363              		.loc 1 416 12 is_stmt 0 view .LVU736
 2364 0008 1868     		ldr	r0, [r3]
 2365              	.LVL242:
 416:Drivers/lvgl/src/core/lv_disp.c ****         disp->driver->clean_dcache_cb(disp->driver);
 2366              		.loc 1 416 20 view .LVU737
 2367 000a C36A     		ldr	r3, [r0, #44]
 2368              	.LVL243:
 416:Drivers/lvgl/src/core/lv_disp.c ****         disp->driver->clean_dcache_cb(disp->driver);
 2369              		.loc 1 416 7 view .LVU738
 2370 000c 03B1     		cbz	r3, .L118
 417:Drivers/lvgl/src/core/lv_disp.c **** }
ARM GAS  /var/folders/0z/tsy30v1j4xl4_7kw94k978ww0000gn/T//ccvV8C1Y.s 			page 71


 2371              		.loc 1 417 9 is_stmt 1 view .LVU739
 2372 000e 9847     		blx	r3
 2373              	.LVL244:
 2374              	.L118:
 418:Drivers/lvgl/src/core/lv_disp.c **** 
 2375              		.loc 1 418 1 is_stmt 0 view .LVU740
 2376 0010 08BD     		pop	{r3, pc}
 2377              	.LVL245:
 2378              	.L122:
 410:Drivers/lvgl/src/core/lv_disp.c ****     if(!disp) {
 2379              		.loc 1 410 15 is_stmt 1 discriminator 1 view .LVU741
 410:Drivers/lvgl/src/core/lv_disp.c ****     if(!disp) {
 2380              		.loc 1 410 22 is_stmt 0 discriminator 1 view .LVU742
 2381 0012 FFF7FEFF 		bl	lv_disp_get_default
 2382              	.LVL246:
 410:Drivers/lvgl/src/core/lv_disp.c ****     if(!disp) {
 2383              		.loc 1 410 22 discriminator 1 view .LVU743
 2384 0016 0346     		mov	r3, r0
 2385              	.LVL247:
 410:Drivers/lvgl/src/core/lv_disp.c ****     if(!disp) {
 2386              		.loc 1 410 22 discriminator 1 view .LVU744
 2387 0018 F5E7     		b	.L119
 2388              		.cfi_endproc
 2389              	.LFE180:
 2391              		.section	.text.lv_disp_enable_invalidation,"ax",%progbits
 2392              		.align	1
 2393              		.global	lv_disp_enable_invalidation
 2394              		.syntax unified
 2395              		.thumb
 2396              		.thumb_func
 2398              	lv_disp_enable_invalidation:
 2399              	.LVL248:
 2400              	.LFB181:
 426:Drivers/lvgl/src/core/lv_disp.c ****     if(!disp) disp = lv_disp_get_default();
 2401              		.loc 1 426 1 is_stmt 1 view -0
 2402              		.cfi_startproc
 2403              		@ args = 0, pretend = 0, frame = 0
 2404              		@ frame_needed = 0, uses_anonymous_args = 0
 426:Drivers/lvgl/src/core/lv_disp.c ****     if(!disp) disp = lv_disp_get_default();
 2405              		.loc 1 426 1 is_stmt 0 view .LVU746
 2406 0000 10B5     		push	{r4, lr}
 2407              		.cfi_def_cfa_offset 8
 2408              		.cfi_offset 4, -8
 2409              		.cfi_offset 14, -4
 2410 0002 0C46     		mov	r4, r1
 427:Drivers/lvgl/src/core/lv_disp.c ****     if(!disp) {
 2411              		.loc 1 427 5 is_stmt 1 view .LVU747
 427:Drivers/lvgl/src/core/lv_disp.c ****     if(!disp) {
 2412              		.loc 1 427 7 is_stmt 0 view .LVU748
 2413 0004 0346     		mov	r3, r0
 2414 0006 40B1     		cbz	r0, .L129
 2415              	.LVL249:
 2416              	.L124:
 428:Drivers/lvgl/src/core/lv_disp.c ****         LV_LOG_WARN("no display registered");
 2417              		.loc 1 428 5 is_stmt 1 view .LVU749
 428:Drivers/lvgl/src/core/lv_disp.c ****         LV_LOG_WARN("no display registered");
 2418              		.loc 1 428 7 is_stmt 0 view .LVU750
ARM GAS  /var/folders/0z/tsy30v1j4xl4_7kw94k978ww0000gn/T//ccvV8C1Y.s 			page 72


 2419 0008 33B1     		cbz	r3, .L123
 433:Drivers/lvgl/src/core/lv_disp.c **** }
 2420              		.loc 1 433 5 is_stmt 1 view .LVU751
 433:Drivers/lvgl/src/core/lv_disp.c **** }
 2421              		.loc 1 433 22 is_stmt 0 view .LVU752
 2422 000a D3F85421 		ldr	r2, [r3, #340]
 433:Drivers/lvgl/src/core/lv_disp.c **** }
 2423              		.loc 1 433 32 view .LVU753
 2424 000e 44B1     		cbz	r4, .L127
 2425 0010 0121     		movs	r1, #1
 2426              	.L126:
 433:Drivers/lvgl/src/core/lv_disp.c **** }
 2427              		.loc 1 433 22 discriminator 4 view .LVU754
 2428 0012 0A44     		add	r2, r2, r1
 2429 0014 C3F85421 		str	r2, [r3, #340]
 2430              	.L123:
 434:Drivers/lvgl/src/core/lv_disp.c **** 
 2431              		.loc 1 434 1 view .LVU755
 2432 0018 10BD     		pop	{r4, pc}
 2433              	.LVL250:
 2434              	.L129:
 427:Drivers/lvgl/src/core/lv_disp.c ****     if(!disp) {
 2435              		.loc 1 427 15 is_stmt 1 discriminator 1 view .LVU756
 427:Drivers/lvgl/src/core/lv_disp.c ****     if(!disp) {
 2436              		.loc 1 427 22 is_stmt 0 discriminator 1 view .LVU757
 2437 001a FFF7FEFF 		bl	lv_disp_get_default
 2438              	.LVL251:
 427:Drivers/lvgl/src/core/lv_disp.c ****     if(!disp) {
 2439              		.loc 1 427 22 discriminator 1 view .LVU758
 2440 001e 0346     		mov	r3, r0
 2441              	.LVL252:
 427:Drivers/lvgl/src/core/lv_disp.c ****     if(!disp) {
 2442              		.loc 1 427 22 discriminator 1 view .LVU759
 2443 0020 F2E7     		b	.L124
 2444              	.L127:
 433:Drivers/lvgl/src/core/lv_disp.c **** }
 2445              		.loc 1 433 32 view .LVU760
 2446 0022 4FF0FF31 		mov	r1, #-1
 2447 0026 F4E7     		b	.L126
 2448              		.cfi_endproc
 2449              	.LFE181:
 2451              		.section	.text.lv_disp_is_invalidation_enabled,"ax",%progbits
 2452              		.align	1
 2453              		.global	lv_disp_is_invalidation_enabled
 2454              		.syntax unified
 2455              		.thumb
 2456              		.thumb_func
 2458              	lv_disp_is_invalidation_enabled:
 2459              	.LVL253:
 2460              	.LFB182:
 442:Drivers/lvgl/src/core/lv_disp.c ****     if(!disp) disp = lv_disp_get_default();
 2461              		.loc 1 442 1 is_stmt 1 view -0
 2462              		.cfi_startproc
 2463              		@ args = 0, pretend = 0, frame = 0
 2464              		@ frame_needed = 0, uses_anonymous_args = 0
 442:Drivers/lvgl/src/core/lv_disp.c ****     if(!disp) disp = lv_disp_get_default();
 2465              		.loc 1 442 1 is_stmt 0 view .LVU762
ARM GAS  /var/folders/0z/tsy30v1j4xl4_7kw94k978ww0000gn/T//ccvV8C1Y.s 			page 73


 2466 0000 08B5     		push	{r3, lr}
 2467              		.cfi_def_cfa_offset 8
 2468              		.cfi_offset 3, -8
 2469              		.cfi_offset 14, -4
 443:Drivers/lvgl/src/core/lv_disp.c ****     if(!disp) {
 2470              		.loc 1 443 5 is_stmt 1 view .LVU763
 443:Drivers/lvgl/src/core/lv_disp.c ****     if(!disp) {
 2471              		.loc 1 443 7 is_stmt 0 view .LVU764
 2472 0002 0346     		mov	r3, r0
 2473 0004 38B1     		cbz	r0, .L135
 2474              	.L131:
 444:Drivers/lvgl/src/core/lv_disp.c ****         LV_LOG_WARN("no display registered");
 2475              		.loc 1 444 5 is_stmt 1 view .LVU765
 444:Drivers/lvgl/src/core/lv_disp.c ****         LV_LOG_WARN("no display registered");
 2476              		.loc 1 444 7 is_stmt 0 view .LVU766
 2477 0006 53B1     		cbz	r3, .L133
 449:Drivers/lvgl/src/core/lv_disp.c **** }
 2478              		.loc 1 449 5 is_stmt 1 view .LVU767
 449:Drivers/lvgl/src/core/lv_disp.c **** }
 2479              		.loc 1 449 17 is_stmt 0 view .LVU768
 2480 0008 D3F85401 		ldr	r0, [r3, #340]
 2481              	.LVL254:
 449:Drivers/lvgl/src/core/lv_disp.c **** }
 2482              		.loc 1 449 30 view .LVU769
 2483 000c 0028     		cmp	r0, #0
 2484 000e D4BF     		ite	le
 2485 0010 0020     		movle	r0, #0
 2486 0012 0120     		movgt	r0, #1
 2487              	.L132:
 450:Drivers/lvgl/src/core/lv_disp.c **** 
 2488              		.loc 1 450 1 view .LVU770
 2489 0014 08BD     		pop	{r3, pc}
 2490              	.LVL255:
 2491              	.L135:
 443:Drivers/lvgl/src/core/lv_disp.c ****     if(!disp) {
 2492              		.loc 1 443 15 is_stmt 1 discriminator 1 view .LVU771
 443:Drivers/lvgl/src/core/lv_disp.c ****     if(!disp) {
 2493              		.loc 1 443 22 is_stmt 0 discriminator 1 view .LVU772
 2494 0016 FFF7FEFF 		bl	lv_disp_get_default
 2495              	.LVL256:
 443:Drivers/lvgl/src/core/lv_disp.c ****     if(!disp) {
 2496              		.loc 1 443 22 discriminator 1 view .LVU773
 2497 001a 0346     		mov	r3, r0
 2498              	.LVL257:
 443:Drivers/lvgl/src/core/lv_disp.c ****     if(!disp) {
 2499              		.loc 1 443 22 discriminator 1 view .LVU774
 2500 001c F3E7     		b	.L131
 2501              	.L133:
 446:Drivers/lvgl/src/core/lv_disp.c ****     }
 2502              		.loc 1 446 16 view .LVU775
 2503 001e 0020     		movs	r0, #0
 2504              	.LVL258:
 446:Drivers/lvgl/src/core/lv_disp.c ****     }
 2505              		.loc 1 446 16 view .LVU776
 2506 0020 F8E7     		b	.L132
 2507              		.cfi_endproc
 2508              	.LFE182:
ARM GAS  /var/folders/0z/tsy30v1j4xl4_7kw94k978ww0000gn/T//ccvV8C1Y.s 			page 74


 2510              		.section	.text._lv_disp_get_refr_timer,"ax",%progbits
 2511              		.align	1
 2512              		.global	_lv_disp_get_refr_timer
 2513              		.syntax unified
 2514              		.thumb
 2515              		.thumb_func
 2517              	_lv_disp_get_refr_timer:
 2518              	.LVL259:
 2519              	.LFB183:
 459:Drivers/lvgl/src/core/lv_disp.c ****     if(!disp) disp = lv_disp_get_default();
 2520              		.loc 1 459 1 is_stmt 1 view -0
 2521              		.cfi_startproc
 2522              		@ args = 0, pretend = 0, frame = 0
 2523              		@ frame_needed = 0, uses_anonymous_args = 0
 459:Drivers/lvgl/src/core/lv_disp.c ****     if(!disp) disp = lv_disp_get_default();
 2524              		.loc 1 459 1 is_stmt 0 view .LVU778
 2525 0000 08B5     		push	{r3, lr}
 2526              		.cfi_def_cfa_offset 8
 2527              		.cfi_offset 3, -8
 2528              		.cfi_offset 14, -4
 460:Drivers/lvgl/src/core/lv_disp.c ****     if(!disp) {
 2529              		.loc 1 460 5 is_stmt 1 view .LVU779
 460:Drivers/lvgl/src/core/lv_disp.c ****     if(!disp) {
 2530              		.loc 1 460 7 is_stmt 0 view .LVU780
 2531 0002 0346     		mov	r3, r0
 2532 0004 10B1     		cbz	r0, .L141
 2533              	.L137:
 461:Drivers/lvgl/src/core/lv_disp.c ****         LV_LOG_WARN("lv_disp_get_refr_timer: no display registered");
 2534              		.loc 1 461 5 is_stmt 1 view .LVU781
 461:Drivers/lvgl/src/core/lv_disp.c ****         LV_LOG_WARN("lv_disp_get_refr_timer: no display registered");
 2535              		.loc 1 461 7 is_stmt 0 view .LVU782
 2536 0006 2BB1     		cbz	r3, .L139
 466:Drivers/lvgl/src/core/lv_disp.c **** }
 2537              		.loc 1 466 5 is_stmt 1 view .LVU783
 466:Drivers/lvgl/src/core/lv_disp.c **** }
 2538              		.loc 1 466 16 is_stmt 0 view .LVU784
 2539 0008 5868     		ldr	r0, [r3, #4]
 2540              	.LVL260:
 2541              	.L136:
 467:Drivers/lvgl/src/core/lv_disp.c **** 
 2542              		.loc 1 467 1 view .LVU785
 2543 000a 08BD     		pop	{r3, pc}
 2544              	.LVL261:
 2545              	.L141:
 460:Drivers/lvgl/src/core/lv_disp.c ****     if(!disp) {
 2546              		.loc 1 460 15 is_stmt 1 discriminator 1 view .LVU786
 460:Drivers/lvgl/src/core/lv_disp.c ****     if(!disp) {
 2547              		.loc 1 460 22 is_stmt 0 discriminator 1 view .LVU787
 2548 000c FFF7FEFF 		bl	lv_disp_get_default
 2549              	.LVL262:
 460:Drivers/lvgl/src/core/lv_disp.c ****     if(!disp) {
 2550              		.loc 1 460 22 discriminator 1 view .LVU788
 2551 0010 0346     		mov	r3, r0
 2552              	.LVL263:
 460:Drivers/lvgl/src/core/lv_disp.c ****     if(!disp) {
 2553              		.loc 1 460 22 discriminator 1 view .LVU789
 2554 0012 F8E7     		b	.L137
ARM GAS  /var/folders/0z/tsy30v1j4xl4_7kw94k978ww0000gn/T//ccvV8C1Y.s 			page 75


 2555              	.L139:
 463:Drivers/lvgl/src/core/lv_disp.c ****     }
 2556              		.loc 1 463 16 view .LVU790
 2557 0014 1846     		mov	r0, r3
 2558              	.LVL264:
 463:Drivers/lvgl/src/core/lv_disp.c ****     }
 2559              		.loc 1 463 16 view .LVU791
 2560 0016 F8E7     		b	.L136
 2561              		.cfi_endproc
 2562              	.LFE183:
 2564              		.text
 2565              	.Letext0:
 2566              		.file 4 "/Users/johannes/Library/Application Support/Code/User/globalStorage/bmd.stm32-for-vscode/
 2567              		.file 5 "/Users/johannes/Library/Application Support/Code/User/globalStorage/bmd.stm32-for-vscode/
 2568              		.file 6 "/Users/johannes/Library/Application Support/Code/User/globalStorage/bmd.stm32-for-vscode/
 2569              		.file 7 "Drivers/lvgl/src/core/../hal/../draw/../misc/../font/../misc/lv_area.h"
 2570              		.file 8 "Drivers/lvgl/src/core/../hal/../draw/../misc/../font/lv_font.h"
 2571              		.file 9 "Drivers/lvgl/src/core/../hal/../draw/../misc/lv_types.h"
 2572              		.file 10 "Drivers/lvgl/src/core/../hal/../draw/../misc/lv_color.h"
 2573              		.file 11 "Drivers/lvgl/src/core/../hal/../draw/../misc/lv_txt.h"
 2574              		.file 12 "Drivers/lvgl/src/core/../hal/../draw/../misc/lv_bidi.h"
 2575              		.file 13 "Drivers/lvgl/src/core/../hal/../draw/../misc/lv_style.h"
 2576              		.file 14 "Drivers/lvgl/src/core/../hal/../draw/lv_img_buf.h"
 2577              		.file 15 "Drivers/lvgl/src/core/lv_obj.h"
 2578              		.file 16 "Drivers/lvgl/src/core/../hal/../draw/lv_draw_rect.h"
 2579              		.file 17 "Drivers/lvgl/src/core/../hal/../draw/lv_draw_label.h"
 2580              		.file 18 "Drivers/lvgl/src/core/../hal/../draw/lv_draw_img.h"
 2581              		.file 19 "Drivers/lvgl/src/core/../hal/../draw/lv_draw_line.h"
 2582              		.file 20 "Drivers/lvgl/src/core/../hal/../draw/lv_draw_arc.h"
 2583              		.file 21 "Drivers/lvgl/src/core/../hal/../draw/lv_draw_layer.h"
 2584              		.file 22 "Drivers/lvgl/src/core/../hal/../draw/lv_draw.h"
 2585              		.file 23 "Drivers/lvgl/src/core/../hal/../misc/lv_ll.h"
 2586              		.file 24 "Drivers/lvgl/src/core/../hal/../misc/lv_timer.h"
 2587              		.file 25 "Drivers/lvgl/src/core/../hal/lv_hal_disp.h"
 2588              		.file 26 "Drivers/lvgl/src/core/lv_theme.h"
 2589              		.file 27 "Drivers/lvgl/src/core/lv_group.h"
 2590              		.file 28 "Drivers/lvgl/src/core/lv_obj_scroll.h"
 2591              		.file 29 "Drivers/lvgl/src/core/lv_obj_style.h"
 2592              		.file 30 "Drivers/lvgl/src/core/lv_obj_class.h"
 2593              		.file 31 "Drivers/lvgl/src/core/lv_event.h"
 2594              		.file 32 "Drivers/lvgl/src/core/../hal/../misc/../hal/lv_hal_tick.h"
 2595              		.file 33 "Drivers/lvgl/src/core/../hal/../draw/sw/../../core/lv_obj_pos.h"
 2596              		.file 34 "Drivers/lvgl/src/core/lv_obj_style_gen.h"
 2597              		.file 35 "Drivers/lvgl/src/core/lv_obj_tree.h"
 2598              		.file 36 "Drivers/lvgl/src/core/../core/lv_refr.h"
ARM GAS  /var/folders/0z/tsy30v1j4xl4_7kw94k978ww0000gn/T//ccvV8C1Y.s 			page 76

