ARM GAS  /var/folders/0z/tsy30v1j4xl4_7kw94k978ww0000gn/T//ccBWD9YH.s 			page 1


   1              		.cpu cortex-m4
   2              		.arch armv7e-m
   3              		.fpu fpv4-sp-d16
   4              		.eabi_attribute 27, 1
   5              		.eabi_attribute 28, 1
   6              		.eabi_attribute 20, 1
   7              		.eabi_attribute 21, 1
   8              		.eabi_attribute 23, 3
   9              		.eabi_attribute 24, 1
  10              		.eabi_attribute 25, 1
  11              		.eabi_attribute 26, 1
  12              		.eabi_attribute 30, 1
  13              		.eabi_attribute 34, 1
  14              		.eabi_attribute 18, 4
  15              		.file	"lv_draw_sw_transform.c"
  16              		.text
  17              	.Ltext0:
  18              		.cfi_sections	.debug_frame
  19              		.section	.text.argb_no_aa,"ax",%progbits
  20              		.align	1
  21              		.syntax unified
  22              		.thumb
  23              		.thumb_func
  25              	argb_no_aa:
  26              	.LVL0:
  27              	.LFB163:
  28              		.file 1 "Drivers/lvgl/src/draw/sw/lv_draw_sw_transform.c"
   1:Drivers/lvgl/src/draw/sw/lv_draw_sw_transform.c **** /**
   2:Drivers/lvgl/src/draw/sw/lv_draw_sw_transform.c ****  * @file lv_draw_sw_tranform.c
   3:Drivers/lvgl/src/draw/sw/lv_draw_sw_transform.c ****  *
   4:Drivers/lvgl/src/draw/sw/lv_draw_sw_transform.c ****  */
   5:Drivers/lvgl/src/draw/sw/lv_draw_sw_transform.c **** 
   6:Drivers/lvgl/src/draw/sw/lv_draw_sw_transform.c **** /*********************
   7:Drivers/lvgl/src/draw/sw/lv_draw_sw_transform.c ****  *      INCLUDES
   8:Drivers/lvgl/src/draw/sw/lv_draw_sw_transform.c ****  *********************/
   9:Drivers/lvgl/src/draw/sw/lv_draw_sw_transform.c **** #include "lv_draw_sw.h"
  10:Drivers/lvgl/src/draw/sw/lv_draw_sw_transform.c **** #include "../../misc/lv_assert.h"
  11:Drivers/lvgl/src/draw/sw/lv_draw_sw_transform.c **** #include "../../misc/lv_area.h"
  12:Drivers/lvgl/src/draw/sw/lv_draw_sw_transform.c **** #include "../../core/lv_refr.h"
  13:Drivers/lvgl/src/draw/sw/lv_draw_sw_transform.c **** 
  14:Drivers/lvgl/src/draw/sw/lv_draw_sw_transform.c **** #if LV_DRAW_COMPLEX
  15:Drivers/lvgl/src/draw/sw/lv_draw_sw_transform.c **** /*********************
  16:Drivers/lvgl/src/draw/sw/lv_draw_sw_transform.c ****  *      DEFINES
  17:Drivers/lvgl/src/draw/sw/lv_draw_sw_transform.c ****  *********************/
  18:Drivers/lvgl/src/draw/sw/lv_draw_sw_transform.c **** 
  19:Drivers/lvgl/src/draw/sw/lv_draw_sw_transform.c **** /**********************
  20:Drivers/lvgl/src/draw/sw/lv_draw_sw_transform.c ****  *      TYPEDEFS
  21:Drivers/lvgl/src/draw/sw/lv_draw_sw_transform.c ****  **********************/
  22:Drivers/lvgl/src/draw/sw/lv_draw_sw_transform.c **** typedef struct {
  23:Drivers/lvgl/src/draw/sw/lv_draw_sw_transform.c ****     int32_t x_in;
  24:Drivers/lvgl/src/draw/sw/lv_draw_sw_transform.c ****     int32_t y_in;
  25:Drivers/lvgl/src/draw/sw/lv_draw_sw_transform.c ****     int32_t x_out;
  26:Drivers/lvgl/src/draw/sw/lv_draw_sw_transform.c ****     int32_t y_out;
  27:Drivers/lvgl/src/draw/sw/lv_draw_sw_transform.c ****     int32_t sinma;
  28:Drivers/lvgl/src/draw/sw/lv_draw_sw_transform.c ****     int32_t cosma;
  29:Drivers/lvgl/src/draw/sw/lv_draw_sw_transform.c ****     int32_t zoom;
  30:Drivers/lvgl/src/draw/sw/lv_draw_sw_transform.c ****     int32_t angle;
ARM GAS  /var/folders/0z/tsy30v1j4xl4_7kw94k978ww0000gn/T//ccBWD9YH.s 			page 2


  31:Drivers/lvgl/src/draw/sw/lv_draw_sw_transform.c ****     int32_t pivot_x_256;
  32:Drivers/lvgl/src/draw/sw/lv_draw_sw_transform.c ****     int32_t pivot_y_256;
  33:Drivers/lvgl/src/draw/sw/lv_draw_sw_transform.c ****     lv_point_t pivot;
  34:Drivers/lvgl/src/draw/sw/lv_draw_sw_transform.c **** } point_transform_dsc_t;
  35:Drivers/lvgl/src/draw/sw/lv_draw_sw_transform.c **** 
  36:Drivers/lvgl/src/draw/sw/lv_draw_sw_transform.c **** /**********************
  37:Drivers/lvgl/src/draw/sw/lv_draw_sw_transform.c ****  *  STATIC PROTOTYPES
  38:Drivers/lvgl/src/draw/sw/lv_draw_sw_transform.c ****  **********************/
  39:Drivers/lvgl/src/draw/sw/lv_draw_sw_transform.c **** /**
  40:Drivers/lvgl/src/draw/sw/lv_draw_sw_transform.c ****  * Transform a point with 1/256 precision (the output coordinates are upscaled by 256)
  41:Drivers/lvgl/src/draw/sw/lv_draw_sw_transform.c ****  * @param t         pointer to n initialized `point_transform_dsc_t` structure
  42:Drivers/lvgl/src/draw/sw/lv_draw_sw_transform.c ****  * @param xin       X coordinate to rotate
  43:Drivers/lvgl/src/draw/sw/lv_draw_sw_transform.c ****  * @param yin       Y coordinate to rotate
  44:Drivers/lvgl/src/draw/sw/lv_draw_sw_transform.c ****  * @param xout      upscaled, transformed X
  45:Drivers/lvgl/src/draw/sw/lv_draw_sw_transform.c ****  * @param yout      upscaled, transformed Y
  46:Drivers/lvgl/src/draw/sw/lv_draw_sw_transform.c ****  */
  47:Drivers/lvgl/src/draw/sw/lv_draw_sw_transform.c **** static void transform_point_upscaled(point_transform_dsc_t * t, int32_t xin, int32_t yin, int32_t *
  48:Drivers/lvgl/src/draw/sw/lv_draw_sw_transform.c ****                                      int32_t * yout);
  49:Drivers/lvgl/src/draw/sw/lv_draw_sw_transform.c **** 
  50:Drivers/lvgl/src/draw/sw/lv_draw_sw_transform.c **** static void argb_no_aa(const uint8_t * src, lv_coord_t src_w, lv_coord_t src_h, lv_coord_t src_stri
  51:Drivers/lvgl/src/draw/sw/lv_draw_sw_transform.c ****                        int32_t xs_ups, int32_t ys_ups, int32_t xs_step, int32_t ys_step,
  52:Drivers/lvgl/src/draw/sw/lv_draw_sw_transform.c ****                        int32_t x_end, lv_color_t * cbuf, uint8_t * abuf);
  53:Drivers/lvgl/src/draw/sw/lv_draw_sw_transform.c **** 
  54:Drivers/lvgl/src/draw/sw/lv_draw_sw_transform.c **** static void rgb_no_aa(const uint8_t * src, lv_coord_t src_w, lv_coord_t src_h, lv_coord_t src_strid
  55:Drivers/lvgl/src/draw/sw/lv_draw_sw_transform.c ****                       int32_t xs_ups, int32_t ys_ups, int32_t xs_step, int32_t ys_step,
  56:Drivers/lvgl/src/draw/sw/lv_draw_sw_transform.c ****                       int32_t x_end, lv_color_t * cbuf, uint8_t * abuf, lv_img_cf_t cf);
  57:Drivers/lvgl/src/draw/sw/lv_draw_sw_transform.c **** 
  58:Drivers/lvgl/src/draw/sw/lv_draw_sw_transform.c **** #if LV_COLOR_DEPTH == 16
  59:Drivers/lvgl/src/draw/sw/lv_draw_sw_transform.c **** static void rgb565a8_no_aa(const uint8_t * src, lv_coord_t src_w, lv_coord_t src_h, lv_coord_t src_
  60:Drivers/lvgl/src/draw/sw/lv_draw_sw_transform.c ****                            int32_t xs_ups, int32_t ys_ups, int32_t xs_step, int32_t ys_step,
  61:Drivers/lvgl/src/draw/sw/lv_draw_sw_transform.c ****                            int32_t x_end, lv_color_t * cbuf, uint8_t * abuf);
  62:Drivers/lvgl/src/draw/sw/lv_draw_sw_transform.c **** #endif
  63:Drivers/lvgl/src/draw/sw/lv_draw_sw_transform.c **** 
  64:Drivers/lvgl/src/draw/sw/lv_draw_sw_transform.c **** static void argb_and_rgb_aa(const uint8_t * src, lv_coord_t src_w, lv_coord_t src_h, lv_coord_t src
  65:Drivers/lvgl/src/draw/sw/lv_draw_sw_transform.c ****                             int32_t xs_ups, int32_t ys_ups, int32_t xs_step, int32_t ys_step,
  66:Drivers/lvgl/src/draw/sw/lv_draw_sw_transform.c ****                             int32_t x_end, lv_color_t * cbuf, uint8_t * abuf, lv_img_cf_t cf);
  67:Drivers/lvgl/src/draw/sw/lv_draw_sw_transform.c **** 
  68:Drivers/lvgl/src/draw/sw/lv_draw_sw_transform.c **** /**********************
  69:Drivers/lvgl/src/draw/sw/lv_draw_sw_transform.c ****  *  STATIC VARIABLES
  70:Drivers/lvgl/src/draw/sw/lv_draw_sw_transform.c ****  **********************/
  71:Drivers/lvgl/src/draw/sw/lv_draw_sw_transform.c **** 
  72:Drivers/lvgl/src/draw/sw/lv_draw_sw_transform.c **** /**********************
  73:Drivers/lvgl/src/draw/sw/lv_draw_sw_transform.c ****  *      MACROS
  74:Drivers/lvgl/src/draw/sw/lv_draw_sw_transform.c ****  **********************/
  75:Drivers/lvgl/src/draw/sw/lv_draw_sw_transform.c **** 
  76:Drivers/lvgl/src/draw/sw/lv_draw_sw_transform.c **** /**********************
  77:Drivers/lvgl/src/draw/sw/lv_draw_sw_transform.c ****  *   GLOBAL FUNCTIONS
  78:Drivers/lvgl/src/draw/sw/lv_draw_sw_transform.c ****  **********************/
  79:Drivers/lvgl/src/draw/sw/lv_draw_sw_transform.c **** 
  80:Drivers/lvgl/src/draw/sw/lv_draw_sw_transform.c **** void lv_draw_sw_transform(lv_draw_ctx_t * draw_ctx, const lv_area_t * dest_area, const void * src_b
  81:Drivers/lvgl/src/draw/sw/lv_draw_sw_transform.c ****                           lv_coord_t src_w, lv_coord_t src_h, lv_coord_t src_stride,
  82:Drivers/lvgl/src/draw/sw/lv_draw_sw_transform.c ****                           const lv_draw_img_dsc_t * draw_dsc, lv_img_cf_t cf, lv_color_t * cbuf, lv
  83:Drivers/lvgl/src/draw/sw/lv_draw_sw_transform.c **** {
  84:Drivers/lvgl/src/draw/sw/lv_draw_sw_transform.c ****     LV_UNUSED(draw_ctx);
  85:Drivers/lvgl/src/draw/sw/lv_draw_sw_transform.c **** 
  86:Drivers/lvgl/src/draw/sw/lv_draw_sw_transform.c ****     point_transform_dsc_t tr_dsc;
  87:Drivers/lvgl/src/draw/sw/lv_draw_sw_transform.c ****     tr_dsc.angle = -draw_dsc->angle;
ARM GAS  /var/folders/0z/tsy30v1j4xl4_7kw94k978ww0000gn/T//ccBWD9YH.s 			page 3


  88:Drivers/lvgl/src/draw/sw/lv_draw_sw_transform.c ****     tr_dsc.zoom = (256 * 256) / draw_dsc->zoom;
  89:Drivers/lvgl/src/draw/sw/lv_draw_sw_transform.c ****     tr_dsc.pivot = draw_dsc->pivot;
  90:Drivers/lvgl/src/draw/sw/lv_draw_sw_transform.c **** 
  91:Drivers/lvgl/src/draw/sw/lv_draw_sw_transform.c ****     int32_t angle_low = tr_dsc.angle / 10;
  92:Drivers/lvgl/src/draw/sw/lv_draw_sw_transform.c ****     int32_t angle_high = angle_low + 1;
  93:Drivers/lvgl/src/draw/sw/lv_draw_sw_transform.c ****     int32_t angle_rem = tr_dsc.angle  - (angle_low * 10);
  94:Drivers/lvgl/src/draw/sw/lv_draw_sw_transform.c **** 
  95:Drivers/lvgl/src/draw/sw/lv_draw_sw_transform.c ****     int32_t s1 = lv_trigo_sin(angle_low);
  96:Drivers/lvgl/src/draw/sw/lv_draw_sw_transform.c ****     int32_t s2 = lv_trigo_sin(angle_high);
  97:Drivers/lvgl/src/draw/sw/lv_draw_sw_transform.c **** 
  98:Drivers/lvgl/src/draw/sw/lv_draw_sw_transform.c ****     int32_t c1 = lv_trigo_sin(angle_low + 90);
  99:Drivers/lvgl/src/draw/sw/lv_draw_sw_transform.c ****     int32_t c2 = lv_trigo_sin(angle_high + 90);
 100:Drivers/lvgl/src/draw/sw/lv_draw_sw_transform.c **** 
 101:Drivers/lvgl/src/draw/sw/lv_draw_sw_transform.c ****     tr_dsc.sinma = (s1 * (10 - angle_rem) + s2 * angle_rem) / 10;
 102:Drivers/lvgl/src/draw/sw/lv_draw_sw_transform.c ****     tr_dsc.cosma = (c1 * (10 - angle_rem) + c2 * angle_rem) / 10;
 103:Drivers/lvgl/src/draw/sw/lv_draw_sw_transform.c ****     tr_dsc.sinma = tr_dsc.sinma >> (LV_TRIGO_SHIFT - 10);
 104:Drivers/lvgl/src/draw/sw/lv_draw_sw_transform.c ****     tr_dsc.cosma = tr_dsc.cosma >> (LV_TRIGO_SHIFT - 10);
 105:Drivers/lvgl/src/draw/sw/lv_draw_sw_transform.c ****     tr_dsc.pivot_x_256 = tr_dsc.pivot.x * 256;
 106:Drivers/lvgl/src/draw/sw/lv_draw_sw_transform.c ****     tr_dsc.pivot_y_256 = tr_dsc.pivot.y * 256;
 107:Drivers/lvgl/src/draw/sw/lv_draw_sw_transform.c **** 
 108:Drivers/lvgl/src/draw/sw/lv_draw_sw_transform.c ****     lv_coord_t dest_w = lv_area_get_width(dest_area);
 109:Drivers/lvgl/src/draw/sw/lv_draw_sw_transform.c ****     lv_coord_t dest_h = lv_area_get_height(dest_area);
 110:Drivers/lvgl/src/draw/sw/lv_draw_sw_transform.c ****     lv_coord_t y;
 111:Drivers/lvgl/src/draw/sw/lv_draw_sw_transform.c ****     for(y = 0; y < dest_h; y++) {
 112:Drivers/lvgl/src/draw/sw/lv_draw_sw_transform.c ****         int32_t xs1_ups, ys1_ups, xs2_ups, ys2_ups;
 113:Drivers/lvgl/src/draw/sw/lv_draw_sw_transform.c **** 
 114:Drivers/lvgl/src/draw/sw/lv_draw_sw_transform.c ****         transform_point_upscaled(&tr_dsc, dest_area->x1, dest_area->y1 + y, &xs1_ups, &ys1_ups);
 115:Drivers/lvgl/src/draw/sw/lv_draw_sw_transform.c ****         transform_point_upscaled(&tr_dsc, dest_area->x2, dest_area->y1 + y, &xs2_ups, &ys2_ups);
 116:Drivers/lvgl/src/draw/sw/lv_draw_sw_transform.c **** 
 117:Drivers/lvgl/src/draw/sw/lv_draw_sw_transform.c ****         int32_t xs_diff = xs2_ups - xs1_ups;
 118:Drivers/lvgl/src/draw/sw/lv_draw_sw_transform.c ****         int32_t ys_diff = ys2_ups - ys1_ups;
 119:Drivers/lvgl/src/draw/sw/lv_draw_sw_transform.c ****         int32_t xs_step_256 = 0;
 120:Drivers/lvgl/src/draw/sw/lv_draw_sw_transform.c ****         int32_t ys_step_256 = 0;
 121:Drivers/lvgl/src/draw/sw/lv_draw_sw_transform.c ****         if(dest_w > 1) {
 122:Drivers/lvgl/src/draw/sw/lv_draw_sw_transform.c ****             xs_step_256 = (256 * xs_diff) / (dest_w - 1);
 123:Drivers/lvgl/src/draw/sw/lv_draw_sw_transform.c ****             ys_step_256 = (256 * ys_diff) / (dest_w - 1);
 124:Drivers/lvgl/src/draw/sw/lv_draw_sw_transform.c ****         }
 125:Drivers/lvgl/src/draw/sw/lv_draw_sw_transform.c ****         int32_t xs_ups = xs1_ups + 0x80;
 126:Drivers/lvgl/src/draw/sw/lv_draw_sw_transform.c ****         int32_t ys_ups = ys1_ups + 0x80;
 127:Drivers/lvgl/src/draw/sw/lv_draw_sw_transform.c **** 
 128:Drivers/lvgl/src/draw/sw/lv_draw_sw_transform.c ****         if(draw_dsc->antialias == 0) {
 129:Drivers/lvgl/src/draw/sw/lv_draw_sw_transform.c ****             switch(cf) {
 130:Drivers/lvgl/src/draw/sw/lv_draw_sw_transform.c ****                 case LV_IMG_CF_TRUE_COLOR_ALPHA:
 131:Drivers/lvgl/src/draw/sw/lv_draw_sw_transform.c ****                     argb_no_aa(src_buf, src_w, src_h, src_stride, xs_ups, ys_ups, xs_step_256, ys_s
 132:Drivers/lvgl/src/draw/sw/lv_draw_sw_transform.c ****                     break;
 133:Drivers/lvgl/src/draw/sw/lv_draw_sw_transform.c ****                 case LV_IMG_CF_TRUE_COLOR:
 134:Drivers/lvgl/src/draw/sw/lv_draw_sw_transform.c ****                 case LV_IMG_CF_TRUE_COLOR_CHROMA_KEYED:
 135:Drivers/lvgl/src/draw/sw/lv_draw_sw_transform.c ****                     rgb_no_aa(src_buf, src_w, src_h, src_stride, xs_ups, ys_ups, xs_step_256, ys_st
 136:Drivers/lvgl/src/draw/sw/lv_draw_sw_transform.c ****                     break;
 137:Drivers/lvgl/src/draw/sw/lv_draw_sw_transform.c **** 
 138:Drivers/lvgl/src/draw/sw/lv_draw_sw_transform.c **** #if LV_COLOR_DEPTH == 16
 139:Drivers/lvgl/src/draw/sw/lv_draw_sw_transform.c ****                 case LV_IMG_CF_RGB565A8:
 140:Drivers/lvgl/src/draw/sw/lv_draw_sw_transform.c ****                     rgb565a8_no_aa(src_buf, src_w, src_h, src_stride, xs_ups, ys_ups, xs_step_256, 
 141:Drivers/lvgl/src/draw/sw/lv_draw_sw_transform.c ****                     break;
 142:Drivers/lvgl/src/draw/sw/lv_draw_sw_transform.c **** #endif
 143:Drivers/lvgl/src/draw/sw/lv_draw_sw_transform.c ****                 default:
 144:Drivers/lvgl/src/draw/sw/lv_draw_sw_transform.c ****                     break;
ARM GAS  /var/folders/0z/tsy30v1j4xl4_7kw94k978ww0000gn/T//ccBWD9YH.s 			page 4


 145:Drivers/lvgl/src/draw/sw/lv_draw_sw_transform.c ****             }
 146:Drivers/lvgl/src/draw/sw/lv_draw_sw_transform.c ****         }
 147:Drivers/lvgl/src/draw/sw/lv_draw_sw_transform.c ****         else {
 148:Drivers/lvgl/src/draw/sw/lv_draw_sw_transform.c ****             argb_and_rgb_aa(src_buf, src_w, src_h, src_stride, xs_ups, ys_ups, xs_step_256, ys_step
 149:Drivers/lvgl/src/draw/sw/lv_draw_sw_transform.c ****         }
 150:Drivers/lvgl/src/draw/sw/lv_draw_sw_transform.c **** 
 151:Drivers/lvgl/src/draw/sw/lv_draw_sw_transform.c ****         cbuf += dest_w;
 152:Drivers/lvgl/src/draw/sw/lv_draw_sw_transform.c ****         abuf += dest_w;
 153:Drivers/lvgl/src/draw/sw/lv_draw_sw_transform.c ****     }
 154:Drivers/lvgl/src/draw/sw/lv_draw_sw_transform.c **** }
 155:Drivers/lvgl/src/draw/sw/lv_draw_sw_transform.c **** 
 156:Drivers/lvgl/src/draw/sw/lv_draw_sw_transform.c **** /**********************
 157:Drivers/lvgl/src/draw/sw/lv_draw_sw_transform.c ****  *   STATIC FUNCTIONS
 158:Drivers/lvgl/src/draw/sw/lv_draw_sw_transform.c ****  **********************/
 159:Drivers/lvgl/src/draw/sw/lv_draw_sw_transform.c **** 
 160:Drivers/lvgl/src/draw/sw/lv_draw_sw_transform.c **** static void rgb_no_aa(const uint8_t * src, lv_coord_t src_w, lv_coord_t src_h, lv_coord_t src_strid
 161:Drivers/lvgl/src/draw/sw/lv_draw_sw_transform.c ****                       int32_t xs_ups, int32_t ys_ups, int32_t xs_step, int32_t ys_step,
 162:Drivers/lvgl/src/draw/sw/lv_draw_sw_transform.c ****                       int32_t x_end, lv_color_t * cbuf, uint8_t * abuf, lv_img_cf_t cf)
 163:Drivers/lvgl/src/draw/sw/lv_draw_sw_transform.c **** {
 164:Drivers/lvgl/src/draw/sw/lv_draw_sw_transform.c ****     int32_t xs_ups_start = xs_ups;
 165:Drivers/lvgl/src/draw/sw/lv_draw_sw_transform.c ****     int32_t ys_ups_start = ys_ups;
 166:Drivers/lvgl/src/draw/sw/lv_draw_sw_transform.c ****     lv_disp_t * d = _lv_refr_get_disp_refreshing();
 167:Drivers/lvgl/src/draw/sw/lv_draw_sw_transform.c ****     lv_color_t ck = d->driver->color_chroma_key;
 168:Drivers/lvgl/src/draw/sw/lv_draw_sw_transform.c **** 
 169:Drivers/lvgl/src/draw/sw/lv_draw_sw_transform.c ****     lv_memset_ff(abuf, x_end);
 170:Drivers/lvgl/src/draw/sw/lv_draw_sw_transform.c **** 
 171:Drivers/lvgl/src/draw/sw/lv_draw_sw_transform.c ****     lv_coord_t x;
 172:Drivers/lvgl/src/draw/sw/lv_draw_sw_transform.c ****     for(x = 0; x < x_end; x++) {
 173:Drivers/lvgl/src/draw/sw/lv_draw_sw_transform.c ****         xs_ups = xs_ups_start + ((xs_step * x) >> 8);
 174:Drivers/lvgl/src/draw/sw/lv_draw_sw_transform.c ****         ys_ups = ys_ups_start + ((ys_step * x) >> 8);
 175:Drivers/lvgl/src/draw/sw/lv_draw_sw_transform.c **** 
 176:Drivers/lvgl/src/draw/sw/lv_draw_sw_transform.c ****         int32_t xs_int = xs_ups >> 8;
 177:Drivers/lvgl/src/draw/sw/lv_draw_sw_transform.c ****         int32_t ys_int = ys_ups >> 8;
 178:Drivers/lvgl/src/draw/sw/lv_draw_sw_transform.c ****         if(xs_int < 0 || xs_int >= src_w || ys_int < 0 || ys_int >= src_h) {
 179:Drivers/lvgl/src/draw/sw/lv_draw_sw_transform.c ****             abuf[x] = 0x00;
 180:Drivers/lvgl/src/draw/sw/lv_draw_sw_transform.c ****         }
 181:Drivers/lvgl/src/draw/sw/lv_draw_sw_transform.c ****         else {
 182:Drivers/lvgl/src/draw/sw/lv_draw_sw_transform.c **** 
 183:Drivers/lvgl/src/draw/sw/lv_draw_sw_transform.c **** #if LV_COLOR_DEPTH == 1 || LV_COLOR_DEPTH == 8
 184:Drivers/lvgl/src/draw/sw/lv_draw_sw_transform.c ****             const uint8_t * src_tmp = src;
 185:Drivers/lvgl/src/draw/sw/lv_draw_sw_transform.c ****             src_tmp += ys_int * src_stride + xs_int;
 186:Drivers/lvgl/src/draw/sw/lv_draw_sw_transform.c ****             cbuf[x].full = src_tmp[0];
 187:Drivers/lvgl/src/draw/sw/lv_draw_sw_transform.c **** #elif LV_COLOR_DEPTH == 16
 188:Drivers/lvgl/src/draw/sw/lv_draw_sw_transform.c ****             const lv_color_t * src_tmp = (const lv_color_t *)src;
 189:Drivers/lvgl/src/draw/sw/lv_draw_sw_transform.c ****             src_tmp += ys_int * src_stride + xs_int;
 190:Drivers/lvgl/src/draw/sw/lv_draw_sw_transform.c ****             cbuf[x] = *src_tmp;
 191:Drivers/lvgl/src/draw/sw/lv_draw_sw_transform.c **** #elif LV_COLOR_DEPTH == 32
 192:Drivers/lvgl/src/draw/sw/lv_draw_sw_transform.c ****             const uint8_t * src_tmp = src;
 193:Drivers/lvgl/src/draw/sw/lv_draw_sw_transform.c ****             src_tmp += (ys_int * src_stride * sizeof(lv_color_t)) + xs_int * sizeof(lv_color_t);
 194:Drivers/lvgl/src/draw/sw/lv_draw_sw_transform.c ****             cbuf[x].full = *((uint32_t *)src_tmp);
 195:Drivers/lvgl/src/draw/sw/lv_draw_sw_transform.c **** #endif
 196:Drivers/lvgl/src/draw/sw/lv_draw_sw_transform.c ****         }
 197:Drivers/lvgl/src/draw/sw/lv_draw_sw_transform.c ****         if(cf == LV_IMG_CF_TRUE_COLOR_CHROMA_KEYED && cbuf[x].full == ck.full) {
 198:Drivers/lvgl/src/draw/sw/lv_draw_sw_transform.c ****             abuf[x] = 0x00;
 199:Drivers/lvgl/src/draw/sw/lv_draw_sw_transform.c ****         }
 200:Drivers/lvgl/src/draw/sw/lv_draw_sw_transform.c ****     }
 201:Drivers/lvgl/src/draw/sw/lv_draw_sw_transform.c **** }
ARM GAS  /var/folders/0z/tsy30v1j4xl4_7kw94k978ww0000gn/T//ccBWD9YH.s 			page 5


 202:Drivers/lvgl/src/draw/sw/lv_draw_sw_transform.c **** 
 203:Drivers/lvgl/src/draw/sw/lv_draw_sw_transform.c **** static void argb_no_aa(const uint8_t * src, lv_coord_t src_w, lv_coord_t src_h, lv_coord_t src_stri
 204:Drivers/lvgl/src/draw/sw/lv_draw_sw_transform.c ****                        int32_t xs_ups, int32_t ys_ups, int32_t xs_step, int32_t ys_step,
 205:Drivers/lvgl/src/draw/sw/lv_draw_sw_transform.c ****                        int32_t x_end, lv_color_t * cbuf, uint8_t * abuf)
 206:Drivers/lvgl/src/draw/sw/lv_draw_sw_transform.c **** {
  29              		.loc 1 206 1 view -0
  30              		.cfi_startproc
  31              		@ args = 28, pretend = 0, frame = 8
  32              		@ frame_needed = 0, uses_anonymous_args = 0
  33              		.loc 1 206 1 is_stmt 0 view .LVU1
  34 0000 2DE9F04F 		push	{r4, r5, r6, r7, r8, r9, r10, fp, lr}
  35              		.cfi_def_cfa_offset 36
  36              		.cfi_offset 4, -36
  37              		.cfi_offset 5, -32
  38              		.cfi_offset 6, -28
  39              		.cfi_offset 7, -24
  40              		.cfi_offset 8, -20
  41              		.cfi_offset 9, -16
  42              		.cfi_offset 10, -12
  43              		.cfi_offset 11, -8
  44              		.cfi_offset 14, -4
  45 0004 83B0     		sub	sp, sp, #12
  46              		.cfi_def_cfa_offset 48
  47 0006 0190     		str	r0, [sp, #4]
  48 0008 8846     		mov	r8, r1
  49 000a 9146     		mov	r9, r2
  50 000c 9A46     		mov	r10, r3
  51 000e 0C9A     		ldr	r2, [sp, #48]
  52              	.LVL1:
  53              		.loc 1 206 1 view .LVU2
  54 0010 0D9B     		ldr	r3, [sp, #52]
  55              	.LVL2:
  56              		.loc 1 206 1 view .LVU3
  57 0012 0E9F     		ldr	r7, [sp, #56]
  58 0014 0F9E     		ldr	r6, [sp, #60]
  59 0016 109D     		ldr	r5, [sp, #64]
  60 0018 1299     		ldr	r1, [sp, #72]
  61              	.LVL3:
 207:Drivers/lvgl/src/draw/sw/lv_draw_sw_transform.c ****     int32_t xs_ups_start = xs_ups;
  62              		.loc 1 207 5 is_stmt 1 view .LVU4
 208:Drivers/lvgl/src/draw/sw/lv_draw_sw_transform.c ****     int32_t ys_ups_start = ys_ups;
  63              		.loc 1 208 5 view .LVU5
 209:Drivers/lvgl/src/draw/sw/lv_draw_sw_transform.c **** 
 210:Drivers/lvgl/src/draw/sw/lv_draw_sw_transform.c ****     lv_coord_t x;
  64              		.loc 1 210 5 view .LVU6
 211:Drivers/lvgl/src/draw/sw/lv_draw_sw_transform.c ****     for(x = 0; x < x_end; x++) {
  65              		.loc 1 211 5 view .LVU7
  66              		.loc 1 211 11 is_stmt 0 view .LVU8
  67 001a 4FF0000C 		mov	ip, #0
  68              		.loc 1 211 5 view .LVU9
  69 001e 06E0     		b	.L2
  70              	.LVL4:
  71              	.L3:
  72              	.LBB7:
 212:Drivers/lvgl/src/draw/sw/lv_draw_sw_transform.c ****         xs_ups = xs_ups_start + ((xs_step * x) >> 8);
 213:Drivers/lvgl/src/draw/sw/lv_draw_sw_transform.c ****         ys_ups = ys_ups_start + ((ys_step * x) >> 8);
 214:Drivers/lvgl/src/draw/sw/lv_draw_sw_transform.c **** 
ARM GAS  /var/folders/0z/tsy30v1j4xl4_7kw94k978ww0000gn/T//ccBWD9YH.s 			page 6


 215:Drivers/lvgl/src/draw/sw/lv_draw_sw_transform.c ****         int32_t xs_int = xs_ups >> 8;
 216:Drivers/lvgl/src/draw/sw/lv_draw_sw_transform.c ****         int32_t ys_int = ys_ups >> 8;
 217:Drivers/lvgl/src/draw/sw/lv_draw_sw_transform.c ****         if(xs_int < 0 || xs_int >= src_w || ys_int < 0 || ys_int >= src_h) {
 218:Drivers/lvgl/src/draw/sw/lv_draw_sw_transform.c ****             abuf[x] = 0;
  73              		.loc 1 218 13 is_stmt 1 view .LVU10
  74              		.loc 1 218 21 is_stmt 0 view .LVU11
  75 0020 0024     		movs	r4, #0
  76              	.LVL5:
  77              		.loc 1 218 21 view .LVU12
  78 0022 01F80C40 		strb	r4, [r1, ip]
  79              	.LVL6:
  80              	.L5:
  81              		.loc 1 218 21 view .LVU13
  82              	.LBE7:
 211:Drivers/lvgl/src/draw/sw/lv_draw_sw_transform.c ****     for(x = 0; x < x_end; x++) {
  83              		.loc 1 211 28 is_stmt 1 discriminator 2 view .LVU14
  84 0026 0CF1010C 		add	ip, ip, #1
  85              	.LVL7:
 211:Drivers/lvgl/src/draw/sw/lv_draw_sw_transform.c ****     for(x = 0; x < x_end; x++) {
  86              		.loc 1 211 28 is_stmt 0 discriminator 2 view .LVU15
  87 002a 0FFA8CFC 		sxth	ip, ip
  88              	.LVL8:
  89              	.L2:
 211:Drivers/lvgl/src/draw/sw/lv_draw_sw_transform.c ****     for(x = 0; x < x_end; x++) {
  90              		.loc 1 211 18 is_stmt 1 discriminator 1 view .LVU16
  91 002e AC45     		cmp	ip, r5
  92 0030 26DA     		bge	.L8
  93              	.LBB9:
 212:Drivers/lvgl/src/draw/sw/lv_draw_sw_transform.c ****         xs_ups = xs_ups_start + ((xs_step * x) >> 8);
  94              		.loc 1 212 9 view .LVU17
 212:Drivers/lvgl/src/draw/sw/lv_draw_sw_transform.c ****         xs_ups = xs_ups_start + ((xs_step * x) >> 8);
  95              		.loc 1 212 43 is_stmt 0 view .LVU18
  96 0032 07FB0CFE 		mul	lr, r7, ip
 212:Drivers/lvgl/src/draw/sw/lv_draw_sw_transform.c ****         xs_ups = xs_ups_start + ((xs_step * x) >> 8);
  97              		.loc 1 212 16 view .LVU19
  98 0036 02EB2E2E 		add	lr, r2, lr, asr #8
  99              	.LVL9:
 213:Drivers/lvgl/src/draw/sw/lv_draw_sw_transform.c **** 
 100              		.loc 1 213 9 is_stmt 1 view .LVU20
 213:Drivers/lvgl/src/draw/sw/lv_draw_sw_transform.c **** 
 101              		.loc 1 213 43 is_stmt 0 view .LVU21
 102 003a 06FB0CF4 		mul	r4, r6, ip
 213:Drivers/lvgl/src/draw/sw/lv_draw_sw_transform.c **** 
 103              		.loc 1 213 16 view .LVU22
 104 003e 03EB2424 		add	r4, r3, r4, asr #8
 105              	.LVL10:
 215:Drivers/lvgl/src/draw/sw/lv_draw_sw_transform.c ****         int32_t ys_int = ys_ups >> 8;
 106              		.loc 1 215 9 is_stmt 1 view .LVU23
 216:Drivers/lvgl/src/draw/sw/lv_draw_sw_transform.c ****         if(xs_int < 0 || xs_int >= src_w || ys_int < 0 || ys_int >= src_h) {
 107              		.loc 1 216 9 view .LVU24
 216:Drivers/lvgl/src/draw/sw/lv_draw_sw_transform.c ****         if(xs_int < 0 || xs_int >= src_w || ys_int < 0 || ys_int >= src_h) {
 108              		.loc 1 216 17 is_stmt 0 view .LVU25
 109 0042 2412     		asrs	r4, r4, #8
 110              	.LVL11:
 217:Drivers/lvgl/src/draw/sw/lv_draw_sw_transform.c ****             abuf[x] = 0;
 111              		.loc 1 217 9 is_stmt 1 view .LVU26
 217:Drivers/lvgl/src/draw/sw/lv_draw_sw_transform.c ****             abuf[x] = 0;
ARM GAS  /var/folders/0z/tsy30v1j4xl4_7kw94k978ww0000gn/T//ccBWD9YH.s 			page 7


 112              		.loc 1 217 11 is_stmt 0 view .LVU27
 113 0044 5FEA2E2E 		asrs	lr, lr, #8
 114              	.LVL12:
 217:Drivers/lvgl/src/draw/sw/lv_draw_sw_transform.c ****             abuf[x] = 0;
 115              		.loc 1 217 11 view .LVU28
 116 0048 EAD4     		bmi	.L3
 217:Drivers/lvgl/src/draw/sw/lv_draw_sw_transform.c ****             abuf[x] = 0;
 117              		.loc 1 217 23 discriminator 1 view .LVU29
 118 004a F045     		cmp	r8, lr
 119 004c E8DD     		ble	.L3
 217:Drivers/lvgl/src/draw/sw/lv_draw_sw_transform.c ****             abuf[x] = 0;
 120              		.loc 1 217 42 discriminator 2 view .LVU30
 121 004e 002C     		cmp	r4, #0
 122 0050 E6DB     		blt	.L3
 217:Drivers/lvgl/src/draw/sw/lv_draw_sw_transform.c ****             abuf[x] = 0;
 123              		.loc 1 217 56 discriminator 3 view .LVU31
 124 0052 A145     		cmp	r9, r4
 125 0054 E4DD     		ble	.L3
 126              	.LBB8:
 219:Drivers/lvgl/src/draw/sw/lv_draw_sw_transform.c ****         }
 220:Drivers/lvgl/src/draw/sw/lv_draw_sw_transform.c ****         else {
 221:Drivers/lvgl/src/draw/sw/lv_draw_sw_transform.c ****             const uint8_t * src_tmp = src;
 127              		.loc 1 221 13 is_stmt 1 view .LVU32
 128              	.LVL13:
 222:Drivers/lvgl/src/draw/sw/lv_draw_sw_transform.c ****             src_tmp += (ys_int * src_stride * LV_IMG_PX_SIZE_ALPHA_BYTE) + xs_int * LV_IMG_PX_SIZE_
 129              		.loc 1 222 13 view .LVU33
 130              		.loc 1 222 74 is_stmt 0 view .LVU34
 131 0056 04FB0AEE 		mla	lr, r4, r10, lr
 132              	.LVL14:
 133              		.loc 1 222 74 view .LVU35
 134 005a 0EEB4E0E 		add	lr, lr, lr, lsl #1
 135              		.loc 1 222 21 view .LVU36
 136 005e 0198     		ldr	r0, [sp, #4]
 137 0060 00EB0E0B 		add	fp, r0, lr
 138              	.LVL15:
 223:Drivers/lvgl/src/draw/sw/lv_draw_sw_transform.c **** 
 224:Drivers/lvgl/src/draw/sw/lv_draw_sw_transform.c **** #if LV_COLOR_DEPTH == 1 || LV_COLOR_DEPTH == 8
 225:Drivers/lvgl/src/draw/sw/lv_draw_sw_transform.c ****             cbuf[x].full = src_tmp[0];
 226:Drivers/lvgl/src/draw/sw/lv_draw_sw_transform.c **** #elif LV_COLOR_DEPTH == 16
 227:Drivers/lvgl/src/draw/sw/lv_draw_sw_transform.c ****             cbuf[x].full = src_tmp[0] + (src_tmp[1] << 8);
 139              		.loc 1 227 13 is_stmt 1 view .LVU37
 140              		.loc 1 227 35 is_stmt 0 view .LVU38
 141 0064 10F80E40 		ldrb	r4, [r0, lr]	@ zero_extendqisi2
 142              	.LVL16:
 143              		.loc 1 227 49 view .LVU39
 144 0068 9BF801E0 		ldrb	lr, [fp, #1]	@ zero_extendqisi2
 145              		.loc 1 227 39 view .LVU40
 146 006c 04EB0E24 		add	r4, r4, lr, lsl #8
 147              		.loc 1 227 26 view .LVU41
 148 0070 1198     		ldr	r0, [sp, #68]
 149 0072 20F81C40 		strh	r4, [r0, ip, lsl #1]	@ movhi
 228:Drivers/lvgl/src/draw/sw/lv_draw_sw_transform.c **** #elif LV_COLOR_DEPTH == 32
 229:Drivers/lvgl/src/draw/sw/lv_draw_sw_transform.c ****             cbuf[x].full = *((uint32_t *)src_tmp);
 230:Drivers/lvgl/src/draw/sw/lv_draw_sw_transform.c **** #endif
 231:Drivers/lvgl/src/draw/sw/lv_draw_sw_transform.c ****             abuf[x] = src_tmp[LV_IMG_PX_SIZE_ALPHA_BYTE - 1];
 150              		.loc 1 231 13 is_stmt 1 view .LVU42
 151              		.loc 1 231 30 is_stmt 0 view .LVU43
ARM GAS  /var/folders/0z/tsy30v1j4xl4_7kw94k978ww0000gn/T//ccBWD9YH.s 			page 8


 152 0076 9BF80240 		ldrb	r4, [fp, #2]	@ zero_extendqisi2
 153              		.loc 1 231 21 view .LVU44
 154 007a 01F80C40 		strb	r4, [r1, ip]
 155 007e D2E7     		b	.L5
 156              	.LVL17:
 157              	.L8:
 158              		.loc 1 231 21 view .LVU45
 159              	.LBE8:
 160              	.LBE9:
 232:Drivers/lvgl/src/draw/sw/lv_draw_sw_transform.c ****         }
 233:Drivers/lvgl/src/draw/sw/lv_draw_sw_transform.c ****     }
 234:Drivers/lvgl/src/draw/sw/lv_draw_sw_transform.c **** }
 161              		.loc 1 234 1 view .LVU46
 162 0080 03B0     		add	sp, sp, #12
 163              		.cfi_def_cfa_offset 36
 164              		@ sp needed
 165 0082 BDE8F08F 		pop	{r4, r5, r6, r7, r8, r9, r10, fp, pc}
 166              		.loc 1 234 1 view .LVU47
 167              		.cfi_endproc
 168              	.LFE163:
 170              		.section	.text.rgb565a8_no_aa,"ax",%progbits
 171              		.align	1
 172              		.syntax unified
 173              		.thumb
 174              		.thumb_func
 176              	rgb565a8_no_aa:
 177              	.LVL18:
 178              	.LFB164:
 235:Drivers/lvgl/src/draw/sw/lv_draw_sw_transform.c **** 
 236:Drivers/lvgl/src/draw/sw/lv_draw_sw_transform.c **** #if LV_COLOR_DEPTH == 16
 237:Drivers/lvgl/src/draw/sw/lv_draw_sw_transform.c **** static void rgb565a8_no_aa(const uint8_t * src, lv_coord_t src_w, lv_coord_t src_h, lv_coord_t src_
 238:Drivers/lvgl/src/draw/sw/lv_draw_sw_transform.c ****                            int32_t xs_ups, int32_t ys_ups, int32_t xs_step, int32_t ys_step,
 239:Drivers/lvgl/src/draw/sw/lv_draw_sw_transform.c ****                            int32_t x_end, lv_color_t * cbuf, uint8_t * abuf)
 240:Drivers/lvgl/src/draw/sw/lv_draw_sw_transform.c **** {
 179              		.loc 1 240 1 is_stmt 1 view -0
 180              		.cfi_startproc
 181              		@ args = 28, pretend = 0, frame = 0
 182              		@ frame_needed = 0, uses_anonymous_args = 0
 183              		.loc 1 240 1 is_stmt 0 view .LVU49
 184 0000 2DE9F04F 		push	{r4, r5, r6, r7, r8, r9, r10, fp, lr}
 185              		.cfi_def_cfa_offset 36
 186              		.cfi_offset 4, -36
 187              		.cfi_offset 5, -32
 188              		.cfi_offset 6, -28
 189              		.cfi_offset 7, -24
 190              		.cfi_offset 8, -20
 191              		.cfi_offset 9, -16
 192              		.cfi_offset 10, -12
 193              		.cfi_offset 11, -8
 194              		.cfi_offset 14, -4
 195 0004 8346     		mov	fp, r0
 196 0006 8846     		mov	r8, r1
 197 0008 9146     		mov	r9, r2
 198 000a 9A46     		mov	r10, r3
 199 000c 099A     		ldr	r2, [sp, #36]
 200              	.LVL19:
 201              		.loc 1 240 1 view .LVU50
ARM GAS  /var/folders/0z/tsy30v1j4xl4_7kw94k978ww0000gn/T//ccBWD9YH.s 			page 9


 202 000e 0A9B     		ldr	r3, [sp, #40]
 203              	.LVL20:
 204              		.loc 1 240 1 view .LVU51
 205 0010 0B9F     		ldr	r7, [sp, #44]
 206 0012 0C9E     		ldr	r6, [sp, #48]
 207 0014 0D9D     		ldr	r5, [sp, #52]
 208 0016 0F99     		ldr	r1, [sp, #60]
 209              	.LVL21:
 241:Drivers/lvgl/src/draw/sw/lv_draw_sw_transform.c ****     int32_t xs_ups_start = xs_ups;
 210              		.loc 1 241 5 is_stmt 1 view .LVU52
 242:Drivers/lvgl/src/draw/sw/lv_draw_sw_transform.c ****     int32_t ys_ups_start = ys_ups;
 211              		.loc 1 242 5 view .LVU53
 243:Drivers/lvgl/src/draw/sw/lv_draw_sw_transform.c **** 
 244:Drivers/lvgl/src/draw/sw/lv_draw_sw_transform.c ****     lv_coord_t x;
 212              		.loc 1 244 5 view .LVU54
 245:Drivers/lvgl/src/draw/sw/lv_draw_sw_transform.c ****     for(x = 0; x < x_end; x++) {
 213              		.loc 1 245 5 view .LVU55
 214              		.loc 1 245 11 is_stmt 0 view .LVU56
 215 0018 4FF0000C 		mov	ip, #0
 216              		.loc 1 245 5 view .LVU57
 217 001c 06E0     		b	.L10
 218              	.LVL22:
 219              	.L11:
 220              	.LBB10:
 246:Drivers/lvgl/src/draw/sw/lv_draw_sw_transform.c ****         xs_ups = xs_ups_start + ((xs_step * x) >> 8);
 247:Drivers/lvgl/src/draw/sw/lv_draw_sw_transform.c ****         ys_ups = ys_ups_start + ((ys_step * x) >> 8);
 248:Drivers/lvgl/src/draw/sw/lv_draw_sw_transform.c **** 
 249:Drivers/lvgl/src/draw/sw/lv_draw_sw_transform.c ****         int32_t xs_int = xs_ups >> 8;
 250:Drivers/lvgl/src/draw/sw/lv_draw_sw_transform.c ****         int32_t ys_int = ys_ups >> 8;
 251:Drivers/lvgl/src/draw/sw/lv_draw_sw_transform.c ****         if(xs_int < 0 || xs_int >= src_w || ys_int < 0 || ys_int >= src_h) {
 252:Drivers/lvgl/src/draw/sw/lv_draw_sw_transform.c ****             abuf[x] = 0;
 221              		.loc 1 252 13 is_stmt 1 view .LVU58
 222              		.loc 1 252 21 is_stmt 0 view .LVU59
 223 001e 0024     		movs	r4, #0
 224              	.LVL23:
 225              		.loc 1 252 21 view .LVU60
 226 0020 01F80C40 		strb	r4, [r1, ip]
 227              	.LVL24:
 228              	.L13:
 229              		.loc 1 252 21 view .LVU61
 230              	.LBE10:
 245:Drivers/lvgl/src/draw/sw/lv_draw_sw_transform.c ****     for(x = 0; x < x_end; x++) {
 231              		.loc 1 245 28 is_stmt 1 discriminator 2 view .LVU62
 232 0024 0CF1010C 		add	ip, ip, #1
 233              	.LVL25:
 245:Drivers/lvgl/src/draw/sw/lv_draw_sw_transform.c ****     for(x = 0; x < x_end; x++) {
 234              		.loc 1 245 28 is_stmt 0 discriminator 2 view .LVU63
 235 0028 0FFA8CFC 		sxth	ip, ip
 236              	.LVL26:
 237              	.L10:
 245:Drivers/lvgl/src/draw/sw/lv_draw_sw_transform.c ****     for(x = 0; x < x_end; x++) {
 238              		.loc 1 245 18 is_stmt 1 discriminator 1 view .LVU64
 239 002c AC45     		cmp	ip, r5
 240 002e 21DA     		bge	.L16
 241              	.LBB12:
 246:Drivers/lvgl/src/draw/sw/lv_draw_sw_transform.c ****         xs_ups = xs_ups_start + ((xs_step * x) >> 8);
 242              		.loc 1 246 9 view .LVU65
ARM GAS  /var/folders/0z/tsy30v1j4xl4_7kw94k978ww0000gn/T//ccBWD9YH.s 			page 10


 246:Drivers/lvgl/src/draw/sw/lv_draw_sw_transform.c ****         xs_ups = xs_ups_start + ((xs_step * x) >> 8);
 243              		.loc 1 246 43 is_stmt 0 view .LVU66
 244 0030 07FB0CFE 		mul	lr, r7, ip
 246:Drivers/lvgl/src/draw/sw/lv_draw_sw_transform.c ****         xs_ups = xs_ups_start + ((xs_step * x) >> 8);
 245              		.loc 1 246 16 view .LVU67
 246 0034 02EB2E2E 		add	lr, r2, lr, asr #8
 247              	.LVL27:
 247:Drivers/lvgl/src/draw/sw/lv_draw_sw_transform.c **** 
 248              		.loc 1 247 9 is_stmt 1 view .LVU68
 247:Drivers/lvgl/src/draw/sw/lv_draw_sw_transform.c **** 
 249              		.loc 1 247 43 is_stmt 0 view .LVU69
 250 0038 06FB0CF4 		mul	r4, r6, ip
 247:Drivers/lvgl/src/draw/sw/lv_draw_sw_transform.c **** 
 251              		.loc 1 247 16 view .LVU70
 252 003c 03EB2424 		add	r4, r3, r4, asr #8
 253              	.LVL28:
 249:Drivers/lvgl/src/draw/sw/lv_draw_sw_transform.c ****         int32_t ys_int = ys_ups >> 8;
 254              		.loc 1 249 9 is_stmt 1 view .LVU71
 250:Drivers/lvgl/src/draw/sw/lv_draw_sw_transform.c ****         if(xs_int < 0 || xs_int >= src_w || ys_int < 0 || ys_int >= src_h) {
 255              		.loc 1 250 9 view .LVU72
 250:Drivers/lvgl/src/draw/sw/lv_draw_sw_transform.c ****         if(xs_int < 0 || xs_int >= src_w || ys_int < 0 || ys_int >= src_h) {
 256              		.loc 1 250 17 is_stmt 0 view .LVU73
 257 0040 2412     		asrs	r4, r4, #8
 258              	.LVL29:
 251:Drivers/lvgl/src/draw/sw/lv_draw_sw_transform.c ****             abuf[x] = 0;
 259              		.loc 1 251 9 is_stmt 1 view .LVU74
 251:Drivers/lvgl/src/draw/sw/lv_draw_sw_transform.c ****             abuf[x] = 0;
 260              		.loc 1 251 11 is_stmt 0 view .LVU75
 261 0042 5FEA2E2E 		asrs	lr, lr, #8
 262              	.LVL30:
 251:Drivers/lvgl/src/draw/sw/lv_draw_sw_transform.c ****             abuf[x] = 0;
 263              		.loc 1 251 11 view .LVU76
 264 0046 EAD4     		bmi	.L11
 251:Drivers/lvgl/src/draw/sw/lv_draw_sw_transform.c ****             abuf[x] = 0;
 265              		.loc 1 251 23 discriminator 1 view .LVU77
 266 0048 F045     		cmp	r8, lr
 267 004a E8DD     		ble	.L11
 251:Drivers/lvgl/src/draw/sw/lv_draw_sw_transform.c ****             abuf[x] = 0;
 268              		.loc 1 251 42 discriminator 2 view .LVU78
 269 004c 002C     		cmp	r4, #0
 270 004e E6DB     		blt	.L11
 251:Drivers/lvgl/src/draw/sw/lv_draw_sw_transform.c ****             abuf[x] = 0;
 271              		.loc 1 251 56 discriminator 3 view .LVU79
 272 0050 A145     		cmp	r9, r4
 273 0052 E4DD     		ble	.L11
 274              	.LBB11:
 253:Drivers/lvgl/src/draw/sw/lv_draw_sw_transform.c ****         }
 254:Drivers/lvgl/src/draw/sw/lv_draw_sw_transform.c ****         else {
 255:Drivers/lvgl/src/draw/sw/lv_draw_sw_transform.c ****             const lv_color_t * src_tmp = (const lv_color_t *)src;
 275              		.loc 1 255 13 is_stmt 1 view .LVU80
 276              	.LVL31:
 256:Drivers/lvgl/src/draw/sw/lv_draw_sw_transform.c ****             src_tmp += ys_int * src_stride + xs_int;
 277              		.loc 1 256 13 view .LVU81
 278              		.loc 1 256 44 is_stmt 0 view .LVU82
 279 0054 04FB0AEE 		mla	lr, r4, r10, lr
 280              	.LVL32:
 257:Drivers/lvgl/src/draw/sw/lv_draw_sw_transform.c ****             cbuf[x] = *src_tmp;
ARM GAS  /var/folders/0z/tsy30v1j4xl4_7kw94k978ww0000gn/T//ccBWD9YH.s 			page 11


 281              		.loc 1 257 13 is_stmt 1 view .LVU83
 282              		.loc 1 257 21 is_stmt 0 view .LVU84
 283 0058 3BF81E40 		ldrh	r4, [fp, lr, lsl #1]
 284              	.LVL33:
 285              		.loc 1 257 21 view .LVU85
 286 005c 0E98     		ldr	r0, [sp, #56]
 287 005e 20F81C40 		strh	r4, [r0, ip, lsl #1]	@ movhi
 258:Drivers/lvgl/src/draw/sw/lv_draw_sw_transform.c **** 
 259:Drivers/lvgl/src/draw/sw/lv_draw_sw_transform.c ****             const lv_opa_t * a_tmp = src + src_stride * src_h * sizeof(lv_color_t);
 288              		.loc 1 259 13 is_stmt 1 view .LVU86
 289              		.loc 1 259 55 is_stmt 0 view .LVU87
 290 0062 0AFB09F4 		mul	r4, r10, r9
 291              	.LVL34:
 260:Drivers/lvgl/src/draw/sw/lv_draw_sw_transform.c ****             a_tmp += ys_int * src_stride + xs_int;
 292              		.loc 1 260 13 is_stmt 1 view .LVU88
 293              		.loc 1 260 19 is_stmt 0 view .LVU89
 294 0066 0EEB440E 		add	lr, lr, r4, lsl #1
 295              	.LVL35:
 261:Drivers/lvgl/src/draw/sw/lv_draw_sw_transform.c ****             abuf[x] = *a_tmp;
 296              		.loc 1 261 13 is_stmt 1 view .LVU90
 297              		.loc 1 261 23 is_stmt 0 view .LVU91
 298 006a 1BF80E40 		ldrb	r4, [fp, lr]	@ zero_extendqisi2
 299              		.loc 1 261 21 view .LVU92
 300 006e 01F80C40 		strb	r4, [r1, ip]
 301 0072 D7E7     		b	.L13
 302              	.LVL36:
 303              	.L16:
 304              		.loc 1 261 21 view .LVU93
 305              	.LBE11:
 306              	.LBE12:
 262:Drivers/lvgl/src/draw/sw/lv_draw_sw_transform.c ****         }
 263:Drivers/lvgl/src/draw/sw/lv_draw_sw_transform.c ****     }
 264:Drivers/lvgl/src/draw/sw/lv_draw_sw_transform.c **** }
 307              		.loc 1 264 1 view .LVU94
 308 0074 BDE8F08F 		pop	{r4, r5, r6, r7, r8, r9, r10, fp, pc}
 309              		.loc 1 264 1 view .LVU95
 310              		.cfi_endproc
 311              	.LFE164:
 313              		.section	.text.transform_point_upscaled,"ax",%progbits
 314              		.align	1
 315              		.syntax unified
 316              		.thumb
 317              		.thumb_func
 319              	transform_point_upscaled:
 320              	.LVL37:
 321              	.LFB166:
 265:Drivers/lvgl/src/draw/sw/lv_draw_sw_transform.c **** #endif
 266:Drivers/lvgl/src/draw/sw/lv_draw_sw_transform.c **** 
 267:Drivers/lvgl/src/draw/sw/lv_draw_sw_transform.c **** 
 268:Drivers/lvgl/src/draw/sw/lv_draw_sw_transform.c **** static void argb_and_rgb_aa(const uint8_t * src, lv_coord_t src_w, lv_coord_t src_h, lv_coord_t src
 269:Drivers/lvgl/src/draw/sw/lv_draw_sw_transform.c ****                             int32_t xs_ups, int32_t ys_ups, int32_t xs_step, int32_t ys_step,
 270:Drivers/lvgl/src/draw/sw/lv_draw_sw_transform.c ****                             int32_t x_end, lv_color_t * cbuf, uint8_t * abuf, lv_img_cf_t cf)
 271:Drivers/lvgl/src/draw/sw/lv_draw_sw_transform.c **** {
 272:Drivers/lvgl/src/draw/sw/lv_draw_sw_transform.c ****     int32_t xs_ups_start = xs_ups;
 273:Drivers/lvgl/src/draw/sw/lv_draw_sw_transform.c ****     int32_t ys_ups_start = ys_ups;
 274:Drivers/lvgl/src/draw/sw/lv_draw_sw_transform.c ****     bool has_alpha;
 275:Drivers/lvgl/src/draw/sw/lv_draw_sw_transform.c ****     int32_t px_size;
ARM GAS  /var/folders/0z/tsy30v1j4xl4_7kw94k978ww0000gn/T//ccBWD9YH.s 			page 12


 276:Drivers/lvgl/src/draw/sw/lv_draw_sw_transform.c ****     lv_color_t ck = _LV_COLOR_ZERO_INITIALIZER;
 277:Drivers/lvgl/src/draw/sw/lv_draw_sw_transform.c ****     switch(cf) {
 278:Drivers/lvgl/src/draw/sw/lv_draw_sw_transform.c ****         case LV_IMG_CF_TRUE_COLOR:
 279:Drivers/lvgl/src/draw/sw/lv_draw_sw_transform.c ****             has_alpha = false;
 280:Drivers/lvgl/src/draw/sw/lv_draw_sw_transform.c ****             px_size = sizeof(lv_color_t);
 281:Drivers/lvgl/src/draw/sw/lv_draw_sw_transform.c ****             break;
 282:Drivers/lvgl/src/draw/sw/lv_draw_sw_transform.c ****         case LV_IMG_CF_TRUE_COLOR_ALPHA:
 283:Drivers/lvgl/src/draw/sw/lv_draw_sw_transform.c ****             has_alpha = true;
 284:Drivers/lvgl/src/draw/sw/lv_draw_sw_transform.c ****             px_size = LV_IMG_PX_SIZE_ALPHA_BYTE;
 285:Drivers/lvgl/src/draw/sw/lv_draw_sw_transform.c ****             break;
 286:Drivers/lvgl/src/draw/sw/lv_draw_sw_transform.c ****         case LV_IMG_CF_TRUE_COLOR_CHROMA_KEYED: {
 287:Drivers/lvgl/src/draw/sw/lv_draw_sw_transform.c ****                 has_alpha = true;
 288:Drivers/lvgl/src/draw/sw/lv_draw_sw_transform.c ****                 px_size = sizeof(lv_color_t);
 289:Drivers/lvgl/src/draw/sw/lv_draw_sw_transform.c ****                 lv_disp_t * d = _lv_refr_get_disp_refreshing();
 290:Drivers/lvgl/src/draw/sw/lv_draw_sw_transform.c ****                 ck = d->driver->color_chroma_key;
 291:Drivers/lvgl/src/draw/sw/lv_draw_sw_transform.c ****                 break;
 292:Drivers/lvgl/src/draw/sw/lv_draw_sw_transform.c ****             }
 293:Drivers/lvgl/src/draw/sw/lv_draw_sw_transform.c **** #if LV_COLOR_DEPTH == 16
 294:Drivers/lvgl/src/draw/sw/lv_draw_sw_transform.c ****         case LV_IMG_CF_RGB565A8:
 295:Drivers/lvgl/src/draw/sw/lv_draw_sw_transform.c ****             has_alpha = true;
 296:Drivers/lvgl/src/draw/sw/lv_draw_sw_transform.c ****             px_size = sizeof(lv_color_t);
 297:Drivers/lvgl/src/draw/sw/lv_draw_sw_transform.c ****             break;
 298:Drivers/lvgl/src/draw/sw/lv_draw_sw_transform.c **** #endif
 299:Drivers/lvgl/src/draw/sw/lv_draw_sw_transform.c ****         default:
 300:Drivers/lvgl/src/draw/sw/lv_draw_sw_transform.c ****             return;
 301:Drivers/lvgl/src/draw/sw/lv_draw_sw_transform.c ****     }
 302:Drivers/lvgl/src/draw/sw/lv_draw_sw_transform.c **** 
 303:Drivers/lvgl/src/draw/sw/lv_draw_sw_transform.c ****     lv_coord_t x;
 304:Drivers/lvgl/src/draw/sw/lv_draw_sw_transform.c ****     for(x = 0; x < x_end; x++) {
 305:Drivers/lvgl/src/draw/sw/lv_draw_sw_transform.c ****         xs_ups = xs_ups_start + ((xs_step * x) >> 8);
 306:Drivers/lvgl/src/draw/sw/lv_draw_sw_transform.c ****         ys_ups = ys_ups_start + ((ys_step * x) >> 8);
 307:Drivers/lvgl/src/draw/sw/lv_draw_sw_transform.c **** 
 308:Drivers/lvgl/src/draw/sw/lv_draw_sw_transform.c ****         int32_t xs_int = xs_ups >> 8;
 309:Drivers/lvgl/src/draw/sw/lv_draw_sw_transform.c ****         int32_t ys_int = ys_ups >> 8;
 310:Drivers/lvgl/src/draw/sw/lv_draw_sw_transform.c **** 
 311:Drivers/lvgl/src/draw/sw/lv_draw_sw_transform.c ****         /*Fully out of the image*/
 312:Drivers/lvgl/src/draw/sw/lv_draw_sw_transform.c ****         if(xs_int < 0 || xs_int >= src_w || ys_int < 0 || ys_int >= src_h) {
 313:Drivers/lvgl/src/draw/sw/lv_draw_sw_transform.c ****             abuf[x] = 0x00;
 314:Drivers/lvgl/src/draw/sw/lv_draw_sw_transform.c ****             continue;
 315:Drivers/lvgl/src/draw/sw/lv_draw_sw_transform.c ****         }
 316:Drivers/lvgl/src/draw/sw/lv_draw_sw_transform.c **** 
 317:Drivers/lvgl/src/draw/sw/lv_draw_sw_transform.c ****         /*Get the direction the hor and ver neighbor
 318:Drivers/lvgl/src/draw/sw/lv_draw_sw_transform.c ****          *`fract` will be in range of 0x00..0xFF and `next` (+/-1) indicates the direction*/
 319:Drivers/lvgl/src/draw/sw/lv_draw_sw_transform.c ****         int32_t xs_fract = xs_ups & 0xFF;
 320:Drivers/lvgl/src/draw/sw/lv_draw_sw_transform.c ****         int32_t ys_fract = ys_ups & 0xFF;
 321:Drivers/lvgl/src/draw/sw/lv_draw_sw_transform.c **** 
 322:Drivers/lvgl/src/draw/sw/lv_draw_sw_transform.c ****         int32_t x_next;
 323:Drivers/lvgl/src/draw/sw/lv_draw_sw_transform.c ****         int32_t y_next;
 324:Drivers/lvgl/src/draw/sw/lv_draw_sw_transform.c ****         if(xs_fract < 0x80) {
 325:Drivers/lvgl/src/draw/sw/lv_draw_sw_transform.c ****             x_next = -1;
 326:Drivers/lvgl/src/draw/sw/lv_draw_sw_transform.c ****             xs_fract = (0x7F - xs_fract) * 2;
 327:Drivers/lvgl/src/draw/sw/lv_draw_sw_transform.c ****         }
 328:Drivers/lvgl/src/draw/sw/lv_draw_sw_transform.c ****         else {
 329:Drivers/lvgl/src/draw/sw/lv_draw_sw_transform.c ****             x_next = 1;
 330:Drivers/lvgl/src/draw/sw/lv_draw_sw_transform.c ****             xs_fract = (xs_fract - 0x80) * 2;
 331:Drivers/lvgl/src/draw/sw/lv_draw_sw_transform.c ****         }
 332:Drivers/lvgl/src/draw/sw/lv_draw_sw_transform.c ****         if(ys_fract < 0x80) {
ARM GAS  /var/folders/0z/tsy30v1j4xl4_7kw94k978ww0000gn/T//ccBWD9YH.s 			page 13


 333:Drivers/lvgl/src/draw/sw/lv_draw_sw_transform.c ****             y_next = -1;
 334:Drivers/lvgl/src/draw/sw/lv_draw_sw_transform.c ****             ys_fract = (0x7F - ys_fract) * 2;
 335:Drivers/lvgl/src/draw/sw/lv_draw_sw_transform.c ****         }
 336:Drivers/lvgl/src/draw/sw/lv_draw_sw_transform.c ****         else {
 337:Drivers/lvgl/src/draw/sw/lv_draw_sw_transform.c ****             y_next = 1;
 338:Drivers/lvgl/src/draw/sw/lv_draw_sw_transform.c ****             ys_fract = (ys_fract - 0x80) * 2;
 339:Drivers/lvgl/src/draw/sw/lv_draw_sw_transform.c ****         }
 340:Drivers/lvgl/src/draw/sw/lv_draw_sw_transform.c **** 
 341:Drivers/lvgl/src/draw/sw/lv_draw_sw_transform.c ****         const uint8_t * src_tmp = src;
 342:Drivers/lvgl/src/draw/sw/lv_draw_sw_transform.c ****         src_tmp += (ys_int * src_stride * px_size) + xs_int * px_size;
 343:Drivers/lvgl/src/draw/sw/lv_draw_sw_transform.c **** 
 344:Drivers/lvgl/src/draw/sw/lv_draw_sw_transform.c **** 
 345:Drivers/lvgl/src/draw/sw/lv_draw_sw_transform.c ****         if(xs_int + x_next >= 0 &&
 346:Drivers/lvgl/src/draw/sw/lv_draw_sw_transform.c ****            xs_int + x_next <= src_w - 1 &&
 347:Drivers/lvgl/src/draw/sw/lv_draw_sw_transform.c ****            ys_int + y_next >= 0 &&
 348:Drivers/lvgl/src/draw/sw/lv_draw_sw_transform.c ****            ys_int + y_next <= src_h - 1) {
 349:Drivers/lvgl/src/draw/sw/lv_draw_sw_transform.c **** 
 350:Drivers/lvgl/src/draw/sw/lv_draw_sw_transform.c ****             const uint8_t * px_base = src_tmp;
 351:Drivers/lvgl/src/draw/sw/lv_draw_sw_transform.c ****             const uint8_t * px_hor = src_tmp + x_next * px_size;
 352:Drivers/lvgl/src/draw/sw/lv_draw_sw_transform.c ****             const uint8_t * px_ver = src_tmp + y_next * src_stride * px_size;
 353:Drivers/lvgl/src/draw/sw/lv_draw_sw_transform.c ****             lv_color_t c_base;
 354:Drivers/lvgl/src/draw/sw/lv_draw_sw_transform.c ****             lv_color_t c_ver;
 355:Drivers/lvgl/src/draw/sw/lv_draw_sw_transform.c ****             lv_color_t c_hor;
 356:Drivers/lvgl/src/draw/sw/lv_draw_sw_transform.c **** 
 357:Drivers/lvgl/src/draw/sw/lv_draw_sw_transform.c ****             if(has_alpha) {
 358:Drivers/lvgl/src/draw/sw/lv_draw_sw_transform.c ****                 lv_opa_t a_base;
 359:Drivers/lvgl/src/draw/sw/lv_draw_sw_transform.c ****                 lv_opa_t a_ver;
 360:Drivers/lvgl/src/draw/sw/lv_draw_sw_transform.c ****                 lv_opa_t a_hor;
 361:Drivers/lvgl/src/draw/sw/lv_draw_sw_transform.c ****                 if(cf == LV_IMG_CF_TRUE_COLOR_ALPHA) {
 362:Drivers/lvgl/src/draw/sw/lv_draw_sw_transform.c ****                     a_base = px_base[LV_IMG_PX_SIZE_ALPHA_BYTE - 1];
 363:Drivers/lvgl/src/draw/sw/lv_draw_sw_transform.c ****                     a_ver = px_ver[LV_IMG_PX_SIZE_ALPHA_BYTE - 1];
 364:Drivers/lvgl/src/draw/sw/lv_draw_sw_transform.c ****                     a_hor = px_hor[LV_IMG_PX_SIZE_ALPHA_BYTE - 1];
 365:Drivers/lvgl/src/draw/sw/lv_draw_sw_transform.c ****                 }
 366:Drivers/lvgl/src/draw/sw/lv_draw_sw_transform.c **** #if LV_COLOR_DEPTH == 16
 367:Drivers/lvgl/src/draw/sw/lv_draw_sw_transform.c ****                 else if(cf == LV_IMG_CF_RGB565A8) {
 368:Drivers/lvgl/src/draw/sw/lv_draw_sw_transform.c ****                     const lv_opa_t * a_tmp = src + src_stride * src_h * sizeof(lv_color_t);
 369:Drivers/lvgl/src/draw/sw/lv_draw_sw_transform.c ****                     a_base = *(a_tmp + (ys_int * src_stride) + xs_int);
 370:Drivers/lvgl/src/draw/sw/lv_draw_sw_transform.c ****                     a_hor = *(a_tmp + (ys_int * src_stride) + xs_int + x_next);
 371:Drivers/lvgl/src/draw/sw/lv_draw_sw_transform.c ****                     a_ver = *(a_tmp + ((ys_int + y_next) * src_stride) + xs_int);
 372:Drivers/lvgl/src/draw/sw/lv_draw_sw_transform.c ****                 }
 373:Drivers/lvgl/src/draw/sw/lv_draw_sw_transform.c **** #endif
 374:Drivers/lvgl/src/draw/sw/lv_draw_sw_transform.c ****                 else if(cf == LV_IMG_CF_TRUE_COLOR_CHROMA_KEYED) {
 375:Drivers/lvgl/src/draw/sw/lv_draw_sw_transform.c ****                     if(((lv_color_t *)px_base)->full == ck.full ||
 376:Drivers/lvgl/src/draw/sw/lv_draw_sw_transform.c ****                        ((lv_color_t *)px_ver)->full == ck.full ||
 377:Drivers/lvgl/src/draw/sw/lv_draw_sw_transform.c ****                        ((lv_color_t *)px_hor)->full == ck.full) {
 378:Drivers/lvgl/src/draw/sw/lv_draw_sw_transform.c ****                         abuf[x] = 0x00;
 379:Drivers/lvgl/src/draw/sw/lv_draw_sw_transform.c ****                         continue;
 380:Drivers/lvgl/src/draw/sw/lv_draw_sw_transform.c ****                     }
 381:Drivers/lvgl/src/draw/sw/lv_draw_sw_transform.c ****                     else {
 382:Drivers/lvgl/src/draw/sw/lv_draw_sw_transform.c ****                         a_base = 0xff;
 383:Drivers/lvgl/src/draw/sw/lv_draw_sw_transform.c ****                         a_ver = 0xff;
 384:Drivers/lvgl/src/draw/sw/lv_draw_sw_transform.c ****                         a_hor = 0xff;
 385:Drivers/lvgl/src/draw/sw/lv_draw_sw_transform.c ****                     }
 386:Drivers/lvgl/src/draw/sw/lv_draw_sw_transform.c ****                 }
 387:Drivers/lvgl/src/draw/sw/lv_draw_sw_transform.c ****                 else {
 388:Drivers/lvgl/src/draw/sw/lv_draw_sw_transform.c ****                     a_base = 0xff;
 389:Drivers/lvgl/src/draw/sw/lv_draw_sw_transform.c ****                     a_ver = 0xff;
ARM GAS  /var/folders/0z/tsy30v1j4xl4_7kw94k978ww0000gn/T//ccBWD9YH.s 			page 14


 390:Drivers/lvgl/src/draw/sw/lv_draw_sw_transform.c ****                     a_hor = 0xff;
 391:Drivers/lvgl/src/draw/sw/lv_draw_sw_transform.c ****                 }
 392:Drivers/lvgl/src/draw/sw/lv_draw_sw_transform.c **** 
 393:Drivers/lvgl/src/draw/sw/lv_draw_sw_transform.c ****                 if(a_ver != a_base) a_ver = ((a_ver * ys_fract) + (a_base * (0x100 - ys_fract))) >>
 394:Drivers/lvgl/src/draw/sw/lv_draw_sw_transform.c ****                 if(a_hor != a_base) a_hor = ((a_hor * xs_fract) + (a_base * (0x100 - xs_fract))) >>
 395:Drivers/lvgl/src/draw/sw/lv_draw_sw_transform.c ****                 abuf[x] = (a_ver + a_hor) >> 1;
 396:Drivers/lvgl/src/draw/sw/lv_draw_sw_transform.c **** 
 397:Drivers/lvgl/src/draw/sw/lv_draw_sw_transform.c ****                 if(abuf[x] == 0x00) continue;
 398:Drivers/lvgl/src/draw/sw/lv_draw_sw_transform.c **** 
 399:Drivers/lvgl/src/draw/sw/lv_draw_sw_transform.c **** #if LV_COLOR_DEPTH == 1 || LV_COLOR_DEPTH == 8
 400:Drivers/lvgl/src/draw/sw/lv_draw_sw_transform.c ****                 c_base.full = px_base[0];
 401:Drivers/lvgl/src/draw/sw/lv_draw_sw_transform.c ****                 c_ver.full = px_ver[0];
 402:Drivers/lvgl/src/draw/sw/lv_draw_sw_transform.c ****                 c_hor.full = px_hor[0];
 403:Drivers/lvgl/src/draw/sw/lv_draw_sw_transform.c **** #elif LV_COLOR_DEPTH == 16
 404:Drivers/lvgl/src/draw/sw/lv_draw_sw_transform.c ****                 c_base.full = px_base[0] + (px_base[1] << 8);
 405:Drivers/lvgl/src/draw/sw/lv_draw_sw_transform.c ****                 c_ver.full = px_ver[0] + (px_ver[1] << 8);
 406:Drivers/lvgl/src/draw/sw/lv_draw_sw_transform.c ****                 c_hor.full = px_hor[0] + (px_hor[1] << 8);
 407:Drivers/lvgl/src/draw/sw/lv_draw_sw_transform.c **** #elif LV_COLOR_DEPTH == 32
 408:Drivers/lvgl/src/draw/sw/lv_draw_sw_transform.c ****                 c_base.full = *((uint32_t *)px_base);
 409:Drivers/lvgl/src/draw/sw/lv_draw_sw_transform.c ****                 c_ver.full = *((uint32_t *)px_ver);
 410:Drivers/lvgl/src/draw/sw/lv_draw_sw_transform.c ****                 c_hor.full = *((uint32_t *)px_hor);
 411:Drivers/lvgl/src/draw/sw/lv_draw_sw_transform.c **** #endif
 412:Drivers/lvgl/src/draw/sw/lv_draw_sw_transform.c ****             }
 413:Drivers/lvgl/src/draw/sw/lv_draw_sw_transform.c ****             /*No alpha channel -> RGB*/
 414:Drivers/lvgl/src/draw/sw/lv_draw_sw_transform.c ****             else {
 415:Drivers/lvgl/src/draw/sw/lv_draw_sw_transform.c ****                 c_base = *((const lv_color_t *) px_base);
 416:Drivers/lvgl/src/draw/sw/lv_draw_sw_transform.c ****                 c_hor = *((const lv_color_t *) px_hor);
 417:Drivers/lvgl/src/draw/sw/lv_draw_sw_transform.c ****                 c_ver = *((const lv_color_t *) px_ver);
 418:Drivers/lvgl/src/draw/sw/lv_draw_sw_transform.c ****                 abuf[x] = 0xff;
 419:Drivers/lvgl/src/draw/sw/lv_draw_sw_transform.c ****             }
 420:Drivers/lvgl/src/draw/sw/lv_draw_sw_transform.c **** 
 421:Drivers/lvgl/src/draw/sw/lv_draw_sw_transform.c ****             if(c_base.full == c_ver.full && c_base.full == c_hor.full) {
 422:Drivers/lvgl/src/draw/sw/lv_draw_sw_transform.c ****                 cbuf[x] = c_base;
 423:Drivers/lvgl/src/draw/sw/lv_draw_sw_transform.c ****             }
 424:Drivers/lvgl/src/draw/sw/lv_draw_sw_transform.c ****             else {
 425:Drivers/lvgl/src/draw/sw/lv_draw_sw_transform.c ****                 c_ver = lv_color_mix(c_ver, c_base, ys_fract);
 426:Drivers/lvgl/src/draw/sw/lv_draw_sw_transform.c ****                 c_hor = lv_color_mix(c_hor, c_base, xs_fract);
 427:Drivers/lvgl/src/draw/sw/lv_draw_sw_transform.c ****                 cbuf[x] = lv_color_mix(c_hor, c_ver, LV_OPA_50);
 428:Drivers/lvgl/src/draw/sw/lv_draw_sw_transform.c ****             }
 429:Drivers/lvgl/src/draw/sw/lv_draw_sw_transform.c ****         }
 430:Drivers/lvgl/src/draw/sw/lv_draw_sw_transform.c ****         /*Partially out of the image*/
 431:Drivers/lvgl/src/draw/sw/lv_draw_sw_transform.c ****         else {
 432:Drivers/lvgl/src/draw/sw/lv_draw_sw_transform.c **** #if LV_COLOR_DEPTH == 1 || LV_COLOR_DEPTH == 8
 433:Drivers/lvgl/src/draw/sw/lv_draw_sw_transform.c ****             cbuf[x].full = src_tmp[0];
 434:Drivers/lvgl/src/draw/sw/lv_draw_sw_transform.c **** #elif LV_COLOR_DEPTH == 16
 435:Drivers/lvgl/src/draw/sw/lv_draw_sw_transform.c ****             cbuf[x].full = src_tmp[0] + (src_tmp[1] << 8);
 436:Drivers/lvgl/src/draw/sw/lv_draw_sw_transform.c **** #elif LV_COLOR_DEPTH == 32
 437:Drivers/lvgl/src/draw/sw/lv_draw_sw_transform.c ****             cbuf[x].full = *((uint32_t *)src_tmp);
 438:Drivers/lvgl/src/draw/sw/lv_draw_sw_transform.c **** #endif
 439:Drivers/lvgl/src/draw/sw/lv_draw_sw_transform.c ****             lv_opa_t a;
 440:Drivers/lvgl/src/draw/sw/lv_draw_sw_transform.c ****             switch(cf) {
 441:Drivers/lvgl/src/draw/sw/lv_draw_sw_transform.c ****                 case LV_IMG_CF_TRUE_COLOR_ALPHA:
 442:Drivers/lvgl/src/draw/sw/lv_draw_sw_transform.c ****                     a = src_tmp[LV_IMG_PX_SIZE_ALPHA_BYTE - 1];
 443:Drivers/lvgl/src/draw/sw/lv_draw_sw_transform.c ****                     break;
 444:Drivers/lvgl/src/draw/sw/lv_draw_sw_transform.c ****                 case LV_IMG_CF_TRUE_COLOR_CHROMA_KEYED:
 445:Drivers/lvgl/src/draw/sw/lv_draw_sw_transform.c ****                     a = cbuf[x].full == ck.full ? 0x00 : 0xff;
 446:Drivers/lvgl/src/draw/sw/lv_draw_sw_transform.c ****                     break;
ARM GAS  /var/folders/0z/tsy30v1j4xl4_7kw94k978ww0000gn/T//ccBWD9YH.s 			page 15


 447:Drivers/lvgl/src/draw/sw/lv_draw_sw_transform.c **** #if LV_COLOR_DEPTH == 16
 448:Drivers/lvgl/src/draw/sw/lv_draw_sw_transform.c ****                 case LV_IMG_CF_RGB565A8:
 449:Drivers/lvgl/src/draw/sw/lv_draw_sw_transform.c ****                     a = *(src + src_stride * src_h * sizeof(lv_color_t) + (ys_int * src_stride) + x
 450:Drivers/lvgl/src/draw/sw/lv_draw_sw_transform.c ****                     break;
 451:Drivers/lvgl/src/draw/sw/lv_draw_sw_transform.c **** #endif
 452:Drivers/lvgl/src/draw/sw/lv_draw_sw_transform.c ****                 default:
 453:Drivers/lvgl/src/draw/sw/lv_draw_sw_transform.c ****                     a = 0xff;
 454:Drivers/lvgl/src/draw/sw/lv_draw_sw_transform.c ****             }
 455:Drivers/lvgl/src/draw/sw/lv_draw_sw_transform.c **** 
 456:Drivers/lvgl/src/draw/sw/lv_draw_sw_transform.c ****             if((xs_int == 0 && x_next < 0) || (xs_int == src_w - 1 && x_next > 0))  {
 457:Drivers/lvgl/src/draw/sw/lv_draw_sw_transform.c ****                 abuf[x] = (a * (0xFF - xs_fract)) >> 8;
 458:Drivers/lvgl/src/draw/sw/lv_draw_sw_transform.c ****             }
 459:Drivers/lvgl/src/draw/sw/lv_draw_sw_transform.c ****             else if((ys_int == 0 && y_next < 0) || (ys_int == src_h - 1 && y_next > 0))  {
 460:Drivers/lvgl/src/draw/sw/lv_draw_sw_transform.c ****                 abuf[x] = (a * (0xFF - ys_fract)) >> 8;
 461:Drivers/lvgl/src/draw/sw/lv_draw_sw_transform.c ****             }
 462:Drivers/lvgl/src/draw/sw/lv_draw_sw_transform.c ****             else {
 463:Drivers/lvgl/src/draw/sw/lv_draw_sw_transform.c ****                 abuf[x] = 0x00;
 464:Drivers/lvgl/src/draw/sw/lv_draw_sw_transform.c ****             }
 465:Drivers/lvgl/src/draw/sw/lv_draw_sw_transform.c ****         }
 466:Drivers/lvgl/src/draw/sw/lv_draw_sw_transform.c ****     }
 467:Drivers/lvgl/src/draw/sw/lv_draw_sw_transform.c **** }
 468:Drivers/lvgl/src/draw/sw/lv_draw_sw_transform.c **** 
 469:Drivers/lvgl/src/draw/sw/lv_draw_sw_transform.c **** static void transform_point_upscaled(point_transform_dsc_t * t, int32_t xin, int32_t yin, int32_t *
 470:Drivers/lvgl/src/draw/sw/lv_draw_sw_transform.c ****                                      int32_t * yout)
 471:Drivers/lvgl/src/draw/sw/lv_draw_sw_transform.c **** {
 322              		.loc 1 471 1 is_stmt 1 view -0
 323              		.cfi_startproc
 324              		@ args = 4, pretend = 0, frame = 0
 325              		@ frame_needed = 0, uses_anonymous_args = 0
 326              		@ link register save eliminated.
 327              		.loc 1 471 1 is_stmt 0 view .LVU97
 328 0000 30B4     		push	{r4, r5}
 329              		.cfi_def_cfa_offset 8
 330              		.cfi_offset 4, -8
 331              		.cfi_offset 5, -4
 472:Drivers/lvgl/src/draw/sw/lv_draw_sw_transform.c ****     if(t->angle == 0 && t->zoom == LV_IMG_ZOOM_NONE) {
 332              		.loc 1 472 5 is_stmt 1 view .LVU98
 333              		.loc 1 472 9 is_stmt 0 view .LVU99
 334 0002 C469     		ldr	r4, [r0, #28]
 335              		.loc 1 472 7 view .LVU100
 336 0004 1CB9     		cbnz	r4, .L18
 337              		.loc 1 472 22 discriminator 1 view .LVU101
 338 0006 8569     		ldr	r5, [r0, #24]
 339 0008 B5F5807F 		cmp	r5, #256
 340 000c 15D0     		beq	.L23
 341              	.L18:
 473:Drivers/lvgl/src/draw/sw/lv_draw_sw_transform.c ****         *xout = xin * 256;
 474:Drivers/lvgl/src/draw/sw/lv_draw_sw_transform.c ****         *yout = yin * 256;
 475:Drivers/lvgl/src/draw/sw/lv_draw_sw_transform.c ****         return;
 476:Drivers/lvgl/src/draw/sw/lv_draw_sw_transform.c ****     }
 477:Drivers/lvgl/src/draw/sw/lv_draw_sw_transform.c **** 
 478:Drivers/lvgl/src/draw/sw/lv_draw_sw_transform.c ****     xin -= t->pivot.x;
 342              		.loc 1 478 5 is_stmt 1 view .LVU102
 343              		.loc 1 478 20 is_stmt 0 view .LVU103
 344 000e B0F928C0 		ldrsh	ip, [r0, #40]
 345              		.loc 1 478 9 view .LVU104
 346 0012 A1EB0C01 		sub	r1, r1, ip
ARM GAS  /var/folders/0z/tsy30v1j4xl4_7kw94k978ww0000gn/T//ccBWD9YH.s 			page 16


 347              	.LVL38:
 479:Drivers/lvgl/src/draw/sw/lv_draw_sw_transform.c ****     yin -= t->pivot.y;
 348              		.loc 1 479 5 is_stmt 1 view .LVU105
 349              		.loc 1 479 20 is_stmt 0 view .LVU106
 350 0016 B0F92AC0 		ldrsh	ip, [r0, #42]
 351              		.loc 1 479 9 view .LVU107
 352 001a A2EB0C02 		sub	r2, r2, ip
 353              	.LVL39:
 480:Drivers/lvgl/src/draw/sw/lv_draw_sw_transform.c **** 
 481:Drivers/lvgl/src/draw/sw/lv_draw_sw_transform.c ****     if(t->angle == 0) {
 354              		.loc 1 481 5 is_stmt 1 view .LVU108
 355              		.loc 1 481 7 is_stmt 0 view .LVU109
 356 001e 94B9     		cbnz	r4, .L20
 482:Drivers/lvgl/src/draw/sw/lv_draw_sw_transform.c ****         *xout = ((int32_t)(xin * t->zoom)) + (t->pivot_x_256);
 357              		.loc 1 482 9 is_stmt 1 view .LVU110
 358              		.loc 1 482 48 is_stmt 0 view .LVU111
 359 0020 046A     		ldr	r4, [r0, #32]
 360              		.loc 1 482 44 view .LVU112
 361 0022 8569     		ldr	r5, [r0, #24]
 362 0024 01FB0544 		mla	r4, r1, r5, r4
 363              		.loc 1 482 15 view .LVU113
 364 0028 1C60     		str	r4, [r3]
 483:Drivers/lvgl/src/draw/sw/lv_draw_sw_transform.c ****         *yout = ((int32_t)(yin * t->zoom)) + (t->pivot_y_256);
 365              		.loc 1 483 9 is_stmt 1 view .LVU114
 366              		.loc 1 483 35 is_stmt 0 view .LVU115
 367 002a 8169     		ldr	r1, [r0, #24]
 368              	.LVL40:
 369              		.loc 1 483 48 view .LVU116
 370 002c 436A     		ldr	r3, [r0, #36]
 371              	.LVL41:
 372              		.loc 1 483 44 view .LVU117
 373 002e 02FB0133 		mla	r3, r2, r1, r3
 374              		.loc 1 483 15 view .LVU118
 375 0032 029A     		ldr	r2, [sp, #8]
 376              	.LVL42:
 377              		.loc 1 483 15 view .LVU119
 378 0034 1360     		str	r3, [r2]
 379              	.LVL43:
 380              	.L17:
 484:Drivers/lvgl/src/draw/sw/lv_draw_sw_transform.c ****     }
 485:Drivers/lvgl/src/draw/sw/lv_draw_sw_transform.c ****     else if(t->zoom == LV_IMG_ZOOM_NONE) {
 486:Drivers/lvgl/src/draw/sw/lv_draw_sw_transform.c ****         *xout = ((t->cosma * xin - t->sinma * yin) >> 2) + (t->pivot_x_256);
 487:Drivers/lvgl/src/draw/sw/lv_draw_sw_transform.c ****         *yout = ((t->sinma * xin + t->cosma * yin) >> 2) + (t->pivot_y_256);
 488:Drivers/lvgl/src/draw/sw/lv_draw_sw_transform.c ****     }
 489:Drivers/lvgl/src/draw/sw/lv_draw_sw_transform.c ****     else {
 490:Drivers/lvgl/src/draw/sw/lv_draw_sw_transform.c ****         *xout = (((t->cosma * xin - t->sinma * yin) * t->zoom) >> 10) + (t->pivot_x_256);
 491:Drivers/lvgl/src/draw/sw/lv_draw_sw_transform.c ****         *yout = (((t->sinma * xin + t->cosma * yin) * t->zoom) >> 10) + (t->pivot_y_256);
 492:Drivers/lvgl/src/draw/sw/lv_draw_sw_transform.c ****     }
 493:Drivers/lvgl/src/draw/sw/lv_draw_sw_transform.c **** }
 381              		.loc 1 493 1 view .LVU120
 382 0036 30BC     		pop	{r4, r5}
 383              		.cfi_remember_state
 384              		.cfi_restore 5
 385              		.cfi_restore 4
 386              		.cfi_def_cfa_offset 0
 387              	.LVL44:
 388              		.loc 1 493 1 view .LVU121
ARM GAS  /var/folders/0z/tsy30v1j4xl4_7kw94k978ww0000gn/T//ccBWD9YH.s 			page 17


 389 0038 7047     		bx	lr
 390              	.LVL45:
 391              	.L23:
 392              		.cfi_restore_state
 473:Drivers/lvgl/src/draw/sw/lv_draw_sw_transform.c ****         *yout = yin * 256;
 393              		.loc 1 473 9 is_stmt 1 view .LVU122
 473:Drivers/lvgl/src/draw/sw/lv_draw_sw_transform.c ****         *yout = yin * 256;
 394              		.loc 1 473 21 is_stmt 0 view .LVU123
 395 003a 0902     		lsls	r1, r1, #8
 396              	.LVL46:
 473:Drivers/lvgl/src/draw/sw/lv_draw_sw_transform.c ****         *yout = yin * 256;
 397              		.loc 1 473 15 view .LVU124
 398 003c 1960     		str	r1, [r3]
 474:Drivers/lvgl/src/draw/sw/lv_draw_sw_transform.c ****         return;
 399              		.loc 1 474 9 is_stmt 1 view .LVU125
 474:Drivers/lvgl/src/draw/sw/lv_draw_sw_transform.c ****         return;
 400              		.loc 1 474 21 is_stmt 0 view .LVU126
 401 003e 1202     		lsls	r2, r2, #8
 402              	.LVL47:
 474:Drivers/lvgl/src/draw/sw/lv_draw_sw_transform.c ****         return;
 403              		.loc 1 474 15 view .LVU127
 404 0040 029B     		ldr	r3, [sp, #8]
 405              	.LVL48:
 474:Drivers/lvgl/src/draw/sw/lv_draw_sw_transform.c ****         return;
 406              		.loc 1 474 15 view .LVU128
 407 0042 1A60     		str	r2, [r3]
 475:Drivers/lvgl/src/draw/sw/lv_draw_sw_transform.c ****     }
 408              		.loc 1 475 9 is_stmt 1 view .LVU129
 409 0044 F7E7     		b	.L17
 410              	.LVL49:
 411              	.L20:
 485:Drivers/lvgl/src/draw/sw/lv_draw_sw_transform.c ****         *xout = ((t->cosma * xin - t->sinma * yin) >> 2) + (t->pivot_x_256);
 412              		.loc 1 485 10 view .LVU130
 485:Drivers/lvgl/src/draw/sw/lv_draw_sw_transform.c ****         *xout = ((t->cosma * xin - t->sinma * yin) >> 2) + (t->pivot_x_256);
 413              		.loc 1 485 14 is_stmt 0 view .LVU131
 414 0046 8469     		ldr	r4, [r0, #24]
 485:Drivers/lvgl/src/draw/sw/lv_draw_sw_transform.c ****         *xout = ((t->cosma * xin - t->sinma * yin) >> 2) + (t->pivot_x_256);
 415              		.loc 1 485 12 view .LVU132
 416 0048 B4F5807F 		cmp	r4, #256
 417 004c 1AD0     		beq	.L24
 490:Drivers/lvgl/src/draw/sw/lv_draw_sw_transform.c ****         *yout = (((t->sinma * xin + t->cosma * yin) * t->zoom) >> 10) + (t->pivot_y_256);
 418              		.loc 1 490 9 is_stmt 1 view .LVU133
 490:Drivers/lvgl/src/draw/sw/lv_draw_sw_transform.c ****         *yout = (((t->sinma * xin + t->cosma * yin) * t->zoom) >> 10) + (t->pivot_y_256);
 419              		.loc 1 490 29 is_stmt 0 view .LVU134
 420 004e 4569     		ldr	r5, [r0, #20]
 421 0050 01FB05FC 		mul	ip, r1, r5
 490:Drivers/lvgl/src/draw/sw/lv_draw_sw_transform.c ****         *yout = (((t->sinma * xin + t->cosma * yin) * t->zoom) >> 10) + (t->pivot_y_256);
 422              		.loc 1 490 35 view .LVU135
 423 0054 0569     		ldr	r5, [r0, #16]
 424 0056 02FB15CC 		mls	ip, r2, r5, ip
 490:Drivers/lvgl/src/draw/sw/lv_draw_sw_transform.c ****         *yout = (((t->sinma * xin + t->cosma * yin) * t->zoom) >> 10) + (t->pivot_y_256);
 425              		.loc 1 490 53 view .LVU136
 426 005a 0CFB04F4 		mul	r4, ip, r4
 490:Drivers/lvgl/src/draw/sw/lv_draw_sw_transform.c ****         *yout = (((t->sinma * xin + t->cosma * yin) * t->zoom) >> 10) + (t->pivot_y_256);
 427              		.loc 1 490 71 view .LVU137
 428 005e 056A     		ldr	r5, [r0, #32]
 429 0060 05EBA424 		add	r4, r5, r4, asr #10
ARM GAS  /var/folders/0z/tsy30v1j4xl4_7kw94k978ww0000gn/T//ccBWD9YH.s 			page 18


 490:Drivers/lvgl/src/draw/sw/lv_draw_sw_transform.c ****         *yout = (((t->sinma * xin + t->cosma * yin) * t->zoom) >> 10) + (t->pivot_y_256);
 430              		.loc 1 490 15 view .LVU138
 431 0064 1C60     		str	r4, [r3]
 491:Drivers/lvgl/src/draw/sw/lv_draw_sw_transform.c ****     }
 432              		.loc 1 491 9 is_stmt 1 view .LVU139
 491:Drivers/lvgl/src/draw/sw/lv_draw_sw_transform.c ****     }
 433              		.loc 1 491 21 is_stmt 0 view .LVU140
 434 0066 0469     		ldr	r4, [r0, #16]
 491:Drivers/lvgl/src/draw/sw/lv_draw_sw_transform.c ****     }
 435              		.loc 1 491 38 view .LVU141
 436 0068 4369     		ldr	r3, [r0, #20]
 437              	.LVL50:
 491:Drivers/lvgl/src/draw/sw/lv_draw_sw_transform.c ****     }
 438              		.loc 1 491 46 view .LVU142
 439 006a 02FB03F3 		mul	r3, r2, r3
 491:Drivers/lvgl/src/draw/sw/lv_draw_sw_transform.c ****     }
 440              		.loc 1 491 35 view .LVU143
 441 006e 01FB0433 		mla	r3, r1, r4, r3
 491:Drivers/lvgl/src/draw/sw/lv_draw_sw_transform.c ****     }
 442              		.loc 1 491 56 view .LVU144
 443 0072 8269     		ldr	r2, [r0, #24]
 444              	.LVL51:
 491:Drivers/lvgl/src/draw/sw/lv_draw_sw_transform.c ****     }
 445              		.loc 1 491 53 view .LVU145
 446 0074 02FB03F3 		mul	r3, r2, r3
 491:Drivers/lvgl/src/draw/sw/lv_draw_sw_transform.c ****     }
 447              		.loc 1 491 75 view .LVU146
 448 0078 426A     		ldr	r2, [r0, #36]
 491:Drivers/lvgl/src/draw/sw/lv_draw_sw_transform.c ****     }
 449              		.loc 1 491 71 view .LVU147
 450 007a 02EBA323 		add	r3, r2, r3, asr #10
 491:Drivers/lvgl/src/draw/sw/lv_draw_sw_transform.c ****     }
 451              		.loc 1 491 15 view .LVU148
 452 007e 029A     		ldr	r2, [sp, #8]
 453 0080 1360     		str	r3, [r2]
 454 0082 D8E7     		b	.L17
 455              	.LVL52:
 456              	.L24:
 486:Drivers/lvgl/src/draw/sw/lv_draw_sw_transform.c ****         *yout = ((t->sinma * xin + t->cosma * yin) >> 2) + (t->pivot_y_256);
 457              		.loc 1 486 9 is_stmt 1 view .LVU149
 486:Drivers/lvgl/src/draw/sw/lv_draw_sw_transform.c ****         *yout = ((t->sinma * xin + t->cosma * yin) >> 2) + (t->pivot_y_256);
 458              		.loc 1 486 20 is_stmt 0 view .LVU150
 459 0084 4469     		ldr	r4, [r0, #20]
 486:Drivers/lvgl/src/draw/sw/lv_draw_sw_transform.c ****         *yout = ((t->sinma * xin + t->cosma * yin) >> 2) + (t->pivot_y_256);
 460              		.loc 1 486 28 view .LVU151
 461 0086 01FB04F4 		mul	r4, r1, r4
 486:Drivers/lvgl/src/draw/sw/lv_draw_sw_transform.c ****         *yout = ((t->sinma * xin + t->cosma * yin) >> 2) + (t->pivot_y_256);
 462              		.loc 1 486 34 view .LVU152
 463 008a 0569     		ldr	r5, [r0, #16]
 464 008c 02FB1544 		mls	r4, r2, r5, r4
 486:Drivers/lvgl/src/draw/sw/lv_draw_sw_transform.c ****         *yout = ((t->sinma * xin + t->cosma * yin) >> 2) + (t->pivot_y_256);
 465              		.loc 1 486 58 view .LVU153
 466 0090 056A     		ldr	r5, [r0, #32]
 467 0092 05EBA404 		add	r4, r5, r4, asr #2
 486:Drivers/lvgl/src/draw/sw/lv_draw_sw_transform.c ****         *yout = ((t->sinma * xin + t->cosma * yin) >> 2) + (t->pivot_y_256);
 468              		.loc 1 486 15 view .LVU154
 469 0096 1C60     		str	r4, [r3]
ARM GAS  /var/folders/0z/tsy30v1j4xl4_7kw94k978ww0000gn/T//ccBWD9YH.s 			page 19


 487:Drivers/lvgl/src/draw/sw/lv_draw_sw_transform.c ****     }
 470              		.loc 1 487 9 is_stmt 1 view .LVU155
 487:Drivers/lvgl/src/draw/sw/lv_draw_sw_transform.c ****     }
 471              		.loc 1 487 20 is_stmt 0 view .LVU156
 472 0098 0469     		ldr	r4, [r0, #16]
 487:Drivers/lvgl/src/draw/sw/lv_draw_sw_transform.c ****     }
 473              		.loc 1 487 37 view .LVU157
 474 009a 4369     		ldr	r3, [r0, #20]
 475              	.LVL53:
 487:Drivers/lvgl/src/draw/sw/lv_draw_sw_transform.c ****     }
 476              		.loc 1 487 45 view .LVU158
 477 009c 02FB03F3 		mul	r3, r2, r3
 487:Drivers/lvgl/src/draw/sw/lv_draw_sw_transform.c ****     }
 478              		.loc 1 487 34 view .LVU159
 479 00a0 01FB0433 		mla	r3, r1, r4, r3
 487:Drivers/lvgl/src/draw/sw/lv_draw_sw_transform.c ****     }
 480              		.loc 1 487 62 view .LVU160
 481 00a4 426A     		ldr	r2, [r0, #36]
 482              	.LVL54:
 487:Drivers/lvgl/src/draw/sw/lv_draw_sw_transform.c ****     }
 483              		.loc 1 487 58 view .LVU161
 484 00a6 02EBA303 		add	r3, r2, r3, asr #2
 487:Drivers/lvgl/src/draw/sw/lv_draw_sw_transform.c ****     }
 485              		.loc 1 487 15 view .LVU162
 486 00aa 029A     		ldr	r2, [sp, #8]
 487 00ac 1360     		str	r3, [r2]
 488 00ae C2E7     		b	.L17
 489              		.cfi_endproc
 490              	.LFE166:
 492              		.section	.text.rgb_no_aa,"ax",%progbits
 493              		.align	1
 494              		.syntax unified
 495              		.thumb
 496              		.thumb_func
 498              	rgb_no_aa:
 499              	.LVL55:
 500              	.LFB162:
 163:Drivers/lvgl/src/draw/sw/lv_draw_sw_transform.c ****     int32_t xs_ups_start = xs_ups;
 501              		.loc 1 163 1 is_stmt 1 view -0
 502              		.cfi_startproc
 503              		@ args = 32, pretend = 0, frame = 16
 504              		@ frame_needed = 0, uses_anonymous_args = 0
 163:Drivers/lvgl/src/draw/sw/lv_draw_sw_transform.c ****     int32_t xs_ups_start = xs_ups;
 505              		.loc 1 163 1 is_stmt 0 view .LVU164
 506 0000 2DE9F04F 		push	{r4, r5, r6, r7, r8, r9, r10, fp, lr}
 507              		.cfi_def_cfa_offset 36
 508              		.cfi_offset 4, -36
 509              		.cfi_offset 5, -32
 510              		.cfi_offset 6, -28
 511              		.cfi_offset 7, -24
 512              		.cfi_offset 8, -20
 513              		.cfi_offset 9, -16
 514              		.cfi_offset 10, -12
 515              		.cfi_offset 11, -8
 516              		.cfi_offset 14, -4
 517 0004 85B0     		sub	sp, sp, #20
 518              		.cfi_def_cfa_offset 56
ARM GAS  /var/folders/0z/tsy30v1j4xl4_7kw94k978ww0000gn/T//ccBWD9YH.s 			page 20


 519 0006 0290     		str	r0, [sp, #8]
 520 0008 8B46     		mov	fp, r1
 521 000a 0192     		str	r2, [sp, #4]
 522 000c 0393     		str	r3, [sp, #12]
 523 000e DDF838A0 		ldr	r10, [sp, #56]
 524 0012 DDF83C90 		ldr	r9, [sp, #60]
 525 0016 DDF84080 		ldr	r8, [sp, #64]
 526 001a 119F     		ldr	r7, [sp, #68]
 527 001c 129C     		ldr	r4, [sp, #72]
 528 001e 149D     		ldr	r5, [sp, #80]
 529 0020 9DF85460 		ldrb	r6, [sp, #84]	@ zero_extendqisi2
 164:Drivers/lvgl/src/draw/sw/lv_draw_sw_transform.c ****     int32_t ys_ups_start = ys_ups;
 530              		.loc 1 164 5 is_stmt 1 view .LVU165
 531              	.LVL56:
 165:Drivers/lvgl/src/draw/sw/lv_draw_sw_transform.c ****     lv_disp_t * d = _lv_refr_get_disp_refreshing();
 532              		.loc 1 165 5 view .LVU166
 166:Drivers/lvgl/src/draw/sw/lv_draw_sw_transform.c ****     lv_color_t ck = d->driver->color_chroma_key;
 533              		.loc 1 166 5 view .LVU167
 166:Drivers/lvgl/src/draw/sw/lv_draw_sw_transform.c ****     lv_color_t ck = d->driver->color_chroma_key;
 534              		.loc 1 166 21 is_stmt 0 view .LVU168
 535 0024 FFF7FEFF 		bl	_lv_refr_get_disp_refreshing
 536              	.LVL57:
 167:Drivers/lvgl/src/draw/sw/lv_draw_sw_transform.c **** 
 537              		.loc 1 167 5 is_stmt 1 view .LVU169
 167:Drivers/lvgl/src/draw/sw/lv_draw_sw_transform.c **** 
 538              		.loc 1 167 22 is_stmt 0 view .LVU170
 539 0028 0368     		ldr	r3, [r0]
 167:Drivers/lvgl/src/draw/sw/lv_draw_sw_transform.c **** 
 540              		.loc 1 167 16 view .LVU171
 541 002a 1B8F     		ldrh	r3, [r3, #56]
 542              	.LVL58:
 167:Drivers/lvgl/src/draw/sw/lv_draw_sw_transform.c **** 
 543              		.loc 1 167 16 view .LVU172
 544 002c ADF80230 		strh	r3, [sp, #2]	@ movhi
 169:Drivers/lvgl/src/draw/sw/lv_draw_sw_transform.c **** 
 545              		.loc 1 169 5 is_stmt 1 view .LVU173
 546 0030 2146     		mov	r1, r4
 547 0032 2846     		mov	r0, r5
 548              	.LVL59:
 169:Drivers/lvgl/src/draw/sw/lv_draw_sw_transform.c **** 
 549              		.loc 1 169 5 is_stmt 0 view .LVU174
 550 0034 FFF7FEFF 		bl	lv_memset_ff
 551              	.LVL60:
 171:Drivers/lvgl/src/draw/sw/lv_draw_sw_transform.c ****     for(x = 0; x < x_end; x++) {
 552              		.loc 1 171 5 is_stmt 1 view .LVU175
 172:Drivers/lvgl/src/draw/sw/lv_draw_sw_transform.c ****         xs_ups = xs_ups_start + ((xs_step * x) >> 8);
 553              		.loc 1 172 5 view .LVU176
 172:Drivers/lvgl/src/draw/sw/lv_draw_sw_transform.c ****         xs_ups = xs_ups_start + ((xs_step * x) >> 8);
 554              		.loc 1 172 11 is_stmt 0 view .LVU177
 555 0038 0023     		movs	r3, #0
 556 003a DDF804C0 		ldr	ip, [sp, #4]
 557 003e DDF84CE0 		ldr	lr, [sp, #76]
 172:Drivers/lvgl/src/draw/sw/lv_draw_sw_transform.c ****         xs_ups = xs_ups_start + ((xs_step * x) >> 8);
 558              		.loc 1 172 5 view .LVU178
 559 0042 05E0     		b	.L26
 560              	.LVL61:
 561              	.L27:
ARM GAS  /var/folders/0z/tsy30v1j4xl4_7kw94k978ww0000gn/T//ccBWD9YH.s 			page 21


 562              	.LBB13:
 179:Drivers/lvgl/src/draw/sw/lv_draw_sw_transform.c ****         }
 563              		.loc 1 179 13 is_stmt 1 view .LVU179
 179:Drivers/lvgl/src/draw/sw/lv_draw_sw_transform.c ****         }
 564              		.loc 1 179 21 is_stmt 0 view .LVU180
 565 0044 0022     		movs	r2, #0
 566              	.LVL62:
 179:Drivers/lvgl/src/draw/sw/lv_draw_sw_transform.c ****         }
 567              		.loc 1 179 21 view .LVU181
 568 0046 EA54     		strb	r2, [r5, r3]
 569              	.LVL63:
 570              	.L29:
 197:Drivers/lvgl/src/draw/sw/lv_draw_sw_transform.c ****             abuf[x] = 0x00;
 571              		.loc 1 197 9 is_stmt 1 view .LVU182
 197:Drivers/lvgl/src/draw/sw/lv_draw_sw_transform.c ****             abuf[x] = 0x00;
 572              		.loc 1 197 11 is_stmt 0 view .LVU183
 573 0048 062E     		cmp	r6, #6
 574 004a 1DD0     		beq	.L33
 575              	.L30:
 576              	.LBE13:
 172:Drivers/lvgl/src/draw/sw/lv_draw_sw_transform.c ****         xs_ups = xs_ups_start + ((xs_step * x) >> 8);
 577              		.loc 1 172 28 is_stmt 1 discriminator 2 view .LVU184
 578 004c 0133     		adds	r3, r3, #1
 579              	.LVL64:
 172:Drivers/lvgl/src/draw/sw/lv_draw_sw_transform.c ****         xs_ups = xs_ups_start + ((xs_step * x) >> 8);
 580              		.loc 1 172 28 is_stmt 0 discriminator 2 view .LVU185
 581 004e 1BB2     		sxth	r3, r3
 582              	.LVL65:
 583              	.L26:
 172:Drivers/lvgl/src/draw/sw/lv_draw_sw_transform.c ****         xs_ups = xs_ups_start + ((xs_step * x) >> 8);
 584              		.loc 1 172 18 is_stmt 1 discriminator 1 view .LVU186
 585 0050 A342     		cmp	r3, r4
 586 0052 22DA     		bge	.L34
 587              	.LBB15:
 173:Drivers/lvgl/src/draw/sw/lv_draw_sw_transform.c ****         ys_ups = ys_ups_start + ((ys_step * x) >> 8);
 588              		.loc 1 173 9 view .LVU187
 173:Drivers/lvgl/src/draw/sw/lv_draw_sw_transform.c ****         ys_ups = ys_ups_start + ((ys_step * x) >> 8);
 589              		.loc 1 173 43 is_stmt 0 view .LVU188
 590 0054 08FB03F2 		mul	r2, r8, r3
 173:Drivers/lvgl/src/draw/sw/lv_draw_sw_transform.c ****         ys_ups = ys_ups_start + ((ys_step * x) >> 8);
 591              		.loc 1 173 16 view .LVU189
 592 0058 0AEB2222 		add	r2, r10, r2, asr #8
 593              	.LVL66:
 174:Drivers/lvgl/src/draw/sw/lv_draw_sw_transform.c **** 
 594              		.loc 1 174 9 is_stmt 1 view .LVU190
 174:Drivers/lvgl/src/draw/sw/lv_draw_sw_transform.c **** 
 595              		.loc 1 174 43 is_stmt 0 view .LVU191
 596 005c 07FB03F1 		mul	r1, r7, r3
 174:Drivers/lvgl/src/draw/sw/lv_draw_sw_transform.c **** 
 597              		.loc 1 174 16 view .LVU192
 598 0060 09EB2121 		add	r1, r9, r1, asr #8
 599              	.LVL67:
 176:Drivers/lvgl/src/draw/sw/lv_draw_sw_transform.c ****         int32_t ys_int = ys_ups >> 8;
 600              		.loc 1 176 9 is_stmt 1 view .LVU193
 177:Drivers/lvgl/src/draw/sw/lv_draw_sw_transform.c ****         if(xs_int < 0 || xs_int >= src_w || ys_int < 0 || ys_int >= src_h) {
 601              		.loc 1 177 9 view .LVU194
 177:Drivers/lvgl/src/draw/sw/lv_draw_sw_transform.c ****         if(xs_int < 0 || xs_int >= src_w || ys_int < 0 || ys_int >= src_h) {
ARM GAS  /var/folders/0z/tsy30v1j4xl4_7kw94k978ww0000gn/T//ccBWD9YH.s 			page 22


 602              		.loc 1 177 17 is_stmt 0 view .LVU195
 603 0064 0912     		asrs	r1, r1, #8
 604              	.LVL68:
 178:Drivers/lvgl/src/draw/sw/lv_draw_sw_transform.c ****             abuf[x] = 0x00;
 605              		.loc 1 178 9 is_stmt 1 view .LVU196
 178:Drivers/lvgl/src/draw/sw/lv_draw_sw_transform.c ****             abuf[x] = 0x00;
 606              		.loc 1 178 11 is_stmt 0 view .LVU197
 607 0066 1212     		asrs	r2, r2, #8
 608              	.LVL69:
 178:Drivers/lvgl/src/draw/sw/lv_draw_sw_transform.c ****             abuf[x] = 0x00;
 609              		.loc 1 178 11 view .LVU198
 610 0068 ECD4     		bmi	.L27
 178:Drivers/lvgl/src/draw/sw/lv_draw_sw_transform.c ****             abuf[x] = 0x00;
 611              		.loc 1 178 23 discriminator 1 view .LVU199
 612 006a 9345     		cmp	fp, r2
 613 006c EADD     		ble	.L27
 178:Drivers/lvgl/src/draw/sw/lv_draw_sw_transform.c ****             abuf[x] = 0x00;
 614              		.loc 1 178 42 discriminator 2 view .LVU200
 615 006e 0029     		cmp	r1, #0
 616 0070 E8DB     		blt	.L27
 178:Drivers/lvgl/src/draw/sw/lv_draw_sw_transform.c ****             abuf[x] = 0x00;
 617              		.loc 1 178 56 discriminator 3 view .LVU201
 618 0072 8C45     		cmp	ip, r1
 619 0074 E6DD     		ble	.L27
 620              	.LBB14:
 188:Drivers/lvgl/src/draw/sw/lv_draw_sw_transform.c ****             src_tmp += ys_int * src_stride + xs_int;
 621              		.loc 1 188 13 is_stmt 1 view .LVU202
 622              	.LVL70:
 189:Drivers/lvgl/src/draw/sw/lv_draw_sw_transform.c ****             cbuf[x] = *src_tmp;
 623              		.loc 1 189 13 view .LVU203
 189:Drivers/lvgl/src/draw/sw/lv_draw_sw_transform.c ****             cbuf[x] = *src_tmp;
 624              		.loc 1 189 44 is_stmt 0 view .LVU204
 625 0076 0398     		ldr	r0, [sp, #12]
 626 0078 01FB0022 		mla	r2, r1, r0, r2
 627              	.LVL71:
 190:Drivers/lvgl/src/draw/sw/lv_draw_sw_transform.c **** #elif LV_COLOR_DEPTH == 32
 628              		.loc 1 190 13 is_stmt 1 view .LVU205
 190:Drivers/lvgl/src/draw/sw/lv_draw_sw_transform.c **** #elif LV_COLOR_DEPTH == 32
 629              		.loc 1 190 21 is_stmt 0 view .LVU206
 630 007c 0299     		ldr	r1, [sp, #8]
 631              	.LVL72:
 190:Drivers/lvgl/src/draw/sw/lv_draw_sw_transform.c **** #elif LV_COLOR_DEPTH == 32
 632              		.loc 1 190 21 view .LVU207
 633 007e 31F81220 		ldrh	r2, [r1, r2, lsl #1]
 634              	.LVL73:
 190:Drivers/lvgl/src/draw/sw/lv_draw_sw_transform.c **** #elif LV_COLOR_DEPTH == 32
 635              		.loc 1 190 21 view .LVU208
 636 0082 2EF81320 		strh	r2, [lr, r3, lsl #1]	@ movhi
 637 0086 DFE7     		b	.L29
 638              	.LVL74:
 639              	.L33:
 190:Drivers/lvgl/src/draw/sw/lv_draw_sw_transform.c **** #elif LV_COLOR_DEPTH == 32
 640              		.loc 1 190 21 view .LVU209
 641              	.LBE14:
 197:Drivers/lvgl/src/draw/sw/lv_draw_sw_transform.c ****             abuf[x] = 0x00;
 642              		.loc 1 197 62 discriminator 1 view .LVU210
 643 0088 3EF81310 		ldrh	r1, [lr, r3, lsl #1]
ARM GAS  /var/folders/0z/tsy30v1j4xl4_7kw94k978ww0000gn/T//ccBWD9YH.s 			page 23


 197:Drivers/lvgl/src/draw/sw/lv_draw_sw_transform.c ****             abuf[x] = 0x00;
 644              		.loc 1 197 73 discriminator 1 view .LVU211
 645 008c BDF80220 		ldrh	r2, [sp, #2]
 197:Drivers/lvgl/src/draw/sw/lv_draw_sw_transform.c ****             abuf[x] = 0x00;
 646              		.loc 1 197 52 discriminator 1 view .LVU212
 647 0090 9142     		cmp	r1, r2
 648 0092 DBD1     		bne	.L30
 198:Drivers/lvgl/src/draw/sw/lv_draw_sw_transform.c ****         }
 649              		.loc 1 198 13 is_stmt 1 view .LVU213
 198:Drivers/lvgl/src/draw/sw/lv_draw_sw_transform.c ****         }
 650              		.loc 1 198 21 is_stmt 0 view .LVU214
 651 0094 0022     		movs	r2, #0
 652 0096 EA54     		strb	r2, [r5, r3]
 653 0098 D8E7     		b	.L30
 654              	.LVL75:
 655              	.L34:
 198:Drivers/lvgl/src/draw/sw/lv_draw_sw_transform.c ****         }
 656              		.loc 1 198 21 view .LVU215
 657              	.LBE15:
 201:Drivers/lvgl/src/draw/sw/lv_draw_sw_transform.c **** 
 658              		.loc 1 201 1 view .LVU216
 659 009a 05B0     		add	sp, sp, #20
 660              		.cfi_def_cfa_offset 36
 661              		@ sp needed
 662 009c BDE8F08F 		pop	{r4, r5, r6, r7, r8, r9, r10, fp, pc}
 201:Drivers/lvgl/src/draw/sw/lv_draw_sw_transform.c **** 
 663              		.loc 1 201 1 view .LVU217
 664              		.cfi_endproc
 665              	.LFE162:
 667              		.section	.text.argb_and_rgb_aa,"ax",%progbits
 668              		.align	1
 669              		.syntax unified
 670              		.thumb
 671              		.thumb_func
 673              	argb_and_rgb_aa:
 674              	.LVL76:
 675              	.LFB165:
 271:Drivers/lvgl/src/draw/sw/lv_draw_sw_transform.c ****     int32_t xs_ups_start = xs_ups;
 676              		.loc 1 271 1 is_stmt 1 view -0
 677              		.cfi_startproc
 678              		@ args = 32, pretend = 0, frame = 64
 679              		@ frame_needed = 0, uses_anonymous_args = 0
 271:Drivers/lvgl/src/draw/sw/lv_draw_sw_transform.c ****     int32_t xs_ups_start = xs_ups;
 680              		.loc 1 271 1 is_stmt 0 view .LVU219
 681 0000 2DE9F04F 		push	{r4, r5, r6, r7, r8, r9, r10, fp, lr}
 682              		.cfi_def_cfa_offset 36
 683              		.cfi_offset 4, -36
 684              		.cfi_offset 5, -32
 685              		.cfi_offset 6, -28
 686              		.cfi_offset 7, -24
 687              		.cfi_offset 8, -20
 688              		.cfi_offset 9, -16
 689              		.cfi_offset 10, -12
 690              		.cfi_offset 11, -8
 691              		.cfi_offset 14, -4
 692 0004 91B0     		sub	sp, sp, #68
 693              		.cfi_def_cfa_offset 104
ARM GAS  /var/folders/0z/tsy30v1j4xl4_7kw94k978ww0000gn/T//ccBWD9YH.s 			page 24


 694 0006 0290     		str	r0, [sp, #8]
 695 0008 8946     		mov	r9, r1
 696 000a 0192     		str	r2, [sp, #4]
 697 000c 0493     		str	r3, [sp, #16]
 698 000e DDF878A0 		ldr	r10, [sp, #120]
 699 0012 9DF884B0 		ldrb	fp, [sp, #132]	@ zero_extendqisi2
 272:Drivers/lvgl/src/draw/sw/lv_draw_sw_transform.c ****     int32_t ys_ups_start = ys_ups;
 700              		.loc 1 272 5 is_stmt 1 view .LVU220
 701              	.LVL77:
 273:Drivers/lvgl/src/draw/sw/lv_draw_sw_transform.c ****     bool has_alpha;
 702              		.loc 1 273 5 view .LVU221
 274:Drivers/lvgl/src/draw/sw/lv_draw_sw_transform.c ****     int32_t px_size;
 703              		.loc 1 274 5 view .LVU222
 275:Drivers/lvgl/src/draw/sw/lv_draw_sw_transform.c ****     lv_color_t ck = _LV_COLOR_ZERO_INITIALIZER;
 704              		.loc 1 275 5 view .LVU223
 276:Drivers/lvgl/src/draw/sw/lv_draw_sw_transform.c ****     switch(cf) {
 705              		.loc 1 276 5 view .LVU224
 276:Drivers/lvgl/src/draw/sw/lv_draw_sw_transform.c ****     switch(cf) {
 706              		.loc 1 276 16 is_stmt 0 view .LVU225
 707 0016 4FF00003 		mov	r3, #0	@ movhi
 708              	.LVL78:
 276:Drivers/lvgl/src/draw/sw/lv_draw_sw_transform.c ****     switch(cf) {
 709              		.loc 1 276 16 view .LVU226
 710 001a ADF83230 		strh	r3, [sp, #50]	@ movhi
 277:Drivers/lvgl/src/draw/sw/lv_draw_sw_transform.c ****         case LV_IMG_CF_TRUE_COLOR:
 711              		.loc 1 277 5 is_stmt 1 view .LVU227
 712 001e ABF10403 		sub	r3, fp, #4
 713              	.LVL79:
 277:Drivers/lvgl/src/draw/sw/lv_draw_sw_transform.c ****         case LV_IMG_CF_TRUE_COLOR:
 714              		.loc 1 277 5 is_stmt 0 view .LVU228
 715 0022 102B     		cmp	r3, #16
 716 0024 00F2E581 		bhi	.L35
 717 0028 DFE813F0 		tbh	[pc, r3, lsl #1]
 718              	.LVL80:
 719              	.L38:
 720 002c 1100     		.2byte	(.L41-.L38)/2
 721 002e 3000     		.2byte	(.L73-.L38)/2
 722 0030 1600     		.2byte	(.L39-.L38)/2
 723 0032 E301     		.2byte	(.L35-.L38)/2
 724 0034 E301     		.2byte	(.L35-.L38)/2
 725 0036 E301     		.2byte	(.L35-.L38)/2
 726 0038 E301     		.2byte	(.L35-.L38)/2
 727 003a E301     		.2byte	(.L35-.L38)/2
 728 003c E301     		.2byte	(.L35-.L38)/2
 729 003e E301     		.2byte	(.L35-.L38)/2
 730 0040 E301     		.2byte	(.L35-.L38)/2
 731 0042 E301     		.2byte	(.L35-.L38)/2
 732 0044 E301     		.2byte	(.L35-.L38)/2
 733 0046 E301     		.2byte	(.L35-.L38)/2
 734 0048 E301     		.2byte	(.L35-.L38)/2
 735 004a E301     		.2byte	(.L35-.L38)/2
 736 004c 2B00     		.2byte	(.L37-.L38)/2
 737              		.p2align 1
 738              	.L41:
 277:Drivers/lvgl/src/draw/sw/lv_draw_sw_transform.c ****         case LV_IMG_CF_TRUE_COLOR:
 739              		.loc 1 277 5 view .LVU229
 740 004e 0223     		movs	r3, #2
ARM GAS  /var/folders/0z/tsy30v1j4xl4_7kw94k978ww0000gn/T//ccBWD9YH.s 			page 25


 741 0050 0993     		str	r3, [sp, #36]
 742 0052 0023     		movs	r3, #0
 743 0054 0D93     		str	r3, [sp, #52]
 744 0056 09E0     		b	.L40
 745              	.L39:
 746              	.LBB28:
 287:Drivers/lvgl/src/draw/sw/lv_draw_sw_transform.c ****                 px_size = sizeof(lv_color_t);
 747              		.loc 1 287 17 is_stmt 1 view .LVU230
 748              	.LVL81:
 288:Drivers/lvgl/src/draw/sw/lv_draw_sw_transform.c ****                 lv_disp_t * d = _lv_refr_get_disp_refreshing();
 749              		.loc 1 288 17 view .LVU231
 289:Drivers/lvgl/src/draw/sw/lv_draw_sw_transform.c ****                 ck = d->driver->color_chroma_key;
 750              		.loc 1 289 17 view .LVU232
 289:Drivers/lvgl/src/draw/sw/lv_draw_sw_transform.c ****                 ck = d->driver->color_chroma_key;
 751              		.loc 1 289 33 is_stmt 0 view .LVU233
 752 0058 FFF7FEFF 		bl	_lv_refr_get_disp_refreshing
 753              	.LVL82:
 290:Drivers/lvgl/src/draw/sw/lv_draw_sw_transform.c ****                 break;
 754              		.loc 1 290 17 is_stmt 1 view .LVU234
 290:Drivers/lvgl/src/draw/sw/lv_draw_sw_transform.c ****                 break;
 755              		.loc 1 290 23 is_stmt 0 view .LVU235
 756 005c 0368     		ldr	r3, [r0]
 290:Drivers/lvgl/src/draw/sw/lv_draw_sw_transform.c ****                 break;
 757              		.loc 1 290 20 view .LVU236
 758 005e 1B8F     		ldrh	r3, [r3, #56]
 759              	.LVL83:
 290:Drivers/lvgl/src/draw/sw/lv_draw_sw_transform.c ****                 break;
 760              		.loc 1 290 20 view .LVU237
 761 0060 ADF83230 		strh	r3, [sp, #50]	@ movhi
 291:Drivers/lvgl/src/draw/sw/lv_draw_sw_transform.c ****             }
 762              		.loc 1 291 17 is_stmt 1 view .LVU238
 288:Drivers/lvgl/src/draw/sw/lv_draw_sw_transform.c ****                 lv_disp_t * d = _lv_refr_get_disp_refreshing();
 763              		.loc 1 288 25 is_stmt 0 view .LVU239
 764 0064 0223     		movs	r3, #2
 765              	.LVL84:
 288:Drivers/lvgl/src/draw/sw/lv_draw_sw_transform.c ****                 lv_disp_t * d = _lv_refr_get_disp_refreshing();
 766              		.loc 1 288 25 view .LVU240
 767 0066 0993     		str	r3, [sp, #36]
 287:Drivers/lvgl/src/draw/sw/lv_draw_sw_transform.c ****                 px_size = sizeof(lv_color_t);
 768              		.loc 1 287 27 view .LVU241
 769 0068 0123     		movs	r3, #1
 770 006a 0D93     		str	r3, [sp, #52]
 771              	.LVL85:
 772              	.L40:
 287:Drivers/lvgl/src/draw/sw/lv_draw_sw_transform.c ****                 px_size = sizeof(lv_color_t);
 773              		.loc 1 287 27 view .LVU242
 774              	.LBE28:
 303:Drivers/lvgl/src/draw/sw/lv_draw_sw_transform.c ****     for(x = 0; x < x_end; x++) {
 775              		.loc 1 303 5 is_stmt 1 view .LVU243
 304:Drivers/lvgl/src/draw/sw/lv_draw_sw_transform.c ****         xs_ups = xs_ups_start + ((xs_step * x) >> 8);
 776              		.loc 1 304 5 view .LVU244
 304:Drivers/lvgl/src/draw/sw/lv_draw_sw_transform.c ****         xs_ups = xs_ups_start + ((xs_step * x) >> 8);
 777              		.loc 1 304 11 is_stmt 0 view .LVU245
 778 006c 0023     		movs	r3, #0
 779 006e DDF86880 		ldr	r8, [sp, #104]
 780 0072 DDF86CC0 		ldr	ip, [sp, #108]
 781 0076 1D9C     		ldr	r4, [sp, #116]
ARM GAS  /var/folders/0z/tsy30v1j4xl4_7kw94k978ww0000gn/T//ccBWD9YH.s 			page 26


 782 0078 CDF81CB0 		str	fp, [sp, #28]
 783 007c DDF870B0 		ldr	fp, [sp, #112]
 304:Drivers/lvgl/src/draw/sw/lv_draw_sw_transform.c ****         xs_ups = xs_ups_start + ((xs_step * x) >> 8);
 784              		.loc 1 304 5 view .LVU246
 785 0080 0EE0     		b	.L42
 786              	.LVL86:
 787              	.L37:
 295:Drivers/lvgl/src/draw/sw/lv_draw_sw_transform.c ****             px_size = sizeof(lv_color_t);
 788              		.loc 1 295 13 is_stmt 1 view .LVU247
 296:Drivers/lvgl/src/draw/sw/lv_draw_sw_transform.c ****             break;
 789              		.loc 1 296 13 view .LVU248
 297:Drivers/lvgl/src/draw/sw/lv_draw_sw_transform.c **** #endif
 790              		.loc 1 297 13 view .LVU249
 296:Drivers/lvgl/src/draw/sw/lv_draw_sw_transform.c ****             break;
 791              		.loc 1 296 21 is_stmt 0 view .LVU250
 792 0082 0223     		movs	r3, #2
 793 0084 0993     		str	r3, [sp, #36]
 295:Drivers/lvgl/src/draw/sw/lv_draw_sw_transform.c ****             px_size = sizeof(lv_color_t);
 794              		.loc 1 295 23 view .LVU251
 795 0086 0123     		movs	r3, #1
 796 0088 0D93     		str	r3, [sp, #52]
 297:Drivers/lvgl/src/draw/sw/lv_draw_sw_transform.c **** #endif
 797              		.loc 1 297 13 view .LVU252
 798 008a EFE7     		b	.L40
 799              	.LVL87:
 800              	.L73:
 284:Drivers/lvgl/src/draw/sw/lv_draw_sw_transform.c ****             break;
 801              		.loc 1 284 21 view .LVU253
 802 008c 0323     		movs	r3, #3
 803 008e 0993     		str	r3, [sp, #36]
 283:Drivers/lvgl/src/draw/sw/lv_draw_sw_transform.c ****             px_size = LV_IMG_PX_SIZE_ALPHA_BYTE;
 804              		.loc 1 283 23 view .LVU254
 805 0090 0123     		movs	r3, #1
 806 0092 0D93     		str	r3, [sp, #52]
 807 0094 EAE7     		b	.L40
 808              	.LVL88:
 809              	.L43:
 810              	.LBB29:
 313:Drivers/lvgl/src/draw/sw/lv_draw_sw_transform.c ****             continue;
 811              		.loc 1 313 13 is_stmt 1 discriminator 7 view .LVU255
 313:Drivers/lvgl/src/draw/sw/lv_draw_sw_transform.c ****             continue;
 812              		.loc 1 313 21 is_stmt 0 discriminator 7 view .LVU256
 813 0096 0022     		movs	r2, #0
 814              	.LVL89:
 313:Drivers/lvgl/src/draw/sw/lv_draw_sw_transform.c ****             continue;
 815              		.loc 1 313 21 discriminator 7 view .LVU257
 816 0098 2099     		ldr	r1, [sp, #128]
 817              	.LVL90:
 313:Drivers/lvgl/src/draw/sw/lv_draw_sw_transform.c ****             continue;
 818              		.loc 1 313 21 discriminator 7 view .LVU258
 819 009a CA54     		strb	r2, [r1, r3]
 314:Drivers/lvgl/src/draw/sw/lv_draw_sw_transform.c ****         }
 820              		.loc 1 314 13 is_stmt 1 discriminator 7 view .LVU259
 821              	.LVL91:
 822              	.L45:
 314:Drivers/lvgl/src/draw/sw/lv_draw_sw_transform.c ****         }
 823              		.loc 1 314 13 is_stmt 0 discriminator 7 view .LVU260
ARM GAS  /var/folders/0z/tsy30v1j4xl4_7kw94k978ww0000gn/T//ccBWD9YH.s 			page 27


 824              	.LBE29:
 304:Drivers/lvgl/src/draw/sw/lv_draw_sw_transform.c ****         xs_ups = xs_ups_start + ((xs_step * x) >> 8);
 825              		.loc 1 304 28 is_stmt 1 discriminator 2 view .LVU261
 826 009c 0133     		adds	r3, r3, #1
 827              	.LVL92:
 304:Drivers/lvgl/src/draw/sw/lv_draw_sw_transform.c ****         xs_ups = xs_ups_start + ((xs_step * x) >> 8);
 828              		.loc 1 304 28 is_stmt 0 discriminator 2 view .LVU262
 829 009e 1BB2     		sxth	r3, r3
 830              	.LVL93:
 831              	.L42:
 304:Drivers/lvgl/src/draw/sw/lv_draw_sw_transform.c ****         xs_ups = xs_ups_start + ((xs_step * x) >> 8);
 832              		.loc 1 304 18 is_stmt 1 discriminator 1 view .LVU263
 833 00a0 5345     		cmp	r3, r10
 834 00a2 80F2A681 		bge	.L35
 835              	.LBB44:
 305:Drivers/lvgl/src/draw/sw/lv_draw_sw_transform.c ****         ys_ups = ys_ups_start + ((ys_step * x) >> 8);
 836              		.loc 1 305 9 view .LVU264
 305:Drivers/lvgl/src/draw/sw/lv_draw_sw_transform.c ****         ys_ups = ys_ups_start + ((ys_step * x) >> 8);
 837              		.loc 1 305 43 is_stmt 0 view .LVU265
 838 00a6 0BFB03F0 		mul	r0, fp, r3
 305:Drivers/lvgl/src/draw/sw/lv_draw_sw_transform.c ****         ys_ups = ys_ups_start + ((ys_step * x) >> 8);
 839              		.loc 1 305 16 view .LVU266
 840 00aa 08EB2020 		add	r0, r8, r0, asr #8
 841              	.LVL94:
 306:Drivers/lvgl/src/draw/sw/lv_draw_sw_transform.c **** 
 842              		.loc 1 306 9 is_stmt 1 view .LVU267
 306:Drivers/lvgl/src/draw/sw/lv_draw_sw_transform.c **** 
 843              		.loc 1 306 43 is_stmt 0 view .LVU268
 844 00ae 04FB03F6 		mul	r6, r4, r3
 306:Drivers/lvgl/src/draw/sw/lv_draw_sw_transform.c **** 
 845              		.loc 1 306 16 view .LVU269
 846 00b2 0CEB2626 		add	r6, ip, r6, asr #8
 847              	.LVL95:
 308:Drivers/lvgl/src/draw/sw/lv_draw_sw_transform.c ****         int32_t ys_int = ys_ups >> 8;
 848              		.loc 1 308 9 is_stmt 1 view .LVU270
 309:Drivers/lvgl/src/draw/sw/lv_draw_sw_transform.c **** 
 849              		.loc 1 309 9 view .LVU271
 309:Drivers/lvgl/src/draw/sw/lv_draw_sw_transform.c **** 
 850              		.loc 1 309 17 is_stmt 0 view .LVU272
 851 00b6 3112     		asrs	r1, r6, #8
 852              	.LVL96:
 312:Drivers/lvgl/src/draw/sw/lv_draw_sw_transform.c ****             abuf[x] = 0x00;
 853              		.loc 1 312 9 is_stmt 1 view .LVU273
 312:Drivers/lvgl/src/draw/sw/lv_draw_sw_transform.c ****             abuf[x] = 0x00;
 854              		.loc 1 312 11 is_stmt 0 view .LVU274
 855 00b8 0212     		asrs	r2, r0, #8
 856              	.LVL97:
 312:Drivers/lvgl/src/draw/sw/lv_draw_sw_transform.c ****             abuf[x] = 0x00;
 857              		.loc 1 312 11 view .LVU275
 858 00ba ECD4     		bmi	.L43
 312:Drivers/lvgl/src/draw/sw/lv_draw_sw_transform.c ****             abuf[x] = 0x00;
 859              		.loc 1 312 23 discriminator 2 view .LVU276
 860 00bc 9145     		cmp	r9, r2
 861 00be EADD     		ble	.L43
 312:Drivers/lvgl/src/draw/sw/lv_draw_sw_transform.c ****             abuf[x] = 0x00;
 862              		.loc 1 312 42 discriminator 4 view .LVU277
 863 00c0 0029     		cmp	r1, #0
ARM GAS  /var/folders/0z/tsy30v1j4xl4_7kw94k978ww0000gn/T//ccBWD9YH.s 			page 28


 864 00c2 E8DB     		blt	.L43
 312:Drivers/lvgl/src/draw/sw/lv_draw_sw_transform.c ****             abuf[x] = 0x00;
 865              		.loc 1 312 56 discriminator 6 view .LVU278
 866 00c4 019D     		ldr	r5, [sp, #4]
 867              	.LVL98:
 312:Drivers/lvgl/src/draw/sw/lv_draw_sw_transform.c ****             abuf[x] = 0x00;
 868              		.loc 1 312 56 discriminator 6 view .LVU279
 869 00c6 8D42     		cmp	r5, r1
 870 00c8 E5DD     		ble	.L43
 319:Drivers/lvgl/src/draw/sw/lv_draw_sw_transform.c ****         int32_t ys_fract = ys_ups & 0xFF;
 871              		.loc 1 319 9 is_stmt 1 view .LVU280
 319:Drivers/lvgl/src/draw/sw/lv_draw_sw_transform.c ****         int32_t ys_fract = ys_ups & 0xFF;
 872              		.loc 1 319 17 is_stmt 0 view .LVU281
 873 00ca C5B2     		uxtb	r5, r0
 874              	.LVL99:
 320:Drivers/lvgl/src/draw/sw/lv_draw_sw_transform.c **** 
 875              		.loc 1 320 9 is_stmt 1 view .LVU282
 320:Drivers/lvgl/src/draw/sw/lv_draw_sw_transform.c **** 
 876              		.loc 1 320 17 is_stmt 0 view .LVU283
 877 00cc F7B2     		uxtb	r7, r6
 878              	.LVL100:
 322:Drivers/lvgl/src/draw/sw/lv_draw_sw_transform.c ****         int32_t y_next;
 879              		.loc 1 322 9 is_stmt 1 view .LVU284
 323:Drivers/lvgl/src/draw/sw/lv_draw_sw_transform.c ****         if(xs_fract < 0x80) {
 880              		.loc 1 323 9 view .LVU285
 324:Drivers/lvgl/src/draw/sw/lv_draw_sw_transform.c ****             x_next = -1;
 881              		.loc 1 324 9 view .LVU286
 324:Drivers/lvgl/src/draw/sw/lv_draw_sw_transform.c ****             x_next = -1;
 882              		.loc 1 324 11 is_stmt 0 view .LVU287
 883 00ce 10F0800F 		tst	r0, #128
 884 00d2 4BD1     		bne	.L46
 325:Drivers/lvgl/src/draw/sw/lv_draw_sw_transform.c ****             xs_fract = (0x7F - xs_fract) * 2;
 885              		.loc 1 325 13 is_stmt 1 view .LVU288
 886              	.LVL101:
 326:Drivers/lvgl/src/draw/sw/lv_draw_sw_transform.c ****         }
 887              		.loc 1 326 13 view .LVU289
 326:Drivers/lvgl/src/draw/sw/lv_draw_sw_transform.c ****         }
 888              		.loc 1 326 30 is_stmt 0 view .LVU290
 889 00d4 C5F17F05 		rsb	r5, r5, #127
 890              	.LVL102:
 326:Drivers/lvgl/src/draw/sw/lv_draw_sw_transform.c ****         }
 891              		.loc 1 326 22 view .LVU291
 892 00d8 6800     		lsls	r0, r5, #1
 893              	.LVL103:
 326:Drivers/lvgl/src/draw/sw/lv_draw_sw_transform.c ****         }
 894              		.loc 1 326 22 view .LVU292
 895 00da 0890     		str	r0, [sp, #32]
 896              	.LVL104:
 325:Drivers/lvgl/src/draw/sw/lv_draw_sw_transform.c ****             xs_fract = (0x7F - xs_fract) * 2;
 897              		.loc 1 325 20 view .LVU293
 898 00dc 4FF0FF35 		mov	r5, #-1
 899              	.LVL105:
 900              	.L47:
 332:Drivers/lvgl/src/draw/sw/lv_draw_sw_transform.c ****             y_next = -1;
 901              		.loc 1 332 9 is_stmt 1 view .LVU294
 332:Drivers/lvgl/src/draw/sw/lv_draw_sw_transform.c ****             y_next = -1;
 902              		.loc 1 332 11 is_stmt 0 view .LVU295
ARM GAS  /var/folders/0z/tsy30v1j4xl4_7kw94k978ww0000gn/T//ccBWD9YH.s 			page 29


 903 00e0 16F0800F 		tst	r6, #128
 904 00e4 47D1     		bne	.L48
 333:Drivers/lvgl/src/draw/sw/lv_draw_sw_transform.c ****             ys_fract = (0x7F - ys_fract) * 2;
 905              		.loc 1 333 13 is_stmt 1 view .LVU296
 906              	.LVL106:
 334:Drivers/lvgl/src/draw/sw/lv_draw_sw_transform.c ****         }
 907              		.loc 1 334 13 view .LVU297
 334:Drivers/lvgl/src/draw/sw/lv_draw_sw_transform.c ****         }
 908              		.loc 1 334 30 is_stmt 0 view .LVU298
 909 00e6 C7F17F07 		rsb	r7, r7, #127
 910              	.LVL107:
 334:Drivers/lvgl/src/draw/sw/lv_draw_sw_transform.c ****         }
 911              		.loc 1 334 22 view .LVU299
 912 00ea 7800     		lsls	r0, r7, #1
 913 00ec 0A90     		str	r0, [sp, #40]
 914              	.LVL108:
 333:Drivers/lvgl/src/draw/sw/lv_draw_sw_transform.c ****             ys_fract = (0x7F - ys_fract) * 2;
 915              		.loc 1 333 20 view .LVU300
 916 00ee 4FF0FF30 		mov	r0, #-1
 917              	.LVL109:
 333:Drivers/lvgl/src/draw/sw/lv_draw_sw_transform.c ****             ys_fract = (0x7F - ys_fract) * 2;
 918              		.loc 1 333 20 view .LVU301
 919 00f2 0690     		str	r0, [sp, #24]
 920              	.LVL110:
 921              	.L49:
 341:Drivers/lvgl/src/draw/sw/lv_draw_sw_transform.c ****         src_tmp += (ys_int * src_stride * px_size) + xs_int * px_size;
 922              		.loc 1 341 9 is_stmt 1 view .LVU302
 342:Drivers/lvgl/src/draw/sw/lv_draw_sw_transform.c **** 
 923              		.loc 1 342 9 view .LVU303
 342:Drivers/lvgl/src/draw/sw/lv_draw_sw_transform.c **** 
 924              		.loc 1 342 28 is_stmt 0 view .LVU304
 925 00f4 0498     		ldr	r0, [sp, #16]
 926 00f6 01FB00F6 		mul	r6, r1, r0
 927              	.LVL111:
 342:Drivers/lvgl/src/draw/sw/lv_draw_sw_transform.c **** 
 928              		.loc 1 342 28 view .LVU305
 929 00fa 0B96     		str	r6, [sp, #44]
 342:Drivers/lvgl/src/draw/sw/lv_draw_sw_transform.c **** 
 930              		.loc 1 342 61 view .LVU306
 931 00fc 099F     		ldr	r7, [sp, #36]
 932 00fe 02FB07F0 		mul	r0, r2, r7
 342:Drivers/lvgl/src/draw/sw/lv_draw_sw_transform.c **** 
 933              		.loc 1 342 52 view .LVU307
 934 0102 07FB0600 		mla	r0, r7, r6, r0
 342:Drivers/lvgl/src/draw/sw/lv_draw_sw_transform.c **** 
 935              		.loc 1 342 17 view .LVU308
 936 0106 029E     		ldr	r6, [sp, #8]
 937 0108 0644     		add	r6, r6, r0
 938 010a 0396     		str	r6, [sp, #12]
 939              	.LVL112:
 345:Drivers/lvgl/src/draw/sw/lv_draw_sw_transform.c ****            xs_int + x_next <= src_w - 1 &&
 940              		.loc 1 345 9 is_stmt 1 view .LVU309
 345:Drivers/lvgl/src/draw/sw/lv_draw_sw_transform.c ****            xs_int + x_next <= src_w - 1 &&
 941              		.loc 1 345 11 is_stmt 0 view .LVU310
 942 010c 15EB020E 		adds	lr, r5, r2
 943              	.LVL113:
 345:Drivers/lvgl/src/draw/sw/lv_draw_sw_transform.c ****            xs_int + x_next <= src_w - 1 &&
ARM GAS  /var/folders/0z/tsy30v1j4xl4_7kw94k978ww0000gn/T//ccBWD9YH.s 			page 30


 944              		.loc 1 345 11 view .LVU311
 945 0110 00F11881 		bmi	.L50
 345:Drivers/lvgl/src/draw/sw/lv_draw_sw_transform.c ****            xs_int + x_next <= src_w - 1 &&
 946              		.loc 1 345 33 discriminator 1 view .LVU312
 947 0114 F145     		cmp	r9, lr
 948 0116 40F31581 		ble	.L50
 346:Drivers/lvgl/src/draw/sw/lv_draw_sw_transform.c ****            ys_int + y_next >= 0 &&
 949              		.loc 1 346 41 view .LVU313
 950 011a 069E     		ldr	r6, [sp, #24]
 951              	.LVL114:
 346:Drivers/lvgl/src/draw/sw/lv_draw_sw_transform.c ****            ys_int + y_next >= 0 &&
 952              		.loc 1 346 41 view .LVU314
 953 011c 16EB010E 		adds	lr, r6, r1
 954 0120 00F11081 		bmi	.L50
 347:Drivers/lvgl/src/draw/sw/lv_draw_sw_transform.c ****            ys_int + y_next <= src_h - 1) {
 955              		.loc 1 347 33 view .LVU315
 956 0124 019E     		ldr	r6, [sp, #4]
 957 0126 7645     		cmp	r6, lr
 958 0128 40F30C81 		ble	.L50
 959              	.LBB30:
 350:Drivers/lvgl/src/draw/sw/lv_draw_sw_transform.c ****             const uint8_t * px_hor = src_tmp + x_next * px_size;
 960              		.loc 1 350 13 is_stmt 1 view .LVU316
 961              	.LVL115:
 351:Drivers/lvgl/src/draw/sw/lv_draw_sw_transform.c ****             const uint8_t * px_ver = src_tmp + y_next * src_stride * px_size;
 962              		.loc 1 351 13 view .LVU317
 351:Drivers/lvgl/src/draw/sw/lv_draw_sw_transform.c ****             const uint8_t * px_ver = src_tmp + y_next * src_stride * px_size;
 963              		.loc 1 351 55 is_stmt 0 view .LVU318
 964 012c 05FB07F6 		mul	r6, r5, r7
 965 0130 0596     		str	r6, [sp, #20]
 351:Drivers/lvgl/src/draw/sw/lv_draw_sw_transform.c ****             const uint8_t * px_ver = src_tmp + y_next * src_stride * px_size;
 966              		.loc 1 351 29 view .LVU319
 967 0132 0399     		ldr	r1, [sp, #12]
 968              	.LVL116:
 351:Drivers/lvgl/src/draw/sw/lv_draw_sw_transform.c ****             const uint8_t * px_ver = src_tmp + y_next * src_stride * px_size;
 969              		.loc 1 351 29 view .LVU320
 970 0134 0E44     		add	r6, r6, r1
 971 0136 0E96     		str	r6, [sp, #56]
 972              	.LVL117:
 352:Drivers/lvgl/src/draw/sw/lv_draw_sw_transform.c ****             lv_color_t c_base;
 973              		.loc 1 352 13 is_stmt 1 view .LVU321
 352:Drivers/lvgl/src/draw/sw/lv_draw_sw_transform.c ****             lv_color_t c_base;
 974              		.loc 1 352 55 is_stmt 0 view .LVU322
 975 0138 069E     		ldr	r6, [sp, #24]
 976              	.LVL118:
 352:Drivers/lvgl/src/draw/sw/lv_draw_sw_transform.c ****             lv_color_t c_base;
 977              		.loc 1 352 55 view .LVU323
 978 013a 0499     		ldr	r1, [sp, #16]
 979 013c 01FB06F6 		mul	r6, r1, r6
 980 0140 3146     		mov	r1, r6
 352:Drivers/lvgl/src/draw/sw/lv_draw_sw_transform.c ****             lv_color_t c_base;
 981              		.loc 1 352 68 view .LVU324
 982 0142 07FB01F1 		mul	r1, r7, r1
 352:Drivers/lvgl/src/draw/sw/lv_draw_sw_transform.c ****             lv_color_t c_base;
 983              		.loc 1 352 29 view .LVU325
 984 0146 039E     		ldr	r6, [sp, #12]
 985 0148 0E44     		add	r6, r6, r1
 986 014a 0696     		str	r6, [sp, #24]
ARM GAS  /var/folders/0z/tsy30v1j4xl4_7kw94k978ww0000gn/T//ccBWD9YH.s 			page 31


 987              	.LVL119:
 353:Drivers/lvgl/src/draw/sw/lv_draw_sw_transform.c ****             lv_color_t c_ver;
 988              		.loc 1 353 13 is_stmt 1 view .LVU326
 354:Drivers/lvgl/src/draw/sw/lv_draw_sw_transform.c ****             lv_color_t c_hor;
 989              		.loc 1 354 13 view .LVU327
 355:Drivers/lvgl/src/draw/sw/lv_draw_sw_transform.c **** 
 990              		.loc 1 355 13 view .LVU328
 357:Drivers/lvgl/src/draw/sw/lv_draw_sw_transform.c ****                 lv_opa_t a_base;
 991              		.loc 1 357 13 view .LVU329
 357:Drivers/lvgl/src/draw/sw/lv_draw_sw_transform.c ****                 lv_opa_t a_base;
 992              		.loc 1 357 15 is_stmt 0 view .LVU330
 993 014c 0D9E     		ldr	r6, [sp, #52]
 994              	.LVL120:
 357:Drivers/lvgl/src/draw/sw/lv_draw_sw_transform.c ****                 lv_opa_t a_base;
 995              		.loc 1 357 15 view .LVU331
 996 014e 002E     		cmp	r6, #0
 997 0150 7ED0     		beq	.L51
 998              	.LBB31:
 358:Drivers/lvgl/src/draw/sw/lv_draw_sw_transform.c ****                 lv_opa_t a_ver;
 999              		.loc 1 358 17 is_stmt 1 view .LVU332
 359:Drivers/lvgl/src/draw/sw/lv_draw_sw_transform.c ****                 lv_opa_t a_hor;
 1000              		.loc 1 359 17 view .LVU333
 360:Drivers/lvgl/src/draw/sw/lv_draw_sw_transform.c ****                 if(cf == LV_IMG_CF_TRUE_COLOR_ALPHA) {
 1001              		.loc 1 360 17 view .LVU334
 361:Drivers/lvgl/src/draw/sw/lv_draw_sw_transform.c ****                     a_base = px_base[LV_IMG_PX_SIZE_ALPHA_BYTE - 1];
 1002              		.loc 1 361 17 view .LVU335
 361:Drivers/lvgl/src/draw/sw/lv_draw_sw_transform.c ****                     a_base = px_base[LV_IMG_PX_SIZE_ALPHA_BYTE - 1];
 1003              		.loc 1 361 19 is_stmt 0 view .LVU336
 1004 0152 079E     		ldr	r6, [sp, #28]
 1005 0154 052E     		cmp	r6, #5
 1006 0156 14D0     		beq	.L80
 367:Drivers/lvgl/src/draw/sw/lv_draw_sw_transform.c ****                     const lv_opa_t * a_tmp = src + src_stride * src_h * sizeof(lv_color_t);
 1007              		.loc 1 367 22 is_stmt 1 view .LVU337
 367:Drivers/lvgl/src/draw/sw/lv_draw_sw_transform.c ****                     const lv_opa_t * a_tmp = src + src_stride * src_h * sizeof(lv_color_t);
 1008              		.loc 1 367 24 is_stmt 0 view .LVU338
 1009 0158 079E     		ldr	r6, [sp, #28]
 1010 015a 142E     		cmp	r6, #20
 1011 015c 4DD0     		beq	.L81
 374:Drivers/lvgl/src/draw/sw/lv_draw_sw_transform.c ****                     if(((lv_color_t *)px_base)->full == ck.full ||
 1012              		.loc 1 374 22 is_stmt 1 view .LVU339
 374:Drivers/lvgl/src/draw/sw/lv_draw_sw_transform.c ****                     if(((lv_color_t *)px_base)->full == ck.full ||
 1013              		.loc 1 374 24 is_stmt 0 view .LVU340
 1014 015e 079A     		ldr	r2, [sp, #28]
 1015              	.LVL121:
 374:Drivers/lvgl/src/draw/sw/lv_draw_sw_transform.c ****                     if(((lv_color_t *)px_base)->full == ck.full ||
 1016              		.loc 1 374 24 view .LVU341
 1017 0160 062A     		cmp	r2, #6
 1018 0162 5FD0     		beq	.L82
 390:Drivers/lvgl/src/draw/sw/lv_draw_sw_transform.c ****                 }
 1019              		.loc 1 390 27 view .LVU342
 1020 0164 FF26     		movs	r6, #255
 389:Drivers/lvgl/src/draw/sw/lv_draw_sw_transform.c ****                     a_hor = 0xff;
 1021              		.loc 1 389 27 view .LVU343
 1022 0166 3546     		mov	r5, r6
 1023              	.LVL122:
 388:Drivers/lvgl/src/draw/sw/lv_draw_sw_transform.c ****                     a_ver = 0xff;
 1024              		.loc 1 388 28 view .LVU344
ARM GAS  /var/folders/0z/tsy30v1j4xl4_7kw94k978ww0000gn/T//ccBWD9YH.s 			page 32


 1025 0168 0B96     		str	r6, [sp, #44]
 1026 016a 11E0     		b	.L53
 1027              	.LVL123:
 1028              	.L46:
 388:Drivers/lvgl/src/draw/sw/lv_draw_sw_transform.c ****                     a_ver = 0xff;
 1029              		.loc 1 388 28 view .LVU345
 1030              	.LBE31:
 1031              	.LBE30:
 329:Drivers/lvgl/src/draw/sw/lv_draw_sw_transform.c ****             xs_fract = (xs_fract - 0x80) * 2;
 1032              		.loc 1 329 13 is_stmt 1 view .LVU346
 330:Drivers/lvgl/src/draw/sw/lv_draw_sw_transform.c ****         }
 1033              		.loc 1 330 13 view .LVU347
 330:Drivers/lvgl/src/draw/sw/lv_draw_sw_transform.c ****         }
 1034              		.loc 1 330 34 is_stmt 0 view .LVU348
 1035 016c 803D     		subs	r5, r5, #128
 1036              	.LVL124:
 330:Drivers/lvgl/src/draw/sw/lv_draw_sw_transform.c ****         }
 1037              		.loc 1 330 22 view .LVU349
 1038 016e 6800     		lsls	r0, r5, #1
 1039              	.LVL125:
 330:Drivers/lvgl/src/draw/sw/lv_draw_sw_transform.c ****         }
 1040              		.loc 1 330 22 view .LVU350
 1041 0170 0890     		str	r0, [sp, #32]
 1042              	.LVL126:
 329:Drivers/lvgl/src/draw/sw/lv_draw_sw_transform.c ****             xs_fract = (xs_fract - 0x80) * 2;
 1043              		.loc 1 329 20 view .LVU351
 1044 0172 0125     		movs	r5, #1
 1045 0174 B4E7     		b	.L47
 1046              	.LVL127:
 1047              	.L48:
 337:Drivers/lvgl/src/draw/sw/lv_draw_sw_transform.c ****             ys_fract = (ys_fract - 0x80) * 2;
 1048              		.loc 1 337 13 is_stmt 1 view .LVU352
 338:Drivers/lvgl/src/draw/sw/lv_draw_sw_transform.c ****         }
 1049              		.loc 1 338 13 view .LVU353
 338:Drivers/lvgl/src/draw/sw/lv_draw_sw_transform.c ****         }
 1050              		.loc 1 338 34 is_stmt 0 view .LVU354
 1051 0176 803F     		subs	r7, r7, #128
 1052              	.LVL128:
 338:Drivers/lvgl/src/draw/sw/lv_draw_sw_transform.c ****         }
 1053              		.loc 1 338 22 view .LVU355
 1054 0178 7800     		lsls	r0, r7, #1
 1055 017a 0A90     		str	r0, [sp, #40]
 1056              	.LVL129:
 337:Drivers/lvgl/src/draw/sw/lv_draw_sw_transform.c ****             ys_fract = (ys_fract - 0x80) * 2;
 1057              		.loc 1 337 20 view .LVU356
 1058 017c 0120     		movs	r0, #1
 1059              	.LVL130:
 337:Drivers/lvgl/src/draw/sw/lv_draw_sw_transform.c ****             ys_fract = (ys_fract - 0x80) * 2;
 1060              		.loc 1 337 20 view .LVU357
 1061 017e 0690     		str	r0, [sp, #24]
 1062 0180 B8E7     		b	.L49
 1063              	.LVL131:
 1064              	.L80:
 1065              	.LBB41:
 1066              	.LBB33:
 362:Drivers/lvgl/src/draw/sw/lv_draw_sw_transform.c ****                     a_ver = px_ver[LV_IMG_PX_SIZE_ALPHA_BYTE - 1];
 1067              		.loc 1 362 21 is_stmt 1 view .LVU358
ARM GAS  /var/folders/0z/tsy30v1j4xl4_7kw94k978ww0000gn/T//ccBWD9YH.s 			page 33


 362:Drivers/lvgl/src/draw/sw/lv_draw_sw_transform.c ****                     a_ver = px_ver[LV_IMG_PX_SIZE_ALPHA_BYTE - 1];
 1068              		.loc 1 362 28 is_stmt 0 view .LVU359
 1069 0182 039A     		ldr	r2, [sp, #12]
 1070              	.LVL132:
 362:Drivers/lvgl/src/draw/sw/lv_draw_sw_transform.c ****                     a_ver = px_ver[LV_IMG_PX_SIZE_ALPHA_BYTE - 1];
 1071              		.loc 1 362 28 view .LVU360
 1072 0184 9278     		ldrb	r2, [r2, #2]	@ zero_extendqisi2
 1073 0186 0B92     		str	r2, [sp, #44]
 1074              	.LVL133:
 363:Drivers/lvgl/src/draw/sw/lv_draw_sw_transform.c ****                     a_hor = px_hor[LV_IMG_PX_SIZE_ALPHA_BYTE - 1];
 1075              		.loc 1 363 21 is_stmt 1 view .LVU361
 363:Drivers/lvgl/src/draw/sw/lv_draw_sw_transform.c ****                     a_hor = px_hor[LV_IMG_PX_SIZE_ALPHA_BYTE - 1];
 1076              		.loc 1 363 27 is_stmt 0 view .LVU362
 1077 0188 069A     		ldr	r2, [sp, #24]
 1078 018a 9578     		ldrb	r5, [r2, #2]	@ zero_extendqisi2
 1079              	.LVL134:
 364:Drivers/lvgl/src/draw/sw/lv_draw_sw_transform.c ****                 }
 1080              		.loc 1 364 21 is_stmt 1 view .LVU363
 364:Drivers/lvgl/src/draw/sw/lv_draw_sw_transform.c ****                 }
 1081              		.loc 1 364 27 is_stmt 0 view .LVU364
 1082 018c 0E9A     		ldr	r2, [sp, #56]
 1083 018e 9678     		ldrb	r6, [r2, #2]	@ zero_extendqisi2
 1084              	.LVL135:
 1085              	.L53:
 393:Drivers/lvgl/src/draw/sw/lv_draw_sw_transform.c ****                 if(a_hor != a_base) a_hor = ((a_hor * xs_fract) + (a_base * (0x100 - xs_fract))) >>
 1086              		.loc 1 393 17 is_stmt 1 view .LVU365
 393:Drivers/lvgl/src/draw/sw/lv_draw_sw_transform.c ****                 if(a_hor != a_base) a_hor = ((a_hor * xs_fract) + (a_base * (0x100 - xs_fract))) >>
 1087              		.loc 1 393 19 is_stmt 0 view .LVU366
 1088 0190 0B9F     		ldr	r7, [sp, #44]
 1089 0192 AF42     		cmp	r7, r5
 1090 0194 09D0     		beq	.L57
 393:Drivers/lvgl/src/draw/sw/lv_draw_sw_transform.c ****                 if(a_hor != a_base) a_hor = ((a_hor * xs_fract) + (a_base * (0x100 - xs_fract))) >>
 1091              		.loc 1 393 37 is_stmt 1 discriminator 1 view .LVU367
 393:Drivers/lvgl/src/draw/sw/lv_draw_sw_transform.c ****                 if(a_hor != a_base) a_hor = ((a_hor * xs_fract) + (a_base * (0x100 - xs_fract))) >>
 1092              		.loc 1 393 84 is_stmt 0 discriminator 1 view .LVU368
 1093 0196 0A9A     		ldr	r2, [sp, #40]
 1094 0198 C2F58072 		rsb	r2, r2, #256
 393:Drivers/lvgl/src/draw/sw/lv_draw_sw_transform.c ****                 if(a_hor != a_base) a_hor = ((a_hor * xs_fract) + (a_base * (0x100 - xs_fract))) >>
 1095              		.loc 1 393 75 discriminator 1 view .LVU369
 1096 019c 07FB02F2 		mul	r2, r7, r2
 393:Drivers/lvgl/src/draw/sw/lv_draw_sw_transform.c ****                 if(a_hor != a_base) a_hor = ((a_hor * xs_fract) + (a_base * (0x100 - xs_fract))) >>
 1097              		.loc 1 393 65 discriminator 1 view .LVU370
 1098 01a0 0A9F     		ldr	r7, [sp, #40]
 1099 01a2 07FB0522 		mla	r2, r7, r5, r2
 393:Drivers/lvgl/src/draw/sw/lv_draw_sw_transform.c ****                 if(a_hor != a_base) a_hor = ((a_hor * xs_fract) + (a_base * (0x100 - xs_fract))) >>
 1100              		.loc 1 393 43 discriminator 1 view .LVU371
 1101 01a6 C2F30725 		ubfx	r5, r2, #8, #8
 1102              	.LVL136:
 1103              	.L57:
 394:Drivers/lvgl/src/draw/sw/lv_draw_sw_transform.c ****                 abuf[x] = (a_ver + a_hor) >> 1;
 1104              		.loc 1 394 17 is_stmt 1 view .LVU372
 394:Drivers/lvgl/src/draw/sw/lv_draw_sw_transform.c ****                 abuf[x] = (a_ver + a_hor) >> 1;
 1105              		.loc 1 394 19 is_stmt 0 view .LVU373
 1106 01aa 0B9F     		ldr	r7, [sp, #44]
 1107 01ac B742     		cmp	r7, r6
 1108 01ae 0AD0     		beq	.L58
 394:Drivers/lvgl/src/draw/sw/lv_draw_sw_transform.c ****                 abuf[x] = (a_ver + a_hor) >> 1;
ARM GAS  /var/folders/0z/tsy30v1j4xl4_7kw94k978ww0000gn/T//ccBWD9YH.s 			page 34


 1109              		.loc 1 394 37 is_stmt 1 discriminator 1 view .LVU374
 394:Drivers/lvgl/src/draw/sw/lv_draw_sw_transform.c ****                 abuf[x] = (a_ver + a_hor) >> 1;
 1110              		.loc 1 394 84 is_stmt 0 discriminator 1 view .LVU375
 1111 01b0 089A     		ldr	r2, [sp, #32]
 1112 01b2 C2F58072 		rsb	r2, r2, #256
 394:Drivers/lvgl/src/draw/sw/lv_draw_sw_transform.c ****                 abuf[x] = (a_ver + a_hor) >> 1;
 1113              		.loc 1 394 75 discriminator 1 view .LVU376
 1114 01b6 02FB07F7 		mul	r7, r2, r7
 1115 01ba 3A46     		mov	r2, r7
 394:Drivers/lvgl/src/draw/sw/lv_draw_sw_transform.c ****                 abuf[x] = (a_ver + a_hor) >> 1;
 1116              		.loc 1 394 65 discriminator 1 view .LVU377
 1117 01bc 089F     		ldr	r7, [sp, #32]
 1118 01be 07FB0622 		mla	r2, r7, r6, r2
 394:Drivers/lvgl/src/draw/sw/lv_draw_sw_transform.c ****                 abuf[x] = (a_ver + a_hor) >> 1;
 1119              		.loc 1 394 43 discriminator 1 view .LVU378
 1120 01c2 C2F30726 		ubfx	r6, r2, #8, #8
 1121              	.LVL137:
 1122              	.L58:
 395:Drivers/lvgl/src/draw/sw/lv_draw_sw_transform.c **** 
 1123              		.loc 1 395 17 is_stmt 1 view .LVU379
 395:Drivers/lvgl/src/draw/sw/lv_draw_sw_transform.c **** 
 1124              		.loc 1 395 34 is_stmt 0 view .LVU380
 1125 01c6 AA19     		adds	r2, r5, r6
 395:Drivers/lvgl/src/draw/sw/lv_draw_sw_transform.c **** 
 1126              		.loc 1 395 25 view .LVU381
 1127 01c8 C2F34702 		ubfx	r2, r2, #1, #8
 1128 01cc 209D     		ldr	r5, [sp, #128]
 1129              	.LVL138:
 395:Drivers/lvgl/src/draw/sw/lv_draw_sw_transform.c **** 
 1130              		.loc 1 395 25 view .LVU382
 1131 01ce EA54     		strb	r2, [r5, r3]
 397:Drivers/lvgl/src/draw/sw/lv_draw_sw_transform.c **** 
 1132              		.loc 1 397 17 is_stmt 1 view .LVU383
 397:Drivers/lvgl/src/draw/sw/lv_draw_sw_transform.c **** 
 1133              		.loc 1 397 19 is_stmt 0 view .LVU384
 1134 01d0 002A     		cmp	r2, #0
 1135 01d2 3FF463AF 		beq	.L45
 404:Drivers/lvgl/src/draw/sw/lv_draw_sw_transform.c ****                 c_ver.full = px_ver[0] + (px_ver[1] << 8);
 1136              		.loc 1 404 17 is_stmt 1 view .LVU385
 404:Drivers/lvgl/src/draw/sw/lv_draw_sw_transform.c ****                 c_ver.full = px_ver[0] + (px_ver[1] << 8);
 1137              		.loc 1 404 38 is_stmt 0 view .LVU386
 1138 01d6 029A     		ldr	r2, [sp, #8]
 1139 01d8 125C     		ldrb	r2, [r2, r0]	@ zero_extendqisi2
 404:Drivers/lvgl/src/draw/sw/lv_draw_sw_transform.c ****                 c_ver.full = px_ver[0] + (px_ver[1] << 8);
 1140              		.loc 1 404 52 view .LVU387
 1141 01da 039E     		ldr	r6, [sp, #12]
 1142              	.LVL139:
 404:Drivers/lvgl/src/draw/sw/lv_draw_sw_transform.c ****                 c_ver.full = px_ver[0] + (px_ver[1] << 8);
 1143              		.loc 1 404 52 view .LVU388
 1144 01dc 7078     		ldrb	r0, [r6, #1]	@ zero_extendqisi2
 404:Drivers/lvgl/src/draw/sw/lv_draw_sw_transform.c ****                 c_ver.full = px_ver[0] + (px_ver[1] << 8);
 1145              		.loc 1 404 29 view .LVU389
 1146 01de 02EB0025 		add	r5, r2, r0, lsl #8
 405:Drivers/lvgl/src/draw/sw/lv_draw_sw_transform.c ****                 c_hor.full = px_hor[0] + (px_hor[1] << 8);
 1147              		.loc 1 405 17 is_stmt 1 view .LVU390
 405:Drivers/lvgl/src/draw/sw/lv_draw_sw_transform.c ****                 c_hor.full = px_hor[0] + (px_hor[1] << 8);
 1148              		.loc 1 405 36 is_stmt 0 view .LVU391
ARM GAS  /var/folders/0z/tsy30v1j4xl4_7kw94k978ww0000gn/T//ccBWD9YH.s 			page 35


 1149 01e2 725C     		ldrb	r2, [r6, r1]	@ zero_extendqisi2
 405:Drivers/lvgl/src/draw/sw/lv_draw_sw_transform.c ****                 c_hor.full = px_hor[0] + (px_hor[1] << 8);
 1150              		.loc 1 405 49 view .LVU392
 1151 01e4 0699     		ldr	r1, [sp, #24]
 1152 01e6 4978     		ldrb	r1, [r1, #1]	@ zero_extendqisi2
 405:Drivers/lvgl/src/draw/sw/lv_draw_sw_transform.c ****                 c_hor.full = px_hor[0] + (px_hor[1] << 8);
 1153              		.loc 1 405 28 view .LVU393
 1154 01e8 02EB0122 		add	r2, r2, r1, lsl #8
 1155              	.LVL140:
 406:Drivers/lvgl/src/draw/sw/lv_draw_sw_transform.c **** #elif LV_COLOR_DEPTH == 32
 1156              		.loc 1 406 17 is_stmt 1 view .LVU394
 406:Drivers/lvgl/src/draw/sw/lv_draw_sw_transform.c **** #elif LV_COLOR_DEPTH == 32
 1157              		.loc 1 406 36 is_stmt 0 view .LVU395
 1158 01ec 0599     		ldr	r1, [sp, #20]
 1159 01ee 715C     		ldrb	r1, [r6, r1]	@ zero_extendqisi2
 406:Drivers/lvgl/src/draw/sw/lv_draw_sw_transform.c **** #elif LV_COLOR_DEPTH == 32
 1160              		.loc 1 406 49 view .LVU396
 1161 01f0 0E98     		ldr	r0, [sp, #56]
 1162 01f2 4078     		ldrb	r0, [r0, #1]	@ zero_extendqisi2
 406:Drivers/lvgl/src/draw/sw/lv_draw_sw_transform.c **** #elif LV_COLOR_DEPTH == 32
 1163              		.loc 1 406 28 view .LVU397
 1164 01f4 01EB002E 		add	lr, r1, r0, lsl #8
 406:Drivers/lvgl/src/draw/sw/lv_draw_sw_transform.c **** #elif LV_COLOR_DEPTH == 32
 1165              		.loc 1 406 28 view .LVU398
 1166              	.LBE33:
 1167 01f8 34E0     		b	.L59
 1168              	.LVL141:
 1169              	.L81:
 1170              	.LBB34:
 1171              	.LBB32:
 368:Drivers/lvgl/src/draw/sw/lv_draw_sw_transform.c ****                     a_base = *(a_tmp + (ys_int * src_stride) + xs_int);
 1172              		.loc 1 368 21 is_stmt 1 view .LVU399
 368:Drivers/lvgl/src/draw/sw/lv_draw_sw_transform.c ****                     a_base = *(a_tmp + (ys_int * src_stride) + xs_int);
 1173              		.loc 1 368 63 is_stmt 0 view .LVU400
 1174 01fa 019F     		ldr	r7, [sp, #4]
 1175 01fc 049E     		ldr	r6, [sp, #16]
 1176 01fe 06FB07F7 		mul	r7, r6, r7
 368:Drivers/lvgl/src/draw/sw/lv_draw_sw_transform.c ****                     a_base = *(a_tmp + (ys_int * src_stride) + xs_int);
 1177              		.loc 1 368 38 view .LVU401
 1178 0202 029E     		ldr	r6, [sp, #8]
 1179 0204 06EB4707 		add	r7, r6, r7, lsl #1
 1180              	.LVL142:
 369:Drivers/lvgl/src/draw/sw/lv_draw_sw_transform.c ****                     a_hor = *(a_tmp + (ys_int * src_stride) + xs_int + x_next);
 1181              		.loc 1 369 21 is_stmt 1 view .LVU402
 369:Drivers/lvgl/src/draw/sw/lv_draw_sw_transform.c ****                     a_hor = *(a_tmp + (ys_int * src_stride) + xs_int + x_next);
 1182              		.loc 1 369 62 is_stmt 0 view .LVU403
 1183 0208 0B9E     		ldr	r6, [sp, #44]
 1184 020a 1644     		add	r6, r6, r2
 369:Drivers/lvgl/src/draw/sw/lv_draw_sw_transform.c ****                     a_hor = *(a_tmp + (ys_int * src_stride) + xs_int + x_next);
 1185              		.loc 1 369 28 view .LVU404
 1186 020c 0F97     		str	r7, [sp, #60]
 1187 020e BF5D     		ldrb	r7, [r7, r6]	@ zero_extendqisi2
 1188              	.LVL143:
 369:Drivers/lvgl/src/draw/sw/lv_draw_sw_transform.c ****                     a_hor = *(a_tmp + (ys_int * src_stride) + xs_int + x_next);
 1189              		.loc 1 369 28 view .LVU405
 1190 0210 0B97     		str	r7, [sp, #44]
 1191              	.LVL144:
ARM GAS  /var/folders/0z/tsy30v1j4xl4_7kw94k978ww0000gn/T//ccBWD9YH.s 			page 36


 370:Drivers/lvgl/src/draw/sw/lv_draw_sw_transform.c ****                     a_ver = *(a_tmp + ((ys_int + y_next) * src_stride) + xs_int);
 1192              		.loc 1 370 21 is_stmt 1 view .LVU406
 370:Drivers/lvgl/src/draw/sw/lv_draw_sw_transform.c ****                     a_ver = *(a_tmp + ((ys_int + y_next) * src_stride) + xs_int);
 1193              		.loc 1 370 70 is_stmt 0 view .LVU407
 1194 0212 2E44     		add	r6, r6, r5
 370:Drivers/lvgl/src/draw/sw/lv_draw_sw_transform.c ****                     a_ver = *(a_tmp + ((ys_int + y_next) * src_stride) + xs_int);
 1195              		.loc 1 370 27 view .LVU408
 1196 0214 0F9F     		ldr	r7, [sp, #60]
 1197 0216 BE5D     		ldrb	r6, [r7, r6]	@ zero_extendqisi2
 1198              	.LVL145:
 371:Drivers/lvgl/src/draw/sw/lv_draw_sw_transform.c ****                 }
 1199              		.loc 1 371 21 is_stmt 1 view .LVU409
 371:Drivers/lvgl/src/draw/sw/lv_draw_sw_transform.c ****                 }
 1200              		.loc 1 371 72 is_stmt 0 view .LVU410
 1201 0218 049D     		ldr	r5, [sp, #16]
 1202              	.LVL146:
 371:Drivers/lvgl/src/draw/sw/lv_draw_sw_transform.c ****                 }
 1203              		.loc 1 371 72 view .LVU411
 1204 021a 0EFB052E 		mla	lr, lr, r5, r2
 371:Drivers/lvgl/src/draw/sw/lv_draw_sw_transform.c ****                 }
 1205              		.loc 1 371 27 view .LVU412
 1206 021e 17F80E50 		ldrb	r5, [r7, lr]	@ zero_extendqisi2
 1207              	.LVL147:
 371:Drivers/lvgl/src/draw/sw/lv_draw_sw_transform.c ****                 }
 1208              		.loc 1 371 27 view .LVU413
 1209              	.LBE32:
 1210 0222 B5E7     		b	.L53
 1211              	.LVL148:
 1212              	.L82:
 375:Drivers/lvgl/src/draw/sw/lv_draw_sw_transform.c ****                        ((lv_color_t *)px_ver)->full == ck.full ||
 1213              		.loc 1 375 21 is_stmt 1 view .LVU414
 375:Drivers/lvgl/src/draw/sw/lv_draw_sw_transform.c ****                        ((lv_color_t *)px_ver)->full == ck.full ||
 1214              		.loc 1 375 47 is_stmt 0 view .LVU415
 1215 0224 029A     		ldr	r2, [sp, #8]
 1216 0226 125A     		ldrh	r2, [r2, r0]
 375:Drivers/lvgl/src/draw/sw/lv_draw_sw_transform.c ****                        ((lv_color_t *)px_ver)->full == ck.full ||
 1217              		.loc 1 375 59 view .LVU416
 1218 0228 BDF83250 		ldrh	r5, [sp, #50]
 1219              	.LVL149:
 375:Drivers/lvgl/src/draw/sw/lv_draw_sw_transform.c ****                        ((lv_color_t *)px_ver)->full == ck.full ||
 1220              		.loc 1 375 23 view .LVU417
 1221 022c AA42     		cmp	r2, r5
 1222 022e 0BD0     		beq	.L55
 376:Drivers/lvgl/src/draw/sw/lv_draw_sw_transform.c ****                        ((lv_color_t *)px_hor)->full == ck.full) {
 1223              		.loc 1 376 46 discriminator 2 view .LVU418
 1224 0230 039E     		ldr	r6, [sp, #12]
 1225 0232 725A     		ldrh	r2, [r6, r1]
 375:Drivers/lvgl/src/draw/sw/lv_draw_sw_transform.c ****                        ((lv_color_t *)px_ver)->full == ck.full ||
 1226              		.loc 1 375 65 discriminator 2 view .LVU419
 1227 0234 9542     		cmp	r5, r2
 1228 0236 07D0     		beq	.L55
 377:Drivers/lvgl/src/draw/sw/lv_draw_sw_transform.c ****                         abuf[x] = 0x00;
 1229              		.loc 1 377 46 view .LVU420
 1230 0238 059A     		ldr	r2, [sp, #20]
 1231 023a B25A     		ldrh	r2, [r6, r2]
 376:Drivers/lvgl/src/draw/sw/lv_draw_sw_transform.c ****                        ((lv_color_t *)px_hor)->full == ck.full) {
 1232              		.loc 1 376 64 view .LVU421
ARM GAS  /var/folders/0z/tsy30v1j4xl4_7kw94k978ww0000gn/T//ccBWD9YH.s 			page 37


 1233 023c 9542     		cmp	r5, r2
 1234 023e 03D0     		beq	.L55
 384:Drivers/lvgl/src/draw/sw/lv_draw_sw_transform.c ****                     }
 1235              		.loc 1 384 31 view .LVU422
 1236 0240 FF26     		movs	r6, #255
 383:Drivers/lvgl/src/draw/sw/lv_draw_sw_transform.c ****                         a_hor = 0xff;
 1237              		.loc 1 383 31 view .LVU423
 1238 0242 3546     		mov	r5, r6
 382:Drivers/lvgl/src/draw/sw/lv_draw_sw_transform.c ****                         a_ver = 0xff;
 1239              		.loc 1 382 32 view .LVU424
 1240 0244 0B96     		str	r6, [sp, #44]
 1241 0246 A3E7     		b	.L53
 1242              	.L55:
 378:Drivers/lvgl/src/draw/sw/lv_draw_sw_transform.c ****                         continue;
 1243              		.loc 1 378 25 is_stmt 1 discriminator 3 view .LVU425
 378:Drivers/lvgl/src/draw/sw/lv_draw_sw_transform.c ****                         continue;
 1244              		.loc 1 378 33 is_stmt 0 discriminator 3 view .LVU426
 1245 0248 0022     		movs	r2, #0
 1246 024a 2099     		ldr	r1, [sp, #128]
 1247 024c CA54     		strb	r2, [r1, r3]
 379:Drivers/lvgl/src/draw/sw/lv_draw_sw_transform.c ****                     }
 1248              		.loc 1 379 25 is_stmt 1 discriminator 3 view .LVU427
 1249 024e 25E7     		b	.L45
 1250              	.LVL150:
 1251              	.L51:
 379:Drivers/lvgl/src/draw/sw/lv_draw_sw_transform.c ****                     }
 1252              		.loc 1 379 25 is_stmt 0 discriminator 3 view .LVU428
 1253              	.LBE34:
 415:Drivers/lvgl/src/draw/sw/lv_draw_sw_transform.c ****                 c_hor = *((const lv_color_t *) px_hor);
 1254              		.loc 1 415 17 is_stmt 1 view .LVU429
 415:Drivers/lvgl/src/draw/sw/lv_draw_sw_transform.c ****                 c_hor = *((const lv_color_t *) px_hor);
 1255              		.loc 1 415 24 is_stmt 0 view .LVU430
 1256 0250 029A     		ldr	r2, [sp, #8]
 1257              	.LVL151:
 415:Drivers/lvgl/src/draw/sw/lv_draw_sw_transform.c ****                 c_hor = *((const lv_color_t *) px_hor);
 1258              		.loc 1 415 24 view .LVU431
 1259 0252 155A     		ldrh	r5, [r2, r0]
 1260              	.LVL152:
 416:Drivers/lvgl/src/draw/sw/lv_draw_sw_transform.c ****                 c_ver = *((const lv_color_t *) px_ver);
 1261              		.loc 1 416 17 is_stmt 1 view .LVU432
 416:Drivers/lvgl/src/draw/sw/lv_draw_sw_transform.c ****                 c_ver = *((const lv_color_t *) px_ver);
 1262              		.loc 1 416 23 is_stmt 0 view .LVU433
 1263 0254 059A     		ldr	r2, [sp, #20]
 1264 0256 0398     		ldr	r0, [sp, #12]
 1265 0258 30F802E0 		ldrh	lr, [r0, r2]
 417:Drivers/lvgl/src/draw/sw/lv_draw_sw_transform.c ****                 abuf[x] = 0xff;
 1266              		.loc 1 417 17 is_stmt 1 view .LVU434
 417:Drivers/lvgl/src/draw/sw/lv_draw_sw_transform.c ****                 abuf[x] = 0xff;
 1267              		.loc 1 417 23 is_stmt 0 view .LVU435
 1268 025c 425A     		ldrh	r2, [r0, r1]
 418:Drivers/lvgl/src/draw/sw/lv_draw_sw_transform.c ****             }
 1269              		.loc 1 418 17 is_stmt 1 view .LVU436
 418:Drivers/lvgl/src/draw/sw/lv_draw_sw_transform.c ****             }
 1270              		.loc 1 418 25 is_stmt 0 view .LVU437
 1271 025e FF21     		movs	r1, #255
 1272 0260 2098     		ldr	r0, [sp, #128]
 1273 0262 C154     		strb	r1, [r0, r3]
ARM GAS  /var/folders/0z/tsy30v1j4xl4_7kw94k978ww0000gn/T//ccBWD9YH.s 			page 38


 1274              	.L59:
 421:Drivers/lvgl/src/draw/sw/lv_draw_sw_transform.c ****                 cbuf[x] = c_base;
 1275              		.loc 1 421 13 is_stmt 1 view .LVU438
 1276              	.LVL153:
 421:Drivers/lvgl/src/draw/sw/lv_draw_sw_transform.c ****                 cbuf[x] = c_base;
 1277              		.loc 1 421 22 is_stmt 0 view .LVU439
 1278 0264 A9B2     		uxth	r1, r5
 1279              	.LVL154:
 421:Drivers/lvgl/src/draw/sw/lv_draw_sw_transform.c ****                 cbuf[x] = c_base;
 1280              		.loc 1 421 36 view .LVU440
 1281 0266 90B2     		uxth	r0, r2
 421:Drivers/lvgl/src/draw/sw/lv_draw_sw_transform.c ****                 cbuf[x] = c_base;
 1282              		.loc 1 421 15 view .LVU441
 1283 0268 8142     		cmp	r1, r0
 1284 026a 63D0     		beq	.L83
 1285              	.LVL155:
 1286              	.L60:
 425:Drivers/lvgl/src/draw/sw/lv_draw_sw_transform.c ****                 c_hor = lv_color_mix(c_hor, c_base, xs_fract);
 1287              		.loc 1 425 17 is_stmt 1 view .LVU442
 425:Drivers/lvgl/src/draw/sw/lv_draw_sw_transform.c ****                 c_hor = lv_color_mix(c_hor, c_base, xs_fract);
 1288              		.loc 1 425 25 is_stmt 0 view .LVU443
 1289 026c 9DF82810 		ldrb	r1, [sp, #40]	@ zero_extendqisi2
 1290              	.LVL156:
 1291              	.LBB35:
 1292              	.LBI35:
 1293              		.file 2 "Drivers/lvgl/src/draw/sw/../../misc/lv_color.h"
   1:Drivers/lvgl/src/draw/sw/../../misc/lv_color.h **** /**
   2:Drivers/lvgl/src/draw/sw/../../misc/lv_color.h ****  * @file lv_color.h
   3:Drivers/lvgl/src/draw/sw/../../misc/lv_color.h ****  *
   4:Drivers/lvgl/src/draw/sw/../../misc/lv_color.h ****  */
   5:Drivers/lvgl/src/draw/sw/../../misc/lv_color.h **** 
   6:Drivers/lvgl/src/draw/sw/../../misc/lv_color.h **** #ifndef LV_COLOR_H
   7:Drivers/lvgl/src/draw/sw/../../misc/lv_color.h **** #define LV_COLOR_H
   8:Drivers/lvgl/src/draw/sw/../../misc/lv_color.h **** 
   9:Drivers/lvgl/src/draw/sw/../../misc/lv_color.h **** #ifdef __cplusplus
  10:Drivers/lvgl/src/draw/sw/../../misc/lv_color.h **** extern "C" {
  11:Drivers/lvgl/src/draw/sw/../../misc/lv_color.h **** #endif
  12:Drivers/lvgl/src/draw/sw/../../misc/lv_color.h **** 
  13:Drivers/lvgl/src/draw/sw/../../misc/lv_color.h **** /*********************
  14:Drivers/lvgl/src/draw/sw/../../misc/lv_color.h ****  *      INCLUDES
  15:Drivers/lvgl/src/draw/sw/../../misc/lv_color.h ****  *********************/
  16:Drivers/lvgl/src/draw/sw/../../misc/lv_color.h **** #include "../lv_conf_internal.h"
  17:Drivers/lvgl/src/draw/sw/../../misc/lv_color.h **** #include "lv_assert.h"
  18:Drivers/lvgl/src/draw/sw/../../misc/lv_color.h **** #include "lv_math.h"
  19:Drivers/lvgl/src/draw/sw/../../misc/lv_color.h **** #include "lv_types.h"
  20:Drivers/lvgl/src/draw/sw/../../misc/lv_color.h **** 
  21:Drivers/lvgl/src/draw/sw/../../misc/lv_color.h **** /*Error checking*/
  22:Drivers/lvgl/src/draw/sw/../../misc/lv_color.h **** #if LV_COLOR_DEPTH == 24
  23:Drivers/lvgl/src/draw/sw/../../misc/lv_color.h **** #error "LV_COLOR_DEPTH 24 is deprecated. Use LV_COLOR_DEPTH 32 instead (lv_conf.h)"
  24:Drivers/lvgl/src/draw/sw/../../misc/lv_color.h **** #endif
  25:Drivers/lvgl/src/draw/sw/../../misc/lv_color.h **** 
  26:Drivers/lvgl/src/draw/sw/../../misc/lv_color.h **** #if LV_COLOR_DEPTH != 16 && LV_COLOR_16_SWAP != 0
  27:Drivers/lvgl/src/draw/sw/../../misc/lv_color.h **** #error "LV_COLOR_16_SWAP requires LV_COLOR_DEPTH == 16. Set it in lv_conf.h"
  28:Drivers/lvgl/src/draw/sw/../../misc/lv_color.h **** #endif
  29:Drivers/lvgl/src/draw/sw/../../misc/lv_color.h **** 
  30:Drivers/lvgl/src/draw/sw/../../misc/lv_color.h **** #include <stdint.h>
  31:Drivers/lvgl/src/draw/sw/../../misc/lv_color.h **** 
ARM GAS  /var/folders/0z/tsy30v1j4xl4_7kw94k978ww0000gn/T//ccBWD9YH.s 			page 39


  32:Drivers/lvgl/src/draw/sw/../../misc/lv_color.h **** /*********************
  33:Drivers/lvgl/src/draw/sw/../../misc/lv_color.h ****  *      DEFINES
  34:Drivers/lvgl/src/draw/sw/../../misc/lv_color.h ****  *********************/
  35:Drivers/lvgl/src/draw/sw/../../misc/lv_color.h **** LV_EXPORT_CONST_INT(LV_COLOR_DEPTH);
  36:Drivers/lvgl/src/draw/sw/../../misc/lv_color.h **** LV_EXPORT_CONST_INT(LV_COLOR_16_SWAP);
  37:Drivers/lvgl/src/draw/sw/../../misc/lv_color.h **** 
  38:Drivers/lvgl/src/draw/sw/../../misc/lv_color.h **** /**
  39:Drivers/lvgl/src/draw/sw/../../misc/lv_color.h ****  * Opacity percentages.
  40:Drivers/lvgl/src/draw/sw/../../misc/lv_color.h ****  */
  41:Drivers/lvgl/src/draw/sw/../../misc/lv_color.h **** enum {
  42:Drivers/lvgl/src/draw/sw/../../misc/lv_color.h ****     LV_OPA_TRANSP = 0,
  43:Drivers/lvgl/src/draw/sw/../../misc/lv_color.h ****     LV_OPA_0      = 0,
  44:Drivers/lvgl/src/draw/sw/../../misc/lv_color.h ****     LV_OPA_10     = 25,
  45:Drivers/lvgl/src/draw/sw/../../misc/lv_color.h ****     LV_OPA_20     = 51,
  46:Drivers/lvgl/src/draw/sw/../../misc/lv_color.h ****     LV_OPA_30     = 76,
  47:Drivers/lvgl/src/draw/sw/../../misc/lv_color.h ****     LV_OPA_40     = 102,
  48:Drivers/lvgl/src/draw/sw/../../misc/lv_color.h ****     LV_OPA_50     = 127,
  49:Drivers/lvgl/src/draw/sw/../../misc/lv_color.h ****     LV_OPA_60     = 153,
  50:Drivers/lvgl/src/draw/sw/../../misc/lv_color.h ****     LV_OPA_70     = 178,
  51:Drivers/lvgl/src/draw/sw/../../misc/lv_color.h ****     LV_OPA_80     = 204,
  52:Drivers/lvgl/src/draw/sw/../../misc/lv_color.h ****     LV_OPA_90     = 229,
  53:Drivers/lvgl/src/draw/sw/../../misc/lv_color.h ****     LV_OPA_100    = 255,
  54:Drivers/lvgl/src/draw/sw/../../misc/lv_color.h ****     LV_OPA_COVER  = 255,
  55:Drivers/lvgl/src/draw/sw/../../misc/lv_color.h **** };
  56:Drivers/lvgl/src/draw/sw/../../misc/lv_color.h **** 
  57:Drivers/lvgl/src/draw/sw/../../misc/lv_color.h **** #define LV_OPA_MIN 2    /*Opacities below this will be transparent*/
  58:Drivers/lvgl/src/draw/sw/../../misc/lv_color.h **** #define LV_OPA_MAX 253  /*Opacities above this will fully cover*/
  59:Drivers/lvgl/src/draw/sw/../../misc/lv_color.h **** 
  60:Drivers/lvgl/src/draw/sw/../../misc/lv_color.h **** #if LV_COLOR_DEPTH == 1
  61:Drivers/lvgl/src/draw/sw/../../misc/lv_color.h **** #define LV_COLOR_SIZE 8
  62:Drivers/lvgl/src/draw/sw/../../misc/lv_color.h **** #elif LV_COLOR_DEPTH == 8
  63:Drivers/lvgl/src/draw/sw/../../misc/lv_color.h **** #define LV_COLOR_SIZE 8
  64:Drivers/lvgl/src/draw/sw/../../misc/lv_color.h **** #elif LV_COLOR_DEPTH == 16
  65:Drivers/lvgl/src/draw/sw/../../misc/lv_color.h **** #define LV_COLOR_SIZE 16
  66:Drivers/lvgl/src/draw/sw/../../misc/lv_color.h **** #elif LV_COLOR_DEPTH == 32
  67:Drivers/lvgl/src/draw/sw/../../misc/lv_color.h **** #define LV_COLOR_SIZE 32
  68:Drivers/lvgl/src/draw/sw/../../misc/lv_color.h **** #else
  69:Drivers/lvgl/src/draw/sw/../../misc/lv_color.h **** #error "Invalid LV_COLOR_DEPTH in lv_conf.h! Set it to 1, 8, 16 or 32!"
  70:Drivers/lvgl/src/draw/sw/../../misc/lv_color.h **** #endif
  71:Drivers/lvgl/src/draw/sw/../../misc/lv_color.h **** 
  72:Drivers/lvgl/src/draw/sw/../../misc/lv_color.h **** #if defined(__cplusplus) && !defined(_LV_COLOR_HAS_MODERN_CPP)
  73:Drivers/lvgl/src/draw/sw/../../misc/lv_color.h **** /**
  74:Drivers/lvgl/src/draw/sw/../../misc/lv_color.h **** * MSVC compiler's definition of the __cplusplus indicating 199711L regardless to C++ standard versi
  75:Drivers/lvgl/src/draw/sw/../../misc/lv_color.h **** * see https://devblogs.microsoft.com/cppblog/msvc-now-correctly-reports-cplusplus
  76:Drivers/lvgl/src/draw/sw/../../misc/lv_color.h **** * so we use _MSC_VER macro instead of __cplusplus
  77:Drivers/lvgl/src/draw/sw/../../misc/lv_color.h **** */
  78:Drivers/lvgl/src/draw/sw/../../misc/lv_color.h **** #ifdef _MSC_VER
  79:Drivers/lvgl/src/draw/sw/../../misc/lv_color.h **** #if _MSC_VER >= 1900 /*Visual Studio 2015*/
  80:Drivers/lvgl/src/draw/sw/../../misc/lv_color.h **** #define _LV_COLOR_HAS_MODERN_CPP 1
  81:Drivers/lvgl/src/draw/sw/../../misc/lv_color.h **** #endif
  82:Drivers/lvgl/src/draw/sw/../../misc/lv_color.h **** #else
  83:Drivers/lvgl/src/draw/sw/../../misc/lv_color.h **** #if __cplusplus >= 201103L
  84:Drivers/lvgl/src/draw/sw/../../misc/lv_color.h **** #define _LV_COLOR_HAS_MODERN_CPP 1
  85:Drivers/lvgl/src/draw/sw/../../misc/lv_color.h **** #endif
  86:Drivers/lvgl/src/draw/sw/../../misc/lv_color.h **** #endif
  87:Drivers/lvgl/src/draw/sw/../../misc/lv_color.h **** #endif /*__cplusplus*/
  88:Drivers/lvgl/src/draw/sw/../../misc/lv_color.h **** 
ARM GAS  /var/folders/0z/tsy30v1j4xl4_7kw94k978ww0000gn/T//ccBWD9YH.s 			page 40


  89:Drivers/lvgl/src/draw/sw/../../misc/lv_color.h **** #ifndef _LV_COLOR_HAS_MODERN_CPP
  90:Drivers/lvgl/src/draw/sw/../../misc/lv_color.h **** #define _LV_COLOR_HAS_MODERN_CPP 0
  91:Drivers/lvgl/src/draw/sw/../../misc/lv_color.h **** #endif
  92:Drivers/lvgl/src/draw/sw/../../misc/lv_color.h **** 
  93:Drivers/lvgl/src/draw/sw/../../misc/lv_color.h **** #if _LV_COLOR_HAS_MODERN_CPP
  94:Drivers/lvgl/src/draw/sw/../../misc/lv_color.h **** /*Fix msvc compiler error C4576 inside C++ code*/
  95:Drivers/lvgl/src/draw/sw/../../misc/lv_color.h **** #define _LV_COLOR_MAKE_TYPE_HELPER lv_color_t
  96:Drivers/lvgl/src/draw/sw/../../misc/lv_color.h **** #else
  97:Drivers/lvgl/src/draw/sw/../../misc/lv_color.h **** #define _LV_COLOR_MAKE_TYPE_HELPER (lv_color_t)
  98:Drivers/lvgl/src/draw/sw/../../misc/lv_color.h **** #endif
  99:Drivers/lvgl/src/draw/sw/../../misc/lv_color.h **** 
 100:Drivers/lvgl/src/draw/sw/../../misc/lv_color.h **** /*---------------------------------------
 101:Drivers/lvgl/src/draw/sw/../../misc/lv_color.h ****  * Macros for all existing color depths
 102:Drivers/lvgl/src/draw/sw/../../misc/lv_color.h ****  * to set/get values of the color channels
 103:Drivers/lvgl/src/draw/sw/../../misc/lv_color.h ****  *------------------------------------------*/
 104:Drivers/lvgl/src/draw/sw/../../misc/lv_color.h **** # define LV_COLOR_SET_R1(c, v) (c).ch.red = (uint8_t)((v) & 0x1)
 105:Drivers/lvgl/src/draw/sw/../../misc/lv_color.h **** # define LV_COLOR_SET_G1(c, v) (c).ch.green = (uint8_t)((v) & 0x1)
 106:Drivers/lvgl/src/draw/sw/../../misc/lv_color.h **** # define LV_COLOR_SET_B1(c, v) (c).ch.blue = (uint8_t)((v) & 0x1)
 107:Drivers/lvgl/src/draw/sw/../../misc/lv_color.h **** # define LV_COLOR_SET_A1(c, v) do {} while(0)
 108:Drivers/lvgl/src/draw/sw/../../misc/lv_color.h **** 
 109:Drivers/lvgl/src/draw/sw/../../misc/lv_color.h **** # define LV_COLOR_GET_R1(c) (c).ch.red
 110:Drivers/lvgl/src/draw/sw/../../misc/lv_color.h **** # define LV_COLOR_GET_G1(c) (c).ch.green
 111:Drivers/lvgl/src/draw/sw/../../misc/lv_color.h **** # define LV_COLOR_GET_B1(c) (c).ch.blue
 112:Drivers/lvgl/src/draw/sw/../../misc/lv_color.h **** # define LV_COLOR_GET_A1(c) 0xFF
 113:Drivers/lvgl/src/draw/sw/../../misc/lv_color.h **** 
 114:Drivers/lvgl/src/draw/sw/../../misc/lv_color.h **** # define _LV_COLOR_ZERO_INITIALIZER1 {0x00}
 115:Drivers/lvgl/src/draw/sw/../../misc/lv_color.h **** # define LV_COLOR_MAKE1(r8, g8, b8)  {(uint8_t)((b8 >> 7) | (g8 >> 7) | (r8 >> 7))}
 116:Drivers/lvgl/src/draw/sw/../../misc/lv_color.h **** 
 117:Drivers/lvgl/src/draw/sw/../../misc/lv_color.h **** # define LV_COLOR_SET_R8(c, v) (c).ch.red = (uint8_t)((v) & 0x7U)
 118:Drivers/lvgl/src/draw/sw/../../misc/lv_color.h **** # define LV_COLOR_SET_G8(c, v) (c).ch.green = (uint8_t)((v) & 0x7U)
 119:Drivers/lvgl/src/draw/sw/../../misc/lv_color.h **** # define LV_COLOR_SET_B8(c, v) (c).ch.blue = (uint8_t)((v) & 0x3U)
 120:Drivers/lvgl/src/draw/sw/../../misc/lv_color.h **** # define LV_COLOR_SET_A8(c, v) do {} while(0)
 121:Drivers/lvgl/src/draw/sw/../../misc/lv_color.h **** 
 122:Drivers/lvgl/src/draw/sw/../../misc/lv_color.h **** # define LV_COLOR_GET_R8(c) (c).ch.red
 123:Drivers/lvgl/src/draw/sw/../../misc/lv_color.h **** # define LV_COLOR_GET_G8(c) (c).ch.green
 124:Drivers/lvgl/src/draw/sw/../../misc/lv_color.h **** # define LV_COLOR_GET_B8(c) (c).ch.blue
 125:Drivers/lvgl/src/draw/sw/../../misc/lv_color.h **** # define LV_COLOR_GET_A8(c) 0xFF
 126:Drivers/lvgl/src/draw/sw/../../misc/lv_color.h **** 
 127:Drivers/lvgl/src/draw/sw/../../misc/lv_color.h **** # define _LV_COLOR_ZERO_INITIALIZER8 {{0x00, 0x00, 0x00}}
 128:Drivers/lvgl/src/draw/sw/../../misc/lv_color.h **** # define LV_COLOR_MAKE8(r8, g8, b8) {{(uint8_t)((b8 >> 6) & 0x3U), (uint8_t)((g8 >> 5) & 0x7U), (ui
 129:Drivers/lvgl/src/draw/sw/../../misc/lv_color.h **** 
 130:Drivers/lvgl/src/draw/sw/../../misc/lv_color.h **** # define LV_COLOR_SET_R16(c, v) (c).ch.red = (uint8_t)((v) & 0x1FU)
 131:Drivers/lvgl/src/draw/sw/../../misc/lv_color.h **** #if LV_COLOR_16_SWAP == 0
 132:Drivers/lvgl/src/draw/sw/../../misc/lv_color.h **** # define LV_COLOR_SET_G16(c, v) (c).ch.green = (uint8_t)((v) & 0x3FU)
 133:Drivers/lvgl/src/draw/sw/../../misc/lv_color.h **** #else
 134:Drivers/lvgl/src/draw/sw/../../misc/lv_color.h **** # define LV_COLOR_SET_G16(c, v) {(c).ch.green_h = (uint8_t)(((v) >> 3) & 0x7); (c).ch.green_l = (ui
 135:Drivers/lvgl/src/draw/sw/../../misc/lv_color.h **** #endif
 136:Drivers/lvgl/src/draw/sw/../../misc/lv_color.h **** # define LV_COLOR_SET_B16(c, v) (c).ch.blue = (uint8_t)((v) & 0x1FU)
 137:Drivers/lvgl/src/draw/sw/../../misc/lv_color.h **** # define LV_COLOR_SET_A16(c, v) do {} while(0)
 138:Drivers/lvgl/src/draw/sw/../../misc/lv_color.h **** 
 139:Drivers/lvgl/src/draw/sw/../../misc/lv_color.h **** # define LV_COLOR_GET_R16(c) (c).ch.red
 140:Drivers/lvgl/src/draw/sw/../../misc/lv_color.h **** #if LV_COLOR_16_SWAP == 0
 141:Drivers/lvgl/src/draw/sw/../../misc/lv_color.h **** # define LV_COLOR_GET_G16(c) (c).ch.green
 142:Drivers/lvgl/src/draw/sw/../../misc/lv_color.h **** #else
 143:Drivers/lvgl/src/draw/sw/../../misc/lv_color.h **** # define LV_COLOR_GET_G16(c) (((c).ch.green_h << 3) + (c).ch.green_l)
 144:Drivers/lvgl/src/draw/sw/../../misc/lv_color.h **** #endif
 145:Drivers/lvgl/src/draw/sw/../../misc/lv_color.h **** # define LV_COLOR_GET_B16(c) (c).ch.blue
ARM GAS  /var/folders/0z/tsy30v1j4xl4_7kw94k978ww0000gn/T//ccBWD9YH.s 			page 41


 146:Drivers/lvgl/src/draw/sw/../../misc/lv_color.h **** # define LV_COLOR_GET_A16(c) 0xFF
 147:Drivers/lvgl/src/draw/sw/../../misc/lv_color.h **** 
 148:Drivers/lvgl/src/draw/sw/../../misc/lv_color.h **** #if LV_COLOR_16_SWAP == 0
 149:Drivers/lvgl/src/draw/sw/../../misc/lv_color.h **** # define _LV_COLOR_ZERO_INITIALIZER16  {{0x00, 0x00, 0x00}}
 150:Drivers/lvgl/src/draw/sw/../../misc/lv_color.h **** # define LV_COLOR_MAKE16(r8, g8, b8) {{(uint8_t)((b8 >> 3) & 0x1FU), (uint8_t)((g8 >> 2) & 0x3FU), 
 151:Drivers/lvgl/src/draw/sw/../../misc/lv_color.h **** #else
 152:Drivers/lvgl/src/draw/sw/../../misc/lv_color.h **** # define _LV_COLOR_ZERO_INITIALIZER16 {{0x00, 0x00, 0x00, 0x00}}
 153:Drivers/lvgl/src/draw/sw/../../misc/lv_color.h **** # define LV_COLOR_MAKE16(r8, g8, b8) {{(uint8_t)((g8 >> 5) & 0x7U), (uint8_t)((r8 >> 3) & 0x1FU), (
 154:Drivers/lvgl/src/draw/sw/../../misc/lv_color.h **** #endif
 155:Drivers/lvgl/src/draw/sw/../../misc/lv_color.h **** 
 156:Drivers/lvgl/src/draw/sw/../../misc/lv_color.h **** # define LV_COLOR_SET_R32(c, v) (c).ch.red = (uint8_t)((v) & 0xFF)
 157:Drivers/lvgl/src/draw/sw/../../misc/lv_color.h **** # define LV_COLOR_SET_G32(c, v) (c).ch.green = (uint8_t)((v) & 0xFF)
 158:Drivers/lvgl/src/draw/sw/../../misc/lv_color.h **** # define LV_COLOR_SET_B32(c, v) (c).ch.blue = (uint8_t)((v) & 0xFF)
 159:Drivers/lvgl/src/draw/sw/../../misc/lv_color.h **** # define LV_COLOR_SET_A32(c, v) (c).ch.alpha = (uint8_t)((v) & 0xFF)
 160:Drivers/lvgl/src/draw/sw/../../misc/lv_color.h **** 
 161:Drivers/lvgl/src/draw/sw/../../misc/lv_color.h **** # define LV_COLOR_GET_R32(c) (c).ch.red
 162:Drivers/lvgl/src/draw/sw/../../misc/lv_color.h **** # define LV_COLOR_GET_G32(c) (c).ch.green
 163:Drivers/lvgl/src/draw/sw/../../misc/lv_color.h **** # define LV_COLOR_GET_B32(c) (c).ch.blue
 164:Drivers/lvgl/src/draw/sw/../../misc/lv_color.h **** # define LV_COLOR_GET_A32(c) (c).ch.alpha
 165:Drivers/lvgl/src/draw/sw/../../misc/lv_color.h **** 
 166:Drivers/lvgl/src/draw/sw/../../misc/lv_color.h **** # define _LV_COLOR_ZERO_INITIALIZER32  {{0x00, 0x00, 0x00, 0x00}}
 167:Drivers/lvgl/src/draw/sw/../../misc/lv_color.h **** # define LV_COLOR_MAKE32(r8, g8, b8) {{b8, g8, r8, 0xff}} /*Fix 0xff alpha*/
 168:Drivers/lvgl/src/draw/sw/../../misc/lv_color.h **** 
 169:Drivers/lvgl/src/draw/sw/../../misc/lv_color.h **** /*---------------------------------------
 170:Drivers/lvgl/src/draw/sw/../../misc/lv_color.h ****  * Macros for the current color depth
 171:Drivers/lvgl/src/draw/sw/../../misc/lv_color.h ****  * to set/get values of the color channels
 172:Drivers/lvgl/src/draw/sw/../../misc/lv_color.h ****  *------------------------------------------*/
 173:Drivers/lvgl/src/draw/sw/../../misc/lv_color.h **** #define LV_COLOR_SET_R(c, v) LV_CONCAT(LV_COLOR_SET_R, LV_COLOR_DEPTH)(c, v)
 174:Drivers/lvgl/src/draw/sw/../../misc/lv_color.h **** #define LV_COLOR_SET_G(c, v) LV_CONCAT(LV_COLOR_SET_G, LV_COLOR_DEPTH)(c, v)
 175:Drivers/lvgl/src/draw/sw/../../misc/lv_color.h **** #define LV_COLOR_SET_B(c, v) LV_CONCAT(LV_COLOR_SET_B, LV_COLOR_DEPTH)(c, v)
 176:Drivers/lvgl/src/draw/sw/../../misc/lv_color.h **** #define LV_COLOR_SET_A(c, v) LV_CONCAT(LV_COLOR_SET_A, LV_COLOR_DEPTH)(c, v)
 177:Drivers/lvgl/src/draw/sw/../../misc/lv_color.h **** 
 178:Drivers/lvgl/src/draw/sw/../../misc/lv_color.h **** #define LV_COLOR_GET_R(c) LV_CONCAT(LV_COLOR_GET_R, LV_COLOR_DEPTH)(c)
 179:Drivers/lvgl/src/draw/sw/../../misc/lv_color.h **** #define LV_COLOR_GET_G(c) LV_CONCAT(LV_COLOR_GET_G, LV_COLOR_DEPTH)(c)
 180:Drivers/lvgl/src/draw/sw/../../misc/lv_color.h **** #define LV_COLOR_GET_B(c) LV_CONCAT(LV_COLOR_GET_B, LV_COLOR_DEPTH)(c)
 181:Drivers/lvgl/src/draw/sw/../../misc/lv_color.h **** #define LV_COLOR_GET_A(c) LV_CONCAT(LV_COLOR_GET_A, LV_COLOR_DEPTH)(c)
 182:Drivers/lvgl/src/draw/sw/../../misc/lv_color.h **** 
 183:Drivers/lvgl/src/draw/sw/../../misc/lv_color.h **** #define _LV_COLOR_ZERO_INITIALIZER LV_CONCAT(_LV_COLOR_ZERO_INITIALIZER, LV_COLOR_DEPTH)
 184:Drivers/lvgl/src/draw/sw/../../misc/lv_color.h **** #define LV_COLOR_MAKE(r8, g8, b8) LV_CONCAT(LV_COLOR_MAKE, LV_COLOR_DEPTH)(r8, g8, b8)
 185:Drivers/lvgl/src/draw/sw/../../misc/lv_color.h **** 
 186:Drivers/lvgl/src/draw/sw/../../misc/lv_color.h **** /**********************
 187:Drivers/lvgl/src/draw/sw/../../misc/lv_color.h ****  *      TYPEDEFS
 188:Drivers/lvgl/src/draw/sw/../../misc/lv_color.h ****  **********************/
 189:Drivers/lvgl/src/draw/sw/../../misc/lv_color.h **** 
 190:Drivers/lvgl/src/draw/sw/../../misc/lv_color.h **** typedef union {
 191:Drivers/lvgl/src/draw/sw/../../misc/lv_color.h ****     uint8_t full; /*must be declared first to set all bits of byte via initializer list*/
 192:Drivers/lvgl/src/draw/sw/../../misc/lv_color.h ****     union {
 193:Drivers/lvgl/src/draw/sw/../../misc/lv_color.h ****         uint8_t blue : 1;
 194:Drivers/lvgl/src/draw/sw/../../misc/lv_color.h ****         uint8_t green : 1;
 195:Drivers/lvgl/src/draw/sw/../../misc/lv_color.h ****         uint8_t red : 1;
 196:Drivers/lvgl/src/draw/sw/../../misc/lv_color.h ****     } ch;
 197:Drivers/lvgl/src/draw/sw/../../misc/lv_color.h **** } lv_color1_t;
 198:Drivers/lvgl/src/draw/sw/../../misc/lv_color.h **** 
 199:Drivers/lvgl/src/draw/sw/../../misc/lv_color.h **** typedef union {
 200:Drivers/lvgl/src/draw/sw/../../misc/lv_color.h ****     struct {
 201:Drivers/lvgl/src/draw/sw/../../misc/lv_color.h ****         uint8_t blue : 2;
 202:Drivers/lvgl/src/draw/sw/../../misc/lv_color.h ****         uint8_t green : 3;
ARM GAS  /var/folders/0z/tsy30v1j4xl4_7kw94k978ww0000gn/T//ccBWD9YH.s 			page 42


 203:Drivers/lvgl/src/draw/sw/../../misc/lv_color.h ****         uint8_t red : 3;
 204:Drivers/lvgl/src/draw/sw/../../misc/lv_color.h ****     } ch;
 205:Drivers/lvgl/src/draw/sw/../../misc/lv_color.h ****     uint8_t full;
 206:Drivers/lvgl/src/draw/sw/../../misc/lv_color.h **** } lv_color8_t;
 207:Drivers/lvgl/src/draw/sw/../../misc/lv_color.h **** 
 208:Drivers/lvgl/src/draw/sw/../../misc/lv_color.h **** typedef union {
 209:Drivers/lvgl/src/draw/sw/../../misc/lv_color.h ****     struct {
 210:Drivers/lvgl/src/draw/sw/../../misc/lv_color.h **** #if LV_COLOR_16_SWAP == 0
 211:Drivers/lvgl/src/draw/sw/../../misc/lv_color.h ****         uint16_t blue : 5;
 212:Drivers/lvgl/src/draw/sw/../../misc/lv_color.h ****         uint16_t green : 6;
 213:Drivers/lvgl/src/draw/sw/../../misc/lv_color.h ****         uint16_t red : 5;
 214:Drivers/lvgl/src/draw/sw/../../misc/lv_color.h **** #else
 215:Drivers/lvgl/src/draw/sw/../../misc/lv_color.h ****         uint16_t green_h : 3;
 216:Drivers/lvgl/src/draw/sw/../../misc/lv_color.h ****         uint16_t red : 5;
 217:Drivers/lvgl/src/draw/sw/../../misc/lv_color.h ****         uint16_t blue : 5;
 218:Drivers/lvgl/src/draw/sw/../../misc/lv_color.h ****         uint16_t green_l : 3;
 219:Drivers/lvgl/src/draw/sw/../../misc/lv_color.h **** #endif
 220:Drivers/lvgl/src/draw/sw/../../misc/lv_color.h ****     } ch;
 221:Drivers/lvgl/src/draw/sw/../../misc/lv_color.h ****     uint16_t full;
 222:Drivers/lvgl/src/draw/sw/../../misc/lv_color.h **** } lv_color16_t;
 223:Drivers/lvgl/src/draw/sw/../../misc/lv_color.h **** 
 224:Drivers/lvgl/src/draw/sw/../../misc/lv_color.h **** typedef union {
 225:Drivers/lvgl/src/draw/sw/../../misc/lv_color.h ****     struct {
 226:Drivers/lvgl/src/draw/sw/../../misc/lv_color.h ****         uint8_t blue;
 227:Drivers/lvgl/src/draw/sw/../../misc/lv_color.h ****         uint8_t green;
 228:Drivers/lvgl/src/draw/sw/../../misc/lv_color.h ****         uint8_t red;
 229:Drivers/lvgl/src/draw/sw/../../misc/lv_color.h ****         uint8_t alpha;
 230:Drivers/lvgl/src/draw/sw/../../misc/lv_color.h ****     } ch;
 231:Drivers/lvgl/src/draw/sw/../../misc/lv_color.h ****     uint32_t full;
 232:Drivers/lvgl/src/draw/sw/../../misc/lv_color.h **** } lv_color32_t;
 233:Drivers/lvgl/src/draw/sw/../../misc/lv_color.h **** 
 234:Drivers/lvgl/src/draw/sw/../../misc/lv_color.h **** typedef LV_CONCAT3(uint, LV_COLOR_SIZE, _t) lv_color_int_t;
 235:Drivers/lvgl/src/draw/sw/../../misc/lv_color.h **** typedef LV_CONCAT3(lv_color, LV_COLOR_DEPTH, _t) lv_color_t;
 236:Drivers/lvgl/src/draw/sw/../../misc/lv_color.h **** 
 237:Drivers/lvgl/src/draw/sw/../../misc/lv_color.h **** typedef struct {
 238:Drivers/lvgl/src/draw/sw/../../misc/lv_color.h ****     uint16_t h;
 239:Drivers/lvgl/src/draw/sw/../../misc/lv_color.h ****     uint8_t s;
 240:Drivers/lvgl/src/draw/sw/../../misc/lv_color.h ****     uint8_t v;
 241:Drivers/lvgl/src/draw/sw/../../misc/lv_color.h **** } lv_color_hsv_t;
 242:Drivers/lvgl/src/draw/sw/../../misc/lv_color.h **** 
 243:Drivers/lvgl/src/draw/sw/../../misc/lv_color.h **** //! @cond Doxygen_Suppress
 244:Drivers/lvgl/src/draw/sw/../../misc/lv_color.h **** /*No idea where the guard is required but else throws warnings in the docs*/
 245:Drivers/lvgl/src/draw/sw/../../misc/lv_color.h **** typedef uint8_t lv_opa_t;
 246:Drivers/lvgl/src/draw/sw/../../misc/lv_color.h **** //! @endcond
 247:Drivers/lvgl/src/draw/sw/../../misc/lv_color.h **** 
 248:Drivers/lvgl/src/draw/sw/../../misc/lv_color.h **** struct _lv_color_filter_dsc_t;
 249:Drivers/lvgl/src/draw/sw/../../misc/lv_color.h **** 
 250:Drivers/lvgl/src/draw/sw/../../misc/lv_color.h **** typedef lv_color_t (*lv_color_filter_cb_t)(const struct _lv_color_filter_dsc_t *, lv_color_t, lv_op
 251:Drivers/lvgl/src/draw/sw/../../misc/lv_color.h **** 
 252:Drivers/lvgl/src/draw/sw/../../misc/lv_color.h **** typedef struct _lv_color_filter_dsc_t {
 253:Drivers/lvgl/src/draw/sw/../../misc/lv_color.h ****     lv_color_filter_cb_t filter_cb;
 254:Drivers/lvgl/src/draw/sw/../../misc/lv_color.h ****     void * user_data;
 255:Drivers/lvgl/src/draw/sw/../../misc/lv_color.h **** } lv_color_filter_dsc_t;
 256:Drivers/lvgl/src/draw/sw/../../misc/lv_color.h **** 
 257:Drivers/lvgl/src/draw/sw/../../misc/lv_color.h **** 
 258:Drivers/lvgl/src/draw/sw/../../misc/lv_color.h **** typedef enum {
 259:Drivers/lvgl/src/draw/sw/../../misc/lv_color.h ****     LV_PALETTE_RED,
ARM GAS  /var/folders/0z/tsy30v1j4xl4_7kw94k978ww0000gn/T//ccBWD9YH.s 			page 43


 260:Drivers/lvgl/src/draw/sw/../../misc/lv_color.h ****     LV_PALETTE_PINK,
 261:Drivers/lvgl/src/draw/sw/../../misc/lv_color.h ****     LV_PALETTE_PURPLE,
 262:Drivers/lvgl/src/draw/sw/../../misc/lv_color.h ****     LV_PALETTE_DEEP_PURPLE,
 263:Drivers/lvgl/src/draw/sw/../../misc/lv_color.h ****     LV_PALETTE_INDIGO,
 264:Drivers/lvgl/src/draw/sw/../../misc/lv_color.h ****     LV_PALETTE_BLUE,
 265:Drivers/lvgl/src/draw/sw/../../misc/lv_color.h ****     LV_PALETTE_LIGHT_BLUE,
 266:Drivers/lvgl/src/draw/sw/../../misc/lv_color.h ****     LV_PALETTE_CYAN,
 267:Drivers/lvgl/src/draw/sw/../../misc/lv_color.h ****     LV_PALETTE_TEAL,
 268:Drivers/lvgl/src/draw/sw/../../misc/lv_color.h ****     LV_PALETTE_GREEN,
 269:Drivers/lvgl/src/draw/sw/../../misc/lv_color.h ****     LV_PALETTE_LIGHT_GREEN,
 270:Drivers/lvgl/src/draw/sw/../../misc/lv_color.h ****     LV_PALETTE_LIME,
 271:Drivers/lvgl/src/draw/sw/../../misc/lv_color.h ****     LV_PALETTE_YELLOW,
 272:Drivers/lvgl/src/draw/sw/../../misc/lv_color.h ****     LV_PALETTE_AMBER,
 273:Drivers/lvgl/src/draw/sw/../../misc/lv_color.h ****     LV_PALETTE_ORANGE,
 274:Drivers/lvgl/src/draw/sw/../../misc/lv_color.h ****     LV_PALETTE_DEEP_ORANGE,
 275:Drivers/lvgl/src/draw/sw/../../misc/lv_color.h ****     LV_PALETTE_BROWN,
 276:Drivers/lvgl/src/draw/sw/../../misc/lv_color.h ****     LV_PALETTE_BLUE_GREY,
 277:Drivers/lvgl/src/draw/sw/../../misc/lv_color.h ****     LV_PALETTE_GREY,
 278:Drivers/lvgl/src/draw/sw/../../misc/lv_color.h ****     _LV_PALETTE_LAST,
 279:Drivers/lvgl/src/draw/sw/../../misc/lv_color.h ****     LV_PALETTE_NONE = 0xff,
 280:Drivers/lvgl/src/draw/sw/../../misc/lv_color.h **** } lv_palette_t;
 281:Drivers/lvgl/src/draw/sw/../../misc/lv_color.h **** 
 282:Drivers/lvgl/src/draw/sw/../../misc/lv_color.h **** /**********************
 283:Drivers/lvgl/src/draw/sw/../../misc/lv_color.h ****  * GLOBAL PROTOTYPES
 284:Drivers/lvgl/src/draw/sw/../../misc/lv_color.h ****  **********************/
 285:Drivers/lvgl/src/draw/sw/../../misc/lv_color.h **** 
 286:Drivers/lvgl/src/draw/sw/../../misc/lv_color.h **** /*In color conversations:
 287:Drivers/lvgl/src/draw/sw/../../misc/lv_color.h ****  * - When converting to bigger color type the LSB weight of 1 LSB is calculated
 288:Drivers/lvgl/src/draw/sw/../../misc/lv_color.h ****  *   E.g. 16 bit Red has 5 bits
 289:Drivers/lvgl/src/draw/sw/../../misc/lv_color.h ****  *         8 bit Red has 3 bits
 290:Drivers/lvgl/src/draw/sw/../../misc/lv_color.h ****  *        ----------------------
 291:Drivers/lvgl/src/draw/sw/../../misc/lv_color.h ****  *        8 bit red LSB = (2^5 - 1) / (2^3 - 1) = 31 / 7 = 4
 292:Drivers/lvgl/src/draw/sw/../../misc/lv_color.h ****  *
 293:Drivers/lvgl/src/draw/sw/../../misc/lv_color.h ****  * - When calculating to smaller color type simply shift out the LSBs
 294:Drivers/lvgl/src/draw/sw/../../misc/lv_color.h ****  *   E.g.  8 bit Red has 3 bits
 295:Drivers/lvgl/src/draw/sw/../../misc/lv_color.h ****  *        16 bit Red has 5 bits
 296:Drivers/lvgl/src/draw/sw/../../misc/lv_color.h ****  *        ----------------------
 297:Drivers/lvgl/src/draw/sw/../../misc/lv_color.h ****  *         Shift right with 5 - 3 = 2
 298:Drivers/lvgl/src/draw/sw/../../misc/lv_color.h ****  */
 299:Drivers/lvgl/src/draw/sw/../../misc/lv_color.h **** static inline uint8_t lv_color_to1(lv_color_t color)
 300:Drivers/lvgl/src/draw/sw/../../misc/lv_color.h **** {
 301:Drivers/lvgl/src/draw/sw/../../misc/lv_color.h **** #if LV_COLOR_DEPTH == 1
 302:Drivers/lvgl/src/draw/sw/../../misc/lv_color.h ****     return color.full;
 303:Drivers/lvgl/src/draw/sw/../../misc/lv_color.h **** #elif LV_COLOR_DEPTH == 8
 304:Drivers/lvgl/src/draw/sw/../../misc/lv_color.h ****     if((LV_COLOR_GET_R(color) & 0x4) || (LV_COLOR_GET_G(color) & 0x4) || (LV_COLOR_GET_B(color) & 0
 305:Drivers/lvgl/src/draw/sw/../../misc/lv_color.h ****         return 1;
 306:Drivers/lvgl/src/draw/sw/../../misc/lv_color.h ****     }
 307:Drivers/lvgl/src/draw/sw/../../misc/lv_color.h ****     else {
 308:Drivers/lvgl/src/draw/sw/../../misc/lv_color.h ****         return 0;
 309:Drivers/lvgl/src/draw/sw/../../misc/lv_color.h ****     }
 310:Drivers/lvgl/src/draw/sw/../../misc/lv_color.h **** #elif LV_COLOR_DEPTH == 16
 311:Drivers/lvgl/src/draw/sw/../../misc/lv_color.h ****     if((LV_COLOR_GET_R(color) & 0x10) || (LV_COLOR_GET_G(color) & 0x20) || (LV_COLOR_GET_B(color) &
 312:Drivers/lvgl/src/draw/sw/../../misc/lv_color.h ****         return 1;
 313:Drivers/lvgl/src/draw/sw/../../misc/lv_color.h ****     }
 314:Drivers/lvgl/src/draw/sw/../../misc/lv_color.h ****     else {
 315:Drivers/lvgl/src/draw/sw/../../misc/lv_color.h ****         return 0;
 316:Drivers/lvgl/src/draw/sw/../../misc/lv_color.h ****     }
ARM GAS  /var/folders/0z/tsy30v1j4xl4_7kw94k978ww0000gn/T//ccBWD9YH.s 			page 44


 317:Drivers/lvgl/src/draw/sw/../../misc/lv_color.h **** #elif LV_COLOR_DEPTH == 32
 318:Drivers/lvgl/src/draw/sw/../../misc/lv_color.h ****     if((LV_COLOR_GET_R(color) & 0x80) || (LV_COLOR_GET_G(color) & 0x80) || (LV_COLOR_GET_B(color) &
 319:Drivers/lvgl/src/draw/sw/../../misc/lv_color.h ****         return 1;
 320:Drivers/lvgl/src/draw/sw/../../misc/lv_color.h ****     }
 321:Drivers/lvgl/src/draw/sw/../../misc/lv_color.h ****     else {
 322:Drivers/lvgl/src/draw/sw/../../misc/lv_color.h ****         return 0;
 323:Drivers/lvgl/src/draw/sw/../../misc/lv_color.h ****     }
 324:Drivers/lvgl/src/draw/sw/../../misc/lv_color.h **** #endif
 325:Drivers/lvgl/src/draw/sw/../../misc/lv_color.h **** }
 326:Drivers/lvgl/src/draw/sw/../../misc/lv_color.h **** 
 327:Drivers/lvgl/src/draw/sw/../../misc/lv_color.h **** static inline uint8_t lv_color_to8(lv_color_t color)
 328:Drivers/lvgl/src/draw/sw/../../misc/lv_color.h **** {
 329:Drivers/lvgl/src/draw/sw/../../misc/lv_color.h **** #if LV_COLOR_DEPTH == 1
 330:Drivers/lvgl/src/draw/sw/../../misc/lv_color.h ****     if(color.full == 0)
 331:Drivers/lvgl/src/draw/sw/../../misc/lv_color.h ****         return 0;
 332:Drivers/lvgl/src/draw/sw/../../misc/lv_color.h ****     else
 333:Drivers/lvgl/src/draw/sw/../../misc/lv_color.h ****         return 0xFF;
 334:Drivers/lvgl/src/draw/sw/../../misc/lv_color.h **** #elif LV_COLOR_DEPTH == 8
 335:Drivers/lvgl/src/draw/sw/../../misc/lv_color.h ****     return color.full;
 336:Drivers/lvgl/src/draw/sw/../../misc/lv_color.h **** #elif LV_COLOR_DEPTH == 16
 337:Drivers/lvgl/src/draw/sw/../../misc/lv_color.h ****     lv_color8_t ret;
 338:Drivers/lvgl/src/draw/sw/../../misc/lv_color.h ****     LV_COLOR_SET_R8(ret, LV_COLOR_GET_R(color) >> 2); /*5 - 3  = 2*/
 339:Drivers/lvgl/src/draw/sw/../../misc/lv_color.h ****     LV_COLOR_SET_G8(ret, LV_COLOR_GET_G(color) >> 3); /*6 - 3  = 3*/
 340:Drivers/lvgl/src/draw/sw/../../misc/lv_color.h ****     LV_COLOR_SET_B8(ret, LV_COLOR_GET_B(color) >> 3); /*5 - 2  = 3*/
 341:Drivers/lvgl/src/draw/sw/../../misc/lv_color.h ****     return ret.full;
 342:Drivers/lvgl/src/draw/sw/../../misc/lv_color.h **** #elif LV_COLOR_DEPTH == 32
 343:Drivers/lvgl/src/draw/sw/../../misc/lv_color.h ****     lv_color8_t ret;
 344:Drivers/lvgl/src/draw/sw/../../misc/lv_color.h ****     LV_COLOR_SET_R8(ret, LV_COLOR_GET_R(color) >> 5); /*8 - 3  = 5*/
 345:Drivers/lvgl/src/draw/sw/../../misc/lv_color.h ****     LV_COLOR_SET_G8(ret, LV_COLOR_GET_G(color) >> 5); /*8 - 3  = 5*/
 346:Drivers/lvgl/src/draw/sw/../../misc/lv_color.h ****     LV_COLOR_SET_B8(ret, LV_COLOR_GET_B(color) >> 6); /*8 - 2  = 6*/
 347:Drivers/lvgl/src/draw/sw/../../misc/lv_color.h ****     return ret.full;
 348:Drivers/lvgl/src/draw/sw/../../misc/lv_color.h **** #endif
 349:Drivers/lvgl/src/draw/sw/../../misc/lv_color.h **** }
 350:Drivers/lvgl/src/draw/sw/../../misc/lv_color.h **** 
 351:Drivers/lvgl/src/draw/sw/../../misc/lv_color.h **** static inline uint16_t lv_color_to16(lv_color_t color)
 352:Drivers/lvgl/src/draw/sw/../../misc/lv_color.h **** {
 353:Drivers/lvgl/src/draw/sw/../../misc/lv_color.h **** #if LV_COLOR_DEPTH == 1
 354:Drivers/lvgl/src/draw/sw/../../misc/lv_color.h ****     if(color.full == 0)
 355:Drivers/lvgl/src/draw/sw/../../misc/lv_color.h ****         return 0;
 356:Drivers/lvgl/src/draw/sw/../../misc/lv_color.h ****     else
 357:Drivers/lvgl/src/draw/sw/../../misc/lv_color.h ****         return 0xFFFF;
 358:Drivers/lvgl/src/draw/sw/../../misc/lv_color.h **** #elif LV_COLOR_DEPTH == 8
 359:Drivers/lvgl/src/draw/sw/../../misc/lv_color.h ****     lv_color16_t ret;
 360:Drivers/lvgl/src/draw/sw/../../misc/lv_color.h ****     LV_COLOR_SET_R16(ret, LV_COLOR_GET_R(color) * 4);  /*(2^5 - 1)/(2^3 - 1) = 31/7 = 4*/
 361:Drivers/lvgl/src/draw/sw/../../misc/lv_color.h ****     LV_COLOR_SET_G16(ret, LV_COLOR_GET_G(color) * 9);  /*(2^6 - 1)/(2^3 - 1) = 63/7 = 9*/
 362:Drivers/lvgl/src/draw/sw/../../misc/lv_color.h ****     LV_COLOR_SET_B16(ret, LV_COLOR_GET_B(color) * 10); /*(2^5 - 1)/(2^2 - 1) = 31/3 = 10*/
 363:Drivers/lvgl/src/draw/sw/../../misc/lv_color.h ****     return ret.full;
 364:Drivers/lvgl/src/draw/sw/../../misc/lv_color.h **** #elif LV_COLOR_DEPTH == 16
 365:Drivers/lvgl/src/draw/sw/../../misc/lv_color.h ****     return color.full;
 366:Drivers/lvgl/src/draw/sw/../../misc/lv_color.h **** #elif LV_COLOR_DEPTH == 32
 367:Drivers/lvgl/src/draw/sw/../../misc/lv_color.h ****     lv_color16_t ret;
 368:Drivers/lvgl/src/draw/sw/../../misc/lv_color.h ****     LV_COLOR_SET_R16(ret, LV_COLOR_GET_R(color) >> 3); /*8 - 5  = 3*/
 369:Drivers/lvgl/src/draw/sw/../../misc/lv_color.h ****     LV_COLOR_SET_G16(ret, LV_COLOR_GET_G(color) >> 2); /*8 - 6  = 2*/
 370:Drivers/lvgl/src/draw/sw/../../misc/lv_color.h ****     LV_COLOR_SET_B16(ret, LV_COLOR_GET_B(color) >> 3); /*8 - 5  = 3*/
 371:Drivers/lvgl/src/draw/sw/../../misc/lv_color.h ****     return ret.full;
 372:Drivers/lvgl/src/draw/sw/../../misc/lv_color.h **** #endif
 373:Drivers/lvgl/src/draw/sw/../../misc/lv_color.h **** }
ARM GAS  /var/folders/0z/tsy30v1j4xl4_7kw94k978ww0000gn/T//ccBWD9YH.s 			page 45


 374:Drivers/lvgl/src/draw/sw/../../misc/lv_color.h **** 
 375:Drivers/lvgl/src/draw/sw/../../misc/lv_color.h **** static inline uint32_t lv_color_to32(lv_color_t color)
 376:Drivers/lvgl/src/draw/sw/../../misc/lv_color.h **** {
 377:Drivers/lvgl/src/draw/sw/../../misc/lv_color.h **** #if LV_COLOR_DEPTH == 1
 378:Drivers/lvgl/src/draw/sw/../../misc/lv_color.h ****     if(color.full == 0)
 379:Drivers/lvgl/src/draw/sw/../../misc/lv_color.h ****         return 0xFF000000;
 380:Drivers/lvgl/src/draw/sw/../../misc/lv_color.h ****     else
 381:Drivers/lvgl/src/draw/sw/../../misc/lv_color.h ****         return 0xFFFFFFFF;
 382:Drivers/lvgl/src/draw/sw/../../misc/lv_color.h **** #elif LV_COLOR_DEPTH == 8
 383:Drivers/lvgl/src/draw/sw/../../misc/lv_color.h ****     lv_color32_t ret;
 384:Drivers/lvgl/src/draw/sw/../../misc/lv_color.h ****     LV_COLOR_SET_R32(ret, LV_COLOR_GET_R(color) * 36); /*(2^8 - 1)/(2^3 - 1) = 255/7 = 36*/
 385:Drivers/lvgl/src/draw/sw/../../misc/lv_color.h ****     LV_COLOR_SET_G32(ret, LV_COLOR_GET_G(color) * 36); /*(2^8 - 1)/(2^3 - 1) = 255/7 = 36*/
 386:Drivers/lvgl/src/draw/sw/../../misc/lv_color.h ****     LV_COLOR_SET_B32(ret, LV_COLOR_GET_B(color) * 85); /*(2^8 - 1)/(2^2 - 1) = 255/3 = 85*/
 387:Drivers/lvgl/src/draw/sw/../../misc/lv_color.h ****     LV_COLOR_SET_A32(ret, 0xFF);
 388:Drivers/lvgl/src/draw/sw/../../misc/lv_color.h ****     return ret.full;
 389:Drivers/lvgl/src/draw/sw/../../misc/lv_color.h **** #elif LV_COLOR_DEPTH == 16
 390:Drivers/lvgl/src/draw/sw/../../misc/lv_color.h ****     /**
 391:Drivers/lvgl/src/draw/sw/../../misc/lv_color.h ****      * The floating point math for conversion is:
 392:Drivers/lvgl/src/draw/sw/../../misc/lv_color.h ****      *  valueto = valuefrom * ( (2^bitsto - 1) / (float)(2^bitsfrom - 1) )
 393:Drivers/lvgl/src/draw/sw/../../misc/lv_color.h ****      * The faster integer math for conversion is:
 394:Drivers/lvgl/src/draw/sw/../../misc/lv_color.h ****      *  valueto = ( valuefrom * multiplier + adder ) >> divisor
 395:Drivers/lvgl/src/draw/sw/../../misc/lv_color.h ****      *   multiplier = FLOOR( ( (2^bitsto - 1) << divisor ) / (float)(2^bitsfrom - 1) )
 396:Drivers/lvgl/src/draw/sw/../../misc/lv_color.h ****      *
 397:Drivers/lvgl/src/draw/sw/../../misc/lv_color.h ****      * Find the first divisor where ( adder >> divisor ) <= 0
 398:Drivers/lvgl/src/draw/sw/../../misc/lv_color.h ****      *
 399:Drivers/lvgl/src/draw/sw/../../misc/lv_color.h ****      * 5-bit to 8-bit: ( 31 * multiplier + adder ) >> divisor = 255
 400:Drivers/lvgl/src/draw/sw/../../misc/lv_color.h ****      * divisor  multiplier  adder  min (0)  max (31)
 401:Drivers/lvgl/src/draw/sw/../../misc/lv_color.h ****      *       0           8      7        7       255
 402:Drivers/lvgl/src/draw/sw/../../misc/lv_color.h ****      *       1          16     14        7       255
 403:Drivers/lvgl/src/draw/sw/../../misc/lv_color.h ****      *       2          32     28        7       255
 404:Drivers/lvgl/src/draw/sw/../../misc/lv_color.h ****      *       3          65     25        3       255
 405:Drivers/lvgl/src/draw/sw/../../misc/lv_color.h ****      *       4         131     19        1       255
 406:Drivers/lvgl/src/draw/sw/../../misc/lv_color.h ****      *       5         263      7        0       255
 407:Drivers/lvgl/src/draw/sw/../../misc/lv_color.h ****      *
 408:Drivers/lvgl/src/draw/sw/../../misc/lv_color.h ****      * 6-bit to 8-bit: 255 = ( 63 * multiplier + adder ) >> divisor
 409:Drivers/lvgl/src/draw/sw/../../misc/lv_color.h ****      * divisor  multiplier  adder  min (0)  max (63)
 410:Drivers/lvgl/src/draw/sw/../../misc/lv_color.h ****      *       0           4      3        3       255
 411:Drivers/lvgl/src/draw/sw/../../misc/lv_color.h ****      *       1           8      6        3       255
 412:Drivers/lvgl/src/draw/sw/../../misc/lv_color.h ****      *       2          16     12        3       255
 413:Drivers/lvgl/src/draw/sw/../../misc/lv_color.h ****      *       3          32     24        3       255
 414:Drivers/lvgl/src/draw/sw/../../misc/lv_color.h ****      *       4          64     48        3       255
 415:Drivers/lvgl/src/draw/sw/../../misc/lv_color.h ****      *       5         129     33        1       255
 416:Drivers/lvgl/src/draw/sw/../../misc/lv_color.h ****      *       6         259      3        0       255
 417:Drivers/lvgl/src/draw/sw/../../misc/lv_color.h ****      */
 418:Drivers/lvgl/src/draw/sw/../../misc/lv_color.h **** 
 419:Drivers/lvgl/src/draw/sw/../../misc/lv_color.h ****     lv_color32_t ret;
 420:Drivers/lvgl/src/draw/sw/../../misc/lv_color.h ****     LV_COLOR_SET_R32(ret, (LV_COLOR_GET_R(color) * 263 + 7) >> 5);
 421:Drivers/lvgl/src/draw/sw/../../misc/lv_color.h ****     LV_COLOR_SET_G32(ret, (LV_COLOR_GET_G(color) * 259 + 3) >> 6);
 422:Drivers/lvgl/src/draw/sw/../../misc/lv_color.h ****     LV_COLOR_SET_B32(ret, (LV_COLOR_GET_B(color) * 263 + 7) >> 5);
 423:Drivers/lvgl/src/draw/sw/../../misc/lv_color.h ****     LV_COLOR_SET_A32(ret, 0xFF);
 424:Drivers/lvgl/src/draw/sw/../../misc/lv_color.h ****     return ret.full;
 425:Drivers/lvgl/src/draw/sw/../../misc/lv_color.h **** #elif LV_COLOR_DEPTH == 32
 426:Drivers/lvgl/src/draw/sw/../../misc/lv_color.h ****     return color.full;
 427:Drivers/lvgl/src/draw/sw/../../misc/lv_color.h **** #endif
 428:Drivers/lvgl/src/draw/sw/../../misc/lv_color.h **** }
 429:Drivers/lvgl/src/draw/sw/../../misc/lv_color.h **** 
 430:Drivers/lvgl/src/draw/sw/../../misc/lv_color.h **** //! @cond Doxygen_Suppress
ARM GAS  /var/folders/0z/tsy30v1j4xl4_7kw94k978ww0000gn/T//ccBWD9YH.s 			page 46


 431:Drivers/lvgl/src/draw/sw/../../misc/lv_color.h **** 
 432:Drivers/lvgl/src/draw/sw/../../misc/lv_color.h **** /**
 433:Drivers/lvgl/src/draw/sw/../../misc/lv_color.h ****  * Mix two colors with a given ratio.
 434:Drivers/lvgl/src/draw/sw/../../misc/lv_color.h ****  * @param c1 the first color to mix (usually the foreground)
 435:Drivers/lvgl/src/draw/sw/../../misc/lv_color.h ****  * @param c2 the second color to mix (usually the background)
 436:Drivers/lvgl/src/draw/sw/../../misc/lv_color.h ****  * @param mix The ratio of the colors. 0: full `c2`, 255: full `c1`, 127: half `c1` and half`c2`
 437:Drivers/lvgl/src/draw/sw/../../misc/lv_color.h ****  * @return the mixed color
 438:Drivers/lvgl/src/draw/sw/../../misc/lv_color.h ****  */
 439:Drivers/lvgl/src/draw/sw/../../misc/lv_color.h **** static inline lv_color_t LV_ATTRIBUTE_FAST_MEM lv_color_mix(lv_color_t c1, lv_color_t c2, uint8_t m
 1294              		.loc 2 439 48 is_stmt 1 view .LVU444
 1295              	.LBB36:
 440:Drivers/lvgl/src/draw/sw/../../misc/lv_color.h **** {
 441:Drivers/lvgl/src/draw/sw/../../misc/lv_color.h ****     lv_color_t ret;
 1296              		.loc 2 441 5 view .LVU445
 442:Drivers/lvgl/src/draw/sw/../../misc/lv_color.h **** 
 443:Drivers/lvgl/src/draw/sw/../../misc/lv_color.h **** #if LV_COLOR_DEPTH == 16 && LV_COLOR_MIX_ROUND_OFS == 0
 444:Drivers/lvgl/src/draw/sw/../../misc/lv_color.h **** #if LV_COLOR_16_SWAP == 1
 445:Drivers/lvgl/src/draw/sw/../../misc/lv_color.h ****     c1.full = c1.full << 8 | c1.full >> 8;
 1297              		.loc 2 445 5 view .LVU446
 1298              		.loc 2 445 17 is_stmt 0 view .LVU447
 1299 0270 90B2     		uxth	r0, r2
 1300              		.loc 2 445 28 view .LVU448
 1301 0272 C2F30722 		ubfx	r2, r2, #8, #8
 1302              	.LVL157:
 1303              		.loc 2 445 28 view .LVU449
 1304 0276 42EA0020 		orr	r0, r2, r0, lsl #8
 1305 027a 86B2     		uxth	r6, r0
 446:Drivers/lvgl/src/draw/sw/../../misc/lv_color.h ****     c2.full = c2.full << 8 | c2.full >> 8;
 1306              		.loc 2 446 5 is_stmt 1 view .LVU450
 1307              		.loc 2 446 17 is_stmt 0 view .LVU451
 1308 027c AAB2     		uxth	r2, r5
 1309              		.loc 2 446 28 view .LVU452
 1310 027e C5F30725 		ubfx	r5, r5, #8, #8
 1311              	.LVL158:
 1312              		.loc 2 446 28 view .LVU453
 1313 0282 45EA0225 		orr	r5, r5, r2, lsl #8
 1314 0286 AAB2     		uxth	r2, r5
 447:Drivers/lvgl/src/draw/sw/../../misc/lv_color.h **** #endif
 448:Drivers/lvgl/src/draw/sw/../../misc/lv_color.h ****     /*Source: https://stackoverflow.com/a/50012418/1999969*/
 449:Drivers/lvgl/src/draw/sw/../../misc/lv_color.h ****     mix = (uint32_t)((uint32_t)mix + 4) >> 3;
 1315              		.loc 2 449 5 is_stmt 1 view .LVU454
 1316              		.loc 2 449 11 is_stmt 0 view .LVU455
 1317 0288 0431     		adds	r1, r1, #4
 1318              	.LVL159:
 450:Drivers/lvgl/src/draw/sw/../../misc/lv_color.h ****     uint32_t bg = (uint32_t)((uint32_t)c2.full | ((uint32_t)c2.full << 16)) &
 1319              		.loc 2 450 5 is_stmt 1 view .LVU456
 1320              		.loc 2 450 19 is_stmt 0 view .LVU457
 1321 028a 42EA0542 		orr	r2, r2, r5, lsl #16
 1322              		.loc 2 450 14 view .LVU458
 1323 028e 5A4D     		ldr	r5, .L88
 1324 0290 2A40     		ands	r2, r2, r5
 1325              	.LVL160:
 451:Drivers/lvgl/src/draw/sw/../../misc/lv_color.h ****                   0x7E0F81F; /*0b00000111111000001111100000011111*/
 452:Drivers/lvgl/src/draw/sw/../../misc/lv_color.h ****     uint32_t fg = (uint32_t)((uint32_t)c1.full | ((uint32_t)c1.full << 16)) & 0x7E0F81F;
 1326              		.loc 2 452 5 is_stmt 1 view .LVU459
 1327              		.loc 2 452 19 is_stmt 0 view .LVU460
 1328 0292 46EA0040 		orr	r0, r6, r0, lsl #16
ARM GAS  /var/folders/0z/tsy30v1j4xl4_7kw94k978ww0000gn/T//ccBWD9YH.s 			page 47


 1329              		.loc 2 452 14 view .LVU461
 1330 0296 2840     		ands	r0, r0, r5
 1331              	.LVL161:
 453:Drivers/lvgl/src/draw/sw/../../misc/lv_color.h ****     uint32_t result = ((((fg - bg) * mix) >> 5) + bg) & 0x7E0F81F;
 1332              		.loc 2 453 5 is_stmt 1 view .LVU462
 1333              		.loc 2 453 30 is_stmt 0 view .LVU463
 1334 0298 801A     		subs	r0, r0, r2
 1335              	.LVL162:
 1336              		.loc 2 453 36 view .LVU464
 1337 029a C908     		lsrs	r1, r1, #3
 1338              	.LVL163:
 1339              		.loc 2 453 36 view .LVU465
 1340 029c 00FB01F1 		mul	r1, r0, r1
 1341              		.loc 2 453 49 view .LVU466
 1342 02a0 02EB5111 		add	r1, r2, r1, lsr #5
 1343              		.loc 2 453 14 view .LVU467
 1344 02a4 2940     		ands	r1, r1, r5
 1345              	.LVL164:
 454:Drivers/lvgl/src/draw/sw/../../misc/lv_color.h ****     ret.full = (uint16_t)((result >> 16) | result);
 1346              		.loc 2 454 5 is_stmt 1 view .LVU468
 1347              		.loc 2 454 16 is_stmt 0 view .LVU469
 1348 02a6 41EA1141 		orr	r1, r1, r1, lsr #16
 1349              	.LVL165:
 1350              		.loc 2 454 16 view .LVU470
 1351 02aa 88B2     		uxth	r0, r1
 1352              	.LVL166:
 455:Drivers/lvgl/src/draw/sw/../../misc/lv_color.h **** #if LV_COLOR_16_SWAP == 1
 456:Drivers/lvgl/src/draw/sw/../../misc/lv_color.h ****     ret.full = ret.full << 8 | ret.full >> 8;
 1353              		.loc 2 456 5 is_stmt 1 view .LVU471
 1354              		.loc 2 456 30 is_stmt 0 view .LVU472
 1355 02ac C1F30721 		ubfx	r1, r1, #8, #8
 1356 02b0 41EA0027 		orr	r7, r1, r0, lsl #8
 1357 02b4 B9B2     		uxth	r1, r7
 1358 02b6 0391     		str	r1, [sp, #12]
 1359              	.LVL167:
 457:Drivers/lvgl/src/draw/sw/../../misc/lv_color.h **** #endif
 458:Drivers/lvgl/src/draw/sw/../../misc/lv_color.h **** #elif LV_COLOR_DEPTH != 1
 459:Drivers/lvgl/src/draw/sw/../../misc/lv_color.h ****     /*LV_COLOR_DEPTH == 8, 16 or 32*/
 460:Drivers/lvgl/src/draw/sw/../../misc/lv_color.h ****     LV_COLOR_SET_R(ret, LV_UDIV255((uint16_t)LV_COLOR_GET_R(c1) * mix + LV_COLOR_GET_R(c2) *
 461:Drivers/lvgl/src/draw/sw/../../misc/lv_color.h ****                                    (255 - mix) + LV_COLOR_MIX_ROUND_OFS));
 462:Drivers/lvgl/src/draw/sw/../../misc/lv_color.h ****     LV_COLOR_SET_G(ret, LV_UDIV255((uint16_t)LV_COLOR_GET_G(c1) * mix + LV_COLOR_GET_G(c2) *
 463:Drivers/lvgl/src/draw/sw/../../misc/lv_color.h ****                                    (255 - mix) + LV_COLOR_MIX_ROUND_OFS));
 464:Drivers/lvgl/src/draw/sw/../../misc/lv_color.h ****     LV_COLOR_SET_B(ret, LV_UDIV255((uint16_t)LV_COLOR_GET_B(c1) * mix + LV_COLOR_GET_B(c2) *
 465:Drivers/lvgl/src/draw/sw/../../misc/lv_color.h ****                                    (255 - mix) + LV_COLOR_MIX_ROUND_OFS));
 466:Drivers/lvgl/src/draw/sw/../../misc/lv_color.h ****     LV_COLOR_SET_A(ret, 0xFF);
 467:Drivers/lvgl/src/draw/sw/../../misc/lv_color.h **** #else
 468:Drivers/lvgl/src/draw/sw/../../misc/lv_color.h ****     /*LV_COLOR_DEPTH == 1*/
 469:Drivers/lvgl/src/draw/sw/../../misc/lv_color.h ****     ret.full = mix > LV_OPA_50 ? c1.full : c2.full;
 470:Drivers/lvgl/src/draw/sw/../../misc/lv_color.h **** #endif
 471:Drivers/lvgl/src/draw/sw/../../misc/lv_color.h **** 
 472:Drivers/lvgl/src/draw/sw/../../misc/lv_color.h ****     return ret;
 1360              		.loc 2 472 5 is_stmt 1 view .LVU473
 1361              		.loc 2 472 5 is_stmt 0 view .LVU474
 1362              	.LBE36:
 1363              	.LBE35:
 426:Drivers/lvgl/src/draw/sw/lv_draw_sw_transform.c ****                 cbuf[x] = lv_color_mix(c_hor, c_ver, LV_OPA_50);
 1364              		.loc 1 426 17 is_stmt 1 view .LVU475
ARM GAS  /var/folders/0z/tsy30v1j4xl4_7kw94k978ww0000gn/T//ccBWD9YH.s 			page 48


 426:Drivers/lvgl/src/draw/sw/lv_draw_sw_transform.c ****                 cbuf[x] = lv_color_mix(c_hor, c_ver, LV_OPA_50);
 1365              		.loc 1 426 25 is_stmt 0 view .LVU476
 1366 02b8 9DF82000 		ldrb	r0, [sp, #32]	@ zero_extendqisi2
 1367              	.LVL168:
 1368              	.LBB37:
 1369              	.LBI37:
 439:Drivers/lvgl/src/draw/sw/../../misc/lv_color.h **** {
 1370              		.loc 2 439 48 is_stmt 1 view .LVU477
 1371              	.LBB38:
 441:Drivers/lvgl/src/draw/sw/../../misc/lv_color.h **** 
 1372              		.loc 2 441 5 view .LVU478
 445:Drivers/lvgl/src/draw/sw/../../misc/lv_color.h ****     c2.full = c2.full << 8 | c2.full >> 8;
 1373              		.loc 2 445 5 view .LVU479
 445:Drivers/lvgl/src/draw/sw/../../misc/lv_color.h ****     c2.full = c2.full << 8 | c2.full >> 8;
 1374              		.loc 2 445 17 is_stmt 0 view .LVU480
 1375 02bc 1FFA8EF6 		uxth	r6, lr
 445:Drivers/lvgl/src/draw/sw/../../misc/lv_color.h ****     c2.full = c2.full << 8 | c2.full >> 8;
 1376              		.loc 2 445 28 view .LVU481
 1377 02c0 CEF30721 		ubfx	r1, lr, #8, #8
 1378 02c4 41EA0621 		orr	r1, r1, r6, lsl #8
 1379 02c8 8EB2     		uxth	r6, r1
 446:Drivers/lvgl/src/draw/sw/../../misc/lv_color.h **** #endif
 1380              		.loc 2 446 5 is_stmt 1 view .LVU482
 449:Drivers/lvgl/src/draw/sw/../../misc/lv_color.h ****     uint32_t bg = (uint32_t)((uint32_t)c2.full | ((uint32_t)c2.full << 16)) &
 1381              		.loc 2 449 5 view .LVU483
 449:Drivers/lvgl/src/draw/sw/../../misc/lv_color.h ****     uint32_t bg = (uint32_t)((uint32_t)c2.full | ((uint32_t)c2.full << 16)) &
 1382              		.loc 2 449 11 is_stmt 0 view .LVU484
 1383 02ca 0430     		adds	r0, r0, #4
 1384              	.LVL169:
 450:Drivers/lvgl/src/draw/sw/../../misc/lv_color.h ****                   0x7E0F81F; /*0b00000111111000001111100000011111*/
 1385              		.loc 2 450 5 is_stmt 1 view .LVU485
 452:Drivers/lvgl/src/draw/sw/../../misc/lv_color.h ****     uint32_t result = ((((fg - bg) * mix) >> 5) + bg) & 0x7E0F81F;
 1386              		.loc 2 452 5 view .LVU486
 452:Drivers/lvgl/src/draw/sw/../../misc/lv_color.h ****     uint32_t result = ((((fg - bg) * mix) >> 5) + bg) & 0x7E0F81F;
 1387              		.loc 2 452 19 is_stmt 0 view .LVU487
 1388 02cc 46EA0141 		orr	r1, r6, r1, lsl #16
 452:Drivers/lvgl/src/draw/sw/../../misc/lv_color.h ****     uint32_t result = ((((fg - bg) * mix) >> 5) + bg) & 0x7E0F81F;
 1389              		.loc 2 452 14 view .LVU488
 1390 02d0 2940     		ands	r1, r1, r5
 1391              	.LVL170:
 453:Drivers/lvgl/src/draw/sw/../../misc/lv_color.h ****     ret.full = (uint16_t)((result >> 16) | result);
 1392              		.loc 2 453 5 is_stmt 1 view .LVU489
 453:Drivers/lvgl/src/draw/sw/../../misc/lv_color.h ****     ret.full = (uint16_t)((result >> 16) | result);
 1393              		.loc 2 453 30 is_stmt 0 view .LVU490
 1394 02d2 891A     		subs	r1, r1, r2
 1395              	.LVL171:
 453:Drivers/lvgl/src/draw/sw/../../misc/lv_color.h ****     ret.full = (uint16_t)((result >> 16) | result);
 1396              		.loc 2 453 36 view .LVU491
 1397 02d4 C008     		lsrs	r0, r0, #3
 1398              	.LVL172:
 453:Drivers/lvgl/src/draw/sw/../../misc/lv_color.h ****     ret.full = (uint16_t)((result >> 16) | result);
 1399              		.loc 2 453 36 view .LVU492
 1400 02d6 01FB00F0 		mul	r0, r1, r0
 453:Drivers/lvgl/src/draw/sw/../../misc/lv_color.h ****     ret.full = (uint16_t)((result >> 16) | result);
 1401              		.loc 2 453 49 view .LVU493
 1402 02da 02EB5012 		add	r2, r2, r0, lsr #5
 1403              	.LVL173:
ARM GAS  /var/folders/0z/tsy30v1j4xl4_7kw94k978ww0000gn/T//ccBWD9YH.s 			page 49


 453:Drivers/lvgl/src/draw/sw/../../misc/lv_color.h ****     ret.full = (uint16_t)((result >> 16) | result);
 1404              		.loc 2 453 14 view .LVU494
 1405 02de 2A40     		ands	r2, r2, r5
 1406              	.LVL174:
 454:Drivers/lvgl/src/draw/sw/../../misc/lv_color.h **** #if LV_COLOR_16_SWAP == 1
 1407              		.loc 2 454 5 is_stmt 1 view .LVU495
 454:Drivers/lvgl/src/draw/sw/../../misc/lv_color.h **** #if LV_COLOR_16_SWAP == 1
 1408              		.loc 2 454 16 is_stmt 0 view .LVU496
 1409 02e0 42EA1242 		orr	r2, r2, r2, lsr #16
 1410              	.LVL175:
 454:Drivers/lvgl/src/draw/sw/../../misc/lv_color.h **** #if LV_COLOR_16_SWAP == 1
 1411              		.loc 2 454 16 view .LVU497
 1412 02e4 91B2     		uxth	r1, r2
 456:Drivers/lvgl/src/draw/sw/../../misc/lv_color.h **** #endif
 1413              		.loc 2 456 5 is_stmt 1 view .LVU498
 456:Drivers/lvgl/src/draw/sw/../../misc/lv_color.h **** #endif
 1414              		.loc 2 456 30 is_stmt 0 view .LVU499
 1415 02e6 C2F30722 		ubfx	r2, r2, #8, #8
 1416 02ea 42EA0122 		orr	r2, r2, r1, lsl #8
 1417 02ee 91B2     		uxth	r1, r2
 1418              		.loc 2 472 5 is_stmt 1 view .LVU500
 1419              	.LVL176:
 1420              		.loc 2 472 5 is_stmt 0 view .LVU501
 1421              	.LBE38:
 1422              	.LBE37:
 427:Drivers/lvgl/src/draw/sw/lv_draw_sw_transform.c ****             }
 1423              		.loc 1 427 17 is_stmt 1 view .LVU502
 1424              	.LBB39:
 1425              	.LBI39:
 439:Drivers/lvgl/src/draw/sw/../../misc/lv_color.h **** {
 1426              		.loc 2 439 48 view .LVU503
 1427              	.LBB40:
 441:Drivers/lvgl/src/draw/sw/../../misc/lv_color.h **** 
 1428              		.loc 2 441 5 view .LVU504
 445:Drivers/lvgl/src/draw/sw/../../misc/lv_color.h ****     c2.full = c2.full << 8 | c2.full >> 8;
 1429              		.loc 2 445 5 view .LVU505
 445:Drivers/lvgl/src/draw/sw/../../misc/lv_color.h ****     c2.full = c2.full << 8 | c2.full >> 8;
 1430              		.loc 2 445 28 is_stmt 0 view .LVU506
 1431 02f0 C2F30722 		ubfx	r2, r2, #8, #8
 1432 02f4 42EA0122 		orr	r2, r2, r1, lsl #8
 1433 02f8 90B2     		uxth	r0, r2
 446:Drivers/lvgl/src/draw/sw/../../misc/lv_color.h **** #endif
 1434              		.loc 2 446 5 is_stmt 1 view .LVU507
 446:Drivers/lvgl/src/draw/sw/../../misc/lv_color.h **** #endif
 1435              		.loc 2 446 28 is_stmt 0 view .LVU508
 1436 02fa C7F30726 		ubfx	r6, r7, #8, #8
 1437 02fe 0399     		ldr	r1, [sp, #12]
 1438 0300 46EA0126 		orr	r6, r6, r1, lsl #8
 1439 0304 B1B2     		uxth	r1, r6
 449:Drivers/lvgl/src/draw/sw/../../misc/lv_color.h ****     uint32_t bg = (uint32_t)((uint32_t)c2.full | ((uint32_t)c2.full << 16)) &
 1440              		.loc 2 449 5 is_stmt 1 view .LVU509
 1441              	.LVL177:
 450:Drivers/lvgl/src/draw/sw/../../misc/lv_color.h ****                   0x7E0F81F; /*0b00000111111000001111100000011111*/
 1442              		.loc 2 450 5 view .LVU510
 450:Drivers/lvgl/src/draw/sw/../../misc/lv_color.h ****                   0x7E0F81F; /*0b00000111111000001111100000011111*/
 1443              		.loc 2 450 19 is_stmt 0 view .LVU511
 1444 0306 41EA0641 		orr	r1, r1, r6, lsl #16
ARM GAS  /var/folders/0z/tsy30v1j4xl4_7kw94k978ww0000gn/T//ccBWD9YH.s 			page 50


 450:Drivers/lvgl/src/draw/sw/../../misc/lv_color.h ****                   0x7E0F81F; /*0b00000111111000001111100000011111*/
 1445              		.loc 2 450 14 view .LVU512
 1446 030a 2940     		ands	r1, r1, r5
 1447              	.LVL178:
 452:Drivers/lvgl/src/draw/sw/../../misc/lv_color.h ****     uint32_t result = ((((fg - bg) * mix) >> 5) + bg) & 0x7E0F81F;
 1448              		.loc 2 452 5 is_stmt 1 view .LVU513
 452:Drivers/lvgl/src/draw/sw/../../misc/lv_color.h ****     uint32_t result = ((((fg - bg) * mix) >> 5) + bg) & 0x7E0F81F;
 1449              		.loc 2 452 19 is_stmt 0 view .LVU514
 1450 030c 40EA0242 		orr	r2, r0, r2, lsl #16
 452:Drivers/lvgl/src/draw/sw/../../misc/lv_color.h ****     uint32_t result = ((((fg - bg) * mix) >> 5) + bg) & 0x7E0F81F;
 1451              		.loc 2 452 14 view .LVU515
 1452 0310 2A40     		ands	r2, r2, r5
 1453              	.LVL179:
 453:Drivers/lvgl/src/draw/sw/../../misc/lv_color.h ****     ret.full = (uint16_t)((result >> 16) | result);
 1454              		.loc 2 453 5 is_stmt 1 view .LVU516
 453:Drivers/lvgl/src/draw/sw/../../misc/lv_color.h ****     ret.full = (uint16_t)((result >> 16) | result);
 1455              		.loc 2 453 30 is_stmt 0 view .LVU517
 1456 0312 521A     		subs	r2, r2, r1
 1457              	.LVL180:
 453:Drivers/lvgl/src/draw/sw/../../misc/lv_color.h ****     ret.full = (uint16_t)((result >> 16) | result);
 1458              		.loc 2 453 43 view .LVU518
 1459 0314 C2F35A02 		ubfx	r2, r2, #1, #27
 453:Drivers/lvgl/src/draw/sw/../../misc/lv_color.h ****     ret.full = (uint16_t)((result >> 16) | result);
 1460              		.loc 2 453 49 view .LVU519
 1461 0318 1144     		add	r1, r1, r2
 1462              	.LVL181:
 453:Drivers/lvgl/src/draw/sw/../../misc/lv_color.h ****     ret.full = (uint16_t)((result >> 16) | result);
 1463              		.loc 2 453 14 view .LVU520
 1464 031a 01EA0502 		and	r2, r1, r5
 1465              	.LVL182:
 454:Drivers/lvgl/src/draw/sw/../../misc/lv_color.h **** #if LV_COLOR_16_SWAP == 1
 1466              		.loc 2 454 5 is_stmt 1 view .LVU521
 454:Drivers/lvgl/src/draw/sw/../../misc/lv_color.h **** #if LV_COLOR_16_SWAP == 1
 1467              		.loc 2 454 16 is_stmt 0 view .LVU522
 1468 031e 42EA1242 		orr	r2, r2, r2, lsr #16
 1469              	.LVL183:
 454:Drivers/lvgl/src/draw/sw/../../misc/lv_color.h **** #if LV_COLOR_16_SWAP == 1
 1470              		.loc 2 454 16 view .LVU523
 1471 0322 91B2     		uxth	r1, r2
 1472              	.LVL184:
 456:Drivers/lvgl/src/draw/sw/../../misc/lv_color.h **** #endif
 1473              		.loc 2 456 5 is_stmt 1 view .LVU524
 456:Drivers/lvgl/src/draw/sw/../../misc/lv_color.h **** #endif
 1474              		.loc 2 456 30 is_stmt 0 view .LVU525
 1475 0324 C2F30722 		ubfx	r2, r2, #8, #8
 1476 0328 42EA0122 		orr	r2, r2, r1, lsl #8
 1477              		.loc 2 472 5 is_stmt 1 view .LVU526
 1478              	.LVL185:
 1479              		.loc 2 472 5 is_stmt 0 view .LVU527
 1480              	.LBE40:
 1481              	.LBE39:
 427:Drivers/lvgl/src/draw/sw/lv_draw_sw_transform.c ****             }
 1482              		.loc 1 427 27 view .LVU528
 1483 032c 1F99     		ldr	r1, [sp, #124]
 1484 032e 21F81320 		strh	r2, [r1, r3, lsl #1]	@ movhi
 1485              	.LBE41:
 348:Drivers/lvgl/src/draw/sw/lv_draw_sw_transform.c **** 
ARM GAS  /var/folders/0z/tsy30v1j4xl4_7kw94k978ww0000gn/T//ccBWD9YH.s 			page 51


 1486              		.loc 1 348 42 view .LVU529
 1487 0332 B3E6     		b	.L45
 1488              	.LVL186:
 1489              	.L83:
 1490              	.LBB42:
 421:Drivers/lvgl/src/draw/sw/lv_draw_sw_transform.c ****                 cbuf[x] = c_base;
 1491              		.loc 1 421 65 discriminator 1 view .LVU530
 1492 0334 1FFA8EF0 		uxth	r0, lr
 421:Drivers/lvgl/src/draw/sw/lv_draw_sw_transform.c ****                 cbuf[x] = c_base;
 1493              		.loc 1 421 42 discriminator 1 view .LVU531
 1494 0338 8142     		cmp	r1, r0
 1495 033a 97D1     		bne	.L60
 422:Drivers/lvgl/src/draw/sw/lv_draw_sw_transform.c ****             }
 1496              		.loc 1 422 17 is_stmt 1 view .LVU532
 422:Drivers/lvgl/src/draw/sw/lv_draw_sw_transform.c ****             }
 1497              		.loc 1 422 25 is_stmt 0 view .LVU533
 1498 033c 1F9A     		ldr	r2, [sp, #124]
 1499              	.LVL187:
 422:Drivers/lvgl/src/draw/sw/lv_draw_sw_transform.c ****             }
 1500              		.loc 1 422 25 view .LVU534
 1501 033e 22F81350 		strh	r5, [r2, r3, lsl #1]	@ movhi
 1502 0342 ABE6     		b	.L45
 1503              	.LVL188:
 1504              	.L50:
 422:Drivers/lvgl/src/draw/sw/lv_draw_sw_transform.c ****             }
 1505              		.loc 1 422 25 view .LVU535
 1506              	.LBE42:
 1507              	.LBB43:
 435:Drivers/lvgl/src/draw/sw/lv_draw_sw_transform.c **** #elif LV_COLOR_DEPTH == 32
 1508              		.loc 1 435 13 is_stmt 1 view .LVU536
 435:Drivers/lvgl/src/draw/sw/lv_draw_sw_transform.c **** #elif LV_COLOR_DEPTH == 32
 1509              		.loc 1 435 35 is_stmt 0 view .LVU537
 1510 0344 029E     		ldr	r6, [sp, #8]
 1511 0346 305C     		ldrb	r0, [r6, r0]	@ zero_extendqisi2
 435:Drivers/lvgl/src/draw/sw/lv_draw_sw_transform.c **** #elif LV_COLOR_DEPTH == 32
 1512              		.loc 1 435 49 view .LVU538
 1513 0348 039E     		ldr	r6, [sp, #12]
 1514 034a 96F801E0 		ldrb	lr, [r6, #1]	@ zero_extendqisi2
 435:Drivers/lvgl/src/draw/sw/lv_draw_sw_transform.c **** #elif LV_COLOR_DEPTH == 32
 1515              		.loc 1 435 17 view .LVU539
 1516 034e 0593     		str	r3, [sp, #20]
 435:Drivers/lvgl/src/draw/sw/lv_draw_sw_transform.c **** #elif LV_COLOR_DEPTH == 32
 1517              		.loc 1 435 39 view .LVU540
 1518 0350 00EB0E20 		add	r0, r0, lr, lsl #8
 1519 0354 80B2     		uxth	r0, r0
 435:Drivers/lvgl/src/draw/sw/lv_draw_sw_transform.c **** #elif LV_COLOR_DEPTH == 32
 1520              		.loc 1 435 26 view .LVU541
 1521 0356 1F9E     		ldr	r6, [sp, #124]
 1522 0358 26F81300 		strh	r0, [r6, r3, lsl #1]	@ movhi
 439:Drivers/lvgl/src/draw/sw/lv_draw_sw_transform.c ****             switch(cf) {
 1523              		.loc 1 439 13 is_stmt 1 view .LVU542
 440:Drivers/lvgl/src/draw/sw/lv_draw_sw_transform.c ****                 case LV_IMG_CF_TRUE_COLOR_ALPHA:
 1524              		.loc 1 440 13 view .LVU543
 1525 035c 079F     		ldr	r7, [sp, #28]
 1526 035e 062F     		cmp	r7, #6
 1527 0360 1BD0     		beq	.L62
 440:Drivers/lvgl/src/draw/sw/lv_draw_sw_transform.c ****                 case LV_IMG_CF_TRUE_COLOR_ALPHA:
ARM GAS  /var/folders/0z/tsy30v1j4xl4_7kw94k978ww0000gn/T//ccBWD9YH.s 			page 52


 1528              		.loc 1 440 13 is_stmt 0 view .LVU544
 1529 0362 142F     		cmp	r7, #20
 1530 0364 21D0     		beq	.L63
 1531 0366 052F     		cmp	r7, #5
 1532 0368 14D0     		beq	.L84
 1533 036a FF20     		movs	r0, #255
 1534              	.L64:
 1535              	.LVL189:
 456:Drivers/lvgl/src/draw/sw/lv_draw_sw_transform.c ****                 abuf[x] = (a * (0xFF - xs_fract)) >> 8;
 1536              		.loc 1 456 13 is_stmt 1 view .LVU545
 456:Drivers/lvgl/src/draw/sw/lv_draw_sw_transform.c ****                 abuf[x] = (a * (0xFF - xs_fract)) >> 8;
 1537              		.loc 1 456 15 is_stmt 0 view .LVU546
 1538 036c 0AB9     		cbnz	r2, .L65
 456:Drivers/lvgl/src/draw/sw/lv_draw_sw_transform.c ****                 abuf[x] = (a * (0xFF - xs_fract)) >> 8;
 1539              		.loc 1 456 29 discriminator 1 view .LVU547
 1540 036e 002D     		cmp	r5, #0
 1541 0370 28DB     		blt	.L66
 1542              	.L65:
 456:Drivers/lvgl/src/draw/sw/lv_draw_sw_transform.c ****                 abuf[x] = (a * (0xFF - xs_fract)) >> 8;
 1543              		.loc 1 456 64 discriminator 3 view .LVU548
 1544 0372 09F1FF36 		add	r6, r9, #-1
 456:Drivers/lvgl/src/draw/sw/lv_draw_sw_transform.c ****                 abuf[x] = (a * (0xFF - xs_fract)) >> 8;
 1545              		.loc 1 456 44 discriminator 3 view .LVU549
 1546 0376 9642     		cmp	r6, r2
 1547 0378 22D0     		beq	.L85
 1548              	.L67:
 459:Drivers/lvgl/src/draw/sw/lv_draw_sw_transform.c ****                 abuf[x] = (a * (0xFF - ys_fract)) >> 8;
 1549              		.loc 1 459 18 is_stmt 1 view .LVU550
 459:Drivers/lvgl/src/draw/sw/lv_draw_sw_transform.c ****                 abuf[x] = (a * (0xFF - ys_fract)) >> 8;
 1550              		.loc 1 459 20 is_stmt 0 view .LVU551
 1551 037a 11B9     		cbnz	r1, .L68
 459:Drivers/lvgl/src/draw/sw/lv_draw_sw_transform.c ****                 abuf[x] = (a * (0xFF - ys_fract)) >> 8;
 1552              		.loc 1 459 34 discriminator 1 view .LVU552
 1553 037c 069A     		ldr	r2, [sp, #24]
 1554              	.LVL190:
 459:Drivers/lvgl/src/draw/sw/lv_draw_sw_transform.c ****                 abuf[x] = (a * (0xFF - ys_fract)) >> 8;
 1555              		.loc 1 459 34 discriminator 1 view .LVU553
 1556 037e 002A     		cmp	r2, #0
 1557 0380 2DDB     		blt	.L69
 1558              	.L68:
 459:Drivers/lvgl/src/draw/sw/lv_draw_sw_transform.c ****                 abuf[x] = (a * (0xFF - ys_fract)) >> 8;
 1559              		.loc 1 459 69 discriminator 3 view .LVU554
 1560 0382 019A     		ldr	r2, [sp, #4]
 1561 0384 013A     		subs	r2, r2, #1
 459:Drivers/lvgl/src/draw/sw/lv_draw_sw_transform.c ****                 abuf[x] = (a * (0xFF - ys_fract)) >> 8;
 1562              		.loc 1 459 49 discriminator 3 view .LVU555
 1563 0386 8A42     		cmp	r2, r1
 1564 0388 26D0     		beq	.L86
 1565              	.L70:
 463:Drivers/lvgl/src/draw/sw/lv_draw_sw_transform.c ****             }
 1566              		.loc 1 463 17 is_stmt 1 view .LVU556
 463:Drivers/lvgl/src/draw/sw/lv_draw_sw_transform.c ****             }
 1567              		.loc 1 463 25 is_stmt 0 view .LVU557
 1568 038a 0022     		movs	r2, #0
 1569 038c 2099     		ldr	r1, [sp, #128]
 1570              	.LVL191:
 463:Drivers/lvgl/src/draw/sw/lv_draw_sw_transform.c ****             }
ARM GAS  /var/folders/0z/tsy30v1j4xl4_7kw94k978ww0000gn/T//ccBWD9YH.s 			page 53


 1571              		.loc 1 463 25 view .LVU558
 1572 038e 0598     		ldr	r0, [sp, #20]
 1573              	.LVL192:
 463:Drivers/lvgl/src/draw/sw/lv_draw_sw_transform.c ****             }
 1574              		.loc 1 463 25 view .LVU559
 1575 0390 0A54     		strb	r2, [r1, r0]
 1576 0392 83E6     		b	.L45
 1577              	.LVL193:
 1578              	.L84:
 442:Drivers/lvgl/src/draw/sw/lv_draw_sw_transform.c ****                     break;
 1579              		.loc 1 442 21 is_stmt 1 view .LVU560
 442:Drivers/lvgl/src/draw/sw/lv_draw_sw_transform.c ****                     break;
 1580              		.loc 1 442 23 is_stmt 0 view .LVU561
 1581 0394 0398     		ldr	r0, [sp, #12]
 1582 0396 8078     		ldrb	r0, [r0, #2]	@ zero_extendqisi2
 1583              	.LVL194:
 443:Drivers/lvgl/src/draw/sw/lv_draw_sw_transform.c ****                 case LV_IMG_CF_TRUE_COLOR_CHROMA_KEYED:
 1584              		.loc 1 443 21 is_stmt 1 view .LVU562
 1585 0398 E8E7     		b	.L64
 1586              	.LVL195:
 1587              	.L62:
 445:Drivers/lvgl/src/draw/sw/lv_draw_sw_transform.c ****                     break;
 1588              		.loc 1 445 21 view .LVU563
 445:Drivers/lvgl/src/draw/sw/lv_draw_sw_transform.c ****                     break;
 1589              		.loc 1 445 43 is_stmt 0 view .LVU564
 1590 039a BDF83260 		ldrh	r6, [sp, #50]
 445:Drivers/lvgl/src/draw/sw/lv_draw_sw_transform.c ****                     break;
 1591              		.loc 1 445 23 view .LVU565
 1592 039e B042     		cmp	r0, r6
 1593 03a0 01D0     		beq	.L87
 1594 03a2 FF20     		movs	r0, #255
 1595 03a4 E2E7     		b	.L64
 1596              	.L87:
 1597 03a6 0020     		movs	r0, #0
 1598 03a8 E0E7     		b	.L64
 1599              	.L63:
 449:Drivers/lvgl/src/draw/sw/lv_draw_sw_transform.c ****                     break;
 1600              		.loc 1 449 21 is_stmt 1 view .LVU566
 449:Drivers/lvgl/src/draw/sw/lv_draw_sw_transform.c ****                     break;
 1601              		.loc 1 449 44 is_stmt 0 view .LVU567
 1602 03aa 0198     		ldr	r0, [sp, #4]
 1603 03ac 049E     		ldr	r6, [sp, #16]
 1604 03ae 06FB00F0 		mul	r0, r6, r0
 449:Drivers/lvgl/src/draw/sw/lv_draw_sw_transform.c ****                     break;
 1605              		.loc 1 449 73 view .LVU568
 1606 03b2 0B9E     		ldr	r6, [sp, #44]
 1607 03b4 06EB4006 		add	r6, r6, r0, lsl #1
 449:Drivers/lvgl/src/draw/sw/lv_draw_sw_transform.c ****                     break;
 1608              		.loc 1 449 97 view .LVU569
 1609 03b8 1644     		add	r6, r6, r2
 449:Drivers/lvgl/src/draw/sw/lv_draw_sw_transform.c ****                     break;
 1610              		.loc 1 449 23 view .LVU570
 1611 03ba 0298     		ldr	r0, [sp, #8]
 1612 03bc 805D     		ldrb	r0, [r0, r6]	@ zero_extendqisi2
 1613              	.LVL196:
 450:Drivers/lvgl/src/draw/sw/lv_draw_sw_transform.c **** #endif
 1614              		.loc 1 450 21 is_stmt 1 view .LVU571
ARM GAS  /var/folders/0z/tsy30v1j4xl4_7kw94k978ww0000gn/T//ccBWD9YH.s 			page 54


 1615 03be D5E7     		b	.L64
 1616              	.L85:
 456:Drivers/lvgl/src/draw/sw/lv_draw_sw_transform.c ****                 abuf[x] = (a * (0xFF - xs_fract)) >> 8;
 1617              		.loc 1 456 68 is_stmt 0 discriminator 4 view .LVU572
 1618 03c0 002D     		cmp	r5, #0
 1619 03c2 DADD     		ble	.L67
 1620              	.L66:
 457:Drivers/lvgl/src/draw/sw/lv_draw_sw_transform.c ****             }
 1621              		.loc 1 457 17 is_stmt 1 view .LVU573
 457:Drivers/lvgl/src/draw/sw/lv_draw_sw_transform.c ****             }
 1622              		.loc 1 457 38 is_stmt 0 view .LVU574
 1623 03c4 089A     		ldr	r2, [sp, #32]
 1624              	.LVL197:
 457:Drivers/lvgl/src/draw/sw/lv_draw_sw_transform.c ****             }
 1625              		.loc 1 457 38 view .LVU575
 1626 03c6 C2F1FF02 		rsb	r2, r2, #255
 457:Drivers/lvgl/src/draw/sw/lv_draw_sw_transform.c ****             }
 1627              		.loc 1 457 30 view .LVU576
 1628 03ca 00FB02F2 		mul	r2, r0, r2
 457:Drivers/lvgl/src/draw/sw/lv_draw_sw_transform.c ****             }
 1629              		.loc 1 457 51 view .LVU577
 1630 03ce 1212     		asrs	r2, r2, #8
 457:Drivers/lvgl/src/draw/sw/lv_draw_sw_transform.c ****             }
 1631              		.loc 1 457 25 view .LVU578
 1632 03d0 2099     		ldr	r1, [sp, #128]
 1633              	.LVL198:
 457:Drivers/lvgl/src/draw/sw/lv_draw_sw_transform.c ****             }
 1634              		.loc 1 457 25 view .LVU579
 1635 03d2 0598     		ldr	r0, [sp, #20]
 1636              	.LVL199:
 457:Drivers/lvgl/src/draw/sw/lv_draw_sw_transform.c ****             }
 1637              		.loc 1 457 25 view .LVU580
 1638 03d4 0A54     		strb	r2, [r1, r0]
 1639 03d6 61E6     		b	.L45
 1640              	.LVL200:
 1641              	.L86:
 459:Drivers/lvgl/src/draw/sw/lv_draw_sw_transform.c ****                 abuf[x] = (a * (0xFF - ys_fract)) >> 8;
 1642              		.loc 1 459 73 discriminator 4 view .LVU581
 1643 03d8 069A     		ldr	r2, [sp, #24]
 1644 03da 002A     		cmp	r2, #0
 1645 03dc D5DD     		ble	.L70
 1646              	.L69:
 460:Drivers/lvgl/src/draw/sw/lv_draw_sw_transform.c ****             }
 1647              		.loc 1 460 17 is_stmt 1 view .LVU582
 460:Drivers/lvgl/src/draw/sw/lv_draw_sw_transform.c ****             }
 1648              		.loc 1 460 38 is_stmt 0 view .LVU583
 1649 03de 0A9A     		ldr	r2, [sp, #40]
 1650 03e0 C2F1FF02 		rsb	r2, r2, #255
 460:Drivers/lvgl/src/draw/sw/lv_draw_sw_transform.c ****             }
 1651              		.loc 1 460 30 view .LVU584
 1652 03e4 02FB00F0 		mul	r0, r2, r0
 1653              	.LVL201:
 460:Drivers/lvgl/src/draw/sw/lv_draw_sw_transform.c ****             }
 1654              		.loc 1 460 51 view .LVU585
 1655 03e8 0012     		asrs	r0, r0, #8
 460:Drivers/lvgl/src/draw/sw/lv_draw_sw_transform.c ****             }
 1656              		.loc 1 460 25 view .LVU586
ARM GAS  /var/folders/0z/tsy30v1j4xl4_7kw94k978ww0000gn/T//ccBWD9YH.s 			page 55


 1657 03ea 209A     		ldr	r2, [sp, #128]
 1658 03ec 0599     		ldr	r1, [sp, #20]
 1659              	.LVL202:
 460:Drivers/lvgl/src/draw/sw/lv_draw_sw_transform.c ****             }
 1660              		.loc 1 460 25 view .LVU587
 1661 03ee 5054     		strb	r0, [r2, r1]
 1662 03f0 54E6     		b	.L45
 1663              	.LVL203:
 1664              	.L35:
 460:Drivers/lvgl/src/draw/sw/lv_draw_sw_transform.c ****             }
 1665              		.loc 1 460 25 view .LVU588
 1666              	.LBE43:
 1667              	.LBE44:
 467:Drivers/lvgl/src/draw/sw/lv_draw_sw_transform.c **** 
 1668              		.loc 1 467 1 view .LVU589
 1669 03f2 11B0     		add	sp, sp, #68
 1670              		.cfi_def_cfa_offset 36
 1671              		@ sp needed
 1672 03f4 BDE8F08F 		pop	{r4, r5, r6, r7, r8, r9, r10, fp, pc}
 1673              	.LVL204:
 1674              	.L89:
 467:Drivers/lvgl/src/draw/sw/lv_draw_sw_transform.c **** 
 1675              		.loc 1 467 1 view .LVU590
 1676              		.align	2
 1677              	.L88:
 1678 03f8 1FF8E007 		.word	132184095
 1679              		.cfi_endproc
 1680              	.LFE165:
 1682              		.section	.text.lv_draw_sw_transform,"ax",%progbits
 1683              		.align	1
 1684              		.global	lv_draw_sw_transform
 1685              		.syntax unified
 1686              		.thumb
 1687              		.thumb_func
 1689              	lv_draw_sw_transform:
 1690              	.LVL205:
 1691              	.LFB161:
  83:Drivers/lvgl/src/draw/sw/lv_draw_sw_transform.c ****     LV_UNUSED(draw_ctx);
 1692              		.loc 1 83 1 is_stmt 1 view -0
 1693              		.cfi_startproc
 1694              		@ args = 24, pretend = 0, frame = 96
 1695              		@ frame_needed = 0, uses_anonymous_args = 0
  83:Drivers/lvgl/src/draw/sw/lv_draw_sw_transform.c ****     LV_UNUSED(draw_ctx);
 1696              		.loc 1 83 1 is_stmt 0 view .LVU592
 1697 0000 2DE9F04F 		push	{r4, r5, r6, r7, r8, r9, r10, fp, lr}
 1698              		.cfi_def_cfa_offset 36
 1699              		.cfi_offset 4, -36
 1700              		.cfi_offset 5, -32
 1701              		.cfi_offset 6, -28
 1702              		.cfi_offset 7, -24
 1703              		.cfi_offset 8, -20
 1704              		.cfi_offset 9, -16
 1705              		.cfi_offset 10, -12
 1706              		.cfi_offset 11, -8
 1707              		.cfi_offset 14, -4
 1708 0004 A1B0     		sub	sp, sp, #132
 1709              		.cfi_def_cfa_offset 168
ARM GAS  /var/folders/0z/tsy30v1j4xl4_7kw94k978ww0000gn/T//ccBWD9YH.s 			page 56


 1710 0006 0C46     		mov	r4, r1
 1711 0008 0992     		str	r2, [sp, #36]
 1712 000a 0A93     		str	r3, [sp, #40]
 1713 000c BDF9A830 		ldrsh	r3, [sp, #168]
 1714              	.LVL206:
  83:Drivers/lvgl/src/draw/sw/lv_draw_sw_transform.c ****     LV_UNUSED(draw_ctx);
 1715              		.loc 1 83 1 view .LVU593
 1716 0010 0B93     		str	r3, [sp, #44]
 1717 0012 BDF9AC30 		ldrsh	r3, [sp, #172]
 1718 0016 0C93     		str	r3, [sp, #48]
 1719 0018 DDF8B080 		ldr	r8, [sp, #176]
 1720 001c 9DF8B4B0 		ldrb	fp, [sp, #180]	@ zero_extendqisi2
 1721 0020 2E9E     		ldr	r6, [sp, #184]
 1722 0022 2F9D     		ldr	r5, [sp, #188]
  84:Drivers/lvgl/src/draw/sw/lv_draw_sw_transform.c **** 
 1723              		.loc 1 84 5 is_stmt 1 view .LVU594
  86:Drivers/lvgl/src/draw/sw/lv_draw_sw_transform.c ****     tr_dsc.angle = -draw_dsc->angle;
 1724              		.loc 1 86 5 view .LVU595
  87:Drivers/lvgl/src/draw/sw/lv_draw_sw_transform.c ****     tr_dsc.zoom = (256 * 256) / draw_dsc->zoom;
 1725              		.loc 1 87 5 view .LVU596
  87:Drivers/lvgl/src/draw/sw/lv_draw_sw_transform.c ****     tr_dsc.zoom = (256 * 256) / draw_dsc->zoom;
 1726              		.loc 1 87 29 is_stmt 0 view .LVU597
 1727 0024 B8F90070 		ldrsh	r7, [r8]
  87:Drivers/lvgl/src/draw/sw/lv_draw_sw_transform.c ****     tr_dsc.zoom = (256 * 256) / draw_dsc->zoom;
 1728              		.loc 1 87 20 view .LVU598
 1729 0028 7F42     		rsbs	r7, r7, #0
  87:Drivers/lvgl/src/draw/sw/lv_draw_sw_transform.c ****     tr_dsc.zoom = (256 * 256) / draw_dsc->zoom;
 1730              		.loc 1 87 18 view .LVU599
 1731 002a 1C97     		str	r7, [sp, #112]
  88:Drivers/lvgl/src/draw/sw/lv_draw_sw_transform.c ****     tr_dsc.pivot = draw_dsc->pivot;
 1732              		.loc 1 88 5 is_stmt 1 view .LVU600
  88:Drivers/lvgl/src/draw/sw/lv_draw_sw_transform.c ****     tr_dsc.pivot = draw_dsc->pivot;
 1733              		.loc 1 88 41 is_stmt 0 view .LVU601
 1734 002c B8F80220 		ldrh	r2, [r8, #2]
 1735              	.LVL207:
  88:Drivers/lvgl/src/draw/sw/lv_draw_sw_transform.c ****     tr_dsc.pivot = draw_dsc->pivot;
 1736              		.loc 1 88 31 view .LVU602
 1737 0030 4FF48033 		mov	r3, #65536
 1738 0034 93FBF2F3 		sdiv	r3, r3, r2
  88:Drivers/lvgl/src/draw/sw/lv_draw_sw_transform.c ****     tr_dsc.pivot = draw_dsc->pivot;
 1739              		.loc 1 88 17 view .LVU603
 1740 0038 1B93     		str	r3, [sp, #108]
  89:Drivers/lvgl/src/draw/sw/lv_draw_sw_transform.c **** 
 1741              		.loc 1 89 5 is_stmt 1 view .LVU604
  89:Drivers/lvgl/src/draw/sw/lv_draw_sw_transform.c **** 
 1742              		.loc 1 89 18 is_stmt 0 view .LVU605
 1743 003a D8F80430 		ldr	r3, [r8, #4]
 1744 003e 1F93     		str	r3, [sp, #124]
  91:Drivers/lvgl/src/draw/sw/lv_draw_sw_transform.c ****     int32_t angle_high = angle_low + 1;
 1745              		.loc 1 91 5 is_stmt 1 view .LVU606
  91:Drivers/lvgl/src/draw/sw/lv_draw_sw_transform.c ****     int32_t angle_high = angle_low + 1;
 1746              		.loc 1 91 13 is_stmt 0 view .LVU607
 1747 0040 DFF808A2 		ldr	r10, .L104
 1748 0044 8AFB0723 		smull	r2, r3, r10, r7
 1749 0048 4FEAE779 		asr	r9, r7, #31
 1750 004c C9EBA309 		rsb	r9, r9, r3, asr #2
 1751              	.LVL208:
ARM GAS  /var/folders/0z/tsy30v1j4xl4_7kw94k978ww0000gn/T//ccBWD9YH.s 			page 57


  92:Drivers/lvgl/src/draw/sw/lv_draw_sw_transform.c ****     int32_t angle_rem = tr_dsc.angle  - (angle_low * 10);
 1752              		.loc 1 92 5 is_stmt 1 view .LVU608
  92:Drivers/lvgl/src/draw/sw/lv_draw_sw_transform.c ****     int32_t angle_rem = tr_dsc.angle  - (angle_low * 10);
 1753              		.loc 1 92 13 is_stmt 0 view .LVU609
 1754 0050 09F10103 		add	r3, r9, #1
 1755 0054 0D93     		str	r3, [sp, #52]
 1756              	.LVL209:
  93:Drivers/lvgl/src/draw/sw/lv_draw_sw_transform.c **** 
 1757              		.loc 1 93 5 is_stmt 1 view .LVU610
  93:Drivers/lvgl/src/draw/sw/lv_draw_sw_transform.c **** 
 1758              		.loc 1 93 13 is_stmt 0 view .LVU611
 1759 0056 6FF00903 		mvn	r3, #9
 1760              	.LVL210:
  93:Drivers/lvgl/src/draw/sw/lv_draw_sw_transform.c **** 
 1761              		.loc 1 93 13 view .LVU612
 1762 005a 03FB0977 		mla	r7, r3, r9, r7
 1763              	.LVL211:
  95:Drivers/lvgl/src/draw/sw/lv_draw_sw_transform.c ****     int32_t s2 = lv_trigo_sin(angle_high);
 1764              		.loc 1 95 5 is_stmt 1 view .LVU613
  95:Drivers/lvgl/src/draw/sw/lv_draw_sw_transform.c ****     int32_t s2 = lv_trigo_sin(angle_high);
 1765              		.loc 1 95 18 is_stmt 0 view .LVU614
 1766 005e 0FFA89F0 		sxth	r0, r9
 1767              	.LVL212:
  95:Drivers/lvgl/src/draw/sw/lv_draw_sw_transform.c ****     int32_t s2 = lv_trigo_sin(angle_high);
 1768              		.loc 1 95 18 view .LVU615
 1769 0062 FFF7FEFF 		bl	lv_trigo_sin
 1770              	.LVL213:
  95:Drivers/lvgl/src/draw/sw/lv_draw_sw_transform.c ****     int32_t s2 = lv_trigo_sin(angle_high);
 1771              		.loc 1 95 18 view .LVU616
 1772 0066 0E90     		str	r0, [sp, #56]
 1773              	.LVL214:
  96:Drivers/lvgl/src/draw/sw/lv_draw_sw_transform.c **** 
 1774              		.loc 1 96 5 is_stmt 1 view .LVU617
  96:Drivers/lvgl/src/draw/sw/lv_draw_sw_transform.c **** 
 1775              		.loc 1 96 18 is_stmt 0 view .LVU618
 1776 0068 BDF93400 		ldrsh	r0, [sp, #52]
 1777              	.LVL215:
  96:Drivers/lvgl/src/draw/sw/lv_draw_sw_transform.c **** 
 1778              		.loc 1 96 18 view .LVU619
 1779 006c FFF7FEFF 		bl	lv_trigo_sin
 1780              	.LVL216:
 1781 0070 0F90     		str	r0, [sp, #60]
 1782              	.LVL217:
  98:Drivers/lvgl/src/draw/sw/lv_draw_sw_transform.c ****     int32_t c2 = lv_trigo_sin(angle_high + 90);
 1783              		.loc 1 98 5 is_stmt 1 view .LVU620
  98:Drivers/lvgl/src/draw/sw/lv_draw_sw_transform.c ****     int32_t c2 = lv_trigo_sin(angle_high + 90);
 1784              		.loc 1 98 41 is_stmt 0 view .LVU621
 1785 0072 09F15A00 		add	r0, r9, #90
 1786              	.LVL218:
  98:Drivers/lvgl/src/draw/sw/lv_draw_sw_transform.c ****     int32_t c2 = lv_trigo_sin(angle_high + 90);
 1787              		.loc 1 98 18 view .LVU622
 1788 0076 00B2     		sxth	r0, r0
 1789 0078 FFF7FEFF 		bl	lv_trigo_sin
 1790              	.LVL219:
 1791 007c 8146     		mov	r9, r0
 1792              	.LVL220:
  99:Drivers/lvgl/src/draw/sw/lv_draw_sw_transform.c **** 
ARM GAS  /var/folders/0z/tsy30v1j4xl4_7kw94k978ww0000gn/T//ccBWD9YH.s 			page 58


 1793              		.loc 1 99 5 is_stmt 1 view .LVU623
  99:Drivers/lvgl/src/draw/sw/lv_draw_sw_transform.c **** 
 1794              		.loc 1 99 42 is_stmt 0 view .LVU624
 1795 007e 0D9B     		ldr	r3, [sp, #52]
 1796 0080 03F15A00 		add	r0, r3, #90
 1797              	.LVL221:
  99:Drivers/lvgl/src/draw/sw/lv_draw_sw_transform.c **** 
 1798              		.loc 1 99 18 view .LVU625
 1799 0084 00B2     		sxth	r0, r0
 1800 0086 FFF7FEFF 		bl	lv_trigo_sin
 1801              	.LVL222:
 101:Drivers/lvgl/src/draw/sw/lv_draw_sw_transform.c ****     tr_dsc.cosma = (c1 * (10 - angle_rem) + c2 * angle_rem) / 10;
 1802              		.loc 1 101 5 is_stmt 1 view .LVU626
 101:Drivers/lvgl/src/draw/sw/lv_draw_sw_transform.c ****     tr_dsc.cosma = (c1 * (10 - angle_rem) + c2 * angle_rem) / 10;
 1803              		.loc 1 101 30 is_stmt 0 view .LVU627
 1804 008a C7F10A01 		rsb	r1, r7, #10
 101:Drivers/lvgl/src/draw/sw/lv_draw_sw_transform.c ****     tr_dsc.cosma = (c1 * (10 - angle_rem) + c2 * angle_rem) / 10;
 1805              		.loc 1 101 48 view .LVU628
 1806 008e 0F9A     		ldr	r2, [sp, #60]
 1807 0090 07FB02F2 		mul	r2, r7, r2
 101:Drivers/lvgl/src/draw/sw/lv_draw_sw_transform.c ****     tr_dsc.cosma = (c1 * (10 - angle_rem) + c2 * angle_rem) / 10;
 1808              		.loc 1 101 43 view .LVU629
 1809 0094 0E9B     		ldr	r3, [sp, #56]
 1810 0096 03FB0122 		mla	r2, r3, r1, r2
 101:Drivers/lvgl/src/draw/sw/lv_draw_sw_transform.c ****     tr_dsc.cosma = (c1 * (10 - angle_rem) + c2 * angle_rem) / 10;
 1811              		.loc 1 101 61 view .LVU630
 1812 009a 8AFB02C3 		smull	ip, r3, r10, r2
 1813 009e D217     		asrs	r2, r2, #31
 1814 00a0 C2EBA302 		rsb	r2, r2, r3, asr #2
 101:Drivers/lvgl/src/draw/sw/lv_draw_sw_transform.c ****     tr_dsc.cosma = (c1 * (10 - angle_rem) + c2 * angle_rem) / 10;
 1815              		.loc 1 101 18 view .LVU631
 1816 00a4 1992     		str	r2, [sp, #100]
 102:Drivers/lvgl/src/draw/sw/lv_draw_sw_transform.c ****     tr_dsc.sinma = tr_dsc.sinma >> (LV_TRIGO_SHIFT - 10);
 1817              		.loc 1 102 5 is_stmt 1 view .LVU632
 102:Drivers/lvgl/src/draw/sw/lv_draw_sw_transform.c ****     tr_dsc.sinma = tr_dsc.sinma >> (LV_TRIGO_SHIFT - 10);
 1818              		.loc 1 102 48 is_stmt 0 view .LVU633
 1819 00a6 00FB07F3 		mul	r3, r0, r7
 102:Drivers/lvgl/src/draw/sw/lv_draw_sw_transform.c ****     tr_dsc.sinma = tr_dsc.sinma >> (LV_TRIGO_SHIFT - 10);
 1820              		.loc 1 102 43 view .LVU634
 1821 00aa 09FB0133 		mla	r3, r9, r1, r3
 102:Drivers/lvgl/src/draw/sw/lv_draw_sw_transform.c ****     tr_dsc.sinma = tr_dsc.sinma >> (LV_TRIGO_SHIFT - 10);
 1822              		.loc 1 102 61 view .LVU635
 1823 00ae 8AFB031A 		smull	r1, r10, r10, r3
 1824 00b2 DB17     		asrs	r3, r3, #31
 1825 00b4 C3EBAA03 		rsb	r3, r3, r10, asr #2
 102:Drivers/lvgl/src/draw/sw/lv_draw_sw_transform.c ****     tr_dsc.sinma = tr_dsc.sinma >> (LV_TRIGO_SHIFT - 10);
 1826              		.loc 1 102 18 view .LVU636
 1827 00b8 1A93     		str	r3, [sp, #104]
 103:Drivers/lvgl/src/draw/sw/lv_draw_sw_transform.c ****     tr_dsc.cosma = tr_dsc.cosma >> (LV_TRIGO_SHIFT - 10);
 1828              		.loc 1 103 5 is_stmt 1 view .LVU637
 103:Drivers/lvgl/src/draw/sw/lv_draw_sw_transform.c ****     tr_dsc.cosma = tr_dsc.cosma >> (LV_TRIGO_SHIFT - 10);
 1829              		.loc 1 103 33 is_stmt 0 view .LVU638
 1830 00ba 5211     		asrs	r2, r2, #5
 103:Drivers/lvgl/src/draw/sw/lv_draw_sw_transform.c ****     tr_dsc.cosma = tr_dsc.cosma >> (LV_TRIGO_SHIFT - 10);
 1831              		.loc 1 103 18 view .LVU639
 1832 00bc 1992     		str	r2, [sp, #100]
 104:Drivers/lvgl/src/draw/sw/lv_draw_sw_transform.c ****     tr_dsc.pivot_x_256 = tr_dsc.pivot.x * 256;
ARM GAS  /var/folders/0z/tsy30v1j4xl4_7kw94k978ww0000gn/T//ccBWD9YH.s 			page 59


 1833              		.loc 1 104 5 is_stmt 1 view .LVU640
 104:Drivers/lvgl/src/draw/sw/lv_draw_sw_transform.c ****     tr_dsc.pivot_x_256 = tr_dsc.pivot.x * 256;
 1834              		.loc 1 104 33 is_stmt 0 view .LVU641
 1835 00be 5B11     		asrs	r3, r3, #5
 104:Drivers/lvgl/src/draw/sw/lv_draw_sw_transform.c ****     tr_dsc.pivot_x_256 = tr_dsc.pivot.x * 256;
 1836              		.loc 1 104 18 view .LVU642
 1837 00c0 1A93     		str	r3, [sp, #104]
 105:Drivers/lvgl/src/draw/sw/lv_draw_sw_transform.c ****     tr_dsc.pivot_y_256 = tr_dsc.pivot.y * 256;
 1838              		.loc 1 105 5 is_stmt 1 view .LVU643
 105:Drivers/lvgl/src/draw/sw/lv_draw_sw_transform.c ****     tr_dsc.pivot_y_256 = tr_dsc.pivot.y * 256;
 1839              		.loc 1 105 38 is_stmt 0 view .LVU644
 1840 00c2 BDF97C30 		ldrsh	r3, [sp, #124]
 105:Drivers/lvgl/src/draw/sw/lv_draw_sw_transform.c ****     tr_dsc.pivot_y_256 = tr_dsc.pivot.y * 256;
 1841              		.loc 1 105 41 view .LVU645
 1842 00c6 1B02     		lsls	r3, r3, #8
 105:Drivers/lvgl/src/draw/sw/lv_draw_sw_transform.c ****     tr_dsc.pivot_y_256 = tr_dsc.pivot.y * 256;
 1843              		.loc 1 105 24 view .LVU646
 1844 00c8 1D93     		str	r3, [sp, #116]
 106:Drivers/lvgl/src/draw/sw/lv_draw_sw_transform.c **** 
 1845              		.loc 1 106 5 is_stmt 1 view .LVU647
 106:Drivers/lvgl/src/draw/sw/lv_draw_sw_transform.c **** 
 1846              		.loc 1 106 38 is_stmt 0 view .LVU648
 1847 00ca BDF97E30 		ldrsh	r3, [sp, #126]
 106:Drivers/lvgl/src/draw/sw/lv_draw_sw_transform.c **** 
 1848              		.loc 1 106 41 view .LVU649
 1849 00ce 1B02     		lsls	r3, r3, #8
 106:Drivers/lvgl/src/draw/sw/lv_draw_sw_transform.c **** 
 1850              		.loc 1 106 24 view .LVU650
 1851 00d0 1E93     		str	r3, [sp, #120]
 108:Drivers/lvgl/src/draw/sw/lv_draw_sw_transform.c ****     lv_coord_t dest_h = lv_area_get_height(dest_area);
 1852              		.loc 1 108 5 is_stmt 1 view .LVU651
 1853              	.LVL223:
 1854              	.LBB45:
 1855              	.LBI45:
 1856              		.file 3 "Drivers/lvgl/src/draw/sw/../../misc/lv_area.h"
   1:Drivers/lvgl/src/draw/sw/../../misc/lv_area.h **** /**
   2:Drivers/lvgl/src/draw/sw/../../misc/lv_area.h ****  * @file lv_area.h
   3:Drivers/lvgl/src/draw/sw/../../misc/lv_area.h ****  *
   4:Drivers/lvgl/src/draw/sw/../../misc/lv_area.h ****  */
   5:Drivers/lvgl/src/draw/sw/../../misc/lv_area.h **** 
   6:Drivers/lvgl/src/draw/sw/../../misc/lv_area.h **** #ifndef LV_AREA_H
   7:Drivers/lvgl/src/draw/sw/../../misc/lv_area.h **** #define LV_AREA_H
   8:Drivers/lvgl/src/draw/sw/../../misc/lv_area.h **** 
   9:Drivers/lvgl/src/draw/sw/../../misc/lv_area.h **** #ifdef __cplusplus
  10:Drivers/lvgl/src/draw/sw/../../misc/lv_area.h **** extern "C" {
  11:Drivers/lvgl/src/draw/sw/../../misc/lv_area.h **** #endif
  12:Drivers/lvgl/src/draw/sw/../../misc/lv_area.h **** 
  13:Drivers/lvgl/src/draw/sw/../../misc/lv_area.h **** /*********************
  14:Drivers/lvgl/src/draw/sw/../../misc/lv_area.h ****  *      INCLUDES
  15:Drivers/lvgl/src/draw/sw/../../misc/lv_area.h ****  *********************/
  16:Drivers/lvgl/src/draw/sw/../../misc/lv_area.h **** #include "../lv_conf_internal.h"
  17:Drivers/lvgl/src/draw/sw/../../misc/lv_area.h **** #include <stdbool.h>
  18:Drivers/lvgl/src/draw/sw/../../misc/lv_area.h **** #include <stdint.h>
  19:Drivers/lvgl/src/draw/sw/../../misc/lv_area.h **** 
  20:Drivers/lvgl/src/draw/sw/../../misc/lv_area.h **** /*********************
  21:Drivers/lvgl/src/draw/sw/../../misc/lv_area.h ****  *      DEFINES
  22:Drivers/lvgl/src/draw/sw/../../misc/lv_area.h ****  *********************/
ARM GAS  /var/folders/0z/tsy30v1j4xl4_7kw94k978ww0000gn/T//ccBWD9YH.s 			page 60


  23:Drivers/lvgl/src/draw/sw/../../misc/lv_area.h **** 
  24:Drivers/lvgl/src/draw/sw/../../misc/lv_area.h **** #if LV_USE_LARGE_COORD
  25:Drivers/lvgl/src/draw/sw/../../misc/lv_area.h **** typedef int32_t lv_coord_t;
  26:Drivers/lvgl/src/draw/sw/../../misc/lv_area.h **** #else
  27:Drivers/lvgl/src/draw/sw/../../misc/lv_area.h **** typedef int16_t lv_coord_t;
  28:Drivers/lvgl/src/draw/sw/../../misc/lv_area.h **** #endif
  29:Drivers/lvgl/src/draw/sw/../../misc/lv_area.h **** 
  30:Drivers/lvgl/src/draw/sw/../../misc/lv_area.h **** /**********************
  31:Drivers/lvgl/src/draw/sw/../../misc/lv_area.h ****  *      TYPEDEFS
  32:Drivers/lvgl/src/draw/sw/../../misc/lv_area.h ****  **********************/
  33:Drivers/lvgl/src/draw/sw/../../misc/lv_area.h **** 
  34:Drivers/lvgl/src/draw/sw/../../misc/lv_area.h **** /**
  35:Drivers/lvgl/src/draw/sw/../../misc/lv_area.h ****  * Represents a point on the screen.
  36:Drivers/lvgl/src/draw/sw/../../misc/lv_area.h ****  */
  37:Drivers/lvgl/src/draw/sw/../../misc/lv_area.h **** typedef struct {
  38:Drivers/lvgl/src/draw/sw/../../misc/lv_area.h ****     lv_coord_t x;
  39:Drivers/lvgl/src/draw/sw/../../misc/lv_area.h ****     lv_coord_t y;
  40:Drivers/lvgl/src/draw/sw/../../misc/lv_area.h **** } lv_point_t;
  41:Drivers/lvgl/src/draw/sw/../../misc/lv_area.h **** 
  42:Drivers/lvgl/src/draw/sw/../../misc/lv_area.h **** /** Represents an area of the screen.*/
  43:Drivers/lvgl/src/draw/sw/../../misc/lv_area.h **** typedef struct {
  44:Drivers/lvgl/src/draw/sw/../../misc/lv_area.h ****     lv_coord_t x1;
  45:Drivers/lvgl/src/draw/sw/../../misc/lv_area.h ****     lv_coord_t y1;
  46:Drivers/lvgl/src/draw/sw/../../misc/lv_area.h ****     lv_coord_t x2;
  47:Drivers/lvgl/src/draw/sw/../../misc/lv_area.h ****     lv_coord_t y2;
  48:Drivers/lvgl/src/draw/sw/../../misc/lv_area.h **** } lv_area_t;
  49:Drivers/lvgl/src/draw/sw/../../misc/lv_area.h **** 
  50:Drivers/lvgl/src/draw/sw/../../misc/lv_area.h **** /** Alignments*/
  51:Drivers/lvgl/src/draw/sw/../../misc/lv_area.h **** enum {
  52:Drivers/lvgl/src/draw/sw/../../misc/lv_area.h ****     LV_ALIGN_DEFAULT = 0,
  53:Drivers/lvgl/src/draw/sw/../../misc/lv_area.h ****     LV_ALIGN_TOP_LEFT,
  54:Drivers/lvgl/src/draw/sw/../../misc/lv_area.h ****     LV_ALIGN_TOP_MID,
  55:Drivers/lvgl/src/draw/sw/../../misc/lv_area.h ****     LV_ALIGN_TOP_RIGHT,
  56:Drivers/lvgl/src/draw/sw/../../misc/lv_area.h ****     LV_ALIGN_BOTTOM_LEFT,
  57:Drivers/lvgl/src/draw/sw/../../misc/lv_area.h ****     LV_ALIGN_BOTTOM_MID,
  58:Drivers/lvgl/src/draw/sw/../../misc/lv_area.h ****     LV_ALIGN_BOTTOM_RIGHT,
  59:Drivers/lvgl/src/draw/sw/../../misc/lv_area.h ****     LV_ALIGN_LEFT_MID,
  60:Drivers/lvgl/src/draw/sw/../../misc/lv_area.h ****     LV_ALIGN_RIGHT_MID,
  61:Drivers/lvgl/src/draw/sw/../../misc/lv_area.h ****     LV_ALIGN_CENTER,
  62:Drivers/lvgl/src/draw/sw/../../misc/lv_area.h **** 
  63:Drivers/lvgl/src/draw/sw/../../misc/lv_area.h ****     LV_ALIGN_OUT_TOP_LEFT,
  64:Drivers/lvgl/src/draw/sw/../../misc/lv_area.h ****     LV_ALIGN_OUT_TOP_MID,
  65:Drivers/lvgl/src/draw/sw/../../misc/lv_area.h ****     LV_ALIGN_OUT_TOP_RIGHT,
  66:Drivers/lvgl/src/draw/sw/../../misc/lv_area.h ****     LV_ALIGN_OUT_BOTTOM_LEFT,
  67:Drivers/lvgl/src/draw/sw/../../misc/lv_area.h ****     LV_ALIGN_OUT_BOTTOM_MID,
  68:Drivers/lvgl/src/draw/sw/../../misc/lv_area.h ****     LV_ALIGN_OUT_BOTTOM_RIGHT,
  69:Drivers/lvgl/src/draw/sw/../../misc/lv_area.h ****     LV_ALIGN_OUT_LEFT_TOP,
  70:Drivers/lvgl/src/draw/sw/../../misc/lv_area.h ****     LV_ALIGN_OUT_LEFT_MID,
  71:Drivers/lvgl/src/draw/sw/../../misc/lv_area.h ****     LV_ALIGN_OUT_LEFT_BOTTOM,
  72:Drivers/lvgl/src/draw/sw/../../misc/lv_area.h ****     LV_ALIGN_OUT_RIGHT_TOP,
  73:Drivers/lvgl/src/draw/sw/../../misc/lv_area.h ****     LV_ALIGN_OUT_RIGHT_MID,
  74:Drivers/lvgl/src/draw/sw/../../misc/lv_area.h ****     LV_ALIGN_OUT_RIGHT_BOTTOM,
  75:Drivers/lvgl/src/draw/sw/../../misc/lv_area.h **** };
  76:Drivers/lvgl/src/draw/sw/../../misc/lv_area.h **** typedef uint8_t lv_align_t;
  77:Drivers/lvgl/src/draw/sw/../../misc/lv_area.h **** 
  78:Drivers/lvgl/src/draw/sw/../../misc/lv_area.h **** enum {
  79:Drivers/lvgl/src/draw/sw/../../misc/lv_area.h ****     LV_DIR_NONE     = 0x00,
ARM GAS  /var/folders/0z/tsy30v1j4xl4_7kw94k978ww0000gn/T//ccBWD9YH.s 			page 61


  80:Drivers/lvgl/src/draw/sw/../../misc/lv_area.h ****     LV_DIR_LEFT     = (1 << 0),
  81:Drivers/lvgl/src/draw/sw/../../misc/lv_area.h ****     LV_DIR_RIGHT    = (1 << 1),
  82:Drivers/lvgl/src/draw/sw/../../misc/lv_area.h ****     LV_DIR_TOP      = (1 << 2),
  83:Drivers/lvgl/src/draw/sw/../../misc/lv_area.h ****     LV_DIR_BOTTOM   = (1 << 3),
  84:Drivers/lvgl/src/draw/sw/../../misc/lv_area.h ****     LV_DIR_HOR      = LV_DIR_LEFT | LV_DIR_RIGHT,
  85:Drivers/lvgl/src/draw/sw/../../misc/lv_area.h ****     LV_DIR_VER      = LV_DIR_TOP | LV_DIR_BOTTOM,
  86:Drivers/lvgl/src/draw/sw/../../misc/lv_area.h ****     LV_DIR_ALL      = LV_DIR_HOR | LV_DIR_VER,
  87:Drivers/lvgl/src/draw/sw/../../misc/lv_area.h **** };
  88:Drivers/lvgl/src/draw/sw/../../misc/lv_area.h **** 
  89:Drivers/lvgl/src/draw/sw/../../misc/lv_area.h **** typedef uint8_t lv_dir_t;
  90:Drivers/lvgl/src/draw/sw/../../misc/lv_area.h **** 
  91:Drivers/lvgl/src/draw/sw/../../misc/lv_area.h **** /**********************
  92:Drivers/lvgl/src/draw/sw/../../misc/lv_area.h ****  * GLOBAL PROTOTYPES
  93:Drivers/lvgl/src/draw/sw/../../misc/lv_area.h ****  **********************/
  94:Drivers/lvgl/src/draw/sw/../../misc/lv_area.h **** 
  95:Drivers/lvgl/src/draw/sw/../../misc/lv_area.h **** /**
  96:Drivers/lvgl/src/draw/sw/../../misc/lv_area.h ****  * Initialize an area
  97:Drivers/lvgl/src/draw/sw/../../misc/lv_area.h ****  * @param area_p pointer to an area
  98:Drivers/lvgl/src/draw/sw/../../misc/lv_area.h ****  * @param x1 left coordinate of the area
  99:Drivers/lvgl/src/draw/sw/../../misc/lv_area.h ****  * @param y1 top coordinate of the area
 100:Drivers/lvgl/src/draw/sw/../../misc/lv_area.h ****  * @param x2 right coordinate of the area
 101:Drivers/lvgl/src/draw/sw/../../misc/lv_area.h ****  * @param y2 bottom coordinate of the area
 102:Drivers/lvgl/src/draw/sw/../../misc/lv_area.h ****  */
 103:Drivers/lvgl/src/draw/sw/../../misc/lv_area.h **** void lv_area_set(lv_area_t * area_p, lv_coord_t x1, lv_coord_t y1, lv_coord_t x2, lv_coord_t y2);
 104:Drivers/lvgl/src/draw/sw/../../misc/lv_area.h **** 
 105:Drivers/lvgl/src/draw/sw/../../misc/lv_area.h **** /**
 106:Drivers/lvgl/src/draw/sw/../../misc/lv_area.h ****  * Copy an area
 107:Drivers/lvgl/src/draw/sw/../../misc/lv_area.h ****  * @param dest pointer to the destination area
 108:Drivers/lvgl/src/draw/sw/../../misc/lv_area.h ****  * @param src pointer to the source area
 109:Drivers/lvgl/src/draw/sw/../../misc/lv_area.h ****  */
 110:Drivers/lvgl/src/draw/sw/../../misc/lv_area.h **** inline static void lv_area_copy(lv_area_t * dest, const lv_area_t * src)
 111:Drivers/lvgl/src/draw/sw/../../misc/lv_area.h **** {
 112:Drivers/lvgl/src/draw/sw/../../misc/lv_area.h ****     dest->x1 = src->x1;
 113:Drivers/lvgl/src/draw/sw/../../misc/lv_area.h ****     dest->y1 = src->y1;
 114:Drivers/lvgl/src/draw/sw/../../misc/lv_area.h ****     dest->x2 = src->x2;
 115:Drivers/lvgl/src/draw/sw/../../misc/lv_area.h ****     dest->y2 = src->y2;
 116:Drivers/lvgl/src/draw/sw/../../misc/lv_area.h **** }
 117:Drivers/lvgl/src/draw/sw/../../misc/lv_area.h **** 
 118:Drivers/lvgl/src/draw/sw/../../misc/lv_area.h **** /**
 119:Drivers/lvgl/src/draw/sw/../../misc/lv_area.h ****  * Get the width of an area
 120:Drivers/lvgl/src/draw/sw/../../misc/lv_area.h ****  * @param area_p pointer to an area
 121:Drivers/lvgl/src/draw/sw/../../misc/lv_area.h ****  * @return the width of the area (if x1 == x2 -> width = 1)
 122:Drivers/lvgl/src/draw/sw/../../misc/lv_area.h ****  */
 123:Drivers/lvgl/src/draw/sw/../../misc/lv_area.h **** static inline lv_coord_t lv_area_get_width(const lv_area_t * area_p)
 1857              		.loc 3 123 26 view .LVU652
 1858              	.LBB46:
 124:Drivers/lvgl/src/draw/sw/../../misc/lv_area.h **** {
 125:Drivers/lvgl/src/draw/sw/../../misc/lv_area.h ****     return (lv_coord_t)(area_p->x2 - area_p->x1 + 1);
 1859              		.loc 3 125 5 view .LVU653
 1860              		.loc 3 125 31 is_stmt 0 view .LVU654
 1861 00d2 B4F80490 		ldrh	r9, [r4, #4]
 1862              	.LVL224:
 1863              		.loc 3 125 44 view .LVU655
 1864 00d6 2388     		ldrh	r3, [r4]
 1865              		.loc 3 125 36 view .LVU656
 1866 00d8 A9EB0309 		sub	r9, r9, r3
 1867 00dc 1FFA89F9 		uxth	r9, r9
ARM GAS  /var/folders/0z/tsy30v1j4xl4_7kw94k978ww0000gn/T//ccBWD9YH.s 			page 62


 1868              		.loc 3 125 49 view .LVU657
 1869 00e0 09F10109 		add	r9, r9, #1
 1870              		.loc 3 125 12 view .LVU658
 1871 00e4 0FFA89F9 		sxth	r9, r9
 1872              	.LVL225:
 1873              		.loc 3 125 12 view .LVU659
 1874              	.LBE46:
 1875              	.LBE45:
 109:Drivers/lvgl/src/draw/sw/lv_draw_sw_transform.c ****     lv_coord_t y;
 1876              		.loc 1 109 5 is_stmt 1 view .LVU660
 1877              	.LBB47:
 1878              	.LBI47:
 126:Drivers/lvgl/src/draw/sw/../../misc/lv_area.h **** }
 127:Drivers/lvgl/src/draw/sw/../../misc/lv_area.h **** 
 128:Drivers/lvgl/src/draw/sw/../../misc/lv_area.h **** /**
 129:Drivers/lvgl/src/draw/sw/../../misc/lv_area.h ****  * Get the height of an area
 130:Drivers/lvgl/src/draw/sw/../../misc/lv_area.h ****  * @param area_p pointer to an area
 131:Drivers/lvgl/src/draw/sw/../../misc/lv_area.h ****  * @return the height of the area (if y1 == y2 -> height = 1)
 132:Drivers/lvgl/src/draw/sw/../../misc/lv_area.h ****  */
 133:Drivers/lvgl/src/draw/sw/../../misc/lv_area.h **** static inline lv_coord_t lv_area_get_height(const lv_area_t * area_p)
 1879              		.loc 3 133 26 view .LVU661
 1880              	.LBB48:
 134:Drivers/lvgl/src/draw/sw/../../misc/lv_area.h **** {
 135:Drivers/lvgl/src/draw/sw/../../misc/lv_area.h ****     return (lv_coord_t)(area_p->y2 - area_p->y1 + 1);
 1881              		.loc 3 135 5 view .LVU662
 1882              		.loc 3 135 31 is_stmt 0 view .LVU663
 1883 00e8 B4F806A0 		ldrh	r10, [r4, #6]
 1884              		.loc 3 135 44 view .LVU664
 1885 00ec 6388     		ldrh	r3, [r4, #2]
 1886              		.loc 3 135 36 view .LVU665
 1887 00ee AAEB030A 		sub	r10, r10, r3
 1888 00f2 1FFA8AFA 		uxth	r10, r10
 1889              		.loc 3 135 49 view .LVU666
 1890 00f6 0AF1010A 		add	r10, r10, #1
 1891              		.loc 3 135 12 view .LVU667
 1892 00fa 0FFA8AFA 		sxth	r10, r10
 1893              	.LVL226:
 1894              		.loc 3 135 12 view .LVU668
 1895              	.LBE48:
 1896              	.LBE47:
 110:Drivers/lvgl/src/draw/sw/lv_draw_sw_transform.c ****     for(y = 0; y < dest_h; y++) {
 1897              		.loc 1 110 5 is_stmt 1 view .LVU669
 111:Drivers/lvgl/src/draw/sw/lv_draw_sw_transform.c ****         int32_t xs1_ups, ys1_ups, xs2_ups, ys2_ups;
 1898              		.loc 1 111 5 view .LVU670
 111:Drivers/lvgl/src/draw/sw/lv_draw_sw_transform.c ****         int32_t xs1_ups, ys1_ups, xs2_ups, ys2_ups;
 1899              		.loc 1 111 11 is_stmt 0 view .LVU671
 1900 00fe 0027     		movs	r7, #0
 1901              	.LVL227:
 111:Drivers/lvgl/src/draw/sw/lv_draw_sw_transform.c ****         int32_t xs1_ups, ys1_ups, xs2_ups, ys2_ups;
 1902              		.loc 1 111 11 view .LVU672
 1903 0100 2346     		mov	r3, r4
 1904 0102 4C46     		mov	r4, r9
 1905              	.LVL228:
 111:Drivers/lvgl/src/draw/sw/lv_draw_sw_transform.c ****         int32_t xs1_ups, ys1_ups, xs2_ups, ys2_ups;
 1906              		.loc 1 111 11 view .LVU673
 1907 0104 9946     		mov	r9, r3
 1908              	.LVL229:
ARM GAS  /var/folders/0z/tsy30v1j4xl4_7kw94k978ww0000gn/T//ccBWD9YH.s 			page 63


 111:Drivers/lvgl/src/draw/sw/lv_draw_sw_transform.c ****         int32_t xs1_ups, ys1_ups, xs2_ups, ys2_ups;
 1909              		.loc 1 111 5 view .LVU674
 1910 0106 42E0     		b	.L91
 1911              	.LVL230:
 1912              	.L100:
 1913              	.LBB49:
 120:Drivers/lvgl/src/draw/sw/lv_draw_sw_transform.c ****         if(dest_w > 1) {
 1914              		.loc 1 120 17 view .LVU675
 1915 0108 0023     		movs	r3, #0
 1916              	.LVL231:
 119:Drivers/lvgl/src/draw/sw/lv_draw_sw_transform.c ****         int32_t ys_step_256 = 0;
 1917              		.loc 1 119 17 view .LVU676
 1918 010a 1A46     		mov	r2, r3
 1919              	.LVL232:
 119:Drivers/lvgl/src/draw/sw/lv_draw_sw_transform.c ****         int32_t ys_step_256 = 0;
 1920              		.loc 1 119 17 view .LVU677
 1921 010c 67E0     		b	.L92
 1922              	.LVL233:
 1923              	.L98:
 131:Drivers/lvgl/src/draw/sw/lv_draw_sw_transform.c ****                     break;
 1924              		.loc 1 131 21 is_stmt 1 view .LVU678
 1925 010e 0695     		str	r5, [sp, #24]
 1926 0110 0596     		str	r6, [sp, #20]
 1927 0112 0494     		str	r4, [sp, #16]
 1928 0114 0393     		str	r3, [sp, #12]
 1929 0116 0292     		str	r2, [sp, #8]
 1930 0118 0190     		str	r0, [sp, #4]
 1931 011a 0091     		str	r1, [sp]
 1932 011c 0C9B     		ldr	r3, [sp, #48]
 1933              	.LVL234:
 131:Drivers/lvgl/src/draw/sw/lv_draw_sw_transform.c ****                     break;
 1934              		.loc 1 131 21 is_stmt 0 view .LVU679
 1935 011e 0B9A     		ldr	r2, [sp, #44]
 1936              	.LVL235:
 131:Drivers/lvgl/src/draw/sw/lv_draw_sw_transform.c ****                     break;
 1937              		.loc 1 131 21 view .LVU680
 1938 0120 0A99     		ldr	r1, [sp, #40]
 1939              	.LVL236:
 131:Drivers/lvgl/src/draw/sw/lv_draw_sw_transform.c ****                     break;
 1940              		.loc 1 131 21 view .LVU681
 1941 0122 0998     		ldr	r0, [sp, #36]
 1942              	.LVL237:
 131:Drivers/lvgl/src/draw/sw/lv_draw_sw_transform.c ****                     break;
 1943              		.loc 1 131 21 view .LVU682
 1944 0124 FFF7FEFF 		bl	argb_no_aa
 1945              	.LVL238:
 132:Drivers/lvgl/src/draw/sw/lv_draw_sw_transform.c ****                 case LV_IMG_CF_TRUE_COLOR:
 1946              		.loc 1 132 21 is_stmt 1 view .LVU683
 1947 0128 2CE0     		b	.L94
 1948              	.LVL239:
 1949              	.L97:
 135:Drivers/lvgl/src/draw/sw/lv_draw_sw_transform.c ****                     break;
 1950              		.loc 1 135 21 view .LVU684
 1951 012a CDF81CB0 		str	fp, [sp, #28]
 1952 012e 0695     		str	r5, [sp, #24]
 1953 0130 0596     		str	r6, [sp, #20]
 1954 0132 0494     		str	r4, [sp, #16]
ARM GAS  /var/folders/0z/tsy30v1j4xl4_7kw94k978ww0000gn/T//ccBWD9YH.s 			page 64


 1955 0134 0393     		str	r3, [sp, #12]
 1956 0136 0292     		str	r2, [sp, #8]
 1957 0138 0190     		str	r0, [sp, #4]
 1958 013a 0091     		str	r1, [sp]
 1959 013c 0C9B     		ldr	r3, [sp, #48]
 1960              	.LVL240:
 135:Drivers/lvgl/src/draw/sw/lv_draw_sw_transform.c ****                     break;
 1961              		.loc 1 135 21 is_stmt 0 view .LVU685
 1962 013e 0B9A     		ldr	r2, [sp, #44]
 1963              	.LVL241:
 135:Drivers/lvgl/src/draw/sw/lv_draw_sw_transform.c ****                     break;
 1964              		.loc 1 135 21 view .LVU686
 1965 0140 0A99     		ldr	r1, [sp, #40]
 1966              	.LVL242:
 135:Drivers/lvgl/src/draw/sw/lv_draw_sw_transform.c ****                     break;
 1967              		.loc 1 135 21 view .LVU687
 1968 0142 0998     		ldr	r0, [sp, #36]
 1969              	.LVL243:
 135:Drivers/lvgl/src/draw/sw/lv_draw_sw_transform.c ****                     break;
 1970              		.loc 1 135 21 view .LVU688
 1971 0144 FFF7FEFF 		bl	rgb_no_aa
 1972              	.LVL244:
 136:Drivers/lvgl/src/draw/sw/lv_draw_sw_transform.c **** 
 1973              		.loc 1 136 21 is_stmt 1 view .LVU689
 1974 0148 1CE0     		b	.L94
 1975              	.LVL245:
 1976              	.L95:
 140:Drivers/lvgl/src/draw/sw/lv_draw_sw_transform.c ****                     break;
 1977              		.loc 1 140 21 view .LVU690
 1978 014a 0695     		str	r5, [sp, #24]
 1979 014c 0596     		str	r6, [sp, #20]
 1980 014e 0494     		str	r4, [sp, #16]
 1981 0150 0393     		str	r3, [sp, #12]
 1982 0152 0292     		str	r2, [sp, #8]
 1983 0154 0190     		str	r0, [sp, #4]
 1984 0156 0091     		str	r1, [sp]
 1985 0158 0C9B     		ldr	r3, [sp, #48]
 1986              	.LVL246:
 140:Drivers/lvgl/src/draw/sw/lv_draw_sw_transform.c ****                     break;
 1987              		.loc 1 140 21 is_stmt 0 view .LVU691
 1988 015a 0B9A     		ldr	r2, [sp, #44]
 1989              	.LVL247:
 140:Drivers/lvgl/src/draw/sw/lv_draw_sw_transform.c ****                     break;
 1990              		.loc 1 140 21 view .LVU692
 1991 015c 0A99     		ldr	r1, [sp, #40]
 1992              	.LVL248:
 140:Drivers/lvgl/src/draw/sw/lv_draw_sw_transform.c ****                     break;
 1993              		.loc 1 140 21 view .LVU693
 1994 015e 0998     		ldr	r0, [sp, #36]
 1995              	.LVL249:
 140:Drivers/lvgl/src/draw/sw/lv_draw_sw_transform.c ****                     break;
 1996              		.loc 1 140 21 view .LVU694
 1997 0160 FFF7FEFF 		bl	rgb565a8_no_aa
 1998              	.LVL250:
 141:Drivers/lvgl/src/draw/sw/lv_draw_sw_transform.c **** #endif
 1999              		.loc 1 141 21 is_stmt 1 view .LVU695
 2000 0164 0EE0     		b	.L94
ARM GAS  /var/folders/0z/tsy30v1j4xl4_7kw94k978ww0000gn/T//ccBWD9YH.s 			page 65


 2001              	.LVL251:
 2002              	.L93:
 148:Drivers/lvgl/src/draw/sw/lv_draw_sw_transform.c ****         }
 2003              		.loc 1 148 13 view .LVU696
 2004 0166 CDF81CB0 		str	fp, [sp, #28]
 2005 016a 0695     		str	r5, [sp, #24]
 2006 016c 0596     		str	r6, [sp, #20]
 2007 016e 0494     		str	r4, [sp, #16]
 2008 0170 0393     		str	r3, [sp, #12]
 2009 0172 0292     		str	r2, [sp, #8]
 2010 0174 0190     		str	r0, [sp, #4]
 2011 0176 0091     		str	r1, [sp]
 2012 0178 0C9B     		ldr	r3, [sp, #48]
 2013              	.LVL252:
 148:Drivers/lvgl/src/draw/sw/lv_draw_sw_transform.c ****         }
 2014              		.loc 1 148 13 is_stmt 0 view .LVU697
 2015 017a 0B9A     		ldr	r2, [sp, #44]
 2016              	.LVL253:
 148:Drivers/lvgl/src/draw/sw/lv_draw_sw_transform.c ****         }
 2017              		.loc 1 148 13 view .LVU698
 2018 017c 0A99     		ldr	r1, [sp, #40]
 2019              	.LVL254:
 148:Drivers/lvgl/src/draw/sw/lv_draw_sw_transform.c ****         }
 2020              		.loc 1 148 13 view .LVU699
 2021 017e 0998     		ldr	r0, [sp, #36]
 2022              	.LVL255:
 148:Drivers/lvgl/src/draw/sw/lv_draw_sw_transform.c ****         }
 2023              		.loc 1 148 13 view .LVU700
 2024 0180 FFF7FEFF 		bl	argb_and_rgb_aa
 2025              	.LVL256:
 2026              	.L94:
 151:Drivers/lvgl/src/draw/sw/lv_draw_sw_transform.c ****         abuf += dest_w;
 2027              		.loc 1 151 9 is_stmt 1 discriminator 2 view .LVU701
 151:Drivers/lvgl/src/draw/sw/lv_draw_sw_transform.c ****         abuf += dest_w;
 2028              		.loc 1 151 14 is_stmt 0 discriminator 2 view .LVU702
 2029 0184 06EB4406 		add	r6, r6, r4, lsl #1
 2030              	.LVL257:
 152:Drivers/lvgl/src/draw/sw/lv_draw_sw_transform.c ****     }
 2031              		.loc 1 152 9 is_stmt 1 discriminator 2 view .LVU703
 152:Drivers/lvgl/src/draw/sw/lv_draw_sw_transform.c ****     }
 2032              		.loc 1 152 14 is_stmt 0 discriminator 2 view .LVU704
 2033 0188 2544     		add	r5, r5, r4
 2034              	.LVL258:
 152:Drivers/lvgl/src/draw/sw/lv_draw_sw_transform.c ****     }
 2035              		.loc 1 152 14 discriminator 2 view .LVU705
 2036              	.LBE49:
 111:Drivers/lvgl/src/draw/sw/lv_draw_sw_transform.c ****         int32_t xs1_ups, ys1_ups, xs2_ups, ys2_ups;
 2037              		.loc 1 111 29 is_stmt 1 discriminator 2 view .LVU706
 2038 018a 0137     		adds	r7, r7, #1
 2039              	.LVL259:
 111:Drivers/lvgl/src/draw/sw/lv_draw_sw_transform.c ****         int32_t xs1_ups, ys1_ups, xs2_ups, ys2_ups;
 2040              		.loc 1 111 29 is_stmt 0 discriminator 2 view .LVU707
 2041 018c 3FB2     		sxth	r7, r7
 2042              	.LVL260:
 2043              	.L91:
 111:Drivers/lvgl/src/draw/sw/lv_draw_sw_transform.c ****         int32_t xs1_ups, ys1_ups, xs2_ups, ys2_ups;
 2044              		.loc 1 111 18 is_stmt 1 discriminator 1 view .LVU708
ARM GAS  /var/folders/0z/tsy30v1j4xl4_7kw94k978ww0000gn/T//ccBWD9YH.s 			page 66


 2045 018e 5745     		cmp	r7, r10
 2046 0190 58DA     		bge	.L103
 2047              	.LBB50:
 112:Drivers/lvgl/src/draw/sw/lv_draw_sw_transform.c **** 
 2048              		.loc 1 112 9 view .LVU709
 114:Drivers/lvgl/src/draw/sw/lv_draw_sw_transform.c ****         transform_point_upscaled(&tr_dsc, dest_area->x2, dest_area->y1 + y, &xs2_ups, &ys2_ups);
 2049              		.loc 1 114 9 view .LVU710
 114:Drivers/lvgl/src/draw/sw/lv_draw_sw_transform.c ****         transform_point_upscaled(&tr_dsc, dest_area->x2, dest_area->y1 + y, &xs2_ups, &ys2_ups);
 2050              		.loc 1 114 67 is_stmt 0 view .LVU711
 2051 0192 B9F90220 		ldrsh	r2, [r9, #2]
 114:Drivers/lvgl/src/draw/sw/lv_draw_sw_transform.c ****         transform_point_upscaled(&tr_dsc, dest_area->x2, dest_area->y1 + y, &xs2_ups, &ys2_ups);
 2052              		.loc 1 114 9 view .LVU712
 2053 0196 12AB     		add	r3, sp, #72
 2054 0198 0093     		str	r3, [sp]
 2055 019a 11AB     		add	r3, sp, #68
 2056 019c 3A44     		add	r2, r2, r7
 2057 019e B9F90010 		ldrsh	r1, [r9]
 2058 01a2 15A8     		add	r0, sp, #84
 2059 01a4 FFF7FEFF 		bl	transform_point_upscaled
 2060              	.LVL261:
 115:Drivers/lvgl/src/draw/sw/lv_draw_sw_transform.c **** 
 2061              		.loc 1 115 9 is_stmt 1 view .LVU713
 115:Drivers/lvgl/src/draw/sw/lv_draw_sw_transform.c **** 
 2062              		.loc 1 115 67 is_stmt 0 view .LVU714
 2063 01a8 B9F90220 		ldrsh	r2, [r9, #2]
 115:Drivers/lvgl/src/draw/sw/lv_draw_sw_transform.c **** 
 2064              		.loc 1 115 9 view .LVU715
 2065 01ac 14AB     		add	r3, sp, #80
 2066 01ae 0093     		str	r3, [sp]
 2067 01b0 13AB     		add	r3, sp, #76
 2068 01b2 3A44     		add	r2, r2, r7
 2069 01b4 B9F90410 		ldrsh	r1, [r9, #4]
 2070 01b8 15A8     		add	r0, sp, #84
 2071 01ba FFF7FEFF 		bl	transform_point_upscaled
 2072              	.LVL262:
 117:Drivers/lvgl/src/draw/sw/lv_draw_sw_transform.c ****         int32_t ys_diff = ys2_ups - ys1_ups;
 2073              		.loc 1 117 9 is_stmt 1 view .LVU716
 117:Drivers/lvgl/src/draw/sw/lv_draw_sw_transform.c ****         int32_t ys_diff = ys2_ups - ys1_ups;
 2074              		.loc 1 117 35 is_stmt 0 view .LVU717
 2075 01be 1199     		ldr	r1, [sp, #68]
 117:Drivers/lvgl/src/draw/sw/lv_draw_sw_transform.c ****         int32_t ys_diff = ys2_ups - ys1_ups;
 2076              		.loc 1 117 17 view .LVU718
 2077 01c0 139B     		ldr	r3, [sp, #76]
 2078 01c2 5A1A     		subs	r2, r3, r1
 2079              	.LVL263:
 118:Drivers/lvgl/src/draw/sw/lv_draw_sw_transform.c ****         int32_t xs_step_256 = 0;
 2080              		.loc 1 118 9 is_stmt 1 view .LVU719
 118:Drivers/lvgl/src/draw/sw/lv_draw_sw_transform.c ****         int32_t xs_step_256 = 0;
 2081              		.loc 1 118 35 is_stmt 0 view .LVU720
 2082 01c4 1298     		ldr	r0, [sp, #72]
 118:Drivers/lvgl/src/draw/sw/lv_draw_sw_transform.c ****         int32_t xs_step_256 = 0;
 2083              		.loc 1 118 17 view .LVU721
 2084 01c6 149B     		ldr	r3, [sp, #80]
 2085 01c8 1B1A     		subs	r3, r3, r0
 2086              	.LVL264:
 119:Drivers/lvgl/src/draw/sw/lv_draw_sw_transform.c ****         int32_t ys_step_256 = 0;
 2087              		.loc 1 119 9 is_stmt 1 view .LVU722
ARM GAS  /var/folders/0z/tsy30v1j4xl4_7kw94k978ww0000gn/T//ccBWD9YH.s 			page 67


 120:Drivers/lvgl/src/draw/sw/lv_draw_sw_transform.c ****         if(dest_w > 1) {
 2088              		.loc 1 120 9 view .LVU723
 121:Drivers/lvgl/src/draw/sw/lv_draw_sw_transform.c ****             xs_step_256 = (256 * xs_diff) / (dest_w - 1);
 2089              		.loc 1 121 9 view .LVU724
 121:Drivers/lvgl/src/draw/sw/lv_draw_sw_transform.c ****             xs_step_256 = (256 * xs_diff) / (dest_w - 1);
 2090              		.loc 1 121 11 is_stmt 0 view .LVU725
 2091 01ca 012C     		cmp	r4, #1
 2092 01cc 9CDD     		ble	.L100
 122:Drivers/lvgl/src/draw/sw/lv_draw_sw_transform.c ****             ys_step_256 = (256 * ys_diff) / (dest_w - 1);
 2093              		.loc 1 122 13 is_stmt 1 view .LVU726
 122:Drivers/lvgl/src/draw/sw/lv_draw_sw_transform.c ****             ys_step_256 = (256 * ys_diff) / (dest_w - 1);
 2094              		.loc 1 122 32 is_stmt 0 view .LVU727
 2095 01ce 1202     		lsls	r2, r2, #8
 2096              	.LVL265:
 122:Drivers/lvgl/src/draw/sw/lv_draw_sw_transform.c ****             ys_step_256 = (256 * ys_diff) / (dest_w - 1);
 2097              		.loc 1 122 53 view .LVU728
 2098 01d0 04F1FF3C 		add	ip, r4, #-1
 122:Drivers/lvgl/src/draw/sw/lv_draw_sw_transform.c ****             ys_step_256 = (256 * ys_diff) / (dest_w - 1);
 2099              		.loc 1 122 25 view .LVU729
 2100 01d4 92FBFCF2 		sdiv	r2, r2, ip
 2101              	.LVL266:
 123:Drivers/lvgl/src/draw/sw/lv_draw_sw_transform.c ****         }
 2102              		.loc 1 123 13 is_stmt 1 view .LVU730
 123:Drivers/lvgl/src/draw/sw/lv_draw_sw_transform.c ****         }
 2103              		.loc 1 123 32 is_stmt 0 view .LVU731
 2104 01d8 1B02     		lsls	r3, r3, #8
 2105              	.LVL267:
 123:Drivers/lvgl/src/draw/sw/lv_draw_sw_transform.c ****         }
 2106              		.loc 1 123 25 view .LVU732
 2107 01da 93FBFCF3 		sdiv	r3, r3, ip
 2108              	.LVL268:
 2109              	.L92:
 125:Drivers/lvgl/src/draw/sw/lv_draw_sw_transform.c ****         int32_t ys_ups = ys1_ups + 0x80;
 2110              		.loc 1 125 9 is_stmt 1 view .LVU733
 125:Drivers/lvgl/src/draw/sw/lv_draw_sw_transform.c ****         int32_t ys_ups = ys1_ups + 0x80;
 2111              		.loc 1 125 17 is_stmt 0 view .LVU734
 2112 01de 8031     		adds	r1, r1, #128
 2113              	.LVL269:
 126:Drivers/lvgl/src/draw/sw/lv_draw_sw_transform.c **** 
 2114              		.loc 1 126 9 is_stmt 1 view .LVU735
 126:Drivers/lvgl/src/draw/sw/lv_draw_sw_transform.c **** 
 2115              		.loc 1 126 17 is_stmt 0 view .LVU736
 2116 01e0 8030     		adds	r0, r0, #128
 2117              	.LVL270:
 128:Drivers/lvgl/src/draw/sw/lv_draw_sw_transform.c ****             switch(cf) {
 2118              		.loc 1 128 9 is_stmt 1 view .LVU737
 128:Drivers/lvgl/src/draw/sw/lv_draw_sw_transform.c ****             switch(cf) {
 2119              		.loc 1 128 32 is_stmt 0 view .LVU738
 2120 01e2 98F814C0 		ldrb	ip, [r8, #20]	@ zero_extendqisi2
 128:Drivers/lvgl/src/draw/sw/lv_draw_sw_transform.c ****             switch(cf) {
 2121              		.loc 1 128 11 view .LVU739
 2122 01e6 1CF0010F 		tst	ip, #1
 2123 01ea BCD1     		bne	.L93
 129:Drivers/lvgl/src/draw/sw/lv_draw_sw_transform.c ****                 case LV_IMG_CF_TRUE_COLOR_ALPHA:
 2124              		.loc 1 129 13 is_stmt 1 view .LVU740
 2125 01ec ABF1040C 		sub	ip, fp, #4
 2126 01f0 BCF1100F 		cmp	ip, #16
ARM GAS  /var/folders/0z/tsy30v1j4xl4_7kw94k978ww0000gn/T//ccBWD9YH.s 			page 68


 2127 01f4 C6D8     		bhi	.L94
 2128 01f6 0FF2080E 		adr	lr, .L96
 2129 01fa 5EF82CF0 		ldr	pc, [lr, ip, lsl #2]
 2130 01fe 00BF     		.p2align 2
 2131              	.L96:
 2132 0200 2B010000 		.word	.L97+1
 2133 0204 0F010000 		.word	.L98+1
 2134 0208 2B010000 		.word	.L97+1
 2135 020c 85010000 		.word	.L94+1
 2136 0210 85010000 		.word	.L94+1
 2137 0214 85010000 		.word	.L94+1
 2138 0218 85010000 		.word	.L94+1
 2139 021c 85010000 		.word	.L94+1
 2140 0220 85010000 		.word	.L94+1
 2141 0224 85010000 		.word	.L94+1
 2142 0228 85010000 		.word	.L94+1
 2143 022c 85010000 		.word	.L94+1
 2144 0230 85010000 		.word	.L94+1
 2145 0234 85010000 		.word	.L94+1
 2146 0238 85010000 		.word	.L94+1
 2147 023c 85010000 		.word	.L94+1
 2148 0240 4B010000 		.word	.L95+1
 2149              	.LVL271:
 2150              		.p2align 1
 2151              	.L103:
