ARM GAS  /var/folders/0z/tsy30v1j4xl4_7kw94k978ww0000gn/T//cclcOfIK.s 			page 1


   1              		.cpu cortex-m4
   2              		.arch armv7e-m
   3              		.fpu fpv4-sp-d16
   4              		.eabi_attribute 27, 1
   5              		.eabi_attribute 28, 1
   6              		.eabi_attribute 20, 1
   7              		.eabi_attribute 21, 1
   8              		.eabi_attribute 23, 3
   9              		.eabi_attribute 24, 1
  10              		.eabi_attribute 25, 1
  11              		.eabi_attribute 26, 1
  12              		.eabi_attribute 30, 1
  13              		.eabi_attribute 34, 1
  14              		.eabi_attribute 18, 4
  15              		.file	"lv_grid.c"
  16              		.text
  17              	.Ltext0:
  18              		.cfi_sections	.debug_frame
  19              		.section	.text.grid_align,"ax",%progbits
  20              		.align	1
  21              		.syntax unified
  22              		.thumb
  23              		.thumb_func
  25              	grid_align:
  26              	.LVL0:
  27              	.LFB217:
  28              		.file 1 "Drivers/lvgl/src/extra/layouts/grid/lv_grid.c"
   1:Drivers/lvgl/src/extra/layouts/grid/lv_grid.c **** /**
   2:Drivers/lvgl/src/extra/layouts/grid/lv_grid.c ****  * @file lv_grid.c
   3:Drivers/lvgl/src/extra/layouts/grid/lv_grid.c ****  *
   4:Drivers/lvgl/src/extra/layouts/grid/lv_grid.c ****  */
   5:Drivers/lvgl/src/extra/layouts/grid/lv_grid.c **** 
   6:Drivers/lvgl/src/extra/layouts/grid/lv_grid.c **** /*********************
   7:Drivers/lvgl/src/extra/layouts/grid/lv_grid.c ****  *      INCLUDES
   8:Drivers/lvgl/src/extra/layouts/grid/lv_grid.c ****  *********************/
   9:Drivers/lvgl/src/extra/layouts/grid/lv_grid.c **** #include "../lv_layouts.h"
  10:Drivers/lvgl/src/extra/layouts/grid/lv_grid.c **** 
  11:Drivers/lvgl/src/extra/layouts/grid/lv_grid.c **** #if LV_USE_GRID
  12:Drivers/lvgl/src/extra/layouts/grid/lv_grid.c **** 
  13:Drivers/lvgl/src/extra/layouts/grid/lv_grid.c **** /*********************
  14:Drivers/lvgl/src/extra/layouts/grid/lv_grid.c ****  *      DEFINES
  15:Drivers/lvgl/src/extra/layouts/grid/lv_grid.c ****  *********************/
  16:Drivers/lvgl/src/extra/layouts/grid/lv_grid.c **** /**
  17:Drivers/lvgl/src/extra/layouts/grid/lv_grid.c ****  * Some helper defines
  18:Drivers/lvgl/src/extra/layouts/grid/lv_grid.c ****  */
  19:Drivers/lvgl/src/extra/layouts/grid/lv_grid.c **** #define IS_FR(x)       (x >= LV_COORD_MAX - 100)
  20:Drivers/lvgl/src/extra/layouts/grid/lv_grid.c **** #define IS_CONTENT(x)  (x == LV_COORD_MAX - 101)
  21:Drivers/lvgl/src/extra/layouts/grid/lv_grid.c **** #define GET_FR(x)      (x - (LV_COORD_MAX - 100))
  22:Drivers/lvgl/src/extra/layouts/grid/lv_grid.c **** 
  23:Drivers/lvgl/src/extra/layouts/grid/lv_grid.c **** /**********************
  24:Drivers/lvgl/src/extra/layouts/grid/lv_grid.c ****  *      TYPEDEFS
  25:Drivers/lvgl/src/extra/layouts/grid/lv_grid.c ****  **********************/
  26:Drivers/lvgl/src/extra/layouts/grid/lv_grid.c **** typedef struct {
  27:Drivers/lvgl/src/extra/layouts/grid/lv_grid.c ****     uint32_t col;
  28:Drivers/lvgl/src/extra/layouts/grid/lv_grid.c ****     uint32_t row;
  29:Drivers/lvgl/src/extra/layouts/grid/lv_grid.c ****     lv_point_t grid_abs;
  30:Drivers/lvgl/src/extra/layouts/grid/lv_grid.c **** } item_repos_hint_t;
ARM GAS  /var/folders/0z/tsy30v1j4xl4_7kw94k978ww0000gn/T//cclcOfIK.s 			page 2


  31:Drivers/lvgl/src/extra/layouts/grid/lv_grid.c **** 
  32:Drivers/lvgl/src/extra/layouts/grid/lv_grid.c **** typedef struct {
  33:Drivers/lvgl/src/extra/layouts/grid/lv_grid.c ****     lv_coord_t * x;
  34:Drivers/lvgl/src/extra/layouts/grid/lv_grid.c ****     lv_coord_t * y;
  35:Drivers/lvgl/src/extra/layouts/grid/lv_grid.c ****     lv_coord_t * w;
  36:Drivers/lvgl/src/extra/layouts/grid/lv_grid.c ****     lv_coord_t * h;
  37:Drivers/lvgl/src/extra/layouts/grid/lv_grid.c ****     uint32_t col_num;
  38:Drivers/lvgl/src/extra/layouts/grid/lv_grid.c ****     uint32_t row_num;
  39:Drivers/lvgl/src/extra/layouts/grid/lv_grid.c ****     lv_coord_t grid_w;
  40:Drivers/lvgl/src/extra/layouts/grid/lv_grid.c ****     lv_coord_t grid_h;
  41:Drivers/lvgl/src/extra/layouts/grid/lv_grid.c **** } _lv_grid_calc_t;
  42:Drivers/lvgl/src/extra/layouts/grid/lv_grid.c **** 
  43:Drivers/lvgl/src/extra/layouts/grid/lv_grid.c **** 
  44:Drivers/lvgl/src/extra/layouts/grid/lv_grid.c **** /**********************
  45:Drivers/lvgl/src/extra/layouts/grid/lv_grid.c ****  *  GLOBAL PROTOTYPES
  46:Drivers/lvgl/src/extra/layouts/grid/lv_grid.c ****  **********************/
  47:Drivers/lvgl/src/extra/layouts/grid/lv_grid.c **** 
  48:Drivers/lvgl/src/extra/layouts/grid/lv_grid.c **** /**********************
  49:Drivers/lvgl/src/extra/layouts/grid/lv_grid.c ****  *  STATIC PROTOTYPES
  50:Drivers/lvgl/src/extra/layouts/grid/lv_grid.c ****  **********************/
  51:Drivers/lvgl/src/extra/layouts/grid/lv_grid.c **** static void grid_update(lv_obj_t * cont, void * user_data);
  52:Drivers/lvgl/src/extra/layouts/grid/lv_grid.c **** static void calc(lv_obj_t * obj, _lv_grid_calc_t * calc);
  53:Drivers/lvgl/src/extra/layouts/grid/lv_grid.c **** static void calc_free(_lv_grid_calc_t * calc);
  54:Drivers/lvgl/src/extra/layouts/grid/lv_grid.c **** static void calc_cols(lv_obj_t * cont, _lv_grid_calc_t * c);
  55:Drivers/lvgl/src/extra/layouts/grid/lv_grid.c **** static void calc_rows(lv_obj_t * cont, _lv_grid_calc_t * c);
  56:Drivers/lvgl/src/extra/layouts/grid/lv_grid.c **** static void item_repos(lv_obj_t * item, _lv_grid_calc_t * c, item_repos_hint_t * hint);
  57:Drivers/lvgl/src/extra/layouts/grid/lv_grid.c **** static lv_coord_t grid_align(lv_coord_t cont_size,  bool auto_size, uint8_t align, lv_coord_t gap, 
  58:Drivers/lvgl/src/extra/layouts/grid/lv_grid.c ****                              lv_coord_t * size_array, lv_coord_t * pos_array, bool reverse);
  59:Drivers/lvgl/src/extra/layouts/grid/lv_grid.c **** static uint32_t count_tracks(const lv_coord_t * templ);
  60:Drivers/lvgl/src/extra/layouts/grid/lv_grid.c **** 
  61:Drivers/lvgl/src/extra/layouts/grid/lv_grid.c **** static inline const lv_coord_t * get_col_dsc(lv_obj_t * obj)
  62:Drivers/lvgl/src/extra/layouts/grid/lv_grid.c **** {
  63:Drivers/lvgl/src/extra/layouts/grid/lv_grid.c ****     return lv_obj_get_style_grid_column_dsc_array(obj, 0);
  64:Drivers/lvgl/src/extra/layouts/grid/lv_grid.c **** }
  65:Drivers/lvgl/src/extra/layouts/grid/lv_grid.c **** static inline const lv_coord_t * get_row_dsc(lv_obj_t * obj)
  66:Drivers/lvgl/src/extra/layouts/grid/lv_grid.c **** {
  67:Drivers/lvgl/src/extra/layouts/grid/lv_grid.c ****     return lv_obj_get_style_grid_row_dsc_array(obj, 0);
  68:Drivers/lvgl/src/extra/layouts/grid/lv_grid.c **** }
  69:Drivers/lvgl/src/extra/layouts/grid/lv_grid.c **** static inline uint8_t get_col_pos(lv_obj_t * obj)
  70:Drivers/lvgl/src/extra/layouts/grid/lv_grid.c **** {
  71:Drivers/lvgl/src/extra/layouts/grid/lv_grid.c ****     return lv_obj_get_style_grid_cell_column_pos(obj, 0);
  72:Drivers/lvgl/src/extra/layouts/grid/lv_grid.c **** }
  73:Drivers/lvgl/src/extra/layouts/grid/lv_grid.c **** static inline uint8_t get_row_pos(lv_obj_t * obj)
  74:Drivers/lvgl/src/extra/layouts/grid/lv_grid.c **** {
  75:Drivers/lvgl/src/extra/layouts/grid/lv_grid.c ****     return lv_obj_get_style_grid_cell_row_pos(obj, 0);
  76:Drivers/lvgl/src/extra/layouts/grid/lv_grid.c **** }
  77:Drivers/lvgl/src/extra/layouts/grid/lv_grid.c **** static inline uint8_t get_col_span(lv_obj_t * obj)
  78:Drivers/lvgl/src/extra/layouts/grid/lv_grid.c **** {
  79:Drivers/lvgl/src/extra/layouts/grid/lv_grid.c ****     return lv_obj_get_style_grid_cell_column_span(obj, 0);
  80:Drivers/lvgl/src/extra/layouts/grid/lv_grid.c **** }
  81:Drivers/lvgl/src/extra/layouts/grid/lv_grid.c **** static inline uint8_t get_row_span(lv_obj_t * obj)
  82:Drivers/lvgl/src/extra/layouts/grid/lv_grid.c **** {
  83:Drivers/lvgl/src/extra/layouts/grid/lv_grid.c ****     return lv_obj_get_style_grid_cell_row_span(obj, 0);
  84:Drivers/lvgl/src/extra/layouts/grid/lv_grid.c **** }
  85:Drivers/lvgl/src/extra/layouts/grid/lv_grid.c **** static inline uint8_t get_cell_col_align(lv_obj_t * obj)
  86:Drivers/lvgl/src/extra/layouts/grid/lv_grid.c **** {
  87:Drivers/lvgl/src/extra/layouts/grid/lv_grid.c ****     return lv_obj_get_style_grid_cell_x_align(obj, 0);
ARM GAS  /var/folders/0z/tsy30v1j4xl4_7kw94k978ww0000gn/T//cclcOfIK.s 			page 3


  88:Drivers/lvgl/src/extra/layouts/grid/lv_grid.c **** }
  89:Drivers/lvgl/src/extra/layouts/grid/lv_grid.c **** static inline uint8_t get_cell_row_align(lv_obj_t * obj)
  90:Drivers/lvgl/src/extra/layouts/grid/lv_grid.c **** {
  91:Drivers/lvgl/src/extra/layouts/grid/lv_grid.c ****     return lv_obj_get_style_grid_cell_y_align(obj, 0);
  92:Drivers/lvgl/src/extra/layouts/grid/lv_grid.c **** }
  93:Drivers/lvgl/src/extra/layouts/grid/lv_grid.c **** static inline uint8_t get_grid_col_align(lv_obj_t * obj)
  94:Drivers/lvgl/src/extra/layouts/grid/lv_grid.c **** {
  95:Drivers/lvgl/src/extra/layouts/grid/lv_grid.c ****     return lv_obj_get_style_grid_column_align(obj, 0);
  96:Drivers/lvgl/src/extra/layouts/grid/lv_grid.c **** }
  97:Drivers/lvgl/src/extra/layouts/grid/lv_grid.c **** static inline uint8_t get_grid_row_align(lv_obj_t * obj)
  98:Drivers/lvgl/src/extra/layouts/grid/lv_grid.c **** {
  99:Drivers/lvgl/src/extra/layouts/grid/lv_grid.c ****     return lv_obj_get_style_grid_row_align(obj, 0);
 100:Drivers/lvgl/src/extra/layouts/grid/lv_grid.c **** }
 101:Drivers/lvgl/src/extra/layouts/grid/lv_grid.c **** 
 102:Drivers/lvgl/src/extra/layouts/grid/lv_grid.c **** /**********************
 103:Drivers/lvgl/src/extra/layouts/grid/lv_grid.c ****  *  GLOBAL VARIABLES
 104:Drivers/lvgl/src/extra/layouts/grid/lv_grid.c ****  **********************/
 105:Drivers/lvgl/src/extra/layouts/grid/lv_grid.c **** uint16_t LV_LAYOUT_GRID;
 106:Drivers/lvgl/src/extra/layouts/grid/lv_grid.c **** lv_style_prop_t LV_STYLE_GRID_COLUMN_DSC_ARRAY;
 107:Drivers/lvgl/src/extra/layouts/grid/lv_grid.c **** lv_style_prop_t LV_STYLE_GRID_COLUMN_ALIGN;
 108:Drivers/lvgl/src/extra/layouts/grid/lv_grid.c **** lv_style_prop_t LV_STYLE_GRID_ROW_DSC_ARRAY;
 109:Drivers/lvgl/src/extra/layouts/grid/lv_grid.c **** lv_style_prop_t LV_STYLE_GRID_ROW_ALIGN;
 110:Drivers/lvgl/src/extra/layouts/grid/lv_grid.c **** lv_style_prop_t LV_STYLE_GRID_CELL_COLUMN_POS;
 111:Drivers/lvgl/src/extra/layouts/grid/lv_grid.c **** lv_style_prop_t LV_STYLE_GRID_CELL_COLUMN_SPAN;
 112:Drivers/lvgl/src/extra/layouts/grid/lv_grid.c **** lv_style_prop_t LV_STYLE_GRID_CELL_X_ALIGN;
 113:Drivers/lvgl/src/extra/layouts/grid/lv_grid.c **** lv_style_prop_t LV_STYLE_GRID_CELL_ROW_POS;
 114:Drivers/lvgl/src/extra/layouts/grid/lv_grid.c **** lv_style_prop_t LV_STYLE_GRID_CELL_ROW_SPAN;
 115:Drivers/lvgl/src/extra/layouts/grid/lv_grid.c **** lv_style_prop_t LV_STYLE_GRID_CELL_Y_ALIGN;
 116:Drivers/lvgl/src/extra/layouts/grid/lv_grid.c **** 
 117:Drivers/lvgl/src/extra/layouts/grid/lv_grid.c **** /**********************
 118:Drivers/lvgl/src/extra/layouts/grid/lv_grid.c ****  *  STATIC VARIABLES
 119:Drivers/lvgl/src/extra/layouts/grid/lv_grid.c ****  **********************/
 120:Drivers/lvgl/src/extra/layouts/grid/lv_grid.c **** 
 121:Drivers/lvgl/src/extra/layouts/grid/lv_grid.c **** /**********************
 122:Drivers/lvgl/src/extra/layouts/grid/lv_grid.c ****  *      MACROS
 123:Drivers/lvgl/src/extra/layouts/grid/lv_grid.c ****  **********************/
 124:Drivers/lvgl/src/extra/layouts/grid/lv_grid.c **** 
 125:Drivers/lvgl/src/extra/layouts/grid/lv_grid.c **** /**********************
 126:Drivers/lvgl/src/extra/layouts/grid/lv_grid.c ****  *   GLOBAL FUNCTIONS
 127:Drivers/lvgl/src/extra/layouts/grid/lv_grid.c ****  **********************/
 128:Drivers/lvgl/src/extra/layouts/grid/lv_grid.c **** 
 129:Drivers/lvgl/src/extra/layouts/grid/lv_grid.c **** 
 130:Drivers/lvgl/src/extra/layouts/grid/lv_grid.c **** void lv_grid_init(void)
 131:Drivers/lvgl/src/extra/layouts/grid/lv_grid.c **** {
 132:Drivers/lvgl/src/extra/layouts/grid/lv_grid.c ****     LV_LAYOUT_GRID = lv_layout_register(grid_update, NULL);
 133:Drivers/lvgl/src/extra/layouts/grid/lv_grid.c **** 
 134:Drivers/lvgl/src/extra/layouts/grid/lv_grid.c ****     LV_STYLE_GRID_COLUMN_DSC_ARRAY = lv_style_register_prop(LV_STYLE_PROP_LAYOUT_REFR);
 135:Drivers/lvgl/src/extra/layouts/grid/lv_grid.c ****     LV_STYLE_GRID_ROW_DSC_ARRAY = lv_style_register_prop(LV_STYLE_PROP_LAYOUT_REFR);
 136:Drivers/lvgl/src/extra/layouts/grid/lv_grid.c ****     LV_STYLE_GRID_COLUMN_ALIGN = lv_style_register_prop(LV_STYLE_PROP_LAYOUT_REFR);
 137:Drivers/lvgl/src/extra/layouts/grid/lv_grid.c ****     LV_STYLE_GRID_ROW_ALIGN = lv_style_register_prop(LV_STYLE_PROP_LAYOUT_REFR);
 138:Drivers/lvgl/src/extra/layouts/grid/lv_grid.c **** 
 139:Drivers/lvgl/src/extra/layouts/grid/lv_grid.c ****     LV_STYLE_GRID_CELL_ROW_SPAN = lv_style_register_prop(LV_STYLE_PROP_LAYOUT_REFR);
 140:Drivers/lvgl/src/extra/layouts/grid/lv_grid.c ****     LV_STYLE_GRID_CELL_ROW_POS = lv_style_register_prop(LV_STYLE_PROP_LAYOUT_REFR);
 141:Drivers/lvgl/src/extra/layouts/grid/lv_grid.c ****     LV_STYLE_GRID_CELL_COLUMN_SPAN = lv_style_register_prop(LV_STYLE_PROP_LAYOUT_REFR);
 142:Drivers/lvgl/src/extra/layouts/grid/lv_grid.c ****     LV_STYLE_GRID_CELL_COLUMN_POS = lv_style_register_prop(LV_STYLE_PROP_LAYOUT_REFR);
 143:Drivers/lvgl/src/extra/layouts/grid/lv_grid.c ****     LV_STYLE_GRID_CELL_X_ALIGN = lv_style_register_prop(LV_STYLE_PROP_LAYOUT_REFR);
 144:Drivers/lvgl/src/extra/layouts/grid/lv_grid.c ****     LV_STYLE_GRID_CELL_Y_ALIGN = lv_style_register_prop(LV_STYLE_PROP_LAYOUT_REFR);
ARM GAS  /var/folders/0z/tsy30v1j4xl4_7kw94k978ww0000gn/T//cclcOfIK.s 			page 4


 145:Drivers/lvgl/src/extra/layouts/grid/lv_grid.c **** }
 146:Drivers/lvgl/src/extra/layouts/grid/lv_grid.c **** 
 147:Drivers/lvgl/src/extra/layouts/grid/lv_grid.c **** void lv_obj_set_grid_dsc_array(lv_obj_t * obj, const lv_coord_t col_dsc[], const lv_coord_t row_dsc
 148:Drivers/lvgl/src/extra/layouts/grid/lv_grid.c **** {
 149:Drivers/lvgl/src/extra/layouts/grid/lv_grid.c ****     lv_obj_set_style_grid_column_dsc_array(obj, col_dsc, 0);
 150:Drivers/lvgl/src/extra/layouts/grid/lv_grid.c ****     lv_obj_set_style_grid_row_dsc_array(obj, row_dsc, 0);
 151:Drivers/lvgl/src/extra/layouts/grid/lv_grid.c ****     lv_obj_set_style_layout(obj, LV_LAYOUT_GRID, 0);
 152:Drivers/lvgl/src/extra/layouts/grid/lv_grid.c **** }
 153:Drivers/lvgl/src/extra/layouts/grid/lv_grid.c **** 
 154:Drivers/lvgl/src/extra/layouts/grid/lv_grid.c **** void lv_obj_set_grid_align(lv_obj_t * obj, lv_grid_align_t column_align, lv_grid_align_t row_align)
 155:Drivers/lvgl/src/extra/layouts/grid/lv_grid.c **** {
 156:Drivers/lvgl/src/extra/layouts/grid/lv_grid.c ****     lv_obj_set_style_grid_column_align(obj, column_align, 0);
 157:Drivers/lvgl/src/extra/layouts/grid/lv_grid.c ****     lv_obj_set_style_grid_row_align(obj, row_align, 0);
 158:Drivers/lvgl/src/extra/layouts/grid/lv_grid.c **** 
 159:Drivers/lvgl/src/extra/layouts/grid/lv_grid.c **** }
 160:Drivers/lvgl/src/extra/layouts/grid/lv_grid.c **** 
 161:Drivers/lvgl/src/extra/layouts/grid/lv_grid.c **** void lv_obj_set_grid_cell(lv_obj_t * obj, lv_grid_align_t x_align, uint8_t col_pos, uint8_t col_spa
 162:Drivers/lvgl/src/extra/layouts/grid/lv_grid.c ****                           lv_grid_align_t y_align, uint8_t row_pos, uint8_t row_span)
 163:Drivers/lvgl/src/extra/layouts/grid/lv_grid.c **** 
 164:Drivers/lvgl/src/extra/layouts/grid/lv_grid.c **** {
 165:Drivers/lvgl/src/extra/layouts/grid/lv_grid.c ****     lv_obj_set_style_grid_cell_column_pos(obj, col_pos, 0);
 166:Drivers/lvgl/src/extra/layouts/grid/lv_grid.c ****     lv_obj_set_style_grid_cell_row_pos(obj, row_pos, 0);
 167:Drivers/lvgl/src/extra/layouts/grid/lv_grid.c ****     lv_obj_set_style_grid_cell_x_align(obj, x_align, 0);
 168:Drivers/lvgl/src/extra/layouts/grid/lv_grid.c ****     lv_obj_set_style_grid_cell_column_span(obj, col_span, 0);
 169:Drivers/lvgl/src/extra/layouts/grid/lv_grid.c ****     lv_obj_set_style_grid_cell_row_span(obj, row_span, 0);
 170:Drivers/lvgl/src/extra/layouts/grid/lv_grid.c ****     lv_obj_set_style_grid_cell_y_align(obj, y_align, 0);
 171:Drivers/lvgl/src/extra/layouts/grid/lv_grid.c **** 
 172:Drivers/lvgl/src/extra/layouts/grid/lv_grid.c ****     lv_obj_mark_layout_as_dirty(lv_obj_get_parent(obj));
 173:Drivers/lvgl/src/extra/layouts/grid/lv_grid.c **** }
 174:Drivers/lvgl/src/extra/layouts/grid/lv_grid.c **** 
 175:Drivers/lvgl/src/extra/layouts/grid/lv_grid.c **** 
 176:Drivers/lvgl/src/extra/layouts/grid/lv_grid.c **** void lv_style_set_grid_row_dsc_array(lv_style_t * style, const lv_coord_t value[])
 177:Drivers/lvgl/src/extra/layouts/grid/lv_grid.c **** {
 178:Drivers/lvgl/src/extra/layouts/grid/lv_grid.c ****     lv_style_value_t v = {
 179:Drivers/lvgl/src/extra/layouts/grid/lv_grid.c ****         .ptr = (const void *)value
 180:Drivers/lvgl/src/extra/layouts/grid/lv_grid.c ****     };
 181:Drivers/lvgl/src/extra/layouts/grid/lv_grid.c ****     lv_style_set_prop(style, LV_STYLE_GRID_ROW_DSC_ARRAY, v);
 182:Drivers/lvgl/src/extra/layouts/grid/lv_grid.c **** }
 183:Drivers/lvgl/src/extra/layouts/grid/lv_grid.c **** 
 184:Drivers/lvgl/src/extra/layouts/grid/lv_grid.c **** void lv_style_set_grid_column_dsc_array(lv_style_t * style, const lv_coord_t value[])
 185:Drivers/lvgl/src/extra/layouts/grid/lv_grid.c **** {
 186:Drivers/lvgl/src/extra/layouts/grid/lv_grid.c ****     lv_style_value_t v = {
 187:Drivers/lvgl/src/extra/layouts/grid/lv_grid.c ****         .ptr = (const void *)value
 188:Drivers/lvgl/src/extra/layouts/grid/lv_grid.c ****     };
 189:Drivers/lvgl/src/extra/layouts/grid/lv_grid.c ****     lv_style_set_prop(style, LV_STYLE_GRID_COLUMN_DSC_ARRAY, v);
 190:Drivers/lvgl/src/extra/layouts/grid/lv_grid.c **** }
 191:Drivers/lvgl/src/extra/layouts/grid/lv_grid.c **** 
 192:Drivers/lvgl/src/extra/layouts/grid/lv_grid.c **** void lv_style_set_grid_row_align(lv_style_t * style, lv_grid_align_t value)
 193:Drivers/lvgl/src/extra/layouts/grid/lv_grid.c **** {
 194:Drivers/lvgl/src/extra/layouts/grid/lv_grid.c ****     lv_style_value_t v = {
 195:Drivers/lvgl/src/extra/layouts/grid/lv_grid.c ****         .num = (lv_grid_align_t)value
 196:Drivers/lvgl/src/extra/layouts/grid/lv_grid.c ****     };
 197:Drivers/lvgl/src/extra/layouts/grid/lv_grid.c ****     lv_style_set_prop(style, LV_STYLE_GRID_ROW_ALIGN, v);
 198:Drivers/lvgl/src/extra/layouts/grid/lv_grid.c **** }
 199:Drivers/lvgl/src/extra/layouts/grid/lv_grid.c **** 
 200:Drivers/lvgl/src/extra/layouts/grid/lv_grid.c **** void lv_style_set_grid_column_align(lv_style_t * style, lv_grid_align_t value)
 201:Drivers/lvgl/src/extra/layouts/grid/lv_grid.c **** {
ARM GAS  /var/folders/0z/tsy30v1j4xl4_7kw94k978ww0000gn/T//cclcOfIK.s 			page 5


 202:Drivers/lvgl/src/extra/layouts/grid/lv_grid.c ****     lv_style_value_t v = {
 203:Drivers/lvgl/src/extra/layouts/grid/lv_grid.c ****         .num = (lv_grid_align_t)value
 204:Drivers/lvgl/src/extra/layouts/grid/lv_grid.c ****     };
 205:Drivers/lvgl/src/extra/layouts/grid/lv_grid.c ****     lv_style_set_prop(style, LV_STYLE_GRID_COLUMN_ALIGN, v);
 206:Drivers/lvgl/src/extra/layouts/grid/lv_grid.c **** }
 207:Drivers/lvgl/src/extra/layouts/grid/lv_grid.c **** 
 208:Drivers/lvgl/src/extra/layouts/grid/lv_grid.c **** 
 209:Drivers/lvgl/src/extra/layouts/grid/lv_grid.c **** void lv_style_set_grid_cell_column_pos(lv_style_t * style, lv_coord_t value)
 210:Drivers/lvgl/src/extra/layouts/grid/lv_grid.c **** {
 211:Drivers/lvgl/src/extra/layouts/grid/lv_grid.c ****     lv_style_value_t v = {
 212:Drivers/lvgl/src/extra/layouts/grid/lv_grid.c ****         .num = value
 213:Drivers/lvgl/src/extra/layouts/grid/lv_grid.c ****     };
 214:Drivers/lvgl/src/extra/layouts/grid/lv_grid.c ****     lv_style_set_prop(style, LV_STYLE_GRID_CELL_COLUMN_POS, v);
 215:Drivers/lvgl/src/extra/layouts/grid/lv_grid.c **** }
 216:Drivers/lvgl/src/extra/layouts/grid/lv_grid.c **** 
 217:Drivers/lvgl/src/extra/layouts/grid/lv_grid.c **** void lv_style_set_grid_cell_column_span(lv_style_t * style, lv_coord_t value)
 218:Drivers/lvgl/src/extra/layouts/grid/lv_grid.c **** {
 219:Drivers/lvgl/src/extra/layouts/grid/lv_grid.c ****     lv_style_value_t v = {
 220:Drivers/lvgl/src/extra/layouts/grid/lv_grid.c ****         .num = value
 221:Drivers/lvgl/src/extra/layouts/grid/lv_grid.c ****     };
 222:Drivers/lvgl/src/extra/layouts/grid/lv_grid.c ****     lv_style_set_prop(style, LV_STYLE_GRID_CELL_COLUMN_SPAN, v);
 223:Drivers/lvgl/src/extra/layouts/grid/lv_grid.c **** }
 224:Drivers/lvgl/src/extra/layouts/grid/lv_grid.c **** 
 225:Drivers/lvgl/src/extra/layouts/grid/lv_grid.c **** void lv_style_set_grid_cell_row_pos(lv_style_t * style, lv_coord_t value)
 226:Drivers/lvgl/src/extra/layouts/grid/lv_grid.c **** {
 227:Drivers/lvgl/src/extra/layouts/grid/lv_grid.c ****     lv_style_value_t v = {
 228:Drivers/lvgl/src/extra/layouts/grid/lv_grid.c ****         .num = value
 229:Drivers/lvgl/src/extra/layouts/grid/lv_grid.c ****     };
 230:Drivers/lvgl/src/extra/layouts/grid/lv_grid.c ****     lv_style_set_prop(style, LV_STYLE_GRID_CELL_ROW_POS, v);
 231:Drivers/lvgl/src/extra/layouts/grid/lv_grid.c **** }
 232:Drivers/lvgl/src/extra/layouts/grid/lv_grid.c **** 
 233:Drivers/lvgl/src/extra/layouts/grid/lv_grid.c **** void lv_style_set_grid_cell_row_span(lv_style_t * style, lv_coord_t value)
 234:Drivers/lvgl/src/extra/layouts/grid/lv_grid.c **** {
 235:Drivers/lvgl/src/extra/layouts/grid/lv_grid.c ****     lv_style_value_t v = {
 236:Drivers/lvgl/src/extra/layouts/grid/lv_grid.c ****         .num = value
 237:Drivers/lvgl/src/extra/layouts/grid/lv_grid.c ****     };
 238:Drivers/lvgl/src/extra/layouts/grid/lv_grid.c ****     lv_style_set_prop(style, LV_STYLE_GRID_CELL_ROW_SPAN, v);
 239:Drivers/lvgl/src/extra/layouts/grid/lv_grid.c **** }
 240:Drivers/lvgl/src/extra/layouts/grid/lv_grid.c **** 
 241:Drivers/lvgl/src/extra/layouts/grid/lv_grid.c **** void lv_style_set_grid_cell_x_align(lv_style_t * style, lv_coord_t value)
 242:Drivers/lvgl/src/extra/layouts/grid/lv_grid.c **** {
 243:Drivers/lvgl/src/extra/layouts/grid/lv_grid.c ****     lv_style_value_t v = {
 244:Drivers/lvgl/src/extra/layouts/grid/lv_grid.c ****         .num = value
 245:Drivers/lvgl/src/extra/layouts/grid/lv_grid.c ****     };
 246:Drivers/lvgl/src/extra/layouts/grid/lv_grid.c ****     lv_style_set_prop(style, LV_STYLE_GRID_CELL_X_ALIGN, v);
 247:Drivers/lvgl/src/extra/layouts/grid/lv_grid.c **** }
 248:Drivers/lvgl/src/extra/layouts/grid/lv_grid.c **** 
 249:Drivers/lvgl/src/extra/layouts/grid/lv_grid.c **** void lv_style_set_grid_cell_y_align(lv_style_t * style, lv_coord_t value)
 250:Drivers/lvgl/src/extra/layouts/grid/lv_grid.c **** {
 251:Drivers/lvgl/src/extra/layouts/grid/lv_grid.c ****     lv_style_value_t v = {
 252:Drivers/lvgl/src/extra/layouts/grid/lv_grid.c ****         .num = value
 253:Drivers/lvgl/src/extra/layouts/grid/lv_grid.c ****     };
 254:Drivers/lvgl/src/extra/layouts/grid/lv_grid.c ****     lv_style_set_prop(style, LV_STYLE_GRID_CELL_Y_ALIGN, v);
 255:Drivers/lvgl/src/extra/layouts/grid/lv_grid.c **** }
 256:Drivers/lvgl/src/extra/layouts/grid/lv_grid.c **** 
 257:Drivers/lvgl/src/extra/layouts/grid/lv_grid.c **** void lv_obj_set_style_grid_row_dsc_array(lv_obj_t * obj, const lv_coord_t value[], lv_style_selecto
 258:Drivers/lvgl/src/extra/layouts/grid/lv_grid.c **** {
ARM GAS  /var/folders/0z/tsy30v1j4xl4_7kw94k978ww0000gn/T//cclcOfIK.s 			page 6


 259:Drivers/lvgl/src/extra/layouts/grid/lv_grid.c ****     lv_style_value_t v = {
 260:Drivers/lvgl/src/extra/layouts/grid/lv_grid.c ****         .ptr = (const void *)value
 261:Drivers/lvgl/src/extra/layouts/grid/lv_grid.c ****     };
 262:Drivers/lvgl/src/extra/layouts/grid/lv_grid.c ****     lv_obj_set_local_style_prop(obj, LV_STYLE_GRID_ROW_DSC_ARRAY, v, selector);
 263:Drivers/lvgl/src/extra/layouts/grid/lv_grid.c **** }
 264:Drivers/lvgl/src/extra/layouts/grid/lv_grid.c **** 
 265:Drivers/lvgl/src/extra/layouts/grid/lv_grid.c **** void lv_obj_set_style_grid_column_dsc_array(lv_obj_t * obj, const lv_coord_t value[], lv_style_sele
 266:Drivers/lvgl/src/extra/layouts/grid/lv_grid.c **** {
 267:Drivers/lvgl/src/extra/layouts/grid/lv_grid.c ****     lv_style_value_t v = {
 268:Drivers/lvgl/src/extra/layouts/grid/lv_grid.c ****         .ptr = (const void *)value
 269:Drivers/lvgl/src/extra/layouts/grid/lv_grid.c ****     };
 270:Drivers/lvgl/src/extra/layouts/grid/lv_grid.c ****     lv_obj_set_local_style_prop(obj, LV_STYLE_GRID_COLUMN_DSC_ARRAY, v, selector);
 271:Drivers/lvgl/src/extra/layouts/grid/lv_grid.c **** }
 272:Drivers/lvgl/src/extra/layouts/grid/lv_grid.c **** 
 273:Drivers/lvgl/src/extra/layouts/grid/lv_grid.c **** 
 274:Drivers/lvgl/src/extra/layouts/grid/lv_grid.c **** void lv_obj_set_style_grid_row_align(lv_obj_t * obj, lv_grid_align_t value, lv_style_selector_t sel
 275:Drivers/lvgl/src/extra/layouts/grid/lv_grid.c **** {
 276:Drivers/lvgl/src/extra/layouts/grid/lv_grid.c ****     lv_style_value_t v = {
 277:Drivers/lvgl/src/extra/layouts/grid/lv_grid.c ****         .num = (int32_t) value
 278:Drivers/lvgl/src/extra/layouts/grid/lv_grid.c ****     };
 279:Drivers/lvgl/src/extra/layouts/grid/lv_grid.c ****     lv_obj_set_local_style_prop(obj, LV_STYLE_GRID_ROW_ALIGN, v, selector);
 280:Drivers/lvgl/src/extra/layouts/grid/lv_grid.c **** }
 281:Drivers/lvgl/src/extra/layouts/grid/lv_grid.c **** 
 282:Drivers/lvgl/src/extra/layouts/grid/lv_grid.c **** void lv_obj_set_style_grid_column_align(lv_obj_t * obj, lv_grid_align_t value, lv_style_selector_t 
 283:Drivers/lvgl/src/extra/layouts/grid/lv_grid.c **** {
 284:Drivers/lvgl/src/extra/layouts/grid/lv_grid.c ****     lv_style_value_t v = {
 285:Drivers/lvgl/src/extra/layouts/grid/lv_grid.c ****         .num = (int32_t) value
 286:Drivers/lvgl/src/extra/layouts/grid/lv_grid.c ****     };
 287:Drivers/lvgl/src/extra/layouts/grid/lv_grid.c ****     lv_obj_set_local_style_prop(obj, LV_STYLE_GRID_COLUMN_ALIGN, v, selector);
 288:Drivers/lvgl/src/extra/layouts/grid/lv_grid.c **** }
 289:Drivers/lvgl/src/extra/layouts/grid/lv_grid.c **** 
 290:Drivers/lvgl/src/extra/layouts/grid/lv_grid.c **** 
 291:Drivers/lvgl/src/extra/layouts/grid/lv_grid.c **** void lv_obj_set_style_grid_cell_column_pos(lv_obj_t * obj, lv_coord_t value, lv_style_selector_t se
 292:Drivers/lvgl/src/extra/layouts/grid/lv_grid.c **** {
 293:Drivers/lvgl/src/extra/layouts/grid/lv_grid.c ****     lv_style_value_t v = {
 294:Drivers/lvgl/src/extra/layouts/grid/lv_grid.c ****         .num = value
 295:Drivers/lvgl/src/extra/layouts/grid/lv_grid.c ****     };
 296:Drivers/lvgl/src/extra/layouts/grid/lv_grid.c ****     lv_obj_set_local_style_prop(obj, LV_STYLE_GRID_CELL_COLUMN_POS, v, selector);
 297:Drivers/lvgl/src/extra/layouts/grid/lv_grid.c **** }
 298:Drivers/lvgl/src/extra/layouts/grid/lv_grid.c **** 
 299:Drivers/lvgl/src/extra/layouts/grid/lv_grid.c **** void lv_obj_set_style_grid_cell_column_span(lv_obj_t * obj, lv_coord_t value, lv_style_selector_t s
 300:Drivers/lvgl/src/extra/layouts/grid/lv_grid.c **** {
 301:Drivers/lvgl/src/extra/layouts/grid/lv_grid.c ****     lv_style_value_t v = {
 302:Drivers/lvgl/src/extra/layouts/grid/lv_grid.c ****         .num = value
 303:Drivers/lvgl/src/extra/layouts/grid/lv_grid.c ****     };
 304:Drivers/lvgl/src/extra/layouts/grid/lv_grid.c ****     lv_obj_set_local_style_prop(obj, LV_STYLE_GRID_CELL_COLUMN_SPAN, v, selector);
 305:Drivers/lvgl/src/extra/layouts/grid/lv_grid.c **** }
 306:Drivers/lvgl/src/extra/layouts/grid/lv_grid.c **** 
 307:Drivers/lvgl/src/extra/layouts/grid/lv_grid.c **** void lv_obj_set_style_grid_cell_row_pos(lv_obj_t * obj, lv_coord_t value, lv_style_selector_t selec
 308:Drivers/lvgl/src/extra/layouts/grid/lv_grid.c **** {
 309:Drivers/lvgl/src/extra/layouts/grid/lv_grid.c ****     lv_style_value_t v = {
 310:Drivers/lvgl/src/extra/layouts/grid/lv_grid.c ****         .num = value
 311:Drivers/lvgl/src/extra/layouts/grid/lv_grid.c ****     };
 312:Drivers/lvgl/src/extra/layouts/grid/lv_grid.c ****     lv_obj_set_local_style_prop(obj, LV_STYLE_GRID_CELL_ROW_POS, v, selector);
 313:Drivers/lvgl/src/extra/layouts/grid/lv_grid.c **** }
 314:Drivers/lvgl/src/extra/layouts/grid/lv_grid.c **** 
 315:Drivers/lvgl/src/extra/layouts/grid/lv_grid.c **** void lv_obj_set_style_grid_cell_row_span(lv_obj_t * obj, lv_coord_t value, lv_style_selector_t sele
ARM GAS  /var/folders/0z/tsy30v1j4xl4_7kw94k978ww0000gn/T//cclcOfIK.s 			page 7


 316:Drivers/lvgl/src/extra/layouts/grid/lv_grid.c **** {
 317:Drivers/lvgl/src/extra/layouts/grid/lv_grid.c ****     lv_style_value_t v = {
 318:Drivers/lvgl/src/extra/layouts/grid/lv_grid.c ****         .num = value
 319:Drivers/lvgl/src/extra/layouts/grid/lv_grid.c ****     };
 320:Drivers/lvgl/src/extra/layouts/grid/lv_grid.c ****     lv_obj_set_local_style_prop(obj, LV_STYLE_GRID_CELL_ROW_SPAN, v, selector);
 321:Drivers/lvgl/src/extra/layouts/grid/lv_grid.c **** }
 322:Drivers/lvgl/src/extra/layouts/grid/lv_grid.c **** 
 323:Drivers/lvgl/src/extra/layouts/grid/lv_grid.c **** void lv_obj_set_style_grid_cell_x_align(lv_obj_t * obj, lv_coord_t value, lv_style_selector_t selec
 324:Drivers/lvgl/src/extra/layouts/grid/lv_grid.c **** {
 325:Drivers/lvgl/src/extra/layouts/grid/lv_grid.c ****     lv_style_value_t v = {
 326:Drivers/lvgl/src/extra/layouts/grid/lv_grid.c ****         .num = value
 327:Drivers/lvgl/src/extra/layouts/grid/lv_grid.c ****     };
 328:Drivers/lvgl/src/extra/layouts/grid/lv_grid.c ****     lv_obj_set_local_style_prop(obj, LV_STYLE_GRID_CELL_X_ALIGN, v, selector);
 329:Drivers/lvgl/src/extra/layouts/grid/lv_grid.c **** }
 330:Drivers/lvgl/src/extra/layouts/grid/lv_grid.c **** 
 331:Drivers/lvgl/src/extra/layouts/grid/lv_grid.c **** void lv_obj_set_style_grid_cell_y_align(lv_obj_t * obj, lv_coord_t value, lv_style_selector_t selec
 332:Drivers/lvgl/src/extra/layouts/grid/lv_grid.c **** {
 333:Drivers/lvgl/src/extra/layouts/grid/lv_grid.c ****     lv_style_value_t v = {
 334:Drivers/lvgl/src/extra/layouts/grid/lv_grid.c ****         .num = value
 335:Drivers/lvgl/src/extra/layouts/grid/lv_grid.c ****     };
 336:Drivers/lvgl/src/extra/layouts/grid/lv_grid.c ****     lv_obj_set_local_style_prop(obj, LV_STYLE_GRID_CELL_Y_ALIGN, v, selector);
 337:Drivers/lvgl/src/extra/layouts/grid/lv_grid.c **** }
 338:Drivers/lvgl/src/extra/layouts/grid/lv_grid.c **** 
 339:Drivers/lvgl/src/extra/layouts/grid/lv_grid.c **** 
 340:Drivers/lvgl/src/extra/layouts/grid/lv_grid.c **** /**********************
 341:Drivers/lvgl/src/extra/layouts/grid/lv_grid.c ****  *   STATIC FUNCTIONS
 342:Drivers/lvgl/src/extra/layouts/grid/lv_grid.c ****  **********************/
 343:Drivers/lvgl/src/extra/layouts/grid/lv_grid.c **** 
 344:Drivers/lvgl/src/extra/layouts/grid/lv_grid.c **** static void grid_update(lv_obj_t * cont, void * user_data)
 345:Drivers/lvgl/src/extra/layouts/grid/lv_grid.c **** {
 346:Drivers/lvgl/src/extra/layouts/grid/lv_grid.c ****     LV_LOG_INFO("update %p container", (void *)cont);
 347:Drivers/lvgl/src/extra/layouts/grid/lv_grid.c ****     LV_UNUSED(user_data);
 348:Drivers/lvgl/src/extra/layouts/grid/lv_grid.c **** 
 349:Drivers/lvgl/src/extra/layouts/grid/lv_grid.c ****     const lv_coord_t * col_templ = get_col_dsc(cont);
 350:Drivers/lvgl/src/extra/layouts/grid/lv_grid.c ****     const lv_coord_t * row_templ = get_row_dsc(cont);
 351:Drivers/lvgl/src/extra/layouts/grid/lv_grid.c ****     if(col_templ == NULL || row_templ == NULL) return;
 352:Drivers/lvgl/src/extra/layouts/grid/lv_grid.c **** 
 353:Drivers/lvgl/src/extra/layouts/grid/lv_grid.c ****     _lv_grid_calc_t c;
 354:Drivers/lvgl/src/extra/layouts/grid/lv_grid.c ****     calc(cont, &c);
 355:Drivers/lvgl/src/extra/layouts/grid/lv_grid.c **** 
 356:Drivers/lvgl/src/extra/layouts/grid/lv_grid.c ****     item_repos_hint_t hint;
 357:Drivers/lvgl/src/extra/layouts/grid/lv_grid.c ****     lv_memset_00(&hint, sizeof(hint));
 358:Drivers/lvgl/src/extra/layouts/grid/lv_grid.c **** 
 359:Drivers/lvgl/src/extra/layouts/grid/lv_grid.c ****     /*Calculate the grids absolute x and y coordinates.
 360:Drivers/lvgl/src/extra/layouts/grid/lv_grid.c ****      *It will be used as helper during item repositioning to avoid calculating this value for every
 361:Drivers/lvgl/src/extra/layouts/grid/lv_grid.c ****     lv_coord_t border_widt = lv_obj_get_style_border_width(cont, LV_PART_MAIN);
 362:Drivers/lvgl/src/extra/layouts/grid/lv_grid.c ****     lv_coord_t pad_left = lv_obj_get_style_pad_left(cont, LV_PART_MAIN) + border_widt;
 363:Drivers/lvgl/src/extra/layouts/grid/lv_grid.c ****     lv_coord_t pad_top = lv_obj_get_style_pad_top(cont, LV_PART_MAIN) + border_widt;
 364:Drivers/lvgl/src/extra/layouts/grid/lv_grid.c ****     hint.grid_abs.x = pad_left + cont->coords.x1 - lv_obj_get_scroll_x(cont);
 365:Drivers/lvgl/src/extra/layouts/grid/lv_grid.c ****     hint.grid_abs.y = pad_top + cont->coords.y1 - lv_obj_get_scroll_y(cont);
 366:Drivers/lvgl/src/extra/layouts/grid/lv_grid.c **** 
 367:Drivers/lvgl/src/extra/layouts/grid/lv_grid.c ****     uint32_t i;
 368:Drivers/lvgl/src/extra/layouts/grid/lv_grid.c ****     for(i = 0; i < cont->spec_attr->child_cnt; i++) {
 369:Drivers/lvgl/src/extra/layouts/grid/lv_grid.c ****         lv_obj_t * item = cont->spec_attr->children[i];
 370:Drivers/lvgl/src/extra/layouts/grid/lv_grid.c ****         item_repos(item, &c, &hint);
 371:Drivers/lvgl/src/extra/layouts/grid/lv_grid.c ****     }
 372:Drivers/lvgl/src/extra/layouts/grid/lv_grid.c ****     calc_free(&c);
ARM GAS  /var/folders/0z/tsy30v1j4xl4_7kw94k978ww0000gn/T//cclcOfIK.s 			page 8


 373:Drivers/lvgl/src/extra/layouts/grid/lv_grid.c **** 
 374:Drivers/lvgl/src/extra/layouts/grid/lv_grid.c ****     lv_coord_t w_set = lv_obj_get_style_width(cont, LV_PART_MAIN);
 375:Drivers/lvgl/src/extra/layouts/grid/lv_grid.c ****     lv_coord_t h_set = lv_obj_get_style_height(cont, LV_PART_MAIN);
 376:Drivers/lvgl/src/extra/layouts/grid/lv_grid.c ****     if(w_set == LV_SIZE_CONTENT || h_set == LV_SIZE_CONTENT) {
 377:Drivers/lvgl/src/extra/layouts/grid/lv_grid.c ****         lv_obj_refr_size(cont);
 378:Drivers/lvgl/src/extra/layouts/grid/lv_grid.c ****     }
 379:Drivers/lvgl/src/extra/layouts/grid/lv_grid.c **** 
 380:Drivers/lvgl/src/extra/layouts/grid/lv_grid.c ****     lv_event_send(cont, LV_EVENT_LAYOUT_CHANGED, NULL);
 381:Drivers/lvgl/src/extra/layouts/grid/lv_grid.c **** 
 382:Drivers/lvgl/src/extra/layouts/grid/lv_grid.c ****     LV_TRACE_LAYOUT("finished");
 383:Drivers/lvgl/src/extra/layouts/grid/lv_grid.c **** }
 384:Drivers/lvgl/src/extra/layouts/grid/lv_grid.c **** 
 385:Drivers/lvgl/src/extra/layouts/grid/lv_grid.c **** /**
 386:Drivers/lvgl/src/extra/layouts/grid/lv_grid.c ****  * Calculate the grid cells coordinates
 387:Drivers/lvgl/src/extra/layouts/grid/lv_grid.c ****  * @param cont an object that has a grid
 388:Drivers/lvgl/src/extra/layouts/grid/lv_grid.c ****  * @param calc store the calculated cells sizes here
 389:Drivers/lvgl/src/extra/layouts/grid/lv_grid.c ****  * @note `_lv_grid_calc_free(calc_out)` needs to be called when `calc_out` is not needed anymore
 390:Drivers/lvgl/src/extra/layouts/grid/lv_grid.c ****  */
 391:Drivers/lvgl/src/extra/layouts/grid/lv_grid.c **** static void calc(lv_obj_t * cont, _lv_grid_calc_t * calc_out)
 392:Drivers/lvgl/src/extra/layouts/grid/lv_grid.c **** {
 393:Drivers/lvgl/src/extra/layouts/grid/lv_grid.c ****     if(lv_obj_get_child(cont, 0) == NULL) {
 394:Drivers/lvgl/src/extra/layouts/grid/lv_grid.c ****         lv_memset_00(calc_out, sizeof(_lv_grid_calc_t));
 395:Drivers/lvgl/src/extra/layouts/grid/lv_grid.c ****         return;
 396:Drivers/lvgl/src/extra/layouts/grid/lv_grid.c ****     }
 397:Drivers/lvgl/src/extra/layouts/grid/lv_grid.c **** 
 398:Drivers/lvgl/src/extra/layouts/grid/lv_grid.c ****     calc_rows(cont, calc_out);
 399:Drivers/lvgl/src/extra/layouts/grid/lv_grid.c ****     calc_cols(cont, calc_out);
 400:Drivers/lvgl/src/extra/layouts/grid/lv_grid.c **** 
 401:Drivers/lvgl/src/extra/layouts/grid/lv_grid.c ****     lv_coord_t col_gap = lv_obj_get_style_pad_column(cont, LV_PART_MAIN);
 402:Drivers/lvgl/src/extra/layouts/grid/lv_grid.c ****     lv_coord_t row_gap = lv_obj_get_style_pad_row(cont, LV_PART_MAIN);
 403:Drivers/lvgl/src/extra/layouts/grid/lv_grid.c **** 
 404:Drivers/lvgl/src/extra/layouts/grid/lv_grid.c ****     bool rev = lv_obj_get_style_base_dir(cont, LV_PART_MAIN) == LV_BASE_DIR_RTL ? true : false;
 405:Drivers/lvgl/src/extra/layouts/grid/lv_grid.c **** 
 406:Drivers/lvgl/src/extra/layouts/grid/lv_grid.c ****     lv_coord_t w_set = lv_obj_get_style_width(cont, LV_PART_MAIN);
 407:Drivers/lvgl/src/extra/layouts/grid/lv_grid.c ****     lv_coord_t h_set = lv_obj_get_style_height(cont, LV_PART_MAIN);
 408:Drivers/lvgl/src/extra/layouts/grid/lv_grid.c ****     bool auto_w = (w_set == LV_SIZE_CONTENT && !cont->w_layout) ? true : false;
 409:Drivers/lvgl/src/extra/layouts/grid/lv_grid.c ****     lv_coord_t cont_w = lv_obj_get_content_width(cont);
 410:Drivers/lvgl/src/extra/layouts/grid/lv_grid.c ****     calc_out->grid_w = grid_align(cont_w, auto_w, get_grid_col_align(cont), col_gap, calc_out->col_
 411:Drivers/lvgl/src/extra/layouts/grid/lv_grid.c ****                                   calc_out->x, rev);
 412:Drivers/lvgl/src/extra/layouts/grid/lv_grid.c **** 
 413:Drivers/lvgl/src/extra/layouts/grid/lv_grid.c ****     bool auto_h = (h_set == LV_SIZE_CONTENT && !cont->h_layout) ? true : false;
 414:Drivers/lvgl/src/extra/layouts/grid/lv_grid.c ****     lv_coord_t cont_h = lv_obj_get_content_height(cont);
 415:Drivers/lvgl/src/extra/layouts/grid/lv_grid.c ****     calc_out->grid_h = grid_align(cont_h, auto_h, get_grid_row_align(cont), row_gap, calc_out->row_
 416:Drivers/lvgl/src/extra/layouts/grid/lv_grid.c ****                                   calc_out->y, false);
 417:Drivers/lvgl/src/extra/layouts/grid/lv_grid.c **** 
 418:Drivers/lvgl/src/extra/layouts/grid/lv_grid.c ****     LV_ASSERT_MEM_INTEGRITY();
 419:Drivers/lvgl/src/extra/layouts/grid/lv_grid.c **** }
 420:Drivers/lvgl/src/extra/layouts/grid/lv_grid.c **** 
 421:Drivers/lvgl/src/extra/layouts/grid/lv_grid.c **** /**
 422:Drivers/lvgl/src/extra/layouts/grid/lv_grid.c ****  * Free the a grid calculation's data
 423:Drivers/lvgl/src/extra/layouts/grid/lv_grid.c ****  * @param calc pointer to the calculated grid cell coordinates
 424:Drivers/lvgl/src/extra/layouts/grid/lv_grid.c ****  */
 425:Drivers/lvgl/src/extra/layouts/grid/lv_grid.c **** static void calc_free(_lv_grid_calc_t * calc)
 426:Drivers/lvgl/src/extra/layouts/grid/lv_grid.c **** {
 427:Drivers/lvgl/src/extra/layouts/grid/lv_grid.c ****     lv_mem_buf_release(calc->x);
 428:Drivers/lvgl/src/extra/layouts/grid/lv_grid.c ****     lv_mem_buf_release(calc->y);
 429:Drivers/lvgl/src/extra/layouts/grid/lv_grid.c ****     lv_mem_buf_release(calc->w);
ARM GAS  /var/folders/0z/tsy30v1j4xl4_7kw94k978ww0000gn/T//cclcOfIK.s 			page 9


 430:Drivers/lvgl/src/extra/layouts/grid/lv_grid.c ****     lv_mem_buf_release(calc->h);
 431:Drivers/lvgl/src/extra/layouts/grid/lv_grid.c **** }
 432:Drivers/lvgl/src/extra/layouts/grid/lv_grid.c **** 
 433:Drivers/lvgl/src/extra/layouts/grid/lv_grid.c **** static void calc_cols(lv_obj_t * cont, _lv_grid_calc_t * c)
 434:Drivers/lvgl/src/extra/layouts/grid/lv_grid.c **** {
 435:Drivers/lvgl/src/extra/layouts/grid/lv_grid.c ****     const lv_coord_t * col_templ = get_col_dsc(cont);
 436:Drivers/lvgl/src/extra/layouts/grid/lv_grid.c ****     lv_coord_t cont_w = lv_obj_get_content_width(cont);
 437:Drivers/lvgl/src/extra/layouts/grid/lv_grid.c **** 
 438:Drivers/lvgl/src/extra/layouts/grid/lv_grid.c ****     c->col_num = count_tracks(col_templ);
 439:Drivers/lvgl/src/extra/layouts/grid/lv_grid.c ****     c->x = lv_mem_buf_get(sizeof(lv_coord_t) * c->col_num);
 440:Drivers/lvgl/src/extra/layouts/grid/lv_grid.c ****     c->w = lv_mem_buf_get(sizeof(lv_coord_t) * c->col_num);
 441:Drivers/lvgl/src/extra/layouts/grid/lv_grid.c **** 
 442:Drivers/lvgl/src/extra/layouts/grid/lv_grid.c ****     /*Set sizes for CONTENT cells*/
 443:Drivers/lvgl/src/extra/layouts/grid/lv_grid.c ****     uint32_t i;
 444:Drivers/lvgl/src/extra/layouts/grid/lv_grid.c ****     for(i = 0; i < c->col_num; i++) {
 445:Drivers/lvgl/src/extra/layouts/grid/lv_grid.c ****         lv_coord_t size = LV_COORD_MIN;
 446:Drivers/lvgl/src/extra/layouts/grid/lv_grid.c ****         if(IS_CONTENT(col_templ[i])) {
 447:Drivers/lvgl/src/extra/layouts/grid/lv_grid.c ****             /*Check the size of children of this cell*/
 448:Drivers/lvgl/src/extra/layouts/grid/lv_grid.c ****             uint32_t ci;
 449:Drivers/lvgl/src/extra/layouts/grid/lv_grid.c ****             for(ci = 0; ci < lv_obj_get_child_cnt(cont); ci++) {
 450:Drivers/lvgl/src/extra/layouts/grid/lv_grid.c ****                 lv_obj_t * item = lv_obj_get_child(cont, ci);
 451:Drivers/lvgl/src/extra/layouts/grid/lv_grid.c ****                 if(lv_obj_has_flag_any(item, LV_OBJ_FLAG_IGNORE_LAYOUT | LV_OBJ_FLAG_HIDDEN | LV_OB
 452:Drivers/lvgl/src/extra/layouts/grid/lv_grid.c ****                 uint32_t col_span = get_col_span(item);
 453:Drivers/lvgl/src/extra/layouts/grid/lv_grid.c ****                 if(col_span != 1) continue;
 454:Drivers/lvgl/src/extra/layouts/grid/lv_grid.c **** 
 455:Drivers/lvgl/src/extra/layouts/grid/lv_grid.c ****                 uint32_t col_pos = get_col_pos(item);
 456:Drivers/lvgl/src/extra/layouts/grid/lv_grid.c ****                 if(col_pos != i) continue;
 457:Drivers/lvgl/src/extra/layouts/grid/lv_grid.c **** 
 458:Drivers/lvgl/src/extra/layouts/grid/lv_grid.c ****                 size = LV_MAX(size, lv_obj_get_width(item));
 459:Drivers/lvgl/src/extra/layouts/grid/lv_grid.c ****             }
 460:Drivers/lvgl/src/extra/layouts/grid/lv_grid.c ****             if(size >= 0) c->w[i] = size;
 461:Drivers/lvgl/src/extra/layouts/grid/lv_grid.c ****             else c->w[i] = 0;
 462:Drivers/lvgl/src/extra/layouts/grid/lv_grid.c ****         }
 463:Drivers/lvgl/src/extra/layouts/grid/lv_grid.c ****     }
 464:Drivers/lvgl/src/extra/layouts/grid/lv_grid.c **** 
 465:Drivers/lvgl/src/extra/layouts/grid/lv_grid.c ****     uint32_t col_fr_cnt = 0;
 466:Drivers/lvgl/src/extra/layouts/grid/lv_grid.c ****     lv_coord_t grid_w = 0;
 467:Drivers/lvgl/src/extra/layouts/grid/lv_grid.c **** 
 468:Drivers/lvgl/src/extra/layouts/grid/lv_grid.c ****     for(i = 0; i < c->col_num; i++) {
 469:Drivers/lvgl/src/extra/layouts/grid/lv_grid.c ****         lv_coord_t x = col_templ[i];
 470:Drivers/lvgl/src/extra/layouts/grid/lv_grid.c ****         if(IS_FR(x)) {
 471:Drivers/lvgl/src/extra/layouts/grid/lv_grid.c ****             col_fr_cnt += GET_FR(x);
 472:Drivers/lvgl/src/extra/layouts/grid/lv_grid.c ****         }
 473:Drivers/lvgl/src/extra/layouts/grid/lv_grid.c ****         else if(IS_CONTENT(x)) {
 474:Drivers/lvgl/src/extra/layouts/grid/lv_grid.c ****             grid_w += c->w[i];
 475:Drivers/lvgl/src/extra/layouts/grid/lv_grid.c ****         }
 476:Drivers/lvgl/src/extra/layouts/grid/lv_grid.c ****         else {
 477:Drivers/lvgl/src/extra/layouts/grid/lv_grid.c ****             c->w[i] = x;
 478:Drivers/lvgl/src/extra/layouts/grid/lv_grid.c ****             grid_w += x;
 479:Drivers/lvgl/src/extra/layouts/grid/lv_grid.c ****         }
 480:Drivers/lvgl/src/extra/layouts/grid/lv_grid.c ****     }
 481:Drivers/lvgl/src/extra/layouts/grid/lv_grid.c **** 
 482:Drivers/lvgl/src/extra/layouts/grid/lv_grid.c ****     lv_coord_t col_gap = lv_obj_get_style_pad_column(cont, LV_PART_MAIN);
 483:Drivers/lvgl/src/extra/layouts/grid/lv_grid.c ****     cont_w -= col_gap * (c->col_num - 1);
 484:Drivers/lvgl/src/extra/layouts/grid/lv_grid.c ****     lv_coord_t free_w = cont_w - grid_w;
 485:Drivers/lvgl/src/extra/layouts/grid/lv_grid.c ****     if(free_w < 0) free_w = 0;
 486:Drivers/lvgl/src/extra/layouts/grid/lv_grid.c **** 
ARM GAS  /var/folders/0z/tsy30v1j4xl4_7kw94k978ww0000gn/T//cclcOfIK.s 			page 10


 487:Drivers/lvgl/src/extra/layouts/grid/lv_grid.c ****     int32_t last_fr_i = -1;
 488:Drivers/lvgl/src/extra/layouts/grid/lv_grid.c ****     int32_t last_fr_x = 0;
 489:Drivers/lvgl/src/extra/layouts/grid/lv_grid.c ****     for(i = 0; i < c->col_num; i++) {
 490:Drivers/lvgl/src/extra/layouts/grid/lv_grid.c ****         lv_coord_t x = col_templ[i];
 491:Drivers/lvgl/src/extra/layouts/grid/lv_grid.c ****         if(IS_FR(x)) {
 492:Drivers/lvgl/src/extra/layouts/grid/lv_grid.c ****             lv_coord_t f = GET_FR(x);
 493:Drivers/lvgl/src/extra/layouts/grid/lv_grid.c ****             c->w[i] = (free_w * f) / col_fr_cnt;
 494:Drivers/lvgl/src/extra/layouts/grid/lv_grid.c ****             last_fr_i = i;
 495:Drivers/lvgl/src/extra/layouts/grid/lv_grid.c ****             last_fr_x = f;
 496:Drivers/lvgl/src/extra/layouts/grid/lv_grid.c ****         }
 497:Drivers/lvgl/src/extra/layouts/grid/lv_grid.c ****     }
 498:Drivers/lvgl/src/extra/layouts/grid/lv_grid.c **** 
 499:Drivers/lvgl/src/extra/layouts/grid/lv_grid.c ****     /*To avoid rounding errors set the last FR track to the remaining size */
 500:Drivers/lvgl/src/extra/layouts/grid/lv_grid.c ****     if(last_fr_i >= 0) {
 501:Drivers/lvgl/src/extra/layouts/grid/lv_grid.c ****         c->w[last_fr_i] = free_w - ((free_w * (col_fr_cnt - last_fr_x)) / col_fr_cnt);
 502:Drivers/lvgl/src/extra/layouts/grid/lv_grid.c ****     }
 503:Drivers/lvgl/src/extra/layouts/grid/lv_grid.c **** }
 504:Drivers/lvgl/src/extra/layouts/grid/lv_grid.c **** 
 505:Drivers/lvgl/src/extra/layouts/grid/lv_grid.c **** static void calc_rows(lv_obj_t * cont, _lv_grid_calc_t * c)
 506:Drivers/lvgl/src/extra/layouts/grid/lv_grid.c **** {
 507:Drivers/lvgl/src/extra/layouts/grid/lv_grid.c ****     uint32_t i;
 508:Drivers/lvgl/src/extra/layouts/grid/lv_grid.c ****     const lv_coord_t * row_templ = get_row_dsc(cont);
 509:Drivers/lvgl/src/extra/layouts/grid/lv_grid.c ****     c->row_num = count_tracks(row_templ);
 510:Drivers/lvgl/src/extra/layouts/grid/lv_grid.c ****     c->y = lv_mem_buf_get(sizeof(lv_coord_t) * c->row_num);
 511:Drivers/lvgl/src/extra/layouts/grid/lv_grid.c ****     c->h = lv_mem_buf_get(sizeof(lv_coord_t) * c->row_num);
 512:Drivers/lvgl/src/extra/layouts/grid/lv_grid.c ****     /*Set sizes for CONTENT cells*/
 513:Drivers/lvgl/src/extra/layouts/grid/lv_grid.c ****     for(i = 0; i < c->row_num; i++) {
 514:Drivers/lvgl/src/extra/layouts/grid/lv_grid.c ****         lv_coord_t size = LV_COORD_MIN;
 515:Drivers/lvgl/src/extra/layouts/grid/lv_grid.c ****         if(IS_CONTENT(row_templ[i])) {
 516:Drivers/lvgl/src/extra/layouts/grid/lv_grid.c ****             /*Check the size of children of this cell*/
 517:Drivers/lvgl/src/extra/layouts/grid/lv_grid.c ****             uint32_t ci;
 518:Drivers/lvgl/src/extra/layouts/grid/lv_grid.c ****             for(ci = 0; ci < lv_obj_get_child_cnt(cont); ci++) {
 519:Drivers/lvgl/src/extra/layouts/grid/lv_grid.c ****                 lv_obj_t * item = lv_obj_get_child(cont, ci);
 520:Drivers/lvgl/src/extra/layouts/grid/lv_grid.c ****                 if(lv_obj_has_flag_any(item, LV_OBJ_FLAG_IGNORE_LAYOUT | LV_OBJ_FLAG_HIDDEN | LV_OB
 521:Drivers/lvgl/src/extra/layouts/grid/lv_grid.c ****                 uint32_t row_span = get_row_span(item);
 522:Drivers/lvgl/src/extra/layouts/grid/lv_grid.c ****                 if(row_span != 1) continue;
 523:Drivers/lvgl/src/extra/layouts/grid/lv_grid.c **** 
 524:Drivers/lvgl/src/extra/layouts/grid/lv_grid.c ****                 uint32_t row_pos = get_row_pos(item);
 525:Drivers/lvgl/src/extra/layouts/grid/lv_grid.c ****                 if(row_pos != i) continue;
 526:Drivers/lvgl/src/extra/layouts/grid/lv_grid.c **** 
 527:Drivers/lvgl/src/extra/layouts/grid/lv_grid.c ****                 size = LV_MAX(size, lv_obj_get_height(item));
 528:Drivers/lvgl/src/extra/layouts/grid/lv_grid.c ****             }
 529:Drivers/lvgl/src/extra/layouts/grid/lv_grid.c ****             if(size >= 0) c->h[i] = size;
 530:Drivers/lvgl/src/extra/layouts/grid/lv_grid.c ****             else c->h[i] = 0;
 531:Drivers/lvgl/src/extra/layouts/grid/lv_grid.c ****         }
 532:Drivers/lvgl/src/extra/layouts/grid/lv_grid.c ****     }
 533:Drivers/lvgl/src/extra/layouts/grid/lv_grid.c **** 
 534:Drivers/lvgl/src/extra/layouts/grid/lv_grid.c ****     uint32_t row_fr_cnt = 0;
 535:Drivers/lvgl/src/extra/layouts/grid/lv_grid.c ****     lv_coord_t grid_h = 0;
 536:Drivers/lvgl/src/extra/layouts/grid/lv_grid.c **** 
 537:Drivers/lvgl/src/extra/layouts/grid/lv_grid.c ****     for(i = 0; i < c->row_num; i++) {
 538:Drivers/lvgl/src/extra/layouts/grid/lv_grid.c ****         lv_coord_t x = row_templ[i];
 539:Drivers/lvgl/src/extra/layouts/grid/lv_grid.c ****         if(IS_FR(x)) {
 540:Drivers/lvgl/src/extra/layouts/grid/lv_grid.c ****             row_fr_cnt += GET_FR(x);
 541:Drivers/lvgl/src/extra/layouts/grid/lv_grid.c ****         }
 542:Drivers/lvgl/src/extra/layouts/grid/lv_grid.c ****         else if(IS_CONTENT(x)) {
 543:Drivers/lvgl/src/extra/layouts/grid/lv_grid.c ****             grid_h += c->h[i];
ARM GAS  /var/folders/0z/tsy30v1j4xl4_7kw94k978ww0000gn/T//cclcOfIK.s 			page 11


 544:Drivers/lvgl/src/extra/layouts/grid/lv_grid.c ****         }
 545:Drivers/lvgl/src/extra/layouts/grid/lv_grid.c ****         else {
 546:Drivers/lvgl/src/extra/layouts/grid/lv_grid.c ****             c->h[i] = x;
 547:Drivers/lvgl/src/extra/layouts/grid/lv_grid.c ****             grid_h += x;
 548:Drivers/lvgl/src/extra/layouts/grid/lv_grid.c ****         }
 549:Drivers/lvgl/src/extra/layouts/grid/lv_grid.c ****     }
 550:Drivers/lvgl/src/extra/layouts/grid/lv_grid.c **** 
 551:Drivers/lvgl/src/extra/layouts/grid/lv_grid.c **** 
 552:Drivers/lvgl/src/extra/layouts/grid/lv_grid.c ****     lv_coord_t row_gap = lv_obj_get_style_pad_row(cont, LV_PART_MAIN);
 553:Drivers/lvgl/src/extra/layouts/grid/lv_grid.c ****     lv_coord_t cont_h = lv_obj_get_content_height(cont) - row_gap * (c->row_num - 1);
 554:Drivers/lvgl/src/extra/layouts/grid/lv_grid.c ****     lv_coord_t free_h = cont_h - grid_h;
 555:Drivers/lvgl/src/extra/layouts/grid/lv_grid.c ****     if(free_h < 0) free_h = 0;
 556:Drivers/lvgl/src/extra/layouts/grid/lv_grid.c **** 
 557:Drivers/lvgl/src/extra/layouts/grid/lv_grid.c ****     int32_t last_fr_i = -1;
 558:Drivers/lvgl/src/extra/layouts/grid/lv_grid.c ****     int32_t last_fr_x = 0;
 559:Drivers/lvgl/src/extra/layouts/grid/lv_grid.c ****     for(i = 0; i < c->row_num; i++) {
 560:Drivers/lvgl/src/extra/layouts/grid/lv_grid.c ****         lv_coord_t x = row_templ[i];
 561:Drivers/lvgl/src/extra/layouts/grid/lv_grid.c ****         if(IS_FR(x)) {
 562:Drivers/lvgl/src/extra/layouts/grid/lv_grid.c ****             lv_coord_t f = GET_FR(x);
 563:Drivers/lvgl/src/extra/layouts/grid/lv_grid.c ****             c->h[i] = (free_h * f) / row_fr_cnt;
 564:Drivers/lvgl/src/extra/layouts/grid/lv_grid.c ****             last_fr_i = i;
 565:Drivers/lvgl/src/extra/layouts/grid/lv_grid.c ****             last_fr_x = f;
 566:Drivers/lvgl/src/extra/layouts/grid/lv_grid.c ****         }
 567:Drivers/lvgl/src/extra/layouts/grid/lv_grid.c ****     }
 568:Drivers/lvgl/src/extra/layouts/grid/lv_grid.c **** 
 569:Drivers/lvgl/src/extra/layouts/grid/lv_grid.c ****     /*To avoid rounding errors set the last FR track to the remaining size */
 570:Drivers/lvgl/src/extra/layouts/grid/lv_grid.c ****     if(last_fr_i >= 0) {
 571:Drivers/lvgl/src/extra/layouts/grid/lv_grid.c ****         c->h[last_fr_i] = free_h - ((free_h * (row_fr_cnt - last_fr_x)) / row_fr_cnt);
 572:Drivers/lvgl/src/extra/layouts/grid/lv_grid.c ****     }
 573:Drivers/lvgl/src/extra/layouts/grid/lv_grid.c **** }
 574:Drivers/lvgl/src/extra/layouts/grid/lv_grid.c **** 
 575:Drivers/lvgl/src/extra/layouts/grid/lv_grid.c **** /**
 576:Drivers/lvgl/src/extra/layouts/grid/lv_grid.c ****  * Reposition a grid item in its cell
 577:Drivers/lvgl/src/extra/layouts/grid/lv_grid.c ****  * @param item a grid item to reposition
 578:Drivers/lvgl/src/extra/layouts/grid/lv_grid.c ****  * @param calc the calculated grid of `cont`
 579:Drivers/lvgl/src/extra/layouts/grid/lv_grid.c ****  * @param child_id_ext helper value if the ID of the child is know (order from the oldest) else -1
 580:Drivers/lvgl/src/extra/layouts/grid/lv_grid.c ****  * @param grid_abs helper value, the absolute position of the grid, NULL if unknown
 581:Drivers/lvgl/src/extra/layouts/grid/lv_grid.c ****  */
 582:Drivers/lvgl/src/extra/layouts/grid/lv_grid.c **** static void item_repos(lv_obj_t * item, _lv_grid_calc_t * c, item_repos_hint_t * hint)
 583:Drivers/lvgl/src/extra/layouts/grid/lv_grid.c **** {
 584:Drivers/lvgl/src/extra/layouts/grid/lv_grid.c ****     if(lv_obj_has_flag_any(item, LV_OBJ_FLAG_IGNORE_LAYOUT | LV_OBJ_FLAG_HIDDEN | LV_OBJ_FLAG_FLOAT
 585:Drivers/lvgl/src/extra/layouts/grid/lv_grid.c ****     uint32_t col_span = get_col_span(item);
 586:Drivers/lvgl/src/extra/layouts/grid/lv_grid.c ****     uint32_t row_span = get_row_span(item);
 587:Drivers/lvgl/src/extra/layouts/grid/lv_grid.c ****     if(row_span == 0 || col_span == 0) return;
 588:Drivers/lvgl/src/extra/layouts/grid/lv_grid.c **** 
 589:Drivers/lvgl/src/extra/layouts/grid/lv_grid.c ****     uint32_t col_pos = get_col_pos(item);
 590:Drivers/lvgl/src/extra/layouts/grid/lv_grid.c ****     uint32_t row_pos = get_row_pos(item);
 591:Drivers/lvgl/src/extra/layouts/grid/lv_grid.c ****     lv_grid_align_t col_align = get_cell_col_align(item);
 592:Drivers/lvgl/src/extra/layouts/grid/lv_grid.c ****     lv_grid_align_t row_align = get_cell_row_align(item);
 593:Drivers/lvgl/src/extra/layouts/grid/lv_grid.c **** 
 594:Drivers/lvgl/src/extra/layouts/grid/lv_grid.c **** 
 595:Drivers/lvgl/src/extra/layouts/grid/lv_grid.c ****     lv_coord_t col_x1 = c->x[col_pos];
 596:Drivers/lvgl/src/extra/layouts/grid/lv_grid.c ****     lv_coord_t col_x2 = c->x[col_pos + col_span - 1] + c->w[col_pos + col_span - 1];
 597:Drivers/lvgl/src/extra/layouts/grid/lv_grid.c ****     lv_coord_t col_w = col_x2 - col_x1;
 598:Drivers/lvgl/src/extra/layouts/grid/lv_grid.c **** 
 599:Drivers/lvgl/src/extra/layouts/grid/lv_grid.c ****     lv_coord_t row_y1 = c->y[row_pos];
 600:Drivers/lvgl/src/extra/layouts/grid/lv_grid.c ****     lv_coord_t row_y2 = c->y[row_pos + row_span - 1] + c->h[row_pos + row_span - 1];
ARM GAS  /var/folders/0z/tsy30v1j4xl4_7kw94k978ww0000gn/T//cclcOfIK.s 			page 12


 601:Drivers/lvgl/src/extra/layouts/grid/lv_grid.c ****     lv_coord_t row_h = row_y2 - row_y1;
 602:Drivers/lvgl/src/extra/layouts/grid/lv_grid.c **** 
 603:Drivers/lvgl/src/extra/layouts/grid/lv_grid.c **** 
 604:Drivers/lvgl/src/extra/layouts/grid/lv_grid.c ****     /*If the item has RTL base dir switch start and end*/
 605:Drivers/lvgl/src/extra/layouts/grid/lv_grid.c ****     if(lv_obj_get_style_base_dir(item, LV_PART_MAIN) == LV_BASE_DIR_RTL) {
 606:Drivers/lvgl/src/extra/layouts/grid/lv_grid.c ****         if(col_align == LV_GRID_ALIGN_START) col_align = LV_GRID_ALIGN_END;
 607:Drivers/lvgl/src/extra/layouts/grid/lv_grid.c ****         else if(col_align == LV_GRID_ALIGN_END) col_align = LV_GRID_ALIGN_START;
 608:Drivers/lvgl/src/extra/layouts/grid/lv_grid.c ****     }
 609:Drivers/lvgl/src/extra/layouts/grid/lv_grid.c **** 
 610:Drivers/lvgl/src/extra/layouts/grid/lv_grid.c ****     lv_coord_t x;
 611:Drivers/lvgl/src/extra/layouts/grid/lv_grid.c ****     lv_coord_t y;
 612:Drivers/lvgl/src/extra/layouts/grid/lv_grid.c ****     lv_coord_t item_w = lv_area_get_width(&item->coords);
 613:Drivers/lvgl/src/extra/layouts/grid/lv_grid.c ****     lv_coord_t item_h = lv_area_get_height(&item->coords);
 614:Drivers/lvgl/src/extra/layouts/grid/lv_grid.c **** 
 615:Drivers/lvgl/src/extra/layouts/grid/lv_grid.c ****     switch(col_align) {
 616:Drivers/lvgl/src/extra/layouts/grid/lv_grid.c ****         default:
 617:Drivers/lvgl/src/extra/layouts/grid/lv_grid.c ****         case LV_GRID_ALIGN_START:
 618:Drivers/lvgl/src/extra/layouts/grid/lv_grid.c ****             x = c->x[col_pos];
 619:Drivers/lvgl/src/extra/layouts/grid/lv_grid.c ****             item->w_layout = 0;
 620:Drivers/lvgl/src/extra/layouts/grid/lv_grid.c ****             break;
 621:Drivers/lvgl/src/extra/layouts/grid/lv_grid.c ****         case LV_GRID_ALIGN_STRETCH:
 622:Drivers/lvgl/src/extra/layouts/grid/lv_grid.c ****             x = c->x[col_pos];
 623:Drivers/lvgl/src/extra/layouts/grid/lv_grid.c ****             item_w = col_w;
 624:Drivers/lvgl/src/extra/layouts/grid/lv_grid.c ****             item->w_layout = 1;
 625:Drivers/lvgl/src/extra/layouts/grid/lv_grid.c ****             break;
 626:Drivers/lvgl/src/extra/layouts/grid/lv_grid.c ****         case LV_GRID_ALIGN_CENTER:
 627:Drivers/lvgl/src/extra/layouts/grid/lv_grid.c ****             x = c->x[col_pos] + (col_w - item_w) / 2;
 628:Drivers/lvgl/src/extra/layouts/grid/lv_grid.c ****             item->w_layout = 0;
 629:Drivers/lvgl/src/extra/layouts/grid/lv_grid.c ****             break;
 630:Drivers/lvgl/src/extra/layouts/grid/lv_grid.c ****         case LV_GRID_ALIGN_END:
 631:Drivers/lvgl/src/extra/layouts/grid/lv_grid.c ****             x = c->x[col_pos] + col_w - lv_obj_get_width(item);
 632:Drivers/lvgl/src/extra/layouts/grid/lv_grid.c ****             item->w_layout = 0;
 633:Drivers/lvgl/src/extra/layouts/grid/lv_grid.c ****             break;
 634:Drivers/lvgl/src/extra/layouts/grid/lv_grid.c ****     }
 635:Drivers/lvgl/src/extra/layouts/grid/lv_grid.c **** 
 636:Drivers/lvgl/src/extra/layouts/grid/lv_grid.c ****     switch(row_align) {
 637:Drivers/lvgl/src/extra/layouts/grid/lv_grid.c ****         default:
 638:Drivers/lvgl/src/extra/layouts/grid/lv_grid.c ****         case LV_GRID_ALIGN_START:
 639:Drivers/lvgl/src/extra/layouts/grid/lv_grid.c ****             y = c->y[row_pos];
 640:Drivers/lvgl/src/extra/layouts/grid/lv_grid.c ****             item->h_layout = 0;
 641:Drivers/lvgl/src/extra/layouts/grid/lv_grid.c ****             break;
 642:Drivers/lvgl/src/extra/layouts/grid/lv_grid.c ****         case LV_GRID_ALIGN_STRETCH:
 643:Drivers/lvgl/src/extra/layouts/grid/lv_grid.c ****             y = c->y[row_pos];
 644:Drivers/lvgl/src/extra/layouts/grid/lv_grid.c ****             item_h = row_h;
 645:Drivers/lvgl/src/extra/layouts/grid/lv_grid.c ****             item->h_layout = 1;
 646:Drivers/lvgl/src/extra/layouts/grid/lv_grid.c ****             break;
 647:Drivers/lvgl/src/extra/layouts/grid/lv_grid.c ****         case LV_GRID_ALIGN_CENTER:
 648:Drivers/lvgl/src/extra/layouts/grid/lv_grid.c ****             y = c->y[row_pos] + (row_h - item_h) / 2;
 649:Drivers/lvgl/src/extra/layouts/grid/lv_grid.c ****             item->h_layout = 0;
 650:Drivers/lvgl/src/extra/layouts/grid/lv_grid.c ****             break;
 651:Drivers/lvgl/src/extra/layouts/grid/lv_grid.c ****         case LV_GRID_ALIGN_END:
 652:Drivers/lvgl/src/extra/layouts/grid/lv_grid.c ****             y = c->y[row_pos] + row_h - lv_obj_get_height(item);
 653:Drivers/lvgl/src/extra/layouts/grid/lv_grid.c ****             item->h_layout = 0;
 654:Drivers/lvgl/src/extra/layouts/grid/lv_grid.c ****             break;
 655:Drivers/lvgl/src/extra/layouts/grid/lv_grid.c ****     }
 656:Drivers/lvgl/src/extra/layouts/grid/lv_grid.c **** 
 657:Drivers/lvgl/src/extra/layouts/grid/lv_grid.c ****     /*Set a new size if required*/
ARM GAS  /var/folders/0z/tsy30v1j4xl4_7kw94k978ww0000gn/T//cclcOfIK.s 			page 13


 658:Drivers/lvgl/src/extra/layouts/grid/lv_grid.c ****     if(lv_obj_get_width(item) != item_w || lv_obj_get_height(item) != item_h) {
 659:Drivers/lvgl/src/extra/layouts/grid/lv_grid.c ****         lv_area_t old_coords;
 660:Drivers/lvgl/src/extra/layouts/grid/lv_grid.c ****         lv_area_copy(&old_coords, &item->coords);
 661:Drivers/lvgl/src/extra/layouts/grid/lv_grid.c ****         lv_obj_invalidate(item);
 662:Drivers/lvgl/src/extra/layouts/grid/lv_grid.c ****         lv_area_set_width(&item->coords, item_w);
 663:Drivers/lvgl/src/extra/layouts/grid/lv_grid.c ****         lv_area_set_height(&item->coords, item_h);
 664:Drivers/lvgl/src/extra/layouts/grid/lv_grid.c ****         lv_obj_invalidate(item);
 665:Drivers/lvgl/src/extra/layouts/grid/lv_grid.c ****         lv_event_send(item, LV_EVENT_SIZE_CHANGED, &old_coords);
 666:Drivers/lvgl/src/extra/layouts/grid/lv_grid.c ****         lv_event_send(lv_obj_get_parent(item), LV_EVENT_CHILD_CHANGED, item);
 667:Drivers/lvgl/src/extra/layouts/grid/lv_grid.c **** 
 668:Drivers/lvgl/src/extra/layouts/grid/lv_grid.c ****     }
 669:Drivers/lvgl/src/extra/layouts/grid/lv_grid.c **** 
 670:Drivers/lvgl/src/extra/layouts/grid/lv_grid.c ****     /*Handle percentage value of translate*/
 671:Drivers/lvgl/src/extra/layouts/grid/lv_grid.c ****     lv_coord_t tr_x = lv_obj_get_style_translate_x(item, LV_PART_MAIN);
 672:Drivers/lvgl/src/extra/layouts/grid/lv_grid.c ****     lv_coord_t tr_y = lv_obj_get_style_translate_y(item, LV_PART_MAIN);
 673:Drivers/lvgl/src/extra/layouts/grid/lv_grid.c ****     lv_coord_t w = lv_obj_get_width(item);
 674:Drivers/lvgl/src/extra/layouts/grid/lv_grid.c ****     lv_coord_t h = lv_obj_get_height(item);
 675:Drivers/lvgl/src/extra/layouts/grid/lv_grid.c ****     if(LV_COORD_IS_PCT(tr_x)) tr_x = (w * LV_COORD_GET_PCT(tr_x)) / 100;
 676:Drivers/lvgl/src/extra/layouts/grid/lv_grid.c ****     if(LV_COORD_IS_PCT(tr_y)) tr_y = (h * LV_COORD_GET_PCT(tr_y)) / 100;
 677:Drivers/lvgl/src/extra/layouts/grid/lv_grid.c **** 
 678:Drivers/lvgl/src/extra/layouts/grid/lv_grid.c ****     x += tr_x;
 679:Drivers/lvgl/src/extra/layouts/grid/lv_grid.c ****     y += tr_y;
 680:Drivers/lvgl/src/extra/layouts/grid/lv_grid.c **** 
 681:Drivers/lvgl/src/extra/layouts/grid/lv_grid.c ****     lv_coord_t diff_x = hint->grid_abs.x + x - item->coords.x1;
 682:Drivers/lvgl/src/extra/layouts/grid/lv_grid.c ****     lv_coord_t diff_y = hint->grid_abs.y + y - item->coords.y1;
 683:Drivers/lvgl/src/extra/layouts/grid/lv_grid.c ****     if(diff_x || diff_y) {
 684:Drivers/lvgl/src/extra/layouts/grid/lv_grid.c ****         lv_obj_invalidate(item);
 685:Drivers/lvgl/src/extra/layouts/grid/lv_grid.c ****         item->coords.x1 += diff_x;
 686:Drivers/lvgl/src/extra/layouts/grid/lv_grid.c ****         item->coords.x2 += diff_x;
 687:Drivers/lvgl/src/extra/layouts/grid/lv_grid.c ****         item->coords.y1 += diff_y;
 688:Drivers/lvgl/src/extra/layouts/grid/lv_grid.c ****         item->coords.y2 += diff_y;
 689:Drivers/lvgl/src/extra/layouts/grid/lv_grid.c ****         lv_obj_invalidate(item);
 690:Drivers/lvgl/src/extra/layouts/grid/lv_grid.c ****         lv_obj_move_children_by(item, diff_x, diff_y, false);
 691:Drivers/lvgl/src/extra/layouts/grid/lv_grid.c ****     }
 692:Drivers/lvgl/src/extra/layouts/grid/lv_grid.c **** }
 693:Drivers/lvgl/src/extra/layouts/grid/lv_grid.c **** 
 694:Drivers/lvgl/src/extra/layouts/grid/lv_grid.c **** /**
 695:Drivers/lvgl/src/extra/layouts/grid/lv_grid.c ****  * Place the grid track according to align methods. It keeps the track sizes but sets their positio
 696:Drivers/lvgl/src/extra/layouts/grid/lv_grid.c ****  * It can process both columns or rows according to the passed parameters.
 697:Drivers/lvgl/src/extra/layouts/grid/lv_grid.c ****  * @param cont_size size of the containers content area (width/height)
 698:Drivers/lvgl/src/extra/layouts/grid/lv_grid.c ****  * @param auto_size true: the container has auto size in the current direction
 699:Drivers/lvgl/src/extra/layouts/grid/lv_grid.c ****  * @param align align method
 700:Drivers/lvgl/src/extra/layouts/grid/lv_grid.c ****  * @param gap grid gap
 701:Drivers/lvgl/src/extra/layouts/grid/lv_grid.c ****  * @param track_num number of tracks
 702:Drivers/lvgl/src/extra/layouts/grid/lv_grid.c ****  * @param size_array array with the track sizes
 703:Drivers/lvgl/src/extra/layouts/grid/lv_grid.c ****  * @param pos_array write the positions of the tracks here
 704:Drivers/lvgl/src/extra/layouts/grid/lv_grid.c ****  * @return the total size of the grid
 705:Drivers/lvgl/src/extra/layouts/grid/lv_grid.c ****  */
 706:Drivers/lvgl/src/extra/layouts/grid/lv_grid.c **** static lv_coord_t grid_align(lv_coord_t cont_size,  bool auto_size, uint8_t align, lv_coord_t gap, 
 707:Drivers/lvgl/src/extra/layouts/grid/lv_grid.c ****                              lv_coord_t * size_array, lv_coord_t * pos_array, bool reverse)
 708:Drivers/lvgl/src/extra/layouts/grid/lv_grid.c **** {
  29              		.loc 1 708 1 view -0
  30              		.cfi_startproc
  31              		@ args = 16, pretend = 0, frame = 0
  32              		@ frame_needed = 0, uses_anonymous_args = 0
  33              		.loc 1 708 1 is_stmt 0 view .LVU1
  34 0000 2DE9F041 		push	{r4, r5, r6, r7, r8, lr}
ARM GAS  /var/folders/0z/tsy30v1j4xl4_7kw94k978ww0000gn/T//cclcOfIK.s 			page 14


  35              		.cfi_def_cfa_offset 24
  36              		.cfi_offset 4, -24
  37              		.cfi_offset 5, -20
  38              		.cfi_offset 6, -16
  39              		.cfi_offset 7, -12
  40              		.cfi_offset 8, -8
  41              		.cfi_offset 14, -4
  42 0004 8446     		mov	ip, r0
  43 0006 069D     		ldr	r5, [sp, #24]
  44 0008 079E     		ldr	r6, [sp, #28]
  45 000a 089C     		ldr	r4, [sp, #32]
  46 000c 9DF82470 		ldrb	r7, [sp, #36]	@ zero_extendqisi2
 709:Drivers/lvgl/src/extra/layouts/grid/lv_grid.c ****     lv_coord_t grid_size = 0;
  47              		.loc 1 709 5 is_stmt 1 view .LVU2
  48              	.LVL1:
 710:Drivers/lvgl/src/extra/layouts/grid/lv_grid.c ****     uint32_t i;
  49              		.loc 1 710 5 view .LVU3
 711:Drivers/lvgl/src/extra/layouts/grid/lv_grid.c **** 
 712:Drivers/lvgl/src/extra/layouts/grid/lv_grid.c ****     if(auto_size) {
  50              		.loc 1 712 5 view .LVU4
  51              		.loc 1 712 7 is_stmt 0 view .LVU5
  52 0010 19B1     		cbz	r1, .L2
 713:Drivers/lvgl/src/extra/layouts/grid/lv_grid.c ****         pos_array[0] = 0;
  53              		.loc 1 713 9 is_stmt 1 view .LVU6
  54              		.loc 1 713 22 is_stmt 0 view .LVU7
  55 0012 0022     		movs	r2, #0
  56              	.LVL2:
  57              		.loc 1 713 22 view .LVU8
  58 0014 2280     		strh	r2, [r4]	@ movhi
  59              	.LVL3:
  60              	.L3:
 714:Drivers/lvgl/src/extra/layouts/grid/lv_grid.c ****     }
 715:Drivers/lvgl/src/extra/layouts/grid/lv_grid.c ****     else {
 716:Drivers/lvgl/src/extra/layouts/grid/lv_grid.c ****         /*With spaced alignment gap will be calculated from the remaining space*/
 717:Drivers/lvgl/src/extra/layouts/grid/lv_grid.c ****         if(align == LV_GRID_ALIGN_SPACE_AROUND || align == LV_GRID_ALIGN_SPACE_BETWEEN || align == 
 718:Drivers/lvgl/src/extra/layouts/grid/lv_grid.c ****             gap = 0;
 719:Drivers/lvgl/src/extra/layouts/grid/lv_grid.c ****             if(track_num == 1) align = LV_GRID_ALIGN_CENTER;
 720:Drivers/lvgl/src/extra/layouts/grid/lv_grid.c ****         }
 721:Drivers/lvgl/src/extra/layouts/grid/lv_grid.c **** 
 722:Drivers/lvgl/src/extra/layouts/grid/lv_grid.c ****         /*Get the full grid size with gap*/
 723:Drivers/lvgl/src/extra/layouts/grid/lv_grid.c ****         for(i = 0; i < track_num; i++) {
 724:Drivers/lvgl/src/extra/layouts/grid/lv_grid.c ****             grid_size += size_array[i] + gap;
 725:Drivers/lvgl/src/extra/layouts/grid/lv_grid.c ****         }
 726:Drivers/lvgl/src/extra/layouts/grid/lv_grid.c ****         grid_size -= gap;
 727:Drivers/lvgl/src/extra/layouts/grid/lv_grid.c **** 
 728:Drivers/lvgl/src/extra/layouts/grid/lv_grid.c ****         /*Calculate the position of the first item and set gap is necessary*/
 729:Drivers/lvgl/src/extra/layouts/grid/lv_grid.c ****         switch(align) {
 730:Drivers/lvgl/src/extra/layouts/grid/lv_grid.c ****             case LV_GRID_ALIGN_START:
 731:Drivers/lvgl/src/extra/layouts/grid/lv_grid.c ****                 pos_array[0] = 0;
 732:Drivers/lvgl/src/extra/layouts/grid/lv_grid.c ****                 break;
 733:Drivers/lvgl/src/extra/layouts/grid/lv_grid.c ****             case LV_GRID_ALIGN_CENTER:
 734:Drivers/lvgl/src/extra/layouts/grid/lv_grid.c ****                 pos_array[0] = (cont_size - grid_size) / 2;
 735:Drivers/lvgl/src/extra/layouts/grid/lv_grid.c ****                 break;
 736:Drivers/lvgl/src/extra/layouts/grid/lv_grid.c ****             case LV_GRID_ALIGN_END:
 737:Drivers/lvgl/src/extra/layouts/grid/lv_grid.c ****                 pos_array[0] = cont_size - grid_size;
 738:Drivers/lvgl/src/extra/layouts/grid/lv_grid.c ****                 break;
 739:Drivers/lvgl/src/extra/layouts/grid/lv_grid.c ****             case LV_GRID_ALIGN_SPACE_BETWEEN:
ARM GAS  /var/folders/0z/tsy30v1j4xl4_7kw94k978ww0000gn/T//cclcOfIK.s 			page 15


 740:Drivers/lvgl/src/extra/layouts/grid/lv_grid.c ****                 pos_array[0] = 0;
 741:Drivers/lvgl/src/extra/layouts/grid/lv_grid.c ****                 gap = (lv_coord_t)(cont_size - grid_size) / (lv_coord_t)(track_num - 1);
 742:Drivers/lvgl/src/extra/layouts/grid/lv_grid.c ****                 break;
 743:Drivers/lvgl/src/extra/layouts/grid/lv_grid.c ****             case LV_GRID_ALIGN_SPACE_AROUND:
 744:Drivers/lvgl/src/extra/layouts/grid/lv_grid.c ****                 gap = (lv_coord_t)(cont_size - grid_size) / (lv_coord_t)(track_num);
 745:Drivers/lvgl/src/extra/layouts/grid/lv_grid.c ****                 pos_array[0] = gap / 2;
 746:Drivers/lvgl/src/extra/layouts/grid/lv_grid.c ****                 break;
 747:Drivers/lvgl/src/extra/layouts/grid/lv_grid.c ****             case LV_GRID_ALIGN_SPACE_EVENLY:
 748:Drivers/lvgl/src/extra/layouts/grid/lv_grid.c ****                 gap = (lv_coord_t)(cont_size - grid_size) / (lv_coord_t)(track_num + 1);
 749:Drivers/lvgl/src/extra/layouts/grid/lv_grid.c ****                 pos_array[0] = gap;
 750:Drivers/lvgl/src/extra/layouts/grid/lv_grid.c ****                 break;
 751:Drivers/lvgl/src/extra/layouts/grid/lv_grid.c **** 
 752:Drivers/lvgl/src/extra/layouts/grid/lv_grid.c ****         }
 753:Drivers/lvgl/src/extra/layouts/grid/lv_grid.c ****     }
 754:Drivers/lvgl/src/extra/layouts/grid/lv_grid.c **** 
 755:Drivers/lvgl/src/extra/layouts/grid/lv_grid.c ****     /*Set the position of all tracks from the start position, gaps and track sizes*/
 756:Drivers/lvgl/src/extra/layouts/grid/lv_grid.c ****     for(i = 0; i < track_num - 1; i++) {
  61              		.loc 1 756 5 is_stmt 1 view .LVU9
  62              		.loc 1 756 11 is_stmt 0 view .LVU10
  63 0016 0022     		movs	r2, #0
  64              		.loc 1 756 5 view .LVU11
  65 0018 6BE0     		b	.L14
  66              	.LVL4:
  67              	.L2:
 717:Drivers/lvgl/src/extra/layouts/grid/lv_grid.c ****             gap = 0;
  68              		.loc 1 717 9 is_stmt 1 view .LVU12
 717:Drivers/lvgl/src/extra/layouts/grid/lv_grid.c ****             gap = 0;
  69              		.loc 1 717 88 is_stmt 0 view .LVU13
  70 001a 111F     		subs	r1, r2, #4
  71              	.LVL5:
 717:Drivers/lvgl/src/extra/layouts/grid/lv_grid.c ****             gap = 0;
  72              		.loc 1 717 88 view .LVU14
  73 001c C9B2     		uxtb	r1, r1
 717:Drivers/lvgl/src/extra/layouts/grid/lv_grid.c ****             gap = 0;
  74              		.loc 1 717 11 view .LVU15
  75 001e 0229     		cmp	r1, #2
  76 0020 02D8     		bhi	.L4
 718:Drivers/lvgl/src/extra/layouts/grid/lv_grid.c ****             if(track_num == 1) align = LV_GRID_ALIGN_CENTER;
  77              		.loc 1 718 13 is_stmt 1 view .LVU16
  78              	.LVL6:
 719:Drivers/lvgl/src/extra/layouts/grid/lv_grid.c ****         }
  79              		.loc 1 719 13 view .LVU17
 719:Drivers/lvgl/src/extra/layouts/grid/lv_grid.c ****         }
  80              		.loc 1 719 15 is_stmt 0 view .LVU18
  81 0022 012D     		cmp	r5, #1
  82 0024 0CD0     		beq	.L19
 718:Drivers/lvgl/src/extra/layouts/grid/lv_grid.c ****             if(track_num == 1) align = LV_GRID_ALIGN_CENTER;
  83              		.loc 1 718 17 view .LVU19
  84 0026 0023     		movs	r3, #0
  85              	.LVL7:
  86              	.L4:
 723:Drivers/lvgl/src/extra/layouts/grid/lv_grid.c ****             grid_size += size_array[i] + gap;
  87              		.loc 1 723 9 is_stmt 1 view .LVU20
 723:Drivers/lvgl/src/extra/layouts/grid/lv_grid.c ****             grid_size += size_array[i] + gap;
  88              		.loc 1 723 15 is_stmt 0 view .LVU21
  89 0028 0020     		movs	r0, #0
  90              	.LVL8:
ARM GAS  /var/folders/0z/tsy30v1j4xl4_7kw94k978ww0000gn/T//cclcOfIK.s 			page 16


 709:Drivers/lvgl/src/extra/layouts/grid/lv_grid.c ****     uint32_t i;
  91              		.loc 1 709 16 view .LVU22
  92 002a 0146     		mov	r1, r0
  93              	.LVL9:
  94              	.L5:
 723:Drivers/lvgl/src/extra/layouts/grid/lv_grid.c ****             grid_size += size_array[i] + gap;
  95              		.loc 1 723 22 is_stmt 1 discriminator 1 view .LVU23
  96 002c A842     		cmp	r0, r5
  97 002e 0AD2     		bcs	.L23
 724:Drivers/lvgl/src/extra/layouts/grid/lv_grid.c ****         }
  98              		.loc 1 724 13 discriminator 3 view .LVU24
 724:Drivers/lvgl/src/extra/layouts/grid/lv_grid.c ****         }
  99              		.loc 1 724 36 is_stmt 0 discriminator 3 view .LVU25
 100 0030 36F810E0 		ldrh	lr, [r6, r0, lsl #1]
 724:Drivers/lvgl/src/extra/layouts/grid/lv_grid.c ****         }
 101              		.loc 1 724 40 discriminator 3 view .LVU26
 102 0034 9E44     		add	lr, lr, r3
 724:Drivers/lvgl/src/extra/layouts/grid/lv_grid.c ****         }
 103              		.loc 1 724 23 discriminator 3 view .LVU27
 104 0036 11FA8EF1 		uxtah	r1, r1, lr
 105              	.LVL10:
 724:Drivers/lvgl/src/extra/layouts/grid/lv_grid.c ****         }
 106              		.loc 1 724 23 discriminator 3 view .LVU28
 107 003a 09B2     		sxth	r1, r1
 108              	.LVL11:
 723:Drivers/lvgl/src/extra/layouts/grid/lv_grid.c ****             grid_size += size_array[i] + gap;
 109              		.loc 1 723 36 is_stmt 1 discriminator 3 view .LVU29
 110 003c 0130     		adds	r0, r0, #1
 111              	.LVL12:
 723:Drivers/lvgl/src/extra/layouts/grid/lv_grid.c ****             grid_size += size_array[i] + gap;
 112              		.loc 1 723 36 is_stmt 0 discriminator 3 view .LVU30
 113 003e F5E7     		b	.L5
 114              	.LVL13:
 115              	.L19:
 718:Drivers/lvgl/src/extra/layouts/grid/lv_grid.c ****             if(track_num == 1) align = LV_GRID_ALIGN_CENTER;
 116              		.loc 1 718 17 view .LVU31
 117 0040 0023     		movs	r3, #0
 719:Drivers/lvgl/src/extra/layouts/grid/lv_grid.c ****         }
 118              		.loc 1 719 38 view .LVU32
 119 0042 0122     		movs	r2, #1
 120              	.LVL14:
 719:Drivers/lvgl/src/extra/layouts/grid/lv_grid.c ****         }
 121              		.loc 1 719 38 view .LVU33
 122 0044 F0E7     		b	.L4
 123              	.LVL15:
 124              	.L23:
 726:Drivers/lvgl/src/extra/layouts/grid/lv_grid.c **** 
 125              		.loc 1 726 9 is_stmt 1 view .LVU34
 726:Drivers/lvgl/src/extra/layouts/grid/lv_grid.c **** 
 126              		.loc 1 726 19 is_stmt 0 view .LVU35
 127 0046 89B2     		uxth	r1, r1
 726:Drivers/lvgl/src/extra/layouts/grid/lv_grid.c **** 
 128              		.loc 1 726 19 view .LVU36
 129 0048 98B2     		uxth	r0, r3
 130              	.LVL16:
 726:Drivers/lvgl/src/extra/layouts/grid/lv_grid.c **** 
 131              		.loc 1 726 19 view .LVU37
ARM GAS  /var/folders/0z/tsy30v1j4xl4_7kw94k978ww0000gn/T//cclcOfIK.s 			page 17


 132 004a A1EB000E 		sub	lr, r1, r0
 133 004e 0FFA8EFE 		sxth	lr, lr
 134              	.LVL17:
 729:Drivers/lvgl/src/extra/layouts/grid/lv_grid.c ****             case LV_GRID_ALIGN_START:
 135              		.loc 1 729 9 is_stmt 1 view .LVU38
 136 0052 062A     		cmp	r2, #6
 137 0054 DFD8     		bhi	.L3
 138 0056 0FF20808 		adr	r8, .L8
 139 005a 58F822F0 		ldr	pc, [r8, r2, lsl #2]
 140 005e 00BF     		.p2align 2
 141              	.L8:
 142 0060 7D000000 		.word	.L13+1
 143 0064 83000000 		.word	.L12+1
 144 0068 93000000 		.word	.L11+1
 145 006c 17000000 		.word	.L3+1
 146 0070 CB000000 		.word	.L10+1
 147 0074 B1000000 		.word	.L9+1
 148 0078 9B000000 		.word	.L7+1
 149              		.p2align 1
 150              	.L13:
 731:Drivers/lvgl/src/extra/layouts/grid/lv_grid.c ****                 break;
 151              		.loc 1 731 17 view .LVU39
 731:Drivers/lvgl/src/extra/layouts/grid/lv_grid.c ****                 break;
 152              		.loc 1 731 30 is_stmt 0 view .LVU40
 153 007c 0022     		movs	r2, #0
 154              	.LVL18:
 731:Drivers/lvgl/src/extra/layouts/grid/lv_grid.c ****                 break;
 155              		.loc 1 731 30 view .LVU41
 156 007e 2280     		strh	r2, [r4]	@ movhi
 732:Drivers/lvgl/src/extra/layouts/grid/lv_grid.c ****             case LV_GRID_ALIGN_CENTER:
 157              		.loc 1 732 17 is_stmt 1 view .LVU42
 158 0080 C9E7     		b	.L3
 159              	.LVL19:
 160              	.L12:
 734:Drivers/lvgl/src/extra/layouts/grid/lv_grid.c ****                 break;
 161              		.loc 1 734 17 view .LVU43
 734:Drivers/lvgl/src/extra/layouts/grid/lv_grid.c ****                 break;
 162              		.loc 1 734 43 is_stmt 0 view .LVU44
 163 0082 ACEB0E0E 		sub	lr, ip, lr
 164              	.LVL20:
 734:Drivers/lvgl/src/extra/layouts/grid/lv_grid.c ****                 break;
 165              		.loc 1 734 56 view .LVU45
 166 0086 0EEBDE7E 		add	lr, lr, lr, lsr #31
 167 008a 4FEA6E02 		asr	r2, lr, #1
 168              	.LVL21:
 734:Drivers/lvgl/src/extra/layouts/grid/lv_grid.c ****                 break;
 169              		.loc 1 734 30 view .LVU46
 170 008e 2280     		strh	r2, [r4]	@ movhi
 735:Drivers/lvgl/src/extra/layouts/grid/lv_grid.c ****             case LV_GRID_ALIGN_END:
 171              		.loc 1 735 17 is_stmt 1 view .LVU47
 172 0090 C1E7     		b	.L3
 173              	.LVL22:
 174              	.L11:
 737:Drivers/lvgl/src/extra/layouts/grid/lv_grid.c ****                 break;
 175              		.loc 1 737 17 view .LVU48
 737:Drivers/lvgl/src/extra/layouts/grid/lv_grid.c ****                 break;
 176              		.loc 1 737 42 is_stmt 0 view .LVU49
ARM GAS  /var/folders/0z/tsy30v1j4xl4_7kw94k978ww0000gn/T//cclcOfIK.s 			page 18


 177 0092 421A     		subs	r2, r0, r1
 178              	.LVL23:
 737:Drivers/lvgl/src/extra/layouts/grid/lv_grid.c ****                 break;
 179              		.loc 1 737 42 view .LVU50
 180 0094 6244     		add	r2, r2, ip
 737:Drivers/lvgl/src/extra/layouts/grid/lv_grid.c ****                 break;
 181              		.loc 1 737 30 view .LVU51
 182 0096 2280     		strh	r2, [r4]	@ movhi
 738:Drivers/lvgl/src/extra/layouts/grid/lv_grid.c ****             case LV_GRID_ALIGN_SPACE_BETWEEN:
 183              		.loc 1 738 17 is_stmt 1 view .LVU52
 184 0098 BDE7     		b	.L3
 185              	.LVL24:
 186              	.L7:
 740:Drivers/lvgl/src/extra/layouts/grid/lv_grid.c ****                 gap = (lv_coord_t)(cont_size - grid_size) / (lv_coord_t)(track_num - 1);
 187              		.loc 1 740 17 view .LVU53
 740:Drivers/lvgl/src/extra/layouts/grid/lv_grid.c ****                 gap = (lv_coord_t)(cont_size - grid_size) / (lv_coord_t)(track_num - 1);
 188              		.loc 1 740 30 is_stmt 0 view .LVU54
 189 009a 0023     		movs	r3, #0
 190              	.LVL25:
 740:Drivers/lvgl/src/extra/layouts/grid/lv_grid.c ****                 gap = (lv_coord_t)(cont_size - grid_size) / (lv_coord_t)(track_num - 1);
 191              		.loc 1 740 30 view .LVU55
 192 009c 2380     		strh	r3, [r4]	@ movhi
 741:Drivers/lvgl/src/extra/layouts/grid/lv_grid.c ****                 break;
 193              		.loc 1 741 17 is_stmt 1 view .LVU56
 741:Drivers/lvgl/src/extra/layouts/grid/lv_grid.c ****                 break;
 194              		.loc 1 741 46 is_stmt 0 view .LVU57
 195 009e 431A     		subs	r3, r0, r1
 196 00a0 6344     		add	r3, r3, ip
 741:Drivers/lvgl/src/extra/layouts/grid/lv_grid.c ****                 break;
 197              		.loc 1 741 23 view .LVU58
 198 00a2 1BB2     		sxth	r3, r3
 741:Drivers/lvgl/src/extra/layouts/grid/lv_grid.c ****                 break;
 199              		.loc 1 741 84 view .LVU59
 200 00a4 6A1E     		subs	r2, r5, #1
 201              	.LVL26:
 741:Drivers/lvgl/src/extra/layouts/grid/lv_grid.c ****                 break;
 202              		.loc 1 741 61 view .LVU60
 203 00a6 12B2     		sxth	r2, r2
 741:Drivers/lvgl/src/extra/layouts/grid/lv_grid.c ****                 break;
 204              		.loc 1 741 59 view .LVU61
 205 00a8 93FBF2F3 		sdiv	r3, r3, r2
 741:Drivers/lvgl/src/extra/layouts/grid/lv_grid.c ****                 break;
 206              		.loc 1 741 21 view .LVU62
 207 00ac 1BB2     		sxth	r3, r3
 208              	.LVL27:
 742:Drivers/lvgl/src/extra/layouts/grid/lv_grid.c ****             case LV_GRID_ALIGN_SPACE_AROUND:
 209              		.loc 1 742 17 is_stmt 1 view .LVU63
 210 00ae B2E7     		b	.L3
 211              	.LVL28:
 212              	.L9:
 744:Drivers/lvgl/src/extra/layouts/grid/lv_grid.c ****                 pos_array[0] = gap / 2;
 213              		.loc 1 744 17 view .LVU64
 744:Drivers/lvgl/src/extra/layouts/grid/lv_grid.c ****                 pos_array[0] = gap / 2;
 214              		.loc 1 744 46 is_stmt 0 view .LVU65
 215 00b0 421A     		subs	r2, r0, r1
 216              	.LVL29:
 744:Drivers/lvgl/src/extra/layouts/grid/lv_grid.c ****                 pos_array[0] = gap / 2;
ARM GAS  /var/folders/0z/tsy30v1j4xl4_7kw94k978ww0000gn/T//cclcOfIK.s 			page 19


 217              		.loc 1 744 46 view .LVU66
 218 00b2 6244     		add	r2, r2, ip
 744:Drivers/lvgl/src/extra/layouts/grid/lv_grid.c ****                 pos_array[0] = gap / 2;
 219              		.loc 1 744 23 view .LVU67
 220 00b4 12B2     		sxth	r2, r2
 744:Drivers/lvgl/src/extra/layouts/grid/lv_grid.c ****                 pos_array[0] = gap / 2;
 221              		.loc 1 744 61 view .LVU68
 222 00b6 2BB2     		sxth	r3, r5
 223              	.LVL30:
 744:Drivers/lvgl/src/extra/layouts/grid/lv_grid.c ****                 pos_array[0] = gap / 2;
 224              		.loc 1 744 59 view .LVU69
 225 00b8 92FBF3F2 		sdiv	r2, r2, r3
 744:Drivers/lvgl/src/extra/layouts/grid/lv_grid.c ****                 pos_array[0] = gap / 2;
 226              		.loc 1 744 21 view .LVU70
 227 00bc 13B2     		sxth	r3, r2
 228              	.LVL31:
 745:Drivers/lvgl/src/extra/layouts/grid/lv_grid.c ****                 break;
 229              		.loc 1 745 17 is_stmt 1 view .LVU71
 745:Drivers/lvgl/src/extra/layouts/grid/lv_grid.c ****                 break;
 230              		.loc 1 745 30 is_stmt 0 view .LVU72
 231 00be C2F3C032 		ubfx	r2, r2, #15, #1
 232 00c2 1A44     		add	r2, r2, r3
 233 00c4 5210     		asrs	r2, r2, #1
 234 00c6 2280     		strh	r2, [r4]	@ movhi
 746:Drivers/lvgl/src/extra/layouts/grid/lv_grid.c ****             case LV_GRID_ALIGN_SPACE_EVENLY:
 235              		.loc 1 746 17 is_stmt 1 view .LVU73
 236 00c8 A5E7     		b	.L3
 237              	.LVL32:
 238              	.L10:
 748:Drivers/lvgl/src/extra/layouts/grid/lv_grid.c ****                 pos_array[0] = gap;
 239              		.loc 1 748 17 view .LVU74
 748:Drivers/lvgl/src/extra/layouts/grid/lv_grid.c ****                 pos_array[0] = gap;
 240              		.loc 1 748 46 is_stmt 0 view .LVU75
 241 00ca 431A     		subs	r3, r0, r1
 242              	.LVL33:
 748:Drivers/lvgl/src/extra/layouts/grid/lv_grid.c ****                 pos_array[0] = gap;
 243              		.loc 1 748 46 view .LVU76
 244 00cc 6344     		add	r3, r3, ip
 748:Drivers/lvgl/src/extra/layouts/grid/lv_grid.c ****                 pos_array[0] = gap;
 245              		.loc 1 748 23 view .LVU77
 246 00ce 1BB2     		sxth	r3, r3
 748:Drivers/lvgl/src/extra/layouts/grid/lv_grid.c ****                 pos_array[0] = gap;
 247              		.loc 1 748 84 view .LVU78
 248 00d0 6A1C     		adds	r2, r5, #1
 249              	.LVL34:
 748:Drivers/lvgl/src/extra/layouts/grid/lv_grid.c ****                 pos_array[0] = gap;
 250              		.loc 1 748 61 view .LVU79
 251 00d2 12B2     		sxth	r2, r2
 748:Drivers/lvgl/src/extra/layouts/grid/lv_grid.c ****                 pos_array[0] = gap;
 252              		.loc 1 748 59 view .LVU80
 253 00d4 93FBF2F3 		sdiv	r3, r3, r2
 748:Drivers/lvgl/src/extra/layouts/grid/lv_grid.c ****                 pos_array[0] = gap;
 254              		.loc 1 748 21 view .LVU81
 255 00d8 1BB2     		sxth	r3, r3
 256              	.LVL35:
 749:Drivers/lvgl/src/extra/layouts/grid/lv_grid.c ****                 break;
 257              		.loc 1 749 17 is_stmt 1 view .LVU82
ARM GAS  /var/folders/0z/tsy30v1j4xl4_7kw94k978ww0000gn/T//cclcOfIK.s 			page 20


 749:Drivers/lvgl/src/extra/layouts/grid/lv_grid.c ****                 break;
 258              		.loc 1 749 30 is_stmt 0 view .LVU83
 259 00da 2380     		strh	r3, [r4]	@ movhi
 750:Drivers/lvgl/src/extra/layouts/grid/lv_grid.c **** 
 260              		.loc 1 750 17 is_stmt 1 view .LVU84
 261 00dc 9BE7     		b	.L3
 262              	.LVL36:
 263              	.L15:
 757:Drivers/lvgl/src/extra/layouts/grid/lv_grid.c ****         pos_array[i + 1] = pos_array[i] + size_array[i] + gap;
 264              		.loc 1 757 9 discriminator 3 view .LVU85
 265              		.loc 1 757 37 is_stmt 0 discriminator 3 view .LVU86
 266 00de 34F81210 		ldrh	r1, [r4, r2, lsl #1]
 267              		.loc 1 757 53 discriminator 3 view .LVU87
 268 00e2 36F81200 		ldrh	r0, [r6, r2, lsl #1]
 269              		.loc 1 757 41 discriminator 3 view .LVU88
 270 00e6 0144     		add	r1, r1, r0
 271              		.loc 1 757 18 discriminator 3 view .LVU89
 272 00e8 0132     		adds	r2, r2, #1
 273              	.LVL37:
 274              		.loc 1 757 57 discriminator 3 view .LVU90
 275 00ea 13FA81F1 		uxtah	r1, r3, r1
 276              		.loc 1 757 26 discriminator 3 view .LVU91
 277 00ee 24F81210 		strh	r1, [r4, r2, lsl #1]	@ movhi
 756:Drivers/lvgl/src/extra/layouts/grid/lv_grid.c ****         pos_array[i + 1] = pos_array[i] + size_array[i] + gap;
 278              		.loc 1 756 36 is_stmt 1 discriminator 3 view .LVU92
 279              	.LVL38:
 280              	.L14:
 756:Drivers/lvgl/src/extra/layouts/grid/lv_grid.c ****         pos_array[i + 1] = pos_array[i] + size_array[i] + gap;
 281              		.loc 1 756 18 discriminator 1 view .LVU93
 756:Drivers/lvgl/src/extra/layouts/grid/lv_grid.c ****         pos_array[i + 1] = pos_array[i] + size_array[i] + gap;
 282              		.loc 1 756 30 is_stmt 0 discriminator 1 view .LVU94
 283 00f2 691E     		subs	r1, r5, #1
 756:Drivers/lvgl/src/extra/layouts/grid/lv_grid.c ****         pos_array[i + 1] = pos_array[i] + size_array[i] + gap;
 284              		.loc 1 756 18 discriminator 1 view .LVU95
 285 00f4 9142     		cmp	r1, r2
 286 00f6 F2D8     		bhi	.L15
 758:Drivers/lvgl/src/extra/layouts/grid/lv_grid.c ****     }
 759:Drivers/lvgl/src/extra/layouts/grid/lv_grid.c **** 
 760:Drivers/lvgl/src/extra/layouts/grid/lv_grid.c ****     lv_coord_t total_gird_size = pos_array[track_num - 1] + size_array[track_num - 1] - pos_array[0
 287              		.loc 1 760 5 is_stmt 1 view .LVU96
 288              		.loc 1 760 43 is_stmt 0 view .LVU97
 289 00f8 05F10043 		add	r3, r5, #-2147483648
 290              	.LVL39:
 291              		.loc 1 760 43 view .LVU98
 292 00fc 013B     		subs	r3, r3, #1
 293 00fe 34F81300 		ldrh	r0, [r4, r3, lsl #1]
 294              		.loc 1 760 71 view .LVU99
 295 0102 36F81330 		ldrh	r3, [r6, r3, lsl #1]
 296              		.loc 1 760 59 view .LVU100
 297 0106 1844     		add	r0, r0, r3
 298 0108 80B2     		uxth	r0, r0
 299              		.loc 1 760 98 view .LVU101
 300 010a 2388     		ldrh	r3, [r4]
 301              		.loc 1 760 87 view .LVU102
 302 010c C01A     		subs	r0, r0, r3
 303              		.loc 1 760 16 view .LVU103
 304 010e 00B2     		sxth	r0, r0
ARM GAS  /var/folders/0z/tsy30v1j4xl4_7kw94k978ww0000gn/T//cclcOfIK.s 			page 21


 305              	.LVL40:
 761:Drivers/lvgl/src/extra/layouts/grid/lv_grid.c **** 
 762:Drivers/lvgl/src/extra/layouts/grid/lv_grid.c ****     if(reverse) {
 306              		.loc 1 762 5 is_stmt 1 view .LVU104
 307              		.loc 1 762 7 is_stmt 0 view .LVU105
 308 0110 0FB9     		cbnz	r7, .L20
 309              	.L17:
 763:Drivers/lvgl/src/extra/layouts/grid/lv_grid.c ****         for(i = 0; i < track_num; i++) {
 764:Drivers/lvgl/src/extra/layouts/grid/lv_grid.c ****             pos_array[i] = cont_size - pos_array[i] - size_array[i];
 765:Drivers/lvgl/src/extra/layouts/grid/lv_grid.c ****         }
 766:Drivers/lvgl/src/extra/layouts/grid/lv_grid.c **** 
 767:Drivers/lvgl/src/extra/layouts/grid/lv_grid.c ****     }
 768:Drivers/lvgl/src/extra/layouts/grid/lv_grid.c **** 
 769:Drivers/lvgl/src/extra/layouts/grid/lv_grid.c ****     /*Return the full size of the grid*/
 770:Drivers/lvgl/src/extra/layouts/grid/lv_grid.c ****     return total_gird_size;
 310              		.loc 1 770 5 is_stmt 1 view .LVU106
 771:Drivers/lvgl/src/extra/layouts/grid/lv_grid.c **** }
 311              		.loc 1 771 1 is_stmt 0 view .LVU107
 312 0112 BDE8F081 		pop	{r4, r5, r6, r7, r8, pc}
 313              	.LVL41:
 314              	.L20:
 763:Drivers/lvgl/src/extra/layouts/grid/lv_grid.c ****         for(i = 0; i < track_num; i++) {
 315              		.loc 1 763 15 view .LVU108
 316 0116 0022     		movs	r2, #0
 317              	.LVL42:
 318              	.L16:
 763:Drivers/lvgl/src/extra/layouts/grid/lv_grid.c ****         for(i = 0; i < track_num; i++) {
 319              		.loc 1 763 22 is_stmt 1 discriminator 1 view .LVU109
 320 0118 AA42     		cmp	r2, r5
 321 011a FAD2     		bcs	.L17
 764:Drivers/lvgl/src/extra/layouts/grid/lv_grid.c ****         }
 322              		.loc 1 764 13 discriminator 3 view .LVU110
 764:Drivers/lvgl/src/extra/layouts/grid/lv_grid.c ****         }
 323              		.loc 1 764 49 is_stmt 0 discriminator 3 view .LVU111
 324 011c 34F81230 		ldrh	r3, [r4, r2, lsl #1]
 764:Drivers/lvgl/src/extra/layouts/grid/lv_grid.c ****         }
 325              		.loc 1 764 38 discriminator 3 view .LVU112
 326 0120 ACEB0303 		sub	r3, ip, r3
 327 0124 9BB2     		uxth	r3, r3
 764:Drivers/lvgl/src/extra/layouts/grid/lv_grid.c ****         }
 328              		.loc 1 764 65 discriminator 3 view .LVU113
 329 0126 36F81210 		ldrh	r1, [r6, r2, lsl #1]
 764:Drivers/lvgl/src/extra/layouts/grid/lv_grid.c ****         }
 330              		.loc 1 764 53 discriminator 3 view .LVU114
 331 012a 5B1A     		subs	r3, r3, r1
 764:Drivers/lvgl/src/extra/layouts/grid/lv_grid.c ****         }
 332              		.loc 1 764 26 discriminator 3 view .LVU115
 333 012c 24F81230 		strh	r3, [r4, r2, lsl #1]	@ movhi
 763:Drivers/lvgl/src/extra/layouts/grid/lv_grid.c ****         for(i = 0; i < track_num; i++) {
 334              		.loc 1 763 36 is_stmt 1 discriminator 3 view .LVU116
 335 0130 0132     		adds	r2, r2, #1
 336              	.LVL43:
 763:Drivers/lvgl/src/extra/layouts/grid/lv_grid.c ****         for(i = 0; i < track_num; i++) {
 337              		.loc 1 763 36 is_stmt 0 discriminator 3 view .LVU117
 338 0132 F1E7     		b	.L16
 339              		.cfi_endproc
 340              	.LFE217:
ARM GAS  /var/folders/0z/tsy30v1j4xl4_7kw94k978ww0000gn/T//cclcOfIK.s 			page 22


 342              		.section	.text.count_tracks,"ax",%progbits
 343              		.align	1
 344              		.syntax unified
 345              		.thumb
 346              		.thumb_func
 348              	count_tracks:
 349              	.LVL44:
 350              	.LFB218:
 772:Drivers/lvgl/src/extra/layouts/grid/lv_grid.c **** 
 773:Drivers/lvgl/src/extra/layouts/grid/lv_grid.c **** static uint32_t count_tracks(const lv_coord_t * templ)
 774:Drivers/lvgl/src/extra/layouts/grid/lv_grid.c **** {
 351              		.loc 1 774 1 is_stmt 1 view -0
 352              		.cfi_startproc
 353              		@ args = 0, pretend = 0, frame = 0
 354              		@ frame_needed = 0, uses_anonymous_args = 0
 355              		@ link register save eliminated.
 356              		.loc 1 774 1 is_stmt 0 view .LVU119
 357 0000 0146     		mov	r1, r0
 775:Drivers/lvgl/src/extra/layouts/grid/lv_grid.c ****     uint32_t i;
 358              		.loc 1 775 5 is_stmt 1 view .LVU120
 776:Drivers/lvgl/src/extra/layouts/grid/lv_grid.c ****     for(i = 0; templ[i] != LV_GRID_TEMPLATE_LAST; i++);
 359              		.loc 1 776 5 view .LVU121
 360              	.LVL45:
 361              		.loc 1 776 11 is_stmt 0 view .LVU122
 362 0002 0020     		movs	r0, #0
 363              	.LVL46:
 364              		.loc 1 776 5 view .LVU123
 365 0004 00E0     		b	.L25
 366              	.LVL47:
 367              	.L26:
 368              		.loc 1 776 52 is_stmt 1 discriminator 3 view .LVU124
 369 0006 0130     		adds	r0, r0, #1
 370              	.LVL48:
 371              	.L25:
 372              		.loc 1 776 25 discriminator 1 view .LVU125
 373              		.loc 1 776 21 is_stmt 0 discriminator 1 view .LVU126
 374 0008 31F91020 		ldrsh	r2, [r1, r0, lsl #1]
 375              		.loc 1 776 25 discriminator 1 view .LVU127
 376 000c 41F6FF73 		movw	r3, #8191
 377 0010 9A42     		cmp	r2, r3
 378 0012 F8D1     		bne	.L26
 777:Drivers/lvgl/src/extra/layouts/grid/lv_grid.c **** 
 778:Drivers/lvgl/src/extra/layouts/grid/lv_grid.c ****     return i;
 379              		.loc 1 778 5 is_stmt 1 view .LVU128
 779:Drivers/lvgl/src/extra/layouts/grid/lv_grid.c **** }
 380              		.loc 1 779 1 is_stmt 0 view .LVU129
 381 0014 7047     		bx	lr
 382              		.cfi_endproc
 383              	.LFE218:
 385              		.section	.text.item_repos,"ax",%progbits
 386              		.align	1
 387              		.syntax unified
 388              		.thumb
 389              		.thumb_func
 391              	item_repos:
 392              	.LVL49:
 393              	.LFB216:
ARM GAS  /var/folders/0z/tsy30v1j4xl4_7kw94k978ww0000gn/T//cclcOfIK.s 			page 23


 583:Drivers/lvgl/src/extra/layouts/grid/lv_grid.c ****     if(lv_obj_has_flag_any(item, LV_OBJ_FLAG_IGNORE_LAYOUT | LV_OBJ_FLAG_HIDDEN | LV_OBJ_FLAG_FLOAT
 394              		.loc 1 583 1 is_stmt 1 view -0
 395              		.cfi_startproc
 396              		@ args = 0, pretend = 0, frame = 32
 397              		@ frame_needed = 0, uses_anonymous_args = 0
 583:Drivers/lvgl/src/extra/layouts/grid/lv_grid.c ****     if(lv_obj_has_flag_any(item, LV_OBJ_FLAG_IGNORE_LAYOUT | LV_OBJ_FLAG_HIDDEN | LV_OBJ_FLAG_FLOAT
 398              		.loc 1 583 1 is_stmt 0 view .LVU131
 399 0000 2DE9F04F 		push	{r4, r5, r6, r7, r8, r9, r10, fp, lr}
 400              		.cfi_def_cfa_offset 36
 401              		.cfi_offset 4, -36
 402              		.cfi_offset 5, -32
 403              		.cfi_offset 6, -28
 404              		.cfi_offset 7, -24
 405              		.cfi_offset 8, -20
 406              		.cfi_offset 9, -16
 407              		.cfi_offset 10, -12
 408              		.cfi_offset 11, -8
 409              		.cfi_offset 14, -4
 410 0004 89B0     		sub	sp, sp, #36
 411              		.cfi_def_cfa_offset 72
 412 0006 0446     		mov	r4, r0
 413 0008 0D46     		mov	r5, r1
 414 000a 0192     		str	r2, [sp, #4]
 584:Drivers/lvgl/src/extra/layouts/grid/lv_grid.c ****     uint32_t col_span = get_col_span(item);
 415              		.loc 1 584 5 is_stmt 1 view .LVU132
 584:Drivers/lvgl/src/extra/layouts/grid/lv_grid.c ****     uint32_t col_span = get_col_span(item);
 416              		.loc 1 584 8 is_stmt 0 view .LVU133
 417 000c C049     		ldr	r1, .L55
 418              	.LVL50:
 584:Drivers/lvgl/src/extra/layouts/grid/lv_grid.c ****     uint32_t col_span = get_col_span(item);
 419              		.loc 1 584 8 view .LVU134
 420 000e FFF7FEFF 		bl	lv_obj_has_flag_any
 421              	.LVL51:
 584:Drivers/lvgl/src/extra/layouts/grid/lv_grid.c ****     uint32_t col_span = get_col_span(item);
 422              		.loc 1 584 7 view .LVU135
 423 0012 10B1     		cbz	r0, .L50
 424              	.LVL52:
 425              	.L27:
 692:Drivers/lvgl/src/extra/layouts/grid/lv_grid.c **** 
 426              		.loc 1 692 1 view .LVU136
 427 0014 09B0     		add	sp, sp, #36
 428              		.cfi_remember_state
 429              		.cfi_def_cfa_offset 36
 430              		@ sp needed
 431 0016 BDE8F08F 		pop	{r4, r5, r6, r7, r8, r9, r10, fp, pc}
 432              	.LVL53:
 433              	.L50:
 434              		.cfi_restore_state
 585:Drivers/lvgl/src/extra/layouts/grid/lv_grid.c ****     uint32_t row_span = get_row_span(item);
 435              		.loc 1 585 5 is_stmt 1 view .LVU137
 436              	.LBB109:
 437              	.LBI109:
  77:Drivers/lvgl/src/extra/layouts/grid/lv_grid.c **** {
 438              		.loc 1 77 23 view .LVU138
 439              	.LBB110:
  79:Drivers/lvgl/src/extra/layouts/grid/lv_grid.c **** }
 440              		.loc 1 79 5 view .LVU139
ARM GAS  /var/folders/0z/tsy30v1j4xl4_7kw94k978ww0000gn/T//cclcOfIK.s 			page 24


 441              	.LBB111:
 442              	.LBI111:
 443              		.file 2 "Drivers/lvgl/src/extra/layouts/grid/../grid/lv_grid.h"
   1:Drivers/lvgl/src/extra/layouts/grid/../grid/lv_grid.h **** /**
   2:Drivers/lvgl/src/extra/layouts/grid/../grid/lv_grid.h ****  * @file lv_grid.h
   3:Drivers/lvgl/src/extra/layouts/grid/../grid/lv_grid.h ****  *
   4:Drivers/lvgl/src/extra/layouts/grid/../grid/lv_grid.h ****  */
   5:Drivers/lvgl/src/extra/layouts/grid/../grid/lv_grid.h **** 
   6:Drivers/lvgl/src/extra/layouts/grid/../grid/lv_grid.h **** #ifndef LV_GRID_H
   7:Drivers/lvgl/src/extra/layouts/grid/../grid/lv_grid.h **** #define LV_GRID_H
   8:Drivers/lvgl/src/extra/layouts/grid/../grid/lv_grid.h **** 
   9:Drivers/lvgl/src/extra/layouts/grid/../grid/lv_grid.h **** #ifdef __cplusplus
  10:Drivers/lvgl/src/extra/layouts/grid/../grid/lv_grid.h **** extern "C" {
  11:Drivers/lvgl/src/extra/layouts/grid/../grid/lv_grid.h **** #endif
  12:Drivers/lvgl/src/extra/layouts/grid/../grid/lv_grid.h **** 
  13:Drivers/lvgl/src/extra/layouts/grid/../grid/lv_grid.h **** /*********************
  14:Drivers/lvgl/src/extra/layouts/grid/../grid/lv_grid.h ****  *      INCLUDES
  15:Drivers/lvgl/src/extra/layouts/grid/../grid/lv_grid.h ****  *********************/
  16:Drivers/lvgl/src/extra/layouts/grid/../grid/lv_grid.h **** #include "../../../core/lv_obj.h"
  17:Drivers/lvgl/src/extra/layouts/grid/../grid/lv_grid.h **** #if LV_USE_GRID
  18:Drivers/lvgl/src/extra/layouts/grid/../grid/lv_grid.h **** 
  19:Drivers/lvgl/src/extra/layouts/grid/../grid/lv_grid.h **** /*********************
  20:Drivers/lvgl/src/extra/layouts/grid/../grid/lv_grid.h ****  *      DEFINES
  21:Drivers/lvgl/src/extra/layouts/grid/../grid/lv_grid.h ****  *********************/
  22:Drivers/lvgl/src/extra/layouts/grid/../grid/lv_grid.h **** /**
  23:Drivers/lvgl/src/extra/layouts/grid/../grid/lv_grid.h ****  * Can be used track size to make the track fill the free space.
  24:Drivers/lvgl/src/extra/layouts/grid/../grid/lv_grid.h ****  * @param x how much space to take proportionally to other FR tracks
  25:Drivers/lvgl/src/extra/layouts/grid/../grid/lv_grid.h ****  * @return a special track size
  26:Drivers/lvgl/src/extra/layouts/grid/../grid/lv_grid.h ****  */
  27:Drivers/lvgl/src/extra/layouts/grid/../grid/lv_grid.h **** #define LV_GRID_FR(x)          (LV_COORD_MAX - 100 + x)
  28:Drivers/lvgl/src/extra/layouts/grid/../grid/lv_grid.h **** 
  29:Drivers/lvgl/src/extra/layouts/grid/../grid/lv_grid.h **** #define LV_GRID_CONTENT        (LV_COORD_MAX - 101)
  30:Drivers/lvgl/src/extra/layouts/grid/../grid/lv_grid.h **** LV_EXPORT_CONST_INT(LV_GRID_CONTENT);
  31:Drivers/lvgl/src/extra/layouts/grid/../grid/lv_grid.h **** 
  32:Drivers/lvgl/src/extra/layouts/grid/../grid/lv_grid.h **** #define LV_GRID_TEMPLATE_LAST  (LV_COORD_MAX)
  33:Drivers/lvgl/src/extra/layouts/grid/../grid/lv_grid.h **** LV_EXPORT_CONST_INT(LV_GRID_TEMPLATE_LAST);
  34:Drivers/lvgl/src/extra/layouts/grid/../grid/lv_grid.h **** 
  35:Drivers/lvgl/src/extra/layouts/grid/../grid/lv_grid.h **** /**********************
  36:Drivers/lvgl/src/extra/layouts/grid/../grid/lv_grid.h ****  *      TYPEDEFS
  37:Drivers/lvgl/src/extra/layouts/grid/../grid/lv_grid.h ****  **********************/
  38:Drivers/lvgl/src/extra/layouts/grid/../grid/lv_grid.h **** 
  39:Drivers/lvgl/src/extra/layouts/grid/../grid/lv_grid.h **** /*Can't include lv_obj.h because it includes this header file*/
  40:Drivers/lvgl/src/extra/layouts/grid/../grid/lv_grid.h **** struct _lv_obj_t;
  41:Drivers/lvgl/src/extra/layouts/grid/../grid/lv_grid.h **** 
  42:Drivers/lvgl/src/extra/layouts/grid/../grid/lv_grid.h **** typedef enum {
  43:Drivers/lvgl/src/extra/layouts/grid/../grid/lv_grid.h ****     LV_GRID_ALIGN_START,
  44:Drivers/lvgl/src/extra/layouts/grid/../grid/lv_grid.h ****     LV_GRID_ALIGN_CENTER,
  45:Drivers/lvgl/src/extra/layouts/grid/../grid/lv_grid.h ****     LV_GRID_ALIGN_END,
  46:Drivers/lvgl/src/extra/layouts/grid/../grid/lv_grid.h ****     LV_GRID_ALIGN_STRETCH,
  47:Drivers/lvgl/src/extra/layouts/grid/../grid/lv_grid.h ****     LV_GRID_ALIGN_SPACE_EVENLY,
  48:Drivers/lvgl/src/extra/layouts/grid/../grid/lv_grid.h ****     LV_GRID_ALIGN_SPACE_AROUND,
  49:Drivers/lvgl/src/extra/layouts/grid/../grid/lv_grid.h ****     LV_GRID_ALIGN_SPACE_BETWEEN,
  50:Drivers/lvgl/src/extra/layouts/grid/../grid/lv_grid.h **** } lv_grid_align_t;
  51:Drivers/lvgl/src/extra/layouts/grid/../grid/lv_grid.h **** 
  52:Drivers/lvgl/src/extra/layouts/grid/../grid/lv_grid.h **** /**********************
  53:Drivers/lvgl/src/extra/layouts/grid/../grid/lv_grid.h ****  * GLOBAL VARIABLES
  54:Drivers/lvgl/src/extra/layouts/grid/../grid/lv_grid.h ****  **********************/
ARM GAS  /var/folders/0z/tsy30v1j4xl4_7kw94k978ww0000gn/T//cclcOfIK.s 			page 25


  55:Drivers/lvgl/src/extra/layouts/grid/../grid/lv_grid.h **** 
  56:Drivers/lvgl/src/extra/layouts/grid/../grid/lv_grid.h **** extern uint16_t LV_LAYOUT_GRID;
  57:Drivers/lvgl/src/extra/layouts/grid/../grid/lv_grid.h **** extern lv_style_prop_t LV_STYLE_GRID_COLUMN_DSC_ARRAY;
  58:Drivers/lvgl/src/extra/layouts/grid/../grid/lv_grid.h **** extern lv_style_prop_t LV_STYLE_GRID_COLUMN_ALIGN;
  59:Drivers/lvgl/src/extra/layouts/grid/../grid/lv_grid.h **** extern lv_style_prop_t LV_STYLE_GRID_ROW_DSC_ARRAY;
  60:Drivers/lvgl/src/extra/layouts/grid/../grid/lv_grid.h **** extern lv_style_prop_t LV_STYLE_GRID_ROW_ALIGN;
  61:Drivers/lvgl/src/extra/layouts/grid/../grid/lv_grid.h **** extern lv_style_prop_t LV_STYLE_GRID_CELL_COLUMN_POS;
  62:Drivers/lvgl/src/extra/layouts/grid/../grid/lv_grid.h **** extern lv_style_prop_t LV_STYLE_GRID_CELL_COLUMN_SPAN;
  63:Drivers/lvgl/src/extra/layouts/grid/../grid/lv_grid.h **** extern lv_style_prop_t LV_STYLE_GRID_CELL_X_ALIGN;
  64:Drivers/lvgl/src/extra/layouts/grid/../grid/lv_grid.h **** extern lv_style_prop_t LV_STYLE_GRID_CELL_ROW_POS;
  65:Drivers/lvgl/src/extra/layouts/grid/../grid/lv_grid.h **** extern lv_style_prop_t LV_STYLE_GRID_CELL_ROW_SPAN;
  66:Drivers/lvgl/src/extra/layouts/grid/../grid/lv_grid.h **** extern lv_style_prop_t LV_STYLE_GRID_CELL_Y_ALIGN;
  67:Drivers/lvgl/src/extra/layouts/grid/../grid/lv_grid.h **** 
  68:Drivers/lvgl/src/extra/layouts/grid/../grid/lv_grid.h **** /**********************
  69:Drivers/lvgl/src/extra/layouts/grid/../grid/lv_grid.h ****  * GLOBAL PROTOTYPES
  70:Drivers/lvgl/src/extra/layouts/grid/../grid/lv_grid.h ****  **********************/
  71:Drivers/lvgl/src/extra/layouts/grid/../grid/lv_grid.h **** 
  72:Drivers/lvgl/src/extra/layouts/grid/../grid/lv_grid.h **** void lv_grid_init(void);
  73:Drivers/lvgl/src/extra/layouts/grid/../grid/lv_grid.h **** 
  74:Drivers/lvgl/src/extra/layouts/grid/../grid/lv_grid.h **** void lv_obj_set_grid_dsc_array(lv_obj_t * obj, const lv_coord_t col_dsc[], const lv_coord_t row_dsc
  75:Drivers/lvgl/src/extra/layouts/grid/../grid/lv_grid.h **** 
  76:Drivers/lvgl/src/extra/layouts/grid/../grid/lv_grid.h **** void lv_obj_set_grid_align(lv_obj_t * obj, lv_grid_align_t column_align, lv_grid_align_t row_align)
  77:Drivers/lvgl/src/extra/layouts/grid/../grid/lv_grid.h **** 
  78:Drivers/lvgl/src/extra/layouts/grid/../grid/lv_grid.h **** /**
  79:Drivers/lvgl/src/extra/layouts/grid/../grid/lv_grid.h ****  * Set the cell of an object. The object's parent needs to have grid layout, else nothing will happ
  80:Drivers/lvgl/src/extra/layouts/grid/../grid/lv_grid.h ****  * @param obj pointer to an object
  81:Drivers/lvgl/src/extra/layouts/grid/../grid/lv_grid.h ****  * @param column_align the vertical alignment in the cell. `LV_GRID_START/END/CENTER/STRETCH`
  82:Drivers/lvgl/src/extra/layouts/grid/../grid/lv_grid.h ****  * @param col_pos column ID
  83:Drivers/lvgl/src/extra/layouts/grid/../grid/lv_grid.h ****  * @param col_span number of columns to take (>= 1)
  84:Drivers/lvgl/src/extra/layouts/grid/../grid/lv_grid.h ****  * @param row_align the horizontal alignment in the cell. `LV_GRID_START/END/CENTER/STRETCH`
  85:Drivers/lvgl/src/extra/layouts/grid/../grid/lv_grid.h ****  * @param row_pos row ID
  86:Drivers/lvgl/src/extra/layouts/grid/../grid/lv_grid.h ****  * @param row_span number of rows to take (>= 1)
  87:Drivers/lvgl/src/extra/layouts/grid/../grid/lv_grid.h ****  */
  88:Drivers/lvgl/src/extra/layouts/grid/../grid/lv_grid.h **** void lv_obj_set_grid_cell(lv_obj_t * obj, lv_grid_align_t column_align, uint8_t col_pos, uint8_t co
  89:Drivers/lvgl/src/extra/layouts/grid/../grid/lv_grid.h ****                           lv_grid_align_t row_align, uint8_t row_pos, uint8_t row_span);
  90:Drivers/lvgl/src/extra/layouts/grid/../grid/lv_grid.h **** 
  91:Drivers/lvgl/src/extra/layouts/grid/../grid/lv_grid.h **** /**
  92:Drivers/lvgl/src/extra/layouts/grid/../grid/lv_grid.h ****  * Just a wrapper to `LV_GRID_FR` for bindings.
  93:Drivers/lvgl/src/extra/layouts/grid/../grid/lv_grid.h ****  */
  94:Drivers/lvgl/src/extra/layouts/grid/../grid/lv_grid.h **** static inline lv_coord_t lv_grid_fr(uint8_t x)
  95:Drivers/lvgl/src/extra/layouts/grid/../grid/lv_grid.h **** {
  96:Drivers/lvgl/src/extra/layouts/grid/../grid/lv_grid.h ****     return LV_GRID_FR(x);
  97:Drivers/lvgl/src/extra/layouts/grid/../grid/lv_grid.h **** }
  98:Drivers/lvgl/src/extra/layouts/grid/../grid/lv_grid.h **** 
  99:Drivers/lvgl/src/extra/layouts/grid/../grid/lv_grid.h **** void lv_style_set_grid_row_dsc_array(lv_style_t * style, const lv_coord_t value[]);
 100:Drivers/lvgl/src/extra/layouts/grid/../grid/lv_grid.h **** void lv_style_set_grid_column_dsc_array(lv_style_t * style, const lv_coord_t value[]);
 101:Drivers/lvgl/src/extra/layouts/grid/../grid/lv_grid.h **** void lv_style_set_grid_row_align(lv_style_t * style, lv_grid_align_t value);
 102:Drivers/lvgl/src/extra/layouts/grid/../grid/lv_grid.h **** void lv_style_set_grid_column_align(lv_style_t * style, lv_grid_align_t value);
 103:Drivers/lvgl/src/extra/layouts/grid/../grid/lv_grid.h **** void lv_style_set_grid_cell_column_pos(lv_style_t * style, lv_coord_t value);
 104:Drivers/lvgl/src/extra/layouts/grid/../grid/lv_grid.h **** void lv_style_set_grid_cell_column_span(lv_style_t * style, lv_coord_t value);
 105:Drivers/lvgl/src/extra/layouts/grid/../grid/lv_grid.h **** void lv_style_set_grid_cell_row_pos(lv_style_t * style, lv_coord_t value);
 106:Drivers/lvgl/src/extra/layouts/grid/../grid/lv_grid.h **** void lv_style_set_grid_cell_row_span(lv_style_t * style, lv_coord_t value);
 107:Drivers/lvgl/src/extra/layouts/grid/../grid/lv_grid.h **** void lv_style_set_grid_cell_x_align(lv_style_t * style, lv_coord_t value);
 108:Drivers/lvgl/src/extra/layouts/grid/../grid/lv_grid.h **** void lv_style_set_grid_cell_y_align(lv_style_t * style, lv_coord_t value);
 109:Drivers/lvgl/src/extra/layouts/grid/../grid/lv_grid.h **** 
 110:Drivers/lvgl/src/extra/layouts/grid/../grid/lv_grid.h **** void lv_obj_set_style_grid_row_dsc_array(lv_obj_t * obj, const lv_coord_t value[], lv_style_selecto
 111:Drivers/lvgl/src/extra/layouts/grid/../grid/lv_grid.h **** void lv_obj_set_style_grid_column_dsc_array(lv_obj_t * obj, const lv_coord_t value[], lv_style_sele
ARM GAS  /var/folders/0z/tsy30v1j4xl4_7kw94k978ww0000gn/T//cclcOfIK.s 			page 26


 112:Drivers/lvgl/src/extra/layouts/grid/../grid/lv_grid.h **** void lv_obj_set_style_grid_row_align(lv_obj_t * obj, lv_grid_align_t value, lv_style_selector_t sel
 113:Drivers/lvgl/src/extra/layouts/grid/../grid/lv_grid.h **** void lv_obj_set_style_grid_column_align(lv_obj_t * obj, lv_grid_align_t value, lv_style_selector_t 
 114:Drivers/lvgl/src/extra/layouts/grid/../grid/lv_grid.h **** void lv_obj_set_style_grid_cell_column_pos(lv_obj_t * obj, lv_coord_t value, lv_style_selector_t se
 115:Drivers/lvgl/src/extra/layouts/grid/../grid/lv_grid.h **** void lv_obj_set_style_grid_cell_column_span(lv_obj_t * obj, lv_coord_t value, lv_style_selector_t s
 116:Drivers/lvgl/src/extra/layouts/grid/../grid/lv_grid.h **** void lv_obj_set_style_grid_cell_row_pos(lv_obj_t * obj, lv_coord_t value, lv_style_selector_t selec
 117:Drivers/lvgl/src/extra/layouts/grid/../grid/lv_grid.h **** void lv_obj_set_style_grid_cell_row_span(lv_obj_t * obj, lv_coord_t value, lv_style_selector_t sele
 118:Drivers/lvgl/src/extra/layouts/grid/../grid/lv_grid.h **** void lv_obj_set_style_grid_cell_x_align(lv_obj_t * obj, lv_coord_t value, lv_style_selector_t selec
 119:Drivers/lvgl/src/extra/layouts/grid/../grid/lv_grid.h **** void lv_obj_set_style_grid_cell_y_align(lv_obj_t * obj, lv_coord_t value, lv_style_selector_t selec
 120:Drivers/lvgl/src/extra/layouts/grid/../grid/lv_grid.h **** 
 121:Drivers/lvgl/src/extra/layouts/grid/../grid/lv_grid.h **** static inline const lv_coord_t * lv_obj_get_style_grid_row_dsc_array(const lv_obj_t * obj, uint32_t
 122:Drivers/lvgl/src/extra/layouts/grid/../grid/lv_grid.h **** {
 123:Drivers/lvgl/src/extra/layouts/grid/../grid/lv_grid.h ****     lv_style_value_t v = lv_obj_get_style_prop(obj, part, LV_STYLE_GRID_ROW_DSC_ARRAY);
 124:Drivers/lvgl/src/extra/layouts/grid/../grid/lv_grid.h ****     return (const lv_coord_t *)v.ptr;
 125:Drivers/lvgl/src/extra/layouts/grid/../grid/lv_grid.h **** }
 126:Drivers/lvgl/src/extra/layouts/grid/../grid/lv_grid.h **** 
 127:Drivers/lvgl/src/extra/layouts/grid/../grid/lv_grid.h **** static inline const lv_coord_t * lv_obj_get_style_grid_column_dsc_array(const lv_obj_t * obj, uint3
 128:Drivers/lvgl/src/extra/layouts/grid/../grid/lv_grid.h **** {
 129:Drivers/lvgl/src/extra/layouts/grid/../grid/lv_grid.h ****     lv_style_value_t v = lv_obj_get_style_prop(obj, part, LV_STYLE_GRID_COLUMN_DSC_ARRAY);
 130:Drivers/lvgl/src/extra/layouts/grid/../grid/lv_grid.h ****     return (const lv_coord_t *)v.ptr;
 131:Drivers/lvgl/src/extra/layouts/grid/../grid/lv_grid.h **** }
 132:Drivers/lvgl/src/extra/layouts/grid/../grid/lv_grid.h **** 
 133:Drivers/lvgl/src/extra/layouts/grid/../grid/lv_grid.h **** static inline lv_grid_align_t lv_obj_get_style_grid_row_align(const lv_obj_t * obj, uint32_t part)
 134:Drivers/lvgl/src/extra/layouts/grid/../grid/lv_grid.h **** {
 135:Drivers/lvgl/src/extra/layouts/grid/../grid/lv_grid.h ****     lv_style_value_t v = lv_obj_get_style_prop(obj, part, LV_STYLE_GRID_ROW_ALIGN);
 136:Drivers/lvgl/src/extra/layouts/grid/../grid/lv_grid.h ****     return (lv_grid_align_t)v.num;
 137:Drivers/lvgl/src/extra/layouts/grid/../grid/lv_grid.h **** }
 138:Drivers/lvgl/src/extra/layouts/grid/../grid/lv_grid.h **** 
 139:Drivers/lvgl/src/extra/layouts/grid/../grid/lv_grid.h **** static inline lv_grid_align_t lv_obj_get_style_grid_column_align(const lv_obj_t * obj, uint32_t par
 140:Drivers/lvgl/src/extra/layouts/grid/../grid/lv_grid.h **** {
 141:Drivers/lvgl/src/extra/layouts/grid/../grid/lv_grid.h ****     lv_style_value_t v = lv_obj_get_style_prop(obj, part, LV_STYLE_GRID_COLUMN_ALIGN);
 142:Drivers/lvgl/src/extra/layouts/grid/../grid/lv_grid.h ****     return (lv_grid_align_t)v.num;
 143:Drivers/lvgl/src/extra/layouts/grid/../grid/lv_grid.h **** }
 144:Drivers/lvgl/src/extra/layouts/grid/../grid/lv_grid.h **** 
 145:Drivers/lvgl/src/extra/layouts/grid/../grid/lv_grid.h **** static inline lv_coord_t lv_obj_get_style_grid_cell_column_pos(const lv_obj_t * obj, uint32_t part)
 146:Drivers/lvgl/src/extra/layouts/grid/../grid/lv_grid.h **** {
 147:Drivers/lvgl/src/extra/layouts/grid/../grid/lv_grid.h ****     lv_style_value_t v = lv_obj_get_style_prop(obj, part, LV_STYLE_GRID_CELL_COLUMN_POS);
 148:Drivers/lvgl/src/extra/layouts/grid/../grid/lv_grid.h ****     return (lv_coord_t)v.num;
 149:Drivers/lvgl/src/extra/layouts/grid/../grid/lv_grid.h **** }
 150:Drivers/lvgl/src/extra/layouts/grid/../grid/lv_grid.h **** 
 151:Drivers/lvgl/src/extra/layouts/grid/../grid/lv_grid.h **** static inline lv_coord_t lv_obj_get_style_grid_cell_column_span(const lv_obj_t * obj, uint32_t part
 444              		.loc 2 151 26 view .LVU140
 445              	.LBB112:
 152:Drivers/lvgl/src/extra/layouts/grid/../grid/lv_grid.h **** {
 153:Drivers/lvgl/src/extra/layouts/grid/../grid/lv_grid.h ****     lv_style_value_t v = lv_obj_get_style_prop(obj, part, LV_STYLE_GRID_CELL_COLUMN_SPAN);
 446              		.loc 2 153 5 view .LVU141
 447              		.loc 2 153 26 is_stmt 0 view .LVU142
 448 001a BE4B     		ldr	r3, .L55+4
 449 001c 1A88     		ldrh	r2, [r3]
 450 001e 0021     		movs	r1, #0
 451 0020 2046     		mov	r0, r4
 452 0022 FFF7FEFF 		bl	lv_obj_get_style_prop
 453              	.LVL54:
 154:Drivers/lvgl/src/extra/layouts/grid/../grid/lv_grid.h ****     return (lv_coord_t)v.num;
 454              		.loc 2 154 5 is_stmt 1 view .LVU143
 455              		.loc 2 154 5 is_stmt 0 view .LVU144
 456              	.LBE112:
 457              	.LBE111:
ARM GAS  /var/folders/0z/tsy30v1j4xl4_7kw94k978ww0000gn/T//cclcOfIK.s 			page 27


  79:Drivers/lvgl/src/extra/layouts/grid/lv_grid.c **** }
 458              		.loc 1 79 12 view .LVU145
 459 0026 C7B2     		uxtb	r7, r0
 460              	.LVL55:
  79:Drivers/lvgl/src/extra/layouts/grid/lv_grid.c **** }
 461              		.loc 1 79 12 view .LVU146
 462              	.LBE110:
 463              	.LBE109:
 586:Drivers/lvgl/src/extra/layouts/grid/lv_grid.c ****     if(row_span == 0 || col_span == 0) return;
 464              		.loc 1 586 5 is_stmt 1 view .LVU147
 465              	.LBB113:
 466              	.LBI113:
  81:Drivers/lvgl/src/extra/layouts/grid/lv_grid.c **** {
 467              		.loc 1 81 23 view .LVU148
 468              	.LBB114:
  83:Drivers/lvgl/src/extra/layouts/grid/lv_grid.c **** }
 469              		.loc 1 83 5 view .LVU149
 470              	.LBB115:
 471              	.LBI115:
 155:Drivers/lvgl/src/extra/layouts/grid/../grid/lv_grid.h **** }
 156:Drivers/lvgl/src/extra/layouts/grid/../grid/lv_grid.h **** 
 157:Drivers/lvgl/src/extra/layouts/grid/../grid/lv_grid.h **** static inline lv_coord_t lv_obj_get_style_grid_cell_row_pos(const lv_obj_t * obj, uint32_t part)
 158:Drivers/lvgl/src/extra/layouts/grid/../grid/lv_grid.h **** {
 159:Drivers/lvgl/src/extra/layouts/grid/../grid/lv_grid.h ****     lv_style_value_t v = lv_obj_get_style_prop(obj, part, LV_STYLE_GRID_CELL_ROW_POS);
 160:Drivers/lvgl/src/extra/layouts/grid/../grid/lv_grid.h ****     return (lv_coord_t)v.num;
 161:Drivers/lvgl/src/extra/layouts/grid/../grid/lv_grid.h **** }
 162:Drivers/lvgl/src/extra/layouts/grid/../grid/lv_grid.h **** 
 163:Drivers/lvgl/src/extra/layouts/grid/../grid/lv_grid.h **** static inline lv_coord_t lv_obj_get_style_grid_cell_row_span(const lv_obj_t * obj, uint32_t part)
 472              		.loc 2 163 26 view .LVU150
 473              	.LBB116:
 164:Drivers/lvgl/src/extra/layouts/grid/../grid/lv_grid.h **** {
 165:Drivers/lvgl/src/extra/layouts/grid/../grid/lv_grid.h ****     lv_style_value_t v = lv_obj_get_style_prop(obj, part, LV_STYLE_GRID_CELL_ROW_SPAN);
 474              		.loc 2 165 5 view .LVU151
 475              		.loc 2 165 26 is_stmt 0 view .LVU152
 476 0028 BB4B     		ldr	r3, .L55+8
 477 002a 1A88     		ldrh	r2, [r3]
 478 002c 0021     		movs	r1, #0
 479 002e 2046     		mov	r0, r4
 480 0030 FFF7FEFF 		bl	lv_obj_get_style_prop
 481              	.LVL56:
 166:Drivers/lvgl/src/extra/layouts/grid/../grid/lv_grid.h ****     return (lv_coord_t)v.num;
 482              		.loc 2 166 5 is_stmt 1 view .LVU153
 483              		.loc 2 166 5 is_stmt 0 view .LVU154
 484              	.LBE116:
 485              	.LBE115:
 486              	.LBE114:
 487              	.LBE113:
 587:Drivers/lvgl/src/extra/layouts/grid/lv_grid.c **** 
 488              		.loc 1 587 5 is_stmt 1 view .LVU155
 587:Drivers/lvgl/src/extra/layouts/grid/lv_grid.c **** 
 489              		.loc 1 587 7 is_stmt 0 view .LVU156
 490 0034 10F0FF06 		ands	r6, r0, #255
 491 0038 ECD0     		beq	.L27
 587:Drivers/lvgl/src/extra/layouts/grid/lv_grid.c **** 
 492              		.loc 1 587 22 discriminator 2 view .LVU157
 493 003a 002F     		cmp	r7, #0
 494 003c EAD0     		beq	.L27
ARM GAS  /var/folders/0z/tsy30v1j4xl4_7kw94k978ww0000gn/T//cclcOfIK.s 			page 28


 589:Drivers/lvgl/src/extra/layouts/grid/lv_grid.c ****     uint32_t row_pos = get_row_pos(item);
 495              		.loc 1 589 5 is_stmt 1 view .LVU158
 496              	.LVL57:
 497              	.LBB117:
 498              	.LBI117:
  69:Drivers/lvgl/src/extra/layouts/grid/lv_grid.c **** {
 499              		.loc 1 69 23 view .LVU159
 500              	.LBB118:
  71:Drivers/lvgl/src/extra/layouts/grid/lv_grid.c **** }
 501              		.loc 1 71 5 view .LVU160
 502              	.LBB119:
 503              	.LBI119:
 145:Drivers/lvgl/src/extra/layouts/grid/../grid/lv_grid.h **** {
 504              		.loc 2 145 26 view .LVU161
 505              	.LBB120:
 147:Drivers/lvgl/src/extra/layouts/grid/../grid/lv_grid.h ****     return (lv_coord_t)v.num;
 506              		.loc 2 147 5 view .LVU162
 147:Drivers/lvgl/src/extra/layouts/grid/../grid/lv_grid.h ****     return (lv_coord_t)v.num;
 507              		.loc 2 147 26 is_stmt 0 view .LVU163
 508 003e B74B     		ldr	r3, .L55+12
 509 0040 1A88     		ldrh	r2, [r3]
 510 0042 0021     		movs	r1, #0
 511 0044 2046     		mov	r0, r4
 512              	.LVL58:
 147:Drivers/lvgl/src/extra/layouts/grid/../grid/lv_grid.h ****     return (lv_coord_t)v.num;
 513              		.loc 2 147 26 view .LVU164
 514 0046 FFF7FEFF 		bl	lv_obj_get_style_prop
 515              	.LVL59:
 148:Drivers/lvgl/src/extra/layouts/grid/../grid/lv_grid.h **** }
 516              		.loc 2 148 5 is_stmt 1 view .LVU165
 148:Drivers/lvgl/src/extra/layouts/grid/../grid/lv_grid.h **** }
 517              		.loc 2 148 5 is_stmt 0 view .LVU166
 518              	.LBE120:
 519              	.LBE119:
  71:Drivers/lvgl/src/extra/layouts/grid/lv_grid.c **** }
 520              		.loc 1 71 12 view .LVU167
 521 004a 5FFA80FB 		uxtb	fp, r0
 522              	.LVL60:
  71:Drivers/lvgl/src/extra/layouts/grid/lv_grid.c **** }
 523              		.loc 1 71 12 view .LVU168
 524              	.LBE118:
 525              	.LBE117:
 590:Drivers/lvgl/src/extra/layouts/grid/lv_grid.c ****     lv_grid_align_t col_align = get_cell_col_align(item);
 526              		.loc 1 590 5 is_stmt 1 view .LVU169
 527              	.LBB121:
 528              	.LBI121:
  73:Drivers/lvgl/src/extra/layouts/grid/lv_grid.c **** {
 529              		.loc 1 73 23 view .LVU170
 530              	.LBB122:
  75:Drivers/lvgl/src/extra/layouts/grid/lv_grid.c **** }
 531              		.loc 1 75 5 view .LVU171
 532              	.LBB123:
 533              	.LBI123:
 157:Drivers/lvgl/src/extra/layouts/grid/../grid/lv_grid.h **** {
 534              		.loc 2 157 26 view .LVU172
 535              	.LBB124:
 159:Drivers/lvgl/src/extra/layouts/grid/../grid/lv_grid.h ****     return (lv_coord_t)v.num;
ARM GAS  /var/folders/0z/tsy30v1j4xl4_7kw94k978ww0000gn/T//cclcOfIK.s 			page 29


 536              		.loc 2 159 5 view .LVU173
 159:Drivers/lvgl/src/extra/layouts/grid/../grid/lv_grid.h ****     return (lv_coord_t)v.num;
 537              		.loc 2 159 26 is_stmt 0 view .LVU174
 538 004e B44B     		ldr	r3, .L55+16
 539 0050 1A88     		ldrh	r2, [r3]
 540 0052 0021     		movs	r1, #0
 541 0054 2046     		mov	r0, r4
 542 0056 FFF7FEFF 		bl	lv_obj_get_style_prop
 543              	.LVL61:
 160:Drivers/lvgl/src/extra/layouts/grid/../grid/lv_grid.h **** }
 544              		.loc 2 160 5 is_stmt 1 view .LVU175
 160:Drivers/lvgl/src/extra/layouts/grid/../grid/lv_grid.h **** }
 545              		.loc 2 160 5 is_stmt 0 view .LVU176
 546              	.LBE124:
 547              	.LBE123:
  75:Drivers/lvgl/src/extra/layouts/grid/lv_grid.c **** }
 548              		.loc 1 75 12 view .LVU177
 549 005a 5FFA80FA 		uxtb	r10, r0
 550              	.LVL62:
  75:Drivers/lvgl/src/extra/layouts/grid/lv_grid.c **** }
 551              		.loc 1 75 12 view .LVU178
 552              	.LBE122:
 553              	.LBE121:
 591:Drivers/lvgl/src/extra/layouts/grid/lv_grid.c ****     lv_grid_align_t row_align = get_cell_row_align(item);
 554              		.loc 1 591 5 is_stmt 1 view .LVU179
 555              	.LBB125:
 556              	.LBI125:
  85:Drivers/lvgl/src/extra/layouts/grid/lv_grid.c **** {
 557              		.loc 1 85 23 view .LVU180
 558              	.LBB126:
  87:Drivers/lvgl/src/extra/layouts/grid/lv_grid.c **** }
 559              		.loc 1 87 5 view .LVU181
 560              	.LBB127:
 561              	.LBI127:
 167:Drivers/lvgl/src/extra/layouts/grid/../grid/lv_grid.h **** }
 168:Drivers/lvgl/src/extra/layouts/grid/../grid/lv_grid.h **** 
 169:Drivers/lvgl/src/extra/layouts/grid/../grid/lv_grid.h **** static inline lv_coord_t lv_obj_get_style_grid_cell_x_align(const lv_obj_t * obj, uint32_t part)
 562              		.loc 2 169 26 view .LVU182
 563              	.LBB128:
 170:Drivers/lvgl/src/extra/layouts/grid/../grid/lv_grid.h **** {
 171:Drivers/lvgl/src/extra/layouts/grid/../grid/lv_grid.h ****     lv_style_value_t v = lv_obj_get_style_prop(obj, part, LV_STYLE_GRID_CELL_X_ALIGN);
 564              		.loc 2 171 5 view .LVU183
 565              		.loc 2 171 26 is_stmt 0 view .LVU184
 566 005e B14B     		ldr	r3, .L55+20
 567 0060 1A88     		ldrh	r2, [r3]
 568 0062 0021     		movs	r1, #0
 569 0064 2046     		mov	r0, r4
 570 0066 FFF7FEFF 		bl	lv_obj_get_style_prop
 571              	.LVL63:
 172:Drivers/lvgl/src/extra/layouts/grid/../grid/lv_grid.h ****     return (lv_coord_t)v.num;
 572              		.loc 2 172 5 is_stmt 1 view .LVU185
 573              		.loc 2 172 5 is_stmt 0 view .LVU186
 574              	.LBE128:
 575              	.LBE127:
  87:Drivers/lvgl/src/extra/layouts/grid/lv_grid.c **** }
 576              		.loc 1 87 12 view .LVU187
 577 006a 5FFA80F8 		uxtb	r8, r0
ARM GAS  /var/folders/0z/tsy30v1j4xl4_7kw94k978ww0000gn/T//cclcOfIK.s 			page 30


 578              	.LVL64:
  87:Drivers/lvgl/src/extra/layouts/grid/lv_grid.c **** }
 579              		.loc 1 87 12 view .LVU188
 580              	.LBE126:
 581              	.LBE125:
 592:Drivers/lvgl/src/extra/layouts/grid/lv_grid.c **** 
 582              		.loc 1 592 5 is_stmt 1 view .LVU189
 583              	.LBB129:
 584              	.LBI129:
  89:Drivers/lvgl/src/extra/layouts/grid/lv_grid.c **** {
 585              		.loc 1 89 23 view .LVU190
 586              	.LBB130:
  91:Drivers/lvgl/src/extra/layouts/grid/lv_grid.c **** }
 587              		.loc 1 91 5 view .LVU191
 588              	.LBB131:
 589              	.LBI131:
 173:Drivers/lvgl/src/extra/layouts/grid/../grid/lv_grid.h **** }
 174:Drivers/lvgl/src/extra/layouts/grid/../grid/lv_grid.h **** 
 175:Drivers/lvgl/src/extra/layouts/grid/../grid/lv_grid.h **** static inline lv_coord_t lv_obj_get_style_grid_cell_y_align(const lv_obj_t * obj, uint32_t part)
 590              		.loc 2 175 26 view .LVU192
 591              	.LBB132:
 176:Drivers/lvgl/src/extra/layouts/grid/../grid/lv_grid.h **** {
 177:Drivers/lvgl/src/extra/layouts/grid/../grid/lv_grid.h ****     lv_style_value_t v = lv_obj_get_style_prop(obj, part, LV_STYLE_GRID_CELL_Y_ALIGN);
 592              		.loc 2 177 5 view .LVU193
 593              		.loc 2 177 26 is_stmt 0 view .LVU194
 594 006e AE4B     		ldr	r3, .L55+24
 595 0070 1A88     		ldrh	r2, [r3]
 596 0072 0021     		movs	r1, #0
 597 0074 2046     		mov	r0, r4
 598 0076 FFF7FEFF 		bl	lv_obj_get_style_prop
 599              	.LVL65:
 178:Drivers/lvgl/src/extra/layouts/grid/../grid/lv_grid.h ****     return (lv_coord_t)v.num;
 600              		.loc 2 178 5 is_stmt 1 view .LVU195
 601              		.loc 2 178 5 is_stmt 0 view .LVU196
 602              	.LBE132:
 603              	.LBE131:
  91:Drivers/lvgl/src/extra/layouts/grid/lv_grid.c **** }
 604              		.loc 1 91 12 view .LVU197
 605 007a 5FFA80F9 		uxtb	r9, r0
 606              	.LVL66:
  91:Drivers/lvgl/src/extra/layouts/grid/lv_grid.c **** }
 607              		.loc 1 91 12 view .LVU198
 608              	.LBE130:
 609              	.LBE129:
 595:Drivers/lvgl/src/extra/layouts/grid/lv_grid.c ****     lv_coord_t col_x2 = c->x[col_pos + col_span - 1] + c->w[col_pos + col_span - 1];
 610              		.loc 1 595 5 is_stmt 1 view .LVU199
 595:Drivers/lvgl/src/extra/layouts/grid/lv_grid.c ****     lv_coord_t col_x2 = c->x[col_pos + col_span - 1] + c->w[col_pos + col_span - 1];
 611              		.loc 1 595 26 is_stmt 0 view .LVU200
 612 007e 2B68     		ldr	r3, [r5]
 595:Drivers/lvgl/src/extra/layouts/grid/lv_grid.c ****     lv_coord_t col_x2 = c->x[col_pos + col_span - 1] + c->w[col_pos + col_span - 1];
 613              		.loc 1 595 16 view .LVU201
 614 0080 33F91B20 		ldrsh	r2, [r3, fp, lsl #1]
 615              	.LVL67:
 596:Drivers/lvgl/src/extra/layouts/grid/lv_grid.c ****     lv_coord_t col_w = col_x2 - col_x1;
 616              		.loc 1 596 5 is_stmt 1 view .LVU202
 596:Drivers/lvgl/src/extra/layouts/grid/lv_grid.c ****     lv_coord_t col_w = col_x2 - col_x1;
 617              		.loc 1 596 38 is_stmt 0 view .LVU203
ARM GAS  /var/folders/0z/tsy30v1j4xl4_7kw94k978ww0000gn/T//cclcOfIK.s 			page 31


 618 0084 5F44     		add	r7, r7, fp
 619              	.LVL68:
 596:Drivers/lvgl/src/extra/layouts/grid/lv_grid.c ****     lv_coord_t col_w = col_x2 - col_x1;
 620              		.loc 1 596 29 view .LVU204
 621 0086 6FF00041 		mvn	r1, #-2147483648
 622 008a 0F44     		add	r7, r7, r1
 623 008c 33F81730 		ldrh	r3, [r3, r7, lsl #1]
 624              	.LVL69:
 596:Drivers/lvgl/src/extra/layouts/grid/lv_grid.c ****     lv_coord_t col_w = col_x2 - col_x1;
 625              		.loc 1 596 57 view .LVU205
 626 0090 A868     		ldr	r0, [r5, #8]
 596:Drivers/lvgl/src/extra/layouts/grid/lv_grid.c ****     lv_coord_t col_w = col_x2 - col_x1;
 627              		.loc 1 596 60 view .LVU206
 628 0092 30F81700 		ldrh	r0, [r0, r7, lsl #1]
 596:Drivers/lvgl/src/extra/layouts/grid/lv_grid.c ****     lv_coord_t col_w = col_x2 - col_x1;
 629              		.loc 1 596 54 view .LVU207
 630 0096 0344     		add	r3, r3, r0
 631 0098 9BB2     		uxth	r3, r3
 632              	.LVL70:
 597:Drivers/lvgl/src/extra/layouts/grid/lv_grid.c **** 
 633              		.loc 1 597 5 is_stmt 1 view .LVU208
 597:Drivers/lvgl/src/extra/layouts/grid/lv_grid.c **** 
 634              		.loc 1 597 31 is_stmt 0 view .LVU209
 635 009a 9B1A     		subs	r3, r3, r2
 636              	.LVL71:
 597:Drivers/lvgl/src/extra/layouts/grid/lv_grid.c **** 
 637              		.loc 1 597 31 view .LVU210
 638 009c 9AB2     		uxth	r2, r3
 639 009e 0492     		str	r2, [sp, #16]
 597:Drivers/lvgl/src/extra/layouts/grid/lv_grid.c **** 
 640              		.loc 1 597 16 view .LVU211
 641 00a0 1BB2     		sxth	r3, r3
 642 00a2 0293     		str	r3, [sp, #8]
 643              	.LVL72:
 599:Drivers/lvgl/src/extra/layouts/grid/lv_grid.c ****     lv_coord_t row_y2 = c->y[row_pos + row_span - 1] + c->h[row_pos + row_span - 1];
 644              		.loc 1 599 5 is_stmt 1 view .LVU212
 599:Drivers/lvgl/src/extra/layouts/grid/lv_grid.c ****     lv_coord_t row_y2 = c->y[row_pos + row_span - 1] + c->h[row_pos + row_span - 1];
 645              		.loc 1 599 26 is_stmt 0 view .LVU213
 646 00a4 6B68     		ldr	r3, [r5, #4]
 599:Drivers/lvgl/src/extra/layouts/grid/lv_grid.c ****     lv_coord_t row_y2 = c->y[row_pos + row_span - 1] + c->h[row_pos + row_span - 1];
 647              		.loc 1 599 16 view .LVU214
 648 00a6 33F91A20 		ldrsh	r2, [r3, r10, lsl #1]
 649              	.LVL73:
 600:Drivers/lvgl/src/extra/layouts/grid/lv_grid.c ****     lv_coord_t row_h = row_y2 - row_y1;
 650              		.loc 1 600 5 is_stmt 1 view .LVU215
 600:Drivers/lvgl/src/extra/layouts/grid/lv_grid.c ****     lv_coord_t row_h = row_y2 - row_y1;
 651              		.loc 1 600 38 is_stmt 0 view .LVU216
 652 00aa 5644     		add	r6, r6, r10
 600:Drivers/lvgl/src/extra/layouts/grid/lv_grid.c ****     lv_coord_t row_h = row_y2 - row_y1;
 653              		.loc 1 600 29 view .LVU217
 654 00ac 0E44     		add	r6, r6, r1
 655 00ae 33F81630 		ldrh	r3, [r3, r6, lsl #1]
 656              	.LVL74:
 600:Drivers/lvgl/src/extra/layouts/grid/lv_grid.c ****     lv_coord_t row_h = row_y2 - row_y1;
 657              		.loc 1 600 57 view .LVU218
 658 00b2 E968     		ldr	r1, [r5, #12]
 600:Drivers/lvgl/src/extra/layouts/grid/lv_grid.c ****     lv_coord_t row_h = row_y2 - row_y1;
ARM GAS  /var/folders/0z/tsy30v1j4xl4_7kw94k978ww0000gn/T//cclcOfIK.s 			page 32


 659              		.loc 1 600 60 view .LVU219
 660 00b4 31F81610 		ldrh	r1, [r1, r6, lsl #1]
 600:Drivers/lvgl/src/extra/layouts/grid/lv_grid.c ****     lv_coord_t row_h = row_y2 - row_y1;
 661              		.loc 1 600 54 view .LVU220
 662 00b8 0B44     		add	r3, r3, r1
 663 00ba 9BB2     		uxth	r3, r3
 664              	.LVL75:
 601:Drivers/lvgl/src/extra/layouts/grid/lv_grid.c **** 
 665              		.loc 1 601 5 is_stmt 1 view .LVU221
 601:Drivers/lvgl/src/extra/layouts/grid/lv_grid.c **** 
 666              		.loc 1 601 31 is_stmt 0 view .LVU222
 667 00bc 9B1A     		subs	r3, r3, r2
 668              	.LVL76:
 601:Drivers/lvgl/src/extra/layouts/grid/lv_grid.c **** 
 669              		.loc 1 601 31 view .LVU223
 670 00be 9AB2     		uxth	r2, r3
 671 00c0 0592     		str	r2, [sp, #20]
 601:Drivers/lvgl/src/extra/layouts/grid/lv_grid.c **** 
 672              		.loc 1 601 16 view .LVU224
 673 00c2 1BB2     		sxth	r3, r3
 674 00c4 0393     		str	r3, [sp, #12]
 675              	.LVL77:
 605:Drivers/lvgl/src/extra/layouts/grid/lv_grid.c ****         if(col_align == LV_GRID_ALIGN_START) col_align = LV_GRID_ALIGN_END;
 676              		.loc 1 605 5 is_stmt 1 view .LVU225
 677              	.LBB133:
 678              	.LBI133:
 679              		.file 3 "Drivers/lvgl/src/extra/layouts/grid/../flex/../../../core/lv_obj_style_gen.h"
   1:Drivers/lvgl/src/extra/layouts/grid/../flex/../../../core/lv_obj_style_gen.h **** static inline lv_coord_t lv_obj_get_style_width(const struct _lv_obj_t * obj, uint32_t part)
   2:Drivers/lvgl/src/extra/layouts/grid/../flex/../../../core/lv_obj_style_gen.h **** {
   3:Drivers/lvgl/src/extra/layouts/grid/../flex/../../../core/lv_obj_style_gen.h ****     lv_style_value_t v = lv_obj_get_style_prop(obj, part, LV_STYLE_WIDTH);
   4:Drivers/lvgl/src/extra/layouts/grid/../flex/../../../core/lv_obj_style_gen.h ****     return (lv_coord_t)v.num;
   5:Drivers/lvgl/src/extra/layouts/grid/../flex/../../../core/lv_obj_style_gen.h **** }
   6:Drivers/lvgl/src/extra/layouts/grid/../flex/../../../core/lv_obj_style_gen.h **** 
   7:Drivers/lvgl/src/extra/layouts/grid/../flex/../../../core/lv_obj_style_gen.h **** static inline lv_coord_t lv_obj_get_style_min_width(const struct _lv_obj_t * obj, uint32_t part)
   8:Drivers/lvgl/src/extra/layouts/grid/../flex/../../../core/lv_obj_style_gen.h **** {
   9:Drivers/lvgl/src/extra/layouts/grid/../flex/../../../core/lv_obj_style_gen.h ****     lv_style_value_t v = lv_obj_get_style_prop(obj, part, LV_STYLE_MIN_WIDTH);
  10:Drivers/lvgl/src/extra/layouts/grid/../flex/../../../core/lv_obj_style_gen.h ****     return (lv_coord_t)v.num;
  11:Drivers/lvgl/src/extra/layouts/grid/../flex/../../../core/lv_obj_style_gen.h **** }
  12:Drivers/lvgl/src/extra/layouts/grid/../flex/../../../core/lv_obj_style_gen.h **** 
  13:Drivers/lvgl/src/extra/layouts/grid/../flex/../../../core/lv_obj_style_gen.h **** static inline lv_coord_t lv_obj_get_style_max_width(const struct _lv_obj_t * obj, uint32_t part)
  14:Drivers/lvgl/src/extra/layouts/grid/../flex/../../../core/lv_obj_style_gen.h **** {
  15:Drivers/lvgl/src/extra/layouts/grid/../flex/../../../core/lv_obj_style_gen.h ****     lv_style_value_t v = lv_obj_get_style_prop(obj, part, LV_STYLE_MAX_WIDTH);
  16:Drivers/lvgl/src/extra/layouts/grid/../flex/../../../core/lv_obj_style_gen.h ****     return (lv_coord_t)v.num;
  17:Drivers/lvgl/src/extra/layouts/grid/../flex/../../../core/lv_obj_style_gen.h **** }
  18:Drivers/lvgl/src/extra/layouts/grid/../flex/../../../core/lv_obj_style_gen.h **** 
  19:Drivers/lvgl/src/extra/layouts/grid/../flex/../../../core/lv_obj_style_gen.h **** static inline lv_coord_t lv_obj_get_style_height(const struct _lv_obj_t * obj, uint32_t part)
  20:Drivers/lvgl/src/extra/layouts/grid/../flex/../../../core/lv_obj_style_gen.h **** {
  21:Drivers/lvgl/src/extra/layouts/grid/../flex/../../../core/lv_obj_style_gen.h ****     lv_style_value_t v = lv_obj_get_style_prop(obj, part, LV_STYLE_HEIGHT);
  22:Drivers/lvgl/src/extra/layouts/grid/../flex/../../../core/lv_obj_style_gen.h ****     return (lv_coord_t)v.num;
  23:Drivers/lvgl/src/extra/layouts/grid/../flex/../../../core/lv_obj_style_gen.h **** }
  24:Drivers/lvgl/src/extra/layouts/grid/../flex/../../../core/lv_obj_style_gen.h **** 
  25:Drivers/lvgl/src/extra/layouts/grid/../flex/../../../core/lv_obj_style_gen.h **** static inline lv_coord_t lv_obj_get_style_min_height(const struct _lv_obj_t * obj, uint32_t part)
  26:Drivers/lvgl/src/extra/layouts/grid/../flex/../../../core/lv_obj_style_gen.h **** {
  27:Drivers/lvgl/src/extra/layouts/grid/../flex/../../../core/lv_obj_style_gen.h ****     lv_style_value_t v = lv_obj_get_style_prop(obj, part, LV_STYLE_MIN_HEIGHT);
  28:Drivers/lvgl/src/extra/layouts/grid/../flex/../../../core/lv_obj_style_gen.h ****     return (lv_coord_t)v.num;
  29:Drivers/lvgl/src/extra/layouts/grid/../flex/../../../core/lv_obj_style_gen.h **** }
  30:Drivers/lvgl/src/extra/layouts/grid/../flex/../../../core/lv_obj_style_gen.h **** 
ARM GAS  /var/folders/0z/tsy30v1j4xl4_7kw94k978ww0000gn/T//cclcOfIK.s 			page 33


  31:Drivers/lvgl/src/extra/layouts/grid/../flex/../../../core/lv_obj_style_gen.h **** static inline lv_coord_t lv_obj_get_style_max_height(const struct _lv_obj_t * obj, uint32_t part)
  32:Drivers/lvgl/src/extra/layouts/grid/../flex/../../../core/lv_obj_style_gen.h **** {
  33:Drivers/lvgl/src/extra/layouts/grid/../flex/../../../core/lv_obj_style_gen.h ****     lv_style_value_t v = lv_obj_get_style_prop(obj, part, LV_STYLE_MAX_HEIGHT);
  34:Drivers/lvgl/src/extra/layouts/grid/../flex/../../../core/lv_obj_style_gen.h ****     return (lv_coord_t)v.num;
  35:Drivers/lvgl/src/extra/layouts/grid/../flex/../../../core/lv_obj_style_gen.h **** }
  36:Drivers/lvgl/src/extra/layouts/grid/../flex/../../../core/lv_obj_style_gen.h **** 
  37:Drivers/lvgl/src/extra/layouts/grid/../flex/../../../core/lv_obj_style_gen.h **** static inline lv_coord_t lv_obj_get_style_x(const struct _lv_obj_t * obj, uint32_t part)
  38:Drivers/lvgl/src/extra/layouts/grid/../flex/../../../core/lv_obj_style_gen.h **** {
  39:Drivers/lvgl/src/extra/layouts/grid/../flex/../../../core/lv_obj_style_gen.h ****     lv_style_value_t v = lv_obj_get_style_prop(obj, part, LV_STYLE_X);
  40:Drivers/lvgl/src/extra/layouts/grid/../flex/../../../core/lv_obj_style_gen.h ****     return (lv_coord_t)v.num;
  41:Drivers/lvgl/src/extra/layouts/grid/../flex/../../../core/lv_obj_style_gen.h **** }
  42:Drivers/lvgl/src/extra/layouts/grid/../flex/../../../core/lv_obj_style_gen.h **** 
  43:Drivers/lvgl/src/extra/layouts/grid/../flex/../../../core/lv_obj_style_gen.h **** static inline lv_coord_t lv_obj_get_style_y(const struct _lv_obj_t * obj, uint32_t part)
  44:Drivers/lvgl/src/extra/layouts/grid/../flex/../../../core/lv_obj_style_gen.h **** {
  45:Drivers/lvgl/src/extra/layouts/grid/../flex/../../../core/lv_obj_style_gen.h ****     lv_style_value_t v = lv_obj_get_style_prop(obj, part, LV_STYLE_Y);
  46:Drivers/lvgl/src/extra/layouts/grid/../flex/../../../core/lv_obj_style_gen.h ****     return (lv_coord_t)v.num;
  47:Drivers/lvgl/src/extra/layouts/grid/../flex/../../../core/lv_obj_style_gen.h **** }
  48:Drivers/lvgl/src/extra/layouts/grid/../flex/../../../core/lv_obj_style_gen.h **** 
  49:Drivers/lvgl/src/extra/layouts/grid/../flex/../../../core/lv_obj_style_gen.h **** static inline lv_align_t lv_obj_get_style_align(const struct _lv_obj_t * obj, uint32_t part)
  50:Drivers/lvgl/src/extra/layouts/grid/../flex/../../../core/lv_obj_style_gen.h **** {
  51:Drivers/lvgl/src/extra/layouts/grid/../flex/../../../core/lv_obj_style_gen.h ****     lv_style_value_t v = lv_obj_get_style_prop(obj, part, LV_STYLE_ALIGN);
  52:Drivers/lvgl/src/extra/layouts/grid/../flex/../../../core/lv_obj_style_gen.h ****     return (lv_align_t)v.num;
  53:Drivers/lvgl/src/extra/layouts/grid/../flex/../../../core/lv_obj_style_gen.h **** }
  54:Drivers/lvgl/src/extra/layouts/grid/../flex/../../../core/lv_obj_style_gen.h **** 
  55:Drivers/lvgl/src/extra/layouts/grid/../flex/../../../core/lv_obj_style_gen.h **** static inline lv_coord_t lv_obj_get_style_transform_width(const struct _lv_obj_t * obj, uint32_t pa
  56:Drivers/lvgl/src/extra/layouts/grid/../flex/../../../core/lv_obj_style_gen.h **** {
  57:Drivers/lvgl/src/extra/layouts/grid/../flex/../../../core/lv_obj_style_gen.h ****     lv_style_value_t v = lv_obj_get_style_prop(obj, part, LV_STYLE_TRANSFORM_WIDTH);
  58:Drivers/lvgl/src/extra/layouts/grid/../flex/../../../core/lv_obj_style_gen.h ****     return (lv_coord_t)v.num;
  59:Drivers/lvgl/src/extra/layouts/grid/../flex/../../../core/lv_obj_style_gen.h **** }
  60:Drivers/lvgl/src/extra/layouts/grid/../flex/../../../core/lv_obj_style_gen.h **** 
  61:Drivers/lvgl/src/extra/layouts/grid/../flex/../../../core/lv_obj_style_gen.h **** static inline lv_coord_t lv_obj_get_style_transform_height(const struct _lv_obj_t * obj, uint32_t p
  62:Drivers/lvgl/src/extra/layouts/grid/../flex/../../../core/lv_obj_style_gen.h **** {
  63:Drivers/lvgl/src/extra/layouts/grid/../flex/../../../core/lv_obj_style_gen.h ****     lv_style_value_t v = lv_obj_get_style_prop(obj, part, LV_STYLE_TRANSFORM_HEIGHT);
  64:Drivers/lvgl/src/extra/layouts/grid/../flex/../../../core/lv_obj_style_gen.h ****     return (lv_coord_t)v.num;
  65:Drivers/lvgl/src/extra/layouts/grid/../flex/../../../core/lv_obj_style_gen.h **** }
  66:Drivers/lvgl/src/extra/layouts/grid/../flex/../../../core/lv_obj_style_gen.h **** 
  67:Drivers/lvgl/src/extra/layouts/grid/../flex/../../../core/lv_obj_style_gen.h **** static inline lv_coord_t lv_obj_get_style_translate_x(const struct _lv_obj_t * obj, uint32_t part)
  68:Drivers/lvgl/src/extra/layouts/grid/../flex/../../../core/lv_obj_style_gen.h **** {
  69:Drivers/lvgl/src/extra/layouts/grid/../flex/../../../core/lv_obj_style_gen.h ****     lv_style_value_t v = lv_obj_get_style_prop(obj, part, LV_STYLE_TRANSLATE_X);
  70:Drivers/lvgl/src/extra/layouts/grid/../flex/../../../core/lv_obj_style_gen.h ****     return (lv_coord_t)v.num;
  71:Drivers/lvgl/src/extra/layouts/grid/../flex/../../../core/lv_obj_style_gen.h **** }
  72:Drivers/lvgl/src/extra/layouts/grid/../flex/../../../core/lv_obj_style_gen.h **** 
  73:Drivers/lvgl/src/extra/layouts/grid/../flex/../../../core/lv_obj_style_gen.h **** static inline lv_coord_t lv_obj_get_style_translate_y(const struct _lv_obj_t * obj, uint32_t part)
  74:Drivers/lvgl/src/extra/layouts/grid/../flex/../../../core/lv_obj_style_gen.h **** {
  75:Drivers/lvgl/src/extra/layouts/grid/../flex/../../../core/lv_obj_style_gen.h ****     lv_style_value_t v = lv_obj_get_style_prop(obj, part, LV_STYLE_TRANSLATE_Y);
  76:Drivers/lvgl/src/extra/layouts/grid/../flex/../../../core/lv_obj_style_gen.h ****     return (lv_coord_t)v.num;
  77:Drivers/lvgl/src/extra/layouts/grid/../flex/../../../core/lv_obj_style_gen.h **** }
  78:Drivers/lvgl/src/extra/layouts/grid/../flex/../../../core/lv_obj_style_gen.h **** 
  79:Drivers/lvgl/src/extra/layouts/grid/../flex/../../../core/lv_obj_style_gen.h **** static inline lv_coord_t lv_obj_get_style_transform_zoom(const struct _lv_obj_t * obj, uint32_t par
  80:Drivers/lvgl/src/extra/layouts/grid/../flex/../../../core/lv_obj_style_gen.h **** {
  81:Drivers/lvgl/src/extra/layouts/grid/../flex/../../../core/lv_obj_style_gen.h ****     lv_style_value_t v = lv_obj_get_style_prop(obj, part, LV_STYLE_TRANSFORM_ZOOM);
  82:Drivers/lvgl/src/extra/layouts/grid/../flex/../../../core/lv_obj_style_gen.h ****     return (lv_coord_t)v.num;
  83:Drivers/lvgl/src/extra/layouts/grid/../flex/../../../core/lv_obj_style_gen.h **** }
  84:Drivers/lvgl/src/extra/layouts/grid/../flex/../../../core/lv_obj_style_gen.h **** 
  85:Drivers/lvgl/src/extra/layouts/grid/../flex/../../../core/lv_obj_style_gen.h **** static inline lv_coord_t lv_obj_get_style_transform_angle(const struct _lv_obj_t * obj, uint32_t pa
  86:Drivers/lvgl/src/extra/layouts/grid/../flex/../../../core/lv_obj_style_gen.h **** {
  87:Drivers/lvgl/src/extra/layouts/grid/../flex/../../../core/lv_obj_style_gen.h ****     lv_style_value_t v = lv_obj_get_style_prop(obj, part, LV_STYLE_TRANSFORM_ANGLE);
ARM GAS  /var/folders/0z/tsy30v1j4xl4_7kw94k978ww0000gn/T//cclcOfIK.s 			page 34


  88:Drivers/lvgl/src/extra/layouts/grid/../flex/../../../core/lv_obj_style_gen.h ****     return (lv_coord_t)v.num;
  89:Drivers/lvgl/src/extra/layouts/grid/../flex/../../../core/lv_obj_style_gen.h **** }
  90:Drivers/lvgl/src/extra/layouts/grid/../flex/../../../core/lv_obj_style_gen.h **** 
  91:Drivers/lvgl/src/extra/layouts/grid/../flex/../../../core/lv_obj_style_gen.h **** static inline lv_coord_t lv_obj_get_style_transform_pivot_x(const struct _lv_obj_t * obj, uint32_t 
  92:Drivers/lvgl/src/extra/layouts/grid/../flex/../../../core/lv_obj_style_gen.h **** {
  93:Drivers/lvgl/src/extra/layouts/grid/../flex/../../../core/lv_obj_style_gen.h ****     lv_style_value_t v = lv_obj_get_style_prop(obj, part, LV_STYLE_TRANSFORM_PIVOT_X);
  94:Drivers/lvgl/src/extra/layouts/grid/../flex/../../../core/lv_obj_style_gen.h ****     return (lv_coord_t)v.num;
  95:Drivers/lvgl/src/extra/layouts/grid/../flex/../../../core/lv_obj_style_gen.h **** }
  96:Drivers/lvgl/src/extra/layouts/grid/../flex/../../../core/lv_obj_style_gen.h **** 
  97:Drivers/lvgl/src/extra/layouts/grid/../flex/../../../core/lv_obj_style_gen.h **** static inline lv_coord_t lv_obj_get_style_transform_pivot_y(const struct _lv_obj_t * obj, uint32_t 
  98:Drivers/lvgl/src/extra/layouts/grid/../flex/../../../core/lv_obj_style_gen.h **** {
  99:Drivers/lvgl/src/extra/layouts/grid/../flex/../../../core/lv_obj_style_gen.h ****     lv_style_value_t v = lv_obj_get_style_prop(obj, part, LV_STYLE_TRANSFORM_PIVOT_Y);
 100:Drivers/lvgl/src/extra/layouts/grid/../flex/../../../core/lv_obj_style_gen.h ****     return (lv_coord_t)v.num;
 101:Drivers/lvgl/src/extra/layouts/grid/../flex/../../../core/lv_obj_style_gen.h **** }
 102:Drivers/lvgl/src/extra/layouts/grid/../flex/../../../core/lv_obj_style_gen.h **** 
 103:Drivers/lvgl/src/extra/layouts/grid/../flex/../../../core/lv_obj_style_gen.h **** static inline lv_coord_t lv_obj_get_style_pad_top(const struct _lv_obj_t * obj, uint32_t part)
 104:Drivers/lvgl/src/extra/layouts/grid/../flex/../../../core/lv_obj_style_gen.h **** {
 105:Drivers/lvgl/src/extra/layouts/grid/../flex/../../../core/lv_obj_style_gen.h ****     lv_style_value_t v = lv_obj_get_style_prop(obj, part, LV_STYLE_PAD_TOP);
 106:Drivers/lvgl/src/extra/layouts/grid/../flex/../../../core/lv_obj_style_gen.h ****     return (lv_coord_t)v.num;
 107:Drivers/lvgl/src/extra/layouts/grid/../flex/../../../core/lv_obj_style_gen.h **** }
 108:Drivers/lvgl/src/extra/layouts/grid/../flex/../../../core/lv_obj_style_gen.h **** 
 109:Drivers/lvgl/src/extra/layouts/grid/../flex/../../../core/lv_obj_style_gen.h **** static inline lv_coord_t lv_obj_get_style_pad_bottom(const struct _lv_obj_t * obj, uint32_t part)
 110:Drivers/lvgl/src/extra/layouts/grid/../flex/../../../core/lv_obj_style_gen.h **** {
 111:Drivers/lvgl/src/extra/layouts/grid/../flex/../../../core/lv_obj_style_gen.h ****     lv_style_value_t v = lv_obj_get_style_prop(obj, part, LV_STYLE_PAD_BOTTOM);
 112:Drivers/lvgl/src/extra/layouts/grid/../flex/../../../core/lv_obj_style_gen.h ****     return (lv_coord_t)v.num;
 113:Drivers/lvgl/src/extra/layouts/grid/../flex/../../../core/lv_obj_style_gen.h **** }
 114:Drivers/lvgl/src/extra/layouts/grid/../flex/../../../core/lv_obj_style_gen.h **** 
 115:Drivers/lvgl/src/extra/layouts/grid/../flex/../../../core/lv_obj_style_gen.h **** static inline lv_coord_t lv_obj_get_style_pad_left(const struct _lv_obj_t * obj, uint32_t part)
 116:Drivers/lvgl/src/extra/layouts/grid/../flex/../../../core/lv_obj_style_gen.h **** {
 117:Drivers/lvgl/src/extra/layouts/grid/../flex/../../../core/lv_obj_style_gen.h ****     lv_style_value_t v = lv_obj_get_style_prop(obj, part, LV_STYLE_PAD_LEFT);
 118:Drivers/lvgl/src/extra/layouts/grid/../flex/../../../core/lv_obj_style_gen.h ****     return (lv_coord_t)v.num;
 119:Drivers/lvgl/src/extra/layouts/grid/../flex/../../../core/lv_obj_style_gen.h **** }
 120:Drivers/lvgl/src/extra/layouts/grid/../flex/../../../core/lv_obj_style_gen.h **** 
 121:Drivers/lvgl/src/extra/layouts/grid/../flex/../../../core/lv_obj_style_gen.h **** static inline lv_coord_t lv_obj_get_style_pad_right(const struct _lv_obj_t * obj, uint32_t part)
 122:Drivers/lvgl/src/extra/layouts/grid/../flex/../../../core/lv_obj_style_gen.h **** {
 123:Drivers/lvgl/src/extra/layouts/grid/../flex/../../../core/lv_obj_style_gen.h ****     lv_style_value_t v = lv_obj_get_style_prop(obj, part, LV_STYLE_PAD_RIGHT);
 124:Drivers/lvgl/src/extra/layouts/grid/../flex/../../../core/lv_obj_style_gen.h ****     return (lv_coord_t)v.num;
 125:Drivers/lvgl/src/extra/layouts/grid/../flex/../../../core/lv_obj_style_gen.h **** }
 126:Drivers/lvgl/src/extra/layouts/grid/../flex/../../../core/lv_obj_style_gen.h **** 
 127:Drivers/lvgl/src/extra/layouts/grid/../flex/../../../core/lv_obj_style_gen.h **** static inline lv_coord_t lv_obj_get_style_pad_row(const struct _lv_obj_t * obj, uint32_t part)
 128:Drivers/lvgl/src/extra/layouts/grid/../flex/../../../core/lv_obj_style_gen.h **** {
 129:Drivers/lvgl/src/extra/layouts/grid/../flex/../../../core/lv_obj_style_gen.h ****     lv_style_value_t v = lv_obj_get_style_prop(obj, part, LV_STYLE_PAD_ROW);
 130:Drivers/lvgl/src/extra/layouts/grid/../flex/../../../core/lv_obj_style_gen.h ****     return (lv_coord_t)v.num;
 131:Drivers/lvgl/src/extra/layouts/grid/../flex/../../../core/lv_obj_style_gen.h **** }
 132:Drivers/lvgl/src/extra/layouts/grid/../flex/../../../core/lv_obj_style_gen.h **** 
 133:Drivers/lvgl/src/extra/layouts/grid/../flex/../../../core/lv_obj_style_gen.h **** static inline lv_coord_t lv_obj_get_style_pad_column(const struct _lv_obj_t * obj, uint32_t part)
 134:Drivers/lvgl/src/extra/layouts/grid/../flex/../../../core/lv_obj_style_gen.h **** {
 135:Drivers/lvgl/src/extra/layouts/grid/../flex/../../../core/lv_obj_style_gen.h ****     lv_style_value_t v = lv_obj_get_style_prop(obj, part, LV_STYLE_PAD_COLUMN);
 136:Drivers/lvgl/src/extra/layouts/grid/../flex/../../../core/lv_obj_style_gen.h ****     return (lv_coord_t)v.num;
 137:Drivers/lvgl/src/extra/layouts/grid/../flex/../../../core/lv_obj_style_gen.h **** }
 138:Drivers/lvgl/src/extra/layouts/grid/../flex/../../../core/lv_obj_style_gen.h **** 
 139:Drivers/lvgl/src/extra/layouts/grid/../flex/../../../core/lv_obj_style_gen.h **** static inline lv_color_t lv_obj_get_style_bg_color(const struct _lv_obj_t * obj, uint32_t part)
 140:Drivers/lvgl/src/extra/layouts/grid/../flex/../../../core/lv_obj_style_gen.h **** {
 141:Drivers/lvgl/src/extra/layouts/grid/../flex/../../../core/lv_obj_style_gen.h ****     lv_style_value_t v = lv_obj_get_style_prop(obj, part, LV_STYLE_BG_COLOR);
 142:Drivers/lvgl/src/extra/layouts/grid/../flex/../../../core/lv_obj_style_gen.h ****     return v.color;
 143:Drivers/lvgl/src/extra/layouts/grid/../flex/../../../core/lv_obj_style_gen.h **** }
 144:Drivers/lvgl/src/extra/layouts/grid/../flex/../../../core/lv_obj_style_gen.h **** 
ARM GAS  /var/folders/0z/tsy30v1j4xl4_7kw94k978ww0000gn/T//cclcOfIK.s 			page 35


 145:Drivers/lvgl/src/extra/layouts/grid/../flex/../../../core/lv_obj_style_gen.h **** static inline lv_color_t lv_obj_get_style_bg_color_filtered(const struct _lv_obj_t * obj, uint32_t 
 146:Drivers/lvgl/src/extra/layouts/grid/../flex/../../../core/lv_obj_style_gen.h **** {
 147:Drivers/lvgl/src/extra/layouts/grid/../flex/../../../core/lv_obj_style_gen.h ****     lv_style_value_t v = _lv_obj_style_apply_color_filter(obj, part, lv_obj_get_style_prop(obj, par
 148:Drivers/lvgl/src/extra/layouts/grid/../flex/../../../core/lv_obj_style_gen.h ****     return v.color;
 149:Drivers/lvgl/src/extra/layouts/grid/../flex/../../../core/lv_obj_style_gen.h **** }
 150:Drivers/lvgl/src/extra/layouts/grid/../flex/../../../core/lv_obj_style_gen.h **** 
 151:Drivers/lvgl/src/extra/layouts/grid/../flex/../../../core/lv_obj_style_gen.h **** static inline lv_opa_t lv_obj_get_style_bg_opa(const struct _lv_obj_t * obj, uint32_t part)
 152:Drivers/lvgl/src/extra/layouts/grid/../flex/../../../core/lv_obj_style_gen.h **** {
 153:Drivers/lvgl/src/extra/layouts/grid/../flex/../../../core/lv_obj_style_gen.h ****     lv_style_value_t v = lv_obj_get_style_prop(obj, part, LV_STYLE_BG_OPA);
 154:Drivers/lvgl/src/extra/layouts/grid/../flex/../../../core/lv_obj_style_gen.h ****     return (lv_opa_t)v.num;
 155:Drivers/lvgl/src/extra/layouts/grid/../flex/../../../core/lv_obj_style_gen.h **** }
 156:Drivers/lvgl/src/extra/layouts/grid/../flex/../../../core/lv_obj_style_gen.h **** 
 157:Drivers/lvgl/src/extra/layouts/grid/../flex/../../../core/lv_obj_style_gen.h **** static inline lv_color_t lv_obj_get_style_bg_grad_color(const struct _lv_obj_t * obj, uint32_t part
 158:Drivers/lvgl/src/extra/layouts/grid/../flex/../../../core/lv_obj_style_gen.h **** {
 159:Drivers/lvgl/src/extra/layouts/grid/../flex/../../../core/lv_obj_style_gen.h ****     lv_style_value_t v = lv_obj_get_style_prop(obj, part, LV_STYLE_BG_GRAD_COLOR);
 160:Drivers/lvgl/src/extra/layouts/grid/../flex/../../../core/lv_obj_style_gen.h ****     return v.color;
 161:Drivers/lvgl/src/extra/layouts/grid/../flex/../../../core/lv_obj_style_gen.h **** }
 162:Drivers/lvgl/src/extra/layouts/grid/../flex/../../../core/lv_obj_style_gen.h **** 
 163:Drivers/lvgl/src/extra/layouts/grid/../flex/../../../core/lv_obj_style_gen.h **** static inline lv_color_t lv_obj_get_style_bg_grad_color_filtered(const struct _lv_obj_t * obj, uint
 164:Drivers/lvgl/src/extra/layouts/grid/../flex/../../../core/lv_obj_style_gen.h **** {
 165:Drivers/lvgl/src/extra/layouts/grid/../flex/../../../core/lv_obj_style_gen.h ****     lv_style_value_t v = _lv_obj_style_apply_color_filter(obj, part, lv_obj_get_style_prop(obj, par
 166:Drivers/lvgl/src/extra/layouts/grid/../flex/../../../core/lv_obj_style_gen.h ****     return v.color;
 167:Drivers/lvgl/src/extra/layouts/grid/../flex/../../../core/lv_obj_style_gen.h **** }
 168:Drivers/lvgl/src/extra/layouts/grid/../flex/../../../core/lv_obj_style_gen.h **** 
 169:Drivers/lvgl/src/extra/layouts/grid/../flex/../../../core/lv_obj_style_gen.h **** static inline lv_grad_dir_t lv_obj_get_style_bg_grad_dir(const struct _lv_obj_t * obj, uint32_t par
 170:Drivers/lvgl/src/extra/layouts/grid/../flex/../../../core/lv_obj_style_gen.h **** {
 171:Drivers/lvgl/src/extra/layouts/grid/../flex/../../../core/lv_obj_style_gen.h ****     lv_style_value_t v = lv_obj_get_style_prop(obj, part, LV_STYLE_BG_GRAD_DIR);
 172:Drivers/lvgl/src/extra/layouts/grid/../flex/../../../core/lv_obj_style_gen.h ****     return (lv_grad_dir_t)v.num;
 173:Drivers/lvgl/src/extra/layouts/grid/../flex/../../../core/lv_obj_style_gen.h **** }
 174:Drivers/lvgl/src/extra/layouts/grid/../flex/../../../core/lv_obj_style_gen.h **** 
 175:Drivers/lvgl/src/extra/layouts/grid/../flex/../../../core/lv_obj_style_gen.h **** static inline lv_coord_t lv_obj_get_style_bg_main_stop(const struct _lv_obj_t * obj, uint32_t part)
 176:Drivers/lvgl/src/extra/layouts/grid/../flex/../../../core/lv_obj_style_gen.h **** {
 177:Drivers/lvgl/src/extra/layouts/grid/../flex/../../../core/lv_obj_style_gen.h ****     lv_style_value_t v = lv_obj_get_style_prop(obj, part, LV_STYLE_BG_MAIN_STOP);
 178:Drivers/lvgl/src/extra/layouts/grid/../flex/../../../core/lv_obj_style_gen.h ****     return (lv_coord_t)v.num;
 179:Drivers/lvgl/src/extra/layouts/grid/../flex/../../../core/lv_obj_style_gen.h **** }
 180:Drivers/lvgl/src/extra/layouts/grid/../flex/../../../core/lv_obj_style_gen.h **** 
 181:Drivers/lvgl/src/extra/layouts/grid/../flex/../../../core/lv_obj_style_gen.h **** static inline lv_coord_t lv_obj_get_style_bg_grad_stop(const struct _lv_obj_t * obj, uint32_t part)
 182:Drivers/lvgl/src/extra/layouts/grid/../flex/../../../core/lv_obj_style_gen.h **** {
 183:Drivers/lvgl/src/extra/layouts/grid/../flex/../../../core/lv_obj_style_gen.h ****     lv_style_value_t v = lv_obj_get_style_prop(obj, part, LV_STYLE_BG_GRAD_STOP);
 184:Drivers/lvgl/src/extra/layouts/grid/../flex/../../../core/lv_obj_style_gen.h ****     return (lv_coord_t)v.num;
 185:Drivers/lvgl/src/extra/layouts/grid/../flex/../../../core/lv_obj_style_gen.h **** }
 186:Drivers/lvgl/src/extra/layouts/grid/../flex/../../../core/lv_obj_style_gen.h **** 
 187:Drivers/lvgl/src/extra/layouts/grid/../flex/../../../core/lv_obj_style_gen.h **** static inline const lv_grad_dsc_t * lv_obj_get_style_bg_grad(const struct _lv_obj_t * obj, uint32_t
 188:Drivers/lvgl/src/extra/layouts/grid/../flex/../../../core/lv_obj_style_gen.h **** {
 189:Drivers/lvgl/src/extra/layouts/grid/../flex/../../../core/lv_obj_style_gen.h ****     lv_style_value_t v = lv_obj_get_style_prop(obj, part, LV_STYLE_BG_GRAD);
 190:Drivers/lvgl/src/extra/layouts/grid/../flex/../../../core/lv_obj_style_gen.h ****     return (const lv_grad_dsc_t *)v.ptr;
 191:Drivers/lvgl/src/extra/layouts/grid/../flex/../../../core/lv_obj_style_gen.h **** }
 192:Drivers/lvgl/src/extra/layouts/grid/../flex/../../../core/lv_obj_style_gen.h **** 
 193:Drivers/lvgl/src/extra/layouts/grid/../flex/../../../core/lv_obj_style_gen.h **** static inline lv_dither_mode_t lv_obj_get_style_bg_dither_mode(const struct _lv_obj_t * obj, uint32
 194:Drivers/lvgl/src/extra/layouts/grid/../flex/../../../core/lv_obj_style_gen.h **** {
 195:Drivers/lvgl/src/extra/layouts/grid/../flex/../../../core/lv_obj_style_gen.h ****     lv_style_value_t v = lv_obj_get_style_prop(obj, part, LV_STYLE_BG_DITHER_MODE);
 196:Drivers/lvgl/src/extra/layouts/grid/../flex/../../../core/lv_obj_style_gen.h ****     return (lv_dither_mode_t)v.num;
 197:Drivers/lvgl/src/extra/layouts/grid/../flex/../../../core/lv_obj_style_gen.h **** }
 198:Drivers/lvgl/src/extra/layouts/grid/../flex/../../../core/lv_obj_style_gen.h **** 
 199:Drivers/lvgl/src/extra/layouts/grid/../flex/../../../core/lv_obj_style_gen.h **** static inline const void * lv_obj_get_style_bg_img_src(const struct _lv_obj_t * obj, uint32_t part)
 200:Drivers/lvgl/src/extra/layouts/grid/../flex/../../../core/lv_obj_style_gen.h **** {
 201:Drivers/lvgl/src/extra/layouts/grid/../flex/../../../core/lv_obj_style_gen.h ****     lv_style_value_t v = lv_obj_get_style_prop(obj, part, LV_STYLE_BG_IMG_SRC);
ARM GAS  /var/folders/0z/tsy30v1j4xl4_7kw94k978ww0000gn/T//cclcOfIK.s 			page 36


 202:Drivers/lvgl/src/extra/layouts/grid/../flex/../../../core/lv_obj_style_gen.h ****     return (const void *)v.ptr;
 203:Drivers/lvgl/src/extra/layouts/grid/../flex/../../../core/lv_obj_style_gen.h **** }
 204:Drivers/lvgl/src/extra/layouts/grid/../flex/../../../core/lv_obj_style_gen.h **** 
 205:Drivers/lvgl/src/extra/layouts/grid/../flex/../../../core/lv_obj_style_gen.h **** static inline lv_opa_t lv_obj_get_style_bg_img_opa(const struct _lv_obj_t * obj, uint32_t part)
 206:Drivers/lvgl/src/extra/layouts/grid/../flex/../../../core/lv_obj_style_gen.h **** {
 207:Drivers/lvgl/src/extra/layouts/grid/../flex/../../../core/lv_obj_style_gen.h ****     lv_style_value_t v = lv_obj_get_style_prop(obj, part, LV_STYLE_BG_IMG_OPA);
 208:Drivers/lvgl/src/extra/layouts/grid/../flex/../../../core/lv_obj_style_gen.h ****     return (lv_opa_t)v.num;
 209:Drivers/lvgl/src/extra/layouts/grid/../flex/../../../core/lv_obj_style_gen.h **** }
 210:Drivers/lvgl/src/extra/layouts/grid/../flex/../../../core/lv_obj_style_gen.h **** 
 211:Drivers/lvgl/src/extra/layouts/grid/../flex/../../../core/lv_obj_style_gen.h **** static inline lv_color_t lv_obj_get_style_bg_img_recolor(const struct _lv_obj_t * obj, uint32_t par
 212:Drivers/lvgl/src/extra/layouts/grid/../flex/../../../core/lv_obj_style_gen.h **** {
 213:Drivers/lvgl/src/extra/layouts/grid/../flex/../../../core/lv_obj_style_gen.h ****     lv_style_value_t v = lv_obj_get_style_prop(obj, part, LV_STYLE_BG_IMG_RECOLOR);
 214:Drivers/lvgl/src/extra/layouts/grid/../flex/../../../core/lv_obj_style_gen.h ****     return v.color;
 215:Drivers/lvgl/src/extra/layouts/grid/../flex/../../../core/lv_obj_style_gen.h **** }
 216:Drivers/lvgl/src/extra/layouts/grid/../flex/../../../core/lv_obj_style_gen.h **** 
 217:Drivers/lvgl/src/extra/layouts/grid/../flex/../../../core/lv_obj_style_gen.h **** static inline lv_color_t lv_obj_get_style_bg_img_recolor_filtered(const struct _lv_obj_t * obj, uin
 218:Drivers/lvgl/src/extra/layouts/grid/../flex/../../../core/lv_obj_style_gen.h **** {
 219:Drivers/lvgl/src/extra/layouts/grid/../flex/../../../core/lv_obj_style_gen.h ****     lv_style_value_t v = _lv_obj_style_apply_color_filter(obj, part, lv_obj_get_style_prop(obj, par
 220:Drivers/lvgl/src/extra/layouts/grid/../flex/../../../core/lv_obj_style_gen.h ****     return v.color;
 221:Drivers/lvgl/src/extra/layouts/grid/../flex/../../../core/lv_obj_style_gen.h **** }
 222:Drivers/lvgl/src/extra/layouts/grid/../flex/../../../core/lv_obj_style_gen.h **** 
 223:Drivers/lvgl/src/extra/layouts/grid/../flex/../../../core/lv_obj_style_gen.h **** static inline lv_opa_t lv_obj_get_style_bg_img_recolor_opa(const struct _lv_obj_t * obj, uint32_t p
 224:Drivers/lvgl/src/extra/layouts/grid/../flex/../../../core/lv_obj_style_gen.h **** {
 225:Drivers/lvgl/src/extra/layouts/grid/../flex/../../../core/lv_obj_style_gen.h ****     lv_style_value_t v = lv_obj_get_style_prop(obj, part, LV_STYLE_BG_IMG_RECOLOR_OPA);
 226:Drivers/lvgl/src/extra/layouts/grid/../flex/../../../core/lv_obj_style_gen.h ****     return (lv_opa_t)v.num;
 227:Drivers/lvgl/src/extra/layouts/grid/../flex/../../../core/lv_obj_style_gen.h **** }
 228:Drivers/lvgl/src/extra/layouts/grid/../flex/../../../core/lv_obj_style_gen.h **** 
 229:Drivers/lvgl/src/extra/layouts/grid/../flex/../../../core/lv_obj_style_gen.h **** static inline bool lv_obj_get_style_bg_img_tiled(const struct _lv_obj_t * obj, uint32_t part)
 230:Drivers/lvgl/src/extra/layouts/grid/../flex/../../../core/lv_obj_style_gen.h **** {
 231:Drivers/lvgl/src/extra/layouts/grid/../flex/../../../core/lv_obj_style_gen.h ****     lv_style_value_t v = lv_obj_get_style_prop(obj, part, LV_STYLE_BG_IMG_TILED);
 232:Drivers/lvgl/src/extra/layouts/grid/../flex/../../../core/lv_obj_style_gen.h ****     return (bool)v.num;
 233:Drivers/lvgl/src/extra/layouts/grid/../flex/../../../core/lv_obj_style_gen.h **** }
 234:Drivers/lvgl/src/extra/layouts/grid/../flex/../../../core/lv_obj_style_gen.h **** 
 235:Drivers/lvgl/src/extra/layouts/grid/../flex/../../../core/lv_obj_style_gen.h **** static inline lv_color_t lv_obj_get_style_border_color(const struct _lv_obj_t * obj, uint32_t part)
 236:Drivers/lvgl/src/extra/layouts/grid/../flex/../../../core/lv_obj_style_gen.h **** {
 237:Drivers/lvgl/src/extra/layouts/grid/../flex/../../../core/lv_obj_style_gen.h ****     lv_style_value_t v = lv_obj_get_style_prop(obj, part, LV_STYLE_BORDER_COLOR);
 238:Drivers/lvgl/src/extra/layouts/grid/../flex/../../../core/lv_obj_style_gen.h ****     return v.color;
 239:Drivers/lvgl/src/extra/layouts/grid/../flex/../../../core/lv_obj_style_gen.h **** }
 240:Drivers/lvgl/src/extra/layouts/grid/../flex/../../../core/lv_obj_style_gen.h **** 
 241:Drivers/lvgl/src/extra/layouts/grid/../flex/../../../core/lv_obj_style_gen.h **** static inline lv_color_t lv_obj_get_style_border_color_filtered(const struct _lv_obj_t * obj, uint3
 242:Drivers/lvgl/src/extra/layouts/grid/../flex/../../../core/lv_obj_style_gen.h **** {
 243:Drivers/lvgl/src/extra/layouts/grid/../flex/../../../core/lv_obj_style_gen.h ****     lv_style_value_t v = _lv_obj_style_apply_color_filter(obj, part, lv_obj_get_style_prop(obj, par
 244:Drivers/lvgl/src/extra/layouts/grid/../flex/../../../core/lv_obj_style_gen.h ****     return v.color;
 245:Drivers/lvgl/src/extra/layouts/grid/../flex/../../../core/lv_obj_style_gen.h **** }
 246:Drivers/lvgl/src/extra/layouts/grid/../flex/../../../core/lv_obj_style_gen.h **** 
 247:Drivers/lvgl/src/extra/layouts/grid/../flex/../../../core/lv_obj_style_gen.h **** static inline lv_opa_t lv_obj_get_style_border_opa(const struct _lv_obj_t * obj, uint32_t part)
 248:Drivers/lvgl/src/extra/layouts/grid/../flex/../../../core/lv_obj_style_gen.h **** {
 249:Drivers/lvgl/src/extra/layouts/grid/../flex/../../../core/lv_obj_style_gen.h ****     lv_style_value_t v = lv_obj_get_style_prop(obj, part, LV_STYLE_BORDER_OPA);
 250:Drivers/lvgl/src/extra/layouts/grid/../flex/../../../core/lv_obj_style_gen.h ****     return (lv_opa_t)v.num;
 251:Drivers/lvgl/src/extra/layouts/grid/../flex/../../../core/lv_obj_style_gen.h **** }
 252:Drivers/lvgl/src/extra/layouts/grid/../flex/../../../core/lv_obj_style_gen.h **** 
 253:Drivers/lvgl/src/extra/layouts/grid/../flex/../../../core/lv_obj_style_gen.h **** static inline lv_coord_t lv_obj_get_style_border_width(const struct _lv_obj_t * obj, uint32_t part)
 254:Drivers/lvgl/src/extra/layouts/grid/../flex/../../../core/lv_obj_style_gen.h **** {
 255:Drivers/lvgl/src/extra/layouts/grid/../flex/../../../core/lv_obj_style_gen.h ****     lv_style_value_t v = lv_obj_get_style_prop(obj, part, LV_STYLE_BORDER_WIDTH);
 256:Drivers/lvgl/src/extra/layouts/grid/../flex/../../../core/lv_obj_style_gen.h ****     return (lv_coord_t)v.num;
 257:Drivers/lvgl/src/extra/layouts/grid/../flex/../../../core/lv_obj_style_gen.h **** }
 258:Drivers/lvgl/src/extra/layouts/grid/../flex/../../../core/lv_obj_style_gen.h **** 
ARM GAS  /var/folders/0z/tsy30v1j4xl4_7kw94k978ww0000gn/T//cclcOfIK.s 			page 37


 259:Drivers/lvgl/src/extra/layouts/grid/../flex/../../../core/lv_obj_style_gen.h **** static inline lv_border_side_t lv_obj_get_style_border_side(const struct _lv_obj_t * obj, uint32_t 
 260:Drivers/lvgl/src/extra/layouts/grid/../flex/../../../core/lv_obj_style_gen.h **** {
 261:Drivers/lvgl/src/extra/layouts/grid/../flex/../../../core/lv_obj_style_gen.h ****     lv_style_value_t v = lv_obj_get_style_prop(obj, part, LV_STYLE_BORDER_SIDE);
 262:Drivers/lvgl/src/extra/layouts/grid/../flex/../../../core/lv_obj_style_gen.h ****     return (lv_border_side_t)v.num;
 263:Drivers/lvgl/src/extra/layouts/grid/../flex/../../../core/lv_obj_style_gen.h **** }
 264:Drivers/lvgl/src/extra/layouts/grid/../flex/../../../core/lv_obj_style_gen.h **** 
 265:Drivers/lvgl/src/extra/layouts/grid/../flex/../../../core/lv_obj_style_gen.h **** static inline bool lv_obj_get_style_border_post(const struct _lv_obj_t * obj, uint32_t part)
 266:Drivers/lvgl/src/extra/layouts/grid/../flex/../../../core/lv_obj_style_gen.h **** {
 267:Drivers/lvgl/src/extra/layouts/grid/../flex/../../../core/lv_obj_style_gen.h ****     lv_style_value_t v = lv_obj_get_style_prop(obj, part, LV_STYLE_BORDER_POST);
 268:Drivers/lvgl/src/extra/layouts/grid/../flex/../../../core/lv_obj_style_gen.h ****     return (bool)v.num;
 269:Drivers/lvgl/src/extra/layouts/grid/../flex/../../../core/lv_obj_style_gen.h **** }
 270:Drivers/lvgl/src/extra/layouts/grid/../flex/../../../core/lv_obj_style_gen.h **** 
 271:Drivers/lvgl/src/extra/layouts/grid/../flex/../../../core/lv_obj_style_gen.h **** static inline lv_coord_t lv_obj_get_style_outline_width(const struct _lv_obj_t * obj, uint32_t part
 272:Drivers/lvgl/src/extra/layouts/grid/../flex/../../../core/lv_obj_style_gen.h **** {
 273:Drivers/lvgl/src/extra/layouts/grid/../flex/../../../core/lv_obj_style_gen.h ****     lv_style_value_t v = lv_obj_get_style_prop(obj, part, LV_STYLE_OUTLINE_WIDTH);
 274:Drivers/lvgl/src/extra/layouts/grid/../flex/../../../core/lv_obj_style_gen.h ****     return (lv_coord_t)v.num;
 275:Drivers/lvgl/src/extra/layouts/grid/../flex/../../../core/lv_obj_style_gen.h **** }
 276:Drivers/lvgl/src/extra/layouts/grid/../flex/../../../core/lv_obj_style_gen.h **** 
 277:Drivers/lvgl/src/extra/layouts/grid/../flex/../../../core/lv_obj_style_gen.h **** static inline lv_color_t lv_obj_get_style_outline_color(const struct _lv_obj_t * obj, uint32_t part
 278:Drivers/lvgl/src/extra/layouts/grid/../flex/../../../core/lv_obj_style_gen.h **** {
 279:Drivers/lvgl/src/extra/layouts/grid/../flex/../../../core/lv_obj_style_gen.h ****     lv_style_value_t v = lv_obj_get_style_prop(obj, part, LV_STYLE_OUTLINE_COLOR);
 280:Drivers/lvgl/src/extra/layouts/grid/../flex/../../../core/lv_obj_style_gen.h ****     return v.color;
 281:Drivers/lvgl/src/extra/layouts/grid/../flex/../../../core/lv_obj_style_gen.h **** }
 282:Drivers/lvgl/src/extra/layouts/grid/../flex/../../../core/lv_obj_style_gen.h **** 
 283:Drivers/lvgl/src/extra/layouts/grid/../flex/../../../core/lv_obj_style_gen.h **** static inline lv_color_t lv_obj_get_style_outline_color_filtered(const struct _lv_obj_t * obj, uint
 284:Drivers/lvgl/src/extra/layouts/grid/../flex/../../../core/lv_obj_style_gen.h **** {
 285:Drivers/lvgl/src/extra/layouts/grid/../flex/../../../core/lv_obj_style_gen.h ****     lv_style_value_t v = _lv_obj_style_apply_color_filter(obj, part, lv_obj_get_style_prop(obj, par
 286:Drivers/lvgl/src/extra/layouts/grid/../flex/../../../core/lv_obj_style_gen.h ****     return v.color;
 287:Drivers/lvgl/src/extra/layouts/grid/../flex/../../../core/lv_obj_style_gen.h **** }
 288:Drivers/lvgl/src/extra/layouts/grid/../flex/../../../core/lv_obj_style_gen.h **** 
 289:Drivers/lvgl/src/extra/layouts/grid/../flex/../../../core/lv_obj_style_gen.h **** static inline lv_opa_t lv_obj_get_style_outline_opa(const struct _lv_obj_t * obj, uint32_t part)
 290:Drivers/lvgl/src/extra/layouts/grid/../flex/../../../core/lv_obj_style_gen.h **** {
 291:Drivers/lvgl/src/extra/layouts/grid/../flex/../../../core/lv_obj_style_gen.h ****     lv_style_value_t v = lv_obj_get_style_prop(obj, part, LV_STYLE_OUTLINE_OPA);
 292:Drivers/lvgl/src/extra/layouts/grid/../flex/../../../core/lv_obj_style_gen.h ****     return (lv_opa_t)v.num;
 293:Drivers/lvgl/src/extra/layouts/grid/../flex/../../../core/lv_obj_style_gen.h **** }
 294:Drivers/lvgl/src/extra/layouts/grid/../flex/../../../core/lv_obj_style_gen.h **** 
 295:Drivers/lvgl/src/extra/layouts/grid/../flex/../../../core/lv_obj_style_gen.h **** static inline lv_coord_t lv_obj_get_style_outline_pad(const struct _lv_obj_t * obj, uint32_t part)
 296:Drivers/lvgl/src/extra/layouts/grid/../flex/../../../core/lv_obj_style_gen.h **** {
 297:Drivers/lvgl/src/extra/layouts/grid/../flex/../../../core/lv_obj_style_gen.h ****     lv_style_value_t v = lv_obj_get_style_prop(obj, part, LV_STYLE_OUTLINE_PAD);
 298:Drivers/lvgl/src/extra/layouts/grid/../flex/../../../core/lv_obj_style_gen.h ****     return (lv_coord_t)v.num;
 299:Drivers/lvgl/src/extra/layouts/grid/../flex/../../../core/lv_obj_style_gen.h **** }
 300:Drivers/lvgl/src/extra/layouts/grid/../flex/../../../core/lv_obj_style_gen.h **** 
 301:Drivers/lvgl/src/extra/layouts/grid/../flex/../../../core/lv_obj_style_gen.h **** static inline lv_coord_t lv_obj_get_style_shadow_width(const struct _lv_obj_t * obj, uint32_t part)
 302:Drivers/lvgl/src/extra/layouts/grid/../flex/../../../core/lv_obj_style_gen.h **** {
 303:Drivers/lvgl/src/extra/layouts/grid/../flex/../../../core/lv_obj_style_gen.h ****     lv_style_value_t v = lv_obj_get_style_prop(obj, part, LV_STYLE_SHADOW_WIDTH);
 304:Drivers/lvgl/src/extra/layouts/grid/../flex/../../../core/lv_obj_style_gen.h ****     return (lv_coord_t)v.num;
 305:Drivers/lvgl/src/extra/layouts/grid/../flex/../../../core/lv_obj_style_gen.h **** }
 306:Drivers/lvgl/src/extra/layouts/grid/../flex/../../../core/lv_obj_style_gen.h **** 
 307:Drivers/lvgl/src/extra/layouts/grid/../flex/../../../core/lv_obj_style_gen.h **** static inline lv_coord_t lv_obj_get_style_shadow_ofs_x(const struct _lv_obj_t * obj, uint32_t part)
 308:Drivers/lvgl/src/extra/layouts/grid/../flex/../../../core/lv_obj_style_gen.h **** {
 309:Drivers/lvgl/src/extra/layouts/grid/../flex/../../../core/lv_obj_style_gen.h ****     lv_style_value_t v = lv_obj_get_style_prop(obj, part, LV_STYLE_SHADOW_OFS_X);
 310:Drivers/lvgl/src/extra/layouts/grid/../flex/../../../core/lv_obj_style_gen.h ****     return (lv_coord_t)v.num;
 311:Drivers/lvgl/src/extra/layouts/grid/../flex/../../../core/lv_obj_style_gen.h **** }
 312:Drivers/lvgl/src/extra/layouts/grid/../flex/../../../core/lv_obj_style_gen.h **** 
 313:Drivers/lvgl/src/extra/layouts/grid/../flex/../../../core/lv_obj_style_gen.h **** static inline lv_coord_t lv_obj_get_style_shadow_ofs_y(const struct _lv_obj_t * obj, uint32_t part)
 314:Drivers/lvgl/src/extra/layouts/grid/../flex/../../../core/lv_obj_style_gen.h **** {
 315:Drivers/lvgl/src/extra/layouts/grid/../flex/../../../core/lv_obj_style_gen.h ****     lv_style_value_t v = lv_obj_get_style_prop(obj, part, LV_STYLE_SHADOW_OFS_Y);
ARM GAS  /var/folders/0z/tsy30v1j4xl4_7kw94k978ww0000gn/T//cclcOfIK.s 			page 38


 316:Drivers/lvgl/src/extra/layouts/grid/../flex/../../../core/lv_obj_style_gen.h ****     return (lv_coord_t)v.num;
 317:Drivers/lvgl/src/extra/layouts/grid/../flex/../../../core/lv_obj_style_gen.h **** }
 318:Drivers/lvgl/src/extra/layouts/grid/../flex/../../../core/lv_obj_style_gen.h **** 
 319:Drivers/lvgl/src/extra/layouts/grid/../flex/../../../core/lv_obj_style_gen.h **** static inline lv_coord_t lv_obj_get_style_shadow_spread(const struct _lv_obj_t * obj, uint32_t part
 320:Drivers/lvgl/src/extra/layouts/grid/../flex/../../../core/lv_obj_style_gen.h **** {
 321:Drivers/lvgl/src/extra/layouts/grid/../flex/../../../core/lv_obj_style_gen.h ****     lv_style_value_t v = lv_obj_get_style_prop(obj, part, LV_STYLE_SHADOW_SPREAD);
 322:Drivers/lvgl/src/extra/layouts/grid/../flex/../../../core/lv_obj_style_gen.h ****     return (lv_coord_t)v.num;
 323:Drivers/lvgl/src/extra/layouts/grid/../flex/../../../core/lv_obj_style_gen.h **** }
 324:Drivers/lvgl/src/extra/layouts/grid/../flex/../../../core/lv_obj_style_gen.h **** 
 325:Drivers/lvgl/src/extra/layouts/grid/../flex/../../../core/lv_obj_style_gen.h **** static inline lv_color_t lv_obj_get_style_shadow_color(const struct _lv_obj_t * obj, uint32_t part)
 326:Drivers/lvgl/src/extra/layouts/grid/../flex/../../../core/lv_obj_style_gen.h **** {
 327:Drivers/lvgl/src/extra/layouts/grid/../flex/../../../core/lv_obj_style_gen.h ****     lv_style_value_t v = lv_obj_get_style_prop(obj, part, LV_STYLE_SHADOW_COLOR);
 328:Drivers/lvgl/src/extra/layouts/grid/../flex/../../../core/lv_obj_style_gen.h ****     return v.color;
 329:Drivers/lvgl/src/extra/layouts/grid/../flex/../../../core/lv_obj_style_gen.h **** }
 330:Drivers/lvgl/src/extra/layouts/grid/../flex/../../../core/lv_obj_style_gen.h **** 
 331:Drivers/lvgl/src/extra/layouts/grid/../flex/../../../core/lv_obj_style_gen.h **** static inline lv_color_t lv_obj_get_style_shadow_color_filtered(const struct _lv_obj_t * obj, uint3
 332:Drivers/lvgl/src/extra/layouts/grid/../flex/../../../core/lv_obj_style_gen.h **** {
 333:Drivers/lvgl/src/extra/layouts/grid/../flex/../../../core/lv_obj_style_gen.h ****     lv_style_value_t v = _lv_obj_style_apply_color_filter(obj, part, lv_obj_get_style_prop(obj, par
 334:Drivers/lvgl/src/extra/layouts/grid/../flex/../../../core/lv_obj_style_gen.h ****     return v.color;
 335:Drivers/lvgl/src/extra/layouts/grid/../flex/../../../core/lv_obj_style_gen.h **** }
 336:Drivers/lvgl/src/extra/layouts/grid/../flex/../../../core/lv_obj_style_gen.h **** 
 337:Drivers/lvgl/src/extra/layouts/grid/../flex/../../../core/lv_obj_style_gen.h **** static inline lv_opa_t lv_obj_get_style_shadow_opa(const struct _lv_obj_t * obj, uint32_t part)
 338:Drivers/lvgl/src/extra/layouts/grid/../flex/../../../core/lv_obj_style_gen.h **** {
 339:Drivers/lvgl/src/extra/layouts/grid/../flex/../../../core/lv_obj_style_gen.h ****     lv_style_value_t v = lv_obj_get_style_prop(obj, part, LV_STYLE_SHADOW_OPA);
 340:Drivers/lvgl/src/extra/layouts/grid/../flex/../../../core/lv_obj_style_gen.h ****     return (lv_opa_t)v.num;
 341:Drivers/lvgl/src/extra/layouts/grid/../flex/../../../core/lv_obj_style_gen.h **** }
 342:Drivers/lvgl/src/extra/layouts/grid/../flex/../../../core/lv_obj_style_gen.h **** 
 343:Drivers/lvgl/src/extra/layouts/grid/../flex/../../../core/lv_obj_style_gen.h **** static inline lv_opa_t lv_obj_get_style_img_opa(const struct _lv_obj_t * obj, uint32_t part)
 344:Drivers/lvgl/src/extra/layouts/grid/../flex/../../../core/lv_obj_style_gen.h **** {
 345:Drivers/lvgl/src/extra/layouts/grid/../flex/../../../core/lv_obj_style_gen.h ****     lv_style_value_t v = lv_obj_get_style_prop(obj, part, LV_STYLE_IMG_OPA);
 346:Drivers/lvgl/src/extra/layouts/grid/../flex/../../../core/lv_obj_style_gen.h ****     return (lv_opa_t)v.num;
 347:Drivers/lvgl/src/extra/layouts/grid/../flex/../../../core/lv_obj_style_gen.h **** }
 348:Drivers/lvgl/src/extra/layouts/grid/../flex/../../../core/lv_obj_style_gen.h **** 
 349:Drivers/lvgl/src/extra/layouts/grid/../flex/../../../core/lv_obj_style_gen.h **** static inline lv_color_t lv_obj_get_style_img_recolor(const struct _lv_obj_t * obj, uint32_t part)
 350:Drivers/lvgl/src/extra/layouts/grid/../flex/../../../core/lv_obj_style_gen.h **** {
 351:Drivers/lvgl/src/extra/layouts/grid/../flex/../../../core/lv_obj_style_gen.h ****     lv_style_value_t v = lv_obj_get_style_prop(obj, part, LV_STYLE_IMG_RECOLOR);
 352:Drivers/lvgl/src/extra/layouts/grid/../flex/../../../core/lv_obj_style_gen.h ****     return v.color;
 353:Drivers/lvgl/src/extra/layouts/grid/../flex/../../../core/lv_obj_style_gen.h **** }
 354:Drivers/lvgl/src/extra/layouts/grid/../flex/../../../core/lv_obj_style_gen.h **** 
 355:Drivers/lvgl/src/extra/layouts/grid/../flex/../../../core/lv_obj_style_gen.h **** static inline lv_color_t lv_obj_get_style_img_recolor_filtered(const struct _lv_obj_t * obj, uint32
 356:Drivers/lvgl/src/extra/layouts/grid/../flex/../../../core/lv_obj_style_gen.h **** {
 357:Drivers/lvgl/src/extra/layouts/grid/../flex/../../../core/lv_obj_style_gen.h ****     lv_style_value_t v = _lv_obj_style_apply_color_filter(obj, part, lv_obj_get_style_prop(obj, par
 358:Drivers/lvgl/src/extra/layouts/grid/../flex/../../../core/lv_obj_style_gen.h ****     return v.color;
 359:Drivers/lvgl/src/extra/layouts/grid/../flex/../../../core/lv_obj_style_gen.h **** }
 360:Drivers/lvgl/src/extra/layouts/grid/../flex/../../../core/lv_obj_style_gen.h **** 
 361:Drivers/lvgl/src/extra/layouts/grid/../flex/../../../core/lv_obj_style_gen.h **** static inline lv_opa_t lv_obj_get_style_img_recolor_opa(const struct _lv_obj_t * obj, uint32_t part
 362:Drivers/lvgl/src/extra/layouts/grid/../flex/../../../core/lv_obj_style_gen.h **** {
 363:Drivers/lvgl/src/extra/layouts/grid/../flex/../../../core/lv_obj_style_gen.h ****     lv_style_value_t v = lv_obj_get_style_prop(obj, part, LV_STYLE_IMG_RECOLOR_OPA);
 364:Drivers/lvgl/src/extra/layouts/grid/../flex/../../../core/lv_obj_style_gen.h ****     return (lv_opa_t)v.num;
 365:Drivers/lvgl/src/extra/layouts/grid/../flex/../../../core/lv_obj_style_gen.h **** }
 366:Drivers/lvgl/src/extra/layouts/grid/../flex/../../../core/lv_obj_style_gen.h **** 
 367:Drivers/lvgl/src/extra/layouts/grid/../flex/../../../core/lv_obj_style_gen.h **** static inline lv_coord_t lv_obj_get_style_line_width(const struct _lv_obj_t * obj, uint32_t part)
 368:Drivers/lvgl/src/extra/layouts/grid/../flex/../../../core/lv_obj_style_gen.h **** {
 369:Drivers/lvgl/src/extra/layouts/grid/../flex/../../../core/lv_obj_style_gen.h ****     lv_style_value_t v = lv_obj_get_style_prop(obj, part, LV_STYLE_LINE_WIDTH);
 370:Drivers/lvgl/src/extra/layouts/grid/../flex/../../../core/lv_obj_style_gen.h ****     return (lv_coord_t)v.num;
 371:Drivers/lvgl/src/extra/layouts/grid/../flex/../../../core/lv_obj_style_gen.h **** }
 372:Drivers/lvgl/src/extra/layouts/grid/../flex/../../../core/lv_obj_style_gen.h **** 
ARM GAS  /var/folders/0z/tsy30v1j4xl4_7kw94k978ww0000gn/T//cclcOfIK.s 			page 39


 373:Drivers/lvgl/src/extra/layouts/grid/../flex/../../../core/lv_obj_style_gen.h **** static inline lv_coord_t lv_obj_get_style_line_dash_width(const struct _lv_obj_t * obj, uint32_t pa
 374:Drivers/lvgl/src/extra/layouts/grid/../flex/../../../core/lv_obj_style_gen.h **** {
 375:Drivers/lvgl/src/extra/layouts/grid/../flex/../../../core/lv_obj_style_gen.h ****     lv_style_value_t v = lv_obj_get_style_prop(obj, part, LV_STYLE_LINE_DASH_WIDTH);
 376:Drivers/lvgl/src/extra/layouts/grid/../flex/../../../core/lv_obj_style_gen.h ****     return (lv_coord_t)v.num;
 377:Drivers/lvgl/src/extra/layouts/grid/../flex/../../../core/lv_obj_style_gen.h **** }
 378:Drivers/lvgl/src/extra/layouts/grid/../flex/../../../core/lv_obj_style_gen.h **** 
 379:Drivers/lvgl/src/extra/layouts/grid/../flex/../../../core/lv_obj_style_gen.h **** static inline lv_coord_t lv_obj_get_style_line_dash_gap(const struct _lv_obj_t * obj, uint32_t part
 380:Drivers/lvgl/src/extra/layouts/grid/../flex/../../../core/lv_obj_style_gen.h **** {
 381:Drivers/lvgl/src/extra/layouts/grid/../flex/../../../core/lv_obj_style_gen.h ****     lv_style_value_t v = lv_obj_get_style_prop(obj, part, LV_STYLE_LINE_DASH_GAP);
 382:Drivers/lvgl/src/extra/layouts/grid/../flex/../../../core/lv_obj_style_gen.h ****     return (lv_coord_t)v.num;
 383:Drivers/lvgl/src/extra/layouts/grid/../flex/../../../core/lv_obj_style_gen.h **** }
 384:Drivers/lvgl/src/extra/layouts/grid/../flex/../../../core/lv_obj_style_gen.h **** 
 385:Drivers/lvgl/src/extra/layouts/grid/../flex/../../../core/lv_obj_style_gen.h **** static inline bool lv_obj_get_style_line_rounded(const struct _lv_obj_t * obj, uint32_t part)
 386:Drivers/lvgl/src/extra/layouts/grid/../flex/../../../core/lv_obj_style_gen.h **** {
 387:Drivers/lvgl/src/extra/layouts/grid/../flex/../../../core/lv_obj_style_gen.h ****     lv_style_value_t v = lv_obj_get_style_prop(obj, part, LV_STYLE_LINE_ROUNDED);
 388:Drivers/lvgl/src/extra/layouts/grid/../flex/../../../core/lv_obj_style_gen.h ****     return (bool)v.num;
 389:Drivers/lvgl/src/extra/layouts/grid/../flex/../../../core/lv_obj_style_gen.h **** }
 390:Drivers/lvgl/src/extra/layouts/grid/../flex/../../../core/lv_obj_style_gen.h **** 
 391:Drivers/lvgl/src/extra/layouts/grid/../flex/../../../core/lv_obj_style_gen.h **** static inline lv_color_t lv_obj_get_style_line_color(const struct _lv_obj_t * obj, uint32_t part)
 392:Drivers/lvgl/src/extra/layouts/grid/../flex/../../../core/lv_obj_style_gen.h **** {
 393:Drivers/lvgl/src/extra/layouts/grid/../flex/../../../core/lv_obj_style_gen.h ****     lv_style_value_t v = lv_obj_get_style_prop(obj, part, LV_STYLE_LINE_COLOR);
 394:Drivers/lvgl/src/extra/layouts/grid/../flex/../../../core/lv_obj_style_gen.h ****     return v.color;
 395:Drivers/lvgl/src/extra/layouts/grid/../flex/../../../core/lv_obj_style_gen.h **** }
 396:Drivers/lvgl/src/extra/layouts/grid/../flex/../../../core/lv_obj_style_gen.h **** 
 397:Drivers/lvgl/src/extra/layouts/grid/../flex/../../../core/lv_obj_style_gen.h **** static inline lv_color_t lv_obj_get_style_line_color_filtered(const struct _lv_obj_t * obj, uint32_
 398:Drivers/lvgl/src/extra/layouts/grid/../flex/../../../core/lv_obj_style_gen.h **** {
 399:Drivers/lvgl/src/extra/layouts/grid/../flex/../../../core/lv_obj_style_gen.h ****     lv_style_value_t v = _lv_obj_style_apply_color_filter(obj, part, lv_obj_get_style_prop(obj, par
 400:Drivers/lvgl/src/extra/layouts/grid/../flex/../../../core/lv_obj_style_gen.h ****     return v.color;
 401:Drivers/lvgl/src/extra/layouts/grid/../flex/../../../core/lv_obj_style_gen.h **** }
 402:Drivers/lvgl/src/extra/layouts/grid/../flex/../../../core/lv_obj_style_gen.h **** 
 403:Drivers/lvgl/src/extra/layouts/grid/../flex/../../../core/lv_obj_style_gen.h **** static inline lv_opa_t lv_obj_get_style_line_opa(const struct _lv_obj_t * obj, uint32_t part)
 404:Drivers/lvgl/src/extra/layouts/grid/../flex/../../../core/lv_obj_style_gen.h **** {
 405:Drivers/lvgl/src/extra/layouts/grid/../flex/../../../core/lv_obj_style_gen.h ****     lv_style_value_t v = lv_obj_get_style_prop(obj, part, LV_STYLE_LINE_OPA);
 406:Drivers/lvgl/src/extra/layouts/grid/../flex/../../../core/lv_obj_style_gen.h ****     return (lv_opa_t)v.num;
 407:Drivers/lvgl/src/extra/layouts/grid/../flex/../../../core/lv_obj_style_gen.h **** }
 408:Drivers/lvgl/src/extra/layouts/grid/../flex/../../../core/lv_obj_style_gen.h **** 
 409:Drivers/lvgl/src/extra/layouts/grid/../flex/../../../core/lv_obj_style_gen.h **** static inline lv_coord_t lv_obj_get_style_arc_width(const struct _lv_obj_t * obj, uint32_t part)
 410:Drivers/lvgl/src/extra/layouts/grid/../flex/../../../core/lv_obj_style_gen.h **** {
 411:Drivers/lvgl/src/extra/layouts/grid/../flex/../../../core/lv_obj_style_gen.h ****     lv_style_value_t v = lv_obj_get_style_prop(obj, part, LV_STYLE_ARC_WIDTH);
 412:Drivers/lvgl/src/extra/layouts/grid/../flex/../../../core/lv_obj_style_gen.h ****     return (lv_coord_t)v.num;
 413:Drivers/lvgl/src/extra/layouts/grid/../flex/../../../core/lv_obj_style_gen.h **** }
 414:Drivers/lvgl/src/extra/layouts/grid/../flex/../../../core/lv_obj_style_gen.h **** 
 415:Drivers/lvgl/src/extra/layouts/grid/../flex/../../../core/lv_obj_style_gen.h **** static inline bool lv_obj_get_style_arc_rounded(const struct _lv_obj_t * obj, uint32_t part)
 416:Drivers/lvgl/src/extra/layouts/grid/../flex/../../../core/lv_obj_style_gen.h **** {
 417:Drivers/lvgl/src/extra/layouts/grid/../flex/../../../core/lv_obj_style_gen.h ****     lv_style_value_t v = lv_obj_get_style_prop(obj, part, LV_STYLE_ARC_ROUNDED);
 418:Drivers/lvgl/src/extra/layouts/grid/../flex/../../../core/lv_obj_style_gen.h ****     return (bool)v.num;
 419:Drivers/lvgl/src/extra/layouts/grid/../flex/../../../core/lv_obj_style_gen.h **** }
 420:Drivers/lvgl/src/extra/layouts/grid/../flex/../../../core/lv_obj_style_gen.h **** 
 421:Drivers/lvgl/src/extra/layouts/grid/../flex/../../../core/lv_obj_style_gen.h **** static inline lv_color_t lv_obj_get_style_arc_color(const struct _lv_obj_t * obj, uint32_t part)
 422:Drivers/lvgl/src/extra/layouts/grid/../flex/../../../core/lv_obj_style_gen.h **** {
 423:Drivers/lvgl/src/extra/layouts/grid/../flex/../../../core/lv_obj_style_gen.h ****     lv_style_value_t v = lv_obj_get_style_prop(obj, part, LV_STYLE_ARC_COLOR);
 424:Drivers/lvgl/src/extra/layouts/grid/../flex/../../../core/lv_obj_style_gen.h ****     return v.color;
 425:Drivers/lvgl/src/extra/layouts/grid/../flex/../../../core/lv_obj_style_gen.h **** }
 426:Drivers/lvgl/src/extra/layouts/grid/../flex/../../../core/lv_obj_style_gen.h **** 
 427:Drivers/lvgl/src/extra/layouts/grid/../flex/../../../core/lv_obj_style_gen.h **** static inline lv_color_t lv_obj_get_style_arc_color_filtered(const struct _lv_obj_t * obj, uint32_t
 428:Drivers/lvgl/src/extra/layouts/grid/../flex/../../../core/lv_obj_style_gen.h **** {
 429:Drivers/lvgl/src/extra/layouts/grid/../flex/../../../core/lv_obj_style_gen.h ****     lv_style_value_t v = _lv_obj_style_apply_color_filter(obj, part, lv_obj_get_style_prop(obj, par
ARM GAS  /var/folders/0z/tsy30v1j4xl4_7kw94k978ww0000gn/T//cclcOfIK.s 			page 40


 430:Drivers/lvgl/src/extra/layouts/grid/../flex/../../../core/lv_obj_style_gen.h ****     return v.color;
 431:Drivers/lvgl/src/extra/layouts/grid/../flex/../../../core/lv_obj_style_gen.h **** }
 432:Drivers/lvgl/src/extra/layouts/grid/../flex/../../../core/lv_obj_style_gen.h **** 
 433:Drivers/lvgl/src/extra/layouts/grid/../flex/../../../core/lv_obj_style_gen.h **** static inline lv_opa_t lv_obj_get_style_arc_opa(const struct _lv_obj_t * obj, uint32_t part)
 434:Drivers/lvgl/src/extra/layouts/grid/../flex/../../../core/lv_obj_style_gen.h **** {
 435:Drivers/lvgl/src/extra/layouts/grid/../flex/../../../core/lv_obj_style_gen.h ****     lv_style_value_t v = lv_obj_get_style_prop(obj, part, LV_STYLE_ARC_OPA);
 436:Drivers/lvgl/src/extra/layouts/grid/../flex/../../../core/lv_obj_style_gen.h ****     return (lv_opa_t)v.num;
 437:Drivers/lvgl/src/extra/layouts/grid/../flex/../../../core/lv_obj_style_gen.h **** }
 438:Drivers/lvgl/src/extra/layouts/grid/../flex/../../../core/lv_obj_style_gen.h **** 
 439:Drivers/lvgl/src/extra/layouts/grid/../flex/../../../core/lv_obj_style_gen.h **** static inline const void * lv_obj_get_style_arc_img_src(const struct _lv_obj_t * obj, uint32_t part
 440:Drivers/lvgl/src/extra/layouts/grid/../flex/../../../core/lv_obj_style_gen.h **** {
 441:Drivers/lvgl/src/extra/layouts/grid/../flex/../../../core/lv_obj_style_gen.h ****     lv_style_value_t v = lv_obj_get_style_prop(obj, part, LV_STYLE_ARC_IMG_SRC);
 442:Drivers/lvgl/src/extra/layouts/grid/../flex/../../../core/lv_obj_style_gen.h ****     return (const void *)v.ptr;
 443:Drivers/lvgl/src/extra/layouts/grid/../flex/../../../core/lv_obj_style_gen.h **** }
 444:Drivers/lvgl/src/extra/layouts/grid/../flex/../../../core/lv_obj_style_gen.h **** 
 445:Drivers/lvgl/src/extra/layouts/grid/../flex/../../../core/lv_obj_style_gen.h **** static inline lv_color_t lv_obj_get_style_text_color(const struct _lv_obj_t * obj, uint32_t part)
 446:Drivers/lvgl/src/extra/layouts/grid/../flex/../../../core/lv_obj_style_gen.h **** {
 447:Drivers/lvgl/src/extra/layouts/grid/../flex/../../../core/lv_obj_style_gen.h ****     lv_style_value_t v = lv_obj_get_style_prop(obj, part, LV_STYLE_TEXT_COLOR);
 448:Drivers/lvgl/src/extra/layouts/grid/../flex/../../../core/lv_obj_style_gen.h ****     return v.color;
 449:Drivers/lvgl/src/extra/layouts/grid/../flex/../../../core/lv_obj_style_gen.h **** }
 450:Drivers/lvgl/src/extra/layouts/grid/../flex/../../../core/lv_obj_style_gen.h **** 
 451:Drivers/lvgl/src/extra/layouts/grid/../flex/../../../core/lv_obj_style_gen.h **** static inline lv_color_t lv_obj_get_style_text_color_filtered(const struct _lv_obj_t * obj, uint32_
 452:Drivers/lvgl/src/extra/layouts/grid/../flex/../../../core/lv_obj_style_gen.h **** {
 453:Drivers/lvgl/src/extra/layouts/grid/../flex/../../../core/lv_obj_style_gen.h ****     lv_style_value_t v = _lv_obj_style_apply_color_filter(obj, part, lv_obj_get_style_prop(obj, par
 454:Drivers/lvgl/src/extra/layouts/grid/../flex/../../../core/lv_obj_style_gen.h ****     return v.color;
 455:Drivers/lvgl/src/extra/layouts/grid/../flex/../../../core/lv_obj_style_gen.h **** }
 456:Drivers/lvgl/src/extra/layouts/grid/../flex/../../../core/lv_obj_style_gen.h **** 
 457:Drivers/lvgl/src/extra/layouts/grid/../flex/../../../core/lv_obj_style_gen.h **** static inline lv_opa_t lv_obj_get_style_text_opa(const struct _lv_obj_t * obj, uint32_t part)
 458:Drivers/lvgl/src/extra/layouts/grid/../flex/../../../core/lv_obj_style_gen.h **** {
 459:Drivers/lvgl/src/extra/layouts/grid/../flex/../../../core/lv_obj_style_gen.h ****     lv_style_value_t v = lv_obj_get_style_prop(obj, part, LV_STYLE_TEXT_OPA);
 460:Drivers/lvgl/src/extra/layouts/grid/../flex/../../../core/lv_obj_style_gen.h ****     return (lv_opa_t)v.num;
 461:Drivers/lvgl/src/extra/layouts/grid/../flex/../../../core/lv_obj_style_gen.h **** }
 462:Drivers/lvgl/src/extra/layouts/grid/../flex/../../../core/lv_obj_style_gen.h **** 
 463:Drivers/lvgl/src/extra/layouts/grid/../flex/../../../core/lv_obj_style_gen.h **** static inline const lv_font_t * lv_obj_get_style_text_font(const struct _lv_obj_t * obj, uint32_t p
 464:Drivers/lvgl/src/extra/layouts/grid/../flex/../../../core/lv_obj_style_gen.h **** {
 465:Drivers/lvgl/src/extra/layouts/grid/../flex/../../../core/lv_obj_style_gen.h ****     lv_style_value_t v = lv_obj_get_style_prop(obj, part, LV_STYLE_TEXT_FONT);
 466:Drivers/lvgl/src/extra/layouts/grid/../flex/../../../core/lv_obj_style_gen.h ****     return (const lv_font_t *)v.ptr;
 467:Drivers/lvgl/src/extra/layouts/grid/../flex/../../../core/lv_obj_style_gen.h **** }
 468:Drivers/lvgl/src/extra/layouts/grid/../flex/../../../core/lv_obj_style_gen.h **** 
 469:Drivers/lvgl/src/extra/layouts/grid/../flex/../../../core/lv_obj_style_gen.h **** static inline lv_coord_t lv_obj_get_style_text_letter_space(const struct _lv_obj_t * obj, uint32_t 
 470:Drivers/lvgl/src/extra/layouts/grid/../flex/../../../core/lv_obj_style_gen.h **** {
 471:Drivers/lvgl/src/extra/layouts/grid/../flex/../../../core/lv_obj_style_gen.h ****     lv_style_value_t v = lv_obj_get_style_prop(obj, part, LV_STYLE_TEXT_LETTER_SPACE);
 472:Drivers/lvgl/src/extra/layouts/grid/../flex/../../../core/lv_obj_style_gen.h ****     return (lv_coord_t)v.num;
 473:Drivers/lvgl/src/extra/layouts/grid/../flex/../../../core/lv_obj_style_gen.h **** }
 474:Drivers/lvgl/src/extra/layouts/grid/../flex/../../../core/lv_obj_style_gen.h **** 
 475:Drivers/lvgl/src/extra/layouts/grid/../flex/../../../core/lv_obj_style_gen.h **** static inline lv_coord_t lv_obj_get_style_text_line_space(const struct _lv_obj_t * obj, uint32_t pa
 476:Drivers/lvgl/src/extra/layouts/grid/../flex/../../../core/lv_obj_style_gen.h **** {
 477:Drivers/lvgl/src/extra/layouts/grid/../flex/../../../core/lv_obj_style_gen.h ****     lv_style_value_t v = lv_obj_get_style_prop(obj, part, LV_STYLE_TEXT_LINE_SPACE);
 478:Drivers/lvgl/src/extra/layouts/grid/../flex/../../../core/lv_obj_style_gen.h ****     return (lv_coord_t)v.num;
 479:Drivers/lvgl/src/extra/layouts/grid/../flex/../../../core/lv_obj_style_gen.h **** }
 480:Drivers/lvgl/src/extra/layouts/grid/../flex/../../../core/lv_obj_style_gen.h **** 
 481:Drivers/lvgl/src/extra/layouts/grid/../flex/../../../core/lv_obj_style_gen.h **** static inline lv_text_decor_t lv_obj_get_style_text_decor(const struct _lv_obj_t * obj, uint32_t pa
 482:Drivers/lvgl/src/extra/layouts/grid/../flex/../../../core/lv_obj_style_gen.h **** {
 483:Drivers/lvgl/src/extra/layouts/grid/../flex/../../../core/lv_obj_style_gen.h ****     lv_style_value_t v = lv_obj_get_style_prop(obj, part, LV_STYLE_TEXT_DECOR);
 484:Drivers/lvgl/src/extra/layouts/grid/../flex/../../../core/lv_obj_style_gen.h ****     return (lv_text_decor_t)v.num;
 485:Drivers/lvgl/src/extra/layouts/grid/../flex/../../../core/lv_obj_style_gen.h **** }
 486:Drivers/lvgl/src/extra/layouts/grid/../flex/../../../core/lv_obj_style_gen.h **** 
ARM GAS  /var/folders/0z/tsy30v1j4xl4_7kw94k978ww0000gn/T//cclcOfIK.s 			page 41


 487:Drivers/lvgl/src/extra/layouts/grid/../flex/../../../core/lv_obj_style_gen.h **** static inline lv_text_align_t lv_obj_get_style_text_align(const struct _lv_obj_t * obj, uint32_t pa
 488:Drivers/lvgl/src/extra/layouts/grid/../flex/../../../core/lv_obj_style_gen.h **** {
 489:Drivers/lvgl/src/extra/layouts/grid/../flex/../../../core/lv_obj_style_gen.h ****     lv_style_value_t v = lv_obj_get_style_prop(obj, part, LV_STYLE_TEXT_ALIGN);
 490:Drivers/lvgl/src/extra/layouts/grid/../flex/../../../core/lv_obj_style_gen.h ****     return (lv_text_align_t)v.num;
 491:Drivers/lvgl/src/extra/layouts/grid/../flex/../../../core/lv_obj_style_gen.h **** }
 492:Drivers/lvgl/src/extra/layouts/grid/../flex/../../../core/lv_obj_style_gen.h **** 
 493:Drivers/lvgl/src/extra/layouts/grid/../flex/../../../core/lv_obj_style_gen.h **** static inline lv_coord_t lv_obj_get_style_radius(const struct _lv_obj_t * obj, uint32_t part)
 494:Drivers/lvgl/src/extra/layouts/grid/../flex/../../../core/lv_obj_style_gen.h **** {
 495:Drivers/lvgl/src/extra/layouts/grid/../flex/../../../core/lv_obj_style_gen.h ****     lv_style_value_t v = lv_obj_get_style_prop(obj, part, LV_STYLE_RADIUS);
 496:Drivers/lvgl/src/extra/layouts/grid/../flex/../../../core/lv_obj_style_gen.h ****     return (lv_coord_t)v.num;
 497:Drivers/lvgl/src/extra/layouts/grid/../flex/../../../core/lv_obj_style_gen.h **** }
 498:Drivers/lvgl/src/extra/layouts/grid/../flex/../../../core/lv_obj_style_gen.h **** 
 499:Drivers/lvgl/src/extra/layouts/grid/../flex/../../../core/lv_obj_style_gen.h **** static inline bool lv_obj_get_style_clip_corner(const struct _lv_obj_t * obj, uint32_t part)
 500:Drivers/lvgl/src/extra/layouts/grid/../flex/../../../core/lv_obj_style_gen.h **** {
 501:Drivers/lvgl/src/extra/layouts/grid/../flex/../../../core/lv_obj_style_gen.h ****     lv_style_value_t v = lv_obj_get_style_prop(obj, part, LV_STYLE_CLIP_CORNER);
 502:Drivers/lvgl/src/extra/layouts/grid/../flex/../../../core/lv_obj_style_gen.h ****     return (bool)v.num;
 503:Drivers/lvgl/src/extra/layouts/grid/../flex/../../../core/lv_obj_style_gen.h **** }
 504:Drivers/lvgl/src/extra/layouts/grid/../flex/../../../core/lv_obj_style_gen.h **** 
 505:Drivers/lvgl/src/extra/layouts/grid/../flex/../../../core/lv_obj_style_gen.h **** static inline lv_opa_t lv_obj_get_style_opa(const struct _lv_obj_t * obj, uint32_t part)
 506:Drivers/lvgl/src/extra/layouts/grid/../flex/../../../core/lv_obj_style_gen.h **** {
 507:Drivers/lvgl/src/extra/layouts/grid/../flex/../../../core/lv_obj_style_gen.h ****     lv_style_value_t v = lv_obj_get_style_prop(obj, part, LV_STYLE_OPA);
 508:Drivers/lvgl/src/extra/layouts/grid/../flex/../../../core/lv_obj_style_gen.h ****     return (lv_opa_t)v.num;
 509:Drivers/lvgl/src/extra/layouts/grid/../flex/../../../core/lv_obj_style_gen.h **** }
 510:Drivers/lvgl/src/extra/layouts/grid/../flex/../../../core/lv_obj_style_gen.h **** 
 511:Drivers/lvgl/src/extra/layouts/grid/../flex/../../../core/lv_obj_style_gen.h **** static inline lv_opa_t lv_obj_get_style_opa_layered(const struct _lv_obj_t * obj, uint32_t part)
 512:Drivers/lvgl/src/extra/layouts/grid/../flex/../../../core/lv_obj_style_gen.h **** {
 513:Drivers/lvgl/src/extra/layouts/grid/../flex/../../../core/lv_obj_style_gen.h ****     lv_style_value_t v = lv_obj_get_style_prop(obj, part, LV_STYLE_OPA_LAYERED);
 514:Drivers/lvgl/src/extra/layouts/grid/../flex/../../../core/lv_obj_style_gen.h ****     return (lv_opa_t)v.num;
 515:Drivers/lvgl/src/extra/layouts/grid/../flex/../../../core/lv_obj_style_gen.h **** }
 516:Drivers/lvgl/src/extra/layouts/grid/../flex/../../../core/lv_obj_style_gen.h **** 
 517:Drivers/lvgl/src/extra/layouts/grid/../flex/../../../core/lv_obj_style_gen.h **** static inline const lv_color_filter_dsc_t * lv_obj_get_style_color_filter_dsc(const struct _lv_obj_
 518:Drivers/lvgl/src/extra/layouts/grid/../flex/../../../core/lv_obj_style_gen.h **** {
 519:Drivers/lvgl/src/extra/layouts/grid/../flex/../../../core/lv_obj_style_gen.h ****     lv_style_value_t v = lv_obj_get_style_prop(obj, part, LV_STYLE_COLOR_FILTER_DSC);
 520:Drivers/lvgl/src/extra/layouts/grid/../flex/../../../core/lv_obj_style_gen.h ****     return (const lv_color_filter_dsc_t *)v.ptr;
 521:Drivers/lvgl/src/extra/layouts/grid/../flex/../../../core/lv_obj_style_gen.h **** }
 522:Drivers/lvgl/src/extra/layouts/grid/../flex/../../../core/lv_obj_style_gen.h **** 
 523:Drivers/lvgl/src/extra/layouts/grid/../flex/../../../core/lv_obj_style_gen.h **** static inline lv_opa_t lv_obj_get_style_color_filter_opa(const struct _lv_obj_t * obj, uint32_t par
 524:Drivers/lvgl/src/extra/layouts/grid/../flex/../../../core/lv_obj_style_gen.h **** {
 525:Drivers/lvgl/src/extra/layouts/grid/../flex/../../../core/lv_obj_style_gen.h ****     lv_style_value_t v = lv_obj_get_style_prop(obj, part, LV_STYLE_COLOR_FILTER_OPA);
 526:Drivers/lvgl/src/extra/layouts/grid/../flex/../../../core/lv_obj_style_gen.h ****     return (lv_opa_t)v.num;
 527:Drivers/lvgl/src/extra/layouts/grid/../flex/../../../core/lv_obj_style_gen.h **** }
 528:Drivers/lvgl/src/extra/layouts/grid/../flex/../../../core/lv_obj_style_gen.h **** 
 529:Drivers/lvgl/src/extra/layouts/grid/../flex/../../../core/lv_obj_style_gen.h **** static inline const lv_anim_t * lv_obj_get_style_anim(const struct _lv_obj_t * obj, uint32_t part)
 530:Drivers/lvgl/src/extra/layouts/grid/../flex/../../../core/lv_obj_style_gen.h **** {
 531:Drivers/lvgl/src/extra/layouts/grid/../flex/../../../core/lv_obj_style_gen.h ****     lv_style_value_t v = lv_obj_get_style_prop(obj, part, LV_STYLE_ANIM);
 532:Drivers/lvgl/src/extra/layouts/grid/../flex/../../../core/lv_obj_style_gen.h ****     return (const lv_anim_t *)v.ptr;
 533:Drivers/lvgl/src/extra/layouts/grid/../flex/../../../core/lv_obj_style_gen.h **** }
 534:Drivers/lvgl/src/extra/layouts/grid/../flex/../../../core/lv_obj_style_gen.h **** 
 535:Drivers/lvgl/src/extra/layouts/grid/../flex/../../../core/lv_obj_style_gen.h **** static inline uint32_t lv_obj_get_style_anim_time(const struct _lv_obj_t * obj, uint32_t part)
 536:Drivers/lvgl/src/extra/layouts/grid/../flex/../../../core/lv_obj_style_gen.h **** {
 537:Drivers/lvgl/src/extra/layouts/grid/../flex/../../../core/lv_obj_style_gen.h ****     lv_style_value_t v = lv_obj_get_style_prop(obj, part, LV_STYLE_ANIM_TIME);
 538:Drivers/lvgl/src/extra/layouts/grid/../flex/../../../core/lv_obj_style_gen.h ****     return (uint32_t)v.num;
 539:Drivers/lvgl/src/extra/layouts/grid/../flex/../../../core/lv_obj_style_gen.h **** }
 540:Drivers/lvgl/src/extra/layouts/grid/../flex/../../../core/lv_obj_style_gen.h **** 
 541:Drivers/lvgl/src/extra/layouts/grid/../flex/../../../core/lv_obj_style_gen.h **** static inline uint32_t lv_obj_get_style_anim_speed(const struct _lv_obj_t * obj, uint32_t part)
 542:Drivers/lvgl/src/extra/layouts/grid/../flex/../../../core/lv_obj_style_gen.h **** {
 543:Drivers/lvgl/src/extra/layouts/grid/../flex/../../../core/lv_obj_style_gen.h ****     lv_style_value_t v = lv_obj_get_style_prop(obj, part, LV_STYLE_ANIM_SPEED);
ARM GAS  /var/folders/0z/tsy30v1j4xl4_7kw94k978ww0000gn/T//cclcOfIK.s 			page 42


 544:Drivers/lvgl/src/extra/layouts/grid/../flex/../../../core/lv_obj_style_gen.h ****     return (uint32_t)v.num;
 545:Drivers/lvgl/src/extra/layouts/grid/../flex/../../../core/lv_obj_style_gen.h **** }
 546:Drivers/lvgl/src/extra/layouts/grid/../flex/../../../core/lv_obj_style_gen.h **** 
 547:Drivers/lvgl/src/extra/layouts/grid/../flex/../../../core/lv_obj_style_gen.h **** static inline const lv_style_transition_dsc_t * lv_obj_get_style_transition(const struct _lv_obj_t 
 548:Drivers/lvgl/src/extra/layouts/grid/../flex/../../../core/lv_obj_style_gen.h **** {
 549:Drivers/lvgl/src/extra/layouts/grid/../flex/../../../core/lv_obj_style_gen.h ****     lv_style_value_t v = lv_obj_get_style_prop(obj, part, LV_STYLE_TRANSITION);
 550:Drivers/lvgl/src/extra/layouts/grid/../flex/../../../core/lv_obj_style_gen.h ****     return (const lv_style_transition_dsc_t *)v.ptr;
 551:Drivers/lvgl/src/extra/layouts/grid/../flex/../../../core/lv_obj_style_gen.h **** }
 552:Drivers/lvgl/src/extra/layouts/grid/../flex/../../../core/lv_obj_style_gen.h **** 
 553:Drivers/lvgl/src/extra/layouts/grid/../flex/../../../core/lv_obj_style_gen.h **** static inline lv_blend_mode_t lv_obj_get_style_blend_mode(const struct _lv_obj_t * obj, uint32_t pa
 554:Drivers/lvgl/src/extra/layouts/grid/../flex/../../../core/lv_obj_style_gen.h **** {
 555:Drivers/lvgl/src/extra/layouts/grid/../flex/../../../core/lv_obj_style_gen.h ****     lv_style_value_t v = lv_obj_get_style_prop(obj, part, LV_STYLE_BLEND_MODE);
 556:Drivers/lvgl/src/extra/layouts/grid/../flex/../../../core/lv_obj_style_gen.h ****     return (lv_blend_mode_t)v.num;
 557:Drivers/lvgl/src/extra/layouts/grid/../flex/../../../core/lv_obj_style_gen.h **** }
 558:Drivers/lvgl/src/extra/layouts/grid/../flex/../../../core/lv_obj_style_gen.h **** 
 559:Drivers/lvgl/src/extra/layouts/grid/../flex/../../../core/lv_obj_style_gen.h **** static inline uint16_t lv_obj_get_style_layout(const struct _lv_obj_t * obj, uint32_t part)
 560:Drivers/lvgl/src/extra/layouts/grid/../flex/../../../core/lv_obj_style_gen.h **** {
 561:Drivers/lvgl/src/extra/layouts/grid/../flex/../../../core/lv_obj_style_gen.h ****     lv_style_value_t v = lv_obj_get_style_prop(obj, part, LV_STYLE_LAYOUT);
 562:Drivers/lvgl/src/extra/layouts/grid/../flex/../../../core/lv_obj_style_gen.h ****     return (uint16_t)v.num;
 563:Drivers/lvgl/src/extra/layouts/grid/../flex/../../../core/lv_obj_style_gen.h **** }
 564:Drivers/lvgl/src/extra/layouts/grid/../flex/../../../core/lv_obj_style_gen.h **** 
 565:Drivers/lvgl/src/extra/layouts/grid/../flex/../../../core/lv_obj_style_gen.h **** static inline lv_base_dir_t lv_obj_get_style_base_dir(const struct _lv_obj_t * obj, uint32_t part)
 680              		.loc 3 565 29 view .LVU226
 681              	.LBB134:
 566:Drivers/lvgl/src/extra/layouts/grid/../flex/../../../core/lv_obj_style_gen.h **** {
 567:Drivers/lvgl/src/extra/layouts/grid/../flex/../../../core/lv_obj_style_gen.h ****     lv_style_value_t v = lv_obj_get_style_prop(obj, part, LV_STYLE_BASE_DIR);
 682              		.loc 3 567 5 view .LVU227
 683              		.loc 3 567 26 is_stmt 0 view .LVU228
 684 00c6 1622     		movs	r2, #22
 685 00c8 0021     		movs	r1, #0
 686              	.LVL78:
 687              		.loc 3 567 26 view .LVU229
 688 00ca 2046     		mov	r0, r4
 689              	.LVL79:
 690              		.loc 3 567 26 view .LVU230
 691 00cc FFF7FEFF 		bl	lv_obj_get_style_prop
 692              	.LVL80:
 568:Drivers/lvgl/src/extra/layouts/grid/../flex/../../../core/lv_obj_style_gen.h ****     return (lv_base_dir_t)v.num;
 693              		.loc 3 568 5 is_stmt 1 view .LVU231
 694              		.loc 3 568 12 is_stmt 0 view .LVU232
 695 00d0 C0B2     		uxtb	r0, r0
 696              	.LVL81:
 697              		.loc 3 568 12 view .LVU233
 698              	.LBE134:
 699              	.LBE133:
 605:Drivers/lvgl/src/extra/layouts/grid/lv_grid.c ****         if(col_align == LV_GRID_ALIGN_START) col_align = LV_GRID_ALIGN_END;
 700              		.loc 1 605 7 view .LVU234
 701 00d2 0128     		cmp	r0, #1
 702 00d4 00F0C080 		beq	.L51
 703              	.LVL82:
 704              	.L29:
 610:Drivers/lvgl/src/extra/layouts/grid/lv_grid.c ****     lv_coord_t y;
 705              		.loc 1 610 5 is_stmt 1 view .LVU235
 611:Drivers/lvgl/src/extra/layouts/grid/lv_grid.c ****     lv_coord_t item_w = lv_area_get_width(&item->coords);
 706              		.loc 1 611 5 view .LVU236
 612:Drivers/lvgl/src/extra/layouts/grid/lv_grid.c ****     lv_coord_t item_h = lv_area_get_height(&item->coords);
 707              		.loc 1 612 5 view .LVU237
ARM GAS  /var/folders/0z/tsy30v1j4xl4_7kw94k978ww0000gn/T//cclcOfIK.s 			page 43


 708              	.LBB135:
 709              	.LBI135:
 710              		.file 4 "Drivers/lvgl/src/extra/layouts/grid/../flex/../../../core/../misc/../font/../misc/lv_area
   1:Drivers/lvgl/src/extra/layouts/grid/../flex/../../../core/../misc/../font/../misc/lv_area.h **** /**
   2:Drivers/lvgl/src/extra/layouts/grid/../flex/../../../core/../misc/../font/../misc/lv_area.h ****  * @file lv_area.h
   3:Drivers/lvgl/src/extra/layouts/grid/../flex/../../../core/../misc/../font/../misc/lv_area.h ****  *
   4:Drivers/lvgl/src/extra/layouts/grid/../flex/../../../core/../misc/../font/../misc/lv_area.h ****  */
   5:Drivers/lvgl/src/extra/layouts/grid/../flex/../../../core/../misc/../font/../misc/lv_area.h **** 
   6:Drivers/lvgl/src/extra/layouts/grid/../flex/../../../core/../misc/../font/../misc/lv_area.h **** #ifndef LV_AREA_H
   7:Drivers/lvgl/src/extra/layouts/grid/../flex/../../../core/../misc/../font/../misc/lv_area.h **** #define LV_AREA_H
   8:Drivers/lvgl/src/extra/layouts/grid/../flex/../../../core/../misc/../font/../misc/lv_area.h **** 
   9:Drivers/lvgl/src/extra/layouts/grid/../flex/../../../core/../misc/../font/../misc/lv_area.h **** #ifdef __cplusplus
  10:Drivers/lvgl/src/extra/layouts/grid/../flex/../../../core/../misc/../font/../misc/lv_area.h **** extern "C" {
  11:Drivers/lvgl/src/extra/layouts/grid/../flex/../../../core/../misc/../font/../misc/lv_area.h **** #endif
  12:Drivers/lvgl/src/extra/layouts/grid/../flex/../../../core/../misc/../font/../misc/lv_area.h **** 
  13:Drivers/lvgl/src/extra/layouts/grid/../flex/../../../core/../misc/../font/../misc/lv_area.h **** /*********************
  14:Drivers/lvgl/src/extra/layouts/grid/../flex/../../../core/../misc/../font/../misc/lv_area.h ****  *      INCLUDES
  15:Drivers/lvgl/src/extra/layouts/grid/../flex/../../../core/../misc/../font/../misc/lv_area.h ****  *********************/
  16:Drivers/lvgl/src/extra/layouts/grid/../flex/../../../core/../misc/../font/../misc/lv_area.h **** #include "../lv_conf_internal.h"
  17:Drivers/lvgl/src/extra/layouts/grid/../flex/../../../core/../misc/../font/../misc/lv_area.h **** #include <stdbool.h>
  18:Drivers/lvgl/src/extra/layouts/grid/../flex/../../../core/../misc/../font/../misc/lv_area.h **** #include <stdint.h>
  19:Drivers/lvgl/src/extra/layouts/grid/../flex/../../../core/../misc/../font/../misc/lv_area.h **** 
  20:Drivers/lvgl/src/extra/layouts/grid/../flex/../../../core/../misc/../font/../misc/lv_area.h **** /*********************
  21:Drivers/lvgl/src/extra/layouts/grid/../flex/../../../core/../misc/../font/../misc/lv_area.h ****  *      DEFINES
  22:Drivers/lvgl/src/extra/layouts/grid/../flex/../../../core/../misc/../font/../misc/lv_area.h ****  *********************/
  23:Drivers/lvgl/src/extra/layouts/grid/../flex/../../../core/../misc/../font/../misc/lv_area.h **** 
  24:Drivers/lvgl/src/extra/layouts/grid/../flex/../../../core/../misc/../font/../misc/lv_area.h **** #if LV_USE_LARGE_COORD
  25:Drivers/lvgl/src/extra/layouts/grid/../flex/../../../core/../misc/../font/../misc/lv_area.h **** typedef int32_t lv_coord_t;
  26:Drivers/lvgl/src/extra/layouts/grid/../flex/../../../core/../misc/../font/../misc/lv_area.h **** #else
  27:Drivers/lvgl/src/extra/layouts/grid/../flex/../../../core/../misc/../font/../misc/lv_area.h **** typedef int16_t lv_coord_t;
  28:Drivers/lvgl/src/extra/layouts/grid/../flex/../../../core/../misc/../font/../misc/lv_area.h **** #endif
  29:Drivers/lvgl/src/extra/layouts/grid/../flex/../../../core/../misc/../font/../misc/lv_area.h **** 
  30:Drivers/lvgl/src/extra/layouts/grid/../flex/../../../core/../misc/../font/../misc/lv_area.h **** /**********************
  31:Drivers/lvgl/src/extra/layouts/grid/../flex/../../../core/../misc/../font/../misc/lv_area.h ****  *      TYPEDEFS
  32:Drivers/lvgl/src/extra/layouts/grid/../flex/../../../core/../misc/../font/../misc/lv_area.h ****  **********************/
  33:Drivers/lvgl/src/extra/layouts/grid/../flex/../../../core/../misc/../font/../misc/lv_area.h **** 
  34:Drivers/lvgl/src/extra/layouts/grid/../flex/../../../core/../misc/../font/../misc/lv_area.h **** /**
  35:Drivers/lvgl/src/extra/layouts/grid/../flex/../../../core/../misc/../font/../misc/lv_area.h ****  * Represents a point on the screen.
  36:Drivers/lvgl/src/extra/layouts/grid/../flex/../../../core/../misc/../font/../misc/lv_area.h ****  */
  37:Drivers/lvgl/src/extra/layouts/grid/../flex/../../../core/../misc/../font/../misc/lv_area.h **** typedef struct {
  38:Drivers/lvgl/src/extra/layouts/grid/../flex/../../../core/../misc/../font/../misc/lv_area.h ****     lv_coord_t x;
  39:Drivers/lvgl/src/extra/layouts/grid/../flex/../../../core/../misc/../font/../misc/lv_area.h ****     lv_coord_t y;
  40:Drivers/lvgl/src/extra/layouts/grid/../flex/../../../core/../misc/../font/../misc/lv_area.h **** } lv_point_t;
  41:Drivers/lvgl/src/extra/layouts/grid/../flex/../../../core/../misc/../font/../misc/lv_area.h **** 
  42:Drivers/lvgl/src/extra/layouts/grid/../flex/../../../core/../misc/../font/../misc/lv_area.h **** /** Represents an area of the screen.*/
  43:Drivers/lvgl/src/extra/layouts/grid/../flex/../../../core/../misc/../font/../misc/lv_area.h **** typedef struct {
  44:Drivers/lvgl/src/extra/layouts/grid/../flex/../../../core/../misc/../font/../misc/lv_area.h ****     lv_coord_t x1;
  45:Drivers/lvgl/src/extra/layouts/grid/../flex/../../../core/../misc/../font/../misc/lv_area.h ****     lv_coord_t y1;
  46:Drivers/lvgl/src/extra/layouts/grid/../flex/../../../core/../misc/../font/../misc/lv_area.h ****     lv_coord_t x2;
  47:Drivers/lvgl/src/extra/layouts/grid/../flex/../../../core/../misc/../font/../misc/lv_area.h ****     lv_coord_t y2;
  48:Drivers/lvgl/src/extra/layouts/grid/../flex/../../../core/../misc/../font/../misc/lv_area.h **** } lv_area_t;
  49:Drivers/lvgl/src/extra/layouts/grid/../flex/../../../core/../misc/../font/../misc/lv_area.h **** 
  50:Drivers/lvgl/src/extra/layouts/grid/../flex/../../../core/../misc/../font/../misc/lv_area.h **** /** Alignments*/
  51:Drivers/lvgl/src/extra/layouts/grid/../flex/../../../core/../misc/../font/../misc/lv_area.h **** enum {
  52:Drivers/lvgl/src/extra/layouts/grid/../flex/../../../core/../misc/../font/../misc/lv_area.h ****     LV_ALIGN_DEFAULT = 0,
  53:Drivers/lvgl/src/extra/layouts/grid/../flex/../../../core/../misc/../font/../misc/lv_area.h ****     LV_ALIGN_TOP_LEFT,
  54:Drivers/lvgl/src/extra/layouts/grid/../flex/../../../core/../misc/../font/../misc/lv_area.h ****     LV_ALIGN_TOP_MID,
ARM GAS  /var/folders/0z/tsy30v1j4xl4_7kw94k978ww0000gn/T//cclcOfIK.s 			page 44


  55:Drivers/lvgl/src/extra/layouts/grid/../flex/../../../core/../misc/../font/../misc/lv_area.h ****     LV_ALIGN_TOP_RIGHT,
  56:Drivers/lvgl/src/extra/layouts/grid/../flex/../../../core/../misc/../font/../misc/lv_area.h ****     LV_ALIGN_BOTTOM_LEFT,
  57:Drivers/lvgl/src/extra/layouts/grid/../flex/../../../core/../misc/../font/../misc/lv_area.h ****     LV_ALIGN_BOTTOM_MID,
  58:Drivers/lvgl/src/extra/layouts/grid/../flex/../../../core/../misc/../font/../misc/lv_area.h ****     LV_ALIGN_BOTTOM_RIGHT,
  59:Drivers/lvgl/src/extra/layouts/grid/../flex/../../../core/../misc/../font/../misc/lv_area.h ****     LV_ALIGN_LEFT_MID,
  60:Drivers/lvgl/src/extra/layouts/grid/../flex/../../../core/../misc/../font/../misc/lv_area.h ****     LV_ALIGN_RIGHT_MID,
  61:Drivers/lvgl/src/extra/layouts/grid/../flex/../../../core/../misc/../font/../misc/lv_area.h ****     LV_ALIGN_CENTER,
  62:Drivers/lvgl/src/extra/layouts/grid/../flex/../../../core/../misc/../font/../misc/lv_area.h **** 
  63:Drivers/lvgl/src/extra/layouts/grid/../flex/../../../core/../misc/../font/../misc/lv_area.h ****     LV_ALIGN_OUT_TOP_LEFT,
  64:Drivers/lvgl/src/extra/layouts/grid/../flex/../../../core/../misc/../font/../misc/lv_area.h ****     LV_ALIGN_OUT_TOP_MID,
  65:Drivers/lvgl/src/extra/layouts/grid/../flex/../../../core/../misc/../font/../misc/lv_area.h ****     LV_ALIGN_OUT_TOP_RIGHT,
  66:Drivers/lvgl/src/extra/layouts/grid/../flex/../../../core/../misc/../font/../misc/lv_area.h ****     LV_ALIGN_OUT_BOTTOM_LEFT,
  67:Drivers/lvgl/src/extra/layouts/grid/../flex/../../../core/../misc/../font/../misc/lv_area.h ****     LV_ALIGN_OUT_BOTTOM_MID,
  68:Drivers/lvgl/src/extra/layouts/grid/../flex/../../../core/../misc/../font/../misc/lv_area.h ****     LV_ALIGN_OUT_BOTTOM_RIGHT,
  69:Drivers/lvgl/src/extra/layouts/grid/../flex/../../../core/../misc/../font/../misc/lv_area.h ****     LV_ALIGN_OUT_LEFT_TOP,
  70:Drivers/lvgl/src/extra/layouts/grid/../flex/../../../core/../misc/../font/../misc/lv_area.h ****     LV_ALIGN_OUT_LEFT_MID,
  71:Drivers/lvgl/src/extra/layouts/grid/../flex/../../../core/../misc/../font/../misc/lv_area.h ****     LV_ALIGN_OUT_LEFT_BOTTOM,
  72:Drivers/lvgl/src/extra/layouts/grid/../flex/../../../core/../misc/../font/../misc/lv_area.h ****     LV_ALIGN_OUT_RIGHT_TOP,
  73:Drivers/lvgl/src/extra/layouts/grid/../flex/../../../core/../misc/../font/../misc/lv_area.h ****     LV_ALIGN_OUT_RIGHT_MID,
  74:Drivers/lvgl/src/extra/layouts/grid/../flex/../../../core/../misc/../font/../misc/lv_area.h ****     LV_ALIGN_OUT_RIGHT_BOTTOM,
  75:Drivers/lvgl/src/extra/layouts/grid/../flex/../../../core/../misc/../font/../misc/lv_area.h **** };
  76:Drivers/lvgl/src/extra/layouts/grid/../flex/../../../core/../misc/../font/../misc/lv_area.h **** typedef uint8_t lv_align_t;
  77:Drivers/lvgl/src/extra/layouts/grid/../flex/../../../core/../misc/../font/../misc/lv_area.h **** 
  78:Drivers/lvgl/src/extra/layouts/grid/../flex/../../../core/../misc/../font/../misc/lv_area.h **** enum {
  79:Drivers/lvgl/src/extra/layouts/grid/../flex/../../../core/../misc/../font/../misc/lv_area.h ****     LV_DIR_NONE     = 0x00,
  80:Drivers/lvgl/src/extra/layouts/grid/../flex/../../../core/../misc/../font/../misc/lv_area.h ****     LV_DIR_LEFT     = (1 << 0),
  81:Drivers/lvgl/src/extra/layouts/grid/../flex/../../../core/../misc/../font/../misc/lv_area.h ****     LV_DIR_RIGHT    = (1 << 1),
  82:Drivers/lvgl/src/extra/layouts/grid/../flex/../../../core/../misc/../font/../misc/lv_area.h ****     LV_DIR_TOP      = (1 << 2),
  83:Drivers/lvgl/src/extra/layouts/grid/../flex/../../../core/../misc/../font/../misc/lv_area.h ****     LV_DIR_BOTTOM   = (1 << 3),
  84:Drivers/lvgl/src/extra/layouts/grid/../flex/../../../core/../misc/../font/../misc/lv_area.h ****     LV_DIR_HOR      = LV_DIR_LEFT | LV_DIR_RIGHT,
  85:Drivers/lvgl/src/extra/layouts/grid/../flex/../../../core/../misc/../font/../misc/lv_area.h ****     LV_DIR_VER      = LV_DIR_TOP | LV_DIR_BOTTOM,
  86:Drivers/lvgl/src/extra/layouts/grid/../flex/../../../core/../misc/../font/../misc/lv_area.h ****     LV_DIR_ALL      = LV_DIR_HOR | LV_DIR_VER,
  87:Drivers/lvgl/src/extra/layouts/grid/../flex/../../../core/../misc/../font/../misc/lv_area.h **** };
  88:Drivers/lvgl/src/extra/layouts/grid/../flex/../../../core/../misc/../font/../misc/lv_area.h **** 
  89:Drivers/lvgl/src/extra/layouts/grid/../flex/../../../core/../misc/../font/../misc/lv_area.h **** typedef uint8_t lv_dir_t;
  90:Drivers/lvgl/src/extra/layouts/grid/../flex/../../../core/../misc/../font/../misc/lv_area.h **** 
  91:Drivers/lvgl/src/extra/layouts/grid/../flex/../../../core/../misc/../font/../misc/lv_area.h **** /**********************
  92:Drivers/lvgl/src/extra/layouts/grid/../flex/../../../core/../misc/../font/../misc/lv_area.h ****  * GLOBAL PROTOTYPES
  93:Drivers/lvgl/src/extra/layouts/grid/../flex/../../../core/../misc/../font/../misc/lv_area.h ****  **********************/
  94:Drivers/lvgl/src/extra/layouts/grid/../flex/../../../core/../misc/../font/../misc/lv_area.h **** 
  95:Drivers/lvgl/src/extra/layouts/grid/../flex/../../../core/../misc/../font/../misc/lv_area.h **** /**
  96:Drivers/lvgl/src/extra/layouts/grid/../flex/../../../core/../misc/../font/../misc/lv_area.h ****  * Initialize an area
  97:Drivers/lvgl/src/extra/layouts/grid/../flex/../../../core/../misc/../font/../misc/lv_area.h ****  * @param area_p pointer to an area
  98:Drivers/lvgl/src/extra/layouts/grid/../flex/../../../core/../misc/../font/../misc/lv_area.h ****  * @param x1 left coordinate of the area
  99:Drivers/lvgl/src/extra/layouts/grid/../flex/../../../core/../misc/../font/../misc/lv_area.h ****  * @param y1 top coordinate of the area
 100:Drivers/lvgl/src/extra/layouts/grid/../flex/../../../core/../misc/../font/../misc/lv_area.h ****  * @param x2 right coordinate of the area
 101:Drivers/lvgl/src/extra/layouts/grid/../flex/../../../core/../misc/../font/../misc/lv_area.h ****  * @param y2 bottom coordinate of the area
 102:Drivers/lvgl/src/extra/layouts/grid/../flex/../../../core/../misc/../font/../misc/lv_area.h ****  */
 103:Drivers/lvgl/src/extra/layouts/grid/../flex/../../../core/../misc/../font/../misc/lv_area.h **** void lv_area_set(lv_area_t * area_p, lv_coord_t x1, lv_coord_t y1, lv_coord_t x2, lv_coord_t y2);
 104:Drivers/lvgl/src/extra/layouts/grid/../flex/../../../core/../misc/../font/../misc/lv_area.h **** 
 105:Drivers/lvgl/src/extra/layouts/grid/../flex/../../../core/../misc/../font/../misc/lv_area.h **** /**
 106:Drivers/lvgl/src/extra/layouts/grid/../flex/../../../core/../misc/../font/../misc/lv_area.h ****  * Copy an area
 107:Drivers/lvgl/src/extra/layouts/grid/../flex/../../../core/../misc/../font/../misc/lv_area.h ****  * @param dest pointer to the destination area
 108:Drivers/lvgl/src/extra/layouts/grid/../flex/../../../core/../misc/../font/../misc/lv_area.h ****  * @param src pointer to the source area
 109:Drivers/lvgl/src/extra/layouts/grid/../flex/../../../core/../misc/../font/../misc/lv_area.h ****  */
 110:Drivers/lvgl/src/extra/layouts/grid/../flex/../../../core/../misc/../font/../misc/lv_area.h **** inline static void lv_area_copy(lv_area_t * dest, const lv_area_t * src)
 111:Drivers/lvgl/src/extra/layouts/grid/../flex/../../../core/../misc/../font/../misc/lv_area.h **** {
ARM GAS  /var/folders/0z/tsy30v1j4xl4_7kw94k978ww0000gn/T//cclcOfIK.s 			page 45


 112:Drivers/lvgl/src/extra/layouts/grid/../flex/../../../core/../misc/../font/../misc/lv_area.h ****     dest->x1 = src->x1;
 113:Drivers/lvgl/src/extra/layouts/grid/../flex/../../../core/../misc/../font/../misc/lv_area.h ****     dest->y1 = src->y1;
 114:Drivers/lvgl/src/extra/layouts/grid/../flex/../../../core/../misc/../font/../misc/lv_area.h ****     dest->x2 = src->x2;
 115:Drivers/lvgl/src/extra/layouts/grid/../flex/../../../core/../misc/../font/../misc/lv_area.h ****     dest->y2 = src->y2;
 116:Drivers/lvgl/src/extra/layouts/grid/../flex/../../../core/../misc/../font/../misc/lv_area.h **** }
 117:Drivers/lvgl/src/extra/layouts/grid/../flex/../../../core/../misc/../font/../misc/lv_area.h **** 
 118:Drivers/lvgl/src/extra/layouts/grid/../flex/../../../core/../misc/../font/../misc/lv_area.h **** /**
 119:Drivers/lvgl/src/extra/layouts/grid/../flex/../../../core/../misc/../font/../misc/lv_area.h ****  * Get the width of an area
 120:Drivers/lvgl/src/extra/layouts/grid/../flex/../../../core/../misc/../font/../misc/lv_area.h ****  * @param area_p pointer to an area
 121:Drivers/lvgl/src/extra/layouts/grid/../flex/../../../core/../misc/../font/../misc/lv_area.h ****  * @return the width of the area (if x1 == x2 -> width = 1)
 122:Drivers/lvgl/src/extra/layouts/grid/../flex/../../../core/../misc/../font/../misc/lv_area.h ****  */
 123:Drivers/lvgl/src/extra/layouts/grid/../flex/../../../core/../misc/../font/../misc/lv_area.h **** static inline lv_coord_t lv_area_get_width(const lv_area_t * area_p)
 711              		.loc 4 123 26 view .LVU238
 712              	.LBB136:
 124:Drivers/lvgl/src/extra/layouts/grid/../flex/../../../core/../misc/../font/../misc/lv_area.h **** {
 125:Drivers/lvgl/src/extra/layouts/grid/../flex/../../../core/../misc/../font/../misc/lv_area.h ****     return (lv_coord_t)(area_p->x2 - area_p->x1 + 1);
 713              		.loc 4 125 5 view .LVU239
 714              		.loc 4 125 31 is_stmt 0 view .LVU240
 715 00d8 268B     		ldrh	r6, [r4, #24]
 716              		.loc 4 125 44 view .LVU241
 717 00da A38A     		ldrh	r3, [r4, #20]
 718              		.loc 4 125 36 view .LVU242
 719 00dc F61A     		subs	r6, r6, r3
 720 00de B6B2     		uxth	r6, r6
 721              		.loc 4 125 49 view .LVU243
 722 00e0 0136     		adds	r6, r6, #1
 723              		.loc 4 125 12 view .LVU244
 724 00e2 36B2     		sxth	r6, r6
 725              	.LVL83:
 726              		.loc 4 125 12 view .LVU245
 727              	.LBE136:
 728              	.LBE135:
 613:Drivers/lvgl/src/extra/layouts/grid/lv_grid.c **** 
 729              		.loc 1 613 5 is_stmt 1 view .LVU246
 730              	.LBB137:
 731              	.LBI137:
 126:Drivers/lvgl/src/extra/layouts/grid/../flex/../../../core/../misc/../font/../misc/lv_area.h **** }
 127:Drivers/lvgl/src/extra/layouts/grid/../flex/../../../core/../misc/../font/../misc/lv_area.h **** 
 128:Drivers/lvgl/src/extra/layouts/grid/../flex/../../../core/../misc/../font/../misc/lv_area.h **** /**
 129:Drivers/lvgl/src/extra/layouts/grid/../flex/../../../core/../misc/../font/../misc/lv_area.h ****  * Get the height of an area
 130:Drivers/lvgl/src/extra/layouts/grid/../flex/../../../core/../misc/../font/../misc/lv_area.h ****  * @param area_p pointer to an area
 131:Drivers/lvgl/src/extra/layouts/grid/../flex/../../../core/../misc/../font/../misc/lv_area.h ****  * @return the height of the area (if y1 == y2 -> height = 1)
 132:Drivers/lvgl/src/extra/layouts/grid/../flex/../../../core/../misc/../font/../misc/lv_area.h ****  */
 133:Drivers/lvgl/src/extra/layouts/grid/../flex/../../../core/../misc/../font/../misc/lv_area.h **** static inline lv_coord_t lv_area_get_height(const lv_area_t * area_p)
 732              		.loc 4 133 26 view .LVU247
 733              	.LBB138:
 134:Drivers/lvgl/src/extra/layouts/grid/../flex/../../../core/../misc/../font/../misc/lv_area.h **** {
 135:Drivers/lvgl/src/extra/layouts/grid/../flex/../../../core/../misc/../font/../misc/lv_area.h ****     return (lv_coord_t)(area_p->y2 - area_p->y1 + 1);
 734              		.loc 4 135 5 view .LVU248
 735              		.loc 4 135 31 is_stmt 0 view .LVU249
 736 00e4 678B     		ldrh	r7, [r4, #26]
 737              		.loc 4 135 44 view .LVU250
 738 00e6 E38A     		ldrh	r3, [r4, #22]
 739              		.loc 4 135 36 view .LVU251
 740 00e8 FF1A     		subs	r7, r7, r3
 741 00ea BFB2     		uxth	r7, r7
 742              		.loc 4 135 49 view .LVU252
ARM GAS  /var/folders/0z/tsy30v1j4xl4_7kw94k978ww0000gn/T//cclcOfIK.s 			page 46


 743 00ec 0137     		adds	r7, r7, #1
 744              		.loc 4 135 12 view .LVU253
 745 00ee 3FB2     		sxth	r7, r7
 746              	.LVL84:
 747              		.loc 4 135 12 view .LVU254
 748              	.LBE138:
 749              	.LBE137:
 615:Drivers/lvgl/src/extra/layouts/grid/lv_grid.c ****         default:
 750              		.loc 1 615 5 is_stmt 1 view .LVU255
 751 00f0 B8F1020F 		cmp	r8, #2
 752 00f4 00F0DA80 		beq	.L30
 753 00f8 B8F1030F 		cmp	r8, #3
 754 00fc 00F0B980 		beq	.L31
 755 0100 B8F1010F 		cmp	r8, #1
 756 0104 00F0C080 		beq	.L32
 618:Drivers/lvgl/src/extra/layouts/grid/lv_grid.c ****             item->w_layout = 0;
 757              		.loc 1 618 13 view .LVU256
 618:Drivers/lvgl/src/extra/layouts/grid/lv_grid.c ****             item->w_layout = 0;
 758              		.loc 1 618 18 is_stmt 0 view .LVU257
 759 0108 2B68     		ldr	r3, [r5]
 618:Drivers/lvgl/src/extra/layouts/grid/lv_grid.c ****             item->w_layout = 0;
 760              		.loc 1 618 15 view .LVU258
 761 010a 33F91B80 		ldrsh	r8, [r3, fp, lsl #1]
 762              	.LVL85:
 619:Drivers/lvgl/src/extra/layouts/grid/lv_grid.c ****             break;
 763              		.loc 1 619 13 is_stmt 1 view .LVU259
 619:Drivers/lvgl/src/extra/layouts/grid/lv_grid.c ****             break;
 764              		.loc 1 619 28 is_stmt 0 view .LVU260
 765 010e 94F82330 		ldrb	r3, [r4, #35]	@ zero_extendqisi2
 766 0112 6FF3C303 		bfc	r3, #3, #1
 767 0116 84F82330 		strb	r3, [r4, #35]
 768              	.LVL86:
 620:Drivers/lvgl/src/extra/layouts/grid/lv_grid.c ****         case LV_GRID_ALIGN_STRETCH:
 769              		.loc 1 620 13 is_stmt 1 view .LVU261
 770              	.L33:
 636:Drivers/lvgl/src/extra/layouts/grid/lv_grid.c ****         default:
 771              		.loc 1 636 5 view .LVU262
 772 011a B9F1020F 		cmp	r9, #2
 773 011e 00F00581 		beq	.L34
 636:Drivers/lvgl/src/extra/layouts/grid/lv_grid.c ****         default:
 774              		.loc 1 636 5 is_stmt 0 view .LVU263
 775 0122 B9F1030F 		cmp	r9, #3
 776 0126 00F0D780 		beq	.L35
 777 012a B9F1010F 		cmp	r9, #1
 778 012e 00F0DE80 		beq	.L36
 639:Drivers/lvgl/src/extra/layouts/grid/lv_grid.c ****             item->h_layout = 0;
 779              		.loc 1 639 13 is_stmt 1 view .LVU264
 639:Drivers/lvgl/src/extra/layouts/grid/lv_grid.c ****             item->h_layout = 0;
 780              		.loc 1 639 18 is_stmt 0 view .LVU265
 781 0132 6B68     		ldr	r3, [r5, #4]
 639:Drivers/lvgl/src/extra/layouts/grid/lv_grid.c ****             item->h_layout = 0;
 782              		.loc 1 639 15 view .LVU266
 783 0134 33F91A50 		ldrsh	r5, [r3, r10, lsl #1]
 784              	.LVL87:
 640:Drivers/lvgl/src/extra/layouts/grid/lv_grid.c ****             break;
 785              		.loc 1 640 13 is_stmt 1 view .LVU267
 640:Drivers/lvgl/src/extra/layouts/grid/lv_grid.c ****             break;
ARM GAS  /var/folders/0z/tsy30v1j4xl4_7kw94k978ww0000gn/T//cclcOfIK.s 			page 47


 786              		.loc 1 640 28 is_stmt 0 view .LVU268
 787 0138 94F82330 		ldrb	r3, [r4, #35]	@ zero_extendqisi2
 788 013c 6FF38203 		bfc	r3, #2, #1
 789 0140 84F82330 		strb	r3, [r4, #35]
 641:Drivers/lvgl/src/extra/layouts/grid/lv_grid.c ****         case LV_GRID_ALIGN_STRETCH:
 790              		.loc 1 641 13 is_stmt 1 view .LVU269
 791              	.LVL88:
 792              	.L37:
 658:Drivers/lvgl/src/extra/layouts/grid/lv_grid.c ****         lv_area_t old_coords;
 793              		.loc 1 658 5 view .LVU270
 658:Drivers/lvgl/src/extra/layouts/grid/lv_grid.c ****         lv_area_t old_coords;
 794              		.loc 1 658 8 is_stmt 0 view .LVU271
 795 0144 2046     		mov	r0, r4
 796 0146 FFF7FEFF 		bl	lv_obj_get_width
 797              	.LVL89:
 658:Drivers/lvgl/src/extra/layouts/grid/lv_grid.c ****         lv_area_t old_coords;
 798              		.loc 1 658 7 view .LVU272
 799 014a B042     		cmp	r0, r6
 800 014c 00F00181 		beq	.L52
 801              	.L38:
 802              	.LBB139:
 659:Drivers/lvgl/src/extra/layouts/grid/lv_grid.c ****         lv_area_copy(&old_coords, &item->coords);
 803              		.loc 1 659 9 is_stmt 1 view .LVU273
 660:Drivers/lvgl/src/extra/layouts/grid/lv_grid.c ****         lv_obj_invalidate(item);
 804              		.loc 1 660 9 view .LVU274
 805              	.LVL90:
 806              	.LBB140:
 807              	.LBI140:
 110:Drivers/lvgl/src/extra/layouts/grid/../flex/../../../core/../misc/../font/../misc/lv_area.h **** {
 808              		.loc 4 110 20 view .LVU275
 809              	.LBB141:
 112:Drivers/lvgl/src/extra/layouts/grid/../flex/../../../core/../misc/../font/../misc/lv_area.h ****     dest->y1 = src->y1;
 810              		.loc 4 112 5 view .LVU276
 112:Drivers/lvgl/src/extra/layouts/grid/../flex/../../../core/../misc/../font/../misc/lv_area.h ****     dest->y1 = src->y1;
 811              		.loc 4 112 19 is_stmt 0 view .LVU277
 812 0150 B4F91430 		ldrsh	r3, [r4, #20]
 112:Drivers/lvgl/src/extra/layouts/grid/../flex/../../../core/../misc/../font/../misc/lv_area.h ****     dest->y1 = src->y1;
 813              		.loc 4 112 14 view .LVU278
 814 0154 ADF81830 		strh	r3, [sp, #24]	@ movhi
 113:Drivers/lvgl/src/extra/layouts/grid/../flex/../../../core/../misc/../font/../misc/lv_area.h ****     dest->x2 = src->x2;
 815              		.loc 4 113 5 is_stmt 1 view .LVU279
 113:Drivers/lvgl/src/extra/layouts/grid/../flex/../../../core/../misc/../font/../misc/lv_area.h ****     dest->x2 = src->x2;
 816              		.loc 4 113 19 is_stmt 0 view .LVU280
 817 0158 B4F91630 		ldrsh	r3, [r4, #22]
 113:Drivers/lvgl/src/extra/layouts/grid/../flex/../../../core/../misc/../font/../misc/lv_area.h ****     dest->x2 = src->x2;
 818              		.loc 4 113 14 view .LVU281
 819 015c ADF81A30 		strh	r3, [sp, #26]	@ movhi
 114:Drivers/lvgl/src/extra/layouts/grid/../flex/../../../core/../misc/../font/../misc/lv_area.h ****     dest->y2 = src->y2;
 820              		.loc 4 114 5 is_stmt 1 view .LVU282
 114:Drivers/lvgl/src/extra/layouts/grid/../flex/../../../core/../misc/../font/../misc/lv_area.h ****     dest->y2 = src->y2;
 821              		.loc 4 114 19 is_stmt 0 view .LVU283
 822 0160 B4F91830 		ldrsh	r3, [r4, #24]
 114:Drivers/lvgl/src/extra/layouts/grid/../flex/../../../core/../misc/../font/../misc/lv_area.h ****     dest->y2 = src->y2;
 823              		.loc 4 114 14 view .LVU284
 824 0164 ADF81C30 		strh	r3, [sp, #28]	@ movhi
 115:Drivers/lvgl/src/extra/layouts/grid/../flex/../../../core/../misc/../font/../misc/lv_area.h **** }
 825              		.loc 4 115 5 is_stmt 1 view .LVU285
ARM GAS  /var/folders/0z/tsy30v1j4xl4_7kw94k978ww0000gn/T//cclcOfIK.s 			page 48


 115:Drivers/lvgl/src/extra/layouts/grid/../flex/../../../core/../misc/../font/../misc/lv_area.h **** }
 826              		.loc 4 115 19 is_stmt 0 view .LVU286
 827 0168 B4F91A30 		ldrsh	r3, [r4, #26]
 115:Drivers/lvgl/src/extra/layouts/grid/../flex/../../../core/../misc/../font/../misc/lv_area.h **** }
 828              		.loc 4 115 14 view .LVU287
 829 016c ADF81E30 		strh	r3, [sp, #30]	@ movhi
 830              	.LVL91:
 115:Drivers/lvgl/src/extra/layouts/grid/../flex/../../../core/../misc/../font/../misc/lv_area.h **** }
 831              		.loc 4 115 14 view .LVU288
 832              	.LBE141:
 833              	.LBE140:
 661:Drivers/lvgl/src/extra/layouts/grid/lv_grid.c ****         lv_area_set_width(&item->coords, item_w);
 834              		.loc 1 661 9 is_stmt 1 view .LVU289
 835 0170 2046     		mov	r0, r4
 836 0172 FFF7FEFF 		bl	lv_obj_invalidate
 837              	.LVL92:
 662:Drivers/lvgl/src/extra/layouts/grid/lv_grid.c ****         lv_area_set_height(&item->coords, item_h);
 838              		.loc 1 662 9 view .LVU290
 839 0176 04F11403 		add	r3, r4, #20
 840 017a 3146     		mov	r1, r6
 841 017c 1E46     		mov	r6, r3
 842              	.LVL93:
 662:Drivers/lvgl/src/extra/layouts/grid/lv_grid.c ****         lv_area_set_height(&item->coords, item_h);
 843              		.loc 1 662 9 is_stmt 0 view .LVU291
 844 017e 1846     		mov	r0, r3
 845 0180 FFF7FEFF 		bl	lv_area_set_width
 846              	.LVL94:
 663:Drivers/lvgl/src/extra/layouts/grid/lv_grid.c ****         lv_obj_invalidate(item);
 847              		.loc 1 663 9 is_stmt 1 view .LVU292
 848 0184 3946     		mov	r1, r7
 849 0186 3046     		mov	r0, r6
 850 0188 FFF7FEFF 		bl	lv_area_set_height
 851              	.LVL95:
 664:Drivers/lvgl/src/extra/layouts/grid/lv_grid.c ****         lv_event_send(item, LV_EVENT_SIZE_CHANGED, &old_coords);
 852              		.loc 1 664 9 view .LVU293
 853 018c 2046     		mov	r0, r4
 854 018e FFF7FEFF 		bl	lv_obj_invalidate
 855              	.LVL96:
 665:Drivers/lvgl/src/extra/layouts/grid/lv_grid.c ****         lv_event_send(lv_obj_get_parent(item), LV_EVENT_CHILD_CHANGED, item);
 856              		.loc 1 665 9 view .LVU294
 857 0192 06AA     		add	r2, sp, #24
 858 0194 2921     		movs	r1, #41
 859 0196 2046     		mov	r0, r4
 860 0198 FFF7FEFF 		bl	lv_event_send
 861              	.LVL97:
 666:Drivers/lvgl/src/extra/layouts/grid/lv_grid.c **** 
 862              		.loc 1 666 9 view .LVU295
 863 019c 2046     		mov	r0, r4
 864 019e FFF7FEFF 		bl	lv_obj_get_parent
 865              	.LVL98:
 866 01a2 2246     		mov	r2, r4
 867 01a4 2221     		movs	r1, #34
 868 01a6 FFF7FEFF 		bl	lv_event_send
 869              	.LVL99:
 870              	.L39:
 666:Drivers/lvgl/src/extra/layouts/grid/lv_grid.c **** 
 871              		.loc 1 666 9 is_stmt 0 view .LVU296
ARM GAS  /var/folders/0z/tsy30v1j4xl4_7kw94k978ww0000gn/T//cclcOfIK.s 			page 49


 872              	.LBE139:
 671:Drivers/lvgl/src/extra/layouts/grid/lv_grid.c ****     lv_coord_t tr_y = lv_obj_get_style_translate_y(item, LV_PART_MAIN);
 873              		.loc 1 671 5 is_stmt 1 view .LVU297
 874              	.LBB142:
 875              	.LBI142:
  67:Drivers/lvgl/src/extra/layouts/grid/../flex/../../../core/lv_obj_style_gen.h **** {
 876              		.loc 3 67 26 view .LVU298
 877              	.LBB143:
  69:Drivers/lvgl/src/extra/layouts/grid/../flex/../../../core/lv_obj_style_gen.h ****     return (lv_coord_t)v.num;
 878              		.loc 3 69 5 view .LVU299
  69:Drivers/lvgl/src/extra/layouts/grid/../flex/../../../core/lv_obj_style_gen.h ****     return (lv_coord_t)v.num;
 879              		.loc 3 69 26 is_stmt 0 view .LVU300
 880 01aa 6B22     		movs	r2, #107
 881 01ac 0021     		movs	r1, #0
 882 01ae 2046     		mov	r0, r4
 883 01b0 FFF7FEFF 		bl	lv_obj_get_style_prop
 884              	.LVL100:
 885 01b4 0746     		mov	r7, r0
 886              	.LVL101:
  70:Drivers/lvgl/src/extra/layouts/grid/../flex/../../../core/lv_obj_style_gen.h **** }
 887              		.loc 3 70 5 is_stmt 1 view .LVU301
  70:Drivers/lvgl/src/extra/layouts/grid/../flex/../../../core/lv_obj_style_gen.h **** }
 888              		.loc 3 70 12 is_stmt 0 view .LVU302
 889 01b6 0FFA80FA 		sxth	r10, r0
 890              	.LVL102:
  70:Drivers/lvgl/src/extra/layouts/grid/../flex/../../../core/lv_obj_style_gen.h **** }
 891              		.loc 3 70 12 view .LVU303
 892              	.LBE143:
 893              	.LBE142:
 672:Drivers/lvgl/src/extra/layouts/grid/lv_grid.c ****     lv_coord_t w = lv_obj_get_width(item);
 894              		.loc 1 672 5 is_stmt 1 view .LVU304
 895              	.LBB144:
 896              	.LBI144:
  73:Drivers/lvgl/src/extra/layouts/grid/../flex/../../../core/lv_obj_style_gen.h **** {
 897              		.loc 3 73 26 view .LVU305
 898              	.LBB145:
  75:Drivers/lvgl/src/extra/layouts/grid/../flex/../../../core/lv_obj_style_gen.h ****     return (lv_coord_t)v.num;
 899              		.loc 3 75 5 view .LVU306
  75:Drivers/lvgl/src/extra/layouts/grid/../flex/../../../core/lv_obj_style_gen.h ****     return (lv_coord_t)v.num;
 900              		.loc 3 75 26 is_stmt 0 view .LVU307
 901 01ba 6C22     		movs	r2, #108
 902 01bc 0021     		movs	r1, #0
 903 01be 2046     		mov	r0, r4
  75:Drivers/lvgl/src/extra/layouts/grid/../flex/../../../core/lv_obj_style_gen.h ****     return (lv_coord_t)v.num;
 904              		.loc 3 75 26 view .LVU308
 905 01c0 FFF7FEFF 		bl	lv_obj_get_style_prop
 906              	.LVL103:
 907 01c4 0646     		mov	r6, r0
  76:Drivers/lvgl/src/extra/layouts/grid/../flex/../../../core/lv_obj_style_gen.h **** }
 908              		.loc 3 76 5 is_stmt 1 view .LVU309
  76:Drivers/lvgl/src/extra/layouts/grid/../flex/../../../core/lv_obj_style_gen.h **** }
 909              		.loc 3 76 12 is_stmt 0 view .LVU310
 910 01c6 0FFA80F9 		sxth	r9, r0
 911              	.LVL104:
  76:Drivers/lvgl/src/extra/layouts/grid/../flex/../../../core/lv_obj_style_gen.h **** }
 912              		.loc 3 76 12 view .LVU311
 913              	.LBE145:
ARM GAS  /var/folders/0z/tsy30v1j4xl4_7kw94k978ww0000gn/T//cclcOfIK.s 			page 50


 914              	.LBE144:
 673:Drivers/lvgl/src/extra/layouts/grid/lv_grid.c ****     lv_coord_t h = lv_obj_get_height(item);
 915              		.loc 1 673 5 is_stmt 1 view .LVU312
 673:Drivers/lvgl/src/extra/layouts/grid/lv_grid.c ****     lv_coord_t h = lv_obj_get_height(item);
 916              		.loc 1 673 20 is_stmt 0 view .LVU313
 917 01ca 2046     		mov	r0, r4
 918 01cc FFF7FEFF 		bl	lv_obj_get_width
 919              	.LVL105:
 920 01d0 8346     		mov	fp, r0
 921              	.LVL106:
 674:Drivers/lvgl/src/extra/layouts/grid/lv_grid.c ****     if(LV_COORD_IS_PCT(tr_x)) tr_x = (w * LV_COORD_GET_PCT(tr_x)) / 100;
 922              		.loc 1 674 5 is_stmt 1 view .LVU314
 674:Drivers/lvgl/src/extra/layouts/grid/lv_grid.c ****     if(LV_COORD_IS_PCT(tr_x)) tr_x = (w * LV_COORD_GET_PCT(tr_x)) / 100;
 923              		.loc 1 674 20 is_stmt 0 view .LVU315
 924 01d2 2046     		mov	r0, r4
 925 01d4 FFF7FEFF 		bl	lv_obj_get_height
 926              	.LVL107:
 675:Drivers/lvgl/src/extra/layouts/grid/lv_grid.c ****     if(LV_COORD_IS_PCT(tr_y)) tr_y = (h * LV_COORD_GET_PCT(tr_y)) / 100;
 927              		.loc 1 675 5 is_stmt 1 view .LVU316
 675:Drivers/lvgl/src/extra/layouts/grid/lv_grid.c ****     if(LV_COORD_IS_PCT(tr_y)) tr_y = (h * LV_COORD_GET_PCT(tr_y)) / 100;
 928              		.loc 1 675 8 is_stmt 0 view .LVU317
 929 01d8 07F4C047 		and	r7, r7, #24576
 930              	.LVL108:
 675:Drivers/lvgl/src/extra/layouts/grid/lv_grid.c ****     if(LV_COORD_IS_PCT(tr_y)) tr_y = (h * LV_COORD_GET_PCT(tr_y)) / 100;
 931              		.loc 1 675 7 view .LVU318
 932 01dc B7F5005F 		cmp	r7, #8192
 933 01e0 00F0BE80 		beq	.L53
 934              	.LVL109:
 935              	.L40:
 676:Drivers/lvgl/src/extra/layouts/grid/lv_grid.c **** 
 936              		.loc 1 676 5 is_stmt 1 view .LVU319
 676:Drivers/lvgl/src/extra/layouts/grid/lv_grid.c **** 
 937              		.loc 1 676 8 is_stmt 0 view .LVU320
 938 01e4 06F4C046 		and	r6, r6, #24576
 676:Drivers/lvgl/src/extra/layouts/grid/lv_grid.c **** 
 939              		.loc 1 676 7 view .LVU321
 940 01e8 B6F5005F 		cmp	r6, #8192
 941 01ec 00F0CF80 		beq	.L54
 942              	.LVL110:
 943              	.L43:
 678:Drivers/lvgl/src/extra/layouts/grid/lv_grid.c ****     y += tr_y;
 944              		.loc 1 678 5 is_stmt 1 view .LVU322
 678:Drivers/lvgl/src/extra/layouts/grid/lv_grid.c ****     y += tr_y;
 945              		.loc 1 678 7 is_stmt 0 view .LVU323
 946 01f0 08EB0A06 		add	r6, r8, r10
 947              	.LVL111:
 679:Drivers/lvgl/src/extra/layouts/grid/lv_grid.c **** 
 948              		.loc 1 679 5 is_stmt 1 view .LVU324
 679:Drivers/lvgl/src/extra/layouts/grid/lv_grid.c **** 
 949              		.loc 1 679 7 is_stmt 0 view .LVU325
 950 01f4 05EB0902 		add	r2, r5, r9
 951              	.LVL112:
 681:Drivers/lvgl/src/extra/layouts/grid/lv_grid.c ****     lv_coord_t diff_y = hint->grid_abs.y + y - item->coords.y1;
 952              		.loc 1 681 5 is_stmt 1 view .LVU326
 681:Drivers/lvgl/src/extra/layouts/grid/lv_grid.c ****     lv_coord_t diff_y = hint->grid_abs.y + y - item->coords.y1;
 953              		.loc 1 681 39 is_stmt 0 view .LVU327
 954 01f8 0199     		ldr	r1, [sp, #4]
ARM GAS  /var/folders/0z/tsy30v1j4xl4_7kw94k978ww0000gn/T//cclcOfIK.s 			page 51


 955 01fa 0B89     		ldrh	r3, [r1, #8]
 681:Drivers/lvgl/src/extra/layouts/grid/lv_grid.c ****     lv_coord_t diff_y = hint->grid_abs.y + y - item->coords.y1;
 956              		.loc 1 681 42 view .LVU328
 957 01fc 13FA86F6 		uxtah	r6, r3, r6
 958              	.LVL113:
 681:Drivers/lvgl/src/extra/layouts/grid/lv_grid.c ****     lv_coord_t diff_y = hint->grid_abs.y + y - item->coords.y1;
 959              		.loc 1 681 42 view .LVU329
 960 0200 B6B2     		uxth	r6, r6
 681:Drivers/lvgl/src/extra/layouts/grid/lv_grid.c ****     lv_coord_t diff_y = hint->grid_abs.y + y - item->coords.y1;
 961              		.loc 1 681 60 view .LVU330
 962 0202 A38A     		ldrh	r3, [r4, #20]
 681:Drivers/lvgl/src/extra/layouts/grid/lv_grid.c ****     lv_coord_t diff_y = hint->grid_abs.y + y - item->coords.y1;
 963              		.loc 1 681 46 view .LVU331
 964 0204 F61A     		subs	r6, r6, r3
 965 0206 B7B2     		uxth	r7, r6
 681:Drivers/lvgl/src/extra/layouts/grid/lv_grid.c ****     lv_coord_t diff_y = hint->grid_abs.y + y - item->coords.y1;
 966              		.loc 1 681 16 view .LVU332
 967 0208 36B2     		sxth	r6, r6
 968              	.LVL114:
 682:Drivers/lvgl/src/extra/layouts/grid/lv_grid.c ****     if(diff_x || diff_y) {
 969              		.loc 1 682 5 is_stmt 1 view .LVU333
 682:Drivers/lvgl/src/extra/layouts/grid/lv_grid.c ****     if(diff_x || diff_y) {
 970              		.loc 1 682 39 is_stmt 0 view .LVU334
 971 020a 4B89     		ldrh	r3, [r1, #10]
 682:Drivers/lvgl/src/extra/layouts/grid/lv_grid.c ****     if(diff_x || diff_y) {
 972              		.loc 1 682 42 view .LVU335
 973 020c 13FA82F2 		uxtah	r2, r3, r2
 974              	.LVL115:
 682:Drivers/lvgl/src/extra/layouts/grid/lv_grid.c ****     if(diff_x || diff_y) {
 975              		.loc 1 682 42 view .LVU336
 976 0210 92B2     		uxth	r2, r2
 682:Drivers/lvgl/src/extra/layouts/grid/lv_grid.c ****     if(diff_x || diff_y) {
 977              		.loc 1 682 60 view .LVU337
 978 0212 E38A     		ldrh	r3, [r4, #22]
 682:Drivers/lvgl/src/extra/layouts/grid/lv_grid.c ****     if(diff_x || diff_y) {
 979              		.loc 1 682 46 view .LVU338
 980 0214 D21A     		subs	r2, r2, r3
 981 0216 1FFA82F8 		uxth	r8, r2
 982              	.LVL116:
 682:Drivers/lvgl/src/extra/layouts/grid/lv_grid.c ****     if(diff_x || diff_y) {
 983              		.loc 1 682 16 view .LVU339
 984 021a 15B2     		sxth	r5, r2
 985              	.LVL117:
 683:Drivers/lvgl/src/extra/layouts/grid/lv_grid.c ****         lv_obj_invalidate(item);
 986              		.loc 1 683 5 is_stmt 1 view .LVU340
 683:Drivers/lvgl/src/extra/layouts/grid/lv_grid.c ****         lv_obj_invalidate(item);
 987              		.loc 1 683 7 is_stmt 0 view .LVU341
 988 021c 16B9     		cbnz	r6, .L46
 683:Drivers/lvgl/src/extra/layouts/grid/lv_grid.c ****         lv_obj_invalidate(item);
 989              		.loc 1 683 15 discriminator 1 view .LVU342
 990 021e 002D     		cmp	r5, #0
 991 0220 3FF4F8AE 		beq	.L27
 992              	.L46:
 684:Drivers/lvgl/src/extra/layouts/grid/lv_grid.c ****         item->coords.x1 += diff_x;
 993              		.loc 1 684 9 is_stmt 1 view .LVU343
 994 0224 2046     		mov	r0, r4
 995 0226 FFF7FEFF 		bl	lv_obj_invalidate
ARM GAS  /var/folders/0z/tsy30v1j4xl4_7kw94k978ww0000gn/T//cclcOfIK.s 			page 52


 996              	.LVL118:
 685:Drivers/lvgl/src/extra/layouts/grid/lv_grid.c ****         item->coords.x2 += diff_x;
 997              		.loc 1 685 9 view .LVU344
 685:Drivers/lvgl/src/extra/layouts/grid/lv_grid.c ****         item->coords.x2 += diff_x;
 998              		.loc 1 685 25 is_stmt 0 view .LVU345
 999 022a A38A     		ldrh	r3, [r4, #20]
 1000 022c 3B44     		add	r3, r3, r7
 1001 022e A382     		strh	r3, [r4, #20]	@ movhi
 686:Drivers/lvgl/src/extra/layouts/grid/lv_grid.c ****         item->coords.y1 += diff_y;
 1002              		.loc 1 686 9 is_stmt 1 view .LVU346
 686:Drivers/lvgl/src/extra/layouts/grid/lv_grid.c ****         item->coords.y1 += diff_y;
 1003              		.loc 1 686 25 is_stmt 0 view .LVU347
 1004 0230 238B     		ldrh	r3, [r4, #24]
 1005 0232 1F44     		add	r7, r7, r3
 1006 0234 2783     		strh	r7, [r4, #24]	@ movhi
 687:Drivers/lvgl/src/extra/layouts/grid/lv_grid.c ****         item->coords.y2 += diff_y;
 1007              		.loc 1 687 9 is_stmt 1 view .LVU348
 687:Drivers/lvgl/src/extra/layouts/grid/lv_grid.c ****         item->coords.y2 += diff_y;
 1008              		.loc 1 687 25 is_stmt 0 view .LVU349
 1009 0236 E38A     		ldrh	r3, [r4, #22]
 1010 0238 4344     		add	r3, r3, r8
 1011 023a E382     		strh	r3, [r4, #22]	@ movhi
 688:Drivers/lvgl/src/extra/layouts/grid/lv_grid.c ****         lv_obj_invalidate(item);
 1012              		.loc 1 688 9 is_stmt 1 view .LVU350
 688:Drivers/lvgl/src/extra/layouts/grid/lv_grid.c ****         lv_obj_invalidate(item);
 1013              		.loc 1 688 25 is_stmt 0 view .LVU351
 1014 023c 638B     		ldrh	r3, [r4, #26]
 1015 023e 9844     		add	r8, r8, r3
 1016 0240 A4F81A80 		strh	r8, [r4, #26]	@ movhi
 689:Drivers/lvgl/src/extra/layouts/grid/lv_grid.c ****         lv_obj_move_children_by(item, diff_x, diff_y, false);
 1017              		.loc 1 689 9 is_stmt 1 view .LVU352
 1018 0244 2046     		mov	r0, r4
 1019 0246 FFF7FEFF 		bl	lv_obj_invalidate
 1020              	.LVL119:
 690:Drivers/lvgl/src/extra/layouts/grid/lv_grid.c ****     }
 1021              		.loc 1 690 9 view .LVU353
 1022 024a 0023     		movs	r3, #0
 1023 024c 2A46     		mov	r2, r5
 1024 024e 3146     		mov	r1, r6
 1025 0250 2046     		mov	r0, r4
 1026 0252 FFF7FEFF 		bl	lv_obj_move_children_by
 1027              	.LVL120:
 1028 0256 DDE6     		b	.L27
 1029              	.LVL121:
 1030              	.L51:
 606:Drivers/lvgl/src/extra/layouts/grid/lv_grid.c ****         else if(col_align == LV_GRID_ALIGN_END) col_align = LV_GRID_ALIGN_START;
 1031              		.loc 1 606 9 view .LVU354
 606:Drivers/lvgl/src/extra/layouts/grid/lv_grid.c ****         else if(col_align == LV_GRID_ALIGN_END) col_align = LV_GRID_ALIGN_START;
 1032              		.loc 1 606 11 is_stmt 0 view .LVU355
 1033 0258 B8F1000F 		cmp	r8, #0
 1034 025c 06D0     		beq	.L47
 607:Drivers/lvgl/src/extra/layouts/grid/lv_grid.c ****     }
 1035              		.loc 1 607 14 is_stmt 1 view .LVU356
 607:Drivers/lvgl/src/extra/layouts/grid/lv_grid.c ****     }
 1036              		.loc 1 607 16 is_stmt 0 view .LVU357
 1037 025e B8F1020F 		cmp	r8, #2
 1038 0262 7FF439AF 		bne	.L29
ARM GAS  /var/folders/0z/tsy30v1j4xl4_7kw94k978ww0000gn/T//cclcOfIK.s 			page 53


 607:Drivers/lvgl/src/extra/layouts/grid/lv_grid.c ****     }
 1039              		.loc 1 607 59 view .LVU358
 1040 0266 4FF00008 		mov	r8, #0
 1041              	.LVL122:
 607:Drivers/lvgl/src/extra/layouts/grid/lv_grid.c ****     }
 1042              		.loc 1 607 59 view .LVU359
 1043 026a 35E7     		b	.L29
 1044              	.LVL123:
 1045              	.L47:
 606:Drivers/lvgl/src/extra/layouts/grid/lv_grid.c ****         else if(col_align == LV_GRID_ALIGN_END) col_align = LV_GRID_ALIGN_START;
 1046              		.loc 1 606 56 view .LVU360
 1047 026c 4FF00208 		mov	r8, #2
 1048              	.LVL124:
 606:Drivers/lvgl/src/extra/layouts/grid/lv_grid.c ****         else if(col_align == LV_GRID_ALIGN_END) col_align = LV_GRID_ALIGN_START;
 1049              		.loc 1 606 56 view .LVU361
 1050 0270 32E7     		b	.L29
 1051              	.LVL125:
 1052              	.L31:
 622:Drivers/lvgl/src/extra/layouts/grid/lv_grid.c ****             item_w = col_w;
 1053              		.loc 1 622 13 is_stmt 1 view .LVU362
 622:Drivers/lvgl/src/extra/layouts/grid/lv_grid.c ****             item_w = col_w;
 1054              		.loc 1 622 18 is_stmt 0 view .LVU363
 1055 0272 2B68     		ldr	r3, [r5]
 622:Drivers/lvgl/src/extra/layouts/grid/lv_grid.c ****             item_w = col_w;
 1056              		.loc 1 622 15 view .LVU364
 1057 0274 33F91B80 		ldrsh	r8, [r3, fp, lsl #1]
 1058              	.LVL126:
 623:Drivers/lvgl/src/extra/layouts/grid/lv_grid.c ****             item->w_layout = 1;
 1059              		.loc 1 623 13 is_stmt 1 view .LVU365
 624:Drivers/lvgl/src/extra/layouts/grid/lv_grid.c ****             break;
 1060              		.loc 1 624 13 view .LVU366
 624:Drivers/lvgl/src/extra/layouts/grid/lv_grid.c ****             break;
 1061              		.loc 1 624 28 is_stmt 0 view .LVU367
 1062 0278 94F82330 		ldrb	r3, [r4, #35]	@ zero_extendqisi2
 1063 027c 43F00803 		orr	r3, r3, #8
 1064 0280 84F82330 		strb	r3, [r4, #35]
 1065              	.LVL127:
 625:Drivers/lvgl/src/extra/layouts/grid/lv_grid.c ****         case LV_GRID_ALIGN_CENTER:
 1066              		.loc 1 625 13 is_stmt 1 view .LVU368
 623:Drivers/lvgl/src/extra/layouts/grid/lv_grid.c ****             item->w_layout = 1;
 1067              		.loc 1 623 20 is_stmt 0 view .LVU369
 1068 0284 029E     		ldr	r6, [sp, #8]
 625:Drivers/lvgl/src/extra/layouts/grid/lv_grid.c ****         case LV_GRID_ALIGN_CENTER:
 1069              		.loc 1 625 13 view .LVU370
 1070 0286 48E7     		b	.L33
 1071              	.LVL128:
 1072              	.L32:
 627:Drivers/lvgl/src/extra/layouts/grid/lv_grid.c ****             item->w_layout = 0;
 1073              		.loc 1 627 13 is_stmt 1 view .LVU371
 627:Drivers/lvgl/src/extra/layouts/grid/lv_grid.c ****             item->w_layout = 0;
 1074              		.loc 1 627 18 is_stmt 0 view .LVU372
 1075 0288 2B68     		ldr	r3, [r5]
 627:Drivers/lvgl/src/extra/layouts/grid/lv_grid.c ****             item->w_layout = 0;
 1076              		.loc 1 627 21 view .LVU373
 1077 028a 33F81B80 		ldrh	r8, [r3, fp, lsl #1]
 1078              	.LVL129:
 627:Drivers/lvgl/src/extra/layouts/grid/lv_grid.c ****             item->w_layout = 0;
ARM GAS  /var/folders/0z/tsy30v1j4xl4_7kw94k978ww0000gn/T//cclcOfIK.s 			page 54


 1079              		.loc 1 627 40 view .LVU374
 1080 028e 029B     		ldr	r3, [sp, #8]
 1081 0290 9B1B     		subs	r3, r3, r6
 627:Drivers/lvgl/src/extra/layouts/grid/lv_grid.c ****             item->w_layout = 0;
 1082              		.loc 1 627 50 view .LVU375
 1083 0292 03EBD373 		add	r3, r3, r3, lsr #31
 627:Drivers/lvgl/src/extra/layouts/grid/lv_grid.c ****             item->w_layout = 0;
 1084              		.loc 1 627 31 view .LVU376
 1085 0296 08EB6308 		add	r8, r8, r3, asr #1
 627:Drivers/lvgl/src/extra/layouts/grid/lv_grid.c ****             item->w_layout = 0;
 1086              		.loc 1 627 15 view .LVU377
 1087 029a 0FFA88F8 		sxth	r8, r8
 1088              	.LVL130:
 628:Drivers/lvgl/src/extra/layouts/grid/lv_grid.c ****             break;
 1089              		.loc 1 628 13 is_stmt 1 view .LVU378
 628:Drivers/lvgl/src/extra/layouts/grid/lv_grid.c ****             break;
 1090              		.loc 1 628 28 is_stmt 0 view .LVU379
 1091 029e 94F82330 		ldrb	r3, [r4, #35]	@ zero_extendqisi2
 1092 02a2 6FF3C303 		bfc	r3, #3, #1
 1093 02a6 84F82330 		strb	r3, [r4, #35]
 1094              	.LVL131:
 629:Drivers/lvgl/src/extra/layouts/grid/lv_grid.c ****         case LV_GRID_ALIGN_END:
 1095              		.loc 1 629 13 is_stmt 1 view .LVU380
 1096 02aa 36E7     		b	.L33
 1097              	.LVL132:
 1098              	.L30:
 631:Drivers/lvgl/src/extra/layouts/grid/lv_grid.c ****             item->w_layout = 0;
 1099              		.loc 1 631 13 view .LVU381
 631:Drivers/lvgl/src/extra/layouts/grid/lv_grid.c ****             item->w_layout = 0;
 1100              		.loc 1 631 18 is_stmt 0 view .LVU382
 1101 02ac 2B68     		ldr	r3, [r5]
 631:Drivers/lvgl/src/extra/layouts/grid/lv_grid.c ****             item->w_layout = 0;
 1102              		.loc 1 631 21 view .LVU383
 1103 02ae 33F81B30 		ldrh	r3, [r3, fp, lsl #1]
 631:Drivers/lvgl/src/extra/layouts/grid/lv_grid.c ****             item->w_layout = 0;
 1104              		.loc 1 631 31 view .LVU384
 1105 02b2 049A     		ldr	r2, [sp, #16]
 1106 02b4 1A44     		add	r2, r2, r3
 1107 02b6 1FFA82F8 		uxth	r8, r2
 1108              	.LVL133:
 631:Drivers/lvgl/src/extra/layouts/grid/lv_grid.c ****             item->w_layout = 0;
 1109              		.loc 1 631 41 view .LVU385
 1110 02ba 2046     		mov	r0, r4
 1111 02bc FFF7FEFF 		bl	lv_obj_get_width
 1112              	.LVL134:
 1113 02c0 80B2     		uxth	r0, r0
 631:Drivers/lvgl/src/extra/layouts/grid/lv_grid.c ****             item->w_layout = 0;
 1114              		.loc 1 631 39 view .LVU386
 1115 02c2 A8EB0008 		sub	r8, r8, r0
 631:Drivers/lvgl/src/extra/layouts/grid/lv_grid.c ****             item->w_layout = 0;
 1116              		.loc 1 631 15 view .LVU387
 1117 02c6 0FFA88F8 		sxth	r8, r8
 1118              	.LVL135:
 632:Drivers/lvgl/src/extra/layouts/grid/lv_grid.c ****             break;
 1119              		.loc 1 632 13 is_stmt 1 view .LVU388
 632:Drivers/lvgl/src/extra/layouts/grid/lv_grid.c ****             break;
 1120              		.loc 1 632 28 is_stmt 0 view .LVU389
