ARM GAS  /var/folders/0z/tsy30v1j4xl4_7kw94k978ww0000gn/T//ccjK6xP1.s 			page 1


   1              		.cpu cortex-m4
   2              		.arch armv7e-m
   3              		.fpu fpv4-sp-d16
   4              		.eabi_attribute 27, 1
   5              		.eabi_attribute 28, 1
   6              		.eabi_attribute 20, 1
   7              		.eabi_attribute 21, 1
   8              		.eabi_attribute 23, 3
   9              		.eabi_attribute 24, 1
  10              		.eabi_attribute 25, 1
  11              		.eabi_attribute 26, 1
  12              		.eabi_attribute 30, 1
  13              		.eabi_attribute 34, 1
  14              		.eabi_attribute 18, 4
  15              		.file	"lv_indev_scroll.c"
  16              		.text
  17              	.Ltext0:
  18              		.cfi_sections	.debug_frame
  19              		.section	.text.scroll_limit_diff,"ax",%progbits
  20              		.align	1
  21              		.syntax unified
  22              		.thumb
  23              		.thumb_func
  25              	scroll_limit_diff:
  26              	.LVL0:
  27              	.LFB169:
  28              		.file 1 "Drivers/lvgl/src/core/lv_indev_scroll.c"
   1:Drivers/lvgl/src/core/lv_indev_scroll.c **** /**
   2:Drivers/lvgl/src/core/lv_indev_scroll.c ****  * @file lv_indev_scroll.c
   3:Drivers/lvgl/src/core/lv_indev_scroll.c ****  *
   4:Drivers/lvgl/src/core/lv_indev_scroll.c ****  */
   5:Drivers/lvgl/src/core/lv_indev_scroll.c **** 
   6:Drivers/lvgl/src/core/lv_indev_scroll.c **** /*********************
   7:Drivers/lvgl/src/core/lv_indev_scroll.c ****  *      INCLUDES
   8:Drivers/lvgl/src/core/lv_indev_scroll.c ****  *********************/
   9:Drivers/lvgl/src/core/lv_indev_scroll.c **** #include "lv_indev.h"
  10:Drivers/lvgl/src/core/lv_indev_scroll.c **** #include "lv_indev_scroll.h"
  11:Drivers/lvgl/src/core/lv_indev_scroll.c **** 
  12:Drivers/lvgl/src/core/lv_indev_scroll.c **** /*********************
  13:Drivers/lvgl/src/core/lv_indev_scroll.c ****  *      DEFINES
  14:Drivers/lvgl/src/core/lv_indev_scroll.c ****  *********************/
  15:Drivers/lvgl/src/core/lv_indev_scroll.c **** #define ELASTIC_SLOWNESS_FACTOR 4   /*Scrolling on elastic parts are slower by this factor*/
  16:Drivers/lvgl/src/core/lv_indev_scroll.c **** 
  17:Drivers/lvgl/src/core/lv_indev_scroll.c **** /**********************
  18:Drivers/lvgl/src/core/lv_indev_scroll.c ****  *      TYPEDEFS
  19:Drivers/lvgl/src/core/lv_indev_scroll.c ****  **********************/
  20:Drivers/lvgl/src/core/lv_indev_scroll.c **** 
  21:Drivers/lvgl/src/core/lv_indev_scroll.c **** /**********************
  22:Drivers/lvgl/src/core/lv_indev_scroll.c ****  *  STATIC PROTOTYPES
  23:Drivers/lvgl/src/core/lv_indev_scroll.c ****  **********************/
  24:Drivers/lvgl/src/core/lv_indev_scroll.c **** static lv_obj_t * find_scroll_obj(_lv_indev_proc_t * proc);
  25:Drivers/lvgl/src/core/lv_indev_scroll.c **** static void init_scroll_limits(_lv_indev_proc_t * proc);
  26:Drivers/lvgl/src/core/lv_indev_scroll.c **** static lv_coord_t find_snap_point_x(const lv_obj_t * obj, lv_coord_t min, lv_coord_t max, lv_coord_
  27:Drivers/lvgl/src/core/lv_indev_scroll.c **** static lv_coord_t find_snap_point_y(const lv_obj_t * obj, lv_coord_t min, lv_coord_t max, lv_coord_
  28:Drivers/lvgl/src/core/lv_indev_scroll.c **** static void scroll_limit_diff(_lv_indev_proc_t * proc, lv_coord_t * diff_x, lv_coord_t * diff_y);
  29:Drivers/lvgl/src/core/lv_indev_scroll.c **** static lv_coord_t scroll_throw_predict_y(_lv_indev_proc_t * proc);
  30:Drivers/lvgl/src/core/lv_indev_scroll.c **** static lv_coord_t scroll_throw_predict_x(_lv_indev_proc_t * proc);
ARM GAS  /var/folders/0z/tsy30v1j4xl4_7kw94k978ww0000gn/T//ccjK6xP1.s 			page 2


  31:Drivers/lvgl/src/core/lv_indev_scroll.c **** static lv_coord_t elastic_diff(lv_obj_t * scroll_obj, lv_coord_t diff, lv_coord_t scroll_start, lv_
  32:Drivers/lvgl/src/core/lv_indev_scroll.c ****                                lv_dir_t dir);
  33:Drivers/lvgl/src/core/lv_indev_scroll.c **** 
  34:Drivers/lvgl/src/core/lv_indev_scroll.c **** /**********************
  35:Drivers/lvgl/src/core/lv_indev_scroll.c ****  *  STATIC VARIABLES
  36:Drivers/lvgl/src/core/lv_indev_scroll.c ****  **********************/
  37:Drivers/lvgl/src/core/lv_indev_scroll.c **** 
  38:Drivers/lvgl/src/core/lv_indev_scroll.c **** /**********************
  39:Drivers/lvgl/src/core/lv_indev_scroll.c ****  *      MACROS
  40:Drivers/lvgl/src/core/lv_indev_scroll.c ****  **********************/
  41:Drivers/lvgl/src/core/lv_indev_scroll.c **** 
  42:Drivers/lvgl/src/core/lv_indev_scroll.c **** /**********************
  43:Drivers/lvgl/src/core/lv_indev_scroll.c ****  *   GLOBAL FUNCTIONS
  44:Drivers/lvgl/src/core/lv_indev_scroll.c ****  **********************/
  45:Drivers/lvgl/src/core/lv_indev_scroll.c **** 
  46:Drivers/lvgl/src/core/lv_indev_scroll.c **** void _lv_indev_scroll_handler(_lv_indev_proc_t * proc)
  47:Drivers/lvgl/src/core/lv_indev_scroll.c **** {
  48:Drivers/lvgl/src/core/lv_indev_scroll.c ****     if(proc->types.pointer.vect.x == 0 && proc->types.pointer.vect.y == 0) {
  49:Drivers/lvgl/src/core/lv_indev_scroll.c ****         return;
  50:Drivers/lvgl/src/core/lv_indev_scroll.c ****     }
  51:Drivers/lvgl/src/core/lv_indev_scroll.c **** 
  52:Drivers/lvgl/src/core/lv_indev_scroll.c ****     lv_obj_t * scroll_obj = proc->types.pointer.scroll_obj;
  53:Drivers/lvgl/src/core/lv_indev_scroll.c ****     /*If there is no scroll object yet try to find one*/
  54:Drivers/lvgl/src/core/lv_indev_scroll.c ****     if(scroll_obj == NULL) {
  55:Drivers/lvgl/src/core/lv_indev_scroll.c ****         scroll_obj = find_scroll_obj(proc);
  56:Drivers/lvgl/src/core/lv_indev_scroll.c ****         if(scroll_obj == NULL) return;
  57:Drivers/lvgl/src/core/lv_indev_scroll.c **** 
  58:Drivers/lvgl/src/core/lv_indev_scroll.c ****         init_scroll_limits(proc);
  59:Drivers/lvgl/src/core/lv_indev_scroll.c **** 
  60:Drivers/lvgl/src/core/lv_indev_scroll.c ****         lv_event_send(scroll_obj, LV_EVENT_SCROLL_BEGIN, NULL);
  61:Drivers/lvgl/src/core/lv_indev_scroll.c ****         if(proc->reset_query) return;
  62:Drivers/lvgl/src/core/lv_indev_scroll.c ****     }
  63:Drivers/lvgl/src/core/lv_indev_scroll.c **** 
  64:Drivers/lvgl/src/core/lv_indev_scroll.c ****     /*Set new position or scroll if the vector is not zero*/
  65:Drivers/lvgl/src/core/lv_indev_scroll.c ****     int16_t angle = 0;
  66:Drivers/lvgl/src/core/lv_indev_scroll.c ****     int16_t zoom = 256;
  67:Drivers/lvgl/src/core/lv_indev_scroll.c ****     lv_obj_t * parent = scroll_obj;
  68:Drivers/lvgl/src/core/lv_indev_scroll.c ****     while(parent) {
  69:Drivers/lvgl/src/core/lv_indev_scroll.c ****         angle += lv_obj_get_style_transform_angle(parent, 0);
  70:Drivers/lvgl/src/core/lv_indev_scroll.c ****         zoom *= (lv_obj_get_style_transform_zoom(parent, 0) / 256);
  71:Drivers/lvgl/src/core/lv_indev_scroll.c ****         parent = lv_obj_get_parent(parent);
  72:Drivers/lvgl/src/core/lv_indev_scroll.c ****     }
  73:Drivers/lvgl/src/core/lv_indev_scroll.c **** 
  74:Drivers/lvgl/src/core/lv_indev_scroll.c ****     if(angle != 0 || zoom != LV_IMG_ZOOM_NONE) {
  75:Drivers/lvgl/src/core/lv_indev_scroll.c ****         angle = -angle;
  76:Drivers/lvgl/src/core/lv_indev_scroll.c ****         zoom = (256 * 256) / zoom;
  77:Drivers/lvgl/src/core/lv_indev_scroll.c ****         lv_point_t pivot = { 0, 0 };
  78:Drivers/lvgl/src/core/lv_indev_scroll.c ****         lv_point_transform(&proc->types.pointer.vect, angle, zoom, &pivot);
  79:Drivers/lvgl/src/core/lv_indev_scroll.c ****     }
  80:Drivers/lvgl/src/core/lv_indev_scroll.c **** 
  81:Drivers/lvgl/src/core/lv_indev_scroll.c **** 
  82:Drivers/lvgl/src/core/lv_indev_scroll.c **** 
  83:Drivers/lvgl/src/core/lv_indev_scroll.c ****     lv_coord_t diff_x = 0;
  84:Drivers/lvgl/src/core/lv_indev_scroll.c ****     lv_coord_t diff_y = 0;
  85:Drivers/lvgl/src/core/lv_indev_scroll.c ****     if(proc->types.pointer.scroll_dir == LV_DIR_HOR) {
  86:Drivers/lvgl/src/core/lv_indev_scroll.c ****         lv_coord_t sr = lv_obj_get_scroll_right(scroll_obj);
  87:Drivers/lvgl/src/core/lv_indev_scroll.c ****         lv_coord_t sl = lv_obj_get_scroll_left(scroll_obj);
ARM GAS  /var/folders/0z/tsy30v1j4xl4_7kw94k978ww0000gn/T//ccjK6xP1.s 			page 3


  88:Drivers/lvgl/src/core/lv_indev_scroll.c ****         diff_x = elastic_diff(scroll_obj, proc->types.pointer.vect.x, sl, sr, LV_DIR_HOR);
  89:Drivers/lvgl/src/core/lv_indev_scroll.c ****     }
  90:Drivers/lvgl/src/core/lv_indev_scroll.c ****     else {
  91:Drivers/lvgl/src/core/lv_indev_scroll.c ****         lv_coord_t st = lv_obj_get_scroll_top(scroll_obj);
  92:Drivers/lvgl/src/core/lv_indev_scroll.c ****         lv_coord_t sb = lv_obj_get_scroll_bottom(scroll_obj);
  93:Drivers/lvgl/src/core/lv_indev_scroll.c ****         diff_y = elastic_diff(scroll_obj, proc->types.pointer.vect.y, st, sb, LV_DIR_VER);
  94:Drivers/lvgl/src/core/lv_indev_scroll.c ****     }
  95:Drivers/lvgl/src/core/lv_indev_scroll.c **** 
  96:Drivers/lvgl/src/core/lv_indev_scroll.c ****     lv_dir_t scroll_dir = lv_obj_get_scroll_dir(scroll_obj);
  97:Drivers/lvgl/src/core/lv_indev_scroll.c ****     if((scroll_dir & LV_DIR_LEFT)   == 0 && diff_x > 0) diff_x = 0;
  98:Drivers/lvgl/src/core/lv_indev_scroll.c ****     if((scroll_dir & LV_DIR_RIGHT)  == 0 && diff_x < 0) diff_x = 0;
  99:Drivers/lvgl/src/core/lv_indev_scroll.c ****     if((scroll_dir & LV_DIR_TOP)    == 0 && diff_y > 0) diff_y = 0;
 100:Drivers/lvgl/src/core/lv_indev_scroll.c ****     if((scroll_dir & LV_DIR_BOTTOM) == 0 && diff_y < 0) diff_y = 0;
 101:Drivers/lvgl/src/core/lv_indev_scroll.c **** 
 102:Drivers/lvgl/src/core/lv_indev_scroll.c ****     /*Respect the scroll limit area*/
 103:Drivers/lvgl/src/core/lv_indev_scroll.c ****     scroll_limit_diff(proc, &diff_x, &diff_y);
 104:Drivers/lvgl/src/core/lv_indev_scroll.c **** 
 105:Drivers/lvgl/src/core/lv_indev_scroll.c ****     _lv_obj_scroll_by_raw(scroll_obj, diff_x, diff_y);
 106:Drivers/lvgl/src/core/lv_indev_scroll.c ****     if(proc->reset_query) return;
 107:Drivers/lvgl/src/core/lv_indev_scroll.c ****     proc->types.pointer.scroll_sum.x += diff_x;
 108:Drivers/lvgl/src/core/lv_indev_scroll.c ****     proc->types.pointer.scroll_sum.y += diff_y;
 109:Drivers/lvgl/src/core/lv_indev_scroll.c **** }
 110:Drivers/lvgl/src/core/lv_indev_scroll.c **** 
 111:Drivers/lvgl/src/core/lv_indev_scroll.c **** 
 112:Drivers/lvgl/src/core/lv_indev_scroll.c **** void _lv_indev_scroll_throw_handler(_lv_indev_proc_t * proc)
 113:Drivers/lvgl/src/core/lv_indev_scroll.c **** {
 114:Drivers/lvgl/src/core/lv_indev_scroll.c ****     lv_obj_t * scroll_obj = proc->types.pointer.scroll_obj;
 115:Drivers/lvgl/src/core/lv_indev_scroll.c ****     if(scroll_obj == NULL) return;
 116:Drivers/lvgl/src/core/lv_indev_scroll.c ****     if(proc->types.pointer.scroll_dir == LV_DIR_NONE) return;
 117:Drivers/lvgl/src/core/lv_indev_scroll.c **** 
 118:Drivers/lvgl/src/core/lv_indev_scroll.c ****     lv_indev_t * indev_act = lv_indev_get_act();
 119:Drivers/lvgl/src/core/lv_indev_scroll.c ****     lv_coord_t scroll_throw = indev_act->driver->scroll_throw;
 120:Drivers/lvgl/src/core/lv_indev_scroll.c **** 
 121:Drivers/lvgl/src/core/lv_indev_scroll.c ****     if(lv_obj_has_flag(scroll_obj, LV_OBJ_FLAG_SCROLL_MOMENTUM) == false) {
 122:Drivers/lvgl/src/core/lv_indev_scroll.c ****         proc->types.pointer.scroll_throw_vect.y = 0;
 123:Drivers/lvgl/src/core/lv_indev_scroll.c ****         proc->types.pointer.scroll_throw_vect.x = 0;
 124:Drivers/lvgl/src/core/lv_indev_scroll.c ****     }
 125:Drivers/lvgl/src/core/lv_indev_scroll.c **** 
 126:Drivers/lvgl/src/core/lv_indev_scroll.c ****     lv_scroll_snap_t align_x = lv_obj_get_scroll_snap_x(scroll_obj);
 127:Drivers/lvgl/src/core/lv_indev_scroll.c ****     lv_scroll_snap_t align_y = lv_obj_get_scroll_snap_y(scroll_obj);
 128:Drivers/lvgl/src/core/lv_indev_scroll.c **** 
 129:Drivers/lvgl/src/core/lv_indev_scroll.c ****     if(proc->types.pointer.scroll_dir == LV_DIR_VER) {
 130:Drivers/lvgl/src/core/lv_indev_scroll.c ****         proc->types.pointer.scroll_throw_vect.x = 0;
 131:Drivers/lvgl/src/core/lv_indev_scroll.c ****         /*If no snapping "throw"*/
 132:Drivers/lvgl/src/core/lv_indev_scroll.c ****         if(align_y == LV_SCROLL_SNAP_NONE) {
 133:Drivers/lvgl/src/core/lv_indev_scroll.c ****             proc->types.pointer.scroll_throw_vect.y =
 134:Drivers/lvgl/src/core/lv_indev_scroll.c ****                 proc->types.pointer.scroll_throw_vect.y * (100 - scroll_throw) / 100;
 135:Drivers/lvgl/src/core/lv_indev_scroll.c **** 
 136:Drivers/lvgl/src/core/lv_indev_scroll.c ****             lv_coord_t sb = lv_obj_get_scroll_bottom(scroll_obj);
 137:Drivers/lvgl/src/core/lv_indev_scroll.c ****             lv_coord_t st = lv_obj_get_scroll_top(scroll_obj);
 138:Drivers/lvgl/src/core/lv_indev_scroll.c **** 
 139:Drivers/lvgl/src/core/lv_indev_scroll.c ****             proc->types.pointer.scroll_throw_vect.y = elastic_diff(scroll_obj, proc->types.pointer.
 140:Drivers/lvgl/src/core/lv_indev_scroll.c ****                                                                    LV_DIR_VER);
 141:Drivers/lvgl/src/core/lv_indev_scroll.c **** 
 142:Drivers/lvgl/src/core/lv_indev_scroll.c ****             lv_obj_scroll_by(scroll_obj, 0, proc->types.pointer.scroll_throw_vect.y, LV_ANIM_OFF);
 143:Drivers/lvgl/src/core/lv_indev_scroll.c ****         }
 144:Drivers/lvgl/src/core/lv_indev_scroll.c ****         /*With snapping find the nearest snap point and scroll there*/
ARM GAS  /var/folders/0z/tsy30v1j4xl4_7kw94k978ww0000gn/T//ccjK6xP1.s 			page 4


 145:Drivers/lvgl/src/core/lv_indev_scroll.c ****         else {
 146:Drivers/lvgl/src/core/lv_indev_scroll.c ****             lv_coord_t diff_y = scroll_throw_predict_y(proc);
 147:Drivers/lvgl/src/core/lv_indev_scroll.c ****             proc->types.pointer.scroll_throw_vect.y = 0;
 148:Drivers/lvgl/src/core/lv_indev_scroll.c ****             scroll_limit_diff(proc, NULL, &diff_y);
 149:Drivers/lvgl/src/core/lv_indev_scroll.c ****             lv_coord_t y = find_snap_point_y(scroll_obj, LV_COORD_MIN, LV_COORD_MAX, diff_y);
 150:Drivers/lvgl/src/core/lv_indev_scroll.c ****             lv_obj_scroll_by(scroll_obj, 0, diff_y + y, LV_ANIM_ON);
 151:Drivers/lvgl/src/core/lv_indev_scroll.c ****         }
 152:Drivers/lvgl/src/core/lv_indev_scroll.c ****     }
 153:Drivers/lvgl/src/core/lv_indev_scroll.c ****     else if(proc->types.pointer.scroll_dir == LV_DIR_HOR) {
 154:Drivers/lvgl/src/core/lv_indev_scroll.c ****         proc->types.pointer.scroll_throw_vect.y = 0;
 155:Drivers/lvgl/src/core/lv_indev_scroll.c ****         /*If no snapping "throw"*/
 156:Drivers/lvgl/src/core/lv_indev_scroll.c ****         if(align_x == LV_SCROLL_SNAP_NONE) {
 157:Drivers/lvgl/src/core/lv_indev_scroll.c ****             proc->types.pointer.scroll_throw_vect.x =
 158:Drivers/lvgl/src/core/lv_indev_scroll.c ****                 proc->types.pointer.scroll_throw_vect.x * (100 - scroll_throw) / 100;
 159:Drivers/lvgl/src/core/lv_indev_scroll.c **** 
 160:Drivers/lvgl/src/core/lv_indev_scroll.c ****             lv_coord_t sl = lv_obj_get_scroll_left(scroll_obj);
 161:Drivers/lvgl/src/core/lv_indev_scroll.c ****             lv_coord_t sr = lv_obj_get_scroll_right(scroll_obj);
 162:Drivers/lvgl/src/core/lv_indev_scroll.c **** 
 163:Drivers/lvgl/src/core/lv_indev_scroll.c ****             proc->types.pointer.scroll_throw_vect.x = elastic_diff(scroll_obj, proc->types.pointer.
 164:Drivers/lvgl/src/core/lv_indev_scroll.c ****                                                                    LV_DIR_HOR);
 165:Drivers/lvgl/src/core/lv_indev_scroll.c **** 
 166:Drivers/lvgl/src/core/lv_indev_scroll.c ****             lv_obj_scroll_by(scroll_obj, proc->types.pointer.scroll_throw_vect.x, 0, LV_ANIM_OFF);
 167:Drivers/lvgl/src/core/lv_indev_scroll.c ****         }
 168:Drivers/lvgl/src/core/lv_indev_scroll.c ****         /*With snapping find the nearest snap point and scroll there*/
 169:Drivers/lvgl/src/core/lv_indev_scroll.c ****         else {
 170:Drivers/lvgl/src/core/lv_indev_scroll.c ****             lv_coord_t diff_x = scroll_throw_predict_x(proc);
 171:Drivers/lvgl/src/core/lv_indev_scroll.c ****             proc->types.pointer.scroll_throw_vect.x = 0;
 172:Drivers/lvgl/src/core/lv_indev_scroll.c ****             scroll_limit_diff(proc, &diff_x, NULL);
 173:Drivers/lvgl/src/core/lv_indev_scroll.c ****             lv_coord_t x = find_snap_point_x(scroll_obj, LV_COORD_MIN, LV_COORD_MAX, diff_x);
 174:Drivers/lvgl/src/core/lv_indev_scroll.c ****             lv_obj_scroll_by(scroll_obj, x + diff_x, 0, LV_ANIM_ON);
 175:Drivers/lvgl/src/core/lv_indev_scroll.c ****         }
 176:Drivers/lvgl/src/core/lv_indev_scroll.c ****     }
 177:Drivers/lvgl/src/core/lv_indev_scroll.c **** 
 178:Drivers/lvgl/src/core/lv_indev_scroll.c ****     /*Check if the scroll has finished*/
 179:Drivers/lvgl/src/core/lv_indev_scroll.c ****     if(proc->types.pointer.scroll_throw_vect.x == 0 && proc->types.pointer.scroll_throw_vect.y == 0
 180:Drivers/lvgl/src/core/lv_indev_scroll.c ****         /*Revert if scrolled in*/
 181:Drivers/lvgl/src/core/lv_indev_scroll.c ****         /*If vertically scrollable and not controlled by snap*/
 182:Drivers/lvgl/src/core/lv_indev_scroll.c ****         if(align_y == LV_SCROLL_SNAP_NONE) {
 183:Drivers/lvgl/src/core/lv_indev_scroll.c ****             lv_coord_t st = lv_obj_get_scroll_top(scroll_obj);
 184:Drivers/lvgl/src/core/lv_indev_scroll.c ****             lv_coord_t sb = lv_obj_get_scroll_bottom(scroll_obj);
 185:Drivers/lvgl/src/core/lv_indev_scroll.c ****             if(st > 0 || sb > 0) {
 186:Drivers/lvgl/src/core/lv_indev_scroll.c ****                 if(st < 0) {
 187:Drivers/lvgl/src/core/lv_indev_scroll.c ****                     lv_obj_scroll_by(scroll_obj, 0, st, LV_ANIM_ON);
 188:Drivers/lvgl/src/core/lv_indev_scroll.c ****                 }
 189:Drivers/lvgl/src/core/lv_indev_scroll.c ****                 else if(sb < 0) {
 190:Drivers/lvgl/src/core/lv_indev_scroll.c ****                     lv_obj_scroll_by(scroll_obj, 0, -sb, LV_ANIM_ON);
 191:Drivers/lvgl/src/core/lv_indev_scroll.c ****                 }
 192:Drivers/lvgl/src/core/lv_indev_scroll.c ****             }
 193:Drivers/lvgl/src/core/lv_indev_scroll.c ****         }
 194:Drivers/lvgl/src/core/lv_indev_scroll.c **** 
 195:Drivers/lvgl/src/core/lv_indev_scroll.c ****         /*If horizontally scrollable and not controlled by snap*/
 196:Drivers/lvgl/src/core/lv_indev_scroll.c ****         if(align_x == LV_SCROLL_SNAP_NONE) {
 197:Drivers/lvgl/src/core/lv_indev_scroll.c ****             lv_coord_t sl = lv_obj_get_scroll_left(scroll_obj);
 198:Drivers/lvgl/src/core/lv_indev_scroll.c ****             lv_coord_t sr = lv_obj_get_scroll_right(scroll_obj);
 199:Drivers/lvgl/src/core/lv_indev_scroll.c ****             if(sl > 0 || sr > 0) {
 200:Drivers/lvgl/src/core/lv_indev_scroll.c ****                 if(sl < 0) {
 201:Drivers/lvgl/src/core/lv_indev_scroll.c ****                     lv_obj_scroll_by(scroll_obj, sl, 0, LV_ANIM_ON);
ARM GAS  /var/folders/0z/tsy30v1j4xl4_7kw94k978ww0000gn/T//ccjK6xP1.s 			page 5


 202:Drivers/lvgl/src/core/lv_indev_scroll.c ****                 }
 203:Drivers/lvgl/src/core/lv_indev_scroll.c ****                 else if(sr < 0) {
 204:Drivers/lvgl/src/core/lv_indev_scroll.c ****                     lv_obj_scroll_by(scroll_obj, -sr, 0, LV_ANIM_ON);
 205:Drivers/lvgl/src/core/lv_indev_scroll.c ****                 }
 206:Drivers/lvgl/src/core/lv_indev_scroll.c ****             }
 207:Drivers/lvgl/src/core/lv_indev_scroll.c ****         }
 208:Drivers/lvgl/src/core/lv_indev_scroll.c **** 
 209:Drivers/lvgl/src/core/lv_indev_scroll.c ****         lv_event_send(scroll_obj, LV_EVENT_SCROLL_END, indev_act);
 210:Drivers/lvgl/src/core/lv_indev_scroll.c ****         if(proc->reset_query) return;
 211:Drivers/lvgl/src/core/lv_indev_scroll.c **** 
 212:Drivers/lvgl/src/core/lv_indev_scroll.c ****         proc->types.pointer.scroll_dir = LV_DIR_NONE;
 213:Drivers/lvgl/src/core/lv_indev_scroll.c ****         proc->types.pointer.scroll_obj = NULL;
 214:Drivers/lvgl/src/core/lv_indev_scroll.c ****     }
 215:Drivers/lvgl/src/core/lv_indev_scroll.c **** }
 216:Drivers/lvgl/src/core/lv_indev_scroll.c **** 
 217:Drivers/lvgl/src/core/lv_indev_scroll.c **** /**
 218:Drivers/lvgl/src/core/lv_indev_scroll.c ****  * Predict where would a scroll throw end
 219:Drivers/lvgl/src/core/lv_indev_scroll.c ****  * @param indev pointer to an input device
 220:Drivers/lvgl/src/core/lv_indev_scroll.c ****  * @param dir `LV_DIR_VER` or `LV_DIR_HOR`
 221:Drivers/lvgl/src/core/lv_indev_scroll.c ****  * @return the difference compared to the current position when the throw would be finished
 222:Drivers/lvgl/src/core/lv_indev_scroll.c ****  */
 223:Drivers/lvgl/src/core/lv_indev_scroll.c **** lv_coord_t lv_indev_scroll_throw_predict(lv_indev_t * indev, lv_dir_t dir)
 224:Drivers/lvgl/src/core/lv_indev_scroll.c **** {
 225:Drivers/lvgl/src/core/lv_indev_scroll.c ****     if(indev == NULL) return 0;
 226:Drivers/lvgl/src/core/lv_indev_scroll.c ****     lv_coord_t v;
 227:Drivers/lvgl/src/core/lv_indev_scroll.c ****     switch(dir) {
 228:Drivers/lvgl/src/core/lv_indev_scroll.c ****         case LV_DIR_VER:
 229:Drivers/lvgl/src/core/lv_indev_scroll.c ****             v = indev->proc.types.pointer.scroll_throw_vect_ori.y;
 230:Drivers/lvgl/src/core/lv_indev_scroll.c ****             break;
 231:Drivers/lvgl/src/core/lv_indev_scroll.c ****         case LV_DIR_HOR:
 232:Drivers/lvgl/src/core/lv_indev_scroll.c ****             v = indev->proc.types.pointer.scroll_throw_vect_ori.x;
 233:Drivers/lvgl/src/core/lv_indev_scroll.c ****             break;
 234:Drivers/lvgl/src/core/lv_indev_scroll.c ****         default:
 235:Drivers/lvgl/src/core/lv_indev_scroll.c ****             return 0;
 236:Drivers/lvgl/src/core/lv_indev_scroll.c ****     }
 237:Drivers/lvgl/src/core/lv_indev_scroll.c **** 
 238:Drivers/lvgl/src/core/lv_indev_scroll.c ****     lv_coord_t scroll_throw = indev->driver->scroll_throw;
 239:Drivers/lvgl/src/core/lv_indev_scroll.c ****     lv_coord_t sum = 0;
 240:Drivers/lvgl/src/core/lv_indev_scroll.c ****     while(v) {
 241:Drivers/lvgl/src/core/lv_indev_scroll.c ****         sum += v;
 242:Drivers/lvgl/src/core/lv_indev_scroll.c ****         v = v * (100 - scroll_throw) / 100;
 243:Drivers/lvgl/src/core/lv_indev_scroll.c ****     }
 244:Drivers/lvgl/src/core/lv_indev_scroll.c **** 
 245:Drivers/lvgl/src/core/lv_indev_scroll.c ****     return sum;
 246:Drivers/lvgl/src/core/lv_indev_scroll.c **** }
 247:Drivers/lvgl/src/core/lv_indev_scroll.c **** 
 248:Drivers/lvgl/src/core/lv_indev_scroll.c **** void lv_indev_scroll_get_snap_dist(lv_obj_t * obj, lv_point_t * p)
 249:Drivers/lvgl/src/core/lv_indev_scroll.c **** {
 250:Drivers/lvgl/src/core/lv_indev_scroll.c ****     p->x = find_snap_point_x(obj, obj->coords.x1, obj->coords.x2, 0);
 251:Drivers/lvgl/src/core/lv_indev_scroll.c ****     p->y = find_snap_point_y(obj, obj->coords.y1, obj->coords.y2, 0);
 252:Drivers/lvgl/src/core/lv_indev_scroll.c **** }
 253:Drivers/lvgl/src/core/lv_indev_scroll.c **** 
 254:Drivers/lvgl/src/core/lv_indev_scroll.c **** /**********************
 255:Drivers/lvgl/src/core/lv_indev_scroll.c ****  *   STATIC FUNCTIONS
 256:Drivers/lvgl/src/core/lv_indev_scroll.c ****  **********************/
 257:Drivers/lvgl/src/core/lv_indev_scroll.c **** 
 258:Drivers/lvgl/src/core/lv_indev_scroll.c **** static lv_obj_t * find_scroll_obj(_lv_indev_proc_t * proc)
ARM GAS  /var/folders/0z/tsy30v1j4xl4_7kw94k978ww0000gn/T//ccjK6xP1.s 			page 6


 259:Drivers/lvgl/src/core/lv_indev_scroll.c **** {
 260:Drivers/lvgl/src/core/lv_indev_scroll.c ****     lv_obj_t * obj_candidate = NULL;
 261:Drivers/lvgl/src/core/lv_indev_scroll.c ****     lv_dir_t dir_candidate = LV_DIR_NONE;
 262:Drivers/lvgl/src/core/lv_indev_scroll.c ****     lv_indev_t * indev_act = lv_indev_get_act();
 263:Drivers/lvgl/src/core/lv_indev_scroll.c ****     lv_coord_t scroll_limit = indev_act->driver->scroll_limit;
 264:Drivers/lvgl/src/core/lv_indev_scroll.c **** 
 265:Drivers/lvgl/src/core/lv_indev_scroll.c ****     /*Go until find a scrollable object in the current direction
 266:Drivers/lvgl/src/core/lv_indev_scroll.c ****      *More precisely:
 267:Drivers/lvgl/src/core/lv_indev_scroll.c ****      * 1. Check the pressed object and all of its ancestors and try to find an object which is scro
 268:Drivers/lvgl/src/core/lv_indev_scroll.c ****      * 2. Scrollable means it has some content out of its area
 269:Drivers/lvgl/src/core/lv_indev_scroll.c ****      * 3. If an object can be scrolled into the current direction then use it ("real match"")
 270:Drivers/lvgl/src/core/lv_indev_scroll.c ****      * 4. If can be scrolled on the current axis (hor/ver) save it as candidate (at least show an e
 271:Drivers/lvgl/src/core/lv_indev_scroll.c ****      * 5. Use the last candidate. Always the "deepest" parent or the object from point 3*/
 272:Drivers/lvgl/src/core/lv_indev_scroll.c ****     lv_obj_t * obj_act = proc->types.pointer.act_obj;
 273:Drivers/lvgl/src/core/lv_indev_scroll.c **** 
 274:Drivers/lvgl/src/core/lv_indev_scroll.c ****     /*Decide if it's a horizontal or vertical scroll*/
 275:Drivers/lvgl/src/core/lv_indev_scroll.c ****     bool hor_en = false;
 276:Drivers/lvgl/src/core/lv_indev_scroll.c ****     bool ver_en = false;
 277:Drivers/lvgl/src/core/lv_indev_scroll.c **** 
 278:Drivers/lvgl/src/core/lv_indev_scroll.c ****     proc->types.pointer.scroll_sum.x += proc->types.pointer.vect.x;
 279:Drivers/lvgl/src/core/lv_indev_scroll.c ****     proc->types.pointer.scroll_sum.y += proc->types.pointer.vect.y;
 280:Drivers/lvgl/src/core/lv_indev_scroll.c **** 
 281:Drivers/lvgl/src/core/lv_indev_scroll.c ****     while(obj_act) {
 282:Drivers/lvgl/src/core/lv_indev_scroll.c ****         /*Get the transformed scroll_sum with this object*/
 283:Drivers/lvgl/src/core/lv_indev_scroll.c ****         int16_t angle = 0;
 284:Drivers/lvgl/src/core/lv_indev_scroll.c ****         int32_t zoom = 256;
 285:Drivers/lvgl/src/core/lv_indev_scroll.c ****         lv_point_t pivot = { 0, 0 };
 286:Drivers/lvgl/src/core/lv_indev_scroll.c ****         lv_obj_t * parent = obj_act;
 287:Drivers/lvgl/src/core/lv_indev_scroll.c ****         while(parent) {
 288:Drivers/lvgl/src/core/lv_indev_scroll.c ****             angle += lv_obj_get_style_transform_angle(parent, 0);
 289:Drivers/lvgl/src/core/lv_indev_scroll.c ****             int32_t zoom_act = lv_obj_get_style_transform_zoom(parent, 0);
 290:Drivers/lvgl/src/core/lv_indev_scroll.c ****             zoom = (zoom * zoom_act) >> 8;
 291:Drivers/lvgl/src/core/lv_indev_scroll.c ****             parent = lv_obj_get_parent(parent);
 292:Drivers/lvgl/src/core/lv_indev_scroll.c ****         }
 293:Drivers/lvgl/src/core/lv_indev_scroll.c **** 
 294:Drivers/lvgl/src/core/lv_indev_scroll.c ****         lv_point_t obj_scroll_sum = proc->types.pointer.scroll_sum;
 295:Drivers/lvgl/src/core/lv_indev_scroll.c ****         if(angle != 0 || zoom != LV_IMG_ZOOM_NONE) {
 296:Drivers/lvgl/src/core/lv_indev_scroll.c ****             angle = -angle;
 297:Drivers/lvgl/src/core/lv_indev_scroll.c ****             zoom = (256 * 256) / zoom;
 298:Drivers/lvgl/src/core/lv_indev_scroll.c ****             lv_point_transform(&obj_scroll_sum, angle, zoom, &pivot);
 299:Drivers/lvgl/src/core/lv_indev_scroll.c ****         }
 300:Drivers/lvgl/src/core/lv_indev_scroll.c **** 
 301:Drivers/lvgl/src/core/lv_indev_scroll.c ****         if(LV_ABS(obj_scroll_sum.x) > LV_ABS(obj_scroll_sum.y)) {
 302:Drivers/lvgl/src/core/lv_indev_scroll.c ****             hor_en = true;
 303:Drivers/lvgl/src/core/lv_indev_scroll.c ****         }
 304:Drivers/lvgl/src/core/lv_indev_scroll.c ****         else {
 305:Drivers/lvgl/src/core/lv_indev_scroll.c ****             ver_en = true;
 306:Drivers/lvgl/src/core/lv_indev_scroll.c ****         }
 307:Drivers/lvgl/src/core/lv_indev_scroll.c **** 
 308:Drivers/lvgl/src/core/lv_indev_scroll.c ****         if(lv_obj_has_flag(obj_act, LV_OBJ_FLAG_SCROLLABLE) == false) {
 309:Drivers/lvgl/src/core/lv_indev_scroll.c ****             /*If this object don't want to chain the scroll to the parent stop searching*/
 310:Drivers/lvgl/src/core/lv_indev_scroll.c ****             if(lv_obj_has_flag(obj_act, LV_OBJ_FLAG_SCROLL_CHAIN_HOR) == false && hor_en) break;
 311:Drivers/lvgl/src/core/lv_indev_scroll.c ****             if(lv_obj_has_flag(obj_act, LV_OBJ_FLAG_SCROLL_CHAIN_VER) == false && ver_en) break;
 312:Drivers/lvgl/src/core/lv_indev_scroll.c **** 
 313:Drivers/lvgl/src/core/lv_indev_scroll.c ****             obj_act = lv_obj_get_parent(obj_act);
 314:Drivers/lvgl/src/core/lv_indev_scroll.c ****             continue;
 315:Drivers/lvgl/src/core/lv_indev_scroll.c ****         }
ARM GAS  /var/folders/0z/tsy30v1j4xl4_7kw94k978ww0000gn/T//ccjK6xP1.s 			page 7


 316:Drivers/lvgl/src/core/lv_indev_scroll.c **** 
 317:Drivers/lvgl/src/core/lv_indev_scroll.c ****         /*Consider both up-down or left/right scrollable according to the current direction*/
 318:Drivers/lvgl/src/core/lv_indev_scroll.c ****         bool up_en = ver_en;
 319:Drivers/lvgl/src/core/lv_indev_scroll.c ****         bool down_en = ver_en;
 320:Drivers/lvgl/src/core/lv_indev_scroll.c ****         bool left_en = hor_en;
 321:Drivers/lvgl/src/core/lv_indev_scroll.c ****         bool right_en = hor_en;
 322:Drivers/lvgl/src/core/lv_indev_scroll.c **** 
 323:Drivers/lvgl/src/core/lv_indev_scroll.c ****         /*The object might have disabled some directions.*/
 324:Drivers/lvgl/src/core/lv_indev_scroll.c ****         lv_dir_t scroll_dir = lv_obj_get_scroll_dir(obj_act);
 325:Drivers/lvgl/src/core/lv_indev_scroll.c ****         if((scroll_dir & LV_DIR_LEFT) == 0) left_en = false;
 326:Drivers/lvgl/src/core/lv_indev_scroll.c ****         if((scroll_dir & LV_DIR_RIGHT) == 0) right_en = false;
 327:Drivers/lvgl/src/core/lv_indev_scroll.c ****         if((scroll_dir & LV_DIR_TOP) == 0) up_en = false;
 328:Drivers/lvgl/src/core/lv_indev_scroll.c ****         if((scroll_dir & LV_DIR_BOTTOM) == 0) down_en = false;
 329:Drivers/lvgl/src/core/lv_indev_scroll.c **** 
 330:Drivers/lvgl/src/core/lv_indev_scroll.c ****         /*The object is scrollable to a direction if its content overflow in that direction.*/
 331:Drivers/lvgl/src/core/lv_indev_scroll.c ****         lv_coord_t st = lv_obj_get_scroll_top(obj_act);
 332:Drivers/lvgl/src/core/lv_indev_scroll.c ****         lv_coord_t sb = lv_obj_get_scroll_bottom(obj_act);
 333:Drivers/lvgl/src/core/lv_indev_scroll.c ****         lv_coord_t sl = lv_obj_get_scroll_left(obj_act);
 334:Drivers/lvgl/src/core/lv_indev_scroll.c ****         lv_coord_t sr = lv_obj_get_scroll_right(obj_act);
 335:Drivers/lvgl/src/core/lv_indev_scroll.c **** 
 336:Drivers/lvgl/src/core/lv_indev_scroll.c ****         /*If this object is scrollable into the current scroll direction then save it as a candidat
 337:Drivers/lvgl/src/core/lv_indev_scroll.c ****          *It's important only to be scrollable on the current axis (hor/ver) because if the scroll
 338:Drivers/lvgl/src/core/lv_indev_scroll.c ****          *is propagated to this object it can show at least elastic scroll effect.
 339:Drivers/lvgl/src/core/lv_indev_scroll.c ****          *But if not hor/ver scrollable do not scroll it at all (so it's not a good candidate)*/
 340:Drivers/lvgl/src/core/lv_indev_scroll.c ****         if((st > 0 || sb > 0)  &&
 341:Drivers/lvgl/src/core/lv_indev_scroll.c ****            ((up_en    && obj_scroll_sum.y >=   scroll_limit) ||
 342:Drivers/lvgl/src/core/lv_indev_scroll.c ****             (down_en  && obj_scroll_sum.y <= - scroll_limit))) {
 343:Drivers/lvgl/src/core/lv_indev_scroll.c ****             obj_candidate = obj_act;
 344:Drivers/lvgl/src/core/lv_indev_scroll.c ****             dir_candidate = LV_DIR_VER;
 345:Drivers/lvgl/src/core/lv_indev_scroll.c ****         }
 346:Drivers/lvgl/src/core/lv_indev_scroll.c **** 
 347:Drivers/lvgl/src/core/lv_indev_scroll.c ****         if((sl > 0 || sr > 0)  &&
 348:Drivers/lvgl/src/core/lv_indev_scroll.c ****            ((left_en   && obj_scroll_sum.x >=   scroll_limit) ||
 349:Drivers/lvgl/src/core/lv_indev_scroll.c ****             (right_en  && obj_scroll_sum.x <= - scroll_limit))) {
 350:Drivers/lvgl/src/core/lv_indev_scroll.c ****             obj_candidate = obj_act;
 351:Drivers/lvgl/src/core/lv_indev_scroll.c ****             dir_candidate = LV_DIR_HOR;
 352:Drivers/lvgl/src/core/lv_indev_scroll.c ****         }
 353:Drivers/lvgl/src/core/lv_indev_scroll.c **** 
 354:Drivers/lvgl/src/core/lv_indev_scroll.c ****         if(st <= 0) up_en = false;
 355:Drivers/lvgl/src/core/lv_indev_scroll.c ****         if(sb <= 0) down_en = false;
 356:Drivers/lvgl/src/core/lv_indev_scroll.c ****         if(sl <= 0) left_en = false;
 357:Drivers/lvgl/src/core/lv_indev_scroll.c ****         if(sr <= 0) right_en = false;
 358:Drivers/lvgl/src/core/lv_indev_scroll.c **** 
 359:Drivers/lvgl/src/core/lv_indev_scroll.c ****         /*If the object really can be scrolled into the current direction then use it.*/
 360:Drivers/lvgl/src/core/lv_indev_scroll.c ****         if((left_en  && obj_scroll_sum.x >=   scroll_limit) ||
 361:Drivers/lvgl/src/core/lv_indev_scroll.c ****            (right_en && obj_scroll_sum.x <= - scroll_limit) ||
 362:Drivers/lvgl/src/core/lv_indev_scroll.c ****            (up_en    && obj_scroll_sum.y >=   scroll_limit) ||
 363:Drivers/lvgl/src/core/lv_indev_scroll.c ****            (down_en  && obj_scroll_sum.y <= - scroll_limit)) {
 364:Drivers/lvgl/src/core/lv_indev_scroll.c ****             proc->types.pointer.scroll_dir = hor_en ? LV_DIR_HOR : LV_DIR_VER;
 365:Drivers/lvgl/src/core/lv_indev_scroll.c ****             break;
 366:Drivers/lvgl/src/core/lv_indev_scroll.c ****         }
 367:Drivers/lvgl/src/core/lv_indev_scroll.c **** 
 368:Drivers/lvgl/src/core/lv_indev_scroll.c ****         /*If this object don't want to chain the scroll to the parent stop searching*/
 369:Drivers/lvgl/src/core/lv_indev_scroll.c ****         if(lv_obj_has_flag(obj_act, LV_OBJ_FLAG_SCROLL_CHAIN_HOR) == false && hor_en) break;
 370:Drivers/lvgl/src/core/lv_indev_scroll.c ****         if(lv_obj_has_flag(obj_act, LV_OBJ_FLAG_SCROLL_CHAIN_VER) == false && ver_en) break;
 371:Drivers/lvgl/src/core/lv_indev_scroll.c **** 
 372:Drivers/lvgl/src/core/lv_indev_scroll.c ****         /*Try the parent*/
ARM GAS  /var/folders/0z/tsy30v1j4xl4_7kw94k978ww0000gn/T//ccjK6xP1.s 			page 8


 373:Drivers/lvgl/src/core/lv_indev_scroll.c ****         obj_act = lv_obj_get_parent(obj_act);
 374:Drivers/lvgl/src/core/lv_indev_scroll.c ****     }
 375:Drivers/lvgl/src/core/lv_indev_scroll.c **** 
 376:Drivers/lvgl/src/core/lv_indev_scroll.c ****     /*Use the last candidate*/
 377:Drivers/lvgl/src/core/lv_indev_scroll.c ****     if(obj_candidate) {
 378:Drivers/lvgl/src/core/lv_indev_scroll.c ****         proc->types.pointer.scroll_dir = dir_candidate;
 379:Drivers/lvgl/src/core/lv_indev_scroll.c ****         proc->types.pointer.scroll_obj = obj_candidate;
 380:Drivers/lvgl/src/core/lv_indev_scroll.c ****         proc->types.pointer.scroll_sum.x = 0;
 381:Drivers/lvgl/src/core/lv_indev_scroll.c ****         proc->types.pointer.scroll_sum.y = 0;
 382:Drivers/lvgl/src/core/lv_indev_scroll.c ****     }
 383:Drivers/lvgl/src/core/lv_indev_scroll.c **** 
 384:Drivers/lvgl/src/core/lv_indev_scroll.c ****     return obj_candidate;
 385:Drivers/lvgl/src/core/lv_indev_scroll.c **** }
 386:Drivers/lvgl/src/core/lv_indev_scroll.c **** 
 387:Drivers/lvgl/src/core/lv_indev_scroll.c **** static void init_scroll_limits(_lv_indev_proc_t * proc)
 388:Drivers/lvgl/src/core/lv_indev_scroll.c **** {
 389:Drivers/lvgl/src/core/lv_indev_scroll.c ****     lv_obj_t * obj = proc->types.pointer.scroll_obj;
 390:Drivers/lvgl/src/core/lv_indev_scroll.c ****     /*If there no STOP allow scrolling anywhere*/
 391:Drivers/lvgl/src/core/lv_indev_scroll.c ****     if(lv_obj_has_flag(obj, LV_OBJ_FLAG_SCROLL_ONE) == false) {
 392:Drivers/lvgl/src/core/lv_indev_scroll.c ****         lv_area_set(&proc->types.pointer.scroll_area, LV_COORD_MIN, LV_COORD_MIN, LV_COORD_MAX, LV_
 393:Drivers/lvgl/src/core/lv_indev_scroll.c ****     }
 394:Drivers/lvgl/src/core/lv_indev_scroll.c ****     /*With STOP limit the scrolling to the perv and next snap point*/
 395:Drivers/lvgl/src/core/lv_indev_scroll.c ****     else {
 396:Drivers/lvgl/src/core/lv_indev_scroll.c ****         switch(lv_obj_get_scroll_snap_y(obj)) {
 397:Drivers/lvgl/src/core/lv_indev_scroll.c ****             case LV_SCROLL_SNAP_START:
 398:Drivers/lvgl/src/core/lv_indev_scroll.c ****                 proc->types.pointer.scroll_area.y1 = find_snap_point_y(obj, obj->coords.y1 + 1, LV_
 399:Drivers/lvgl/src/core/lv_indev_scroll.c ****                 proc->types.pointer.scroll_area.y2 = find_snap_point_y(obj, LV_COORD_MIN, obj->coor
 400:Drivers/lvgl/src/core/lv_indev_scroll.c ****                 break;
 401:Drivers/lvgl/src/core/lv_indev_scroll.c ****             case LV_SCROLL_SNAP_END:
 402:Drivers/lvgl/src/core/lv_indev_scroll.c ****                 proc->types.pointer.scroll_area.y1 = find_snap_point_y(obj, obj->coords.y2, LV_COOR
 403:Drivers/lvgl/src/core/lv_indev_scroll.c ****                 proc->types.pointer.scroll_area.y2 = find_snap_point_y(obj, LV_COORD_MIN, obj->coor
 404:Drivers/lvgl/src/core/lv_indev_scroll.c ****                 break;
 405:Drivers/lvgl/src/core/lv_indev_scroll.c ****             case LV_SCROLL_SNAP_CENTER: {
 406:Drivers/lvgl/src/core/lv_indev_scroll.c ****                     lv_coord_t y_mid = obj->coords.y1 + lv_area_get_height(&obj->coords) / 2;
 407:Drivers/lvgl/src/core/lv_indev_scroll.c ****                     proc->types.pointer.scroll_area.y1 = find_snap_point_y(obj, y_mid + 1, LV_COORD
 408:Drivers/lvgl/src/core/lv_indev_scroll.c ****                     proc->types.pointer.scroll_area.y2 = find_snap_point_y(obj, LV_COORD_MIN, y_mid
 409:Drivers/lvgl/src/core/lv_indev_scroll.c ****                     break;
 410:Drivers/lvgl/src/core/lv_indev_scroll.c ****                 }
 411:Drivers/lvgl/src/core/lv_indev_scroll.c ****             default:
 412:Drivers/lvgl/src/core/lv_indev_scroll.c ****                 proc->types.pointer.scroll_area.y1 = LV_COORD_MIN;
 413:Drivers/lvgl/src/core/lv_indev_scroll.c ****                 proc->types.pointer.scroll_area.y2 = LV_COORD_MAX;
 414:Drivers/lvgl/src/core/lv_indev_scroll.c ****                 break;
 415:Drivers/lvgl/src/core/lv_indev_scroll.c ****         }
 416:Drivers/lvgl/src/core/lv_indev_scroll.c **** 
 417:Drivers/lvgl/src/core/lv_indev_scroll.c ****         switch(lv_obj_get_scroll_snap_x(obj)) {
 418:Drivers/lvgl/src/core/lv_indev_scroll.c ****             case LV_SCROLL_SNAP_START:
 419:Drivers/lvgl/src/core/lv_indev_scroll.c ****                 proc->types.pointer.scroll_area.x1 = find_snap_point_x(obj, obj->coords.x1, LV_COOR
 420:Drivers/lvgl/src/core/lv_indev_scroll.c ****                 proc->types.pointer.scroll_area.x2 = find_snap_point_x(obj, LV_COORD_MIN, obj->coor
 421:Drivers/lvgl/src/core/lv_indev_scroll.c ****                 break;
 422:Drivers/lvgl/src/core/lv_indev_scroll.c ****             case LV_SCROLL_SNAP_END:
 423:Drivers/lvgl/src/core/lv_indev_scroll.c ****                 proc->types.pointer.scroll_area.x1 = find_snap_point_x(obj, obj->coords.x2, LV_COOR
 424:Drivers/lvgl/src/core/lv_indev_scroll.c ****                 proc->types.pointer.scroll_area.x2 = find_snap_point_x(obj, LV_COORD_MIN, obj->coor
 425:Drivers/lvgl/src/core/lv_indev_scroll.c ****                 break;
 426:Drivers/lvgl/src/core/lv_indev_scroll.c ****             case LV_SCROLL_SNAP_CENTER: {
 427:Drivers/lvgl/src/core/lv_indev_scroll.c ****                     lv_coord_t x_mid = obj->coords.x1 + lv_area_get_width(&obj->coords) / 2;
 428:Drivers/lvgl/src/core/lv_indev_scroll.c ****                     proc->types.pointer.scroll_area.x1 = find_snap_point_x(obj, x_mid + 1, LV_COORD
 429:Drivers/lvgl/src/core/lv_indev_scroll.c ****                     proc->types.pointer.scroll_area.x2 = find_snap_point_x(obj, LV_COORD_MIN, x_mid
ARM GAS  /var/folders/0z/tsy30v1j4xl4_7kw94k978ww0000gn/T//ccjK6xP1.s 			page 9


 430:Drivers/lvgl/src/core/lv_indev_scroll.c ****                     break;
 431:Drivers/lvgl/src/core/lv_indev_scroll.c ****                 }
 432:Drivers/lvgl/src/core/lv_indev_scroll.c ****             default:
 433:Drivers/lvgl/src/core/lv_indev_scroll.c ****                 proc->types.pointer.scroll_area.x1 = LV_COORD_MIN;
 434:Drivers/lvgl/src/core/lv_indev_scroll.c ****                 proc->types.pointer.scroll_area.x2 = LV_COORD_MAX;
 435:Drivers/lvgl/src/core/lv_indev_scroll.c ****                 break;
 436:Drivers/lvgl/src/core/lv_indev_scroll.c ****         }
 437:Drivers/lvgl/src/core/lv_indev_scroll.c ****     }
 438:Drivers/lvgl/src/core/lv_indev_scroll.c **** 
 439:Drivers/lvgl/src/core/lv_indev_scroll.c ****     /*Allow scrolling on the edges. It will be reverted to the edge due to snapping anyway*/
 440:Drivers/lvgl/src/core/lv_indev_scroll.c ****     if(proc->types.pointer.scroll_area.x1 == 0) proc->types.pointer.scroll_area.x1 = LV_COORD_MIN;
 441:Drivers/lvgl/src/core/lv_indev_scroll.c ****     if(proc->types.pointer.scroll_area.x2 == 0) proc->types.pointer.scroll_area.x2 = LV_COORD_MAX;
 442:Drivers/lvgl/src/core/lv_indev_scroll.c ****     if(proc->types.pointer.scroll_area.y1 == 0) proc->types.pointer.scroll_area.y1 = LV_COORD_MIN;
 443:Drivers/lvgl/src/core/lv_indev_scroll.c ****     if(proc->types.pointer.scroll_area.y2 == 0) proc->types.pointer.scroll_area.y2 = LV_COORD_MAX;
 444:Drivers/lvgl/src/core/lv_indev_scroll.c **** }
 445:Drivers/lvgl/src/core/lv_indev_scroll.c **** 
 446:Drivers/lvgl/src/core/lv_indev_scroll.c **** /**
 447:Drivers/lvgl/src/core/lv_indev_scroll.c ****  * Search for snap point in the `min` - `max` range.
 448:Drivers/lvgl/src/core/lv_indev_scroll.c ****  * @param obj the object on which snap point should be found
 449:Drivers/lvgl/src/core/lv_indev_scroll.c ****  * @param min ignore snap points smaller than this. (Absolute coordinate)
 450:Drivers/lvgl/src/core/lv_indev_scroll.c ****  * @param max ignore snap points greater than this. (Absolute coordinate)
 451:Drivers/lvgl/src/core/lv_indev_scroll.c ****  * @param ofs offset to snap points. Useful the get a snap point in an imagined case
 452:Drivers/lvgl/src/core/lv_indev_scroll.c ****  *            what if children are already moved by this value
 453:Drivers/lvgl/src/core/lv_indev_scroll.c ****  * @return the distance of the snap point.
 454:Drivers/lvgl/src/core/lv_indev_scroll.c ****  */
 455:Drivers/lvgl/src/core/lv_indev_scroll.c **** static lv_coord_t find_snap_point_x(const lv_obj_t * obj, lv_coord_t min, lv_coord_t max, lv_coord_
 456:Drivers/lvgl/src/core/lv_indev_scroll.c **** {
 457:Drivers/lvgl/src/core/lv_indev_scroll.c ****     lv_scroll_snap_t align = lv_obj_get_scroll_snap_x(obj);
 458:Drivers/lvgl/src/core/lv_indev_scroll.c ****     if(align == LV_SCROLL_SNAP_NONE) return 0;
 459:Drivers/lvgl/src/core/lv_indev_scroll.c **** 
 460:Drivers/lvgl/src/core/lv_indev_scroll.c ****     lv_coord_t dist = LV_COORD_MAX;
 461:Drivers/lvgl/src/core/lv_indev_scroll.c **** 
 462:Drivers/lvgl/src/core/lv_indev_scroll.c ****     lv_coord_t pad_left = lv_obj_get_style_pad_left(obj, LV_PART_MAIN);
 463:Drivers/lvgl/src/core/lv_indev_scroll.c ****     lv_coord_t pad_right = lv_obj_get_style_pad_right(obj, LV_PART_MAIN);
 464:Drivers/lvgl/src/core/lv_indev_scroll.c **** 
 465:Drivers/lvgl/src/core/lv_indev_scroll.c ****     uint32_t i;
 466:Drivers/lvgl/src/core/lv_indev_scroll.c ****     uint32_t child_cnt = lv_obj_get_child_cnt(obj);
 467:Drivers/lvgl/src/core/lv_indev_scroll.c ****     for(i = 0; i < child_cnt; i++) {
 468:Drivers/lvgl/src/core/lv_indev_scroll.c ****         lv_obj_t * child = obj->spec_attr->children[i];
 469:Drivers/lvgl/src/core/lv_indev_scroll.c ****         if(lv_obj_has_flag_any(child, LV_OBJ_FLAG_HIDDEN | LV_OBJ_FLAG_FLOATING)) continue;
 470:Drivers/lvgl/src/core/lv_indev_scroll.c ****         if(lv_obj_has_flag(child, LV_OBJ_FLAG_SNAPPABLE)) {
 471:Drivers/lvgl/src/core/lv_indev_scroll.c ****             lv_coord_t x_child = 0;
 472:Drivers/lvgl/src/core/lv_indev_scroll.c ****             lv_coord_t x_parent = 0;
 473:Drivers/lvgl/src/core/lv_indev_scroll.c ****             switch(align) {
 474:Drivers/lvgl/src/core/lv_indev_scroll.c ****                 case LV_SCROLL_SNAP_START:
 475:Drivers/lvgl/src/core/lv_indev_scroll.c ****                     x_child = child->coords.x1;
 476:Drivers/lvgl/src/core/lv_indev_scroll.c ****                     x_parent = obj->coords.x1 + pad_left;
 477:Drivers/lvgl/src/core/lv_indev_scroll.c ****                     break;
 478:Drivers/lvgl/src/core/lv_indev_scroll.c ****                 case LV_SCROLL_SNAP_END:
 479:Drivers/lvgl/src/core/lv_indev_scroll.c ****                     x_child = child->coords.x2;
 480:Drivers/lvgl/src/core/lv_indev_scroll.c ****                     x_parent = obj->coords.x2 - pad_right;
 481:Drivers/lvgl/src/core/lv_indev_scroll.c ****                     break;
 482:Drivers/lvgl/src/core/lv_indev_scroll.c ****                 case LV_SCROLL_SNAP_CENTER:
 483:Drivers/lvgl/src/core/lv_indev_scroll.c ****                     x_child = child->coords.x1 + lv_area_get_width(&child->coords) / 2;
 484:Drivers/lvgl/src/core/lv_indev_scroll.c ****                     x_parent = obj->coords.x1 + pad_left + (lv_area_get_width(&obj->coords) - pad_l
 485:Drivers/lvgl/src/core/lv_indev_scroll.c ****                     break;
 486:Drivers/lvgl/src/core/lv_indev_scroll.c ****                 default:
ARM GAS  /var/folders/0z/tsy30v1j4xl4_7kw94k978ww0000gn/T//ccjK6xP1.s 			page 10


 487:Drivers/lvgl/src/core/lv_indev_scroll.c ****                     continue;
 488:Drivers/lvgl/src/core/lv_indev_scroll.c ****             }
 489:Drivers/lvgl/src/core/lv_indev_scroll.c **** 
 490:Drivers/lvgl/src/core/lv_indev_scroll.c ****             x_child += ofs;
 491:Drivers/lvgl/src/core/lv_indev_scroll.c ****             if(x_child >= min && x_child <= max) {
 492:Drivers/lvgl/src/core/lv_indev_scroll.c ****                 lv_coord_t x = x_child -  x_parent;
 493:Drivers/lvgl/src/core/lv_indev_scroll.c ****                 if(LV_ABS(x) < LV_ABS(dist)) dist = x;
 494:Drivers/lvgl/src/core/lv_indev_scroll.c ****             }
 495:Drivers/lvgl/src/core/lv_indev_scroll.c ****         }
 496:Drivers/lvgl/src/core/lv_indev_scroll.c ****     }
 497:Drivers/lvgl/src/core/lv_indev_scroll.c **** 
 498:Drivers/lvgl/src/core/lv_indev_scroll.c ****     return dist == LV_COORD_MAX ? 0 : -dist;
 499:Drivers/lvgl/src/core/lv_indev_scroll.c **** }
 500:Drivers/lvgl/src/core/lv_indev_scroll.c **** 
 501:Drivers/lvgl/src/core/lv_indev_scroll.c **** /**
 502:Drivers/lvgl/src/core/lv_indev_scroll.c ****  * Search for snap point in the `min` - `max` range.
 503:Drivers/lvgl/src/core/lv_indev_scroll.c ****  * @param obj the object on which snap point should be found
 504:Drivers/lvgl/src/core/lv_indev_scroll.c ****  * @param min ignore snap points smaller than this. (Absolute coordinate)
 505:Drivers/lvgl/src/core/lv_indev_scroll.c ****  * @param max ignore snap points greater than this. (Absolute coordinate)
 506:Drivers/lvgl/src/core/lv_indev_scroll.c ****  * @param ofs offset to snap points. Useful to get a snap point in an imagined case
 507:Drivers/lvgl/src/core/lv_indev_scroll.c ****  *            what if children are already moved by this value
 508:Drivers/lvgl/src/core/lv_indev_scroll.c ****  * @return the distance of the snap point.
 509:Drivers/lvgl/src/core/lv_indev_scroll.c ****  */
 510:Drivers/lvgl/src/core/lv_indev_scroll.c **** static lv_coord_t find_snap_point_y(const lv_obj_t * obj, lv_coord_t min, lv_coord_t max, lv_coord_
 511:Drivers/lvgl/src/core/lv_indev_scroll.c **** {
 512:Drivers/lvgl/src/core/lv_indev_scroll.c ****     lv_scroll_snap_t align = lv_obj_get_scroll_snap_y(obj);
 513:Drivers/lvgl/src/core/lv_indev_scroll.c ****     if(align == LV_SCROLL_SNAP_NONE) return 0;
 514:Drivers/lvgl/src/core/lv_indev_scroll.c **** 
 515:Drivers/lvgl/src/core/lv_indev_scroll.c ****     lv_coord_t dist = LV_COORD_MAX;
 516:Drivers/lvgl/src/core/lv_indev_scroll.c **** 
 517:Drivers/lvgl/src/core/lv_indev_scroll.c ****     lv_coord_t pad_top = lv_obj_get_style_pad_top(obj, LV_PART_MAIN);
 518:Drivers/lvgl/src/core/lv_indev_scroll.c ****     lv_coord_t pad_bottom = lv_obj_get_style_pad_bottom(obj, LV_PART_MAIN);
 519:Drivers/lvgl/src/core/lv_indev_scroll.c **** 
 520:Drivers/lvgl/src/core/lv_indev_scroll.c ****     uint32_t i;
 521:Drivers/lvgl/src/core/lv_indev_scroll.c ****     uint32_t child_cnt = lv_obj_get_child_cnt(obj);
 522:Drivers/lvgl/src/core/lv_indev_scroll.c ****     for(i = 0; i < child_cnt; i++) {
 523:Drivers/lvgl/src/core/lv_indev_scroll.c ****         lv_obj_t * child = obj->spec_attr->children[i];
 524:Drivers/lvgl/src/core/lv_indev_scroll.c ****         if(lv_obj_has_flag_any(child, LV_OBJ_FLAG_HIDDEN | LV_OBJ_FLAG_FLOATING)) continue;
 525:Drivers/lvgl/src/core/lv_indev_scroll.c ****         if(lv_obj_has_flag(child, LV_OBJ_FLAG_SNAPPABLE)) {
 526:Drivers/lvgl/src/core/lv_indev_scroll.c ****             lv_coord_t y_child = 0;
 527:Drivers/lvgl/src/core/lv_indev_scroll.c ****             lv_coord_t y_parent = 0;
 528:Drivers/lvgl/src/core/lv_indev_scroll.c ****             switch(align) {
 529:Drivers/lvgl/src/core/lv_indev_scroll.c ****                 case LV_SCROLL_SNAP_START:
 530:Drivers/lvgl/src/core/lv_indev_scroll.c ****                     y_child = child->coords.y1;
 531:Drivers/lvgl/src/core/lv_indev_scroll.c ****                     y_parent = obj->coords.y1 + pad_top;
 532:Drivers/lvgl/src/core/lv_indev_scroll.c ****                     break;
 533:Drivers/lvgl/src/core/lv_indev_scroll.c ****                 case LV_SCROLL_SNAP_END:
 534:Drivers/lvgl/src/core/lv_indev_scroll.c ****                     y_child = child->coords.y2;
 535:Drivers/lvgl/src/core/lv_indev_scroll.c ****                     y_parent = obj->coords.y2 - pad_bottom;
 536:Drivers/lvgl/src/core/lv_indev_scroll.c ****                     break;
 537:Drivers/lvgl/src/core/lv_indev_scroll.c ****                 case LV_SCROLL_SNAP_CENTER:
 538:Drivers/lvgl/src/core/lv_indev_scroll.c ****                     y_child = child->coords.y1 + lv_area_get_height(&child->coords) / 2;
 539:Drivers/lvgl/src/core/lv_indev_scroll.c ****                     y_parent = obj->coords.y1 + pad_top + (lv_area_get_height(&obj->coords) - pad_t
 540:Drivers/lvgl/src/core/lv_indev_scroll.c ****                     break;
 541:Drivers/lvgl/src/core/lv_indev_scroll.c ****                 default:
 542:Drivers/lvgl/src/core/lv_indev_scroll.c ****                     continue;
 543:Drivers/lvgl/src/core/lv_indev_scroll.c ****             }
ARM GAS  /var/folders/0z/tsy30v1j4xl4_7kw94k978ww0000gn/T//ccjK6xP1.s 			page 11


 544:Drivers/lvgl/src/core/lv_indev_scroll.c **** 
 545:Drivers/lvgl/src/core/lv_indev_scroll.c ****             y_child += ofs;
 546:Drivers/lvgl/src/core/lv_indev_scroll.c ****             if(y_child >= min && y_child <= max) {
 547:Drivers/lvgl/src/core/lv_indev_scroll.c ****                 lv_coord_t y = y_child -  y_parent;
 548:Drivers/lvgl/src/core/lv_indev_scroll.c ****                 if(LV_ABS(y) < LV_ABS(dist)) dist = y;
 549:Drivers/lvgl/src/core/lv_indev_scroll.c ****             }
 550:Drivers/lvgl/src/core/lv_indev_scroll.c ****         }
 551:Drivers/lvgl/src/core/lv_indev_scroll.c ****     }
 552:Drivers/lvgl/src/core/lv_indev_scroll.c **** 
 553:Drivers/lvgl/src/core/lv_indev_scroll.c ****     return dist == LV_COORD_MAX ? 0 : -dist;
 554:Drivers/lvgl/src/core/lv_indev_scroll.c **** }
 555:Drivers/lvgl/src/core/lv_indev_scroll.c **** 
 556:Drivers/lvgl/src/core/lv_indev_scroll.c **** static void scroll_limit_diff(_lv_indev_proc_t * proc, lv_coord_t * diff_x, lv_coord_t * diff_y)
 557:Drivers/lvgl/src/core/lv_indev_scroll.c **** {
  29              		.loc 1 557 1 view -0
  30              		.cfi_startproc
  31              		@ args = 0, pretend = 0, frame = 0
  32              		@ frame_needed = 0, uses_anonymous_args = 0
  33              		.loc 1 557 1 is_stmt 0 view .LVU1
  34 0000 00B5     		push	{lr}
  35              		.cfi_def_cfa_offset 4
  36              		.cfi_offset 14, -4
 558:Drivers/lvgl/src/core/lv_indev_scroll.c ****     if(diff_y) {
  37              		.loc 1 558 5 is_stmt 1 view .LVU2
  38              		.loc 1 558 7 is_stmt 0 view .LVU3
  39 0002 02B3     		cbz	r2, .L2
  40 0004 9446     		mov	ip, r2
 559:Drivers/lvgl/src/core/lv_indev_scroll.c ****         if(proc->types.pointer.scroll_sum.y + *diff_y < proc->types.pointer.scroll_area.y1) {
  41              		.loc 1 559 9 is_stmt 1 view .LVU4
  42              		.loc 1 559 42 is_stmt 0 view .LVU5
  43 0006 B0F91AE0 		ldrsh	lr, [r0, #26]
  44              		.loc 1 559 47 view .LVU6
  45 000a B2F90020 		ldrsh	r2, [r2]
  46              	.LVL1:
  47              		.loc 1 559 45 view .LVU7
  48 000e 7244     		add	r2, r2, lr
  49              		.loc 1 559 88 view .LVU8
  50 0010 B0F93630 		ldrsh	r3, [r0, #54]
  51              		.loc 1 559 11 view .LVU9
  52 0014 9A42     		cmp	r2, r3
  53 0016 06DA     		bge	.L3
 560:Drivers/lvgl/src/core/lv_indev_scroll.c ****             *diff_y = proc->types.pointer.scroll_area.y1 - proc->types.pointer.scroll_sum.y;
  54              		.loc 1 560 13 is_stmt 1 view .LVU10
  55              		.loc 1 560 54 is_stmt 0 view .LVU11
  56 0018 9BB2     		uxth	r3, r3
  57              		.loc 1 560 90 view .LVU12
  58 001a 1FFA8EFE 		uxth	lr, lr
  59              		.loc 1 560 58 view .LVU13
  60 001e A3EB0E03 		sub	r3, r3, lr
  61              		.loc 1 560 21 view .LVU14
  62 0022 ACF80030 		strh	r3, [ip]	@ movhi
  63              	.L3:
 561:Drivers/lvgl/src/core/lv_indev_scroll.c ****         }
 562:Drivers/lvgl/src/core/lv_indev_scroll.c **** 
 563:Drivers/lvgl/src/core/lv_indev_scroll.c ****         if(proc->types.pointer.scroll_sum.y + *diff_y > proc->types.pointer.scroll_area.y2) {
  64              		.loc 1 563 9 is_stmt 1 view .LVU15
  65              		.loc 1 563 42 is_stmt 0 view .LVU16
ARM GAS  /var/folders/0z/tsy30v1j4xl4_7kw94k978ww0000gn/T//ccjK6xP1.s 			page 12


  66 0026 B0F91AE0 		ldrsh	lr, [r0, #26]
  67              		.loc 1 563 47 view .LVU17
  68 002a BCF90020 		ldrsh	r2, [ip]
  69              		.loc 1 563 45 view .LVU18
  70 002e 7244     		add	r2, r2, lr
  71              		.loc 1 563 88 view .LVU19
  72 0030 B0F93A30 		ldrsh	r3, [r0, #58]
  73              		.loc 1 563 11 view .LVU20
  74 0034 9A42     		cmp	r2, r3
  75 0036 06DD     		ble	.L2
 564:Drivers/lvgl/src/core/lv_indev_scroll.c ****             *diff_y = proc->types.pointer.scroll_area.y2 - proc->types.pointer.scroll_sum.y;
  76              		.loc 1 564 13 is_stmt 1 view .LVU21
  77              		.loc 1 564 54 is_stmt 0 view .LVU22
  78 0038 9BB2     		uxth	r3, r3
  79              		.loc 1 564 90 view .LVU23
  80 003a 1FFA8EFE 		uxth	lr, lr
  81              		.loc 1 564 58 view .LVU24
  82 003e A3EB0E03 		sub	r3, r3, lr
  83              		.loc 1 564 21 view .LVU25
  84 0042 ACF80030 		strh	r3, [ip]	@ movhi
  85              	.LVL2:
  86              	.L2:
 565:Drivers/lvgl/src/core/lv_indev_scroll.c ****         }
 566:Drivers/lvgl/src/core/lv_indev_scroll.c ****     }
 567:Drivers/lvgl/src/core/lv_indev_scroll.c **** 
 568:Drivers/lvgl/src/core/lv_indev_scroll.c ****     if(diff_x) {
  87              		.loc 1 568 5 is_stmt 1 view .LVU26
  88              		.loc 1 568 7 is_stmt 0 view .LVU27
  89 0046 E9B1     		cbz	r1, .L1
 569:Drivers/lvgl/src/core/lv_indev_scroll.c ****         if(proc->types.pointer.scroll_sum.x + *diff_x < proc->types.pointer.scroll_area.x1) {
  90              		.loc 1 569 9 is_stmt 1 view .LVU28
  91              		.loc 1 569 42 is_stmt 0 view .LVU29
  92 0048 B0F918C0 		ldrsh	ip, [r0, #24]
  93              		.loc 1 569 47 view .LVU30
  94 004c B1F90020 		ldrsh	r2, [r1]
  95              		.loc 1 569 45 view .LVU31
  96 0050 6244     		add	r2, r2, ip
  97              		.loc 1 569 88 view .LVU32
  98 0052 B0F93430 		ldrsh	r3, [r0, #52]
  99              		.loc 1 569 11 view .LVU33
 100 0056 9A42     		cmp	r2, r3
 101 0058 05DA     		bge	.L5
 570:Drivers/lvgl/src/core/lv_indev_scroll.c ****             *diff_x = proc->types.pointer.scroll_area.x1 - proc->types.pointer.scroll_sum.x;
 102              		.loc 1 570 13 is_stmt 1 view .LVU34
 103              		.loc 1 570 54 is_stmt 0 view .LVU35
 104 005a 9BB2     		uxth	r3, r3
 105              		.loc 1 570 90 view .LVU36
 106 005c 1FFA8CFC 		uxth	ip, ip
 107              		.loc 1 570 58 view .LVU37
 108 0060 A3EB0C03 		sub	r3, r3, ip
 109              		.loc 1 570 21 view .LVU38
 110 0064 0B80     		strh	r3, [r1]	@ movhi
 111              	.L5:
 571:Drivers/lvgl/src/core/lv_indev_scroll.c ****         }
 572:Drivers/lvgl/src/core/lv_indev_scroll.c **** 
 573:Drivers/lvgl/src/core/lv_indev_scroll.c ****         if(proc->types.pointer.scroll_sum.x + *diff_x > proc->types.pointer.scroll_area.x2) {
 112              		.loc 1 573 9 is_stmt 1 view .LVU39
ARM GAS  /var/folders/0z/tsy30v1j4xl4_7kw94k978ww0000gn/T//ccjK6xP1.s 			page 13


 113              		.loc 1 573 42 is_stmt 0 view .LVU40
 114 0066 B0F918C0 		ldrsh	ip, [r0, #24]
 115              		.loc 1 573 47 view .LVU41
 116 006a B1F90020 		ldrsh	r2, [r1]
 117              		.loc 1 573 45 view .LVU42
 118 006e 6244     		add	r2, r2, ip
 119              		.loc 1 573 88 view .LVU43
 120 0070 B0F93830 		ldrsh	r3, [r0, #56]
 121              		.loc 1 573 11 view .LVU44
 122 0074 9A42     		cmp	r2, r3
 123 0076 05DD     		ble	.L1
 574:Drivers/lvgl/src/core/lv_indev_scroll.c ****             *diff_x = proc->types.pointer.scroll_area.x2 - proc->types.pointer.scroll_sum.x;
 124              		.loc 1 574 13 is_stmt 1 view .LVU45
 125              		.loc 1 574 54 is_stmt 0 view .LVU46
 126 0078 9BB2     		uxth	r3, r3
 127              		.loc 1 574 90 view .LVU47
 128 007a 1FFA8CFC 		uxth	ip, ip
 129              		.loc 1 574 58 view .LVU48
 130 007e A3EB0C03 		sub	r3, r3, ip
 131              		.loc 1 574 21 view .LVU49
 132 0082 0B80     		strh	r3, [r1]	@ movhi
 133              	.L1:
 575:Drivers/lvgl/src/core/lv_indev_scroll.c ****         }
 576:Drivers/lvgl/src/core/lv_indev_scroll.c ****     }
 577:Drivers/lvgl/src/core/lv_indev_scroll.c **** }
 134              		.loc 1 577 1 view .LVU50
 135 0084 5DF804FB 		ldr	pc, [sp], #4
 136              		.cfi_endproc
 137              	.LFE169:
 139              		.section	.text.scroll_throw_predict_y,"ax",%progbits
 140              		.align	1
 141              		.syntax unified
 142              		.thumb
 143              		.thumb_func
 145              	scroll_throw_predict_y:
 146              	.LVL3:
 147              	.LFB170:
 578:Drivers/lvgl/src/core/lv_indev_scroll.c **** 
 579:Drivers/lvgl/src/core/lv_indev_scroll.c **** 
 580:Drivers/lvgl/src/core/lv_indev_scroll.c **** 
 581:Drivers/lvgl/src/core/lv_indev_scroll.c **** static lv_coord_t scroll_throw_predict_y(_lv_indev_proc_t * proc)
 582:Drivers/lvgl/src/core/lv_indev_scroll.c **** {
 148              		.loc 1 582 1 is_stmt 1 view -0
 149              		.cfi_startproc
 150              		@ args = 0, pretend = 0, frame = 0
 151              		@ frame_needed = 0, uses_anonymous_args = 0
 152              		.loc 1 582 1 is_stmt 0 view .LVU52
 153 0000 10B5     		push	{r4, lr}
 154              		.cfi_def_cfa_offset 8
 155              		.cfi_offset 4, -8
 156              		.cfi_offset 14, -4
 583:Drivers/lvgl/src/core/lv_indev_scroll.c ****     lv_coord_t y = proc->types.pointer.scroll_throw_vect.y;
 157              		.loc 1 583 5 is_stmt 1 view .LVU53
 158              		.loc 1 583 16 is_stmt 0 view .LVU54
 159 0002 B0F91E40 		ldrsh	r4, [r0, #30]
 160              	.LVL4:
 584:Drivers/lvgl/src/core/lv_indev_scroll.c ****     lv_coord_t move = 0;
ARM GAS  /var/folders/0z/tsy30v1j4xl4_7kw94k978ww0000gn/T//ccjK6xP1.s 			page 14


 161              		.loc 1 584 5 is_stmt 1 view .LVU55
 585:Drivers/lvgl/src/core/lv_indev_scroll.c **** 
 586:Drivers/lvgl/src/core/lv_indev_scroll.c ****     lv_indev_t * indev_act = lv_indev_get_act();
 162              		.loc 1 586 5 view .LVU56
 163              		.loc 1 586 30 is_stmt 0 view .LVU57
 164 0006 FFF7FEFF 		bl	lv_indev_get_act
 165              	.LVL5:
 587:Drivers/lvgl/src/core/lv_indev_scroll.c ****     lv_coord_t scroll_throw = indev_act->driver->scroll_throw;
 166              		.loc 1 587 5 is_stmt 1 view .LVU58
 167              		.loc 1 587 40 is_stmt 0 view .LVU59
 168 000a 0368     		ldr	r3, [r0]
 169              		.loc 1 587 48 view .LVU60
 170 000c 5A7E     		ldrb	r2, [r3, #25]	@ zero_extendqisi2
 171              	.LVL6:
 588:Drivers/lvgl/src/core/lv_indev_scroll.c **** 
 589:Drivers/lvgl/src/core/lv_indev_scroll.c ****     while(y) {
 172              		.loc 1 589 5 is_stmt 1 view .LVU61
 584:Drivers/lvgl/src/core/lv_indev_scroll.c **** 
 173              		.loc 1 584 16 is_stmt 0 view .LVU62
 174 000e 0020     		movs	r0, #0
 175              	.LVL7:
 176              		.loc 1 589 10 view .LVU63
 177 0010 0CE0     		b	.L8
 178              	.LVL8:
 179              	.L9:
 590:Drivers/lvgl/src/core/lv_indev_scroll.c ****         move += y;
 180              		.loc 1 590 9 is_stmt 1 view .LVU64
 181              		.loc 1 590 14 is_stmt 0 view .LVU65
 182 0012 2044     		add	r0, r0, r4
 183              	.LVL9:
 184              		.loc 1 590 14 view .LVU66
 185 0014 00B2     		sxth	r0, r0
 186              	.LVL10:
 591:Drivers/lvgl/src/core/lv_indev_scroll.c ****         y = y * (100 - scroll_throw) / 100;
 187              		.loc 1 591 9 is_stmt 1 view .LVU67
 188              		.loc 1 591 22 is_stmt 0 view .LVU68
 189 0016 C2F16403 		rsb	r3, r2, #100
 190              		.loc 1 591 15 view .LVU69
 191 001a 03FB04F4 		mul	r4, r3, r4
 192              	.LVL11:
 193              		.loc 1 591 38 view .LVU70
 194 001e 054B     		ldr	r3, .L11
 195 0020 83FB0413 		smull	r1, r3, r3, r4
 196 0024 E417     		asrs	r4, r4, #31
 197 0026 C4EB6314 		rsb	r4, r4, r3, asr #5
 198              		.loc 1 591 11 view .LVU71
 199 002a 24B2     		sxth	r4, r4
 200              	.LVL12:
 201              	.L8:
 589:Drivers/lvgl/src/core/lv_indev_scroll.c ****         move += y;
 202              		.loc 1 589 11 is_stmt 1 view .LVU72
 203 002c 002C     		cmp	r4, #0
 204 002e F0D1     		bne	.L9
 592:Drivers/lvgl/src/core/lv_indev_scroll.c ****     }
 593:Drivers/lvgl/src/core/lv_indev_scroll.c ****     return move;
 205              		.loc 1 593 5 view .LVU73
 594:Drivers/lvgl/src/core/lv_indev_scroll.c **** }
ARM GAS  /var/folders/0z/tsy30v1j4xl4_7kw94k978ww0000gn/T//ccjK6xP1.s 			page 15


 206              		.loc 1 594 1 is_stmt 0 view .LVU74
 207 0030 10BD     		pop	{r4, pc}
 208              	.LVL13:
 209              	.L12:
 210              		.loc 1 594 1 view .LVU75
 211 0032 00BF     		.align	2
 212              	.L11:
 213 0034 1F85EB51 		.word	1374389535
 214              		.cfi_endproc
 215              	.LFE170:
 217              		.section	.text.scroll_throw_predict_x,"ax",%progbits
 218              		.align	1
 219              		.syntax unified
 220              		.thumb
 221              		.thumb_func
 223              	scroll_throw_predict_x:
 224              	.LVL14:
 225              	.LFB171:
 595:Drivers/lvgl/src/core/lv_indev_scroll.c **** 
 596:Drivers/lvgl/src/core/lv_indev_scroll.c **** 
 597:Drivers/lvgl/src/core/lv_indev_scroll.c **** static lv_coord_t scroll_throw_predict_x(_lv_indev_proc_t * proc)
 598:Drivers/lvgl/src/core/lv_indev_scroll.c **** {
 226              		.loc 1 598 1 is_stmt 1 view -0
 227              		.cfi_startproc
 228              		@ args = 0, pretend = 0, frame = 0
 229              		@ frame_needed = 0, uses_anonymous_args = 0
 230              		.loc 1 598 1 is_stmt 0 view .LVU77
 231 0000 10B5     		push	{r4, lr}
 232              		.cfi_def_cfa_offset 8
 233              		.cfi_offset 4, -8
 234              		.cfi_offset 14, -4
 599:Drivers/lvgl/src/core/lv_indev_scroll.c ****     lv_coord_t x = proc->types.pointer.scroll_throw_vect.x;
 235              		.loc 1 599 5 is_stmt 1 view .LVU78
 236              		.loc 1 599 16 is_stmt 0 view .LVU79
 237 0002 B0F91C40 		ldrsh	r4, [r0, #28]
 238              	.LVL15:
 600:Drivers/lvgl/src/core/lv_indev_scroll.c ****     lv_coord_t move = 0;
 239              		.loc 1 600 5 is_stmt 1 view .LVU80
 601:Drivers/lvgl/src/core/lv_indev_scroll.c **** 
 602:Drivers/lvgl/src/core/lv_indev_scroll.c ****     lv_indev_t * indev_act = lv_indev_get_act();
 240              		.loc 1 602 5 view .LVU81
 241              		.loc 1 602 30 is_stmt 0 view .LVU82
 242 0006 FFF7FEFF 		bl	lv_indev_get_act
 243              	.LVL16:
 603:Drivers/lvgl/src/core/lv_indev_scroll.c ****     lv_coord_t scroll_throw = indev_act->driver->scroll_throw;
 244              		.loc 1 603 5 is_stmt 1 view .LVU83
 245              		.loc 1 603 40 is_stmt 0 view .LVU84
 246 000a 0368     		ldr	r3, [r0]
 247              		.loc 1 603 48 view .LVU85
 248 000c 5A7E     		ldrb	r2, [r3, #25]	@ zero_extendqisi2
 249              	.LVL17:
 604:Drivers/lvgl/src/core/lv_indev_scroll.c **** 
 605:Drivers/lvgl/src/core/lv_indev_scroll.c ****     while(x) {
 250              		.loc 1 605 5 is_stmt 1 view .LVU86
 600:Drivers/lvgl/src/core/lv_indev_scroll.c **** 
 251              		.loc 1 600 16 is_stmt 0 view .LVU87
 252 000e 0020     		movs	r0, #0
ARM GAS  /var/folders/0z/tsy30v1j4xl4_7kw94k978ww0000gn/T//ccjK6xP1.s 			page 16


 253              	.LVL18:
 254              		.loc 1 605 10 view .LVU88
 255 0010 0CE0     		b	.L14
 256              	.LVL19:
 257              	.L15:
 606:Drivers/lvgl/src/core/lv_indev_scroll.c ****         move += x;
 258              		.loc 1 606 9 is_stmt 1 view .LVU89
 259              		.loc 1 606 14 is_stmt 0 view .LVU90
 260 0012 2044     		add	r0, r0, r4
 261              	.LVL20:
 262              		.loc 1 606 14 view .LVU91
 263 0014 00B2     		sxth	r0, r0
 264              	.LVL21:
 607:Drivers/lvgl/src/core/lv_indev_scroll.c ****         x = x * (100 - scroll_throw) / 100;
 265              		.loc 1 607 9 is_stmt 1 view .LVU92
 266              		.loc 1 607 22 is_stmt 0 view .LVU93
 267 0016 C2F16403 		rsb	r3, r2, #100
 268              		.loc 1 607 15 view .LVU94
 269 001a 03FB04F4 		mul	r4, r3, r4
 270              	.LVL22:
 271              		.loc 1 607 38 view .LVU95
 272 001e 054B     		ldr	r3, .L17
 273 0020 83FB0413 		smull	r1, r3, r3, r4
 274 0024 E417     		asrs	r4, r4, #31
 275 0026 C4EB6314 		rsb	r4, r4, r3, asr #5
 276              		.loc 1 607 11 view .LVU96
 277 002a 24B2     		sxth	r4, r4
 278              	.LVL23:
 279              	.L14:
 605:Drivers/lvgl/src/core/lv_indev_scroll.c ****         move += x;
 280              		.loc 1 605 11 is_stmt 1 view .LVU97
 281 002c 002C     		cmp	r4, #0
 282 002e F0D1     		bne	.L15
 608:Drivers/lvgl/src/core/lv_indev_scroll.c ****     }
 609:Drivers/lvgl/src/core/lv_indev_scroll.c ****     return move;
 283              		.loc 1 609 5 view .LVU98
 610:Drivers/lvgl/src/core/lv_indev_scroll.c **** }
 284              		.loc 1 610 1 is_stmt 0 view .LVU99
 285 0030 10BD     		pop	{r4, pc}
 286              	.LVL24:
 287              	.L18:
 288              		.loc 1 610 1 view .LVU100
 289 0032 00BF     		.align	2
 290              	.L17:
 291 0034 1F85EB51 		.word	1374389535
 292              		.cfi_endproc
 293              	.LFE171:
 295              		.section	.text.find_snap_point_y,"ax",%progbits
 296              		.align	1
 297              		.syntax unified
 298              		.thumb
 299              		.thumb_func
 301              	find_snap_point_y:
 302              	.LVL25:
 303              	.LFB168:
 511:Drivers/lvgl/src/core/lv_indev_scroll.c ****     lv_scroll_snap_t align = lv_obj_get_scroll_snap_y(obj);
 304              		.loc 1 511 1 is_stmt 1 view -0
ARM GAS  /var/folders/0z/tsy30v1j4xl4_7kw94k978ww0000gn/T//ccjK6xP1.s 			page 17


 305              		.cfi_startproc
 306              		@ args = 0, pretend = 0, frame = 24
 307              		@ frame_needed = 0, uses_anonymous_args = 0
 511:Drivers/lvgl/src/core/lv_indev_scroll.c ****     lv_scroll_snap_t align = lv_obj_get_scroll_snap_y(obj);
 308              		.loc 1 511 1 is_stmt 0 view .LVU102
 309 0000 2DE9F04F 		push	{r4, r5, r6, r7, r8, r9, r10, fp, lr}
 310              		.cfi_def_cfa_offset 36
 311              		.cfi_offset 4, -36
 312              		.cfi_offset 5, -32
 313              		.cfi_offset 6, -28
 314              		.cfi_offset 7, -24
 315              		.cfi_offset 8, -20
 316              		.cfi_offset 9, -16
 317              		.cfi_offset 10, -12
 318              		.cfi_offset 11, -8
 319              		.cfi_offset 14, -4
 320 0004 87B0     		sub	sp, sp, #28
 321              		.cfi_def_cfa_offset 64
 322 0006 0646     		mov	r6, r0
 323 0008 8A46     		mov	r10, r1
 324 000a 0192     		str	r2, [sp, #4]
 325 000c 9B46     		mov	fp, r3
 512:Drivers/lvgl/src/core/lv_indev_scroll.c ****     if(align == LV_SCROLL_SNAP_NONE) return 0;
 326              		.loc 1 512 5 is_stmt 1 view .LVU103
 512:Drivers/lvgl/src/core/lv_indev_scroll.c ****     if(align == LV_SCROLL_SNAP_NONE) return 0;
 327              		.loc 1 512 30 is_stmt 0 view .LVU104
 328 000e FFF7FEFF 		bl	lv_obj_get_scroll_snap_y
 329              	.LVL26:
 513:Drivers/lvgl/src/core/lv_indev_scroll.c **** 
 330              		.loc 1 513 5 is_stmt 1 view .LVU105
 513:Drivers/lvgl/src/core/lv_indev_scroll.c **** 
 331              		.loc 1 513 7 is_stmt 0 view .LVU106
 332 0012 18B9     		cbnz	r0, .L31
 513:Drivers/lvgl/src/core/lv_indev_scroll.c **** 
 333              		.loc 1 513 45 view .LVU107
 334 0014 0020     		movs	r0, #0
 335              	.LVL27:
 336              	.L20:
 554:Drivers/lvgl/src/core/lv_indev_scroll.c **** 
 337              		.loc 1 554 1 view .LVU108
 338 0016 07B0     		add	sp, sp, #28
 339              		.cfi_remember_state
 340              		.cfi_def_cfa_offset 36
 341              		@ sp needed
 342 0018 BDE8F08F 		pop	{r4, r5, r6, r7, r8, r9, r10, fp, pc}
 343              	.LVL28:
 344              	.L31:
 345              		.cfi_restore_state
 554:Drivers/lvgl/src/core/lv_indev_scroll.c **** 
 346              		.loc 1 554 1 view .LVU109
 347 001c 8146     		mov	r9, r0
 515:Drivers/lvgl/src/core/lv_indev_scroll.c **** 
 348              		.loc 1 515 5 is_stmt 1 view .LVU110
 349              	.LVL29:
 517:Drivers/lvgl/src/core/lv_indev_scroll.c ****     lv_coord_t pad_bottom = lv_obj_get_style_pad_bottom(obj, LV_PART_MAIN);
 350              		.loc 1 517 5 view .LVU111
 351              	.LBB62:
ARM GAS  /var/folders/0z/tsy30v1j4xl4_7kw94k978ww0000gn/T//ccjK6xP1.s 			page 18


 352              	.LBI62:
 353              		.file 2 "Drivers/lvgl/src/core/lv_obj_style_gen.h"
   1:Drivers/lvgl/src/core/lv_obj_style_gen.h **** static inline lv_coord_t lv_obj_get_style_width(const struct _lv_obj_t * obj, uint32_t part)
   2:Drivers/lvgl/src/core/lv_obj_style_gen.h **** {
   3:Drivers/lvgl/src/core/lv_obj_style_gen.h ****     lv_style_value_t v = lv_obj_get_style_prop(obj, part, LV_STYLE_WIDTH);
   4:Drivers/lvgl/src/core/lv_obj_style_gen.h ****     return (lv_coord_t)v.num;
   5:Drivers/lvgl/src/core/lv_obj_style_gen.h **** }
   6:Drivers/lvgl/src/core/lv_obj_style_gen.h **** 
   7:Drivers/lvgl/src/core/lv_obj_style_gen.h **** static inline lv_coord_t lv_obj_get_style_min_width(const struct _lv_obj_t * obj, uint32_t part)
   8:Drivers/lvgl/src/core/lv_obj_style_gen.h **** {
   9:Drivers/lvgl/src/core/lv_obj_style_gen.h ****     lv_style_value_t v = lv_obj_get_style_prop(obj, part, LV_STYLE_MIN_WIDTH);
  10:Drivers/lvgl/src/core/lv_obj_style_gen.h ****     return (lv_coord_t)v.num;
  11:Drivers/lvgl/src/core/lv_obj_style_gen.h **** }
  12:Drivers/lvgl/src/core/lv_obj_style_gen.h **** 
  13:Drivers/lvgl/src/core/lv_obj_style_gen.h **** static inline lv_coord_t lv_obj_get_style_max_width(const struct _lv_obj_t * obj, uint32_t part)
  14:Drivers/lvgl/src/core/lv_obj_style_gen.h **** {
  15:Drivers/lvgl/src/core/lv_obj_style_gen.h ****     lv_style_value_t v = lv_obj_get_style_prop(obj, part, LV_STYLE_MAX_WIDTH);
  16:Drivers/lvgl/src/core/lv_obj_style_gen.h ****     return (lv_coord_t)v.num;
  17:Drivers/lvgl/src/core/lv_obj_style_gen.h **** }
  18:Drivers/lvgl/src/core/lv_obj_style_gen.h **** 
  19:Drivers/lvgl/src/core/lv_obj_style_gen.h **** static inline lv_coord_t lv_obj_get_style_height(const struct _lv_obj_t * obj, uint32_t part)
  20:Drivers/lvgl/src/core/lv_obj_style_gen.h **** {
  21:Drivers/lvgl/src/core/lv_obj_style_gen.h ****     lv_style_value_t v = lv_obj_get_style_prop(obj, part, LV_STYLE_HEIGHT);
  22:Drivers/lvgl/src/core/lv_obj_style_gen.h ****     return (lv_coord_t)v.num;
  23:Drivers/lvgl/src/core/lv_obj_style_gen.h **** }
  24:Drivers/lvgl/src/core/lv_obj_style_gen.h **** 
  25:Drivers/lvgl/src/core/lv_obj_style_gen.h **** static inline lv_coord_t lv_obj_get_style_min_height(const struct _lv_obj_t * obj, uint32_t part)
  26:Drivers/lvgl/src/core/lv_obj_style_gen.h **** {
  27:Drivers/lvgl/src/core/lv_obj_style_gen.h ****     lv_style_value_t v = lv_obj_get_style_prop(obj, part, LV_STYLE_MIN_HEIGHT);
  28:Drivers/lvgl/src/core/lv_obj_style_gen.h ****     return (lv_coord_t)v.num;
  29:Drivers/lvgl/src/core/lv_obj_style_gen.h **** }
  30:Drivers/lvgl/src/core/lv_obj_style_gen.h **** 
  31:Drivers/lvgl/src/core/lv_obj_style_gen.h **** static inline lv_coord_t lv_obj_get_style_max_height(const struct _lv_obj_t * obj, uint32_t part)
  32:Drivers/lvgl/src/core/lv_obj_style_gen.h **** {
  33:Drivers/lvgl/src/core/lv_obj_style_gen.h ****     lv_style_value_t v = lv_obj_get_style_prop(obj, part, LV_STYLE_MAX_HEIGHT);
  34:Drivers/lvgl/src/core/lv_obj_style_gen.h ****     return (lv_coord_t)v.num;
  35:Drivers/lvgl/src/core/lv_obj_style_gen.h **** }
  36:Drivers/lvgl/src/core/lv_obj_style_gen.h **** 
  37:Drivers/lvgl/src/core/lv_obj_style_gen.h **** static inline lv_coord_t lv_obj_get_style_x(const struct _lv_obj_t * obj, uint32_t part)
  38:Drivers/lvgl/src/core/lv_obj_style_gen.h **** {
  39:Drivers/lvgl/src/core/lv_obj_style_gen.h ****     lv_style_value_t v = lv_obj_get_style_prop(obj, part, LV_STYLE_X);
  40:Drivers/lvgl/src/core/lv_obj_style_gen.h ****     return (lv_coord_t)v.num;
  41:Drivers/lvgl/src/core/lv_obj_style_gen.h **** }
  42:Drivers/lvgl/src/core/lv_obj_style_gen.h **** 
  43:Drivers/lvgl/src/core/lv_obj_style_gen.h **** static inline lv_coord_t lv_obj_get_style_y(const struct _lv_obj_t * obj, uint32_t part)
  44:Drivers/lvgl/src/core/lv_obj_style_gen.h **** {
  45:Drivers/lvgl/src/core/lv_obj_style_gen.h ****     lv_style_value_t v = lv_obj_get_style_prop(obj, part, LV_STYLE_Y);
  46:Drivers/lvgl/src/core/lv_obj_style_gen.h ****     return (lv_coord_t)v.num;
  47:Drivers/lvgl/src/core/lv_obj_style_gen.h **** }
  48:Drivers/lvgl/src/core/lv_obj_style_gen.h **** 
  49:Drivers/lvgl/src/core/lv_obj_style_gen.h **** static inline lv_align_t lv_obj_get_style_align(const struct _lv_obj_t * obj, uint32_t part)
  50:Drivers/lvgl/src/core/lv_obj_style_gen.h **** {
  51:Drivers/lvgl/src/core/lv_obj_style_gen.h ****     lv_style_value_t v = lv_obj_get_style_prop(obj, part, LV_STYLE_ALIGN);
  52:Drivers/lvgl/src/core/lv_obj_style_gen.h ****     return (lv_align_t)v.num;
  53:Drivers/lvgl/src/core/lv_obj_style_gen.h **** }
  54:Drivers/lvgl/src/core/lv_obj_style_gen.h **** 
  55:Drivers/lvgl/src/core/lv_obj_style_gen.h **** static inline lv_coord_t lv_obj_get_style_transform_width(const struct _lv_obj_t * obj, uint32_t pa
ARM GAS  /var/folders/0z/tsy30v1j4xl4_7kw94k978ww0000gn/T//ccjK6xP1.s 			page 19


  56:Drivers/lvgl/src/core/lv_obj_style_gen.h **** {
  57:Drivers/lvgl/src/core/lv_obj_style_gen.h ****     lv_style_value_t v = lv_obj_get_style_prop(obj, part, LV_STYLE_TRANSFORM_WIDTH);
  58:Drivers/lvgl/src/core/lv_obj_style_gen.h ****     return (lv_coord_t)v.num;
  59:Drivers/lvgl/src/core/lv_obj_style_gen.h **** }
  60:Drivers/lvgl/src/core/lv_obj_style_gen.h **** 
  61:Drivers/lvgl/src/core/lv_obj_style_gen.h **** static inline lv_coord_t lv_obj_get_style_transform_height(const struct _lv_obj_t * obj, uint32_t p
  62:Drivers/lvgl/src/core/lv_obj_style_gen.h **** {
  63:Drivers/lvgl/src/core/lv_obj_style_gen.h ****     lv_style_value_t v = lv_obj_get_style_prop(obj, part, LV_STYLE_TRANSFORM_HEIGHT);
  64:Drivers/lvgl/src/core/lv_obj_style_gen.h ****     return (lv_coord_t)v.num;
  65:Drivers/lvgl/src/core/lv_obj_style_gen.h **** }
  66:Drivers/lvgl/src/core/lv_obj_style_gen.h **** 
  67:Drivers/lvgl/src/core/lv_obj_style_gen.h **** static inline lv_coord_t lv_obj_get_style_translate_x(const struct _lv_obj_t * obj, uint32_t part)
  68:Drivers/lvgl/src/core/lv_obj_style_gen.h **** {
  69:Drivers/lvgl/src/core/lv_obj_style_gen.h ****     lv_style_value_t v = lv_obj_get_style_prop(obj, part, LV_STYLE_TRANSLATE_X);
  70:Drivers/lvgl/src/core/lv_obj_style_gen.h ****     return (lv_coord_t)v.num;
  71:Drivers/lvgl/src/core/lv_obj_style_gen.h **** }
  72:Drivers/lvgl/src/core/lv_obj_style_gen.h **** 
  73:Drivers/lvgl/src/core/lv_obj_style_gen.h **** static inline lv_coord_t lv_obj_get_style_translate_y(const struct _lv_obj_t * obj, uint32_t part)
  74:Drivers/lvgl/src/core/lv_obj_style_gen.h **** {
  75:Drivers/lvgl/src/core/lv_obj_style_gen.h ****     lv_style_value_t v = lv_obj_get_style_prop(obj, part, LV_STYLE_TRANSLATE_Y);
  76:Drivers/lvgl/src/core/lv_obj_style_gen.h ****     return (lv_coord_t)v.num;
  77:Drivers/lvgl/src/core/lv_obj_style_gen.h **** }
  78:Drivers/lvgl/src/core/lv_obj_style_gen.h **** 
  79:Drivers/lvgl/src/core/lv_obj_style_gen.h **** static inline lv_coord_t lv_obj_get_style_transform_zoom(const struct _lv_obj_t * obj, uint32_t par
  80:Drivers/lvgl/src/core/lv_obj_style_gen.h **** {
  81:Drivers/lvgl/src/core/lv_obj_style_gen.h ****     lv_style_value_t v = lv_obj_get_style_prop(obj, part, LV_STYLE_TRANSFORM_ZOOM);
  82:Drivers/lvgl/src/core/lv_obj_style_gen.h ****     return (lv_coord_t)v.num;
  83:Drivers/lvgl/src/core/lv_obj_style_gen.h **** }
  84:Drivers/lvgl/src/core/lv_obj_style_gen.h **** 
  85:Drivers/lvgl/src/core/lv_obj_style_gen.h **** static inline lv_coord_t lv_obj_get_style_transform_angle(const struct _lv_obj_t * obj, uint32_t pa
  86:Drivers/lvgl/src/core/lv_obj_style_gen.h **** {
  87:Drivers/lvgl/src/core/lv_obj_style_gen.h ****     lv_style_value_t v = lv_obj_get_style_prop(obj, part, LV_STYLE_TRANSFORM_ANGLE);
  88:Drivers/lvgl/src/core/lv_obj_style_gen.h ****     return (lv_coord_t)v.num;
  89:Drivers/lvgl/src/core/lv_obj_style_gen.h **** }
  90:Drivers/lvgl/src/core/lv_obj_style_gen.h **** 
  91:Drivers/lvgl/src/core/lv_obj_style_gen.h **** static inline lv_coord_t lv_obj_get_style_transform_pivot_x(const struct _lv_obj_t * obj, uint32_t 
  92:Drivers/lvgl/src/core/lv_obj_style_gen.h **** {
  93:Drivers/lvgl/src/core/lv_obj_style_gen.h ****     lv_style_value_t v = lv_obj_get_style_prop(obj, part, LV_STYLE_TRANSFORM_PIVOT_X);
  94:Drivers/lvgl/src/core/lv_obj_style_gen.h ****     return (lv_coord_t)v.num;
  95:Drivers/lvgl/src/core/lv_obj_style_gen.h **** }
  96:Drivers/lvgl/src/core/lv_obj_style_gen.h **** 
  97:Drivers/lvgl/src/core/lv_obj_style_gen.h **** static inline lv_coord_t lv_obj_get_style_transform_pivot_y(const struct _lv_obj_t * obj, uint32_t 
  98:Drivers/lvgl/src/core/lv_obj_style_gen.h **** {
  99:Drivers/lvgl/src/core/lv_obj_style_gen.h ****     lv_style_value_t v = lv_obj_get_style_prop(obj, part, LV_STYLE_TRANSFORM_PIVOT_Y);
 100:Drivers/lvgl/src/core/lv_obj_style_gen.h ****     return (lv_coord_t)v.num;
 101:Drivers/lvgl/src/core/lv_obj_style_gen.h **** }
 102:Drivers/lvgl/src/core/lv_obj_style_gen.h **** 
 103:Drivers/lvgl/src/core/lv_obj_style_gen.h **** static inline lv_coord_t lv_obj_get_style_pad_top(const struct _lv_obj_t * obj, uint32_t part)
 354              		.loc 2 103 26 view .LVU112
 355              	.LBB63:
 104:Drivers/lvgl/src/core/lv_obj_style_gen.h **** {
 105:Drivers/lvgl/src/core/lv_obj_style_gen.h ****     lv_style_value_t v = lv_obj_get_style_prop(obj, part, LV_STYLE_PAD_TOP);
 356              		.loc 2 105 5 view .LVU113
 357              		.loc 2 105 26 is_stmt 0 view .LVU114
 358 001e 1022     		movs	r2, #16
 359 0020 0021     		movs	r1, #0
 360 0022 3046     		mov	r0, r6
ARM GAS  /var/folders/0z/tsy30v1j4xl4_7kw94k978ww0000gn/T//ccjK6xP1.s 			page 20


 361              	.LVL30:
 362              		.loc 2 105 26 view .LVU115
 363 0024 FFF7FEFF 		bl	lv_obj_get_style_prop
 364              	.LVL31:
 365 0028 0290     		str	r0, [sp, #8]
 106:Drivers/lvgl/src/core/lv_obj_style_gen.h ****     return (lv_coord_t)v.num;
 366              		.loc 2 106 5 is_stmt 1 view .LVU116
 367              		.loc 2 106 12 is_stmt 0 view .LVU117
 368 002a 03B2     		sxth	r3, r0
 369 002c 0593     		str	r3, [sp, #20]
 370              	.LVL32:
 371              		.loc 2 106 12 view .LVU118
 372              	.LBE63:
 373              	.LBE62:
 518:Drivers/lvgl/src/core/lv_indev_scroll.c **** 
 374              		.loc 1 518 5 is_stmt 1 view .LVU119
 375              	.LBB64:
 376              	.LBI64:
 107:Drivers/lvgl/src/core/lv_obj_style_gen.h **** }
 108:Drivers/lvgl/src/core/lv_obj_style_gen.h **** 
 109:Drivers/lvgl/src/core/lv_obj_style_gen.h **** static inline lv_coord_t lv_obj_get_style_pad_bottom(const struct _lv_obj_t * obj, uint32_t part)
 377              		.loc 2 109 26 view .LVU120
 378              	.LBB65:
 110:Drivers/lvgl/src/core/lv_obj_style_gen.h **** {
 111:Drivers/lvgl/src/core/lv_obj_style_gen.h ****     lv_style_value_t v = lv_obj_get_style_prop(obj, part, LV_STYLE_PAD_BOTTOM);
 379              		.loc 2 111 5 view .LVU121
 380              		.loc 2 111 26 is_stmt 0 view .LVU122
 381 002e 1122     		movs	r2, #17
 382 0030 0021     		movs	r1, #0
 383 0032 3046     		mov	r0, r6
 384 0034 FFF7FEFF 		bl	lv_obj_get_style_prop
 385              	.LVL33:
 386 0038 0490     		str	r0, [sp, #16]
 112:Drivers/lvgl/src/core/lv_obj_style_gen.h ****     return (lv_coord_t)v.num;
 387              		.loc 2 112 5 is_stmt 1 view .LVU123
 388              		.loc 2 112 12 is_stmt 0 view .LVU124
 389 003a 03B2     		sxth	r3, r0
 390 003c 0393     		str	r3, [sp, #12]
 391              	.LVL34:
 392              		.loc 2 112 12 view .LVU125
 393              	.LBE65:
 394              	.LBE64:
 520:Drivers/lvgl/src/core/lv_indev_scroll.c ****     uint32_t child_cnt = lv_obj_get_child_cnt(obj);
 395              		.loc 1 520 5 is_stmt 1 view .LVU126
 521:Drivers/lvgl/src/core/lv_indev_scroll.c ****     for(i = 0; i < child_cnt; i++) {
 396              		.loc 1 521 5 view .LVU127
 521:Drivers/lvgl/src/core/lv_indev_scroll.c ****     for(i = 0; i < child_cnt; i++) {
 397              		.loc 1 521 26 is_stmt 0 view .LVU128
 398 003e 3046     		mov	r0, r6
 399 0040 FFF7FEFF 		bl	lv_obj_get_child_cnt
 400              	.LVL35:
 401 0044 0746     		mov	r7, r0
 402              	.LVL36:
 522:Drivers/lvgl/src/core/lv_indev_scroll.c ****         lv_obj_t * child = obj->spec_attr->children[i];
 403              		.loc 1 522 5 is_stmt 1 view .LVU129
 522:Drivers/lvgl/src/core/lv_indev_scroll.c ****         lv_obj_t * child = obj->spec_attr->children[i];
 404              		.loc 1 522 11 is_stmt 0 view .LVU130
ARM GAS  /var/folders/0z/tsy30v1j4xl4_7kw94k978ww0000gn/T//ccjK6xP1.s 			page 21


 405 0046 0024     		movs	r4, #0
 515:Drivers/lvgl/src/core/lv_indev_scroll.c **** 
 406              		.loc 1 515 16 view .LVU131
 407 0048 41F6FF78 		movw	r8, #8191
 522:Drivers/lvgl/src/core/lv_indev_scroll.c ****         lv_obj_t * child = obj->spec_attr->children[i];
 408              		.loc 1 522 5 view .LVU132
 409 004c 26E0     		b	.L21
 410              	.LVL37:
 411              	.L23:
 412              	.LBB66:
 413              	.LBB67:
 534:Drivers/lvgl/src/core/lv_indev_scroll.c ****                     y_parent = obj->coords.y2 - pad_bottom;
 414              		.loc 1 534 21 is_stmt 1 view .LVU133
 534:Drivers/lvgl/src/core/lv_indev_scroll.c ****                     y_parent = obj->coords.y2 - pad_bottom;
 415              		.loc 1 534 29 is_stmt 0 view .LVU134
 416 004e B5F91A30 		ldrsh	r3, [r5, #26]
 417              	.LVL38:
 535:Drivers/lvgl/src/core/lv_indev_scroll.c ****                     break;
 418              		.loc 1 535 21 is_stmt 1 view .LVU135
 535:Drivers/lvgl/src/core/lv_indev_scroll.c ****                     break;
 419              		.loc 1 535 43 is_stmt 0 view .LVU136
 420 0052 718B     		ldrh	r1, [r6, #26]
 535:Drivers/lvgl/src/core/lv_indev_scroll.c ****                     break;
 421              		.loc 1 535 47 view .LVU137
 422 0054 049A     		ldr	r2, [sp, #16]
 423 0056 891A     		subs	r1, r1, r2
 535:Drivers/lvgl/src/core/lv_indev_scroll.c ****                     break;
 424              		.loc 1 535 30 view .LVU138
 425 0058 09B2     		sxth	r1, r1
 426              	.LVL39:
 536:Drivers/lvgl/src/core/lv_indev_scroll.c ****                 case LV_SCROLL_SNAP_CENTER:
 427              		.loc 1 536 21 is_stmt 1 view .LVU139
 428 005a 41E0     		b	.L25
 429              	.LVL40:
 430              	.L24:
 538:Drivers/lvgl/src/core/lv_indev_scroll.c ****                     y_parent = obj->coords.y1 + pad_top + (lv_area_get_height(&obj->coords) - pad_t
 431              		.loc 1 538 21 view .LVU140
 538:Drivers/lvgl/src/core/lv_indev_scroll.c ****                     y_parent = obj->coords.y1 + pad_top + (lv_area_get_height(&obj->coords) - pad_t
 432              		.loc 1 538 44 is_stmt 0 view .LVU141
 433 005c EB8A     		ldrh	r3, [r5, #22]
 434              	.LVL41:
 435              	.LBB68:
 436              	.LBI68:
 437              		.file 3 "Drivers/lvgl/src/core/../misc/../font/../misc/lv_area.h"
   1:Drivers/lvgl/src/core/../misc/../font/../misc/lv_area.h **** /**
   2:Drivers/lvgl/src/core/../misc/../font/../misc/lv_area.h ****  * @file lv_area.h
   3:Drivers/lvgl/src/core/../misc/../font/../misc/lv_area.h ****  *
   4:Drivers/lvgl/src/core/../misc/../font/../misc/lv_area.h ****  */
   5:Drivers/lvgl/src/core/../misc/../font/../misc/lv_area.h **** 
   6:Drivers/lvgl/src/core/../misc/../font/../misc/lv_area.h **** #ifndef LV_AREA_H
   7:Drivers/lvgl/src/core/../misc/../font/../misc/lv_area.h **** #define LV_AREA_H
   8:Drivers/lvgl/src/core/../misc/../font/../misc/lv_area.h **** 
   9:Drivers/lvgl/src/core/../misc/../font/../misc/lv_area.h **** #ifdef __cplusplus
  10:Drivers/lvgl/src/core/../misc/../font/../misc/lv_area.h **** extern "C" {
  11:Drivers/lvgl/src/core/../misc/../font/../misc/lv_area.h **** #endif
  12:Drivers/lvgl/src/core/../misc/../font/../misc/lv_area.h **** 
  13:Drivers/lvgl/src/core/../misc/../font/../misc/lv_area.h **** /*********************
ARM GAS  /var/folders/0z/tsy30v1j4xl4_7kw94k978ww0000gn/T//ccjK6xP1.s 			page 22


  14:Drivers/lvgl/src/core/../misc/../font/../misc/lv_area.h ****  *      INCLUDES
  15:Drivers/lvgl/src/core/../misc/../font/../misc/lv_area.h ****  *********************/
  16:Drivers/lvgl/src/core/../misc/../font/../misc/lv_area.h **** #include "../lv_conf_internal.h"
  17:Drivers/lvgl/src/core/../misc/../font/../misc/lv_area.h **** #include <stdbool.h>
  18:Drivers/lvgl/src/core/../misc/../font/../misc/lv_area.h **** #include <stdint.h>
  19:Drivers/lvgl/src/core/../misc/../font/../misc/lv_area.h **** 
  20:Drivers/lvgl/src/core/../misc/../font/../misc/lv_area.h **** /*********************
  21:Drivers/lvgl/src/core/../misc/../font/../misc/lv_area.h ****  *      DEFINES
  22:Drivers/lvgl/src/core/../misc/../font/../misc/lv_area.h ****  *********************/
  23:Drivers/lvgl/src/core/../misc/../font/../misc/lv_area.h **** 
  24:Drivers/lvgl/src/core/../misc/../font/../misc/lv_area.h **** #if LV_USE_LARGE_COORD
  25:Drivers/lvgl/src/core/../misc/../font/../misc/lv_area.h **** typedef int32_t lv_coord_t;
  26:Drivers/lvgl/src/core/../misc/../font/../misc/lv_area.h **** #else
  27:Drivers/lvgl/src/core/../misc/../font/../misc/lv_area.h **** typedef int16_t lv_coord_t;
  28:Drivers/lvgl/src/core/../misc/../font/../misc/lv_area.h **** #endif
  29:Drivers/lvgl/src/core/../misc/../font/../misc/lv_area.h **** 
  30:Drivers/lvgl/src/core/../misc/../font/../misc/lv_area.h **** /**********************
  31:Drivers/lvgl/src/core/../misc/../font/../misc/lv_area.h ****  *      TYPEDEFS
  32:Drivers/lvgl/src/core/../misc/../font/../misc/lv_area.h ****  **********************/
  33:Drivers/lvgl/src/core/../misc/../font/../misc/lv_area.h **** 
  34:Drivers/lvgl/src/core/../misc/../font/../misc/lv_area.h **** /**
  35:Drivers/lvgl/src/core/../misc/../font/../misc/lv_area.h ****  * Represents a point on the screen.
  36:Drivers/lvgl/src/core/../misc/../font/../misc/lv_area.h ****  */
  37:Drivers/lvgl/src/core/../misc/../font/../misc/lv_area.h **** typedef struct {
  38:Drivers/lvgl/src/core/../misc/../font/../misc/lv_area.h ****     lv_coord_t x;
  39:Drivers/lvgl/src/core/../misc/../font/../misc/lv_area.h ****     lv_coord_t y;
  40:Drivers/lvgl/src/core/../misc/../font/../misc/lv_area.h **** } lv_point_t;
  41:Drivers/lvgl/src/core/../misc/../font/../misc/lv_area.h **** 
  42:Drivers/lvgl/src/core/../misc/../font/../misc/lv_area.h **** /** Represents an area of the screen.*/
  43:Drivers/lvgl/src/core/../misc/../font/../misc/lv_area.h **** typedef struct {
  44:Drivers/lvgl/src/core/../misc/../font/../misc/lv_area.h ****     lv_coord_t x1;
  45:Drivers/lvgl/src/core/../misc/../font/../misc/lv_area.h ****     lv_coord_t y1;
  46:Drivers/lvgl/src/core/../misc/../font/../misc/lv_area.h ****     lv_coord_t x2;
  47:Drivers/lvgl/src/core/../misc/../font/../misc/lv_area.h ****     lv_coord_t y2;
  48:Drivers/lvgl/src/core/../misc/../font/../misc/lv_area.h **** } lv_area_t;
  49:Drivers/lvgl/src/core/../misc/../font/../misc/lv_area.h **** 
  50:Drivers/lvgl/src/core/../misc/../font/../misc/lv_area.h **** /** Alignments*/
  51:Drivers/lvgl/src/core/../misc/../font/../misc/lv_area.h **** enum {
  52:Drivers/lvgl/src/core/../misc/../font/../misc/lv_area.h ****     LV_ALIGN_DEFAULT = 0,
  53:Drivers/lvgl/src/core/../misc/../font/../misc/lv_area.h ****     LV_ALIGN_TOP_LEFT,
  54:Drivers/lvgl/src/core/../misc/../font/../misc/lv_area.h ****     LV_ALIGN_TOP_MID,
  55:Drivers/lvgl/src/core/../misc/../font/../misc/lv_area.h ****     LV_ALIGN_TOP_RIGHT,
  56:Drivers/lvgl/src/core/../misc/../font/../misc/lv_area.h ****     LV_ALIGN_BOTTOM_LEFT,
  57:Drivers/lvgl/src/core/../misc/../font/../misc/lv_area.h ****     LV_ALIGN_BOTTOM_MID,
  58:Drivers/lvgl/src/core/../misc/../font/../misc/lv_area.h ****     LV_ALIGN_BOTTOM_RIGHT,
  59:Drivers/lvgl/src/core/../misc/../font/../misc/lv_area.h ****     LV_ALIGN_LEFT_MID,
  60:Drivers/lvgl/src/core/../misc/../font/../misc/lv_area.h ****     LV_ALIGN_RIGHT_MID,
  61:Drivers/lvgl/src/core/../misc/../font/../misc/lv_area.h ****     LV_ALIGN_CENTER,
  62:Drivers/lvgl/src/core/../misc/../font/../misc/lv_area.h **** 
  63:Drivers/lvgl/src/core/../misc/../font/../misc/lv_area.h ****     LV_ALIGN_OUT_TOP_LEFT,
  64:Drivers/lvgl/src/core/../misc/../font/../misc/lv_area.h ****     LV_ALIGN_OUT_TOP_MID,
  65:Drivers/lvgl/src/core/../misc/../font/../misc/lv_area.h ****     LV_ALIGN_OUT_TOP_RIGHT,
  66:Drivers/lvgl/src/core/../misc/../font/../misc/lv_area.h ****     LV_ALIGN_OUT_BOTTOM_LEFT,
  67:Drivers/lvgl/src/core/../misc/../font/../misc/lv_area.h ****     LV_ALIGN_OUT_BOTTOM_MID,
  68:Drivers/lvgl/src/core/../misc/../font/../misc/lv_area.h ****     LV_ALIGN_OUT_BOTTOM_RIGHT,
  69:Drivers/lvgl/src/core/../misc/../font/../misc/lv_area.h ****     LV_ALIGN_OUT_LEFT_TOP,
  70:Drivers/lvgl/src/core/../misc/../font/../misc/lv_area.h ****     LV_ALIGN_OUT_LEFT_MID,
ARM GAS  /var/folders/0z/tsy30v1j4xl4_7kw94k978ww0000gn/T//ccjK6xP1.s 			page 23


  71:Drivers/lvgl/src/core/../misc/../font/../misc/lv_area.h ****     LV_ALIGN_OUT_LEFT_BOTTOM,
  72:Drivers/lvgl/src/core/../misc/../font/../misc/lv_area.h ****     LV_ALIGN_OUT_RIGHT_TOP,
  73:Drivers/lvgl/src/core/../misc/../font/../misc/lv_area.h ****     LV_ALIGN_OUT_RIGHT_MID,
  74:Drivers/lvgl/src/core/../misc/../font/../misc/lv_area.h ****     LV_ALIGN_OUT_RIGHT_BOTTOM,
  75:Drivers/lvgl/src/core/../misc/../font/../misc/lv_area.h **** };
  76:Drivers/lvgl/src/core/../misc/../font/../misc/lv_area.h **** typedef uint8_t lv_align_t;
  77:Drivers/lvgl/src/core/../misc/../font/../misc/lv_area.h **** 
  78:Drivers/lvgl/src/core/../misc/../font/../misc/lv_area.h **** enum {
  79:Drivers/lvgl/src/core/../misc/../font/../misc/lv_area.h ****     LV_DIR_NONE     = 0x00,
  80:Drivers/lvgl/src/core/../misc/../font/../misc/lv_area.h ****     LV_DIR_LEFT     = (1 << 0),
  81:Drivers/lvgl/src/core/../misc/../font/../misc/lv_area.h ****     LV_DIR_RIGHT    = (1 << 1),
  82:Drivers/lvgl/src/core/../misc/../font/../misc/lv_area.h ****     LV_DIR_TOP      = (1 << 2),
  83:Drivers/lvgl/src/core/../misc/../font/../misc/lv_area.h ****     LV_DIR_BOTTOM   = (1 << 3),
  84:Drivers/lvgl/src/core/../misc/../font/../misc/lv_area.h ****     LV_DIR_HOR      = LV_DIR_LEFT | LV_DIR_RIGHT,
  85:Drivers/lvgl/src/core/../misc/../font/../misc/lv_area.h ****     LV_DIR_VER      = LV_DIR_TOP | LV_DIR_BOTTOM,
  86:Drivers/lvgl/src/core/../misc/../font/../misc/lv_area.h ****     LV_DIR_ALL      = LV_DIR_HOR | LV_DIR_VER,
  87:Drivers/lvgl/src/core/../misc/../font/../misc/lv_area.h **** };
  88:Drivers/lvgl/src/core/../misc/../font/../misc/lv_area.h **** 
  89:Drivers/lvgl/src/core/../misc/../font/../misc/lv_area.h **** typedef uint8_t lv_dir_t;
  90:Drivers/lvgl/src/core/../misc/../font/../misc/lv_area.h **** 
  91:Drivers/lvgl/src/core/../misc/../font/../misc/lv_area.h **** /**********************
  92:Drivers/lvgl/src/core/../misc/../font/../misc/lv_area.h ****  * GLOBAL PROTOTYPES
  93:Drivers/lvgl/src/core/../misc/../font/../misc/lv_area.h ****  **********************/
  94:Drivers/lvgl/src/core/../misc/../font/../misc/lv_area.h **** 
  95:Drivers/lvgl/src/core/../misc/../font/../misc/lv_area.h **** /**
  96:Drivers/lvgl/src/core/../misc/../font/../misc/lv_area.h ****  * Initialize an area
  97:Drivers/lvgl/src/core/../misc/../font/../misc/lv_area.h ****  * @param area_p pointer to an area
  98:Drivers/lvgl/src/core/../misc/../font/../misc/lv_area.h ****  * @param x1 left coordinate of the area
  99:Drivers/lvgl/src/core/../misc/../font/../misc/lv_area.h ****  * @param y1 top coordinate of the area
 100:Drivers/lvgl/src/core/../misc/../font/../misc/lv_area.h ****  * @param x2 right coordinate of the area
 101:Drivers/lvgl/src/core/../misc/../font/../misc/lv_area.h ****  * @param y2 bottom coordinate of the area
 102:Drivers/lvgl/src/core/../misc/../font/../misc/lv_area.h ****  */
 103:Drivers/lvgl/src/core/../misc/../font/../misc/lv_area.h **** void lv_area_set(lv_area_t * area_p, lv_coord_t x1, lv_coord_t y1, lv_coord_t x2, lv_coord_t y2);
 104:Drivers/lvgl/src/core/../misc/../font/../misc/lv_area.h **** 
 105:Drivers/lvgl/src/core/../misc/../font/../misc/lv_area.h **** /**
 106:Drivers/lvgl/src/core/../misc/../font/../misc/lv_area.h ****  * Copy an area
 107:Drivers/lvgl/src/core/../misc/../font/../misc/lv_area.h ****  * @param dest pointer to the destination area
 108:Drivers/lvgl/src/core/../misc/../font/../misc/lv_area.h ****  * @param src pointer to the source area
 109:Drivers/lvgl/src/core/../misc/../font/../misc/lv_area.h ****  */
 110:Drivers/lvgl/src/core/../misc/../font/../misc/lv_area.h **** inline static void lv_area_copy(lv_area_t * dest, const lv_area_t * src)
 111:Drivers/lvgl/src/core/../misc/../font/../misc/lv_area.h **** {
 112:Drivers/lvgl/src/core/../misc/../font/../misc/lv_area.h ****     dest->x1 = src->x1;
 113:Drivers/lvgl/src/core/../misc/../font/../misc/lv_area.h ****     dest->y1 = src->y1;
 114:Drivers/lvgl/src/core/../misc/../font/../misc/lv_area.h ****     dest->x2 = src->x2;
 115:Drivers/lvgl/src/core/../misc/../font/../misc/lv_area.h ****     dest->y2 = src->y2;
 116:Drivers/lvgl/src/core/../misc/../font/../misc/lv_area.h **** }
 117:Drivers/lvgl/src/core/../misc/../font/../misc/lv_area.h **** 
 118:Drivers/lvgl/src/core/../misc/../font/../misc/lv_area.h **** /**
 119:Drivers/lvgl/src/core/../misc/../font/../misc/lv_area.h ****  * Get the width of an area
 120:Drivers/lvgl/src/core/../misc/../font/../misc/lv_area.h ****  * @param area_p pointer to an area
 121:Drivers/lvgl/src/core/../misc/../font/../misc/lv_area.h ****  * @return the width of the area (if x1 == x2 -> width = 1)
 122:Drivers/lvgl/src/core/../misc/../font/../misc/lv_area.h ****  */
 123:Drivers/lvgl/src/core/../misc/../font/../misc/lv_area.h **** static inline lv_coord_t lv_area_get_width(const lv_area_t * area_p)
 124:Drivers/lvgl/src/core/../misc/../font/../misc/lv_area.h **** {
 125:Drivers/lvgl/src/core/../misc/../font/../misc/lv_area.h ****     return (lv_coord_t)(area_p->x2 - area_p->x1 + 1);
 126:Drivers/lvgl/src/core/../misc/../font/../misc/lv_area.h **** }
 127:Drivers/lvgl/src/core/../misc/../font/../misc/lv_area.h **** 
ARM GAS  /var/folders/0z/tsy30v1j4xl4_7kw94k978ww0000gn/T//ccjK6xP1.s 			page 24


 128:Drivers/lvgl/src/core/../misc/../font/../misc/lv_area.h **** /**
 129:Drivers/lvgl/src/core/../misc/../font/../misc/lv_area.h ****  * Get the height of an area
 130:Drivers/lvgl/src/core/../misc/../font/../misc/lv_area.h ****  * @param area_p pointer to an area
 131:Drivers/lvgl/src/core/../misc/../font/../misc/lv_area.h ****  * @return the height of the area (if y1 == y2 -> height = 1)
 132:Drivers/lvgl/src/core/../misc/../font/../misc/lv_area.h ****  */
 133:Drivers/lvgl/src/core/../misc/../font/../misc/lv_area.h **** static inline lv_coord_t lv_area_get_height(const lv_area_t * area_p)
 438              		.loc 3 133 26 is_stmt 1 view .LVU142
 439              	.LBB69:
 134:Drivers/lvgl/src/core/../misc/../font/../misc/lv_area.h **** {
 135:Drivers/lvgl/src/core/../misc/../font/../misc/lv_area.h ****     return (lv_coord_t)(area_p->y2 - area_p->y1 + 1);
 440              		.loc 3 135 5 view .LVU143
 441              		.loc 3 135 31 is_stmt 0 view .LVU144
 442 005e 6A8B     		ldrh	r2, [r5, #26]
 443              		.loc 3 135 36 view .LVU145
 444 0060 D21A     		subs	r2, r2, r3
 445 0062 92B2     		uxth	r2, r2
 446              		.loc 3 135 49 view .LVU146
 447 0064 0132     		adds	r2, r2, #1
 448              	.LVL42:
 449              		.loc 3 135 49 view .LVU147
 450              	.LBE69:
 451              	.LBE68:
 538:Drivers/lvgl/src/core/lv_indev_scroll.c ****                     y_parent = obj->coords.y1 + pad_top + (lv_area_get_height(&obj->coords) - pad_t
 452              		.loc 1 538 48 view .LVU148
 453 0066 C2F3C031 		ubfx	r1, r2, #15, #1
 454 006a 01FA82F2 		sxtah	r2, r1, r2
 455 006e 03EB6203 		add	r3, r3, r2, asr #1
 538:Drivers/lvgl/src/core/lv_indev_scroll.c ****                     y_parent = obj->coords.y1 + pad_top + (lv_area_get_height(&obj->coords) - pad_t
 456              		.loc 1 538 29 view .LVU149
 457 0072 1BB2     		sxth	r3, r3
 458              	.LVL43:
 539:Drivers/lvgl/src/core/lv_indev_scroll.c ****                     break;
 459              		.loc 1 539 21 is_stmt 1 view .LVU150
 539:Drivers/lvgl/src/core/lv_indev_scroll.c ****                     break;
 460              		.loc 1 539 43 is_stmt 0 view .LVU151
 461 0074 F08A     		ldrh	r0, [r6, #22]
 539:Drivers/lvgl/src/core/lv_indev_scroll.c ****                     break;
 462              		.loc 1 539 47 view .LVU152
 463 0076 029A     		ldr	r2, [sp, #8]
 464 0078 8118     		adds	r1, r0, r2
 465              	.LVL44:
 466              	.LBB70:
 467              	.LBI70:
 133:Drivers/lvgl/src/core/../misc/../font/../misc/lv_area.h **** {
 468              		.loc 3 133 26 is_stmt 1 view .LVU153
 469              	.LBB71:
 470              		.loc 3 135 5 view .LVU154
 471              		.loc 3 135 31 is_stmt 0 view .LVU155
 472 007a 728B     		ldrh	r2, [r6, #26]
 473              		.loc 3 135 36 view .LVU156
 474 007c 121A     		subs	r2, r2, r0
 475 007e 92B2     		uxth	r2, r2
 476              		.loc 3 135 49 view .LVU157
 477 0080 0132     		adds	r2, r2, #1
 478              		.loc 3 135 12 view .LVU158
 479 0082 12B2     		sxth	r2, r2
 480              	.LVL45:
ARM GAS  /var/folders/0z/tsy30v1j4xl4_7kw94k978ww0000gn/T//ccjK6xP1.s 			page 25


 481              		.loc 3 135 12 view .LVU159
 482              	.LBE71:
 483              	.LBE70:
 539:Drivers/lvgl/src/core/lv_indev_scroll.c ****                     break;
 484              		.loc 1 539 93 view .LVU160
 485 0084 0598     		ldr	r0, [sp, #20]
 486 0086 121A     		subs	r2, r2, r0
 539:Drivers/lvgl/src/core/lv_indev_scroll.c ****                     break;
 487              		.loc 1 539 103 view .LVU161
 488 0088 0398     		ldr	r0, [sp, #12]
 489 008a 121A     		subs	r2, r2, r0
 539:Drivers/lvgl/src/core/lv_indev_scroll.c ****                     break;
 490              		.loc 1 539 117 view .LVU162
 491 008c 02EBD272 		add	r2, r2, r2, lsr #31
 492 0090 5210     		asrs	r2, r2, #1
 539:Drivers/lvgl/src/core/lv_indev_scroll.c ****                     break;
 493              		.loc 1 539 57 view .LVU163
 494 0092 12FA81F1 		uxtah	r1, r2, r1
 539:Drivers/lvgl/src/core/lv_indev_scroll.c ****                     break;
 495              		.loc 1 539 30 view .LVU164
 496 0096 09B2     		sxth	r1, r1
 497              	.LVL46:
 540:Drivers/lvgl/src/core/lv_indev_scroll.c ****                 default:
 498              		.loc 1 540 21 is_stmt 1 view .LVU165
 499 0098 22E0     		b	.L25
 500              	.LVL47:
 501              	.L22:
 540:Drivers/lvgl/src/core/lv_indev_scroll.c ****                 default:
 502              		.loc 1 540 21 is_stmt 0 view .LVU166
 503              	.LBE67:
 504              	.LBE66:
 522:Drivers/lvgl/src/core/lv_indev_scroll.c ****         lv_obj_t * child = obj->spec_attr->children[i];
 505              		.loc 1 522 32 is_stmt 1 discriminator 2 view .LVU167
 506 009a 0134     		adds	r4, r4, #1
 507              	.LVL48:
 508              	.L21:
 522:Drivers/lvgl/src/core/lv_indev_scroll.c ****         lv_obj_t * child = obj->spec_attr->children[i];
 509              		.loc 1 522 18 discriminator 1 view .LVU168
 510 009c BC42     		cmp	r4, r7
 511 009e 37D2     		bcs	.L32
 512              	.LBB74:
 523:Drivers/lvgl/src/core/lv_indev_scroll.c ****         if(lv_obj_has_flag_any(child, LV_OBJ_FLAG_HIDDEN | LV_OBJ_FLAG_FLOATING)) continue;
 513              		.loc 1 523 9 view .LVU169
 523:Drivers/lvgl/src/core/lv_indev_scroll.c ****         if(lv_obj_has_flag_any(child, LV_OBJ_FLAG_HIDDEN | LV_OBJ_FLAG_FLOATING)) continue;
 514              		.loc 1 523 31 is_stmt 0 view .LVU170
 515 00a0 B368     		ldr	r3, [r6, #8]
 523:Drivers/lvgl/src/core/lv_indev_scroll.c ****         if(lv_obj_has_flag_any(child, LV_OBJ_FLAG_HIDDEN | LV_OBJ_FLAG_FLOATING)) continue;
 516              		.loc 1 523 42 view .LVU171
 517 00a2 1B68     		ldr	r3, [r3]
 523:Drivers/lvgl/src/core/lv_indev_scroll.c ****         if(lv_obj_has_flag_any(child, LV_OBJ_FLAG_HIDDEN | LV_OBJ_FLAG_FLOATING)) continue;
 518              		.loc 1 523 20 view .LVU172
 519 00a4 53F82450 		ldr	r5, [r3, r4, lsl #2]
 520              	.LVL49:
 524:Drivers/lvgl/src/core/lv_indev_scroll.c ****         if(lv_obj_has_flag(child, LV_OBJ_FLAG_SNAPPABLE)) {
 521              		.loc 1 524 9 is_stmt 1 view .LVU173
 524:Drivers/lvgl/src/core/lv_indev_scroll.c ****         if(lv_obj_has_flag(child, LV_OBJ_FLAG_SNAPPABLE)) {
 522              		.loc 1 524 12 is_stmt 0 view .LVU174
ARM GAS  /var/folders/0z/tsy30v1j4xl4_7kw94k978ww0000gn/T//ccjK6xP1.s 			page 26


 523 00a8 1E49     		ldr	r1, .L33
 524 00aa 2846     		mov	r0, r5
 525 00ac FFF7FEFF 		bl	lv_obj_has_flag_any
 526              	.LVL50:
 524:Drivers/lvgl/src/core/lv_indev_scroll.c ****         if(lv_obj_has_flag(child, LV_OBJ_FLAG_SNAPPABLE)) {
 527              		.loc 1 524 11 view .LVU175
 528 00b0 0028     		cmp	r0, #0
 529 00b2 F2D1     		bne	.L22
 525:Drivers/lvgl/src/core/lv_indev_scroll.c ****             lv_coord_t y_child = 0;
 530              		.loc 1 525 9 is_stmt 1 view .LVU176
 525:Drivers/lvgl/src/core/lv_indev_scroll.c ****             lv_coord_t y_child = 0;
 531              		.loc 1 525 12 is_stmt 0 view .LVU177
 532 00b4 4FF48051 		mov	r1, #4096
 533 00b8 2846     		mov	r0, r5
 534 00ba FFF7FEFF 		bl	lv_obj_has_flag
 535              	.LVL51:
 525:Drivers/lvgl/src/core/lv_indev_scroll.c ****             lv_coord_t y_child = 0;
 536              		.loc 1 525 11 view .LVU178
 537 00be 0028     		cmp	r0, #0
 538 00c0 EBD0     		beq	.L22
 539              	.LBB73:
 526:Drivers/lvgl/src/core/lv_indev_scroll.c ****             lv_coord_t y_parent = 0;
 540              		.loc 1 526 13 is_stmt 1 view .LVU179
 541              	.LVL52:
 527:Drivers/lvgl/src/core/lv_indev_scroll.c ****             switch(align) {
 542              		.loc 1 527 13 view .LVU180
 528:Drivers/lvgl/src/core/lv_indev_scroll.c ****                 case LV_SCROLL_SNAP_START:
 543              		.loc 1 528 13 view .LVU181
 544 00c2 B9F1020F 		cmp	r9, #2
 545 00c6 C2D0     		beq	.L23
 546 00c8 B9F1030F 		cmp	r9, #3
 547 00cc C6D0     		beq	.L24
 548 00ce B9F1010F 		cmp	r9, #1
 549 00d2 E2D1     		bne	.L22
 530:Drivers/lvgl/src/core/lv_indev_scroll.c ****                     y_parent = obj->coords.y1 + pad_top;
 550              		.loc 1 530 21 view .LVU182
 530:Drivers/lvgl/src/core/lv_indev_scroll.c ****                     y_parent = obj->coords.y1 + pad_top;
 551              		.loc 1 530 29 is_stmt 0 view .LVU183
 552 00d4 B5F91630 		ldrsh	r3, [r5, #22]
 553              	.LVL53:
 531:Drivers/lvgl/src/core/lv_indev_scroll.c ****                     break;
 554              		.loc 1 531 21 is_stmt 1 view .LVU184
 531:Drivers/lvgl/src/core/lv_indev_scroll.c ****                     break;
 555              		.loc 1 531 43 is_stmt 0 view .LVU185
 556 00d8 F18A     		ldrh	r1, [r6, #22]
 531:Drivers/lvgl/src/core/lv_indev_scroll.c ****                     break;
 557              		.loc 1 531 47 view .LVU186
 558 00da 029A     		ldr	r2, [sp, #8]
 559 00dc 1144     		add	r1, r1, r2
 531:Drivers/lvgl/src/core/lv_indev_scroll.c ****                     break;
 560              		.loc 1 531 30 view .LVU187
 561 00de 09B2     		sxth	r1, r1
 562              	.LVL54:
 532:Drivers/lvgl/src/core/lv_indev_scroll.c ****                 case LV_SCROLL_SNAP_END:
 563              		.loc 1 532 21 is_stmt 1 view .LVU188
 564              	.L25:
 545:Drivers/lvgl/src/core/lv_indev_scroll.c ****             if(y_child >= min && y_child <= max) {
ARM GAS  /var/folders/0z/tsy30v1j4xl4_7kw94k978ww0000gn/T//ccjK6xP1.s 			page 27


 565              		.loc 1 545 13 view .LVU189
 545:Drivers/lvgl/src/core/lv_indev_scroll.c ****             if(y_child >= min && y_child <= max) {
 566              		.loc 1 545 21 is_stmt 0 view .LVU190
 567 00e0 5B44     		add	r3, r3, fp
 568              	.LVL55:
 545:Drivers/lvgl/src/core/lv_indev_scroll.c ****             if(y_child >= min && y_child <= max) {
 569              		.loc 1 545 21 view .LVU191
 570 00e2 9AB2     		uxth	r2, r3
 571 00e4 1BB2     		sxth	r3, r3
 572              	.LVL56:
 546:Drivers/lvgl/src/core/lv_indev_scroll.c ****                 lv_coord_t y = y_child -  y_parent;
 573              		.loc 1 546 13 is_stmt 1 view .LVU192
 546:Drivers/lvgl/src/core/lv_indev_scroll.c ****                 lv_coord_t y = y_child -  y_parent;
 574              		.loc 1 546 15 is_stmt 0 view .LVU193
 575 00e6 5345     		cmp	r3, r10
 576 00e8 D7DB     		blt	.L22
 546:Drivers/lvgl/src/core/lv_indev_scroll.c ****                 lv_coord_t y = y_child -  y_parent;
 577              		.loc 1 546 31 discriminator 1 view .LVU194
 578 00ea 0198     		ldr	r0, [sp, #4]
 579 00ec 8342     		cmp	r3, r0
 580 00ee D4DC     		bgt	.L22
 581              	.LBB72:
 547:Drivers/lvgl/src/core/lv_indev_scroll.c ****                 if(LV_ABS(y) < LV_ABS(dist)) dist = y;
 582              		.loc 1 547 17 is_stmt 1 view .LVU195
 547:Drivers/lvgl/src/core/lv_indev_scroll.c ****                 if(LV_ABS(y) < LV_ABS(dist)) dist = y;
 583              		.loc 1 547 40 is_stmt 0 view .LVU196
 584 00f0 521A     		subs	r2, r2, r1
 547:Drivers/lvgl/src/core/lv_indev_scroll.c ****                 if(LV_ABS(y) < LV_ABS(dist)) dist = y;
 585              		.loc 1 547 28 view .LVU197
 586 00f2 12B2     		sxth	r2, r2
 587              	.LVL57:
 548:Drivers/lvgl/src/core/lv_indev_scroll.c ****             }
 588              		.loc 1 548 17 is_stmt 1 view .LVU198
 548:Drivers/lvgl/src/core/lv_indev_scroll.c ****             }
 589              		.loc 1 548 20 is_stmt 0 view .LVU199
 590 00f4 82EAE271 		eor	r1, r2, r2, asr #31
 591              	.LVL58:
 548:Drivers/lvgl/src/core/lv_indev_scroll.c ****             }
 592              		.loc 1 548 20 view .LVU200
 593 00f8 A1EBE271 		sub	r1, r1, r2, asr #31
 594 00fc 89B2     		uxth	r1, r1
 548:Drivers/lvgl/src/core/lv_indev_scroll.c ****             }
 595              		.loc 1 548 32 view .LVU201
 596 00fe 88EAE873 		eor	r3, r8, r8, asr #31
 597              	.LVL59:
 548:Drivers/lvgl/src/core/lv_indev_scroll.c ****             }
 598              		.loc 1 548 32 view .LVU202
 599 0102 A3EBE873 		sub	r3, r3, r8, asr #31
 600 0106 9BB2     		uxth	r3, r3
 548:Drivers/lvgl/src/core/lv_indev_scroll.c ****             }
 601              		.loc 1 548 19 view .LVU203
 602 0108 9942     		cmp	r1, r3
 603 010a C6D2     		bcs	.L22
 548:Drivers/lvgl/src/core/lv_indev_scroll.c ****             }
 604              		.loc 1 548 51 view .LVU204
 605 010c 9046     		mov	r8, r2
 606              	.LVL60:
ARM GAS  /var/folders/0z/tsy30v1j4xl4_7kw94k978ww0000gn/T//ccjK6xP1.s 			page 28


 548:Drivers/lvgl/src/core/lv_indev_scroll.c ****             }
 607              		.loc 1 548 51 view .LVU205
 608 010e C4E7     		b	.L22
 609              	.LVL61:
 610              	.L32:
 548:Drivers/lvgl/src/core/lv_indev_scroll.c ****             }
 611              		.loc 1 548 51 view .LVU206
 612              	.LBE72:
 613              	.LBE73:
 614              	.LBE74:
 553:Drivers/lvgl/src/core/lv_indev_scroll.c **** }
 615              		.loc 1 553 5 is_stmt 1 view .LVU207
 553:Drivers/lvgl/src/core/lv_indev_scroll.c **** }
 616              		.loc 1 553 37 is_stmt 0 view .LVU208
 617 0110 41F6FF73 		movw	r3, #8191
 618 0114 9845     		cmp	r8, r3
 619 0116 03D0     		beq	.L29
 553:Drivers/lvgl/src/core/lv_indev_scroll.c **** }
 620              		.loc 1 553 37 discriminator 1 view .LVU209
 621 0118 C8F10000 		rsb	r0, r8, #0
 622 011c 00B2     		sxth	r0, r0
 623 011e 7AE7     		b	.L20
 624              	.L29:
 553:Drivers/lvgl/src/core/lv_indev_scroll.c **** }
 625              		.loc 1 553 37 view .LVU210
 626 0120 0020     		movs	r0, #0
 627 0122 78E7     		b	.L20
 628              	.L34:
 629              		.align	2
 630              	.L33:
 631 0124 01000400 		.word	262145
 632              		.cfi_endproc
 633              	.LFE168:
 635              		.section	.text.find_snap_point_x,"ax",%progbits
 636              		.align	1
 637              		.syntax unified
 638              		.thumb
 639              		.thumb_func
 641              	find_snap_point_x:
 642              	.LVL62:
 643              	.LFB167:
 456:Drivers/lvgl/src/core/lv_indev_scroll.c ****     lv_scroll_snap_t align = lv_obj_get_scroll_snap_x(obj);
 644              		.loc 1 456 1 is_stmt 1 view -0
 645              		.cfi_startproc
 646              		@ args = 0, pretend = 0, frame = 24
 647              		@ frame_needed = 0, uses_anonymous_args = 0
 456:Drivers/lvgl/src/core/lv_indev_scroll.c ****     lv_scroll_snap_t align = lv_obj_get_scroll_snap_x(obj);
 648              		.loc 1 456 1 is_stmt 0 view .LVU212
 649 0000 2DE9F04F 		push	{r4, r5, r6, r7, r8, r9, r10, fp, lr}
 650              		.cfi_def_cfa_offset 36
 651              		.cfi_offset 4, -36
 652              		.cfi_offset 5, -32
 653              		.cfi_offset 6, -28
 654              		.cfi_offset 7, -24
 655              		.cfi_offset 8, -20
 656              		.cfi_offset 9, -16
 657              		.cfi_offset 10, -12
ARM GAS  /var/folders/0z/tsy30v1j4xl4_7kw94k978ww0000gn/T//ccjK6xP1.s 			page 29


 658              		.cfi_offset 11, -8
 659              		.cfi_offset 14, -4
 660 0004 87B0     		sub	sp, sp, #28
 661              		.cfi_def_cfa_offset 64
 662 0006 0646     		mov	r6, r0
 663 0008 8A46     		mov	r10, r1
 664 000a 0192     		str	r2, [sp, #4]
 665 000c 9B46     		mov	fp, r3
 457:Drivers/lvgl/src/core/lv_indev_scroll.c ****     if(align == LV_SCROLL_SNAP_NONE) return 0;
 666              		.loc 1 457 5 is_stmt 1 view .LVU213
 457:Drivers/lvgl/src/core/lv_indev_scroll.c ****     if(align == LV_SCROLL_SNAP_NONE) return 0;
 667              		.loc 1 457 30 is_stmt 0 view .LVU214
 668 000e FFF7FEFF 		bl	lv_obj_get_scroll_snap_x
 669              	.LVL63:
 458:Drivers/lvgl/src/core/lv_indev_scroll.c **** 
 670              		.loc 1 458 5 is_stmt 1 view .LVU215
 458:Drivers/lvgl/src/core/lv_indev_scroll.c **** 
 671              		.loc 1 458 7 is_stmt 0 view .LVU216
 672 0012 18B9     		cbnz	r0, .L47
 458:Drivers/lvgl/src/core/lv_indev_scroll.c **** 
 673              		.loc 1 458 45 view .LVU217
 674 0014 0020     		movs	r0, #0
 675              	.LVL64:
 676              	.L36:
 499:Drivers/lvgl/src/core/lv_indev_scroll.c **** 
 677              		.loc 1 499 1 view .LVU218
 678 0016 07B0     		add	sp, sp, #28
 679              		.cfi_remember_state
 680              		.cfi_def_cfa_offset 36
 681              		@ sp needed
 682 0018 BDE8F08F 		pop	{r4, r5, r6, r7, r8, r9, r10, fp, pc}
 683              	.LVL65:
 684              	.L47:
 685              		.cfi_restore_state
 499:Drivers/lvgl/src/core/lv_indev_scroll.c **** 
 686              		.loc 1 499 1 view .LVU219
 687 001c 8146     		mov	r9, r0
 460:Drivers/lvgl/src/core/lv_indev_scroll.c **** 
 688              		.loc 1 460 5 is_stmt 1 view .LVU220
 689              	.LVL66:
 462:Drivers/lvgl/src/core/lv_indev_scroll.c ****     lv_coord_t pad_right = lv_obj_get_style_pad_right(obj, LV_PART_MAIN);
 690              		.loc 1 462 5 view .LVU221
 691              	.LBB75:
 692              	.LBI75:
 113:Drivers/lvgl/src/core/lv_obj_style_gen.h **** }
 114:Drivers/lvgl/src/core/lv_obj_style_gen.h **** 
 115:Drivers/lvgl/src/core/lv_obj_style_gen.h **** static inline lv_coord_t lv_obj_get_style_pad_left(const struct _lv_obj_t * obj, uint32_t part)
 693              		.loc 2 115 26 view .LVU222
 694              	.LBB76:
 116:Drivers/lvgl/src/core/lv_obj_style_gen.h **** {
 117:Drivers/lvgl/src/core/lv_obj_style_gen.h ****     lv_style_value_t v = lv_obj_get_style_prop(obj, part, LV_STYLE_PAD_LEFT);
 695              		.loc 2 117 5 view .LVU223
 696              		.loc 2 117 26 is_stmt 0 view .LVU224
 697 001e 1222     		movs	r2, #18
 698 0020 0021     		movs	r1, #0
 699 0022 3046     		mov	r0, r6
 700              	.LVL67:
ARM GAS  /var/folders/0z/tsy30v1j4xl4_7kw94k978ww0000gn/T//ccjK6xP1.s 			page 30


 701              		.loc 2 117 26 view .LVU225
 702 0024 FFF7FEFF 		bl	lv_obj_get_style_prop
 703              	.LVL68:
 704 0028 0290     		str	r0, [sp, #8]
 118:Drivers/lvgl/src/core/lv_obj_style_gen.h ****     return (lv_coord_t)v.num;
 705              		.loc 2 118 5 is_stmt 1 view .LVU226
 706              		.loc 2 118 12 is_stmt 0 view .LVU227
 707 002a 03B2     		sxth	r3, r0
 708 002c 0593     		str	r3, [sp, #20]
 709              	.LVL69:
 710              		.loc 2 118 12 view .LVU228
 711              	.LBE76:
 712              	.LBE75:
 463:Drivers/lvgl/src/core/lv_indev_scroll.c **** 
 713              		.loc 1 463 5 is_stmt 1 view .LVU229
 714              	.LBB77:
 715              	.LBI77:
 119:Drivers/lvgl/src/core/lv_obj_style_gen.h **** }
 120:Drivers/lvgl/src/core/lv_obj_style_gen.h **** 
 121:Drivers/lvgl/src/core/lv_obj_style_gen.h **** static inline lv_coord_t lv_obj_get_style_pad_right(const struct _lv_obj_t * obj, uint32_t part)
 716              		.loc 2 121 26 view .LVU230
 717              	.LBB78:
 122:Drivers/lvgl/src/core/lv_obj_style_gen.h **** {
 123:Drivers/lvgl/src/core/lv_obj_style_gen.h ****     lv_style_value_t v = lv_obj_get_style_prop(obj, part, LV_STYLE_PAD_RIGHT);
 718              		.loc 2 123 5 view .LVU231
 719              		.loc 2 123 26 is_stmt 0 view .LVU232
 720 002e 1322     		movs	r2, #19
 721 0030 0021     		movs	r1, #0
 722 0032 3046     		mov	r0, r6
 723 0034 FFF7FEFF 		bl	lv_obj_get_style_prop
 724              	.LVL70:
 725 0038 0490     		str	r0, [sp, #16]
 124:Drivers/lvgl/src/core/lv_obj_style_gen.h ****     return (lv_coord_t)v.num;
 726              		.loc 2 124 5 is_stmt 1 view .LVU233
 727              		.loc 2 124 12 is_stmt 0 view .LVU234
 728 003a 03B2     		sxth	r3, r0
 729 003c 0393     		str	r3, [sp, #12]
 730              	.LVL71:
 731              		.loc 2 124 12 view .LVU235
 732              	.LBE78:
 733              	.LBE77:
 465:Drivers/lvgl/src/core/lv_indev_scroll.c ****     uint32_t child_cnt = lv_obj_get_child_cnt(obj);
 734              		.loc 1 465 5 is_stmt 1 view .LVU236
 466:Drivers/lvgl/src/core/lv_indev_scroll.c ****     for(i = 0; i < child_cnt; i++) {
 735              		.loc 1 466 5 view .LVU237
 466:Drivers/lvgl/src/core/lv_indev_scroll.c ****     for(i = 0; i < child_cnt; i++) {
 736              		.loc 1 466 26 is_stmt 0 view .LVU238
 737 003e 3046     		mov	r0, r6
 738 0040 FFF7FEFF 		bl	lv_obj_get_child_cnt
 739              	.LVL72:
 740 0044 0746     		mov	r7, r0
 741              	.LVL73:
 467:Drivers/lvgl/src/core/lv_indev_scroll.c ****         lv_obj_t * child = obj->spec_attr->children[i];
 742              		.loc 1 467 5 is_stmt 1 view .LVU239
 467:Drivers/lvgl/src/core/lv_indev_scroll.c ****         lv_obj_t * child = obj->spec_attr->children[i];
 743              		.loc 1 467 11 is_stmt 0 view .LVU240
 744 0046 0024     		movs	r4, #0
ARM GAS  /var/folders/0z/tsy30v1j4xl4_7kw94k978ww0000gn/T//ccjK6xP1.s 			page 31


 460:Drivers/lvgl/src/core/lv_indev_scroll.c **** 
 745              		.loc 1 460 16 view .LVU241
 746 0048 41F6FF78 		movw	r8, #8191
 467:Drivers/lvgl/src/core/lv_indev_scroll.c ****         lv_obj_t * child = obj->spec_attr->children[i];
 747              		.loc 1 467 5 view .LVU242
 748 004c 26E0     		b	.L37
 749              	.LVL74:
 750              	.L39:
 751              	.LBB79:
 752              	.LBB80:
 479:Drivers/lvgl/src/core/lv_indev_scroll.c ****                     x_parent = obj->coords.x2 - pad_right;
 753              		.loc 1 479 21 is_stmt 1 view .LVU243
 479:Drivers/lvgl/src/core/lv_indev_scroll.c ****                     x_parent = obj->coords.x2 - pad_right;
 754              		.loc 1 479 29 is_stmt 0 view .LVU244
 755 004e B5F91830 		ldrsh	r3, [r5, #24]
 756              	.LVL75:
 480:Drivers/lvgl/src/core/lv_indev_scroll.c ****                     break;
 757              		.loc 1 480 21 is_stmt 1 view .LVU245
 480:Drivers/lvgl/src/core/lv_indev_scroll.c ****                     break;
 758              		.loc 1 480 43 is_stmt 0 view .LVU246
 759 0052 318B     		ldrh	r1, [r6, #24]
 480:Drivers/lvgl/src/core/lv_indev_scroll.c ****                     break;
 760              		.loc 1 480 47 view .LVU247
 761 0054 049A     		ldr	r2, [sp, #16]
 762 0056 891A     		subs	r1, r1, r2
 480:Drivers/lvgl/src/core/lv_indev_scroll.c ****                     break;
 763              		.loc 1 480 30 view .LVU248
 764 0058 09B2     		sxth	r1, r1
 765              	.LVL76:
 481:Drivers/lvgl/src/core/lv_indev_scroll.c ****                 case LV_SCROLL_SNAP_CENTER:
 766              		.loc 1 481 21 is_stmt 1 view .LVU249
 767 005a 41E0     		b	.L41
 768              	.LVL77:
 769              	.L40:
 483:Drivers/lvgl/src/core/lv_indev_scroll.c ****                     x_parent = obj->coords.x1 + pad_left + (lv_area_get_width(&obj->coords) - pad_l
 770              		.loc 1 483 21 view .LVU250
 483:Drivers/lvgl/src/core/lv_indev_scroll.c ****                     x_parent = obj->coords.x1 + pad_left + (lv_area_get_width(&obj->coords) - pad_l
 771              		.loc 1 483 44 is_stmt 0 view .LVU251
 772 005c AB8A     		ldrh	r3, [r5, #20]
 773              	.LVL78:
 774              	.LBB81:
 775              	.LBI81:
 123:Drivers/lvgl/src/core/../misc/../font/../misc/lv_area.h **** {
 776              		.loc 3 123 26 is_stmt 1 view .LVU252
 777              	.LBB82:
 125:Drivers/lvgl/src/core/../misc/../font/../misc/lv_area.h **** }
 778              		.loc 3 125 5 view .LVU253
 125:Drivers/lvgl/src/core/../misc/../font/../misc/lv_area.h **** }
 779              		.loc 3 125 31 is_stmt 0 view .LVU254
 780 005e 2A8B     		ldrh	r2, [r5, #24]
 125:Drivers/lvgl/src/core/../misc/../font/../misc/lv_area.h **** }
 781              		.loc 3 125 36 view .LVU255
 782 0060 D21A     		subs	r2, r2, r3
 783 0062 92B2     		uxth	r2, r2
 125:Drivers/lvgl/src/core/../misc/../font/../misc/lv_area.h **** }
 784              		.loc 3 125 49 view .LVU256
 785 0064 0132     		adds	r2, r2, #1
ARM GAS  /var/folders/0z/tsy30v1j4xl4_7kw94k978ww0000gn/T//ccjK6xP1.s 			page 32


 786              	.LVL79:
 125:Drivers/lvgl/src/core/../misc/../font/../misc/lv_area.h **** }
 787              		.loc 3 125 49 view .LVU257
 788              	.LBE82:
 789              	.LBE81:
 483:Drivers/lvgl/src/core/lv_indev_scroll.c ****                     x_parent = obj->coords.x1 + pad_left + (lv_area_get_width(&obj->coords) - pad_l
 790              		.loc 1 483 48 view .LVU258
 791 0066 C2F3C031 		ubfx	r1, r2, #15, #1
 792 006a 01FA82F2 		sxtah	r2, r1, r2
 793 006e 03EB6203 		add	r3, r3, r2, asr #1
 483:Drivers/lvgl/src/core/lv_indev_scroll.c ****                     x_parent = obj->coords.x1 + pad_left + (lv_area_get_width(&obj->coords) - pad_l
 794              		.loc 1 483 29 view .LVU259
 795 0072 1BB2     		sxth	r3, r3
 796              	.LVL80:
 484:Drivers/lvgl/src/core/lv_indev_scroll.c ****                     break;
 797              		.loc 1 484 21 is_stmt 1 view .LVU260
 484:Drivers/lvgl/src/core/lv_indev_scroll.c ****                     break;
 798              		.loc 1 484 43 is_stmt 0 view .LVU261
 799 0074 B08A     		ldrh	r0, [r6, #20]
 484:Drivers/lvgl/src/core/lv_indev_scroll.c ****                     break;
 800              		.loc 1 484 47 view .LVU262
 801 0076 029A     		ldr	r2, [sp, #8]
 802 0078 8118     		adds	r1, r0, r2
 803              	.LVL81:
 804              	.LBB83:
 805              	.LBI83:
 123:Drivers/lvgl/src/core/../misc/../font/../misc/lv_area.h **** {
 806              		.loc 3 123 26 is_stmt 1 view .LVU263
 807              	.LBB84:
 125:Drivers/lvgl/src/core/../misc/../font/../misc/lv_area.h **** }
 808              		.loc 3 125 5 view .LVU264
 125:Drivers/lvgl/src/core/../misc/../font/../misc/lv_area.h **** }
 809              		.loc 3 125 31 is_stmt 0 view .LVU265
 810 007a 328B     		ldrh	r2, [r6, #24]
 125:Drivers/lvgl/src/core/../misc/../font/../misc/lv_area.h **** }
 811              		.loc 3 125 36 view .LVU266
 812 007c 121A     		subs	r2, r2, r0
 813 007e 92B2     		uxth	r2, r2
 125:Drivers/lvgl/src/core/../misc/../font/../misc/lv_area.h **** }
 814              		.loc 3 125 49 view .LVU267
 815 0080 0132     		adds	r2, r2, #1
 125:Drivers/lvgl/src/core/../misc/../font/../misc/lv_area.h **** }
 816              		.loc 3 125 12 view .LVU268
 817 0082 12B2     		sxth	r2, r2
 818              	.LVL82:
 125:Drivers/lvgl/src/core/../misc/../font/../misc/lv_area.h **** }
 819              		.loc 3 125 12 view .LVU269
 820              	.LBE84:
 821              	.LBE83:
 484:Drivers/lvgl/src/core/lv_indev_scroll.c ****                     break;
 822              		.loc 1 484 93 view .LVU270
 823 0084 0598     		ldr	r0, [sp, #20]
 824 0086 121A     		subs	r2, r2, r0
 484:Drivers/lvgl/src/core/lv_indev_scroll.c ****                     break;
 825              		.loc 1 484 104 view .LVU271
 826 0088 0398     		ldr	r0, [sp, #12]
 827 008a 121A     		subs	r2, r2, r0
ARM GAS  /var/folders/0z/tsy30v1j4xl4_7kw94k978ww0000gn/T//ccjK6xP1.s 			page 33


 484:Drivers/lvgl/src/core/lv_indev_scroll.c ****                     break;
 828              		.loc 1 484 117 view .LVU272
 829 008c 02EBD272 		add	r2, r2, r2, lsr #31
 830 0090 5210     		asrs	r2, r2, #1
 484:Drivers/lvgl/src/core/lv_indev_scroll.c ****                     break;
 831              		.loc 1 484 58 view .LVU273
 832 0092 12FA81F1 		uxtah	r1, r2, r1
 484:Drivers/lvgl/src/core/lv_indev_scroll.c ****                     break;
 833              		.loc 1 484 30 view .LVU274
 834 0096 09B2     		sxth	r1, r1
 835              	.LVL83:
 485:Drivers/lvgl/src/core/lv_indev_scroll.c ****                 default:
 836              		.loc 1 485 21 is_stmt 1 view .LVU275
 837 0098 22E0     		b	.L41
 838              	.LVL84:
 839              	.L38:
 485:Drivers/lvgl/src/core/lv_indev_scroll.c ****                 default:
 840              		.loc 1 485 21 is_stmt 0 view .LVU276
 841              	.LBE80:
 842              	.LBE79:
 467:Drivers/lvgl/src/core/lv_indev_scroll.c ****         lv_obj_t * child = obj->spec_attr->children[i];
 843              		.loc 1 467 32 is_stmt 1 discriminator 2 view .LVU277
 844 009a 0134     		adds	r4, r4, #1
 845              	.LVL85:
 846              	.L37:
 467:Drivers/lvgl/src/core/lv_indev_scroll.c ****         lv_obj_t * child = obj->spec_attr->children[i];
 847              		.loc 1 467 18 discriminator 1 view .LVU278
 848 009c BC42     		cmp	r4, r7
 849 009e 37D2     		bcs	.L48
 850              	.LBB87:
 468:Drivers/lvgl/src/core/lv_indev_scroll.c ****         if(lv_obj_has_flag_any(child, LV_OBJ_FLAG_HIDDEN | LV_OBJ_FLAG_FLOATING)) continue;
 851              		.loc 1 468 9 view .LVU279
 468:Drivers/lvgl/src/core/lv_indev_scroll.c ****         if(lv_obj_has_flag_any(child, LV_OBJ_FLAG_HIDDEN | LV_OBJ_FLAG_FLOATING)) continue;
 852              		.loc 1 468 31 is_stmt 0 view .LVU280
 853 00a0 B368     		ldr	r3, [r6, #8]
 468:Drivers/lvgl/src/core/lv_indev_scroll.c ****         if(lv_obj_has_flag_any(child, LV_OBJ_FLAG_HIDDEN | LV_OBJ_FLAG_FLOATING)) continue;
 854              		.loc 1 468 42 view .LVU281
 855 00a2 1B68     		ldr	r3, [r3]
 468:Drivers/lvgl/src/core/lv_indev_scroll.c ****         if(lv_obj_has_flag_any(child, LV_OBJ_FLAG_HIDDEN | LV_OBJ_FLAG_FLOATING)) continue;
 856              		.loc 1 468 20 view .LVU282
 857 00a4 53F82450 		ldr	r5, [r3, r4, lsl #2]
 858              	.LVL86:
 469:Drivers/lvgl/src/core/lv_indev_scroll.c ****         if(lv_obj_has_flag(child, LV_OBJ_FLAG_SNAPPABLE)) {
 859              		.loc 1 469 9 is_stmt 1 view .LVU283
 469:Drivers/lvgl/src/core/lv_indev_scroll.c ****         if(lv_obj_has_flag(child, LV_OBJ_FLAG_SNAPPABLE)) {
 860              		.loc 1 469 12 is_stmt 0 view .LVU284
 861 00a8 1E49     		ldr	r1, .L49
 862 00aa 2846     		mov	r0, r5
 863 00ac FFF7FEFF 		bl	lv_obj_has_flag_any
 864              	.LVL87:
 469:Drivers/lvgl/src/core/lv_indev_scroll.c ****         if(lv_obj_has_flag(child, LV_OBJ_FLAG_SNAPPABLE)) {
 865              		.loc 1 469 11 view .LVU285
 866 00b0 0028     		cmp	r0, #0
 867 00b2 F2D1     		bne	.L38
 470:Drivers/lvgl/src/core/lv_indev_scroll.c ****             lv_coord_t x_child = 0;
 868              		.loc 1 470 9 is_stmt 1 view .LVU286
 470:Drivers/lvgl/src/core/lv_indev_scroll.c ****             lv_coord_t x_child = 0;
ARM GAS  /var/folders/0z/tsy30v1j4xl4_7kw94k978ww0000gn/T//ccjK6xP1.s 			page 34


 869              		.loc 1 470 12 is_stmt 0 view .LVU287
 870 00b4 4FF48051 		mov	r1, #4096
 871 00b8 2846     		mov	r0, r5
 872 00ba FFF7FEFF 		bl	lv_obj_has_flag
 873              	.LVL88:
 470:Drivers/lvgl/src/core/lv_indev_scroll.c ****             lv_coord_t x_child = 0;
 874              		.loc 1 470 11 view .LVU288
 875 00be 0028     		cmp	r0, #0
 876 00c0 EBD0     		beq	.L38
 877              	.LBB86:
 471:Drivers/lvgl/src/core/lv_indev_scroll.c ****             lv_coord_t x_parent = 0;
 878              		.loc 1 471 13 is_stmt 1 view .LVU289
 879              	.LVL89:
 472:Drivers/lvgl/src/core/lv_indev_scroll.c ****             switch(align) {
 880              		.loc 1 472 13 view .LVU290
 473:Drivers/lvgl/src/core/lv_indev_scroll.c ****                 case LV_SCROLL_SNAP_START:
 881              		.loc 1 473 13 view .LVU291
 882 00c2 B9F1020F 		cmp	r9, #2
 883 00c6 C2D0     		beq	.L39
 884 00c8 B9F1030F 		cmp	r9, #3
 885 00cc C6D0     		beq	.L40
 886 00ce B9F1010F 		cmp	r9, #1
 887 00d2 E2D1     		bne	.L38
 475:Drivers/lvgl/src/core/lv_indev_scroll.c ****                     x_parent = obj->coords.x1 + pad_left;
 888              		.loc 1 475 21 view .LVU292
 475:Drivers/lvgl/src/core/lv_indev_scroll.c ****                     x_parent = obj->coords.x1 + pad_left;
 889              		.loc 1 475 29 is_stmt 0 view .LVU293
 890 00d4 B5F91430 		ldrsh	r3, [r5, #20]
 891              	.LVL90:
 476:Drivers/lvgl/src/core/lv_indev_scroll.c ****                     break;
 892              		.loc 1 476 21 is_stmt 1 view .LVU294
 476:Drivers/lvgl/src/core/lv_indev_scroll.c ****                     break;
 893              		.loc 1 476 43 is_stmt 0 view .LVU295
 894 00d8 B18A     		ldrh	r1, [r6, #20]
 476:Drivers/lvgl/src/core/lv_indev_scroll.c ****                     break;
 895              		.loc 1 476 47 view .LVU296
 896 00da 029A     		ldr	r2, [sp, #8]
 897 00dc 1144     		add	r1, r1, r2
 476:Drivers/lvgl/src/core/lv_indev_scroll.c ****                     break;
 898              		.loc 1 476 30 view .LVU297
 899 00de 09B2     		sxth	r1, r1
 900              	.LVL91:
 477:Drivers/lvgl/src/core/lv_indev_scroll.c ****                 case LV_SCROLL_SNAP_END:
 901              		.loc 1 477 21 is_stmt 1 view .LVU298
 902              	.L41:
 490:Drivers/lvgl/src/core/lv_indev_scroll.c ****             if(x_child >= min && x_child <= max) {
 903              		.loc 1 490 13 view .LVU299
 490:Drivers/lvgl/src/core/lv_indev_scroll.c ****             if(x_child >= min && x_child <= max) {
 904              		.loc 1 490 21 is_stmt 0 view .LVU300
 905 00e0 5B44     		add	r3, r3, fp
 906              	.LVL92:
 490:Drivers/lvgl/src/core/lv_indev_scroll.c ****             if(x_child >= min && x_child <= max) {
 907              		.loc 1 490 21 view .LVU301
 908 00e2 9AB2     		uxth	r2, r3
 909 00e4 1BB2     		sxth	r3, r3
 910              	.LVL93:
 491:Drivers/lvgl/src/core/lv_indev_scroll.c ****                 lv_coord_t x = x_child -  x_parent;
ARM GAS  /var/folders/0z/tsy30v1j4xl4_7kw94k978ww0000gn/T//ccjK6xP1.s 			page 35


 911              		.loc 1 491 13 is_stmt 1 view .LVU302
 491:Drivers/lvgl/src/core/lv_indev_scroll.c ****                 lv_coord_t x = x_child -  x_parent;
 912              		.loc 1 491 15 is_stmt 0 view .LVU303
 913 00e6 5345     		cmp	r3, r10
 914 00e8 D7DB     		blt	.L38
 491:Drivers/lvgl/src/core/lv_indev_scroll.c ****                 lv_coord_t x = x_child -  x_parent;
 915              		.loc 1 491 31 discriminator 1 view .LVU304
 916 00ea 0198     		ldr	r0, [sp, #4]
 917 00ec 8342     		cmp	r3, r0
 918 00ee D4DC     		bgt	.L38
 919              	.LBB85:
 492:Drivers/lvgl/src/core/lv_indev_scroll.c ****                 if(LV_ABS(x) < LV_ABS(dist)) dist = x;
 920              		.loc 1 492 17 is_stmt 1 view .LVU305
 492:Drivers/lvgl/src/core/lv_indev_scroll.c ****                 if(LV_ABS(x) < LV_ABS(dist)) dist = x;
 921              		.loc 1 492 40 is_stmt 0 view .LVU306
 922 00f0 521A     		subs	r2, r2, r1
 492:Drivers/lvgl/src/core/lv_indev_scroll.c ****                 if(LV_ABS(x) < LV_ABS(dist)) dist = x;
 923              		.loc 1 492 28 view .LVU307
 924 00f2 12B2     		sxth	r2, r2
 925              	.LVL94:
 493:Drivers/lvgl/src/core/lv_indev_scroll.c ****             }
 926              		.loc 1 493 17 is_stmt 1 view .LVU308
 493:Drivers/lvgl/src/core/lv_indev_scroll.c ****             }
 927              		.loc 1 493 20 is_stmt 0 view .LVU309
 928 00f4 82EAE271 		eor	r1, r2, r2, asr #31
 929              	.LVL95:
 493:Drivers/lvgl/src/core/lv_indev_scroll.c ****             }
 930              		.loc 1 493 20 view .LVU310
 931 00f8 A1EBE271 		sub	r1, r1, r2, asr #31
 932 00fc 89B2     		uxth	r1, r1
 493:Drivers/lvgl/src/core/lv_indev_scroll.c ****             }
 933              		.loc 1 493 32 view .LVU311
 934 00fe 88EAE873 		eor	r3, r8, r8, asr #31
 935              	.LVL96:
 493:Drivers/lvgl/src/core/lv_indev_scroll.c ****             }
 936              		.loc 1 493 32 view .LVU312
 937 0102 A3EBE873 		sub	r3, r3, r8, asr #31
 938 0106 9BB2     		uxth	r3, r3
 493:Drivers/lvgl/src/core/lv_indev_scroll.c ****             }
 939              		.loc 1 493 19 view .LVU313
 940 0108 9942     		cmp	r1, r3
 941 010a C6D2     		bcs	.L38
 493:Drivers/lvgl/src/core/lv_indev_scroll.c ****             }
 942              		.loc 1 493 51 view .LVU314
 943 010c 9046     		mov	r8, r2
 944              	.LVL97:
 493:Drivers/lvgl/src/core/lv_indev_scroll.c ****             }
 945              		.loc 1 493 51 view .LVU315
 946 010e C4E7     		b	.L38
 947              	.LVL98:
 948              	.L48:
 493:Drivers/lvgl/src/core/lv_indev_scroll.c ****             }
 949              		.loc 1 493 51 view .LVU316
 950              	.LBE85:
 951              	.LBE86:
 952              	.LBE87:
 498:Drivers/lvgl/src/core/lv_indev_scroll.c **** }
ARM GAS  /var/folders/0z/tsy30v1j4xl4_7kw94k978ww0000gn/T//ccjK6xP1.s 			page 36


 953              		.loc 1 498 5 is_stmt 1 view .LVU317
 498:Drivers/lvgl/src/core/lv_indev_scroll.c **** }
 954              		.loc 1 498 37 is_stmt 0 view .LVU318
 955 0110 41F6FF73 		movw	r3, #8191
 956 0114 9845     		cmp	r8, r3
 957 0116 03D0     		beq	.L45
 498:Drivers/lvgl/src/core/lv_indev_scroll.c **** }
 958              		.loc 1 498 37 discriminator 1 view .LVU319
 959 0118 C8F10000 		rsb	r0, r8, #0
 960 011c 00B2     		sxth	r0, r0
 961 011e 7AE7     		b	.L36
 962              	.L45:
 498:Drivers/lvgl/src/core/lv_indev_scroll.c **** }
 963              		.loc 1 498 37 view .LVU320
 964 0120 0020     		movs	r0, #0
 965 0122 78E7     		b	.L36
 966              	.L50:
 967              		.align	2
 968              	.L49:
 969 0124 01000400 		.word	262145
 970              		.cfi_endproc
 971              	.LFE167:
 973              		.section	.text.init_scroll_limits,"ax",%progbits
 974              		.align	1
 975              		.syntax unified
 976              		.thumb
 977              		.thumb_func
 979              	init_scroll_limits:
 980              	.LVL99:
 981              	.LFB166:
 388:Drivers/lvgl/src/core/lv_indev_scroll.c ****     lv_obj_t * obj = proc->types.pointer.scroll_obj;
 982              		.loc 1 388 1 is_stmt 1 view -0
 983              		.cfi_startproc
 984              		@ args = 0, pretend = 0, frame = 0
 985              		@ frame_needed = 0, uses_anonymous_args = 0
 388:Drivers/lvgl/src/core/lv_indev_scroll.c ****     lv_obj_t * obj = proc->types.pointer.scroll_obj;
 986              		.loc 1 388 1 is_stmt 0 view .LVU322
 987 0000 70B5     		push	{r4, r5, r6, lr}
 988              		.cfi_def_cfa_offset 16
 989              		.cfi_offset 4, -16
 990              		.cfi_offset 5, -12
 991              		.cfi_offset 6, -8
 992              		.cfi_offset 14, -4
 993 0002 82B0     		sub	sp, sp, #8
 994              		.cfi_def_cfa_offset 24
 995 0004 0446     		mov	r4, r0
 389:Drivers/lvgl/src/core/lv_indev_scroll.c ****     /*If there no STOP allow scrolling anywhere*/
 996              		.loc 1 389 5 is_stmt 1 view .LVU323
 389:Drivers/lvgl/src/core/lv_indev_scroll.c ****     /*If there no STOP allow scrolling anywhere*/
 997              		.loc 1 389 16 is_stmt 0 view .LVU324
 998 0006 C56A     		ldr	r5, [r0, #44]
 999              	.LVL100:
 391:Drivers/lvgl/src/core/lv_indev_scroll.c ****         lv_area_set(&proc->types.pointer.scroll_area, LV_COORD_MIN, LV_COORD_MIN, LV_COORD_MAX, LV_
 1000              		.loc 1 391 5 is_stmt 1 view .LVU325
 391:Drivers/lvgl/src/core/lv_indev_scroll.c ****         lv_area_set(&proc->types.pointer.scroll_area, LV_COORD_MIN, LV_COORD_MIN, LV_COORD_MAX, LV_
 1001              		.loc 1 391 8 is_stmt 0 view .LVU326
 1002 0008 8021     		movs	r1, #128
ARM GAS  /var/folders/0z/tsy30v1j4xl4_7kw94k978ww0000gn/T//ccjK6xP1.s 			page 37


 1003 000a 2846     		mov	r0, r5
 1004              	.LVL101:
 391:Drivers/lvgl/src/core/lv_indev_scroll.c ****         lv_area_set(&proc->types.pointer.scroll_area, LV_COORD_MIN, LV_COORD_MIN, LV_COORD_MAX, LV_
 1005              		.loc 1 391 8 view .LVU327
 1006 000c FFF7FEFF 		bl	lv_obj_has_flag
 1007              	.LVL102:
 391:Drivers/lvgl/src/core/lv_indev_scroll.c ****         lv_area_set(&proc->types.pointer.scroll_area, LV_COORD_MIN, LV_COORD_MIN, LV_COORD_MAX, LV_
 1008              		.loc 1 391 7 view .LVU328
 1009 0010 10BB     		cbnz	r0, .L52
 392:Drivers/lvgl/src/core/lv_indev_scroll.c ****     }
 1010              		.loc 1 392 9 is_stmt 1 view .LVU329
 1011 0012 6449     		ldr	r1, .L68
 1012 0014 41F6FF73 		movw	r3, #8191
 1013 0018 0093     		str	r3, [sp]
 1014 001a 0A46     		mov	r2, r1
 1015 001c 04F13400 		add	r0, r4, #52
 1016 0020 FFF7FEFF 		bl	lv_area_set
 1017              	.LVL103:
 1018              	.L53:
 440:Drivers/lvgl/src/core/lv_indev_scroll.c ****     if(proc->types.pointer.scroll_area.x2 == 0) proc->types.pointer.scroll_area.x2 = LV_COORD_MAX;
 1019              		.loc 1 440 5 view .LVU330
 440:Drivers/lvgl/src/core/lv_indev_scroll.c ****     if(proc->types.pointer.scroll_area.x2 == 0) proc->types.pointer.scroll_area.x2 = LV_COORD_MAX;
 1020              		.loc 1 440 39 is_stmt 0 view .LVU331
 1021 0024 B4F93430 		ldrsh	r3, [r4, #52]
 440:Drivers/lvgl/src/core/lv_indev_scroll.c ****     if(proc->types.pointer.scroll_area.x2 == 0) proc->types.pointer.scroll_area.x2 = LV_COORD_MAX;
 1022              		.loc 1 440 7 view .LVU332
 1023 0028 13B9     		cbnz	r3, .L61
 440:Drivers/lvgl/src/core/lv_indev_scroll.c ****     if(proc->types.pointer.scroll_area.x2 == 0) proc->types.pointer.scroll_area.x2 = LV_COORD_MAX;
 1024              		.loc 1 440 49 is_stmt 1 discriminator 1 view .LVU333
 440:Drivers/lvgl/src/core/lv_indev_scroll.c ****     if(proc->types.pointer.scroll_area.x2 == 0) proc->types.pointer.scroll_area.x2 = LV_COORD_MAX;
 1025              		.loc 1 440 84 is_stmt 0 discriminator 1 view .LVU334
 1026 002a 4EF20103 		movw	r3, #57345
 1027 002e A386     		strh	r3, [r4, #52]	@ movhi
 1028              	.L61:
 441:Drivers/lvgl/src/core/lv_indev_scroll.c ****     if(proc->types.pointer.scroll_area.y1 == 0) proc->types.pointer.scroll_area.y1 = LV_COORD_MIN;
 1029              		.loc 1 441 5 is_stmt 1 view .LVU335
 441:Drivers/lvgl/src/core/lv_indev_scroll.c ****     if(proc->types.pointer.scroll_area.y1 == 0) proc->types.pointer.scroll_area.y1 = LV_COORD_MIN;
 1030              		.loc 1 441 39 is_stmt 0 view .LVU336
 1031 0030 B4F93830 		ldrsh	r3, [r4, #56]
 441:Drivers/lvgl/src/core/lv_indev_scroll.c ****     if(proc->types.pointer.scroll_area.y1 == 0) proc->types.pointer.scroll_area.y1 = LV_COORD_MIN;
 1032              		.loc 1 441 7 view .LVU337
 1033 0034 13B9     		cbnz	r3, .L62
 441:Drivers/lvgl/src/core/lv_indev_scroll.c ****     if(proc->types.pointer.scroll_area.y1 == 0) proc->types.pointer.scroll_area.y1 = LV_COORD_MIN;
 1034              		.loc 1 441 49 is_stmt 1 discriminator 1 view .LVU338
 441:Drivers/lvgl/src/core/lv_indev_scroll.c ****     if(proc->types.pointer.scroll_area.y1 == 0) proc->types.pointer.scroll_area.y1 = LV_COORD_MIN;
 1035              		.loc 1 441 84 is_stmt 0 discriminator 1 view .LVU339
 1036 0036 41F6FF73 		movw	r3, #8191
 1037 003a 2387     		strh	r3, [r4, #56]	@ movhi
 1038              	.L62:
 442:Drivers/lvgl/src/core/lv_indev_scroll.c ****     if(proc->types.pointer.scroll_area.y2 == 0) proc->types.pointer.scroll_area.y2 = LV_COORD_MAX;
 1039              		.loc 1 442 5 is_stmt 1 view .LVU340
 442:Drivers/lvgl/src/core/lv_indev_scroll.c ****     if(proc->types.pointer.scroll_area.y2 == 0) proc->types.pointer.scroll_area.y2 = LV_COORD_MAX;
 1040              		.loc 1 442 39 is_stmt 0 view .LVU341
 1041 003c B4F93630 		ldrsh	r3, [r4, #54]
 442:Drivers/lvgl/src/core/lv_indev_scroll.c ****     if(proc->types.pointer.scroll_area.y2 == 0) proc->types.pointer.scroll_area.y2 = LV_COORD_MAX;
 1042              		.loc 1 442 7 view .LVU342
 1043 0040 13B9     		cbnz	r3, .L63
ARM GAS  /var/folders/0z/tsy30v1j4xl4_7kw94k978ww0000gn/T//ccjK6xP1.s 			page 38


 442:Drivers/lvgl/src/core/lv_indev_scroll.c ****     if(proc->types.pointer.scroll_area.y2 == 0) proc->types.pointer.scroll_area.y2 = LV_COORD_MAX;
 1044              		.loc 1 442 49 is_stmt 1 discriminator 1 view .LVU343
 442:Drivers/lvgl/src/core/lv_indev_scroll.c ****     if(proc->types.pointer.scroll_area.y2 == 0) proc->types.pointer.scroll_area.y2 = LV_COORD_MAX;
 1045              		.loc 1 442 84 is_stmt 0 discriminator 1 view .LVU344
 1046 0042 4EF20103 		movw	r3, #57345
 1047 0046 E386     		strh	r3, [r4, #54]	@ movhi
 1048              	.L63:
 443:Drivers/lvgl/src/core/lv_indev_scroll.c **** }
 1049              		.loc 1 443 5 is_stmt 1 view .LVU345
 443:Drivers/lvgl/src/core/lv_indev_scroll.c **** }
 1050              		.loc 1 443 39 is_stmt 0 view .LVU346
 1051 0048 B4F93A30 		ldrsh	r3, [r4, #58]
 443:Drivers/lvgl/src/core/lv_indev_scroll.c **** }
 1052              		.loc 1 443 7 view .LVU347
 1053 004c 13B9     		cbnz	r3, .L51
 443:Drivers/lvgl/src/core/lv_indev_scroll.c **** }
 1054              		.loc 1 443 49 is_stmt 1 discriminator 1 view .LVU348
 443:Drivers/lvgl/src/core/lv_indev_scroll.c **** }
 1055              		.loc 1 443 84 is_stmt 0 discriminator 1 view .LVU349
 1056 004e 41F6FF73 		movw	r3, #8191
 1057 0052 6387     		strh	r3, [r4, #58]	@ movhi
 1058              	.L51:
 444:Drivers/lvgl/src/core/lv_indev_scroll.c **** 
 1059              		.loc 1 444 1 view .LVU350
 1060 0054 02B0     		add	sp, sp, #8
 1061              		.cfi_remember_state
 1062              		.cfi_def_cfa_offset 16
 1063              		@ sp needed
 1064 0056 70BD     		pop	{r4, r5, r6, pc}
 1065              	.LVL104:
 1066              	.L52:
 1067              		.cfi_restore_state
 396:Drivers/lvgl/src/core/lv_indev_scroll.c ****             case LV_SCROLL_SNAP_START:
 1068              		.loc 1 396 9 is_stmt 1 view .LVU351
 396:Drivers/lvgl/src/core/lv_indev_scroll.c ****             case LV_SCROLL_SNAP_START:
 1069              		.loc 1 396 16 is_stmt 0 view .LVU352
 1070 0058 2846     		mov	r0, r5
 1071 005a FFF7FEFF 		bl	lv_obj_get_scroll_snap_y
 1072              	.LVL105:
 396:Drivers/lvgl/src/core/lv_indev_scroll.c ****             case LV_SCROLL_SNAP_START:
 1073              		.loc 1 396 9 view .LVU353
 1074 005e 0228     		cmp	r0, #2
 1075 0060 2DD0     		beq	.L54
 1076 0062 0328     		cmp	r0, #3
 1077 0064 3DD0     		beq	.L55
 1078 0066 0128     		cmp	r0, #1
 1079 0068 06D0     		beq	.L66
 412:Drivers/lvgl/src/core/lv_indev_scroll.c ****                 proc->types.pointer.scroll_area.y2 = LV_COORD_MAX;
 1080              		.loc 1 412 17 is_stmt 1 view .LVU354
 412:Drivers/lvgl/src/core/lv_indev_scroll.c ****                 proc->types.pointer.scroll_area.y2 = LV_COORD_MAX;
 1081              		.loc 1 412 52 is_stmt 0 view .LVU355
 1082 006a 4EF20103 		movw	r3, #57345
 1083 006e E386     		strh	r3, [r4, #54]	@ movhi
 413:Drivers/lvgl/src/core/lv_indev_scroll.c ****                 break;
 1084              		.loc 1 413 17 is_stmt 1 view .LVU356
 413:Drivers/lvgl/src/core/lv_indev_scroll.c ****                 break;
 1085              		.loc 1 413 52 is_stmt 0 view .LVU357
ARM GAS  /var/folders/0z/tsy30v1j4xl4_7kw94k978ww0000gn/T//ccjK6xP1.s 			page 39


 1086 0070 41F6FF73 		movw	r3, #8191
 1087 0074 6387     		strh	r3, [r4, #58]	@ movhi
 414:Drivers/lvgl/src/core/lv_indev_scroll.c ****         }
 1088              		.loc 1 414 17 is_stmt 1 view .LVU358
 1089 0076 12E0     		b	.L57
 1090              	.L66:
 398:Drivers/lvgl/src/core/lv_indev_scroll.c ****                 proc->types.pointer.scroll_area.y2 = find_snap_point_y(obj, LV_COORD_MIN, obj->coor
 1091              		.loc 1 398 17 view .LVU359
 398:Drivers/lvgl/src/core/lv_indev_scroll.c ****                 proc->types.pointer.scroll_area.y2 = find_snap_point_y(obj, LV_COORD_MIN, obj->coor
 1092              		.loc 1 398 88 is_stmt 0 view .LVU360
 1093 0078 E98A     		ldrh	r1, [r5, #22]
 398:Drivers/lvgl/src/core/lv_indev_scroll.c ****                 proc->types.pointer.scroll_area.y2 = find_snap_point_y(obj, LV_COORD_MIN, obj->coor
 1094              		.loc 1 398 92 view .LVU361
 1095 007a 0131     		adds	r1, r1, #1
 398:Drivers/lvgl/src/core/lv_indev_scroll.c ****                 proc->types.pointer.scroll_area.y2 = find_snap_point_y(obj, LV_COORD_MIN, obj->coor
 1096              		.loc 1 398 54 view .LVU362
 1097 007c 0023     		movs	r3, #0
 1098 007e 41F6FF72 		movw	r2, #8191
 1099 0082 09B2     		sxth	r1, r1
 1100 0084 2846     		mov	r0, r5
 1101 0086 FFF7FEFF 		bl	find_snap_point_y
 1102              	.LVL106:
 398:Drivers/lvgl/src/core/lv_indev_scroll.c ****                 proc->types.pointer.scroll_area.y2 = find_snap_point_y(obj, LV_COORD_MIN, obj->coor
 1103              		.loc 1 398 52 view .LVU363
 1104 008a E086     		strh	r0, [r4, #54]	@ movhi
 399:Drivers/lvgl/src/core/lv_indev_scroll.c ****                 break;
 1105              		.loc 1 399 17 is_stmt 1 view .LVU364
 399:Drivers/lvgl/src/core/lv_indev_scroll.c ****                 break;
 1106              		.loc 1 399 102 is_stmt 0 view .LVU365
 1107 008c EA8A     		ldrh	r2, [r5, #22]
 399:Drivers/lvgl/src/core/lv_indev_scroll.c ****                 break;
 1108              		.loc 1 399 106 view .LVU366
 1109 008e 013A     		subs	r2, r2, #1
 399:Drivers/lvgl/src/core/lv_indev_scroll.c ****                 break;
 1110              		.loc 1 399 54 view .LVU367
 1111 0090 0023     		movs	r3, #0
 1112 0092 12B2     		sxth	r2, r2
 1113 0094 4349     		ldr	r1, .L68
 1114 0096 2846     		mov	r0, r5
 1115 0098 FFF7FEFF 		bl	find_snap_point_y
 1116              	.LVL107:
 399:Drivers/lvgl/src/core/lv_indev_scroll.c ****                 break;
 1117              		.loc 1 399 52 view .LVU368
 1118 009c 6087     		strh	r0, [r4, #58]	@ movhi
 400:Drivers/lvgl/src/core/lv_indev_scroll.c ****             case LV_SCROLL_SNAP_END:
 1119              		.loc 1 400 17 is_stmt 1 view .LVU369
 1120              	.L57:
 417:Drivers/lvgl/src/core/lv_indev_scroll.c ****             case LV_SCROLL_SNAP_START:
 1121              		.loc 1 417 9 view .LVU370
 417:Drivers/lvgl/src/core/lv_indev_scroll.c ****             case LV_SCROLL_SNAP_START:
 1122              		.loc 1 417 16 is_stmt 0 view .LVU371
 1123 009e 2846     		mov	r0, r5
 1124 00a0 FFF7FEFF 		bl	lv_obj_get_scroll_snap_x
 1125              	.LVL108:
 417:Drivers/lvgl/src/core/lv_indev_scroll.c ****             case LV_SCROLL_SNAP_START:
 1126              		.loc 1 417 9 view .LVU372
 1127 00a4 0228     		cmp	r0, #2
ARM GAS  /var/folders/0z/tsy30v1j4xl4_7kw94k978ww0000gn/T//ccjK6xP1.s 			page 40


 1128 00a6 4CD0     		beq	.L58
 1129 00a8 0328     		cmp	r0, #3
 1130 00aa 5CD0     		beq	.L59
 1131 00ac 0128     		cmp	r0, #1
 1132 00ae 36D0     		beq	.L67
 433:Drivers/lvgl/src/core/lv_indev_scroll.c ****                 proc->types.pointer.scroll_area.x2 = LV_COORD_MAX;
 1133              		.loc 1 433 17 is_stmt 1 view .LVU373
 433:Drivers/lvgl/src/core/lv_indev_scroll.c ****                 proc->types.pointer.scroll_area.x2 = LV_COORD_MAX;
 1134              		.loc 1 433 52 is_stmt 0 view .LVU374
 1135 00b0 4EF20103 		movw	r3, #57345
 1136 00b4 A386     		strh	r3, [r4, #52]	@ movhi
 434:Drivers/lvgl/src/core/lv_indev_scroll.c ****                 break;
 1137              		.loc 1 434 17 is_stmt 1 view .LVU375
 434:Drivers/lvgl/src/core/lv_indev_scroll.c ****                 break;
 1138              		.loc 1 434 52 is_stmt 0 view .LVU376
 1139 00b6 41F6FF73 		movw	r3, #8191
 1140 00ba 2387     		strh	r3, [r4, #56]	@ movhi
 435:Drivers/lvgl/src/core/lv_indev_scroll.c ****         }
 1141              		.loc 1 435 17 is_stmt 1 view .LVU377
 1142 00bc B2E7     		b	.L53
 1143              	.L54:
 402:Drivers/lvgl/src/core/lv_indev_scroll.c ****                 proc->types.pointer.scroll_area.y2 = find_snap_point_y(obj, LV_COORD_MIN, obj->coor
 1144              		.loc 1 402 17 view .LVU378
 402:Drivers/lvgl/src/core/lv_indev_scroll.c ****                 proc->types.pointer.scroll_area.y2 = find_snap_point_y(obj, LV_COORD_MIN, obj->coor
 1145              		.loc 1 402 54 is_stmt 0 view .LVU379
 1146 00be 0023     		movs	r3, #0
 1147 00c0 41F6FF72 		movw	r2, #8191
 1148 00c4 B5F91A10 		ldrsh	r1, [r5, #26]
 1149 00c8 2846     		mov	r0, r5
 1150 00ca FFF7FEFF 		bl	find_snap_point_y
 1151              	.LVL109:
 402:Drivers/lvgl/src/core/lv_indev_scroll.c ****                 proc->types.pointer.scroll_area.y2 = find_snap_point_y(obj, LV_COORD_MIN, obj->coor
 1152              		.loc 1 402 52 view .LVU380
 1153 00ce E086     		strh	r0, [r4, #54]	@ movhi
 403:Drivers/lvgl/src/core/lv_indev_scroll.c ****                 break;
 1154              		.loc 1 403 17 is_stmt 1 view .LVU381
 403:Drivers/lvgl/src/core/lv_indev_scroll.c ****                 break;
 1155              		.loc 1 403 54 is_stmt 0 view .LVU382
 1156 00d0 0023     		movs	r3, #0
 1157 00d2 B5F91A20 		ldrsh	r2, [r5, #26]
 1158 00d6 3349     		ldr	r1, .L68
 1159 00d8 2846     		mov	r0, r5
 1160 00da FFF7FEFF 		bl	find_snap_point_y
 1161              	.LVL110:
 403:Drivers/lvgl/src/core/lv_indev_scroll.c ****                 break;
 1162              		.loc 1 403 52 view .LVU383
 1163 00de 6087     		strh	r0, [r4, #58]	@ movhi
 404:Drivers/lvgl/src/core/lv_indev_scroll.c ****             case LV_SCROLL_SNAP_CENTER: {
 1164              		.loc 1 404 17 is_stmt 1 view .LVU384
 1165 00e0 DDE7     		b	.L57
 1166              	.L55:
 1167              	.LBB88:
 406:Drivers/lvgl/src/core/lv_indev_scroll.c ****                     proc->types.pointer.scroll_area.y1 = find_snap_point_y(obj, y_mid + 1, LV_COORD
 1168              		.loc 1 406 21 view .LVU385
 406:Drivers/lvgl/src/core/lv_indev_scroll.c ****                     proc->types.pointer.scroll_area.y1 = find_snap_point_y(obj, y_mid + 1, LV_COORD
 1169              		.loc 1 406 51 is_stmt 0 view .LVU386
 1170 00e2 EE8A     		ldrh	r6, [r5, #22]
ARM GAS  /var/folders/0z/tsy30v1j4xl4_7kw94k978ww0000gn/T//ccjK6xP1.s 			page 41


 1171              	.LVL111:
 1172              	.LBB89:
 1173              	.LBI89:
 133:Drivers/lvgl/src/core/../misc/../font/../misc/lv_area.h **** {
 1174              		.loc 3 133 26 is_stmt 1 view .LVU387
 1175              	.LBB90:
 1176              		.loc 3 135 5 view .LVU388
 1177              		.loc 3 135 31 is_stmt 0 view .LVU389
 1178 00e4 6B8B     		ldrh	r3, [r5, #26]
 1179              		.loc 3 135 36 view .LVU390
 1180 00e6 9B1B     		subs	r3, r3, r6
 1181 00e8 9BB2     		uxth	r3, r3
 1182              		.loc 3 135 49 view .LVU391
 1183 00ea 0133     		adds	r3, r3, #1
 1184              	.LVL112:
 1185              		.loc 3 135 49 view .LVU392
 1186              	.LBE90:
 1187              	.LBE89:
 406:Drivers/lvgl/src/core/lv_indev_scroll.c ****                     proc->types.pointer.scroll_area.y1 = find_snap_point_y(obj, y_mid + 1, LV_COORD
 1188              		.loc 1 406 55 view .LVU393
 1189 00ec C3F3C032 		ubfx	r2, r3, #15, #1
 1190 00f0 02FA83F3 		sxtah	r3, r2, r3
 1191 00f4 06EB6306 		add	r6, r6, r3, asr #1
 1192 00f8 B6B2     		uxth	r6, r6
 1193              	.LVL113:
 407:Drivers/lvgl/src/core/lv_indev_scroll.c ****                     proc->types.pointer.scroll_area.y2 = find_snap_point_y(obj, LV_COORD_MIN, y_mid
 1194              		.loc 1 407 21 is_stmt 1 view .LVU394
 407:Drivers/lvgl/src/core/lv_indev_scroll.c ****                     proc->types.pointer.scroll_area.y2 = find_snap_point_y(obj, LV_COORD_MIN, y_mid
 1195              		.loc 1 407 87 is_stmt 0 view .LVU395
 1196 00fa 711C     		adds	r1, r6, #1
 407:Drivers/lvgl/src/core/lv_indev_scroll.c ****                     proc->types.pointer.scroll_area.y2 = find_snap_point_y(obj, LV_COORD_MIN, y_mid
 1197              		.loc 1 407 58 view .LVU396
 1198 00fc 0023     		movs	r3, #0
 1199 00fe 41F6FF72 		movw	r2, #8191
 1200 0102 09B2     		sxth	r1, r1
 1201 0104 2846     		mov	r0, r5
 1202 0106 FFF7FEFF 		bl	find_snap_point_y
 1203              	.LVL114:
 407:Drivers/lvgl/src/core/lv_indev_scroll.c ****                     proc->types.pointer.scroll_area.y2 = find_snap_point_y(obj, LV_COORD_MIN, y_mid
 1204              		.loc 1 407 56 view .LVU397
 1205 010a E086     		strh	r0, [r4, #54]	@ movhi
 408:Drivers/lvgl/src/core/lv_indev_scroll.c ****                     break;
 1206              		.loc 1 408 21 is_stmt 1 view .LVU398
 408:Drivers/lvgl/src/core/lv_indev_scroll.c ****                     break;
 1207              		.loc 1 408 101 is_stmt 0 view .LVU399
 1208 010c 721E     		subs	r2, r6, #1
 408:Drivers/lvgl/src/core/lv_indev_scroll.c ****                     break;
 1209              		.loc 1 408 58 view .LVU400
 1210 010e 0023     		movs	r3, #0
 1211 0110 12B2     		sxth	r2, r2
 1212 0112 2449     		ldr	r1, .L68
 1213 0114 2846     		mov	r0, r5
 1214 0116 FFF7FEFF 		bl	find_snap_point_y
 1215              	.LVL115:
 408:Drivers/lvgl/src/core/lv_indev_scroll.c ****                     break;
 1216              		.loc 1 408 56 view .LVU401
 1217 011a 6087     		strh	r0, [r4, #58]	@ movhi
ARM GAS  /var/folders/0z/tsy30v1j4xl4_7kw94k978ww0000gn/T//ccjK6xP1.s 			page 42


 409:Drivers/lvgl/src/core/lv_indev_scroll.c ****                 }
 1218              		.loc 1 409 21 is_stmt 1 view .LVU402
 1219 011c BFE7     		b	.L57
 1220              	.LVL116:
 1221              	.L67:
 409:Drivers/lvgl/src/core/lv_indev_scroll.c ****                 }
 1222              		.loc 1 409 21 is_stmt 0 view .LVU403
 1223              	.LBE88:
 419:Drivers/lvgl/src/core/lv_indev_scroll.c ****                 proc->types.pointer.scroll_area.x2 = find_snap_point_x(obj, LV_COORD_MIN, obj->coor
 1224              		.loc 1 419 17 is_stmt 1 view .LVU404
 419:Drivers/lvgl/src/core/lv_indev_scroll.c ****                 proc->types.pointer.scroll_area.x2 = find_snap_point_x(obj, LV_COORD_MIN, obj->coor
 1225              		.loc 1 419 54 is_stmt 0 view .LVU405
 1226 011e 0023     		movs	r3, #0
 1227 0120 41F6FF72 		movw	r2, #8191
 1228 0124 B5F91410 		ldrsh	r1, [r5, #20]
 1229 0128 2846     		mov	r0, r5
 1230 012a FFF7FEFF 		bl	find_snap_point_x
 1231              	.LVL117:
 419:Drivers/lvgl/src/core/lv_indev_scroll.c ****                 proc->types.pointer.scroll_area.x2 = find_snap_point_x(obj, LV_COORD_MIN, obj->coor
 1232              		.loc 1 419 52 view .LVU406
 1233 012e A086     		strh	r0, [r4, #52]	@ movhi
 420:Drivers/lvgl/src/core/lv_indev_scroll.c ****                 break;
 1234              		.loc 1 420 17 is_stmt 1 view .LVU407
 420:Drivers/lvgl/src/core/lv_indev_scroll.c ****                 break;
 1235              		.loc 1 420 54 is_stmt 0 view .LVU408
 1236 0130 0023     		movs	r3, #0
 1237 0132 B5F91420 		ldrsh	r2, [r5, #20]
 1238 0136 1B49     		ldr	r1, .L68
 1239 0138 2846     		mov	r0, r5
 1240 013a FFF7FEFF 		bl	find_snap_point_x
 1241              	.LVL118:
 420:Drivers/lvgl/src/core/lv_indev_scroll.c ****                 break;
 1242              		.loc 1 420 52 view .LVU409
 1243 013e 2087     		strh	r0, [r4, #56]	@ movhi
 421:Drivers/lvgl/src/core/lv_indev_scroll.c ****             case LV_SCROLL_SNAP_END:
 1244              		.loc 1 421 17 is_stmt 1 view .LVU410
 1245 0140 70E7     		b	.L53
 1246              	.L58:
 423:Drivers/lvgl/src/core/lv_indev_scroll.c ****                 proc->types.pointer.scroll_area.x2 = find_snap_point_x(obj, LV_COORD_MIN, obj->coor
 1247              		.loc 1 423 17 view .LVU411
 423:Drivers/lvgl/src/core/lv_indev_scroll.c ****                 proc->types.pointer.scroll_area.x2 = find_snap_point_x(obj, LV_COORD_MIN, obj->coor
 1248              		.loc 1 423 54 is_stmt 0 view .LVU412
 1249 0142 0023     		movs	r3, #0
 1250 0144 41F6FF72 		movw	r2, #8191
 1251 0148 B5F91810 		ldrsh	r1, [r5, #24]
 1252 014c 2846     		mov	r0, r5
 1253 014e FFF7FEFF 		bl	find_snap_point_x
 1254              	.LVL119:
 423:Drivers/lvgl/src/core/lv_indev_scroll.c ****                 proc->types.pointer.scroll_area.x2 = find_snap_point_x(obj, LV_COORD_MIN, obj->coor
 1255              		.loc 1 423 52 view .LVU413
 1256 0152 A086     		strh	r0, [r4, #52]	@ movhi
 424:Drivers/lvgl/src/core/lv_indev_scroll.c ****                 break;
 1257              		.loc 1 424 17 is_stmt 1 view .LVU414
 424:Drivers/lvgl/src/core/lv_indev_scroll.c ****                 break;
 1258              		.loc 1 424 54 is_stmt 0 view .LVU415
 1259 0154 0023     		movs	r3, #0
 1260 0156 B5F91820 		ldrsh	r2, [r5, #24]
ARM GAS  /var/folders/0z/tsy30v1j4xl4_7kw94k978ww0000gn/T//ccjK6xP1.s 			page 43


 1261 015a 1249     		ldr	r1, .L68
 1262 015c 2846     		mov	r0, r5
 1263 015e FFF7FEFF 		bl	find_snap_point_x
 1264              	.LVL120:
 424:Drivers/lvgl/src/core/lv_indev_scroll.c ****                 break;
 1265              		.loc 1 424 52 view .LVU416
 1266 0162 2087     		strh	r0, [r4, #56]	@ movhi
 425:Drivers/lvgl/src/core/lv_indev_scroll.c ****             case LV_SCROLL_SNAP_CENTER: {
 1267              		.loc 1 425 17 is_stmt 1 view .LVU417
 1268 0164 5EE7     		b	.L53
 1269              	.L59:
 1270              	.LBB91:
 427:Drivers/lvgl/src/core/lv_indev_scroll.c ****                     proc->types.pointer.scroll_area.x1 = find_snap_point_x(obj, x_mid + 1, LV_COORD
 1271              		.loc 1 427 21 view .LVU418
 427:Drivers/lvgl/src/core/lv_indev_scroll.c ****                     proc->types.pointer.scroll_area.x1 = find_snap_point_x(obj, x_mid + 1, LV_COORD
 1272              		.loc 1 427 51 is_stmt 0 view .LVU419
 1273 0166 AE8A     		ldrh	r6, [r5, #20]
 1274              	.LVL121:
 1275              	.LBB92:
 1276              	.LBI92:
 123:Drivers/lvgl/src/core/../misc/../font/../misc/lv_area.h **** {
 1277              		.loc 3 123 26 is_stmt 1 view .LVU420
 1278              	.LBB93:
 125:Drivers/lvgl/src/core/../misc/../font/../misc/lv_area.h **** }
 1279              		.loc 3 125 5 view .LVU421
 125:Drivers/lvgl/src/core/../misc/../font/../misc/lv_area.h **** }
 1280              		.loc 3 125 31 is_stmt 0 view .LVU422
 1281 0168 2B8B     		ldrh	r3, [r5, #24]
 125:Drivers/lvgl/src/core/../misc/../font/../misc/lv_area.h **** }
 1282              		.loc 3 125 36 view .LVU423
 1283 016a 9B1B     		subs	r3, r3, r6
 1284 016c 9BB2     		uxth	r3, r3
 125:Drivers/lvgl/src/core/../misc/../font/../misc/lv_area.h **** }
 1285              		.loc 3 125 49 view .LVU424
 1286 016e 0133     		adds	r3, r3, #1
 1287              	.LVL122:
 125:Drivers/lvgl/src/core/../misc/../font/../misc/lv_area.h **** }
 1288              		.loc 3 125 49 view .LVU425
 1289              	.LBE93:
 1290              	.LBE92:
 427:Drivers/lvgl/src/core/lv_indev_scroll.c ****                     proc->types.pointer.scroll_area.x1 = find_snap_point_x(obj, x_mid + 1, LV_COORD
 1291              		.loc 1 427 55 view .LVU426
 1292 0170 C3F3C032 		ubfx	r2, r3, #15, #1
 1293 0174 02FA83F3 		sxtah	r3, r2, r3
 1294 0178 06EB6306 		add	r6, r6, r3, asr #1
 1295 017c B6B2     		uxth	r6, r6
 1296              	.LVL123:
 428:Drivers/lvgl/src/core/lv_indev_scroll.c ****                     proc->types.pointer.scroll_area.x2 = find_snap_point_x(obj, LV_COORD_MIN, x_mid
 1297              		.loc 1 428 21 is_stmt 1 view .LVU427
 428:Drivers/lvgl/src/core/lv_indev_scroll.c ****                     proc->types.pointer.scroll_area.x2 = find_snap_point_x(obj, LV_COORD_MIN, x_mid
 1298              		.loc 1 428 87 is_stmt 0 view .LVU428
 1299 017e 711C     		adds	r1, r6, #1
 428:Drivers/lvgl/src/core/lv_indev_scroll.c ****                     proc->types.pointer.scroll_area.x2 = find_snap_point_x(obj, LV_COORD_MIN, x_mid
 1300              		.loc 1 428 58 view .LVU429
 1301 0180 0023     		movs	r3, #0
 1302 0182 41F6FF72 		movw	r2, #8191
 1303 0186 09B2     		sxth	r1, r1
ARM GAS  /var/folders/0z/tsy30v1j4xl4_7kw94k978ww0000gn/T//ccjK6xP1.s 			page 44


 1304 0188 2846     		mov	r0, r5
 1305 018a FFF7FEFF 		bl	find_snap_point_x
 1306              	.LVL124:
 428:Drivers/lvgl/src/core/lv_indev_scroll.c ****                     proc->types.pointer.scroll_area.x2 = find_snap_point_x(obj, LV_COORD_MIN, x_mid
 1307              		.loc 1 428 56 view .LVU430
 1308 018e A086     		strh	r0, [r4, #52]	@ movhi
 429:Drivers/lvgl/src/core/lv_indev_scroll.c ****                     break;
 1309              		.loc 1 429 21 is_stmt 1 view .LVU431
 429:Drivers/lvgl/src/core/lv_indev_scroll.c ****                     break;
 1310              		.loc 1 429 101 is_stmt 0 view .LVU432
 1311 0190 721E     		subs	r2, r6, #1
 429:Drivers/lvgl/src/core/lv_indev_scroll.c ****                     break;
 1312              		.loc 1 429 58 view .LVU433
 1313 0192 0023     		movs	r3, #0
 1314 0194 12B2     		sxth	r2, r2
 1315 0196 0349     		ldr	r1, .L68
 1316 0198 2846     		mov	r0, r5
 1317 019a FFF7FEFF 		bl	find_snap_point_x
 1318              	.LVL125:
 429:Drivers/lvgl/src/core/lv_indev_scroll.c ****                     break;
 1319              		.loc 1 429 56 view .LVU434
 1320 019e 2087     		strh	r0, [r4, #56]	@ movhi
 430:Drivers/lvgl/src/core/lv_indev_scroll.c ****                 }
 1321              		.loc 1 430 21 is_stmt 1 view .LVU435
 1322 01a0 40E7     		b	.L53
 1323              	.L69:
 1324 01a2 00BF     		.align	2
 1325              	.L68:
 1326 01a4 01E0FFFF 		.word	-8191
 1327              	.LBE91:
 1328              		.cfi_endproc
 1329              	.LFE166:
 1331              		.section	.text.find_scroll_obj,"ax",%progbits
 1332              		.align	1
 1333              		.syntax unified
 1334              		.thumb
 1335              		.thumb_func
 1337              	find_scroll_obj:
 1338              	.LVL126:
 1339              	.LFB165:
 259:Drivers/lvgl/src/core/lv_indev_scroll.c ****     lv_obj_t * obj_candidate = NULL;
 1340              		.loc 1 259 1 view -0
 1341              		.cfi_startproc
 1342              		@ args = 0, pretend = 0, frame = 40
 1343              		@ frame_needed = 0, uses_anonymous_args = 0
 259:Drivers/lvgl/src/core/lv_indev_scroll.c ****     lv_obj_t * obj_candidate = NULL;
 1344              		.loc 1 259 1 is_stmt 0 view .LVU437
 1345 0000 2DE9F04F 		push	{r4, r5, r6, r7, r8, r9, r10, fp, lr}
 1346              		.cfi_def_cfa_offset 36
 1347              		.cfi_offset 4, -36
 1348              		.cfi_offset 5, -32
 1349              		.cfi_offset 6, -28
 1350              		.cfi_offset 7, -24
 1351              		.cfi_offset 8, -20
 1352              		.cfi_offset 9, -16
 1353              		.cfi_offset 10, -12
 1354              		.cfi_offset 11, -8
ARM GAS  /var/folders/0z/tsy30v1j4xl4_7kw94k978ww0000gn/T//ccjK6xP1.s 			page 45


 1355              		.cfi_offset 14, -4
 1356 0004 8BB0     		sub	sp, sp, #44
 1357              		.cfi_def_cfa_offset 80
 1358 0006 0446     		mov	r4, r0
 260:Drivers/lvgl/src/core/lv_indev_scroll.c ****     lv_dir_t dir_candidate = LV_DIR_NONE;
 1359              		.loc 1 260 5 is_stmt 1 view .LVU438
 1360              	.LVL127:
 261:Drivers/lvgl/src/core/lv_indev_scroll.c ****     lv_indev_t * indev_act = lv_indev_get_act();
 1361              		.loc 1 261 5 view .LVU439
 262:Drivers/lvgl/src/core/lv_indev_scroll.c ****     lv_coord_t scroll_limit = indev_act->driver->scroll_limit;
 1362              		.loc 1 262 5 view .LVU440
 262:Drivers/lvgl/src/core/lv_indev_scroll.c ****     lv_coord_t scroll_limit = indev_act->driver->scroll_limit;
 1363              		.loc 1 262 30 is_stmt 0 view .LVU441
 1364 0008 FFF7FEFF 		bl	lv_indev_get_act
 1365              	.LVL128:
 263:Drivers/lvgl/src/core/lv_indev_scroll.c **** 
 1366              		.loc 1 263 5 is_stmt 1 view .LVU442
 263:Drivers/lvgl/src/core/lv_indev_scroll.c **** 
 1367              		.loc 1 263 40 is_stmt 0 view .LVU443
 1368 000c 0368     		ldr	r3, [r0]
 263:Drivers/lvgl/src/core/lv_indev_scroll.c **** 
 1369              		.loc 1 263 48 view .LVU444
 1370 000e 93F81880 		ldrb	r8, [r3, #24]	@ zero_extendqisi2
 263:Drivers/lvgl/src/core/lv_indev_scroll.c **** 
 1371              		.loc 1 263 16 view .LVU445
 1372 0012 0FFA88FA 		sxth	r10, r8
 1373              	.LVL129:
 272:Drivers/lvgl/src/core/lv_indev_scroll.c **** 
 1374              		.loc 1 272 5 is_stmt 1 view .LVU446
 272:Drivers/lvgl/src/core/lv_indev_scroll.c **** 
 1375              		.loc 1 272 16 is_stmt 0 view .LVU447
 1376 0016 D4F82490 		ldr	r9, [r4, #36]
 1377              	.LVL130:
 275:Drivers/lvgl/src/core/lv_indev_scroll.c ****     bool ver_en = false;
 1378              		.loc 1 275 5 is_stmt 1 view .LVU448
 276:Drivers/lvgl/src/core/lv_indev_scroll.c **** 
 1379              		.loc 1 276 5 view .LVU449
 278:Drivers/lvgl/src/core/lv_indev_scroll.c ****     proc->types.pointer.scroll_sum.y += proc->types.pointer.vect.y;
 1380              		.loc 1 278 5 view .LVU450
 278:Drivers/lvgl/src/core/lv_indev_scroll.c ****     proc->types.pointer.scroll_sum.y += proc->types.pointer.vect.y;
 1381              		.loc 1 278 65 is_stmt 0 view .LVU451
 1382 001a A38A     		ldrh	r3, [r4, #20]
 278:Drivers/lvgl/src/core/lv_indev_scroll.c ****     proc->types.pointer.scroll_sum.y += proc->types.pointer.vect.y;
 1383              		.loc 1 278 38 view .LVU452
 1384 001c 228B     		ldrh	r2, [r4, #24]
 1385 001e 1344     		add	r3, r3, r2
 1386 0020 2383     		strh	r3, [r4, #24]	@ movhi
 279:Drivers/lvgl/src/core/lv_indev_scroll.c **** 
 1387              		.loc 1 279 5 is_stmt 1 view .LVU453
 279:Drivers/lvgl/src/core/lv_indev_scroll.c **** 
 1388              		.loc 1 279 65 is_stmt 0 view .LVU454
 1389 0022 E38A     		ldrh	r3, [r4, #22]
 279:Drivers/lvgl/src/core/lv_indev_scroll.c **** 
 1390              		.loc 1 279 38 view .LVU455
 1391 0024 628B     		ldrh	r2, [r4, #26]
 1392 0026 1344     		add	r3, r3, r2
 1393 0028 6383     		strh	r3, [r4, #26]	@ movhi
ARM GAS  /var/folders/0z/tsy30v1j4xl4_7kw94k978ww0000gn/T//ccjK6xP1.s 			page 46


 281:Drivers/lvgl/src/core/lv_indev_scroll.c ****         /*Get the transformed scroll_sum with this object*/
 1394              		.loc 1 281 5 is_stmt 1 view .LVU456
 276:Drivers/lvgl/src/core/lv_indev_scroll.c **** 
 1395              		.loc 1 276 10 is_stmt 0 view .LVU457
 1396 002a 0023     		movs	r3, #0
 1397 002c 0293     		str	r3, [sp, #8]
 275:Drivers/lvgl/src/core/lv_indev_scroll.c ****     bool ver_en = false;
 1398              		.loc 1 275 10 view .LVU458
 1399 002e 0393     		str	r3, [sp, #12]
 261:Drivers/lvgl/src/core/lv_indev_scroll.c ****     lv_indev_t * indev_act = lv_indev_get_act();
 1400              		.loc 1 261 14 view .LVU459
 1401 0030 0193     		str	r3, [sp, #4]
 260:Drivers/lvgl/src/core/lv_indev_scroll.c ****     lv_dir_t dir_candidate = LV_DIR_NONE;
 1402              		.loc 1 260 16 view .LVU460
 1403 0032 9B46     		mov	fp, r3
 1404              	.LVL131:
 1405              	.L71:
 281:Drivers/lvgl/src/core/lv_indev_scroll.c ****         /*Get the transformed scroll_sum with this object*/
 1406              		.loc 1 281 11 is_stmt 1 view .LVU461
 1407 0034 B9F1000F 		cmp	r9, #0
 1408 0038 12D1     		bne	.L105
 1409              	.L104:
 377:Drivers/lvgl/src/core/lv_indev_scroll.c ****         proc->types.pointer.scroll_dir = dir_candidate;
 1410              		.loc 1 377 5 view .LVU462
 377:Drivers/lvgl/src/core/lv_indev_scroll.c ****         proc->types.pointer.scroll_dir = dir_candidate;
 1411              		.loc 1 377 7 is_stmt 0 view .LVU463
 1412 003a BBF1000F 		cmp	fp, #0
 1413 003e 0BD0     		beq	.L70
 378:Drivers/lvgl/src/core/lv_indev_scroll.c ****         proc->types.pointer.scroll_obj = obj_candidate;
 1414              		.loc 1 378 9 is_stmt 1 view .LVU464
 378:Drivers/lvgl/src/core/lv_indev_scroll.c ****         proc->types.pointer.scroll_obj = obj_candidate;
 1415              		.loc 1 378 40 is_stmt 0 view .LVU465
 1416 0040 94F84030 		ldrb	r3, [r4, #64]	@ zero_extendqisi2
 1417 0044 019A     		ldr	r2, [sp, #4]
 1418 0046 62F30303 		bfi	r3, r2, #0, #4
 1419 004a 84F84030 		strb	r3, [r4, #64]
 379:Drivers/lvgl/src/core/lv_indev_scroll.c ****         proc->types.pointer.scroll_sum.x = 0;
 1420              		.loc 1 379 9 is_stmt 1 view .LVU466
 379:Drivers/lvgl/src/core/lv_indev_scroll.c ****         proc->types.pointer.scroll_sum.x = 0;
 1421              		.loc 1 379 40 is_stmt 0 view .LVU467
 1422 004e C4F82CB0 		str	fp, [r4, #44]
 380:Drivers/lvgl/src/core/lv_indev_scroll.c ****         proc->types.pointer.scroll_sum.y = 0;
 1423              		.loc 1 380 9 is_stmt 1 view .LVU468
 380:Drivers/lvgl/src/core/lv_indev_scroll.c ****         proc->types.pointer.scroll_sum.y = 0;
 1424              		.loc 1 380 42 is_stmt 0 view .LVU469
 1425 0052 0023     		movs	r3, #0
 1426 0054 2383     		strh	r3, [r4, #24]	@ movhi
 381:Drivers/lvgl/src/core/lv_indev_scroll.c ****     }
 1427              		.loc 1 381 9 is_stmt 1 view .LVU470
 381:Drivers/lvgl/src/core/lv_indev_scroll.c ****     }
 1428              		.loc 1 381 42 is_stmt 0 view .LVU471
 1429 0056 6383     		strh	r3, [r4, #26]	@ movhi
 384:Drivers/lvgl/src/core/lv_indev_scroll.c **** }
 1430              		.loc 1 384 5 is_stmt 1 view .LVU472
 1431              	.L70:
 385:Drivers/lvgl/src/core/lv_indev_scroll.c **** 
 1432              		.loc 1 385 1 is_stmt 0 view .LVU473
ARM GAS  /var/folders/0z/tsy30v1j4xl4_7kw94k978ww0000gn/T//ccjK6xP1.s 			page 47


 1433 0058 5846     		mov	r0, fp
 1434 005a 0BB0     		add	sp, sp, #44
 1435              		.cfi_remember_state
 1436              		.cfi_def_cfa_offset 36
 1437              		@ sp needed
 1438 005c BDE8F08F 		pop	{r4, r5, r6, r7, r8, r9, r10, fp, pc}
 1439              	.LVL132:
 1440              	.L105:
 1441              		.cfi_restore_state
 1442              	.LBB94:
 283:Drivers/lvgl/src/core/lv_indev_scroll.c ****         int32_t zoom = 256;
 1443              		.loc 1 283 9 is_stmt 1 view .LVU474
 284:Drivers/lvgl/src/core/lv_indev_scroll.c ****         lv_point_t pivot = { 0, 0 };
 1444              		.loc 1 284 9 view .LVU475
 285:Drivers/lvgl/src/core/lv_indev_scroll.c ****         lv_obj_t * parent = obj_act;
 1445              		.loc 1 285 9 view .LVU476
 285:Drivers/lvgl/src/core/lv_indev_scroll.c ****         lv_obj_t * parent = obj_act;
 1446              		.loc 1 285 20 is_stmt 0 view .LVU477
 1447 0060 0027     		movs	r7, #0
 1448 0062 ADF82070 		strh	r7, [sp, #32]	@ movhi
 1449 0066 ADF82270 		strh	r7, [sp, #34]	@ movhi
 286:Drivers/lvgl/src/core/lv_indev_scroll.c ****         while(parent) {
 1450              		.loc 1 286 9 is_stmt 1 view .LVU478
 1451              	.LVL133:
 287:Drivers/lvgl/src/core/lv_indev_scroll.c ****             angle += lv_obj_get_style_transform_angle(parent, 0);
 1452              		.loc 1 287 9 view .LVU479
 286:Drivers/lvgl/src/core/lv_indev_scroll.c ****         while(parent) {
 1453              		.loc 1 286 20 is_stmt 0 view .LVU480
 1454 006a 4E46     		mov	r6, r9
 284:Drivers/lvgl/src/core/lv_indev_scroll.c ****         lv_point_t pivot = { 0, 0 };
 1455              		.loc 1 284 17 view .LVU481
 1456 006c 4FF48075 		mov	r5, #256
 287:Drivers/lvgl/src/core/lv_indev_scroll.c ****             angle += lv_obj_get_style_transform_angle(parent, 0);
 1457              		.loc 1 287 14 view .LVU482
 1458 0070 14E0     		b	.L72
 1459              	.LVL134:
 1460              	.L73:
 1461              	.LBB95:
 288:Drivers/lvgl/src/core/lv_indev_scroll.c ****             int32_t zoom_act = lv_obj_get_style_transform_zoom(parent, 0);
 1462              		.loc 1 288 13 is_stmt 1 view .LVU483
 1463              	.LBB96:
 1464              	.LBI96:
  85:Drivers/lvgl/src/core/lv_obj_style_gen.h **** {
 1465              		.loc 2 85 26 view .LVU484
 1466              	.LBB97:
  87:Drivers/lvgl/src/core/lv_obj_style_gen.h ****     return (lv_coord_t)v.num;
 1467              		.loc 2 87 5 view .LVU485
  87:Drivers/lvgl/src/core/lv_obj_style_gen.h ****     return (lv_coord_t)v.num;
 1468              		.loc 2 87 26 is_stmt 0 view .LVU486
 1469 0072 6E22     		movs	r2, #110
 1470 0074 0021     		movs	r1, #0
 1471 0076 3046     		mov	r0, r6
 1472 0078 FFF7FEFF 		bl	lv_obj_get_style_prop
 1473              	.LVL135:
  88:Drivers/lvgl/src/core/lv_obj_style_gen.h **** }
 1474              		.loc 2 88 5 is_stmt 1 view .LVU487
  88:Drivers/lvgl/src/core/lv_obj_style_gen.h **** }
ARM GAS  /var/folders/0z/tsy30v1j4xl4_7kw94k978ww0000gn/T//ccjK6xP1.s 			page 48


 1475              		.loc 2 88 5 is_stmt 0 view .LVU488
 1476              	.LBE97:
 1477              	.LBE96:
 288:Drivers/lvgl/src/core/lv_indev_scroll.c ****             int32_t zoom_act = lv_obj_get_style_transform_zoom(parent, 0);
 1478              		.loc 1 288 19 view .LVU489
 1479 007c 17FA80F0 		uxtah	r0, r7, r0
 1480 0080 07B2     		sxth	r7, r0
 1481              	.LVL136:
 289:Drivers/lvgl/src/core/lv_indev_scroll.c ****             zoom = (zoom * zoom_act) >> 8;
 1482              		.loc 1 289 13 is_stmt 1 view .LVU490
 1483              	.LBB98:
 1484              	.LBI98:
  79:Drivers/lvgl/src/core/lv_obj_style_gen.h **** {
 1485              		.loc 2 79 26 view .LVU491
 1486              	.LBB99:
  81:Drivers/lvgl/src/core/lv_obj_style_gen.h ****     return (lv_coord_t)v.num;
 1487              		.loc 2 81 5 view .LVU492
  81:Drivers/lvgl/src/core/lv_obj_style_gen.h ****     return (lv_coord_t)v.num;
 1488              		.loc 2 81 26 is_stmt 0 view .LVU493
 1489 0082 6D22     		movs	r2, #109
 1490 0084 0021     		movs	r1, #0
 1491 0086 3046     		mov	r0, r6
 1492 0088 FFF7FEFF 		bl	lv_obj_get_style_prop
 1493              	.LVL137:
  82:Drivers/lvgl/src/core/lv_obj_style_gen.h **** }
 1494              		.loc 2 82 5 is_stmt 1 view .LVU494
  82:Drivers/lvgl/src/core/lv_obj_style_gen.h **** }
 1495              		.loc 2 82 12 is_stmt 0 view .LVU495
 1496 008c 00B2     		sxth	r0, r0
 1497              	.LVL138:
  82:Drivers/lvgl/src/core/lv_obj_style_gen.h **** }
 1498              		.loc 2 82 12 view .LVU496
 1499              	.LBE99:
 1500              	.LBE98:
 290:Drivers/lvgl/src/core/lv_indev_scroll.c ****             parent = lv_obj_get_parent(parent);
 1501              		.loc 1 290 13 is_stmt 1 view .LVU497
 290:Drivers/lvgl/src/core/lv_indev_scroll.c ****             parent = lv_obj_get_parent(parent);
 1502              		.loc 1 290 26 is_stmt 0 view .LVU498
 1503 008e 00FB05F5 		mul	r5, r0, r5
 1504              	.LVL139:
 290:Drivers/lvgl/src/core/lv_indev_scroll.c ****             parent = lv_obj_get_parent(parent);
 1505              		.loc 1 290 18 view .LVU499
 1506 0092 2D12     		asrs	r5, r5, #8
 1507              	.LVL140:
 291:Drivers/lvgl/src/core/lv_indev_scroll.c ****         }
 1508              		.loc 1 291 13 is_stmt 1 view .LVU500
 291:Drivers/lvgl/src/core/lv_indev_scroll.c ****         }
 1509              		.loc 1 291 22 is_stmt 0 view .LVU501
 1510 0094 3046     		mov	r0, r6
 1511              	.LVL141:
 291:Drivers/lvgl/src/core/lv_indev_scroll.c ****         }
 1512              		.loc 1 291 22 view .LVU502
 1513 0096 FFF7FEFF 		bl	lv_obj_get_parent
 1514              	.LVL142:
 1515 009a 0646     		mov	r6, r0
 1516              	.LVL143:
 1517              	.L72:
ARM GAS  /var/folders/0z/tsy30v1j4xl4_7kw94k978ww0000gn/T//ccjK6xP1.s 			page 49


 291:Drivers/lvgl/src/core/lv_indev_scroll.c ****         }
 1518              		.loc 1 291 22 view .LVU503
 1519              	.LBE95:
 287:Drivers/lvgl/src/core/lv_indev_scroll.c ****             angle += lv_obj_get_style_transform_angle(parent, 0);
 1520              		.loc 1 287 15 is_stmt 1 view .LVU504
 1521 009c 002E     		cmp	r6, #0
 1522 009e E8D1     		bne	.L73
 294:Drivers/lvgl/src/core/lv_indev_scroll.c ****         if(angle != 0 || zoom != LV_IMG_ZOOM_NONE) {
 1523              		.loc 1 294 9 view .LVU505
 294:Drivers/lvgl/src/core/lv_indev_scroll.c ****         if(angle != 0 || zoom != LV_IMG_ZOOM_NONE) {
 1524              		.loc 1 294 20 is_stmt 0 view .LVU506
 1525 00a0 A369     		ldr	r3, [r4, #24]
 1526 00a2 0993     		str	r3, [sp, #36]
 295:Drivers/lvgl/src/core/lv_indev_scroll.c ****             angle = -angle;
 1527              		.loc 1 295 9 is_stmt 1 view .LVU507
 295:Drivers/lvgl/src/core/lv_indev_scroll.c ****             angle = -angle;
 1528              		.loc 1 295 11 is_stmt 0 view .LVU508
 1529 00a4 17B9     		cbnz	r7, .L74
 295:Drivers/lvgl/src/core/lv_indev_scroll.c ****             angle = -angle;
 1530              		.loc 1 295 23 discriminator 1 view .LVU509
 1531 00a6 B5F5807F 		cmp	r5, #256
 1532 00aa 09D0     		beq	.L75
 1533              	.L74:
 296:Drivers/lvgl/src/core/lv_indev_scroll.c ****             zoom = (256 * 256) / zoom;
 1534              		.loc 1 296 13 is_stmt 1 view .LVU510
 296:Drivers/lvgl/src/core/lv_indev_scroll.c ****             zoom = (256 * 256) / zoom;
 1535              		.loc 1 296 19 is_stmt 0 view .LVU511
 1536 00ac 7942     		rsbs	r1, r7, #0
 1537              	.LVL144:
 297:Drivers/lvgl/src/core/lv_indev_scroll.c ****             lv_point_transform(&obj_scroll_sum, angle, zoom, &pivot);
 1538              		.loc 1 297 13 is_stmt 1 view .LVU512
 298:Drivers/lvgl/src/core/lv_indev_scroll.c ****         }
 1539              		.loc 1 298 13 view .LVU513
 1540 00ae 08AB     		add	r3, sp, #32
 1541 00b0 4FF48032 		mov	r2, #65536
 1542 00b4 92FBF5F2 		sdiv	r2, r2, r5
 1543              	.LVL145:
 298:Drivers/lvgl/src/core/lv_indev_scroll.c ****         }
 1544              		.loc 1 298 13 is_stmt 0 view .LVU514
 1545 00b8 09B2     		sxth	r1, r1
 298:Drivers/lvgl/src/core/lv_indev_scroll.c ****         }
 1546              		.loc 1 298 13 view .LVU515
 1547 00ba 09A8     		add	r0, sp, #36
 1548 00bc FFF7FEFF 		bl	lv_point_transform
 1549              	.LVL146:
 1550              	.L75:
 301:Drivers/lvgl/src/core/lv_indev_scroll.c ****             hor_en = true;
 1551              		.loc 1 301 9 is_stmt 1 view .LVU516
 301:Drivers/lvgl/src/core/lv_indev_scroll.c ****             hor_en = true;
 1552              		.loc 1 301 12 is_stmt 0 view .LVU517
 1553 00c0 BDF92420 		ldrsh	r2, [sp, #36]
 1554 00c4 002A     		cmp	r2, #0
 1555 00c6 B8BF     		it	lt
 1556 00c8 5242     		rsblt	r2, r2, #0
 1557 00ca 92B2     		uxth	r2, r2
 301:Drivers/lvgl/src/core/lv_indev_scroll.c ****             hor_en = true;
 1558              		.loc 1 301 39 view .LVU518
ARM GAS  /var/folders/0z/tsy30v1j4xl4_7kw94k978ww0000gn/T//ccjK6xP1.s 			page 50


 1559 00cc BDF92630 		ldrsh	r3, [sp, #38]
 1560 00d0 002B     		cmp	r3, #0
 1561 00d2 B8BF     		it	lt
 1562 00d4 5B42     		rsblt	r3, r3, #0
 1563 00d6 9BB2     		uxth	r3, r3
 301:Drivers/lvgl/src/core/lv_indev_scroll.c ****             hor_en = true;
 1564              		.loc 1 301 11 view .LVU519
 1565 00d8 9A42     		cmp	r2, r3
 1566 00da 1DD8     		bhi	.L126
 305:Drivers/lvgl/src/core/lv_indev_scroll.c ****         }
 1567              		.loc 1 305 20 view .LVU520
 1568 00dc 0123     		movs	r3, #1
 1569 00de 0293     		str	r3, [sp, #8]
 1570              	.LVL147:
 1571              	.L76:
 308:Drivers/lvgl/src/core/lv_indev_scroll.c ****             /*If this object don't want to chain the scroll to the parent stop searching*/
 1572              		.loc 1 308 9 is_stmt 1 view .LVU521
 308:Drivers/lvgl/src/core/lv_indev_scroll.c ****             /*If this object don't want to chain the scroll to the parent stop searching*/
 1573              		.loc 1 308 12 is_stmt 0 view .LVU522
 1574 00e0 1021     		movs	r1, #16
 1575 00e2 4846     		mov	r0, r9
 1576 00e4 FFF7FEFF 		bl	lv_obj_has_flag
 1577              	.LVL148:
 308:Drivers/lvgl/src/core/lv_indev_scroll.c ****             /*If this object don't want to chain the scroll to the parent stop searching*/
 1578              		.loc 1 308 11 view .LVU523
 1579 00e8 C8B9     		cbnz	r0, .L77
 310:Drivers/lvgl/src/core/lv_indev_scroll.c ****             if(lv_obj_has_flag(obj_act, LV_OBJ_FLAG_SCROLL_CHAIN_VER) == false && ver_en) break;
 1580              		.loc 1 310 13 is_stmt 1 view .LVU524
 310:Drivers/lvgl/src/core/lv_indev_scroll.c ****             if(lv_obj_has_flag(obj_act, LV_OBJ_FLAG_SCROLL_CHAIN_VER) == false && ver_en) break;
 1581              		.loc 1 310 16 is_stmt 0 view .LVU525
 1582 00ea 4FF48071 		mov	r1, #256
 1583 00ee 4846     		mov	r0, r9
 1584 00f0 FFF7FEFF 		bl	lv_obj_has_flag
 1585              	.LVL149:
 310:Drivers/lvgl/src/core/lv_indev_scroll.c ****             if(lv_obj_has_flag(obj_act, LV_OBJ_FLAG_SCROLL_CHAIN_VER) == false && ver_en) break;
 1586              		.loc 1 310 15 view .LVU526
 1587 00f4 10B9     		cbnz	r0, .L78
 310:Drivers/lvgl/src/core/lv_indev_scroll.c ****             if(lv_obj_has_flag(obj_act, LV_OBJ_FLAG_SCROLL_CHAIN_VER) == false && ver_en) break;
 1588              		.loc 1 310 80 discriminator 1 view .LVU527
 1589 00f6 039B     		ldr	r3, [sp, #12]
 1590 00f8 002B     		cmp	r3, #0
 1591 00fa 9ED1     		bne	.L104
 1592              	.L78:
 311:Drivers/lvgl/src/core/lv_indev_scroll.c **** 
 1593              		.loc 1 311 13 is_stmt 1 view .LVU528
 311:Drivers/lvgl/src/core/lv_indev_scroll.c **** 
 1594              		.loc 1 311 16 is_stmt 0 view .LVU529
 1595 00fc 4FF40071 		mov	r1, #512
 1596 0100 4846     		mov	r0, r9
 1597 0102 FFF7FEFF 		bl	lv_obj_has_flag
 1598              	.LVL150:
 311:Drivers/lvgl/src/core/lv_indev_scroll.c **** 
 1599              		.loc 1 311 15 view .LVU530
 1600 0106 10B9     		cbnz	r0, .L80
 311:Drivers/lvgl/src/core/lv_indev_scroll.c **** 
 1601              		.loc 1 311 80 discriminator 1 view .LVU531
 1602 0108 029B     		ldr	r3, [sp, #8]
ARM GAS  /var/folders/0z/tsy30v1j4xl4_7kw94k978ww0000gn/T//ccjK6xP1.s 			page 51


 1603 010a 002B     		cmp	r3, #0
 1604 010c 95D1     		bne	.L104
 1605              	.L80:
 313:Drivers/lvgl/src/core/lv_indev_scroll.c ****             continue;
 1606              		.loc 1 313 13 is_stmt 1 view .LVU532
 313:Drivers/lvgl/src/core/lv_indev_scroll.c ****             continue;
 1607              		.loc 1 313 23 is_stmt 0 view .LVU533
 1608 010e 4846     		mov	r0, r9
 1609 0110 FFF7FEFF 		bl	lv_obj_get_parent
 1610              	.LVL151:
 1611 0114 8146     		mov	r9, r0
 1612              	.LVL152:
 314:Drivers/lvgl/src/core/lv_indev_scroll.c ****         }
 1613              		.loc 1 314 13 is_stmt 1 view .LVU534
 1614 0116 8DE7     		b	.L71
 1615              	.LVL153:
 1616              	.L126:
 302:Drivers/lvgl/src/core/lv_indev_scroll.c ****         }
 1617              		.loc 1 302 20 is_stmt 0 view .LVU535
 1618 0118 0123     		movs	r3, #1
 1619 011a 0393     		str	r3, [sp, #12]
 1620              	.LVL154:
 302:Drivers/lvgl/src/core/lv_indev_scroll.c ****         }
 1621              		.loc 1 302 20 view .LVU536
 1622 011c E0E7     		b	.L76
 1623              	.LVL155:
 1624              	.L77:
 318:Drivers/lvgl/src/core/lv_indev_scroll.c ****         bool down_en = ver_en;
 1625              		.loc 1 318 9 is_stmt 1 view .LVU537
 319:Drivers/lvgl/src/core/lv_indev_scroll.c ****         bool left_en = hor_en;
 1626              		.loc 1 319 9 view .LVU538
 320:Drivers/lvgl/src/core/lv_indev_scroll.c ****         bool right_en = hor_en;
 1627              		.loc 1 320 9 view .LVU539
 321:Drivers/lvgl/src/core/lv_indev_scroll.c **** 
 1628              		.loc 1 321 9 view .LVU540
 324:Drivers/lvgl/src/core/lv_indev_scroll.c ****         if((scroll_dir & LV_DIR_LEFT) == 0) left_en = false;
 1629              		.loc 1 324 9 view .LVU541
 324:Drivers/lvgl/src/core/lv_indev_scroll.c ****         if((scroll_dir & LV_DIR_LEFT) == 0) left_en = false;
 1630              		.loc 1 324 31 is_stmt 0 view .LVU542
 1631 011e 4846     		mov	r0, r9
 1632 0120 FFF7FEFF 		bl	lv_obj_get_scroll_dir
 1633              	.LVL156:
 325:Drivers/lvgl/src/core/lv_indev_scroll.c ****         if((scroll_dir & LV_DIR_RIGHT) == 0) right_en = false;
 1634              		.loc 1 325 9 is_stmt 1 view .LVU543
 325:Drivers/lvgl/src/core/lv_indev_scroll.c ****         if((scroll_dir & LV_DIR_RIGHT) == 0) right_en = false;
 1635              		.loc 1 325 11 is_stmt 0 view .LVU544
 1636 0124 10F0010F 		tst	r0, #1
 1637 0128 30D0     		beq	.L108
 320:Drivers/lvgl/src/core/lv_indev_scroll.c ****         bool right_en = hor_en;
 1638              		.loc 1 320 14 view .LVU545
 1639 012a 039E     		ldr	r6, [sp, #12]
 1640              	.LVL157:
 1641              	.L82:
 326:Drivers/lvgl/src/core/lv_indev_scroll.c ****         if((scroll_dir & LV_DIR_TOP) == 0) up_en = false;
 1642              		.loc 1 326 9 is_stmt 1 view .LVU546
 326:Drivers/lvgl/src/core/lv_indev_scroll.c ****         if((scroll_dir & LV_DIR_TOP) == 0) up_en = false;
 1643              		.loc 1 326 11 is_stmt 0 view .LVU547
ARM GAS  /var/folders/0z/tsy30v1j4xl4_7kw94k978ww0000gn/T//ccjK6xP1.s 			page 52


 1644 012c 10F0020F 		tst	r0, #2
 1645 0130 2ED0     		beq	.L109
 321:Drivers/lvgl/src/core/lv_indev_scroll.c **** 
 1646              		.loc 1 321 14 view .LVU548
 1647 0132 039B     		ldr	r3, [sp, #12]
 1648 0134 0593     		str	r3, [sp, #20]
 1649              	.L83:
 1650              	.LVL158:
 327:Drivers/lvgl/src/core/lv_indev_scroll.c ****         if((scroll_dir & LV_DIR_BOTTOM) == 0) down_en = false;
 1651              		.loc 1 327 9 is_stmt 1 view .LVU549
 327:Drivers/lvgl/src/core/lv_indev_scroll.c ****         if((scroll_dir & LV_DIR_BOTTOM) == 0) down_en = false;
 1652              		.loc 1 327 11 is_stmt 0 view .LVU550
 1653 0136 10F0040F 		tst	r0, #4
 1654 013a 2CD0     		beq	.L110
 318:Drivers/lvgl/src/core/lv_indev_scroll.c ****         bool down_en = ver_en;
 1655              		.loc 1 318 14 view .LVU551
 1656 013c 029F     		ldr	r7, [sp, #8]
 1657              	.L84:
 1658              	.LVL159:
 328:Drivers/lvgl/src/core/lv_indev_scroll.c **** 
 1659              		.loc 1 328 9 is_stmt 1 view .LVU552
 328:Drivers/lvgl/src/core/lv_indev_scroll.c **** 
 1660              		.loc 1 328 11 is_stmt 0 view .LVU553
 1661 013e 10F0080F 		tst	r0, #8
 1662 0142 2AD0     		beq	.L111
 319:Drivers/lvgl/src/core/lv_indev_scroll.c ****         bool left_en = hor_en;
 1663              		.loc 1 319 14 view .LVU554
 1664 0144 029B     		ldr	r3, [sp, #8]
 1665 0146 0693     		str	r3, [sp, #24]
 1666              	.L85:
 1667              	.LVL160:
 331:Drivers/lvgl/src/core/lv_indev_scroll.c ****         lv_coord_t sb = lv_obj_get_scroll_bottom(obj_act);
 1668              		.loc 1 331 9 is_stmt 1 view .LVU555
 331:Drivers/lvgl/src/core/lv_indev_scroll.c ****         lv_coord_t sb = lv_obj_get_scroll_bottom(obj_act);
 1669              		.loc 1 331 25 is_stmt 0 view .LVU556
 1670 0148 4846     		mov	r0, r9
 1671              	.LVL161:
 331:Drivers/lvgl/src/core/lv_indev_scroll.c ****         lv_coord_t sb = lv_obj_get_scroll_bottom(obj_act);
 1672              		.loc 1 331 25 view .LVU557
 1673 014a FFF7FEFF 		bl	lv_obj_get_scroll_top
 1674              	.LVL162:
 1675 014e 0546     		mov	r5, r0
 1676              	.LVL163:
 332:Drivers/lvgl/src/core/lv_indev_scroll.c ****         lv_coord_t sl = lv_obj_get_scroll_left(obj_act);
 1677              		.loc 1 332 9 is_stmt 1 view .LVU558
 332:Drivers/lvgl/src/core/lv_indev_scroll.c ****         lv_coord_t sl = lv_obj_get_scroll_left(obj_act);
 1678              		.loc 1 332 25 is_stmt 0 view .LVU559
 1679 0150 4846     		mov	r0, r9
 1680 0152 FFF7FEFF 		bl	lv_obj_get_scroll_bottom
 1681              	.LVL164:
 1682 0156 0790     		str	r0, [sp, #28]
 1683              	.LVL165:
 333:Drivers/lvgl/src/core/lv_indev_scroll.c ****         lv_coord_t sr = lv_obj_get_scroll_right(obj_act);
 1684              		.loc 1 333 9 is_stmt 1 view .LVU560
 333:Drivers/lvgl/src/core/lv_indev_scroll.c ****         lv_coord_t sr = lv_obj_get_scroll_right(obj_act);
 1685              		.loc 1 333 25 is_stmt 0 view .LVU561
 1686 0158 4846     		mov	r0, r9
ARM GAS  /var/folders/0z/tsy30v1j4xl4_7kw94k978ww0000gn/T//ccjK6xP1.s 			page 53


 1687 015a FFF7FEFF 		bl	lv_obj_get_scroll_left
 1688              	.LVL166:
 1689 015e 0490     		str	r0, [sp, #16]
 1690              	.LVL167:
 334:Drivers/lvgl/src/core/lv_indev_scroll.c **** 
 1691              		.loc 1 334 9 is_stmt 1 view .LVU562
 334:Drivers/lvgl/src/core/lv_indev_scroll.c **** 
 1692              		.loc 1 334 25 is_stmt 0 view .LVU563
 1693 0160 4846     		mov	r0, r9
 1694 0162 FFF7FEFF 		bl	lv_obj_get_scroll_right
 1695              	.LVL168:
 340:Drivers/lvgl/src/core/lv_indev_scroll.c ****            ((up_en    && obj_scroll_sum.y >=   scroll_limit) ||
 1696              		.loc 1 340 9 is_stmt 1 view .LVU564
 340:Drivers/lvgl/src/core/lv_indev_scroll.c ****            ((up_en    && obj_scroll_sum.y >=   scroll_limit) ||
 1697              		.loc 1 340 11 is_stmt 0 view .LVU565
 1698 0166 002D     		cmp	r5, #0
 1699 0168 1ADD     		ble	.L127
 1700              	.L86:
 340:Drivers/lvgl/src/core/lv_indev_scroll.c ****            ((up_en    && obj_scroll_sum.y >=   scroll_limit) ||
 1701              		.loc 1 340 32 discriminator 3 view .LVU566
 1702 016a 1FB1     		cbz	r7, .L88
 341:Drivers/lvgl/src/core/lv_indev_scroll.c ****             (down_en  && obj_scroll_sum.y <= - scroll_limit))) {
 1703              		.loc 1 341 40 view .LVU567
 1704 016c BDF92630 		ldrsh	r3, [sp, #38]
 341:Drivers/lvgl/src/core/lv_indev_scroll.c ****             (down_en  && obj_scroll_sum.y <= - scroll_limit))) {
 1705              		.loc 1 341 23 view .LVU568
 1706 0170 5345     		cmp	r3, r10
 1707 0172 19DA     		bge	.L112
 1708              	.L88:
 341:Drivers/lvgl/src/core/lv_indev_scroll.c ****             (down_en  && obj_scroll_sum.y <= - scroll_limit))) {
 1709              		.loc 1 341 62 discriminator 1 view .LVU569
 1710 0174 069B     		ldr	r3, [sp, #24]
 1711 0176 D3B1     		cbz	r3, .L87
 342:Drivers/lvgl/src/core/lv_indev_scroll.c ****             obj_candidate = obj_act;
 1712              		.loc 1 342 40 view .LVU570
 1713 0178 BDF92620 		ldrsh	r2, [sp, #38]
 342:Drivers/lvgl/src/core/lv_indev_scroll.c ****             obj_candidate = obj_act;
 1714              		.loc 1 342 46 view .LVU571
 1715 017c C8F10003 		rsb	r3, r8, #0
 342:Drivers/lvgl/src/core/lv_indev_scroll.c ****             obj_candidate = obj_act;
 1716              		.loc 1 342 23 view .LVU572
 1717 0180 9A42     		cmp	r2, r3
 1718 0182 14DC     		bgt	.L87
 343:Drivers/lvgl/src/core/lv_indev_scroll.c ****             dir_candidate = LV_DIR_VER;
 1719              		.loc 1 343 27 view .LVU573
 1720 0184 CB46     		mov	fp, r9
 1721              	.LVL169:
 344:Drivers/lvgl/src/core/lv_indev_scroll.c ****         }
 1722              		.loc 1 344 27 view .LVU574
 1723 0186 0C23     		movs	r3, #12
 1724 0188 0193     		str	r3, [sp, #4]
 1725              	.LVL170:
 344:Drivers/lvgl/src/core/lv_indev_scroll.c ****         }
 1726              		.loc 1 344 27 view .LVU575
 1727 018a 10E0     		b	.L87
 1728              	.LVL171:
 1729              	.L108:
ARM GAS  /var/folders/0z/tsy30v1j4xl4_7kw94k978ww0000gn/T//ccjK6xP1.s 			page 54


 325:Drivers/lvgl/src/core/lv_indev_scroll.c ****         if((scroll_dir & LV_DIR_RIGHT) == 0) right_en = false;
 1730              		.loc 1 325 53 view .LVU576
 1731 018c 0026     		movs	r6, #0
 1732              	.LVL172:
 325:Drivers/lvgl/src/core/lv_indev_scroll.c ****         if((scroll_dir & LV_DIR_RIGHT) == 0) right_en = false;
 1733              		.loc 1 325 53 view .LVU577
 1734 018e CDE7     		b	.L82
 1735              	.LVL173:
 1736              	.L109:
 326:Drivers/lvgl/src/core/lv_indev_scroll.c ****         if((scroll_dir & LV_DIR_TOP) == 0) up_en = false;
 1737              		.loc 1 326 55 view .LVU578
 1738 0190 0023     		movs	r3, #0
 1739 0192 0593     		str	r3, [sp, #20]
 1740 0194 CFE7     		b	.L83
 1741              	.LVL174:
 1742              	.L110:
 327:Drivers/lvgl/src/core/lv_indev_scroll.c ****         if((scroll_dir & LV_DIR_BOTTOM) == 0) down_en = false;
 1743              		.loc 1 327 50 view .LVU579
 1744 0196 0027     		movs	r7, #0
 1745 0198 D1E7     		b	.L84
 1746              	.LVL175:
 1747              	.L111:
 328:Drivers/lvgl/src/core/lv_indev_scroll.c **** 
 1748              		.loc 1 328 55 view .LVU580
 1749 019a 0023     		movs	r3, #0
 1750 019c 0693     		str	r3, [sp, #24]
 1751 019e D3E7     		b	.L85
 1752              	.LVL176:
 1753              	.L127:
 340:Drivers/lvgl/src/core/lv_indev_scroll.c ****            ((up_en    && obj_scroll_sum.y >=   scroll_limit) ||
 1754              		.loc 1 340 20 discriminator 2 view .LVU581
 1755 01a0 079B     		ldr	r3, [sp, #28]
 1756 01a2 002B     		cmp	r3, #0
 1757 01a4 E1DC     		bgt	.L86
 1758 01a6 02E0     		b	.L87
 1759              	.L112:
 343:Drivers/lvgl/src/core/lv_indev_scroll.c ****             dir_candidate = LV_DIR_VER;
 1760              		.loc 1 343 27 view .LVU582
 1761 01a8 CB46     		mov	fp, r9
 1762              	.LVL177:
 344:Drivers/lvgl/src/core/lv_indev_scroll.c ****         }
 1763              		.loc 1 344 27 view .LVU583
 1764 01aa 0C23     		movs	r3, #12
 1765 01ac 0193     		str	r3, [sp, #4]
 1766              	.LVL178:
 1767              	.L87:
 347:Drivers/lvgl/src/core/lv_indev_scroll.c ****            ((left_en   && obj_scroll_sum.x >=   scroll_limit) ||
 1768              		.loc 1 347 9 is_stmt 1 view .LVU584
 347:Drivers/lvgl/src/core/lv_indev_scroll.c ****            ((left_en   && obj_scroll_sum.x >=   scroll_limit) ||
 1769              		.loc 1 347 11 is_stmt 0 view .LVU585
 1770 01ae 049B     		ldr	r3, [sp, #16]
 1771 01b0 002B     		cmp	r3, #0
 1772 01b2 10DD     		ble	.L128
 1773              	.L89:
 347:Drivers/lvgl/src/core/lv_indev_scroll.c ****            ((left_en   && obj_scroll_sum.x >=   scroll_limit) ||
 1774              		.loc 1 347 32 discriminator 3 view .LVU586
 1775 01b4 1EB1     		cbz	r6, .L91
ARM GAS  /var/folders/0z/tsy30v1j4xl4_7kw94k978ww0000gn/T//ccjK6xP1.s 			page 55


 348:Drivers/lvgl/src/core/lv_indev_scroll.c ****             (right_en  && obj_scroll_sum.x <= - scroll_limit))) {
 1776              		.loc 1 348 41 view .LVU587
 1777 01b6 BDF92430 		ldrsh	r3, [sp, #36]
 348:Drivers/lvgl/src/core/lv_indev_scroll.c ****             (right_en  && obj_scroll_sum.x <= - scroll_limit))) {
 1778              		.loc 1 348 24 view .LVU588
 1779 01ba 5345     		cmp	r3, r10
 1780 01bc 0EDA     		bge	.L114
 1781              	.L91:
 348:Drivers/lvgl/src/core/lv_indev_scroll.c ****             (right_en  && obj_scroll_sum.x <= - scroll_limit))) {
 1782              		.loc 1 348 63 discriminator 1 view .LVU589
 1783 01be 059B     		ldr	r3, [sp, #20]
 1784 01c0 7BB1     		cbz	r3, .L90
 349:Drivers/lvgl/src/core/lv_indev_scroll.c ****             obj_candidate = obj_act;
 1785              		.loc 1 349 41 view .LVU590
 1786 01c2 BDF92420 		ldrsh	r2, [sp, #36]
 349:Drivers/lvgl/src/core/lv_indev_scroll.c ****             obj_candidate = obj_act;
 1787              		.loc 1 349 47 view .LVU591
 1788 01c6 C8F10003 		rsb	r3, r8, #0
 349:Drivers/lvgl/src/core/lv_indev_scroll.c ****             obj_candidate = obj_act;
 1789              		.loc 1 349 24 view .LVU592
 1790 01ca 9A42     		cmp	r2, r3
 1791 01cc 09DC     		bgt	.L90
 350:Drivers/lvgl/src/core/lv_indev_scroll.c ****             dir_candidate = LV_DIR_HOR;
 1792              		.loc 1 350 27 view .LVU593
 1793 01ce CB46     		mov	fp, r9
 1794              	.LVL179:
 351:Drivers/lvgl/src/core/lv_indev_scroll.c ****         }
 1795              		.loc 1 351 27 view .LVU594
 1796 01d0 0323     		movs	r3, #3
 1797 01d2 0193     		str	r3, [sp, #4]
 1798              	.LVL180:
 351:Drivers/lvgl/src/core/lv_indev_scroll.c ****         }
 1799              		.loc 1 351 27 view .LVU595
 1800 01d4 05E0     		b	.L90
 1801              	.LVL181:
 1802              	.L128:
 347:Drivers/lvgl/src/core/lv_indev_scroll.c ****            ((left_en   && obj_scroll_sum.x >=   scroll_limit) ||
 1803              		.loc 1 347 20 discriminator 2 view .LVU596
 1804 01d6 0028     		cmp	r0, #0
 1805 01d8 ECDC     		bgt	.L89
 1806 01da 02E0     		b	.L90
 1807              	.L114:
 350:Drivers/lvgl/src/core/lv_indev_scroll.c ****             dir_candidate = LV_DIR_HOR;
 1808              		.loc 1 350 27 view .LVU597
 1809 01dc CB46     		mov	fp, r9
 1810              	.LVL182:
 351:Drivers/lvgl/src/core/lv_indev_scroll.c ****         }
 1811              		.loc 1 351 27 view .LVU598
 1812 01de 0323     		movs	r3, #3
 1813 01e0 0193     		str	r3, [sp, #4]
 1814              	.LVL183:
 1815              	.L90:
 354:Drivers/lvgl/src/core/lv_indev_scroll.c ****         if(sb <= 0) down_en = false;
 1816              		.loc 1 354 9 is_stmt 1 view .LVU599
 354:Drivers/lvgl/src/core/lv_indev_scroll.c ****         if(sb <= 0) down_en = false;
 1817              		.loc 1 354 11 is_stmt 0 view .LVU600
 1818 01e2 002D     		cmp	r5, #0
ARM GAS  /var/folders/0z/tsy30v1j4xl4_7kw94k978ww0000gn/T//ccjK6xP1.s 			page 56


 1819 01e4 3ADD     		ble	.L129
 1820              	.LVL184:
 1821              	.L92:
 355:Drivers/lvgl/src/core/lv_indev_scroll.c ****         if(sl <= 0) left_en = false;
 1822              		.loc 1 355 9 is_stmt 1 view .LVU601
 355:Drivers/lvgl/src/core/lv_indev_scroll.c ****         if(sl <= 0) left_en = false;
 1823              		.loc 1 355 11 is_stmt 0 view .LVU602
 1824 01e6 079B     		ldr	r3, [sp, #28]
 1825 01e8 002B     		cmp	r3, #0
 1826 01ea 39DD     		ble	.L130
 1827              	.LVL185:
 1828              	.L93:
 356:Drivers/lvgl/src/core/lv_indev_scroll.c ****         if(sr <= 0) right_en = false;
 1829              		.loc 1 356 9 is_stmt 1 view .LVU603
 356:Drivers/lvgl/src/core/lv_indev_scroll.c ****         if(sr <= 0) right_en = false;
 1830              		.loc 1 356 11 is_stmt 0 view .LVU604
 1831 01ec 049B     		ldr	r3, [sp, #16]
 1832 01ee 002B     		cmp	r3, #0
 1833 01f0 39DD     		ble	.L131
 1834              	.LVL186:
 1835              	.L94:
 357:Drivers/lvgl/src/core/lv_indev_scroll.c **** 
 1836              		.loc 1 357 9 is_stmt 1 view .LVU605
 357:Drivers/lvgl/src/core/lv_indev_scroll.c **** 
 1837              		.loc 1 357 11 is_stmt 0 view .LVU606
 1838 01f2 0028     		cmp	r0, #0
 1839 01f4 39DD     		ble	.L132
 1840              	.LVL187:
 1841              	.L95:
 360:Drivers/lvgl/src/core/lv_indev_scroll.c ****            (right_en && obj_scroll_sum.x <= - scroll_limit) ||
 1842              		.loc 1 360 9 is_stmt 1 view .LVU607
 360:Drivers/lvgl/src/core/lv_indev_scroll.c ****            (right_en && obj_scroll_sum.x <= - scroll_limit) ||
 1843              		.loc 1 360 11 is_stmt 0 view .LVU608
 1844 01f6 1EB1     		cbz	r6, .L96
 360:Drivers/lvgl/src/core/lv_indev_scroll.c ****            (right_en && obj_scroll_sum.x <= - scroll_limit) ||
 1845              		.loc 1 360 39 discriminator 1 view .LVU609
 1846 01f8 BDF92430 		ldrsh	r3, [sp, #36]
 360:Drivers/lvgl/src/core/lv_indev_scroll.c ****            (right_en && obj_scroll_sum.x <= - scroll_limit) ||
 1847              		.loc 1 360 22 discriminator 1 view .LVU610
 1848 01fc 5345     		cmp	r3, r10
 1849 01fe 37DA     		bge	.L97
 1850              	.L96:
 360:Drivers/lvgl/src/core/lv_indev_scroll.c ****            (right_en && obj_scroll_sum.x <= - scroll_limit) ||
 1851              		.loc 1 360 61 discriminator 3 view .LVU611
 1852 0200 059B     		ldr	r3, [sp, #20]
 1853 0202 2BB1     		cbz	r3, .L98
 361:Drivers/lvgl/src/core/lv_indev_scroll.c ****            (up_en    && obj_scroll_sum.y >=   scroll_limit) ||
 1854              		.loc 1 361 39 view .LVU612
 1855 0204 BDF92420 		ldrsh	r2, [sp, #36]
 361:Drivers/lvgl/src/core/lv_indev_scroll.c ****            (up_en    && obj_scroll_sum.y >=   scroll_limit) ||
 1856              		.loc 1 361 45 view .LVU613
 1857 0208 C8F10003 		rsb	r3, r8, #0
 361:Drivers/lvgl/src/core/lv_indev_scroll.c ****            (up_en    && obj_scroll_sum.y >=   scroll_limit) ||
 1858              		.loc 1 361 22 view .LVU614
 1859 020c 9A42     		cmp	r2, r3
 1860 020e 2FDD     		ble	.L97
 1861              	.L98:
ARM GAS  /var/folders/0z/tsy30v1j4xl4_7kw94k978ww0000gn/T//ccjK6xP1.s 			page 57


 361:Drivers/lvgl/src/core/lv_indev_scroll.c ****            (up_en    && obj_scroll_sum.y >=   scroll_limit) ||
 1862              		.loc 1 361 61 discriminator 1 view .LVU615
 1863 0210 1FB1     		cbz	r7, .L99
 362:Drivers/lvgl/src/core/lv_indev_scroll.c ****            (down_en  && obj_scroll_sum.y <= - scroll_limit)) {
 1864              		.loc 1 362 39 view .LVU616
 1865 0212 BDF92630 		ldrsh	r3, [sp, #38]
 362:Drivers/lvgl/src/core/lv_indev_scroll.c ****            (down_en  && obj_scroll_sum.y <= - scroll_limit)) {
 1866              		.loc 1 362 22 view .LVU617
 1867 0216 5345     		cmp	r3, r10
 1868 0218 2ADA     		bge	.L97
 1869              	.L99:
 362:Drivers/lvgl/src/core/lv_indev_scroll.c ****            (down_en  && obj_scroll_sum.y <= - scroll_limit)) {
 1870              		.loc 1 362 61 discriminator 1 view .LVU618
 1871 021a 069B     		ldr	r3, [sp, #24]
 1872 021c 2BB1     		cbz	r3, .L100
 363:Drivers/lvgl/src/core/lv_indev_scroll.c ****             proc->types.pointer.scroll_dir = hor_en ? LV_DIR_HOR : LV_DIR_VER;
 1873              		.loc 1 363 39 view .LVU619
 1874 021e BDF92620 		ldrsh	r2, [sp, #38]
 363:Drivers/lvgl/src/core/lv_indev_scroll.c ****             proc->types.pointer.scroll_dir = hor_en ? LV_DIR_HOR : LV_DIR_VER;
 1875              		.loc 1 363 45 view .LVU620
 1876 0222 C8F10003 		rsb	r3, r8, #0
 363:Drivers/lvgl/src/core/lv_indev_scroll.c ****             proc->types.pointer.scroll_dir = hor_en ? LV_DIR_HOR : LV_DIR_VER;
 1877              		.loc 1 363 22 view .LVU621
 1878 0226 9A42     		cmp	r2, r3
 1879 0228 22DD     		ble	.L97
 1880              	.L100:
 369:Drivers/lvgl/src/core/lv_indev_scroll.c ****         if(lv_obj_has_flag(obj_act, LV_OBJ_FLAG_SCROLL_CHAIN_VER) == false && ver_en) break;
 1881              		.loc 1 369 9 is_stmt 1 view .LVU622
 369:Drivers/lvgl/src/core/lv_indev_scroll.c ****         if(lv_obj_has_flag(obj_act, LV_OBJ_FLAG_SCROLL_CHAIN_VER) == false && ver_en) break;
 1882              		.loc 1 369 12 is_stmt 0 view .LVU623
 1883 022a 4FF48071 		mov	r1, #256
 1884 022e 4846     		mov	r0, r9
 1885              	.LVL188:
 369:Drivers/lvgl/src/core/lv_indev_scroll.c ****         if(lv_obj_has_flag(obj_act, LV_OBJ_FLAG_SCROLL_CHAIN_VER) == false && ver_en) break;
 1886              		.loc 1 369 12 view .LVU624
 1887 0230 FFF7FEFF 		bl	lv_obj_has_flag
 1888              	.LVL189:
 369:Drivers/lvgl/src/core/lv_indev_scroll.c ****         if(lv_obj_has_flag(obj_act, LV_OBJ_FLAG_SCROLL_CHAIN_VER) == false && ver_en) break;
 1889              		.loc 1 369 11 view .LVU625
 1890 0234 18B9     		cbnz	r0, .L102
 369:Drivers/lvgl/src/core/lv_indev_scroll.c ****         if(lv_obj_has_flag(obj_act, LV_OBJ_FLAG_SCROLL_CHAIN_VER) == false && ver_en) break;
 1891              		.loc 1 369 76 discriminator 1 view .LVU626
 1892 0236 039B     		ldr	r3, [sp, #12]
 1893 0238 002B     		cmp	r3, #0
 1894 023a 7FF4FEAE 		bne	.L104
 1895              	.L102:
 370:Drivers/lvgl/src/core/lv_indev_scroll.c **** 
 1896              		.loc 1 370 9 is_stmt 1 view .LVU627
 370:Drivers/lvgl/src/core/lv_indev_scroll.c **** 
 1897              		.loc 1 370 12 is_stmt 0 view .LVU628
 1898 023e 4FF40071 		mov	r1, #512
 1899 0242 4846     		mov	r0, r9
 1900 0244 FFF7FEFF 		bl	lv_obj_has_flag
 1901              	.LVL190:
 370:Drivers/lvgl/src/core/lv_indev_scroll.c **** 
 1902              		.loc 1 370 11 view .LVU629
 1903 0248 18B9     		cbnz	r0, .L103
ARM GAS  /var/folders/0z/tsy30v1j4xl4_7kw94k978ww0000gn/T//ccjK6xP1.s 			page 58


 370:Drivers/lvgl/src/core/lv_indev_scroll.c **** 
 1904              		.loc 1 370 76 discriminator 1 view .LVU630
 1905 024a 029B     		ldr	r3, [sp, #8]
 1906 024c 002B     		cmp	r3, #0
 1907 024e 7FF4F4AE 		bne	.L104
 1908              	.L103:
 373:Drivers/lvgl/src/core/lv_indev_scroll.c ****     }
 1909              		.loc 1 373 9 is_stmt 1 view .LVU631
 373:Drivers/lvgl/src/core/lv_indev_scroll.c ****     }
 1910              		.loc 1 373 19 is_stmt 0 view .LVU632
 1911 0252 4846     		mov	r0, r9
 1912 0254 FFF7FEFF 		bl	lv_obj_get_parent
 1913              	.LVL191:
 1914 0258 8146     		mov	r9, r0
 1915              	.LVL192:
 373:Drivers/lvgl/src/core/lv_indev_scroll.c ****     }
 1916              		.loc 1 373 19 view .LVU633
 1917 025a EBE6     		b	.L71
 1918              	.LVL193:
 1919              	.L129:
 354:Drivers/lvgl/src/core/lv_indev_scroll.c ****         if(sb <= 0) down_en = false;
 1920              		.loc 1 354 27 view .LVU634
 1921 025c 0027     		movs	r7, #0
 1922              	.LVL194:
 354:Drivers/lvgl/src/core/lv_indev_scroll.c ****         if(sb <= 0) down_en = false;
 1923              		.loc 1 354 27 view .LVU635
 1924 025e C2E7     		b	.L92
 1925              	.LVL195:
 1926              	.L130:
 355:Drivers/lvgl/src/core/lv_indev_scroll.c ****         if(sl <= 0) left_en = false;
 1927              		.loc 1 355 29 view .LVU636
 1928 0260 0023     		movs	r3, #0
 1929 0262 0693     		str	r3, [sp, #24]
 1930              	.LVL196:
 355:Drivers/lvgl/src/core/lv_indev_scroll.c ****         if(sl <= 0) left_en = false;
 1931              		.loc 1 355 29 view .LVU637
 1932 0264 C2E7     		b	.L93
 1933              	.LVL197:
 1934              	.L131:
 356:Drivers/lvgl/src/core/lv_indev_scroll.c ****         if(sr <= 0) right_en = false;
 1935              		.loc 1 356 29 view .LVU638
 1936 0266 0026     		movs	r6, #0
 1937              	.LVL198:
 356:Drivers/lvgl/src/core/lv_indev_scroll.c ****         if(sr <= 0) right_en = false;
 1938              		.loc 1 356 29 view .LVU639
 1939 0268 C3E7     		b	.L94
 1940              	.LVL199:
 1941              	.L132:
 357:Drivers/lvgl/src/core/lv_indev_scroll.c **** 
 1942              		.loc 1 357 30 view .LVU640
 1943 026a 0023     		movs	r3, #0
 1944 026c 0593     		str	r3, [sp, #20]
 1945              	.LVL200:
 357:Drivers/lvgl/src/core/lv_indev_scroll.c **** 
 1946              		.loc 1 357 30 view .LVU641
 1947 026e C2E7     		b	.L95
 1948              	.LVL201:
ARM GAS  /var/folders/0z/tsy30v1j4xl4_7kw94k978ww0000gn/T//ccjK6xP1.s 			page 59


 1949              	.L97:
 364:Drivers/lvgl/src/core/lv_indev_scroll.c ****             break;
 1950              		.loc 1 364 13 is_stmt 1 view .LVU642
 364:Drivers/lvgl/src/core/lv_indev_scroll.c ****             break;
 1951              		.loc 1 364 66 is_stmt 0 view .LVU643
 1952 0270 039B     		ldr	r3, [sp, #12]
 1953 0272 3BB1     		cbz	r3, .L120
 1954 0274 0322     		movs	r2, #3
 1955              	.L101:
 364:Drivers/lvgl/src/core/lv_indev_scroll.c ****             break;
 1956              		.loc 1 364 44 discriminator 4 view .LVU644
 1957 0276 94F84030 		ldrb	r3, [r4, #64]	@ zero_extendqisi2
 1958 027a 62F30303 		bfi	r3, r2, #0, #4
 1959 027e 84F84030 		strb	r3, [r4, #64]
 365:Drivers/lvgl/src/core/lv_indev_scroll.c ****         }
 1960              		.loc 1 365 13 is_stmt 1 discriminator 4 view .LVU645
 1961 0282 DAE6     		b	.L104
 1962              	.L120:
 364:Drivers/lvgl/src/core/lv_indev_scroll.c ****             break;
 1963              		.loc 1 364 66 is_stmt 0 view .LVU646
 1964 0284 0C22     		movs	r2, #12
 1965 0286 F6E7     		b	.L101
 1966              	.LBE94:
 1967              		.cfi_endproc
 1968              	.LFE165:
 1970              		.section	.text.elastic_diff,"ax",%progbits
 1971              		.align	1
 1972              		.syntax unified
 1973              		.thumb
 1974              		.thumb_func
 1976              	elastic_diff:
 1977              	.LVL202:
 1978              	.LFB172:
 611:Drivers/lvgl/src/core/lv_indev_scroll.c **** 
 612:Drivers/lvgl/src/core/lv_indev_scroll.c **** static lv_coord_t elastic_diff(lv_obj_t * scroll_obj, lv_coord_t diff, lv_coord_t scroll_start, lv_
 613:Drivers/lvgl/src/core/lv_indev_scroll.c ****                                lv_dir_t dir)
 614:Drivers/lvgl/src/core/lv_indev_scroll.c **** {
 1979              		.loc 1 614 1 is_stmt 1 view -0
 1980              		.cfi_startproc
 1981              		@ args = 4, pretend = 0, frame = 0
 1982              		@ frame_needed = 0, uses_anonymous_args = 0
 1983              		.loc 1 614 1 is_stmt 0 view .LVU648
 1984 0000 2DE9F84F 		push	{r3, r4, r5, r6, r7, r8, r9, r10, fp, lr}
 1985              		.cfi_def_cfa_offset 40
 1986              		.cfi_offset 3, -40
 1987              		.cfi_offset 4, -36
 1988              		.cfi_offset 5, -32
 1989              		.cfi_offset 6, -28
 1990              		.cfi_offset 7, -24
 1991              		.cfi_offset 8, -20
 1992              		.cfi_offset 9, -16
 1993              		.cfi_offset 10, -12
 1994              		.cfi_offset 11, -8
 1995              		.cfi_offset 14, -4
 1996 0004 0546     		mov	r5, r0
 1997 0006 0C46     		mov	r4, r1
 1998 0008 9046     		mov	r8, r2
ARM GAS  /var/folders/0z/tsy30v1j4xl4_7kw94k978ww0000gn/T//ccjK6xP1.s 			page 60


 1999 000a 1E46     		mov	r6, r3
 2000 000c 9DF828A0 		ldrb	r10, [sp, #40]	@ zero_extendqisi2
 615:Drivers/lvgl/src/core/lv_indev_scroll.c ****     if(lv_obj_has_flag(scroll_obj, LV_OBJ_FLAG_SCROLL_ELASTIC)) {
 2001              		.loc 1 615 5 is_stmt 1 view .LVU649
 2002              		.loc 1 615 8 is_stmt 0 view .LVU650
 2003 0010 2021     		movs	r1, #32
 2004              	.LVL203:
 2005              		.loc 1 615 8 view .LVU651
 2006 0012 FFF7FEFF 		bl	lv_obj_has_flag
 2007              	.LVL204:
 2008              		.loc 1 615 7 view .LVU652
 2009 0016 0028     		cmp	r0, #0
 2010 0018 00F0C580 		beq	.L134
 2011              	.LBB100:
 616:Drivers/lvgl/src/core/lv_indev_scroll.c ****         /*If there is snapping in the current direction don't use the elastic factor because
 617:Drivers/lvgl/src/core/lv_indev_scroll.c ****          *it's natural that the first and last items are scrolled (snapped) in.*/
 618:Drivers/lvgl/src/core/lv_indev_scroll.c ****         lv_scroll_snap_t snap;
 2012              		.loc 1 618 9 is_stmt 1 view .LVU653
 619:Drivers/lvgl/src/core/lv_indev_scroll.c ****         snap = dir == LV_DIR_HOR ? lv_obj_get_scroll_snap_x(scroll_obj) : lv_obj_get_scroll_snap_y(
 2013              		.loc 1 619 9 view .LVU654
 2014              		.loc 1 619 14 is_stmt 0 view .LVU655
 2015 001c BAF1030F 		cmp	r10, #3
 2016 0020 27D0     		beq	.L161
 2017              		.loc 1 619 75 discriminator 2 view .LVU656
 2018 0022 2846     		mov	r0, r5
 2019 0024 FFF7FEFF 		bl	lv_obj_get_scroll_snap_y
 2020              	.LVL205:
 2021 0028 0746     		mov	r7, r0
 2022              	.L136:
 2023              	.LVL206:
 620:Drivers/lvgl/src/core/lv_indev_scroll.c **** 
 621:Drivers/lvgl/src/core/lv_indev_scroll.c ****         lv_obj_t * act_obj = lv_indev_get_obj_act();
 2024              		.loc 1 621 9 is_stmt 1 discriminator 4 view .LVU657
 2025              		.loc 1 621 30 is_stmt 0 discriminator 4 view .LVU658
 2026 002a FFF7FEFF 		bl	lv_indev_get_obj_act
 2027              	.LVL207:
 2028 002e 8146     		mov	r9, r0
 2029              	.LVL208:
 622:Drivers/lvgl/src/core/lv_indev_scroll.c ****         lv_coord_t snap_point = 0;
 2030              		.loc 1 622 9 is_stmt 1 discriminator 4 view .LVU659
 623:Drivers/lvgl/src/core/lv_indev_scroll.c ****         lv_coord_t act_obj_point = 0;
 2031              		.loc 1 623 9 discriminator 4 view .LVU660
 624:Drivers/lvgl/src/core/lv_indev_scroll.c **** 
 625:Drivers/lvgl/src/core/lv_indev_scroll.c ****         if(dir == LV_DIR_HOR) {
 2032              		.loc 1 625 9 discriminator 4 view .LVU661
 2033              		.loc 1 625 11 is_stmt 0 discriminator 4 view .LVU662
 2034 0030 BAF1030F 		cmp	r10, #3
 2035 0034 22D0     		beq	.L162
 2036              	.LBB101:
 626:Drivers/lvgl/src/core/lv_indev_scroll.c ****             lv_coord_t pad_left = lv_obj_get_style_pad_left(scroll_obj, LV_PART_MAIN);
 627:Drivers/lvgl/src/core/lv_indev_scroll.c ****             lv_coord_t pad_right = lv_obj_get_style_pad_right(scroll_obj, LV_PART_MAIN);
 628:Drivers/lvgl/src/core/lv_indev_scroll.c **** 
 629:Drivers/lvgl/src/core/lv_indev_scroll.c ****             switch(snap) {
 630:Drivers/lvgl/src/core/lv_indev_scroll.c ****                 case LV_SCROLL_SNAP_CENTER:
 631:Drivers/lvgl/src/core/lv_indev_scroll.c ****                     snap_point = pad_left + (lv_area_get_width(&scroll_obj->coords) - pad_left - pa
 632:Drivers/lvgl/src/core/lv_indev_scroll.c ****                     act_obj_point = lv_area_get_width(&act_obj->coords) / 2 + act_obj->coords.x1;
 633:Drivers/lvgl/src/core/lv_indev_scroll.c ****                     break;
ARM GAS  /var/folders/0z/tsy30v1j4xl4_7kw94k978ww0000gn/T//ccjK6xP1.s 			page 61


 634:Drivers/lvgl/src/core/lv_indev_scroll.c ****                 case LV_SCROLL_SNAP_START:
 635:Drivers/lvgl/src/core/lv_indev_scroll.c ****                     snap_point = scroll_obj->coords.x1 + pad_left;
 636:Drivers/lvgl/src/core/lv_indev_scroll.c ****                     act_obj_point = act_obj->coords.x1;
 637:Drivers/lvgl/src/core/lv_indev_scroll.c ****                     break;
 638:Drivers/lvgl/src/core/lv_indev_scroll.c ****                 case LV_SCROLL_SNAP_END:
 639:Drivers/lvgl/src/core/lv_indev_scroll.c ****                     snap_point = scroll_obj->coords.x2 - pad_right;
 640:Drivers/lvgl/src/core/lv_indev_scroll.c ****                     act_obj_point = act_obj->coords.x2;
 641:Drivers/lvgl/src/core/lv_indev_scroll.c ****                     break;
 642:Drivers/lvgl/src/core/lv_indev_scroll.c ****             }
 643:Drivers/lvgl/src/core/lv_indev_scroll.c ****         }
 644:Drivers/lvgl/src/core/lv_indev_scroll.c ****         else {
 645:Drivers/lvgl/src/core/lv_indev_scroll.c ****             lv_coord_t pad_top = lv_obj_get_style_pad_top(scroll_obj, LV_PART_MAIN);
 2037              		.loc 1 645 13 is_stmt 1 view .LVU663
 2038              	.LVL209:
 2039              	.LBB102:
 2040              	.LBI102:
 103:Drivers/lvgl/src/core/lv_obj_style_gen.h **** {
 2041              		.loc 2 103 26 view .LVU664
 2042              	.LBB103:
 105:Drivers/lvgl/src/core/lv_obj_style_gen.h ****     return (lv_coord_t)v.num;
 2043              		.loc 2 105 5 view .LVU665
 105:Drivers/lvgl/src/core/lv_obj_style_gen.h ****     return (lv_coord_t)v.num;
 2044              		.loc 2 105 26 is_stmt 0 view .LVU666
 2045 0036 1022     		movs	r2, #16
 2046 0038 0021     		movs	r1, #0
 2047 003a 2846     		mov	r0, r5
 2048              	.LVL210:
 105:Drivers/lvgl/src/core/lv_obj_style_gen.h ****     return (lv_coord_t)v.num;
 2049              		.loc 2 105 26 view .LVU667
 2050 003c FFF7FEFF 		bl	lv_obj_get_style_prop
 2051              	.LVL211:
 2052 0040 8246     		mov	r10, r0
 106:Drivers/lvgl/src/core/lv_obj_style_gen.h **** }
 2053              		.loc 2 106 5 is_stmt 1 view .LVU668
 106:Drivers/lvgl/src/core/lv_obj_style_gen.h **** }
 2054              		.loc 2 106 12 is_stmt 0 view .LVU669
 2055 0042 0FFA80FB 		sxth	fp, r0
 2056              	.LVL212:
 106:Drivers/lvgl/src/core/lv_obj_style_gen.h **** }
 2057              		.loc 2 106 12 view .LVU670
 2058              	.LBE103:
 2059              	.LBE102:
 646:Drivers/lvgl/src/core/lv_indev_scroll.c ****             lv_coord_t pad_bottom = lv_obj_get_style_pad_bottom(scroll_obj, LV_PART_MAIN);
 2060              		.loc 1 646 13 is_stmt 1 view .LVU671
 2061              	.LBB104:
 2062              	.LBI104:
 109:Drivers/lvgl/src/core/lv_obj_style_gen.h **** {
 2063              		.loc 2 109 26 view .LVU672
 2064              	.LBB105:
 111:Drivers/lvgl/src/core/lv_obj_style_gen.h ****     return (lv_coord_t)v.num;
 2065              		.loc 2 111 5 view .LVU673
 111:Drivers/lvgl/src/core/lv_obj_style_gen.h ****     return (lv_coord_t)v.num;
 2066              		.loc 2 111 26 is_stmt 0 view .LVU674
 2067 0046 1122     		movs	r2, #17
 2068 0048 0021     		movs	r1, #0
 2069 004a 2846     		mov	r0, r5
 2070 004c FFF7FEFF 		bl	lv_obj_get_style_prop
ARM GAS  /var/folders/0z/tsy30v1j4xl4_7kw94k978ww0000gn/T//ccjK6xP1.s 			page 62


 2071              	.LVL213:
 112:Drivers/lvgl/src/core/lv_obj_style_gen.h **** }
 2072              		.loc 2 112 5 is_stmt 1 view .LVU675
 112:Drivers/lvgl/src/core/lv_obj_style_gen.h **** }
 2073              		.loc 2 112 12 is_stmt 0 view .LVU676
 2074 0050 01B2     		sxth	r1, r0
 2075              	.LVL214:
 112:Drivers/lvgl/src/core/lv_obj_style_gen.h **** }
 2076              		.loc 2 112 12 view .LVU677
 2077              	.LBE105:
 2078              	.LBE104:
 647:Drivers/lvgl/src/core/lv_indev_scroll.c **** 
 648:Drivers/lvgl/src/core/lv_indev_scroll.c ****             switch(snap) {
 2079              		.loc 1 648 13 is_stmt 1 view .LVU678
 2080 0052 022F     		cmp	r7, #2
 2081 0054 79D0     		beq	.L142
 2082 0056 032F     		cmp	r7, #3
 2083 0058 52D0     		beq	.L143
 2084 005a 012F     		cmp	r7, #1
 2085 005c 6FD0     		beq	.L144
 2086 005e 0022     		movs	r2, #0
 2087 0060 1346     		mov	r3, r2
 2088              	.LVL215:
 2089              	.L141:
 2090              		.loc 1 648 13 is_stmt 0 view .LVU679
 2091              	.LBE101:
 649:Drivers/lvgl/src/core/lv_indev_scroll.c ****                 case LV_SCROLL_SNAP_CENTER:
 650:Drivers/lvgl/src/core/lv_indev_scroll.c ****                     snap_point = pad_top + (lv_area_get_height(&scroll_obj->coords) - pad_top - pad
 651:Drivers/lvgl/src/core/lv_indev_scroll.c ****                     act_obj_point = lv_area_get_height(&act_obj->coords) / 2 + act_obj->coords.y1;
 652:Drivers/lvgl/src/core/lv_indev_scroll.c ****                     break;
 653:Drivers/lvgl/src/core/lv_indev_scroll.c ****                 case LV_SCROLL_SNAP_START:
 654:Drivers/lvgl/src/core/lv_indev_scroll.c ****                     snap_point = scroll_obj->coords.y1 + pad_top;
 655:Drivers/lvgl/src/core/lv_indev_scroll.c ****                     act_obj_point = act_obj->coords.y1;
 656:Drivers/lvgl/src/core/lv_indev_scroll.c ****                     break;
 657:Drivers/lvgl/src/core/lv_indev_scroll.c ****                 case LV_SCROLL_SNAP_END:
 658:Drivers/lvgl/src/core/lv_indev_scroll.c ****                     snap_point = scroll_obj->coords.y2 - pad_bottom;
 659:Drivers/lvgl/src/core/lv_indev_scroll.c ****                     act_obj_point = act_obj->coords.y2;
 660:Drivers/lvgl/src/core/lv_indev_scroll.c ****                     break;
 661:Drivers/lvgl/src/core/lv_indev_scroll.c ****             }
 662:Drivers/lvgl/src/core/lv_indev_scroll.c ****         }
 663:Drivers/lvgl/src/core/lv_indev_scroll.c **** 
 664:Drivers/lvgl/src/core/lv_indev_scroll.c ****         if(scroll_end < 0) {
 2092              		.loc 1 664 9 is_stmt 1 view .LVU680
 2093              		.loc 1 664 11 is_stmt 0 view .LVU681
 2094 0062 002E     		cmp	r6, #0
 2095 0064 77DB     		blt	.L163
 665:Drivers/lvgl/src/core/lv_indev_scroll.c ****             if(snap != LV_SCROLL_SNAP_NONE && act_obj_point > snap_point) return diff;
 666:Drivers/lvgl/src/core/lv_indev_scroll.c **** 
 667:Drivers/lvgl/src/core/lv_indev_scroll.c ****             /*Rounding*/
 668:Drivers/lvgl/src/core/lv_indev_scroll.c ****             if(diff < 0) diff -= ELASTIC_SLOWNESS_FACTOR / 2;
 669:Drivers/lvgl/src/core/lv_indev_scroll.c ****             if(diff > 0) diff += ELASTIC_SLOWNESS_FACTOR / 2;
 670:Drivers/lvgl/src/core/lv_indev_scroll.c ****             return diff / ELASTIC_SLOWNESS_FACTOR;
 671:Drivers/lvgl/src/core/lv_indev_scroll.c ****         }
 672:Drivers/lvgl/src/core/lv_indev_scroll.c ****         else if(scroll_start < 0) {
 2096              		.loc 1 672 14 is_stmt 1 view .LVU682
 2097              		.loc 1 672 16 is_stmt 0 view .LVU683
 2098 0066 B8F1000F 		cmp	r8, #0
ARM GAS  /var/folders/0z/tsy30v1j4xl4_7kw94k978ww0000gn/T//ccjK6xP1.s 			page 63


 2099 006a C0F28880 		blt	.L164
 2100 006e 2046     		mov	r0, r4
 2101 0070 A0E0     		b	.L147
 2102              	.LVL216:
 2103              	.L161:
 619:Drivers/lvgl/src/core/lv_indev_scroll.c **** 
 2104              		.loc 1 619 36 discriminator 1 view .LVU684
 2105 0072 2846     		mov	r0, r5
 2106 0074 FFF7FEFF 		bl	lv_obj_get_scroll_snap_x
 2107              	.LVL217:
 2108 0078 0746     		mov	r7, r0
 2109 007a D6E7     		b	.L136
 2110              	.LVL218:
 2111              	.L162:
 2112              	.LBB110:
 626:Drivers/lvgl/src/core/lv_indev_scroll.c ****             lv_coord_t pad_right = lv_obj_get_style_pad_right(scroll_obj, LV_PART_MAIN);
 2113              		.loc 1 626 13 is_stmt 1 view .LVU685
 2114              	.LBB111:
 2115              	.LBI111:
 115:Drivers/lvgl/src/core/lv_obj_style_gen.h **** {
 2116              		.loc 2 115 26 view .LVU686
 2117              	.LBB112:
 117:Drivers/lvgl/src/core/lv_obj_style_gen.h ****     return (lv_coord_t)v.num;
 2118              		.loc 2 117 5 view .LVU687
 117:Drivers/lvgl/src/core/lv_obj_style_gen.h ****     return (lv_coord_t)v.num;
 2119              		.loc 2 117 26 is_stmt 0 view .LVU688
 2120 007c 1222     		movs	r2, #18
 2121 007e 0021     		movs	r1, #0
 2122 0080 2846     		mov	r0, r5
 2123              	.LVL219:
 117:Drivers/lvgl/src/core/lv_obj_style_gen.h ****     return (lv_coord_t)v.num;
 2124              		.loc 2 117 26 view .LVU689
 2125 0082 FFF7FEFF 		bl	lv_obj_get_style_prop
 2126              	.LVL220:
 2127 0086 8246     		mov	r10, r0
 118:Drivers/lvgl/src/core/lv_obj_style_gen.h **** }
 2128              		.loc 2 118 5 is_stmt 1 view .LVU690
 118:Drivers/lvgl/src/core/lv_obj_style_gen.h **** }
 2129              		.loc 2 118 12 is_stmt 0 view .LVU691
 2130 0088 0FFA80FB 		sxth	fp, r0
 2131              	.LVL221:
 118:Drivers/lvgl/src/core/lv_obj_style_gen.h **** }
 2132              		.loc 2 118 12 view .LVU692
 2133              	.LBE112:
 2134              	.LBE111:
 627:Drivers/lvgl/src/core/lv_indev_scroll.c **** 
 2135              		.loc 1 627 13 is_stmt 1 view .LVU693
 2136              	.LBB113:
 2137              	.LBI113:
 121:Drivers/lvgl/src/core/lv_obj_style_gen.h **** {
 2138              		.loc 2 121 26 view .LVU694
 2139              	.LBB114:
 123:Drivers/lvgl/src/core/lv_obj_style_gen.h ****     return (lv_coord_t)v.num;
 2140              		.loc 2 123 5 view .LVU695
 123:Drivers/lvgl/src/core/lv_obj_style_gen.h ****     return (lv_coord_t)v.num;
 2141              		.loc 2 123 26 is_stmt 0 view .LVU696
 2142 008c 1322     		movs	r2, #19
ARM GAS  /var/folders/0z/tsy30v1j4xl4_7kw94k978ww0000gn/T//ccjK6xP1.s 			page 64


 2143 008e 0021     		movs	r1, #0
 2144 0090 2846     		mov	r0, r5
 2145 0092 FFF7FEFF 		bl	lv_obj_get_style_prop
 2146              	.LVL222:
 2147              		.loc 2 124 5 is_stmt 1 view .LVU697
 2148              		.loc 2 124 12 is_stmt 0 view .LVU698
 2149 0096 01B2     		sxth	r1, r0
 2150              	.LVL223:
 2151              		.loc 2 124 12 view .LVU699
 2152              	.LBE114:
 2153              	.LBE113:
 629:Drivers/lvgl/src/core/lv_indev_scroll.c ****                 case LV_SCROLL_SNAP_CENTER:
 2154              		.loc 1 629 13 is_stmt 1 view .LVU700
 2155 0098 022F     		cmp	r7, #2
 2156 009a 2BD0     		beq	.L138
 2157 009c 032F     		cmp	r7, #3
 2158 009e 04D0     		beq	.L139
 2159 00a0 012F     		cmp	r7, #1
 2160 00a2 21D0     		beq	.L140
 2161 00a4 0022     		movs	r2, #0
 2162 00a6 1346     		mov	r3, r2
 2163 00a8 DBE7     		b	.L141
 2164              	.L139:
 631:Drivers/lvgl/src/core/lv_indev_scroll.c ****                     act_obj_point = lv_area_get_width(&act_obj->coords) / 2 + act_obj->coords.x1;
 2165              		.loc 1 631 21 view .LVU701
 2166              	.LVL224:
 2167              	.LBB115:
 2168              	.LBI115:
 123:Drivers/lvgl/src/core/../misc/../font/../misc/lv_area.h **** {
 2169              		.loc 3 123 26 view .LVU702
 2170              	.LBB116:
 125:Drivers/lvgl/src/core/../misc/../font/../misc/lv_area.h **** }
 2171              		.loc 3 125 5 view .LVU703
 125:Drivers/lvgl/src/core/../misc/../font/../misc/lv_area.h **** }
 2172              		.loc 3 125 31 is_stmt 0 view .LVU704
 2173 00aa 2B8B     		ldrh	r3, [r5, #24]
 125:Drivers/lvgl/src/core/../misc/../font/../misc/lv_area.h **** }
 2174              		.loc 3 125 44 view .LVU705
 2175 00ac AA8A     		ldrh	r2, [r5, #20]
 125:Drivers/lvgl/src/core/../misc/../font/../misc/lv_area.h **** }
 2176              		.loc 3 125 36 view .LVU706
 2177 00ae 9B1A     		subs	r3, r3, r2
 2178 00b0 9BB2     		uxth	r3, r3
 125:Drivers/lvgl/src/core/../misc/../font/../misc/lv_area.h **** }
 2179              		.loc 3 125 49 view .LVU707
 2180 00b2 0133     		adds	r3, r3, #1
 125:Drivers/lvgl/src/core/../misc/../font/../misc/lv_area.h **** }
 2181              		.loc 3 125 12 view .LVU708
 2182 00b4 1BB2     		sxth	r3, r3
 2183              	.LVL225:
 125:Drivers/lvgl/src/core/../misc/../font/../misc/lv_area.h **** }
 2184              		.loc 3 125 12 view .LVU709
 2185              	.LBE116:
 2186              	.LBE115:
 631:Drivers/lvgl/src/core/lv_indev_scroll.c ****                     act_obj_point = lv_area_get_width(&act_obj->coords) / 2 + act_obj->coords.x1;
 2187              		.loc 1 631 85 view .LVU710
 2188 00b6 A3EB0B03 		sub	r3, r3, fp
ARM GAS  /var/folders/0z/tsy30v1j4xl4_7kw94k978ww0000gn/T//ccjK6xP1.s 			page 65


 631:Drivers/lvgl/src/core/lv_indev_scroll.c ****                     act_obj_point = lv_area_get_width(&act_obj->coords) / 2 + act_obj->coords.x1;
 2189              		.loc 1 631 96 view .LVU711
 2190 00ba 5B1A     		subs	r3, r3, r1
 631:Drivers/lvgl/src/core/lv_indev_scroll.c ****                     act_obj_point = lv_area_get_width(&act_obj->coords) / 2 + act_obj->coords.x1;
 2191              		.loc 1 631 109 view .LVU712
 2192 00bc 03EBD373 		add	r3, r3, r3, lsr #31
 631:Drivers/lvgl/src/core/lv_indev_scroll.c ****                     act_obj_point = lv_area_get_width(&act_obj->coords) / 2 + act_obj->coords.x1;
 2193              		.loc 1 631 43 view .LVU713
 2194 00c0 0AEB6303 		add	r3, r10, r3, asr #1
 631:Drivers/lvgl/src/core/lv_indev_scroll.c ****                     act_obj_point = lv_area_get_width(&act_obj->coords) / 2 + act_obj->coords.x1;
 2195              		.loc 1 631 113 view .LVU714
 2196 00c4 12FA83F3 		uxtah	r3, r2, r3
 631:Drivers/lvgl/src/core/lv_indev_scroll.c ****                     act_obj_point = lv_area_get_width(&act_obj->coords) / 2 + act_obj->coords.x1;
 2197              		.loc 1 631 32 view .LVU715
 2198 00c8 1BB2     		sxth	r3, r3
 2199              	.LVL226:
 632:Drivers/lvgl/src/core/lv_indev_scroll.c ****                     break;
 2200              		.loc 1 632 21 is_stmt 1 view .LVU716
 2201              	.LBB117:
 2202              	.LBI117:
 123:Drivers/lvgl/src/core/../misc/../font/../misc/lv_area.h **** {
 2203              		.loc 3 123 26 view .LVU717
 2204              	.LBB118:
 125:Drivers/lvgl/src/core/../misc/../font/../misc/lv_area.h **** }
 2205              		.loc 3 125 5 view .LVU718
 125:Drivers/lvgl/src/core/../misc/../font/../misc/lv_area.h **** }
 2206              		.loc 3 125 31 is_stmt 0 view .LVU719
 2207 00ca B9F81810 		ldrh	r1, [r9, #24]
 2208              	.LVL227:
 125:Drivers/lvgl/src/core/../misc/../font/../misc/lv_area.h **** }
 2209              		.loc 3 125 44 view .LVU720
 2210 00ce B9F81420 		ldrh	r2, [r9, #20]
 125:Drivers/lvgl/src/core/../misc/../font/../misc/lv_area.h **** }
 2211              		.loc 3 125 36 view .LVU721
 2212 00d2 891A     		subs	r1, r1, r2
 2213 00d4 89B2     		uxth	r1, r1
 125:Drivers/lvgl/src/core/../misc/../font/../misc/lv_area.h **** }
 2214              		.loc 3 125 49 view .LVU722
 2215 00d6 0131     		adds	r1, r1, #1
 2216              	.LVL228:
 125:Drivers/lvgl/src/core/../misc/../font/../misc/lv_area.h **** }
 2217              		.loc 3 125 49 view .LVU723
 2218              	.LBE118:
 2219              	.LBE117:
 632:Drivers/lvgl/src/core/lv_indev_scroll.c ****                     break;
 2220              		.loc 1 632 77 view .LVU724
 2221 00d8 C1F3C030 		ubfx	r0, r1, #15, #1
 2222              	.LVL229:
 632:Drivers/lvgl/src/core/lv_indev_scroll.c ****                     break;
 2223              		.loc 1 632 77 view .LVU725
 2224 00dc 00FA81F1 		sxtah	r1, r0, r1
 2225 00e0 02EB6102 		add	r2, r2, r1, asr #1
 632:Drivers/lvgl/src/core/lv_indev_scroll.c ****                     break;
 2226              		.loc 1 632 35 view .LVU726
 2227 00e4 12B2     		sxth	r2, r2
 2228              	.LVL230:
 633:Drivers/lvgl/src/core/lv_indev_scroll.c ****                 case LV_SCROLL_SNAP_START:
ARM GAS  /var/folders/0z/tsy30v1j4xl4_7kw94k978ww0000gn/T//ccjK6xP1.s 			page 66


 2229              		.loc 1 633 21 is_stmt 1 view .LVU727
 2230 00e6 BCE7     		b	.L141
 2231              	.LVL231:
 2232              	.L140:
 635:Drivers/lvgl/src/core/lv_indev_scroll.c ****                     act_obj_point = act_obj->coords.x1;
 2233              		.loc 1 635 21 view .LVU728
 635:Drivers/lvgl/src/core/lv_indev_scroll.c ****                     act_obj_point = act_obj->coords.x1;
 2234              		.loc 1 635 52 is_stmt 0 view .LVU729
 2235 00e8 AB8A     		ldrh	r3, [r5, #20]
 635:Drivers/lvgl/src/core/lv_indev_scroll.c ****                     act_obj_point = act_obj->coords.x1;
 2236              		.loc 1 635 56 view .LVU730
 2237 00ea 5344     		add	r3, r3, r10
 635:Drivers/lvgl/src/core/lv_indev_scroll.c ****                     act_obj_point = act_obj->coords.x1;
 2238              		.loc 1 635 32 view .LVU731
 2239 00ec 1BB2     		sxth	r3, r3
 2240              	.LVL232:
 636:Drivers/lvgl/src/core/lv_indev_scroll.c ****                     break;
 2241              		.loc 1 636 21 is_stmt 1 view .LVU732
 636:Drivers/lvgl/src/core/lv_indev_scroll.c ****                     break;
 2242              		.loc 1 636 35 is_stmt 0 view .LVU733
 2243 00ee B9F91420 		ldrsh	r2, [r9, #20]
 2244              	.LVL233:
 637:Drivers/lvgl/src/core/lv_indev_scroll.c ****                 case LV_SCROLL_SNAP_END:
 2245              		.loc 1 637 21 is_stmt 1 view .LVU734
 2246 00f2 B6E7     		b	.L141
 2247              	.LVL234:
 2248              	.L138:
 639:Drivers/lvgl/src/core/lv_indev_scroll.c ****                     act_obj_point = act_obj->coords.x2;
 2249              		.loc 1 639 21 view .LVU735
 639:Drivers/lvgl/src/core/lv_indev_scroll.c ****                     act_obj_point = act_obj->coords.x2;
 2250              		.loc 1 639 52 is_stmt 0 view .LVU736
 2251 00f4 2B8B     		ldrh	r3, [r5, #24]
 639:Drivers/lvgl/src/core/lv_indev_scroll.c ****                     act_obj_point = act_obj->coords.x2;
 2252              		.loc 1 639 56 view .LVU737
 2253 00f6 1B1A     		subs	r3, r3, r0
 639:Drivers/lvgl/src/core/lv_indev_scroll.c ****                     act_obj_point = act_obj->coords.x2;
 2254              		.loc 1 639 32 view .LVU738
 2255 00f8 1BB2     		sxth	r3, r3
 2256              	.LVL235:
 640:Drivers/lvgl/src/core/lv_indev_scroll.c ****                     break;
 2257              		.loc 1 640 21 is_stmt 1 view .LVU739
 640:Drivers/lvgl/src/core/lv_indev_scroll.c ****                     break;
 2258              		.loc 1 640 35 is_stmt 0 view .LVU740
 2259 00fa B9F91820 		ldrsh	r2, [r9, #24]
 2260              	.LVL236:
 641:Drivers/lvgl/src/core/lv_indev_scroll.c ****             }
 2261              		.loc 1 641 21 is_stmt 1 view .LVU741
 2262 00fe B0E7     		b	.L141
 2263              	.LVL237:
 2264              	.L143:
 641:Drivers/lvgl/src/core/lv_indev_scroll.c ****             }
 2265              		.loc 1 641 21 is_stmt 0 view .LVU742
 2266              	.LBE110:
 2267              	.LBB119:
 650:Drivers/lvgl/src/core/lv_indev_scroll.c ****                     act_obj_point = lv_area_get_height(&act_obj->coords) / 2 + act_obj->coords.y1;
 2268              		.loc 1 650 21 is_stmt 1 view .LVU743
 2269              	.LBB106:
ARM GAS  /var/folders/0z/tsy30v1j4xl4_7kw94k978ww0000gn/T//ccjK6xP1.s 			page 67


 2270              	.LBI106:
 133:Drivers/lvgl/src/core/../misc/../font/../misc/lv_area.h **** {
 2271              		.loc 3 133 26 view .LVU744
 2272              	.LBB107:
 2273              		.loc 3 135 5 view .LVU745
 2274              		.loc 3 135 31 is_stmt 0 view .LVU746
 2275 0100 6B8B     		ldrh	r3, [r5, #26]
 2276              		.loc 3 135 44 view .LVU747
 2277 0102 EA8A     		ldrh	r2, [r5, #22]
 2278              		.loc 3 135 36 view .LVU748
 2279 0104 9B1A     		subs	r3, r3, r2
 2280 0106 9BB2     		uxth	r3, r3
 2281              		.loc 3 135 49 view .LVU749
 2282 0108 0133     		adds	r3, r3, #1
 2283              		.loc 3 135 12 view .LVU750
 2284 010a 1BB2     		sxth	r3, r3
 2285              	.LVL238:
 2286              		.loc 3 135 12 view .LVU751
 2287              	.LBE107:
 2288              	.LBE106:
 650:Drivers/lvgl/src/core/lv_indev_scroll.c ****                     act_obj_point = lv_area_get_height(&act_obj->coords) / 2 + act_obj->coords.y1;
 2289              		.loc 1 650 85 view .LVU752
 2290 010c A3EB0B03 		sub	r3, r3, fp
 650:Drivers/lvgl/src/core/lv_indev_scroll.c ****                     act_obj_point = lv_area_get_height(&act_obj->coords) / 2 + act_obj->coords.y1;
 2291              		.loc 1 650 95 view .LVU753
 2292 0110 5B1A     		subs	r3, r3, r1
 650:Drivers/lvgl/src/core/lv_indev_scroll.c ****                     act_obj_point = lv_area_get_height(&act_obj->coords) / 2 + act_obj->coords.y1;
 2293              		.loc 1 650 109 view .LVU754
 2294 0112 03EBD373 		add	r3, r3, r3, lsr #31
 650:Drivers/lvgl/src/core/lv_indev_scroll.c ****                     act_obj_point = lv_area_get_height(&act_obj->coords) / 2 + act_obj->coords.y1;
 2295              		.loc 1 650 42 view .LVU755
 2296 0116 0AEB6303 		add	r3, r10, r3, asr #1
 650:Drivers/lvgl/src/core/lv_indev_scroll.c ****                     act_obj_point = lv_area_get_height(&act_obj->coords) / 2 + act_obj->coords.y1;
 2297              		.loc 1 650 113 view .LVU756
 2298 011a 12FA83F3 		uxtah	r3, r2, r3
 650:Drivers/lvgl/src/core/lv_indev_scroll.c ****                     act_obj_point = lv_area_get_height(&act_obj->coords) / 2 + act_obj->coords.y1;
 2299              		.loc 1 650 32 view .LVU757
 2300 011e 1BB2     		sxth	r3, r3
 2301              	.LVL239:
 651:Drivers/lvgl/src/core/lv_indev_scroll.c ****                     break;
 2302              		.loc 1 651 21 is_stmt 1 view .LVU758
 2303              	.LBB108:
 2304              	.LBI108:
 133:Drivers/lvgl/src/core/../misc/../font/../misc/lv_area.h **** {
 2305              		.loc 3 133 26 view .LVU759
 2306              	.LBB109:
 2307              		.loc 3 135 5 view .LVU760
 2308              		.loc 3 135 31 is_stmt 0 view .LVU761
 2309 0120 B9F81A10 		ldrh	r1, [r9, #26]
 2310              	.LVL240:
 2311              		.loc 3 135 44 view .LVU762
 2312 0124 B9F81620 		ldrh	r2, [r9, #22]
 2313              		.loc 3 135 36 view .LVU763
 2314 0128 891A     		subs	r1, r1, r2
 2315 012a 89B2     		uxth	r1, r1
 2316              		.loc 3 135 49 view .LVU764
 2317 012c 0131     		adds	r1, r1, #1
ARM GAS  /var/folders/0z/tsy30v1j4xl4_7kw94k978ww0000gn/T//ccjK6xP1.s 			page 68


 2318              	.LVL241:
 2319              		.loc 3 135 49 view .LVU765
 2320              	.LBE109:
 2321              	.LBE108:
 651:Drivers/lvgl/src/core/lv_indev_scroll.c ****                     break;
 2322              		.loc 1 651 78 view .LVU766
 2323 012e C1F3C030 		ubfx	r0, r1, #15, #1
 2324              	.LVL242:
 651:Drivers/lvgl/src/core/lv_indev_scroll.c ****                     break;
 2325              		.loc 1 651 78 view .LVU767
 2326 0132 00FA81F1 		sxtah	r1, r0, r1
 2327 0136 02EB6102 		add	r2, r2, r1, asr #1
 651:Drivers/lvgl/src/core/lv_indev_scroll.c ****                     break;
 2328              		.loc 1 651 35 view .LVU768
 2329 013a 12B2     		sxth	r2, r2
 2330              	.LVL243:
 652:Drivers/lvgl/src/core/lv_indev_scroll.c ****                 case LV_SCROLL_SNAP_START:
 2331              		.loc 1 652 21 is_stmt 1 view .LVU769
 2332 013c 91E7     		b	.L141
 2333              	.LVL244:
 2334              	.L144:
 654:Drivers/lvgl/src/core/lv_indev_scroll.c ****                     act_obj_point = act_obj->coords.y1;
 2335              		.loc 1 654 21 view .LVU770
 654:Drivers/lvgl/src/core/lv_indev_scroll.c ****                     act_obj_point = act_obj->coords.y1;
 2336              		.loc 1 654 52 is_stmt 0 view .LVU771
 2337 013e EB8A     		ldrh	r3, [r5, #22]
 654:Drivers/lvgl/src/core/lv_indev_scroll.c ****                     act_obj_point = act_obj->coords.y1;
 2338              		.loc 1 654 56 view .LVU772
 2339 0140 5344     		add	r3, r3, r10
 654:Drivers/lvgl/src/core/lv_indev_scroll.c ****                     act_obj_point = act_obj->coords.y1;
 2340              		.loc 1 654 32 view .LVU773
 2341 0142 1BB2     		sxth	r3, r3
 2342              	.LVL245:
 655:Drivers/lvgl/src/core/lv_indev_scroll.c ****                     break;
 2343              		.loc 1 655 21 is_stmt 1 view .LVU774
 655:Drivers/lvgl/src/core/lv_indev_scroll.c ****                     break;
 2344              		.loc 1 655 35 is_stmt 0 view .LVU775
 2345 0144 B9F91620 		ldrsh	r2, [r9, #22]
 2346              	.LVL246:
 656:Drivers/lvgl/src/core/lv_indev_scroll.c ****                 case LV_SCROLL_SNAP_END:
 2347              		.loc 1 656 21 is_stmt 1 view .LVU776
 2348 0148 8BE7     		b	.L141
 2349              	.LVL247:
 2350              	.L142:
 658:Drivers/lvgl/src/core/lv_indev_scroll.c ****                     act_obj_point = act_obj->coords.y2;
 2351              		.loc 1 658 21 view .LVU777
 658:Drivers/lvgl/src/core/lv_indev_scroll.c ****                     act_obj_point = act_obj->coords.y2;
 2352              		.loc 1 658 52 is_stmt 0 view .LVU778
 2353 014a 6B8B     		ldrh	r3, [r5, #26]
 658:Drivers/lvgl/src/core/lv_indev_scroll.c ****                     act_obj_point = act_obj->coords.y2;
 2354              		.loc 1 658 56 view .LVU779
 2355 014c 1B1A     		subs	r3, r3, r0
 658:Drivers/lvgl/src/core/lv_indev_scroll.c ****                     act_obj_point = act_obj->coords.y2;
 2356              		.loc 1 658 32 view .LVU780
 2357 014e 1BB2     		sxth	r3, r3
 2358              	.LVL248:
 659:Drivers/lvgl/src/core/lv_indev_scroll.c ****                     break;
ARM GAS  /var/folders/0z/tsy30v1j4xl4_7kw94k978ww0000gn/T//ccjK6xP1.s 			page 69


 2359              		.loc 1 659 21 is_stmt 1 view .LVU781
 659:Drivers/lvgl/src/core/lv_indev_scroll.c ****                     break;
 2360              		.loc 1 659 35 is_stmt 0 view .LVU782
 2361 0150 B9F91A20 		ldrsh	r2, [r9, #26]
 2362              	.LVL249:
 660:Drivers/lvgl/src/core/lv_indev_scroll.c ****             }
 2363              		.loc 1 660 21 is_stmt 1 view .LVU783
 2364 0154 85E7     		b	.L141
 2365              	.LVL250:
 2366              	.L163:
 660:Drivers/lvgl/src/core/lv_indev_scroll.c ****             }
 2367              		.loc 1 660 21 is_stmt 0 view .LVU784
 2368              	.LBE119:
 665:Drivers/lvgl/src/core/lv_indev_scroll.c **** 
 2369              		.loc 1 665 13 is_stmt 1 view .LVU785
 665:Drivers/lvgl/src/core/lv_indev_scroll.c **** 
 2370              		.loc 1 665 15 is_stmt 0 view .LVU786
 2371 0156 0FB1     		cbz	r7, .L146
 665:Drivers/lvgl/src/core/lv_indev_scroll.c **** 
 2372              		.loc 1 665 44 discriminator 1 view .LVU787
 2373 0158 9342     		cmp	r3, r2
 2374 015a 30DB     		blt	.L156
 2375              	.L146:
 668:Drivers/lvgl/src/core/lv_indev_scroll.c ****             if(diff > 0) diff += ELASTIC_SLOWNESS_FACTOR / 2;
 2376              		.loc 1 668 13 is_stmt 1 view .LVU788
 668:Drivers/lvgl/src/core/lv_indev_scroll.c ****             if(diff > 0) diff += ELASTIC_SLOWNESS_FACTOR / 2;
 2377              		.loc 1 668 15 is_stmt 0 view .LVU789
 2378 015c 002C     		cmp	r4, #0
 2379 015e 09DB     		blt	.L165
 2380              	.LVL251:
 2381              	.L148:
 669:Drivers/lvgl/src/core/lv_indev_scroll.c ****             return diff / ELASTIC_SLOWNESS_FACTOR;
 2382              		.loc 1 669 13 is_stmt 1 view .LVU790
 669:Drivers/lvgl/src/core/lv_indev_scroll.c ****             return diff / ELASTIC_SLOWNESS_FACTOR;
 2383              		.loc 1 669 15 is_stmt 0 view .LVU791
 2384 0160 002C     		cmp	r4, #0
 2385 0162 01DD     		ble	.L149
 669:Drivers/lvgl/src/core/lv_indev_scroll.c ****             return diff / ELASTIC_SLOWNESS_FACTOR;
 2386              		.loc 1 669 26 is_stmt 1 discriminator 1 view .LVU792
 669:Drivers/lvgl/src/core/lv_indev_scroll.c ****             return diff / ELASTIC_SLOWNESS_FACTOR;
 2387              		.loc 1 669 31 is_stmt 0 discriminator 1 view .LVU793
 2388 0164 A01C     		adds	r0, r4, #2
 2389 0166 04B2     		sxth	r4, r0
 2390              	.LVL252:
 2391              	.L149:
 670:Drivers/lvgl/src/core/lv_indev_scroll.c ****         }
 2392              		.loc 1 670 13 is_stmt 1 view .LVU794
 670:Drivers/lvgl/src/core/lv_indev_scroll.c ****         }
 2393              		.loc 1 670 25 is_stmt 0 view .LVU795
 2394 0168 2346     		mov	r3, r4
 2395              	.LVL253:
 670:Drivers/lvgl/src/core/lv_indev_scroll.c ****         }
 2396              		.loc 1 670 25 view .LVU796
 2397 016a 002C     		cmp	r4, #0
 2398 016c 05DB     		blt	.L166
 2399              	.L150:
 670:Drivers/lvgl/src/core/lv_indev_scroll.c ****         }
ARM GAS  /var/folders/0z/tsy30v1j4xl4_7kw94k978ww0000gn/T//ccjK6xP1.s 			page 70


 2400              		.loc 1 670 25 view .LVU797
 2401 016e 43F38F00 		sbfx	r0, r3, #2, #16
 2402 0172 1FE0     		b	.L147
 2403              	.LVL254:
 2404              	.L165:
 668:Drivers/lvgl/src/core/lv_indev_scroll.c ****             if(diff > 0) diff += ELASTIC_SLOWNESS_FACTOR / 2;
 2405              		.loc 1 668 26 is_stmt 1 discriminator 1 view .LVU798
 668:Drivers/lvgl/src/core/lv_indev_scroll.c ****             if(diff > 0) diff += ELASTIC_SLOWNESS_FACTOR / 2;
 2406              		.loc 1 668 31 is_stmt 0 discriminator 1 view .LVU799
 2407 0174 A01E     		subs	r0, r4, #2
 2408 0176 04B2     		sxth	r4, r0
 2409              	.LVL255:
 668:Drivers/lvgl/src/core/lv_indev_scroll.c ****             if(diff > 0) diff += ELASTIC_SLOWNESS_FACTOR / 2;
 2410              		.loc 1 668 31 discriminator 1 view .LVU800
 2411 0178 F2E7     		b	.L148
 2412              	.LVL256:
 2413              	.L166:
 670:Drivers/lvgl/src/core/lv_indev_scroll.c ****         }
 2414              		.loc 1 670 25 view .LVU801
 2415 017a E31C     		adds	r3, r4, #3
 2416 017c F7E7     		b	.L150
 2417              	.LVL257:
 2418              	.L164:
 673:Drivers/lvgl/src/core/lv_indev_scroll.c ****             if(snap != LV_SCROLL_SNAP_NONE && act_obj_point < snap_point) return diff;
 2419              		.loc 1 673 13 is_stmt 1 view .LVU802
 2420              		.loc 1 673 15 is_stmt 0 view .LVU803
 2421 017e 0FB1     		cbz	r7, .L151
 2422              		.loc 1 673 44 discriminator 1 view .LVU804
 2423 0180 9342     		cmp	r3, r2
 2424 0182 1EDC     		bgt	.L158
 2425              	.L151:
 674:Drivers/lvgl/src/core/lv_indev_scroll.c **** 
 675:Drivers/lvgl/src/core/lv_indev_scroll.c ****             /*Rounding*/
 676:Drivers/lvgl/src/core/lv_indev_scroll.c ****             if(diff < 0) diff -= ELASTIC_SLOWNESS_FACTOR / 2;
 2426              		.loc 1 676 13 is_stmt 1 view .LVU805
 2427              		.loc 1 676 15 is_stmt 0 view .LVU806
 2428 0184 002C     		cmp	r4, #0
 2429 0186 09DB     		blt	.L167
 2430              	.LVL258:
 2431              	.L152:
 677:Drivers/lvgl/src/core/lv_indev_scroll.c ****             if(diff > 0) diff += ELASTIC_SLOWNESS_FACTOR / 2;
 2432              		.loc 1 677 13 is_stmt 1 view .LVU807
 2433              		.loc 1 677 15 is_stmt 0 view .LVU808
 2434 0188 002C     		cmp	r4, #0
 2435 018a 01DD     		ble	.L153
 2436              		.loc 1 677 26 is_stmt 1 discriminator 1 view .LVU809
 2437              		.loc 1 677 31 is_stmt 0 discriminator 1 view .LVU810
 2438 018c A01C     		adds	r0, r4, #2
 2439 018e 04B2     		sxth	r4, r0
 2440              	.LVL259:
 2441              	.L153:
 678:Drivers/lvgl/src/core/lv_indev_scroll.c ****             return diff / ELASTIC_SLOWNESS_FACTOR;
 2442              		.loc 1 678 13 is_stmt 1 view .LVU811
 2443              		.loc 1 678 25 is_stmt 0 view .LVU812
 2444 0190 2346     		mov	r3, r4
 2445              	.LVL260:
 2446              		.loc 1 678 25 view .LVU813
ARM GAS  /var/folders/0z/tsy30v1j4xl4_7kw94k978ww0000gn/T//ccjK6xP1.s 			page 71


 2447 0192 002C     		cmp	r4, #0
 2448 0194 05DB     		blt	.L168
 2449              	.L154:
 2450              		.loc 1 678 25 view .LVU814
 2451 0196 43F38F00 		sbfx	r0, r3, #2, #16
 2452 019a 0BE0     		b	.L147
 2453              	.LVL261:
 2454              	.L167:
 676:Drivers/lvgl/src/core/lv_indev_scroll.c ****             if(diff > 0) diff += ELASTIC_SLOWNESS_FACTOR / 2;
 2455              		.loc 1 676 26 is_stmt 1 discriminator 1 view .LVU815
 676:Drivers/lvgl/src/core/lv_indev_scroll.c ****             if(diff > 0) diff += ELASTIC_SLOWNESS_FACTOR / 2;
 2456              		.loc 1 676 31 is_stmt 0 discriminator 1 view .LVU816
 2457 019c A01E     		subs	r0, r4, #2
 2458 019e 04B2     		sxth	r4, r0
 2459              	.LVL262:
 676:Drivers/lvgl/src/core/lv_indev_scroll.c ****             if(diff > 0) diff += ELASTIC_SLOWNESS_FACTOR / 2;
 2460              		.loc 1 676 31 discriminator 1 view .LVU817
 2461 01a0 F2E7     		b	.L152
 2462              	.LVL263:
 2463              	.L168:
 2464              		.loc 1 678 25 view .LVU818
 2465 01a2 E31C     		adds	r3, r4, #3
 2466 01a4 F7E7     		b	.L154
 2467              	.LVL264:
 2468              	.L134:
 2469              		.loc 1 678 25 view .LVU819
 2470              	.LBE100:
 679:Drivers/lvgl/src/core/lv_indev_scroll.c ****         }
 680:Drivers/lvgl/src/core/lv_indev_scroll.c ****     }
 681:Drivers/lvgl/src/core/lv_indev_scroll.c ****     else {
 682:Drivers/lvgl/src/core/lv_indev_scroll.c ****         /*Scroll back to the boundary if required*/
 683:Drivers/lvgl/src/core/lv_indev_scroll.c ****         if(scroll_end + diff < 0) diff = - scroll_end;
 2471              		.loc 1 683 9 is_stmt 1 view .LVU820
 2472              		.loc 1 683 11 is_stmt 0 view .LVU821
 2473 01a6 E642     		cmn	r6, r4
 2474 01a8 06D4     		bmi	.L169
 2475              	.LVL265:
 2476              	.L155:
 684:Drivers/lvgl/src/core/lv_indev_scroll.c ****         if(scroll_start - diff < 0) diff = scroll_start;
 2477              		.loc 1 684 9 is_stmt 1 view .LVU822
 2478              		.loc 1 684 25 is_stmt 0 view .LVU823
 2479 01aa A8EB0403 		sub	r3, r8, r4
 2480              		.loc 1 684 11 view .LVU824
 2481 01ae 002B     		cmp	r3, #0
 2482 01b0 09DB     		blt	.L159
 2483 01b2 2046     		mov	r0, r4
 2484              	.LVL266:
 2485              	.L147:
 685:Drivers/lvgl/src/core/lv_indev_scroll.c ****     }
 686:Drivers/lvgl/src/core/lv_indev_scroll.c **** 
 687:Drivers/lvgl/src/core/lv_indev_scroll.c ****     return diff;
 688:Drivers/lvgl/src/core/lv_indev_scroll.c **** }
 2486              		.loc 1 688 1 view .LVU825
 2487 01b4 BDE8F88F 		pop	{r3, r4, r5, r6, r7, r8, r9, r10, fp, pc}
 2488              	.LVL267:
 2489              	.L169:
 683:Drivers/lvgl/src/core/lv_indev_scroll.c ****         if(scroll_start - diff < 0) diff = scroll_start;
ARM GAS  /var/folders/0z/tsy30v1j4xl4_7kw94k978ww0000gn/T//ccjK6xP1.s 			page 72


 2490              		.loc 1 683 35 is_stmt 1 discriminator 1 view .LVU826
 683:Drivers/lvgl/src/core/lv_indev_scroll.c ****         if(scroll_start - diff < 0) diff = scroll_start;
 2491              		.loc 1 683 40 is_stmt 0 discriminator 1 view .LVU827
 2492 01b8 7642     		rsbs	r6, r6, #0
 2493 01ba 34B2     		sxth	r4, r6
 2494              	.LVL268:
 683:Drivers/lvgl/src/core/lv_indev_scroll.c ****         if(scroll_start - diff < 0) diff = scroll_start;
 2495              		.loc 1 683 40 discriminator 1 view .LVU828
 2496 01bc F5E7     		b	.L155
 2497              	.LVL269:
 2498              	.L156:
 2499              	.LBB120:
 665:Drivers/lvgl/src/core/lv_indev_scroll.c **** 
 2500              		.loc 1 665 82 view .LVU829
 2501 01be 2046     		mov	r0, r4
 2502 01c0 F8E7     		b	.L147
 2503              	.L158:
 673:Drivers/lvgl/src/core/lv_indev_scroll.c **** 
 2504              		.loc 1 673 82 view .LVU830
 2505 01c2 2046     		mov	r0, r4
 2506 01c4 F6E7     		b	.L147
 2507              	.LVL270:
 2508              	.L159:
 673:Drivers/lvgl/src/core/lv_indev_scroll.c **** 
 2509              		.loc 1 673 82 view .LVU831
 2510              	.LBE120:
 684:Drivers/lvgl/src/core/lv_indev_scroll.c ****     }
 2511              		.loc 1 684 42 view .LVU832
 2512 01c6 4046     		mov	r0, r8
 2513 01c8 F4E7     		b	.L147
 2514              		.cfi_endproc
 2515              	.LFE172:
 2517              		.section	.text._lv_indev_scroll_handler,"ax",%progbits
 2518              		.align	1
 2519              		.global	_lv_indev_scroll_handler
 2520              		.syntax unified
 2521              		.thumb
 2522              		.thumb_func
 2524              	_lv_indev_scroll_handler:
 2525              	.LVL271:
 2526              	.LFB161:
  47:Drivers/lvgl/src/core/lv_indev_scroll.c ****     if(proc->types.pointer.vect.x == 0 && proc->types.pointer.vect.y == 0) {
 2527              		.loc 1 47 1 is_stmt 1 view -0
 2528              		.cfi_startproc
 2529              		@ args = 0, pretend = 0, frame = 8
 2530              		@ frame_needed = 0, uses_anonymous_args = 0
  48:Drivers/lvgl/src/core/lv_indev_scroll.c ****         return;
