ARM GAS  /var/folders/0z/tsy30v1j4xl4_7kw94k978ww0000gn/T//ccWYDXZi.s 			page 1


   1              		.cpu cortex-m4
   2              		.arch armv7e-m
   3              		.fpu fpv4-sp-d16
   4              		.eabi_attribute 27, 1
   5              		.eabi_attribute 28, 1
   6              		.eabi_attribute 20, 1
   7              		.eabi_attribute 21, 1
   8              		.eabi_attribute 23, 3
   9              		.eabi_attribute 24, 1
  10              		.eabi_attribute 25, 1
  11              		.eabi_attribute 26, 1
  12              		.eabi_attribute 30, 1
  13              		.eabi_attribute 34, 1
  14              		.eabi_attribute 18, 4
  15              		.file	"lv_imgbtn.c"
  16              		.text
  17              	.Ltext0:
  18              		.cfi_sections	.debug_frame
  19              		.section	.text.suggest_state,"ax",%progbits
  20              		.align	1
  21              		.syntax unified
  22              		.thumb
  23              		.thumb_func
  25              	suggest_state:
  26              	.LVL0:
  27              	.LFB214:
  28              		.file 1 "Drivers/lvgl/src/extra/widgets/imgbtn/lv_imgbtn.c"
   1:Drivers/lvgl/src/extra/widgets/imgbtn/lv_imgbtn.c **** /**
   2:Drivers/lvgl/src/extra/widgets/imgbtn/lv_imgbtn.c ****  * @file lv_imgbtn.c
   3:Drivers/lvgl/src/extra/widgets/imgbtn/lv_imgbtn.c ****  *
   4:Drivers/lvgl/src/extra/widgets/imgbtn/lv_imgbtn.c ****  */
   5:Drivers/lvgl/src/extra/widgets/imgbtn/lv_imgbtn.c **** 
   6:Drivers/lvgl/src/extra/widgets/imgbtn/lv_imgbtn.c **** /*********************
   7:Drivers/lvgl/src/extra/widgets/imgbtn/lv_imgbtn.c ****  *      INCLUDES
   8:Drivers/lvgl/src/extra/widgets/imgbtn/lv_imgbtn.c ****  *********************/
   9:Drivers/lvgl/src/extra/widgets/imgbtn/lv_imgbtn.c **** 
  10:Drivers/lvgl/src/extra/widgets/imgbtn/lv_imgbtn.c **** #include "lv_imgbtn.h"
  11:Drivers/lvgl/src/extra/widgets/imgbtn/lv_imgbtn.c **** 
  12:Drivers/lvgl/src/extra/widgets/imgbtn/lv_imgbtn.c **** #if LV_USE_IMGBTN != 0
  13:Drivers/lvgl/src/extra/widgets/imgbtn/lv_imgbtn.c **** 
  14:Drivers/lvgl/src/extra/widgets/imgbtn/lv_imgbtn.c **** /*********************
  15:Drivers/lvgl/src/extra/widgets/imgbtn/lv_imgbtn.c ****  *      DEFINES
  16:Drivers/lvgl/src/extra/widgets/imgbtn/lv_imgbtn.c ****  *********************/
  17:Drivers/lvgl/src/extra/widgets/imgbtn/lv_imgbtn.c **** #define MY_CLASS &lv_imgbtn_class
  18:Drivers/lvgl/src/extra/widgets/imgbtn/lv_imgbtn.c **** 
  19:Drivers/lvgl/src/extra/widgets/imgbtn/lv_imgbtn.c **** /**********************
  20:Drivers/lvgl/src/extra/widgets/imgbtn/lv_imgbtn.c ****  *      TYPEDEFS
  21:Drivers/lvgl/src/extra/widgets/imgbtn/lv_imgbtn.c ****  **********************/
  22:Drivers/lvgl/src/extra/widgets/imgbtn/lv_imgbtn.c **** 
  23:Drivers/lvgl/src/extra/widgets/imgbtn/lv_imgbtn.c **** /**********************
  24:Drivers/lvgl/src/extra/widgets/imgbtn/lv_imgbtn.c ****  *  STATIC PROTOTYPES
  25:Drivers/lvgl/src/extra/widgets/imgbtn/lv_imgbtn.c ****  **********************/
  26:Drivers/lvgl/src/extra/widgets/imgbtn/lv_imgbtn.c **** static void lv_imgbtn_constructor(const lv_obj_class_t * class_p, lv_obj_t * obj);
  27:Drivers/lvgl/src/extra/widgets/imgbtn/lv_imgbtn.c **** static void draw_main(lv_event_t * e);
  28:Drivers/lvgl/src/extra/widgets/imgbtn/lv_imgbtn.c **** static void lv_imgbtn_event(const lv_obj_class_t * class_p, lv_event_t * e);
  29:Drivers/lvgl/src/extra/widgets/imgbtn/lv_imgbtn.c **** static void refr_img(lv_obj_t * imgbtn);
  30:Drivers/lvgl/src/extra/widgets/imgbtn/lv_imgbtn.c **** static lv_imgbtn_state_t suggest_state(lv_obj_t * imgbtn, lv_imgbtn_state_t state);
ARM GAS  /var/folders/0z/tsy30v1j4xl4_7kw94k978ww0000gn/T//ccWYDXZi.s 			page 2


  31:Drivers/lvgl/src/extra/widgets/imgbtn/lv_imgbtn.c **** lv_imgbtn_state_t get_state(const lv_obj_t * imgbtn);
  32:Drivers/lvgl/src/extra/widgets/imgbtn/lv_imgbtn.c **** 
  33:Drivers/lvgl/src/extra/widgets/imgbtn/lv_imgbtn.c **** /**********************
  34:Drivers/lvgl/src/extra/widgets/imgbtn/lv_imgbtn.c ****  *  STATIC VARIABLES
  35:Drivers/lvgl/src/extra/widgets/imgbtn/lv_imgbtn.c ****  **********************/
  36:Drivers/lvgl/src/extra/widgets/imgbtn/lv_imgbtn.c **** const lv_obj_class_t lv_imgbtn_class = {
  37:Drivers/lvgl/src/extra/widgets/imgbtn/lv_imgbtn.c ****     .base_class = &lv_obj_class,
  38:Drivers/lvgl/src/extra/widgets/imgbtn/lv_imgbtn.c ****     .instance_size = sizeof(lv_imgbtn_t),
  39:Drivers/lvgl/src/extra/widgets/imgbtn/lv_imgbtn.c ****     .constructor_cb = lv_imgbtn_constructor,
  40:Drivers/lvgl/src/extra/widgets/imgbtn/lv_imgbtn.c ****     .event_cb = lv_imgbtn_event,
  41:Drivers/lvgl/src/extra/widgets/imgbtn/lv_imgbtn.c **** };
  42:Drivers/lvgl/src/extra/widgets/imgbtn/lv_imgbtn.c **** 
  43:Drivers/lvgl/src/extra/widgets/imgbtn/lv_imgbtn.c **** /**********************
  44:Drivers/lvgl/src/extra/widgets/imgbtn/lv_imgbtn.c ****  *      MACROS
  45:Drivers/lvgl/src/extra/widgets/imgbtn/lv_imgbtn.c ****  **********************/
  46:Drivers/lvgl/src/extra/widgets/imgbtn/lv_imgbtn.c **** 
  47:Drivers/lvgl/src/extra/widgets/imgbtn/lv_imgbtn.c **** /**********************
  48:Drivers/lvgl/src/extra/widgets/imgbtn/lv_imgbtn.c ****  *   GLOBAL FUNCTIONS
  49:Drivers/lvgl/src/extra/widgets/imgbtn/lv_imgbtn.c ****  **********************/
  50:Drivers/lvgl/src/extra/widgets/imgbtn/lv_imgbtn.c **** 
  51:Drivers/lvgl/src/extra/widgets/imgbtn/lv_imgbtn.c **** /**
  52:Drivers/lvgl/src/extra/widgets/imgbtn/lv_imgbtn.c ****  * Create an image button object
  53:Drivers/lvgl/src/extra/widgets/imgbtn/lv_imgbtn.c ****  * @param parent pointer to an object, it will be the parent of the new image button
  54:Drivers/lvgl/src/extra/widgets/imgbtn/lv_imgbtn.c ****  * @return pointer to the created image button
  55:Drivers/lvgl/src/extra/widgets/imgbtn/lv_imgbtn.c ****  */
  56:Drivers/lvgl/src/extra/widgets/imgbtn/lv_imgbtn.c **** lv_obj_t * lv_imgbtn_create(lv_obj_t * parent)
  57:Drivers/lvgl/src/extra/widgets/imgbtn/lv_imgbtn.c **** {
  58:Drivers/lvgl/src/extra/widgets/imgbtn/lv_imgbtn.c ****     LV_LOG_INFO("begin");
  59:Drivers/lvgl/src/extra/widgets/imgbtn/lv_imgbtn.c ****     lv_obj_t * obj = lv_obj_class_create_obj(MY_CLASS, parent);
  60:Drivers/lvgl/src/extra/widgets/imgbtn/lv_imgbtn.c ****     lv_obj_class_init_obj(obj);
  61:Drivers/lvgl/src/extra/widgets/imgbtn/lv_imgbtn.c ****     return obj;
  62:Drivers/lvgl/src/extra/widgets/imgbtn/lv_imgbtn.c **** }
  63:Drivers/lvgl/src/extra/widgets/imgbtn/lv_imgbtn.c **** 
  64:Drivers/lvgl/src/extra/widgets/imgbtn/lv_imgbtn.c **** /*=====================
  65:Drivers/lvgl/src/extra/widgets/imgbtn/lv_imgbtn.c ****  * Setter functions
  66:Drivers/lvgl/src/extra/widgets/imgbtn/lv_imgbtn.c ****  *====================*/
  67:Drivers/lvgl/src/extra/widgets/imgbtn/lv_imgbtn.c **** 
  68:Drivers/lvgl/src/extra/widgets/imgbtn/lv_imgbtn.c **** /**
  69:Drivers/lvgl/src/extra/widgets/imgbtn/lv_imgbtn.c ****  * Set images for a state of the image button
  70:Drivers/lvgl/src/extra/widgets/imgbtn/lv_imgbtn.c ****  * @param obj pointer to an image button object
  71:Drivers/lvgl/src/extra/widgets/imgbtn/lv_imgbtn.c ****  * @param state for which state set the new image
  72:Drivers/lvgl/src/extra/widgets/imgbtn/lv_imgbtn.c ****  * @param src_left pointer to an image source for the left side of the button (a C array or path to
  73:Drivers/lvgl/src/extra/widgets/imgbtn/lv_imgbtn.c ****  * a file)
  74:Drivers/lvgl/src/extra/widgets/imgbtn/lv_imgbtn.c ****  * @param src_mid pointer to an image source for the middle of the button (ideally 1px wide) (a C
  75:Drivers/lvgl/src/extra/widgets/imgbtn/lv_imgbtn.c ****  * array or path to a file)
  76:Drivers/lvgl/src/extra/widgets/imgbtn/lv_imgbtn.c ****  * @param src_right pointer to an image source for the right side of the button (a C array or path
  77:Drivers/lvgl/src/extra/widgets/imgbtn/lv_imgbtn.c ****  * to a file)
  78:Drivers/lvgl/src/extra/widgets/imgbtn/lv_imgbtn.c ****  */
  79:Drivers/lvgl/src/extra/widgets/imgbtn/lv_imgbtn.c **** void lv_imgbtn_set_src(lv_obj_t * obj, lv_imgbtn_state_t state, const void * src_left, const void *
  80:Drivers/lvgl/src/extra/widgets/imgbtn/lv_imgbtn.c ****                        const void * src_right)
  81:Drivers/lvgl/src/extra/widgets/imgbtn/lv_imgbtn.c **** {
  82:Drivers/lvgl/src/extra/widgets/imgbtn/lv_imgbtn.c ****     LV_ASSERT_OBJ(obj, MY_CLASS);
  83:Drivers/lvgl/src/extra/widgets/imgbtn/lv_imgbtn.c **** 
  84:Drivers/lvgl/src/extra/widgets/imgbtn/lv_imgbtn.c ****     lv_imgbtn_t * imgbtn = (lv_imgbtn_t *)obj;
  85:Drivers/lvgl/src/extra/widgets/imgbtn/lv_imgbtn.c **** 
  86:Drivers/lvgl/src/extra/widgets/imgbtn/lv_imgbtn.c ****     imgbtn->img_src_left[state] = src_left;
  87:Drivers/lvgl/src/extra/widgets/imgbtn/lv_imgbtn.c ****     imgbtn->img_src_mid[state] = src_mid;
ARM GAS  /var/folders/0z/tsy30v1j4xl4_7kw94k978ww0000gn/T//ccWYDXZi.s 			page 3


  88:Drivers/lvgl/src/extra/widgets/imgbtn/lv_imgbtn.c ****     imgbtn->img_src_right[state] = src_right;
  89:Drivers/lvgl/src/extra/widgets/imgbtn/lv_imgbtn.c **** 
  90:Drivers/lvgl/src/extra/widgets/imgbtn/lv_imgbtn.c ****     refr_img(obj);
  91:Drivers/lvgl/src/extra/widgets/imgbtn/lv_imgbtn.c **** }
  92:Drivers/lvgl/src/extra/widgets/imgbtn/lv_imgbtn.c **** 
  93:Drivers/lvgl/src/extra/widgets/imgbtn/lv_imgbtn.c **** void lv_imgbtn_set_state(lv_obj_t * obj, lv_imgbtn_state_t state)
  94:Drivers/lvgl/src/extra/widgets/imgbtn/lv_imgbtn.c **** {
  95:Drivers/lvgl/src/extra/widgets/imgbtn/lv_imgbtn.c ****     LV_ASSERT_OBJ(obj, MY_CLASS);
  96:Drivers/lvgl/src/extra/widgets/imgbtn/lv_imgbtn.c **** 
  97:Drivers/lvgl/src/extra/widgets/imgbtn/lv_imgbtn.c ****     lv_state_t obj_state = LV_STATE_DEFAULT;
  98:Drivers/lvgl/src/extra/widgets/imgbtn/lv_imgbtn.c ****     if(state == LV_IMGBTN_STATE_PRESSED || state == LV_IMGBTN_STATE_CHECKED_PRESSED) obj_state |= L
  99:Drivers/lvgl/src/extra/widgets/imgbtn/lv_imgbtn.c ****     if(state == LV_IMGBTN_STATE_DISABLED || state == LV_IMGBTN_STATE_CHECKED_DISABLED) obj_state |=
 100:Drivers/lvgl/src/extra/widgets/imgbtn/lv_imgbtn.c ****     if(state == LV_IMGBTN_STATE_CHECKED_DISABLED || state == LV_IMGBTN_STATE_CHECKED_PRESSED ||
 101:Drivers/lvgl/src/extra/widgets/imgbtn/lv_imgbtn.c ****        state == LV_IMGBTN_STATE_CHECKED_RELEASED) {
 102:Drivers/lvgl/src/extra/widgets/imgbtn/lv_imgbtn.c ****         obj_state |= LV_STATE_CHECKED;
 103:Drivers/lvgl/src/extra/widgets/imgbtn/lv_imgbtn.c ****     }
 104:Drivers/lvgl/src/extra/widgets/imgbtn/lv_imgbtn.c **** 
 105:Drivers/lvgl/src/extra/widgets/imgbtn/lv_imgbtn.c ****     lv_obj_clear_state(obj, LV_STATE_CHECKED | LV_STATE_PRESSED | LV_STATE_DISABLED);
 106:Drivers/lvgl/src/extra/widgets/imgbtn/lv_imgbtn.c ****     lv_obj_add_state(obj, obj_state);
 107:Drivers/lvgl/src/extra/widgets/imgbtn/lv_imgbtn.c **** 
 108:Drivers/lvgl/src/extra/widgets/imgbtn/lv_imgbtn.c ****     refr_img(obj);
 109:Drivers/lvgl/src/extra/widgets/imgbtn/lv_imgbtn.c **** }
 110:Drivers/lvgl/src/extra/widgets/imgbtn/lv_imgbtn.c **** 
 111:Drivers/lvgl/src/extra/widgets/imgbtn/lv_imgbtn.c **** /*=====================
 112:Drivers/lvgl/src/extra/widgets/imgbtn/lv_imgbtn.c ****  * Getter functions
 113:Drivers/lvgl/src/extra/widgets/imgbtn/lv_imgbtn.c ****  *====================*/
 114:Drivers/lvgl/src/extra/widgets/imgbtn/lv_imgbtn.c **** 
 115:Drivers/lvgl/src/extra/widgets/imgbtn/lv_imgbtn.c **** 
 116:Drivers/lvgl/src/extra/widgets/imgbtn/lv_imgbtn.c **** /**
 117:Drivers/lvgl/src/extra/widgets/imgbtn/lv_imgbtn.c ****  * Get the left image in a given state
 118:Drivers/lvgl/src/extra/widgets/imgbtn/lv_imgbtn.c ****  * @param obj pointer to an image button object
 119:Drivers/lvgl/src/extra/widgets/imgbtn/lv_imgbtn.c ****  * @param state the state where to get the image (from `lv_btn_state_t`) `
 120:Drivers/lvgl/src/extra/widgets/imgbtn/lv_imgbtn.c ****  * @return pointer to the left image source (a C array or path to a file)
 121:Drivers/lvgl/src/extra/widgets/imgbtn/lv_imgbtn.c ****  */
 122:Drivers/lvgl/src/extra/widgets/imgbtn/lv_imgbtn.c **** const void * lv_imgbtn_get_src_left(lv_obj_t * obj, lv_imgbtn_state_t state)
 123:Drivers/lvgl/src/extra/widgets/imgbtn/lv_imgbtn.c **** {
 124:Drivers/lvgl/src/extra/widgets/imgbtn/lv_imgbtn.c ****     LV_ASSERT_OBJ(obj, MY_CLASS);
 125:Drivers/lvgl/src/extra/widgets/imgbtn/lv_imgbtn.c **** 
 126:Drivers/lvgl/src/extra/widgets/imgbtn/lv_imgbtn.c ****     lv_imgbtn_t * imgbtn = (lv_imgbtn_t *)obj;
 127:Drivers/lvgl/src/extra/widgets/imgbtn/lv_imgbtn.c **** 
 128:Drivers/lvgl/src/extra/widgets/imgbtn/lv_imgbtn.c ****     return imgbtn->img_src_left[state];
 129:Drivers/lvgl/src/extra/widgets/imgbtn/lv_imgbtn.c **** }
 130:Drivers/lvgl/src/extra/widgets/imgbtn/lv_imgbtn.c **** 
 131:Drivers/lvgl/src/extra/widgets/imgbtn/lv_imgbtn.c **** /**
 132:Drivers/lvgl/src/extra/widgets/imgbtn/lv_imgbtn.c ****  * Get the middle image in a given state
 133:Drivers/lvgl/src/extra/widgets/imgbtn/lv_imgbtn.c ****  * @param obj pointer to an image button object
 134:Drivers/lvgl/src/extra/widgets/imgbtn/lv_imgbtn.c ****  * @param state the state where to get the image (from `lv_btn_state_t`) `
 135:Drivers/lvgl/src/extra/widgets/imgbtn/lv_imgbtn.c ****  * @return pointer to the middle image source (a C array or path to a file)
 136:Drivers/lvgl/src/extra/widgets/imgbtn/lv_imgbtn.c ****  */
 137:Drivers/lvgl/src/extra/widgets/imgbtn/lv_imgbtn.c **** const void * lv_imgbtn_get_src_middle(lv_obj_t * obj, lv_imgbtn_state_t state)
 138:Drivers/lvgl/src/extra/widgets/imgbtn/lv_imgbtn.c **** {
 139:Drivers/lvgl/src/extra/widgets/imgbtn/lv_imgbtn.c ****     LV_ASSERT_OBJ(obj, MY_CLASS);
 140:Drivers/lvgl/src/extra/widgets/imgbtn/lv_imgbtn.c ****     lv_imgbtn_t * imgbtn = (lv_imgbtn_t *)obj;
 141:Drivers/lvgl/src/extra/widgets/imgbtn/lv_imgbtn.c **** 
 142:Drivers/lvgl/src/extra/widgets/imgbtn/lv_imgbtn.c ****     return imgbtn->img_src_mid[state];
 143:Drivers/lvgl/src/extra/widgets/imgbtn/lv_imgbtn.c **** }
 144:Drivers/lvgl/src/extra/widgets/imgbtn/lv_imgbtn.c **** 
ARM GAS  /var/folders/0z/tsy30v1j4xl4_7kw94k978ww0000gn/T//ccWYDXZi.s 			page 4


 145:Drivers/lvgl/src/extra/widgets/imgbtn/lv_imgbtn.c **** /**
 146:Drivers/lvgl/src/extra/widgets/imgbtn/lv_imgbtn.c ****  * Get the right image in a given state
 147:Drivers/lvgl/src/extra/widgets/imgbtn/lv_imgbtn.c ****  * @param obj pointer to an image button object
 148:Drivers/lvgl/src/extra/widgets/imgbtn/lv_imgbtn.c ****  * @param state the state where to get the image (from `lv_btn_state_t`) `
 149:Drivers/lvgl/src/extra/widgets/imgbtn/lv_imgbtn.c ****  * @return pointer to the left image source (a C array or path to a file)
 150:Drivers/lvgl/src/extra/widgets/imgbtn/lv_imgbtn.c ****  */
 151:Drivers/lvgl/src/extra/widgets/imgbtn/lv_imgbtn.c **** const void * lv_imgbtn_get_src_right(lv_obj_t * obj, lv_imgbtn_state_t state)
 152:Drivers/lvgl/src/extra/widgets/imgbtn/lv_imgbtn.c **** {
 153:Drivers/lvgl/src/extra/widgets/imgbtn/lv_imgbtn.c ****     LV_ASSERT_OBJ(obj, MY_CLASS);
 154:Drivers/lvgl/src/extra/widgets/imgbtn/lv_imgbtn.c ****     lv_imgbtn_t * imgbtn = (lv_imgbtn_t *)obj;
 155:Drivers/lvgl/src/extra/widgets/imgbtn/lv_imgbtn.c **** 
 156:Drivers/lvgl/src/extra/widgets/imgbtn/lv_imgbtn.c ****     return imgbtn->img_src_right[state];
 157:Drivers/lvgl/src/extra/widgets/imgbtn/lv_imgbtn.c **** }
 158:Drivers/lvgl/src/extra/widgets/imgbtn/lv_imgbtn.c **** 
 159:Drivers/lvgl/src/extra/widgets/imgbtn/lv_imgbtn.c **** 
 160:Drivers/lvgl/src/extra/widgets/imgbtn/lv_imgbtn.c **** /**********************
 161:Drivers/lvgl/src/extra/widgets/imgbtn/lv_imgbtn.c ****  *   STATIC FUNCTIONS
 162:Drivers/lvgl/src/extra/widgets/imgbtn/lv_imgbtn.c ****  **********************/
 163:Drivers/lvgl/src/extra/widgets/imgbtn/lv_imgbtn.c **** 
 164:Drivers/lvgl/src/extra/widgets/imgbtn/lv_imgbtn.c **** static void lv_imgbtn_constructor(const lv_obj_class_t * class_p, lv_obj_t * obj)
 165:Drivers/lvgl/src/extra/widgets/imgbtn/lv_imgbtn.c **** {
 166:Drivers/lvgl/src/extra/widgets/imgbtn/lv_imgbtn.c ****     LV_UNUSED(class_p);
 167:Drivers/lvgl/src/extra/widgets/imgbtn/lv_imgbtn.c ****     lv_imgbtn_t * imgbtn = (lv_imgbtn_t *)obj;
 168:Drivers/lvgl/src/extra/widgets/imgbtn/lv_imgbtn.c ****     /*Initialize the allocated 'ext'*/
 169:Drivers/lvgl/src/extra/widgets/imgbtn/lv_imgbtn.c ****     lv_memset_00((void *)imgbtn->img_src_mid, sizeof(imgbtn->img_src_mid));
 170:Drivers/lvgl/src/extra/widgets/imgbtn/lv_imgbtn.c ****     lv_memset_00(imgbtn->img_src_left, sizeof(imgbtn->img_src_left));
 171:Drivers/lvgl/src/extra/widgets/imgbtn/lv_imgbtn.c ****     lv_memset_00(imgbtn->img_src_right, sizeof(imgbtn->img_src_right));
 172:Drivers/lvgl/src/extra/widgets/imgbtn/lv_imgbtn.c **** 
 173:Drivers/lvgl/src/extra/widgets/imgbtn/lv_imgbtn.c ****     imgbtn->act_cf = LV_IMG_CF_UNKNOWN;
 174:Drivers/lvgl/src/extra/widgets/imgbtn/lv_imgbtn.c **** }
 175:Drivers/lvgl/src/extra/widgets/imgbtn/lv_imgbtn.c **** 
 176:Drivers/lvgl/src/extra/widgets/imgbtn/lv_imgbtn.c **** 
 177:Drivers/lvgl/src/extra/widgets/imgbtn/lv_imgbtn.c **** static void lv_imgbtn_event(const lv_obj_class_t * class_p, lv_event_t * e)
 178:Drivers/lvgl/src/extra/widgets/imgbtn/lv_imgbtn.c **** {
 179:Drivers/lvgl/src/extra/widgets/imgbtn/lv_imgbtn.c ****     LV_UNUSED(class_p);
 180:Drivers/lvgl/src/extra/widgets/imgbtn/lv_imgbtn.c **** 
 181:Drivers/lvgl/src/extra/widgets/imgbtn/lv_imgbtn.c ****     lv_res_t res = lv_obj_event_base(&lv_imgbtn_class, e);
 182:Drivers/lvgl/src/extra/widgets/imgbtn/lv_imgbtn.c ****     if(res != LV_RES_OK) return;
 183:Drivers/lvgl/src/extra/widgets/imgbtn/lv_imgbtn.c **** 
 184:Drivers/lvgl/src/extra/widgets/imgbtn/lv_imgbtn.c ****     lv_event_code_t code = lv_event_get_code(e);
 185:Drivers/lvgl/src/extra/widgets/imgbtn/lv_imgbtn.c ****     lv_obj_t * obj = lv_event_get_target(e);
 186:Drivers/lvgl/src/extra/widgets/imgbtn/lv_imgbtn.c ****     if(code == LV_EVENT_PRESSED || code == LV_EVENT_RELEASED || code == LV_EVENT_PRESS_LOST) {
 187:Drivers/lvgl/src/extra/widgets/imgbtn/lv_imgbtn.c ****         refr_img(obj);
 188:Drivers/lvgl/src/extra/widgets/imgbtn/lv_imgbtn.c ****     }
 189:Drivers/lvgl/src/extra/widgets/imgbtn/lv_imgbtn.c ****     else if(code == LV_EVENT_DRAW_MAIN) {
 190:Drivers/lvgl/src/extra/widgets/imgbtn/lv_imgbtn.c ****         draw_main(e);
 191:Drivers/lvgl/src/extra/widgets/imgbtn/lv_imgbtn.c ****     }
 192:Drivers/lvgl/src/extra/widgets/imgbtn/lv_imgbtn.c ****     else if(code == LV_EVENT_COVER_CHECK) {
 193:Drivers/lvgl/src/extra/widgets/imgbtn/lv_imgbtn.c ****         lv_cover_check_info_t * info = lv_event_get_param(e);
 194:Drivers/lvgl/src/extra/widgets/imgbtn/lv_imgbtn.c ****         if(info->res != LV_COVER_RES_MASKED) info->res = LV_COVER_RES_NOT_COVER;
 195:Drivers/lvgl/src/extra/widgets/imgbtn/lv_imgbtn.c ****     }
 196:Drivers/lvgl/src/extra/widgets/imgbtn/lv_imgbtn.c ****     else if(code == LV_EVENT_GET_SELF_SIZE) {
 197:Drivers/lvgl/src/extra/widgets/imgbtn/lv_imgbtn.c ****         lv_point_t * p = lv_event_get_self_size_info(e);
 198:Drivers/lvgl/src/extra/widgets/imgbtn/lv_imgbtn.c ****         lv_imgbtn_t * imgbtn = (lv_imgbtn_t *)obj;
 199:Drivers/lvgl/src/extra/widgets/imgbtn/lv_imgbtn.c ****         lv_imgbtn_state_t state  = suggest_state(obj, get_state(obj));
 200:Drivers/lvgl/src/extra/widgets/imgbtn/lv_imgbtn.c ****         if(imgbtn->img_src_left[state] == NULL &&
 201:Drivers/lvgl/src/extra/widgets/imgbtn/lv_imgbtn.c ****            imgbtn->img_src_mid[state] != NULL &&
ARM GAS  /var/folders/0z/tsy30v1j4xl4_7kw94k978ww0000gn/T//ccWYDXZi.s 			page 5


 202:Drivers/lvgl/src/extra/widgets/imgbtn/lv_imgbtn.c ****            imgbtn->img_src_right[state] == NULL) {
 203:Drivers/lvgl/src/extra/widgets/imgbtn/lv_imgbtn.c ****             lv_img_header_t header;
 204:Drivers/lvgl/src/extra/widgets/imgbtn/lv_imgbtn.c ****             lv_img_decoder_get_info(imgbtn->img_src_mid[state], &header);
 205:Drivers/lvgl/src/extra/widgets/imgbtn/lv_imgbtn.c ****             p->x = LV_MAX(p->x, header.w);
 206:Drivers/lvgl/src/extra/widgets/imgbtn/lv_imgbtn.c ****         }
 207:Drivers/lvgl/src/extra/widgets/imgbtn/lv_imgbtn.c ****     }
 208:Drivers/lvgl/src/extra/widgets/imgbtn/lv_imgbtn.c ****     /*Sent when the widget is checked due to LV_OBJ_FLAG_CHECKABLE */
 209:Drivers/lvgl/src/extra/widgets/imgbtn/lv_imgbtn.c ****     else if(code == LV_EVENT_VALUE_CHANGED) {
 210:Drivers/lvgl/src/extra/widgets/imgbtn/lv_imgbtn.c ****         if(lv_obj_has_state(obj, LV_STATE_CHECKED)) {
 211:Drivers/lvgl/src/extra/widgets/imgbtn/lv_imgbtn.c ****             lv_imgbtn_set_state(obj, LV_IMGBTN_STATE_CHECKED_RELEASED);
 212:Drivers/lvgl/src/extra/widgets/imgbtn/lv_imgbtn.c ****         }
 213:Drivers/lvgl/src/extra/widgets/imgbtn/lv_imgbtn.c ****         else {
 214:Drivers/lvgl/src/extra/widgets/imgbtn/lv_imgbtn.c ****             lv_imgbtn_set_state(obj, LV_IMGBTN_STATE_RELEASED);
 215:Drivers/lvgl/src/extra/widgets/imgbtn/lv_imgbtn.c ****         }
 216:Drivers/lvgl/src/extra/widgets/imgbtn/lv_imgbtn.c ****     }
 217:Drivers/lvgl/src/extra/widgets/imgbtn/lv_imgbtn.c **** }
 218:Drivers/lvgl/src/extra/widgets/imgbtn/lv_imgbtn.c **** 
 219:Drivers/lvgl/src/extra/widgets/imgbtn/lv_imgbtn.c **** static void draw_main(lv_event_t * e)
 220:Drivers/lvgl/src/extra/widgets/imgbtn/lv_imgbtn.c **** {
 221:Drivers/lvgl/src/extra/widgets/imgbtn/lv_imgbtn.c ****     lv_obj_t * obj = lv_event_get_target(e);
 222:Drivers/lvgl/src/extra/widgets/imgbtn/lv_imgbtn.c ****     lv_imgbtn_t * imgbtn = (lv_imgbtn_t *)obj;
 223:Drivers/lvgl/src/extra/widgets/imgbtn/lv_imgbtn.c ****     lv_draw_ctx_t * draw_ctx = lv_event_get_draw_ctx(e);
 224:Drivers/lvgl/src/extra/widgets/imgbtn/lv_imgbtn.c **** 
 225:Drivers/lvgl/src/extra/widgets/imgbtn/lv_imgbtn.c ****     /*Just draw_main an image*/
 226:Drivers/lvgl/src/extra/widgets/imgbtn/lv_imgbtn.c ****     lv_imgbtn_state_t state  = suggest_state(obj, get_state(obj));
 227:Drivers/lvgl/src/extra/widgets/imgbtn/lv_imgbtn.c **** 
 228:Drivers/lvgl/src/extra/widgets/imgbtn/lv_imgbtn.c ****     /*Simply draw the middle src if no tiled*/
 229:Drivers/lvgl/src/extra/widgets/imgbtn/lv_imgbtn.c ****     const void * src = imgbtn->img_src_left[state];
 230:Drivers/lvgl/src/extra/widgets/imgbtn/lv_imgbtn.c **** 
 231:Drivers/lvgl/src/extra/widgets/imgbtn/lv_imgbtn.c ****     lv_coord_t tw = lv_obj_get_style_transform_width(obj, LV_PART_MAIN);
 232:Drivers/lvgl/src/extra/widgets/imgbtn/lv_imgbtn.c ****     lv_coord_t th = lv_obj_get_style_transform_height(obj, LV_PART_MAIN);
 233:Drivers/lvgl/src/extra/widgets/imgbtn/lv_imgbtn.c ****     lv_area_t coords;
 234:Drivers/lvgl/src/extra/widgets/imgbtn/lv_imgbtn.c ****     lv_area_copy(&coords, &obj->coords);
 235:Drivers/lvgl/src/extra/widgets/imgbtn/lv_imgbtn.c ****     coords.x1 -= tw;
 236:Drivers/lvgl/src/extra/widgets/imgbtn/lv_imgbtn.c ****     coords.x2 += tw;
 237:Drivers/lvgl/src/extra/widgets/imgbtn/lv_imgbtn.c ****     coords.y1 -= th;
 238:Drivers/lvgl/src/extra/widgets/imgbtn/lv_imgbtn.c ****     coords.y2 += th;
 239:Drivers/lvgl/src/extra/widgets/imgbtn/lv_imgbtn.c **** 
 240:Drivers/lvgl/src/extra/widgets/imgbtn/lv_imgbtn.c ****     lv_draw_img_dsc_t img_dsc;
 241:Drivers/lvgl/src/extra/widgets/imgbtn/lv_imgbtn.c ****     lv_draw_img_dsc_init(&img_dsc);
 242:Drivers/lvgl/src/extra/widgets/imgbtn/lv_imgbtn.c ****     lv_obj_init_draw_img_dsc(obj, LV_PART_MAIN, &img_dsc);
 243:Drivers/lvgl/src/extra/widgets/imgbtn/lv_imgbtn.c **** 
 244:Drivers/lvgl/src/extra/widgets/imgbtn/lv_imgbtn.c ****     lv_img_header_t header;
 245:Drivers/lvgl/src/extra/widgets/imgbtn/lv_imgbtn.c ****     lv_area_t coords_part;
 246:Drivers/lvgl/src/extra/widgets/imgbtn/lv_imgbtn.c ****     lv_coord_t left_w = 0;
 247:Drivers/lvgl/src/extra/widgets/imgbtn/lv_imgbtn.c ****     lv_coord_t right_w = 0;
 248:Drivers/lvgl/src/extra/widgets/imgbtn/lv_imgbtn.c **** 
 249:Drivers/lvgl/src/extra/widgets/imgbtn/lv_imgbtn.c ****     if(src) {
 250:Drivers/lvgl/src/extra/widgets/imgbtn/lv_imgbtn.c ****         lv_img_decoder_get_info(src, &header);
 251:Drivers/lvgl/src/extra/widgets/imgbtn/lv_imgbtn.c ****         left_w = header.w;
 252:Drivers/lvgl/src/extra/widgets/imgbtn/lv_imgbtn.c ****         coords_part.x1 = coords.x1;
 253:Drivers/lvgl/src/extra/widgets/imgbtn/lv_imgbtn.c ****         coords_part.y1 = coords.y1;
 254:Drivers/lvgl/src/extra/widgets/imgbtn/lv_imgbtn.c ****         coords_part.x2 = coords.x1 + header.w - 1;
 255:Drivers/lvgl/src/extra/widgets/imgbtn/lv_imgbtn.c ****         coords_part.y2 = coords.y1 + header.h - 1;
 256:Drivers/lvgl/src/extra/widgets/imgbtn/lv_imgbtn.c ****         lv_draw_img(draw_ctx, &img_dsc, &coords_part, src);
 257:Drivers/lvgl/src/extra/widgets/imgbtn/lv_imgbtn.c ****     }
 258:Drivers/lvgl/src/extra/widgets/imgbtn/lv_imgbtn.c **** 
ARM GAS  /var/folders/0z/tsy30v1j4xl4_7kw94k978ww0000gn/T//ccWYDXZi.s 			page 6


 259:Drivers/lvgl/src/extra/widgets/imgbtn/lv_imgbtn.c ****     src = imgbtn->img_src_right[state];
 260:Drivers/lvgl/src/extra/widgets/imgbtn/lv_imgbtn.c ****     if(src) {
 261:Drivers/lvgl/src/extra/widgets/imgbtn/lv_imgbtn.c ****         lv_img_decoder_get_info(src, &header);
 262:Drivers/lvgl/src/extra/widgets/imgbtn/lv_imgbtn.c ****         right_w = header.w;
 263:Drivers/lvgl/src/extra/widgets/imgbtn/lv_imgbtn.c ****         coords_part.x1 = coords.x2 - header.w + 1;
 264:Drivers/lvgl/src/extra/widgets/imgbtn/lv_imgbtn.c ****         coords_part.y1 = coords.y1;
 265:Drivers/lvgl/src/extra/widgets/imgbtn/lv_imgbtn.c ****         coords_part.x2 = coords.x2;
 266:Drivers/lvgl/src/extra/widgets/imgbtn/lv_imgbtn.c ****         coords_part.y2 = coords.y1 + header.h - 1;
 267:Drivers/lvgl/src/extra/widgets/imgbtn/lv_imgbtn.c ****         lv_draw_img(draw_ctx, &img_dsc, &coords_part, src);
 268:Drivers/lvgl/src/extra/widgets/imgbtn/lv_imgbtn.c ****     }
 269:Drivers/lvgl/src/extra/widgets/imgbtn/lv_imgbtn.c **** 
 270:Drivers/lvgl/src/extra/widgets/imgbtn/lv_imgbtn.c ****     src = imgbtn->img_src_mid[state];
 271:Drivers/lvgl/src/extra/widgets/imgbtn/lv_imgbtn.c ****     if(src) {
 272:Drivers/lvgl/src/extra/widgets/imgbtn/lv_imgbtn.c ****         lv_area_t clip_area_center;
 273:Drivers/lvgl/src/extra/widgets/imgbtn/lv_imgbtn.c ****         clip_area_center.x1 = coords.x1 + left_w;
 274:Drivers/lvgl/src/extra/widgets/imgbtn/lv_imgbtn.c ****         clip_area_center.x2 = coords.x2 - right_w;
 275:Drivers/lvgl/src/extra/widgets/imgbtn/lv_imgbtn.c ****         clip_area_center.y1 = coords.y1;
 276:Drivers/lvgl/src/extra/widgets/imgbtn/lv_imgbtn.c ****         clip_area_center.y2 = coords.y2;
 277:Drivers/lvgl/src/extra/widgets/imgbtn/lv_imgbtn.c **** 
 278:Drivers/lvgl/src/extra/widgets/imgbtn/lv_imgbtn.c **** 
 279:Drivers/lvgl/src/extra/widgets/imgbtn/lv_imgbtn.c ****         bool comm_res;
 280:Drivers/lvgl/src/extra/widgets/imgbtn/lv_imgbtn.c ****         comm_res = _lv_area_intersect(&clip_area_center, &clip_area_center, draw_ctx->clip_area);
 281:Drivers/lvgl/src/extra/widgets/imgbtn/lv_imgbtn.c ****         if(comm_res) {
 282:Drivers/lvgl/src/extra/widgets/imgbtn/lv_imgbtn.c ****             lv_coord_t i;
 283:Drivers/lvgl/src/extra/widgets/imgbtn/lv_imgbtn.c ****             lv_img_decoder_get_info(src, &header);
 284:Drivers/lvgl/src/extra/widgets/imgbtn/lv_imgbtn.c **** 
 285:Drivers/lvgl/src/extra/widgets/imgbtn/lv_imgbtn.c ****             const lv_area_t * clip_area_ori = draw_ctx->clip_area;
 286:Drivers/lvgl/src/extra/widgets/imgbtn/lv_imgbtn.c ****             draw_ctx->clip_area = &clip_area_center;
 287:Drivers/lvgl/src/extra/widgets/imgbtn/lv_imgbtn.c **** 
 288:Drivers/lvgl/src/extra/widgets/imgbtn/lv_imgbtn.c ****             coords_part.x1 = coords.x1 + left_w;
 289:Drivers/lvgl/src/extra/widgets/imgbtn/lv_imgbtn.c ****             coords_part.y1 = coords.y1;
 290:Drivers/lvgl/src/extra/widgets/imgbtn/lv_imgbtn.c ****             coords_part.x2 = coords_part.x1 + header.w - 1;
 291:Drivers/lvgl/src/extra/widgets/imgbtn/lv_imgbtn.c ****             coords_part.y2 = coords_part.y1 + header.h - 1;
 292:Drivers/lvgl/src/extra/widgets/imgbtn/lv_imgbtn.c **** 
 293:Drivers/lvgl/src/extra/widgets/imgbtn/lv_imgbtn.c ****             for(i = coords_part.x1; i < (lv_coord_t)(clip_area_center.x2 + header.w - 1); i += head
 294:Drivers/lvgl/src/extra/widgets/imgbtn/lv_imgbtn.c ****                 lv_draw_img(draw_ctx, &img_dsc, &coords_part, src);
 295:Drivers/lvgl/src/extra/widgets/imgbtn/lv_imgbtn.c ****                 coords_part.x1 = coords_part.x2 + 1;
 296:Drivers/lvgl/src/extra/widgets/imgbtn/lv_imgbtn.c ****                 coords_part.x2 += header.w;
 297:Drivers/lvgl/src/extra/widgets/imgbtn/lv_imgbtn.c ****             }
 298:Drivers/lvgl/src/extra/widgets/imgbtn/lv_imgbtn.c ****             draw_ctx->clip_area = clip_area_ori;
 299:Drivers/lvgl/src/extra/widgets/imgbtn/lv_imgbtn.c ****         }
 300:Drivers/lvgl/src/extra/widgets/imgbtn/lv_imgbtn.c ****     }
 301:Drivers/lvgl/src/extra/widgets/imgbtn/lv_imgbtn.c **** }
 302:Drivers/lvgl/src/extra/widgets/imgbtn/lv_imgbtn.c **** 
 303:Drivers/lvgl/src/extra/widgets/imgbtn/lv_imgbtn.c **** static void refr_img(lv_obj_t * obj)
 304:Drivers/lvgl/src/extra/widgets/imgbtn/lv_imgbtn.c **** {
 305:Drivers/lvgl/src/extra/widgets/imgbtn/lv_imgbtn.c ****     lv_imgbtn_t * imgbtn = (lv_imgbtn_t *)obj;
 306:Drivers/lvgl/src/extra/widgets/imgbtn/lv_imgbtn.c ****     lv_imgbtn_state_t state  = suggest_state(obj, get_state(obj));
 307:Drivers/lvgl/src/extra/widgets/imgbtn/lv_imgbtn.c ****     lv_img_header_t header;
 308:Drivers/lvgl/src/extra/widgets/imgbtn/lv_imgbtn.c **** 
 309:Drivers/lvgl/src/extra/widgets/imgbtn/lv_imgbtn.c ****     const void * src = imgbtn->img_src_mid[state];
 310:Drivers/lvgl/src/extra/widgets/imgbtn/lv_imgbtn.c ****     if(src == NULL) return;
 311:Drivers/lvgl/src/extra/widgets/imgbtn/lv_imgbtn.c **** 
 312:Drivers/lvgl/src/extra/widgets/imgbtn/lv_imgbtn.c ****     lv_res_t info_res = LV_RES_OK;
 313:Drivers/lvgl/src/extra/widgets/imgbtn/lv_imgbtn.c ****     info_res = lv_img_decoder_get_info(src, &header);
 314:Drivers/lvgl/src/extra/widgets/imgbtn/lv_imgbtn.c **** 
 315:Drivers/lvgl/src/extra/widgets/imgbtn/lv_imgbtn.c ****     if(info_res == LV_RES_OK) {
ARM GAS  /var/folders/0z/tsy30v1j4xl4_7kw94k978ww0000gn/T//ccWYDXZi.s 			page 7


 316:Drivers/lvgl/src/extra/widgets/imgbtn/lv_imgbtn.c ****         imgbtn->act_cf = header.cf;
 317:Drivers/lvgl/src/extra/widgets/imgbtn/lv_imgbtn.c ****         lv_obj_refresh_self_size(obj);
 318:Drivers/lvgl/src/extra/widgets/imgbtn/lv_imgbtn.c ****         lv_obj_set_height(obj, header.h); /*Keep the user defined width*/
 319:Drivers/lvgl/src/extra/widgets/imgbtn/lv_imgbtn.c ****     }
 320:Drivers/lvgl/src/extra/widgets/imgbtn/lv_imgbtn.c ****     else {
 321:Drivers/lvgl/src/extra/widgets/imgbtn/lv_imgbtn.c ****         imgbtn->act_cf = LV_IMG_CF_UNKNOWN;
 322:Drivers/lvgl/src/extra/widgets/imgbtn/lv_imgbtn.c ****     }
 323:Drivers/lvgl/src/extra/widgets/imgbtn/lv_imgbtn.c **** 
 324:Drivers/lvgl/src/extra/widgets/imgbtn/lv_imgbtn.c ****     lv_obj_invalidate(obj);
 325:Drivers/lvgl/src/extra/widgets/imgbtn/lv_imgbtn.c **** }
 326:Drivers/lvgl/src/extra/widgets/imgbtn/lv_imgbtn.c **** 
 327:Drivers/lvgl/src/extra/widgets/imgbtn/lv_imgbtn.c **** /**
 328:Drivers/lvgl/src/extra/widgets/imgbtn/lv_imgbtn.c ****  * If `src` is not defined for the current state try to get a state which is related to the current
 329:Drivers/lvgl/src/extra/widgets/imgbtn/lv_imgbtn.c ****  * E.g. if the PRESSED src is not set but the RELEASED does, use the RELEASED.
 330:Drivers/lvgl/src/extra/widgets/imgbtn/lv_imgbtn.c ****  * @param imgbtn pointer to an image button
 331:Drivers/lvgl/src/extra/widgets/imgbtn/lv_imgbtn.c ****  * @param state the state to convert
 332:Drivers/lvgl/src/extra/widgets/imgbtn/lv_imgbtn.c ****  * @return the suggested state
 333:Drivers/lvgl/src/extra/widgets/imgbtn/lv_imgbtn.c ****  */
 334:Drivers/lvgl/src/extra/widgets/imgbtn/lv_imgbtn.c **** static lv_imgbtn_state_t suggest_state(lv_obj_t * obj, lv_imgbtn_state_t state)
 335:Drivers/lvgl/src/extra/widgets/imgbtn/lv_imgbtn.c **** {
  29              		.loc 1 335 1 view -0
  30              		.cfi_startproc
  31              		@ args = 0, pretend = 0, frame = 0
  32              		@ frame_needed = 0, uses_anonymous_args = 0
  33              		@ link register save eliminated.
  34              		.loc 1 335 1 is_stmt 0 view .LVU1
  35 0000 0346     		mov	r3, r0
  36 0002 0846     		mov	r0, r1
  37              	.LVL1:
 336:Drivers/lvgl/src/extra/widgets/imgbtn/lv_imgbtn.c ****     lv_imgbtn_t * imgbtn = (lv_imgbtn_t *)obj;
  38              		.loc 1 336 5 is_stmt 1 view .LVU2
 337:Drivers/lvgl/src/extra/widgets/imgbtn/lv_imgbtn.c ****     if(imgbtn->img_src_mid[state] == NULL) {
  39              		.loc 1 337 5 view .LVU3
  40              		.loc 1 337 27 is_stmt 0 view .LVU4
  41 0004 01F10802 		add	r2, r1, #8
  42 0008 03EB8202 		add	r2, r3, r2, lsl #2
  43 000c 5268     		ldr	r2, [r2, #4]
  44              		.loc 1 337 7 view .LVU5
  45 000e 02B1     		cbz	r2, .L18
  46              	.LVL2:
  47              	.L2:
 338:Drivers/lvgl/src/extra/widgets/imgbtn/lv_imgbtn.c ****         switch(state) {
 339:Drivers/lvgl/src/extra/widgets/imgbtn/lv_imgbtn.c ****             case LV_IMGBTN_STATE_PRESSED:
 340:Drivers/lvgl/src/extra/widgets/imgbtn/lv_imgbtn.c ****                 if(imgbtn->img_src_mid[LV_IMGBTN_STATE_RELEASED]) return LV_IMGBTN_STATE_RELEASED;
 341:Drivers/lvgl/src/extra/widgets/imgbtn/lv_imgbtn.c ****                 break;
 342:Drivers/lvgl/src/extra/widgets/imgbtn/lv_imgbtn.c ****             case LV_IMGBTN_STATE_CHECKED_RELEASED:
 343:Drivers/lvgl/src/extra/widgets/imgbtn/lv_imgbtn.c ****                 if(imgbtn->img_src_mid[LV_IMGBTN_STATE_RELEASED]) return LV_IMGBTN_STATE_RELEASED;
 344:Drivers/lvgl/src/extra/widgets/imgbtn/lv_imgbtn.c ****                 break;
 345:Drivers/lvgl/src/extra/widgets/imgbtn/lv_imgbtn.c ****             case LV_IMGBTN_STATE_CHECKED_PRESSED:
 346:Drivers/lvgl/src/extra/widgets/imgbtn/lv_imgbtn.c ****                 if(imgbtn->img_src_mid[LV_IMGBTN_STATE_CHECKED_RELEASED]) return LV_IMGBTN_STATE_CH
 347:Drivers/lvgl/src/extra/widgets/imgbtn/lv_imgbtn.c ****                 if(imgbtn->img_src_mid[LV_IMGBTN_STATE_PRESSED]) return LV_IMGBTN_STATE_PRESSED;
 348:Drivers/lvgl/src/extra/widgets/imgbtn/lv_imgbtn.c ****                 if(imgbtn->img_src_mid[LV_IMGBTN_STATE_RELEASED]) return LV_IMGBTN_STATE_RELEASED;
 349:Drivers/lvgl/src/extra/widgets/imgbtn/lv_imgbtn.c ****                 break;
 350:Drivers/lvgl/src/extra/widgets/imgbtn/lv_imgbtn.c ****             case LV_IMGBTN_STATE_DISABLED:
 351:Drivers/lvgl/src/extra/widgets/imgbtn/lv_imgbtn.c ****                 if(imgbtn->img_src_mid[LV_IMGBTN_STATE_RELEASED]) return LV_IMGBTN_STATE_RELEASED;
 352:Drivers/lvgl/src/extra/widgets/imgbtn/lv_imgbtn.c ****                 break;
 353:Drivers/lvgl/src/extra/widgets/imgbtn/lv_imgbtn.c ****             case LV_IMGBTN_STATE_CHECKED_DISABLED:
ARM GAS  /var/folders/0z/tsy30v1j4xl4_7kw94k978ww0000gn/T//ccWYDXZi.s 			page 8


 354:Drivers/lvgl/src/extra/widgets/imgbtn/lv_imgbtn.c ****                 if(imgbtn->img_src_mid[LV_IMGBTN_STATE_CHECKED_RELEASED]) return LV_IMGBTN_STATE_CH
 355:Drivers/lvgl/src/extra/widgets/imgbtn/lv_imgbtn.c ****                 if(imgbtn->img_src_mid[LV_IMGBTN_STATE_RELEASED]) return LV_IMGBTN_STATE_RELEASED;
 356:Drivers/lvgl/src/extra/widgets/imgbtn/lv_imgbtn.c ****                 break;
 357:Drivers/lvgl/src/extra/widgets/imgbtn/lv_imgbtn.c ****             default:
 358:Drivers/lvgl/src/extra/widgets/imgbtn/lv_imgbtn.c ****                 break;
 359:Drivers/lvgl/src/extra/widgets/imgbtn/lv_imgbtn.c ****         }
 360:Drivers/lvgl/src/extra/widgets/imgbtn/lv_imgbtn.c ****     }
 361:Drivers/lvgl/src/extra/widgets/imgbtn/lv_imgbtn.c **** 
 362:Drivers/lvgl/src/extra/widgets/imgbtn/lv_imgbtn.c ****     return state;
 363:Drivers/lvgl/src/extra/widgets/imgbtn/lv_imgbtn.c **** }
  48              		.loc 1 363 1 view .LVU6
  49 0010 7047     		bx	lr
  50              	.LVL3:
  51              	.L18:
 338:Drivers/lvgl/src/extra/widgets/imgbtn/lv_imgbtn.c ****         switch(state) {
  52              		.loc 1 338 9 is_stmt 1 view .LVU7
  53 0012 4A1E     		subs	r2, r1, #1
  54 0014 042A     		cmp	r2, #4
  55 0016 FBD8     		bhi	.L2
  56 0018 DFE802F0 		tbb	[pc, r2]
  57              	.LVL4:
  58              	.L4:
  59 001c 03       		.byte	(.L8-.L4)/2
  60 001d 18       		.byte	(.L7-.L4)/2
  61 001e 08       		.byte	(.L6-.L4)/2
  62 001f 0D       		.byte	(.L5-.L4)/2
  63 0020 1D       		.byte	(.L3-.L4)/2
  64 0021 00       		.p2align 1
  65              	.L8:
 340:Drivers/lvgl/src/extra/widgets/imgbtn/lv_imgbtn.c ****                 break;
  66              		.loc 1 340 17 view .LVU8
 340:Drivers/lvgl/src/extra/widgets/imgbtn/lv_imgbtn.c ****                 break;
  67              		.loc 1 340 39 is_stmt 0 view .LVU9
  68 0022 5B6A     		ldr	r3, [r3, #36]
  69              	.LVL5:
 340:Drivers/lvgl/src/extra/widgets/imgbtn/lv_imgbtn.c ****                 break;
  70              		.loc 1 340 19 view .LVU10
  71 0024 0BB1     		cbz	r3, .L19
 340:Drivers/lvgl/src/extra/widgets/imgbtn/lv_imgbtn.c ****                 break;
  72              		.loc 1 340 74 view .LVU11
  73 0026 0020     		movs	r0, #0
  74 0028 7047     		bx	lr
  75              	.L19:
  76 002a 7047     		bx	lr
  77              	.LVL6:
  78              	.L6:
 343:Drivers/lvgl/src/extra/widgets/imgbtn/lv_imgbtn.c ****                 break;
  79              		.loc 1 343 17 is_stmt 1 view .LVU12
 343:Drivers/lvgl/src/extra/widgets/imgbtn/lv_imgbtn.c ****                 break;
  80              		.loc 1 343 39 is_stmt 0 view .LVU13
  81 002c 5B6A     		ldr	r3, [r3, #36]
  82              	.LVL7:
 343:Drivers/lvgl/src/extra/widgets/imgbtn/lv_imgbtn.c ****                 break;
  83              		.loc 1 343 19 view .LVU14
  84 002e 0BB1     		cbz	r3, .L20
 343:Drivers/lvgl/src/extra/widgets/imgbtn/lv_imgbtn.c ****                 break;
  85              		.loc 1 343 74 view .LVU15
ARM GAS  /var/folders/0z/tsy30v1j4xl4_7kw94k978ww0000gn/T//ccWYDXZi.s 			page 9


  86 0030 0020     		movs	r0, #0
  87 0032 7047     		bx	lr
  88              	.L20:
  89 0034 7047     		bx	lr
  90              	.LVL8:
  91              	.L5:
 346:Drivers/lvgl/src/extra/widgets/imgbtn/lv_imgbtn.c ****                 if(imgbtn->img_src_mid[LV_IMGBTN_STATE_PRESSED]) return LV_IMGBTN_STATE_PRESSED;
  92              		.loc 1 346 17 is_stmt 1 view .LVU16
 346:Drivers/lvgl/src/extra/widgets/imgbtn/lv_imgbtn.c ****                 if(imgbtn->img_src_mid[LV_IMGBTN_STATE_PRESSED]) return LV_IMGBTN_STATE_PRESSED;
  93              		.loc 1 346 39 is_stmt 0 view .LVU17
  94 0036 1A6B     		ldr	r2, [r3, #48]
 346:Drivers/lvgl/src/extra/widgets/imgbtn/lv_imgbtn.c ****                 if(imgbtn->img_src_mid[LV_IMGBTN_STATE_PRESSED]) return LV_IMGBTN_STATE_PRESSED;
  95              		.loc 1 346 19 view .LVU18
  96 0038 A2B9     		cbnz	r2, .L11
 347:Drivers/lvgl/src/extra/widgets/imgbtn/lv_imgbtn.c ****                 if(imgbtn->img_src_mid[LV_IMGBTN_STATE_RELEASED]) return LV_IMGBTN_STATE_RELEASED;
  97              		.loc 1 347 17 is_stmt 1 view .LVU19
 347:Drivers/lvgl/src/extra/widgets/imgbtn/lv_imgbtn.c ****                 if(imgbtn->img_src_mid[LV_IMGBTN_STATE_RELEASED]) return LV_IMGBTN_STATE_RELEASED;
  98              		.loc 1 347 39 is_stmt 0 view .LVU20
  99 003a 9A6A     		ldr	r2, [r3, #40]
 347:Drivers/lvgl/src/extra/widgets/imgbtn/lv_imgbtn.c ****                 if(imgbtn->img_src_mid[LV_IMGBTN_STATE_RELEASED]) return LV_IMGBTN_STATE_RELEASED;
 100              		.loc 1 347 19 view .LVU21
 101 003c 0AB1     		cbz	r2, .L21
 347:Drivers/lvgl/src/extra/widgets/imgbtn/lv_imgbtn.c ****                 if(imgbtn->img_src_mid[LV_IMGBTN_STATE_RELEASED]) return LV_IMGBTN_STATE_RELEASED;
 102              		.loc 1 347 73 view .LVU22
 103 003e 0120     		movs	r0, #1
 104 0040 7047     		bx	lr
 105              	.L21:
 348:Drivers/lvgl/src/extra/widgets/imgbtn/lv_imgbtn.c ****                 break;
 106              		.loc 1 348 17 is_stmt 1 view .LVU23
 348:Drivers/lvgl/src/extra/widgets/imgbtn/lv_imgbtn.c ****                 break;
 107              		.loc 1 348 39 is_stmt 0 view .LVU24
 108 0042 5B6A     		ldr	r3, [r3, #36]
 109              	.LVL9:
 348:Drivers/lvgl/src/extra/widgets/imgbtn/lv_imgbtn.c ****                 break;
 110              		.loc 1 348 19 view .LVU25
 111 0044 0BB1     		cbz	r3, .L22
 348:Drivers/lvgl/src/extra/widgets/imgbtn/lv_imgbtn.c ****                 break;
 112              		.loc 1 348 74 view .LVU26
 113 0046 0020     		movs	r0, #0
 114 0048 7047     		bx	lr
 115              	.L22:
 116 004a 7047     		bx	lr
 117              	.LVL10:
 118              	.L7:
 351:Drivers/lvgl/src/extra/widgets/imgbtn/lv_imgbtn.c ****                 break;
 119              		.loc 1 351 17 is_stmt 1 view .LVU27
 351:Drivers/lvgl/src/extra/widgets/imgbtn/lv_imgbtn.c ****                 break;
 120              		.loc 1 351 39 is_stmt 0 view .LVU28
 121 004c 5B6A     		ldr	r3, [r3, #36]
 122              	.LVL11:
 351:Drivers/lvgl/src/extra/widgets/imgbtn/lv_imgbtn.c ****                 break;
 123              		.loc 1 351 19 view .LVU29
 124 004e 0BB1     		cbz	r3, .L23
 351:Drivers/lvgl/src/extra/widgets/imgbtn/lv_imgbtn.c ****                 break;
 125              		.loc 1 351 74 view .LVU30
 126 0050 0020     		movs	r0, #0
 127 0052 7047     		bx	lr
ARM GAS  /var/folders/0z/tsy30v1j4xl4_7kw94k978ww0000gn/T//ccWYDXZi.s 			page 10


 128              	.L23:
 129 0054 7047     		bx	lr
 130              	.LVL12:
 131              	.L3:
 354:Drivers/lvgl/src/extra/widgets/imgbtn/lv_imgbtn.c ****                 if(imgbtn->img_src_mid[LV_IMGBTN_STATE_RELEASED]) return LV_IMGBTN_STATE_RELEASED;
 132              		.loc 1 354 17 is_stmt 1 view .LVU31
 354:Drivers/lvgl/src/extra/widgets/imgbtn/lv_imgbtn.c ****                 if(imgbtn->img_src_mid[LV_IMGBTN_STATE_RELEASED]) return LV_IMGBTN_STATE_RELEASED;
 133              		.loc 1 354 39 is_stmt 0 view .LVU32
 134 0056 1A6B     		ldr	r2, [r3, #48]
 354:Drivers/lvgl/src/extra/widgets/imgbtn/lv_imgbtn.c ****                 if(imgbtn->img_src_mid[LV_IMGBTN_STATE_RELEASED]) return LV_IMGBTN_STATE_RELEASED;
 135              		.loc 1 354 19 view .LVU33
 136 0058 32B9     		cbnz	r2, .L15
 355:Drivers/lvgl/src/extra/widgets/imgbtn/lv_imgbtn.c ****                 break;
 137              		.loc 1 355 17 is_stmt 1 view .LVU34
 355:Drivers/lvgl/src/extra/widgets/imgbtn/lv_imgbtn.c ****                 break;
 138              		.loc 1 355 39 is_stmt 0 view .LVU35
 139 005a 5B6A     		ldr	r3, [r3, #36]
 140              	.LVL13:
 355:Drivers/lvgl/src/extra/widgets/imgbtn/lv_imgbtn.c ****                 break;
 141              		.loc 1 355 19 view .LVU36
 142 005c 0BB1     		cbz	r3, .L24
 355:Drivers/lvgl/src/extra/widgets/imgbtn/lv_imgbtn.c ****                 break;
 143              		.loc 1 355 74 view .LVU37
 144 005e 0020     		movs	r0, #0
 145 0060 D6E7     		b	.L2
 146              	.L24:
 147 0062 7047     		bx	lr
 148              	.LVL14:
 149              	.L11:
 346:Drivers/lvgl/src/extra/widgets/imgbtn/lv_imgbtn.c ****                 if(imgbtn->img_src_mid[LV_IMGBTN_STATE_PRESSED]) return LV_IMGBTN_STATE_PRESSED;
 150              		.loc 1 346 82 view .LVU38
 151 0064 0320     		movs	r0, #3
 152 0066 7047     		bx	lr
 153              	.L15:
 354:Drivers/lvgl/src/extra/widgets/imgbtn/lv_imgbtn.c ****                 if(imgbtn->img_src_mid[LV_IMGBTN_STATE_RELEASED]) return LV_IMGBTN_STATE_RELEASED;
 154              		.loc 1 354 82 view .LVU39
 155 0068 0320     		movs	r0, #3
 156 006a 7047     		bx	lr
 157              		.cfi_endproc
 158              	.LFE214:
 160              		.section	.text.lv_imgbtn_constructor,"ax",%progbits
 161              		.align	1
 162              		.syntax unified
 163              		.thumb
 164              		.thumb_func
 166              	lv_imgbtn_constructor:
 167              	.LVL15:
 168              	.LFB210:
 165:Drivers/lvgl/src/extra/widgets/imgbtn/lv_imgbtn.c ****     LV_UNUSED(class_p);
 169              		.loc 1 165 1 is_stmt 1 view -0
 170              		.cfi_startproc
 171              		@ args = 0, pretend = 0, frame = 0
 172              		@ frame_needed = 0, uses_anonymous_args = 0
 165:Drivers/lvgl/src/extra/widgets/imgbtn/lv_imgbtn.c ****     LV_UNUSED(class_p);
 173              		.loc 1 165 1 is_stmt 0 view .LVU41
 174 0000 10B5     		push	{r4, lr}
 175              		.cfi_def_cfa_offset 8
ARM GAS  /var/folders/0z/tsy30v1j4xl4_7kw94k978ww0000gn/T//ccWYDXZi.s 			page 11


 176              		.cfi_offset 4, -8
 177              		.cfi_offset 14, -4
 178 0002 0C46     		mov	r4, r1
 166:Drivers/lvgl/src/extra/widgets/imgbtn/lv_imgbtn.c ****     lv_imgbtn_t * imgbtn = (lv_imgbtn_t *)obj;
 179              		.loc 1 166 5 is_stmt 1 view .LVU42
 167:Drivers/lvgl/src/extra/widgets/imgbtn/lv_imgbtn.c ****     /*Initialize the allocated 'ext'*/
 180              		.loc 1 167 5 view .LVU43
 181              	.LVL16:
 169:Drivers/lvgl/src/extra/widgets/imgbtn/lv_imgbtn.c ****     lv_memset_00(imgbtn->img_src_left, sizeof(imgbtn->img_src_left));
 182              		.loc 1 169 5 view .LVU44
 183 0004 1821     		movs	r1, #24
 184              	.LVL17:
 169:Drivers/lvgl/src/extra/widgets/imgbtn/lv_imgbtn.c ****     lv_memset_00(imgbtn->img_src_left, sizeof(imgbtn->img_src_left));
 185              		.loc 1 169 5 is_stmt 0 view .LVU45
 186 0006 04F12400 		add	r0, r4, #36
 187              	.LVL18:
 169:Drivers/lvgl/src/extra/widgets/imgbtn/lv_imgbtn.c ****     lv_memset_00(imgbtn->img_src_left, sizeof(imgbtn->img_src_left));
 188              		.loc 1 169 5 view .LVU46
 189 000a FFF7FEFF 		bl	lv_memset_00
 190              	.LVL19:
 170:Drivers/lvgl/src/extra/widgets/imgbtn/lv_imgbtn.c ****     lv_memset_00(imgbtn->img_src_right, sizeof(imgbtn->img_src_right));
 191              		.loc 1 170 5 is_stmt 1 view .LVU47
 192 000e 1821     		movs	r1, #24
 193 0010 04F13C00 		add	r0, r4, #60
 194 0014 FFF7FEFF 		bl	lv_memset_00
 195              	.LVL20:
 171:Drivers/lvgl/src/extra/widgets/imgbtn/lv_imgbtn.c **** 
 196              		.loc 1 171 5 view .LVU48
 197 0018 1821     		movs	r1, #24
 198 001a 04F15400 		add	r0, r4, #84
 199 001e FFF7FEFF 		bl	lv_memset_00
 200              	.LVL21:
 173:Drivers/lvgl/src/extra/widgets/imgbtn/lv_imgbtn.c **** }
 201              		.loc 1 173 5 view .LVU49
 173:Drivers/lvgl/src/extra/widgets/imgbtn/lv_imgbtn.c **** }
 202              		.loc 1 173 20 is_stmt 0 view .LVU50
 203 0022 0023     		movs	r3, #0
 204 0024 84F86C30 		strb	r3, [r4, #108]
 174:Drivers/lvgl/src/extra/widgets/imgbtn/lv_imgbtn.c **** 
 205              		.loc 1 174 1 view .LVU51
 206 0028 10BD     		pop	{r4, pc}
 174:Drivers/lvgl/src/extra/widgets/imgbtn/lv_imgbtn.c **** 
 207              		.loc 1 174 1 view .LVU52
 208              		.cfi_endproc
 209              	.LFE210:
 211              		.section	.text.lv_imgbtn_create,"ax",%progbits
 212              		.align	1
 213              		.global	lv_imgbtn_create
 214              		.syntax unified
 215              		.thumb
 216              		.thumb_func
 218              	lv_imgbtn_create:
 219              	.LVL22:
 220              	.LFB204:
  57:Drivers/lvgl/src/extra/widgets/imgbtn/lv_imgbtn.c ****     LV_LOG_INFO("begin");
 221              		.loc 1 57 1 is_stmt 1 view -0
 222              		.cfi_startproc
ARM GAS  /var/folders/0z/tsy30v1j4xl4_7kw94k978ww0000gn/T//ccWYDXZi.s 			page 12


 223              		@ args = 0, pretend = 0, frame = 0
 224              		@ frame_needed = 0, uses_anonymous_args = 0
  57:Drivers/lvgl/src/extra/widgets/imgbtn/lv_imgbtn.c ****     LV_LOG_INFO("begin");
 225              		.loc 1 57 1 is_stmt 0 view .LVU54
 226 0000 10B5     		push	{r4, lr}
 227              		.cfi_def_cfa_offset 8
 228              		.cfi_offset 4, -8
 229              		.cfi_offset 14, -4
 230 0002 0146     		mov	r1, r0
  58:Drivers/lvgl/src/extra/widgets/imgbtn/lv_imgbtn.c ****     lv_obj_t * obj = lv_obj_class_create_obj(MY_CLASS, parent);
 231              		.loc 1 58 5 is_stmt 1 view .LVU55
  58:Drivers/lvgl/src/extra/widgets/imgbtn/lv_imgbtn.c ****     lv_obj_t * obj = lv_obj_class_create_obj(MY_CLASS, parent);
 232              		.loc 1 58 5 view .LVU56
  58:Drivers/lvgl/src/extra/widgets/imgbtn/lv_imgbtn.c ****     lv_obj_t * obj = lv_obj_class_create_obj(MY_CLASS, parent);
 233              		.loc 1 58 5 view .LVU57
  59:Drivers/lvgl/src/extra/widgets/imgbtn/lv_imgbtn.c ****     lv_obj_class_init_obj(obj);
 234              		.loc 1 59 5 view .LVU58
  59:Drivers/lvgl/src/extra/widgets/imgbtn/lv_imgbtn.c ****     lv_obj_class_init_obj(obj);
 235              		.loc 1 59 22 is_stmt 0 view .LVU59
 236 0004 0348     		ldr	r0, .L29
 237              	.LVL23:
  59:Drivers/lvgl/src/extra/widgets/imgbtn/lv_imgbtn.c ****     lv_obj_class_init_obj(obj);
 238              		.loc 1 59 22 view .LVU60
 239 0006 FFF7FEFF 		bl	lv_obj_class_create_obj
 240              	.LVL24:
  59:Drivers/lvgl/src/extra/widgets/imgbtn/lv_imgbtn.c ****     lv_obj_class_init_obj(obj);
 241              		.loc 1 59 22 view .LVU61
 242 000a 0446     		mov	r4, r0
 243              	.LVL25:
  60:Drivers/lvgl/src/extra/widgets/imgbtn/lv_imgbtn.c ****     return obj;
 244              		.loc 1 60 5 is_stmt 1 view .LVU62
 245 000c FFF7FEFF 		bl	lv_obj_class_init_obj
 246              	.LVL26:
  61:Drivers/lvgl/src/extra/widgets/imgbtn/lv_imgbtn.c **** }
 247              		.loc 1 61 5 view .LVU63
  62:Drivers/lvgl/src/extra/widgets/imgbtn/lv_imgbtn.c **** 
 248              		.loc 1 62 1 is_stmt 0 view .LVU64
 249 0010 2046     		mov	r0, r4
 250 0012 10BD     		pop	{r4, pc}
 251              	.LVL27:
 252              	.L30:
  62:Drivers/lvgl/src/extra/widgets/imgbtn/lv_imgbtn.c **** 
 253              		.loc 1 62 1 view .LVU65
 254              		.align	2
 255              	.L29:
 256 0014 00000000 		.word	.LANCHOR0
 257              		.cfi_endproc
 258              	.LFE204:
 260              		.section	.text.lv_imgbtn_get_src_left,"ax",%progbits
 261              		.align	1
 262              		.global	lv_imgbtn_get_src_left
 263              		.syntax unified
 264              		.thumb
 265              		.thumb_func
 267              	lv_imgbtn_get_src_left:
 268              	.LVL28:
 269              	.LFB207:
ARM GAS  /var/folders/0z/tsy30v1j4xl4_7kw94k978ww0000gn/T//ccWYDXZi.s 			page 13


 123:Drivers/lvgl/src/extra/widgets/imgbtn/lv_imgbtn.c ****     LV_ASSERT_OBJ(obj, MY_CLASS);
 270              		.loc 1 123 1 is_stmt 1 view -0
 271              		.cfi_startproc
 272              		@ args = 0, pretend = 0, frame = 0
 273              		@ frame_needed = 0, uses_anonymous_args = 0
 274              		@ link register save eliminated.
 124:Drivers/lvgl/src/extra/widgets/imgbtn/lv_imgbtn.c **** 
 275              		.loc 1 124 5 view .LVU67
 124:Drivers/lvgl/src/extra/widgets/imgbtn/lv_imgbtn.c **** 
 276              		.loc 1 124 5 view .LVU68
 124:Drivers/lvgl/src/extra/widgets/imgbtn/lv_imgbtn.c **** 
 277              		.loc 1 124 5 view .LVU69
 126:Drivers/lvgl/src/extra/widgets/imgbtn/lv_imgbtn.c **** 
 278              		.loc 1 126 5 view .LVU70
 128:Drivers/lvgl/src/extra/widgets/imgbtn/lv_imgbtn.c **** }
 279              		.loc 1 128 5 view .LVU71
 128:Drivers/lvgl/src/extra/widgets/imgbtn/lv_imgbtn.c **** }
 280              		.loc 1 128 32 is_stmt 0 view .LVU72
 281 0000 0E31     		adds	r1, r1, #14
 282              	.LVL29:
 128:Drivers/lvgl/src/extra/widgets/imgbtn/lv_imgbtn.c **** }
 283              		.loc 1 128 32 view .LVU73
 284 0002 00EB8100 		add	r0, r0, r1, lsl #2
 285              	.LVL30:
 129:Drivers/lvgl/src/extra/widgets/imgbtn/lv_imgbtn.c **** 
 286              		.loc 1 129 1 view .LVU74
 287 0006 4068     		ldr	r0, [r0, #4]
 288 0008 7047     		bx	lr
 289              		.cfi_endproc
 290              	.LFE207:
 292              		.section	.text.lv_imgbtn_get_src_middle,"ax",%progbits
 293              		.align	1
 294              		.global	lv_imgbtn_get_src_middle
 295              		.syntax unified
 296              		.thumb
 297              		.thumb_func
 299              	lv_imgbtn_get_src_middle:
 300              	.LVL31:
 301              	.LFB208:
 138:Drivers/lvgl/src/extra/widgets/imgbtn/lv_imgbtn.c ****     LV_ASSERT_OBJ(obj, MY_CLASS);
 302              		.loc 1 138 1 is_stmt 1 view -0
 303              		.cfi_startproc
 304              		@ args = 0, pretend = 0, frame = 0
 305              		@ frame_needed = 0, uses_anonymous_args = 0
 306              		@ link register save eliminated.
 139:Drivers/lvgl/src/extra/widgets/imgbtn/lv_imgbtn.c ****     lv_imgbtn_t * imgbtn = (lv_imgbtn_t *)obj;
 307              		.loc 1 139 5 view .LVU76
 139:Drivers/lvgl/src/extra/widgets/imgbtn/lv_imgbtn.c ****     lv_imgbtn_t * imgbtn = (lv_imgbtn_t *)obj;
 308              		.loc 1 139 5 view .LVU77
 139:Drivers/lvgl/src/extra/widgets/imgbtn/lv_imgbtn.c ****     lv_imgbtn_t * imgbtn = (lv_imgbtn_t *)obj;
 309              		.loc 1 139 5 view .LVU78
 140:Drivers/lvgl/src/extra/widgets/imgbtn/lv_imgbtn.c **** 
 310              		.loc 1 140 5 view .LVU79
 142:Drivers/lvgl/src/extra/widgets/imgbtn/lv_imgbtn.c **** }
 311              		.loc 1 142 5 view .LVU80
 142:Drivers/lvgl/src/extra/widgets/imgbtn/lv_imgbtn.c **** }
 312              		.loc 1 142 31 is_stmt 0 view .LVU81
ARM GAS  /var/folders/0z/tsy30v1j4xl4_7kw94k978ww0000gn/T//ccWYDXZi.s 			page 14


 313 0000 0831     		adds	r1, r1, #8
 314              	.LVL32:
 142:Drivers/lvgl/src/extra/widgets/imgbtn/lv_imgbtn.c **** }
 315              		.loc 1 142 31 view .LVU82
 316 0002 00EB8100 		add	r0, r0, r1, lsl #2
 317              	.LVL33:
 143:Drivers/lvgl/src/extra/widgets/imgbtn/lv_imgbtn.c **** 
 318              		.loc 1 143 1 view .LVU83
 319 0006 4068     		ldr	r0, [r0, #4]
 320 0008 7047     		bx	lr
 321              		.cfi_endproc
 322              	.LFE208:
 324              		.section	.text.lv_imgbtn_get_src_right,"ax",%progbits
 325              		.align	1
 326              		.global	lv_imgbtn_get_src_right
 327              		.syntax unified
 328              		.thumb
 329              		.thumb_func
 331              	lv_imgbtn_get_src_right:
 332              	.LVL34:
 333              	.LFB209:
 152:Drivers/lvgl/src/extra/widgets/imgbtn/lv_imgbtn.c ****     LV_ASSERT_OBJ(obj, MY_CLASS);
 334              		.loc 1 152 1 is_stmt 1 view -0
 335              		.cfi_startproc
 336              		@ args = 0, pretend = 0, frame = 0
 337              		@ frame_needed = 0, uses_anonymous_args = 0
 338              		@ link register save eliminated.
 153:Drivers/lvgl/src/extra/widgets/imgbtn/lv_imgbtn.c ****     lv_imgbtn_t * imgbtn = (lv_imgbtn_t *)obj;
 339              		.loc 1 153 5 view .LVU85
 153:Drivers/lvgl/src/extra/widgets/imgbtn/lv_imgbtn.c ****     lv_imgbtn_t * imgbtn = (lv_imgbtn_t *)obj;
 340              		.loc 1 153 5 view .LVU86
 153:Drivers/lvgl/src/extra/widgets/imgbtn/lv_imgbtn.c ****     lv_imgbtn_t * imgbtn = (lv_imgbtn_t *)obj;
 341              		.loc 1 153 5 view .LVU87
 154:Drivers/lvgl/src/extra/widgets/imgbtn/lv_imgbtn.c **** 
 342              		.loc 1 154 5 view .LVU88
 156:Drivers/lvgl/src/extra/widgets/imgbtn/lv_imgbtn.c **** }
 343              		.loc 1 156 5 view .LVU89
 156:Drivers/lvgl/src/extra/widgets/imgbtn/lv_imgbtn.c **** }
 344              		.loc 1 156 33 is_stmt 0 view .LVU90
 345 0000 1431     		adds	r1, r1, #20
 346              	.LVL35:
 156:Drivers/lvgl/src/extra/widgets/imgbtn/lv_imgbtn.c **** }
 347              		.loc 1 156 33 view .LVU91
 348 0002 00EB8100 		add	r0, r0, r1, lsl #2
 349              	.LVL36:
 157:Drivers/lvgl/src/extra/widgets/imgbtn/lv_imgbtn.c **** 
 350              		.loc 1 157 1 view .LVU92
 351 0006 4068     		ldr	r0, [r0, #4]
 352 0008 7047     		bx	lr
 353              		.cfi_endproc
 354              	.LFE209:
 356              		.section	.text.get_state,"ax",%progbits
 357              		.align	1
 358              		.global	get_state
 359              		.syntax unified
 360              		.thumb
 361              		.thumb_func
ARM GAS  /var/folders/0z/tsy30v1j4xl4_7kw94k978ww0000gn/T//ccWYDXZi.s 			page 15


 363              	get_state:
 364              	.LVL37:
 365              	.LFB215:
 364:Drivers/lvgl/src/extra/widgets/imgbtn/lv_imgbtn.c **** 
 365:Drivers/lvgl/src/extra/widgets/imgbtn/lv_imgbtn.c **** lv_imgbtn_state_t get_state(const lv_obj_t * imgbtn)
 366:Drivers/lvgl/src/extra/widgets/imgbtn/lv_imgbtn.c **** {
 366              		.loc 1 366 1 is_stmt 1 view -0
 367              		.cfi_startproc
 368              		@ args = 0, pretend = 0, frame = 0
 369              		@ frame_needed = 0, uses_anonymous_args = 0
 370              		.loc 1 366 1 is_stmt 0 view .LVU94
 371 0000 08B5     		push	{r3, lr}
 372              		.cfi_def_cfa_offset 8
 373              		.cfi_offset 3, -8
 374              		.cfi_offset 14, -4
 367:Drivers/lvgl/src/extra/widgets/imgbtn/lv_imgbtn.c ****     LV_ASSERT_OBJ(imgbtn, MY_CLASS);
 375              		.loc 1 367 5 is_stmt 1 view .LVU95
 376              		.loc 1 367 5 view .LVU96
 377              		.loc 1 367 5 view .LVU97
 368:Drivers/lvgl/src/extra/widgets/imgbtn/lv_imgbtn.c **** 
 369:Drivers/lvgl/src/extra/widgets/imgbtn/lv_imgbtn.c ****     lv_state_t obj_state = lv_obj_get_state(imgbtn);
 378              		.loc 1 369 5 view .LVU98
 379              		.loc 1 369 28 is_stmt 0 view .LVU99
 380 0002 FFF7FEFF 		bl	lv_obj_get_state
 381              	.LVL38:
 370:Drivers/lvgl/src/extra/widgets/imgbtn/lv_imgbtn.c **** 
 371:Drivers/lvgl/src/extra/widgets/imgbtn/lv_imgbtn.c ****     if(obj_state & LV_STATE_DISABLED) {
 382              		.loc 1 371 5 is_stmt 1 view .LVU100
 383              		.loc 1 371 7 is_stmt 0 view .LVU101
 384 0006 10F0800F 		tst	r0, #128
 385 000a 04D0     		beq	.L35
 372:Drivers/lvgl/src/extra/widgets/imgbtn/lv_imgbtn.c ****         if(obj_state & LV_STATE_CHECKED) return LV_IMGBTN_STATE_CHECKED_DISABLED;
 386              		.loc 1 372 9 is_stmt 1 view .LVU102
 387              		.loc 1 372 11 is_stmt 0 view .LVU103
 388 000c 10F0010F 		tst	r0, #1
 389 0010 0ED0     		beq	.L38
 390              		.loc 1 372 49 view .LVU104
 391 0012 0520     		movs	r0, #5
 392              	.LVL39:
 393              	.L36:
 373:Drivers/lvgl/src/extra/widgets/imgbtn/lv_imgbtn.c ****         else return LV_IMGBTN_STATE_DISABLED;
 374:Drivers/lvgl/src/extra/widgets/imgbtn/lv_imgbtn.c ****     }
 375:Drivers/lvgl/src/extra/widgets/imgbtn/lv_imgbtn.c **** 
 376:Drivers/lvgl/src/extra/widgets/imgbtn/lv_imgbtn.c ****     if(obj_state & LV_STATE_CHECKED) {
 377:Drivers/lvgl/src/extra/widgets/imgbtn/lv_imgbtn.c ****         if(obj_state & LV_STATE_PRESSED) return LV_IMGBTN_STATE_CHECKED_PRESSED;
 378:Drivers/lvgl/src/extra/widgets/imgbtn/lv_imgbtn.c ****         else return LV_IMGBTN_STATE_CHECKED_RELEASED;
 379:Drivers/lvgl/src/extra/widgets/imgbtn/lv_imgbtn.c ****     }
 380:Drivers/lvgl/src/extra/widgets/imgbtn/lv_imgbtn.c ****     else {
 381:Drivers/lvgl/src/extra/widgets/imgbtn/lv_imgbtn.c ****         if(obj_state & LV_STATE_PRESSED) return LV_IMGBTN_STATE_PRESSED;
 382:Drivers/lvgl/src/extra/widgets/imgbtn/lv_imgbtn.c ****         else return LV_IMGBTN_STATE_RELEASED;
 383:Drivers/lvgl/src/extra/widgets/imgbtn/lv_imgbtn.c ****     }
 384:Drivers/lvgl/src/extra/widgets/imgbtn/lv_imgbtn.c **** }
 394              		.loc 1 384 1 view .LVU105
 395 0014 08BD     		pop	{r3, pc}
 396              	.LVL40:
 397              	.L35:
 376:Drivers/lvgl/src/extra/widgets/imgbtn/lv_imgbtn.c ****         if(obj_state & LV_STATE_PRESSED) return LV_IMGBTN_STATE_CHECKED_PRESSED;
ARM GAS  /var/folders/0z/tsy30v1j4xl4_7kw94k978ww0000gn/T//ccWYDXZi.s 			page 16


 398              		.loc 1 376 5 is_stmt 1 view .LVU106
 376:Drivers/lvgl/src/extra/widgets/imgbtn/lv_imgbtn.c ****         if(obj_state & LV_STATE_PRESSED) return LV_IMGBTN_STATE_CHECKED_PRESSED;
 399              		.loc 1 376 7 is_stmt 0 view .LVU107
 400 0016 10F0010F 		tst	r0, #1
 401 001a 04D0     		beq	.L37
 377:Drivers/lvgl/src/extra/widgets/imgbtn/lv_imgbtn.c ****         else return LV_IMGBTN_STATE_CHECKED_RELEASED;
 402              		.loc 1 377 9 is_stmt 1 view .LVU108
 377:Drivers/lvgl/src/extra/widgets/imgbtn/lv_imgbtn.c ****         else return LV_IMGBTN_STATE_CHECKED_RELEASED;
 403              		.loc 1 377 11 is_stmt 0 view .LVU109
 404 001c 10F0200F 		tst	r0, #32
 405 0020 08D0     		beq	.L39
 377:Drivers/lvgl/src/extra/widgets/imgbtn/lv_imgbtn.c ****         else return LV_IMGBTN_STATE_CHECKED_RELEASED;
 406              		.loc 1 377 49 view .LVU110
 407 0022 0420     		movs	r0, #4
 408              	.LVL41:
 377:Drivers/lvgl/src/extra/widgets/imgbtn/lv_imgbtn.c ****         else return LV_IMGBTN_STATE_CHECKED_RELEASED;
 409              		.loc 1 377 49 view .LVU111
 410 0024 F6E7     		b	.L36
 411              	.LVL42:
 412              	.L37:
 381:Drivers/lvgl/src/extra/widgets/imgbtn/lv_imgbtn.c ****         else return LV_IMGBTN_STATE_RELEASED;
 413              		.loc 1 381 9 is_stmt 1 view .LVU112
 381:Drivers/lvgl/src/extra/widgets/imgbtn/lv_imgbtn.c ****         else return LV_IMGBTN_STATE_RELEASED;
 414              		.loc 1 381 11 is_stmt 0 view .LVU113
 415 0026 10F0200F 		tst	r0, #32
 416 002a 05D0     		beq	.L40
 381:Drivers/lvgl/src/extra/widgets/imgbtn/lv_imgbtn.c ****         else return LV_IMGBTN_STATE_RELEASED;
 417              		.loc 1 381 49 view .LVU114
 418 002c 0120     		movs	r0, #1
 419              	.LVL43:
 381:Drivers/lvgl/src/extra/widgets/imgbtn/lv_imgbtn.c ****         else return LV_IMGBTN_STATE_RELEASED;
 420              		.loc 1 381 49 view .LVU115
 421 002e F1E7     		b	.L36
 422              	.LVL44:
 423              	.L38:
 373:Drivers/lvgl/src/extra/widgets/imgbtn/lv_imgbtn.c ****     }
 424              		.loc 1 373 21 view .LVU116
 425 0030 0220     		movs	r0, #2
 426              	.LVL45:
 373:Drivers/lvgl/src/extra/widgets/imgbtn/lv_imgbtn.c ****     }
 427              		.loc 1 373 21 view .LVU117
 428 0032 EFE7     		b	.L36
 429              	.LVL46:
 430              	.L39:
 378:Drivers/lvgl/src/extra/widgets/imgbtn/lv_imgbtn.c ****     }
 431              		.loc 1 378 21 view .LVU118
 432 0034 0320     		movs	r0, #3
 433              	.LVL47:
 378:Drivers/lvgl/src/extra/widgets/imgbtn/lv_imgbtn.c ****     }
 434              		.loc 1 378 21 view .LVU119
 435 0036 EDE7     		b	.L36
 436              	.LVL48:
 437              	.L40:
 382:Drivers/lvgl/src/extra/widgets/imgbtn/lv_imgbtn.c ****     }
 438              		.loc 1 382 21 view .LVU120
 439 0038 0020     		movs	r0, #0
 440              	.LVL49:
ARM GAS  /var/folders/0z/tsy30v1j4xl4_7kw94k978ww0000gn/T//ccWYDXZi.s 			page 17


 382:Drivers/lvgl/src/extra/widgets/imgbtn/lv_imgbtn.c ****     }
 441              		.loc 1 382 21 view .LVU121
 442 003a EBE7     		b	.L36
 443              		.cfi_endproc
 444              	.LFE215:
 446              		.section	.text.refr_img,"ax",%progbits
 447              		.align	1
 448              		.syntax unified
 449              		.thumb
 450              		.thumb_func
 452              	refr_img:
 453              	.LVL50:
 454              	.LFB213:
 304:Drivers/lvgl/src/extra/widgets/imgbtn/lv_imgbtn.c ****     lv_imgbtn_t * imgbtn = (lv_imgbtn_t *)obj;
 455              		.loc 1 304 1 is_stmt 1 view -0
 456              		.cfi_startproc
 457              		@ args = 0, pretend = 0, frame = 8
 458              		@ frame_needed = 0, uses_anonymous_args = 0
 304:Drivers/lvgl/src/extra/widgets/imgbtn/lv_imgbtn.c ****     lv_imgbtn_t * imgbtn = (lv_imgbtn_t *)obj;
 459              		.loc 1 304 1 is_stmt 0 view .LVU123
 460 0000 10B5     		push	{r4, lr}
 461              		.cfi_def_cfa_offset 8
 462              		.cfi_offset 4, -8
 463              		.cfi_offset 14, -4
 464 0002 82B0     		sub	sp, sp, #8
 465              		.cfi_def_cfa_offset 16
 466 0004 0446     		mov	r4, r0
 305:Drivers/lvgl/src/extra/widgets/imgbtn/lv_imgbtn.c ****     lv_imgbtn_state_t state  = suggest_state(obj, get_state(obj));
 467              		.loc 1 305 5 is_stmt 1 view .LVU124
 468              	.LVL51:
 306:Drivers/lvgl/src/extra/widgets/imgbtn/lv_imgbtn.c ****     lv_img_header_t header;
 469              		.loc 1 306 5 view .LVU125
 306:Drivers/lvgl/src/extra/widgets/imgbtn/lv_imgbtn.c ****     lv_img_header_t header;
 470              		.loc 1 306 32 is_stmt 0 view .LVU126
 471 0006 FFF7FEFF 		bl	get_state
 472              	.LVL52:
 306:Drivers/lvgl/src/extra/widgets/imgbtn/lv_imgbtn.c ****     lv_img_header_t header;
 473              		.loc 1 306 32 view .LVU127
 474 000a 0146     		mov	r1, r0
 475 000c 2046     		mov	r0, r4
 476 000e FFF7FEFF 		bl	suggest_state
 477              	.LVL53:
 307:Drivers/lvgl/src/extra/widgets/imgbtn/lv_imgbtn.c **** 
 478              		.loc 1 307 5 is_stmt 1 view .LVU128
 309:Drivers/lvgl/src/extra/widgets/imgbtn/lv_imgbtn.c ****     if(src == NULL) return;
 479              		.loc 1 309 5 view .LVU129
 309:Drivers/lvgl/src/extra/widgets/imgbtn/lv_imgbtn.c ****     if(src == NULL) return;
 480              		.loc 1 309 18 is_stmt 0 view .LVU130
 481 0012 0830     		adds	r0, r0, #8
 482              	.LVL54:
 309:Drivers/lvgl/src/extra/widgets/imgbtn/lv_imgbtn.c ****     if(src == NULL) return;
 483              		.loc 1 309 18 view .LVU131
 484 0014 04EB8000 		add	r0, r4, r0, lsl #2
 485 0018 4068     		ldr	r0, [r0, #4]
 486              	.LVL55:
 310:Drivers/lvgl/src/extra/widgets/imgbtn/lv_imgbtn.c **** 
 487              		.loc 1 310 5 is_stmt 1 view .LVU132
ARM GAS  /var/folders/0z/tsy30v1j4xl4_7kw94k978ww0000gn/T//ccWYDXZi.s 			page 18


 310:Drivers/lvgl/src/extra/widgets/imgbtn/lv_imgbtn.c **** 
 488              		.loc 1 310 7 is_stmt 0 view .LVU133
 489 001a 50B1     		cbz	r0, .L42
 312:Drivers/lvgl/src/extra/widgets/imgbtn/lv_imgbtn.c ****     info_res = lv_img_decoder_get_info(src, &header);
 490              		.loc 1 312 5 is_stmt 1 view .LVU134
 491              	.LVL56:
 313:Drivers/lvgl/src/extra/widgets/imgbtn/lv_imgbtn.c **** 
 492              		.loc 1 313 5 view .LVU135
 313:Drivers/lvgl/src/extra/widgets/imgbtn/lv_imgbtn.c **** 
 493              		.loc 1 313 16 is_stmt 0 view .LVU136
 494 001c 01A9     		add	r1, sp, #4
 495 001e FFF7FEFF 		bl	lv_img_decoder_get_info
 496              	.LVL57:
 315:Drivers/lvgl/src/extra/widgets/imgbtn/lv_imgbtn.c ****         imgbtn->act_cf = header.cf;
 497              		.loc 1 315 5 is_stmt 1 view .LVU137
 315:Drivers/lvgl/src/extra/widgets/imgbtn/lv_imgbtn.c ****         imgbtn->act_cf = header.cf;
 498              		.loc 1 315 7 is_stmt 0 view .LVU138
 499 0022 0128     		cmp	r0, #1
 500 0024 07D0     		beq	.L48
 321:Drivers/lvgl/src/extra/widgets/imgbtn/lv_imgbtn.c ****     }
 501              		.loc 1 321 9 is_stmt 1 view .LVU139
 321:Drivers/lvgl/src/extra/widgets/imgbtn/lv_imgbtn.c ****     }
 502              		.loc 1 321 24 is_stmt 0 view .LVU140
 503 0026 0023     		movs	r3, #0
 504 0028 84F86C30 		strb	r3, [r4, #108]
 505              	.LVL58:
 506              	.L46:
 324:Drivers/lvgl/src/extra/widgets/imgbtn/lv_imgbtn.c **** }
 507              		.loc 1 324 5 is_stmt 1 view .LVU141
 508 002c 2046     		mov	r0, r4
 509 002e FFF7FEFF 		bl	lv_obj_invalidate
 510              	.LVL59:
 511              	.L42:
 325:Drivers/lvgl/src/extra/widgets/imgbtn/lv_imgbtn.c **** 
 512              		.loc 1 325 1 is_stmt 0 view .LVU142
 513 0032 02B0     		add	sp, sp, #8
 514              		.cfi_remember_state
 515              		.cfi_def_cfa_offset 8
 516              		@ sp needed
 517 0034 10BD     		pop	{r4, pc}
 518              	.LVL60:
 519              	.L48:
 520              		.cfi_restore_state
 316:Drivers/lvgl/src/extra/widgets/imgbtn/lv_imgbtn.c ****         lv_obj_refresh_self_size(obj);
 521              		.loc 1 316 9 is_stmt 1 view .LVU143
 316:Drivers/lvgl/src/extra/widgets/imgbtn/lv_imgbtn.c ****         lv_obj_refresh_self_size(obj);
 522              		.loc 1 316 32 is_stmt 0 view .LVU144
 523 0036 9DF80430 		ldrb	r3, [sp, #4]	@ zero_extendqisi2
 524 003a C3F30403 		ubfx	r3, r3, #0, #5
 316:Drivers/lvgl/src/extra/widgets/imgbtn/lv_imgbtn.c ****         lv_obj_refresh_self_size(obj);
 525              		.loc 1 316 24 view .LVU145
 526 003e 84F86C30 		strb	r3, [r4, #108]
 317:Drivers/lvgl/src/extra/widgets/imgbtn/lv_imgbtn.c ****         lv_obj_set_height(obj, header.h); /*Keep the user defined width*/
 527              		.loc 1 317 9 is_stmt 1 view .LVU146
 528 0042 2046     		mov	r0, r4
 529              	.LVL61:
 317:Drivers/lvgl/src/extra/widgets/imgbtn/lv_imgbtn.c ****         lv_obj_set_height(obj, header.h); /*Keep the user defined width*/
ARM GAS  /var/folders/0z/tsy30v1j4xl4_7kw94k978ww0000gn/T//ccWYDXZi.s 			page 19


 530              		.loc 1 317 9 is_stmt 0 view .LVU147
 531 0044 FFF7FEFF 		bl	lv_obj_refresh_self_size
 532              	.LVL62:
 318:Drivers/lvgl/src/extra/widgets/imgbtn/lv_imgbtn.c ****     }
 533              		.loc 1 318 9 is_stmt 1 view .LVU148
 318:Drivers/lvgl/src/extra/widgets/imgbtn/lv_imgbtn.c ****     }
 534              		.loc 1 318 38 is_stmt 0 view .LVU149
 535 0048 BDF80610 		ldrh	r1, [sp, #6]
 318:Drivers/lvgl/src/extra/widgets/imgbtn/lv_imgbtn.c ****     }
 536              		.loc 1 318 9 view .LVU150
 537 004c C1F34A11 		ubfx	r1, r1, #5, #11
 538 0050 2046     		mov	r0, r4
 539 0052 FFF7FEFF 		bl	lv_obj_set_height
 540              	.LVL63:
 541 0056 E9E7     		b	.L46
 542              		.cfi_endproc
 543              	.LFE213:
 545              		.section	.text.lv_imgbtn_set_src,"ax",%progbits
 546              		.align	1
 547              		.global	lv_imgbtn_set_src
 548              		.syntax unified
 549              		.thumb
 550              		.thumb_func
 552              	lv_imgbtn_set_src:
 553              	.LVL64:
 554              	.LFB205:
  81:Drivers/lvgl/src/extra/widgets/imgbtn/lv_imgbtn.c ****     LV_ASSERT_OBJ(obj, MY_CLASS);
 555              		.loc 1 81 1 is_stmt 1 view -0
 556              		.cfi_startproc
 557              		@ args = 4, pretend = 0, frame = 0
 558              		@ frame_needed = 0, uses_anonymous_args = 0
  81:Drivers/lvgl/src/extra/widgets/imgbtn/lv_imgbtn.c ****     LV_ASSERT_OBJ(obj, MY_CLASS);
 559              		.loc 1 81 1 is_stmt 0 view .LVU152
 560 0000 08B5     		push	{r3, lr}
 561              		.cfi_def_cfa_offset 8
 562              		.cfi_offset 3, -8
 563              		.cfi_offset 14, -4
  82:Drivers/lvgl/src/extra/widgets/imgbtn/lv_imgbtn.c **** 
 564              		.loc 1 82 5 is_stmt 1 view .LVU153
  82:Drivers/lvgl/src/extra/widgets/imgbtn/lv_imgbtn.c **** 
 565              		.loc 1 82 5 view .LVU154
  82:Drivers/lvgl/src/extra/widgets/imgbtn/lv_imgbtn.c **** 
 566              		.loc 1 82 5 view .LVU155
  84:Drivers/lvgl/src/extra/widgets/imgbtn/lv_imgbtn.c **** 
 567              		.loc 1 84 5 view .LVU156
 568              	.LVL65:
  86:Drivers/lvgl/src/extra/widgets/imgbtn/lv_imgbtn.c ****     imgbtn->img_src_mid[state] = src_mid;
 569              		.loc 1 86 5 view .LVU157
  86:Drivers/lvgl/src/extra/widgets/imgbtn/lv_imgbtn.c ****     imgbtn->img_src_mid[state] = src_mid;
 570              		.loc 1 86 33 is_stmt 0 view .LVU158
 571 0002 01F10E0E 		add	lr, r1, #14
 572 0006 00EB8E0E 		add	lr, r0, lr, lsl #2
 573 000a CEF80420 		str	r2, [lr, #4]
  87:Drivers/lvgl/src/extra/widgets/imgbtn/lv_imgbtn.c ****     imgbtn->img_src_right[state] = src_right;
 574              		.loc 1 87 5 is_stmt 1 view .LVU159
  87:Drivers/lvgl/src/extra/widgets/imgbtn/lv_imgbtn.c ****     imgbtn->img_src_right[state] = src_right;
 575              		.loc 1 87 32 is_stmt 0 view .LVU160
ARM GAS  /var/folders/0z/tsy30v1j4xl4_7kw94k978ww0000gn/T//ccWYDXZi.s 			page 20


 576 000e 01F10802 		add	r2, r1, #8
 577              	.LVL66:
  87:Drivers/lvgl/src/extra/widgets/imgbtn/lv_imgbtn.c ****     imgbtn->img_src_right[state] = src_right;
 578              		.loc 1 87 32 view .LVU161
 579 0012 00EB8202 		add	r2, r0, r2, lsl #2
 580 0016 5360     		str	r3, [r2, #4]
 581              	.LVL67:
  88:Drivers/lvgl/src/extra/widgets/imgbtn/lv_imgbtn.c **** 
 582              		.loc 1 88 5 is_stmt 1 view .LVU162
  88:Drivers/lvgl/src/extra/widgets/imgbtn/lv_imgbtn.c **** 
 583              		.loc 1 88 34 is_stmt 0 view .LVU163
 584 0018 1431     		adds	r1, r1, #20
 585              	.LVL68:
  88:Drivers/lvgl/src/extra/widgets/imgbtn/lv_imgbtn.c **** 
 586              		.loc 1 88 34 view .LVU164
 587 001a 00EB810C 		add	ip, r0, r1, lsl #2
 588 001e 029B     		ldr	r3, [sp, #8]
 589              	.LVL69:
  88:Drivers/lvgl/src/extra/widgets/imgbtn/lv_imgbtn.c **** 
 590              		.loc 1 88 34 view .LVU165
 591 0020 CCF80430 		str	r3, [ip, #4]
 592              	.LVL70:
  90:Drivers/lvgl/src/extra/widgets/imgbtn/lv_imgbtn.c **** }
 593              		.loc 1 90 5 is_stmt 1 view .LVU166
 594 0024 FFF7FEFF 		bl	refr_img
 595              	.LVL71:
  91:Drivers/lvgl/src/extra/widgets/imgbtn/lv_imgbtn.c **** 
 596              		.loc 1 91 1 is_stmt 0 view .LVU167
 597 0028 08BD     		pop	{r3, pc}
  91:Drivers/lvgl/src/extra/widgets/imgbtn/lv_imgbtn.c **** 
 598              		.loc 1 91 1 view .LVU168
 599              		.cfi_endproc
 600              	.LFE205:
 602              		.section	.text.lv_imgbtn_set_state,"ax",%progbits
 603              		.align	1
 604              		.global	lv_imgbtn_set_state
 605              		.syntax unified
 606              		.thumb
 607              		.thumb_func
 609              	lv_imgbtn_set_state:
 610              	.LVL72:
 611              	.LFB206:
  94:Drivers/lvgl/src/extra/widgets/imgbtn/lv_imgbtn.c ****     LV_ASSERT_OBJ(obj, MY_CLASS);
 612              		.loc 1 94 1 is_stmt 1 view -0
 613              		.cfi_startproc
 614              		@ args = 0, pretend = 0, frame = 0
 615              		@ frame_needed = 0, uses_anonymous_args = 0
  94:Drivers/lvgl/src/extra/widgets/imgbtn/lv_imgbtn.c ****     LV_ASSERT_OBJ(obj, MY_CLASS);
 616              		.loc 1 94 1 is_stmt 0 view .LVU170
 617 0000 38B5     		push	{r3, r4, r5, lr}
 618              		.cfi_def_cfa_offset 16
 619              		.cfi_offset 3, -16
 620              		.cfi_offset 4, -12
 621              		.cfi_offset 5, -8
 622              		.cfi_offset 14, -4
 623 0002 0446     		mov	r4, r0
  95:Drivers/lvgl/src/extra/widgets/imgbtn/lv_imgbtn.c **** 
ARM GAS  /var/folders/0z/tsy30v1j4xl4_7kw94k978ww0000gn/T//ccWYDXZi.s 			page 21


 624              		.loc 1 95 5 is_stmt 1 view .LVU171
  95:Drivers/lvgl/src/extra/widgets/imgbtn/lv_imgbtn.c **** 
 625              		.loc 1 95 5 view .LVU172
  95:Drivers/lvgl/src/extra/widgets/imgbtn/lv_imgbtn.c **** 
 626              		.loc 1 95 5 view .LVU173
  97:Drivers/lvgl/src/extra/widgets/imgbtn/lv_imgbtn.c ****     if(state == LV_IMGBTN_STATE_PRESSED || state == LV_IMGBTN_STATE_CHECKED_PRESSED) obj_state |= L
 627              		.loc 1 97 5 view .LVU174
 628              	.LVL73:
  98:Drivers/lvgl/src/extra/widgets/imgbtn/lv_imgbtn.c ****     if(state == LV_IMGBTN_STATE_DISABLED || state == LV_IMGBTN_STATE_CHECKED_DISABLED) obj_state |=
 629              		.loc 1 98 5 view .LVU175
  98:Drivers/lvgl/src/extra/widgets/imgbtn/lv_imgbtn.c ****     if(state == LV_IMGBTN_STATE_DISABLED || state == LV_IMGBTN_STATE_CHECKED_DISABLED) obj_state |=
 630              		.loc 1 98 7 is_stmt 0 view .LVU176
 631 0004 0129     		cmp	r1, #1
 632 0006 1AD0     		beq	.L56
  98:Drivers/lvgl/src/extra/widgets/imgbtn/lv_imgbtn.c ****     if(state == LV_IMGBTN_STATE_DISABLED || state == LV_IMGBTN_STATE_CHECKED_DISABLED) obj_state |=
 633              		.loc 1 98 41 discriminator 2 view .LVU177
 634 0008 0429     		cmp	r1, #4
 635 000a 1AD0     		beq	.L57
  97:Drivers/lvgl/src/extra/widgets/imgbtn/lv_imgbtn.c ****     if(state == LV_IMGBTN_STATE_PRESSED || state == LV_IMGBTN_STATE_CHECKED_PRESSED) obj_state |= L
 636              		.loc 1 97 16 view .LVU178
 637 000c 0025     		movs	r5, #0
 638              	.L52:
 639              	.LVL74:
  99:Drivers/lvgl/src/extra/widgets/imgbtn/lv_imgbtn.c ****     if(state == LV_IMGBTN_STATE_CHECKED_DISABLED || state == LV_IMGBTN_STATE_CHECKED_PRESSED ||
 640              		.loc 1 99 5 is_stmt 1 view .LVU179
  99:Drivers/lvgl/src/extra/widgets/imgbtn/lv_imgbtn.c ****     if(state == LV_IMGBTN_STATE_CHECKED_DISABLED || state == LV_IMGBTN_STATE_CHECKED_PRESSED ||
 641              		.loc 1 99 7 is_stmt 0 view .LVU180
 642 000e 0229     		cmp	r1, #2
 643 0010 01D0     		beq	.L53
  99:Drivers/lvgl/src/extra/widgets/imgbtn/lv_imgbtn.c ****     if(state == LV_IMGBTN_STATE_CHECKED_DISABLED || state == LV_IMGBTN_STATE_CHECKED_PRESSED ||
 644              		.loc 1 99 42 discriminator 2 view .LVU181
 645 0012 0529     		cmp	r1, #5
 646 0014 01D1     		bne	.L54
 647              	.L53:
  99:Drivers/lvgl/src/extra/widgets/imgbtn/lv_imgbtn.c ****     if(state == LV_IMGBTN_STATE_CHECKED_DISABLED || state == LV_IMGBTN_STATE_CHECKED_PRESSED ||
 648              		.loc 1 99 88 is_stmt 1 discriminator 3 view .LVU182
  99:Drivers/lvgl/src/extra/widgets/imgbtn/lv_imgbtn.c ****     if(state == LV_IMGBTN_STATE_CHECKED_DISABLED || state == LV_IMGBTN_STATE_CHECKED_PRESSED ||
 649              		.loc 1 99 98 is_stmt 0 discriminator 3 view .LVU183
 650 0016 45F08005 		orr	r5, r5, #128
 651              	.LVL75:
 652              	.L54:
 100:Drivers/lvgl/src/extra/widgets/imgbtn/lv_imgbtn.c ****        state == LV_IMGBTN_STATE_CHECKED_RELEASED) {
 653              		.loc 1 100 5 is_stmt 1 view .LVU184
 100:Drivers/lvgl/src/extra/widgets/imgbtn/lv_imgbtn.c ****        state == LV_IMGBTN_STATE_CHECKED_RELEASED) {
 654              		.loc 1 100 94 is_stmt 0 view .LVU185
 655 001a 0339     		subs	r1, r1, #3
 656              	.LVL76:
 100:Drivers/lvgl/src/extra/widgets/imgbtn/lv_imgbtn.c ****        state == LV_IMGBTN_STATE_CHECKED_RELEASED) {
 657              		.loc 1 100 94 view .LVU186
 658 001c C9B2     		uxtb	r1, r1
 100:Drivers/lvgl/src/extra/widgets/imgbtn/lv_imgbtn.c ****        state == LV_IMGBTN_STATE_CHECKED_RELEASED) {
 659              		.loc 1 100 7 view .LVU187
 660 001e 0229     		cmp	r1, #2
 661 0020 01D8     		bhi	.L55
 102:Drivers/lvgl/src/extra/widgets/imgbtn/lv_imgbtn.c ****     }
 662              		.loc 1 102 9 is_stmt 1 view .LVU188
 102:Drivers/lvgl/src/extra/widgets/imgbtn/lv_imgbtn.c ****     }
ARM GAS  /var/folders/0z/tsy30v1j4xl4_7kw94k978ww0000gn/T//ccWYDXZi.s 			page 22


 663              		.loc 1 102 19 is_stmt 0 view .LVU189
 664 0022 45F00105 		orr	r5, r5, #1
 665              	.LVL77:
 666              	.L55:
 105:Drivers/lvgl/src/extra/widgets/imgbtn/lv_imgbtn.c ****     lv_obj_add_state(obj, obj_state);
 667              		.loc 1 105 5 is_stmt 1 view .LVU190
 668 0026 A121     		movs	r1, #161
 669 0028 2046     		mov	r0, r4
 670              	.LVL78:
 105:Drivers/lvgl/src/extra/widgets/imgbtn/lv_imgbtn.c ****     lv_obj_add_state(obj, obj_state);
 671              		.loc 1 105 5 is_stmt 0 view .LVU191
 672 002a FFF7FEFF 		bl	lv_obj_clear_state
 673              	.LVL79:
 106:Drivers/lvgl/src/extra/widgets/imgbtn/lv_imgbtn.c **** 
 674              		.loc 1 106 5 is_stmt 1 view .LVU192
 675 002e 2946     		mov	r1, r5
 676 0030 2046     		mov	r0, r4
 677 0032 FFF7FEFF 		bl	lv_obj_add_state
 678              	.LVL80:
 108:Drivers/lvgl/src/extra/widgets/imgbtn/lv_imgbtn.c **** }
 679              		.loc 1 108 5 view .LVU193
 680 0036 2046     		mov	r0, r4
 681 0038 FFF7FEFF 		bl	refr_img
 682              	.LVL81:
 109:Drivers/lvgl/src/extra/widgets/imgbtn/lv_imgbtn.c **** 
 683              		.loc 1 109 1 is_stmt 0 view .LVU194
 684 003c 38BD     		pop	{r3, r4, r5, pc}
 685              	.LVL82:
 686              	.L56:
  98:Drivers/lvgl/src/extra/widgets/imgbtn/lv_imgbtn.c ****     if(state == LV_IMGBTN_STATE_DISABLED || state == LV_IMGBTN_STATE_CHECKED_DISABLED) obj_state |=
 687              		.loc 1 98 96 view .LVU195
 688 003e 2025     		movs	r5, #32
 689 0040 E5E7     		b	.L52
 690              	.L57:
 691 0042 2025     		movs	r5, #32
 692 0044 E3E7     		b	.L52
 693              		.cfi_endproc
 694              	.LFE206:
 696              		.section	.text.draw_main,"ax",%progbits
 697              		.align	1
 698              		.syntax unified
 699              		.thumb
 700              		.thumb_func
 702              	draw_main:
 703              	.LVL83:
 704              	.LFB212:
 220:Drivers/lvgl/src/extra/widgets/imgbtn/lv_imgbtn.c ****     lv_obj_t * obj = lv_event_get_target(e);
 705              		.loc 1 220 1 is_stmt 1 view -0
 706              		.cfi_startproc
 707              		@ args = 0, pretend = 0, frame = 72
 708              		@ frame_needed = 0, uses_anonymous_args = 0
 220:Drivers/lvgl/src/extra/widgets/imgbtn/lv_imgbtn.c ****     lv_obj_t * obj = lv_event_get_target(e);
 709              		.loc 1 220 1 is_stmt 0 view .LVU197
 710 0000 2DE9F04F 		push	{r4, r5, r6, r7, r8, r9, r10, fp, lr}
 711              		.cfi_def_cfa_offset 36
 712              		.cfi_offset 4, -36
 713              		.cfi_offset 5, -32
ARM GAS  /var/folders/0z/tsy30v1j4xl4_7kw94k978ww0000gn/T//ccWYDXZi.s 			page 23


 714              		.cfi_offset 6, -28
 715              		.cfi_offset 7, -24
 716              		.cfi_offset 8, -20
 717              		.cfi_offset 9, -16
 718              		.cfi_offset 10, -12
 719              		.cfi_offset 11, -8
 720              		.cfi_offset 14, -4
 721 0004 93B0     		sub	sp, sp, #76
 722              		.cfi_def_cfa_offset 112
 723 0006 0546     		mov	r5, r0
 221:Drivers/lvgl/src/extra/widgets/imgbtn/lv_imgbtn.c ****     lv_imgbtn_t * imgbtn = (lv_imgbtn_t *)obj;
 724              		.loc 1 221 5 is_stmt 1 view .LVU198
 221:Drivers/lvgl/src/extra/widgets/imgbtn/lv_imgbtn.c ****     lv_imgbtn_t * imgbtn = (lv_imgbtn_t *)obj;
 725              		.loc 1 221 22 is_stmt 0 view .LVU199
 726 0008 FFF7FEFF 		bl	lv_event_get_target
 727              	.LVL84:
 221:Drivers/lvgl/src/extra/widgets/imgbtn/lv_imgbtn.c ****     lv_imgbtn_t * imgbtn = (lv_imgbtn_t *)obj;
 728              		.loc 1 221 22 view .LVU200
 729 000c 0446     		mov	r4, r0
 730              	.LVL85:
 222:Drivers/lvgl/src/extra/widgets/imgbtn/lv_imgbtn.c ****     lv_draw_ctx_t * draw_ctx = lv_event_get_draw_ctx(e);
 731              		.loc 1 222 5 is_stmt 1 view .LVU201
 223:Drivers/lvgl/src/extra/widgets/imgbtn/lv_imgbtn.c **** 
 732              		.loc 1 223 5 view .LVU202
 223:Drivers/lvgl/src/extra/widgets/imgbtn/lv_imgbtn.c **** 
 733              		.loc 1 223 32 is_stmt 0 view .LVU203
 734 000e 2846     		mov	r0, r5
 735              	.LVL86:
 223:Drivers/lvgl/src/extra/widgets/imgbtn/lv_imgbtn.c **** 
 736              		.loc 1 223 32 view .LVU204
 737 0010 FFF7FEFF 		bl	lv_event_get_draw_ctx
 738              	.LVL87:
 739 0014 8246     		mov	r10, r0
 740              	.LVL88:
 226:Drivers/lvgl/src/extra/widgets/imgbtn/lv_imgbtn.c **** 
 741              		.loc 1 226 5 is_stmt 1 view .LVU205
 226:Drivers/lvgl/src/extra/widgets/imgbtn/lv_imgbtn.c **** 
 742              		.loc 1 226 32 is_stmt 0 view .LVU206
 743 0016 2046     		mov	r0, r4
 744              	.LVL89:
 226:Drivers/lvgl/src/extra/widgets/imgbtn/lv_imgbtn.c **** 
 745              		.loc 1 226 32 view .LVU207
 746 0018 FFF7FEFF 		bl	get_state
 747              	.LVL90:
 748 001c 0146     		mov	r1, r0
 749 001e 2046     		mov	r0, r4
 750 0020 FFF7FEFF 		bl	suggest_state
 751              	.LVL91:
 752 0024 8146     		mov	r9, r0
 753              	.LVL92:
 229:Drivers/lvgl/src/extra/widgets/imgbtn/lv_imgbtn.c **** 
 754              		.loc 1 229 5 is_stmt 1 view .LVU208
 229:Drivers/lvgl/src/extra/widgets/imgbtn/lv_imgbtn.c **** 
 755              		.loc 1 229 18 is_stmt 0 view .LVU209
 756 0026 00F10E03 		add	r3, r0, #14
 757 002a 04EB8303 		add	r3, r4, r3, lsl #2
 758 002e D3F804B0 		ldr	fp, [r3, #4]
ARM GAS  /var/folders/0z/tsy30v1j4xl4_7kw94k978ww0000gn/T//ccWYDXZi.s 			page 24


 759              	.LVL93:
 231:Drivers/lvgl/src/extra/widgets/imgbtn/lv_imgbtn.c ****     lv_coord_t th = lv_obj_get_style_transform_height(obj, LV_PART_MAIN);
 760              		.loc 1 231 5 is_stmt 1 view .LVU210
 761              	.LBB10:
 762              	.LBI10:
 763              		.file 2 "Drivers/lvgl/src/extra/widgets/imgbtn/../../../../src/core/lv_obj_style_gen.h"
   1:Drivers/lvgl/src/extra/widgets/imgbtn/../../../../src/core/lv_obj_style_gen.h **** static inline lv_coord_t lv_obj_get_style_width(const struct _lv_obj_t * obj, uint32_t part)
   2:Drivers/lvgl/src/extra/widgets/imgbtn/../../../../src/core/lv_obj_style_gen.h **** {
   3:Drivers/lvgl/src/extra/widgets/imgbtn/../../../../src/core/lv_obj_style_gen.h ****     lv_style_value_t v = lv_obj_get_style_prop(obj, part, LV_STYLE_WIDTH);
   4:Drivers/lvgl/src/extra/widgets/imgbtn/../../../../src/core/lv_obj_style_gen.h ****     return (lv_coord_t)v.num;
   5:Drivers/lvgl/src/extra/widgets/imgbtn/../../../../src/core/lv_obj_style_gen.h **** }
   6:Drivers/lvgl/src/extra/widgets/imgbtn/../../../../src/core/lv_obj_style_gen.h **** 
   7:Drivers/lvgl/src/extra/widgets/imgbtn/../../../../src/core/lv_obj_style_gen.h **** static inline lv_coord_t lv_obj_get_style_min_width(const struct _lv_obj_t * obj, uint32_t part)
   8:Drivers/lvgl/src/extra/widgets/imgbtn/../../../../src/core/lv_obj_style_gen.h **** {
   9:Drivers/lvgl/src/extra/widgets/imgbtn/../../../../src/core/lv_obj_style_gen.h ****     lv_style_value_t v = lv_obj_get_style_prop(obj, part, LV_STYLE_MIN_WIDTH);
  10:Drivers/lvgl/src/extra/widgets/imgbtn/../../../../src/core/lv_obj_style_gen.h ****     return (lv_coord_t)v.num;
  11:Drivers/lvgl/src/extra/widgets/imgbtn/../../../../src/core/lv_obj_style_gen.h **** }
  12:Drivers/lvgl/src/extra/widgets/imgbtn/../../../../src/core/lv_obj_style_gen.h **** 
  13:Drivers/lvgl/src/extra/widgets/imgbtn/../../../../src/core/lv_obj_style_gen.h **** static inline lv_coord_t lv_obj_get_style_max_width(const struct _lv_obj_t * obj, uint32_t part)
  14:Drivers/lvgl/src/extra/widgets/imgbtn/../../../../src/core/lv_obj_style_gen.h **** {
  15:Drivers/lvgl/src/extra/widgets/imgbtn/../../../../src/core/lv_obj_style_gen.h ****     lv_style_value_t v = lv_obj_get_style_prop(obj, part, LV_STYLE_MAX_WIDTH);
  16:Drivers/lvgl/src/extra/widgets/imgbtn/../../../../src/core/lv_obj_style_gen.h ****     return (lv_coord_t)v.num;
  17:Drivers/lvgl/src/extra/widgets/imgbtn/../../../../src/core/lv_obj_style_gen.h **** }
  18:Drivers/lvgl/src/extra/widgets/imgbtn/../../../../src/core/lv_obj_style_gen.h **** 
  19:Drivers/lvgl/src/extra/widgets/imgbtn/../../../../src/core/lv_obj_style_gen.h **** static inline lv_coord_t lv_obj_get_style_height(const struct _lv_obj_t * obj, uint32_t part)
  20:Drivers/lvgl/src/extra/widgets/imgbtn/../../../../src/core/lv_obj_style_gen.h **** {
  21:Drivers/lvgl/src/extra/widgets/imgbtn/../../../../src/core/lv_obj_style_gen.h ****     lv_style_value_t v = lv_obj_get_style_prop(obj, part, LV_STYLE_HEIGHT);
  22:Drivers/lvgl/src/extra/widgets/imgbtn/../../../../src/core/lv_obj_style_gen.h ****     return (lv_coord_t)v.num;
  23:Drivers/lvgl/src/extra/widgets/imgbtn/../../../../src/core/lv_obj_style_gen.h **** }
  24:Drivers/lvgl/src/extra/widgets/imgbtn/../../../../src/core/lv_obj_style_gen.h **** 
  25:Drivers/lvgl/src/extra/widgets/imgbtn/../../../../src/core/lv_obj_style_gen.h **** static inline lv_coord_t lv_obj_get_style_min_height(const struct _lv_obj_t * obj, uint32_t part)
  26:Drivers/lvgl/src/extra/widgets/imgbtn/../../../../src/core/lv_obj_style_gen.h **** {
  27:Drivers/lvgl/src/extra/widgets/imgbtn/../../../../src/core/lv_obj_style_gen.h ****     lv_style_value_t v = lv_obj_get_style_prop(obj, part, LV_STYLE_MIN_HEIGHT);
  28:Drivers/lvgl/src/extra/widgets/imgbtn/../../../../src/core/lv_obj_style_gen.h ****     return (lv_coord_t)v.num;
  29:Drivers/lvgl/src/extra/widgets/imgbtn/../../../../src/core/lv_obj_style_gen.h **** }
  30:Drivers/lvgl/src/extra/widgets/imgbtn/../../../../src/core/lv_obj_style_gen.h **** 
  31:Drivers/lvgl/src/extra/widgets/imgbtn/../../../../src/core/lv_obj_style_gen.h **** static inline lv_coord_t lv_obj_get_style_max_height(const struct _lv_obj_t * obj, uint32_t part)
  32:Drivers/lvgl/src/extra/widgets/imgbtn/../../../../src/core/lv_obj_style_gen.h **** {
  33:Drivers/lvgl/src/extra/widgets/imgbtn/../../../../src/core/lv_obj_style_gen.h ****     lv_style_value_t v = lv_obj_get_style_prop(obj, part, LV_STYLE_MAX_HEIGHT);
  34:Drivers/lvgl/src/extra/widgets/imgbtn/../../../../src/core/lv_obj_style_gen.h ****     return (lv_coord_t)v.num;
  35:Drivers/lvgl/src/extra/widgets/imgbtn/../../../../src/core/lv_obj_style_gen.h **** }
  36:Drivers/lvgl/src/extra/widgets/imgbtn/../../../../src/core/lv_obj_style_gen.h **** 
  37:Drivers/lvgl/src/extra/widgets/imgbtn/../../../../src/core/lv_obj_style_gen.h **** static inline lv_coord_t lv_obj_get_style_x(const struct _lv_obj_t * obj, uint32_t part)
  38:Drivers/lvgl/src/extra/widgets/imgbtn/../../../../src/core/lv_obj_style_gen.h **** {
  39:Drivers/lvgl/src/extra/widgets/imgbtn/../../../../src/core/lv_obj_style_gen.h ****     lv_style_value_t v = lv_obj_get_style_prop(obj, part, LV_STYLE_X);
  40:Drivers/lvgl/src/extra/widgets/imgbtn/../../../../src/core/lv_obj_style_gen.h ****     return (lv_coord_t)v.num;
  41:Drivers/lvgl/src/extra/widgets/imgbtn/../../../../src/core/lv_obj_style_gen.h **** }
  42:Drivers/lvgl/src/extra/widgets/imgbtn/../../../../src/core/lv_obj_style_gen.h **** 
  43:Drivers/lvgl/src/extra/widgets/imgbtn/../../../../src/core/lv_obj_style_gen.h **** static inline lv_coord_t lv_obj_get_style_y(const struct _lv_obj_t * obj, uint32_t part)
  44:Drivers/lvgl/src/extra/widgets/imgbtn/../../../../src/core/lv_obj_style_gen.h **** {
  45:Drivers/lvgl/src/extra/widgets/imgbtn/../../../../src/core/lv_obj_style_gen.h ****     lv_style_value_t v = lv_obj_get_style_prop(obj, part, LV_STYLE_Y);
  46:Drivers/lvgl/src/extra/widgets/imgbtn/../../../../src/core/lv_obj_style_gen.h ****     return (lv_coord_t)v.num;
  47:Drivers/lvgl/src/extra/widgets/imgbtn/../../../../src/core/lv_obj_style_gen.h **** }
  48:Drivers/lvgl/src/extra/widgets/imgbtn/../../../../src/core/lv_obj_style_gen.h **** 
  49:Drivers/lvgl/src/extra/widgets/imgbtn/../../../../src/core/lv_obj_style_gen.h **** static inline lv_align_t lv_obj_get_style_align(const struct _lv_obj_t * obj, uint32_t part)
  50:Drivers/lvgl/src/extra/widgets/imgbtn/../../../../src/core/lv_obj_style_gen.h **** {
  51:Drivers/lvgl/src/extra/widgets/imgbtn/../../../../src/core/lv_obj_style_gen.h ****     lv_style_value_t v = lv_obj_get_style_prop(obj, part, LV_STYLE_ALIGN);
ARM GAS  /var/folders/0z/tsy30v1j4xl4_7kw94k978ww0000gn/T//ccWYDXZi.s 			page 25


  52:Drivers/lvgl/src/extra/widgets/imgbtn/../../../../src/core/lv_obj_style_gen.h ****     return (lv_align_t)v.num;
  53:Drivers/lvgl/src/extra/widgets/imgbtn/../../../../src/core/lv_obj_style_gen.h **** }
  54:Drivers/lvgl/src/extra/widgets/imgbtn/../../../../src/core/lv_obj_style_gen.h **** 
  55:Drivers/lvgl/src/extra/widgets/imgbtn/../../../../src/core/lv_obj_style_gen.h **** static inline lv_coord_t lv_obj_get_style_transform_width(const struct _lv_obj_t * obj, uint32_t pa
 764              		.loc 2 55 26 view .LVU211
 765              	.LBB11:
  56:Drivers/lvgl/src/extra/widgets/imgbtn/../../../../src/core/lv_obj_style_gen.h **** {
  57:Drivers/lvgl/src/extra/widgets/imgbtn/../../../../src/core/lv_obj_style_gen.h ****     lv_style_value_t v = lv_obj_get_style_prop(obj, part, LV_STYLE_TRANSFORM_WIDTH);
 766              		.loc 2 57 5 view .LVU212
 767              		.loc 2 57 26 is_stmt 0 view .LVU213
 768 0032 6922     		movs	r2, #105
 769 0034 0021     		movs	r1, #0
 770 0036 2046     		mov	r0, r4
 771              	.LVL94:
 772              		.loc 2 57 26 view .LVU214
 773 0038 FFF7FEFF 		bl	lv_obj_get_style_prop
 774              	.LVL95:
 775 003c 0546     		mov	r5, r0
 776              	.LVL96:
  58:Drivers/lvgl/src/extra/widgets/imgbtn/../../../../src/core/lv_obj_style_gen.h ****     return (lv_coord_t)v.num;
 777              		.loc 2 58 5 is_stmt 1 view .LVU215
 778              		.loc 2 58 5 is_stmt 0 view .LVU216
 779              	.LBE11:
 780              	.LBE10:
 232:Drivers/lvgl/src/extra/widgets/imgbtn/lv_imgbtn.c ****     lv_area_t coords;
 781              		.loc 1 232 5 is_stmt 1 view .LVU217
 782              	.LBB12:
 783              	.LBI12:
  59:Drivers/lvgl/src/extra/widgets/imgbtn/../../../../src/core/lv_obj_style_gen.h **** }
  60:Drivers/lvgl/src/extra/widgets/imgbtn/../../../../src/core/lv_obj_style_gen.h **** 
  61:Drivers/lvgl/src/extra/widgets/imgbtn/../../../../src/core/lv_obj_style_gen.h **** static inline lv_coord_t lv_obj_get_style_transform_height(const struct _lv_obj_t * obj, uint32_t p
 784              		.loc 2 61 26 view .LVU218
 785              	.LBB13:
  62:Drivers/lvgl/src/extra/widgets/imgbtn/../../../../src/core/lv_obj_style_gen.h **** {
  63:Drivers/lvgl/src/extra/widgets/imgbtn/../../../../src/core/lv_obj_style_gen.h ****     lv_style_value_t v = lv_obj_get_style_prop(obj, part, LV_STYLE_TRANSFORM_HEIGHT);
 786              		.loc 2 63 5 view .LVU219
 787              		.loc 2 63 26 is_stmt 0 view .LVU220
 788 003e 6A22     		movs	r2, #106
 789 0040 0021     		movs	r1, #0
 790 0042 2046     		mov	r0, r4
 791 0044 FFF7FEFF 		bl	lv_obj_get_style_prop
 792              	.LVL97:
  64:Drivers/lvgl/src/extra/widgets/imgbtn/../../../../src/core/lv_obj_style_gen.h ****     return (lv_coord_t)v.num;
 793              		.loc 2 64 5 is_stmt 1 view .LVU221
 794              		.loc 2 64 5 is_stmt 0 view .LVU222
 795              	.LBE13:
 796              	.LBE12:
 233:Drivers/lvgl/src/extra/widgets/imgbtn/lv_imgbtn.c ****     lv_area_copy(&coords, &obj->coords);
 797              		.loc 1 233 5 is_stmt 1 view .LVU223
 234:Drivers/lvgl/src/extra/widgets/imgbtn/lv_imgbtn.c ****     coords.x1 -= tw;
 798              		.loc 1 234 5 view .LVU224
 799              	.LBB14:
 800              	.LBI14:
 801              		.file 3 "Drivers/lvgl/src/extra/widgets/imgbtn/../../../../src/hal/../draw/../misc/../font/../misc
   1:Drivers/lvgl/src/extra/widgets/imgbtn/../../../../src/hal/../draw/../misc/../font/../misc/lv_area.h **** /**
   2:Drivers/lvgl/src/extra/widgets/imgbtn/../../../../src/hal/../draw/../misc/../font/../misc/lv_area.h ****  * @file lv_area.h
   3:Drivers/lvgl/src/extra/widgets/imgbtn/../../../../src/hal/../draw/../misc/../font/../misc/lv_area.h ****  *
ARM GAS  /var/folders/0z/tsy30v1j4xl4_7kw94k978ww0000gn/T//ccWYDXZi.s 			page 26


   4:Drivers/lvgl/src/extra/widgets/imgbtn/../../../../src/hal/../draw/../misc/../font/../misc/lv_area.h ****  */
   5:Drivers/lvgl/src/extra/widgets/imgbtn/../../../../src/hal/../draw/../misc/../font/../misc/lv_area.h **** 
   6:Drivers/lvgl/src/extra/widgets/imgbtn/../../../../src/hal/../draw/../misc/../font/../misc/lv_area.h **** #ifndef LV_AREA_H
   7:Drivers/lvgl/src/extra/widgets/imgbtn/../../../../src/hal/../draw/../misc/../font/../misc/lv_area.h **** #define LV_AREA_H
   8:Drivers/lvgl/src/extra/widgets/imgbtn/../../../../src/hal/../draw/../misc/../font/../misc/lv_area.h **** 
   9:Drivers/lvgl/src/extra/widgets/imgbtn/../../../../src/hal/../draw/../misc/../font/../misc/lv_area.h **** #ifdef __cplusplus
  10:Drivers/lvgl/src/extra/widgets/imgbtn/../../../../src/hal/../draw/../misc/../font/../misc/lv_area.h **** extern "C" {
  11:Drivers/lvgl/src/extra/widgets/imgbtn/../../../../src/hal/../draw/../misc/../font/../misc/lv_area.h **** #endif
  12:Drivers/lvgl/src/extra/widgets/imgbtn/../../../../src/hal/../draw/../misc/../font/../misc/lv_area.h **** 
  13:Drivers/lvgl/src/extra/widgets/imgbtn/../../../../src/hal/../draw/../misc/../font/../misc/lv_area.h **** /*********************
  14:Drivers/lvgl/src/extra/widgets/imgbtn/../../../../src/hal/../draw/../misc/../font/../misc/lv_area.h ****  *      INCLUDES
  15:Drivers/lvgl/src/extra/widgets/imgbtn/../../../../src/hal/../draw/../misc/../font/../misc/lv_area.h ****  *********************/
  16:Drivers/lvgl/src/extra/widgets/imgbtn/../../../../src/hal/../draw/../misc/../font/../misc/lv_area.h **** #include "../lv_conf_internal.h"
  17:Drivers/lvgl/src/extra/widgets/imgbtn/../../../../src/hal/../draw/../misc/../font/../misc/lv_area.h **** #include <stdbool.h>
  18:Drivers/lvgl/src/extra/widgets/imgbtn/../../../../src/hal/../draw/../misc/../font/../misc/lv_area.h **** #include <stdint.h>
  19:Drivers/lvgl/src/extra/widgets/imgbtn/../../../../src/hal/../draw/../misc/../font/../misc/lv_area.h **** 
  20:Drivers/lvgl/src/extra/widgets/imgbtn/../../../../src/hal/../draw/../misc/../font/../misc/lv_area.h **** /*********************
  21:Drivers/lvgl/src/extra/widgets/imgbtn/../../../../src/hal/../draw/../misc/../font/../misc/lv_area.h ****  *      DEFINES
  22:Drivers/lvgl/src/extra/widgets/imgbtn/../../../../src/hal/../draw/../misc/../font/../misc/lv_area.h ****  *********************/
  23:Drivers/lvgl/src/extra/widgets/imgbtn/../../../../src/hal/../draw/../misc/../font/../misc/lv_area.h **** 
  24:Drivers/lvgl/src/extra/widgets/imgbtn/../../../../src/hal/../draw/../misc/../font/../misc/lv_area.h **** #if LV_USE_LARGE_COORD
  25:Drivers/lvgl/src/extra/widgets/imgbtn/../../../../src/hal/../draw/../misc/../font/../misc/lv_area.h **** typedef int32_t lv_coord_t;
  26:Drivers/lvgl/src/extra/widgets/imgbtn/../../../../src/hal/../draw/../misc/../font/../misc/lv_area.h **** #else
  27:Drivers/lvgl/src/extra/widgets/imgbtn/../../../../src/hal/../draw/../misc/../font/../misc/lv_area.h **** typedef int16_t lv_coord_t;
  28:Drivers/lvgl/src/extra/widgets/imgbtn/../../../../src/hal/../draw/../misc/../font/../misc/lv_area.h **** #endif
  29:Drivers/lvgl/src/extra/widgets/imgbtn/../../../../src/hal/../draw/../misc/../font/../misc/lv_area.h **** 
  30:Drivers/lvgl/src/extra/widgets/imgbtn/../../../../src/hal/../draw/../misc/../font/../misc/lv_area.h **** /**********************
  31:Drivers/lvgl/src/extra/widgets/imgbtn/../../../../src/hal/../draw/../misc/../font/../misc/lv_area.h ****  *      TYPEDEFS
  32:Drivers/lvgl/src/extra/widgets/imgbtn/../../../../src/hal/../draw/../misc/../font/../misc/lv_area.h ****  **********************/
  33:Drivers/lvgl/src/extra/widgets/imgbtn/../../../../src/hal/../draw/../misc/../font/../misc/lv_area.h **** 
  34:Drivers/lvgl/src/extra/widgets/imgbtn/../../../../src/hal/../draw/../misc/../font/../misc/lv_area.h **** /**
  35:Drivers/lvgl/src/extra/widgets/imgbtn/../../../../src/hal/../draw/../misc/../font/../misc/lv_area.h ****  * Represents a point on the screen.
  36:Drivers/lvgl/src/extra/widgets/imgbtn/../../../../src/hal/../draw/../misc/../font/../misc/lv_area.h ****  */
  37:Drivers/lvgl/src/extra/widgets/imgbtn/../../../../src/hal/../draw/../misc/../font/../misc/lv_area.h **** typedef struct {
  38:Drivers/lvgl/src/extra/widgets/imgbtn/../../../../src/hal/../draw/../misc/../font/../misc/lv_area.h ****     lv_coord_t x;
  39:Drivers/lvgl/src/extra/widgets/imgbtn/../../../../src/hal/../draw/../misc/../font/../misc/lv_area.h ****     lv_coord_t y;
  40:Drivers/lvgl/src/extra/widgets/imgbtn/../../../../src/hal/../draw/../misc/../font/../misc/lv_area.h **** } lv_point_t;
  41:Drivers/lvgl/src/extra/widgets/imgbtn/../../../../src/hal/../draw/../misc/../font/../misc/lv_area.h **** 
  42:Drivers/lvgl/src/extra/widgets/imgbtn/../../../../src/hal/../draw/../misc/../font/../misc/lv_area.h **** /** Represents an area of the screen.*/
  43:Drivers/lvgl/src/extra/widgets/imgbtn/../../../../src/hal/../draw/../misc/../font/../misc/lv_area.h **** typedef struct {
  44:Drivers/lvgl/src/extra/widgets/imgbtn/../../../../src/hal/../draw/../misc/../font/../misc/lv_area.h ****     lv_coord_t x1;
  45:Drivers/lvgl/src/extra/widgets/imgbtn/../../../../src/hal/../draw/../misc/../font/../misc/lv_area.h ****     lv_coord_t y1;
  46:Drivers/lvgl/src/extra/widgets/imgbtn/../../../../src/hal/../draw/../misc/../font/../misc/lv_area.h ****     lv_coord_t x2;
  47:Drivers/lvgl/src/extra/widgets/imgbtn/../../../../src/hal/../draw/../misc/../font/../misc/lv_area.h ****     lv_coord_t y2;
  48:Drivers/lvgl/src/extra/widgets/imgbtn/../../../../src/hal/../draw/../misc/../font/../misc/lv_area.h **** } lv_area_t;
  49:Drivers/lvgl/src/extra/widgets/imgbtn/../../../../src/hal/../draw/../misc/../font/../misc/lv_area.h **** 
  50:Drivers/lvgl/src/extra/widgets/imgbtn/../../../../src/hal/../draw/../misc/../font/../misc/lv_area.h **** /** Alignments*/
  51:Drivers/lvgl/src/extra/widgets/imgbtn/../../../../src/hal/../draw/../misc/../font/../misc/lv_area.h **** enum {
  52:Drivers/lvgl/src/extra/widgets/imgbtn/../../../../src/hal/../draw/../misc/../font/../misc/lv_area.h ****     LV_ALIGN_DEFAULT = 0,
  53:Drivers/lvgl/src/extra/widgets/imgbtn/../../../../src/hal/../draw/../misc/../font/../misc/lv_area.h ****     LV_ALIGN_TOP_LEFT,
  54:Drivers/lvgl/src/extra/widgets/imgbtn/../../../../src/hal/../draw/../misc/../font/../misc/lv_area.h ****     LV_ALIGN_TOP_MID,
  55:Drivers/lvgl/src/extra/widgets/imgbtn/../../../../src/hal/../draw/../misc/../font/../misc/lv_area.h ****     LV_ALIGN_TOP_RIGHT,
  56:Drivers/lvgl/src/extra/widgets/imgbtn/../../../../src/hal/../draw/../misc/../font/../misc/lv_area.h ****     LV_ALIGN_BOTTOM_LEFT,
  57:Drivers/lvgl/src/extra/widgets/imgbtn/../../../../src/hal/../draw/../misc/../font/../misc/lv_area.h ****     LV_ALIGN_BOTTOM_MID,
  58:Drivers/lvgl/src/extra/widgets/imgbtn/../../../../src/hal/../draw/../misc/../font/../misc/lv_area.h ****     LV_ALIGN_BOTTOM_RIGHT,
  59:Drivers/lvgl/src/extra/widgets/imgbtn/../../../../src/hal/../draw/../misc/../font/../misc/lv_area.h ****     LV_ALIGN_LEFT_MID,
  60:Drivers/lvgl/src/extra/widgets/imgbtn/../../../../src/hal/../draw/../misc/../font/../misc/lv_area.h ****     LV_ALIGN_RIGHT_MID,
ARM GAS  /var/folders/0z/tsy30v1j4xl4_7kw94k978ww0000gn/T//ccWYDXZi.s 			page 27


  61:Drivers/lvgl/src/extra/widgets/imgbtn/../../../../src/hal/../draw/../misc/../font/../misc/lv_area.h ****     LV_ALIGN_CENTER,
  62:Drivers/lvgl/src/extra/widgets/imgbtn/../../../../src/hal/../draw/../misc/../font/../misc/lv_area.h **** 
  63:Drivers/lvgl/src/extra/widgets/imgbtn/../../../../src/hal/../draw/../misc/../font/../misc/lv_area.h ****     LV_ALIGN_OUT_TOP_LEFT,
  64:Drivers/lvgl/src/extra/widgets/imgbtn/../../../../src/hal/../draw/../misc/../font/../misc/lv_area.h ****     LV_ALIGN_OUT_TOP_MID,
  65:Drivers/lvgl/src/extra/widgets/imgbtn/../../../../src/hal/../draw/../misc/../font/../misc/lv_area.h ****     LV_ALIGN_OUT_TOP_RIGHT,
  66:Drivers/lvgl/src/extra/widgets/imgbtn/../../../../src/hal/../draw/../misc/../font/../misc/lv_area.h ****     LV_ALIGN_OUT_BOTTOM_LEFT,
  67:Drivers/lvgl/src/extra/widgets/imgbtn/../../../../src/hal/../draw/../misc/../font/../misc/lv_area.h ****     LV_ALIGN_OUT_BOTTOM_MID,
  68:Drivers/lvgl/src/extra/widgets/imgbtn/../../../../src/hal/../draw/../misc/../font/../misc/lv_area.h ****     LV_ALIGN_OUT_BOTTOM_RIGHT,
  69:Drivers/lvgl/src/extra/widgets/imgbtn/../../../../src/hal/../draw/../misc/../font/../misc/lv_area.h ****     LV_ALIGN_OUT_LEFT_TOP,
  70:Drivers/lvgl/src/extra/widgets/imgbtn/../../../../src/hal/../draw/../misc/../font/../misc/lv_area.h ****     LV_ALIGN_OUT_LEFT_MID,
  71:Drivers/lvgl/src/extra/widgets/imgbtn/../../../../src/hal/../draw/../misc/../font/../misc/lv_area.h ****     LV_ALIGN_OUT_LEFT_BOTTOM,
  72:Drivers/lvgl/src/extra/widgets/imgbtn/../../../../src/hal/../draw/../misc/../font/../misc/lv_area.h ****     LV_ALIGN_OUT_RIGHT_TOP,
  73:Drivers/lvgl/src/extra/widgets/imgbtn/../../../../src/hal/../draw/../misc/../font/../misc/lv_area.h ****     LV_ALIGN_OUT_RIGHT_MID,
  74:Drivers/lvgl/src/extra/widgets/imgbtn/../../../../src/hal/../draw/../misc/../font/../misc/lv_area.h ****     LV_ALIGN_OUT_RIGHT_BOTTOM,
  75:Drivers/lvgl/src/extra/widgets/imgbtn/../../../../src/hal/../draw/../misc/../font/../misc/lv_area.h **** };
  76:Drivers/lvgl/src/extra/widgets/imgbtn/../../../../src/hal/../draw/../misc/../font/../misc/lv_area.h **** typedef uint8_t lv_align_t;
  77:Drivers/lvgl/src/extra/widgets/imgbtn/../../../../src/hal/../draw/../misc/../font/../misc/lv_area.h **** 
  78:Drivers/lvgl/src/extra/widgets/imgbtn/../../../../src/hal/../draw/../misc/../font/../misc/lv_area.h **** enum {
  79:Drivers/lvgl/src/extra/widgets/imgbtn/../../../../src/hal/../draw/../misc/../font/../misc/lv_area.h ****     LV_DIR_NONE     = 0x00,
  80:Drivers/lvgl/src/extra/widgets/imgbtn/../../../../src/hal/../draw/../misc/../font/../misc/lv_area.h ****     LV_DIR_LEFT     = (1 << 0),
  81:Drivers/lvgl/src/extra/widgets/imgbtn/../../../../src/hal/../draw/../misc/../font/../misc/lv_area.h ****     LV_DIR_RIGHT    = (1 << 1),
  82:Drivers/lvgl/src/extra/widgets/imgbtn/../../../../src/hal/../draw/../misc/../font/../misc/lv_area.h ****     LV_DIR_TOP      = (1 << 2),
  83:Drivers/lvgl/src/extra/widgets/imgbtn/../../../../src/hal/../draw/../misc/../font/../misc/lv_area.h ****     LV_DIR_BOTTOM   = (1 << 3),
  84:Drivers/lvgl/src/extra/widgets/imgbtn/../../../../src/hal/../draw/../misc/../font/../misc/lv_area.h ****     LV_DIR_HOR      = LV_DIR_LEFT | LV_DIR_RIGHT,
  85:Drivers/lvgl/src/extra/widgets/imgbtn/../../../../src/hal/../draw/../misc/../font/../misc/lv_area.h ****     LV_DIR_VER      = LV_DIR_TOP | LV_DIR_BOTTOM,
  86:Drivers/lvgl/src/extra/widgets/imgbtn/../../../../src/hal/../draw/../misc/../font/../misc/lv_area.h ****     LV_DIR_ALL      = LV_DIR_HOR | LV_DIR_VER,
  87:Drivers/lvgl/src/extra/widgets/imgbtn/../../../../src/hal/../draw/../misc/../font/../misc/lv_area.h **** };
  88:Drivers/lvgl/src/extra/widgets/imgbtn/../../../../src/hal/../draw/../misc/../font/../misc/lv_area.h **** 
  89:Drivers/lvgl/src/extra/widgets/imgbtn/../../../../src/hal/../draw/../misc/../font/../misc/lv_area.h **** typedef uint8_t lv_dir_t;
  90:Drivers/lvgl/src/extra/widgets/imgbtn/../../../../src/hal/../draw/../misc/../font/../misc/lv_area.h **** 
  91:Drivers/lvgl/src/extra/widgets/imgbtn/../../../../src/hal/../draw/../misc/../font/../misc/lv_area.h **** /**********************
  92:Drivers/lvgl/src/extra/widgets/imgbtn/../../../../src/hal/../draw/../misc/../font/../misc/lv_area.h ****  * GLOBAL PROTOTYPES
  93:Drivers/lvgl/src/extra/widgets/imgbtn/../../../../src/hal/../draw/../misc/../font/../misc/lv_area.h ****  **********************/
  94:Drivers/lvgl/src/extra/widgets/imgbtn/../../../../src/hal/../draw/../misc/../font/../misc/lv_area.h **** 
  95:Drivers/lvgl/src/extra/widgets/imgbtn/../../../../src/hal/../draw/../misc/../font/../misc/lv_area.h **** /**
  96:Drivers/lvgl/src/extra/widgets/imgbtn/../../../../src/hal/../draw/../misc/../font/../misc/lv_area.h ****  * Initialize an area
  97:Drivers/lvgl/src/extra/widgets/imgbtn/../../../../src/hal/../draw/../misc/../font/../misc/lv_area.h ****  * @param area_p pointer to an area
  98:Drivers/lvgl/src/extra/widgets/imgbtn/../../../../src/hal/../draw/../misc/../font/../misc/lv_area.h ****  * @param x1 left coordinate of the area
  99:Drivers/lvgl/src/extra/widgets/imgbtn/../../../../src/hal/../draw/../misc/../font/../misc/lv_area.h ****  * @param y1 top coordinate of the area
 100:Drivers/lvgl/src/extra/widgets/imgbtn/../../../../src/hal/../draw/../misc/../font/../misc/lv_area.h ****  * @param x2 right coordinate of the area
 101:Drivers/lvgl/src/extra/widgets/imgbtn/../../../../src/hal/../draw/../misc/../font/../misc/lv_area.h ****  * @param y2 bottom coordinate of the area
 102:Drivers/lvgl/src/extra/widgets/imgbtn/../../../../src/hal/../draw/../misc/../font/../misc/lv_area.h ****  */
 103:Drivers/lvgl/src/extra/widgets/imgbtn/../../../../src/hal/../draw/../misc/../font/../misc/lv_area.h **** void lv_area_set(lv_area_t * area_p, lv_coord_t x1, lv_coord_t y1, lv_coord_t x2, lv_coord_t y2);
 104:Drivers/lvgl/src/extra/widgets/imgbtn/../../../../src/hal/../draw/../misc/../font/../misc/lv_area.h **** 
 105:Drivers/lvgl/src/extra/widgets/imgbtn/../../../../src/hal/../draw/../misc/../font/../misc/lv_area.h **** /**
 106:Drivers/lvgl/src/extra/widgets/imgbtn/../../../../src/hal/../draw/../misc/../font/../misc/lv_area.h ****  * Copy an area
 107:Drivers/lvgl/src/extra/widgets/imgbtn/../../../../src/hal/../draw/../misc/../font/../misc/lv_area.h ****  * @param dest pointer to the destination area
 108:Drivers/lvgl/src/extra/widgets/imgbtn/../../../../src/hal/../draw/../misc/../font/../misc/lv_area.h ****  * @param src pointer to the source area
 109:Drivers/lvgl/src/extra/widgets/imgbtn/../../../../src/hal/../draw/../misc/../font/../misc/lv_area.h ****  */
 110:Drivers/lvgl/src/extra/widgets/imgbtn/../../../../src/hal/../draw/../misc/../font/../misc/lv_area.h **** inline static void lv_area_copy(lv_area_t * dest, const lv_area_t * src)
 802              		.loc 3 110 20 view .LVU225
 803              	.LBB15:
 111:Drivers/lvgl/src/extra/widgets/imgbtn/../../../../src/hal/../draw/../misc/../font/../misc/lv_area.h **** {
 112:Drivers/lvgl/src/extra/widgets/imgbtn/../../../../src/hal/../draw/../misc/../font/../misc/lv_area.h ****     dest->x1 = src->x1;
 804              		.loc 3 112 5 view .LVU226
 805              		.loc 3 112 19 is_stmt 0 view .LVU227
 806 0048 B4F91480 		ldrsh	r8, [r4, #20]
ARM GAS  /var/folders/0z/tsy30v1j4xl4_7kw94k978ww0000gn/T//ccWYDXZi.s 			page 28


 807              		.loc 3 112 14 view .LVU228
 808 004c ADF84080 		strh	r8, [sp, #64]	@ movhi
 113:Drivers/lvgl/src/extra/widgets/imgbtn/../../../../src/hal/../draw/../misc/../font/../misc/lv_area.h ****     dest->y1 = src->y1;
 809              		.loc 3 113 5 is_stmt 1 view .LVU229
 810              		.loc 3 113 19 is_stmt 0 view .LVU230
 811 0050 B4F91660 		ldrsh	r6, [r4, #22]
 812              		.loc 3 113 14 view .LVU231
 813 0054 ADF84260 		strh	r6, [sp, #66]	@ movhi
 114:Drivers/lvgl/src/extra/widgets/imgbtn/../../../../src/hal/../draw/../misc/../font/../misc/lv_area.h ****     dest->x2 = src->x2;
 814              		.loc 3 114 5 is_stmt 1 view .LVU232
 815              		.loc 3 114 19 is_stmt 0 view .LVU233
 816 0058 B4F91820 		ldrsh	r2, [r4, #24]
 817              		.loc 3 114 14 view .LVU234
 818 005c ADF84420 		strh	r2, [sp, #68]	@ movhi
 115:Drivers/lvgl/src/extra/widgets/imgbtn/../../../../src/hal/../draw/../misc/../font/../misc/lv_area.h ****     dest->y2 = src->y2;
 819              		.loc 3 115 5 is_stmt 1 view .LVU235
 820              		.loc 3 115 19 is_stmt 0 view .LVU236
 821 0060 B4F91A30 		ldrsh	r3, [r4, #26]
 822              		.loc 3 115 14 view .LVU237
 823 0064 ADF84630 		strh	r3, [sp, #70]	@ movhi
 824              	.LVL98:
 825              		.loc 3 115 14 view .LVU238
 826              	.LBE15:
 827              	.LBE14:
 235:Drivers/lvgl/src/extra/widgets/imgbtn/lv_imgbtn.c ****     coords.x2 += tw;
 828              		.loc 1 235 5 is_stmt 1 view .LVU239
 235:Drivers/lvgl/src/extra/widgets/imgbtn/lv_imgbtn.c ****     coords.x2 += tw;
 829              		.loc 1 235 15 is_stmt 0 view .LVU240
 830 0068 ADB2     		uxth	r5, r5
 235:Drivers/lvgl/src/extra/widgets/imgbtn/lv_imgbtn.c ****     coords.x2 += tw;
 831              		.loc 1 235 15 view .LVU241
 832 006a A8EB0508 		sub	r8, r8, r5
 833 006e 1FFA88F1 		uxth	r1, r8
 834 0072 0191     		str	r1, [sp, #4]
 835 0074 0FFA88F8 		sxth	r8, r8
 836 0078 ADF84080 		strh	r8, [sp, #64]	@ movhi
 236:Drivers/lvgl/src/extra/widgets/imgbtn/lv_imgbtn.c ****     coords.y1 -= th;
 837              		.loc 1 236 5 is_stmt 1 view .LVU242
 236:Drivers/lvgl/src/extra/widgets/imgbtn/lv_imgbtn.c ****     coords.y1 -= th;
 838              		.loc 1 236 15 is_stmt 0 view .LVU243
 839 007c 1544     		add	r5, r5, r2
 840              	.LVL99:
 236:Drivers/lvgl/src/extra/widgets/imgbtn/lv_imgbtn.c ****     coords.y1 -= th;
 841              		.loc 1 236 15 view .LVU244
 842 007e AAB2     		uxth	r2, r5
 843 0080 0292     		str	r2, [sp, #8]
 844 0082 2DB2     		sxth	r5, r5
 845 0084 ADF84450 		strh	r5, [sp, #68]	@ movhi
 237:Drivers/lvgl/src/extra/widgets/imgbtn/lv_imgbtn.c ****     coords.y2 += th;
 846              		.loc 1 237 5 is_stmt 1 view .LVU245
 237:Drivers/lvgl/src/extra/widgets/imgbtn/lv_imgbtn.c ****     coords.y2 += th;
 847              		.loc 1 237 15 is_stmt 0 view .LVU246
 848 0088 80B2     		uxth	r0, r0
 237:Drivers/lvgl/src/extra/widgets/imgbtn/lv_imgbtn.c ****     coords.y2 += th;
 849              		.loc 1 237 15 view .LVU247
 850 008a 361A     		subs	r6, r6, r0
 851 008c B2B2     		uxth	r2, r6
ARM GAS  /var/folders/0z/tsy30v1j4xl4_7kw94k978ww0000gn/T//ccWYDXZi.s 			page 29


 852 008e 0092     		str	r2, [sp]
 853 0090 36B2     		sxth	r6, r6
 854 0092 ADF84260 		strh	r6, [sp, #66]	@ movhi
 238:Drivers/lvgl/src/extra/widgets/imgbtn/lv_imgbtn.c **** 
 855              		.loc 1 238 5 is_stmt 1 view .LVU248
 238:Drivers/lvgl/src/extra/widgets/imgbtn/lv_imgbtn.c **** 
 856              		.loc 1 238 15 is_stmt 0 view .LVU249
 857 0096 C718     		adds	r7, r0, r3
 858 0098 3FB2     		sxth	r7, r7
 859 009a ADF84670 		strh	r7, [sp, #70]	@ movhi
 240:Drivers/lvgl/src/extra/widgets/imgbtn/lv_imgbtn.c ****     lv_draw_img_dsc_init(&img_dsc);
 860              		.loc 1 240 5 is_stmt 1 view .LVU250
 241:Drivers/lvgl/src/extra/widgets/imgbtn/lv_imgbtn.c ****     lv_obj_init_draw_img_dsc(obj, LV_PART_MAIN, &img_dsc);
 861              		.loc 1 241 5 view .LVU251
 862 009e 0AA8     		add	r0, sp, #40
 863              	.LVL100:
 241:Drivers/lvgl/src/extra/widgets/imgbtn/lv_imgbtn.c ****     lv_obj_init_draw_img_dsc(obj, LV_PART_MAIN, &img_dsc);
 864              		.loc 1 241 5 is_stmt 0 view .LVU252
 865 00a0 FFF7FEFF 		bl	lv_draw_img_dsc_init
 866              	.LVL101:
 242:Drivers/lvgl/src/extra/widgets/imgbtn/lv_imgbtn.c **** 
 867              		.loc 1 242 5 is_stmt 1 view .LVU253
 868 00a4 0AAB     		add	r3, sp, #40
 869 00a6 1A46     		mov	r2, r3
 870 00a8 0021     		movs	r1, #0
 871 00aa 2046     		mov	r0, r4
 872 00ac FFF7FEFF 		bl	lv_obj_init_draw_img_dsc
 873              	.LVL102:
 244:Drivers/lvgl/src/extra/widgets/imgbtn/lv_imgbtn.c ****     lv_area_t coords_part;
 874              		.loc 1 244 5 view .LVU254
 245:Drivers/lvgl/src/extra/widgets/imgbtn/lv_imgbtn.c ****     lv_coord_t left_w = 0;
 875              		.loc 1 245 5 view .LVU255
 246:Drivers/lvgl/src/extra/widgets/imgbtn/lv_imgbtn.c ****     lv_coord_t right_w = 0;
 876              		.loc 1 246 5 view .LVU256
 247:Drivers/lvgl/src/extra/widgets/imgbtn/lv_imgbtn.c **** 
 877              		.loc 1 247 5 view .LVU257
 249:Drivers/lvgl/src/extra/widgets/imgbtn/lv_imgbtn.c ****         lv_img_decoder_get_info(src, &header);
 878              		.loc 1 249 5 view .LVU258
 249:Drivers/lvgl/src/extra/widgets/imgbtn/lv_imgbtn.c ****         lv_img_decoder_get_info(src, &header);
 879              		.loc 1 249 7 is_stmt 0 view .LVU259
 880 00b0 BBF1000F 		cmp	fp, #0
 881 00b4 6DD0     		beq	.L66
 250:Drivers/lvgl/src/extra/widgets/imgbtn/lv_imgbtn.c ****         left_w = header.w;
 882              		.loc 1 250 9 is_stmt 1 view .LVU260
 883 00b6 09A9     		add	r1, sp, #36
 884 00b8 5846     		mov	r0, fp
 885 00ba FFF7FEFF 		bl	lv_img_decoder_get_info
 886              	.LVL103:
 251:Drivers/lvgl/src/extra/widgets/imgbtn/lv_imgbtn.c ****         coords_part.x1 = coords.x1;
 887              		.loc 1 251 9 view .LVU261
 251:Drivers/lvgl/src/extra/widgets/imgbtn/lv_imgbtn.c ****         coords_part.x1 = coords.x1;
 888              		.loc 1 251 24 is_stmt 0 view .LVU262
 889 00be 099A     		ldr	r2, [sp, #36]
 890 00c0 C2F38A23 		ubfx	r3, r2, #10, #11
 251:Drivers/lvgl/src/extra/widgets/imgbtn/lv_imgbtn.c ****         coords_part.x1 = coords.x1;
 891              		.loc 1 251 16 view .LVU263
 892 00c4 0393     		str	r3, [sp, #12]
ARM GAS  /var/folders/0z/tsy30v1j4xl4_7kw94k978ww0000gn/T//ccWYDXZi.s 			page 30


 893              	.LVL104:
 252:Drivers/lvgl/src/extra/widgets/imgbtn/lv_imgbtn.c ****         coords_part.y1 = coords.y1;
 894              		.loc 1 252 9 is_stmt 1 view .LVU264
 252:Drivers/lvgl/src/extra/widgets/imgbtn/lv_imgbtn.c ****         coords_part.y1 = coords.y1;
 895              		.loc 1 252 24 is_stmt 0 view .LVU265
 896 00c6 ADF81C80 		strh	r8, [sp, #28]	@ movhi
 253:Drivers/lvgl/src/extra/widgets/imgbtn/lv_imgbtn.c ****         coords_part.x2 = coords.x1 + header.w - 1;
 897              		.loc 1 253 9 is_stmt 1 view .LVU266
 253:Drivers/lvgl/src/extra/widgets/imgbtn/lv_imgbtn.c ****         coords_part.x2 = coords.x1 + header.w - 1;
 898              		.loc 1 253 24 is_stmt 0 view .LVU267
 899 00ca ADF81E60 		strh	r6, [sp, #30]	@ movhi
 254:Drivers/lvgl/src/extra/widgets/imgbtn/lv_imgbtn.c ****         coords_part.y2 = coords.y1 + header.h - 1;
 900              		.loc 1 254 9 is_stmt 1 view .LVU268
 254:Drivers/lvgl/src/extra/widgets/imgbtn/lv_imgbtn.c ****         coords_part.y2 = coords.y1 + header.h - 1;
 901              		.loc 1 254 36 is_stmt 0 view .LVU269
 902 00ce 0199     		ldr	r1, [sp, #4]
 903 00d0 0B44     		add	r3, r3, r1
 904 00d2 9BB2     		uxth	r3, r3
 254:Drivers/lvgl/src/extra/widgets/imgbtn/lv_imgbtn.c ****         coords_part.y2 = coords.y1 + header.h - 1;
 905              		.loc 1 254 47 view .LVU270
 906 00d4 013B     		subs	r3, r3, #1
 254:Drivers/lvgl/src/extra/widgets/imgbtn/lv_imgbtn.c ****         coords_part.y2 = coords.y1 + header.h - 1;
 907              		.loc 1 254 24 view .LVU271
 908 00d6 ADF82030 		strh	r3, [sp, #32]	@ movhi
 255:Drivers/lvgl/src/extra/widgets/imgbtn/lv_imgbtn.c ****         lv_draw_img(draw_ctx, &img_dsc, &coords_part, src);
 909              		.loc 1 255 9 is_stmt 1 view .LVU272
 255:Drivers/lvgl/src/extra/widgets/imgbtn/lv_imgbtn.c ****         lv_draw_img(draw_ctx, &img_dsc, &coords_part, src);
 910              		.loc 1 255 44 is_stmt 0 view .LVU273
 911 00da BDF82630 		ldrh	r3, [sp, #38]
 912 00de C3F34A13 		ubfx	r3, r3, #5, #11
 255:Drivers/lvgl/src/extra/widgets/imgbtn/lv_imgbtn.c ****         lv_draw_img(draw_ctx, &img_dsc, &coords_part, src);
 913              		.loc 1 255 36 view .LVU274
 914 00e2 009A     		ldr	r2, [sp]
 915              	.LVL105:
 255:Drivers/lvgl/src/extra/widgets/imgbtn/lv_imgbtn.c ****         lv_draw_img(draw_ctx, &img_dsc, &coords_part, src);
 916              		.loc 1 255 36 view .LVU275
 917 00e4 1344     		add	r3, r3, r2
 918 00e6 9BB2     		uxth	r3, r3
 255:Drivers/lvgl/src/extra/widgets/imgbtn/lv_imgbtn.c ****         lv_draw_img(draw_ctx, &img_dsc, &coords_part, src);
 919              		.loc 1 255 47 view .LVU276
 920 00e8 013B     		subs	r3, r3, #1
 255:Drivers/lvgl/src/extra/widgets/imgbtn/lv_imgbtn.c ****         lv_draw_img(draw_ctx, &img_dsc, &coords_part, src);
 921              		.loc 1 255 24 view .LVU277
 922 00ea ADF82230 		strh	r3, [sp, #34]	@ movhi
 256:Drivers/lvgl/src/extra/widgets/imgbtn/lv_imgbtn.c ****     }
 923              		.loc 1 256 9 is_stmt 1 view .LVU278
 924 00ee 5B46     		mov	r3, fp
 925 00f0 07AA     		add	r2, sp, #28
 926 00f2 0AA9     		add	r1, sp, #40
 927 00f4 5046     		mov	r0, r10
 928 00f6 FFF7FEFF 		bl	lv_draw_img
 929              	.LVL106:
 930              	.L60:
 259:Drivers/lvgl/src/extra/widgets/imgbtn/lv_imgbtn.c ****     if(src) {
 931              		.loc 1 259 5 view .LVU279
 259:Drivers/lvgl/src/extra/widgets/imgbtn/lv_imgbtn.c ****     if(src) {
 932              		.loc 1 259 9 is_stmt 0 view .LVU280
ARM GAS  /var/folders/0z/tsy30v1j4xl4_7kw94k978ww0000gn/T//ccWYDXZi.s 			page 31


 933 00fa 09F11403 		add	r3, r9, #20
 934 00fe 04EB8303 		add	r3, r4, r3, lsl #2
 935 0102 D3F804B0 		ldr	fp, [r3, #4]
 936              	.LVL107:
 260:Drivers/lvgl/src/extra/widgets/imgbtn/lv_imgbtn.c ****         lv_img_decoder_get_info(src, &header);
 937              		.loc 1 260 5 is_stmt 1 view .LVU281
 260:Drivers/lvgl/src/extra/widgets/imgbtn/lv_imgbtn.c ****         lv_img_decoder_get_info(src, &header);
 938              		.loc 1 260 7 is_stmt 0 view .LVU282
 939 0106 BBF1000F 		cmp	fp, #0
 940 010a 45D0     		beq	.L67
 261:Drivers/lvgl/src/extra/widgets/imgbtn/lv_imgbtn.c ****         right_w = header.w;
 941              		.loc 1 261 9 is_stmt 1 view .LVU283
 942 010c 09A9     		add	r1, sp, #36
 943 010e 5846     		mov	r0, fp
 944 0110 FFF7FEFF 		bl	lv_img_decoder_get_info
 945              	.LVL108:
 262:Drivers/lvgl/src/extra/widgets/imgbtn/lv_imgbtn.c ****         coords_part.x1 = coords.x2 - header.w + 1;
 946              		.loc 1 262 9 view .LVU284
 262:Drivers/lvgl/src/extra/widgets/imgbtn/lv_imgbtn.c ****         coords_part.x1 = coords.x2 - header.w + 1;
 947              		.loc 1 262 25 is_stmt 0 view .LVU285
 948 0114 099A     		ldr	r2, [sp, #36]
 949 0116 C2F38A23 		ubfx	r3, r2, #10, #11
 262:Drivers/lvgl/src/extra/widgets/imgbtn/lv_imgbtn.c ****         coords_part.x1 = coords.x2 - header.w + 1;
 950              		.loc 1 262 17 view .LVU286
 951 011a 9846     		mov	r8, r3
 952              	.LVL109:
 263:Drivers/lvgl/src/extra/widgets/imgbtn/lv_imgbtn.c ****         coords_part.y1 = coords.y1;
 953              		.loc 1 263 9 is_stmt 1 view .LVU287
 263:Drivers/lvgl/src/extra/widgets/imgbtn/lv_imgbtn.c ****         coords_part.y1 = coords.y1;
 954              		.loc 1 263 36 is_stmt 0 view .LVU288
 955 011c 029A     		ldr	r2, [sp, #8]
 956              	.LVL110:
 263:Drivers/lvgl/src/extra/widgets/imgbtn/lv_imgbtn.c ****         coords_part.y1 = coords.y1;
 957              		.loc 1 263 36 view .LVU289
 958 011e D31A     		subs	r3, r2, r3
 959 0120 9BB2     		uxth	r3, r3
 263:Drivers/lvgl/src/extra/widgets/imgbtn/lv_imgbtn.c ****         coords_part.y1 = coords.y1;
 960              		.loc 1 263 47 view .LVU290
 961 0122 0133     		adds	r3, r3, #1
 263:Drivers/lvgl/src/extra/widgets/imgbtn/lv_imgbtn.c ****         coords_part.y1 = coords.y1;
 962              		.loc 1 263 24 view .LVU291
 963 0124 ADF81C30 		strh	r3, [sp, #28]	@ movhi
 264:Drivers/lvgl/src/extra/widgets/imgbtn/lv_imgbtn.c ****         coords_part.x2 = coords.x2;
 964              		.loc 1 264 9 is_stmt 1 view .LVU292
 264:Drivers/lvgl/src/extra/widgets/imgbtn/lv_imgbtn.c ****         coords_part.x2 = coords.x2;
 965              		.loc 1 264 24 is_stmt 0 view .LVU293
 966 0128 ADF81E60 		strh	r6, [sp, #30]	@ movhi
 265:Drivers/lvgl/src/extra/widgets/imgbtn/lv_imgbtn.c ****         coords_part.y2 = coords.y1 + header.h - 1;
 967              		.loc 1 265 9 is_stmt 1 view .LVU294
 265:Drivers/lvgl/src/extra/widgets/imgbtn/lv_imgbtn.c ****         coords_part.y2 = coords.y1 + header.h - 1;
 968              		.loc 1 265 24 is_stmt 0 view .LVU295
 969 012c ADF82050 		strh	r5, [sp, #32]	@ movhi
 266:Drivers/lvgl/src/extra/widgets/imgbtn/lv_imgbtn.c ****         lv_draw_img(draw_ctx, &img_dsc, &coords_part, src);
 970              		.loc 1 266 9 is_stmt 1 view .LVU296
 266:Drivers/lvgl/src/extra/widgets/imgbtn/lv_imgbtn.c ****         lv_draw_img(draw_ctx, &img_dsc, &coords_part, src);
 971              		.loc 1 266 44 is_stmt 0 view .LVU297
 972 0130 BDF82630 		ldrh	r3, [sp, #38]
ARM GAS  /var/folders/0z/tsy30v1j4xl4_7kw94k978ww0000gn/T//ccWYDXZi.s 			page 32


 973 0134 C3F34A13 		ubfx	r3, r3, #5, #11
 266:Drivers/lvgl/src/extra/widgets/imgbtn/lv_imgbtn.c ****         lv_draw_img(draw_ctx, &img_dsc, &coords_part, src);
 974              		.loc 1 266 36 view .LVU298
 975 0138 009A     		ldr	r2, [sp]
 976 013a 1344     		add	r3, r3, r2
 977 013c 9BB2     		uxth	r3, r3
 266:Drivers/lvgl/src/extra/widgets/imgbtn/lv_imgbtn.c ****         lv_draw_img(draw_ctx, &img_dsc, &coords_part, src);
 978              		.loc 1 266 47 view .LVU299
 979 013e 013B     		subs	r3, r3, #1
 266:Drivers/lvgl/src/extra/widgets/imgbtn/lv_imgbtn.c ****         lv_draw_img(draw_ctx, &img_dsc, &coords_part, src);
 980              		.loc 1 266 24 view .LVU300
 981 0140 ADF82230 		strh	r3, [sp, #34]	@ movhi
 267:Drivers/lvgl/src/extra/widgets/imgbtn/lv_imgbtn.c ****     }
 982              		.loc 1 267 9 is_stmt 1 view .LVU301
 983 0144 5B46     		mov	r3, fp
 984 0146 07AA     		add	r2, sp, #28
 985 0148 0AA9     		add	r1, sp, #40
 986 014a 5046     		mov	r0, r10
 987 014c FFF7FEFF 		bl	lv_draw_img
 988              	.LVL111:
 989              	.L61:
 270:Drivers/lvgl/src/extra/widgets/imgbtn/lv_imgbtn.c ****     if(src) {
 990              		.loc 1 270 5 view .LVU302
 270:Drivers/lvgl/src/extra/widgets/imgbtn/lv_imgbtn.c ****     if(src) {
 991              		.loc 1 270 9 is_stmt 0 view .LVU303
 992 0150 09F10809 		add	r9, r9, #8
 993 0154 04EB8904 		add	r4, r4, r9, lsl #2
 994              	.LVL112:
 270:Drivers/lvgl/src/extra/widgets/imgbtn/lv_imgbtn.c ****     if(src) {
 995              		.loc 1 270 9 view .LVU304
 996 0158 6568     		ldr	r5, [r4, #4]
 997              	.LVL113:
 271:Drivers/lvgl/src/extra/widgets/imgbtn/lv_imgbtn.c ****         lv_area_t clip_area_center;
 998              		.loc 1 271 5 is_stmt 1 view .LVU305
 271:Drivers/lvgl/src/extra/widgets/imgbtn/lv_imgbtn.c ****         lv_area_t clip_area_center;
 999              		.loc 1 271 7 is_stmt 0 view .LVU306
 1000 015a BDB1     		cbz	r5, .L59
 1001              	.LBB16:
 272:Drivers/lvgl/src/extra/widgets/imgbtn/lv_imgbtn.c ****         clip_area_center.x1 = coords.x1 + left_w;
 1002              		.loc 1 272 9 is_stmt 1 view .LVU307
 273:Drivers/lvgl/src/extra/widgets/imgbtn/lv_imgbtn.c ****         clip_area_center.x2 = coords.x2 - right_w;
 1003              		.loc 1 273 9 view .LVU308
 273:Drivers/lvgl/src/extra/widgets/imgbtn/lv_imgbtn.c ****         clip_area_center.x2 = coords.x2 - right_w;
 1004              		.loc 1 273 41 is_stmt 0 view .LVU309
 1005 015c 019C     		ldr	r4, [sp, #4]
 1006 015e 039B     		ldr	r3, [sp, #12]
 1007 0160 1C44     		add	r4, r4, r3
 1008 0162 1FFA84F9 		uxth	r9, r4
 1009 0166 24B2     		sxth	r4, r4
 273:Drivers/lvgl/src/extra/widgets/imgbtn/lv_imgbtn.c ****         clip_area_center.x2 = coords.x2 - right_w;
 1010              		.loc 1 273 29 view .LVU310
 1011 0168 ADF81440 		strh	r4, [sp, #20]	@ movhi
 274:Drivers/lvgl/src/extra/widgets/imgbtn/lv_imgbtn.c ****         clip_area_center.y1 = coords.y1;
 1012              		.loc 1 274 9 is_stmt 1 view .LVU311
 274:Drivers/lvgl/src/extra/widgets/imgbtn/lv_imgbtn.c ****         clip_area_center.y1 = coords.y1;
 1013              		.loc 1 274 41 is_stmt 0 view .LVU312
 1014 016c 029B     		ldr	r3, [sp, #8]
ARM GAS  /var/folders/0z/tsy30v1j4xl4_7kw94k978ww0000gn/T//ccWYDXZi.s 			page 33


 1015 016e A3EB0803 		sub	r3, r3, r8
 274:Drivers/lvgl/src/extra/widgets/imgbtn/lv_imgbtn.c ****         clip_area_center.y1 = coords.y1;
 1016              		.loc 1 274 29 view .LVU313
 1017 0172 ADF81830 		strh	r3, [sp, #24]	@ movhi
 275:Drivers/lvgl/src/extra/widgets/imgbtn/lv_imgbtn.c ****         clip_area_center.y2 = coords.y2;
 1018              		.loc 1 275 9 is_stmt 1 view .LVU314
 275:Drivers/lvgl/src/extra/widgets/imgbtn/lv_imgbtn.c ****         clip_area_center.y2 = coords.y2;
 1019              		.loc 1 275 29 is_stmt 0 view .LVU315
 1020 0176 ADF81660 		strh	r6, [sp, #22]	@ movhi
 276:Drivers/lvgl/src/extra/widgets/imgbtn/lv_imgbtn.c **** 
 1021              		.loc 1 276 9 is_stmt 1 view .LVU316
 276:Drivers/lvgl/src/extra/widgets/imgbtn/lv_imgbtn.c **** 
 1022              		.loc 1 276 29 is_stmt 0 view .LVU317
 1023 017a ADF81A70 		strh	r7, [sp, #26]	@ movhi
 279:Drivers/lvgl/src/extra/widgets/imgbtn/lv_imgbtn.c ****         comm_res = _lv_area_intersect(&clip_area_center, &clip_area_center, draw_ctx->clip_area);
 1024              		.loc 1 279 9 is_stmt 1 view .LVU318
 280:Drivers/lvgl/src/extra/widgets/imgbtn/lv_imgbtn.c ****         if(comm_res) {
 1025              		.loc 1 280 9 view .LVU319
 280:Drivers/lvgl/src/extra/widgets/imgbtn/lv_imgbtn.c ****         if(comm_res) {
 1026              		.loc 1 280 20 is_stmt 0 view .LVU320
 1027 017e DAF80820 		ldr	r2, [r10, #8]
 1028 0182 05A9     		add	r1, sp, #20
 1029 0184 0846     		mov	r0, r1
 1030 0186 FFF7FEFF 		bl	_lv_area_intersect
 1031              	.LVL114:
 281:Drivers/lvgl/src/extra/widgets/imgbtn/lv_imgbtn.c ****             lv_coord_t i;
 1032              		.loc 1 281 9 is_stmt 1 view .LVU321
 281:Drivers/lvgl/src/extra/widgets/imgbtn/lv_imgbtn.c ****             lv_coord_t i;
 1033              		.loc 1 281 11 is_stmt 0 view .LVU322
 1034 018a 40B9     		cbnz	r0, .L69
 1035              	.LVL115:
 1036              	.L59:
 281:Drivers/lvgl/src/extra/widgets/imgbtn/lv_imgbtn.c ****             lv_coord_t i;
 1037              		.loc 1 281 11 view .LVU323
 1038              	.LBE16:
 301:Drivers/lvgl/src/extra/widgets/imgbtn/lv_imgbtn.c **** 
 1039              		.loc 1 301 1 view .LVU324
 1040 018c 13B0     		add	sp, sp, #76
 1041              		.cfi_remember_state
 1042              		.cfi_def_cfa_offset 36
 1043              		@ sp needed
 1044 018e BDE8F08F 		pop	{r4, r5, r6, r7, r8, r9, r10, fp, pc}
 1045              	.LVL116:
 1046              	.L66:
 1047              		.cfi_restore_state
 246:Drivers/lvgl/src/extra/widgets/imgbtn/lv_imgbtn.c ****     lv_coord_t right_w = 0;
 1048              		.loc 1 246 16 view .LVU325
 1049 0192 0023     		movs	r3, #0
 1050 0194 0393     		str	r3, [sp, #12]
 1051 0196 B0E7     		b	.L60
 1052              	.LVL117:
 1053              	.L67:
 247:Drivers/lvgl/src/extra/widgets/imgbtn/lv_imgbtn.c **** 
 1054              		.loc 1 247 16 view .LVU326
 1055 0198 4FF00008 		mov	r8, #0
 1056 019c D8E7     		b	.L61
 1057              	.LVL118:
ARM GAS  /var/folders/0z/tsy30v1j4xl4_7kw94k978ww0000gn/T//ccWYDXZi.s 			page 34


 1058              	.L69:
 1059              	.LBB18:
 1060              	.LBB17:
 282:Drivers/lvgl/src/extra/widgets/imgbtn/lv_imgbtn.c ****             lv_img_decoder_get_info(src, &header);
 1061              		.loc 1 282 13 is_stmt 1 view .LVU327
 283:Drivers/lvgl/src/extra/widgets/imgbtn/lv_imgbtn.c **** 
 1062              		.loc 1 283 13 view .LVU328
 1063 019e 09A9     		add	r1, sp, #36
 1064 01a0 2846     		mov	r0, r5
 1065              	.LVL119:
 283:Drivers/lvgl/src/extra/widgets/imgbtn/lv_imgbtn.c **** 
 1066              		.loc 1 283 13 is_stmt 0 view .LVU329
 1067 01a2 FFF7FEFF 		bl	lv_img_decoder_get_info
 1068              	.LVL120:
 285:Drivers/lvgl/src/extra/widgets/imgbtn/lv_imgbtn.c ****             draw_ctx->clip_area = &clip_area_center;
 1069              		.loc 1 285 13 is_stmt 1 view .LVU330
 285:Drivers/lvgl/src/extra/widgets/imgbtn/lv_imgbtn.c ****             draw_ctx->clip_area = &clip_area_center;
 1070              		.loc 1 285 31 is_stmt 0 view .LVU331
 1071 01a6 DAF80870 		ldr	r7, [r10, #8]
 1072              	.LVL121:
 286:Drivers/lvgl/src/extra/widgets/imgbtn/lv_imgbtn.c **** 
 1073              		.loc 1 286 13 is_stmt 1 view .LVU332
 286:Drivers/lvgl/src/extra/widgets/imgbtn/lv_imgbtn.c **** 
 1074              		.loc 1 286 33 is_stmt 0 view .LVU333
 1075 01aa 05AB     		add	r3, sp, #20
 1076 01ac CAF80830 		str	r3, [r10, #8]
 288:Drivers/lvgl/src/extra/widgets/imgbtn/lv_imgbtn.c ****             coords_part.y1 = coords.y1;
 1077              		.loc 1 288 13 is_stmt 1 view .LVU334
 288:Drivers/lvgl/src/extra/widgets/imgbtn/lv_imgbtn.c ****             coords_part.y1 = coords.y1;
 1078              		.loc 1 288 28 is_stmt 0 view .LVU335
 1079 01b0 ADF81C40 		strh	r4, [sp, #28]	@ movhi
 289:Drivers/lvgl/src/extra/widgets/imgbtn/lv_imgbtn.c ****             coords_part.x2 = coords_part.x1 + header.w - 1;
 1080              		.loc 1 289 13 is_stmt 1 view .LVU336
 289:Drivers/lvgl/src/extra/widgets/imgbtn/lv_imgbtn.c ****             coords_part.x2 = coords_part.x1 + header.w - 1;
 1081              		.loc 1 289 28 is_stmt 0 view .LVU337
 1082 01b4 ADF81E60 		strh	r6, [sp, #30]	@ movhi
 290:Drivers/lvgl/src/extra/widgets/imgbtn/lv_imgbtn.c ****             coords_part.y2 = coords_part.y1 + header.h - 1;
 1083              		.loc 1 290 13 is_stmt 1 view .LVU338
 290:Drivers/lvgl/src/extra/widgets/imgbtn/lv_imgbtn.c ****             coords_part.y2 = coords_part.y1 + header.h - 1;
 1084              		.loc 1 290 53 is_stmt 0 view .LVU339
 1085 01b8 099B     		ldr	r3, [sp, #36]
 1086 01ba C3F38A23 		ubfx	r3, r3, #10, #11
 290:Drivers/lvgl/src/extra/widgets/imgbtn/lv_imgbtn.c ****             coords_part.y2 = coords_part.y1 + header.h - 1;
 1087              		.loc 1 290 45 view .LVU340
 1088 01be 9944     		add	r9, r9, r3
 1089 01c0 1FFA89F9 		uxth	r9, r9
 290:Drivers/lvgl/src/extra/widgets/imgbtn/lv_imgbtn.c ****             coords_part.y2 = coords_part.y1 + header.h - 1;
 1090              		.loc 1 290 56 view .LVU341
 1091 01c4 09F1FF39 		add	r9, r9, #-1
 290:Drivers/lvgl/src/extra/widgets/imgbtn/lv_imgbtn.c ****             coords_part.y2 = coords_part.y1 + header.h - 1;
 1092              		.loc 1 290 28 view .LVU342
 1093 01c8 ADF82090 		strh	r9, [sp, #32]	@ movhi
 291:Drivers/lvgl/src/extra/widgets/imgbtn/lv_imgbtn.c **** 
 1094              		.loc 1 291 13 is_stmt 1 view .LVU343
 291:Drivers/lvgl/src/extra/widgets/imgbtn/lv_imgbtn.c **** 
 1095              		.loc 1 291 53 is_stmt 0 view .LVU344
 1096 01cc BDF82630 		ldrh	r3, [sp, #38]
ARM GAS  /var/folders/0z/tsy30v1j4xl4_7kw94k978ww0000gn/T//ccWYDXZi.s 			page 35


 1097 01d0 C3F34A13 		ubfx	r3, r3, #5, #11
 291:Drivers/lvgl/src/extra/widgets/imgbtn/lv_imgbtn.c **** 
 1098              		.loc 1 291 45 view .LVU345
 1099 01d4 009A     		ldr	r2, [sp]
 1100 01d6 1A44     		add	r2, r2, r3
 1101 01d8 93B2     		uxth	r3, r2
 291:Drivers/lvgl/src/extra/widgets/imgbtn/lv_imgbtn.c **** 
 1102              		.loc 1 291 56 view .LVU346
 1103 01da 013B     		subs	r3, r3, #1
 291:Drivers/lvgl/src/extra/widgets/imgbtn/lv_imgbtn.c **** 
 1104              		.loc 1 291 28 view .LVU347
 1105 01dc ADF82230 		strh	r3, [sp, #34]	@ movhi
 293:Drivers/lvgl/src/extra/widgets/imgbtn/lv_imgbtn.c ****                 lv_draw_img(draw_ctx, &img_dsc, &coords_part, src);
 1106              		.loc 1 293 13 is_stmt 1 view .LVU348
 1107              	.LVL122:
 293:Drivers/lvgl/src/extra/widgets/imgbtn/lv_imgbtn.c ****                 lv_draw_img(draw_ctx, &img_dsc, &coords_part, src);
 1108              		.loc 1 293 13 is_stmt 0 view .LVU349
 1109 01e0 12E0     		b	.L64
 1110              	.LVL123:
 1111              	.L65:
 294:Drivers/lvgl/src/extra/widgets/imgbtn/lv_imgbtn.c ****                 coords_part.x1 = coords_part.x2 + 1;
 1112              		.loc 1 294 17 is_stmt 1 discriminator 3 view .LVU350
 1113 01e2 2B46     		mov	r3, r5
 1114 01e4 07AA     		add	r2, sp, #28
 1115 01e6 0AA9     		add	r1, sp, #40
 1116 01e8 5046     		mov	r0, r10
 1117 01ea FFF7FEFF 		bl	lv_draw_img
 1118              	.LVL124:
 295:Drivers/lvgl/src/extra/widgets/imgbtn/lv_imgbtn.c ****                 coords_part.x2 += header.w;
 1119              		.loc 1 295 17 discriminator 3 view .LVU351
 295:Drivers/lvgl/src/extra/widgets/imgbtn/lv_imgbtn.c ****                 coords_part.x2 += header.w;
 1120              		.loc 1 295 45 is_stmt 0 discriminator 3 view .LVU352
 1121 01ee BDF82020 		ldrh	r2, [sp, #32]
 295:Drivers/lvgl/src/extra/widgets/imgbtn/lv_imgbtn.c ****                 coords_part.x2 += header.w;
 1122              		.loc 1 295 49 discriminator 3 view .LVU353
 1123 01f2 531C     		adds	r3, r2, #1
 295:Drivers/lvgl/src/extra/widgets/imgbtn/lv_imgbtn.c ****                 coords_part.x2 += header.w;
 1124              		.loc 1 295 32 discriminator 3 view .LVU354
 1125 01f4 ADF81C30 		strh	r3, [sp, #28]	@ movhi
 296:Drivers/lvgl/src/extra/widgets/imgbtn/lv_imgbtn.c ****             }
 1126              		.loc 1 296 17 is_stmt 1 discriminator 3 view .LVU355
 296:Drivers/lvgl/src/extra/widgets/imgbtn/lv_imgbtn.c ****             }
 1127              		.loc 1 296 41 is_stmt 0 discriminator 3 view .LVU356
 1128 01f8 099B     		ldr	r3, [sp, #36]
 1129 01fa C3F38A23 		ubfx	r3, r3, #10, #11
 296:Drivers/lvgl/src/extra/widgets/imgbtn/lv_imgbtn.c ****             }
 1130              		.loc 1 296 32 discriminator 3 view .LVU357
 1131 01fe 1A44     		add	r2, r2, r3
 1132 0200 ADF82020 		strh	r2, [sp, #32]	@ movhi
 293:Drivers/lvgl/src/extra/widgets/imgbtn/lv_imgbtn.c ****                 lv_draw_img(draw_ctx, &img_dsc, &coords_part, src);
 1133              		.loc 1 293 93 is_stmt 1 discriminator 3 view .LVU358
 1134 0204 2344     		add	r3, r3, r4
 1135 0206 1CB2     		sxth	r4, r3
 1136              	.LVL125:
 1137              	.L64:
 293:Drivers/lvgl/src/extra/widgets/imgbtn/lv_imgbtn.c ****                 lv_draw_img(draw_ctx, &img_dsc, &coords_part, src);
 1138              		.loc 1 293 39 discriminator 1 view .LVU359
ARM GAS  /var/folders/0z/tsy30v1j4xl4_7kw94k978ww0000gn/T//ccWYDXZi.s 			page 36


 293:Drivers/lvgl/src/extra/widgets/imgbtn/lv_imgbtn.c ****                 lv_draw_img(draw_ctx, &img_dsc, &coords_part, src);
 1139              		.loc 1 293 70 is_stmt 0 discriminator 1 view .LVU360
 1140 0208 BDF81830 		ldrh	r3, [sp, #24]
 293:Drivers/lvgl/src/extra/widgets/imgbtn/lv_imgbtn.c ****                 lv_draw_img(draw_ctx, &img_dsc, &coords_part, src);
 1141              		.loc 1 293 82 discriminator 1 view .LVU361
 1142 020c 099A     		ldr	r2, [sp, #36]
 1143 020e C2F38A22 		ubfx	r2, r2, #10, #11
 293:Drivers/lvgl/src/extra/widgets/imgbtn/lv_imgbtn.c ****                 lv_draw_img(draw_ctx, &img_dsc, &coords_part, src);
 1144              		.loc 1 293 74 discriminator 1 view .LVU362
 1145 0212 1344     		add	r3, r3, r2
 1146 0214 9BB2     		uxth	r3, r3
 293:Drivers/lvgl/src/extra/widgets/imgbtn/lv_imgbtn.c ****                 lv_draw_img(draw_ctx, &img_dsc, &coords_part, src);
 1147              		.loc 1 293 85 discriminator 1 view .LVU363
 1148 0216 013B     		subs	r3, r3, #1
 1149 0218 1BB2     		sxth	r3, r3
 293:Drivers/lvgl/src/extra/widgets/imgbtn/lv_imgbtn.c ****                 lv_draw_img(draw_ctx, &img_dsc, &coords_part, src);
 1150              		.loc 1 293 39 discriminator 1 view .LVU364
 1151 021a A342     		cmp	r3, r4
 1152 021c E1DC     		bgt	.L65
 298:Drivers/lvgl/src/extra/widgets/imgbtn/lv_imgbtn.c ****         }
 1153              		.loc 1 298 13 is_stmt 1 view .LVU365
 298:Drivers/lvgl/src/extra/widgets/imgbtn/lv_imgbtn.c ****         }
 1154              		.loc 1 298 33 is_stmt 0 view .LVU366
 1155 021e CAF80870 		str	r7, [r10, #8]
 1156              	.LBE17:
 1157              	.LBE18:
 301:Drivers/lvgl/src/extra/widgets/imgbtn/lv_imgbtn.c **** 
 1158              		.loc 1 301 1 view .LVU367
 1159 0222 B3E7     		b	.L59
 1160              		.cfi_endproc
 1161              	.LFE212:
 1163              		.section	.text.lv_imgbtn_event,"ax",%progbits
 1164              		.align	1
 1165              		.syntax unified
 1166              		.thumb
 1167              		.thumb_func
 1169              	lv_imgbtn_event:
 1170              	.LVL126:
 1171              	.LFB211:
 178:Drivers/lvgl/src/extra/widgets/imgbtn/lv_imgbtn.c ****     LV_UNUSED(class_p);
 1172              		.loc 1 178 1 is_stmt 1 view -0
 1173              		.cfi_startproc
 1174              		@ args = 0, pretend = 0, frame = 8
 1175              		@ frame_needed = 0, uses_anonymous_args = 0
 178:Drivers/lvgl/src/extra/widgets/imgbtn/lv_imgbtn.c ****     LV_UNUSED(class_p);
 1176              		.loc 1 178 1 is_stmt 0 view .LVU369
 1177 0000 70B5     		push	{r4, r5, r6, lr}
 1178              		.cfi_def_cfa_offset 16
 1179              		.cfi_offset 4, -16
 1180              		.cfi_offset 5, -12
 1181              		.cfi_offset 6, -8
 1182              		.cfi_offset 14, -4
 1183 0002 82B0     		sub	sp, sp, #8
 1184              		.cfi_def_cfa_offset 24
 1185 0004 0C46     		mov	r4, r1
 179:Drivers/lvgl/src/extra/widgets/imgbtn/lv_imgbtn.c **** 
 1186              		.loc 1 179 5 is_stmt 1 view .LVU370
ARM GAS  /var/folders/0z/tsy30v1j4xl4_7kw94k978ww0000gn/T//ccWYDXZi.s 			page 37


 181:Drivers/lvgl/src/extra/widgets/imgbtn/lv_imgbtn.c ****     if(res != LV_RES_OK) return;
 1187              		.loc 1 181 5 view .LVU371
 181:Drivers/lvgl/src/extra/widgets/imgbtn/lv_imgbtn.c ****     if(res != LV_RES_OK) return;
 1188              		.loc 1 181 20 is_stmt 0 view .LVU372
 1189 0006 5D48     		ldr	r0, .L83
 1190              	.LVL127:
 181:Drivers/lvgl/src/extra/widgets/imgbtn/lv_imgbtn.c ****     if(res != LV_RES_OK) return;
 1191              		.loc 1 181 20 view .LVU373
 1192 0008 FFF7FEFF 		bl	lv_obj_event_base
 1193              	.LVL128:
 182:Drivers/lvgl/src/extra/widgets/imgbtn/lv_imgbtn.c **** 
 1194              		.loc 1 182 5 is_stmt 1 view .LVU374
 182:Drivers/lvgl/src/extra/widgets/imgbtn/lv_imgbtn.c **** 
 1195              		.loc 1 182 7 is_stmt 0 view .LVU375
 1196 000c 0128     		cmp	r0, #1
 1197 000e 01D0     		beq	.L82
 1198              	.LVL129:
 1199              	.L70:
 217:Drivers/lvgl/src/extra/widgets/imgbtn/lv_imgbtn.c **** 
 1200              		.loc 1 217 1 view .LVU376
 1201 0010 02B0     		add	sp, sp, #8
 1202              		.cfi_remember_state
 1203              		.cfi_def_cfa_offset 16
 1204              		@ sp needed
 1205 0012 70BD     		pop	{r4, r5, r6, pc}
 1206              	.LVL130:
 1207              	.L82:
 1208              		.cfi_restore_state
 184:Drivers/lvgl/src/extra/widgets/imgbtn/lv_imgbtn.c ****     lv_obj_t * obj = lv_event_get_target(e);
 1209              		.loc 1 184 5 is_stmt 1 view .LVU377
 184:Drivers/lvgl/src/extra/widgets/imgbtn/lv_imgbtn.c ****     lv_obj_t * obj = lv_event_get_target(e);
 1210              		.loc 1 184 28 is_stmt 0 view .LVU378
 1211 0014 2046     		mov	r0, r4
 1212              	.LVL131:
 184:Drivers/lvgl/src/extra/widgets/imgbtn/lv_imgbtn.c ****     lv_obj_t * obj = lv_event_get_target(e);
 1213              		.loc 1 184 28 view .LVU379
 1214 0016 FFF7FEFF 		bl	lv_event_get_code
 1215              	.LVL132:
 1216 001a 0546     		mov	r5, r0
 1217              	.LVL133:
 185:Drivers/lvgl/src/extra/widgets/imgbtn/lv_imgbtn.c ****     if(code == LV_EVENT_PRESSED || code == LV_EVENT_RELEASED || code == LV_EVENT_PRESS_LOST) {
 1218              		.loc 1 185 5 is_stmt 1 view .LVU380
 185:Drivers/lvgl/src/extra/widgets/imgbtn/lv_imgbtn.c ****     if(code == LV_EVENT_PRESSED || code == LV_EVENT_RELEASED || code == LV_EVENT_PRESS_LOST) {
 1219              		.loc 1 185 22 is_stmt 0 view .LVU381
 1220 001c 2046     		mov	r0, r4
 1221 001e FFF7FEFF 		bl	lv_event_get_target
 1222              	.LVL134:
 1223 0022 0646     		mov	r6, r0
 1224              	.LVL135:
 186:Drivers/lvgl/src/extra/widgets/imgbtn/lv_imgbtn.c ****         refr_img(obj);
 1225              		.loc 1 186 5 is_stmt 1 view .LVU382
 186:Drivers/lvgl/src/extra/widgets/imgbtn/lv_imgbtn.c ****         refr_img(obj);
 1226              		.loc 1 186 7 is_stmt 0 view .LVU383
 1227 0024 012D     		cmp	r5, #1
 1228 0026 59D0     		beq	.L72
 1229 0028 033D     		subs	r5, r5, #3
 1230              	.LVL136:
ARM GAS  /var/folders/0z/tsy30v1j4xl4_7kw94k978ww0000gn/T//ccWYDXZi.s 			page 38


 186:Drivers/lvgl/src/extra/widgets/imgbtn/lv_imgbtn.c ****         refr_img(obj);
 1231              		.loc 1 186 7 view .LVU384
 1232 002a 292D     		cmp	r5, #41
 1233 002c F0D8     		bhi	.L70
 1234 002e 01A3     		adr	r3, .L74
 1235 0030 53F825F0 		ldr	pc, [r3, r5, lsl #2]
 1236              		.p2align 2
 1237              	.L74:
 1238 0034 DD000000 		.word	.L72+1
 1239 0038 11000000 		.word	.L70+1
 1240 003c 11000000 		.word	.L70+1
 1241 0040 11000000 		.word	.L70+1
 1242 0044 11000000 		.word	.L70+1
 1243 0048 DD000000 		.word	.L72+1
 1244 004c 11000000 		.word	.L70+1
 1245 0050 11000000 		.word	.L70+1
 1246 0054 11000000 		.word	.L70+1
 1247 0058 11000000 		.word	.L70+1
 1248 005c 11000000 		.word	.L70+1
 1249 0060 11000000 		.word	.L70+1
 1250 0064 11000000 		.word	.L70+1
 1251 0068 11000000 		.word	.L70+1
 1252 006c 11000000 		.word	.L70+1
 1253 0070 ED000000 		.word	.L77+1
 1254 0074 11000000 		.word	.L70+1
 1255 0078 11000000 		.word	.L70+1
 1256 007c E5000000 		.word	.L76+1
 1257 0080 11000000 		.word	.L70+1
 1258 0084 11000000 		.word	.L70+1
 1259 0088 11000000 		.word	.L70+1
 1260 008c 11000000 		.word	.L70+1
 1261 0090 11000000 		.word	.L70+1
 1262 0094 11000000 		.word	.L70+1
 1263 0098 61010000 		.word	.L75+1
 1264 009c 11000000 		.word	.L70+1
 1265 00a0 11000000 		.word	.L70+1
 1266 00a4 11000000 		.word	.L70+1
 1267 00a8 11000000 		.word	.L70+1
 1268 00ac 11000000 		.word	.L70+1
 1269 00b0 11000000 		.word	.L70+1
 1270 00b4 11000000 		.word	.L70+1
 1271 00b8 11000000 		.word	.L70+1
 1272 00bc 11000000 		.word	.L70+1
 1273 00c0 11000000 		.word	.L70+1
 1274 00c4 11000000 		.word	.L70+1
 1275 00c8 11000000 		.word	.L70+1
 1276 00cc 11000000 		.word	.L70+1
 1277 00d0 11000000 		.word	.L70+1
 1278 00d4 11000000 		.word	.L70+1
 1279 00d8 FF000000 		.word	.L73+1
 1280              		.p2align 1
 1281              	.L72:
 187:Drivers/lvgl/src/extra/widgets/imgbtn/lv_imgbtn.c ****     }
 1282              		.loc 1 187 9 is_stmt 1 view .LVU385
 1283 00dc 3046     		mov	r0, r6
 1284              	.LVL137:
 187:Drivers/lvgl/src/extra/widgets/imgbtn/lv_imgbtn.c ****     }
ARM GAS  /var/folders/0z/tsy30v1j4xl4_7kw94k978ww0000gn/T//ccWYDXZi.s 			page 39


 1285              		.loc 1 187 9 is_stmt 0 view .LVU386
 1286 00de FFF7FEFF 		bl	refr_img
 1287              	.LVL138:
 1288 00e2 95E7     		b	.L70
 1289              	.LVL139:
 1290              	.L76:
 190:Drivers/lvgl/src/extra/widgets/imgbtn/lv_imgbtn.c ****     }
 1291              		.loc 1 190 9 is_stmt 1 view .LVU387
 1292 00e4 2046     		mov	r0, r4
 1293              	.LVL140:
 190:Drivers/lvgl/src/extra/widgets/imgbtn/lv_imgbtn.c ****     }
 1294              		.loc 1 190 9 is_stmt 0 view .LVU388
 1295 00e6 FFF7FEFF 		bl	draw_main
 1296              	.LVL141:
 1297 00ea 91E7     		b	.L70
 1298              	.LVL142:
 1299              	.L77:
 1300              	.LBB19:
 193:Drivers/lvgl/src/extra/widgets/imgbtn/lv_imgbtn.c ****         if(info->res != LV_COVER_RES_MASKED) info->res = LV_COVER_RES_NOT_COVER;
 1301              		.loc 1 193 9 is_stmt 1 view .LVU389
 193:Drivers/lvgl/src/extra/widgets/imgbtn/lv_imgbtn.c ****         if(info->res != LV_COVER_RES_MASKED) info->res = LV_COVER_RES_NOT_COVER;
 1302              		.loc 1 193 40 is_stmt 0 view .LVU390
 1303 00ec 2046     		mov	r0, r4
 1304              	.LVL143:
 193:Drivers/lvgl/src/extra/widgets/imgbtn/lv_imgbtn.c ****         if(info->res != LV_COVER_RES_MASKED) info->res = LV_COVER_RES_NOT_COVER;
 1305              		.loc 1 193 40 view .LVU391
 1306 00ee FFF7FEFF 		bl	lv_event_get_param
 1307              	.LVL144:
 194:Drivers/lvgl/src/extra/widgets/imgbtn/lv_imgbtn.c ****     }
 1308              		.loc 1 194 9 is_stmt 1 view .LVU392
 194:Drivers/lvgl/src/extra/widgets/imgbtn/lv_imgbtn.c ****     }
 1309              		.loc 1 194 16 is_stmt 0 view .LVU393
 1310 00f2 0378     		ldrb	r3, [r0]	@ zero_extendqisi2
 194:Drivers/lvgl/src/extra/widgets/imgbtn/lv_imgbtn.c ****     }
 1311              		.loc 1 194 11 view .LVU394
 1312 00f4 022B     		cmp	r3, #2
 1313 00f6 8BD0     		beq	.L70
 194:Drivers/lvgl/src/extra/widgets/imgbtn/lv_imgbtn.c ****     }
 1314              		.loc 1 194 46 is_stmt 1 discriminator 1 view .LVU395
 194:Drivers/lvgl/src/extra/widgets/imgbtn/lv_imgbtn.c ****     }
 1315              		.loc 1 194 56 is_stmt 0 discriminator 1 view .LVU396
 1316 00f8 0123     		movs	r3, #1
 1317 00fa 0370     		strb	r3, [r0]
 1318 00fc 88E7     		b	.L70
 1319              	.LVL145:
 1320              	.L73:
 194:Drivers/lvgl/src/extra/widgets/imgbtn/lv_imgbtn.c ****     }
 1321              		.loc 1 194 56 discriminator 1 view .LVU397
 1322              	.LBE19:
 1323              	.LBB20:
 197:Drivers/lvgl/src/extra/widgets/imgbtn/lv_imgbtn.c ****         lv_imgbtn_t * imgbtn = (lv_imgbtn_t *)obj;
 1324              		.loc 1 197 9 is_stmt 1 view .LVU398
 197:Drivers/lvgl/src/extra/widgets/imgbtn/lv_imgbtn.c ****         lv_imgbtn_t * imgbtn = (lv_imgbtn_t *)obj;
 1325              		.loc 1 197 26 is_stmt 0 view .LVU399
 1326 00fe 2046     		mov	r0, r4
 1327              	.LVL146:
 197:Drivers/lvgl/src/extra/widgets/imgbtn/lv_imgbtn.c ****         lv_imgbtn_t * imgbtn = (lv_imgbtn_t *)obj;
ARM GAS  /var/folders/0z/tsy30v1j4xl4_7kw94k978ww0000gn/T//ccWYDXZi.s 			page 40


 1328              		.loc 1 197 26 view .LVU400
 1329 0100 FFF7FEFF 		bl	lv_event_get_self_size_info
 1330              	.LVL147:
 1331 0104 0446     		mov	r4, r0
 1332              	.LVL148:
 198:Drivers/lvgl/src/extra/widgets/imgbtn/lv_imgbtn.c ****         lv_imgbtn_state_t state  = suggest_state(obj, get_state(obj));
 1333              		.loc 1 198 9 is_stmt 1 view .LVU401
 199:Drivers/lvgl/src/extra/widgets/imgbtn/lv_imgbtn.c ****         if(imgbtn->img_src_left[state] == NULL &&
 1334              		.loc 1 199 9 view .LVU402
 199:Drivers/lvgl/src/extra/widgets/imgbtn/lv_imgbtn.c ****         if(imgbtn->img_src_left[state] == NULL &&
 1335              		.loc 1 199 36 is_stmt 0 view .LVU403
 1336 0106 3046     		mov	r0, r6
 1337              	.LVL149:
 199:Drivers/lvgl/src/extra/widgets/imgbtn/lv_imgbtn.c ****         if(imgbtn->img_src_left[state] == NULL &&
 1338              		.loc 1 199 36 view .LVU404
 1339 0108 FFF7FEFF 		bl	get_state
 1340              	.LVL150:
 1341 010c 0146     		mov	r1, r0
 1342 010e 3046     		mov	r0, r6
 1343 0110 FFF7FEFF 		bl	suggest_state
 1344              	.LVL151:
 200:Drivers/lvgl/src/extra/widgets/imgbtn/lv_imgbtn.c ****            imgbtn->img_src_mid[state] != NULL &&
 1345              		.loc 1 200 9 is_stmt 1 view .LVU405
 200:Drivers/lvgl/src/extra/widgets/imgbtn/lv_imgbtn.c ****            imgbtn->img_src_mid[state] != NULL &&
 1346              		.loc 1 200 32 is_stmt 0 view .LVU406
 1347 0114 00F10E03 		add	r3, r0, #14
 1348 0118 06EB8303 		add	r3, r6, r3, lsl #2
 1349 011c 5B68     		ldr	r3, [r3, #4]
 200:Drivers/lvgl/src/extra/widgets/imgbtn/lv_imgbtn.c ****            imgbtn->img_src_mid[state] != NULL &&
 1350              		.loc 1 200 11 view .LVU407
 1351 011e 002B     		cmp	r3, #0
 1352 0120 7FF476AF 		bne	.L70
 201:Drivers/lvgl/src/extra/widgets/imgbtn/lv_imgbtn.c ****            imgbtn->img_src_right[state] == NULL) {
 1353              		.loc 1 201 31 discriminator 1 view .LVU408
 1354 0124 00F10803 		add	r3, r0, #8
 1355 0128 06EB8303 		add	r3, r6, r3, lsl #2
 1356 012c 5A68     		ldr	r2, [r3, #4]
 200:Drivers/lvgl/src/extra/widgets/imgbtn/lv_imgbtn.c ****            imgbtn->img_src_mid[state] != NULL &&
 1357              		.loc 1 200 48 discriminator 1 view .LVU409
 1358 012e 002A     		cmp	r2, #0
 1359 0130 3FF46EAF 		beq	.L70
 202:Drivers/lvgl/src/extra/widgets/imgbtn/lv_imgbtn.c ****             lv_img_header_t header;
 1360              		.loc 1 202 33 view .LVU410
 1361 0134 00F11403 		add	r3, r0, #20
 1362 0138 06EB8303 		add	r3, r6, r3, lsl #2
 1363 013c 5B68     		ldr	r3, [r3, #4]
 201:Drivers/lvgl/src/extra/widgets/imgbtn/lv_imgbtn.c ****            imgbtn->img_src_right[state] == NULL) {
 1364              		.loc 1 201 47 view .LVU411
 1365 013e 002B     		cmp	r3, #0
 1366 0140 7FF466AF 		bne	.L70
 1367              	.LBB21:
 203:Drivers/lvgl/src/extra/widgets/imgbtn/lv_imgbtn.c ****             lv_img_decoder_get_info(imgbtn->img_src_mid[state], &header);
 1368              		.loc 1 203 13 is_stmt 1 view .LVU412
 204:Drivers/lvgl/src/extra/widgets/imgbtn/lv_imgbtn.c ****             p->x = LV_MAX(p->x, header.w);
 1369              		.loc 1 204 13 view .LVU413
 1370 0144 01A9     		add	r1, sp, #4
 1371 0146 1046     		mov	r0, r2
ARM GAS  /var/folders/0z/tsy30v1j4xl4_7kw94k978ww0000gn/T//ccWYDXZi.s 			page 41


 1372              	.LVL152:
 204:Drivers/lvgl/src/extra/widgets/imgbtn/lv_imgbtn.c ****             p->x = LV_MAX(p->x, header.w);
 1373              		.loc 1 204 13 is_stmt 0 view .LVU414
 1374 0148 FFF7FEFF 		bl	lv_img_decoder_get_info
 1375              	.LVL153:
 205:Drivers/lvgl/src/extra/widgets/imgbtn/lv_imgbtn.c ****         }
 1376              		.loc 1 205 13 is_stmt 1 view .LVU415
 205:Drivers/lvgl/src/extra/widgets/imgbtn/lv_imgbtn.c ****         }
 1377              		.loc 1 205 20 is_stmt 0 view .LVU416
 1378 014c 019B     		ldr	r3, [sp, #4]
 1379 014e C3F38A23 		ubfx	r3, r3, #10, #11
 1380 0152 B4F90020 		ldrsh	r2, [r4]
 1381 0156 9342     		cmp	r3, r2
 1382 0158 B8BF     		it	lt
 1383 015a 1346     		movlt	r3, r2
 205:Drivers/lvgl/src/extra/widgets/imgbtn/lv_imgbtn.c ****         }
 1384              		.loc 1 205 18 view .LVU417
 1385 015c 2380     		strh	r3, [r4]	@ movhi
 1386 015e 57E7     		b	.L70
 1387              	.LVL154:
 1388              	.L75:
 205:Drivers/lvgl/src/extra/widgets/imgbtn/lv_imgbtn.c ****         }
 1389              		.loc 1 205 18 view .LVU418
 1390              	.LBE21:
 1391              	.LBE20:
 210:Drivers/lvgl/src/extra/widgets/imgbtn/lv_imgbtn.c ****             lv_imgbtn_set_state(obj, LV_IMGBTN_STATE_CHECKED_RELEASED);
 1392              		.loc 1 210 9 is_stmt 1 view .LVU419
 210:Drivers/lvgl/src/extra/widgets/imgbtn/lv_imgbtn.c ****             lv_imgbtn_set_state(obj, LV_IMGBTN_STATE_CHECKED_RELEASED);
 1393              		.loc 1 210 12 is_stmt 0 view .LVU420
 1394 0160 0121     		movs	r1, #1
 1395 0162 FFF7FEFF 		bl	lv_obj_has_state
 1396              	.LVL155:
 210:Drivers/lvgl/src/extra/widgets/imgbtn/lv_imgbtn.c ****             lv_imgbtn_set_state(obj, LV_IMGBTN_STATE_CHECKED_RELEASED);
 1397              		.loc 1 210 11 view .LVU421
 1398 0166 20B1     		cbz	r0, .L78
 211:Drivers/lvgl/src/extra/widgets/imgbtn/lv_imgbtn.c ****         }
 1399              		.loc 1 211 13 is_stmt 1 view .LVU422
 1400 0168 0321     		movs	r1, #3
 1401 016a 3046     		mov	r0, r6
 1402 016c FFF7FEFF 		bl	lv_imgbtn_set_state
 1403              	.LVL156:
 1404 0170 4EE7     		b	.L70
 1405              	.L78:
 214:Drivers/lvgl/src/extra/widgets/imgbtn/lv_imgbtn.c ****         }
 1406              		.loc 1 214 13 view .LVU423
 1407 0172 0021     		movs	r1, #0
 1408 0174 3046     		mov	r0, r6
 1409 0176 FFF7FEFF 		bl	lv_imgbtn_set_state
 1410              	.LVL157:
 1411 017a 49E7     		b	.L70
 1412              	.L84:
 1413              		.align	2
 1414              	.L83:
 1415 017c 00000000 		.word	.LANCHOR0
 1416              		.cfi_endproc
 1417              	.LFE211:
 1419              		.global	lv_imgbtn_class
ARM GAS  /var/folders/0z/tsy30v1j4xl4_7kw94k978ww0000gn/T//ccWYDXZi.s 			page 42


 1420              		.section	.rodata.lv_imgbtn_class,"a"
 1421              		.align	2
 1422              		.set	.LANCHOR0,. + 0
 1425              	lv_imgbtn_class:
 1426 0000 00000000 		.word	lv_obj_class
 1427 0004 00000000 		.word	lv_imgbtn_constructor
 1428 0008 00000000 		.space	8
 1428      00000000 
 1429 0010 00000000 		.word	lv_imgbtn_event
 1430 0014 00000000 		.space	4
 1431 0018 00       		.byte	0
 1432 0019 07       		.byte	7
 1433 001a 00       		.byte	0
 1434 001b 00       		.space	1
 1435              		.text
 1436              	.Letext0:
 1437              		.file 4 "/Users/johannes/Library/Application Support/Code/User/globalStorage/bmd.stm32-for-vscode/
 1438              		.file 5 "/Users/johannes/Library/Application Support/Code/User/globalStorage/bmd.stm32-for-vscode/
 1439              		.file 6 "Drivers/lvgl/src/extra/widgets/imgbtn/../../../../src/misc/lv_types.h"
 1440              		.file 7 "/Users/johannes/Library/Application Support/Code/User/globalStorage/bmd.stm32-for-vscode/
 1441              		.file 8 "Drivers/lvgl/src/extra/widgets/imgbtn/../../../../src/hal/../draw/../misc/../font/lv_font
 1442              		.file 9 "Drivers/lvgl/src/extra/widgets/imgbtn/../../../../src/hal/../draw/../misc/lv_color.h"
 1443              		.file 10 "Drivers/lvgl/src/extra/widgets/imgbtn/../../../../src/hal/../draw/../misc/lv_txt.h"
 1444              		.file 11 "Drivers/lvgl/src/extra/widgets/imgbtn/../../../../src/hal/../draw/../misc/lv_bidi.h"
 1445              		.file 12 "Drivers/lvgl/src/extra/widgets/imgbtn/../../../../src/hal/../draw/../misc/lv_style.h"
 1446              		.file 13 "Drivers/lvgl/src/extra/widgets/imgbtn/../../../../src/hal/../draw/lv_img_buf.h"
 1447              		.file 14 "Drivers/lvgl/src/extra/widgets/imgbtn/../../../../src/core/lv_obj.h"
 1448              		.file 15 "Drivers/lvgl/src/extra/widgets/imgbtn/../../../../src/hal/../draw/lv_draw_rect.h"
 1449              		.file 16 "Drivers/lvgl/src/extra/widgets/imgbtn/../../../../src/hal/../draw/lv_draw_label.h"
 1450              		.file 17 "Drivers/lvgl/src/extra/widgets/imgbtn/../../../../src/hal/../draw/lv_draw_img.h"
 1451              		.file 18 "Drivers/lvgl/src/extra/widgets/imgbtn/../../../../src/hal/../draw/lv_draw_line.h"
 1452              		.file 19 "Drivers/lvgl/src/extra/widgets/imgbtn/../../../../src/hal/../draw/lv_draw_arc.h"
 1453              		.file 20 "Drivers/lvgl/src/extra/widgets/imgbtn/../../../../src/hal/../draw/lv_draw_layer.h"
 1454              		.file 21 "Drivers/lvgl/src/extra/widgets/imgbtn/../../../../src/hal/../draw/lv_draw.h"
 1455              		.file 22 "Drivers/lvgl/src/extra/widgets/imgbtn/../../../../src/hal/../misc/lv_ll.h"
 1456              		.file 23 "Drivers/lvgl/src/extra/widgets/imgbtn/../../../../src/core/lv_group.h"
 1457              		.file 24 "Drivers/lvgl/src/extra/widgets/imgbtn/../../../../src/core/lv_obj_scroll.h"
 1458              		.file 25 "Drivers/lvgl/src/extra/widgets/imgbtn/../../../../src/core/lv_obj_style.h"
 1459              		.file 26 "Drivers/lvgl/src/extra/widgets/imgbtn/../../../../src/core/lv_obj_draw.h"
 1460              		.file 27 "Drivers/lvgl/src/extra/widgets/imgbtn/../../../../src/core/lv_obj_class.h"
 1461              		.file 28 "Drivers/lvgl/src/extra/widgets/imgbtn/../../../../src/core/lv_event.h"
 1462              		.file 29 "Drivers/lvgl/src/extra/widgets/imgbtn/../../../../src/widgets/lv_bar.h"
 1463              		.file 30 "Drivers/lvgl/src/extra/widgets/imgbtn/lv_imgbtn.h"
 1464              		.file 31 "Drivers/lvgl/src/extra/widgets/imgbtn/../../../../src/misc/lv_mem.h"
 1465              		.file 32 "Drivers/lvgl/src/extra/widgets/imgbtn/../../../../src/hal/../draw/sw/../../core/lv_obj_p
 1466              		.file 33 "Drivers/lvgl/src/extra/widgets/imgbtn/../../../../src/hal/../draw/lv_img_decoder.h"
ARM GAS  /var/folders/0z/tsy30v1j4xl4_7kw94k978ww0000gn/T//ccWYDXZi.s 			page 43

