ARM GAS  /var/folders/0z/tsy30v1j4xl4_7kw94k978ww0000gn/T//cc1SwR9x.s 			page 1


   1              		.cpu cortex-m4
   2              		.arch armv7e-m
   3              		.fpu fpv4-sp-d16
   4              		.eabi_attribute 27, 1
   5              		.eabi_attribute 28, 1
   6              		.eabi_attribute 20, 1
   7              		.eabi_attribute 21, 1
   8              		.eabi_attribute 23, 3
   9              		.eabi_attribute 24, 1
  10              		.eabi_attribute 25, 1
  11              		.eabi_attribute 26, 1
  12              		.eabi_attribute 30, 1
  13              		.eabi_attribute 34, 1
  14              		.eabi_attribute 18, 4
  15              		.file	"lv_img_decoder.c"
  16              		.text
  17              	.Ltext0:
  18              		.cfi_sections	.debug_frame
  19              		.section	.rodata.lv_img_decoder_built_in_info.str1.4,"aMS",%progbits,1
  20              		.align	2
  21              	.LC0:
  22 0000 62696E00 		.ascii	"bin\000"
  23              		.section	.text.lv_img_decoder_built_in_info,"ax",%progbits
  24              		.align	1
  25              		.global	lv_img_decoder_built_in_info
  26              		.syntax unified
  27              		.thumb
  28              		.thumb_func
  30              	lv_img_decoder_built_in_info:
  31              	.LVL0:
  32              	.LFB67:
  33              		.file 1 "Drivers/lvgl/src/draw/lv_img_decoder.c"
   1:Drivers/lvgl/src/draw/lv_img_decoder.c **** /**
   2:Drivers/lvgl/src/draw/lv_img_decoder.c ****  * @file lv_img_decoder.c
   3:Drivers/lvgl/src/draw/lv_img_decoder.c ****  *
   4:Drivers/lvgl/src/draw/lv_img_decoder.c ****  */
   5:Drivers/lvgl/src/draw/lv_img_decoder.c **** 
   6:Drivers/lvgl/src/draw/lv_img_decoder.c **** /*********************
   7:Drivers/lvgl/src/draw/lv_img_decoder.c ****  *      INCLUDES
   8:Drivers/lvgl/src/draw/lv_img_decoder.c ****  *********************/
   9:Drivers/lvgl/src/draw/lv_img_decoder.c **** #include "lv_img_decoder.h"
  10:Drivers/lvgl/src/draw/lv_img_decoder.c **** #include "../misc/lv_assert.h"
  11:Drivers/lvgl/src/draw/lv_img_decoder.c **** #include "../draw/lv_draw_img.h"
  12:Drivers/lvgl/src/draw/lv_img_decoder.c **** #include "../misc/lv_ll.h"
  13:Drivers/lvgl/src/draw/lv_img_decoder.c **** #include "../misc/lv_gc.h"
  14:Drivers/lvgl/src/draw/lv_img_decoder.c **** 
  15:Drivers/lvgl/src/draw/lv_img_decoder.c **** /*********************
  16:Drivers/lvgl/src/draw/lv_img_decoder.c ****  *      DEFINES
  17:Drivers/lvgl/src/draw/lv_img_decoder.c ****  *********************/
  18:Drivers/lvgl/src/draw/lv_img_decoder.c **** #define CF_BUILT_IN_FIRST   LV_IMG_CF_TRUE_COLOR
  19:Drivers/lvgl/src/draw/lv_img_decoder.c **** #define CF_BUILT_IN_LAST    LV_IMG_CF_RGB565A8
  20:Drivers/lvgl/src/draw/lv_img_decoder.c **** 
  21:Drivers/lvgl/src/draw/lv_img_decoder.c **** /**********************
  22:Drivers/lvgl/src/draw/lv_img_decoder.c ****  *      TYPEDEFS
  23:Drivers/lvgl/src/draw/lv_img_decoder.c ****  **********************/
  24:Drivers/lvgl/src/draw/lv_img_decoder.c **** 
  25:Drivers/lvgl/src/draw/lv_img_decoder.c **** typedef struct {
ARM GAS  /var/folders/0z/tsy30v1j4xl4_7kw94k978ww0000gn/T//cc1SwR9x.s 			page 2


  26:Drivers/lvgl/src/draw/lv_img_decoder.c ****     lv_fs_file_t f;
  27:Drivers/lvgl/src/draw/lv_img_decoder.c ****     lv_color_t * palette;
  28:Drivers/lvgl/src/draw/lv_img_decoder.c ****     lv_opa_t * opa;
  29:Drivers/lvgl/src/draw/lv_img_decoder.c **** } lv_img_decoder_built_in_data_t;
  30:Drivers/lvgl/src/draw/lv_img_decoder.c **** 
  31:Drivers/lvgl/src/draw/lv_img_decoder.c **** /**********************
  32:Drivers/lvgl/src/draw/lv_img_decoder.c ****  *  STATIC PROTOTYPES
  33:Drivers/lvgl/src/draw/lv_img_decoder.c ****  **********************/
  34:Drivers/lvgl/src/draw/lv_img_decoder.c **** static lv_res_t lv_img_decoder_built_in_line_true_color(lv_img_decoder_dsc_t * dsc, lv_coord_t x, l
  35:Drivers/lvgl/src/draw/lv_img_decoder.c ****                                                         lv_coord_t len, uint8_t * buf);
  36:Drivers/lvgl/src/draw/lv_img_decoder.c **** static lv_res_t lv_img_decoder_built_in_line_alpha(lv_img_decoder_dsc_t * dsc, lv_coord_t x, lv_coo
  37:Drivers/lvgl/src/draw/lv_img_decoder.c ****                                                    lv_coord_t len, uint8_t * buf);
  38:Drivers/lvgl/src/draw/lv_img_decoder.c **** static lv_res_t lv_img_decoder_built_in_line_indexed(lv_img_decoder_dsc_t * dsc, lv_coord_t x, lv_c
  39:Drivers/lvgl/src/draw/lv_img_decoder.c ****                                                      lv_coord_t len, uint8_t * buf);
  40:Drivers/lvgl/src/draw/lv_img_decoder.c **** 
  41:Drivers/lvgl/src/draw/lv_img_decoder.c **** /**********************
  42:Drivers/lvgl/src/draw/lv_img_decoder.c ****  *  STATIC VARIABLES
  43:Drivers/lvgl/src/draw/lv_img_decoder.c ****  **********************/
  44:Drivers/lvgl/src/draw/lv_img_decoder.c **** 
  45:Drivers/lvgl/src/draw/lv_img_decoder.c **** /**********************
  46:Drivers/lvgl/src/draw/lv_img_decoder.c ****  *      MACROS
  47:Drivers/lvgl/src/draw/lv_img_decoder.c ****  **********************/
  48:Drivers/lvgl/src/draw/lv_img_decoder.c **** 
  49:Drivers/lvgl/src/draw/lv_img_decoder.c **** /**********************
  50:Drivers/lvgl/src/draw/lv_img_decoder.c ****  *   GLOBAL FUNCTIONS
  51:Drivers/lvgl/src/draw/lv_img_decoder.c ****  **********************/
  52:Drivers/lvgl/src/draw/lv_img_decoder.c **** 
  53:Drivers/lvgl/src/draw/lv_img_decoder.c **** /**
  54:Drivers/lvgl/src/draw/lv_img_decoder.c ****  * Initialize the image decoder module
  55:Drivers/lvgl/src/draw/lv_img_decoder.c ****  */
  56:Drivers/lvgl/src/draw/lv_img_decoder.c **** void _lv_img_decoder_init(void)
  57:Drivers/lvgl/src/draw/lv_img_decoder.c **** {
  58:Drivers/lvgl/src/draw/lv_img_decoder.c ****     _lv_ll_init(&LV_GC_ROOT(_lv_img_decoder_ll), sizeof(lv_img_decoder_t));
  59:Drivers/lvgl/src/draw/lv_img_decoder.c **** 
  60:Drivers/lvgl/src/draw/lv_img_decoder.c ****     lv_img_decoder_t * decoder;
  61:Drivers/lvgl/src/draw/lv_img_decoder.c **** 
  62:Drivers/lvgl/src/draw/lv_img_decoder.c ****     /*Create a decoder for the built in color format*/
  63:Drivers/lvgl/src/draw/lv_img_decoder.c ****     decoder = lv_img_decoder_create();
  64:Drivers/lvgl/src/draw/lv_img_decoder.c ****     LV_ASSERT_MALLOC(decoder);
  65:Drivers/lvgl/src/draw/lv_img_decoder.c ****     if(decoder == NULL) {
  66:Drivers/lvgl/src/draw/lv_img_decoder.c ****         LV_LOG_WARN("lv_img_decoder_init: out of memory");
  67:Drivers/lvgl/src/draw/lv_img_decoder.c ****         return;
  68:Drivers/lvgl/src/draw/lv_img_decoder.c ****     }
  69:Drivers/lvgl/src/draw/lv_img_decoder.c **** 
  70:Drivers/lvgl/src/draw/lv_img_decoder.c ****     lv_img_decoder_set_info_cb(decoder, lv_img_decoder_built_in_info);
  71:Drivers/lvgl/src/draw/lv_img_decoder.c ****     lv_img_decoder_set_open_cb(decoder, lv_img_decoder_built_in_open);
  72:Drivers/lvgl/src/draw/lv_img_decoder.c ****     lv_img_decoder_set_read_line_cb(decoder, lv_img_decoder_built_in_read_line);
  73:Drivers/lvgl/src/draw/lv_img_decoder.c ****     lv_img_decoder_set_close_cb(decoder, lv_img_decoder_built_in_close);
  74:Drivers/lvgl/src/draw/lv_img_decoder.c **** }
  75:Drivers/lvgl/src/draw/lv_img_decoder.c **** 
  76:Drivers/lvgl/src/draw/lv_img_decoder.c **** /**
  77:Drivers/lvgl/src/draw/lv_img_decoder.c ****  * Get information about an image.
  78:Drivers/lvgl/src/draw/lv_img_decoder.c ****  * Try the created image decoder one by one. Once one is able to get info that info will be used.
  79:Drivers/lvgl/src/draw/lv_img_decoder.c ****  * @param src the image source. E.g. file name or variable.
  80:Drivers/lvgl/src/draw/lv_img_decoder.c ****  * @param header the image info will be stored here
  81:Drivers/lvgl/src/draw/lv_img_decoder.c ****  * @return LV_RES_OK: success; LV_RES_INV: wasn't able to get info about the image
  82:Drivers/lvgl/src/draw/lv_img_decoder.c ****  */
ARM GAS  /var/folders/0z/tsy30v1j4xl4_7kw94k978ww0000gn/T//cc1SwR9x.s 			page 3


  83:Drivers/lvgl/src/draw/lv_img_decoder.c **** lv_res_t lv_img_decoder_get_info(const void * src, lv_img_header_t * header)
  84:Drivers/lvgl/src/draw/lv_img_decoder.c **** {
  85:Drivers/lvgl/src/draw/lv_img_decoder.c ****     lv_memset_00(header, sizeof(lv_img_header_t));
  86:Drivers/lvgl/src/draw/lv_img_decoder.c **** 
  87:Drivers/lvgl/src/draw/lv_img_decoder.c ****     if(src == NULL) return LV_RES_INV;
  88:Drivers/lvgl/src/draw/lv_img_decoder.c **** 
  89:Drivers/lvgl/src/draw/lv_img_decoder.c ****     lv_img_src_t src_type = lv_img_src_get_type(src);
  90:Drivers/lvgl/src/draw/lv_img_decoder.c ****     if(src_type == LV_IMG_SRC_VARIABLE) {
  91:Drivers/lvgl/src/draw/lv_img_decoder.c ****         const lv_img_dsc_t * img_dsc = src;
  92:Drivers/lvgl/src/draw/lv_img_decoder.c ****         if(img_dsc->data == NULL) return LV_RES_INV;
  93:Drivers/lvgl/src/draw/lv_img_decoder.c ****     }
  94:Drivers/lvgl/src/draw/lv_img_decoder.c **** 
  95:Drivers/lvgl/src/draw/lv_img_decoder.c ****     lv_res_t res = LV_RES_INV;
  96:Drivers/lvgl/src/draw/lv_img_decoder.c ****     lv_img_decoder_t * d;
  97:Drivers/lvgl/src/draw/lv_img_decoder.c ****     _LV_LL_READ(&LV_GC_ROOT(_lv_img_decoder_ll), d) {
  98:Drivers/lvgl/src/draw/lv_img_decoder.c ****         if(d->info_cb) {
  99:Drivers/lvgl/src/draw/lv_img_decoder.c ****             res = d->info_cb(d, src, header);
 100:Drivers/lvgl/src/draw/lv_img_decoder.c ****             if(res == LV_RES_OK) break;
 101:Drivers/lvgl/src/draw/lv_img_decoder.c ****         }
 102:Drivers/lvgl/src/draw/lv_img_decoder.c ****     }
 103:Drivers/lvgl/src/draw/lv_img_decoder.c **** 
 104:Drivers/lvgl/src/draw/lv_img_decoder.c ****     return res;
 105:Drivers/lvgl/src/draw/lv_img_decoder.c **** }
 106:Drivers/lvgl/src/draw/lv_img_decoder.c **** 
 107:Drivers/lvgl/src/draw/lv_img_decoder.c **** lv_res_t lv_img_decoder_open(lv_img_decoder_dsc_t * dsc, const void * src, lv_color_t color, int32_
 108:Drivers/lvgl/src/draw/lv_img_decoder.c **** {
 109:Drivers/lvgl/src/draw/lv_img_decoder.c ****     lv_memset_00(dsc, sizeof(lv_img_decoder_dsc_t));
 110:Drivers/lvgl/src/draw/lv_img_decoder.c **** 
 111:Drivers/lvgl/src/draw/lv_img_decoder.c ****     if(src == NULL) return LV_RES_INV;
 112:Drivers/lvgl/src/draw/lv_img_decoder.c ****     lv_img_src_t src_type = lv_img_src_get_type(src);
 113:Drivers/lvgl/src/draw/lv_img_decoder.c ****     if(src_type == LV_IMG_SRC_VARIABLE) {
 114:Drivers/lvgl/src/draw/lv_img_decoder.c ****         const lv_img_dsc_t * img_dsc = src;
 115:Drivers/lvgl/src/draw/lv_img_decoder.c ****         if(img_dsc->data == NULL) return LV_RES_INV;
 116:Drivers/lvgl/src/draw/lv_img_decoder.c ****     }
 117:Drivers/lvgl/src/draw/lv_img_decoder.c **** 
 118:Drivers/lvgl/src/draw/lv_img_decoder.c ****     dsc->color    = color;
 119:Drivers/lvgl/src/draw/lv_img_decoder.c ****     dsc->src_type = src_type;
 120:Drivers/lvgl/src/draw/lv_img_decoder.c ****     dsc->frame_id = frame_id;
 121:Drivers/lvgl/src/draw/lv_img_decoder.c **** 
 122:Drivers/lvgl/src/draw/lv_img_decoder.c ****     if(dsc->src_type == LV_IMG_SRC_FILE) {
 123:Drivers/lvgl/src/draw/lv_img_decoder.c ****         size_t fnlen = strlen(src);
 124:Drivers/lvgl/src/draw/lv_img_decoder.c ****         dsc->src = lv_mem_alloc(fnlen + 1);
 125:Drivers/lvgl/src/draw/lv_img_decoder.c ****         LV_ASSERT_MALLOC(dsc->src);
 126:Drivers/lvgl/src/draw/lv_img_decoder.c ****         if(dsc->src == NULL) {
 127:Drivers/lvgl/src/draw/lv_img_decoder.c ****             LV_LOG_WARN("lv_img_decoder_open: out of memory");
 128:Drivers/lvgl/src/draw/lv_img_decoder.c ****             return LV_RES_INV;
 129:Drivers/lvgl/src/draw/lv_img_decoder.c ****         }
 130:Drivers/lvgl/src/draw/lv_img_decoder.c ****         strcpy((char *)dsc->src, src);
 131:Drivers/lvgl/src/draw/lv_img_decoder.c ****     }
 132:Drivers/lvgl/src/draw/lv_img_decoder.c ****     else {
 133:Drivers/lvgl/src/draw/lv_img_decoder.c ****         dsc->src = src;
 134:Drivers/lvgl/src/draw/lv_img_decoder.c ****     }
 135:Drivers/lvgl/src/draw/lv_img_decoder.c **** 
 136:Drivers/lvgl/src/draw/lv_img_decoder.c ****     lv_res_t res = LV_RES_INV;
 137:Drivers/lvgl/src/draw/lv_img_decoder.c **** 
 138:Drivers/lvgl/src/draw/lv_img_decoder.c ****     lv_img_decoder_t * decoder;
 139:Drivers/lvgl/src/draw/lv_img_decoder.c ****     _LV_LL_READ(&LV_GC_ROOT(_lv_img_decoder_ll), decoder) {
ARM GAS  /var/folders/0z/tsy30v1j4xl4_7kw94k978ww0000gn/T//cc1SwR9x.s 			page 4


 140:Drivers/lvgl/src/draw/lv_img_decoder.c ****         /*Info and Open callbacks are required*/
 141:Drivers/lvgl/src/draw/lv_img_decoder.c ****         if(decoder->info_cb == NULL || decoder->open_cb == NULL) continue;
 142:Drivers/lvgl/src/draw/lv_img_decoder.c **** 
 143:Drivers/lvgl/src/draw/lv_img_decoder.c ****         res = decoder->info_cb(decoder, src, &dsc->header);
 144:Drivers/lvgl/src/draw/lv_img_decoder.c ****         if(res != LV_RES_OK) continue;
 145:Drivers/lvgl/src/draw/lv_img_decoder.c **** 
 146:Drivers/lvgl/src/draw/lv_img_decoder.c ****         dsc->decoder = decoder;
 147:Drivers/lvgl/src/draw/lv_img_decoder.c ****         res = decoder->open_cb(decoder, dsc);
 148:Drivers/lvgl/src/draw/lv_img_decoder.c **** 
 149:Drivers/lvgl/src/draw/lv_img_decoder.c ****         /*Opened successfully. It is a good decoder for this image source*/
 150:Drivers/lvgl/src/draw/lv_img_decoder.c ****         if(res == LV_RES_OK) return res;
 151:Drivers/lvgl/src/draw/lv_img_decoder.c **** 
 152:Drivers/lvgl/src/draw/lv_img_decoder.c ****         /*Prepare for the next loop*/
 153:Drivers/lvgl/src/draw/lv_img_decoder.c ****         lv_memset_00(&dsc->header, sizeof(lv_img_header_t));
 154:Drivers/lvgl/src/draw/lv_img_decoder.c **** 
 155:Drivers/lvgl/src/draw/lv_img_decoder.c ****         dsc->error_msg = NULL;
 156:Drivers/lvgl/src/draw/lv_img_decoder.c ****         dsc->img_data  = NULL;
 157:Drivers/lvgl/src/draw/lv_img_decoder.c ****         dsc->user_data = NULL;
 158:Drivers/lvgl/src/draw/lv_img_decoder.c ****         dsc->time_to_open = 0;
 159:Drivers/lvgl/src/draw/lv_img_decoder.c ****     }
 160:Drivers/lvgl/src/draw/lv_img_decoder.c **** 
 161:Drivers/lvgl/src/draw/lv_img_decoder.c ****     if(dsc->src_type == LV_IMG_SRC_FILE)
 162:Drivers/lvgl/src/draw/lv_img_decoder.c ****         lv_mem_free((void *)dsc->src);
 163:Drivers/lvgl/src/draw/lv_img_decoder.c **** 
 164:Drivers/lvgl/src/draw/lv_img_decoder.c ****     return res;
 165:Drivers/lvgl/src/draw/lv_img_decoder.c **** }
 166:Drivers/lvgl/src/draw/lv_img_decoder.c **** 
 167:Drivers/lvgl/src/draw/lv_img_decoder.c **** /**
 168:Drivers/lvgl/src/draw/lv_img_decoder.c ****  * Read a line from an opened image
 169:Drivers/lvgl/src/draw/lv_img_decoder.c ****  * @param dsc pointer to `lv_img_decoder_dsc_t` used in `lv_img_decoder_open`
 170:Drivers/lvgl/src/draw/lv_img_decoder.c ****  * @param x start X coordinate (from left)
 171:Drivers/lvgl/src/draw/lv_img_decoder.c ****  * @param y start Y coordinate (from top)
 172:Drivers/lvgl/src/draw/lv_img_decoder.c ****  * @param len number of pixels to read
 173:Drivers/lvgl/src/draw/lv_img_decoder.c ****  * @param buf store the data here
 174:Drivers/lvgl/src/draw/lv_img_decoder.c ****  * @return LV_RES_OK: success; LV_RES_INV: an error occurred
 175:Drivers/lvgl/src/draw/lv_img_decoder.c ****  */
 176:Drivers/lvgl/src/draw/lv_img_decoder.c **** lv_res_t lv_img_decoder_read_line(lv_img_decoder_dsc_t * dsc, lv_coord_t x, lv_coord_t y, lv_coord_
 177:Drivers/lvgl/src/draw/lv_img_decoder.c **** {
 178:Drivers/lvgl/src/draw/lv_img_decoder.c ****     lv_res_t res = LV_RES_INV;
 179:Drivers/lvgl/src/draw/lv_img_decoder.c ****     if(dsc->decoder->read_line_cb) res = dsc->decoder->read_line_cb(dsc->decoder, dsc, x, y, len, b
 180:Drivers/lvgl/src/draw/lv_img_decoder.c **** 
 181:Drivers/lvgl/src/draw/lv_img_decoder.c ****     return res;
 182:Drivers/lvgl/src/draw/lv_img_decoder.c **** }
 183:Drivers/lvgl/src/draw/lv_img_decoder.c **** 
 184:Drivers/lvgl/src/draw/lv_img_decoder.c **** /**
 185:Drivers/lvgl/src/draw/lv_img_decoder.c ****  * Close a decoding session
 186:Drivers/lvgl/src/draw/lv_img_decoder.c ****  * @param dsc pointer to `lv_img_decoder_dsc_t` used in `lv_img_decoder_open`
 187:Drivers/lvgl/src/draw/lv_img_decoder.c ****  */
 188:Drivers/lvgl/src/draw/lv_img_decoder.c **** void lv_img_decoder_close(lv_img_decoder_dsc_t * dsc)
 189:Drivers/lvgl/src/draw/lv_img_decoder.c **** {
 190:Drivers/lvgl/src/draw/lv_img_decoder.c ****     if(dsc->decoder) {
 191:Drivers/lvgl/src/draw/lv_img_decoder.c ****         if(dsc->decoder->close_cb) dsc->decoder->close_cb(dsc->decoder, dsc);
 192:Drivers/lvgl/src/draw/lv_img_decoder.c **** 
 193:Drivers/lvgl/src/draw/lv_img_decoder.c ****         if(dsc->src_type == LV_IMG_SRC_FILE) {
 194:Drivers/lvgl/src/draw/lv_img_decoder.c ****             lv_mem_free((void *)dsc->src);
 195:Drivers/lvgl/src/draw/lv_img_decoder.c ****             dsc->src = NULL;
 196:Drivers/lvgl/src/draw/lv_img_decoder.c ****         }
ARM GAS  /var/folders/0z/tsy30v1j4xl4_7kw94k978ww0000gn/T//cc1SwR9x.s 			page 5


 197:Drivers/lvgl/src/draw/lv_img_decoder.c ****     }
 198:Drivers/lvgl/src/draw/lv_img_decoder.c **** }
 199:Drivers/lvgl/src/draw/lv_img_decoder.c **** 
 200:Drivers/lvgl/src/draw/lv_img_decoder.c **** /**
 201:Drivers/lvgl/src/draw/lv_img_decoder.c ****  * Create a new image decoder
 202:Drivers/lvgl/src/draw/lv_img_decoder.c ****  * @return pointer to the new image decoder
 203:Drivers/lvgl/src/draw/lv_img_decoder.c ****  */
 204:Drivers/lvgl/src/draw/lv_img_decoder.c **** lv_img_decoder_t * lv_img_decoder_create(void)
 205:Drivers/lvgl/src/draw/lv_img_decoder.c **** {
 206:Drivers/lvgl/src/draw/lv_img_decoder.c ****     lv_img_decoder_t * decoder;
 207:Drivers/lvgl/src/draw/lv_img_decoder.c ****     decoder = _lv_ll_ins_head(&LV_GC_ROOT(_lv_img_decoder_ll));
 208:Drivers/lvgl/src/draw/lv_img_decoder.c ****     LV_ASSERT_MALLOC(decoder);
 209:Drivers/lvgl/src/draw/lv_img_decoder.c ****     if(decoder == NULL) return NULL;
 210:Drivers/lvgl/src/draw/lv_img_decoder.c **** 
 211:Drivers/lvgl/src/draw/lv_img_decoder.c ****     lv_memset_00(decoder, sizeof(lv_img_decoder_t));
 212:Drivers/lvgl/src/draw/lv_img_decoder.c **** 
 213:Drivers/lvgl/src/draw/lv_img_decoder.c ****     return decoder;
 214:Drivers/lvgl/src/draw/lv_img_decoder.c **** }
 215:Drivers/lvgl/src/draw/lv_img_decoder.c **** 
 216:Drivers/lvgl/src/draw/lv_img_decoder.c **** /**
 217:Drivers/lvgl/src/draw/lv_img_decoder.c ****  * Delete an image decoder
 218:Drivers/lvgl/src/draw/lv_img_decoder.c ****  * @param decoder pointer to an image decoder
 219:Drivers/lvgl/src/draw/lv_img_decoder.c ****  */
 220:Drivers/lvgl/src/draw/lv_img_decoder.c **** void lv_img_decoder_delete(lv_img_decoder_t * decoder)
 221:Drivers/lvgl/src/draw/lv_img_decoder.c **** {
 222:Drivers/lvgl/src/draw/lv_img_decoder.c ****     _lv_ll_remove(&LV_GC_ROOT(_lv_img_decoder_ll), decoder);
 223:Drivers/lvgl/src/draw/lv_img_decoder.c ****     lv_mem_free(decoder);
 224:Drivers/lvgl/src/draw/lv_img_decoder.c **** }
 225:Drivers/lvgl/src/draw/lv_img_decoder.c **** 
 226:Drivers/lvgl/src/draw/lv_img_decoder.c **** /**
 227:Drivers/lvgl/src/draw/lv_img_decoder.c ****  * Set a callback to get information about the image
 228:Drivers/lvgl/src/draw/lv_img_decoder.c ****  * @param decoder pointer to an image decoder
 229:Drivers/lvgl/src/draw/lv_img_decoder.c ****  * @param info_cb a function to collect info about an image (fill an `lv_img_header_t` struct)
 230:Drivers/lvgl/src/draw/lv_img_decoder.c ****  */
 231:Drivers/lvgl/src/draw/lv_img_decoder.c **** void lv_img_decoder_set_info_cb(lv_img_decoder_t * decoder, lv_img_decoder_info_f_t info_cb)
 232:Drivers/lvgl/src/draw/lv_img_decoder.c **** {
 233:Drivers/lvgl/src/draw/lv_img_decoder.c ****     decoder->info_cb = info_cb;
 234:Drivers/lvgl/src/draw/lv_img_decoder.c **** }
 235:Drivers/lvgl/src/draw/lv_img_decoder.c **** 
 236:Drivers/lvgl/src/draw/lv_img_decoder.c **** /**
 237:Drivers/lvgl/src/draw/lv_img_decoder.c ****  * Set a callback to open an image
 238:Drivers/lvgl/src/draw/lv_img_decoder.c ****  * @param decoder pointer to an image decoder
 239:Drivers/lvgl/src/draw/lv_img_decoder.c ****  * @param open_cb a function to open an image
 240:Drivers/lvgl/src/draw/lv_img_decoder.c ****  */
 241:Drivers/lvgl/src/draw/lv_img_decoder.c **** void lv_img_decoder_set_open_cb(lv_img_decoder_t * decoder, lv_img_decoder_open_f_t open_cb)
 242:Drivers/lvgl/src/draw/lv_img_decoder.c **** {
 243:Drivers/lvgl/src/draw/lv_img_decoder.c ****     decoder->open_cb = open_cb;
 244:Drivers/lvgl/src/draw/lv_img_decoder.c **** }
 245:Drivers/lvgl/src/draw/lv_img_decoder.c **** 
 246:Drivers/lvgl/src/draw/lv_img_decoder.c **** /**
 247:Drivers/lvgl/src/draw/lv_img_decoder.c ****  * Set a callback to a decoded line of an image
 248:Drivers/lvgl/src/draw/lv_img_decoder.c ****  * @param decoder pointer to an image decoder
 249:Drivers/lvgl/src/draw/lv_img_decoder.c ****  * @param read_line_cb a function to read a line of an image
 250:Drivers/lvgl/src/draw/lv_img_decoder.c ****  */
 251:Drivers/lvgl/src/draw/lv_img_decoder.c **** void lv_img_decoder_set_read_line_cb(lv_img_decoder_t * decoder, lv_img_decoder_read_line_f_t read_
 252:Drivers/lvgl/src/draw/lv_img_decoder.c **** {
 253:Drivers/lvgl/src/draw/lv_img_decoder.c ****     decoder->read_line_cb = read_line_cb;
ARM GAS  /var/folders/0z/tsy30v1j4xl4_7kw94k978ww0000gn/T//cc1SwR9x.s 			page 6


 254:Drivers/lvgl/src/draw/lv_img_decoder.c **** }
 255:Drivers/lvgl/src/draw/lv_img_decoder.c **** 
 256:Drivers/lvgl/src/draw/lv_img_decoder.c **** /**
 257:Drivers/lvgl/src/draw/lv_img_decoder.c ****  * Set a callback to close a decoding session. E.g. close files and free other resources.
 258:Drivers/lvgl/src/draw/lv_img_decoder.c ****  * @param decoder pointer to an image decoder
 259:Drivers/lvgl/src/draw/lv_img_decoder.c ****  * @param close_cb a function to close a decoding session
 260:Drivers/lvgl/src/draw/lv_img_decoder.c ****  */
 261:Drivers/lvgl/src/draw/lv_img_decoder.c **** void lv_img_decoder_set_close_cb(lv_img_decoder_t * decoder, lv_img_decoder_close_f_t close_cb)
 262:Drivers/lvgl/src/draw/lv_img_decoder.c **** {
 263:Drivers/lvgl/src/draw/lv_img_decoder.c ****     decoder->close_cb = close_cb;
 264:Drivers/lvgl/src/draw/lv_img_decoder.c **** }
 265:Drivers/lvgl/src/draw/lv_img_decoder.c **** 
 266:Drivers/lvgl/src/draw/lv_img_decoder.c **** /**
 267:Drivers/lvgl/src/draw/lv_img_decoder.c ****  * Get info about a built-in image
 268:Drivers/lvgl/src/draw/lv_img_decoder.c ****  * @param decoder the decoder where this function belongs
 269:Drivers/lvgl/src/draw/lv_img_decoder.c ****  * @param src the image source: pointer to an `lv_img_dsc_t` variable, a file path or a symbol
 270:Drivers/lvgl/src/draw/lv_img_decoder.c ****  * @param header store the image data here
 271:Drivers/lvgl/src/draw/lv_img_decoder.c ****  * @return LV_RES_OK: the info is successfully stored in `header`; LV_RES_INV: unknown format or ot
 272:Drivers/lvgl/src/draw/lv_img_decoder.c ****  */
 273:Drivers/lvgl/src/draw/lv_img_decoder.c **** lv_res_t lv_img_decoder_built_in_info(lv_img_decoder_t * decoder, const void * src, lv_img_header_t
 274:Drivers/lvgl/src/draw/lv_img_decoder.c **** {
  34              		.loc 1 274 1 view -0
  35              		.cfi_startproc
  36              		@ args = 0, pretend = 0, frame = 16
  37              		@ frame_needed = 0, uses_anonymous_args = 0
  38              		.loc 1 274 1 is_stmt 0 view .LVU1
  39 0000 70B5     		push	{r4, r5, r6, lr}
  40              		.cfi_def_cfa_offset 16
  41              		.cfi_offset 4, -16
  42              		.cfi_offset 5, -12
  43              		.cfi_offset 6, -8
  44              		.cfi_offset 14, -4
  45 0002 84B0     		sub	sp, sp, #16
  46              		.cfi_def_cfa_offset 32
  47 0004 0D46     		mov	r5, r1
  48 0006 1446     		mov	r4, r2
 275:Drivers/lvgl/src/draw/lv_img_decoder.c ****     LV_UNUSED(decoder); /*Unused*/
  49              		.loc 1 275 5 is_stmt 1 view .LVU2
 276:Drivers/lvgl/src/draw/lv_img_decoder.c **** 
 277:Drivers/lvgl/src/draw/lv_img_decoder.c ****     lv_img_src_t src_type = lv_img_src_get_type(src);
  50              		.loc 1 277 5 view .LVU3
  51              		.loc 1 277 29 is_stmt 0 view .LVU4
  52 0008 0846     		mov	r0, r1
  53              	.LVL1:
  54              		.loc 1 277 29 view .LVU5
  55 000a FFF7FEFF 		bl	lv_img_src_get_type
  56              	.LVL2:
 278:Drivers/lvgl/src/draw/lv_img_decoder.c ****     if(src_type == LV_IMG_SRC_VARIABLE) {
  57              		.loc 1 278 5 is_stmt 1 view .LVU6
  58              		.loc 1 278 7 is_stmt 0 view .LVU7
  59 000e 0646     		mov	r6, r0
  60 0010 E8B9     		cbnz	r0, .L2
  61              	.LBB13:
 279:Drivers/lvgl/src/draw/lv_img_decoder.c ****         lv_img_cf_t cf = ((lv_img_dsc_t *)src)->header.cf;
  62              		.loc 1 279 9 is_stmt 1 view .LVU8
  63              		.loc 1 279 55 is_stmt 0 view .LVU9
  64 0012 2B78     		ldrb	r3, [r5]	@ zero_extendqisi2
ARM GAS  /var/folders/0z/tsy30v1j4xl4_7kw94k978ww0000gn/T//cc1SwR9x.s 			page 7


  65 0014 03F01F03 		and	r3, r3, #31
  66              	.LVL3:
 280:Drivers/lvgl/src/draw/lv_img_decoder.c ****         if(cf < CF_BUILT_IN_FIRST || cf > CF_BUILT_IN_LAST) return LV_RES_INV;
  67              		.loc 1 280 9 is_stmt 1 view .LVU10
  68              		.loc 1 280 35 is_stmt 0 view .LVU11
  69 0018 043B     		subs	r3, r3, #4
  70 001a DBB2     		uxtb	r3, r3
  71              		.loc 1 280 11 view .LVU12
  72 001c 102B     		cmp	r3, #16
  73 001e 13D8     		bhi	.L3
 281:Drivers/lvgl/src/draw/lv_img_decoder.c **** 
 282:Drivers/lvgl/src/draw/lv_img_decoder.c ****         header->w  = ((lv_img_dsc_t *)src)->header.w;
  74              		.loc 1 282 9 is_stmt 1 view .LVU13
  75              		.loc 1 282 51 is_stmt 0 view .LVU14
  76 0020 2B68     		ldr	r3, [r5]
  77 0022 C3F38A23 		ubfx	r3, r3, #10, #11
  78              		.loc 1 282 20 view .LVU15
  79 0026 2268     		ldr	r2, [r4]
  80 0028 63F39422 		bfi	r2, r3, #10, #11
  81 002c 2260     		str	r2, [r4]
  82              	.LVL4:
 283:Drivers/lvgl/src/draw/lv_img_decoder.c ****         header->h  = ((lv_img_dsc_t *)src)->header.h;
  83              		.loc 1 283 9 is_stmt 1 view .LVU16
  84              		.loc 1 283 51 is_stmt 0 view .LVU17
  85 002e 6B88     		ldrh	r3, [r5, #2]
  86 0030 C3F34A13 		ubfx	r3, r3, #5, #11
  87              		.loc 1 283 20 view .LVU18
  88 0034 6288     		ldrh	r2, [r4, #2]
  89 0036 63F34F12 		bfi	r2, r3, #5, #11
  90 003a 6280     		strh	r2, [r4, #2]	@ movhi
 284:Drivers/lvgl/src/draw/lv_img_decoder.c ****         header->cf = ((lv_img_dsc_t *)src)->header.cf;
  91              		.loc 1 284 9 is_stmt 1 view .LVU19
  92              		.loc 1 284 51 is_stmt 0 view .LVU20
  93 003c 2A78     		ldrb	r2, [r5]	@ zero_extendqisi2
  94              		.loc 1 284 20 view .LVU21
  95 003e 2378     		ldrb	r3, [r4]	@ zero_extendqisi2
  96 0040 62F30403 		bfi	r3, r2, #0, #5
  97 0044 2370     		strb	r3, [r4]
  98              	.LBE13:
 285:Drivers/lvgl/src/draw/lv_img_decoder.c ****     }
 286:Drivers/lvgl/src/draw/lv_img_decoder.c ****     else if(src_type == LV_IMG_SRC_FILE) {
 287:Drivers/lvgl/src/draw/lv_img_decoder.c ****         /*Support only "*.bin" files*/
 288:Drivers/lvgl/src/draw/lv_img_decoder.c ****         if(strcmp(lv_fs_get_ext(src), "bin")) return LV_RES_INV;
 289:Drivers/lvgl/src/draw/lv_img_decoder.c **** 
 290:Drivers/lvgl/src/draw/lv_img_decoder.c ****         lv_fs_file_t f;
 291:Drivers/lvgl/src/draw/lv_img_decoder.c ****         lv_fs_res_t res = lv_fs_open(&f, src, LV_FS_MODE_RD);
 292:Drivers/lvgl/src/draw/lv_img_decoder.c ****         if(res == LV_FS_RES_OK) {
 293:Drivers/lvgl/src/draw/lv_img_decoder.c ****             uint32_t rn;
 294:Drivers/lvgl/src/draw/lv_img_decoder.c ****             res = lv_fs_read(&f, header, sizeof(lv_img_header_t), &rn);
 295:Drivers/lvgl/src/draw/lv_img_decoder.c ****             lv_fs_close(&f);
 296:Drivers/lvgl/src/draw/lv_img_decoder.c ****             if(res != LV_FS_RES_OK || rn != sizeof(lv_img_header_t)) {
 297:Drivers/lvgl/src/draw/lv_img_decoder.c ****                 LV_LOG_WARN("Image get info get read file header");
 298:Drivers/lvgl/src/draw/lv_img_decoder.c ****                 return LV_RES_INV;
 299:Drivers/lvgl/src/draw/lv_img_decoder.c ****             }
 300:Drivers/lvgl/src/draw/lv_img_decoder.c ****         }
 301:Drivers/lvgl/src/draw/lv_img_decoder.c **** 
 302:Drivers/lvgl/src/draw/lv_img_decoder.c ****         if(header->cf < CF_BUILT_IN_FIRST || header->cf > CF_BUILT_IN_LAST) return LV_RES_INV;
ARM GAS  /var/folders/0z/tsy30v1j4xl4_7kw94k978ww0000gn/T//cc1SwR9x.s 			page 8


 303:Drivers/lvgl/src/draw/lv_img_decoder.c ****     }
 304:Drivers/lvgl/src/draw/lv_img_decoder.c ****     else if(src_type == LV_IMG_SRC_SYMBOL) {
 305:Drivers/lvgl/src/draw/lv_img_decoder.c ****         /*The size depend on the font but it is unknown here. It should be handled outside of the
 306:Drivers/lvgl/src/draw/lv_img_decoder.c ****          *function*/
 307:Drivers/lvgl/src/draw/lv_img_decoder.c ****         header->w = 1;
 308:Drivers/lvgl/src/draw/lv_img_decoder.c ****         header->h = 1;
 309:Drivers/lvgl/src/draw/lv_img_decoder.c ****         /*Symbols always have transparent parts. Important because of cover check in the draw
 310:Drivers/lvgl/src/draw/lv_img_decoder.c ****          *function. The actual value doesn't matter because lv_draw_label will draw it*/
 311:Drivers/lvgl/src/draw/lv_img_decoder.c ****         header->cf = LV_IMG_CF_ALPHA_1BIT;
 312:Drivers/lvgl/src/draw/lv_img_decoder.c ****     }
 313:Drivers/lvgl/src/draw/lv_img_decoder.c ****     else {
 314:Drivers/lvgl/src/draw/lv_img_decoder.c ****         LV_LOG_WARN("Image get info found unknown src type");
 315:Drivers/lvgl/src/draw/lv_img_decoder.c ****         return LV_RES_INV;
 316:Drivers/lvgl/src/draw/lv_img_decoder.c ****     }
 317:Drivers/lvgl/src/draw/lv_img_decoder.c ****     return LV_RES_OK;
  99              		.loc 1 317 12 view .LVU22
 100 0046 0126     		movs	r6, #1
 101              	.LVL5:
 102              	.L3:
 318:Drivers/lvgl/src/draw/lv_img_decoder.c **** }
 103              		.loc 1 318 1 view .LVU23
 104 0048 3046     		mov	r0, r6
 105 004a 04B0     		add	sp, sp, #16
 106              		.cfi_remember_state
 107              		.cfi_def_cfa_offset 16
 108              		@ sp needed
 109 004c 70BD     		pop	{r4, r5, r6, pc}
 110              	.LVL6:
 111              	.L2:
 112              		.cfi_restore_state
 286:Drivers/lvgl/src/draw/lv_img_decoder.c ****         /*Support only "*.bin" files*/
 113              		.loc 1 286 10 is_stmt 1 view .LVU24
 286:Drivers/lvgl/src/draw/lv_img_decoder.c ****         /*Support only "*.bin" files*/
 114              		.loc 1 286 12 is_stmt 0 view .LVU25
 115 004e 0128     		cmp	r0, #1
 116 0050 10D0     		beq	.L11
 304:Drivers/lvgl/src/draw/lv_img_decoder.c ****         /*The size depend on the font but it is unknown here. It should be handled outside of the
 117              		.loc 1 304 10 is_stmt 1 view .LVU26
 304:Drivers/lvgl/src/draw/lv_img_decoder.c ****         /*The size depend on the font but it is unknown here. It should be handled outside of the
 118              		.loc 1 304 12 is_stmt 0 view .LVU27
 119 0052 0228     		cmp	r0, #2
 120 0054 37D1     		bne	.L9
 307:Drivers/lvgl/src/draw/lv_img_decoder.c ****         header->h = 1;
 121              		.loc 1 307 9 is_stmt 1 view .LVU28
 307:Drivers/lvgl/src/draw/lv_img_decoder.c ****         header->h = 1;
 122              		.loc 1 307 19 is_stmt 0 view .LVU29
 123 0056 2368     		ldr	r3, [r4]
 124 0058 0126     		movs	r6, #1
 125 005a 66F39423 		bfi	r3, r6, #10, #11
 126 005e 2360     		str	r3, [r4]
 308:Drivers/lvgl/src/draw/lv_img_decoder.c ****         /*Symbols always have transparent parts. Important because of cover check in the draw
 127              		.loc 1 308 9 is_stmt 1 view .LVU30
 308:Drivers/lvgl/src/draw/lv_img_decoder.c ****         /*Symbols always have transparent parts. Important because of cover check in the draw
 128              		.loc 1 308 19 is_stmt 0 view .LVU31
 129 0060 6388     		ldrh	r3, [r4, #2]
 130 0062 66F34F13 		bfi	r3, r6, #5, #11
 131 0066 6380     		strh	r3, [r4, #2]	@ movhi
ARM GAS  /var/folders/0z/tsy30v1j4xl4_7kw94k978ww0000gn/T//cc1SwR9x.s 			page 9


 311:Drivers/lvgl/src/draw/lv_img_decoder.c ****     }
 132              		.loc 1 311 9 is_stmt 1 view .LVU32
 311:Drivers/lvgl/src/draw/lv_img_decoder.c ****     }
 133              		.loc 1 311 20 is_stmt 0 view .LVU33
 134 0068 2378     		ldrb	r3, [r4]	@ zero_extendqisi2
 135 006a 0B22     		movs	r2, #11
 136 006c 62F30403 		bfi	r3, r2, #0, #5
 137 0070 2370     		strb	r3, [r4]
 138 0072 E9E7     		b	.L3
 139              	.L11:
 140              	.LBB14:
 288:Drivers/lvgl/src/draw/lv_img_decoder.c **** 
 141              		.loc 1 288 9 is_stmt 1 view .LVU34
 288:Drivers/lvgl/src/draw/lv_img_decoder.c **** 
 142              		.loc 1 288 12 is_stmt 0 view .LVU35
 143 0074 2846     		mov	r0, r5
 144              	.LVL7:
 288:Drivers/lvgl/src/draw/lv_img_decoder.c **** 
 145              		.loc 1 288 12 view .LVU36
 146 0076 FFF7FEFF 		bl	lv_fs_get_ext
 147              	.LVL8:
 148 007a 1449     		ldr	r1, .L14
 149 007c FFF7FEFF 		bl	strcmp
 150              	.LVL9:
 288:Drivers/lvgl/src/draw/lv_img_decoder.c **** 
 151              		.loc 1 288 11 view .LVU37
 152 0080 08B1     		cbz	r0, .L12
 153              	.LVL10:
 154              	.L5:
 288:Drivers/lvgl/src/draw/lv_img_decoder.c **** 
 155              		.loc 1 288 54 discriminator 2 view .LVU38
 156 0082 0026     		movs	r6, #0
 157 0084 E0E7     		b	.L3
 158              	.LVL11:
 159              	.L12:
 290:Drivers/lvgl/src/draw/lv_img_decoder.c ****         lv_fs_res_t res = lv_fs_open(&f, src, LV_FS_MODE_RD);
 160              		.loc 1 290 9 is_stmt 1 view .LVU39
 291:Drivers/lvgl/src/draw/lv_img_decoder.c ****         if(res == LV_FS_RES_OK) {
 161              		.loc 1 291 9 view .LVU40
 291:Drivers/lvgl/src/draw/lv_img_decoder.c ****         if(res == LV_FS_RES_OK) {
 162              		.loc 1 291 27 is_stmt 0 view .LVU41
 163 0086 0222     		movs	r2, #2
 164 0088 2946     		mov	r1, r5
 165 008a 01A8     		add	r0, sp, #4
 166 008c FFF7FEFF 		bl	lv_fs_open
 167              	.LVL12:
 292:Drivers/lvgl/src/draw/lv_img_decoder.c ****             uint32_t rn;
 168              		.loc 1 292 9 is_stmt 1 view .LVU42
 292:Drivers/lvgl/src/draw/lv_img_decoder.c ****             uint32_t rn;
 169              		.loc 1 292 11 is_stmt 0 view .LVU43
 170 0090 40B1     		cbz	r0, .L13
 171              	.LVL13:
 172              	.L6:
 302:Drivers/lvgl/src/draw/lv_img_decoder.c ****     }
 173              		.loc 1 302 9 is_stmt 1 view .LVU44
 302:Drivers/lvgl/src/draw/lv_img_decoder.c ****     }
 174              		.loc 1 302 18 is_stmt 0 view .LVU45
ARM GAS  /var/folders/0z/tsy30v1j4xl4_7kw94k978ww0000gn/T//cc1SwR9x.s 			page 10


 175 0092 2378     		ldrb	r3, [r4]	@ zero_extendqisi2
 176 0094 03F01F03 		and	r3, r3, #31
 302:Drivers/lvgl/src/draw/lv_img_decoder.c ****     }
 177              		.loc 1 302 43 view .LVU46
 178 0098 1C33     		adds	r3, r3, #28
 179 009a 03F01F03 		and	r3, r3, #31
 302:Drivers/lvgl/src/draw/lv_img_decoder.c ****     }
 180              		.loc 1 302 11 view .LVU47
 181 009e 102B     		cmp	r3, #16
 182 00a0 D2D9     		bls	.L3
 183 00a2 EEE7     		b	.L5
 184              	.LVL14:
 185              	.L13:
 186              	.LBB15:
 293:Drivers/lvgl/src/draw/lv_img_decoder.c ****             res = lv_fs_read(&f, header, sizeof(lv_img_header_t), &rn);
 187              		.loc 1 293 13 is_stmt 1 view .LVU48
 294:Drivers/lvgl/src/draw/lv_img_decoder.c ****             lv_fs_close(&f);
 188              		.loc 1 294 13 view .LVU49
 294:Drivers/lvgl/src/draw/lv_img_decoder.c ****             lv_fs_close(&f);
 189              		.loc 1 294 19 is_stmt 0 view .LVU50
 190 00a4 6B46     		mov	r3, sp
 191 00a6 0422     		movs	r2, #4
 192 00a8 2146     		mov	r1, r4
 193 00aa 0DEB0200 		add	r0, sp, r2
 194              	.LVL15:
 294:Drivers/lvgl/src/draw/lv_img_decoder.c ****             lv_fs_close(&f);
 195              		.loc 1 294 19 view .LVU51
 196 00ae FFF7FEFF 		bl	lv_fs_read
 197              	.LVL16:
 198 00b2 0546     		mov	r5, r0
 199              	.LVL17:
 295:Drivers/lvgl/src/draw/lv_img_decoder.c ****             if(res != LV_FS_RES_OK || rn != sizeof(lv_img_header_t)) {
 200              		.loc 1 295 13 is_stmt 1 view .LVU52
 201 00b4 01A8     		add	r0, sp, #4
 202 00b6 FFF7FEFF 		bl	lv_fs_close
 203              	.LVL18:
 296:Drivers/lvgl/src/draw/lv_img_decoder.c ****                 LV_LOG_WARN("Image get info get read file header");
 204              		.loc 1 296 13 view .LVU53
 296:Drivers/lvgl/src/draw/lv_img_decoder.c ****                 LV_LOG_WARN("Image get info get read file header");
 205              		.loc 1 296 15 is_stmt 0 view .LVU54
 206 00ba 002D     		cmp	r5, #0
 207 00bc E1D1     		bne	.L5
 296:Drivers/lvgl/src/draw/lv_img_decoder.c ****                 LV_LOG_WARN("Image get info get read file header");
 208              		.loc 1 296 42 discriminator 1 view .LVU55
 209 00be 009B     		ldr	r3, [sp]
 296:Drivers/lvgl/src/draw/lv_img_decoder.c ****                 LV_LOG_WARN("Image get info get read file header");
 210              		.loc 1 296 36 discriminator 1 view .LVU56
 211 00c0 042B     		cmp	r3, #4
 212 00c2 DED1     		bne	.L5
 213 00c4 E5E7     		b	.L6
 214              	.LVL19:
 215              	.L9:
 296:Drivers/lvgl/src/draw/lv_img_decoder.c ****                 LV_LOG_WARN("Image get info get read file header");
 216              		.loc 1 296 36 discriminator 1 view .LVU57
 217              	.LBE15:
 218              	.LBE14:
 315:Drivers/lvgl/src/draw/lv_img_decoder.c ****     }
ARM GAS  /var/folders/0z/tsy30v1j4xl4_7kw94k978ww0000gn/T//cc1SwR9x.s 			page 11


 219              		.loc 1 315 16 view .LVU58
 220 00c6 0026     		movs	r6, #0
 221 00c8 BEE7     		b	.L3
 222              	.L15:
 223 00ca 00BF     		.align	2
 224              	.L14:
 225 00cc 00000000 		.word	.LC0
 226              		.cfi_endproc
 227              	.LFE67:
 229              		.section	.text.lv_img_decoder_built_in_close,"ax",%progbits
 230              		.align	1
 231              		.global	lv_img_decoder_built_in_close
 232              		.syntax unified
 233              		.thumb
 234              		.thumb_func
 236              	lv_img_decoder_built_in_close:
 237              	.LVL20:
 238              	.LFB70:
 319:Drivers/lvgl/src/draw/lv_img_decoder.c **** 
 320:Drivers/lvgl/src/draw/lv_img_decoder.c **** /**
 321:Drivers/lvgl/src/draw/lv_img_decoder.c ****  * Open a built in image
 322:Drivers/lvgl/src/draw/lv_img_decoder.c ****  * @param decoder the decoder where this function belongs
 323:Drivers/lvgl/src/draw/lv_img_decoder.c ****  * @param dsc pointer to decoder descriptor. `src`, `color` are already initialized in it.
 324:Drivers/lvgl/src/draw/lv_img_decoder.c ****  * @return LV_RES_OK: the info is successfully stored in `header`; LV_RES_INV: unknown format or ot
 325:Drivers/lvgl/src/draw/lv_img_decoder.c ****  */
 326:Drivers/lvgl/src/draw/lv_img_decoder.c **** lv_res_t lv_img_decoder_built_in_open(lv_img_decoder_t * decoder, lv_img_decoder_dsc_t * dsc)
 327:Drivers/lvgl/src/draw/lv_img_decoder.c **** {
 328:Drivers/lvgl/src/draw/lv_img_decoder.c ****     /*Open the file if it's a file*/
 329:Drivers/lvgl/src/draw/lv_img_decoder.c ****     if(dsc->src_type == LV_IMG_SRC_FILE) {
 330:Drivers/lvgl/src/draw/lv_img_decoder.c ****         /*Support only "*.bin" files*/
 331:Drivers/lvgl/src/draw/lv_img_decoder.c ****         if(strcmp(lv_fs_get_ext(dsc->src), "bin")) return LV_RES_INV;
 332:Drivers/lvgl/src/draw/lv_img_decoder.c **** 
 333:Drivers/lvgl/src/draw/lv_img_decoder.c ****         lv_fs_file_t f;
 334:Drivers/lvgl/src/draw/lv_img_decoder.c ****         lv_fs_res_t res = lv_fs_open(&f, dsc->src, LV_FS_MODE_RD);
 335:Drivers/lvgl/src/draw/lv_img_decoder.c ****         if(res != LV_FS_RES_OK) {
 336:Drivers/lvgl/src/draw/lv_img_decoder.c ****             LV_LOG_WARN("Built-in image decoder can't open the file");
 337:Drivers/lvgl/src/draw/lv_img_decoder.c ****             return LV_RES_INV;
 338:Drivers/lvgl/src/draw/lv_img_decoder.c ****         }
 339:Drivers/lvgl/src/draw/lv_img_decoder.c **** 
 340:Drivers/lvgl/src/draw/lv_img_decoder.c ****         /*If the file was open successfully save the file descriptor*/
 341:Drivers/lvgl/src/draw/lv_img_decoder.c ****         if(dsc->user_data == NULL) {
 342:Drivers/lvgl/src/draw/lv_img_decoder.c ****             dsc->user_data = lv_mem_alloc(sizeof(lv_img_decoder_built_in_data_t));
 343:Drivers/lvgl/src/draw/lv_img_decoder.c ****             LV_ASSERT_MALLOC(dsc->user_data);
 344:Drivers/lvgl/src/draw/lv_img_decoder.c ****             if(dsc->user_data == NULL) {
 345:Drivers/lvgl/src/draw/lv_img_decoder.c ****                 LV_LOG_ERROR("img_decoder_built_in_open: out of memory");
 346:Drivers/lvgl/src/draw/lv_img_decoder.c ****                 lv_fs_close(&f);
 347:Drivers/lvgl/src/draw/lv_img_decoder.c ****                 return LV_RES_INV;
 348:Drivers/lvgl/src/draw/lv_img_decoder.c ****             }
 349:Drivers/lvgl/src/draw/lv_img_decoder.c ****             lv_memset_00(dsc->user_data, sizeof(lv_img_decoder_built_in_data_t));
 350:Drivers/lvgl/src/draw/lv_img_decoder.c ****         }
 351:Drivers/lvgl/src/draw/lv_img_decoder.c **** 
 352:Drivers/lvgl/src/draw/lv_img_decoder.c ****         lv_img_decoder_built_in_data_t * user_data = dsc->user_data;
 353:Drivers/lvgl/src/draw/lv_img_decoder.c ****         lv_memcpy_small(&user_data->f, &f, sizeof(f));
 354:Drivers/lvgl/src/draw/lv_img_decoder.c ****     }
 355:Drivers/lvgl/src/draw/lv_img_decoder.c ****     else if(dsc->src_type == LV_IMG_SRC_VARIABLE) {
 356:Drivers/lvgl/src/draw/lv_img_decoder.c ****         /*The variables should have valid data*/
 357:Drivers/lvgl/src/draw/lv_img_decoder.c ****         if(((lv_img_dsc_t *)dsc->src)->data == NULL) {
ARM GAS  /var/folders/0z/tsy30v1j4xl4_7kw94k978ww0000gn/T//cc1SwR9x.s 			page 12


 358:Drivers/lvgl/src/draw/lv_img_decoder.c ****             return LV_RES_INV;
 359:Drivers/lvgl/src/draw/lv_img_decoder.c ****         }
 360:Drivers/lvgl/src/draw/lv_img_decoder.c ****     }
 361:Drivers/lvgl/src/draw/lv_img_decoder.c **** 
 362:Drivers/lvgl/src/draw/lv_img_decoder.c ****     lv_img_cf_t cf = dsc->header.cf;
 363:Drivers/lvgl/src/draw/lv_img_decoder.c ****     /*Process A8,  RGB565A8, need load file to ram after https://github.com/lvgl/lvgl/pull/3337*/
 364:Drivers/lvgl/src/draw/lv_img_decoder.c ****     if(cf == LV_IMG_CF_ALPHA_8BIT || cf == LV_IMG_CF_RGB565A8) {
 365:Drivers/lvgl/src/draw/lv_img_decoder.c ****         if(dsc->src_type == LV_IMG_SRC_VARIABLE) {
 366:Drivers/lvgl/src/draw/lv_img_decoder.c ****             /*In case of uncompressed formats the image stored in the ROM/RAM.
 367:Drivers/lvgl/src/draw/lv_img_decoder.c ****              *So simply give its pointer*/
 368:Drivers/lvgl/src/draw/lv_img_decoder.c ****             dsc->img_data = ((lv_img_dsc_t *)dsc->src)->data;
 369:Drivers/lvgl/src/draw/lv_img_decoder.c ****             return LV_RES_OK;
 370:Drivers/lvgl/src/draw/lv_img_decoder.c ****         }
 371:Drivers/lvgl/src/draw/lv_img_decoder.c ****         else {
 372:Drivers/lvgl/src/draw/lv_img_decoder.c ****             /*If it's a file, read all to memory*/
 373:Drivers/lvgl/src/draw/lv_img_decoder.c ****             uint32_t len = dsc->header.w * dsc->header.h;
 374:Drivers/lvgl/src/draw/lv_img_decoder.c ****             len *= cf == LV_IMG_CF_RGB565A8 ? 3 : 1;
 375:Drivers/lvgl/src/draw/lv_img_decoder.c ****             uint8_t * fs_buf = lv_mem_alloc(len);
 376:Drivers/lvgl/src/draw/lv_img_decoder.c ****             if(fs_buf == NULL) return LV_RES_INV;
 377:Drivers/lvgl/src/draw/lv_img_decoder.c **** 
 378:Drivers/lvgl/src/draw/lv_img_decoder.c ****             lv_img_decoder_built_in_data_t * user_data = dsc->user_data;
 379:Drivers/lvgl/src/draw/lv_img_decoder.c ****             lv_fs_seek(&user_data->f, 4, LV_FS_SEEK_SET); /*+4 to skip the header*/
 380:Drivers/lvgl/src/draw/lv_img_decoder.c ****             lv_fs_res_t res = lv_fs_read(&user_data->f, fs_buf, len, NULL);
 381:Drivers/lvgl/src/draw/lv_img_decoder.c ****             if(res != LV_FS_RES_OK) {
 382:Drivers/lvgl/src/draw/lv_img_decoder.c ****                 lv_mem_free(fs_buf);
 383:Drivers/lvgl/src/draw/lv_img_decoder.c ****                 return LV_RES_INV;
 384:Drivers/lvgl/src/draw/lv_img_decoder.c ****             }
 385:Drivers/lvgl/src/draw/lv_img_decoder.c ****             dsc->img_data = fs_buf;
 386:Drivers/lvgl/src/draw/lv_img_decoder.c ****             return LV_RES_OK;
 387:Drivers/lvgl/src/draw/lv_img_decoder.c ****         }
 388:Drivers/lvgl/src/draw/lv_img_decoder.c ****     }
 389:Drivers/lvgl/src/draw/lv_img_decoder.c ****     /*Process true color formats*/
 390:Drivers/lvgl/src/draw/lv_img_decoder.c ****     else if(cf == LV_IMG_CF_TRUE_COLOR || cf == LV_IMG_CF_TRUE_COLOR_ALPHA ||
 391:Drivers/lvgl/src/draw/lv_img_decoder.c ****             cf == LV_IMG_CF_TRUE_COLOR_CHROMA_KEYED) {
 392:Drivers/lvgl/src/draw/lv_img_decoder.c ****         if(dsc->src_type == LV_IMG_SRC_VARIABLE) {
 393:Drivers/lvgl/src/draw/lv_img_decoder.c ****             /*In case of uncompressed formats the image stored in the ROM/RAM.
 394:Drivers/lvgl/src/draw/lv_img_decoder.c ****              *So simply give its pointer*/
 395:Drivers/lvgl/src/draw/lv_img_decoder.c ****             dsc->img_data = ((lv_img_dsc_t *)dsc->src)->data;
 396:Drivers/lvgl/src/draw/lv_img_decoder.c ****             return LV_RES_OK;
 397:Drivers/lvgl/src/draw/lv_img_decoder.c ****         }
 398:Drivers/lvgl/src/draw/lv_img_decoder.c ****         else {
 399:Drivers/lvgl/src/draw/lv_img_decoder.c ****             /*If it's a file it need to be read line by line later*/
 400:Drivers/lvgl/src/draw/lv_img_decoder.c ****             return LV_RES_OK;
 401:Drivers/lvgl/src/draw/lv_img_decoder.c ****         }
 402:Drivers/lvgl/src/draw/lv_img_decoder.c ****     }
 403:Drivers/lvgl/src/draw/lv_img_decoder.c ****     /*Process indexed images. Build a palette*/
 404:Drivers/lvgl/src/draw/lv_img_decoder.c ****     else if(cf == LV_IMG_CF_INDEXED_1BIT || cf == LV_IMG_CF_INDEXED_2BIT || cf == LV_IMG_CF_INDEXED
 405:Drivers/lvgl/src/draw/lv_img_decoder.c ****             cf == LV_IMG_CF_INDEXED_8BIT) {
 406:Drivers/lvgl/src/draw/lv_img_decoder.c ****         uint8_t px_size       = lv_img_cf_get_px_size(cf);
 407:Drivers/lvgl/src/draw/lv_img_decoder.c ****         uint32_t palette_size = 1 << px_size;
 408:Drivers/lvgl/src/draw/lv_img_decoder.c **** 
 409:Drivers/lvgl/src/draw/lv_img_decoder.c ****         /*Allocate the palette*/
 410:Drivers/lvgl/src/draw/lv_img_decoder.c ****         if(dsc->user_data == NULL) {
 411:Drivers/lvgl/src/draw/lv_img_decoder.c ****             dsc->user_data = lv_mem_alloc(sizeof(lv_img_decoder_built_in_data_t));
 412:Drivers/lvgl/src/draw/lv_img_decoder.c ****             LV_ASSERT_MALLOC(dsc->user_data);
 413:Drivers/lvgl/src/draw/lv_img_decoder.c ****             if(dsc->user_data == NULL) {
 414:Drivers/lvgl/src/draw/lv_img_decoder.c ****                 LV_LOG_ERROR("img_decoder_built_in_open: out of memory");
ARM GAS  /var/folders/0z/tsy30v1j4xl4_7kw94k978ww0000gn/T//cc1SwR9x.s 			page 13


 415:Drivers/lvgl/src/draw/lv_img_decoder.c ****                 return LV_RES_INV;
 416:Drivers/lvgl/src/draw/lv_img_decoder.c ****             }
 417:Drivers/lvgl/src/draw/lv_img_decoder.c ****             lv_memset_00(dsc->user_data, sizeof(lv_img_decoder_built_in_data_t));
 418:Drivers/lvgl/src/draw/lv_img_decoder.c ****         }
 419:Drivers/lvgl/src/draw/lv_img_decoder.c **** 
 420:Drivers/lvgl/src/draw/lv_img_decoder.c ****         lv_img_decoder_built_in_data_t * user_data = dsc->user_data;
 421:Drivers/lvgl/src/draw/lv_img_decoder.c ****         user_data->palette                         = lv_mem_alloc(palette_size * sizeof(lv_color_t)
 422:Drivers/lvgl/src/draw/lv_img_decoder.c ****         LV_ASSERT_MALLOC(user_data->palette);
 423:Drivers/lvgl/src/draw/lv_img_decoder.c ****         user_data->opa                             = lv_mem_alloc(palette_size * sizeof(lv_opa_t));
 424:Drivers/lvgl/src/draw/lv_img_decoder.c ****         LV_ASSERT_MALLOC(user_data->opa);
 425:Drivers/lvgl/src/draw/lv_img_decoder.c ****         if(user_data->palette == NULL || user_data->opa == NULL) {
 426:Drivers/lvgl/src/draw/lv_img_decoder.c ****             LV_LOG_ERROR("img_decoder_built_in_open: out of memory");
 427:Drivers/lvgl/src/draw/lv_img_decoder.c ****             lv_img_decoder_built_in_close(decoder, dsc);
 428:Drivers/lvgl/src/draw/lv_img_decoder.c ****             return LV_RES_INV;
 429:Drivers/lvgl/src/draw/lv_img_decoder.c ****         }
 430:Drivers/lvgl/src/draw/lv_img_decoder.c **** 
 431:Drivers/lvgl/src/draw/lv_img_decoder.c ****         if(dsc->src_type == LV_IMG_SRC_FILE) {
 432:Drivers/lvgl/src/draw/lv_img_decoder.c ****             /*Read the palette from file*/
 433:Drivers/lvgl/src/draw/lv_img_decoder.c ****             lv_fs_seek(&user_data->f, 4, LV_FS_SEEK_SET); /*Skip the header*/
 434:Drivers/lvgl/src/draw/lv_img_decoder.c ****             lv_color32_t cur_color;
 435:Drivers/lvgl/src/draw/lv_img_decoder.c ****             uint32_t i;
 436:Drivers/lvgl/src/draw/lv_img_decoder.c ****             for(i = 0; i < palette_size; i++) {
 437:Drivers/lvgl/src/draw/lv_img_decoder.c ****                 lv_fs_read(&user_data->f, &cur_color, sizeof(lv_color32_t), NULL);
 438:Drivers/lvgl/src/draw/lv_img_decoder.c ****                 user_data->palette[i] = lv_color_make(cur_color.ch.red, cur_color.ch.green, cur_col
 439:Drivers/lvgl/src/draw/lv_img_decoder.c ****                 user_data->opa[i]     = cur_color.ch.alpha;
 440:Drivers/lvgl/src/draw/lv_img_decoder.c ****             }
 441:Drivers/lvgl/src/draw/lv_img_decoder.c ****         }
 442:Drivers/lvgl/src/draw/lv_img_decoder.c ****         else {
 443:Drivers/lvgl/src/draw/lv_img_decoder.c ****             /*The palette begins in the beginning of the image data. Just point to it.*/
 444:Drivers/lvgl/src/draw/lv_img_decoder.c ****             lv_color32_t * palette_p = (lv_color32_t *)((lv_img_dsc_t *)dsc->src)->data;
 445:Drivers/lvgl/src/draw/lv_img_decoder.c **** 
 446:Drivers/lvgl/src/draw/lv_img_decoder.c ****             uint32_t i;
 447:Drivers/lvgl/src/draw/lv_img_decoder.c ****             for(i = 0; i < palette_size; i++) {
 448:Drivers/lvgl/src/draw/lv_img_decoder.c ****                 user_data->palette[i] = lv_color_make(palette_p[i].ch.red, palette_p[i].ch.green, p
 449:Drivers/lvgl/src/draw/lv_img_decoder.c ****                 user_data->opa[i]     = palette_p[i].ch.alpha;
 450:Drivers/lvgl/src/draw/lv_img_decoder.c ****             }
 451:Drivers/lvgl/src/draw/lv_img_decoder.c ****         }
 452:Drivers/lvgl/src/draw/lv_img_decoder.c **** 
 453:Drivers/lvgl/src/draw/lv_img_decoder.c ****         return LV_RES_OK;
 454:Drivers/lvgl/src/draw/lv_img_decoder.c ****     }
 455:Drivers/lvgl/src/draw/lv_img_decoder.c ****     /*Alpha indexed images.*/
 456:Drivers/lvgl/src/draw/lv_img_decoder.c ****     else if(cf == LV_IMG_CF_ALPHA_1BIT || cf == LV_IMG_CF_ALPHA_2BIT || cf == LV_IMG_CF_ALPHA_4BIT)
 457:Drivers/lvgl/src/draw/lv_img_decoder.c ****         return LV_RES_OK; /*Nothing to process*/
 458:Drivers/lvgl/src/draw/lv_img_decoder.c ****     }
 459:Drivers/lvgl/src/draw/lv_img_decoder.c ****     /*Unknown format. Can't decode it.*/
 460:Drivers/lvgl/src/draw/lv_img_decoder.c ****     else {
 461:Drivers/lvgl/src/draw/lv_img_decoder.c ****         /*Free the potentially allocated memories*/
 462:Drivers/lvgl/src/draw/lv_img_decoder.c ****         lv_img_decoder_built_in_close(decoder, dsc);
 463:Drivers/lvgl/src/draw/lv_img_decoder.c **** 
 464:Drivers/lvgl/src/draw/lv_img_decoder.c ****         LV_LOG_WARN("Image decoder open: unknown color format");
 465:Drivers/lvgl/src/draw/lv_img_decoder.c ****         return LV_RES_INV;
 466:Drivers/lvgl/src/draw/lv_img_decoder.c ****     }
 467:Drivers/lvgl/src/draw/lv_img_decoder.c **** }
 468:Drivers/lvgl/src/draw/lv_img_decoder.c **** 
 469:Drivers/lvgl/src/draw/lv_img_decoder.c **** /**
 470:Drivers/lvgl/src/draw/lv_img_decoder.c ****  * Decode `len` pixels starting from the given `x`, `y` coordinates and store them in `buf`.
 471:Drivers/lvgl/src/draw/lv_img_decoder.c ****  * Required only if the "open" function can't return with the whole decoded pixel array.
ARM GAS  /var/folders/0z/tsy30v1j4xl4_7kw94k978ww0000gn/T//cc1SwR9x.s 			page 14


 472:Drivers/lvgl/src/draw/lv_img_decoder.c ****  * @param decoder pointer to the decoder the function associated with
 473:Drivers/lvgl/src/draw/lv_img_decoder.c ****  * @param dsc pointer to decoder descriptor
 474:Drivers/lvgl/src/draw/lv_img_decoder.c ****  * @param x start x coordinate
 475:Drivers/lvgl/src/draw/lv_img_decoder.c ****  * @param y start y coordinate
 476:Drivers/lvgl/src/draw/lv_img_decoder.c ****  * @param len number of pixels to decode
 477:Drivers/lvgl/src/draw/lv_img_decoder.c ****  * @param buf a buffer to store the decoded pixels
 478:Drivers/lvgl/src/draw/lv_img_decoder.c ****  * @return LV_RES_OK: ok; LV_RES_INV: failed
 479:Drivers/lvgl/src/draw/lv_img_decoder.c ****  */
 480:Drivers/lvgl/src/draw/lv_img_decoder.c **** lv_res_t lv_img_decoder_built_in_read_line(lv_img_decoder_t * decoder, lv_img_decoder_dsc_t * dsc, 
 481:Drivers/lvgl/src/draw/lv_img_decoder.c ****                                            lv_coord_t y, lv_coord_t len, uint8_t * buf)
 482:Drivers/lvgl/src/draw/lv_img_decoder.c **** {
 483:Drivers/lvgl/src/draw/lv_img_decoder.c ****     LV_UNUSED(decoder); /*Unused*/
 484:Drivers/lvgl/src/draw/lv_img_decoder.c **** 
 485:Drivers/lvgl/src/draw/lv_img_decoder.c ****     lv_res_t res = LV_RES_INV;
 486:Drivers/lvgl/src/draw/lv_img_decoder.c **** 
 487:Drivers/lvgl/src/draw/lv_img_decoder.c ****     if(dsc->header.cf == LV_IMG_CF_TRUE_COLOR || dsc->header.cf == LV_IMG_CF_TRUE_COLOR_ALPHA ||
 488:Drivers/lvgl/src/draw/lv_img_decoder.c ****        dsc->header.cf == LV_IMG_CF_TRUE_COLOR_CHROMA_KEYED) {
 489:Drivers/lvgl/src/draw/lv_img_decoder.c ****         /*For TRUE_COLOR images read line required only for files.
 490:Drivers/lvgl/src/draw/lv_img_decoder.c ****          *For variables the image data was returned in `open`*/
 491:Drivers/lvgl/src/draw/lv_img_decoder.c ****         if(dsc->src_type == LV_IMG_SRC_FILE) {
 492:Drivers/lvgl/src/draw/lv_img_decoder.c ****             res = lv_img_decoder_built_in_line_true_color(dsc, x, y, len, buf);
 493:Drivers/lvgl/src/draw/lv_img_decoder.c ****         }
 494:Drivers/lvgl/src/draw/lv_img_decoder.c ****     }
 495:Drivers/lvgl/src/draw/lv_img_decoder.c ****     else if(dsc->header.cf == LV_IMG_CF_ALPHA_1BIT || dsc->header.cf == LV_IMG_CF_ALPHA_2BIT ||
 496:Drivers/lvgl/src/draw/lv_img_decoder.c ****             dsc->header.cf == LV_IMG_CF_ALPHA_4BIT || dsc->header.cf == LV_IMG_CF_ALPHA_8BIT) {
 497:Drivers/lvgl/src/draw/lv_img_decoder.c ****         res = lv_img_decoder_built_in_line_alpha(dsc, x, y, len, buf);
 498:Drivers/lvgl/src/draw/lv_img_decoder.c ****     }
 499:Drivers/lvgl/src/draw/lv_img_decoder.c ****     else if(dsc->header.cf == LV_IMG_CF_INDEXED_1BIT || dsc->header.cf == LV_IMG_CF_INDEXED_2BIT ||
 500:Drivers/lvgl/src/draw/lv_img_decoder.c ****             dsc->header.cf == LV_IMG_CF_INDEXED_4BIT || dsc->header.cf == LV_IMG_CF_INDEXED_8BIT) {
 501:Drivers/lvgl/src/draw/lv_img_decoder.c ****         res = lv_img_decoder_built_in_line_indexed(dsc, x, y, len, buf);
 502:Drivers/lvgl/src/draw/lv_img_decoder.c ****     }
 503:Drivers/lvgl/src/draw/lv_img_decoder.c ****     else {
 504:Drivers/lvgl/src/draw/lv_img_decoder.c ****         LV_LOG_WARN("Built-in image decoder read not supports the color format");
 505:Drivers/lvgl/src/draw/lv_img_decoder.c ****         return LV_RES_INV;
 506:Drivers/lvgl/src/draw/lv_img_decoder.c ****     }
 507:Drivers/lvgl/src/draw/lv_img_decoder.c **** 
 508:Drivers/lvgl/src/draw/lv_img_decoder.c ****     return res;
 509:Drivers/lvgl/src/draw/lv_img_decoder.c **** }
 510:Drivers/lvgl/src/draw/lv_img_decoder.c **** 
 511:Drivers/lvgl/src/draw/lv_img_decoder.c **** /**
 512:Drivers/lvgl/src/draw/lv_img_decoder.c ****  * Close the pending decoding. Free resources etc.
 513:Drivers/lvgl/src/draw/lv_img_decoder.c ****  * @param decoder pointer to the decoder the function associated with
 514:Drivers/lvgl/src/draw/lv_img_decoder.c ****  * @param dsc pointer to decoder descriptor
 515:Drivers/lvgl/src/draw/lv_img_decoder.c ****  */
 516:Drivers/lvgl/src/draw/lv_img_decoder.c **** void lv_img_decoder_built_in_close(lv_img_decoder_t * decoder, lv_img_decoder_dsc_t * dsc)
 517:Drivers/lvgl/src/draw/lv_img_decoder.c **** {
 239              		.loc 1 517 1 is_stmt 1 view -0
 240              		.cfi_startproc
 241              		@ args = 0, pretend = 0, frame = 0
 242              		@ frame_needed = 0, uses_anonymous_args = 0
 243              		.loc 1 517 1 is_stmt 0 view .LVU60
 244 0000 38B5     		push	{r3, r4, r5, lr}
 245              		.cfi_def_cfa_offset 16
 246              		.cfi_offset 3, -16
 247              		.cfi_offset 4, -12
 248              		.cfi_offset 5, -8
 249              		.cfi_offset 14, -4
ARM GAS  /var/folders/0z/tsy30v1j4xl4_7kw94k978ww0000gn/T//cc1SwR9x.s 			page 15


 518:Drivers/lvgl/src/draw/lv_img_decoder.c ****     LV_UNUSED(decoder); /*Unused*/
 250              		.loc 1 518 5 is_stmt 1 view .LVU61
 519:Drivers/lvgl/src/draw/lv_img_decoder.c **** 
 520:Drivers/lvgl/src/draw/lv_img_decoder.c ****     lv_img_decoder_built_in_data_t * user_data = dsc->user_data;
 251              		.loc 1 520 5 view .LVU62
 252              		.loc 1 520 38 is_stmt 0 view .LVU63
 253 0002 4D6A     		ldr	r5, [r1, #36]
 254              	.LVL21:
 521:Drivers/lvgl/src/draw/lv_img_decoder.c ****     if(user_data) {
 255              		.loc 1 521 5 is_stmt 1 view .LVU64
 256              		.loc 1 521 7 is_stmt 0 view .LVU65
 257 0004 85B1     		cbz	r5, .L16
 258 0006 0C46     		mov	r4, r1
 522:Drivers/lvgl/src/draw/lv_img_decoder.c ****         if(dsc->src_type == LV_IMG_SRC_FILE) {
 259              		.loc 1 522 9 is_stmt 1 view .LVU66
 260              		.loc 1 522 15 is_stmt 0 view .LVU67
 261 0008 0B7C     		ldrb	r3, [r1, #16]	@ zero_extendqisi2
 262              		.loc 1 522 11 view .LVU68
 263 000a 012B     		cmp	r3, #1
 264 000c 0DD0     		beq	.L22
 265              	.LVL22:
 266              	.L18:
 523:Drivers/lvgl/src/draw/lv_img_decoder.c ****             lv_fs_close(&user_data->f);
 524:Drivers/lvgl/src/draw/lv_img_decoder.c ****         }
 525:Drivers/lvgl/src/draw/lv_img_decoder.c ****         if(user_data->palette) lv_mem_free(user_data->palette);
 267              		.loc 1 525 9 is_stmt 1 view .LVU69
 268              		.loc 1 525 21 is_stmt 0 view .LVU70
 269 000e E868     		ldr	r0, [r5, #12]
 270              		.loc 1 525 11 view .LVU71
 271 0010 08B1     		cbz	r0, .L19
 272              		.loc 1 525 32 is_stmt 1 discriminator 1 view .LVU72
 273 0012 FFF7FEFF 		bl	lv_mem_free
 274              	.LVL23:
 275              	.L19:
 526:Drivers/lvgl/src/draw/lv_img_decoder.c ****         if(user_data->opa) lv_mem_free(user_data->opa);
 276              		.loc 1 526 9 view .LVU73
 277              		.loc 1 526 21 is_stmt 0 view .LVU74
 278 0016 2869     		ldr	r0, [r5, #16]
 279              		.loc 1 526 11 view .LVU75
 280 0018 08B1     		cbz	r0, .L20
 281              		.loc 1 526 28 is_stmt 1 discriminator 1 view .LVU76
 282 001a FFF7FEFF 		bl	lv_mem_free
 283              	.LVL24:
 284              	.L20:
 527:Drivers/lvgl/src/draw/lv_img_decoder.c **** 
 528:Drivers/lvgl/src/draw/lv_img_decoder.c ****         lv_mem_free(user_data);
 285              		.loc 1 528 9 view .LVU77
 286 001e 2846     		mov	r0, r5
 287 0020 FFF7FEFF 		bl	lv_mem_free
 288              	.LVL25:
 529:Drivers/lvgl/src/draw/lv_img_decoder.c ****         dsc->user_data = NULL;
 289              		.loc 1 529 9 view .LVU78
 290              		.loc 1 529 24 is_stmt 0 view .LVU79
 291 0024 0023     		movs	r3, #0
 292 0026 6362     		str	r3, [r4, #36]
 293              	.LVL26:
 294              	.L16:
ARM GAS  /var/folders/0z/tsy30v1j4xl4_7kw94k978ww0000gn/T//cc1SwR9x.s 			page 16


 530:Drivers/lvgl/src/draw/lv_img_decoder.c ****     }
 531:Drivers/lvgl/src/draw/lv_img_decoder.c **** }
 295              		.loc 1 531 1 view .LVU80
 296 0028 38BD     		pop	{r3, r4, r5, pc}
 297              	.LVL27:
 298              	.L22:
 523:Drivers/lvgl/src/draw/lv_img_decoder.c ****         }
 299              		.loc 1 523 13 is_stmt 1 view .LVU81
 300 002a 2846     		mov	r0, r5
 301              	.LVL28:
 523:Drivers/lvgl/src/draw/lv_img_decoder.c ****         }
 302              		.loc 1 523 13 is_stmt 0 view .LVU82
 303 002c FFF7FEFF 		bl	lv_fs_close
 304              	.LVL29:
 523:Drivers/lvgl/src/draw/lv_img_decoder.c ****         }
 305              		.loc 1 523 13 view .LVU83
 306 0030 EDE7     		b	.L18
 307              		.cfi_endproc
 308              	.LFE70:
 310              		.section	.text.lv_img_decoder_built_in_open,"ax",%progbits
 311              		.align	1
 312              		.global	lv_img_decoder_built_in_open
 313              		.syntax unified
 314              		.thumb
 315              		.thumb_func
 317              	lv_img_decoder_built_in_open:
 318              	.LVL30:
 319              	.LFB68:
 327:Drivers/lvgl/src/draw/lv_img_decoder.c ****     /*Open the file if it's a file*/
 320              		.loc 1 327 1 is_stmt 1 view -0
 321              		.cfi_startproc
 322              		@ args = 0, pretend = 0, frame = 16
 323              		@ frame_needed = 0, uses_anonymous_args = 0
 327:Drivers/lvgl/src/draw/lv_img_decoder.c ****     /*Open the file if it's a file*/
 324              		.loc 1 327 1 is_stmt 0 view .LVU85
 325 0000 2DE9F047 		push	{r4, r5, r6, r7, r8, r9, r10, lr}
 326              		.cfi_def_cfa_offset 32
 327              		.cfi_offset 4, -32
 328              		.cfi_offset 5, -28
 329              		.cfi_offset 6, -24
 330              		.cfi_offset 7, -20
 331              		.cfi_offset 8, -16
 332              		.cfi_offset 9, -12
 333              		.cfi_offset 10, -8
 334              		.cfi_offset 14, -4
 335 0004 84B0     		sub	sp, sp, #16
 336              		.cfi_def_cfa_offset 48
 337 0006 0746     		mov	r7, r0
 338 0008 0C46     		mov	r4, r1
 329:Drivers/lvgl/src/draw/lv_img_decoder.c ****         /*Support only "*.bin" files*/
 339              		.loc 1 329 5 is_stmt 1 view .LVU86
 329:Drivers/lvgl/src/draw/lv_img_decoder.c ****         /*Support only "*.bin" files*/
 340              		.loc 1 329 11 is_stmt 0 view .LVU87
 341 000a 087C     		ldrb	r0, [r1, #16]	@ zero_extendqisi2
 342              	.LVL31:
 329:Drivers/lvgl/src/draw/lv_img_decoder.c ****         /*Support only "*.bin" files*/
 343              		.loc 1 329 7 view .LVU88
ARM GAS  /var/folders/0z/tsy30v1j4xl4_7kw94k978ww0000gn/T//cc1SwR9x.s 			page 17


 344 000c 0128     		cmp	r0, #1
 345 000e 1FD0     		beq	.L61
 355:Drivers/lvgl/src/draw/lv_img_decoder.c ****         /*The variables should have valid data*/
 346              		.loc 1 355 10 is_stmt 1 view .LVU89
 355:Drivers/lvgl/src/draw/lv_img_decoder.c ****         /*The variables should have valid data*/
 347              		.loc 1 355 12 is_stmt 0 view .LVU90
 348 0010 10B9     		cbnz	r0, .L31
 357:Drivers/lvgl/src/draw/lv_img_decoder.c ****             return LV_RES_INV;
 349              		.loc 1 357 9 is_stmt 1 view .LVU91
 357:Drivers/lvgl/src/draw/lv_img_decoder.c ****             return LV_RES_INV;
 350              		.loc 1 357 32 is_stmt 0 view .LVU92
 351 0012 4B68     		ldr	r3, [r1, #4]
 357:Drivers/lvgl/src/draw/lv_img_decoder.c ****             return LV_RES_INV;
 352              		.loc 1 357 38 view .LVU93
 353 0014 9B68     		ldr	r3, [r3, #8]
 357:Drivers/lvgl/src/draw/lv_img_decoder.c ****             return LV_RES_INV;
 354              		.loc 1 357 11 view .LVU94
 355 0016 1BB3     		cbz	r3, .L32
 356              	.LVL32:
 357              	.L31:
 362:Drivers/lvgl/src/draw/lv_img_decoder.c ****     /*Process A8,  RGB565A8, need load file to ram after https://github.com/lvgl/lvgl/pull/3337*/
 358              		.loc 1 362 5 is_stmt 1 view .LVU95
 362:Drivers/lvgl/src/draw/lv_img_decoder.c ****     /*Process A8,  RGB565A8, need load file to ram after https://github.com/lvgl/lvgl/pull/3337*/
 359              		.loc 1 362 33 is_stmt 0 view .LVU96
 360 0018 237D     		ldrb	r3, [r4, #20]	@ zero_extendqisi2
 361 001a 03F01F00 		and	r0, r3, #31
 362              	.LVL33:
 364:Drivers/lvgl/src/draw/lv_img_decoder.c ****         if(dsc->src_type == LV_IMG_SRC_VARIABLE) {
 363              		.loc 1 364 5 is_stmt 1 view .LVU97
 364:Drivers/lvgl/src/draw/lv_img_decoder.c ****         if(dsc->src_type == LV_IMG_SRC_VARIABLE) {
 364              		.loc 1 364 7 is_stmt 0 view .LVU98
 365 001e 0E28     		cmp	r0, #14
 366 0020 40D0     		beq	.L33
 367 0022 021F     		subs	r2, r0, #4
 368 0024 102A     		cmp	r2, #16
 369 0026 00F2FC80 		bhi	.L34
 370 002a DFE812F0 		tbh	[pc, r2, lsl #1]
 371              	.L35:
 372 002e 6D00     		.2byte	(.L37-.L35)/2
 373 0030 6D00     		.2byte	(.L37-.L35)/2
 374 0032 6D00     		.2byte	(.L37-.L35)/2
 375 0034 7600     		.2byte	(.L36-.L35)/2
 376 0036 7600     		.2byte	(.L36-.L35)/2
 377 0038 7600     		.2byte	(.L36-.L35)/2
 378 003a 7600     		.2byte	(.L36-.L35)/2
 379 003c 0001     		.2byte	(.L55-.L35)/2
 380 003e 0001     		.2byte	(.L55-.L35)/2
 381 0040 0001     		.2byte	(.L55-.L35)/2
 382 0042 FA00     		.2byte	(.L34-.L35)/2
 383 0044 FA00     		.2byte	(.L34-.L35)/2
 384 0046 FA00     		.2byte	(.L34-.L35)/2
 385 0048 FA00     		.2byte	(.L34-.L35)/2
 386 004a FA00     		.2byte	(.L34-.L35)/2
 387 004c FA00     		.2byte	(.L34-.L35)/2
 388 004e 3B00     		.2byte	(.L33-.L35)/2
 389              	.LVL34:
 390              		.p2align 1
ARM GAS  /var/folders/0z/tsy30v1j4xl4_7kw94k978ww0000gn/T//cc1SwR9x.s 			page 18


 391              	.L61:
 392              	.LBB16:
 331:Drivers/lvgl/src/draw/lv_img_decoder.c **** 
 393              		.loc 1 331 9 is_stmt 1 view .LVU99
 331:Drivers/lvgl/src/draw/lv_img_decoder.c **** 
 394              		.loc 1 331 12 is_stmt 0 view .LVU100
 395 0050 4868     		ldr	r0, [r1, #4]
 396 0052 FFF7FEFF 		bl	lv_fs_get_ext
 397              	.LVL35:
 331:Drivers/lvgl/src/draw/lv_img_decoder.c **** 
 398              		.loc 1 331 12 view .LVU101
 399 0056 7949     		ldr	r1, .L70
 400 0058 FFF7FEFF 		bl	strcmp
 401              	.LVL36:
 331:Drivers/lvgl/src/draw/lv_img_decoder.c **** 
 402              		.loc 1 331 11 view .LVU102
 403 005c 18B1     		cbz	r0, .L62
 404              	.L25:
 331:Drivers/lvgl/src/draw/lv_img_decoder.c **** 
 405              		.loc 1 331 59 discriminator 2 view .LVU103
 406 005e 0020     		movs	r0, #0
 407              	.LVL37:
 408              	.L32:
 331:Drivers/lvgl/src/draw/lv_img_decoder.c **** 
 409              		.loc 1 331 59 discriminator 2 view .LVU104
 410              	.LBE16:
 467:Drivers/lvgl/src/draw/lv_img_decoder.c **** 
 411              		.loc 1 467 1 view .LVU105
 412 0060 04B0     		add	sp, sp, #16
 413              		.cfi_remember_state
 414              		.cfi_def_cfa_offset 32
 415              		@ sp needed
 416 0062 BDE8F087 		pop	{r4, r5, r6, r7, r8, r9, r10, pc}
 417              	.LVL38:
 418              	.L62:
 419              		.cfi_restore_state
 420              	.LBB21:
 333:Drivers/lvgl/src/draw/lv_img_decoder.c ****         lv_fs_res_t res = lv_fs_open(&f, dsc->src, LV_FS_MODE_RD);
 421              		.loc 1 333 9 is_stmt 1 view .LVU106
 334:Drivers/lvgl/src/draw/lv_img_decoder.c ****         if(res != LV_FS_RES_OK) {
 422              		.loc 1 334 9 view .LVU107
 334:Drivers/lvgl/src/draw/lv_img_decoder.c ****         if(res != LV_FS_RES_OK) {
 423              		.loc 1 334 27 is_stmt 0 view .LVU108
 424 0066 0222     		movs	r2, #2
 425 0068 6168     		ldr	r1, [r4, #4]
 426 006a 01A8     		add	r0, sp, #4
 427 006c FFF7FEFF 		bl	lv_fs_open
 428              	.LVL39:
 335:Drivers/lvgl/src/draw/lv_img_decoder.c ****             LV_LOG_WARN("Built-in image decoder can't open the file");
 429              		.loc 1 335 9 is_stmt 1 view .LVU109
 335:Drivers/lvgl/src/draw/lv_img_decoder.c ****             LV_LOG_WARN("Built-in image decoder can't open the file");
 430              		.loc 1 335 11 is_stmt 0 view .LVU110
 431 0070 0028     		cmp	r0, #0
 432 0072 F4D1     		bne	.L25
 341:Drivers/lvgl/src/draw/lv_img_decoder.c ****             dsc->user_data = lv_mem_alloc(sizeof(lv_img_decoder_built_in_data_t));
 433              		.loc 1 341 9 is_stmt 1 view .LVU111
 341:Drivers/lvgl/src/draw/lv_img_decoder.c ****             dsc->user_data = lv_mem_alloc(sizeof(lv_img_decoder_built_in_data_t));
ARM GAS  /var/folders/0z/tsy30v1j4xl4_7kw94k978ww0000gn/T//cc1SwR9x.s 			page 19


 434              		.loc 1 341 15 is_stmt 0 view .LVU112
 435 0074 636A     		ldr	r3, [r4, #36]
 341:Drivers/lvgl/src/draw/lv_img_decoder.c ****             dsc->user_data = lv_mem_alloc(sizeof(lv_img_decoder_built_in_data_t));
 436              		.loc 1 341 11 view .LVU113
 437 0076 1BB1     		cbz	r3, .L63
 438              	.LVL40:
 439              	.L26:
 352:Drivers/lvgl/src/draw/lv_img_decoder.c ****         lv_memcpy_small(&user_data->f, &f, sizeof(f));
 440              		.loc 1 352 9 is_stmt 1 view .LVU114
 352:Drivers/lvgl/src/draw/lv_img_decoder.c ****         lv_memcpy_small(&user_data->f, &f, sizeof(f));
 441              		.loc 1 352 42 is_stmt 0 view .LVU115
 442 0078 616A     		ldr	r1, [r4, #36]
 443              	.LVL41:
 353:Drivers/lvgl/src/draw/lv_img_decoder.c ****     }
 444              		.loc 1 353 9 is_stmt 1 view .LVU116
 445              	.LBB17:
 446              	.LBI17:
 447              		.file 2 "Drivers/lvgl/src/draw/../misc/lv_mem.h"
   1:Drivers/lvgl/src/draw/../misc/lv_mem.h **** /**
   2:Drivers/lvgl/src/draw/../misc/lv_mem.h ****  * @file lv_mem.h
   3:Drivers/lvgl/src/draw/../misc/lv_mem.h ****  *
   4:Drivers/lvgl/src/draw/../misc/lv_mem.h ****  */
   5:Drivers/lvgl/src/draw/../misc/lv_mem.h **** 
   6:Drivers/lvgl/src/draw/../misc/lv_mem.h **** #ifndef LV_MEM_H
   7:Drivers/lvgl/src/draw/../misc/lv_mem.h **** #define LV_MEM_H
   8:Drivers/lvgl/src/draw/../misc/lv_mem.h **** 
   9:Drivers/lvgl/src/draw/../misc/lv_mem.h **** #ifdef __cplusplus
  10:Drivers/lvgl/src/draw/../misc/lv_mem.h **** extern "C" {
  11:Drivers/lvgl/src/draw/../misc/lv_mem.h **** #endif
  12:Drivers/lvgl/src/draw/../misc/lv_mem.h **** 
  13:Drivers/lvgl/src/draw/../misc/lv_mem.h **** /*********************
  14:Drivers/lvgl/src/draw/../misc/lv_mem.h ****  *      INCLUDES
  15:Drivers/lvgl/src/draw/../misc/lv_mem.h ****  *********************/
  16:Drivers/lvgl/src/draw/../misc/lv_mem.h **** #include "../lv_conf_internal.h"
  17:Drivers/lvgl/src/draw/../misc/lv_mem.h **** 
  18:Drivers/lvgl/src/draw/../misc/lv_mem.h **** #include <stdint.h>
  19:Drivers/lvgl/src/draw/../misc/lv_mem.h **** #include <stddef.h>
  20:Drivers/lvgl/src/draw/../misc/lv_mem.h **** #include <string.h>
  21:Drivers/lvgl/src/draw/../misc/lv_mem.h **** 
  22:Drivers/lvgl/src/draw/../misc/lv_mem.h **** #include "lv_types.h"
  23:Drivers/lvgl/src/draw/../misc/lv_mem.h **** 
  24:Drivers/lvgl/src/draw/../misc/lv_mem.h **** /*********************
  25:Drivers/lvgl/src/draw/../misc/lv_mem.h ****  *      DEFINES
  26:Drivers/lvgl/src/draw/../misc/lv_mem.h ****  *********************/
  27:Drivers/lvgl/src/draw/../misc/lv_mem.h **** 
  28:Drivers/lvgl/src/draw/../misc/lv_mem.h **** /**********************
  29:Drivers/lvgl/src/draw/../misc/lv_mem.h ****  *      TYPEDEFS
  30:Drivers/lvgl/src/draw/../misc/lv_mem.h ****  **********************/
  31:Drivers/lvgl/src/draw/../misc/lv_mem.h **** 
  32:Drivers/lvgl/src/draw/../misc/lv_mem.h **** /**
  33:Drivers/lvgl/src/draw/../misc/lv_mem.h ****  * Heap information structure.
  34:Drivers/lvgl/src/draw/../misc/lv_mem.h ****  */
  35:Drivers/lvgl/src/draw/../misc/lv_mem.h **** typedef struct {
  36:Drivers/lvgl/src/draw/../misc/lv_mem.h ****     uint32_t total_size; /**< Total heap size*/
  37:Drivers/lvgl/src/draw/../misc/lv_mem.h ****     uint32_t free_cnt;
  38:Drivers/lvgl/src/draw/../misc/lv_mem.h ****     uint32_t free_size; /**< Size of available memory*/
  39:Drivers/lvgl/src/draw/../misc/lv_mem.h ****     uint32_t free_biggest_size;
ARM GAS  /var/folders/0z/tsy30v1j4xl4_7kw94k978ww0000gn/T//cc1SwR9x.s 			page 20


  40:Drivers/lvgl/src/draw/../misc/lv_mem.h ****     uint32_t used_cnt;
  41:Drivers/lvgl/src/draw/../misc/lv_mem.h ****     uint32_t max_used; /**< Max size of Heap memory used*/
  42:Drivers/lvgl/src/draw/../misc/lv_mem.h ****     uint8_t used_pct; /**< Percentage used*/
  43:Drivers/lvgl/src/draw/../misc/lv_mem.h ****     uint8_t frag_pct; /**< Amount of fragmentation*/
  44:Drivers/lvgl/src/draw/../misc/lv_mem.h **** } lv_mem_monitor_t;
  45:Drivers/lvgl/src/draw/../misc/lv_mem.h **** 
  46:Drivers/lvgl/src/draw/../misc/lv_mem.h **** typedef struct {
  47:Drivers/lvgl/src/draw/../misc/lv_mem.h ****     void * p;
  48:Drivers/lvgl/src/draw/../misc/lv_mem.h ****     uint16_t size;
  49:Drivers/lvgl/src/draw/../misc/lv_mem.h ****     uint8_t used : 1;
  50:Drivers/lvgl/src/draw/../misc/lv_mem.h **** } lv_mem_buf_t;
  51:Drivers/lvgl/src/draw/../misc/lv_mem.h **** 
  52:Drivers/lvgl/src/draw/../misc/lv_mem.h **** typedef lv_mem_buf_t lv_mem_buf_arr_t[LV_MEM_BUF_MAX_NUM];
  53:Drivers/lvgl/src/draw/../misc/lv_mem.h **** 
  54:Drivers/lvgl/src/draw/../misc/lv_mem.h **** /**********************
  55:Drivers/lvgl/src/draw/../misc/lv_mem.h ****  * GLOBAL PROTOTYPES
  56:Drivers/lvgl/src/draw/../misc/lv_mem.h ****  **********************/
  57:Drivers/lvgl/src/draw/../misc/lv_mem.h **** 
  58:Drivers/lvgl/src/draw/../misc/lv_mem.h **** /**
  59:Drivers/lvgl/src/draw/../misc/lv_mem.h ****  * Initialize the dyn_mem module (work memory and other variables)
  60:Drivers/lvgl/src/draw/../misc/lv_mem.h ****  */
  61:Drivers/lvgl/src/draw/../misc/lv_mem.h **** void lv_mem_init(void);
  62:Drivers/lvgl/src/draw/../misc/lv_mem.h **** 
  63:Drivers/lvgl/src/draw/../misc/lv_mem.h **** /**
  64:Drivers/lvgl/src/draw/../misc/lv_mem.h ****  * Clean up the memory buffer which frees all the allocated memories.
  65:Drivers/lvgl/src/draw/../misc/lv_mem.h ****  * @note It work only if `LV_MEM_CUSTOM == 0`
  66:Drivers/lvgl/src/draw/../misc/lv_mem.h ****  */
  67:Drivers/lvgl/src/draw/../misc/lv_mem.h **** void lv_mem_deinit(void);
  68:Drivers/lvgl/src/draw/../misc/lv_mem.h **** 
  69:Drivers/lvgl/src/draw/../misc/lv_mem.h **** /**
  70:Drivers/lvgl/src/draw/../misc/lv_mem.h ****  * Allocate a memory dynamically
  71:Drivers/lvgl/src/draw/../misc/lv_mem.h ****  * @param size size of the memory to allocate in bytes
  72:Drivers/lvgl/src/draw/../misc/lv_mem.h ****  * @return pointer to the allocated memory
  73:Drivers/lvgl/src/draw/../misc/lv_mem.h ****  */
  74:Drivers/lvgl/src/draw/../misc/lv_mem.h **** void * lv_mem_alloc(size_t size);
  75:Drivers/lvgl/src/draw/../misc/lv_mem.h **** 
  76:Drivers/lvgl/src/draw/../misc/lv_mem.h **** /**
  77:Drivers/lvgl/src/draw/../misc/lv_mem.h ****  * Free an allocated data
  78:Drivers/lvgl/src/draw/../misc/lv_mem.h ****  * @param data pointer to an allocated memory
  79:Drivers/lvgl/src/draw/../misc/lv_mem.h ****  */
  80:Drivers/lvgl/src/draw/../misc/lv_mem.h **** void lv_mem_free(void * data);
  81:Drivers/lvgl/src/draw/../misc/lv_mem.h **** 
  82:Drivers/lvgl/src/draw/../misc/lv_mem.h **** /**
  83:Drivers/lvgl/src/draw/../misc/lv_mem.h ****  * Reallocate a memory with a new size. The old content will be kept.
  84:Drivers/lvgl/src/draw/../misc/lv_mem.h ****  * @param data pointer to an allocated memory.
  85:Drivers/lvgl/src/draw/../misc/lv_mem.h ****  * Its content will be copied to the new memory block and freed
  86:Drivers/lvgl/src/draw/../misc/lv_mem.h ****  * @param new_size the desired new size in byte
  87:Drivers/lvgl/src/draw/../misc/lv_mem.h ****  * @return pointer to the new memory, NULL on failure
  88:Drivers/lvgl/src/draw/../misc/lv_mem.h ****  */
  89:Drivers/lvgl/src/draw/../misc/lv_mem.h **** void * lv_mem_realloc(void * data_p, size_t new_size);
  90:Drivers/lvgl/src/draw/../misc/lv_mem.h **** 
  91:Drivers/lvgl/src/draw/../misc/lv_mem.h **** /**
  92:Drivers/lvgl/src/draw/../misc/lv_mem.h ****  *
  93:Drivers/lvgl/src/draw/../misc/lv_mem.h ****  * @return
  94:Drivers/lvgl/src/draw/../misc/lv_mem.h ****  */
  95:Drivers/lvgl/src/draw/../misc/lv_mem.h **** lv_res_t lv_mem_test(void);
  96:Drivers/lvgl/src/draw/../misc/lv_mem.h **** 
ARM GAS  /var/folders/0z/tsy30v1j4xl4_7kw94k978ww0000gn/T//cc1SwR9x.s 			page 21


  97:Drivers/lvgl/src/draw/../misc/lv_mem.h **** /**
  98:Drivers/lvgl/src/draw/../misc/lv_mem.h ****  * Give information about the work memory of dynamic allocation
  99:Drivers/lvgl/src/draw/../misc/lv_mem.h ****  * @param mon_p pointer to a lv_mem_monitor_t variable,
 100:Drivers/lvgl/src/draw/../misc/lv_mem.h ****  *              the result of the analysis will be stored here
 101:Drivers/lvgl/src/draw/../misc/lv_mem.h ****  */
 102:Drivers/lvgl/src/draw/../misc/lv_mem.h **** void lv_mem_monitor(lv_mem_monitor_t * mon_p);
 103:Drivers/lvgl/src/draw/../misc/lv_mem.h **** 
 104:Drivers/lvgl/src/draw/../misc/lv_mem.h **** 
 105:Drivers/lvgl/src/draw/../misc/lv_mem.h **** /**
 106:Drivers/lvgl/src/draw/../misc/lv_mem.h ****  * Get a temporal buffer with the given size.
 107:Drivers/lvgl/src/draw/../misc/lv_mem.h ****  * @param size the required size
 108:Drivers/lvgl/src/draw/../misc/lv_mem.h ****  */
 109:Drivers/lvgl/src/draw/../misc/lv_mem.h **** void * lv_mem_buf_get(uint32_t size);
 110:Drivers/lvgl/src/draw/../misc/lv_mem.h **** 
 111:Drivers/lvgl/src/draw/../misc/lv_mem.h **** /**
 112:Drivers/lvgl/src/draw/../misc/lv_mem.h ****  * Release a memory buffer
 113:Drivers/lvgl/src/draw/../misc/lv_mem.h ****  * @param p buffer to release
 114:Drivers/lvgl/src/draw/../misc/lv_mem.h ****  */
 115:Drivers/lvgl/src/draw/../misc/lv_mem.h **** void lv_mem_buf_release(void * p);
 116:Drivers/lvgl/src/draw/../misc/lv_mem.h **** 
 117:Drivers/lvgl/src/draw/../misc/lv_mem.h **** /**
 118:Drivers/lvgl/src/draw/../misc/lv_mem.h ****  * Free all memory buffers
 119:Drivers/lvgl/src/draw/../misc/lv_mem.h ****  */
 120:Drivers/lvgl/src/draw/../misc/lv_mem.h **** void lv_mem_buf_free_all(void);
 121:Drivers/lvgl/src/draw/../misc/lv_mem.h **** 
 122:Drivers/lvgl/src/draw/../misc/lv_mem.h **** //! @cond Doxygen_Suppress
 123:Drivers/lvgl/src/draw/../misc/lv_mem.h **** 
 124:Drivers/lvgl/src/draw/../misc/lv_mem.h **** #if LV_MEMCPY_MEMSET_STD
 125:Drivers/lvgl/src/draw/../misc/lv_mem.h **** 
 126:Drivers/lvgl/src/draw/../misc/lv_mem.h **** /**
 127:Drivers/lvgl/src/draw/../misc/lv_mem.h ****  * Wrapper for the standard memcpy
 128:Drivers/lvgl/src/draw/../misc/lv_mem.h ****  * @param dst pointer to the destination buffer
 129:Drivers/lvgl/src/draw/../misc/lv_mem.h ****  * @param src pointer to the source buffer
 130:Drivers/lvgl/src/draw/../misc/lv_mem.h ****  * @param len number of byte to copy
 131:Drivers/lvgl/src/draw/../misc/lv_mem.h ****  */
 132:Drivers/lvgl/src/draw/../misc/lv_mem.h **** static inline void * lv_memcpy(void * dst, const void * src, size_t len)
 133:Drivers/lvgl/src/draw/../misc/lv_mem.h **** {
 134:Drivers/lvgl/src/draw/../misc/lv_mem.h ****     return memcpy(dst, src, len);
 135:Drivers/lvgl/src/draw/../misc/lv_mem.h **** }
 136:Drivers/lvgl/src/draw/../misc/lv_mem.h **** 
 137:Drivers/lvgl/src/draw/../misc/lv_mem.h **** /**
 138:Drivers/lvgl/src/draw/../misc/lv_mem.h ****  * Wrapper for the standard memcpy
 139:Drivers/lvgl/src/draw/../misc/lv_mem.h ****  * @param dst pointer to the destination buffer
 140:Drivers/lvgl/src/draw/../misc/lv_mem.h ****  * @param src pointer to the source buffer
 141:Drivers/lvgl/src/draw/../misc/lv_mem.h ****  * @param len number of byte to copy
 142:Drivers/lvgl/src/draw/../misc/lv_mem.h ****  */
 143:Drivers/lvgl/src/draw/../misc/lv_mem.h **** static inline void * lv_memcpy_small(void * dst, const void * src, size_t len)
 144:Drivers/lvgl/src/draw/../misc/lv_mem.h **** {
 145:Drivers/lvgl/src/draw/../misc/lv_mem.h ****     return memcpy(dst, src, len);
 146:Drivers/lvgl/src/draw/../misc/lv_mem.h **** }
 147:Drivers/lvgl/src/draw/../misc/lv_mem.h **** 
 148:Drivers/lvgl/src/draw/../misc/lv_mem.h **** /**
 149:Drivers/lvgl/src/draw/../misc/lv_mem.h ****  * Wrapper for the standard memset
 150:Drivers/lvgl/src/draw/../misc/lv_mem.h ****  * @param dst pointer to the destination buffer
 151:Drivers/lvgl/src/draw/../misc/lv_mem.h ****  * @param v value to set [0..255]
 152:Drivers/lvgl/src/draw/../misc/lv_mem.h ****  * @param len number of byte to set
 153:Drivers/lvgl/src/draw/../misc/lv_mem.h ****  */
ARM GAS  /var/folders/0z/tsy30v1j4xl4_7kw94k978ww0000gn/T//cc1SwR9x.s 			page 22


 154:Drivers/lvgl/src/draw/../misc/lv_mem.h **** static inline void lv_memset(void * dst, uint8_t v, size_t len)
 155:Drivers/lvgl/src/draw/../misc/lv_mem.h **** {
 156:Drivers/lvgl/src/draw/../misc/lv_mem.h ****     memset(dst, v, len);
 157:Drivers/lvgl/src/draw/../misc/lv_mem.h **** }
 158:Drivers/lvgl/src/draw/../misc/lv_mem.h **** 
 159:Drivers/lvgl/src/draw/../misc/lv_mem.h **** /**
 160:Drivers/lvgl/src/draw/../misc/lv_mem.h ****  * Wrapper for the standard memset with fixed 0x00 value
 161:Drivers/lvgl/src/draw/../misc/lv_mem.h ****  * @param dst pointer to the destination buffer
 162:Drivers/lvgl/src/draw/../misc/lv_mem.h ****  * @param len number of byte to set
 163:Drivers/lvgl/src/draw/../misc/lv_mem.h ****  */
 164:Drivers/lvgl/src/draw/../misc/lv_mem.h **** static inline void lv_memset_00(void * dst, size_t len)
 165:Drivers/lvgl/src/draw/../misc/lv_mem.h **** {
 166:Drivers/lvgl/src/draw/../misc/lv_mem.h ****     memset(dst, 0x00, len);
 167:Drivers/lvgl/src/draw/../misc/lv_mem.h **** }
 168:Drivers/lvgl/src/draw/../misc/lv_mem.h **** 
 169:Drivers/lvgl/src/draw/../misc/lv_mem.h **** /**
 170:Drivers/lvgl/src/draw/../misc/lv_mem.h ****  * Wrapper for the standard memset with fixed 0xFF value
 171:Drivers/lvgl/src/draw/../misc/lv_mem.h ****  * @param dst pointer to the destination buffer
 172:Drivers/lvgl/src/draw/../misc/lv_mem.h ****  * @param len number of byte to set
 173:Drivers/lvgl/src/draw/../misc/lv_mem.h ****  */
 174:Drivers/lvgl/src/draw/../misc/lv_mem.h **** static inline void lv_memset_ff(void * dst, size_t len)
 175:Drivers/lvgl/src/draw/../misc/lv_mem.h **** {
 176:Drivers/lvgl/src/draw/../misc/lv_mem.h ****     memset(dst, 0xFF, len);
 177:Drivers/lvgl/src/draw/../misc/lv_mem.h **** }
 178:Drivers/lvgl/src/draw/../misc/lv_mem.h **** 
 179:Drivers/lvgl/src/draw/../misc/lv_mem.h **** #else
 180:Drivers/lvgl/src/draw/../misc/lv_mem.h **** /**
 181:Drivers/lvgl/src/draw/../misc/lv_mem.h ****  * Same as `memcpy` but optimized for 4 byte operation.
 182:Drivers/lvgl/src/draw/../misc/lv_mem.h ****  * @param dst pointer to the destination buffer
 183:Drivers/lvgl/src/draw/../misc/lv_mem.h ****  * @param src pointer to the source buffer
 184:Drivers/lvgl/src/draw/../misc/lv_mem.h ****  * @param len number of byte to copy
 185:Drivers/lvgl/src/draw/../misc/lv_mem.h ****  */
 186:Drivers/lvgl/src/draw/../misc/lv_mem.h **** void * /* LV_ATTRIBUTE_FAST_MEM */ lv_memcpy(void * dst, const void * src, size_t len);
 187:Drivers/lvgl/src/draw/../misc/lv_mem.h **** 
 188:Drivers/lvgl/src/draw/../misc/lv_mem.h **** /**
 189:Drivers/lvgl/src/draw/../misc/lv_mem.h ****  * Same as `memcpy` but optimized to copy only a few bytes.
 190:Drivers/lvgl/src/draw/../misc/lv_mem.h ****  * @param dst pointer to the destination buffer
 191:Drivers/lvgl/src/draw/../misc/lv_mem.h ****  * @param src pointer to the source buffer
 192:Drivers/lvgl/src/draw/../misc/lv_mem.h ****  * @param len number of byte to copy
 193:Drivers/lvgl/src/draw/../misc/lv_mem.h ****  */
 194:Drivers/lvgl/src/draw/../misc/lv_mem.h **** static inline void * LV_ATTRIBUTE_FAST_MEM lv_memcpy_small(void * dst, const void * src, size_t len
 448              		.loc 2 194 44 view .LVU117
 449              	.LBB18:
 195:Drivers/lvgl/src/draw/../misc/lv_mem.h **** {
 196:Drivers/lvgl/src/draw/../misc/lv_mem.h ****     uint8_t * d8 = (uint8_t *)dst;
 450              		.loc 2 196 5 view .LVU118
 197:Drivers/lvgl/src/draw/../misc/lv_mem.h ****     const uint8_t * s8 = (const uint8_t *)src;
 451              		.loc 2 197 5 view .LVU119
 198:Drivers/lvgl/src/draw/../misc/lv_mem.h **** 
 199:Drivers/lvgl/src/draw/../misc/lv_mem.h ****     while(len) {
 452              		.loc 2 199 5 view .LVU120
 197:Drivers/lvgl/src/draw/../misc/lv_mem.h ****     const uint8_t * s8 = (const uint8_t *)src;
 453              		.loc 2 197 21 is_stmt 0 view .LVU121
 454 007a 01AA     		add	r2, sp, #4
 455              	.LVL42:
 456              		.loc 2 199 10 view .LVU122
 457 007c 0C23     		movs	r3, #12
ARM GAS  /var/folders/0z/tsy30v1j4xl4_7kw94k978ww0000gn/T//cc1SwR9x.s 			page 23


 458 007e 0EE0     		b	.L29
 459              	.LVL43:
 460              	.L63:
 461              		.loc 2 199 10 view .LVU123
 462              	.LBE18:
 463              	.LBE17:
 342:Drivers/lvgl/src/draw/lv_img_decoder.c ****             LV_ASSERT_MALLOC(dsc->user_data);
 464              		.loc 1 342 13 is_stmt 1 view .LVU124
 342:Drivers/lvgl/src/draw/lv_img_decoder.c ****             LV_ASSERT_MALLOC(dsc->user_data);
 465              		.loc 1 342 30 is_stmt 0 view .LVU125
 466 0080 1420     		movs	r0, #20
 467              	.LVL44:
 342:Drivers/lvgl/src/draw/lv_img_decoder.c ****             LV_ASSERT_MALLOC(dsc->user_data);
 468              		.loc 1 342 30 view .LVU126
 469 0082 FFF7FEFF 		bl	lv_mem_alloc
 470              	.LVL45:
 342:Drivers/lvgl/src/draw/lv_img_decoder.c ****             LV_ASSERT_MALLOC(dsc->user_data);
 471              		.loc 1 342 28 view .LVU127
 472 0086 6062     		str	r0, [r4, #36]
 343:Drivers/lvgl/src/draw/lv_img_decoder.c ****             if(dsc->user_data == NULL) {
 473              		.loc 1 343 13 is_stmt 1 view .LVU128
 343:Drivers/lvgl/src/draw/lv_img_decoder.c ****             if(dsc->user_data == NULL) {
 474              		.loc 1 343 13 view .LVU129
 475 0088 18B1     		cbz	r0, .L28
 343:Drivers/lvgl/src/draw/lv_img_decoder.c ****             if(dsc->user_data == NULL) {
 476              		.loc 1 343 13 view .LVU130
 343:Drivers/lvgl/src/draw/lv_img_decoder.c ****             if(dsc->user_data == NULL) {
 477              		.loc 1 343 45 view .LVU131
 344:Drivers/lvgl/src/draw/lv_img_decoder.c ****                 LV_LOG_ERROR("img_decoder_built_in_open: out of memory");
 478              		.loc 1 344 13 view .LVU132
 349:Drivers/lvgl/src/draw/lv_img_decoder.c ****         }
 479              		.loc 1 349 13 view .LVU133
 480 008a 1421     		movs	r1, #20
 481 008c FFF7FEFF 		bl	lv_memset_00
 482              	.LVL46:
 483 0090 F2E7     		b	.L26
 484              	.L28:
 343:Drivers/lvgl/src/draw/lv_img_decoder.c ****             if(dsc->user_data == NULL) {
 485              		.loc 1 343 13 discriminator 1 view .LVU134
 343:Drivers/lvgl/src/draw/lv_img_decoder.c ****             if(dsc->user_data == NULL) {
 486              		.loc 1 343 13 discriminator 1 view .LVU135
 343:Drivers/lvgl/src/draw/lv_img_decoder.c ****             if(dsc->user_data == NULL) {
 487              		.loc 1 343 13 discriminator 1 view .LVU136
 343:Drivers/lvgl/src/draw/lv_img_decoder.c ****             if(dsc->user_data == NULL) {
 488              		.loc 1 343 13 discriminator 1 view .LVU137
 343:Drivers/lvgl/src/draw/lv_img_decoder.c ****             if(dsc->user_data == NULL) {
 489              		.loc 1 343 13 discriminator 1 view .LVU138
 490 0092 FEE7     		b	.L28
 491              	.LVL47:
 492              	.L30:
 493              	.LBB20:
 494              	.LBB19:
 200:Drivers/lvgl/src/draw/../misc/lv_mem.h ****         *d8 = *s8;
 495              		.loc 2 200 9 view .LVU139
 496              		.loc 2 200 15 is_stmt 0 view .LVU140
 497 0094 12F8010B 		ldrb	r0, [r2], #1	@ zero_extendqisi2
 498              	.LVL48:
ARM GAS  /var/folders/0z/tsy30v1j4xl4_7kw94k978ww0000gn/T//cc1SwR9x.s 			page 24


 499              		.loc 2 200 13 view .LVU141
 500 0098 01F8010B 		strb	r0, [r1], #1
 501              	.LVL49:
 201:Drivers/lvgl/src/draw/../misc/lv_mem.h ****         d8++;
 502              		.loc 2 201 9 is_stmt 1 view .LVU142
 202:Drivers/lvgl/src/draw/../misc/lv_mem.h ****         s8++;
 503              		.loc 2 202 9 view .LVU143
 203:Drivers/lvgl/src/draw/../misc/lv_mem.h ****         len--;
 504              		.loc 2 203 9 view .LVU144
 505              		.loc 2 203 12 is_stmt 0 view .LVU145
 506 009c 013B     		subs	r3, r3, #1
 507              	.LVL50:
 508              	.L29:
 199:Drivers/lvgl/src/draw/../misc/lv_mem.h ****         *d8 = *s8;
 509              		.loc 2 199 11 is_stmt 1 view .LVU146
 510 009e 002B     		cmp	r3, #0
 511 00a0 F8D1     		bne	.L30
 199:Drivers/lvgl/src/draw/../misc/lv_mem.h ****         *d8 = *s8;
 512              		.loc 2 199 11 is_stmt 0 view .LVU147
 513 00a2 B9E7     		b	.L31
 514              	.LVL51:
 515              	.L33:
 199:Drivers/lvgl/src/draw/../misc/lv_mem.h ****         *d8 = *s8;
 516              		.loc 2 199 11 view .LVU148
 517              	.LBE19:
 518              	.LBE20:
 519              	.LBE21:
 365:Drivers/lvgl/src/draw/lv_img_decoder.c ****             /*In case of uncompressed formats the image stored in the ROM/RAM.
 520              		.loc 1 365 9 is_stmt 1 view .LVU149
 365:Drivers/lvgl/src/draw/lv_img_decoder.c ****             /*In case of uncompressed formats the image stored in the ROM/RAM.
 521              		.loc 1 365 15 is_stmt 0 view .LVU150
 522 00a4 227C     		ldrb	r2, [r4, #16]	@ zero_extendqisi2
 365:Drivers/lvgl/src/draw/lv_img_decoder.c ****             /*In case of uncompressed formats the image stored in the ROM/RAM.
 523              		.loc 1 365 11 view .LVU151
 524 00a6 1AB3     		cbz	r2, .L64
 525              	.LBB22:
 373:Drivers/lvgl/src/draw/lv_img_decoder.c ****             len *= cf == LV_IMG_CF_RGB565A8 ? 3 : 1;
 526              		.loc 1 373 13 is_stmt 1 view .LVU152
 373:Drivers/lvgl/src/draw/lv_img_decoder.c ****             len *= cf == LV_IMG_CF_RGB565A8 ? 3 : 1;
 527              		.loc 1 373 39 is_stmt 0 view .LVU153
 528 00a8 6269     		ldr	r2, [r4, #20]
 529 00aa C2F38A22 		ubfx	r2, r2, #10, #11
 373:Drivers/lvgl/src/draw/lv_img_decoder.c ****             len *= cf == LV_IMG_CF_RGB565A8 ? 3 : 1;
 530              		.loc 1 373 55 view .LVU154
 531 00ae E18A     		ldrh	r1, [r4, #22]
 532 00b0 C1F34A11 		ubfx	r1, r1, #5, #11
 373:Drivers/lvgl/src/draw/lv_img_decoder.c ****             len *= cf == LV_IMG_CF_RGB565A8 ? 3 : 1;
 533              		.loc 1 373 42 view .LVU155
 534 00b4 01FB02F2 		mul	r2, r1, r2
 535              	.LVL52:
 374:Drivers/lvgl/src/draw/lv_img_decoder.c ****             uint8_t * fs_buf = lv_mem_alloc(len);
 536              		.loc 1 374 13 is_stmt 1 view .LVU156
 374:Drivers/lvgl/src/draw/lv_img_decoder.c ****             uint8_t * fs_buf = lv_mem_alloc(len);
 537              		.loc 1 374 49 is_stmt 0 view .LVU157
 538 00b8 1428     		cmp	r0, #20
 539 00ba 1ED0     		beq	.L65
 540 00bc 0125     		movs	r5, #1
ARM GAS  /var/folders/0z/tsy30v1j4xl4_7kw94k978ww0000gn/T//cc1SwR9x.s 			page 25


 541              	.L39:
 374:Drivers/lvgl/src/draw/lv_img_decoder.c ****             uint8_t * fs_buf = lv_mem_alloc(len);
 542              		.loc 1 374 17 discriminator 4 view .LVU158
 543 00be 02FB05F5 		mul	r5, r2, r5
 544              	.LVL53:
 375:Drivers/lvgl/src/draw/lv_img_decoder.c ****             if(fs_buf == NULL) return LV_RES_INV;
 545              		.loc 1 375 13 is_stmt 1 discriminator 4 view .LVU159
 375:Drivers/lvgl/src/draw/lv_img_decoder.c ****             if(fs_buf == NULL) return LV_RES_INV;
 546              		.loc 1 375 32 is_stmt 0 discriminator 4 view .LVU160
 547 00c2 2846     		mov	r0, r5
 548 00c4 FFF7FEFF 		bl	lv_mem_alloc
 549              	.LVL54:
 376:Drivers/lvgl/src/draw/lv_img_decoder.c **** 
 550              		.loc 1 376 13 is_stmt 1 discriminator 4 view .LVU161
 376:Drivers/lvgl/src/draw/lv_img_decoder.c **** 
 551              		.loc 1 376 15 is_stmt 0 discriminator 4 view .LVU162
 552 00c8 0646     		mov	r6, r0
 553 00ca 0028     		cmp	r0, #0
 554 00cc 00F0B180 		beq	.L57
 378:Drivers/lvgl/src/draw/lv_img_decoder.c ****             lv_fs_seek(&user_data->f, 4, LV_FS_SEEK_SET); /*+4 to skip the header*/
 555              		.loc 1 378 13 is_stmt 1 view .LVU163
 378:Drivers/lvgl/src/draw/lv_img_decoder.c ****             lv_fs_seek(&user_data->f, 4, LV_FS_SEEK_SET); /*+4 to skip the header*/
 556              		.loc 1 378 46 is_stmt 0 view .LVU164
 557 00d0 676A     		ldr	r7, [r4, #36]
 558              	.LVL55:
 379:Drivers/lvgl/src/draw/lv_img_decoder.c ****             lv_fs_res_t res = lv_fs_read(&user_data->f, fs_buf, len, NULL);
 559              		.loc 1 379 13 is_stmt 1 view .LVU165
 560 00d2 0022     		movs	r2, #0
 561 00d4 0421     		movs	r1, #4
 562 00d6 3846     		mov	r0, r7
 563              	.LVL56:
 379:Drivers/lvgl/src/draw/lv_img_decoder.c ****             lv_fs_res_t res = lv_fs_read(&user_data->f, fs_buf, len, NULL);
 564              		.loc 1 379 13 is_stmt 0 view .LVU166
 565 00d8 FFF7FEFF 		bl	lv_fs_seek
 566              	.LVL57:
 380:Drivers/lvgl/src/draw/lv_img_decoder.c ****             if(res != LV_FS_RES_OK) {
 567              		.loc 1 380 13 is_stmt 1 view .LVU167
 380:Drivers/lvgl/src/draw/lv_img_decoder.c ****             if(res != LV_FS_RES_OK) {
 568              		.loc 1 380 31 is_stmt 0 view .LVU168
 569 00dc 0023     		movs	r3, #0
 570 00de 2A46     		mov	r2, r5
 571 00e0 3146     		mov	r1, r6
 572 00e2 3846     		mov	r0, r7
 573 00e4 FFF7FEFF 		bl	lv_fs_read
 574              	.LVL58:
 381:Drivers/lvgl/src/draw/lv_img_decoder.c ****                 lv_mem_free(fs_buf);
 575              		.loc 1 381 13 is_stmt 1 view .LVU169
 381:Drivers/lvgl/src/draw/lv_img_decoder.c ****                 lv_mem_free(fs_buf);
 576              		.loc 1 381 15 is_stmt 0 view .LVU170
 577 00e8 48B9     		cbnz	r0, .L66
 385:Drivers/lvgl/src/draw/lv_img_decoder.c ****             return LV_RES_OK;
 578              		.loc 1 385 13 is_stmt 1 view .LVU171
 385:Drivers/lvgl/src/draw/lv_img_decoder.c ****             return LV_RES_OK;
 579              		.loc 1 385 27 is_stmt 0 view .LVU172
 580 00ea A661     		str	r6, [r4, #24]
 386:Drivers/lvgl/src/draw/lv_img_decoder.c ****         }
 581              		.loc 1 386 13 is_stmt 1 view .LVU173
ARM GAS  /var/folders/0z/tsy30v1j4xl4_7kw94k978ww0000gn/T//cc1SwR9x.s 			page 26


 386:Drivers/lvgl/src/draw/lv_img_decoder.c ****         }
 582              		.loc 1 386 20 is_stmt 0 view .LVU174
 583 00ec 0120     		movs	r0, #1
 584              	.LVL59:
 386:Drivers/lvgl/src/draw/lv_img_decoder.c ****         }
 585              		.loc 1 386 20 view .LVU175
 586 00ee B7E7     		b	.L32
 587              	.LVL60:
 588              	.L64:
 386:Drivers/lvgl/src/draw/lv_img_decoder.c ****         }
 589              		.loc 1 386 20 view .LVU176
 590              	.LBE22:
 368:Drivers/lvgl/src/draw/lv_img_decoder.c ****             return LV_RES_OK;
 591              		.loc 1 368 13 is_stmt 1 view .LVU177
 368:Drivers/lvgl/src/draw/lv_img_decoder.c ****             return LV_RES_OK;
 592              		.loc 1 368 49 is_stmt 0 view .LVU178
 593 00f0 6368     		ldr	r3, [r4, #4]
 594              	.LVL61:
 368:Drivers/lvgl/src/draw/lv_img_decoder.c ****             return LV_RES_OK;
 595              		.loc 1 368 55 view .LVU179
 596 00f2 9B68     		ldr	r3, [r3, #8]
 368:Drivers/lvgl/src/draw/lv_img_decoder.c ****             return LV_RES_OK;
 597              		.loc 1 368 27 view .LVU180
 598 00f4 A361     		str	r3, [r4, #24]
 369:Drivers/lvgl/src/draw/lv_img_decoder.c ****         }
 599              		.loc 1 369 13 is_stmt 1 view .LVU181
 369:Drivers/lvgl/src/draw/lv_img_decoder.c ****         }
 600              		.loc 1 369 20 is_stmt 0 view .LVU182
 601 00f6 0120     		movs	r0, #1
 602 00f8 B2E7     		b	.L32
 603              	.LVL62:
 604              	.L65:
 605              	.LBB23:
 374:Drivers/lvgl/src/draw/lv_img_decoder.c ****             uint8_t * fs_buf = lv_mem_alloc(len);
 606              		.loc 1 374 49 view .LVU183
 607 00fa 0325     		movs	r5, #3
 608 00fc DFE7     		b	.L39
 609              	.LVL63:
 610              	.L66:
 382:Drivers/lvgl/src/draw/lv_img_decoder.c ****                 return LV_RES_INV;
 611              		.loc 1 382 17 is_stmt 1 view .LVU184
 612 00fe 3046     		mov	r0, r6
 613              	.LVL64:
 382:Drivers/lvgl/src/draw/lv_img_decoder.c ****                 return LV_RES_INV;
 614              		.loc 1 382 17 is_stmt 0 view .LVU185
 615 0100 FFF7FEFF 		bl	lv_mem_free
 616              	.LVL65:
 383:Drivers/lvgl/src/draw/lv_img_decoder.c ****             }
 617              		.loc 1 383 17 is_stmt 1 view .LVU186
 383:Drivers/lvgl/src/draw/lv_img_decoder.c ****             }
 618              		.loc 1 383 24 is_stmt 0 view .LVU187
 619 0104 0020     		movs	r0, #0
 620 0106 ABE7     		b	.L32
 621              	.LVL66:
 622              	.L37:
 383:Drivers/lvgl/src/draw/lv_img_decoder.c ****             }
 623              		.loc 1 383 24 view .LVU188
ARM GAS  /var/folders/0z/tsy30v1j4xl4_7kw94k978ww0000gn/T//cc1SwR9x.s 			page 27


 624              	.LBE23:
 392:Drivers/lvgl/src/draw/lv_img_decoder.c ****             /*In case of uncompressed formats the image stored in the ROM/RAM.
 625              		.loc 1 392 9 is_stmt 1 view .LVU189
 392:Drivers/lvgl/src/draw/lv_img_decoder.c ****             /*In case of uncompressed formats the image stored in the ROM/RAM.
 626              		.loc 1 392 15 is_stmt 0 view .LVU190
 627 0108 237C     		ldrb	r3, [r4, #16]	@ zero_extendqisi2
 628              	.LVL67:
 392:Drivers/lvgl/src/draw/lv_img_decoder.c ****             /*In case of uncompressed formats the image stored in the ROM/RAM.
 629              		.loc 1 392 11 view .LVU191
 630 010a 002B     		cmp	r3, #0
 631 010c 40F09380 		bne	.L58
 395:Drivers/lvgl/src/draw/lv_img_decoder.c ****             return LV_RES_OK;
 632              		.loc 1 395 13 is_stmt 1 view .LVU192
 395:Drivers/lvgl/src/draw/lv_img_decoder.c ****             return LV_RES_OK;
 633              		.loc 1 395 49 is_stmt 0 view .LVU193
 634 0110 6368     		ldr	r3, [r4, #4]
 395:Drivers/lvgl/src/draw/lv_img_decoder.c ****             return LV_RES_OK;
 635              		.loc 1 395 55 view .LVU194
 636 0112 9B68     		ldr	r3, [r3, #8]
 395:Drivers/lvgl/src/draw/lv_img_decoder.c ****             return LV_RES_OK;
 637              		.loc 1 395 27 view .LVU195
 638 0114 A361     		str	r3, [r4, #24]
 396:Drivers/lvgl/src/draw/lv_img_decoder.c ****         }
 639              		.loc 1 396 13 is_stmt 1 view .LVU196
 396:Drivers/lvgl/src/draw/lv_img_decoder.c ****         }
 640              		.loc 1 396 20 is_stmt 0 view .LVU197
 641 0116 0120     		movs	r0, #1
 642 0118 A2E7     		b	.L32
 643              	.LVL68:
 644              	.L36:
 645              	.LBB24:
 406:Drivers/lvgl/src/draw/lv_img_decoder.c ****         uint32_t palette_size = 1 << px_size;
 646              		.loc 1 406 9 is_stmt 1 view .LVU198
 406:Drivers/lvgl/src/draw/lv_img_decoder.c ****         uint32_t palette_size = 1 << px_size;
 647              		.loc 1 406 33 is_stmt 0 view .LVU199
 648 011a FFF7FEFF 		bl	lv_img_cf_get_px_size
 649              	.LVL69:
 406:Drivers/lvgl/src/draw/lv_img_decoder.c ****         uint32_t palette_size = 1 << px_size;
 650              		.loc 1 406 33 view .LVU200
 651 011e 8246     		mov	r10, r0
 652              	.LVL70:
 407:Drivers/lvgl/src/draw/lv_img_decoder.c **** 
 653              		.loc 1 407 9 is_stmt 1 view .LVU201
 407:Drivers/lvgl/src/draw/lv_img_decoder.c **** 
 654              		.loc 1 407 35 is_stmt 0 view .LVU202
 655 0120 4FF00109 		mov	r9, #1
 656 0124 09FA00F9 		lsl	r9, r9, r0
 657              	.LVL71:
 410:Drivers/lvgl/src/draw/lv_img_decoder.c ****             dsc->user_data = lv_mem_alloc(sizeof(lv_img_decoder_built_in_data_t));
 658              		.loc 1 410 9 is_stmt 1 view .LVU203
 410:Drivers/lvgl/src/draw/lv_img_decoder.c ****             dsc->user_data = lv_mem_alloc(sizeof(lv_img_decoder_built_in_data_t));
 659              		.loc 1 410 15 is_stmt 0 view .LVU204
 660 0128 636A     		ldr	r3, [r4, #36]
 410:Drivers/lvgl/src/draw/lv_img_decoder.c ****             dsc->user_data = lv_mem_alloc(sizeof(lv_img_decoder_built_in_data_t));
 661              		.loc 1 410 11 view .LVU205
 662 012a CBB1     		cbz	r3, .L67
 663              	.LVL72:
ARM GAS  /var/folders/0z/tsy30v1j4xl4_7kw94k978ww0000gn/T//cc1SwR9x.s 			page 28


 664              	.L41:
 420:Drivers/lvgl/src/draw/lv_img_decoder.c ****         user_data->palette                         = lv_mem_alloc(palette_size * sizeof(lv_color_t)
 665              		.loc 1 420 9 is_stmt 1 view .LVU206
 420:Drivers/lvgl/src/draw/lv_img_decoder.c ****         user_data->palette                         = lv_mem_alloc(palette_size * sizeof(lv_color_t)
 666              		.loc 1 420 42 is_stmt 0 view .LVU207
 667 012c D4F82480 		ldr	r8, [r4, #36]
 668              	.LVL73:
 421:Drivers/lvgl/src/draw/lv_img_decoder.c ****         LV_ASSERT_MALLOC(user_data->palette);
 669              		.loc 1 421 9 is_stmt 1 view .LVU208
 421:Drivers/lvgl/src/draw/lv_img_decoder.c ****         LV_ASSERT_MALLOC(user_data->palette);
 670              		.loc 1 421 54 is_stmt 0 view .LVU209
 671 0130 0220     		movs	r0, #2
 672 0132 00FA0AF0 		lsl	r0, r0, r10
 673 0136 FFF7FEFF 		bl	lv_mem_alloc
 674              	.LVL74:
 421:Drivers/lvgl/src/draw/lv_img_decoder.c ****         LV_ASSERT_MALLOC(user_data->palette);
 675              		.loc 1 421 52 view .LVU210
 676 013a C8F80C00 		str	r0, [r8, #12]
 422:Drivers/lvgl/src/draw/lv_img_decoder.c ****         user_data->opa                             = lv_mem_alloc(palette_size * sizeof(lv_opa_t));
 677              		.loc 1 422 9 is_stmt 1 view .LVU211
 422:Drivers/lvgl/src/draw/lv_img_decoder.c ****         user_data->opa                             = lv_mem_alloc(palette_size * sizeof(lv_opa_t));
 678              		.loc 1 422 9 view .LVU212
 679 013e C8B1     		cbz	r0, .L45
 422:Drivers/lvgl/src/draw/lv_img_decoder.c ****         user_data->opa                             = lv_mem_alloc(palette_size * sizeof(lv_opa_t));
 680              		.loc 1 422 9 discriminator 2 view .LVU213
 422:Drivers/lvgl/src/draw/lv_img_decoder.c ****         user_data->opa                             = lv_mem_alloc(palette_size * sizeof(lv_opa_t));
 681              		.loc 1 422 45 discriminator 2 view .LVU214
 423:Drivers/lvgl/src/draw/lv_img_decoder.c ****         LV_ASSERT_MALLOC(user_data->opa);
 682              		.loc 1 423 9 discriminator 2 view .LVU215
 423:Drivers/lvgl/src/draw/lv_img_decoder.c ****         LV_ASSERT_MALLOC(user_data->opa);
 683              		.loc 1 423 54 is_stmt 0 discriminator 2 view .LVU216
 684 0140 4846     		mov	r0, r9
 685 0142 FFF7FEFF 		bl	lv_mem_alloc
 686              	.LVL75:
 423:Drivers/lvgl/src/draw/lv_img_decoder.c ****         LV_ASSERT_MALLOC(user_data->opa);
 687              		.loc 1 423 52 discriminator 2 view .LVU217
 688 0146 C8F81000 		str	r0, [r8, #16]
 424:Drivers/lvgl/src/draw/lv_img_decoder.c ****         if(user_data->palette == NULL || user_data->opa == NULL) {
 689              		.loc 1 424 9 is_stmt 1 discriminator 2 view .LVU218
 424:Drivers/lvgl/src/draw/lv_img_decoder.c ****         if(user_data->palette == NULL || user_data->opa == NULL) {
 690              		.loc 1 424 9 discriminator 2 view .LVU219
 691 014a A0B1     		cbz	r0, .L47
 424:Drivers/lvgl/src/draw/lv_img_decoder.c ****         if(user_data->palette == NULL || user_data->opa == NULL) {
 692              		.loc 1 424 9 discriminator 2 view .LVU220
 424:Drivers/lvgl/src/draw/lv_img_decoder.c ****         if(user_data->palette == NULL || user_data->opa == NULL) {
 693              		.loc 1 424 41 discriminator 2 view .LVU221
 425:Drivers/lvgl/src/draw/lv_img_decoder.c ****             LV_LOG_ERROR("img_decoder_built_in_open: out of memory");
 694              		.loc 1 425 9 discriminator 2 view .LVU222
 425:Drivers/lvgl/src/draw/lv_img_decoder.c ****             LV_LOG_ERROR("img_decoder_built_in_open: out of memory");
 695              		.loc 1 425 21 is_stmt 0 discriminator 2 view .LVU223
 696 014c D8F80C30 		ldr	r3, [r8, #12]
 425:Drivers/lvgl/src/draw/lv_img_decoder.c ****             LV_LOG_ERROR("img_decoder_built_in_open: out of memory");
 697              		.loc 1 425 11 discriminator 2 view .LVU224
 698 0150 93B1     		cbz	r3, .L68
 431:Drivers/lvgl/src/draw/lv_img_decoder.c ****             /*Read the palette from file*/
 699              		.loc 1 431 9 is_stmt 1 view .LVU225
 431:Drivers/lvgl/src/draw/lv_img_decoder.c ****             /*Read the palette from file*/
ARM GAS  /var/folders/0z/tsy30v1j4xl4_7kw94k978ww0000gn/T//cc1SwR9x.s 			page 29


 700              		.loc 1 431 15 is_stmt 0 view .LVU226
 701 0152 237C     		ldrb	r3, [r4, #16]	@ zero_extendqisi2
 431:Drivers/lvgl/src/draw/lv_img_decoder.c ****             /*Read the palette from file*/
 702              		.loc 1 431 11 view .LVU227
 703 0154 012B     		cmp	r3, #1
 704 0156 15D0     		beq	.L69
 705              	.LBB25:
 444:Drivers/lvgl/src/draw/lv_img_decoder.c **** 
 706              		.loc 1 444 13 is_stmt 1 view .LVU228
 444:Drivers/lvgl/src/draw/lv_img_decoder.c **** 
 707              		.loc 1 444 76 is_stmt 0 view .LVU229
 708 0158 6368     		ldr	r3, [r4, #4]
 444:Drivers/lvgl/src/draw/lv_img_decoder.c **** 
 709              		.loc 1 444 28 view .LVU230
 710 015a 9F68     		ldr	r7, [r3, #8]
 711              	.LVL76:
 446:Drivers/lvgl/src/draw/lv_img_decoder.c ****             for(i = 0; i < palette_size; i++) {
 712              		.loc 1 446 13 is_stmt 1 view .LVU231
 447:Drivers/lvgl/src/draw/lv_img_decoder.c ****                 user_data->palette[i] = lv_color_make(palette_p[i].ch.red, palette_p[i].ch.green, p
 713              		.loc 1 447 13 view .LVU232
 447:Drivers/lvgl/src/draw/lv_img_decoder.c ****                 user_data->palette[i] = lv_color_make(palette_p[i].ch.red, palette_p[i].ch.green, p
 714              		.loc 1 447 19 is_stmt 0 view .LVU233
 715 015c 0023     		movs	r3, #0
 447:Drivers/lvgl/src/draw/lv_img_decoder.c ****                 user_data->palette[i] = lv_color_make(palette_p[i].ch.red, palette_p[i].ch.green, p
 716              		.loc 1 447 13 view .LVU234
 717 015e 5CE0     		b	.L53
 718              	.LVL77:
 719              	.L67:
 447:Drivers/lvgl/src/draw/lv_img_decoder.c ****                 user_data->palette[i] = lv_color_make(palette_p[i].ch.red, palette_p[i].ch.green, p
 720              		.loc 1 447 13 view .LVU235
 721              	.LBE25:
 411:Drivers/lvgl/src/draw/lv_img_decoder.c ****             LV_ASSERT_MALLOC(dsc->user_data);
 722              		.loc 1 411 13 is_stmt 1 view .LVU236
 411:Drivers/lvgl/src/draw/lv_img_decoder.c ****             LV_ASSERT_MALLOC(dsc->user_data);
 723              		.loc 1 411 30 is_stmt 0 view .LVU237
 724 0160 1420     		movs	r0, #20
 725              	.LVL78:
 411:Drivers/lvgl/src/draw/lv_img_decoder.c ****             LV_ASSERT_MALLOC(dsc->user_data);
 726              		.loc 1 411 30 view .LVU238
 727 0162 FFF7FEFF 		bl	lv_mem_alloc
 728              	.LVL79:
 411:Drivers/lvgl/src/draw/lv_img_decoder.c ****             LV_ASSERT_MALLOC(dsc->user_data);
 729              		.loc 1 411 28 view .LVU239
 730 0166 6062     		str	r0, [r4, #36]
 412:Drivers/lvgl/src/draw/lv_img_decoder.c ****             if(dsc->user_data == NULL) {
 731              		.loc 1 412 13 is_stmt 1 view .LVU240
 412:Drivers/lvgl/src/draw/lv_img_decoder.c ****             if(dsc->user_data == NULL) {
 732              		.loc 1 412 13 view .LVU241
 733 0168 18B1     		cbz	r0, .L43
 412:Drivers/lvgl/src/draw/lv_img_decoder.c ****             if(dsc->user_data == NULL) {
 734              		.loc 1 412 13 view .LVU242
 412:Drivers/lvgl/src/draw/lv_img_decoder.c ****             if(dsc->user_data == NULL) {
 735              		.loc 1 412 45 view .LVU243
 413:Drivers/lvgl/src/draw/lv_img_decoder.c ****                 LV_LOG_ERROR("img_decoder_built_in_open: out of memory");
 736              		.loc 1 413 13 view .LVU244
 417:Drivers/lvgl/src/draw/lv_img_decoder.c ****         }
 737              		.loc 1 417 13 view .LVU245
ARM GAS  /var/folders/0z/tsy30v1j4xl4_7kw94k978ww0000gn/T//cc1SwR9x.s 			page 30


 738 016a 1421     		movs	r1, #20
 739 016c FFF7FEFF 		bl	lv_memset_00
 740              	.LVL80:
 741 0170 DCE7     		b	.L41
 742              	.L43:
 412:Drivers/lvgl/src/draw/lv_img_decoder.c ****             if(dsc->user_data == NULL) {
 743              		.loc 1 412 13 discriminator 3 view .LVU246
 412:Drivers/lvgl/src/draw/lv_img_decoder.c ****             if(dsc->user_data == NULL) {
 744              		.loc 1 412 13 discriminator 3 view .LVU247
 412:Drivers/lvgl/src/draw/lv_img_decoder.c ****             if(dsc->user_data == NULL) {
 745              		.loc 1 412 13 discriminator 3 view .LVU248
 412:Drivers/lvgl/src/draw/lv_img_decoder.c ****             if(dsc->user_data == NULL) {
 746              		.loc 1 412 13 discriminator 3 view .LVU249
 412:Drivers/lvgl/src/draw/lv_img_decoder.c ****             if(dsc->user_data == NULL) {
 747              		.loc 1 412 13 discriminator 3 view .LVU250
 748 0172 FEE7     		b	.L43
 749              	.LVL81:
 750              	.L45:
 422:Drivers/lvgl/src/draw/lv_img_decoder.c ****         user_data->opa                             = lv_mem_alloc(palette_size * sizeof(lv_opa_t));
 751              		.loc 1 422 9 discriminator 4 view .LVU251
 422:Drivers/lvgl/src/draw/lv_img_decoder.c ****         user_data->opa                             = lv_mem_alloc(palette_size * sizeof(lv_opa_t));
 752              		.loc 1 422 9 discriminator 4 view .LVU252
 422:Drivers/lvgl/src/draw/lv_img_decoder.c ****         user_data->opa                             = lv_mem_alloc(palette_size * sizeof(lv_opa_t));
 753              		.loc 1 422 9 discriminator 4 view .LVU253
 422:Drivers/lvgl/src/draw/lv_img_decoder.c ****         user_data->opa                             = lv_mem_alloc(palette_size * sizeof(lv_opa_t));
 754              		.loc 1 422 9 discriminator 4 view .LVU254
 422:Drivers/lvgl/src/draw/lv_img_decoder.c ****         user_data->opa                             = lv_mem_alloc(palette_size * sizeof(lv_opa_t));
 755              		.loc 1 422 9 discriminator 4 view .LVU255
 756 0174 FEE7     		b	.L45
 757              	.L47:
 424:Drivers/lvgl/src/draw/lv_img_decoder.c ****         if(user_data->palette == NULL || user_data->opa == NULL) {
 758              		.loc 1 424 9 discriminator 5 view .LVU256
 424:Drivers/lvgl/src/draw/lv_img_decoder.c ****         if(user_data->palette == NULL || user_data->opa == NULL) {
 759              		.loc 1 424 9 discriminator 5 view .LVU257
 424:Drivers/lvgl/src/draw/lv_img_decoder.c ****         if(user_data->palette == NULL || user_data->opa == NULL) {
 760              		.loc 1 424 9 discriminator 5 view .LVU258
 424:Drivers/lvgl/src/draw/lv_img_decoder.c ****         if(user_data->palette == NULL || user_data->opa == NULL) {
 761              		.loc 1 424 9 discriminator 5 view .LVU259
 424:Drivers/lvgl/src/draw/lv_img_decoder.c ****         if(user_data->palette == NULL || user_data->opa == NULL) {
 762              		.loc 1 424 9 discriminator 5 view .LVU260
 763 0176 FEE7     		b	.L47
 764              	.L68:
 426:Drivers/lvgl/src/draw/lv_img_decoder.c ****             lv_img_decoder_built_in_close(decoder, dsc);
 765              		.loc 1 426 13 view .LVU261
 426:Drivers/lvgl/src/draw/lv_img_decoder.c ****             lv_img_decoder_built_in_close(decoder, dsc);
 766              		.loc 1 426 13 view .LVU262
 426:Drivers/lvgl/src/draw/lv_img_decoder.c ****             lv_img_decoder_built_in_close(decoder, dsc);
 767              		.loc 1 426 13 view .LVU263
 427:Drivers/lvgl/src/draw/lv_img_decoder.c ****             return LV_RES_INV;
 768              		.loc 1 427 13 view .LVU264
 769 0178 2146     		mov	r1, r4
 770 017a 3846     		mov	r0, r7
 771 017c FFF7FEFF 		bl	lv_img_decoder_built_in_close
 772              	.LVL82:
 428:Drivers/lvgl/src/draw/lv_img_decoder.c ****         }
 773              		.loc 1 428 13 view .LVU265
 428:Drivers/lvgl/src/draw/lv_img_decoder.c ****         }
ARM GAS  /var/folders/0z/tsy30v1j4xl4_7kw94k978ww0000gn/T//cc1SwR9x.s 			page 31


 774              		.loc 1 428 20 is_stmt 0 view .LVU266
 775 0180 0020     		movs	r0, #0
 776 0182 6DE7     		b	.L32
 777              	.L69:
 778              	.LBB28:
 433:Drivers/lvgl/src/draw/lv_img_decoder.c ****             lv_color32_t cur_color;
 779              		.loc 1 433 13 is_stmt 1 view .LVU267
 780 0184 0022     		movs	r2, #0
 781 0186 0421     		movs	r1, #4
 782 0188 4046     		mov	r0, r8
 783 018a FFF7FEFF 		bl	lv_fs_seek
 784              	.LVL83:
 434:Drivers/lvgl/src/draw/lv_img_decoder.c ****             uint32_t i;
 785              		.loc 1 434 13 view .LVU268
 435:Drivers/lvgl/src/draw/lv_img_decoder.c ****             for(i = 0; i < palette_size; i++) {
 786              		.loc 1 435 13 view .LVU269
 436:Drivers/lvgl/src/draw/lv_img_decoder.c ****                 lv_fs_read(&user_data->f, &cur_color, sizeof(lv_color32_t), NULL);
 787              		.loc 1 436 13 view .LVU270
 436:Drivers/lvgl/src/draw/lv_img_decoder.c ****                 lv_fs_read(&user_data->f, &cur_color, sizeof(lv_color32_t), NULL);
 788              		.loc 1 436 19 is_stmt 0 view .LVU271
 789 018e 0024     		movs	r4, #0
 790              	.LVL84:
 436:Drivers/lvgl/src/draw/lv_img_decoder.c ****                 lv_fs_read(&user_data->f, &cur_color, sizeof(lv_color32_t), NULL);
 791              		.loc 1 436 13 view .LVU272
 792 0190 23E0     		b	.L50
 793              	.LVL85:
 794              	.L51:
 437:Drivers/lvgl/src/draw/lv_img_decoder.c ****                 user_data->palette[i] = lv_color_make(cur_color.ch.red, cur_color.ch.green, cur_col
 795              		.loc 1 437 17 is_stmt 1 discriminator 3 view .LVU273
 796 0192 0023     		movs	r3, #0
 797 0194 0422     		movs	r2, #4
 798 0196 0DEB0201 		add	r1, sp, r2
 799 019a 4046     		mov	r0, r8
 800 019c FFF7FEFF 		bl	lv_fs_read
 801              	.LVL86:
 438:Drivers/lvgl/src/draw/lv_img_decoder.c ****                 user_data->opa[i]     = cur_color.ch.alpha;
 802              		.loc 1 438 17 discriminator 3 view .LVU274
 438:Drivers/lvgl/src/draw/lv_img_decoder.c ****                 user_data->opa[i]     = cur_color.ch.alpha;
 803              		.loc 1 438 41 is_stmt 0 discriminator 3 view .LVU275
 804 01a0 9DF80600 		ldrb	r0, [sp, #6]	@ zero_extendqisi2
 805 01a4 9DF80530 		ldrb	r3, [sp, #5]	@ zero_extendqisi2
 806 01a8 9DF80420 		ldrb	r2, [sp, #4]	@ zero_extendqisi2
 438:Drivers/lvgl/src/draw/lv_img_decoder.c ****                 user_data->opa[i]     = cur_color.ch.alpha;
 807              		.loc 1 438 26 discriminator 3 view .LVU276
 808 01ac D8F80C10 		ldr	r1, [r8, #12]
 809              	.LVL87:
 810              	.LBB29:
 811              	.LBI29:
 812              		.file 3 "Drivers/lvgl/src/draw/../misc/lv_color.h"
   1:Drivers/lvgl/src/draw/../misc/lv_color.h **** /**
   2:Drivers/lvgl/src/draw/../misc/lv_color.h ****  * @file lv_color.h
   3:Drivers/lvgl/src/draw/../misc/lv_color.h ****  *
   4:Drivers/lvgl/src/draw/../misc/lv_color.h ****  */
   5:Drivers/lvgl/src/draw/../misc/lv_color.h **** 
   6:Drivers/lvgl/src/draw/../misc/lv_color.h **** #ifndef LV_COLOR_H
   7:Drivers/lvgl/src/draw/../misc/lv_color.h **** #define LV_COLOR_H
   8:Drivers/lvgl/src/draw/../misc/lv_color.h **** 
ARM GAS  /var/folders/0z/tsy30v1j4xl4_7kw94k978ww0000gn/T//cc1SwR9x.s 			page 32


   9:Drivers/lvgl/src/draw/../misc/lv_color.h **** #ifdef __cplusplus
  10:Drivers/lvgl/src/draw/../misc/lv_color.h **** extern "C" {
  11:Drivers/lvgl/src/draw/../misc/lv_color.h **** #endif
  12:Drivers/lvgl/src/draw/../misc/lv_color.h **** 
  13:Drivers/lvgl/src/draw/../misc/lv_color.h **** /*********************
  14:Drivers/lvgl/src/draw/../misc/lv_color.h ****  *      INCLUDES
  15:Drivers/lvgl/src/draw/../misc/lv_color.h ****  *********************/
  16:Drivers/lvgl/src/draw/../misc/lv_color.h **** #include "../lv_conf_internal.h"
  17:Drivers/lvgl/src/draw/../misc/lv_color.h **** #include "lv_assert.h"
  18:Drivers/lvgl/src/draw/../misc/lv_color.h **** #include "lv_math.h"
  19:Drivers/lvgl/src/draw/../misc/lv_color.h **** #include "lv_types.h"
  20:Drivers/lvgl/src/draw/../misc/lv_color.h **** 
  21:Drivers/lvgl/src/draw/../misc/lv_color.h **** /*Error checking*/
  22:Drivers/lvgl/src/draw/../misc/lv_color.h **** #if LV_COLOR_DEPTH == 24
  23:Drivers/lvgl/src/draw/../misc/lv_color.h **** #error "LV_COLOR_DEPTH 24 is deprecated. Use LV_COLOR_DEPTH 32 instead (lv_conf.h)"
  24:Drivers/lvgl/src/draw/../misc/lv_color.h **** #endif
  25:Drivers/lvgl/src/draw/../misc/lv_color.h **** 
  26:Drivers/lvgl/src/draw/../misc/lv_color.h **** #if LV_COLOR_DEPTH != 16 && LV_COLOR_16_SWAP != 0
  27:Drivers/lvgl/src/draw/../misc/lv_color.h **** #error "LV_COLOR_16_SWAP requires LV_COLOR_DEPTH == 16. Set it in lv_conf.h"
  28:Drivers/lvgl/src/draw/../misc/lv_color.h **** #endif
  29:Drivers/lvgl/src/draw/../misc/lv_color.h **** 
  30:Drivers/lvgl/src/draw/../misc/lv_color.h **** #include <stdint.h>
  31:Drivers/lvgl/src/draw/../misc/lv_color.h **** 
  32:Drivers/lvgl/src/draw/../misc/lv_color.h **** /*********************
  33:Drivers/lvgl/src/draw/../misc/lv_color.h ****  *      DEFINES
  34:Drivers/lvgl/src/draw/../misc/lv_color.h ****  *********************/
  35:Drivers/lvgl/src/draw/../misc/lv_color.h **** LV_EXPORT_CONST_INT(LV_COLOR_DEPTH);
  36:Drivers/lvgl/src/draw/../misc/lv_color.h **** LV_EXPORT_CONST_INT(LV_COLOR_16_SWAP);
  37:Drivers/lvgl/src/draw/../misc/lv_color.h **** 
  38:Drivers/lvgl/src/draw/../misc/lv_color.h **** /**
  39:Drivers/lvgl/src/draw/../misc/lv_color.h ****  * Opacity percentages.
  40:Drivers/lvgl/src/draw/../misc/lv_color.h ****  */
  41:Drivers/lvgl/src/draw/../misc/lv_color.h **** enum {
  42:Drivers/lvgl/src/draw/../misc/lv_color.h ****     LV_OPA_TRANSP = 0,
  43:Drivers/lvgl/src/draw/../misc/lv_color.h ****     LV_OPA_0      = 0,
  44:Drivers/lvgl/src/draw/../misc/lv_color.h ****     LV_OPA_10     = 25,
  45:Drivers/lvgl/src/draw/../misc/lv_color.h ****     LV_OPA_20     = 51,
  46:Drivers/lvgl/src/draw/../misc/lv_color.h ****     LV_OPA_30     = 76,
  47:Drivers/lvgl/src/draw/../misc/lv_color.h ****     LV_OPA_40     = 102,
  48:Drivers/lvgl/src/draw/../misc/lv_color.h ****     LV_OPA_50     = 127,
  49:Drivers/lvgl/src/draw/../misc/lv_color.h ****     LV_OPA_60     = 153,
  50:Drivers/lvgl/src/draw/../misc/lv_color.h ****     LV_OPA_70     = 178,
  51:Drivers/lvgl/src/draw/../misc/lv_color.h ****     LV_OPA_80     = 204,
  52:Drivers/lvgl/src/draw/../misc/lv_color.h ****     LV_OPA_90     = 229,
  53:Drivers/lvgl/src/draw/../misc/lv_color.h ****     LV_OPA_100    = 255,
  54:Drivers/lvgl/src/draw/../misc/lv_color.h ****     LV_OPA_COVER  = 255,
  55:Drivers/lvgl/src/draw/../misc/lv_color.h **** };
  56:Drivers/lvgl/src/draw/../misc/lv_color.h **** 
  57:Drivers/lvgl/src/draw/../misc/lv_color.h **** #define LV_OPA_MIN 2    /*Opacities below this will be transparent*/
  58:Drivers/lvgl/src/draw/../misc/lv_color.h **** #define LV_OPA_MAX 253  /*Opacities above this will fully cover*/
  59:Drivers/lvgl/src/draw/../misc/lv_color.h **** 
  60:Drivers/lvgl/src/draw/../misc/lv_color.h **** #if LV_COLOR_DEPTH == 1
  61:Drivers/lvgl/src/draw/../misc/lv_color.h **** #define LV_COLOR_SIZE 8
  62:Drivers/lvgl/src/draw/../misc/lv_color.h **** #elif LV_COLOR_DEPTH == 8
  63:Drivers/lvgl/src/draw/../misc/lv_color.h **** #define LV_COLOR_SIZE 8
  64:Drivers/lvgl/src/draw/../misc/lv_color.h **** #elif LV_COLOR_DEPTH == 16
  65:Drivers/lvgl/src/draw/../misc/lv_color.h **** #define LV_COLOR_SIZE 16
ARM GAS  /var/folders/0z/tsy30v1j4xl4_7kw94k978ww0000gn/T//cc1SwR9x.s 			page 33


  66:Drivers/lvgl/src/draw/../misc/lv_color.h **** #elif LV_COLOR_DEPTH == 32
  67:Drivers/lvgl/src/draw/../misc/lv_color.h **** #define LV_COLOR_SIZE 32
  68:Drivers/lvgl/src/draw/../misc/lv_color.h **** #else
  69:Drivers/lvgl/src/draw/../misc/lv_color.h **** #error "Invalid LV_COLOR_DEPTH in lv_conf.h! Set it to 1, 8, 16 or 32!"
  70:Drivers/lvgl/src/draw/../misc/lv_color.h **** #endif
  71:Drivers/lvgl/src/draw/../misc/lv_color.h **** 
  72:Drivers/lvgl/src/draw/../misc/lv_color.h **** #if defined(__cplusplus) && !defined(_LV_COLOR_HAS_MODERN_CPP)
  73:Drivers/lvgl/src/draw/../misc/lv_color.h **** /**
  74:Drivers/lvgl/src/draw/../misc/lv_color.h **** * MSVC compiler's definition of the __cplusplus indicating 199711L regardless to C++ standard versi
  75:Drivers/lvgl/src/draw/../misc/lv_color.h **** * see https://devblogs.microsoft.com/cppblog/msvc-now-correctly-reports-cplusplus
  76:Drivers/lvgl/src/draw/../misc/lv_color.h **** * so we use _MSC_VER macro instead of __cplusplus
  77:Drivers/lvgl/src/draw/../misc/lv_color.h **** */
  78:Drivers/lvgl/src/draw/../misc/lv_color.h **** #ifdef _MSC_VER
  79:Drivers/lvgl/src/draw/../misc/lv_color.h **** #if _MSC_VER >= 1900 /*Visual Studio 2015*/
  80:Drivers/lvgl/src/draw/../misc/lv_color.h **** #define _LV_COLOR_HAS_MODERN_CPP 1
  81:Drivers/lvgl/src/draw/../misc/lv_color.h **** #endif
  82:Drivers/lvgl/src/draw/../misc/lv_color.h **** #else
  83:Drivers/lvgl/src/draw/../misc/lv_color.h **** #if __cplusplus >= 201103L
  84:Drivers/lvgl/src/draw/../misc/lv_color.h **** #define _LV_COLOR_HAS_MODERN_CPP 1
  85:Drivers/lvgl/src/draw/../misc/lv_color.h **** #endif
  86:Drivers/lvgl/src/draw/../misc/lv_color.h **** #endif
  87:Drivers/lvgl/src/draw/../misc/lv_color.h **** #endif /*__cplusplus*/
  88:Drivers/lvgl/src/draw/../misc/lv_color.h **** 
  89:Drivers/lvgl/src/draw/../misc/lv_color.h **** #ifndef _LV_COLOR_HAS_MODERN_CPP
  90:Drivers/lvgl/src/draw/../misc/lv_color.h **** #define _LV_COLOR_HAS_MODERN_CPP 0
  91:Drivers/lvgl/src/draw/../misc/lv_color.h **** #endif
  92:Drivers/lvgl/src/draw/../misc/lv_color.h **** 
  93:Drivers/lvgl/src/draw/../misc/lv_color.h **** #if _LV_COLOR_HAS_MODERN_CPP
  94:Drivers/lvgl/src/draw/../misc/lv_color.h **** /*Fix msvc compiler error C4576 inside C++ code*/
  95:Drivers/lvgl/src/draw/../misc/lv_color.h **** #define _LV_COLOR_MAKE_TYPE_HELPER lv_color_t
  96:Drivers/lvgl/src/draw/../misc/lv_color.h **** #else
  97:Drivers/lvgl/src/draw/../misc/lv_color.h **** #define _LV_COLOR_MAKE_TYPE_HELPER (lv_color_t)
  98:Drivers/lvgl/src/draw/../misc/lv_color.h **** #endif
  99:Drivers/lvgl/src/draw/../misc/lv_color.h **** 
 100:Drivers/lvgl/src/draw/../misc/lv_color.h **** /*---------------------------------------
 101:Drivers/lvgl/src/draw/../misc/lv_color.h ****  * Macros for all existing color depths
 102:Drivers/lvgl/src/draw/../misc/lv_color.h ****  * to set/get values of the color channels
 103:Drivers/lvgl/src/draw/../misc/lv_color.h ****  *------------------------------------------*/
 104:Drivers/lvgl/src/draw/../misc/lv_color.h **** # define LV_COLOR_SET_R1(c, v) (c).ch.red = (uint8_t)((v) & 0x1)
 105:Drivers/lvgl/src/draw/../misc/lv_color.h **** # define LV_COLOR_SET_G1(c, v) (c).ch.green = (uint8_t)((v) & 0x1)
 106:Drivers/lvgl/src/draw/../misc/lv_color.h **** # define LV_COLOR_SET_B1(c, v) (c).ch.blue = (uint8_t)((v) & 0x1)
 107:Drivers/lvgl/src/draw/../misc/lv_color.h **** # define LV_COLOR_SET_A1(c, v) do {} while(0)
 108:Drivers/lvgl/src/draw/../misc/lv_color.h **** 
 109:Drivers/lvgl/src/draw/../misc/lv_color.h **** # define LV_COLOR_GET_R1(c) (c).ch.red
 110:Drivers/lvgl/src/draw/../misc/lv_color.h **** # define LV_COLOR_GET_G1(c) (c).ch.green
 111:Drivers/lvgl/src/draw/../misc/lv_color.h **** # define LV_COLOR_GET_B1(c) (c).ch.blue
 112:Drivers/lvgl/src/draw/../misc/lv_color.h **** # define LV_COLOR_GET_A1(c) 0xFF
 113:Drivers/lvgl/src/draw/../misc/lv_color.h **** 
 114:Drivers/lvgl/src/draw/../misc/lv_color.h **** # define _LV_COLOR_ZERO_INITIALIZER1 {0x00}
 115:Drivers/lvgl/src/draw/../misc/lv_color.h **** # define LV_COLOR_MAKE1(r8, g8, b8)  {(uint8_t)((b8 >> 7) | (g8 >> 7) | (r8 >> 7))}
 116:Drivers/lvgl/src/draw/../misc/lv_color.h **** 
 117:Drivers/lvgl/src/draw/../misc/lv_color.h **** # define LV_COLOR_SET_R8(c, v) (c).ch.red = (uint8_t)((v) & 0x7U)
 118:Drivers/lvgl/src/draw/../misc/lv_color.h **** # define LV_COLOR_SET_G8(c, v) (c).ch.green = (uint8_t)((v) & 0x7U)
 119:Drivers/lvgl/src/draw/../misc/lv_color.h **** # define LV_COLOR_SET_B8(c, v) (c).ch.blue = (uint8_t)((v) & 0x3U)
 120:Drivers/lvgl/src/draw/../misc/lv_color.h **** # define LV_COLOR_SET_A8(c, v) do {} while(0)
 121:Drivers/lvgl/src/draw/../misc/lv_color.h **** 
 122:Drivers/lvgl/src/draw/../misc/lv_color.h **** # define LV_COLOR_GET_R8(c) (c).ch.red
ARM GAS  /var/folders/0z/tsy30v1j4xl4_7kw94k978ww0000gn/T//cc1SwR9x.s 			page 34


 123:Drivers/lvgl/src/draw/../misc/lv_color.h **** # define LV_COLOR_GET_G8(c) (c).ch.green
 124:Drivers/lvgl/src/draw/../misc/lv_color.h **** # define LV_COLOR_GET_B8(c) (c).ch.blue
 125:Drivers/lvgl/src/draw/../misc/lv_color.h **** # define LV_COLOR_GET_A8(c) 0xFF
 126:Drivers/lvgl/src/draw/../misc/lv_color.h **** 
 127:Drivers/lvgl/src/draw/../misc/lv_color.h **** # define _LV_COLOR_ZERO_INITIALIZER8 {{0x00, 0x00, 0x00}}
 128:Drivers/lvgl/src/draw/../misc/lv_color.h **** # define LV_COLOR_MAKE8(r8, g8, b8) {{(uint8_t)((b8 >> 6) & 0x3U), (uint8_t)((g8 >> 5) & 0x7U), (ui
 129:Drivers/lvgl/src/draw/../misc/lv_color.h **** 
 130:Drivers/lvgl/src/draw/../misc/lv_color.h **** # define LV_COLOR_SET_R16(c, v) (c).ch.red = (uint8_t)((v) & 0x1FU)
 131:Drivers/lvgl/src/draw/../misc/lv_color.h **** #if LV_COLOR_16_SWAP == 0
 132:Drivers/lvgl/src/draw/../misc/lv_color.h **** # define LV_COLOR_SET_G16(c, v) (c).ch.green = (uint8_t)((v) & 0x3FU)
 133:Drivers/lvgl/src/draw/../misc/lv_color.h **** #else
 134:Drivers/lvgl/src/draw/../misc/lv_color.h **** # define LV_COLOR_SET_G16(c, v) {(c).ch.green_h = (uint8_t)(((v) >> 3) & 0x7); (c).ch.green_l = (ui
 135:Drivers/lvgl/src/draw/../misc/lv_color.h **** #endif
 136:Drivers/lvgl/src/draw/../misc/lv_color.h **** # define LV_COLOR_SET_B16(c, v) (c).ch.blue = (uint8_t)((v) & 0x1FU)
 137:Drivers/lvgl/src/draw/../misc/lv_color.h **** # define LV_COLOR_SET_A16(c, v) do {} while(0)
 138:Drivers/lvgl/src/draw/../misc/lv_color.h **** 
 139:Drivers/lvgl/src/draw/../misc/lv_color.h **** # define LV_COLOR_GET_R16(c) (c).ch.red
 140:Drivers/lvgl/src/draw/../misc/lv_color.h **** #if LV_COLOR_16_SWAP == 0
 141:Drivers/lvgl/src/draw/../misc/lv_color.h **** # define LV_COLOR_GET_G16(c) (c).ch.green
 142:Drivers/lvgl/src/draw/../misc/lv_color.h **** #else
 143:Drivers/lvgl/src/draw/../misc/lv_color.h **** # define LV_COLOR_GET_G16(c) (((c).ch.green_h << 3) + (c).ch.green_l)
 144:Drivers/lvgl/src/draw/../misc/lv_color.h **** #endif
 145:Drivers/lvgl/src/draw/../misc/lv_color.h **** # define LV_COLOR_GET_B16(c) (c).ch.blue
 146:Drivers/lvgl/src/draw/../misc/lv_color.h **** # define LV_COLOR_GET_A16(c) 0xFF
 147:Drivers/lvgl/src/draw/../misc/lv_color.h **** 
 148:Drivers/lvgl/src/draw/../misc/lv_color.h **** #if LV_COLOR_16_SWAP == 0
 149:Drivers/lvgl/src/draw/../misc/lv_color.h **** # define _LV_COLOR_ZERO_INITIALIZER16  {{0x00, 0x00, 0x00}}
 150:Drivers/lvgl/src/draw/../misc/lv_color.h **** # define LV_COLOR_MAKE16(r8, g8, b8) {{(uint8_t)((b8 >> 3) & 0x1FU), (uint8_t)((g8 >> 2) & 0x3FU), 
 151:Drivers/lvgl/src/draw/../misc/lv_color.h **** #else
 152:Drivers/lvgl/src/draw/../misc/lv_color.h **** # define _LV_COLOR_ZERO_INITIALIZER16 {{0x00, 0x00, 0x00, 0x00}}
 153:Drivers/lvgl/src/draw/../misc/lv_color.h **** # define LV_COLOR_MAKE16(r8, g8, b8) {{(uint8_t)((g8 >> 5) & 0x7U), (uint8_t)((r8 >> 3) & 0x1FU), (
 154:Drivers/lvgl/src/draw/../misc/lv_color.h **** #endif
 155:Drivers/lvgl/src/draw/../misc/lv_color.h **** 
 156:Drivers/lvgl/src/draw/../misc/lv_color.h **** # define LV_COLOR_SET_R32(c, v) (c).ch.red = (uint8_t)((v) & 0xFF)
 157:Drivers/lvgl/src/draw/../misc/lv_color.h **** # define LV_COLOR_SET_G32(c, v) (c).ch.green = (uint8_t)((v) & 0xFF)
 158:Drivers/lvgl/src/draw/../misc/lv_color.h **** # define LV_COLOR_SET_B32(c, v) (c).ch.blue = (uint8_t)((v) & 0xFF)
 159:Drivers/lvgl/src/draw/../misc/lv_color.h **** # define LV_COLOR_SET_A32(c, v) (c).ch.alpha = (uint8_t)((v) & 0xFF)
 160:Drivers/lvgl/src/draw/../misc/lv_color.h **** 
 161:Drivers/lvgl/src/draw/../misc/lv_color.h **** # define LV_COLOR_GET_R32(c) (c).ch.red
 162:Drivers/lvgl/src/draw/../misc/lv_color.h **** # define LV_COLOR_GET_G32(c) (c).ch.green
 163:Drivers/lvgl/src/draw/../misc/lv_color.h **** # define LV_COLOR_GET_B32(c) (c).ch.blue
 164:Drivers/lvgl/src/draw/../misc/lv_color.h **** # define LV_COLOR_GET_A32(c) (c).ch.alpha
 165:Drivers/lvgl/src/draw/../misc/lv_color.h **** 
 166:Drivers/lvgl/src/draw/../misc/lv_color.h **** # define _LV_COLOR_ZERO_INITIALIZER32  {{0x00, 0x00, 0x00, 0x00}}
 167:Drivers/lvgl/src/draw/../misc/lv_color.h **** # define LV_COLOR_MAKE32(r8, g8, b8) {{b8, g8, r8, 0xff}} /*Fix 0xff alpha*/
 168:Drivers/lvgl/src/draw/../misc/lv_color.h **** 
 169:Drivers/lvgl/src/draw/../misc/lv_color.h **** /*---------------------------------------
 170:Drivers/lvgl/src/draw/../misc/lv_color.h ****  * Macros for the current color depth
 171:Drivers/lvgl/src/draw/../misc/lv_color.h ****  * to set/get values of the color channels
 172:Drivers/lvgl/src/draw/../misc/lv_color.h ****  *------------------------------------------*/
 173:Drivers/lvgl/src/draw/../misc/lv_color.h **** #define LV_COLOR_SET_R(c, v) LV_CONCAT(LV_COLOR_SET_R, LV_COLOR_DEPTH)(c, v)
 174:Drivers/lvgl/src/draw/../misc/lv_color.h **** #define LV_COLOR_SET_G(c, v) LV_CONCAT(LV_COLOR_SET_G, LV_COLOR_DEPTH)(c, v)
 175:Drivers/lvgl/src/draw/../misc/lv_color.h **** #define LV_COLOR_SET_B(c, v) LV_CONCAT(LV_COLOR_SET_B, LV_COLOR_DEPTH)(c, v)
 176:Drivers/lvgl/src/draw/../misc/lv_color.h **** #define LV_COLOR_SET_A(c, v) LV_CONCAT(LV_COLOR_SET_A, LV_COLOR_DEPTH)(c, v)
 177:Drivers/lvgl/src/draw/../misc/lv_color.h **** 
 178:Drivers/lvgl/src/draw/../misc/lv_color.h **** #define LV_COLOR_GET_R(c) LV_CONCAT(LV_COLOR_GET_R, LV_COLOR_DEPTH)(c)
 179:Drivers/lvgl/src/draw/../misc/lv_color.h **** #define LV_COLOR_GET_G(c) LV_CONCAT(LV_COLOR_GET_G, LV_COLOR_DEPTH)(c)
ARM GAS  /var/folders/0z/tsy30v1j4xl4_7kw94k978ww0000gn/T//cc1SwR9x.s 			page 35


 180:Drivers/lvgl/src/draw/../misc/lv_color.h **** #define LV_COLOR_GET_B(c) LV_CONCAT(LV_COLOR_GET_B, LV_COLOR_DEPTH)(c)
 181:Drivers/lvgl/src/draw/../misc/lv_color.h **** #define LV_COLOR_GET_A(c) LV_CONCAT(LV_COLOR_GET_A, LV_COLOR_DEPTH)(c)
 182:Drivers/lvgl/src/draw/../misc/lv_color.h **** 
 183:Drivers/lvgl/src/draw/../misc/lv_color.h **** #define _LV_COLOR_ZERO_INITIALIZER LV_CONCAT(_LV_COLOR_ZERO_INITIALIZER, LV_COLOR_DEPTH)
 184:Drivers/lvgl/src/draw/../misc/lv_color.h **** #define LV_COLOR_MAKE(r8, g8, b8) LV_CONCAT(LV_COLOR_MAKE, LV_COLOR_DEPTH)(r8, g8, b8)
 185:Drivers/lvgl/src/draw/../misc/lv_color.h **** 
 186:Drivers/lvgl/src/draw/../misc/lv_color.h **** /**********************
 187:Drivers/lvgl/src/draw/../misc/lv_color.h ****  *      TYPEDEFS
 188:Drivers/lvgl/src/draw/../misc/lv_color.h ****  **********************/
 189:Drivers/lvgl/src/draw/../misc/lv_color.h **** 
 190:Drivers/lvgl/src/draw/../misc/lv_color.h **** typedef union {
 191:Drivers/lvgl/src/draw/../misc/lv_color.h ****     uint8_t full; /*must be declared first to set all bits of byte via initializer list*/
 192:Drivers/lvgl/src/draw/../misc/lv_color.h ****     union {
 193:Drivers/lvgl/src/draw/../misc/lv_color.h ****         uint8_t blue : 1;
 194:Drivers/lvgl/src/draw/../misc/lv_color.h ****         uint8_t green : 1;
 195:Drivers/lvgl/src/draw/../misc/lv_color.h ****         uint8_t red : 1;
 196:Drivers/lvgl/src/draw/../misc/lv_color.h ****     } ch;
 197:Drivers/lvgl/src/draw/../misc/lv_color.h **** } lv_color1_t;
 198:Drivers/lvgl/src/draw/../misc/lv_color.h **** 
 199:Drivers/lvgl/src/draw/../misc/lv_color.h **** typedef union {
 200:Drivers/lvgl/src/draw/../misc/lv_color.h ****     struct {
 201:Drivers/lvgl/src/draw/../misc/lv_color.h ****         uint8_t blue : 2;
 202:Drivers/lvgl/src/draw/../misc/lv_color.h ****         uint8_t green : 3;
 203:Drivers/lvgl/src/draw/../misc/lv_color.h ****         uint8_t red : 3;
 204:Drivers/lvgl/src/draw/../misc/lv_color.h ****     } ch;
 205:Drivers/lvgl/src/draw/../misc/lv_color.h ****     uint8_t full;
 206:Drivers/lvgl/src/draw/../misc/lv_color.h **** } lv_color8_t;
 207:Drivers/lvgl/src/draw/../misc/lv_color.h **** 
 208:Drivers/lvgl/src/draw/../misc/lv_color.h **** typedef union {
 209:Drivers/lvgl/src/draw/../misc/lv_color.h ****     struct {
 210:Drivers/lvgl/src/draw/../misc/lv_color.h **** #if LV_COLOR_16_SWAP == 0
 211:Drivers/lvgl/src/draw/../misc/lv_color.h ****         uint16_t blue : 5;
 212:Drivers/lvgl/src/draw/../misc/lv_color.h ****         uint16_t green : 6;
 213:Drivers/lvgl/src/draw/../misc/lv_color.h ****         uint16_t red : 5;
 214:Drivers/lvgl/src/draw/../misc/lv_color.h **** #else
 215:Drivers/lvgl/src/draw/../misc/lv_color.h ****         uint16_t green_h : 3;
 216:Drivers/lvgl/src/draw/../misc/lv_color.h ****         uint16_t red : 5;
 217:Drivers/lvgl/src/draw/../misc/lv_color.h ****         uint16_t blue : 5;
 218:Drivers/lvgl/src/draw/../misc/lv_color.h ****         uint16_t green_l : 3;
 219:Drivers/lvgl/src/draw/../misc/lv_color.h **** #endif
 220:Drivers/lvgl/src/draw/../misc/lv_color.h ****     } ch;
 221:Drivers/lvgl/src/draw/../misc/lv_color.h ****     uint16_t full;
 222:Drivers/lvgl/src/draw/../misc/lv_color.h **** } lv_color16_t;
 223:Drivers/lvgl/src/draw/../misc/lv_color.h **** 
 224:Drivers/lvgl/src/draw/../misc/lv_color.h **** typedef union {
 225:Drivers/lvgl/src/draw/../misc/lv_color.h ****     struct {
 226:Drivers/lvgl/src/draw/../misc/lv_color.h ****         uint8_t blue;
 227:Drivers/lvgl/src/draw/../misc/lv_color.h ****         uint8_t green;
 228:Drivers/lvgl/src/draw/../misc/lv_color.h ****         uint8_t red;
 229:Drivers/lvgl/src/draw/../misc/lv_color.h ****         uint8_t alpha;
 230:Drivers/lvgl/src/draw/../misc/lv_color.h ****     } ch;
 231:Drivers/lvgl/src/draw/../misc/lv_color.h ****     uint32_t full;
 232:Drivers/lvgl/src/draw/../misc/lv_color.h **** } lv_color32_t;
 233:Drivers/lvgl/src/draw/../misc/lv_color.h **** 
 234:Drivers/lvgl/src/draw/../misc/lv_color.h **** typedef LV_CONCAT3(uint, LV_COLOR_SIZE, _t) lv_color_int_t;
 235:Drivers/lvgl/src/draw/../misc/lv_color.h **** typedef LV_CONCAT3(lv_color, LV_COLOR_DEPTH, _t) lv_color_t;
 236:Drivers/lvgl/src/draw/../misc/lv_color.h **** 
ARM GAS  /var/folders/0z/tsy30v1j4xl4_7kw94k978ww0000gn/T//cc1SwR9x.s 			page 36


 237:Drivers/lvgl/src/draw/../misc/lv_color.h **** typedef struct {
 238:Drivers/lvgl/src/draw/../misc/lv_color.h ****     uint16_t h;
 239:Drivers/lvgl/src/draw/../misc/lv_color.h ****     uint8_t s;
 240:Drivers/lvgl/src/draw/../misc/lv_color.h ****     uint8_t v;
 241:Drivers/lvgl/src/draw/../misc/lv_color.h **** } lv_color_hsv_t;
 242:Drivers/lvgl/src/draw/../misc/lv_color.h **** 
 243:Drivers/lvgl/src/draw/../misc/lv_color.h **** //! @cond Doxygen_Suppress
 244:Drivers/lvgl/src/draw/../misc/lv_color.h **** /*No idea where the guard is required but else throws warnings in the docs*/
 245:Drivers/lvgl/src/draw/../misc/lv_color.h **** typedef uint8_t lv_opa_t;
 246:Drivers/lvgl/src/draw/../misc/lv_color.h **** //! @endcond
 247:Drivers/lvgl/src/draw/../misc/lv_color.h **** 
 248:Drivers/lvgl/src/draw/../misc/lv_color.h **** struct _lv_color_filter_dsc_t;
 249:Drivers/lvgl/src/draw/../misc/lv_color.h **** 
 250:Drivers/lvgl/src/draw/../misc/lv_color.h **** typedef lv_color_t (*lv_color_filter_cb_t)(const struct _lv_color_filter_dsc_t *, lv_color_t, lv_op
 251:Drivers/lvgl/src/draw/../misc/lv_color.h **** 
 252:Drivers/lvgl/src/draw/../misc/lv_color.h **** typedef struct _lv_color_filter_dsc_t {
 253:Drivers/lvgl/src/draw/../misc/lv_color.h ****     lv_color_filter_cb_t filter_cb;
 254:Drivers/lvgl/src/draw/../misc/lv_color.h ****     void * user_data;
 255:Drivers/lvgl/src/draw/../misc/lv_color.h **** } lv_color_filter_dsc_t;
 256:Drivers/lvgl/src/draw/../misc/lv_color.h **** 
 257:Drivers/lvgl/src/draw/../misc/lv_color.h **** 
 258:Drivers/lvgl/src/draw/../misc/lv_color.h **** typedef enum {
 259:Drivers/lvgl/src/draw/../misc/lv_color.h ****     LV_PALETTE_RED,
 260:Drivers/lvgl/src/draw/../misc/lv_color.h ****     LV_PALETTE_PINK,
 261:Drivers/lvgl/src/draw/../misc/lv_color.h ****     LV_PALETTE_PURPLE,
 262:Drivers/lvgl/src/draw/../misc/lv_color.h ****     LV_PALETTE_DEEP_PURPLE,
 263:Drivers/lvgl/src/draw/../misc/lv_color.h ****     LV_PALETTE_INDIGO,
 264:Drivers/lvgl/src/draw/../misc/lv_color.h ****     LV_PALETTE_BLUE,
 265:Drivers/lvgl/src/draw/../misc/lv_color.h ****     LV_PALETTE_LIGHT_BLUE,
 266:Drivers/lvgl/src/draw/../misc/lv_color.h ****     LV_PALETTE_CYAN,
 267:Drivers/lvgl/src/draw/../misc/lv_color.h ****     LV_PALETTE_TEAL,
 268:Drivers/lvgl/src/draw/../misc/lv_color.h ****     LV_PALETTE_GREEN,
 269:Drivers/lvgl/src/draw/../misc/lv_color.h ****     LV_PALETTE_LIGHT_GREEN,
 270:Drivers/lvgl/src/draw/../misc/lv_color.h ****     LV_PALETTE_LIME,
 271:Drivers/lvgl/src/draw/../misc/lv_color.h ****     LV_PALETTE_YELLOW,
 272:Drivers/lvgl/src/draw/../misc/lv_color.h ****     LV_PALETTE_AMBER,
 273:Drivers/lvgl/src/draw/../misc/lv_color.h ****     LV_PALETTE_ORANGE,
 274:Drivers/lvgl/src/draw/../misc/lv_color.h ****     LV_PALETTE_DEEP_ORANGE,
 275:Drivers/lvgl/src/draw/../misc/lv_color.h ****     LV_PALETTE_BROWN,
 276:Drivers/lvgl/src/draw/../misc/lv_color.h ****     LV_PALETTE_BLUE_GREY,
 277:Drivers/lvgl/src/draw/../misc/lv_color.h ****     LV_PALETTE_GREY,
 278:Drivers/lvgl/src/draw/../misc/lv_color.h ****     _LV_PALETTE_LAST,
 279:Drivers/lvgl/src/draw/../misc/lv_color.h ****     LV_PALETTE_NONE = 0xff,
 280:Drivers/lvgl/src/draw/../misc/lv_color.h **** } lv_palette_t;
 281:Drivers/lvgl/src/draw/../misc/lv_color.h **** 
 282:Drivers/lvgl/src/draw/../misc/lv_color.h **** /**********************
 283:Drivers/lvgl/src/draw/../misc/lv_color.h ****  * GLOBAL PROTOTYPES
 284:Drivers/lvgl/src/draw/../misc/lv_color.h ****  **********************/
 285:Drivers/lvgl/src/draw/../misc/lv_color.h **** 
 286:Drivers/lvgl/src/draw/../misc/lv_color.h **** /*In color conversations:
 287:Drivers/lvgl/src/draw/../misc/lv_color.h ****  * - When converting to bigger color type the LSB weight of 1 LSB is calculated
 288:Drivers/lvgl/src/draw/../misc/lv_color.h ****  *   E.g. 16 bit Red has 5 bits
 289:Drivers/lvgl/src/draw/../misc/lv_color.h ****  *         8 bit Red has 3 bits
 290:Drivers/lvgl/src/draw/../misc/lv_color.h ****  *        ----------------------
 291:Drivers/lvgl/src/draw/../misc/lv_color.h ****  *        8 bit red LSB = (2^5 - 1) / (2^3 - 1) = 31 / 7 = 4
 292:Drivers/lvgl/src/draw/../misc/lv_color.h ****  *
 293:Drivers/lvgl/src/draw/../misc/lv_color.h ****  * - When calculating to smaller color type simply shift out the LSBs
ARM GAS  /var/folders/0z/tsy30v1j4xl4_7kw94k978ww0000gn/T//cc1SwR9x.s 			page 37


 294:Drivers/lvgl/src/draw/../misc/lv_color.h ****  *   E.g.  8 bit Red has 3 bits
 295:Drivers/lvgl/src/draw/../misc/lv_color.h ****  *        16 bit Red has 5 bits
 296:Drivers/lvgl/src/draw/../misc/lv_color.h ****  *        ----------------------
 297:Drivers/lvgl/src/draw/../misc/lv_color.h ****  *         Shift right with 5 - 3 = 2
 298:Drivers/lvgl/src/draw/../misc/lv_color.h ****  */
 299:Drivers/lvgl/src/draw/../misc/lv_color.h **** static inline uint8_t lv_color_to1(lv_color_t color)
 300:Drivers/lvgl/src/draw/../misc/lv_color.h **** {
 301:Drivers/lvgl/src/draw/../misc/lv_color.h **** #if LV_COLOR_DEPTH == 1
 302:Drivers/lvgl/src/draw/../misc/lv_color.h ****     return color.full;
 303:Drivers/lvgl/src/draw/../misc/lv_color.h **** #elif LV_COLOR_DEPTH == 8
 304:Drivers/lvgl/src/draw/../misc/lv_color.h ****     if((LV_COLOR_GET_R(color) & 0x4) || (LV_COLOR_GET_G(color) & 0x4) || (LV_COLOR_GET_B(color) & 0
 305:Drivers/lvgl/src/draw/../misc/lv_color.h ****         return 1;
 306:Drivers/lvgl/src/draw/../misc/lv_color.h ****     }
 307:Drivers/lvgl/src/draw/../misc/lv_color.h ****     else {
 308:Drivers/lvgl/src/draw/../misc/lv_color.h ****         return 0;
 309:Drivers/lvgl/src/draw/../misc/lv_color.h ****     }
 310:Drivers/lvgl/src/draw/../misc/lv_color.h **** #elif LV_COLOR_DEPTH == 16
 311:Drivers/lvgl/src/draw/../misc/lv_color.h ****     if((LV_COLOR_GET_R(color) & 0x10) || (LV_COLOR_GET_G(color) & 0x20) || (LV_COLOR_GET_B(color) &
 312:Drivers/lvgl/src/draw/../misc/lv_color.h ****         return 1;
 313:Drivers/lvgl/src/draw/../misc/lv_color.h ****     }
 314:Drivers/lvgl/src/draw/../misc/lv_color.h ****     else {
 315:Drivers/lvgl/src/draw/../misc/lv_color.h ****         return 0;
 316:Drivers/lvgl/src/draw/../misc/lv_color.h ****     }
 317:Drivers/lvgl/src/draw/../misc/lv_color.h **** #elif LV_COLOR_DEPTH == 32
 318:Drivers/lvgl/src/draw/../misc/lv_color.h ****     if((LV_COLOR_GET_R(color) & 0x80) || (LV_COLOR_GET_G(color) & 0x80) || (LV_COLOR_GET_B(color) &
 319:Drivers/lvgl/src/draw/../misc/lv_color.h ****         return 1;
 320:Drivers/lvgl/src/draw/../misc/lv_color.h ****     }
 321:Drivers/lvgl/src/draw/../misc/lv_color.h ****     else {
 322:Drivers/lvgl/src/draw/../misc/lv_color.h ****         return 0;
 323:Drivers/lvgl/src/draw/../misc/lv_color.h ****     }
 324:Drivers/lvgl/src/draw/../misc/lv_color.h **** #endif
 325:Drivers/lvgl/src/draw/../misc/lv_color.h **** }
 326:Drivers/lvgl/src/draw/../misc/lv_color.h **** 
 327:Drivers/lvgl/src/draw/../misc/lv_color.h **** static inline uint8_t lv_color_to8(lv_color_t color)
 328:Drivers/lvgl/src/draw/../misc/lv_color.h **** {
 329:Drivers/lvgl/src/draw/../misc/lv_color.h **** #if LV_COLOR_DEPTH == 1
 330:Drivers/lvgl/src/draw/../misc/lv_color.h ****     if(color.full == 0)
 331:Drivers/lvgl/src/draw/../misc/lv_color.h ****         return 0;
 332:Drivers/lvgl/src/draw/../misc/lv_color.h ****     else
 333:Drivers/lvgl/src/draw/../misc/lv_color.h ****         return 0xFF;
 334:Drivers/lvgl/src/draw/../misc/lv_color.h **** #elif LV_COLOR_DEPTH == 8
 335:Drivers/lvgl/src/draw/../misc/lv_color.h ****     return color.full;
 336:Drivers/lvgl/src/draw/../misc/lv_color.h **** #elif LV_COLOR_DEPTH == 16
 337:Drivers/lvgl/src/draw/../misc/lv_color.h ****     lv_color8_t ret;
 338:Drivers/lvgl/src/draw/../misc/lv_color.h ****     LV_COLOR_SET_R8(ret, LV_COLOR_GET_R(color) >> 2); /*5 - 3  = 2*/
 339:Drivers/lvgl/src/draw/../misc/lv_color.h ****     LV_COLOR_SET_G8(ret, LV_COLOR_GET_G(color) >> 3); /*6 - 3  = 3*/
 340:Drivers/lvgl/src/draw/../misc/lv_color.h ****     LV_COLOR_SET_B8(ret, LV_COLOR_GET_B(color) >> 3); /*5 - 2  = 3*/
 341:Drivers/lvgl/src/draw/../misc/lv_color.h ****     return ret.full;
 342:Drivers/lvgl/src/draw/../misc/lv_color.h **** #elif LV_COLOR_DEPTH == 32
 343:Drivers/lvgl/src/draw/../misc/lv_color.h ****     lv_color8_t ret;
 344:Drivers/lvgl/src/draw/../misc/lv_color.h ****     LV_COLOR_SET_R8(ret, LV_COLOR_GET_R(color) >> 5); /*8 - 3  = 5*/
 345:Drivers/lvgl/src/draw/../misc/lv_color.h ****     LV_COLOR_SET_G8(ret, LV_COLOR_GET_G(color) >> 5); /*8 - 3  = 5*/
 346:Drivers/lvgl/src/draw/../misc/lv_color.h ****     LV_COLOR_SET_B8(ret, LV_COLOR_GET_B(color) >> 6); /*8 - 2  = 6*/
 347:Drivers/lvgl/src/draw/../misc/lv_color.h ****     return ret.full;
 348:Drivers/lvgl/src/draw/../misc/lv_color.h **** #endif
 349:Drivers/lvgl/src/draw/../misc/lv_color.h **** }
 350:Drivers/lvgl/src/draw/../misc/lv_color.h **** 
ARM GAS  /var/folders/0z/tsy30v1j4xl4_7kw94k978ww0000gn/T//cc1SwR9x.s 			page 38


 351:Drivers/lvgl/src/draw/../misc/lv_color.h **** static inline uint16_t lv_color_to16(lv_color_t color)
 352:Drivers/lvgl/src/draw/../misc/lv_color.h **** {
 353:Drivers/lvgl/src/draw/../misc/lv_color.h **** #if LV_COLOR_DEPTH == 1
 354:Drivers/lvgl/src/draw/../misc/lv_color.h ****     if(color.full == 0)
 355:Drivers/lvgl/src/draw/../misc/lv_color.h ****         return 0;
 356:Drivers/lvgl/src/draw/../misc/lv_color.h ****     else
 357:Drivers/lvgl/src/draw/../misc/lv_color.h ****         return 0xFFFF;
 358:Drivers/lvgl/src/draw/../misc/lv_color.h **** #elif LV_COLOR_DEPTH == 8
 359:Drivers/lvgl/src/draw/../misc/lv_color.h ****     lv_color16_t ret;
 360:Drivers/lvgl/src/draw/../misc/lv_color.h ****     LV_COLOR_SET_R16(ret, LV_COLOR_GET_R(color) * 4);  /*(2^5 - 1)/(2^3 - 1) = 31/7 = 4*/
 361:Drivers/lvgl/src/draw/../misc/lv_color.h ****     LV_COLOR_SET_G16(ret, LV_COLOR_GET_G(color) * 9);  /*(2^6 - 1)/(2^3 - 1) = 63/7 = 9*/
 362:Drivers/lvgl/src/draw/../misc/lv_color.h ****     LV_COLOR_SET_B16(ret, LV_COLOR_GET_B(color) * 10); /*(2^5 - 1)/(2^2 - 1) = 31/3 = 10*/
 363:Drivers/lvgl/src/draw/../misc/lv_color.h ****     return ret.full;
 364:Drivers/lvgl/src/draw/../misc/lv_color.h **** #elif LV_COLOR_DEPTH == 16
 365:Drivers/lvgl/src/draw/../misc/lv_color.h ****     return color.full;
 366:Drivers/lvgl/src/draw/../misc/lv_color.h **** #elif LV_COLOR_DEPTH == 32
 367:Drivers/lvgl/src/draw/../misc/lv_color.h ****     lv_color16_t ret;
 368:Drivers/lvgl/src/draw/../misc/lv_color.h ****     LV_COLOR_SET_R16(ret, LV_COLOR_GET_R(color) >> 3); /*8 - 5  = 3*/
 369:Drivers/lvgl/src/draw/../misc/lv_color.h ****     LV_COLOR_SET_G16(ret, LV_COLOR_GET_G(color) >> 2); /*8 - 6  = 2*/
 370:Drivers/lvgl/src/draw/../misc/lv_color.h ****     LV_COLOR_SET_B16(ret, LV_COLOR_GET_B(color) >> 3); /*8 - 5  = 3*/
 371:Drivers/lvgl/src/draw/../misc/lv_color.h ****     return ret.full;
 372:Drivers/lvgl/src/draw/../misc/lv_color.h **** #endif
 373:Drivers/lvgl/src/draw/../misc/lv_color.h **** }
 374:Drivers/lvgl/src/draw/../misc/lv_color.h **** 
 375:Drivers/lvgl/src/draw/../misc/lv_color.h **** static inline uint32_t lv_color_to32(lv_color_t color)
 376:Drivers/lvgl/src/draw/../misc/lv_color.h **** {
 377:Drivers/lvgl/src/draw/../misc/lv_color.h **** #if LV_COLOR_DEPTH == 1
 378:Drivers/lvgl/src/draw/../misc/lv_color.h ****     if(color.full == 0)
 379:Drivers/lvgl/src/draw/../misc/lv_color.h ****         return 0xFF000000;
 380:Drivers/lvgl/src/draw/../misc/lv_color.h ****     else
 381:Drivers/lvgl/src/draw/../misc/lv_color.h ****         return 0xFFFFFFFF;
 382:Drivers/lvgl/src/draw/../misc/lv_color.h **** #elif LV_COLOR_DEPTH == 8
 383:Drivers/lvgl/src/draw/../misc/lv_color.h ****     lv_color32_t ret;
 384:Drivers/lvgl/src/draw/../misc/lv_color.h ****     LV_COLOR_SET_R32(ret, LV_COLOR_GET_R(color) * 36); /*(2^8 - 1)/(2^3 - 1) = 255/7 = 36*/
 385:Drivers/lvgl/src/draw/../misc/lv_color.h ****     LV_COLOR_SET_G32(ret, LV_COLOR_GET_G(color) * 36); /*(2^8 - 1)/(2^3 - 1) = 255/7 = 36*/
 386:Drivers/lvgl/src/draw/../misc/lv_color.h ****     LV_COLOR_SET_B32(ret, LV_COLOR_GET_B(color) * 85); /*(2^8 - 1)/(2^2 - 1) = 255/3 = 85*/
 387:Drivers/lvgl/src/draw/../misc/lv_color.h ****     LV_COLOR_SET_A32(ret, 0xFF);
 388:Drivers/lvgl/src/draw/../misc/lv_color.h ****     return ret.full;
 389:Drivers/lvgl/src/draw/../misc/lv_color.h **** #elif LV_COLOR_DEPTH == 16
 390:Drivers/lvgl/src/draw/../misc/lv_color.h ****     /**
 391:Drivers/lvgl/src/draw/../misc/lv_color.h ****      * The floating point math for conversion is:
 392:Drivers/lvgl/src/draw/../misc/lv_color.h ****      *  valueto = valuefrom * ( (2^bitsto - 1) / (float)(2^bitsfrom - 1) )
 393:Drivers/lvgl/src/draw/../misc/lv_color.h ****      * The faster integer math for conversion is:
 394:Drivers/lvgl/src/draw/../misc/lv_color.h ****      *  valueto = ( valuefrom * multiplier + adder ) >> divisor
 395:Drivers/lvgl/src/draw/../misc/lv_color.h ****      *   multiplier = FLOOR( ( (2^bitsto - 1) << divisor ) / (float)(2^bitsfrom - 1) )
 396:Drivers/lvgl/src/draw/../misc/lv_color.h ****      *
 397:Drivers/lvgl/src/draw/../misc/lv_color.h ****      * Find the first divisor where ( adder >> divisor ) <= 0
 398:Drivers/lvgl/src/draw/../misc/lv_color.h ****      *
 399:Drivers/lvgl/src/draw/../misc/lv_color.h ****      * 5-bit to 8-bit: ( 31 * multiplier + adder ) >> divisor = 255
 400:Drivers/lvgl/src/draw/../misc/lv_color.h ****      * divisor  multiplier  adder  min (0)  max (31)
 401:Drivers/lvgl/src/draw/../misc/lv_color.h ****      *       0           8      7        7       255
 402:Drivers/lvgl/src/draw/../misc/lv_color.h ****      *       1          16     14        7       255
 403:Drivers/lvgl/src/draw/../misc/lv_color.h ****      *       2          32     28        7       255
 404:Drivers/lvgl/src/draw/../misc/lv_color.h ****      *       3          65     25        3       255
 405:Drivers/lvgl/src/draw/../misc/lv_color.h ****      *       4         131     19        1       255
 406:Drivers/lvgl/src/draw/../misc/lv_color.h ****      *       5         263      7        0       255
 407:Drivers/lvgl/src/draw/../misc/lv_color.h ****      *
ARM GAS  /var/folders/0z/tsy30v1j4xl4_7kw94k978ww0000gn/T//cc1SwR9x.s 			page 39


 408:Drivers/lvgl/src/draw/../misc/lv_color.h ****      * 6-bit to 8-bit: 255 = ( 63 * multiplier + adder ) >> divisor
 409:Drivers/lvgl/src/draw/../misc/lv_color.h ****      * divisor  multiplier  adder  min (0)  max (63)
 410:Drivers/lvgl/src/draw/../misc/lv_color.h ****      *       0           4      3        3       255
 411:Drivers/lvgl/src/draw/../misc/lv_color.h ****      *       1           8      6        3       255
 412:Drivers/lvgl/src/draw/../misc/lv_color.h ****      *       2          16     12        3       255
 413:Drivers/lvgl/src/draw/../misc/lv_color.h ****      *       3          32     24        3       255
 414:Drivers/lvgl/src/draw/../misc/lv_color.h ****      *       4          64     48        3       255
 415:Drivers/lvgl/src/draw/../misc/lv_color.h ****      *       5         129     33        1       255
 416:Drivers/lvgl/src/draw/../misc/lv_color.h ****      *       6         259      3        0       255
 417:Drivers/lvgl/src/draw/../misc/lv_color.h ****      */
 418:Drivers/lvgl/src/draw/../misc/lv_color.h **** 
 419:Drivers/lvgl/src/draw/../misc/lv_color.h ****     lv_color32_t ret;
 420:Drivers/lvgl/src/draw/../misc/lv_color.h ****     LV_COLOR_SET_R32(ret, (LV_COLOR_GET_R(color) * 263 + 7) >> 5);
 421:Drivers/lvgl/src/draw/../misc/lv_color.h ****     LV_COLOR_SET_G32(ret, (LV_COLOR_GET_G(color) * 259 + 3) >> 6);
 422:Drivers/lvgl/src/draw/../misc/lv_color.h ****     LV_COLOR_SET_B32(ret, (LV_COLOR_GET_B(color) * 263 + 7) >> 5);
 423:Drivers/lvgl/src/draw/../misc/lv_color.h ****     LV_COLOR_SET_A32(ret, 0xFF);
 424:Drivers/lvgl/src/draw/../misc/lv_color.h ****     return ret.full;
 425:Drivers/lvgl/src/draw/../misc/lv_color.h **** #elif LV_COLOR_DEPTH == 32
 426:Drivers/lvgl/src/draw/../misc/lv_color.h ****     return color.full;
 427:Drivers/lvgl/src/draw/../misc/lv_color.h **** #endif
 428:Drivers/lvgl/src/draw/../misc/lv_color.h **** }
 429:Drivers/lvgl/src/draw/../misc/lv_color.h **** 
 430:Drivers/lvgl/src/draw/../misc/lv_color.h **** //! @cond Doxygen_Suppress
 431:Drivers/lvgl/src/draw/../misc/lv_color.h **** 
 432:Drivers/lvgl/src/draw/../misc/lv_color.h **** /**
 433:Drivers/lvgl/src/draw/../misc/lv_color.h ****  * Mix two colors with a given ratio.
 434:Drivers/lvgl/src/draw/../misc/lv_color.h ****  * @param c1 the first color to mix (usually the foreground)
 435:Drivers/lvgl/src/draw/../misc/lv_color.h ****  * @param c2 the second color to mix (usually the background)
 436:Drivers/lvgl/src/draw/../misc/lv_color.h ****  * @param mix The ratio of the colors. 0: full `c2`, 255: full `c1`, 127: half `c1` and half`c2`
 437:Drivers/lvgl/src/draw/../misc/lv_color.h ****  * @return the mixed color
 438:Drivers/lvgl/src/draw/../misc/lv_color.h ****  */
 439:Drivers/lvgl/src/draw/../misc/lv_color.h **** static inline lv_color_t LV_ATTRIBUTE_FAST_MEM lv_color_mix(lv_color_t c1, lv_color_t c2, uint8_t m
 440:Drivers/lvgl/src/draw/../misc/lv_color.h **** {
 441:Drivers/lvgl/src/draw/../misc/lv_color.h ****     lv_color_t ret;
 442:Drivers/lvgl/src/draw/../misc/lv_color.h **** 
 443:Drivers/lvgl/src/draw/../misc/lv_color.h **** #if LV_COLOR_DEPTH == 16 && LV_COLOR_MIX_ROUND_OFS == 0
 444:Drivers/lvgl/src/draw/../misc/lv_color.h **** #if LV_COLOR_16_SWAP == 1
 445:Drivers/lvgl/src/draw/../misc/lv_color.h ****     c1.full = c1.full << 8 | c1.full >> 8;
 446:Drivers/lvgl/src/draw/../misc/lv_color.h ****     c2.full = c2.full << 8 | c2.full >> 8;
 447:Drivers/lvgl/src/draw/../misc/lv_color.h **** #endif
 448:Drivers/lvgl/src/draw/../misc/lv_color.h ****     /*Source: https://stackoverflow.com/a/50012418/1999969*/
 449:Drivers/lvgl/src/draw/../misc/lv_color.h ****     mix = (uint32_t)((uint32_t)mix + 4) >> 3;
 450:Drivers/lvgl/src/draw/../misc/lv_color.h ****     uint32_t bg = (uint32_t)((uint32_t)c2.full | ((uint32_t)c2.full << 16)) &
 451:Drivers/lvgl/src/draw/../misc/lv_color.h ****                   0x7E0F81F; /*0b00000111111000001111100000011111*/
 452:Drivers/lvgl/src/draw/../misc/lv_color.h ****     uint32_t fg = (uint32_t)((uint32_t)c1.full | ((uint32_t)c1.full << 16)) & 0x7E0F81F;
 453:Drivers/lvgl/src/draw/../misc/lv_color.h ****     uint32_t result = ((((fg - bg) * mix) >> 5) + bg) & 0x7E0F81F;
 454:Drivers/lvgl/src/draw/../misc/lv_color.h ****     ret.full = (uint16_t)((result >> 16) | result);
 455:Drivers/lvgl/src/draw/../misc/lv_color.h **** #if LV_COLOR_16_SWAP == 1
 456:Drivers/lvgl/src/draw/../misc/lv_color.h ****     ret.full = ret.full << 8 | ret.full >> 8;
 457:Drivers/lvgl/src/draw/../misc/lv_color.h **** #endif
 458:Drivers/lvgl/src/draw/../misc/lv_color.h **** #elif LV_COLOR_DEPTH != 1
 459:Drivers/lvgl/src/draw/../misc/lv_color.h ****     /*LV_COLOR_DEPTH == 8, 16 or 32*/
 460:Drivers/lvgl/src/draw/../misc/lv_color.h ****     LV_COLOR_SET_R(ret, LV_UDIV255((uint16_t)LV_COLOR_GET_R(c1) * mix + LV_COLOR_GET_R(c2) *
 461:Drivers/lvgl/src/draw/../misc/lv_color.h ****                                    (255 - mix) + LV_COLOR_MIX_ROUND_OFS));
 462:Drivers/lvgl/src/draw/../misc/lv_color.h ****     LV_COLOR_SET_G(ret, LV_UDIV255((uint16_t)LV_COLOR_GET_G(c1) * mix + LV_COLOR_GET_G(c2) *
 463:Drivers/lvgl/src/draw/../misc/lv_color.h ****                                    (255 - mix) + LV_COLOR_MIX_ROUND_OFS));
 464:Drivers/lvgl/src/draw/../misc/lv_color.h ****     LV_COLOR_SET_B(ret, LV_UDIV255((uint16_t)LV_COLOR_GET_B(c1) * mix + LV_COLOR_GET_B(c2) *
ARM GAS  /var/folders/0z/tsy30v1j4xl4_7kw94k978ww0000gn/T//cc1SwR9x.s 			page 40


 465:Drivers/lvgl/src/draw/../misc/lv_color.h ****                                    (255 - mix) + LV_COLOR_MIX_ROUND_OFS));
 466:Drivers/lvgl/src/draw/../misc/lv_color.h ****     LV_COLOR_SET_A(ret, 0xFF);
 467:Drivers/lvgl/src/draw/../misc/lv_color.h **** #else
 468:Drivers/lvgl/src/draw/../misc/lv_color.h ****     /*LV_COLOR_DEPTH == 1*/
 469:Drivers/lvgl/src/draw/../misc/lv_color.h ****     ret.full = mix > LV_OPA_50 ? c1.full : c2.full;
 470:Drivers/lvgl/src/draw/../misc/lv_color.h **** #endif
 471:Drivers/lvgl/src/draw/../misc/lv_color.h **** 
 472:Drivers/lvgl/src/draw/../misc/lv_color.h ****     return ret;
 473:Drivers/lvgl/src/draw/../misc/lv_color.h **** }
 474:Drivers/lvgl/src/draw/../misc/lv_color.h **** 
 475:Drivers/lvgl/src/draw/../misc/lv_color.h **** static inline void LV_ATTRIBUTE_FAST_MEM lv_color_premult(lv_color_t c, uint8_t mix, uint16_t * out
 476:Drivers/lvgl/src/draw/../misc/lv_color.h **** {
 477:Drivers/lvgl/src/draw/../misc/lv_color.h **** #if LV_COLOR_DEPTH != 1
 478:Drivers/lvgl/src/draw/../misc/lv_color.h ****     out[0] = (uint16_t)LV_COLOR_GET_R(c) * mix;
 479:Drivers/lvgl/src/draw/../misc/lv_color.h ****     out[1] = (uint16_t)LV_COLOR_GET_G(c) * mix;
 480:Drivers/lvgl/src/draw/../misc/lv_color.h ****     out[2] = (uint16_t)LV_COLOR_GET_B(c) * mix;
 481:Drivers/lvgl/src/draw/../misc/lv_color.h **** #else
 482:Drivers/lvgl/src/draw/../misc/lv_color.h ****     (void) mix;
 483:Drivers/lvgl/src/draw/../misc/lv_color.h ****     /*Pre-multiplication can't be used with 1 bpp*/
 484:Drivers/lvgl/src/draw/../misc/lv_color.h ****     out[0] = LV_COLOR_GET_R(c);
 485:Drivers/lvgl/src/draw/../misc/lv_color.h ****     out[1] = LV_COLOR_GET_G(c);
 486:Drivers/lvgl/src/draw/../misc/lv_color.h ****     out[2] = LV_COLOR_GET_B(c);
 487:Drivers/lvgl/src/draw/../misc/lv_color.h **** #endif
 488:Drivers/lvgl/src/draw/../misc/lv_color.h **** 
 489:Drivers/lvgl/src/draw/../misc/lv_color.h **** }
 490:Drivers/lvgl/src/draw/../misc/lv_color.h **** 
 491:Drivers/lvgl/src/draw/../misc/lv_color.h **** /**
 492:Drivers/lvgl/src/draw/../misc/lv_color.h ****  * Mix two colors with a given ratio. It runs faster then `lv_color_mix` but requires some pre comp
 493:Drivers/lvgl/src/draw/../misc/lv_color.h ****  * @param premult_c1 The first color. Should be preprocessed with `lv_color_premult(c1)`
 494:Drivers/lvgl/src/draw/../misc/lv_color.h ****  * @param c2 The second color. As it is no pre computation required on it
 495:Drivers/lvgl/src/draw/../misc/lv_color.h ****  * @param mix The ratio of the colors. 0: full `c1`, 255: full `c2`, 127: half `c1` and half `c2`.
 496:Drivers/lvgl/src/draw/../misc/lv_color.h ****  *            Should be modified like mix = `255 - mix`
 497:Drivers/lvgl/src/draw/../misc/lv_color.h ****  * @return the mixed color
 498:Drivers/lvgl/src/draw/../misc/lv_color.h ****  * @note 255 won't give clearly `c1`.
 499:Drivers/lvgl/src/draw/../misc/lv_color.h ****  */
 500:Drivers/lvgl/src/draw/../misc/lv_color.h **** static inline lv_color_t LV_ATTRIBUTE_FAST_MEM lv_color_mix_premult(uint16_t * premult_c1, lv_color
 501:Drivers/lvgl/src/draw/../misc/lv_color.h **** {
 502:Drivers/lvgl/src/draw/../misc/lv_color.h ****     lv_color_t ret;
 503:Drivers/lvgl/src/draw/../misc/lv_color.h **** #if LV_COLOR_DEPTH != 1
 504:Drivers/lvgl/src/draw/../misc/lv_color.h ****     /*LV_COLOR_DEPTH == 8 or 32*/
 505:Drivers/lvgl/src/draw/../misc/lv_color.h ****     LV_COLOR_SET_R(ret, LV_UDIV255(premult_c1[0] + LV_COLOR_GET_R(c2) * mix + LV_COLOR_MIX_ROUND_OF
 506:Drivers/lvgl/src/draw/../misc/lv_color.h ****     LV_COLOR_SET_G(ret, LV_UDIV255(premult_c1[1] + LV_COLOR_GET_G(c2) * mix + LV_COLOR_MIX_ROUND_OF
 507:Drivers/lvgl/src/draw/../misc/lv_color.h ****     LV_COLOR_SET_B(ret, LV_UDIV255(premult_c1[2] + LV_COLOR_GET_B(c2) * mix + LV_COLOR_MIX_ROUND_OF
 508:Drivers/lvgl/src/draw/../misc/lv_color.h ****     LV_COLOR_SET_A(ret, 0xFF);
 509:Drivers/lvgl/src/draw/../misc/lv_color.h **** #else
 510:Drivers/lvgl/src/draw/../misc/lv_color.h ****     /*LV_COLOR_DEPTH == 1*/
 511:Drivers/lvgl/src/draw/../misc/lv_color.h ****     /*Restore color1*/
 512:Drivers/lvgl/src/draw/../misc/lv_color.h ****     lv_color_t c1;
 513:Drivers/lvgl/src/draw/../misc/lv_color.h ****     LV_COLOR_SET_R(c1, premult_c1[0]);
 514:Drivers/lvgl/src/draw/../misc/lv_color.h ****     LV_COLOR_SET_G(c1, premult_c1[1]);
 515:Drivers/lvgl/src/draw/../misc/lv_color.h ****     LV_COLOR_SET_B(c1, premult_c1[2]);
 516:Drivers/lvgl/src/draw/../misc/lv_color.h ****     ret.full = mix > LV_OPA_50 ? c2.full : c1.full;
 517:Drivers/lvgl/src/draw/../misc/lv_color.h **** #endif
 518:Drivers/lvgl/src/draw/../misc/lv_color.h **** 
 519:Drivers/lvgl/src/draw/../misc/lv_color.h ****     return ret;
 520:Drivers/lvgl/src/draw/../misc/lv_color.h **** }
 521:Drivers/lvgl/src/draw/../misc/lv_color.h **** 
ARM GAS  /var/folders/0z/tsy30v1j4xl4_7kw94k978ww0000gn/T//cc1SwR9x.s 			page 41


 522:Drivers/lvgl/src/draw/../misc/lv_color.h **** /**
 523:Drivers/lvgl/src/draw/../misc/lv_color.h ****  * Mix two colors. Both color can have alpha value.
 524:Drivers/lvgl/src/draw/../misc/lv_color.h ****  * @param bg_color background color
 525:Drivers/lvgl/src/draw/../misc/lv_color.h ****  * @param bg_opa alpha of the background color
 526:Drivers/lvgl/src/draw/../misc/lv_color.h ****  * @param fg_color foreground color
 527:Drivers/lvgl/src/draw/../misc/lv_color.h ****  * @param fg_opa alpha of the foreground color
 528:Drivers/lvgl/src/draw/../misc/lv_color.h ****  * @param res_color the result color
 529:Drivers/lvgl/src/draw/../misc/lv_color.h ****  * @param res_opa the result opacity
 530:Drivers/lvgl/src/draw/../misc/lv_color.h ****  */
 531:Drivers/lvgl/src/draw/../misc/lv_color.h **** static inline void LV_ATTRIBUTE_FAST_MEM lv_color_mix_with_alpha(lv_color_t bg_color, lv_opa_t bg_o
 532:Drivers/lvgl/src/draw/../misc/lv_color.h ****                                                                  lv_color_t fg_color, lv_opa_t fg_o
 533:Drivers/lvgl/src/draw/../misc/lv_color.h ****                                                                  lv_color_t * res_color, lv_opa_t *
 534:Drivers/lvgl/src/draw/../misc/lv_color.h **** {
 535:Drivers/lvgl/src/draw/../misc/lv_color.h ****     /*Pick the foreground if it's fully opaque or the Background is fully transparent*/
 536:Drivers/lvgl/src/draw/../misc/lv_color.h ****     if(fg_opa >= LV_OPA_MAX || bg_opa <= LV_OPA_MIN) {
 537:Drivers/lvgl/src/draw/../misc/lv_color.h ****         res_color->full = fg_color.full;
 538:Drivers/lvgl/src/draw/../misc/lv_color.h ****         *res_opa = fg_opa;
 539:Drivers/lvgl/src/draw/../misc/lv_color.h ****     }
 540:Drivers/lvgl/src/draw/../misc/lv_color.h ****     /*Transparent foreground: use the Background*/
 541:Drivers/lvgl/src/draw/../misc/lv_color.h ****     else if(fg_opa <= LV_OPA_MIN) {
 542:Drivers/lvgl/src/draw/../misc/lv_color.h ****         res_color->full = bg_color.full;
 543:Drivers/lvgl/src/draw/../misc/lv_color.h ****         *res_opa = bg_opa;
 544:Drivers/lvgl/src/draw/../misc/lv_color.h ****     }
 545:Drivers/lvgl/src/draw/../misc/lv_color.h ****     /*Opaque background: use simple mix*/
 546:Drivers/lvgl/src/draw/../misc/lv_color.h ****     else if(bg_opa >= LV_OPA_MAX) {
 547:Drivers/lvgl/src/draw/../misc/lv_color.h ****         *res_color = lv_color_mix(fg_color, bg_color, fg_opa);
 548:Drivers/lvgl/src/draw/../misc/lv_color.h ****         *res_opa = LV_OPA_COVER;
 549:Drivers/lvgl/src/draw/../misc/lv_color.h ****     }
 550:Drivers/lvgl/src/draw/../misc/lv_color.h ****     /*Both colors have alpha. Expensive calculation need to be applied*/
 551:Drivers/lvgl/src/draw/../misc/lv_color.h ****     else {
 552:Drivers/lvgl/src/draw/../misc/lv_color.h ****         /*Save the parameters and the result. If they will be asked again don't compute again*/
 553:Drivers/lvgl/src/draw/../misc/lv_color.h ****         static lv_opa_t fg_opa_save     = 0;
 554:Drivers/lvgl/src/draw/../misc/lv_color.h ****         static lv_opa_t bg_opa_save     = 0;
 555:Drivers/lvgl/src/draw/../misc/lv_color.h ****         static lv_color_t fg_color_save = _LV_COLOR_ZERO_INITIALIZER;
 556:Drivers/lvgl/src/draw/../misc/lv_color.h ****         static lv_color_t bg_color_save = _LV_COLOR_ZERO_INITIALIZER;
 557:Drivers/lvgl/src/draw/../misc/lv_color.h ****         static lv_color_t res_color_saved = _LV_COLOR_ZERO_INITIALIZER;
 558:Drivers/lvgl/src/draw/../misc/lv_color.h ****         static lv_opa_t res_opa_saved = 0;
 559:Drivers/lvgl/src/draw/../misc/lv_color.h **** 
 560:Drivers/lvgl/src/draw/../misc/lv_color.h ****         if(fg_opa != fg_opa_save || bg_opa != bg_opa_save || fg_color.full != fg_color_save.full ||
 561:Drivers/lvgl/src/draw/../misc/lv_color.h ****            bg_color.full != bg_color_save.full) {
 562:Drivers/lvgl/src/draw/../misc/lv_color.h ****             fg_opa_save        = fg_opa;
 563:Drivers/lvgl/src/draw/../misc/lv_color.h ****             bg_opa_save        = bg_opa;
 564:Drivers/lvgl/src/draw/../misc/lv_color.h ****             fg_color_save.full = fg_color.full;
 565:Drivers/lvgl/src/draw/../misc/lv_color.h ****             bg_color_save.full = bg_color.full;
 566:Drivers/lvgl/src/draw/../misc/lv_color.h ****             /*Info:
 567:Drivers/lvgl/src/draw/../misc/lv_color.h ****              * https://en.wikipedia.org/wiki/Alpha_compositing#Analytical_derivation_of_the_over_op
 568:Drivers/lvgl/src/draw/../misc/lv_color.h ****             res_opa_saved = 255 - ((uint16_t)((uint16_t)(255 - fg_opa) * (255 - bg_opa)) >> 8);
 569:Drivers/lvgl/src/draw/../misc/lv_color.h ****             LV_ASSERT(res_opa_saved != 0);
 570:Drivers/lvgl/src/draw/../misc/lv_color.h ****             lv_opa_t ratio = (uint16_t)((uint16_t)fg_opa * 255) / res_opa_saved;
 571:Drivers/lvgl/src/draw/../misc/lv_color.h ****             res_color_saved = lv_color_mix(fg_color, bg_color, ratio);
 572:Drivers/lvgl/src/draw/../misc/lv_color.h **** 
 573:Drivers/lvgl/src/draw/../misc/lv_color.h ****         }
 574:Drivers/lvgl/src/draw/../misc/lv_color.h **** 
 575:Drivers/lvgl/src/draw/../misc/lv_color.h ****         res_color->full = res_color_saved.full;
 576:Drivers/lvgl/src/draw/../misc/lv_color.h ****         *res_opa = res_opa_saved;
 577:Drivers/lvgl/src/draw/../misc/lv_color.h ****     }
 578:Drivers/lvgl/src/draw/../misc/lv_color.h **** }
ARM GAS  /var/folders/0z/tsy30v1j4xl4_7kw94k978ww0000gn/T//cc1SwR9x.s 			page 42


 579:Drivers/lvgl/src/draw/../misc/lv_color.h **** 
 580:Drivers/lvgl/src/draw/../misc/lv_color.h **** //! @endcond
 581:Drivers/lvgl/src/draw/../misc/lv_color.h **** 
 582:Drivers/lvgl/src/draw/../misc/lv_color.h **** /**
 583:Drivers/lvgl/src/draw/../misc/lv_color.h ****  * Get the brightness of a color
 584:Drivers/lvgl/src/draw/../misc/lv_color.h ****  * @param color a color
 585:Drivers/lvgl/src/draw/../misc/lv_color.h ****  * @return the brightness [0..255]
 586:Drivers/lvgl/src/draw/../misc/lv_color.h ****  */
 587:Drivers/lvgl/src/draw/../misc/lv_color.h **** static inline uint8_t lv_color_brightness(lv_color_t color)
 588:Drivers/lvgl/src/draw/../misc/lv_color.h **** {
 589:Drivers/lvgl/src/draw/../misc/lv_color.h ****     lv_color32_t c32;
 590:Drivers/lvgl/src/draw/../misc/lv_color.h ****     c32.full        = lv_color_to32(color);
 591:Drivers/lvgl/src/draw/../misc/lv_color.h ****     uint16_t bright = (uint16_t)(3u * LV_COLOR_GET_R32(c32) + LV_COLOR_GET_B32(c32) + 4u * LV_COLOR
 592:Drivers/lvgl/src/draw/../misc/lv_color.h ****     return (uint8_t)(bright >> 3);
 593:Drivers/lvgl/src/draw/../misc/lv_color.h **** }
 594:Drivers/lvgl/src/draw/../misc/lv_color.h **** 
 595:Drivers/lvgl/src/draw/../misc/lv_color.h **** static inline lv_color_t lv_color_make(uint8_t r, uint8_t g, uint8_t b)
 813              		.loc 3 595 26 is_stmt 1 discriminator 3 view .LVU277
 814              	.LBB30:
 596:Drivers/lvgl/src/draw/../misc/lv_color.h **** {
 597:Drivers/lvgl/src/draw/../misc/lv_color.h ****     return _LV_COLOR_MAKE_TYPE_HELPER LV_COLOR_MAKE(r, g, b);
 815              		.loc 3 597 5 discriminator 3 view .LVU278
 816              		.loc 3 597 39 is_stmt 0 discriminator 3 view .LVU279
 817 01b0 5D09     		lsrs	r5, r3, #5
 818 01b2 C008     		lsrs	r0, r0, #3
 819 01b4 D208     		lsrs	r2, r2, #3
 820 01b6 C3F38203 		ubfx	r3, r3, #2, #3
 821              	.LVL88:
 822              		.loc 3 597 12 discriminator 3 view .LVU280
 823 01ba 65F30206 		bfi	r6, r5, #0, #3
 824 01be 60F3C706 		bfi	r6, r0, #3, #5
 825 01c2 62F30C26 		bfi	r6, r2, #8, #5
 826 01c6 63F34F36 		bfi	r6, r3, #13, #3
 827              	.LVL89:
 828              		.loc 3 597 12 discriminator 3 view .LVU281
 829              	.LBE30:
 830              	.LBE29:
 438:Drivers/lvgl/src/draw/lv_img_decoder.c ****                 user_data->opa[i]     = cur_color.ch.alpha;
 831              		.loc 1 438 41 discriminator 3 view .LVU282
 832 01ca 21F81460 		strh	r6, [r1, r4, lsl #1]	@ movhi
 439:Drivers/lvgl/src/draw/lv_img_decoder.c ****             }
 833              		.loc 1 439 17 is_stmt 1 discriminator 3 view .LVU283
 439:Drivers/lvgl/src/draw/lv_img_decoder.c ****             }
 834              		.loc 1 439 26 is_stmt 0 discriminator 3 view .LVU284
 835 01ce D8F81030 		ldr	r3, [r8, #16]
 439:Drivers/lvgl/src/draw/lv_img_decoder.c ****             }
 836              		.loc 1 439 53 discriminator 3 view .LVU285
 837 01d2 9DF80720 		ldrb	r2, [sp, #7]	@ zero_extendqisi2
 439:Drivers/lvgl/src/draw/lv_img_decoder.c ****             }
 838              		.loc 1 439 39 discriminator 3 view .LVU286
 839 01d6 1A55     		strb	r2, [r3, r4]
 436:Drivers/lvgl/src/draw/lv_img_decoder.c ****                 lv_fs_read(&user_data->f, &cur_color, sizeof(lv_color32_t), NULL);
 840              		.loc 1 436 43 is_stmt 1 discriminator 3 view .LVU287
 841 01d8 0134     		adds	r4, r4, #1
 842              	.LVL90:
 843              	.L50:
 436:Drivers/lvgl/src/draw/lv_img_decoder.c ****                 lv_fs_read(&user_data->f, &cur_color, sizeof(lv_color32_t), NULL);
ARM GAS  /var/folders/0z/tsy30v1j4xl4_7kw94k978ww0000gn/T//cc1SwR9x.s 			page 43


 844              		.loc 1 436 26 discriminator 1 view .LVU288
 845 01da 4C45     		cmp	r4, r9
 846 01dc D9D3     		bcc	.L51
 847 01de 1EE0     		b	.L52
 848              	.LVL91:
 849              	.L54:
 436:Drivers/lvgl/src/draw/lv_img_decoder.c ****                 lv_fs_read(&user_data->f, &cur_color, sizeof(lv_color32_t), NULL);
 850              		.loc 1 436 26 is_stmt 0 discriminator 1 view .LVU289
 851              	.LBE28:
 852              	.LBB31:
 448:Drivers/lvgl/src/draw/lv_img_decoder.c ****                 user_data->opa[i]     = palette_p[i].ch.alpha;
 853              		.loc 1 448 17 is_stmt 1 discriminator 3 view .LVU290
 448:Drivers/lvgl/src/draw/lv_img_decoder.c ****                 user_data->opa[i]     = palette_p[i].ch.alpha;
 854              		.loc 1 448 64 is_stmt 0 discriminator 3 view .LVU291
 855 01e0 07EB8301 		add	r1, r7, r3, lsl #2
 448:Drivers/lvgl/src/draw/lv_img_decoder.c ****                 user_data->opa[i]     = palette_p[i].ch.alpha;
 856              		.loc 1 448 41 discriminator 3 view .LVU292
 857 01e4 8E78     		ldrb	r6, [r1, #2]	@ zero_extendqisi2
 858 01e6 4A78     		ldrb	r2, [r1, #1]	@ zero_extendqisi2
 859 01e8 17F82340 		ldrb	r4, [r7, r3, lsl #2]	@ zero_extendqisi2
 448:Drivers/lvgl/src/draw/lv_img_decoder.c ****                 user_data->opa[i]     = palette_p[i].ch.alpha;
 860              		.loc 1 448 26 discriminator 3 view .LVU293
 861 01ec D8F80C00 		ldr	r0, [r8, #12]
 862              	.LVL92:
 863              	.LBB26:
 864              	.LBI26:
 595:Drivers/lvgl/src/draw/../misc/lv_color.h **** {
 865              		.loc 3 595 26 is_stmt 1 discriminator 3 view .LVU294
 866              	.LBB27:
 867              		.loc 3 597 5 discriminator 3 view .LVU295
 868              		.loc 3 597 39 is_stmt 0 discriminator 3 view .LVU296
 869 01f0 4FEA521C 		lsr	ip, r2, #5
 870 01f4 F608     		lsrs	r6, r6, #3
 871 01f6 E408     		lsrs	r4, r4, #3
 872 01f8 C2F38202 		ubfx	r2, r2, #2, #3
 873              	.LVL93:
 874              		.loc 3 597 12 discriminator 3 view .LVU297
 875 01fc 6CF30205 		bfi	r5, ip, #0, #3
 876 0200 66F3C705 		bfi	r5, r6, #3, #5
 877 0204 64F30C25 		bfi	r5, r4, #8, #5
 878 0208 62F34F35 		bfi	r5, r2, #13, #3
 879              	.LVL94:
 880              		.loc 3 597 12 discriminator 3 view .LVU298
 881              	.LBE27:
 882              	.LBE26:
 448:Drivers/lvgl/src/draw/lv_img_decoder.c ****                 user_data->opa[i]     = palette_p[i].ch.alpha;
 883              		.loc 1 448 41 discriminator 3 view .LVU299
 884 020c 20F81350 		strh	r5, [r0, r3, lsl #1]	@ movhi
 449:Drivers/lvgl/src/draw/lv_img_decoder.c ****             }
 885              		.loc 1 449 17 is_stmt 1 discriminator 3 view .LVU300
 449:Drivers/lvgl/src/draw/lv_img_decoder.c ****             }
 886              		.loc 1 449 26 is_stmt 0 discriminator 3 view .LVU301
 887 0210 D8F81020 		ldr	r2, [r8, #16]
 449:Drivers/lvgl/src/draw/lv_img_decoder.c ****             }
 888              		.loc 1 449 56 discriminator 3 view .LVU302
 889 0214 C978     		ldrb	r1, [r1, #3]	@ zero_extendqisi2
 449:Drivers/lvgl/src/draw/lv_img_decoder.c ****             }
ARM GAS  /var/folders/0z/tsy30v1j4xl4_7kw94k978ww0000gn/T//cc1SwR9x.s 			page 44


 890              		.loc 1 449 39 discriminator 3 view .LVU303
 891 0216 D154     		strb	r1, [r2, r3]
 447:Drivers/lvgl/src/draw/lv_img_decoder.c ****                 user_data->palette[i] = lv_color_make(palette_p[i].ch.red, palette_p[i].ch.green, p
 892              		.loc 1 447 43 is_stmt 1 discriminator 3 view .LVU304
 893 0218 0133     		adds	r3, r3, #1
 894              	.LVL95:
 895              	.L53:
 447:Drivers/lvgl/src/draw/lv_img_decoder.c ****                 user_data->palette[i] = lv_color_make(palette_p[i].ch.red, palette_p[i].ch.green, p
 896              		.loc 1 447 26 discriminator 1 view .LVU305
 897 021a 4B45     		cmp	r3, r9
 898 021c E0D3     		bcc	.L54
 899              	.LVL96:
 900              	.L52:
 447:Drivers/lvgl/src/draw/lv_img_decoder.c ****                 user_data->palette[i] = lv_color_make(palette_p[i].ch.red, palette_p[i].ch.green, p
 901              		.loc 1 447 26 is_stmt 0 discriminator 1 view .LVU306
 902              	.LBE31:
 453:Drivers/lvgl/src/draw/lv_img_decoder.c ****     }
 903              		.loc 1 453 9 is_stmt 1 view .LVU307
 453:Drivers/lvgl/src/draw/lv_img_decoder.c ****     }
 904              		.loc 1 453 16 is_stmt 0 view .LVU308
 905 021e 0120     		movs	r0, #1
 906 0220 1EE7     		b	.L32
 907              	.LVL97:
 908              	.L34:
 453:Drivers/lvgl/src/draw/lv_img_decoder.c ****     }
 909              		.loc 1 453 16 view .LVU309
 910              	.LBE24:
 462:Drivers/lvgl/src/draw/lv_img_decoder.c **** 
 911              		.loc 1 462 9 is_stmt 1 view .LVU310
 912 0222 2146     		mov	r1, r4
 913 0224 3846     		mov	r0, r7
 914 0226 FFF7FEFF 		bl	lv_img_decoder_built_in_close
 915              	.LVL98:
 464:Drivers/lvgl/src/draw/lv_img_decoder.c ****         return LV_RES_INV;
 916              		.loc 1 464 9 view .LVU311
 464:Drivers/lvgl/src/draw/lv_img_decoder.c ****         return LV_RES_INV;
 917              		.loc 1 464 9 view .LVU312
 464:Drivers/lvgl/src/draw/lv_img_decoder.c ****         return LV_RES_INV;
 918              		.loc 1 464 9 view .LVU313
 465:Drivers/lvgl/src/draw/lv_img_decoder.c ****     }
 919              		.loc 1 465 9 view .LVU314
 465:Drivers/lvgl/src/draw/lv_img_decoder.c ****     }
 920              		.loc 1 465 16 is_stmt 0 view .LVU315
 921 022a 0020     		movs	r0, #0
 922 022c 18E7     		b	.L32
 923              	.LVL99:
 924              	.L55:
 364:Drivers/lvgl/src/draw/lv_img_decoder.c ****         if(dsc->src_type == LV_IMG_SRC_VARIABLE) {
 925              		.loc 1 364 7 view .LVU316
 926 022e 0120     		movs	r0, #1
 927 0230 16E7     		b	.L32
 928              	.LVL100:
 929              	.L57:
 930              	.LBB32:
 376:Drivers/lvgl/src/draw/lv_img_decoder.c **** 
 931              		.loc 1 376 39 view .LVU317
 932 0232 0020     		movs	r0, #0
ARM GAS  /var/folders/0z/tsy30v1j4xl4_7kw94k978ww0000gn/T//cc1SwR9x.s 			page 45


 933              	.LVL101:
 376:Drivers/lvgl/src/draw/lv_img_decoder.c **** 
 934              		.loc 1 376 39 view .LVU318
 935 0234 14E7     		b	.L32
 936              	.LVL102:
 937              	.L58:
 376:Drivers/lvgl/src/draw/lv_img_decoder.c **** 
 938              		.loc 1 376 39 view .LVU319
 939              	.LBE32:
 400:Drivers/lvgl/src/draw/lv_img_decoder.c ****         }
 940              		.loc 1 400 20 view .LVU320
 941 0236 0120     		movs	r0, #1
 942 0238 12E7     		b	.L32
 943              	.L71:
 944 023a 00BF     		.align	2
 945              	.L70:
 946 023c 00000000 		.word	.LC0
 947              		.cfi_endproc
 948              	.LFE68:
 950              		.section	.text.lv_img_decoder_built_in_line_true_color,"ax",%progbits
 951              		.align	1
 952              		.syntax unified
 953              		.thumb
 954              		.thumb_func
 956              	lv_img_decoder_built_in_line_true_color:
 957              	.LVL103:
 958              	.LFB71:
 532:Drivers/lvgl/src/draw/lv_img_decoder.c **** 
 533:Drivers/lvgl/src/draw/lv_img_decoder.c **** /**********************
 534:Drivers/lvgl/src/draw/lv_img_decoder.c ****  *   STATIC FUNCTIONS
 535:Drivers/lvgl/src/draw/lv_img_decoder.c ****  **********************/
 536:Drivers/lvgl/src/draw/lv_img_decoder.c **** 
 537:Drivers/lvgl/src/draw/lv_img_decoder.c **** static lv_res_t lv_img_decoder_built_in_line_true_color(lv_img_decoder_dsc_t * dsc, lv_coord_t x, l
 538:Drivers/lvgl/src/draw/lv_img_decoder.c ****                                                         lv_coord_t len, uint8_t * buf)
 539:Drivers/lvgl/src/draw/lv_img_decoder.c **** {
 959              		.loc 1 539 1 is_stmt 1 view -0
 960              		.cfi_startproc
 961              		@ args = 4, pretend = 0, frame = 8
 962              		@ frame_needed = 0, uses_anonymous_args = 0
 963              		.loc 1 539 1 is_stmt 0 view .LVU322
 964 0000 2DE9F043 		push	{r4, r5, r6, r7, r8, r9, lr}
 965              		.cfi_def_cfa_offset 28
 966              		.cfi_offset 4, -28
 967              		.cfi_offset 5, -24
 968              		.cfi_offset 6, -20
 969              		.cfi_offset 7, -16
 970              		.cfi_offset 8, -12
 971              		.cfi_offset 9, -8
 972              		.cfi_offset 14, -4
 973 0004 83B0     		sub	sp, sp, #12
 974              		.cfi_def_cfa_offset 40
 975 0006 0546     		mov	r5, r0
 976 0008 0C46     		mov	r4, r1
 977 000a 9146     		mov	r9, r2
 978 000c 1F46     		mov	r7, r3
 540:Drivers/lvgl/src/draw/lv_img_decoder.c ****     lv_img_decoder_built_in_data_t * user_data = dsc->user_data;
 979              		.loc 1 540 5 is_stmt 1 view .LVU323
ARM GAS  /var/folders/0z/tsy30v1j4xl4_7kw94k978ww0000gn/T//cc1SwR9x.s 			page 46


 980              		.loc 1 540 38 is_stmt 0 view .LVU324
 981 000e D0F82480 		ldr	r8, [r0, #36]
 982              	.LVL104:
 541:Drivers/lvgl/src/draw/lv_img_decoder.c ****     lv_fs_res_t res;
 983              		.loc 1 541 5 is_stmt 1 view .LVU325
 542:Drivers/lvgl/src/draw/lv_img_decoder.c ****     uint8_t px_size = lv_img_cf_get_px_size(dsc->header.cf);
 984              		.loc 1 542 5 view .LVU326
 985              		.loc 1 542 56 is_stmt 0 view .LVU327
 986 0012 007D     		ldrb	r0, [r0, #20]	@ zero_extendqisi2
 987              	.LVL105:
 988              		.loc 1 542 23 view .LVU328
 989 0014 00F01F00 		and	r0, r0, #31
 990 0018 FFF7FEFF 		bl	lv_img_cf_get_px_size
 991              	.LVL106:
 992              		.loc 1 542 23 view .LVU329
 993 001c 0646     		mov	r6, r0
 994              	.LVL107:
 543:Drivers/lvgl/src/draw/lv_img_decoder.c **** 
 544:Drivers/lvgl/src/draw/lv_img_decoder.c ****     uint32_t pos = ((y * dsc->header.w + x) * px_size) >> 3;
 995              		.loc 1 544 5 is_stmt 1 view .LVU330
 996              		.loc 1 544 37 is_stmt 0 view .LVU331
 997 001e 6B69     		ldr	r3, [r5, #20]
 998 0020 C3F38A23 		ubfx	r3, r3, #10, #11
 999              		.loc 1 544 40 view .LVU332
 1000 0024 03FB0941 		mla	r1, r3, r9, r4
 1001              		.loc 1 544 45 view .LVU333
 1002 0028 00FB01F1 		mul	r1, r0, r1
 1003              		.loc 1 544 56 view .LVU334
 1004 002c C910     		asrs	r1, r1, #3
 1005              	.LVL108:
 545:Drivers/lvgl/src/draw/lv_img_decoder.c ****     pos += 4; /*Skip the header*/
 1006              		.loc 1 545 5 is_stmt 1 view .LVU335
 546:Drivers/lvgl/src/draw/lv_img_decoder.c ****     res = lv_fs_seek(&user_data->f, pos, LV_FS_SEEK_SET);
 1007              		.loc 1 546 5 view .LVU336
 1008              		.loc 1 546 11 is_stmt 0 view .LVU337
 1009 002e 0022     		movs	r2, #0
 1010 0030 0431     		adds	r1, r1, #4
 1011              	.LVL109:
 1012              		.loc 1 546 11 view .LVU338
 1013 0032 4046     		mov	r0, r8
 1014              	.LVL110:
 1015              		.loc 1 546 11 view .LVU339
 1016 0034 FFF7FEFF 		bl	lv_fs_seek
 1017              	.LVL111:
 547:Drivers/lvgl/src/draw/lv_img_decoder.c ****     if(res != LV_FS_RES_OK) {
 1018              		.loc 1 547 5 is_stmt 1 view .LVU340
 1019              		.loc 1 547 7 is_stmt 0 view .LVU341
 1020 0038 20B1     		cbz	r0, .L76
 548:Drivers/lvgl/src/draw/lv_img_decoder.c ****         LV_LOG_WARN("Built-in image decoder seek failed");
 549:Drivers/lvgl/src/draw/lv_img_decoder.c ****         return LV_RES_INV;
 1021              		.loc 1 549 16 view .LVU342
 1022 003a 0024     		movs	r4, #0
 1023              	.L73:
 550:Drivers/lvgl/src/draw/lv_img_decoder.c ****     }
 551:Drivers/lvgl/src/draw/lv_img_decoder.c ****     uint32_t btr = len * (px_size >> 3);
 552:Drivers/lvgl/src/draw/lv_img_decoder.c ****     uint32_t br  = 0;
 553:Drivers/lvgl/src/draw/lv_img_decoder.c ****     res = lv_fs_read(&user_data->f, buf, btr, &br);
ARM GAS  /var/folders/0z/tsy30v1j4xl4_7kw94k978ww0000gn/T//cc1SwR9x.s 			page 47


 554:Drivers/lvgl/src/draw/lv_img_decoder.c ****     if(res != LV_FS_RES_OK || btr != br) {
 555:Drivers/lvgl/src/draw/lv_img_decoder.c ****         LV_LOG_WARN("Built-in image decoder read failed");
 556:Drivers/lvgl/src/draw/lv_img_decoder.c ****         return LV_RES_INV;
 557:Drivers/lvgl/src/draw/lv_img_decoder.c ****     }
 558:Drivers/lvgl/src/draw/lv_img_decoder.c **** 
 559:Drivers/lvgl/src/draw/lv_img_decoder.c ****     return LV_RES_OK;
 560:Drivers/lvgl/src/draw/lv_img_decoder.c **** }
 1024              		.loc 1 560 1 view .LVU343
 1025 003c 2046     		mov	r0, r4
 1026              	.LVL112:
 1027              		.loc 1 560 1 view .LVU344
 1028 003e 03B0     		add	sp, sp, #12
 1029              		.cfi_remember_state
 1030              		.cfi_def_cfa_offset 28
 1031              		@ sp needed
 1032 0040 BDE8F083 		pop	{r4, r5, r6, r7, r8, r9, pc}
 1033              	.LVL113:
 1034              	.L76:
 1035              		.cfi_restore_state
 1036              		.loc 1 560 1 view .LVU345
 1037 0044 0446     		mov	r4, r0
 551:Drivers/lvgl/src/draw/lv_img_decoder.c ****     uint32_t br  = 0;
 1038              		.loc 1 551 5 is_stmt 1 view .LVU346
 551:Drivers/lvgl/src/draw/lv_img_decoder.c ****     uint32_t br  = 0;
 1039              		.loc 1 551 35 is_stmt 0 view .LVU347
 1040 0046 C6F3C706 		ubfx	r6, r6, #3, #8
 551:Drivers/lvgl/src/draw/lv_img_decoder.c ****     uint32_t br  = 0;
 1041              		.loc 1 551 24 view .LVU348
 1042 004a 06FB07F7 		mul	r7, r6, r7
 1043              	.LVL114:
 552:Drivers/lvgl/src/draw/lv_img_decoder.c ****     res = lv_fs_read(&user_data->f, buf, btr, &br);
 1044              		.loc 1 552 5 is_stmt 1 view .LVU349
 552:Drivers/lvgl/src/draw/lv_img_decoder.c ****     res = lv_fs_read(&user_data->f, buf, btr, &br);
 1045              		.loc 1 552 14 is_stmt 0 view .LVU350
 1046 004e 0023     		movs	r3, #0
 1047 0050 0193     		str	r3, [sp, #4]
 553:Drivers/lvgl/src/draw/lv_img_decoder.c ****     if(res != LV_FS_RES_OK || btr != br) {
 1048              		.loc 1 553 5 is_stmt 1 view .LVU351
 553:Drivers/lvgl/src/draw/lv_img_decoder.c ****     if(res != LV_FS_RES_OK || btr != br) {
 1049              		.loc 1 553 11 is_stmt 0 view .LVU352
 1050 0052 01AB     		add	r3, sp, #4
 1051 0054 3A46     		mov	r2, r7
 1052 0056 0A99     		ldr	r1, [sp, #40]
 1053 0058 4046     		mov	r0, r8
 1054              	.LVL115:
 553:Drivers/lvgl/src/draw/lv_img_decoder.c ****     if(res != LV_FS_RES_OK || btr != br) {
 1055              		.loc 1 553 11 view .LVU353
 1056 005a FFF7FEFF 		bl	lv_fs_read
 1057              	.LVL116:
 554:Drivers/lvgl/src/draw/lv_img_decoder.c ****         LV_LOG_WARN("Built-in image decoder read failed");
 1058              		.loc 1 554 5 is_stmt 1 view .LVU354
 554:Drivers/lvgl/src/draw/lv_img_decoder.c ****         LV_LOG_WARN("Built-in image decoder read failed");
 1059              		.loc 1 554 7 is_stmt 0 view .LVU355
 1060 005e 0028     		cmp	r0, #0
 1061 0060 ECD1     		bne	.L73
 554:Drivers/lvgl/src/draw/lv_img_decoder.c ****         LV_LOG_WARN("Built-in image decoder read failed");
 1062              		.loc 1 554 35 discriminator 1 view .LVU356
ARM GAS  /var/folders/0z/tsy30v1j4xl4_7kw94k978ww0000gn/T//cc1SwR9x.s 			page 48


 1063 0062 019B     		ldr	r3, [sp, #4]
 554:Drivers/lvgl/src/draw/lv_img_decoder.c ****         LV_LOG_WARN("Built-in image decoder read failed");
 1064              		.loc 1 554 28 discriminator 1 view .LVU357
 1065 0064 BB42     		cmp	r3, r7
 1066 0066 E9D1     		bne	.L73
 559:Drivers/lvgl/src/draw/lv_img_decoder.c **** }
 1067              		.loc 1 559 12 view .LVU358
 1068 0068 0124     		movs	r4, #1
 1069 006a E7E7     		b	.L73
 1070              		.cfi_endproc
 1071              	.LFE71:
 1073              		.section	.text.lv_img_decoder_built_in_line_alpha,"ax",%progbits
 1074              		.align	1
 1075              		.syntax unified
 1076              		.thumb
 1077              		.thumb_func
 1079              	lv_img_decoder_built_in_line_alpha:
 1080              	.LVL117:
 1081              	.LFB72:
 561:Drivers/lvgl/src/draw/lv_img_decoder.c **** 
 562:Drivers/lvgl/src/draw/lv_img_decoder.c **** static lv_res_t lv_img_decoder_built_in_line_alpha(lv_img_decoder_dsc_t * dsc, lv_coord_t x, lv_coo
 563:Drivers/lvgl/src/draw/lv_img_decoder.c ****                                                    lv_coord_t len, uint8_t * buf)
 564:Drivers/lvgl/src/draw/lv_img_decoder.c **** {
 1082              		.loc 1 564 1 is_stmt 1 view -0
 1083              		.cfi_startproc
 1084              		@ args = 4, pretend = 0, frame = 40
 1085              		@ frame_needed = 0, uses_anonymous_args = 0
 1086              		.loc 1 564 1 is_stmt 0 view .LVU360
 1087 0000 2DE9F04F 		push	{r4, r5, r6, r7, r8, r9, r10, fp, lr}
 1088              		.cfi_def_cfa_offset 36
 1089              		.cfi_offset 4, -36
 1090              		.cfi_offset 5, -32
 1091              		.cfi_offset 6, -28
 1092              		.cfi_offset 7, -24
 1093              		.cfi_offset 8, -20
 1094              		.cfi_offset 9, -16
 1095              		.cfi_offset 10, -12
 1096              		.cfi_offset 11, -8
 1097              		.cfi_offset 14, -4
 1098 0004 8BB0     		sub	sp, sp, #44
 1099              		.cfi_def_cfa_offset 80
 1100 0006 0746     		mov	r7, r0
 1101 0008 0C46     		mov	r4, r1
 1102 000a 9246     		mov	r10, r2
 1103 000c 1E46     		mov	r6, r3
 1104 000e 149D     		ldr	r5, [sp, #80]
 565:Drivers/lvgl/src/draw/lv_img_decoder.c ****     const lv_opa_t alpha1_opa_table[2]  = {0, 255};          /*Opacity mapping with bpp = 1 (Just f
 1105              		.loc 1 565 5 is_stmt 1 view .LVU361
 1106              		.loc 1 565 20 is_stmt 0 view .LVU362
 1107 0010 4FF47F43 		mov	r3, #65280
 1108              	.LVL118:
 1109              		.loc 1 565 20 view .LVU363
 1110 0014 ADF82430 		strh	r3, [sp, #36]	@ movhi
 566:Drivers/lvgl/src/draw/lv_img_decoder.c ****     const lv_opa_t alpha2_opa_table[4]  = {0, 85, 170, 255}; /*Opacity mapping with bpp = 2*/
 1111              		.loc 1 566 5 is_stmt 1 view .LVU364
 1112              		.loc 1 566 20 is_stmt 0 view .LVU365
 1113 0018 A3F5AD03 		sub	r3, r3, #5668864
ARM GAS  /var/folders/0z/tsy30v1j4xl4_7kw94k978ww0000gn/T//cc1SwR9x.s 			page 49


 1114 001c A3F52853 		sub	r3, r3, #10752
 1115 0020 0893     		str	r3, [sp, #32]
 567:Drivers/lvgl/src/draw/lv_img_decoder.c ****     const lv_opa_t alpha4_opa_table[16] = {0,  17, 34,  51,  /*Opacity mapping with bpp = 4*/
 1116              		.loc 1 567 5 is_stmt 1 view .LVU366
 1117              		.loc 1 567 20 is_stmt 0 view .LVU367
 1118 0022 594B     		ldr	r3, .L98
 1119 0024 0DF1100C 		add	ip, sp, #16
 1120 0028 0FCB     		ldm	r3, {r0, r1, r2, r3}
 1121              	.LVL119:
 1122              		.loc 1 567 20 view .LVU368
 1123 002a 8CE80F00 		stm	ip, {r0, r1, r2, r3}
 568:Drivers/lvgl/src/draw/lv_img_decoder.c ****                                            68, 85, 102, 119, 136, 153, 170, 187, 204, 221, 238, 255
 569:Drivers/lvgl/src/draw/lv_img_decoder.c ****                                           };
 570:Drivers/lvgl/src/draw/lv_img_decoder.c **** 
 571:Drivers/lvgl/src/draw/lv_img_decoder.c ****     /*Simply fill the buffer with the color. Later only the alpha value will be modified.*/
 572:Drivers/lvgl/src/draw/lv_img_decoder.c ****     lv_color_t bg_color = dsc->color;
 1124              		.loc 1 572 5 is_stmt 1 view .LVU369
 1125              		.loc 1 572 16 is_stmt 0 view .LVU370
 1126 002e 3889     		ldrh	r0, [r7, #8]
 573:Drivers/lvgl/src/draw/lv_img_decoder.c ****     lv_coord_t i;
 1127              		.loc 1 573 5 is_stmt 1 view .LVU371
 574:Drivers/lvgl/src/draw/lv_img_decoder.c ****     for(i = 0; i < len; i++) {
 1128              		.loc 1 574 5 view .LVU372
 1129              	.LVL120:
 1130              		.loc 1 574 11 is_stmt 0 view .LVU373
 1131 0030 0023     		movs	r3, #0
 1132              		.loc 1 574 5 view .LVU374
 1133 0032 08E0     		b	.L78
 1134              	.LVL121:
 1135              	.L79:
 575:Drivers/lvgl/src/draw/lv_img_decoder.c **** #if LV_COLOR_DEPTH == 8 || LV_COLOR_DEPTH == 1
 576:Drivers/lvgl/src/draw/lv_img_decoder.c ****         buf[i * LV_IMG_PX_SIZE_ALPHA_BYTE] = bg_color.full;
 577:Drivers/lvgl/src/draw/lv_img_decoder.c **** #elif LV_COLOR_DEPTH == 16
 578:Drivers/lvgl/src/draw/lv_img_decoder.c ****         /*Because of Alpha byte 16 bit color can start on odd address which can cause crash*/
 579:Drivers/lvgl/src/draw/lv_img_decoder.c ****         buf[i * LV_IMG_PX_SIZE_ALPHA_BYTE] = bg_color.full & 0xFF;
 1136              		.loc 1 579 9 is_stmt 1 discriminator 3 view .LVU375
 1137              		.loc 1 579 54 is_stmt 0 discriminator 3 view .LVU376
 1138 0034 82B2     		uxth	r2, r0
 1139              		.loc 1 579 15 discriminator 3 view .LVU377
 1140 0036 03EB4301 		add	r1, r3, r3, lsl #1
 1141              		.loc 1 579 44 discriminator 3 view .LVU378
 1142 003a 6A54     		strb	r2, [r5, r1]
 580:Drivers/lvgl/src/draw/lv_img_decoder.c ****         buf[i * LV_IMG_PX_SIZE_ALPHA_BYTE + 1] = (bg_color.full >> 8) & 0xFF;
 1143              		.loc 1 580 9 is_stmt 1 discriminator 3 view .LVU379
 1144              		.loc 1 580 12 is_stmt 0 discriminator 3 view .LVU380
 1145 003c 0131     		adds	r1, r1, #1
 1146              		.loc 1 580 48 discriminator 3 view .LVU381
 1147 003e 120A     		lsrs	r2, r2, #8
 1148 0040 6A54     		strb	r2, [r5, r1]
 574:Drivers/lvgl/src/draw/lv_img_decoder.c ****     for(i = 0; i < len; i++) {
 1149              		.loc 1 574 26 is_stmt 1 discriminator 3 view .LVU382
 1150 0042 0133     		adds	r3, r3, #1
 1151              	.LVL122:
 574:Drivers/lvgl/src/draw/lv_img_decoder.c ****     for(i = 0; i < len; i++) {
 1152              		.loc 1 574 26 is_stmt 0 discriminator 3 view .LVU383
 1153 0044 1BB2     		sxth	r3, r3
 1154              	.LVL123:
ARM GAS  /var/folders/0z/tsy30v1j4xl4_7kw94k978ww0000gn/T//cc1SwR9x.s 			page 50


 1155              	.L78:
 574:Drivers/lvgl/src/draw/lv_img_decoder.c ****     for(i = 0; i < len; i++) {
 1156              		.loc 1 574 18 is_stmt 1 discriminator 1 view .LVU384
 1157 0046 B342     		cmp	r3, r6
 1158 0048 F4DB     		blt	.L79
 581:Drivers/lvgl/src/draw/lv_img_decoder.c **** #elif LV_COLOR_DEPTH == 32
 582:Drivers/lvgl/src/draw/lv_img_decoder.c ****         *((uint32_t *)&buf[i * LV_IMG_PX_SIZE_ALPHA_BYTE]) = bg_color.full;
 583:Drivers/lvgl/src/draw/lv_img_decoder.c **** #else
 584:Drivers/lvgl/src/draw/lv_img_decoder.c **** #error "Invalid LV_COLOR_DEPTH. Check it in lv_conf.h"
 585:Drivers/lvgl/src/draw/lv_img_decoder.c **** #endif
 586:Drivers/lvgl/src/draw/lv_img_decoder.c ****     }
 587:Drivers/lvgl/src/draw/lv_img_decoder.c **** 
 588:Drivers/lvgl/src/draw/lv_img_decoder.c ****     const lv_opa_t * opa_table = NULL;
 1159              		.loc 1 588 5 view .LVU385
 1160              	.LVL124:
 589:Drivers/lvgl/src/draw/lv_img_decoder.c ****     uint8_t px_size            = lv_img_cf_get_px_size(dsc->header.cf);
 1161              		.loc 1 589 5 view .LVU386
 1162              		.loc 1 589 67 is_stmt 0 view .LVU387
 1163 004a 387D     		ldrb	r0, [r7, #20]	@ zero_extendqisi2
 1164              	.LVL125:
 1165              		.loc 1 589 34 view .LVU388
 1166 004c 00F01F00 		and	r0, r0, #31
 1167 0050 FFF7FEFF 		bl	lv_img_cf_get_px_size
 1168              	.LVL126:
 1169              		.loc 1 589 34 view .LVU389
 1170 0054 8146     		mov	r9, r0
 1171              	.LVL127:
 590:Drivers/lvgl/src/draw/lv_img_decoder.c ****     uint16_t mask              = (1 << px_size) - 1; /*E.g. px_size = 2; mask = 0x03*/
 1172              		.loc 1 590 5 is_stmt 1 view .LVU390
 1173              		.loc 1 590 37 is_stmt 0 view .LVU391
 1174 0056 4FF00108 		mov	r8, #1
 1175 005a 08FA00F8 		lsl	r8, r8, r0
 1176              		.loc 1 590 49 view .LVU392
 1177 005e 1FFA88F8 		uxth	r8, r8
 1178              		.loc 1 590 14 view .LVU393
 1179 0062 08F1FF38 		add	r8, r8, #-1
 1180 0066 1FFA88F8 		uxth	r8, r8
 1181              	.LVL128:
 591:Drivers/lvgl/src/draw/lv_img_decoder.c **** 
 592:Drivers/lvgl/src/draw/lv_img_decoder.c ****     lv_coord_t w = 0;
 1182              		.loc 1 592 5 is_stmt 1 view .LVU394
 593:Drivers/lvgl/src/draw/lv_img_decoder.c ****     uint32_t ofs = 0;
 1183              		.loc 1 593 5 view .LVU395
 594:Drivers/lvgl/src/draw/lv_img_decoder.c ****     int8_t pos   = 0;
 1184              		.loc 1 594 5 view .LVU396
 595:Drivers/lvgl/src/draw/lv_img_decoder.c ****     switch(dsc->header.cf) {
 1185              		.loc 1 595 5 view .LVU397
 1186              		.loc 1 595 23 is_stmt 0 view .LVU398
 1187 006a 3B7D     		ldrb	r3, [r7, #20]	@ zero_extendqisi2
 1188 006c 03F01F03 		and	r3, r3, #31
 1189              		.loc 1 595 5 view .LVU399
 1190 0070 0B3B     		subs	r3, r3, #11
 1191 0072 032B     		cmp	r3, #3
 1192 0074 47D8     		bhi	.L93
 1193 0076 DFE803F0 		tbb	[pc, r3]
 1194              	.L82:
 1195 007a 02       		.byte	(.L85-.L82)/2
ARM GAS  /var/folders/0z/tsy30v1j4xl4_7kw94k978ww0000gn/T//cc1SwR9x.s 			page 51


 1196 007b 1E       		.byte	(.L84-.L82)/2
 1197 007c 2E       		.byte	(.L83-.L82)/2
 1198 007d 3D       		.byte	(.L81-.L82)/2
 1199              		.p2align 1
 1200              	.L85:
 596:Drivers/lvgl/src/draw/lv_img_decoder.c ****         case LV_IMG_CF_ALPHA_1BIT:
 597:Drivers/lvgl/src/draw/lv_img_decoder.c ****             w = (dsc->header.w + 7) >> 3; /*E.g. w = 20 -> w = 2 + 1*/
 1201              		.loc 1 597 13 is_stmt 1 view .LVU400
 1202              		.loc 1 597 29 is_stmt 0 view .LVU401
 1203 007e 7B69     		ldr	r3, [r7, #20]
 1204 0080 C3F38A20 		ubfx	r0, r3, #10, #11
 1205              	.LVL129:
 1206              		.loc 1 597 32 view .LVU402
 1207 0084 0730     		adds	r0, r0, #7
 1208              		.loc 1 597 15 view .LVU403
 1209 0086 C010     		asrs	r0, r0, #3
 1210              	.LVL130:
 598:Drivers/lvgl/src/draw/lv_img_decoder.c ****             ofs += w * y + (x >> 3); /*First pixel*/
 1211              		.loc 1 598 13 is_stmt 1 view .LVU404
 1212              		.loc 1 598 31 is_stmt 0 view .LVU405
 1213 0088 E310     		asrs	r3, r4, #3
 1214              		.loc 1 598 26 view .LVU406
 1215 008a 0AFB003A 		mla	r10, r10, r0, r3
 1216              	.LVL131:
 599:Drivers/lvgl/src/draw/lv_img_decoder.c ****             pos = 7 - (x & 0x7);
 1217              		.loc 1 599 13 is_stmt 1 view .LVU407
 1218              		.loc 1 599 21 is_stmt 0 view .LVU408
 1219 008e E443     		mvns	r4, r4
 1220              		.loc 1 599 17 view .LVU409
 1221 0090 04F00704 		and	r4, r4, #7
 1222              	.LVL132:
 600:Drivers/lvgl/src/draw/lv_img_decoder.c ****             opa_table = alpha1_opa_table;
 1223              		.loc 1 600 13 is_stmt 1 view .LVU410
 601:Drivers/lvgl/src/draw/lv_img_decoder.c ****             break;
 1224              		.loc 1 601 13 view .LVU411
 600:Drivers/lvgl/src/draw/lv_img_decoder.c ****             opa_table = alpha1_opa_table;
 1225              		.loc 1 600 23 is_stmt 0 view .LVU412
 1226 0094 0DF1240B 		add	fp, sp, #36
 1227              	.LVL133:
 1228              	.L80:
 602:Drivers/lvgl/src/draw/lv_img_decoder.c ****         case LV_IMG_CF_ALPHA_2BIT:
 603:Drivers/lvgl/src/draw/lv_img_decoder.c ****             w = (dsc->header.w + 3) >> 2; /*E.g. w = 13 -> w = 3 + 1 (bytes)*/
 604:Drivers/lvgl/src/draw/lv_img_decoder.c ****             ofs += w * y + (x >> 2); /*First pixel*/
 605:Drivers/lvgl/src/draw/lv_img_decoder.c ****             pos = 6 - (x & 0x3) * 2;
 606:Drivers/lvgl/src/draw/lv_img_decoder.c ****             opa_table = alpha2_opa_table;
 607:Drivers/lvgl/src/draw/lv_img_decoder.c ****             break;
 608:Drivers/lvgl/src/draw/lv_img_decoder.c ****         case LV_IMG_CF_ALPHA_4BIT:
 609:Drivers/lvgl/src/draw/lv_img_decoder.c ****             w = (dsc->header.w + 1) >> 1; /*E.g. w = 13 -> w = 6 + 1 (bytes)*/
 610:Drivers/lvgl/src/draw/lv_img_decoder.c ****             ofs += w * y + (x >> 1); /*First pixel*/
 611:Drivers/lvgl/src/draw/lv_img_decoder.c ****             pos = 4 - (x & 0x1) * 4;
 612:Drivers/lvgl/src/draw/lv_img_decoder.c ****             opa_table = alpha4_opa_table;
 613:Drivers/lvgl/src/draw/lv_img_decoder.c ****             break;
 614:Drivers/lvgl/src/draw/lv_img_decoder.c ****         case LV_IMG_CF_ALPHA_8BIT:
 615:Drivers/lvgl/src/draw/lv_img_decoder.c ****             w = dsc->header.w; /*E.g. x = 7 -> w = 7 (bytes)*/
 616:Drivers/lvgl/src/draw/lv_img_decoder.c ****             ofs += w * y + x;  /*First pixel*/
 617:Drivers/lvgl/src/draw/lv_img_decoder.c ****             pos = 0;
 618:Drivers/lvgl/src/draw/lv_img_decoder.c ****             break;
ARM GAS  /var/folders/0z/tsy30v1j4xl4_7kw94k978ww0000gn/T//cc1SwR9x.s 			page 52


 619:Drivers/lvgl/src/draw/lv_img_decoder.c ****     }
 620:Drivers/lvgl/src/draw/lv_img_decoder.c **** 
 621:Drivers/lvgl/src/draw/lv_img_decoder.c ****     lv_img_decoder_built_in_data_t * user_data = dsc->user_data;
 1229              		.loc 1 621 5 is_stmt 1 view .LVU413
 1230              		.loc 1 621 38 is_stmt 0 view .LVU414
 1231 0098 7B6A     		ldr	r3, [r7, #36]
 1232 009a 0293     		str	r3, [sp, #8]
 1233              	.LVL134:
 622:Drivers/lvgl/src/draw/lv_img_decoder.c ****     uint8_t * fs_buf = lv_mem_buf_get(w);
 1234              		.loc 1 622 5 is_stmt 1 view .LVU415
 1235              		.loc 1 622 24 is_stmt 0 view .LVU416
 1236 009c 0390     		str	r0, [sp, #12]
 1237 009e FFF7FEFF 		bl	lv_mem_buf_get
 1238              	.LVL135:
 623:Drivers/lvgl/src/draw/lv_img_decoder.c ****     if(fs_buf == NULL) return LV_RES_INV;
 1239              		.loc 1 623 5 is_stmt 1 view .LVU417
 1240              		.loc 1 623 7 is_stmt 0 view .LVU418
 1241 00a2 0190     		str	r0, [sp, #4]
 1242 00a4 0028     		cmp	r0, #0
 1243 00a6 6CD0     		beq	.L95
 624:Drivers/lvgl/src/draw/lv_img_decoder.c **** 
 625:Drivers/lvgl/src/draw/lv_img_decoder.c ****     const uint8_t * data_tmp = NULL;
 1244              		.loc 1 625 5 is_stmt 1 view .LVU419
 1245              	.LVL136:
 626:Drivers/lvgl/src/draw/lv_img_decoder.c ****     if(dsc->src_type == LV_IMG_SRC_VARIABLE) {
 1246              		.loc 1 626 5 view .LVU420
 1247              		.loc 1 626 11 is_stmt 0 view .LVU421
 1248 00a8 3B7C     		ldrb	r3, [r7, #16]	@ zero_extendqisi2
 1249              		.loc 1 626 7 view .LVU422
 1250 00aa ABBB     		cbnz	r3, .L87
 1251              	.LBB33:
 627:Drivers/lvgl/src/draw/lv_img_decoder.c ****         const lv_img_dsc_t * img_dsc = dsc->src;
 1252              		.loc 1 627 9 is_stmt 1 view .LVU423
 1253              		.loc 1 627 30 is_stmt 0 view .LVU424
 1254 00ac 7B68     		ldr	r3, [r7, #4]
 1255              	.LVL137:
 628:Drivers/lvgl/src/draw/lv_img_decoder.c **** 
 629:Drivers/lvgl/src/draw/lv_img_decoder.c ****         data_tmp = img_dsc->data + ofs;
 1256              		.loc 1 629 9 is_stmt 1 view .LVU425
 1257              		.loc 1 629 27 is_stmt 0 view .LVU426
 1258 00ae 9968     		ldr	r1, [r3, #8]
 1259              		.loc 1 629 18 view .LVU427
 1260 00b0 5144     		add	r1, r1, r10
 1261              	.LVL138:
 1262              	.L88:
 1263              		.loc 1 629 18 view .LVU428
 1264              	.LBE33:
 630:Drivers/lvgl/src/draw/lv_img_decoder.c ****     }
 631:Drivers/lvgl/src/draw/lv_img_decoder.c ****     else {
 632:Drivers/lvgl/src/draw/lv_img_decoder.c ****         lv_fs_seek(&user_data->f, ofs + 4, LV_FS_SEEK_SET); /*+4 to skip the header*/
 633:Drivers/lvgl/src/draw/lv_img_decoder.c ****         lv_fs_read(&user_data->f, fs_buf, w, NULL);
 634:Drivers/lvgl/src/draw/lv_img_decoder.c ****         data_tmp = fs_buf;
 1265              		.loc 1 634 18 discriminator 1 view .LVU429
 1266 00b2 0022     		movs	r2, #0
 1267 00b4 42E0     		b	.L91
 1268              	.LVL139:
 1269              	.L84:
ARM GAS  /var/folders/0z/tsy30v1j4xl4_7kw94k978ww0000gn/T//cc1SwR9x.s 			page 53


 603:Drivers/lvgl/src/draw/lv_img_decoder.c ****             ofs += w * y + (x >> 2); /*First pixel*/
 1270              		.loc 1 603 13 is_stmt 1 view .LVU430
 603:Drivers/lvgl/src/draw/lv_img_decoder.c ****             ofs += w * y + (x >> 2); /*First pixel*/
 1271              		.loc 1 603 29 is_stmt 0 view .LVU431
 1272 00b6 7B69     		ldr	r3, [r7, #20]
 1273 00b8 C3F38A20 		ubfx	r0, r3, #10, #11
 1274              	.LVL140:
 603:Drivers/lvgl/src/draw/lv_img_decoder.c ****             ofs += w * y + (x >> 2); /*First pixel*/
 1275              		.loc 1 603 32 view .LVU432
 1276 00bc 0330     		adds	r0, r0, #3
 603:Drivers/lvgl/src/draw/lv_img_decoder.c ****             ofs += w * y + (x >> 2); /*First pixel*/
 1277              		.loc 1 603 15 view .LVU433
 1278 00be 8010     		asrs	r0, r0, #2
 1279              	.LVL141:
 604:Drivers/lvgl/src/draw/lv_img_decoder.c ****             pos = 6 - (x & 0x3) * 2;
 1280              		.loc 1 604 13 is_stmt 1 view .LVU434
 604:Drivers/lvgl/src/draw/lv_img_decoder.c ****             pos = 6 - (x & 0x3) * 2;
 1281              		.loc 1 604 31 is_stmt 0 view .LVU435
 1282 00c0 A310     		asrs	r3, r4, #2
 604:Drivers/lvgl/src/draw/lv_img_decoder.c ****             pos = 6 - (x & 0x3) * 2;
 1283              		.loc 1 604 26 view .LVU436
 1284 00c2 0AFB003A 		mla	r10, r10, r0, r3
 1285              	.LVL142:
 605:Drivers/lvgl/src/draw/lv_img_decoder.c ****             opa_table = alpha2_opa_table;
 1286              		.loc 1 605 13 is_stmt 1 view .LVU437
 605:Drivers/lvgl/src/draw/lv_img_decoder.c ****             opa_table = alpha2_opa_table;
 1287              		.loc 1 605 21 is_stmt 0 view .LVU438
 1288 00c6 A4B2     		uxth	r4, r4
 1289 00c8 E443     		mvns	r4, r4
 605:Drivers/lvgl/src/draw/lv_img_decoder.c ****             opa_table = alpha2_opa_table;
 1290              		.loc 1 605 17 view .LVU439
 1291 00ca 04F00304 		and	r4, r4, #3
 1292 00ce 6400     		lsls	r4, r4, #1
 1293              	.LVL143:
 606:Drivers/lvgl/src/draw/lv_img_decoder.c ****             break;
 1294              		.loc 1 606 13 is_stmt 1 view .LVU440
 607:Drivers/lvgl/src/draw/lv_img_decoder.c ****         case LV_IMG_CF_ALPHA_4BIT:
 1295              		.loc 1 607 13 view .LVU441
 606:Drivers/lvgl/src/draw/lv_img_decoder.c ****             break;
 1296              		.loc 1 606 23 is_stmt 0 view .LVU442
 1297 00d0 0DF1200B 		add	fp, sp, #32
 1298              	.LVL144:
 607:Drivers/lvgl/src/draw/lv_img_decoder.c ****         case LV_IMG_CF_ALPHA_4BIT:
 1299              		.loc 1 607 13 view .LVU443
 1300 00d4 E0E7     		b	.L80
 1301              	.LVL145:
 1302              	.L83:
 609:Drivers/lvgl/src/draw/lv_img_decoder.c ****             ofs += w * y + (x >> 1); /*First pixel*/
 1303              		.loc 1 609 13 is_stmt 1 view .LVU444
 609:Drivers/lvgl/src/draw/lv_img_decoder.c ****             ofs += w * y + (x >> 1); /*First pixel*/
 1304              		.loc 1 609 29 is_stmt 0 view .LVU445
 1305 00d6 7B69     		ldr	r3, [r7, #20]
 1306 00d8 C3F38A20 		ubfx	r0, r3, #10, #11
 1307              	.LVL146:
 609:Drivers/lvgl/src/draw/lv_img_decoder.c ****             ofs += w * y + (x >> 1); /*First pixel*/
 1308              		.loc 1 609 32 view .LVU446
 1309 00dc 0130     		adds	r0, r0, #1
ARM GAS  /var/folders/0z/tsy30v1j4xl4_7kw94k978ww0000gn/T//cc1SwR9x.s 			page 54


 609:Drivers/lvgl/src/draw/lv_img_decoder.c ****             ofs += w * y + (x >> 1); /*First pixel*/
 1310              		.loc 1 609 15 view .LVU447
 1311 00de 4010     		asrs	r0, r0, #1
 1312              	.LVL147:
 610:Drivers/lvgl/src/draw/lv_img_decoder.c ****             pos = 4 - (x & 0x1) * 4;
 1313              		.loc 1 610 13 is_stmt 1 view .LVU448
 610:Drivers/lvgl/src/draw/lv_img_decoder.c ****             pos = 4 - (x & 0x1) * 4;
 1314              		.loc 1 610 31 is_stmt 0 view .LVU449
 1315 00e0 6310     		asrs	r3, r4, #1
 610:Drivers/lvgl/src/draw/lv_img_decoder.c ****             pos = 4 - (x & 0x1) * 4;
 1316              		.loc 1 610 26 view .LVU450
 1317 00e2 0AFB003A 		mla	r10, r10, r0, r3
 1318              	.LVL148:
 611:Drivers/lvgl/src/draw/lv_img_decoder.c ****             opa_table = alpha4_opa_table;
 1319              		.loc 1 611 13 is_stmt 1 view .LVU451
 611:Drivers/lvgl/src/draw/lv_img_decoder.c ****             opa_table = alpha4_opa_table;
 1320              		.loc 1 611 17 is_stmt 0 view .LVU452
 1321 00e6 14F0010F 		tst	r4, #1
 1322 00ea 11D1     		bne	.L94
 1323 00ec 0424     		movs	r4, #4
 612:Drivers/lvgl/src/draw/lv_img_decoder.c ****             break;
 1324              		.loc 1 612 23 view .LVU453
 1325 00ee 0DF1100B 		add	fp, sp, #16
 1326 00f2 D1E7     		b	.L80
 1327              	.LVL149:
 1328              	.L81:
 615:Drivers/lvgl/src/draw/lv_img_decoder.c ****             ofs += w * y + x;  /*First pixel*/
 1329              		.loc 1 615 13 is_stmt 1 view .LVU454
 615:Drivers/lvgl/src/draw/lv_img_decoder.c ****             ofs += w * y + x;  /*First pixel*/
 1330              		.loc 1 615 28 is_stmt 0 view .LVU455
 1331 00f4 7869     		ldr	r0, [r7, #20]
 1332              	.LVL150:
 615:Drivers/lvgl/src/draw/lv_img_decoder.c ****             ofs += w * y + x;  /*First pixel*/
 1333              		.loc 1 615 28 view .LVU456
 1334 00f6 C0F38A23 		ubfx	r3, r0, #10, #11
 615:Drivers/lvgl/src/draw/lv_img_decoder.c ****             ofs += w * y + x;  /*First pixel*/
 1335              		.loc 1 615 15 view .LVU457
 1336 00fa 1846     		mov	r0, r3
 1337              	.LVL151:
 616:Drivers/lvgl/src/draw/lv_img_decoder.c ****             pos = 0;
 1338              		.loc 1 616 13 is_stmt 1 view .LVU458
 616:Drivers/lvgl/src/draw/lv_img_decoder.c ****             pos = 0;
 1339              		.loc 1 616 26 is_stmt 0 view .LVU459
 1340 00fc 0AFB034A 		mla	r10, r10, r3, r4
 1341              	.LVL152:
 617:Drivers/lvgl/src/draw/lv_img_decoder.c ****             break;
 1342              		.loc 1 617 13 is_stmt 1 view .LVU460
 618:Drivers/lvgl/src/draw/lv_img_decoder.c ****     }
 1343              		.loc 1 618 13 view .LVU461
 617:Drivers/lvgl/src/draw/lv_img_decoder.c ****             break;
 1344              		.loc 1 617 17 is_stmt 0 view .LVU462
 1345 0100 0024     		movs	r4, #0
 588:Drivers/lvgl/src/draw/lv_img_decoder.c ****     uint8_t px_size            = lv_img_cf_get_px_size(dsc->header.cf);
 1346              		.loc 1 588 22 view .LVU463
 1347 0102 A346     		mov	fp, r4
 618:Drivers/lvgl/src/draw/lv_img_decoder.c ****     }
 1348              		.loc 1 618 13 view .LVU464
ARM GAS  /var/folders/0z/tsy30v1j4xl4_7kw94k978ww0000gn/T//cc1SwR9x.s 			page 55


 1349 0104 C8E7     		b	.L80
 1350              	.LVL153:
 1351              	.L93:
 595:Drivers/lvgl/src/draw/lv_img_decoder.c ****         case LV_IMG_CF_ALPHA_1BIT:
 1352              		.loc 1 595 5 view .LVU465
 1353 0106 0024     		movs	r4, #0
 1354 0108 A246     		mov	r10, r4
 1355 010a 2046     		mov	r0, r4
 1356              	.LVL154:
 595:Drivers/lvgl/src/draw/lv_img_decoder.c ****         case LV_IMG_CF_ALPHA_1BIT:
 1357              		.loc 1 595 5 view .LVU466
 1358 010c A346     		mov	fp, r4
 1359 010e C3E7     		b	.L80
 1360              	.LVL155:
 1361              	.L94:
 611:Drivers/lvgl/src/draw/lv_img_decoder.c ****             opa_table = alpha4_opa_table;
 1362              		.loc 1 611 17 view .LVU467
 1363 0110 0024     		movs	r4, #0
 612:Drivers/lvgl/src/draw/lv_img_decoder.c ****             break;
 1364              		.loc 1 612 23 view .LVU468
 1365 0112 0DF1100B 		add	fp, sp, #16
 1366 0116 BFE7     		b	.L80
 1367              	.LVL156:
 1368              	.L87:
 632:Drivers/lvgl/src/draw/lv_img_decoder.c ****         lv_fs_read(&user_data->f, fs_buf, w, NULL);
 1369              		.loc 1 632 9 is_stmt 1 view .LVU469
 1370 0118 0022     		movs	r2, #0
 1371 011a 0AF10401 		add	r1, r10, #4
 1372 011e 0298     		ldr	r0, [sp, #8]
 1373              	.LVL157:
 632:Drivers/lvgl/src/draw/lv_img_decoder.c ****         lv_fs_read(&user_data->f, fs_buf, w, NULL);
 1374              		.loc 1 632 9 is_stmt 0 view .LVU470
 1375 0120 FFF7FEFF 		bl	lv_fs_seek
 1376              	.LVL158:
 633:Drivers/lvgl/src/draw/lv_img_decoder.c ****         data_tmp = fs_buf;
 1377              		.loc 1 633 9 is_stmt 1 view .LVU471
 1378 0124 0023     		movs	r3, #0
 1379 0126 039A     		ldr	r2, [sp, #12]
 1380 0128 DDF804A0 		ldr	r10, [sp, #4]
 1381              	.LVL159:
 633:Drivers/lvgl/src/draw/lv_img_decoder.c ****         data_tmp = fs_buf;
 1382              		.loc 1 633 9 is_stmt 0 view .LVU472
 1383 012c 5146     		mov	r1, r10
 1384 012e 0298     		ldr	r0, [sp, #8]
 1385 0130 FFF7FEFF 		bl	lv_fs_read
 1386              	.LVL160:
 1387              		.loc 1 634 9 is_stmt 1 view .LVU473
 1388              		.loc 1 634 18 is_stmt 0 view .LVU474
 1389 0134 5146     		mov	r1, r10
 1390 0136 BCE7     		b	.L88
 1391              	.LVL161:
 1392              	.L90:
 635:Drivers/lvgl/src/draw/lv_img_decoder.c ****     }
 636:Drivers/lvgl/src/draw/lv_img_decoder.c **** 
 637:Drivers/lvgl/src/draw/lv_img_decoder.c ****     for(i = 0; i < len; i++) {
 1393              		.loc 1 637 26 is_stmt 1 discriminator 2 view .LVU475
 1394 0138 0132     		adds	r2, r2, #1
ARM GAS  /var/folders/0z/tsy30v1j4xl4_7kw94k978ww0000gn/T//cc1SwR9x.s 			page 56


 1395              	.LVL162:
 1396              		.loc 1 637 26 is_stmt 0 discriminator 2 view .LVU476
 1397 013a 12B2     		sxth	r2, r2
 1398              	.LVL163:
 1399              	.L91:
 1400              		.loc 1 637 18 is_stmt 1 discriminator 1 view .LVU477
 1401 013c B242     		cmp	r2, r6
 1402 013e 19DA     		bge	.L97
 1403              	.LBB34:
 638:Drivers/lvgl/src/draw/lv_img_decoder.c ****         uint8_t val_act = (*data_tmp >> pos) & mask;
 1404              		.loc 1 638 9 view .LVU478
 1405              		.loc 1 638 28 is_stmt 0 view .LVU479
 1406 0140 0B78     		ldrb	r3, [r1]	@ zero_extendqisi2
 1407              		.loc 1 638 38 view .LVU480
 1408 0142 2341     		asrs	r3, r3, r4
 1409              		.loc 1 638 46 view .LVU481
 1410 0144 03EA0803 		and	r3, r3, r8
 1411              		.loc 1 638 17 view .LVU482
 1412 0148 DBB2     		uxtb	r3, r3
 1413              	.LVL164:
 639:Drivers/lvgl/src/draw/lv_img_decoder.c **** 
 640:Drivers/lvgl/src/draw/lv_img_decoder.c ****         buf[i * LV_IMG_PX_SIZE_ALPHA_BYTE + LV_IMG_PX_SIZE_ALPHA_BYTE - 1] =
 1414              		.loc 1 640 9 is_stmt 1 view .LVU483
 641:Drivers/lvgl/src/draw/lv_img_decoder.c ****             dsc->header.cf == LV_IMG_CF_ALPHA_8BIT ? val_act : opa_table[val_act];
 1415              		.loc 1 641 28 is_stmt 0 view .LVU484
 1416 014a 387D     		ldrb	r0, [r7, #20]	@ zero_extendqisi2
 1417 014c 00F01F00 		and	r0, r0, #31
 640:Drivers/lvgl/src/draw/lv_img_decoder.c ****             dsc->header.cf == LV_IMG_CF_ALPHA_8BIT ? val_act : opa_table[val_act];
 1418              		.loc 1 640 76 view .LVU485
 1419 0150 0E28     		cmp	r0, #14
 1420 0152 01D0     		beq	.L89
 640:Drivers/lvgl/src/draw/lv_img_decoder.c ****             dsc->header.cf == LV_IMG_CF_ALPHA_8BIT ? val_act : opa_table[val_act];
 1421              		.loc 1 640 76 discriminator 1 view .LVU486
 1422 0154 1BF80330 		ldrb	r3, [fp, r3]	@ zero_extendqisi2
 1423              	.LVL165:
 1424              	.L89:
 640:Drivers/lvgl/src/draw/lv_img_decoder.c ****             dsc->header.cf == LV_IMG_CF_ALPHA_8BIT ? val_act : opa_table[val_act];
 1425              		.loc 1 640 15 discriminator 4 view .LVU487
 1426 0158 02EB4200 		add	r0, r2, r2, lsl #1
 640:Drivers/lvgl/src/draw/lv_img_decoder.c ****             dsc->header.cf == LV_IMG_CF_ALPHA_8BIT ? val_act : opa_table[val_act];
 1427              		.loc 1 640 12 discriminator 4 view .LVU488
 1428 015c 0230     		adds	r0, r0, #2
 640:Drivers/lvgl/src/draw/lv_img_decoder.c ****             dsc->header.cf == LV_IMG_CF_ALPHA_8BIT ? val_act : opa_table[val_act];
 1429              		.loc 1 640 76 discriminator 4 view .LVU489
 1430 015e 2B54     		strb	r3, [r5, r0]
 1431              	.LVL166:
 642:Drivers/lvgl/src/draw/lv_img_decoder.c **** 
 643:Drivers/lvgl/src/draw/lv_img_decoder.c ****         pos -= px_size;
 1432              		.loc 1 643 9 is_stmt 1 discriminator 4 view .LVU490
 1433              		.loc 1 643 13 is_stmt 0 discriminator 4 view .LVU491
 1434 0160 A4EB0904 		sub	r4, r4, r9
 1435              	.LVL167:
 1436              		.loc 1 643 13 discriminator 4 view .LVU492
 1437 0164 64B2     		sxtb	r4, r4
 1438              	.LVL168:
 644:Drivers/lvgl/src/draw/lv_img_decoder.c ****         if(pos < 0) {
 1439              		.loc 1 644 9 is_stmt 1 discriminator 4 view .LVU493
ARM GAS  /var/folders/0z/tsy30v1j4xl4_7kw94k978ww0000gn/T//cc1SwR9x.s 			page 57


 1440              		.loc 1 644 11 is_stmt 0 discriminator 4 view .LVU494
 1441 0166 002C     		cmp	r4, #0
 1442 0168 E6DA     		bge	.L90
 645:Drivers/lvgl/src/draw/lv_img_decoder.c ****             pos = 8 - px_size;
 1443              		.loc 1 645 13 is_stmt 1 view .LVU495
 1444              		.loc 1 645 21 is_stmt 0 view .LVU496
 1445 016a C9F10804 		rsb	r4, r9, #8
 1446              	.LVL169:
 1447              		.loc 1 645 17 view .LVU497
 1448 016e 64B2     		sxtb	r4, r4
 1449              	.LVL170:
 646:Drivers/lvgl/src/draw/lv_img_decoder.c ****             data_tmp++;
 1450              		.loc 1 646 13 is_stmt 1 view .LVU498
 1451              		.loc 1 646 21 is_stmt 0 view .LVU499
 1452 0170 0131     		adds	r1, r1, #1
 1453              	.LVL171:
 1454              		.loc 1 646 21 view .LVU500
 1455 0172 E1E7     		b	.L90
 1456              	.L97:
 1457              		.loc 1 646 21 view .LVU501
 1458              	.LBE34:
 647:Drivers/lvgl/src/draw/lv_img_decoder.c ****         }
 648:Drivers/lvgl/src/draw/lv_img_decoder.c ****     }
 649:Drivers/lvgl/src/draw/lv_img_decoder.c ****     lv_mem_buf_release(fs_buf);
 1459              		.loc 1 649 5 is_stmt 1 view .LVU502
 1460 0174 0198     		ldr	r0, [sp, #4]
 1461 0176 FFF7FEFF 		bl	lv_mem_buf_release
 1462              	.LVL172:
 650:Drivers/lvgl/src/draw/lv_img_decoder.c ****     return LV_RES_OK;
 1463              		.loc 1 650 5 view .LVU503
 1464              		.loc 1 650 12 is_stmt 0 view .LVU504
 1465 017a 0120     		movs	r0, #1
 1466              	.L86:
 651:Drivers/lvgl/src/draw/lv_img_decoder.c **** }
 1467              		.loc 1 651 1 view .LVU505
 1468 017c 0BB0     		add	sp, sp, #44
 1469              		.cfi_remember_state
 1470              		.cfi_def_cfa_offset 36
 1471              		@ sp needed
 1472 017e BDE8F08F 		pop	{r4, r5, r6, r7, r8, r9, r10, fp, pc}
 1473              	.LVL173:
 1474              	.L95:
 1475              		.cfi_restore_state
 623:Drivers/lvgl/src/draw/lv_img_decoder.c **** 
 1476              		.loc 1 623 31 view .LVU506
 1477 0182 0020     		movs	r0, #0
 1478              	.LVL174:
 623:Drivers/lvgl/src/draw/lv_img_decoder.c **** 
 1479              		.loc 1 623 31 view .LVU507
 1480 0184 FAE7     		b	.L86
 1481              	.L99:
 1482 0186 00BF     		.align	2
 1483              	.L98:
 1484 0188 00000000 		.word	.LANCHOR0
 1485              		.cfi_endproc
 1486              	.LFE72:
 1488              		.section	.text.lv_img_decoder_built_in_line_indexed,"ax",%progbits
ARM GAS  /var/folders/0z/tsy30v1j4xl4_7kw94k978ww0000gn/T//cc1SwR9x.s 			page 58


 1489              		.align	1
 1490              		.syntax unified
 1491              		.thumb
 1492              		.thumb_func
 1494              	lv_img_decoder_built_in_line_indexed:
 1495              	.LVL175:
 1496              	.LFB73:
 652:Drivers/lvgl/src/draw/lv_img_decoder.c **** 
 653:Drivers/lvgl/src/draw/lv_img_decoder.c **** static lv_res_t lv_img_decoder_built_in_line_indexed(lv_img_decoder_dsc_t * dsc, lv_coord_t x, lv_c
 654:Drivers/lvgl/src/draw/lv_img_decoder.c ****                                                      lv_coord_t len, uint8_t * buf)
 655:Drivers/lvgl/src/draw/lv_img_decoder.c **** {
 1497              		.loc 1 655 1 is_stmt 1 view -0
 1498              		.cfi_startproc
 1499              		@ args = 4, pretend = 0, frame = 8
 1500              		@ frame_needed = 0, uses_anonymous_args = 0
 1501              		.loc 1 655 1 is_stmt 0 view .LVU509
 1502 0000 2DE9F04F 		push	{r4, r5, r6, r7, r8, r9, r10, fp, lr}
 1503              		.cfi_def_cfa_offset 36
 1504              		.cfi_offset 4, -36
 1505              		.cfi_offset 5, -32
 1506              		.cfi_offset 6, -28
 1507              		.cfi_offset 7, -24
 1508              		.cfi_offset 8, -20
 1509              		.cfi_offset 9, -16
 1510              		.cfi_offset 10, -12
 1511              		.cfi_offset 11, -8
 1512              		.cfi_offset 14, -4
 1513 0004 83B0     		sub	sp, sp, #12
 1514              		.cfi_def_cfa_offset 48
 1515 0006 8246     		mov	r10, r0
 1516 0008 0C46     		mov	r4, r1
 1517 000a 1746     		mov	r7, r2
 1518 000c 9946     		mov	r9, r3
 1519 000e 0C9D     		ldr	r5, [sp, #48]
 656:Drivers/lvgl/src/draw/lv_img_decoder.c ****     uint8_t px_size = lv_img_cf_get_px_size(dsc->header.cf);
 1520              		.loc 1 656 5 is_stmt 1 view .LVU510
 1521              		.loc 1 656 56 is_stmt 0 view .LVU511
 1522 0010 007D     		ldrb	r0, [r0, #20]	@ zero_extendqisi2
 1523              	.LVL176:
 1524              		.loc 1 656 23 view .LVU512
 1525 0012 00F01F00 		and	r0, r0, #31
 1526 0016 FFF7FEFF 		bl	lv_img_cf_get_px_size
 1527              	.LVL177:
 1528              		.loc 1 656 23 view .LVU513
 1529 001a 8046     		mov	r8, r0
 1530              	.LVL178:
 657:Drivers/lvgl/src/draw/lv_img_decoder.c ****     uint16_t mask   = (1 << px_size) - 1; /*E.g. px_size = 2; mask = 0x03*/
 1531              		.loc 1 657 5 is_stmt 1 view .LVU514
 1532              		.loc 1 657 26 is_stmt 0 view .LVU515
 1533 001c 0126     		movs	r6, #1
 1534 001e 8640     		lsls	r6, r6, r0
 1535              		.loc 1 657 38 view .LVU516
 1536 0020 B6B2     		uxth	r6, r6
 1537              		.loc 1 657 14 view .LVU517
 1538 0022 013E     		subs	r6, r6, #1
 1539 0024 B6B2     		uxth	r6, r6
 1540              	.LVL179:
ARM GAS  /var/folders/0z/tsy30v1j4xl4_7kw94k978ww0000gn/T//cc1SwR9x.s 			page 59


 658:Drivers/lvgl/src/draw/lv_img_decoder.c **** 
 659:Drivers/lvgl/src/draw/lv_img_decoder.c ****     lv_coord_t w = 0;
 1541              		.loc 1 659 5 is_stmt 1 view .LVU518
 660:Drivers/lvgl/src/draw/lv_img_decoder.c ****     int8_t pos   = 0;
 1542              		.loc 1 660 5 view .LVU519
 661:Drivers/lvgl/src/draw/lv_img_decoder.c ****     uint32_t ofs = 0;
 1543              		.loc 1 661 5 view .LVU520
 662:Drivers/lvgl/src/draw/lv_img_decoder.c ****     switch(dsc->header.cf) {
 1544              		.loc 1 662 5 view .LVU521
 1545              		.loc 1 662 23 is_stmt 0 view .LVU522
 1546 0026 9AF81430 		ldrb	r3, [r10, #20]	@ zero_extendqisi2
 1547 002a 03F01F03 		and	r3, r3, #31
 1548              		.loc 1 662 5 view .LVU523
 1549 002e 073B     		subs	r3, r3, #7
 1550 0030 032B     		cmp	r3, #3
 1551 0032 52D8     		bhi	.L113
 1552 0034 DFE803F0 		tbb	[pc, r3]
 1553              	.L103:
 1554 0038 02       		.byte	(.L106-.L103)/2
 1555 0039 23       		.byte	(.L105-.L103)/2
 1556 003a 35       		.byte	(.L104-.L103)/2
 1557 003b 46       		.byte	(.L102-.L103)/2
 1558              		.p2align 1
 1559              	.L106:
 663:Drivers/lvgl/src/draw/lv_img_decoder.c ****         case LV_IMG_CF_INDEXED_1BIT:
 664:Drivers/lvgl/src/draw/lv_img_decoder.c ****             w = (dsc->header.w + 7) >> 3; /*E.g. w = 20 -> w = 2 + 1*/
 1560              		.loc 1 664 13 is_stmt 1 view .LVU524
 1561              		.loc 1 664 29 is_stmt 0 view .LVU525
 1562 003c DAF81430 		ldr	r3, [r10, #20]
 1563 0040 C3F38A20 		ubfx	r0, r3, #10, #11
 1564              	.LVL180:
 1565              		.loc 1 664 32 view .LVU526
 1566 0044 0730     		adds	r0, r0, #7
 1567              		.loc 1 664 15 view .LVU527
 1568 0046 C010     		asrs	r0, r0, #3
 1569              	.LVL181:
 665:Drivers/lvgl/src/draw/lv_img_decoder.c ****             ofs += w * y + (x >> 3); /*First pixel*/
 1570              		.loc 1 665 13 is_stmt 1 view .LVU528
 1571              		.loc 1 665 31 is_stmt 0 view .LVU529
 1572 0048 4FEAE40B 		asr	fp, r4, #3
 1573              		.loc 1 665 26 view .LVU530
 1574 004c 07FB00BB 		mla	fp, r7, r0, fp
 1575              	.LVL182:
 666:Drivers/lvgl/src/draw/lv_img_decoder.c ****             ofs += 8;                /*Skip the palette*/
 1576              		.loc 1 666 13 is_stmt 1 view .LVU531
 1577              		.loc 1 666 17 is_stmt 0 view .LVU532
 1578 0050 0BF1080B 		add	fp, fp, #8
 1579              	.LVL183:
 667:Drivers/lvgl/src/draw/lv_img_decoder.c ****             pos = 7 - (x & 0x7);
 1580              		.loc 1 667 13 is_stmt 1 view .LVU533
 1581              		.loc 1 667 21 is_stmt 0 view .LVU534
 1582 0054 E443     		mvns	r4, r4
 1583              		.loc 1 667 17 view .LVU535
 1584 0056 04F00704 		and	r4, r4, #7
 1585              	.LVL184:
 668:Drivers/lvgl/src/draw/lv_img_decoder.c ****             break;
 1586              		.loc 1 668 13 is_stmt 1 view .LVU536
ARM GAS  /var/folders/0z/tsy30v1j4xl4_7kw94k978ww0000gn/T//cc1SwR9x.s 			page 60


 1587              	.L101:
 669:Drivers/lvgl/src/draw/lv_img_decoder.c ****         case LV_IMG_CF_INDEXED_2BIT:
 670:Drivers/lvgl/src/draw/lv_img_decoder.c ****             w = (dsc->header.w + 3) >> 2; /*E.g. w = 13 -> w = 3 + 1 (bytes)*/
 671:Drivers/lvgl/src/draw/lv_img_decoder.c ****             ofs += w * y + (x >> 2); /*First pixel*/
 672:Drivers/lvgl/src/draw/lv_img_decoder.c ****             ofs += 16;               /*Skip the palette*/
 673:Drivers/lvgl/src/draw/lv_img_decoder.c ****             pos = 6 - (x & 0x3) * 2;
 674:Drivers/lvgl/src/draw/lv_img_decoder.c ****             break;
 675:Drivers/lvgl/src/draw/lv_img_decoder.c ****         case LV_IMG_CF_INDEXED_4BIT:
 676:Drivers/lvgl/src/draw/lv_img_decoder.c ****             w = (dsc->header.w + 1) >> 1; /*E.g. w = 13 -> w = 6 + 1 (bytes)*/
 677:Drivers/lvgl/src/draw/lv_img_decoder.c ****             ofs += w * y + (x >> 1); /*First pixel*/
 678:Drivers/lvgl/src/draw/lv_img_decoder.c ****             ofs += 64;               /*Skip the palette*/
 679:Drivers/lvgl/src/draw/lv_img_decoder.c ****             pos = 4 - (x & 0x1) * 4;
 680:Drivers/lvgl/src/draw/lv_img_decoder.c ****             break;
 681:Drivers/lvgl/src/draw/lv_img_decoder.c ****         case LV_IMG_CF_INDEXED_8BIT:
 682:Drivers/lvgl/src/draw/lv_img_decoder.c ****             w = dsc->header.w; /*E.g. x = 7 -> w = 7 (bytes)*/
 683:Drivers/lvgl/src/draw/lv_img_decoder.c ****             ofs += w * y + x;  /*First pixel*/
 684:Drivers/lvgl/src/draw/lv_img_decoder.c ****             ofs += 1024;       /*Skip the palette*/
 685:Drivers/lvgl/src/draw/lv_img_decoder.c ****             pos = 0;
 686:Drivers/lvgl/src/draw/lv_img_decoder.c ****             break;
 687:Drivers/lvgl/src/draw/lv_img_decoder.c ****     }
 688:Drivers/lvgl/src/draw/lv_img_decoder.c **** 
 689:Drivers/lvgl/src/draw/lv_img_decoder.c ****     lv_img_decoder_built_in_data_t * user_data = dsc->user_data;
 1588              		.loc 1 689 5 view .LVU537
 1589              		.loc 1 689 38 is_stmt 0 view .LVU538
 1590 005a DAF82470 		ldr	r7, [r10, #36]
 1591              	.LVL185:
 690:Drivers/lvgl/src/draw/lv_img_decoder.c **** 
 691:Drivers/lvgl/src/draw/lv_img_decoder.c ****     uint8_t * fs_buf = lv_mem_buf_get(w);
 1592              		.loc 1 691 5 is_stmt 1 view .LVU539
 1593              		.loc 1 691 24 is_stmt 0 view .LVU540
 1594 005e 0190     		str	r0, [sp, #4]
 1595 0060 FFF7FEFF 		bl	lv_mem_buf_get
 1596              	.LVL186:
 692:Drivers/lvgl/src/draw/lv_img_decoder.c ****     if(fs_buf == NULL) return LV_RES_INV;
 1597              		.loc 1 692 5 is_stmt 1 view .LVU541
 1598              		.loc 1 692 7 is_stmt 0 view .LVU542
 1599 0064 0090     		str	r0, [sp]
 1600 0066 0028     		cmp	r0, #0
 1601 0068 78D0     		beq	.L115
 693:Drivers/lvgl/src/draw/lv_img_decoder.c ****     const uint8_t * data_tmp = NULL;
 1602              		.loc 1 693 5 is_stmt 1 view .LVU543
 1603              	.LVL187:
 694:Drivers/lvgl/src/draw/lv_img_decoder.c ****     if(dsc->src_type == LV_IMG_SRC_VARIABLE) {
 1604              		.loc 1 694 5 view .LVU544
 1605              		.loc 1 694 11 is_stmt 0 view .LVU545
 1606 006a 9AF81030 		ldrb	r3, [r10, #16]	@ zero_extendqisi2
 1607              		.loc 1 694 7 view .LVU546
 1608 006e DBBB     		cbnz	r3, .L108
 1609              	.LBB35:
 695:Drivers/lvgl/src/draw/lv_img_decoder.c ****         const lv_img_dsc_t * img_dsc = dsc->src;
 1610              		.loc 1 695 9 is_stmt 1 view .LVU547
 1611              		.loc 1 695 30 is_stmt 0 view .LVU548
 1612 0070 DAF80430 		ldr	r3, [r10, #4]
 1613              	.LVL188:
 696:Drivers/lvgl/src/draw/lv_img_decoder.c ****         data_tmp                     = img_dsc->data + ofs;
 1614              		.loc 1 696 9 is_stmt 1 view .LVU549
 1615              		.loc 1 696 47 is_stmt 0 view .LVU550
ARM GAS  /var/folders/0z/tsy30v1j4xl4_7kw94k978ww0000gn/T//cc1SwR9x.s 			page 61


 1616 0074 9B68     		ldr	r3, [r3, #8]
 1617              	.LVL189:
 1618              		.loc 1 696 38 view .LVU551
 1619 0076 03EB0B0C 		add	ip, r3, fp
 1620              	.LVL190:
 1621              	.L109:
 1622              		.loc 1 696 38 view .LVU552
 1623              	.LBE35:
 697:Drivers/lvgl/src/draw/lv_img_decoder.c ****     }
 698:Drivers/lvgl/src/draw/lv_img_decoder.c ****     else {
 699:Drivers/lvgl/src/draw/lv_img_decoder.c ****         lv_fs_seek(&user_data->f, ofs + 4, LV_FS_SEEK_SET); /*+4 to skip the header*/
 700:Drivers/lvgl/src/draw/lv_img_decoder.c ****         lv_fs_read(&user_data->f, fs_buf, w, NULL);
 701:Drivers/lvgl/src/draw/lv_img_decoder.c ****         data_tmp = fs_buf;
 1624              		.loc 1 701 18 discriminator 1 view .LVU553
 1625 007a 0020     		movs	r0, #0
 1626 007c 46E0     		b	.L111
 1627              	.LVL191:
 1628              	.L105:
 670:Drivers/lvgl/src/draw/lv_img_decoder.c ****             ofs += w * y + (x >> 2); /*First pixel*/
 1629              		.loc 1 670 13 is_stmt 1 view .LVU554
 670:Drivers/lvgl/src/draw/lv_img_decoder.c ****             ofs += w * y + (x >> 2); /*First pixel*/
 1630              		.loc 1 670 29 is_stmt 0 view .LVU555
 1631 007e DAF81430 		ldr	r3, [r10, #20]
 1632 0082 C3F38A20 		ubfx	r0, r3, #10, #11
 1633              	.LVL192:
 670:Drivers/lvgl/src/draw/lv_img_decoder.c ****             ofs += w * y + (x >> 2); /*First pixel*/
 1634              		.loc 1 670 32 view .LVU556
 1635 0086 0330     		adds	r0, r0, #3
 670:Drivers/lvgl/src/draw/lv_img_decoder.c ****             ofs += w * y + (x >> 2); /*First pixel*/
 1636              		.loc 1 670 15 view .LVU557
 1637 0088 8010     		asrs	r0, r0, #2
 1638              	.LVL193:
 671:Drivers/lvgl/src/draw/lv_img_decoder.c ****             ofs += 16;               /*Skip the palette*/
 1639              		.loc 1 671 13 is_stmt 1 view .LVU558
 671:Drivers/lvgl/src/draw/lv_img_decoder.c ****             ofs += 16;               /*Skip the palette*/
 1640              		.loc 1 671 31 is_stmt 0 view .LVU559
 1641 008a 4FEAA40B 		asr	fp, r4, #2
 671:Drivers/lvgl/src/draw/lv_img_decoder.c ****             ofs += 16;               /*Skip the palette*/
 1642              		.loc 1 671 26 view .LVU560
 1643 008e 07FB00BB 		mla	fp, r7, r0, fp
 1644              	.LVL194:
 672:Drivers/lvgl/src/draw/lv_img_decoder.c ****             pos = 6 - (x & 0x3) * 2;
 1645              		.loc 1 672 13 is_stmt 1 view .LVU561
 672:Drivers/lvgl/src/draw/lv_img_decoder.c ****             pos = 6 - (x & 0x3) * 2;
 1646              		.loc 1 672 17 is_stmt 0 view .LVU562
 1647 0092 0BF1100B 		add	fp, fp, #16
 1648              	.LVL195:
 673:Drivers/lvgl/src/draw/lv_img_decoder.c ****             break;
 1649              		.loc 1 673 13 is_stmt 1 view .LVU563
 673:Drivers/lvgl/src/draw/lv_img_decoder.c ****             break;
 1650              		.loc 1 673 21 is_stmt 0 view .LVU564
 1651 0096 A4B2     		uxth	r4, r4
 1652 0098 E443     		mvns	r4, r4
 673:Drivers/lvgl/src/draw/lv_img_decoder.c ****             break;
 1653              		.loc 1 673 17 view .LVU565
 1654 009a 04F00304 		and	r4, r4, #3
 1655 009e 6400     		lsls	r4, r4, #1
ARM GAS  /var/folders/0z/tsy30v1j4xl4_7kw94k978ww0000gn/T//cc1SwR9x.s 			page 62


 1656              	.LVL196:
 674:Drivers/lvgl/src/draw/lv_img_decoder.c ****         case LV_IMG_CF_INDEXED_4BIT:
 1657              		.loc 1 674 13 is_stmt 1 view .LVU566
 1658 00a0 DBE7     		b	.L101
 1659              	.LVL197:
 1660              	.L104:
 676:Drivers/lvgl/src/draw/lv_img_decoder.c ****             ofs += w * y + (x >> 1); /*First pixel*/
 1661              		.loc 1 676 13 view .LVU567
 676:Drivers/lvgl/src/draw/lv_img_decoder.c ****             ofs += w * y + (x >> 1); /*First pixel*/
 1662              		.loc 1 676 29 is_stmt 0 view .LVU568
 1663 00a2 DAF81430 		ldr	r3, [r10, #20]
 1664 00a6 C3F38A20 		ubfx	r0, r3, #10, #11
 1665              	.LVL198:
 676:Drivers/lvgl/src/draw/lv_img_decoder.c ****             ofs += w * y + (x >> 1); /*First pixel*/
 1666              		.loc 1 676 32 view .LVU569
 1667 00aa 0130     		adds	r0, r0, #1
 676:Drivers/lvgl/src/draw/lv_img_decoder.c ****             ofs += w * y + (x >> 1); /*First pixel*/
 1668              		.loc 1 676 15 view .LVU570
 1669 00ac 4010     		asrs	r0, r0, #1
 1670              	.LVL199:
 677:Drivers/lvgl/src/draw/lv_img_decoder.c ****             ofs += 64;               /*Skip the palette*/
 1671              		.loc 1 677 13 is_stmt 1 view .LVU571
 677:Drivers/lvgl/src/draw/lv_img_decoder.c ****             ofs += 64;               /*Skip the palette*/
 1672              		.loc 1 677 31 is_stmt 0 view .LVU572
 1673 00ae 4FEA640B 		asr	fp, r4, #1
 677:Drivers/lvgl/src/draw/lv_img_decoder.c ****             ofs += 64;               /*Skip the palette*/
 1674              		.loc 1 677 26 view .LVU573
 1675 00b2 07FB00BB 		mla	fp, r7, r0, fp
 1676              	.LVL200:
 678:Drivers/lvgl/src/draw/lv_img_decoder.c ****             pos = 4 - (x & 0x1) * 4;
 1677              		.loc 1 678 13 is_stmt 1 view .LVU574
 678:Drivers/lvgl/src/draw/lv_img_decoder.c ****             pos = 4 - (x & 0x1) * 4;
 1678              		.loc 1 678 17 is_stmt 0 view .LVU575
 1679 00b6 0BF1400B 		add	fp, fp, #64
 1680              	.LVL201:
 679:Drivers/lvgl/src/draw/lv_img_decoder.c ****             break;
 1681              		.loc 1 679 13 is_stmt 1 view .LVU576
 679:Drivers/lvgl/src/draw/lv_img_decoder.c ****             break;
 1682              		.loc 1 679 17 is_stmt 0 view .LVU577
 1683 00ba 14F0010F 		tst	r4, #1
 1684 00be 11D1     		bne	.L114
 1685 00c0 0424     		movs	r4, #4
 1686 00c2 CAE7     		b	.L101
 1687              	.LVL202:
 1688              	.L102:
 682:Drivers/lvgl/src/draw/lv_img_decoder.c ****             ofs += w * y + x;  /*First pixel*/
 1689              		.loc 1 682 13 is_stmt 1 view .LVU578
 682:Drivers/lvgl/src/draw/lv_img_decoder.c ****             ofs += w * y + x;  /*First pixel*/
 1690              		.loc 1 682 28 is_stmt 0 view .LVU579
 1691 00c4 DAF81400 		ldr	r0, [r10, #20]
 1692              	.LVL203:
 682:Drivers/lvgl/src/draw/lv_img_decoder.c ****             ofs += w * y + x;  /*First pixel*/
 1693              		.loc 1 682 28 view .LVU580
 1694 00c8 C0F38A23 		ubfx	r3, r0, #10, #11
 682:Drivers/lvgl/src/draw/lv_img_decoder.c ****             ofs += w * y + x;  /*First pixel*/
 1695              		.loc 1 682 15 view .LVU581
 1696 00cc 1846     		mov	r0, r3
ARM GAS  /var/folders/0z/tsy30v1j4xl4_7kw94k978ww0000gn/T//cc1SwR9x.s 			page 63


 1697              	.LVL204:
 683:Drivers/lvgl/src/draw/lv_img_decoder.c ****             ofs += 1024;       /*Skip the palette*/
 1698              		.loc 1 683 13 is_stmt 1 view .LVU582
 683:Drivers/lvgl/src/draw/lv_img_decoder.c ****             ofs += 1024;       /*Skip the palette*/
 1699              		.loc 1 683 26 is_stmt 0 view .LVU583
 1700 00ce 07FB0344 		mla	r4, r7, r3, r4
 1701              	.LVL205:
 684:Drivers/lvgl/src/draw/lv_img_decoder.c ****             pos = 0;
 1702              		.loc 1 684 13 is_stmt 1 view .LVU584
 684:Drivers/lvgl/src/draw/lv_img_decoder.c ****             pos = 0;
 1703              		.loc 1 684 17 is_stmt 0 view .LVU585
 1704 00d2 04F5806B 		add	fp, r4, #1024
 1705              	.LVL206:
 685:Drivers/lvgl/src/draw/lv_img_decoder.c ****             break;
 1706              		.loc 1 685 13 is_stmt 1 view .LVU586
 686:Drivers/lvgl/src/draw/lv_img_decoder.c ****     }
 1707              		.loc 1 686 13 view .LVU587
 685:Drivers/lvgl/src/draw/lv_img_decoder.c ****             break;
 1708              		.loc 1 685 17 is_stmt 0 view .LVU588
 1709 00d6 0024     		movs	r4, #0
 686:Drivers/lvgl/src/draw/lv_img_decoder.c ****     }
 1710              		.loc 1 686 13 view .LVU589
 1711 00d8 BFE7     		b	.L101
 1712              	.LVL207:
 1713              	.L113:
 662:Drivers/lvgl/src/draw/lv_img_decoder.c ****         case LV_IMG_CF_INDEXED_1BIT:
 1714              		.loc 1 662 5 view .LVU590
 1715 00da 4FF0000B 		mov	fp, #0
 1716 00de 5C46     		mov	r4, fp
 1717 00e0 5846     		mov	r0, fp
 1718              	.LVL208:
 662:Drivers/lvgl/src/draw/lv_img_decoder.c ****         case LV_IMG_CF_INDEXED_1BIT:
 1719              		.loc 1 662 5 view .LVU591
 1720 00e2 BAE7     		b	.L101
 1721              	.LVL209:
 1722              	.L114:
 679:Drivers/lvgl/src/draw/lv_img_decoder.c ****             break;
 1723              		.loc 1 679 17 view .LVU592
 1724 00e4 0024     		movs	r4, #0
 1725 00e6 B8E7     		b	.L101
 1726              	.LVL210:
 1727              	.L108:
 699:Drivers/lvgl/src/draw/lv_img_decoder.c ****         lv_fs_read(&user_data->f, fs_buf, w, NULL);
 1728              		.loc 1 699 9 is_stmt 1 view .LVU593
 1729 00e8 0022     		movs	r2, #0
 1730 00ea 0BF10401 		add	r1, fp, #4
 1731 00ee 3846     		mov	r0, r7
 1732              	.LVL211:
 699:Drivers/lvgl/src/draw/lv_img_decoder.c ****         lv_fs_read(&user_data->f, fs_buf, w, NULL);
 1733              		.loc 1 699 9 is_stmt 0 view .LVU594
 1734 00f0 FFF7FEFF 		bl	lv_fs_seek
 1735              	.LVL212:
 700:Drivers/lvgl/src/draw/lv_img_decoder.c ****         data_tmp = fs_buf;
 1736              		.loc 1 700 9 is_stmt 1 view .LVU595
 1737 00f4 0023     		movs	r3, #0
 1738 00f6 019A     		ldr	r2, [sp, #4]
 1739 00f8 DDF800A0 		ldr	r10, [sp]
ARM GAS  /var/folders/0z/tsy30v1j4xl4_7kw94k978ww0000gn/T//cc1SwR9x.s 			page 64


 1740              	.LVL213:
 700:Drivers/lvgl/src/draw/lv_img_decoder.c ****         data_tmp = fs_buf;
 1741              		.loc 1 700 9 is_stmt 0 view .LVU596
 1742 00fc 5146     		mov	r1, r10
 1743 00fe 3846     		mov	r0, r7
 1744 0100 FFF7FEFF 		bl	lv_fs_read
 1745              	.LVL214:
 1746              		.loc 1 701 9 is_stmt 1 view .LVU597
 1747              		.loc 1 701 18 is_stmt 0 view .LVU598
 1748 0104 D446     		mov	ip, r10
 1749 0106 B8E7     		b	.L109
 1750              	.LVL215:
 1751              	.L110:
 702:Drivers/lvgl/src/draw/lv_img_decoder.c ****     }
 703:Drivers/lvgl/src/draw/lv_img_decoder.c **** 
 704:Drivers/lvgl/src/draw/lv_img_decoder.c ****     lv_coord_t i;
 705:Drivers/lvgl/src/draw/lv_img_decoder.c ****     for(i = 0; i < len; i++) {
 1752              		.loc 1 705 26 is_stmt 1 discriminator 2 view .LVU599
 1753 0108 0130     		adds	r0, r0, #1
 1754              	.LVL216:
 1755              		.loc 1 705 26 is_stmt 0 discriminator 2 view .LVU600
 1756 010a 00B2     		sxth	r0, r0
 1757              	.LVL217:
 1758              	.L111:
 1759              		.loc 1 705 18 is_stmt 1 discriminator 1 view .LVU601
 1760 010c 4845     		cmp	r0, r9
 1761 010e 1EDA     		bge	.L117
 1762              	.LBB36:
 706:Drivers/lvgl/src/draw/lv_img_decoder.c ****         uint8_t val_act = (*data_tmp >> pos) & mask;
 1763              		.loc 1 706 9 view .LVU602
 1764              		.loc 1 706 28 is_stmt 0 view .LVU603
 1765 0110 9CF80030 		ldrb	r3, [ip]	@ zero_extendqisi2
 1766              		.loc 1 706 38 view .LVU604
 1767 0114 2341     		asrs	r3, r3, r4
 1768              		.loc 1 706 46 view .LVU605
 1769 0116 3340     		ands	r3, r3, r6
 1770              		.loc 1 706 17 view .LVU606
 1771 0118 DBB2     		uxtb	r3, r3
 1772              	.LVL218:
 707:Drivers/lvgl/src/draw/lv_img_decoder.c **** 
 708:Drivers/lvgl/src/draw/lv_img_decoder.c ****         lv_color_t color = user_data->palette[val_act];
 1773              		.loc 1 708 9 is_stmt 1 view .LVU607
 1774              		.loc 1 708 37 is_stmt 0 view .LVU608
 1775 011a FA68     		ldr	r2, [r7, #12]
 709:Drivers/lvgl/src/draw/lv_img_decoder.c **** #if LV_COLOR_DEPTH == 8 || LV_COLOR_DEPTH == 1
 710:Drivers/lvgl/src/draw/lv_img_decoder.c ****         buf[i * LV_IMG_PX_SIZE_ALPHA_BYTE] = color.full;
 711:Drivers/lvgl/src/draw/lv_img_decoder.c **** #elif LV_COLOR_DEPTH == 16
 712:Drivers/lvgl/src/draw/lv_img_decoder.c ****         /*Because of Alpha byte 16 bit color can start on odd address which can cause crash*/
 713:Drivers/lvgl/src/draw/lv_img_decoder.c ****         buf[i * LV_IMG_PX_SIZE_ALPHA_BYTE] = color.full & 0xFF;
 1776              		.loc 1 713 9 is_stmt 1 view .LVU609
 1777              		.loc 1 713 51 is_stmt 0 view .LVU610
 1778 011c 32F81310 		ldrh	r1, [r2, r3, lsl #1]
 1779              		.loc 1 713 15 view .LVU611
 1780 0120 00EB4002 		add	r2, r0, r0, lsl #1
 1781              		.loc 1 713 44 view .LVU612
 1782 0124 A954     		strb	r1, [r5, r2]
 714:Drivers/lvgl/src/draw/lv_img_decoder.c ****         buf[i * LV_IMG_PX_SIZE_ALPHA_BYTE + 1] = (color.full >> 8) & 0xFF;
ARM GAS  /var/folders/0z/tsy30v1j4xl4_7kw94k978ww0000gn/T//cc1SwR9x.s 			page 65


 1783              		.loc 1 714 9 is_stmt 1 view .LVU613
 1784              		.loc 1 714 12 is_stmt 0 view .LVU614
 1785 0126 02F1010E 		add	lr, r2, #1
 1786              		.loc 1 714 48 view .LVU615
 1787 012a 090A     		lsrs	r1, r1, #8
 1788 012c 05F80E10 		strb	r1, [r5, lr]
 715:Drivers/lvgl/src/draw/lv_img_decoder.c **** #elif LV_COLOR_DEPTH == 32
 716:Drivers/lvgl/src/draw/lv_img_decoder.c ****         *((uint32_t *)&buf[i * LV_IMG_PX_SIZE_ALPHA_BYTE]) = color.full;
 717:Drivers/lvgl/src/draw/lv_img_decoder.c **** #else
 718:Drivers/lvgl/src/draw/lv_img_decoder.c **** #error "Invalid LV_COLOR_DEPTH. Check it in lv_conf.h"
 719:Drivers/lvgl/src/draw/lv_img_decoder.c **** #endif
 720:Drivers/lvgl/src/draw/lv_img_decoder.c ****         buf[i * LV_IMG_PX_SIZE_ALPHA_BYTE + LV_IMG_PX_SIZE_ALPHA_BYTE - 1] = user_data->opa[val_act
 1789              		.loc 1 720 9 is_stmt 1 view .LVU616
 1790              		.loc 1 720 87 is_stmt 0 view .LVU617
 1791 0130 3969     		ldr	r1, [r7, #16]
 1792              		.loc 1 720 12 view .LVU618
 1793 0132 0232     		adds	r2, r2, #2
 1794              		.loc 1 720 92 view .LVU619
 1795 0134 CB5C     		ldrb	r3, [r1, r3]	@ zero_extendqisi2
 1796              	.LVL219:
 1797              		.loc 1 720 76 view .LVU620
 1798 0136 AB54     		strb	r3, [r5, r2]
 721:Drivers/lvgl/src/draw/lv_img_decoder.c **** 
 722:Drivers/lvgl/src/draw/lv_img_decoder.c ****         pos -= px_size;
 1799              		.loc 1 722 9 is_stmt 1 view .LVU621
 1800              		.loc 1 722 13 is_stmt 0 view .LVU622
 1801 0138 A4EB0804 		sub	r4, r4, r8
 1802              	.LVL220:
 1803              		.loc 1 722 13 view .LVU623
 1804 013c 64B2     		sxtb	r4, r4
 1805              	.LVL221:
 723:Drivers/lvgl/src/draw/lv_img_decoder.c ****         if(pos < 0) {
 1806              		.loc 1 723 9 is_stmt 1 view .LVU624
 1807              		.loc 1 723 11 is_stmt 0 view .LVU625
 1808 013e 002C     		cmp	r4, #0
 1809 0140 E2DA     		bge	.L110
 724:Drivers/lvgl/src/draw/lv_img_decoder.c ****             pos = 8 - px_size;
 1810              		.loc 1 724 13 is_stmt 1 view .LVU626
 1811              		.loc 1 724 21 is_stmt 0 view .LVU627
 1812 0142 C8F10804 		rsb	r4, r8, #8
 1813              	.LVL222:
 1814              		.loc 1 724 17 view .LVU628
 1815 0146 64B2     		sxtb	r4, r4
 1816              	.LVL223:
 725:Drivers/lvgl/src/draw/lv_img_decoder.c ****             data_tmp++;
 1817              		.loc 1 725 13 is_stmt 1 view .LVU629
 1818              		.loc 1 725 21 is_stmt 0 view .LVU630
 1819 0148 0CF1010C 		add	ip, ip, #1
 1820              	.LVL224:
 1821              		.loc 1 725 21 view .LVU631
 1822 014c DCE7     		b	.L110
 1823              	.L117:
 1824              		.loc 1 725 21 view .LVU632
 1825              	.LBE36:
 726:Drivers/lvgl/src/draw/lv_img_decoder.c ****         }
 727:Drivers/lvgl/src/draw/lv_img_decoder.c ****     }
 728:Drivers/lvgl/src/draw/lv_img_decoder.c ****     lv_mem_buf_release(fs_buf);
ARM GAS  /var/folders/0z/tsy30v1j4xl4_7kw94k978ww0000gn/T//cc1SwR9x.s 			page 66


 1826              		.loc 1 728 5 is_stmt 1 view .LVU633
 1827 014e 0098     		ldr	r0, [sp]
 1828              	.LVL225:
 1829              		.loc 1 728 5 is_stmt 0 view .LVU634
 1830 0150 FFF7FEFF 		bl	lv_mem_buf_release
 1831              	.LVL226:
 729:Drivers/lvgl/src/draw/lv_img_decoder.c ****     return LV_RES_OK;
 1832              		.loc 1 729 5 is_stmt 1 view .LVU635
 1833              		.loc 1 729 12 is_stmt 0 view .LVU636
 1834 0154 0120     		movs	r0, #1
 1835              	.L107:
 730:Drivers/lvgl/src/draw/lv_img_decoder.c **** }
 1836              		.loc 1 730 1 view .LVU637
 1837 0156 03B0     		add	sp, sp, #12
 1838              		.cfi_remember_state
 1839              		.cfi_def_cfa_offset 36
 1840              	.LVL227:
 1841              		.loc 1 730 1 view .LVU638
 1842              		@ sp needed
 1843 0158 BDE8F08F 		pop	{r4, r5, r6, r7, r8, r9, r10, fp, pc}
 1844              	.LVL228:
 1845              	.L115:
 1846              		.cfi_restore_state
 692:Drivers/lvgl/src/draw/lv_img_decoder.c ****     const uint8_t * data_tmp = NULL;
 1847              		.loc 1 692 31 view .LVU639
 1848 015c 0020     		movs	r0, #0
 1849              	.LVL229:
 692:Drivers/lvgl/src/draw/lv_img_decoder.c ****     const uint8_t * data_tmp = NULL;
 1850              		.loc 1 692 31 view .LVU640
 1851 015e FAE7     		b	.L107
 1852              		.cfi_endproc
 1853              	.LFE73:
 1855              		.section	.text.lv_img_decoder_built_in_read_line,"ax",%progbits
 1856              		.align	1
 1857              		.global	lv_img_decoder_built_in_read_line
 1858              		.syntax unified
 1859              		.thumb
 1860              		.thumb_func
 1862              	lv_img_decoder_built_in_read_line:
 1863              	.LVL230:
 1864              	.LFB69:
 482:Drivers/lvgl/src/draw/lv_img_decoder.c ****     LV_UNUSED(decoder); /*Unused*/
 1865              		.loc 1 482 1 is_stmt 1 view -0
 1866              		.cfi_startproc
 1867              		@ args = 8, pretend = 0, frame = 0
 1868              		@ frame_needed = 0, uses_anonymous_args = 0
 482:Drivers/lvgl/src/draw/lv_img_decoder.c ****     LV_UNUSED(decoder); /*Unused*/
 1869              		.loc 1 482 1 is_stmt 0 view .LVU642
 1870 0000 10B5     		push	{r4, lr}
 1871              		.cfi_def_cfa_offset 8
 1872              		.cfi_offset 4, -8
 1873              		.cfi_offset 14, -4
 1874 0002 82B0     		sub	sp, sp, #8
 1875              		.cfi_def_cfa_offset 16
 1876 0004 0846     		mov	r0, r1
 1877              	.LVL231:
 482:Drivers/lvgl/src/draw/lv_img_decoder.c ****     LV_UNUSED(decoder); /*Unused*/
ARM GAS  /var/folders/0z/tsy30v1j4xl4_7kw94k978ww0000gn/T//cc1SwR9x.s 			page 67


 1878              		.loc 1 482 1 view .LVU643
 1879 0006 1146     		mov	r1, r2
 1880              	.LVL232:
 482:Drivers/lvgl/src/draw/lv_img_decoder.c ****     LV_UNUSED(decoder); /*Unused*/
 1881              		.loc 1 482 1 view .LVU644
 1882 0008 1A46     		mov	r2, r3
 1883              	.LVL233:
 482:Drivers/lvgl/src/draw/lv_img_decoder.c ****     LV_UNUSED(decoder); /*Unused*/
 1884              		.loc 1 482 1 view .LVU645
 1885 000a BDF91030 		ldrsh	r3, [sp, #16]
 1886              	.LVL234:
 483:Drivers/lvgl/src/draw/lv_img_decoder.c **** 
 1887              		.loc 1 483 5 is_stmt 1 view .LVU646
 485:Drivers/lvgl/src/draw/lv_img_decoder.c **** 
 1888              		.loc 1 485 5 view .LVU647
 487:Drivers/lvgl/src/draw/lv_img_decoder.c ****        dsc->header.cf == LV_IMG_CF_TRUE_COLOR_CHROMA_KEYED) {
 1889              		.loc 1 487 5 view .LVU648
 487:Drivers/lvgl/src/draw/lv_img_decoder.c ****        dsc->header.cf == LV_IMG_CF_TRUE_COLOR_CHROMA_KEYED) {
 1890              		.loc 1 487 23 is_stmt 0 view .LVU649
 1891 000e 90F814C0 		ldrb	ip, [r0, #20]	@ zero_extendqisi2
 487:Drivers/lvgl/src/draw/lv_img_decoder.c ****        dsc->header.cf == LV_IMG_CF_TRUE_COLOR_CHROMA_KEYED) {
 1892              		.loc 1 487 47 view .LVU650
 1893 0012 0CF01E0E 		and	lr, ip, #30
 487:Drivers/lvgl/src/draw/lv_img_decoder.c ****        dsc->header.cf == LV_IMG_CF_TRUE_COLOR_CHROMA_KEYED) {
 1894              		.loc 1 487 7 view .LVU651
 1895 0016 BEF1040F 		cmp	lr, #4
 1896 001a 14D0     		beq	.L119
 488:Drivers/lvgl/src/draw/lv_img_decoder.c ****         /*For TRUE_COLOR images read line required only for files.
 1897              		.loc 1 488 23 discriminator 1 view .LVU652
 1898 001c 0CF01F0C 		and	ip, ip, #31
 487:Drivers/lvgl/src/draw/lv_img_decoder.c ****        dsc->header.cf == LV_IMG_CF_TRUE_COLOR_CHROMA_KEYED) {
 1899              		.loc 1 487 95 discriminator 1 view .LVU653
 1900 0020 BCF1060F 		cmp	ip, #6
 1901 0024 0FD0     		beq	.L119
 495:Drivers/lvgl/src/draw/lv_img_decoder.c ****             dsc->header.cf == LV_IMG_CF_ALPHA_4BIT || dsc->header.cf == LV_IMG_CF_ALPHA_8BIT) {
 1902              		.loc 1 495 10 is_stmt 1 view .LVU654
 496:Drivers/lvgl/src/draw/lv_img_decoder.c ****         res = lv_img_decoder_built_in_line_alpha(dsc, x, y, len, buf);
 1903              		.loc 1 496 52 is_stmt 0 view .LVU655
 1904 0026 ACF10B0E 		sub	lr, ip, #11
 1905 002a 5FFA8EFE 		uxtb	lr, lr
 495:Drivers/lvgl/src/draw/lv_img_decoder.c ****             dsc->header.cf == LV_IMG_CF_ALPHA_4BIT || dsc->header.cf == LV_IMG_CF_ALPHA_8BIT) {
 1906              		.loc 1 495 12 view .LVU656
 1907 002e BEF1030F 		cmp	lr, #3
 1908 0032 15D9     		bls	.L126
 499:Drivers/lvgl/src/draw/lv_img_decoder.c ****             dsc->header.cf == LV_IMG_CF_INDEXED_4BIT || dsc->header.cf == LV_IMG_CF_INDEXED_8BIT) {
 1909              		.loc 1 499 10 is_stmt 1 view .LVU657
 500:Drivers/lvgl/src/draw/lv_img_decoder.c ****         res = lv_img_decoder_built_in_line_indexed(dsc, x, y, len, buf);
 1910              		.loc 1 500 54 is_stmt 0 view .LVU658
 1911 0034 ACF1070C 		sub	ip, ip, #7
 1912 0038 5FFA8CFC 		uxtb	ip, ip
 499:Drivers/lvgl/src/draw/lv_img_decoder.c ****             dsc->header.cf == LV_IMG_CF_INDEXED_4BIT || dsc->header.cf == LV_IMG_CF_INDEXED_8BIT) {
 1913              		.loc 1 499 12 view .LVU659
 1914 003c BCF1030F 		cmp	ip, #3
 1915 0040 13D9     		bls	.L127
 505:Drivers/lvgl/src/draw/lv_img_decoder.c ****     }
 1916              		.loc 1 505 16 view .LVU660
 1917 0042 0020     		movs	r0, #0
ARM GAS  /var/folders/0z/tsy30v1j4xl4_7kw94k978ww0000gn/T//cc1SwR9x.s 			page 68


 1918              	.LVL235:
 505:Drivers/lvgl/src/draw/lv_img_decoder.c ****     }
 1919              		.loc 1 505 16 view .LVU661
 1920 0044 05E0     		b	.L121
 1921              	.LVL236:
 1922              	.L119:
 491:Drivers/lvgl/src/draw/lv_img_decoder.c ****             res = lv_img_decoder_built_in_line_true_color(dsc, x, y, len, buf);
 1923              		.loc 1 491 9 is_stmt 1 view .LVU662
 491:Drivers/lvgl/src/draw/lv_img_decoder.c ****             res = lv_img_decoder_built_in_line_true_color(dsc, x, y, len, buf);
 1924              		.loc 1 491 15 is_stmt 0 view .LVU663
 1925 0046 90F810C0 		ldrb	ip, [r0, #16]	@ zero_extendqisi2
 491:Drivers/lvgl/src/draw/lv_img_decoder.c ****             res = lv_img_decoder_built_in_line_true_color(dsc, x, y, len, buf);
 1926              		.loc 1 491 11 view .LVU664
 1927 004a BCF1010F 		cmp	ip, #1
 1928 004e 02D0     		beq	.L128
 485:Drivers/lvgl/src/draw/lv_img_decoder.c **** 
 1929              		.loc 1 485 14 view .LVU665
 1930 0050 0020     		movs	r0, #0
 1931              	.LVL237:
 1932              	.L121:
 509:Drivers/lvgl/src/draw/lv_img_decoder.c **** 
 1933              		.loc 1 509 1 view .LVU666
 1934 0052 02B0     		add	sp, sp, #8
 1935              		.cfi_remember_state
 1936              		.cfi_def_cfa_offset 8
 1937              		@ sp needed
 1938 0054 10BD     		pop	{r4, pc}
 1939              	.LVL238:
 1940              	.L128:
 1941              		.cfi_restore_state
 492:Drivers/lvgl/src/draw/lv_img_decoder.c ****         }
 1942              		.loc 1 492 13 is_stmt 1 view .LVU667
 492:Drivers/lvgl/src/draw/lv_img_decoder.c ****         }
 1943              		.loc 1 492 19 is_stmt 0 view .LVU668
 1944 0056 059C     		ldr	r4, [sp, #20]
 1945 0058 0094     		str	r4, [sp]
 1946 005a FFF7FEFF 		bl	lv_img_decoder_built_in_line_true_color
