ARM GAS  /var/folders/0z/tsy30v1j4xl4_7kw94k978ww0000gn/T//ccDjPiYU.s 			page 1


   1              		.cpu cortex-m4
   2              		.arch armv7e-m
   3              		.fpu fpv4-sp-d16
   4              		.eabi_attribute 27, 1
   5              		.eabi_attribute 28, 1
   6              		.eabi_attribute 20, 1
   7              		.eabi_attribute 21, 1
   8              		.eabi_attribute 23, 3
   9              		.eabi_attribute 24, 1
  10              		.eabi_attribute 25, 1
  11              		.eabi_attribute 26, 1
  12              		.eabi_attribute 30, 1
  13              		.eabi_attribute 34, 1
  14              		.eabi_attribute 18, 4
  15              		.file	"lv_img.c"
  16              		.text
  17              	.Ltext0:
  18              		.cfi_sections	.debug_frame
  19              		.section	.text.lv_img_get_transformed_size,"ax",%progbits
  20              		.align	1
  21              		.syntax unified
  22              		.thumb
  23              		.thumb_func
  25              	lv_img_get_transformed_size:
  26              	.LVL0:
  27              	.LFB186:
  28              		.file 1 "Drivers/lvgl/src/widgets/lv_img.c"
   1:Drivers/lvgl/src/widgets/lv_img.c **** /**
   2:Drivers/lvgl/src/widgets/lv_img.c ****  * @file lv_img.c
   3:Drivers/lvgl/src/widgets/lv_img.c ****  *
   4:Drivers/lvgl/src/widgets/lv_img.c ****  */
   5:Drivers/lvgl/src/widgets/lv_img.c **** 
   6:Drivers/lvgl/src/widgets/lv_img.c **** /*********************
   7:Drivers/lvgl/src/widgets/lv_img.c ****  *      INCLUDES
   8:Drivers/lvgl/src/widgets/lv_img.c ****  *********************/
   9:Drivers/lvgl/src/widgets/lv_img.c **** #include "lv_img.h"
  10:Drivers/lvgl/src/widgets/lv_img.c **** #if LV_USE_IMG != 0
  11:Drivers/lvgl/src/widgets/lv_img.c **** 
  12:Drivers/lvgl/src/widgets/lv_img.c **** #include "../core/lv_disp.h"
  13:Drivers/lvgl/src/widgets/lv_img.c **** #include "../misc/lv_assert.h"
  14:Drivers/lvgl/src/widgets/lv_img.c **** #include "../draw/lv_img_decoder.h"
  15:Drivers/lvgl/src/widgets/lv_img.c **** #include "../misc/lv_fs.h"
  16:Drivers/lvgl/src/widgets/lv_img.c **** #include "../misc/lv_txt.h"
  17:Drivers/lvgl/src/widgets/lv_img.c **** #include "../misc/lv_math.h"
  18:Drivers/lvgl/src/widgets/lv_img.c **** #include "../misc/lv_log.h"
  19:Drivers/lvgl/src/widgets/lv_img.c **** 
  20:Drivers/lvgl/src/widgets/lv_img.c **** /*********************
  21:Drivers/lvgl/src/widgets/lv_img.c ****  *      DEFINES
  22:Drivers/lvgl/src/widgets/lv_img.c ****  *********************/
  23:Drivers/lvgl/src/widgets/lv_img.c **** #define MY_CLASS &lv_img_class
  24:Drivers/lvgl/src/widgets/lv_img.c **** 
  25:Drivers/lvgl/src/widgets/lv_img.c **** /**********************
  26:Drivers/lvgl/src/widgets/lv_img.c ****  *      TYPEDEFS
  27:Drivers/lvgl/src/widgets/lv_img.c ****  **********************/
  28:Drivers/lvgl/src/widgets/lv_img.c **** 
  29:Drivers/lvgl/src/widgets/lv_img.c **** /**********************
  30:Drivers/lvgl/src/widgets/lv_img.c ****  *  STATIC PROTOTYPES
ARM GAS  /var/folders/0z/tsy30v1j4xl4_7kw94k978ww0000gn/T//ccDjPiYU.s 			page 2


  31:Drivers/lvgl/src/widgets/lv_img.c ****  **********************/
  32:Drivers/lvgl/src/widgets/lv_img.c **** static void lv_img_constructor(const lv_obj_class_t * class_p, lv_obj_t * obj);
  33:Drivers/lvgl/src/widgets/lv_img.c **** static void lv_img_destructor(const lv_obj_class_t * class_p, lv_obj_t * obj);
  34:Drivers/lvgl/src/widgets/lv_img.c **** static void lv_img_event(const lv_obj_class_t * class_p, lv_event_t * e);
  35:Drivers/lvgl/src/widgets/lv_img.c **** static void draw_img(lv_event_t * e);
  36:Drivers/lvgl/src/widgets/lv_img.c **** 
  37:Drivers/lvgl/src/widgets/lv_img.c **** /**********************
  38:Drivers/lvgl/src/widgets/lv_img.c ****  *  STATIC VARIABLES
  39:Drivers/lvgl/src/widgets/lv_img.c ****  **********************/
  40:Drivers/lvgl/src/widgets/lv_img.c **** const lv_obj_class_t lv_img_class = {
  41:Drivers/lvgl/src/widgets/lv_img.c ****     .constructor_cb = lv_img_constructor,
  42:Drivers/lvgl/src/widgets/lv_img.c ****     .destructor_cb = lv_img_destructor,
  43:Drivers/lvgl/src/widgets/lv_img.c ****     .event_cb = lv_img_event,
  44:Drivers/lvgl/src/widgets/lv_img.c ****     .width_def = LV_SIZE_CONTENT,
  45:Drivers/lvgl/src/widgets/lv_img.c ****     .height_def = LV_SIZE_CONTENT,
  46:Drivers/lvgl/src/widgets/lv_img.c ****     .instance_size = sizeof(lv_img_t),
  47:Drivers/lvgl/src/widgets/lv_img.c ****     .base_class = &lv_obj_class
  48:Drivers/lvgl/src/widgets/lv_img.c **** };
  49:Drivers/lvgl/src/widgets/lv_img.c **** 
  50:Drivers/lvgl/src/widgets/lv_img.c **** /**********************
  51:Drivers/lvgl/src/widgets/lv_img.c ****  *      MACROS
  52:Drivers/lvgl/src/widgets/lv_img.c ****  **********************/
  53:Drivers/lvgl/src/widgets/lv_img.c **** 
  54:Drivers/lvgl/src/widgets/lv_img.c **** /**********************
  55:Drivers/lvgl/src/widgets/lv_img.c ****  *   GLOBAL FUNCTIONS
  56:Drivers/lvgl/src/widgets/lv_img.c ****  **********************/
  57:Drivers/lvgl/src/widgets/lv_img.c **** 
  58:Drivers/lvgl/src/widgets/lv_img.c **** lv_obj_t * lv_img_create(lv_obj_t * parent)
  59:Drivers/lvgl/src/widgets/lv_img.c **** {
  60:Drivers/lvgl/src/widgets/lv_img.c ****     LV_LOG_INFO("begin");
  61:Drivers/lvgl/src/widgets/lv_img.c ****     lv_obj_t * obj = lv_obj_class_create_obj(MY_CLASS, parent);
  62:Drivers/lvgl/src/widgets/lv_img.c ****     lv_obj_class_init_obj(obj);
  63:Drivers/lvgl/src/widgets/lv_img.c ****     return obj;
  64:Drivers/lvgl/src/widgets/lv_img.c **** }
  65:Drivers/lvgl/src/widgets/lv_img.c **** 
  66:Drivers/lvgl/src/widgets/lv_img.c **** /*=====================
  67:Drivers/lvgl/src/widgets/lv_img.c ****  * Setter functions
  68:Drivers/lvgl/src/widgets/lv_img.c ****  *====================*/
  69:Drivers/lvgl/src/widgets/lv_img.c **** 
  70:Drivers/lvgl/src/widgets/lv_img.c **** void lv_img_set_src(lv_obj_t * obj, const void * src)
  71:Drivers/lvgl/src/widgets/lv_img.c **** {
  72:Drivers/lvgl/src/widgets/lv_img.c ****     LV_ASSERT_OBJ(obj, MY_CLASS);
  73:Drivers/lvgl/src/widgets/lv_img.c **** 
  74:Drivers/lvgl/src/widgets/lv_img.c ****     lv_obj_invalidate(obj);
  75:Drivers/lvgl/src/widgets/lv_img.c **** 
  76:Drivers/lvgl/src/widgets/lv_img.c ****     lv_img_src_t src_type = lv_img_src_get_type(src);
  77:Drivers/lvgl/src/widgets/lv_img.c ****     lv_img_t * img = (lv_img_t *)obj;
  78:Drivers/lvgl/src/widgets/lv_img.c **** 
  79:Drivers/lvgl/src/widgets/lv_img.c **** #if LV_USE_LOG && LV_LOG_LEVEL >= LV_LOG_LEVEL_INFO
  80:Drivers/lvgl/src/widgets/lv_img.c ****     switch(src_type) {
  81:Drivers/lvgl/src/widgets/lv_img.c ****         case LV_IMG_SRC_FILE:
  82:Drivers/lvgl/src/widgets/lv_img.c ****             LV_LOG_TRACE("lv_img_set_src: `LV_IMG_SRC_FILE` type found");
  83:Drivers/lvgl/src/widgets/lv_img.c ****             break;
  84:Drivers/lvgl/src/widgets/lv_img.c ****         case LV_IMG_SRC_VARIABLE:
  85:Drivers/lvgl/src/widgets/lv_img.c ****             LV_LOG_TRACE("lv_img_set_src: `LV_IMG_SRC_VARIABLE` type found");
  86:Drivers/lvgl/src/widgets/lv_img.c ****             break;
  87:Drivers/lvgl/src/widgets/lv_img.c ****         case LV_IMG_SRC_SYMBOL:
ARM GAS  /var/folders/0z/tsy30v1j4xl4_7kw94k978ww0000gn/T//ccDjPiYU.s 			page 3


  88:Drivers/lvgl/src/widgets/lv_img.c ****             LV_LOG_TRACE("lv_img_set_src: `LV_IMG_SRC_SYMBOL` type found");
  89:Drivers/lvgl/src/widgets/lv_img.c ****             break;
  90:Drivers/lvgl/src/widgets/lv_img.c ****         default:
  91:Drivers/lvgl/src/widgets/lv_img.c ****             LV_LOG_WARN("lv_img_set_src: unknown type");
  92:Drivers/lvgl/src/widgets/lv_img.c ****     }
  93:Drivers/lvgl/src/widgets/lv_img.c **** #endif
  94:Drivers/lvgl/src/widgets/lv_img.c **** 
  95:Drivers/lvgl/src/widgets/lv_img.c ****     /*If the new source type is unknown free the memories of the old source*/
  96:Drivers/lvgl/src/widgets/lv_img.c ****     if(src_type == LV_IMG_SRC_UNKNOWN) {
  97:Drivers/lvgl/src/widgets/lv_img.c ****         LV_LOG_WARN("lv_img_set_src: unknown image type");
  98:Drivers/lvgl/src/widgets/lv_img.c ****         if(img->src_type == LV_IMG_SRC_SYMBOL || img->src_type == LV_IMG_SRC_FILE) {
  99:Drivers/lvgl/src/widgets/lv_img.c ****             lv_mem_free((void *)img->src);
 100:Drivers/lvgl/src/widgets/lv_img.c ****         }
 101:Drivers/lvgl/src/widgets/lv_img.c ****         img->src      = NULL;
 102:Drivers/lvgl/src/widgets/lv_img.c ****         img->src_type = LV_IMG_SRC_UNKNOWN;
 103:Drivers/lvgl/src/widgets/lv_img.c ****         return;
 104:Drivers/lvgl/src/widgets/lv_img.c ****     }
 105:Drivers/lvgl/src/widgets/lv_img.c **** 
 106:Drivers/lvgl/src/widgets/lv_img.c ****     lv_img_header_t header;
 107:Drivers/lvgl/src/widgets/lv_img.c ****     lv_img_decoder_get_info(src, &header);
 108:Drivers/lvgl/src/widgets/lv_img.c **** 
 109:Drivers/lvgl/src/widgets/lv_img.c ****     /*Save the source*/
 110:Drivers/lvgl/src/widgets/lv_img.c ****     if(src_type == LV_IMG_SRC_VARIABLE) {
 111:Drivers/lvgl/src/widgets/lv_img.c ****         /*If memory was allocated because of the previous `src_type` then free it*/
 112:Drivers/lvgl/src/widgets/lv_img.c ****         if(img->src_type == LV_IMG_SRC_FILE || img->src_type == LV_IMG_SRC_SYMBOL) {
 113:Drivers/lvgl/src/widgets/lv_img.c ****             lv_mem_free((void *)img->src);
 114:Drivers/lvgl/src/widgets/lv_img.c ****         }
 115:Drivers/lvgl/src/widgets/lv_img.c ****         img->src = src;
 116:Drivers/lvgl/src/widgets/lv_img.c ****     }
 117:Drivers/lvgl/src/widgets/lv_img.c ****     else if(src_type == LV_IMG_SRC_FILE || src_type == LV_IMG_SRC_SYMBOL) {
 118:Drivers/lvgl/src/widgets/lv_img.c ****         /*If the new and the old src are the same then it was only a refresh.*/
 119:Drivers/lvgl/src/widgets/lv_img.c ****         if(img->src != src) {
 120:Drivers/lvgl/src/widgets/lv_img.c ****             const void * old_src = NULL;
 121:Drivers/lvgl/src/widgets/lv_img.c ****             /*If memory was allocated because of the previous `src_type` then save its pointer and 
 122:Drivers/lvgl/src/widgets/lv_img.c ****              *It's important to allocate first to be sure the new data will be on a new address.
 123:Drivers/lvgl/src/widgets/lv_img.c ****              *Else `img_cache` wouldn't see the change in source.*/
 124:Drivers/lvgl/src/widgets/lv_img.c ****             if(img->src_type == LV_IMG_SRC_FILE || img->src_type == LV_IMG_SRC_SYMBOL) {
 125:Drivers/lvgl/src/widgets/lv_img.c ****                 old_src = img->src;
 126:Drivers/lvgl/src/widgets/lv_img.c ****             }
 127:Drivers/lvgl/src/widgets/lv_img.c ****             char * new_str = lv_mem_alloc(strlen(src) + 1);
 128:Drivers/lvgl/src/widgets/lv_img.c ****             LV_ASSERT_MALLOC(new_str);
 129:Drivers/lvgl/src/widgets/lv_img.c ****             if(new_str == NULL) return;
 130:Drivers/lvgl/src/widgets/lv_img.c ****             strcpy(new_str, src);
 131:Drivers/lvgl/src/widgets/lv_img.c ****             img->src = new_str;
 132:Drivers/lvgl/src/widgets/lv_img.c **** 
 133:Drivers/lvgl/src/widgets/lv_img.c ****             if(old_src) lv_mem_free((void *)old_src);
 134:Drivers/lvgl/src/widgets/lv_img.c ****         }
 135:Drivers/lvgl/src/widgets/lv_img.c ****     }
 136:Drivers/lvgl/src/widgets/lv_img.c **** 
 137:Drivers/lvgl/src/widgets/lv_img.c ****     if(src_type == LV_IMG_SRC_SYMBOL) {
 138:Drivers/lvgl/src/widgets/lv_img.c ****         /*`lv_img_dsc_get_info` couldn't set the width and height of a font so set it here*/
 139:Drivers/lvgl/src/widgets/lv_img.c ****         const lv_font_t * font = lv_obj_get_style_text_font(obj, LV_PART_MAIN);
 140:Drivers/lvgl/src/widgets/lv_img.c ****         lv_coord_t letter_space = lv_obj_get_style_text_letter_space(obj, LV_PART_MAIN);
 141:Drivers/lvgl/src/widgets/lv_img.c ****         lv_coord_t line_space = lv_obj_get_style_text_line_space(obj, LV_PART_MAIN);
 142:Drivers/lvgl/src/widgets/lv_img.c ****         lv_point_t size;
 143:Drivers/lvgl/src/widgets/lv_img.c ****         lv_txt_get_size(&size, src, font, letter_space, line_space, LV_COORD_MAX, LV_TEXT_FLAG_NONE
 144:Drivers/lvgl/src/widgets/lv_img.c ****         header.w = size.x;
ARM GAS  /var/folders/0z/tsy30v1j4xl4_7kw94k978ww0000gn/T//ccDjPiYU.s 			page 4


 145:Drivers/lvgl/src/widgets/lv_img.c ****         header.h = size.y;
 146:Drivers/lvgl/src/widgets/lv_img.c ****     }
 147:Drivers/lvgl/src/widgets/lv_img.c **** 
 148:Drivers/lvgl/src/widgets/lv_img.c ****     img->src_type = src_type;
 149:Drivers/lvgl/src/widgets/lv_img.c ****     img->w        = header.w;
 150:Drivers/lvgl/src/widgets/lv_img.c ****     img->h        = header.h;
 151:Drivers/lvgl/src/widgets/lv_img.c ****     img->cf       = header.cf;
 152:Drivers/lvgl/src/widgets/lv_img.c ****     img->pivot.x = header.w / 2;
 153:Drivers/lvgl/src/widgets/lv_img.c ****     img->pivot.y = header.h / 2;
 154:Drivers/lvgl/src/widgets/lv_img.c **** 
 155:Drivers/lvgl/src/widgets/lv_img.c ****     lv_obj_refresh_self_size(obj);
 156:Drivers/lvgl/src/widgets/lv_img.c **** 
 157:Drivers/lvgl/src/widgets/lv_img.c ****     /*Provide enough room for the rotated corners*/
 158:Drivers/lvgl/src/widgets/lv_img.c ****     if(img->angle || img->zoom != LV_IMG_ZOOM_NONE) lv_obj_refresh_ext_draw_size(obj);
 159:Drivers/lvgl/src/widgets/lv_img.c **** 
 160:Drivers/lvgl/src/widgets/lv_img.c ****     lv_obj_invalidate(obj);
 161:Drivers/lvgl/src/widgets/lv_img.c **** }
 162:Drivers/lvgl/src/widgets/lv_img.c **** 
 163:Drivers/lvgl/src/widgets/lv_img.c **** void lv_img_set_offset_x(lv_obj_t * obj, lv_coord_t x)
 164:Drivers/lvgl/src/widgets/lv_img.c **** {
 165:Drivers/lvgl/src/widgets/lv_img.c ****     LV_ASSERT_OBJ(obj, MY_CLASS);
 166:Drivers/lvgl/src/widgets/lv_img.c **** 
 167:Drivers/lvgl/src/widgets/lv_img.c ****     lv_img_t * img = (lv_img_t *)obj;
 168:Drivers/lvgl/src/widgets/lv_img.c **** 
 169:Drivers/lvgl/src/widgets/lv_img.c ****     img->offset.x = x;
 170:Drivers/lvgl/src/widgets/lv_img.c ****     lv_obj_invalidate(obj);
 171:Drivers/lvgl/src/widgets/lv_img.c **** }
 172:Drivers/lvgl/src/widgets/lv_img.c **** 
 173:Drivers/lvgl/src/widgets/lv_img.c **** void lv_img_set_offset_y(lv_obj_t * obj, lv_coord_t y)
 174:Drivers/lvgl/src/widgets/lv_img.c **** {
 175:Drivers/lvgl/src/widgets/lv_img.c ****     LV_ASSERT_OBJ(obj, MY_CLASS);
 176:Drivers/lvgl/src/widgets/lv_img.c **** 
 177:Drivers/lvgl/src/widgets/lv_img.c ****     lv_img_t * img = (lv_img_t *)obj;
 178:Drivers/lvgl/src/widgets/lv_img.c **** 
 179:Drivers/lvgl/src/widgets/lv_img.c ****     img->offset.y = y;
 180:Drivers/lvgl/src/widgets/lv_img.c ****     lv_obj_invalidate(obj);
 181:Drivers/lvgl/src/widgets/lv_img.c **** }
 182:Drivers/lvgl/src/widgets/lv_img.c **** 
 183:Drivers/lvgl/src/widgets/lv_img.c **** void lv_img_set_angle(lv_obj_t * obj, int16_t angle)
 184:Drivers/lvgl/src/widgets/lv_img.c **** {
 185:Drivers/lvgl/src/widgets/lv_img.c ****     while(angle >= 3600) angle -= 3600;
 186:Drivers/lvgl/src/widgets/lv_img.c ****     while(angle < 0) angle += 3600;
 187:Drivers/lvgl/src/widgets/lv_img.c **** 
 188:Drivers/lvgl/src/widgets/lv_img.c ****     lv_img_t * img = (lv_img_t *)obj;
 189:Drivers/lvgl/src/widgets/lv_img.c ****     if(angle == img->angle) return;
 190:Drivers/lvgl/src/widgets/lv_img.c **** 
 191:Drivers/lvgl/src/widgets/lv_img.c ****     lv_obj_update_layout(obj);  /*Be sure the object's size is calculated*/
 192:Drivers/lvgl/src/widgets/lv_img.c ****     lv_coord_t w = lv_obj_get_width(obj);
 193:Drivers/lvgl/src/widgets/lv_img.c ****     lv_coord_t h = lv_obj_get_height(obj);
 194:Drivers/lvgl/src/widgets/lv_img.c ****     lv_area_t a;
 195:Drivers/lvgl/src/widgets/lv_img.c ****     _lv_img_buf_get_transformed_area(&a, w, h, img->angle, img->zoom, &img->pivot);
 196:Drivers/lvgl/src/widgets/lv_img.c ****     a.x1 += obj->coords.x1;
 197:Drivers/lvgl/src/widgets/lv_img.c ****     a.y1 += obj->coords.y1;
 198:Drivers/lvgl/src/widgets/lv_img.c ****     a.x2 += obj->coords.x1;
 199:Drivers/lvgl/src/widgets/lv_img.c ****     a.y2 += obj->coords.y1;
 200:Drivers/lvgl/src/widgets/lv_img.c ****     lv_obj_invalidate_area(obj, &a);
 201:Drivers/lvgl/src/widgets/lv_img.c **** 
ARM GAS  /var/folders/0z/tsy30v1j4xl4_7kw94k978ww0000gn/T//ccDjPiYU.s 			page 5


 202:Drivers/lvgl/src/widgets/lv_img.c ****     img->angle = angle;
 203:Drivers/lvgl/src/widgets/lv_img.c **** 
 204:Drivers/lvgl/src/widgets/lv_img.c ****     /* Disable invalidations because lv_obj_refresh_ext_draw_size would invalidate
 205:Drivers/lvgl/src/widgets/lv_img.c ****      * the whole ext draw area */
 206:Drivers/lvgl/src/widgets/lv_img.c ****     lv_disp_t * disp = lv_obj_get_disp(obj);
 207:Drivers/lvgl/src/widgets/lv_img.c ****     lv_disp_enable_invalidation(disp, false);
 208:Drivers/lvgl/src/widgets/lv_img.c ****     lv_obj_refresh_ext_draw_size(obj);
 209:Drivers/lvgl/src/widgets/lv_img.c ****     lv_disp_enable_invalidation(disp, true);
 210:Drivers/lvgl/src/widgets/lv_img.c **** 
 211:Drivers/lvgl/src/widgets/lv_img.c ****     _lv_img_buf_get_transformed_area(&a, w, h, img->angle, img->zoom, &img->pivot);
 212:Drivers/lvgl/src/widgets/lv_img.c ****     a.x1 += obj->coords.x1;
 213:Drivers/lvgl/src/widgets/lv_img.c ****     a.y1 += obj->coords.y1;
 214:Drivers/lvgl/src/widgets/lv_img.c ****     a.x2 += obj->coords.x1;
 215:Drivers/lvgl/src/widgets/lv_img.c ****     a.y2 += obj->coords.y1;
 216:Drivers/lvgl/src/widgets/lv_img.c ****     lv_obj_invalidate_area(obj, &a);
 217:Drivers/lvgl/src/widgets/lv_img.c **** }
 218:Drivers/lvgl/src/widgets/lv_img.c **** 
 219:Drivers/lvgl/src/widgets/lv_img.c **** void lv_img_set_pivot(lv_obj_t * obj, lv_coord_t x, lv_coord_t y)
 220:Drivers/lvgl/src/widgets/lv_img.c **** {
 221:Drivers/lvgl/src/widgets/lv_img.c ****     lv_img_t * img = (lv_img_t *)obj;
 222:Drivers/lvgl/src/widgets/lv_img.c ****     if(img->pivot.x == x && img->pivot.y == y) return;
 223:Drivers/lvgl/src/widgets/lv_img.c **** 
 224:Drivers/lvgl/src/widgets/lv_img.c ****     lv_obj_update_layout(obj);  /*Be sure the object's size is calculated*/
 225:Drivers/lvgl/src/widgets/lv_img.c ****     lv_coord_t w = lv_obj_get_width(obj);
 226:Drivers/lvgl/src/widgets/lv_img.c ****     lv_coord_t h = lv_obj_get_height(obj);
 227:Drivers/lvgl/src/widgets/lv_img.c ****     lv_area_t a;
 228:Drivers/lvgl/src/widgets/lv_img.c ****     _lv_img_buf_get_transformed_area(&a, w, h, img->angle, img->zoom, &img->pivot);
 229:Drivers/lvgl/src/widgets/lv_img.c ****     a.x1 += obj->coords.x1;
 230:Drivers/lvgl/src/widgets/lv_img.c ****     a.y1 += obj->coords.y1;
 231:Drivers/lvgl/src/widgets/lv_img.c ****     a.x2 += obj->coords.x1;
 232:Drivers/lvgl/src/widgets/lv_img.c ****     a.y2 += obj->coords.y1;
 233:Drivers/lvgl/src/widgets/lv_img.c ****     lv_obj_invalidate_area(obj, &a);
 234:Drivers/lvgl/src/widgets/lv_img.c **** 
 235:Drivers/lvgl/src/widgets/lv_img.c ****     img->pivot.x = x;
 236:Drivers/lvgl/src/widgets/lv_img.c ****     img->pivot.y = y;
 237:Drivers/lvgl/src/widgets/lv_img.c **** 
 238:Drivers/lvgl/src/widgets/lv_img.c ****     /* Disable invalidations because lv_obj_refresh_ext_draw_size would invalidate
 239:Drivers/lvgl/src/widgets/lv_img.c ****      * the whole ext draw area */
 240:Drivers/lvgl/src/widgets/lv_img.c ****     lv_disp_t * disp = lv_obj_get_disp(obj);
 241:Drivers/lvgl/src/widgets/lv_img.c ****     lv_disp_enable_invalidation(disp, false);
 242:Drivers/lvgl/src/widgets/lv_img.c ****     lv_obj_refresh_ext_draw_size(obj);
 243:Drivers/lvgl/src/widgets/lv_img.c ****     lv_disp_enable_invalidation(disp, true);
 244:Drivers/lvgl/src/widgets/lv_img.c **** 
 245:Drivers/lvgl/src/widgets/lv_img.c ****     _lv_img_buf_get_transformed_area(&a, w, h, img->angle, img->zoom, &img->pivot);
 246:Drivers/lvgl/src/widgets/lv_img.c ****     a.x1 += obj->coords.x1;
 247:Drivers/lvgl/src/widgets/lv_img.c ****     a.y1 += obj->coords.y1;
 248:Drivers/lvgl/src/widgets/lv_img.c ****     a.x2 += obj->coords.x1;
 249:Drivers/lvgl/src/widgets/lv_img.c ****     a.y2 += obj->coords.y1;
 250:Drivers/lvgl/src/widgets/lv_img.c ****     lv_obj_invalidate_area(obj, &a);
 251:Drivers/lvgl/src/widgets/lv_img.c **** }
 252:Drivers/lvgl/src/widgets/lv_img.c **** 
 253:Drivers/lvgl/src/widgets/lv_img.c **** void lv_img_set_zoom(lv_obj_t * obj, uint16_t zoom)
 254:Drivers/lvgl/src/widgets/lv_img.c **** {
 255:Drivers/lvgl/src/widgets/lv_img.c ****     lv_img_t * img = (lv_img_t *)obj;
 256:Drivers/lvgl/src/widgets/lv_img.c ****     if(zoom == img->zoom) return;
 257:Drivers/lvgl/src/widgets/lv_img.c **** 
 258:Drivers/lvgl/src/widgets/lv_img.c ****     if(zoom == 0) zoom = 1;
ARM GAS  /var/folders/0z/tsy30v1j4xl4_7kw94k978ww0000gn/T//ccDjPiYU.s 			page 6


 259:Drivers/lvgl/src/widgets/lv_img.c **** 
 260:Drivers/lvgl/src/widgets/lv_img.c ****     lv_obj_update_layout(obj);  /*Be sure the object's size is calculated*/
 261:Drivers/lvgl/src/widgets/lv_img.c ****     lv_coord_t w = lv_obj_get_width(obj);
 262:Drivers/lvgl/src/widgets/lv_img.c ****     lv_coord_t h = lv_obj_get_height(obj);
 263:Drivers/lvgl/src/widgets/lv_img.c ****     lv_area_t a;
 264:Drivers/lvgl/src/widgets/lv_img.c ****     _lv_img_buf_get_transformed_area(&a, w, h, img->angle, img->zoom >> 8, &img->pivot);
 265:Drivers/lvgl/src/widgets/lv_img.c ****     a.x1 += obj->coords.x1 - 1;
 266:Drivers/lvgl/src/widgets/lv_img.c ****     a.y1 += obj->coords.y1 - 1;
 267:Drivers/lvgl/src/widgets/lv_img.c ****     a.x2 += obj->coords.x1 + 1;
 268:Drivers/lvgl/src/widgets/lv_img.c ****     a.y2 += obj->coords.y1 + 1;
 269:Drivers/lvgl/src/widgets/lv_img.c ****     lv_obj_invalidate_area(obj, &a);
 270:Drivers/lvgl/src/widgets/lv_img.c **** 
 271:Drivers/lvgl/src/widgets/lv_img.c ****     img->zoom = zoom;
 272:Drivers/lvgl/src/widgets/lv_img.c **** 
 273:Drivers/lvgl/src/widgets/lv_img.c ****     /* Disable invalidations because lv_obj_refresh_ext_draw_size would invalidate
 274:Drivers/lvgl/src/widgets/lv_img.c ****      * the whole ext draw area */
 275:Drivers/lvgl/src/widgets/lv_img.c ****     lv_disp_t * disp = lv_obj_get_disp(obj);
 276:Drivers/lvgl/src/widgets/lv_img.c ****     lv_disp_enable_invalidation(disp, false);
 277:Drivers/lvgl/src/widgets/lv_img.c ****     lv_obj_refresh_ext_draw_size(obj);
 278:Drivers/lvgl/src/widgets/lv_img.c ****     lv_disp_enable_invalidation(disp, true);
 279:Drivers/lvgl/src/widgets/lv_img.c **** 
 280:Drivers/lvgl/src/widgets/lv_img.c ****     _lv_img_buf_get_transformed_area(&a, w, h, img->angle, img->zoom, &img->pivot);
 281:Drivers/lvgl/src/widgets/lv_img.c ****     a.x1 += obj->coords.x1 - 1;
 282:Drivers/lvgl/src/widgets/lv_img.c ****     a.y1 += obj->coords.y1 - 1;
 283:Drivers/lvgl/src/widgets/lv_img.c ****     a.x2 += obj->coords.x1 + 1;
 284:Drivers/lvgl/src/widgets/lv_img.c ****     a.y2 += obj->coords.y1 + 1;
 285:Drivers/lvgl/src/widgets/lv_img.c ****     lv_obj_invalidate_area(obj, &a);
 286:Drivers/lvgl/src/widgets/lv_img.c **** }
 287:Drivers/lvgl/src/widgets/lv_img.c **** 
 288:Drivers/lvgl/src/widgets/lv_img.c **** void lv_img_set_antialias(lv_obj_t * obj, bool antialias)
 289:Drivers/lvgl/src/widgets/lv_img.c **** {
 290:Drivers/lvgl/src/widgets/lv_img.c ****     lv_img_t * img = (lv_img_t *)obj;
 291:Drivers/lvgl/src/widgets/lv_img.c ****     if(antialias == img->antialias) return;
 292:Drivers/lvgl/src/widgets/lv_img.c **** 
 293:Drivers/lvgl/src/widgets/lv_img.c ****     img->antialias = antialias;
 294:Drivers/lvgl/src/widgets/lv_img.c ****     lv_obj_invalidate(obj);
 295:Drivers/lvgl/src/widgets/lv_img.c **** }
 296:Drivers/lvgl/src/widgets/lv_img.c **** 
 297:Drivers/lvgl/src/widgets/lv_img.c **** void lv_img_set_size_mode(lv_obj_t * obj, lv_img_size_mode_t mode)
 298:Drivers/lvgl/src/widgets/lv_img.c **** {
 299:Drivers/lvgl/src/widgets/lv_img.c ****     LV_ASSERT_OBJ(obj, MY_CLASS);
 300:Drivers/lvgl/src/widgets/lv_img.c ****     lv_img_t * img = (lv_img_t *)obj;
 301:Drivers/lvgl/src/widgets/lv_img.c ****     if(mode == img->obj_size_mode) return;
 302:Drivers/lvgl/src/widgets/lv_img.c **** 
 303:Drivers/lvgl/src/widgets/lv_img.c ****     img->obj_size_mode = mode;
 304:Drivers/lvgl/src/widgets/lv_img.c ****     lv_obj_invalidate(obj);
 305:Drivers/lvgl/src/widgets/lv_img.c **** }
 306:Drivers/lvgl/src/widgets/lv_img.c **** 
 307:Drivers/lvgl/src/widgets/lv_img.c **** /*=====================
 308:Drivers/lvgl/src/widgets/lv_img.c ****  * Getter functions
 309:Drivers/lvgl/src/widgets/lv_img.c ****  *====================*/
 310:Drivers/lvgl/src/widgets/lv_img.c **** 
 311:Drivers/lvgl/src/widgets/lv_img.c **** const void * lv_img_get_src(lv_obj_t * obj)
 312:Drivers/lvgl/src/widgets/lv_img.c **** {
 313:Drivers/lvgl/src/widgets/lv_img.c ****     LV_ASSERT_OBJ(obj, MY_CLASS);
 314:Drivers/lvgl/src/widgets/lv_img.c **** 
 315:Drivers/lvgl/src/widgets/lv_img.c ****     lv_img_t * img = (lv_img_t *)obj;
ARM GAS  /var/folders/0z/tsy30v1j4xl4_7kw94k978ww0000gn/T//ccDjPiYU.s 			page 7


 316:Drivers/lvgl/src/widgets/lv_img.c **** 
 317:Drivers/lvgl/src/widgets/lv_img.c ****     return img->src;
 318:Drivers/lvgl/src/widgets/lv_img.c **** }
 319:Drivers/lvgl/src/widgets/lv_img.c **** 
 320:Drivers/lvgl/src/widgets/lv_img.c **** lv_coord_t lv_img_get_offset_x(lv_obj_t * obj)
 321:Drivers/lvgl/src/widgets/lv_img.c **** {
 322:Drivers/lvgl/src/widgets/lv_img.c ****     LV_ASSERT_OBJ(obj, MY_CLASS);
 323:Drivers/lvgl/src/widgets/lv_img.c **** 
 324:Drivers/lvgl/src/widgets/lv_img.c ****     lv_img_t * img = (lv_img_t *)obj;
 325:Drivers/lvgl/src/widgets/lv_img.c **** 
 326:Drivers/lvgl/src/widgets/lv_img.c ****     return img->offset.x;
 327:Drivers/lvgl/src/widgets/lv_img.c **** }
 328:Drivers/lvgl/src/widgets/lv_img.c **** 
 329:Drivers/lvgl/src/widgets/lv_img.c **** lv_coord_t lv_img_get_offset_y(lv_obj_t * obj)
 330:Drivers/lvgl/src/widgets/lv_img.c **** {
 331:Drivers/lvgl/src/widgets/lv_img.c ****     LV_ASSERT_OBJ(obj, MY_CLASS);
 332:Drivers/lvgl/src/widgets/lv_img.c **** 
 333:Drivers/lvgl/src/widgets/lv_img.c ****     lv_img_t * img = (lv_img_t *)obj;
 334:Drivers/lvgl/src/widgets/lv_img.c **** 
 335:Drivers/lvgl/src/widgets/lv_img.c ****     return img->offset.y;
 336:Drivers/lvgl/src/widgets/lv_img.c **** }
 337:Drivers/lvgl/src/widgets/lv_img.c **** 
 338:Drivers/lvgl/src/widgets/lv_img.c **** uint16_t lv_img_get_angle(lv_obj_t * obj)
 339:Drivers/lvgl/src/widgets/lv_img.c **** {
 340:Drivers/lvgl/src/widgets/lv_img.c ****     LV_ASSERT_OBJ(obj, MY_CLASS);
 341:Drivers/lvgl/src/widgets/lv_img.c **** 
 342:Drivers/lvgl/src/widgets/lv_img.c ****     lv_img_t * img = (lv_img_t *)obj;
 343:Drivers/lvgl/src/widgets/lv_img.c **** 
 344:Drivers/lvgl/src/widgets/lv_img.c ****     return img->angle;
 345:Drivers/lvgl/src/widgets/lv_img.c **** }
 346:Drivers/lvgl/src/widgets/lv_img.c **** 
 347:Drivers/lvgl/src/widgets/lv_img.c **** void lv_img_get_pivot(lv_obj_t * obj, lv_point_t * pivot)
 348:Drivers/lvgl/src/widgets/lv_img.c **** {
 349:Drivers/lvgl/src/widgets/lv_img.c ****     LV_ASSERT_OBJ(obj, MY_CLASS);
 350:Drivers/lvgl/src/widgets/lv_img.c **** 
 351:Drivers/lvgl/src/widgets/lv_img.c ****     lv_img_t * img = (lv_img_t *)obj;
 352:Drivers/lvgl/src/widgets/lv_img.c **** 
 353:Drivers/lvgl/src/widgets/lv_img.c ****     *pivot = img->pivot;
 354:Drivers/lvgl/src/widgets/lv_img.c **** }
 355:Drivers/lvgl/src/widgets/lv_img.c **** 
 356:Drivers/lvgl/src/widgets/lv_img.c **** uint16_t lv_img_get_zoom(lv_obj_t * obj)
 357:Drivers/lvgl/src/widgets/lv_img.c **** {
 358:Drivers/lvgl/src/widgets/lv_img.c ****     LV_ASSERT_OBJ(obj, MY_CLASS);
 359:Drivers/lvgl/src/widgets/lv_img.c **** 
 360:Drivers/lvgl/src/widgets/lv_img.c ****     lv_img_t * img = (lv_img_t *)obj;
 361:Drivers/lvgl/src/widgets/lv_img.c **** 
 362:Drivers/lvgl/src/widgets/lv_img.c ****     return img->zoom;
 363:Drivers/lvgl/src/widgets/lv_img.c **** }
 364:Drivers/lvgl/src/widgets/lv_img.c **** 
 365:Drivers/lvgl/src/widgets/lv_img.c **** bool lv_img_get_antialias(lv_obj_t * obj)
 366:Drivers/lvgl/src/widgets/lv_img.c **** {
 367:Drivers/lvgl/src/widgets/lv_img.c ****     LV_ASSERT_OBJ(obj, MY_CLASS);
 368:Drivers/lvgl/src/widgets/lv_img.c **** 
 369:Drivers/lvgl/src/widgets/lv_img.c ****     lv_img_t * img = (lv_img_t *)obj;
 370:Drivers/lvgl/src/widgets/lv_img.c **** 
 371:Drivers/lvgl/src/widgets/lv_img.c ****     return img->antialias ? true : false;
 372:Drivers/lvgl/src/widgets/lv_img.c **** }
ARM GAS  /var/folders/0z/tsy30v1j4xl4_7kw94k978ww0000gn/T//ccDjPiYU.s 			page 8


 373:Drivers/lvgl/src/widgets/lv_img.c **** 
 374:Drivers/lvgl/src/widgets/lv_img.c **** lv_img_size_mode_t lv_img_get_size_mode(lv_obj_t * obj)
 375:Drivers/lvgl/src/widgets/lv_img.c **** {
 376:Drivers/lvgl/src/widgets/lv_img.c ****     LV_ASSERT_OBJ(obj, MY_CLASS);
 377:Drivers/lvgl/src/widgets/lv_img.c ****     lv_img_t * img = (lv_img_t *)obj;
 378:Drivers/lvgl/src/widgets/lv_img.c ****     return img->obj_size_mode;
 379:Drivers/lvgl/src/widgets/lv_img.c **** }
 380:Drivers/lvgl/src/widgets/lv_img.c **** 
 381:Drivers/lvgl/src/widgets/lv_img.c **** /**********************
 382:Drivers/lvgl/src/widgets/lv_img.c ****  *   STATIC FUNCTIONS
 383:Drivers/lvgl/src/widgets/lv_img.c ****  **********************/
 384:Drivers/lvgl/src/widgets/lv_img.c **** 
 385:Drivers/lvgl/src/widgets/lv_img.c **** static void lv_img_constructor(const lv_obj_class_t * class_p, lv_obj_t * obj)
 386:Drivers/lvgl/src/widgets/lv_img.c **** {
 387:Drivers/lvgl/src/widgets/lv_img.c ****     LV_UNUSED(class_p);
 388:Drivers/lvgl/src/widgets/lv_img.c ****     LV_TRACE_OBJ_CREATE("begin");
 389:Drivers/lvgl/src/widgets/lv_img.c **** 
 390:Drivers/lvgl/src/widgets/lv_img.c ****     lv_img_t * img = (lv_img_t *)obj;
 391:Drivers/lvgl/src/widgets/lv_img.c **** 
 392:Drivers/lvgl/src/widgets/lv_img.c ****     img->src       = NULL;
 393:Drivers/lvgl/src/widgets/lv_img.c ****     img->src_type  = LV_IMG_SRC_UNKNOWN;
 394:Drivers/lvgl/src/widgets/lv_img.c ****     img->cf        = LV_IMG_CF_UNKNOWN;
 395:Drivers/lvgl/src/widgets/lv_img.c ****     img->w         = lv_obj_get_width(obj);
 396:Drivers/lvgl/src/widgets/lv_img.c ****     img->h         = lv_obj_get_height(obj);
 397:Drivers/lvgl/src/widgets/lv_img.c ****     img->angle = 0;
 398:Drivers/lvgl/src/widgets/lv_img.c ****     img->zoom = LV_IMG_ZOOM_NONE;
 399:Drivers/lvgl/src/widgets/lv_img.c ****     img->antialias = LV_COLOR_DEPTH > 8 ? 1 : 0;
 400:Drivers/lvgl/src/widgets/lv_img.c ****     img->offset.x  = 0;
 401:Drivers/lvgl/src/widgets/lv_img.c ****     img->offset.y  = 0;
 402:Drivers/lvgl/src/widgets/lv_img.c ****     img->pivot.x = 0;
 403:Drivers/lvgl/src/widgets/lv_img.c ****     img->pivot.y = 0;
 404:Drivers/lvgl/src/widgets/lv_img.c ****     img->obj_size_mode = LV_IMG_SIZE_MODE_VIRTUAL;
 405:Drivers/lvgl/src/widgets/lv_img.c **** 
 406:Drivers/lvgl/src/widgets/lv_img.c ****     lv_obj_clear_flag(obj, LV_OBJ_FLAG_CLICKABLE);
 407:Drivers/lvgl/src/widgets/lv_img.c ****     lv_obj_add_flag(obj, LV_OBJ_FLAG_ADV_HITTEST);
 408:Drivers/lvgl/src/widgets/lv_img.c **** 
 409:Drivers/lvgl/src/widgets/lv_img.c ****     LV_TRACE_OBJ_CREATE("finished");
 410:Drivers/lvgl/src/widgets/lv_img.c **** }
 411:Drivers/lvgl/src/widgets/lv_img.c **** 
 412:Drivers/lvgl/src/widgets/lv_img.c **** static void lv_img_destructor(const lv_obj_class_t * class_p, lv_obj_t * obj)
 413:Drivers/lvgl/src/widgets/lv_img.c **** {
 414:Drivers/lvgl/src/widgets/lv_img.c ****     LV_UNUSED(class_p);
 415:Drivers/lvgl/src/widgets/lv_img.c ****     lv_img_t * img = (lv_img_t *)obj;
 416:Drivers/lvgl/src/widgets/lv_img.c ****     if(img->src_type == LV_IMG_SRC_FILE || img->src_type == LV_IMG_SRC_SYMBOL) {
 417:Drivers/lvgl/src/widgets/lv_img.c ****         lv_mem_free((void *)img->src);
 418:Drivers/lvgl/src/widgets/lv_img.c ****         img->src      = NULL;
 419:Drivers/lvgl/src/widgets/lv_img.c ****         img->src_type = LV_IMG_SRC_UNKNOWN;
 420:Drivers/lvgl/src/widgets/lv_img.c ****     }
 421:Drivers/lvgl/src/widgets/lv_img.c **** }
 422:Drivers/lvgl/src/widgets/lv_img.c **** 
 423:Drivers/lvgl/src/widgets/lv_img.c **** static lv_point_t lv_img_get_transformed_size(lv_obj_t * obj)
 424:Drivers/lvgl/src/widgets/lv_img.c **** {
  29              		.loc 1 424 1 view -0
  30              		.cfi_startproc
  31              		@ args = 0, pretend = 0, frame = 16
  32              		@ frame_needed = 0, uses_anonymous_args = 0
  33              		.loc 1 424 1 is_stmt 0 view .LVU1
ARM GAS  /var/folders/0z/tsy30v1j4xl4_7kw94k978ww0000gn/T//ccDjPiYU.s 			page 9


  34 0000 00B5     		push	{lr}
  35              		.cfi_def_cfa_offset 4
  36              		.cfi_offset 14, -4
  37 0002 87B0     		sub	sp, sp, #28
  38              		.cfi_def_cfa_offset 32
 425:Drivers/lvgl/src/widgets/lv_img.c ****     lv_img_t * img = (lv_img_t *)obj;
  39              		.loc 1 425 5 is_stmt 1 view .LVU2
  40              	.LVL1:
 426:Drivers/lvgl/src/widgets/lv_img.c **** 
 427:Drivers/lvgl/src/widgets/lv_img.c **** 
 428:Drivers/lvgl/src/widgets/lv_img.c ****     lv_area_t area_transform;
  41              		.loc 1 428 5 view .LVU3
 429:Drivers/lvgl/src/widgets/lv_img.c ****     _lv_img_buf_get_transformed_area(&area_transform, img->w, img->h,
  42              		.loc 1 429 5 view .LVU4
 430:Drivers/lvgl/src/widgets/lv_img.c ****                                      img->angle, img->zoom, &img->pivot);
  43              		.loc 1 430 61 is_stmt 0 view .LVU5
  44 0004 00F13203 		add	r3, r0, #50
 429:Drivers/lvgl/src/widgets/lv_img.c ****     _lv_img_buf_get_transformed_area(&area_transform, img->w, img->h,
  45              		.loc 1 429 5 view .LVU6
  46 0008 0193     		str	r3, [sp, #4]
  47 000a C38E     		ldrh	r3, [r0, #54]
  48 000c 0093     		str	r3, [sp]
  49 000e B0F93030 		ldrsh	r3, [r0, #48]
  50 0012 B0F92E20 		ldrsh	r2, [r0, #46]
  51 0016 B0F92C10 		ldrsh	r1, [r0, #44]
  52 001a 03A8     		add	r0, sp, #12
  53              	.LVL2:
 429:Drivers/lvgl/src/widgets/lv_img.c ****     _lv_img_buf_get_transformed_area(&area_transform, img->w, img->h,
  54              		.loc 1 429 5 view .LVU7
  55 001c FFF7FEFF 		bl	_lv_img_buf_get_transformed_area
  56              	.LVL3:
 431:Drivers/lvgl/src/widgets/lv_img.c **** 
 432:Drivers/lvgl/src/widgets/lv_img.c ****     return (lv_point_t) {
  57              		.loc 1 432 5 is_stmt 1 view .LVU8
  58              	.LBB44:
  59              	.LBI44:
  60              		.file 2 "Drivers/lvgl/src/widgets/../core/../misc/../font/../misc/lv_area.h"
   1:Drivers/lvgl/src/widgets/../core/../misc/../font/../misc/lv_area.h **** /**
   2:Drivers/lvgl/src/widgets/../core/../misc/../font/../misc/lv_area.h ****  * @file lv_area.h
   3:Drivers/lvgl/src/widgets/../core/../misc/../font/../misc/lv_area.h ****  *
   4:Drivers/lvgl/src/widgets/../core/../misc/../font/../misc/lv_area.h ****  */
   5:Drivers/lvgl/src/widgets/../core/../misc/../font/../misc/lv_area.h **** 
   6:Drivers/lvgl/src/widgets/../core/../misc/../font/../misc/lv_area.h **** #ifndef LV_AREA_H
   7:Drivers/lvgl/src/widgets/../core/../misc/../font/../misc/lv_area.h **** #define LV_AREA_H
   8:Drivers/lvgl/src/widgets/../core/../misc/../font/../misc/lv_area.h **** 
   9:Drivers/lvgl/src/widgets/../core/../misc/../font/../misc/lv_area.h **** #ifdef __cplusplus
  10:Drivers/lvgl/src/widgets/../core/../misc/../font/../misc/lv_area.h **** extern "C" {
  11:Drivers/lvgl/src/widgets/../core/../misc/../font/../misc/lv_area.h **** #endif
  12:Drivers/lvgl/src/widgets/../core/../misc/../font/../misc/lv_area.h **** 
  13:Drivers/lvgl/src/widgets/../core/../misc/../font/../misc/lv_area.h **** /*********************
  14:Drivers/lvgl/src/widgets/../core/../misc/../font/../misc/lv_area.h ****  *      INCLUDES
  15:Drivers/lvgl/src/widgets/../core/../misc/../font/../misc/lv_area.h ****  *********************/
  16:Drivers/lvgl/src/widgets/../core/../misc/../font/../misc/lv_area.h **** #include "../lv_conf_internal.h"
  17:Drivers/lvgl/src/widgets/../core/../misc/../font/../misc/lv_area.h **** #include <stdbool.h>
  18:Drivers/lvgl/src/widgets/../core/../misc/../font/../misc/lv_area.h **** #include <stdint.h>
  19:Drivers/lvgl/src/widgets/../core/../misc/../font/../misc/lv_area.h **** 
  20:Drivers/lvgl/src/widgets/../core/../misc/../font/../misc/lv_area.h **** /*********************
ARM GAS  /var/folders/0z/tsy30v1j4xl4_7kw94k978ww0000gn/T//ccDjPiYU.s 			page 10


  21:Drivers/lvgl/src/widgets/../core/../misc/../font/../misc/lv_area.h ****  *      DEFINES
  22:Drivers/lvgl/src/widgets/../core/../misc/../font/../misc/lv_area.h ****  *********************/
  23:Drivers/lvgl/src/widgets/../core/../misc/../font/../misc/lv_area.h **** 
  24:Drivers/lvgl/src/widgets/../core/../misc/../font/../misc/lv_area.h **** #if LV_USE_LARGE_COORD
  25:Drivers/lvgl/src/widgets/../core/../misc/../font/../misc/lv_area.h **** typedef int32_t lv_coord_t;
  26:Drivers/lvgl/src/widgets/../core/../misc/../font/../misc/lv_area.h **** #else
  27:Drivers/lvgl/src/widgets/../core/../misc/../font/../misc/lv_area.h **** typedef int16_t lv_coord_t;
  28:Drivers/lvgl/src/widgets/../core/../misc/../font/../misc/lv_area.h **** #endif
  29:Drivers/lvgl/src/widgets/../core/../misc/../font/../misc/lv_area.h **** 
  30:Drivers/lvgl/src/widgets/../core/../misc/../font/../misc/lv_area.h **** /**********************
  31:Drivers/lvgl/src/widgets/../core/../misc/../font/../misc/lv_area.h ****  *      TYPEDEFS
  32:Drivers/lvgl/src/widgets/../core/../misc/../font/../misc/lv_area.h ****  **********************/
  33:Drivers/lvgl/src/widgets/../core/../misc/../font/../misc/lv_area.h **** 
  34:Drivers/lvgl/src/widgets/../core/../misc/../font/../misc/lv_area.h **** /**
  35:Drivers/lvgl/src/widgets/../core/../misc/../font/../misc/lv_area.h ****  * Represents a point on the screen.
  36:Drivers/lvgl/src/widgets/../core/../misc/../font/../misc/lv_area.h ****  */
  37:Drivers/lvgl/src/widgets/../core/../misc/../font/../misc/lv_area.h **** typedef struct {
  38:Drivers/lvgl/src/widgets/../core/../misc/../font/../misc/lv_area.h ****     lv_coord_t x;
  39:Drivers/lvgl/src/widgets/../core/../misc/../font/../misc/lv_area.h ****     lv_coord_t y;
  40:Drivers/lvgl/src/widgets/../core/../misc/../font/../misc/lv_area.h **** } lv_point_t;
  41:Drivers/lvgl/src/widgets/../core/../misc/../font/../misc/lv_area.h **** 
  42:Drivers/lvgl/src/widgets/../core/../misc/../font/../misc/lv_area.h **** /** Represents an area of the screen.*/
  43:Drivers/lvgl/src/widgets/../core/../misc/../font/../misc/lv_area.h **** typedef struct {
  44:Drivers/lvgl/src/widgets/../core/../misc/../font/../misc/lv_area.h ****     lv_coord_t x1;
  45:Drivers/lvgl/src/widgets/../core/../misc/../font/../misc/lv_area.h ****     lv_coord_t y1;
  46:Drivers/lvgl/src/widgets/../core/../misc/../font/../misc/lv_area.h ****     lv_coord_t x2;
  47:Drivers/lvgl/src/widgets/../core/../misc/../font/../misc/lv_area.h ****     lv_coord_t y2;
  48:Drivers/lvgl/src/widgets/../core/../misc/../font/../misc/lv_area.h **** } lv_area_t;
  49:Drivers/lvgl/src/widgets/../core/../misc/../font/../misc/lv_area.h **** 
  50:Drivers/lvgl/src/widgets/../core/../misc/../font/../misc/lv_area.h **** /** Alignments*/
  51:Drivers/lvgl/src/widgets/../core/../misc/../font/../misc/lv_area.h **** enum {
  52:Drivers/lvgl/src/widgets/../core/../misc/../font/../misc/lv_area.h ****     LV_ALIGN_DEFAULT = 0,
  53:Drivers/lvgl/src/widgets/../core/../misc/../font/../misc/lv_area.h ****     LV_ALIGN_TOP_LEFT,
  54:Drivers/lvgl/src/widgets/../core/../misc/../font/../misc/lv_area.h ****     LV_ALIGN_TOP_MID,
  55:Drivers/lvgl/src/widgets/../core/../misc/../font/../misc/lv_area.h ****     LV_ALIGN_TOP_RIGHT,
  56:Drivers/lvgl/src/widgets/../core/../misc/../font/../misc/lv_area.h ****     LV_ALIGN_BOTTOM_LEFT,
  57:Drivers/lvgl/src/widgets/../core/../misc/../font/../misc/lv_area.h ****     LV_ALIGN_BOTTOM_MID,
  58:Drivers/lvgl/src/widgets/../core/../misc/../font/../misc/lv_area.h ****     LV_ALIGN_BOTTOM_RIGHT,
  59:Drivers/lvgl/src/widgets/../core/../misc/../font/../misc/lv_area.h ****     LV_ALIGN_LEFT_MID,
  60:Drivers/lvgl/src/widgets/../core/../misc/../font/../misc/lv_area.h ****     LV_ALIGN_RIGHT_MID,
  61:Drivers/lvgl/src/widgets/../core/../misc/../font/../misc/lv_area.h ****     LV_ALIGN_CENTER,
  62:Drivers/lvgl/src/widgets/../core/../misc/../font/../misc/lv_area.h **** 
  63:Drivers/lvgl/src/widgets/../core/../misc/../font/../misc/lv_area.h ****     LV_ALIGN_OUT_TOP_LEFT,
  64:Drivers/lvgl/src/widgets/../core/../misc/../font/../misc/lv_area.h ****     LV_ALIGN_OUT_TOP_MID,
  65:Drivers/lvgl/src/widgets/../core/../misc/../font/../misc/lv_area.h ****     LV_ALIGN_OUT_TOP_RIGHT,
  66:Drivers/lvgl/src/widgets/../core/../misc/../font/../misc/lv_area.h ****     LV_ALIGN_OUT_BOTTOM_LEFT,
  67:Drivers/lvgl/src/widgets/../core/../misc/../font/../misc/lv_area.h ****     LV_ALIGN_OUT_BOTTOM_MID,
  68:Drivers/lvgl/src/widgets/../core/../misc/../font/../misc/lv_area.h ****     LV_ALIGN_OUT_BOTTOM_RIGHT,
  69:Drivers/lvgl/src/widgets/../core/../misc/../font/../misc/lv_area.h ****     LV_ALIGN_OUT_LEFT_TOP,
  70:Drivers/lvgl/src/widgets/../core/../misc/../font/../misc/lv_area.h ****     LV_ALIGN_OUT_LEFT_MID,
  71:Drivers/lvgl/src/widgets/../core/../misc/../font/../misc/lv_area.h ****     LV_ALIGN_OUT_LEFT_BOTTOM,
  72:Drivers/lvgl/src/widgets/../core/../misc/../font/../misc/lv_area.h ****     LV_ALIGN_OUT_RIGHT_TOP,
  73:Drivers/lvgl/src/widgets/../core/../misc/../font/../misc/lv_area.h ****     LV_ALIGN_OUT_RIGHT_MID,
  74:Drivers/lvgl/src/widgets/../core/../misc/../font/../misc/lv_area.h ****     LV_ALIGN_OUT_RIGHT_BOTTOM,
  75:Drivers/lvgl/src/widgets/../core/../misc/../font/../misc/lv_area.h **** };
  76:Drivers/lvgl/src/widgets/../core/../misc/../font/../misc/lv_area.h **** typedef uint8_t lv_align_t;
  77:Drivers/lvgl/src/widgets/../core/../misc/../font/../misc/lv_area.h **** 
ARM GAS  /var/folders/0z/tsy30v1j4xl4_7kw94k978ww0000gn/T//ccDjPiYU.s 			page 11


  78:Drivers/lvgl/src/widgets/../core/../misc/../font/../misc/lv_area.h **** enum {
  79:Drivers/lvgl/src/widgets/../core/../misc/../font/../misc/lv_area.h ****     LV_DIR_NONE     = 0x00,
  80:Drivers/lvgl/src/widgets/../core/../misc/../font/../misc/lv_area.h ****     LV_DIR_LEFT     = (1 << 0),
  81:Drivers/lvgl/src/widgets/../core/../misc/../font/../misc/lv_area.h ****     LV_DIR_RIGHT    = (1 << 1),
  82:Drivers/lvgl/src/widgets/../core/../misc/../font/../misc/lv_area.h ****     LV_DIR_TOP      = (1 << 2),
  83:Drivers/lvgl/src/widgets/../core/../misc/../font/../misc/lv_area.h ****     LV_DIR_BOTTOM   = (1 << 3),
  84:Drivers/lvgl/src/widgets/../core/../misc/../font/../misc/lv_area.h ****     LV_DIR_HOR      = LV_DIR_LEFT | LV_DIR_RIGHT,
  85:Drivers/lvgl/src/widgets/../core/../misc/../font/../misc/lv_area.h ****     LV_DIR_VER      = LV_DIR_TOP | LV_DIR_BOTTOM,
  86:Drivers/lvgl/src/widgets/../core/../misc/../font/../misc/lv_area.h ****     LV_DIR_ALL      = LV_DIR_HOR | LV_DIR_VER,
  87:Drivers/lvgl/src/widgets/../core/../misc/../font/../misc/lv_area.h **** };
  88:Drivers/lvgl/src/widgets/../core/../misc/../font/../misc/lv_area.h **** 
  89:Drivers/lvgl/src/widgets/../core/../misc/../font/../misc/lv_area.h **** typedef uint8_t lv_dir_t;
  90:Drivers/lvgl/src/widgets/../core/../misc/../font/../misc/lv_area.h **** 
  91:Drivers/lvgl/src/widgets/../core/../misc/../font/../misc/lv_area.h **** /**********************
  92:Drivers/lvgl/src/widgets/../core/../misc/../font/../misc/lv_area.h ****  * GLOBAL PROTOTYPES
  93:Drivers/lvgl/src/widgets/../core/../misc/../font/../misc/lv_area.h ****  **********************/
  94:Drivers/lvgl/src/widgets/../core/../misc/../font/../misc/lv_area.h **** 
  95:Drivers/lvgl/src/widgets/../core/../misc/../font/../misc/lv_area.h **** /**
  96:Drivers/lvgl/src/widgets/../core/../misc/../font/../misc/lv_area.h ****  * Initialize an area
  97:Drivers/lvgl/src/widgets/../core/../misc/../font/../misc/lv_area.h ****  * @param area_p pointer to an area
  98:Drivers/lvgl/src/widgets/../core/../misc/../font/../misc/lv_area.h ****  * @param x1 left coordinate of the area
  99:Drivers/lvgl/src/widgets/../core/../misc/../font/../misc/lv_area.h ****  * @param y1 top coordinate of the area
 100:Drivers/lvgl/src/widgets/../core/../misc/../font/../misc/lv_area.h ****  * @param x2 right coordinate of the area
 101:Drivers/lvgl/src/widgets/../core/../misc/../font/../misc/lv_area.h ****  * @param y2 bottom coordinate of the area
 102:Drivers/lvgl/src/widgets/../core/../misc/../font/../misc/lv_area.h ****  */
 103:Drivers/lvgl/src/widgets/../core/../misc/../font/../misc/lv_area.h **** void lv_area_set(lv_area_t * area_p, lv_coord_t x1, lv_coord_t y1, lv_coord_t x2, lv_coord_t y2);
 104:Drivers/lvgl/src/widgets/../core/../misc/../font/../misc/lv_area.h **** 
 105:Drivers/lvgl/src/widgets/../core/../misc/../font/../misc/lv_area.h **** /**
 106:Drivers/lvgl/src/widgets/../core/../misc/../font/../misc/lv_area.h ****  * Copy an area
 107:Drivers/lvgl/src/widgets/../core/../misc/../font/../misc/lv_area.h ****  * @param dest pointer to the destination area
 108:Drivers/lvgl/src/widgets/../core/../misc/../font/../misc/lv_area.h ****  * @param src pointer to the source area
 109:Drivers/lvgl/src/widgets/../core/../misc/../font/../misc/lv_area.h ****  */
 110:Drivers/lvgl/src/widgets/../core/../misc/../font/../misc/lv_area.h **** inline static void lv_area_copy(lv_area_t * dest, const lv_area_t * src)
 111:Drivers/lvgl/src/widgets/../core/../misc/../font/../misc/lv_area.h **** {
 112:Drivers/lvgl/src/widgets/../core/../misc/../font/../misc/lv_area.h ****     dest->x1 = src->x1;
 113:Drivers/lvgl/src/widgets/../core/../misc/../font/../misc/lv_area.h ****     dest->y1 = src->y1;
 114:Drivers/lvgl/src/widgets/../core/../misc/../font/../misc/lv_area.h ****     dest->x2 = src->x2;
 115:Drivers/lvgl/src/widgets/../core/../misc/../font/../misc/lv_area.h ****     dest->y2 = src->y2;
 116:Drivers/lvgl/src/widgets/../core/../misc/../font/../misc/lv_area.h **** }
 117:Drivers/lvgl/src/widgets/../core/../misc/../font/../misc/lv_area.h **** 
 118:Drivers/lvgl/src/widgets/../core/../misc/../font/../misc/lv_area.h **** /**
 119:Drivers/lvgl/src/widgets/../core/../misc/../font/../misc/lv_area.h ****  * Get the width of an area
 120:Drivers/lvgl/src/widgets/../core/../misc/../font/../misc/lv_area.h ****  * @param area_p pointer to an area
 121:Drivers/lvgl/src/widgets/../core/../misc/../font/../misc/lv_area.h ****  * @return the width of the area (if x1 == x2 -> width = 1)
 122:Drivers/lvgl/src/widgets/../core/../misc/../font/../misc/lv_area.h ****  */
 123:Drivers/lvgl/src/widgets/../core/../misc/../font/../misc/lv_area.h **** static inline lv_coord_t lv_area_get_width(const lv_area_t * area_p)
  61              		.loc 2 123 26 view .LVU9
  62              	.LBB45:
 124:Drivers/lvgl/src/widgets/../core/../misc/../font/../misc/lv_area.h **** {
 125:Drivers/lvgl/src/widgets/../core/../misc/../font/../misc/lv_area.h ****     return (lv_coord_t)(area_p->x2 - area_p->x1 + 1);
  63              		.loc 2 125 5 view .LVU10
  64              		.loc 2 125 31 is_stmt 0 view .LVU11
  65 0020 BDF81020 		ldrh	r2, [sp, #16]
  66              		.loc 2 125 44 view .LVU12
  67 0024 BDF80C30 		ldrh	r3, [sp, #12]
  68              		.loc 2 125 36 view .LVU13
  69 0028 D21A     		subs	r2, r2, r3
ARM GAS  /var/folders/0z/tsy30v1j4xl4_7kw94k978ww0000gn/T//ccDjPiYU.s 			page 12


  70 002a 92B2     		uxth	r2, r2
  71              		.loc 2 125 49 view .LVU14
  72 002c 0132     		adds	r2, r2, #1
  73              	.LVL4:
  74              		.loc 2 125 49 view .LVU15
  75              	.LBE45:
  76              	.LBE44:
  77              	.LBB46:
  78              	.LBI46:
 126:Drivers/lvgl/src/widgets/../core/../misc/../font/../misc/lv_area.h **** }
 127:Drivers/lvgl/src/widgets/../core/../misc/../font/../misc/lv_area.h **** 
 128:Drivers/lvgl/src/widgets/../core/../misc/../font/../misc/lv_area.h **** /**
 129:Drivers/lvgl/src/widgets/../core/../misc/../font/../misc/lv_area.h ****  * Get the height of an area
 130:Drivers/lvgl/src/widgets/../core/../misc/../font/../misc/lv_area.h ****  * @param area_p pointer to an area
 131:Drivers/lvgl/src/widgets/../core/../misc/../font/../misc/lv_area.h ****  * @return the height of the area (if y1 == y2 -> height = 1)
 132:Drivers/lvgl/src/widgets/../core/../misc/../font/../misc/lv_area.h ****  */
 133:Drivers/lvgl/src/widgets/../core/../misc/../font/../misc/lv_area.h **** static inline lv_coord_t lv_area_get_height(const lv_area_t * area_p)
  79              		.loc 2 133 26 is_stmt 1 view .LVU16
  80              	.LBB47:
 134:Drivers/lvgl/src/widgets/../core/../misc/../font/../misc/lv_area.h **** {
 135:Drivers/lvgl/src/widgets/../core/../misc/../font/../misc/lv_area.h ****     return (lv_coord_t)(area_p->y2 - area_p->y1 + 1);
  81              		.loc 2 135 5 view .LVU17
  82              		.loc 2 135 31 is_stmt 0 view .LVU18
  83 002e BDF81230 		ldrh	r3, [sp, #18]
  84              		.loc 2 135 44 view .LVU19
  85 0032 BDF80E10 		ldrh	r1, [sp, #14]
  86              		.loc 2 135 36 view .LVU20
  87 0036 5B1A     		subs	r3, r3, r1
  88 0038 9BB2     		uxth	r3, r3
  89              		.loc 2 135 49 view .LVU21
  90 003a 0133     		adds	r3, r3, #1
  91              	.LVL5:
  92              		.loc 2 135 49 view .LVU22
  93              	.LBE47:
  94              	.LBE46:
  95              		.loc 1 432 12 view .LVU23
  96 003c ADF81420 		strh	r2, [sp, #20]	@ movhi
  97 0040 ADF81630 		strh	r3, [sp, #22]	@ movhi
  98 0044 0020     		movs	r0, #0
  99 0046 93B2     		uxth	r3, r2
 100 0048 63F30F00 		bfi	r0, r3, #0, #16
 101 004c BDF81630 		ldrh	r3, [sp, #22]
 102 0050 63F31F40 		bfi	r0, r3, #16, #16
 433:Drivers/lvgl/src/widgets/lv_img.c ****         lv_area_get_width(&area_transform), lv_area_get_height(&area_transform)
 434:Drivers/lvgl/src/widgets/lv_img.c ****     };
 435:Drivers/lvgl/src/widgets/lv_img.c **** }
 103              		.loc 1 435 1 view .LVU24
 104 0054 07B0     		add	sp, sp, #28
 105              		.cfi_def_cfa_offset 4
 106              		@ sp needed
 107 0056 5DF804FB 		ldr	pc, [sp], #4
 108              		.cfi_endproc
 109              	.LFE186:
 111              		.section	.text.draw_img,"ax",%progbits
 112              		.align	1
 113              		.syntax unified
 114              		.thumb
ARM GAS  /var/folders/0z/tsy30v1j4xl4_7kw94k978ww0000gn/T//ccDjPiYU.s 			page 13


 115              		.thumb_func
 117              	draw_img:
 118              	.LVL6:
 119              	.LFB188:
 436:Drivers/lvgl/src/widgets/lv_img.c **** 
 437:Drivers/lvgl/src/widgets/lv_img.c **** static void lv_img_event(const lv_obj_class_t * class_p, lv_event_t * e)
 438:Drivers/lvgl/src/widgets/lv_img.c **** {
 439:Drivers/lvgl/src/widgets/lv_img.c ****     LV_UNUSED(class_p);
 440:Drivers/lvgl/src/widgets/lv_img.c **** 
 441:Drivers/lvgl/src/widgets/lv_img.c ****     lv_event_code_t code = lv_event_get_code(e);
 442:Drivers/lvgl/src/widgets/lv_img.c **** 
 443:Drivers/lvgl/src/widgets/lv_img.c ****     /*Ancestor events will be called during drawing*/
 444:Drivers/lvgl/src/widgets/lv_img.c ****     if(code != LV_EVENT_DRAW_MAIN && code != LV_EVENT_DRAW_POST) {
 445:Drivers/lvgl/src/widgets/lv_img.c ****         /*Call the ancestor's event handler*/
 446:Drivers/lvgl/src/widgets/lv_img.c ****         lv_res_t res = lv_obj_event_base(MY_CLASS, e);
 447:Drivers/lvgl/src/widgets/lv_img.c ****         if(res != LV_RES_OK) return;
 448:Drivers/lvgl/src/widgets/lv_img.c ****     }
 449:Drivers/lvgl/src/widgets/lv_img.c **** 
 450:Drivers/lvgl/src/widgets/lv_img.c ****     lv_obj_t * obj = lv_event_get_target(e);
 451:Drivers/lvgl/src/widgets/lv_img.c ****     lv_img_t * img = (lv_img_t *)obj;
 452:Drivers/lvgl/src/widgets/lv_img.c **** 
 453:Drivers/lvgl/src/widgets/lv_img.c ****     if(code == LV_EVENT_STYLE_CHANGED) {
 454:Drivers/lvgl/src/widgets/lv_img.c ****         /*Refresh the file name to refresh the symbol text size*/
 455:Drivers/lvgl/src/widgets/lv_img.c ****         if(img->src_type == LV_IMG_SRC_SYMBOL) {
 456:Drivers/lvgl/src/widgets/lv_img.c ****             lv_img_set_src(obj, img->src);
 457:Drivers/lvgl/src/widgets/lv_img.c ****         }
 458:Drivers/lvgl/src/widgets/lv_img.c ****         else {
 459:Drivers/lvgl/src/widgets/lv_img.c ****             /*With transformation it might change*/
 460:Drivers/lvgl/src/widgets/lv_img.c ****             lv_obj_refresh_ext_draw_size(obj);
 461:Drivers/lvgl/src/widgets/lv_img.c ****         }
 462:Drivers/lvgl/src/widgets/lv_img.c ****     }
 463:Drivers/lvgl/src/widgets/lv_img.c ****     else if(code == LV_EVENT_REFR_EXT_DRAW_SIZE) {
 464:Drivers/lvgl/src/widgets/lv_img.c **** 
 465:Drivers/lvgl/src/widgets/lv_img.c ****         lv_coord_t * s = lv_event_get_param(e);
 466:Drivers/lvgl/src/widgets/lv_img.c **** 
 467:Drivers/lvgl/src/widgets/lv_img.c ****         /*If the image has angle provide enough room for the rotated corners*/
 468:Drivers/lvgl/src/widgets/lv_img.c ****         if(img->angle || img->zoom != LV_IMG_ZOOM_NONE) {
 469:Drivers/lvgl/src/widgets/lv_img.c ****             lv_area_t a;
 470:Drivers/lvgl/src/widgets/lv_img.c ****             lv_coord_t w = lv_obj_get_width(obj);
 471:Drivers/lvgl/src/widgets/lv_img.c ****             lv_coord_t h = lv_obj_get_height(obj);
 472:Drivers/lvgl/src/widgets/lv_img.c ****             _lv_img_buf_get_transformed_area(&a, w, h, img->angle, img->zoom, &img->pivot);
 473:Drivers/lvgl/src/widgets/lv_img.c ****             *s = LV_MAX(*s, -a.x1);
 474:Drivers/lvgl/src/widgets/lv_img.c ****             *s = LV_MAX(*s, -a.y1);
 475:Drivers/lvgl/src/widgets/lv_img.c ****             *s = LV_MAX(*s, a.x2 - w);
 476:Drivers/lvgl/src/widgets/lv_img.c ****             *s = LV_MAX(*s, a.y2 - h);
 477:Drivers/lvgl/src/widgets/lv_img.c ****         }
 478:Drivers/lvgl/src/widgets/lv_img.c ****     }
 479:Drivers/lvgl/src/widgets/lv_img.c ****     else if(code == LV_EVENT_HIT_TEST) {
 480:Drivers/lvgl/src/widgets/lv_img.c ****         lv_hit_test_info_t * info = lv_event_get_param(e);
 481:Drivers/lvgl/src/widgets/lv_img.c **** 
 482:Drivers/lvgl/src/widgets/lv_img.c ****         /*If the object is exactly image sized (not cropped, not mosaic) and transformed
 483:Drivers/lvgl/src/widgets/lv_img.c ****          *perform hit test on its transformed area*/
 484:Drivers/lvgl/src/widgets/lv_img.c ****         if(img->w == lv_obj_get_width(obj) && img->h == lv_obj_get_height(obj) &&
 485:Drivers/lvgl/src/widgets/lv_img.c ****            (img->zoom != LV_IMG_ZOOM_NONE || img->angle != 0 || img->pivot.x != img->w / 2 || img->
 486:Drivers/lvgl/src/widgets/lv_img.c **** 
 487:Drivers/lvgl/src/widgets/lv_img.c ****             lv_coord_t w = lv_obj_get_width(obj);
 488:Drivers/lvgl/src/widgets/lv_img.c ****             lv_coord_t h = lv_obj_get_height(obj);
ARM GAS  /var/folders/0z/tsy30v1j4xl4_7kw94k978ww0000gn/T//ccDjPiYU.s 			page 14


 489:Drivers/lvgl/src/widgets/lv_img.c ****             lv_area_t coords;
 490:Drivers/lvgl/src/widgets/lv_img.c ****             _lv_img_buf_get_transformed_area(&coords, w, h, img->angle, img->zoom, &img->pivot);
 491:Drivers/lvgl/src/widgets/lv_img.c ****             coords.x1 += obj->coords.x1;
 492:Drivers/lvgl/src/widgets/lv_img.c ****             coords.y1 += obj->coords.y1;
 493:Drivers/lvgl/src/widgets/lv_img.c ****             coords.x2 += obj->coords.x1;
 494:Drivers/lvgl/src/widgets/lv_img.c ****             coords.y2 += obj->coords.y1;
 495:Drivers/lvgl/src/widgets/lv_img.c **** 
 496:Drivers/lvgl/src/widgets/lv_img.c ****             info->res = _lv_area_is_point_on(&coords, info->point, 0);
 497:Drivers/lvgl/src/widgets/lv_img.c ****         }
 498:Drivers/lvgl/src/widgets/lv_img.c ****         else {
 499:Drivers/lvgl/src/widgets/lv_img.c ****             lv_area_t a;
 500:Drivers/lvgl/src/widgets/lv_img.c ****             lv_obj_get_click_area(obj, &a);
 501:Drivers/lvgl/src/widgets/lv_img.c ****             info->res = _lv_area_is_point_on(&a, info->point, 0);
 502:Drivers/lvgl/src/widgets/lv_img.c ****         }
 503:Drivers/lvgl/src/widgets/lv_img.c ****     }
 504:Drivers/lvgl/src/widgets/lv_img.c ****     else if(code == LV_EVENT_GET_SELF_SIZE) {
 505:Drivers/lvgl/src/widgets/lv_img.c ****         lv_point_t * p = lv_event_get_param(e);
 506:Drivers/lvgl/src/widgets/lv_img.c ****         if(img->obj_size_mode == LV_IMG_SIZE_MODE_REAL) {
 507:Drivers/lvgl/src/widgets/lv_img.c ****             *p = lv_img_get_transformed_size(obj);
 508:Drivers/lvgl/src/widgets/lv_img.c ****         }
 509:Drivers/lvgl/src/widgets/lv_img.c ****         else {
 510:Drivers/lvgl/src/widgets/lv_img.c ****             p->x = img->w;
 511:Drivers/lvgl/src/widgets/lv_img.c ****             p->y = img->h;
 512:Drivers/lvgl/src/widgets/lv_img.c ****         }
 513:Drivers/lvgl/src/widgets/lv_img.c ****     }
 514:Drivers/lvgl/src/widgets/lv_img.c ****     else if(code == LV_EVENT_DRAW_MAIN || code == LV_EVENT_DRAW_POST || code == LV_EVENT_COVER_CHEC
 515:Drivers/lvgl/src/widgets/lv_img.c ****         draw_img(e);
 516:Drivers/lvgl/src/widgets/lv_img.c ****     }
 517:Drivers/lvgl/src/widgets/lv_img.c **** }
 518:Drivers/lvgl/src/widgets/lv_img.c **** 
 519:Drivers/lvgl/src/widgets/lv_img.c **** static void draw_img(lv_event_t * e)
 520:Drivers/lvgl/src/widgets/lv_img.c **** {
 120              		.loc 1 520 1 is_stmt 1 view -0
 121              		.cfi_startproc
 122              		@ args = 0, pretend = 0, frame = 104
 123              		@ frame_needed = 0, uses_anonymous_args = 0
 124              		.loc 1 520 1 is_stmt 0 view .LVU26
 125 0000 2DE9F04F 		push	{r4, r5, r6, r7, r8, r9, r10, fp, lr}
 126              		.cfi_def_cfa_offset 36
 127              		.cfi_offset 4, -36
 128              		.cfi_offset 5, -32
 129              		.cfi_offset 6, -28
 130              		.cfi_offset 7, -24
 131              		.cfi_offset 8, -20
 132              		.cfi_offset 9, -16
 133              		.cfi_offset 10, -12
 134              		.cfi_offset 11, -8
 135              		.cfi_offset 14, -4
 136 0004 9DB0     		sub	sp, sp, #116
 137              		.cfi_def_cfa_offset 152
 138 0006 0646     		mov	r6, r0
 521:Drivers/lvgl/src/widgets/lv_img.c ****     lv_event_code_t code = lv_event_get_code(e);
 139              		.loc 1 521 5 is_stmt 1 view .LVU27
 140              		.loc 1 521 28 is_stmt 0 view .LVU28
 141 0008 FFF7FEFF 		bl	lv_event_get_code
 142              	.LVL7:
 143              		.loc 1 521 28 view .LVU29
ARM GAS  /var/folders/0z/tsy30v1j4xl4_7kw94k978ww0000gn/T//ccDjPiYU.s 			page 15


 144 000c 0546     		mov	r5, r0
 145              	.LVL8:
 522:Drivers/lvgl/src/widgets/lv_img.c ****     lv_obj_t * obj = lv_event_get_target(e);
 146              		.loc 1 522 5 is_stmt 1 view .LVU30
 147              		.loc 1 522 22 is_stmt 0 view .LVU31
 148 000e 3046     		mov	r0, r6
 149 0010 FFF7FEFF 		bl	lv_event_get_target
 150              	.LVL9:
 151 0014 0446     		mov	r4, r0
 152              	.LVL10:
 523:Drivers/lvgl/src/widgets/lv_img.c ****     lv_img_t * img = (lv_img_t *)obj;
 153              		.loc 1 523 5 is_stmt 1 view .LVU32
 524:Drivers/lvgl/src/widgets/lv_img.c ****     if(code == LV_EVENT_COVER_CHECK) {
 154              		.loc 1 524 5 view .LVU33
 155              		.loc 1 524 7 is_stmt 0 view .LVU34
 156 0016 122D     		cmp	r5, #18
 157 0018 06D0     		beq	.L31
 525:Drivers/lvgl/src/widgets/lv_img.c ****         lv_cover_check_info_t * info = lv_event_get_param(e);
 526:Drivers/lvgl/src/widgets/lv_img.c ****         if(info->res == LV_COVER_RES_MASKED) return;
 527:Drivers/lvgl/src/widgets/lv_img.c ****         if(img->src_type == LV_IMG_SRC_UNKNOWN || img->src_type == LV_IMG_SRC_SYMBOL) {
 528:Drivers/lvgl/src/widgets/lv_img.c ****             info->res = LV_COVER_RES_NOT_COVER;
 529:Drivers/lvgl/src/widgets/lv_img.c ****             return;
 530:Drivers/lvgl/src/widgets/lv_img.c ****         }
 531:Drivers/lvgl/src/widgets/lv_img.c **** 
 532:Drivers/lvgl/src/widgets/lv_img.c ****         /*Non true color format might have "holes"*/
 533:Drivers/lvgl/src/widgets/lv_img.c ****         if(img->cf != LV_IMG_CF_TRUE_COLOR && img->cf != LV_IMG_CF_RAW) {
 534:Drivers/lvgl/src/widgets/lv_img.c ****             info->res = LV_COVER_RES_NOT_COVER;
 535:Drivers/lvgl/src/widgets/lv_img.c ****             return;
 536:Drivers/lvgl/src/widgets/lv_img.c ****         }
 537:Drivers/lvgl/src/widgets/lv_img.c **** 
 538:Drivers/lvgl/src/widgets/lv_img.c ****         /*With not LV_OPA_COVER images can't cover an area */
 539:Drivers/lvgl/src/widgets/lv_img.c ****         if(lv_obj_get_style_img_opa(obj, LV_PART_MAIN) != LV_OPA_COVER) {
 540:Drivers/lvgl/src/widgets/lv_img.c ****             info->res = LV_COVER_RES_NOT_COVER;
 541:Drivers/lvgl/src/widgets/lv_img.c ****             return;
 542:Drivers/lvgl/src/widgets/lv_img.c ****         }
 543:Drivers/lvgl/src/widgets/lv_img.c **** 
 544:Drivers/lvgl/src/widgets/lv_img.c ****         if(img->angle != 0) {
 545:Drivers/lvgl/src/widgets/lv_img.c ****             info->res = LV_COVER_RES_NOT_COVER;
 546:Drivers/lvgl/src/widgets/lv_img.c ****             return;
 547:Drivers/lvgl/src/widgets/lv_img.c ****         }
 548:Drivers/lvgl/src/widgets/lv_img.c **** 
 549:Drivers/lvgl/src/widgets/lv_img.c ****         const lv_area_t * clip_area = lv_event_get_param(e);
 550:Drivers/lvgl/src/widgets/lv_img.c ****         if(img->zoom == LV_IMG_ZOOM_NONE) {
 551:Drivers/lvgl/src/widgets/lv_img.c ****             if(_lv_area_is_in(clip_area, &obj->coords, 0) == false) {
 552:Drivers/lvgl/src/widgets/lv_img.c ****                 info->res = LV_COVER_RES_NOT_COVER;
 553:Drivers/lvgl/src/widgets/lv_img.c ****                 return;
 554:Drivers/lvgl/src/widgets/lv_img.c ****             }
 555:Drivers/lvgl/src/widgets/lv_img.c ****         }
 556:Drivers/lvgl/src/widgets/lv_img.c ****         else {
 557:Drivers/lvgl/src/widgets/lv_img.c ****             lv_area_t a;
 558:Drivers/lvgl/src/widgets/lv_img.c ****             _lv_img_buf_get_transformed_area(&a, lv_obj_get_width(obj), lv_obj_get_height(obj), 0, 
 559:Drivers/lvgl/src/widgets/lv_img.c ****             a.x1 += obj->coords.x1;
 560:Drivers/lvgl/src/widgets/lv_img.c ****             a.y1 += obj->coords.y1;
 561:Drivers/lvgl/src/widgets/lv_img.c ****             a.x2 += obj->coords.x1;
 562:Drivers/lvgl/src/widgets/lv_img.c ****             a.y2 += obj->coords.y1;
 563:Drivers/lvgl/src/widgets/lv_img.c **** 
 564:Drivers/lvgl/src/widgets/lv_img.c ****             if(_lv_area_is_in(clip_area, &a, 0) == false) {
ARM GAS  /var/folders/0z/tsy30v1j4xl4_7kw94k978ww0000gn/T//ccDjPiYU.s 			page 16


 565:Drivers/lvgl/src/widgets/lv_img.c ****                 info->res = LV_COVER_RES_NOT_COVER;
 566:Drivers/lvgl/src/widgets/lv_img.c ****                 return;
 567:Drivers/lvgl/src/widgets/lv_img.c ****             }
 568:Drivers/lvgl/src/widgets/lv_img.c ****         }
 569:Drivers/lvgl/src/widgets/lv_img.c ****     }
 570:Drivers/lvgl/src/widgets/lv_img.c ****     else if(code == LV_EVENT_DRAW_MAIN || code == LV_EVENT_DRAW_POST) {
 158              		.loc 1 570 10 is_stmt 1 view .LVU35
 159              		.loc 1 570 12 is_stmt 0 view .LVU36
 160 001a 152D     		cmp	r5, #21
 161 001c 70D0     		beq	.L12
 162              		.loc 1 570 40 discriminator 1 view .LVU37
 163 001e 182D     		cmp	r5, #24
 164 0020 6ED0     		beq	.L12
 165              	.LVL11:
 166              	.L3:
 571:Drivers/lvgl/src/widgets/lv_img.c **** 
 572:Drivers/lvgl/src/widgets/lv_img.c ****         lv_coord_t obj_w = lv_obj_get_width(obj);
 573:Drivers/lvgl/src/widgets/lv_img.c ****         lv_coord_t obj_h = lv_obj_get_height(obj);
 574:Drivers/lvgl/src/widgets/lv_img.c **** 
 575:Drivers/lvgl/src/widgets/lv_img.c ****         lv_coord_t border_width = lv_obj_get_style_border_width(obj, LV_PART_MAIN);
 576:Drivers/lvgl/src/widgets/lv_img.c ****         lv_coord_t pleft = lv_obj_get_style_pad_left(obj, LV_PART_MAIN) + border_width;
 577:Drivers/lvgl/src/widgets/lv_img.c ****         lv_coord_t pright = lv_obj_get_style_pad_right(obj, LV_PART_MAIN) + border_width;
 578:Drivers/lvgl/src/widgets/lv_img.c ****         lv_coord_t ptop = lv_obj_get_style_pad_top(obj, LV_PART_MAIN) + border_width;
 579:Drivers/lvgl/src/widgets/lv_img.c ****         lv_coord_t pbottom = lv_obj_get_style_pad_bottom(obj, LV_PART_MAIN) + border_width;
 580:Drivers/lvgl/src/widgets/lv_img.c **** 
 581:Drivers/lvgl/src/widgets/lv_img.c ****         lv_point_t bg_pivot;
 582:Drivers/lvgl/src/widgets/lv_img.c ****         bg_pivot.x = img->pivot.x + pleft;
 583:Drivers/lvgl/src/widgets/lv_img.c ****         bg_pivot.y = img->pivot.y + ptop;
 584:Drivers/lvgl/src/widgets/lv_img.c ****         lv_area_t bg_coords;
 585:Drivers/lvgl/src/widgets/lv_img.c **** 
 586:Drivers/lvgl/src/widgets/lv_img.c ****         if(img->obj_size_mode == LV_IMG_SIZE_MODE_REAL) {
 587:Drivers/lvgl/src/widgets/lv_img.c ****             /*Object size equals to transformed image size*/
 588:Drivers/lvgl/src/widgets/lv_img.c ****             lv_obj_get_coords(obj, &bg_coords);
 589:Drivers/lvgl/src/widgets/lv_img.c ****         }
 590:Drivers/lvgl/src/widgets/lv_img.c ****         else {
 591:Drivers/lvgl/src/widgets/lv_img.c ****             _lv_img_buf_get_transformed_area(&bg_coords, obj_w, obj_h,
 592:Drivers/lvgl/src/widgets/lv_img.c ****                                              img->angle, img->zoom, &bg_pivot);
 593:Drivers/lvgl/src/widgets/lv_img.c **** 
 594:Drivers/lvgl/src/widgets/lv_img.c ****             /*Modify the coordinates to draw the background for the rotated and scaled coordinates*
 595:Drivers/lvgl/src/widgets/lv_img.c ****             bg_coords.x1 += obj->coords.x1;
 596:Drivers/lvgl/src/widgets/lv_img.c ****             bg_coords.y1 += obj->coords.y1;
 597:Drivers/lvgl/src/widgets/lv_img.c ****             bg_coords.x2 += obj->coords.x1;
 598:Drivers/lvgl/src/widgets/lv_img.c ****             bg_coords.y2 += obj->coords.y1;
 599:Drivers/lvgl/src/widgets/lv_img.c ****         }
 600:Drivers/lvgl/src/widgets/lv_img.c **** 
 601:Drivers/lvgl/src/widgets/lv_img.c ****         lv_area_t ori_coords;
 602:Drivers/lvgl/src/widgets/lv_img.c ****         lv_area_copy(&ori_coords, &obj->coords);
 603:Drivers/lvgl/src/widgets/lv_img.c ****         lv_area_copy(&obj->coords, &bg_coords);
 604:Drivers/lvgl/src/widgets/lv_img.c **** 
 605:Drivers/lvgl/src/widgets/lv_img.c ****         lv_res_t res = lv_obj_event_base(MY_CLASS, e);
 606:Drivers/lvgl/src/widgets/lv_img.c ****         if(res != LV_RES_OK) return;
 607:Drivers/lvgl/src/widgets/lv_img.c **** 
 608:Drivers/lvgl/src/widgets/lv_img.c ****         lv_area_copy(&obj->coords, &ori_coords);
 609:Drivers/lvgl/src/widgets/lv_img.c **** 
 610:Drivers/lvgl/src/widgets/lv_img.c ****         if(code == LV_EVENT_DRAW_MAIN) {
 611:Drivers/lvgl/src/widgets/lv_img.c ****             if(img->h == 0 || img->w == 0) return;
 612:Drivers/lvgl/src/widgets/lv_img.c ****             if(img->zoom == 0) return;
ARM GAS  /var/folders/0z/tsy30v1j4xl4_7kw94k978ww0000gn/T//ccDjPiYU.s 			page 17


 613:Drivers/lvgl/src/widgets/lv_img.c **** 
 614:Drivers/lvgl/src/widgets/lv_img.c ****             lv_draw_ctx_t * draw_ctx = lv_event_get_draw_ctx(e);
 615:Drivers/lvgl/src/widgets/lv_img.c **** 
 616:Drivers/lvgl/src/widgets/lv_img.c ****             lv_area_t img_max_area;
 617:Drivers/lvgl/src/widgets/lv_img.c ****             lv_area_copy(&img_max_area, &obj->coords);
 618:Drivers/lvgl/src/widgets/lv_img.c **** 
 619:Drivers/lvgl/src/widgets/lv_img.c ****             lv_point_t img_size_final = lv_img_get_transformed_size(obj);
 620:Drivers/lvgl/src/widgets/lv_img.c **** 
 621:Drivers/lvgl/src/widgets/lv_img.c ****             if(img->obj_size_mode == LV_IMG_SIZE_MODE_REAL) {
 622:Drivers/lvgl/src/widgets/lv_img.c ****                 img_max_area.x1 -= ((img->w - img_size_final.x) + 1) / 2;
 623:Drivers/lvgl/src/widgets/lv_img.c ****                 img_max_area.x2 -= ((img->w - img_size_final.x) + 1) / 2;
 624:Drivers/lvgl/src/widgets/lv_img.c ****                 img_max_area.y1 -= ((img->h - img_size_final.y) + 1) / 2;
 625:Drivers/lvgl/src/widgets/lv_img.c ****                 img_max_area.y2 -= ((img->h - img_size_final.y) + 1) / 2;
 626:Drivers/lvgl/src/widgets/lv_img.c ****             }
 627:Drivers/lvgl/src/widgets/lv_img.c ****             else {
 628:Drivers/lvgl/src/widgets/lv_img.c ****                 img_max_area.x2 = img_max_area.x1 + lv_area_get_width(&bg_coords) - 1;
 629:Drivers/lvgl/src/widgets/lv_img.c ****                 img_max_area.y2 = img_max_area.y1 + lv_area_get_height(&bg_coords) - 1;
 630:Drivers/lvgl/src/widgets/lv_img.c ****             }
 631:Drivers/lvgl/src/widgets/lv_img.c **** 
 632:Drivers/lvgl/src/widgets/lv_img.c ****             img_max_area.x1 += pleft;
 633:Drivers/lvgl/src/widgets/lv_img.c ****             img_max_area.y1 += ptop;
 634:Drivers/lvgl/src/widgets/lv_img.c ****             img_max_area.x2 -= pright;
 635:Drivers/lvgl/src/widgets/lv_img.c ****             img_max_area.y2 -= pbottom;
 636:Drivers/lvgl/src/widgets/lv_img.c **** 
 637:Drivers/lvgl/src/widgets/lv_img.c ****             if(img->src_type == LV_IMG_SRC_FILE || img->src_type == LV_IMG_SRC_VARIABLE) {
 638:Drivers/lvgl/src/widgets/lv_img.c ****                 lv_draw_img_dsc_t img_dsc;
 639:Drivers/lvgl/src/widgets/lv_img.c ****                 lv_draw_img_dsc_init(&img_dsc);
 640:Drivers/lvgl/src/widgets/lv_img.c ****                 lv_obj_init_draw_img_dsc(obj, LV_PART_MAIN, &img_dsc);
 641:Drivers/lvgl/src/widgets/lv_img.c **** 
 642:Drivers/lvgl/src/widgets/lv_img.c ****                 img_dsc.zoom = img->zoom;
 643:Drivers/lvgl/src/widgets/lv_img.c ****                 img_dsc.angle = img->angle;
 644:Drivers/lvgl/src/widgets/lv_img.c ****                 img_dsc.pivot.x = img->pivot.x;
 645:Drivers/lvgl/src/widgets/lv_img.c ****                 img_dsc.pivot.y = img->pivot.y;
 646:Drivers/lvgl/src/widgets/lv_img.c ****                 img_dsc.antialias = img->antialias;
 647:Drivers/lvgl/src/widgets/lv_img.c **** 
 648:Drivers/lvgl/src/widgets/lv_img.c ****                 lv_area_t img_clip_area;
 649:Drivers/lvgl/src/widgets/lv_img.c ****                 img_clip_area.x1 = bg_coords.x1 + pleft;
 650:Drivers/lvgl/src/widgets/lv_img.c ****                 img_clip_area.y1 = bg_coords.y1 + ptop;
 651:Drivers/lvgl/src/widgets/lv_img.c ****                 img_clip_area.x2 = bg_coords.x2 - pright;
 652:Drivers/lvgl/src/widgets/lv_img.c ****                 img_clip_area.y2 = bg_coords.y2 - pbottom;
 653:Drivers/lvgl/src/widgets/lv_img.c ****                 const lv_area_t * clip_area_ori = draw_ctx->clip_area;
 654:Drivers/lvgl/src/widgets/lv_img.c **** 
 655:Drivers/lvgl/src/widgets/lv_img.c ****                 if(!_lv_area_intersect(&img_clip_area, draw_ctx->clip_area, &img_clip_area)) return
 656:Drivers/lvgl/src/widgets/lv_img.c ****                 draw_ctx->clip_area = &img_clip_area;
 657:Drivers/lvgl/src/widgets/lv_img.c **** 
 658:Drivers/lvgl/src/widgets/lv_img.c ****                 lv_area_t coords_tmp;
 659:Drivers/lvgl/src/widgets/lv_img.c ****                 lv_coord_t offset_x = img->offset.x % img->w;
 660:Drivers/lvgl/src/widgets/lv_img.c ****                 lv_coord_t offset_y = img->offset.y % img->h;
 661:Drivers/lvgl/src/widgets/lv_img.c ****                 coords_tmp.y1 = img_max_area.y1 + offset_y;
 662:Drivers/lvgl/src/widgets/lv_img.c ****                 if(coords_tmp.y1 > img_max_area.y1) coords_tmp.y1 -= img->h;
 663:Drivers/lvgl/src/widgets/lv_img.c ****                 coords_tmp.y2 = coords_tmp.y1 + img->h - 1;
 664:Drivers/lvgl/src/widgets/lv_img.c **** 
 665:Drivers/lvgl/src/widgets/lv_img.c ****                 for(; coords_tmp.y1 < img_max_area.y2; coords_tmp.y1 += img_size_final.y, coords_tm
 666:Drivers/lvgl/src/widgets/lv_img.c ****                     coords_tmp.x1 = img_max_area.x1 + offset_x;
 667:Drivers/lvgl/src/widgets/lv_img.c ****                     if(coords_tmp.x1 > img_max_area.x1) coords_tmp.x1 -= img->w;
 668:Drivers/lvgl/src/widgets/lv_img.c ****                     coords_tmp.x2 = coords_tmp.x1 + img->w - 1;
 669:Drivers/lvgl/src/widgets/lv_img.c **** 
ARM GAS  /var/folders/0z/tsy30v1j4xl4_7kw94k978ww0000gn/T//ccDjPiYU.s 			page 18


 670:Drivers/lvgl/src/widgets/lv_img.c ****                     for(; coords_tmp.x1 < img_max_area.x2; coords_tmp.x1 += img_size_final.x, coord
 671:Drivers/lvgl/src/widgets/lv_img.c ****                         lv_draw_img(draw_ctx, &img_dsc, &coords_tmp, img->src);
 672:Drivers/lvgl/src/widgets/lv_img.c ****                     }
 673:Drivers/lvgl/src/widgets/lv_img.c ****                 }
 674:Drivers/lvgl/src/widgets/lv_img.c ****                 draw_ctx->clip_area = clip_area_ori;
 675:Drivers/lvgl/src/widgets/lv_img.c ****             }
 676:Drivers/lvgl/src/widgets/lv_img.c ****             else if(img->src_type == LV_IMG_SRC_SYMBOL) {
 677:Drivers/lvgl/src/widgets/lv_img.c ****                 lv_draw_label_dsc_t label_dsc;
 678:Drivers/lvgl/src/widgets/lv_img.c ****                 lv_draw_label_dsc_init(&label_dsc);
 679:Drivers/lvgl/src/widgets/lv_img.c ****                 lv_obj_init_draw_label_dsc(obj, LV_PART_MAIN, &label_dsc);
 680:Drivers/lvgl/src/widgets/lv_img.c **** 
 681:Drivers/lvgl/src/widgets/lv_img.c ****                 lv_draw_label(draw_ctx, &label_dsc, &obj->coords, img->src, NULL);
 682:Drivers/lvgl/src/widgets/lv_img.c ****             }
 683:Drivers/lvgl/src/widgets/lv_img.c ****             else {
 684:Drivers/lvgl/src/widgets/lv_img.c ****                 /*Trigger the error handler of image draw*/
 685:Drivers/lvgl/src/widgets/lv_img.c ****                 LV_LOG_WARN("draw_img: image source type is unknown");
 686:Drivers/lvgl/src/widgets/lv_img.c ****                 lv_draw_img(draw_ctx, NULL, &obj->coords, NULL);
 687:Drivers/lvgl/src/widgets/lv_img.c ****             }
 688:Drivers/lvgl/src/widgets/lv_img.c ****         }
 689:Drivers/lvgl/src/widgets/lv_img.c ****     }
 690:Drivers/lvgl/src/widgets/lv_img.c **** }
 167              		.loc 1 690 1 view .LVU38
 168 0022 1DB0     		add	sp, sp, #116
 169              		.cfi_remember_state
 170              		.cfi_def_cfa_offset 36
 171              		@ sp needed
 172 0024 BDE8F08F 		pop	{r4, r5, r6, r7, r8, r9, r10, fp, pc}
 173              	.LVL12:
 174              	.L31:
 175              		.cfi_restore_state
 176              	.LBB48:
 525:Drivers/lvgl/src/widgets/lv_img.c ****         lv_cover_check_info_t * info = lv_event_get_param(e);
 177              		.loc 1 525 9 is_stmt 1 view .LVU39
 525:Drivers/lvgl/src/widgets/lv_img.c ****         lv_cover_check_info_t * info = lv_event_get_param(e);
 178              		.loc 1 525 40 is_stmt 0 view .LVU40
 179 0028 3046     		mov	r0, r6
 180              	.LVL13:
 525:Drivers/lvgl/src/widgets/lv_img.c ****         lv_cover_check_info_t * info = lv_event_get_param(e);
 181              		.loc 1 525 40 view .LVU41
 182 002a FFF7FEFF 		bl	lv_event_get_param
 183              	.LVL14:
 184 002e 0546     		mov	r5, r0
 185              	.LVL15:
 526:Drivers/lvgl/src/widgets/lv_img.c ****         if(img->src_type == LV_IMG_SRC_UNKNOWN || img->src_type == LV_IMG_SRC_SYMBOL) {
 186              		.loc 1 526 9 is_stmt 1 view .LVU42
 526:Drivers/lvgl/src/widgets/lv_img.c ****         if(img->src_type == LV_IMG_SRC_UNKNOWN || img->src_type == LV_IMG_SRC_SYMBOL) {
 187              		.loc 1 526 16 is_stmt 0 view .LVU43
 188 0030 0378     		ldrb	r3, [r0]	@ zero_extendqisi2
 526:Drivers/lvgl/src/widgets/lv_img.c ****         if(img->src_type == LV_IMG_SRC_UNKNOWN || img->src_type == LV_IMG_SRC_SYMBOL) {
 189              		.loc 1 526 11 view .LVU44
 190 0032 022B     		cmp	r3, #2
 191 0034 F5D0     		beq	.L3
 527:Drivers/lvgl/src/widgets/lv_img.c ****             info->res = LV_COVER_RES_NOT_COVER;
 192              		.loc 1 527 9 is_stmt 1 view .LVU45
 527:Drivers/lvgl/src/widgets/lv_img.c ****             info->res = LV_COVER_RES_NOT_COVER;
 193              		.loc 1 527 26 is_stmt 0 view .LVU46
 194 0036 94F83830 		ldrb	r3, [r4, #56]	@ zero_extendqisi2
ARM GAS  /var/folders/0z/tsy30v1j4xl4_7kw94k978ww0000gn/T//ccDjPiYU.s 			page 19


 527:Drivers/lvgl/src/widgets/lv_img.c ****             info->res = LV_COVER_RES_NOT_COVER;
 195              		.loc 1 527 11 view .LVU47
 196 003a 13F0020F 		tst	r3, #2
 197 003e 08D1     		bne	.L32
 533:Drivers/lvgl/src/widgets/lv_img.c ****             info->res = LV_COVER_RES_NOT_COVER;
 198              		.loc 1 533 9 is_stmt 1 view .LVU48
 533:Drivers/lvgl/src/widgets/lv_img.c ****             info->res = LV_COVER_RES_NOT_COVER;
 199              		.loc 1 533 20 is_stmt 0 view .LVU49
 200 0040 03F07C03 		and	r3, r3, #124
 533:Drivers/lvgl/src/widgets/lv_img.c ****             info->res = LV_COVER_RES_NOT_COVER;
 201              		.loc 1 533 11 view .LVU50
 202 0044 102B     		cmp	r3, #16
 203 0046 07D0     		beq	.L7
 533:Drivers/lvgl/src/widgets/lv_img.c ****             info->res = LV_COVER_RES_NOT_COVER;
 204              		.loc 1 533 44 discriminator 1 view .LVU51
 205 0048 042B     		cmp	r3, #4
 206 004a 05D0     		beq	.L7
 534:Drivers/lvgl/src/widgets/lv_img.c ****             return;
 207              		.loc 1 534 13 is_stmt 1 view .LVU52
 534:Drivers/lvgl/src/widgets/lv_img.c ****             return;
 208              		.loc 1 534 23 is_stmt 0 view .LVU53
 209 004c 0123     		movs	r3, #1
 210 004e 0370     		strb	r3, [r0]
 535:Drivers/lvgl/src/widgets/lv_img.c ****         }
 211              		.loc 1 535 13 is_stmt 1 view .LVU54
 212 0050 E7E7     		b	.L3
 213              	.L32:
 528:Drivers/lvgl/src/widgets/lv_img.c ****             return;
 214              		.loc 1 528 13 view .LVU55
 528:Drivers/lvgl/src/widgets/lv_img.c ****             return;
 215              		.loc 1 528 23 is_stmt 0 view .LVU56
 216 0052 0123     		movs	r3, #1
 217 0054 0370     		strb	r3, [r0]
 529:Drivers/lvgl/src/widgets/lv_img.c ****         }
 218              		.loc 1 529 13 is_stmt 1 view .LVU57
 219 0056 E4E7     		b	.L3
 220              	.L7:
 539:Drivers/lvgl/src/widgets/lv_img.c ****             info->res = LV_COVER_RES_NOT_COVER;
 221              		.loc 1 539 9 view .LVU58
 222              	.LVL16:
 223              	.LBB49:
 224              	.LBI49:
 225              		.file 3 "Drivers/lvgl/src/widgets/../core/lv_obj_style_gen.h"
   1:Drivers/lvgl/src/widgets/../core/lv_obj_style_gen.h **** static inline lv_coord_t lv_obj_get_style_width(const struct _lv_obj_t * obj, uint32_t part)
   2:Drivers/lvgl/src/widgets/../core/lv_obj_style_gen.h **** {
   3:Drivers/lvgl/src/widgets/../core/lv_obj_style_gen.h ****     lv_style_value_t v = lv_obj_get_style_prop(obj, part, LV_STYLE_WIDTH);
   4:Drivers/lvgl/src/widgets/../core/lv_obj_style_gen.h ****     return (lv_coord_t)v.num;
   5:Drivers/lvgl/src/widgets/../core/lv_obj_style_gen.h **** }
   6:Drivers/lvgl/src/widgets/../core/lv_obj_style_gen.h **** 
   7:Drivers/lvgl/src/widgets/../core/lv_obj_style_gen.h **** static inline lv_coord_t lv_obj_get_style_min_width(const struct _lv_obj_t * obj, uint32_t part)
   8:Drivers/lvgl/src/widgets/../core/lv_obj_style_gen.h **** {
   9:Drivers/lvgl/src/widgets/../core/lv_obj_style_gen.h ****     lv_style_value_t v = lv_obj_get_style_prop(obj, part, LV_STYLE_MIN_WIDTH);
  10:Drivers/lvgl/src/widgets/../core/lv_obj_style_gen.h ****     return (lv_coord_t)v.num;
  11:Drivers/lvgl/src/widgets/../core/lv_obj_style_gen.h **** }
  12:Drivers/lvgl/src/widgets/../core/lv_obj_style_gen.h **** 
  13:Drivers/lvgl/src/widgets/../core/lv_obj_style_gen.h **** static inline lv_coord_t lv_obj_get_style_max_width(const struct _lv_obj_t * obj, uint32_t part)
  14:Drivers/lvgl/src/widgets/../core/lv_obj_style_gen.h **** {
ARM GAS  /var/folders/0z/tsy30v1j4xl4_7kw94k978ww0000gn/T//ccDjPiYU.s 			page 20


  15:Drivers/lvgl/src/widgets/../core/lv_obj_style_gen.h ****     lv_style_value_t v = lv_obj_get_style_prop(obj, part, LV_STYLE_MAX_WIDTH);
  16:Drivers/lvgl/src/widgets/../core/lv_obj_style_gen.h ****     return (lv_coord_t)v.num;
  17:Drivers/lvgl/src/widgets/../core/lv_obj_style_gen.h **** }
  18:Drivers/lvgl/src/widgets/../core/lv_obj_style_gen.h **** 
  19:Drivers/lvgl/src/widgets/../core/lv_obj_style_gen.h **** static inline lv_coord_t lv_obj_get_style_height(const struct _lv_obj_t * obj, uint32_t part)
  20:Drivers/lvgl/src/widgets/../core/lv_obj_style_gen.h **** {
  21:Drivers/lvgl/src/widgets/../core/lv_obj_style_gen.h ****     lv_style_value_t v = lv_obj_get_style_prop(obj, part, LV_STYLE_HEIGHT);
  22:Drivers/lvgl/src/widgets/../core/lv_obj_style_gen.h ****     return (lv_coord_t)v.num;
  23:Drivers/lvgl/src/widgets/../core/lv_obj_style_gen.h **** }
  24:Drivers/lvgl/src/widgets/../core/lv_obj_style_gen.h **** 
  25:Drivers/lvgl/src/widgets/../core/lv_obj_style_gen.h **** static inline lv_coord_t lv_obj_get_style_min_height(const struct _lv_obj_t * obj, uint32_t part)
  26:Drivers/lvgl/src/widgets/../core/lv_obj_style_gen.h **** {
  27:Drivers/lvgl/src/widgets/../core/lv_obj_style_gen.h ****     lv_style_value_t v = lv_obj_get_style_prop(obj, part, LV_STYLE_MIN_HEIGHT);
  28:Drivers/lvgl/src/widgets/../core/lv_obj_style_gen.h ****     return (lv_coord_t)v.num;
  29:Drivers/lvgl/src/widgets/../core/lv_obj_style_gen.h **** }
  30:Drivers/lvgl/src/widgets/../core/lv_obj_style_gen.h **** 
  31:Drivers/lvgl/src/widgets/../core/lv_obj_style_gen.h **** static inline lv_coord_t lv_obj_get_style_max_height(const struct _lv_obj_t * obj, uint32_t part)
  32:Drivers/lvgl/src/widgets/../core/lv_obj_style_gen.h **** {
  33:Drivers/lvgl/src/widgets/../core/lv_obj_style_gen.h ****     lv_style_value_t v = lv_obj_get_style_prop(obj, part, LV_STYLE_MAX_HEIGHT);
  34:Drivers/lvgl/src/widgets/../core/lv_obj_style_gen.h ****     return (lv_coord_t)v.num;
  35:Drivers/lvgl/src/widgets/../core/lv_obj_style_gen.h **** }
  36:Drivers/lvgl/src/widgets/../core/lv_obj_style_gen.h **** 
  37:Drivers/lvgl/src/widgets/../core/lv_obj_style_gen.h **** static inline lv_coord_t lv_obj_get_style_x(const struct _lv_obj_t * obj, uint32_t part)
  38:Drivers/lvgl/src/widgets/../core/lv_obj_style_gen.h **** {
  39:Drivers/lvgl/src/widgets/../core/lv_obj_style_gen.h ****     lv_style_value_t v = lv_obj_get_style_prop(obj, part, LV_STYLE_X);
  40:Drivers/lvgl/src/widgets/../core/lv_obj_style_gen.h ****     return (lv_coord_t)v.num;
  41:Drivers/lvgl/src/widgets/../core/lv_obj_style_gen.h **** }
  42:Drivers/lvgl/src/widgets/../core/lv_obj_style_gen.h **** 
  43:Drivers/lvgl/src/widgets/../core/lv_obj_style_gen.h **** static inline lv_coord_t lv_obj_get_style_y(const struct _lv_obj_t * obj, uint32_t part)
  44:Drivers/lvgl/src/widgets/../core/lv_obj_style_gen.h **** {
  45:Drivers/lvgl/src/widgets/../core/lv_obj_style_gen.h ****     lv_style_value_t v = lv_obj_get_style_prop(obj, part, LV_STYLE_Y);
  46:Drivers/lvgl/src/widgets/../core/lv_obj_style_gen.h ****     return (lv_coord_t)v.num;
  47:Drivers/lvgl/src/widgets/../core/lv_obj_style_gen.h **** }
  48:Drivers/lvgl/src/widgets/../core/lv_obj_style_gen.h **** 
  49:Drivers/lvgl/src/widgets/../core/lv_obj_style_gen.h **** static inline lv_align_t lv_obj_get_style_align(const struct _lv_obj_t * obj, uint32_t part)
  50:Drivers/lvgl/src/widgets/../core/lv_obj_style_gen.h **** {
  51:Drivers/lvgl/src/widgets/../core/lv_obj_style_gen.h ****     lv_style_value_t v = lv_obj_get_style_prop(obj, part, LV_STYLE_ALIGN);
  52:Drivers/lvgl/src/widgets/../core/lv_obj_style_gen.h ****     return (lv_align_t)v.num;
  53:Drivers/lvgl/src/widgets/../core/lv_obj_style_gen.h **** }
  54:Drivers/lvgl/src/widgets/../core/lv_obj_style_gen.h **** 
  55:Drivers/lvgl/src/widgets/../core/lv_obj_style_gen.h **** static inline lv_coord_t lv_obj_get_style_transform_width(const struct _lv_obj_t * obj, uint32_t pa
  56:Drivers/lvgl/src/widgets/../core/lv_obj_style_gen.h **** {
  57:Drivers/lvgl/src/widgets/../core/lv_obj_style_gen.h ****     lv_style_value_t v = lv_obj_get_style_prop(obj, part, LV_STYLE_TRANSFORM_WIDTH);
  58:Drivers/lvgl/src/widgets/../core/lv_obj_style_gen.h ****     return (lv_coord_t)v.num;
  59:Drivers/lvgl/src/widgets/../core/lv_obj_style_gen.h **** }
  60:Drivers/lvgl/src/widgets/../core/lv_obj_style_gen.h **** 
  61:Drivers/lvgl/src/widgets/../core/lv_obj_style_gen.h **** static inline lv_coord_t lv_obj_get_style_transform_height(const struct _lv_obj_t * obj, uint32_t p
  62:Drivers/lvgl/src/widgets/../core/lv_obj_style_gen.h **** {
  63:Drivers/lvgl/src/widgets/../core/lv_obj_style_gen.h ****     lv_style_value_t v = lv_obj_get_style_prop(obj, part, LV_STYLE_TRANSFORM_HEIGHT);
  64:Drivers/lvgl/src/widgets/../core/lv_obj_style_gen.h ****     return (lv_coord_t)v.num;
  65:Drivers/lvgl/src/widgets/../core/lv_obj_style_gen.h **** }
  66:Drivers/lvgl/src/widgets/../core/lv_obj_style_gen.h **** 
  67:Drivers/lvgl/src/widgets/../core/lv_obj_style_gen.h **** static inline lv_coord_t lv_obj_get_style_translate_x(const struct _lv_obj_t * obj, uint32_t part)
  68:Drivers/lvgl/src/widgets/../core/lv_obj_style_gen.h **** {
  69:Drivers/lvgl/src/widgets/../core/lv_obj_style_gen.h ****     lv_style_value_t v = lv_obj_get_style_prop(obj, part, LV_STYLE_TRANSLATE_X);
  70:Drivers/lvgl/src/widgets/../core/lv_obj_style_gen.h ****     return (lv_coord_t)v.num;
  71:Drivers/lvgl/src/widgets/../core/lv_obj_style_gen.h **** }
ARM GAS  /var/folders/0z/tsy30v1j4xl4_7kw94k978ww0000gn/T//ccDjPiYU.s 			page 21


  72:Drivers/lvgl/src/widgets/../core/lv_obj_style_gen.h **** 
  73:Drivers/lvgl/src/widgets/../core/lv_obj_style_gen.h **** static inline lv_coord_t lv_obj_get_style_translate_y(const struct _lv_obj_t * obj, uint32_t part)
  74:Drivers/lvgl/src/widgets/../core/lv_obj_style_gen.h **** {
  75:Drivers/lvgl/src/widgets/../core/lv_obj_style_gen.h ****     lv_style_value_t v = lv_obj_get_style_prop(obj, part, LV_STYLE_TRANSLATE_Y);
  76:Drivers/lvgl/src/widgets/../core/lv_obj_style_gen.h ****     return (lv_coord_t)v.num;
  77:Drivers/lvgl/src/widgets/../core/lv_obj_style_gen.h **** }
  78:Drivers/lvgl/src/widgets/../core/lv_obj_style_gen.h **** 
  79:Drivers/lvgl/src/widgets/../core/lv_obj_style_gen.h **** static inline lv_coord_t lv_obj_get_style_transform_zoom(const struct _lv_obj_t * obj, uint32_t par
  80:Drivers/lvgl/src/widgets/../core/lv_obj_style_gen.h **** {
  81:Drivers/lvgl/src/widgets/../core/lv_obj_style_gen.h ****     lv_style_value_t v = lv_obj_get_style_prop(obj, part, LV_STYLE_TRANSFORM_ZOOM);
  82:Drivers/lvgl/src/widgets/../core/lv_obj_style_gen.h ****     return (lv_coord_t)v.num;
  83:Drivers/lvgl/src/widgets/../core/lv_obj_style_gen.h **** }
  84:Drivers/lvgl/src/widgets/../core/lv_obj_style_gen.h **** 
  85:Drivers/lvgl/src/widgets/../core/lv_obj_style_gen.h **** static inline lv_coord_t lv_obj_get_style_transform_angle(const struct _lv_obj_t * obj, uint32_t pa
  86:Drivers/lvgl/src/widgets/../core/lv_obj_style_gen.h **** {
  87:Drivers/lvgl/src/widgets/../core/lv_obj_style_gen.h ****     lv_style_value_t v = lv_obj_get_style_prop(obj, part, LV_STYLE_TRANSFORM_ANGLE);
  88:Drivers/lvgl/src/widgets/../core/lv_obj_style_gen.h ****     return (lv_coord_t)v.num;
  89:Drivers/lvgl/src/widgets/../core/lv_obj_style_gen.h **** }
  90:Drivers/lvgl/src/widgets/../core/lv_obj_style_gen.h **** 
  91:Drivers/lvgl/src/widgets/../core/lv_obj_style_gen.h **** static inline lv_coord_t lv_obj_get_style_transform_pivot_x(const struct _lv_obj_t * obj, uint32_t 
  92:Drivers/lvgl/src/widgets/../core/lv_obj_style_gen.h **** {
  93:Drivers/lvgl/src/widgets/../core/lv_obj_style_gen.h ****     lv_style_value_t v = lv_obj_get_style_prop(obj, part, LV_STYLE_TRANSFORM_PIVOT_X);
  94:Drivers/lvgl/src/widgets/../core/lv_obj_style_gen.h ****     return (lv_coord_t)v.num;
  95:Drivers/lvgl/src/widgets/../core/lv_obj_style_gen.h **** }
  96:Drivers/lvgl/src/widgets/../core/lv_obj_style_gen.h **** 
  97:Drivers/lvgl/src/widgets/../core/lv_obj_style_gen.h **** static inline lv_coord_t lv_obj_get_style_transform_pivot_y(const struct _lv_obj_t * obj, uint32_t 
  98:Drivers/lvgl/src/widgets/../core/lv_obj_style_gen.h **** {
  99:Drivers/lvgl/src/widgets/../core/lv_obj_style_gen.h ****     lv_style_value_t v = lv_obj_get_style_prop(obj, part, LV_STYLE_TRANSFORM_PIVOT_Y);
 100:Drivers/lvgl/src/widgets/../core/lv_obj_style_gen.h ****     return (lv_coord_t)v.num;
 101:Drivers/lvgl/src/widgets/../core/lv_obj_style_gen.h **** }
 102:Drivers/lvgl/src/widgets/../core/lv_obj_style_gen.h **** 
 103:Drivers/lvgl/src/widgets/../core/lv_obj_style_gen.h **** static inline lv_coord_t lv_obj_get_style_pad_top(const struct _lv_obj_t * obj, uint32_t part)
 104:Drivers/lvgl/src/widgets/../core/lv_obj_style_gen.h **** {
 105:Drivers/lvgl/src/widgets/../core/lv_obj_style_gen.h ****     lv_style_value_t v = lv_obj_get_style_prop(obj, part, LV_STYLE_PAD_TOP);
 106:Drivers/lvgl/src/widgets/../core/lv_obj_style_gen.h ****     return (lv_coord_t)v.num;
 107:Drivers/lvgl/src/widgets/../core/lv_obj_style_gen.h **** }
 108:Drivers/lvgl/src/widgets/../core/lv_obj_style_gen.h **** 
 109:Drivers/lvgl/src/widgets/../core/lv_obj_style_gen.h **** static inline lv_coord_t lv_obj_get_style_pad_bottom(const struct _lv_obj_t * obj, uint32_t part)
 110:Drivers/lvgl/src/widgets/../core/lv_obj_style_gen.h **** {
 111:Drivers/lvgl/src/widgets/../core/lv_obj_style_gen.h ****     lv_style_value_t v = lv_obj_get_style_prop(obj, part, LV_STYLE_PAD_BOTTOM);
 112:Drivers/lvgl/src/widgets/../core/lv_obj_style_gen.h ****     return (lv_coord_t)v.num;
 113:Drivers/lvgl/src/widgets/../core/lv_obj_style_gen.h **** }
 114:Drivers/lvgl/src/widgets/../core/lv_obj_style_gen.h **** 
 115:Drivers/lvgl/src/widgets/../core/lv_obj_style_gen.h **** static inline lv_coord_t lv_obj_get_style_pad_left(const struct _lv_obj_t * obj, uint32_t part)
 116:Drivers/lvgl/src/widgets/../core/lv_obj_style_gen.h **** {
 117:Drivers/lvgl/src/widgets/../core/lv_obj_style_gen.h ****     lv_style_value_t v = lv_obj_get_style_prop(obj, part, LV_STYLE_PAD_LEFT);
 118:Drivers/lvgl/src/widgets/../core/lv_obj_style_gen.h ****     return (lv_coord_t)v.num;
 119:Drivers/lvgl/src/widgets/../core/lv_obj_style_gen.h **** }
 120:Drivers/lvgl/src/widgets/../core/lv_obj_style_gen.h **** 
 121:Drivers/lvgl/src/widgets/../core/lv_obj_style_gen.h **** static inline lv_coord_t lv_obj_get_style_pad_right(const struct _lv_obj_t * obj, uint32_t part)
 122:Drivers/lvgl/src/widgets/../core/lv_obj_style_gen.h **** {
 123:Drivers/lvgl/src/widgets/../core/lv_obj_style_gen.h ****     lv_style_value_t v = lv_obj_get_style_prop(obj, part, LV_STYLE_PAD_RIGHT);
 124:Drivers/lvgl/src/widgets/../core/lv_obj_style_gen.h ****     return (lv_coord_t)v.num;
 125:Drivers/lvgl/src/widgets/../core/lv_obj_style_gen.h **** }
 126:Drivers/lvgl/src/widgets/../core/lv_obj_style_gen.h **** 
 127:Drivers/lvgl/src/widgets/../core/lv_obj_style_gen.h **** static inline lv_coord_t lv_obj_get_style_pad_row(const struct _lv_obj_t * obj, uint32_t part)
 128:Drivers/lvgl/src/widgets/../core/lv_obj_style_gen.h **** {
ARM GAS  /var/folders/0z/tsy30v1j4xl4_7kw94k978ww0000gn/T//ccDjPiYU.s 			page 22


 129:Drivers/lvgl/src/widgets/../core/lv_obj_style_gen.h ****     lv_style_value_t v = lv_obj_get_style_prop(obj, part, LV_STYLE_PAD_ROW);
 130:Drivers/lvgl/src/widgets/../core/lv_obj_style_gen.h ****     return (lv_coord_t)v.num;
 131:Drivers/lvgl/src/widgets/../core/lv_obj_style_gen.h **** }
 132:Drivers/lvgl/src/widgets/../core/lv_obj_style_gen.h **** 
 133:Drivers/lvgl/src/widgets/../core/lv_obj_style_gen.h **** static inline lv_coord_t lv_obj_get_style_pad_column(const struct _lv_obj_t * obj, uint32_t part)
 134:Drivers/lvgl/src/widgets/../core/lv_obj_style_gen.h **** {
 135:Drivers/lvgl/src/widgets/../core/lv_obj_style_gen.h ****     lv_style_value_t v = lv_obj_get_style_prop(obj, part, LV_STYLE_PAD_COLUMN);
 136:Drivers/lvgl/src/widgets/../core/lv_obj_style_gen.h ****     return (lv_coord_t)v.num;
 137:Drivers/lvgl/src/widgets/../core/lv_obj_style_gen.h **** }
 138:Drivers/lvgl/src/widgets/../core/lv_obj_style_gen.h **** 
 139:Drivers/lvgl/src/widgets/../core/lv_obj_style_gen.h **** static inline lv_color_t lv_obj_get_style_bg_color(const struct _lv_obj_t * obj, uint32_t part)
 140:Drivers/lvgl/src/widgets/../core/lv_obj_style_gen.h **** {
 141:Drivers/lvgl/src/widgets/../core/lv_obj_style_gen.h ****     lv_style_value_t v = lv_obj_get_style_prop(obj, part, LV_STYLE_BG_COLOR);
 142:Drivers/lvgl/src/widgets/../core/lv_obj_style_gen.h ****     return v.color;
 143:Drivers/lvgl/src/widgets/../core/lv_obj_style_gen.h **** }
 144:Drivers/lvgl/src/widgets/../core/lv_obj_style_gen.h **** 
 145:Drivers/lvgl/src/widgets/../core/lv_obj_style_gen.h **** static inline lv_color_t lv_obj_get_style_bg_color_filtered(const struct _lv_obj_t * obj, uint32_t 
 146:Drivers/lvgl/src/widgets/../core/lv_obj_style_gen.h **** {
 147:Drivers/lvgl/src/widgets/../core/lv_obj_style_gen.h ****     lv_style_value_t v = _lv_obj_style_apply_color_filter(obj, part, lv_obj_get_style_prop(obj, par
 148:Drivers/lvgl/src/widgets/../core/lv_obj_style_gen.h ****     return v.color;
 149:Drivers/lvgl/src/widgets/../core/lv_obj_style_gen.h **** }
 150:Drivers/lvgl/src/widgets/../core/lv_obj_style_gen.h **** 
 151:Drivers/lvgl/src/widgets/../core/lv_obj_style_gen.h **** static inline lv_opa_t lv_obj_get_style_bg_opa(const struct _lv_obj_t * obj, uint32_t part)
 152:Drivers/lvgl/src/widgets/../core/lv_obj_style_gen.h **** {
 153:Drivers/lvgl/src/widgets/../core/lv_obj_style_gen.h ****     lv_style_value_t v = lv_obj_get_style_prop(obj, part, LV_STYLE_BG_OPA);
 154:Drivers/lvgl/src/widgets/../core/lv_obj_style_gen.h ****     return (lv_opa_t)v.num;
 155:Drivers/lvgl/src/widgets/../core/lv_obj_style_gen.h **** }
 156:Drivers/lvgl/src/widgets/../core/lv_obj_style_gen.h **** 
 157:Drivers/lvgl/src/widgets/../core/lv_obj_style_gen.h **** static inline lv_color_t lv_obj_get_style_bg_grad_color(const struct _lv_obj_t * obj, uint32_t part
 158:Drivers/lvgl/src/widgets/../core/lv_obj_style_gen.h **** {
 159:Drivers/lvgl/src/widgets/../core/lv_obj_style_gen.h ****     lv_style_value_t v = lv_obj_get_style_prop(obj, part, LV_STYLE_BG_GRAD_COLOR);
 160:Drivers/lvgl/src/widgets/../core/lv_obj_style_gen.h ****     return v.color;
 161:Drivers/lvgl/src/widgets/../core/lv_obj_style_gen.h **** }
 162:Drivers/lvgl/src/widgets/../core/lv_obj_style_gen.h **** 
 163:Drivers/lvgl/src/widgets/../core/lv_obj_style_gen.h **** static inline lv_color_t lv_obj_get_style_bg_grad_color_filtered(const struct _lv_obj_t * obj, uint
 164:Drivers/lvgl/src/widgets/../core/lv_obj_style_gen.h **** {
 165:Drivers/lvgl/src/widgets/../core/lv_obj_style_gen.h ****     lv_style_value_t v = _lv_obj_style_apply_color_filter(obj, part, lv_obj_get_style_prop(obj, par
 166:Drivers/lvgl/src/widgets/../core/lv_obj_style_gen.h ****     return v.color;
 167:Drivers/lvgl/src/widgets/../core/lv_obj_style_gen.h **** }
 168:Drivers/lvgl/src/widgets/../core/lv_obj_style_gen.h **** 
 169:Drivers/lvgl/src/widgets/../core/lv_obj_style_gen.h **** static inline lv_grad_dir_t lv_obj_get_style_bg_grad_dir(const struct _lv_obj_t * obj, uint32_t par
 170:Drivers/lvgl/src/widgets/../core/lv_obj_style_gen.h **** {
 171:Drivers/lvgl/src/widgets/../core/lv_obj_style_gen.h ****     lv_style_value_t v = lv_obj_get_style_prop(obj, part, LV_STYLE_BG_GRAD_DIR);
 172:Drivers/lvgl/src/widgets/../core/lv_obj_style_gen.h ****     return (lv_grad_dir_t)v.num;
 173:Drivers/lvgl/src/widgets/../core/lv_obj_style_gen.h **** }
 174:Drivers/lvgl/src/widgets/../core/lv_obj_style_gen.h **** 
 175:Drivers/lvgl/src/widgets/../core/lv_obj_style_gen.h **** static inline lv_coord_t lv_obj_get_style_bg_main_stop(const struct _lv_obj_t * obj, uint32_t part)
 176:Drivers/lvgl/src/widgets/../core/lv_obj_style_gen.h **** {
 177:Drivers/lvgl/src/widgets/../core/lv_obj_style_gen.h ****     lv_style_value_t v = lv_obj_get_style_prop(obj, part, LV_STYLE_BG_MAIN_STOP);
 178:Drivers/lvgl/src/widgets/../core/lv_obj_style_gen.h ****     return (lv_coord_t)v.num;
 179:Drivers/lvgl/src/widgets/../core/lv_obj_style_gen.h **** }
 180:Drivers/lvgl/src/widgets/../core/lv_obj_style_gen.h **** 
 181:Drivers/lvgl/src/widgets/../core/lv_obj_style_gen.h **** static inline lv_coord_t lv_obj_get_style_bg_grad_stop(const struct _lv_obj_t * obj, uint32_t part)
 182:Drivers/lvgl/src/widgets/../core/lv_obj_style_gen.h **** {
 183:Drivers/lvgl/src/widgets/../core/lv_obj_style_gen.h ****     lv_style_value_t v = lv_obj_get_style_prop(obj, part, LV_STYLE_BG_GRAD_STOP);
 184:Drivers/lvgl/src/widgets/../core/lv_obj_style_gen.h ****     return (lv_coord_t)v.num;
 185:Drivers/lvgl/src/widgets/../core/lv_obj_style_gen.h **** }
ARM GAS  /var/folders/0z/tsy30v1j4xl4_7kw94k978ww0000gn/T//ccDjPiYU.s 			page 23


 186:Drivers/lvgl/src/widgets/../core/lv_obj_style_gen.h **** 
 187:Drivers/lvgl/src/widgets/../core/lv_obj_style_gen.h **** static inline const lv_grad_dsc_t * lv_obj_get_style_bg_grad(const struct _lv_obj_t * obj, uint32_t
 188:Drivers/lvgl/src/widgets/../core/lv_obj_style_gen.h **** {
 189:Drivers/lvgl/src/widgets/../core/lv_obj_style_gen.h ****     lv_style_value_t v = lv_obj_get_style_prop(obj, part, LV_STYLE_BG_GRAD);
 190:Drivers/lvgl/src/widgets/../core/lv_obj_style_gen.h ****     return (const lv_grad_dsc_t *)v.ptr;
 191:Drivers/lvgl/src/widgets/../core/lv_obj_style_gen.h **** }
 192:Drivers/lvgl/src/widgets/../core/lv_obj_style_gen.h **** 
 193:Drivers/lvgl/src/widgets/../core/lv_obj_style_gen.h **** static inline lv_dither_mode_t lv_obj_get_style_bg_dither_mode(const struct _lv_obj_t * obj, uint32
 194:Drivers/lvgl/src/widgets/../core/lv_obj_style_gen.h **** {
 195:Drivers/lvgl/src/widgets/../core/lv_obj_style_gen.h ****     lv_style_value_t v = lv_obj_get_style_prop(obj, part, LV_STYLE_BG_DITHER_MODE);
 196:Drivers/lvgl/src/widgets/../core/lv_obj_style_gen.h ****     return (lv_dither_mode_t)v.num;
 197:Drivers/lvgl/src/widgets/../core/lv_obj_style_gen.h **** }
 198:Drivers/lvgl/src/widgets/../core/lv_obj_style_gen.h **** 
 199:Drivers/lvgl/src/widgets/../core/lv_obj_style_gen.h **** static inline const void * lv_obj_get_style_bg_img_src(const struct _lv_obj_t * obj, uint32_t part)
 200:Drivers/lvgl/src/widgets/../core/lv_obj_style_gen.h **** {
 201:Drivers/lvgl/src/widgets/../core/lv_obj_style_gen.h ****     lv_style_value_t v = lv_obj_get_style_prop(obj, part, LV_STYLE_BG_IMG_SRC);
 202:Drivers/lvgl/src/widgets/../core/lv_obj_style_gen.h ****     return (const void *)v.ptr;
 203:Drivers/lvgl/src/widgets/../core/lv_obj_style_gen.h **** }
 204:Drivers/lvgl/src/widgets/../core/lv_obj_style_gen.h **** 
 205:Drivers/lvgl/src/widgets/../core/lv_obj_style_gen.h **** static inline lv_opa_t lv_obj_get_style_bg_img_opa(const struct _lv_obj_t * obj, uint32_t part)
 206:Drivers/lvgl/src/widgets/../core/lv_obj_style_gen.h **** {
 207:Drivers/lvgl/src/widgets/../core/lv_obj_style_gen.h ****     lv_style_value_t v = lv_obj_get_style_prop(obj, part, LV_STYLE_BG_IMG_OPA);
 208:Drivers/lvgl/src/widgets/../core/lv_obj_style_gen.h ****     return (lv_opa_t)v.num;
 209:Drivers/lvgl/src/widgets/../core/lv_obj_style_gen.h **** }
 210:Drivers/lvgl/src/widgets/../core/lv_obj_style_gen.h **** 
 211:Drivers/lvgl/src/widgets/../core/lv_obj_style_gen.h **** static inline lv_color_t lv_obj_get_style_bg_img_recolor(const struct _lv_obj_t * obj, uint32_t par
 212:Drivers/lvgl/src/widgets/../core/lv_obj_style_gen.h **** {
 213:Drivers/lvgl/src/widgets/../core/lv_obj_style_gen.h ****     lv_style_value_t v = lv_obj_get_style_prop(obj, part, LV_STYLE_BG_IMG_RECOLOR);
 214:Drivers/lvgl/src/widgets/../core/lv_obj_style_gen.h ****     return v.color;
 215:Drivers/lvgl/src/widgets/../core/lv_obj_style_gen.h **** }
 216:Drivers/lvgl/src/widgets/../core/lv_obj_style_gen.h **** 
 217:Drivers/lvgl/src/widgets/../core/lv_obj_style_gen.h **** static inline lv_color_t lv_obj_get_style_bg_img_recolor_filtered(const struct _lv_obj_t * obj, uin
 218:Drivers/lvgl/src/widgets/../core/lv_obj_style_gen.h **** {
 219:Drivers/lvgl/src/widgets/../core/lv_obj_style_gen.h ****     lv_style_value_t v = _lv_obj_style_apply_color_filter(obj, part, lv_obj_get_style_prop(obj, par
 220:Drivers/lvgl/src/widgets/../core/lv_obj_style_gen.h ****     return v.color;
 221:Drivers/lvgl/src/widgets/../core/lv_obj_style_gen.h **** }
 222:Drivers/lvgl/src/widgets/../core/lv_obj_style_gen.h **** 
 223:Drivers/lvgl/src/widgets/../core/lv_obj_style_gen.h **** static inline lv_opa_t lv_obj_get_style_bg_img_recolor_opa(const struct _lv_obj_t * obj, uint32_t p
 224:Drivers/lvgl/src/widgets/../core/lv_obj_style_gen.h **** {
 225:Drivers/lvgl/src/widgets/../core/lv_obj_style_gen.h ****     lv_style_value_t v = lv_obj_get_style_prop(obj, part, LV_STYLE_BG_IMG_RECOLOR_OPA);
 226:Drivers/lvgl/src/widgets/../core/lv_obj_style_gen.h ****     return (lv_opa_t)v.num;
 227:Drivers/lvgl/src/widgets/../core/lv_obj_style_gen.h **** }
 228:Drivers/lvgl/src/widgets/../core/lv_obj_style_gen.h **** 
 229:Drivers/lvgl/src/widgets/../core/lv_obj_style_gen.h **** static inline bool lv_obj_get_style_bg_img_tiled(const struct _lv_obj_t * obj, uint32_t part)
 230:Drivers/lvgl/src/widgets/../core/lv_obj_style_gen.h **** {
 231:Drivers/lvgl/src/widgets/../core/lv_obj_style_gen.h ****     lv_style_value_t v = lv_obj_get_style_prop(obj, part, LV_STYLE_BG_IMG_TILED);
 232:Drivers/lvgl/src/widgets/../core/lv_obj_style_gen.h ****     return (bool)v.num;
 233:Drivers/lvgl/src/widgets/../core/lv_obj_style_gen.h **** }
 234:Drivers/lvgl/src/widgets/../core/lv_obj_style_gen.h **** 
 235:Drivers/lvgl/src/widgets/../core/lv_obj_style_gen.h **** static inline lv_color_t lv_obj_get_style_border_color(const struct _lv_obj_t * obj, uint32_t part)
 236:Drivers/lvgl/src/widgets/../core/lv_obj_style_gen.h **** {
 237:Drivers/lvgl/src/widgets/../core/lv_obj_style_gen.h ****     lv_style_value_t v = lv_obj_get_style_prop(obj, part, LV_STYLE_BORDER_COLOR);
 238:Drivers/lvgl/src/widgets/../core/lv_obj_style_gen.h ****     return v.color;
 239:Drivers/lvgl/src/widgets/../core/lv_obj_style_gen.h **** }
 240:Drivers/lvgl/src/widgets/../core/lv_obj_style_gen.h **** 
 241:Drivers/lvgl/src/widgets/../core/lv_obj_style_gen.h **** static inline lv_color_t lv_obj_get_style_border_color_filtered(const struct _lv_obj_t * obj, uint3
 242:Drivers/lvgl/src/widgets/../core/lv_obj_style_gen.h **** {
ARM GAS  /var/folders/0z/tsy30v1j4xl4_7kw94k978ww0000gn/T//ccDjPiYU.s 			page 24


 243:Drivers/lvgl/src/widgets/../core/lv_obj_style_gen.h ****     lv_style_value_t v = _lv_obj_style_apply_color_filter(obj, part, lv_obj_get_style_prop(obj, par
 244:Drivers/lvgl/src/widgets/../core/lv_obj_style_gen.h ****     return v.color;
 245:Drivers/lvgl/src/widgets/../core/lv_obj_style_gen.h **** }
 246:Drivers/lvgl/src/widgets/../core/lv_obj_style_gen.h **** 
 247:Drivers/lvgl/src/widgets/../core/lv_obj_style_gen.h **** static inline lv_opa_t lv_obj_get_style_border_opa(const struct _lv_obj_t * obj, uint32_t part)
 248:Drivers/lvgl/src/widgets/../core/lv_obj_style_gen.h **** {
 249:Drivers/lvgl/src/widgets/../core/lv_obj_style_gen.h ****     lv_style_value_t v = lv_obj_get_style_prop(obj, part, LV_STYLE_BORDER_OPA);
 250:Drivers/lvgl/src/widgets/../core/lv_obj_style_gen.h ****     return (lv_opa_t)v.num;
 251:Drivers/lvgl/src/widgets/../core/lv_obj_style_gen.h **** }
 252:Drivers/lvgl/src/widgets/../core/lv_obj_style_gen.h **** 
 253:Drivers/lvgl/src/widgets/../core/lv_obj_style_gen.h **** static inline lv_coord_t lv_obj_get_style_border_width(const struct _lv_obj_t * obj, uint32_t part)
 254:Drivers/lvgl/src/widgets/../core/lv_obj_style_gen.h **** {
 255:Drivers/lvgl/src/widgets/../core/lv_obj_style_gen.h ****     lv_style_value_t v = lv_obj_get_style_prop(obj, part, LV_STYLE_BORDER_WIDTH);
 256:Drivers/lvgl/src/widgets/../core/lv_obj_style_gen.h ****     return (lv_coord_t)v.num;
 257:Drivers/lvgl/src/widgets/../core/lv_obj_style_gen.h **** }
 258:Drivers/lvgl/src/widgets/../core/lv_obj_style_gen.h **** 
 259:Drivers/lvgl/src/widgets/../core/lv_obj_style_gen.h **** static inline lv_border_side_t lv_obj_get_style_border_side(const struct _lv_obj_t * obj, uint32_t 
 260:Drivers/lvgl/src/widgets/../core/lv_obj_style_gen.h **** {
 261:Drivers/lvgl/src/widgets/../core/lv_obj_style_gen.h ****     lv_style_value_t v = lv_obj_get_style_prop(obj, part, LV_STYLE_BORDER_SIDE);
 262:Drivers/lvgl/src/widgets/../core/lv_obj_style_gen.h ****     return (lv_border_side_t)v.num;
 263:Drivers/lvgl/src/widgets/../core/lv_obj_style_gen.h **** }
 264:Drivers/lvgl/src/widgets/../core/lv_obj_style_gen.h **** 
 265:Drivers/lvgl/src/widgets/../core/lv_obj_style_gen.h **** static inline bool lv_obj_get_style_border_post(const struct _lv_obj_t * obj, uint32_t part)
 266:Drivers/lvgl/src/widgets/../core/lv_obj_style_gen.h **** {
 267:Drivers/lvgl/src/widgets/../core/lv_obj_style_gen.h ****     lv_style_value_t v = lv_obj_get_style_prop(obj, part, LV_STYLE_BORDER_POST);
 268:Drivers/lvgl/src/widgets/../core/lv_obj_style_gen.h ****     return (bool)v.num;
 269:Drivers/lvgl/src/widgets/../core/lv_obj_style_gen.h **** }
 270:Drivers/lvgl/src/widgets/../core/lv_obj_style_gen.h **** 
 271:Drivers/lvgl/src/widgets/../core/lv_obj_style_gen.h **** static inline lv_coord_t lv_obj_get_style_outline_width(const struct _lv_obj_t * obj, uint32_t part
 272:Drivers/lvgl/src/widgets/../core/lv_obj_style_gen.h **** {
 273:Drivers/lvgl/src/widgets/../core/lv_obj_style_gen.h ****     lv_style_value_t v = lv_obj_get_style_prop(obj, part, LV_STYLE_OUTLINE_WIDTH);
 274:Drivers/lvgl/src/widgets/../core/lv_obj_style_gen.h ****     return (lv_coord_t)v.num;
 275:Drivers/lvgl/src/widgets/../core/lv_obj_style_gen.h **** }
 276:Drivers/lvgl/src/widgets/../core/lv_obj_style_gen.h **** 
 277:Drivers/lvgl/src/widgets/../core/lv_obj_style_gen.h **** static inline lv_color_t lv_obj_get_style_outline_color(const struct _lv_obj_t * obj, uint32_t part
 278:Drivers/lvgl/src/widgets/../core/lv_obj_style_gen.h **** {
 279:Drivers/lvgl/src/widgets/../core/lv_obj_style_gen.h ****     lv_style_value_t v = lv_obj_get_style_prop(obj, part, LV_STYLE_OUTLINE_COLOR);
 280:Drivers/lvgl/src/widgets/../core/lv_obj_style_gen.h ****     return v.color;
 281:Drivers/lvgl/src/widgets/../core/lv_obj_style_gen.h **** }
 282:Drivers/lvgl/src/widgets/../core/lv_obj_style_gen.h **** 
 283:Drivers/lvgl/src/widgets/../core/lv_obj_style_gen.h **** static inline lv_color_t lv_obj_get_style_outline_color_filtered(const struct _lv_obj_t * obj, uint
 284:Drivers/lvgl/src/widgets/../core/lv_obj_style_gen.h **** {
 285:Drivers/lvgl/src/widgets/../core/lv_obj_style_gen.h ****     lv_style_value_t v = _lv_obj_style_apply_color_filter(obj, part, lv_obj_get_style_prop(obj, par
 286:Drivers/lvgl/src/widgets/../core/lv_obj_style_gen.h ****     return v.color;
 287:Drivers/lvgl/src/widgets/../core/lv_obj_style_gen.h **** }
 288:Drivers/lvgl/src/widgets/../core/lv_obj_style_gen.h **** 
 289:Drivers/lvgl/src/widgets/../core/lv_obj_style_gen.h **** static inline lv_opa_t lv_obj_get_style_outline_opa(const struct _lv_obj_t * obj, uint32_t part)
 290:Drivers/lvgl/src/widgets/../core/lv_obj_style_gen.h **** {
 291:Drivers/lvgl/src/widgets/../core/lv_obj_style_gen.h ****     lv_style_value_t v = lv_obj_get_style_prop(obj, part, LV_STYLE_OUTLINE_OPA);
 292:Drivers/lvgl/src/widgets/../core/lv_obj_style_gen.h ****     return (lv_opa_t)v.num;
 293:Drivers/lvgl/src/widgets/../core/lv_obj_style_gen.h **** }
 294:Drivers/lvgl/src/widgets/../core/lv_obj_style_gen.h **** 
 295:Drivers/lvgl/src/widgets/../core/lv_obj_style_gen.h **** static inline lv_coord_t lv_obj_get_style_outline_pad(const struct _lv_obj_t * obj, uint32_t part)
 296:Drivers/lvgl/src/widgets/../core/lv_obj_style_gen.h **** {
 297:Drivers/lvgl/src/widgets/../core/lv_obj_style_gen.h ****     lv_style_value_t v = lv_obj_get_style_prop(obj, part, LV_STYLE_OUTLINE_PAD);
 298:Drivers/lvgl/src/widgets/../core/lv_obj_style_gen.h ****     return (lv_coord_t)v.num;
 299:Drivers/lvgl/src/widgets/../core/lv_obj_style_gen.h **** }
ARM GAS  /var/folders/0z/tsy30v1j4xl4_7kw94k978ww0000gn/T//ccDjPiYU.s 			page 25


 300:Drivers/lvgl/src/widgets/../core/lv_obj_style_gen.h **** 
 301:Drivers/lvgl/src/widgets/../core/lv_obj_style_gen.h **** static inline lv_coord_t lv_obj_get_style_shadow_width(const struct _lv_obj_t * obj, uint32_t part)
 302:Drivers/lvgl/src/widgets/../core/lv_obj_style_gen.h **** {
 303:Drivers/lvgl/src/widgets/../core/lv_obj_style_gen.h ****     lv_style_value_t v = lv_obj_get_style_prop(obj, part, LV_STYLE_SHADOW_WIDTH);
 304:Drivers/lvgl/src/widgets/../core/lv_obj_style_gen.h ****     return (lv_coord_t)v.num;
 305:Drivers/lvgl/src/widgets/../core/lv_obj_style_gen.h **** }
 306:Drivers/lvgl/src/widgets/../core/lv_obj_style_gen.h **** 
 307:Drivers/lvgl/src/widgets/../core/lv_obj_style_gen.h **** static inline lv_coord_t lv_obj_get_style_shadow_ofs_x(const struct _lv_obj_t * obj, uint32_t part)
 308:Drivers/lvgl/src/widgets/../core/lv_obj_style_gen.h **** {
 309:Drivers/lvgl/src/widgets/../core/lv_obj_style_gen.h ****     lv_style_value_t v = lv_obj_get_style_prop(obj, part, LV_STYLE_SHADOW_OFS_X);
 310:Drivers/lvgl/src/widgets/../core/lv_obj_style_gen.h ****     return (lv_coord_t)v.num;
 311:Drivers/lvgl/src/widgets/../core/lv_obj_style_gen.h **** }
 312:Drivers/lvgl/src/widgets/../core/lv_obj_style_gen.h **** 
 313:Drivers/lvgl/src/widgets/../core/lv_obj_style_gen.h **** static inline lv_coord_t lv_obj_get_style_shadow_ofs_y(const struct _lv_obj_t * obj, uint32_t part)
 314:Drivers/lvgl/src/widgets/../core/lv_obj_style_gen.h **** {
 315:Drivers/lvgl/src/widgets/../core/lv_obj_style_gen.h ****     lv_style_value_t v = lv_obj_get_style_prop(obj, part, LV_STYLE_SHADOW_OFS_Y);
 316:Drivers/lvgl/src/widgets/../core/lv_obj_style_gen.h ****     return (lv_coord_t)v.num;
 317:Drivers/lvgl/src/widgets/../core/lv_obj_style_gen.h **** }
 318:Drivers/lvgl/src/widgets/../core/lv_obj_style_gen.h **** 
 319:Drivers/lvgl/src/widgets/../core/lv_obj_style_gen.h **** static inline lv_coord_t lv_obj_get_style_shadow_spread(const struct _lv_obj_t * obj, uint32_t part
 320:Drivers/lvgl/src/widgets/../core/lv_obj_style_gen.h **** {
 321:Drivers/lvgl/src/widgets/../core/lv_obj_style_gen.h ****     lv_style_value_t v = lv_obj_get_style_prop(obj, part, LV_STYLE_SHADOW_SPREAD);
 322:Drivers/lvgl/src/widgets/../core/lv_obj_style_gen.h ****     return (lv_coord_t)v.num;
 323:Drivers/lvgl/src/widgets/../core/lv_obj_style_gen.h **** }
 324:Drivers/lvgl/src/widgets/../core/lv_obj_style_gen.h **** 
 325:Drivers/lvgl/src/widgets/../core/lv_obj_style_gen.h **** static inline lv_color_t lv_obj_get_style_shadow_color(const struct _lv_obj_t * obj, uint32_t part)
 326:Drivers/lvgl/src/widgets/../core/lv_obj_style_gen.h **** {
 327:Drivers/lvgl/src/widgets/../core/lv_obj_style_gen.h ****     lv_style_value_t v = lv_obj_get_style_prop(obj, part, LV_STYLE_SHADOW_COLOR);
 328:Drivers/lvgl/src/widgets/../core/lv_obj_style_gen.h ****     return v.color;
 329:Drivers/lvgl/src/widgets/../core/lv_obj_style_gen.h **** }
 330:Drivers/lvgl/src/widgets/../core/lv_obj_style_gen.h **** 
 331:Drivers/lvgl/src/widgets/../core/lv_obj_style_gen.h **** static inline lv_color_t lv_obj_get_style_shadow_color_filtered(const struct _lv_obj_t * obj, uint3
 332:Drivers/lvgl/src/widgets/../core/lv_obj_style_gen.h **** {
 333:Drivers/lvgl/src/widgets/../core/lv_obj_style_gen.h ****     lv_style_value_t v = _lv_obj_style_apply_color_filter(obj, part, lv_obj_get_style_prop(obj, par
 334:Drivers/lvgl/src/widgets/../core/lv_obj_style_gen.h ****     return v.color;
 335:Drivers/lvgl/src/widgets/../core/lv_obj_style_gen.h **** }
 336:Drivers/lvgl/src/widgets/../core/lv_obj_style_gen.h **** 
 337:Drivers/lvgl/src/widgets/../core/lv_obj_style_gen.h **** static inline lv_opa_t lv_obj_get_style_shadow_opa(const struct _lv_obj_t * obj, uint32_t part)
 338:Drivers/lvgl/src/widgets/../core/lv_obj_style_gen.h **** {
 339:Drivers/lvgl/src/widgets/../core/lv_obj_style_gen.h ****     lv_style_value_t v = lv_obj_get_style_prop(obj, part, LV_STYLE_SHADOW_OPA);
 340:Drivers/lvgl/src/widgets/../core/lv_obj_style_gen.h ****     return (lv_opa_t)v.num;
 341:Drivers/lvgl/src/widgets/../core/lv_obj_style_gen.h **** }
 342:Drivers/lvgl/src/widgets/../core/lv_obj_style_gen.h **** 
 343:Drivers/lvgl/src/widgets/../core/lv_obj_style_gen.h **** static inline lv_opa_t lv_obj_get_style_img_opa(const struct _lv_obj_t * obj, uint32_t part)
 226              		.loc 3 343 24 view .LVU59
 227              	.LBB50:
 344:Drivers/lvgl/src/widgets/../core/lv_obj_style_gen.h **** {
 345:Drivers/lvgl/src/widgets/../core/lv_obj_style_gen.h ****     lv_style_value_t v = lv_obj_get_style_prop(obj, part, LV_STYLE_IMG_OPA);
 228              		.loc 3 345 5 view .LVU60
 229              		.loc 3 345 26 is_stmt 0 view .LVU61
 230 0058 4622     		movs	r2, #70
 231 005a 0021     		movs	r1, #0
 232 005c 2046     		mov	r0, r4
 233              	.LVL17:
 234              		.loc 3 345 26 view .LVU62
 235 005e FFF7FEFF 		bl	lv_obj_get_style_prop
 236              	.LVL18:
ARM GAS  /var/folders/0z/tsy30v1j4xl4_7kw94k978ww0000gn/T//ccDjPiYU.s 			page 26


 346:Drivers/lvgl/src/widgets/../core/lv_obj_style_gen.h ****     return (lv_opa_t)v.num;
 237              		.loc 3 346 5 is_stmt 1 view .LVU63
 238              		.loc 3 346 12 is_stmt 0 view .LVU64
 239 0062 C0B2     		uxtb	r0, r0
 240              	.LVL19:
 241              		.loc 3 346 12 view .LVU65
 242              	.LBE50:
 243              	.LBE49:
 539:Drivers/lvgl/src/widgets/lv_img.c ****             info->res = LV_COVER_RES_NOT_COVER;
 244              		.loc 1 539 11 view .LVU66
 245 0064 FF28     		cmp	r0, #255
 246 0066 02D0     		beq	.L8
 540:Drivers/lvgl/src/widgets/lv_img.c ****             return;
 247              		.loc 1 540 13 is_stmt 1 view .LVU67
 540:Drivers/lvgl/src/widgets/lv_img.c ****             return;
 248              		.loc 1 540 23 is_stmt 0 view .LVU68
 249 0068 0123     		movs	r3, #1
 250 006a 2B70     		strb	r3, [r5]
 541:Drivers/lvgl/src/widgets/lv_img.c ****         }
 251              		.loc 1 541 13 is_stmt 1 view .LVU69
 252 006c D9E7     		b	.L3
 253              	.L8:
 544:Drivers/lvgl/src/widgets/lv_img.c ****             info->res = LV_COVER_RES_NOT_COVER;
 254              		.loc 1 544 9 view .LVU70
 544:Drivers/lvgl/src/widgets/lv_img.c ****             info->res = LV_COVER_RES_NOT_COVER;
 255              		.loc 1 544 15 is_stmt 0 view .LVU71
 256 006e 238E     		ldrh	r3, [r4, #48]
 544:Drivers/lvgl/src/widgets/lv_img.c ****             info->res = LV_COVER_RES_NOT_COVER;
 257              		.loc 1 544 11 view .LVU72
 258 0070 13B1     		cbz	r3, .L9
 545:Drivers/lvgl/src/widgets/lv_img.c ****             return;
 259              		.loc 1 545 13 is_stmt 1 view .LVU73
 545:Drivers/lvgl/src/widgets/lv_img.c ****             return;
 260              		.loc 1 545 23 is_stmt 0 view .LVU74
 261 0072 0123     		movs	r3, #1
 262 0074 2B70     		strb	r3, [r5]
 546:Drivers/lvgl/src/widgets/lv_img.c ****         }
 263              		.loc 1 546 13 is_stmt 1 view .LVU75
 264 0076 D4E7     		b	.L3
 265              	.L9:
 549:Drivers/lvgl/src/widgets/lv_img.c ****         if(img->zoom == LV_IMG_ZOOM_NONE) {
 266              		.loc 1 549 9 view .LVU76
 549:Drivers/lvgl/src/widgets/lv_img.c ****         if(img->zoom == LV_IMG_ZOOM_NONE) {
 267              		.loc 1 549 39 is_stmt 0 view .LVU77
 268 0078 3046     		mov	r0, r6
 269 007a FFF7FEFF 		bl	lv_event_get_param
 270              	.LVL20:
 271 007e 0646     		mov	r6, r0
 272              	.LVL21:
 550:Drivers/lvgl/src/widgets/lv_img.c ****             if(_lv_area_is_in(clip_area, &obj->coords, 0) == false) {
 273              		.loc 1 550 9 is_stmt 1 view .LVU78
 550:Drivers/lvgl/src/widgets/lv_img.c ****             if(_lv_area_is_in(clip_area, &obj->coords, 0) == false) {
 274              		.loc 1 550 15 is_stmt 0 view .LVU79
 275 0080 E38E     		ldrh	r3, [r4, #54]
 550:Drivers/lvgl/src/widgets/lv_img.c ****             if(_lv_area_is_in(clip_area, &obj->coords, 0) == false) {
 276              		.loc 1 550 11 view .LVU80
 277 0082 B3F5807F 		cmp	r3, #256
ARM GAS  /var/folders/0z/tsy30v1j4xl4_7kw94k978ww0000gn/T//ccDjPiYU.s 			page 27


 278 0086 31D0     		beq	.L33
 279              	.LBB51:
 557:Drivers/lvgl/src/widgets/lv_img.c ****             _lv_img_buf_get_transformed_area(&a, lv_obj_get_width(obj), lv_obj_get_height(obj), 0, 
 280              		.loc 1 557 13 is_stmt 1 view .LVU81
 558:Drivers/lvgl/src/widgets/lv_img.c ****             a.x1 += obj->coords.x1;
 281              		.loc 1 558 13 view .LVU82
 282 0088 2046     		mov	r0, r4
 283              	.LVL22:
 558:Drivers/lvgl/src/widgets/lv_img.c ****             a.x1 += obj->coords.x1;
 284              		.loc 1 558 13 is_stmt 0 view .LVU83
 285 008a FFF7FEFF 		bl	lv_obj_get_width
 286              	.LVL23:
 287 008e 0746     		mov	r7, r0
 288 0090 2046     		mov	r0, r4
 289 0092 FFF7FEFF 		bl	lv_obj_get_height
 290              	.LVL24:
 291 0096 0246     		mov	r2, r0
 558:Drivers/lvgl/src/widgets/lv_img.c ****             a.x1 += obj->coords.x1;
 292              		.loc 1 558 111 view .LVU84
 293 0098 04F13203 		add	r3, r4, #50
 558:Drivers/lvgl/src/widgets/lv_img.c ****             a.x1 += obj->coords.x1;
 294              		.loc 1 558 13 view .LVU85
 295 009c 0193     		str	r3, [sp, #4]
 296 009e E38E     		ldrh	r3, [r4, #54]
 297 00a0 0093     		str	r3, [sp]
 298 00a2 0023     		movs	r3, #0
 299 00a4 3946     		mov	r1, r7
 300 00a6 14A8     		add	r0, sp, #80
 301 00a8 FFF7FEFF 		bl	_lv_img_buf_get_transformed_area
 302              	.LVL25:
 559:Drivers/lvgl/src/widgets/lv_img.c ****             a.y1 += obj->coords.y1;
 303              		.loc 1 559 13 is_stmt 1 view .LVU86
 559:Drivers/lvgl/src/widgets/lv_img.c ****             a.y1 += obj->coords.y1;
 304              		.loc 1 559 32 is_stmt 0 view .LVU87
 305 00ac A28A     		ldrh	r2, [r4, #20]
 559:Drivers/lvgl/src/widgets/lv_img.c ****             a.y1 += obj->coords.y1;
 306              		.loc 1 559 18 view .LVU88
 307 00ae BDF85030 		ldrh	r3, [sp, #80]
 308 00b2 1344     		add	r3, r3, r2
 309 00b4 ADF85030 		strh	r3, [sp, #80]	@ movhi
 560:Drivers/lvgl/src/widgets/lv_img.c ****             a.x2 += obj->coords.x1;
 310              		.loc 1 560 13 is_stmt 1 view .LVU89
 560:Drivers/lvgl/src/widgets/lv_img.c ****             a.x2 += obj->coords.x1;
 311              		.loc 1 560 32 is_stmt 0 view .LVU90
 312 00b8 E38A     		ldrh	r3, [r4, #22]
 560:Drivers/lvgl/src/widgets/lv_img.c ****             a.x2 += obj->coords.x1;
 313              		.loc 1 560 18 view .LVU91
 314 00ba BDF85210 		ldrh	r1, [sp, #82]
 315 00be 1944     		add	r1, r1, r3
 316 00c0 ADF85210 		strh	r1, [sp, #82]	@ movhi
 561:Drivers/lvgl/src/widgets/lv_img.c ****             a.y2 += obj->coords.y1;
 317              		.loc 1 561 13 is_stmt 1 view .LVU92
 561:Drivers/lvgl/src/widgets/lv_img.c ****             a.y2 += obj->coords.y1;
 318              		.loc 1 561 18 is_stmt 0 view .LVU93
 319 00c4 BDF85410 		ldrh	r1, [sp, #84]
 320 00c8 0A44     		add	r2, r2, r1
 321 00ca ADF85420 		strh	r2, [sp, #84]	@ movhi
ARM GAS  /var/folders/0z/tsy30v1j4xl4_7kw94k978ww0000gn/T//ccDjPiYU.s 			page 28


 562:Drivers/lvgl/src/widgets/lv_img.c **** 
 322              		.loc 1 562 13 is_stmt 1 view .LVU94
 562:Drivers/lvgl/src/widgets/lv_img.c **** 
 323              		.loc 1 562 18 is_stmt 0 view .LVU95
 324 00ce BDF85620 		ldrh	r2, [sp, #86]
 325 00d2 1344     		add	r3, r3, r2
 326 00d4 ADF85630 		strh	r3, [sp, #86]	@ movhi
 564:Drivers/lvgl/src/widgets/lv_img.c ****                 info->res = LV_COVER_RES_NOT_COVER;
 327              		.loc 1 564 13 is_stmt 1 view .LVU96
 564:Drivers/lvgl/src/widgets/lv_img.c ****                 info->res = LV_COVER_RES_NOT_COVER;
 328              		.loc 1 564 16 is_stmt 0 view .LVU97
 329 00d8 0022     		movs	r2, #0
 330 00da 14A9     		add	r1, sp, #80
 331 00dc 3046     		mov	r0, r6
 332 00de FFF7FEFF 		bl	_lv_area_is_in
 333              	.LVL26:
 564:Drivers/lvgl/src/widgets/lv_img.c ****                 info->res = LV_COVER_RES_NOT_COVER;
 334              		.loc 1 564 15 view .LVU98
 335 00e2 0028     		cmp	r0, #0
 336 00e4 9DD1     		bne	.L3
 565:Drivers/lvgl/src/widgets/lv_img.c ****                 return;
 337              		.loc 1 565 17 is_stmt 1 view .LVU99
 565:Drivers/lvgl/src/widgets/lv_img.c ****                 return;
 338              		.loc 1 565 27 is_stmt 0 view .LVU100
 339 00e6 0123     		movs	r3, #1
 340 00e8 2B70     		strb	r3, [r5]
 566:Drivers/lvgl/src/widgets/lv_img.c ****             }
 341              		.loc 1 566 17 is_stmt 1 view .LVU101
 342 00ea 9AE7     		b	.L3
 343              	.LVL27:
 344              	.L33:
 566:Drivers/lvgl/src/widgets/lv_img.c ****             }
 345              		.loc 1 566 17 is_stmt 0 view .LVU102
 346              	.LBE51:
 551:Drivers/lvgl/src/widgets/lv_img.c ****                 info->res = LV_COVER_RES_NOT_COVER;
 347              		.loc 1 551 13 is_stmt 1 view .LVU103
 551:Drivers/lvgl/src/widgets/lv_img.c ****                 info->res = LV_COVER_RES_NOT_COVER;
 348              		.loc 1 551 16 is_stmt 0 view .LVU104
 349 00ec 0022     		movs	r2, #0
 350 00ee 04F11401 		add	r1, r4, #20
 351 00f2 FFF7FEFF 		bl	_lv_area_is_in
 352              	.LVL28:
 551:Drivers/lvgl/src/widgets/lv_img.c ****                 info->res = LV_COVER_RES_NOT_COVER;
 353              		.loc 1 551 15 view .LVU105
 354 00f6 0028     		cmp	r0, #0
 355 00f8 93D1     		bne	.L3
 552:Drivers/lvgl/src/widgets/lv_img.c ****                 return;
 356              		.loc 1 552 17 is_stmt 1 view .LVU106
 552:Drivers/lvgl/src/widgets/lv_img.c ****                 return;
 357              		.loc 1 552 27 is_stmt 0 view .LVU107
 358 00fa 0123     		movs	r3, #1
 359 00fc 2B70     		strb	r3, [r5]
 553:Drivers/lvgl/src/widgets/lv_img.c ****             }
 360              		.loc 1 553 17 is_stmt 1 view .LVU108
 361 00fe 90E7     		b	.L3
 362              	.LVL29:
 363              	.L12:
ARM GAS  /var/folders/0z/tsy30v1j4xl4_7kw94k978ww0000gn/T//ccDjPiYU.s 			page 29


 553:Drivers/lvgl/src/widgets/lv_img.c ****             }
 364              		.loc 1 553 17 is_stmt 0 view .LVU109
 365              	.LBE48:
 366              	.LBB52:
 572:Drivers/lvgl/src/widgets/lv_img.c ****         lv_coord_t obj_h = lv_obj_get_height(obj);
 367              		.loc 1 572 9 is_stmt 1 view .LVU110
 572:Drivers/lvgl/src/widgets/lv_img.c ****         lv_coord_t obj_h = lv_obj_get_height(obj);
 368              		.loc 1 572 28 is_stmt 0 view .LVU111
 369 0100 2046     		mov	r0, r4
 370              	.LVL30:
 572:Drivers/lvgl/src/widgets/lv_img.c ****         lv_coord_t obj_h = lv_obj_get_height(obj);
 371              		.loc 1 572 28 view .LVU112
 372 0102 FFF7FEFF 		bl	lv_obj_get_width
 373              	.LVL31:
 374 0106 8046     		mov	r8, r0
 375              	.LVL32:
 573:Drivers/lvgl/src/widgets/lv_img.c **** 
 376              		.loc 1 573 9 is_stmt 1 view .LVU113
 573:Drivers/lvgl/src/widgets/lv_img.c **** 
 377              		.loc 1 573 28 is_stmt 0 view .LVU114
 378 0108 2046     		mov	r0, r4
 379 010a FFF7FEFF 		bl	lv_obj_get_height
 380              	.LVL33:
 381 010e 8146     		mov	r9, r0
 382              	.LVL34:
 575:Drivers/lvgl/src/widgets/lv_img.c ****         lv_coord_t pleft = lv_obj_get_style_pad_left(obj, LV_PART_MAIN) + border_width;
 383              		.loc 1 575 9 is_stmt 1 view .LVU115
 384              	.LBB53:
 385              	.LBI53:
 253:Drivers/lvgl/src/widgets/../core/lv_obj_style_gen.h **** {
 386              		.loc 3 253 26 view .LVU116
 387              	.LBB54:
 255:Drivers/lvgl/src/widgets/../core/lv_obj_style_gen.h ****     return (lv_coord_t)v.num;
 388              		.loc 3 255 5 view .LVU117
 255:Drivers/lvgl/src/widgets/../core/lv_obj_style_gen.h ****     return (lv_coord_t)v.num;
 389              		.loc 3 255 26 is_stmt 0 view .LVU118
 390 0110 3222     		movs	r2, #50
 391 0112 0021     		movs	r1, #0
 392 0114 2046     		mov	r0, r4
 393 0116 FFF7FEFF 		bl	lv_obj_get_style_prop
 394              	.LVL35:
 395 011a 0746     		mov	r7, r0
 396              	.LVL36:
 256:Drivers/lvgl/src/widgets/../core/lv_obj_style_gen.h **** }
 397              		.loc 3 256 5 is_stmt 1 view .LVU119
 256:Drivers/lvgl/src/widgets/../core/lv_obj_style_gen.h **** }
 398              		.loc 3 256 5 is_stmt 0 view .LVU120
 399              	.LBE54:
 400              	.LBE53:
 576:Drivers/lvgl/src/widgets/lv_img.c ****         lv_coord_t pright = lv_obj_get_style_pad_right(obj, LV_PART_MAIN) + border_width;
 401              		.loc 1 576 9 is_stmt 1 view .LVU121
 402              	.LBB55:
 403              	.LBI55:
 115:Drivers/lvgl/src/widgets/../core/lv_obj_style_gen.h **** {
 404              		.loc 3 115 26 view .LVU122
 405              	.LBB56:
 117:Drivers/lvgl/src/widgets/../core/lv_obj_style_gen.h ****     return (lv_coord_t)v.num;
ARM GAS  /var/folders/0z/tsy30v1j4xl4_7kw94k978ww0000gn/T//ccDjPiYU.s 			page 30


 406              		.loc 3 117 5 view .LVU123
 117:Drivers/lvgl/src/widgets/../core/lv_obj_style_gen.h ****     return (lv_coord_t)v.num;
 407              		.loc 3 117 26 is_stmt 0 view .LVU124
 408 011c 1222     		movs	r2, #18
 409 011e 0021     		movs	r1, #0
 410 0120 2046     		mov	r0, r4
 411 0122 FFF7FEFF 		bl	lv_obj_get_style_prop
 412              	.LVL37:
 118:Drivers/lvgl/src/widgets/../core/lv_obj_style_gen.h **** }
 413              		.loc 3 118 5 is_stmt 1 view .LVU125
 118:Drivers/lvgl/src/widgets/../core/lv_obj_style_gen.h **** }
 414              		.loc 3 118 5 is_stmt 0 view .LVU126
 415              	.LBE56:
 416              	.LBE55:
 576:Drivers/lvgl/src/widgets/lv_img.c ****         lv_coord_t pright = lv_obj_get_style_pad_right(obj, LV_PART_MAIN) + border_width;
 417              		.loc 1 576 73 view .LVU127
 418 0126 BFB2     		uxth	r7, r7
 576:Drivers/lvgl/src/widgets/lv_img.c ****         lv_coord_t pright = lv_obj_get_style_pad_right(obj, LV_PART_MAIN) + border_width;
 419              		.loc 1 576 73 view .LVU128
 420 0128 17FA80F0 		uxtah	r0, r7, r0
 421 012c 83B2     		uxth	r3, r0
 422 012e 0293     		str	r3, [sp, #8]
 423              	.LVL38:
 577:Drivers/lvgl/src/widgets/lv_img.c ****         lv_coord_t ptop = lv_obj_get_style_pad_top(obj, LV_PART_MAIN) + border_width;
 424              		.loc 1 577 9 is_stmt 1 view .LVU129
 425              	.LBB57:
 426              	.LBI57:
 121:Drivers/lvgl/src/widgets/../core/lv_obj_style_gen.h **** {
 427              		.loc 3 121 26 view .LVU130
 428              	.LBB58:
 123:Drivers/lvgl/src/widgets/../core/lv_obj_style_gen.h ****     return (lv_coord_t)v.num;
 429              		.loc 3 123 5 view .LVU131
 123:Drivers/lvgl/src/widgets/../core/lv_obj_style_gen.h ****     return (lv_coord_t)v.num;
 430              		.loc 3 123 26 is_stmt 0 view .LVU132
 431 0130 1322     		movs	r2, #19
 432 0132 0021     		movs	r1, #0
 433 0134 2046     		mov	r0, r4
 434 0136 FFF7FEFF 		bl	lv_obj_get_style_prop
 435              	.LVL39:
 124:Drivers/lvgl/src/widgets/../core/lv_obj_style_gen.h **** }
 436              		.loc 3 124 5 is_stmt 1 view .LVU133
 124:Drivers/lvgl/src/widgets/../core/lv_obj_style_gen.h **** }
 437              		.loc 3 124 5 is_stmt 0 view .LVU134
 438              	.LBE58:
 439              	.LBE57:
 577:Drivers/lvgl/src/widgets/lv_img.c ****         lv_coord_t ptop = lv_obj_get_style_pad_top(obj, LV_PART_MAIN) + border_width;
 440              		.loc 1 577 75 view .LVU135
 441 013a 17FA80F0 		uxtah	r0, r7, r0
 442 013e 81B2     		uxth	r1, r0
 443 0140 0391     		str	r1, [sp, #12]
 444              	.LVL40:
 578:Drivers/lvgl/src/widgets/lv_img.c ****         lv_coord_t pbottom = lv_obj_get_style_pad_bottom(obj, LV_PART_MAIN) + border_width;
 445              		.loc 1 578 9 is_stmt 1 view .LVU136
 446              	.LBB59:
 447              	.LBI59:
 103:Drivers/lvgl/src/widgets/../core/lv_obj_style_gen.h **** {
 448              		.loc 3 103 26 view .LVU137
ARM GAS  /var/folders/0z/tsy30v1j4xl4_7kw94k978ww0000gn/T//ccDjPiYU.s 			page 31


 449              	.LBB60:
 105:Drivers/lvgl/src/widgets/../core/lv_obj_style_gen.h ****     return (lv_coord_t)v.num;
 450              		.loc 3 105 5 view .LVU138
 105:Drivers/lvgl/src/widgets/../core/lv_obj_style_gen.h ****     return (lv_coord_t)v.num;
 451              		.loc 3 105 26 is_stmt 0 view .LVU139
 452 0142 1022     		movs	r2, #16
 453 0144 0021     		movs	r1, #0
 454 0146 2046     		mov	r0, r4
 455 0148 FFF7FEFF 		bl	lv_obj_get_style_prop
 456              	.LVL41:
 106:Drivers/lvgl/src/widgets/../core/lv_obj_style_gen.h **** }
 457              		.loc 3 106 5 is_stmt 1 view .LVU140
 106:Drivers/lvgl/src/widgets/../core/lv_obj_style_gen.h **** }
 458              		.loc 3 106 5 is_stmt 0 view .LVU141
 459              	.LBE60:
 460              	.LBE59:
 578:Drivers/lvgl/src/widgets/lv_img.c ****         lv_coord_t pbottom = lv_obj_get_style_pad_bottom(obj, LV_PART_MAIN) + border_width;
 461              		.loc 1 578 71 view .LVU142
 462 014c 17FA80F0 		uxtah	r0, r7, r0
 463 0150 1FFA80FB 		uxth	fp, r0
 464              	.LVL42:
 579:Drivers/lvgl/src/widgets/lv_img.c **** 
 465              		.loc 1 579 9 is_stmt 1 view .LVU143
 466              	.LBB61:
 467              	.LBI61:
 109:Drivers/lvgl/src/widgets/../core/lv_obj_style_gen.h **** {
 468              		.loc 3 109 26 view .LVU144
 469              	.LBB62:
 111:Drivers/lvgl/src/widgets/../core/lv_obj_style_gen.h ****     return (lv_coord_t)v.num;
 470              		.loc 3 111 5 view .LVU145
 111:Drivers/lvgl/src/widgets/../core/lv_obj_style_gen.h ****     return (lv_coord_t)v.num;
 471              		.loc 3 111 26 is_stmt 0 view .LVU146
 472 0154 1122     		movs	r2, #17
 473 0156 0021     		movs	r1, #0
 474 0158 2046     		mov	r0, r4
 475 015a FFF7FEFF 		bl	lv_obj_get_style_prop
 476              	.LVL43:
 112:Drivers/lvgl/src/widgets/../core/lv_obj_style_gen.h **** }
 477              		.loc 3 112 5 is_stmt 1 view .LVU147
 112:Drivers/lvgl/src/widgets/../core/lv_obj_style_gen.h **** }
 478              		.loc 3 112 5 is_stmt 0 view .LVU148
 479              	.LBE62:
 480              	.LBE61:
 579:Drivers/lvgl/src/widgets/lv_img.c **** 
 481              		.loc 1 579 77 view .LVU149
 482 015e 17FA80F0 		uxtah	r0, r7, r0
 483 0162 81B2     		uxth	r1, r0
 484 0164 0491     		str	r1, [sp, #16]
 485              	.LVL44:
 581:Drivers/lvgl/src/widgets/lv_img.c ****         bg_pivot.x = img->pivot.x + pleft;
 486              		.loc 1 581 9 is_stmt 1 view .LVU150
 582:Drivers/lvgl/src/widgets/lv_img.c ****         bg_pivot.y = img->pivot.y + ptop;
 487              		.loc 1 582 9 view .LVU151
 582:Drivers/lvgl/src/widgets/lv_img.c ****         bg_pivot.y = img->pivot.y + ptop;
 488              		.loc 1 582 32 is_stmt 0 view .LVU152
 489 0166 638E     		ldrh	r3, [r4, #50]
 582:Drivers/lvgl/src/widgets/lv_img.c ****         bg_pivot.y = img->pivot.y + ptop;
ARM GAS  /var/folders/0z/tsy30v1j4xl4_7kw94k978ww0000gn/T//ccDjPiYU.s 			page 32


 490              		.loc 1 582 35 view .LVU153
 491 0168 029A     		ldr	r2, [sp, #8]
 492 016a 1344     		add	r3, r3, r2
 582:Drivers/lvgl/src/widgets/lv_img.c ****         bg_pivot.y = img->pivot.y + ptop;
 493              		.loc 1 582 20 view .LVU154
 494 016c ADF82030 		strh	r3, [sp, #32]	@ movhi
 583:Drivers/lvgl/src/widgets/lv_img.c ****         lv_area_t bg_coords;
 495              		.loc 1 583 9 is_stmt 1 view .LVU155
 583:Drivers/lvgl/src/widgets/lv_img.c ****         lv_area_t bg_coords;
 496              		.loc 1 583 32 is_stmt 0 view .LVU156
 497 0170 A38E     		ldrh	r3, [r4, #52]
 583:Drivers/lvgl/src/widgets/lv_img.c ****         lv_area_t bg_coords;
 498              		.loc 1 583 35 view .LVU157
 499 0172 5B44     		add	r3, r3, fp
 583:Drivers/lvgl/src/widgets/lv_img.c ****         lv_area_t bg_coords;
 500              		.loc 1 583 20 view .LVU158
 501 0174 ADF82230 		strh	r3, [sp, #34]	@ movhi
 584:Drivers/lvgl/src/widgets/lv_img.c **** 
 502              		.loc 1 584 9 is_stmt 1 view .LVU159
 586:Drivers/lvgl/src/widgets/lv_img.c ****             /*Object size equals to transformed image size*/
 503              		.loc 1 586 9 view .LVU160
 586:Drivers/lvgl/src/widgets/lv_img.c ****             /*Object size equals to transformed image size*/
 504              		.loc 1 586 31 is_stmt 0 view .LVU161
 505 0178 94F83930 		ldrb	r3, [r4, #57]	@ zero_extendqisi2
 506 017c 03F00303 		and	r3, r3, #3
 586:Drivers/lvgl/src/widgets/lv_img.c ****             /*Object size equals to transformed image size*/
 507              		.loc 1 586 11 view .LVU162
 508 0180 012B     		cmp	r3, #1
 509 0182 00F0CB80 		beq	.L34
 591:Drivers/lvgl/src/widgets/lv_img.c ****                                              img->angle, img->zoom, &bg_pivot);
 510              		.loc 1 591 13 is_stmt 1 view .LVU163
 511 0186 B4F93030 		ldrsh	r3, [r4, #48]
 512 018a 08AA     		add	r2, sp, #32
 513 018c 0192     		str	r2, [sp, #4]
 514 018e E28E     		ldrh	r2, [r4, #54]
 515 0190 0092     		str	r2, [sp]
 516 0192 4A46     		mov	r2, r9
 517 0194 4146     		mov	r1, r8
 518 0196 0AA8     		add	r0, sp, #40
 519 0198 FFF7FEFF 		bl	_lv_img_buf_get_transformed_area
 520              	.LVL45:
 595:Drivers/lvgl/src/widgets/lv_img.c ****             bg_coords.y1 += obj->coords.y1;
 521              		.loc 1 595 13 view .LVU164
 595:Drivers/lvgl/src/widgets/lv_img.c ****             bg_coords.y1 += obj->coords.y1;
 522              		.loc 1 595 40 is_stmt 0 view .LVU165
 523 019c A28A     		ldrh	r2, [r4, #20]
 595:Drivers/lvgl/src/widgets/lv_img.c ****             bg_coords.y1 += obj->coords.y1;
 524              		.loc 1 595 26 view .LVU166
 525 019e BDF82830 		ldrh	r3, [sp, #40]
 526 01a2 1344     		add	r3, r3, r2
 527 01a4 ADF82830 		strh	r3, [sp, #40]	@ movhi
 596:Drivers/lvgl/src/widgets/lv_img.c ****             bg_coords.x2 += obj->coords.x1;
 528              		.loc 1 596 13 is_stmt 1 view .LVU167
 596:Drivers/lvgl/src/widgets/lv_img.c ****             bg_coords.x2 += obj->coords.x1;
 529              		.loc 1 596 40 is_stmt 0 view .LVU168
 530 01a8 E38A     		ldrh	r3, [r4, #22]
 596:Drivers/lvgl/src/widgets/lv_img.c ****             bg_coords.x2 += obj->coords.x1;
ARM GAS  /var/folders/0z/tsy30v1j4xl4_7kw94k978ww0000gn/T//ccDjPiYU.s 			page 33


 531              		.loc 1 596 26 view .LVU169
 532 01aa BDF82A10 		ldrh	r1, [sp, #42]
 533 01ae 1944     		add	r1, r1, r3
 534 01b0 ADF82A10 		strh	r1, [sp, #42]	@ movhi
 597:Drivers/lvgl/src/widgets/lv_img.c ****             bg_coords.y2 += obj->coords.y1;
 535              		.loc 1 597 13 is_stmt 1 view .LVU170
 597:Drivers/lvgl/src/widgets/lv_img.c ****             bg_coords.y2 += obj->coords.y1;
 536              		.loc 1 597 26 is_stmt 0 view .LVU171
 537 01b4 BDF82C10 		ldrh	r1, [sp, #44]
 538 01b8 0A44     		add	r2, r2, r1
 539 01ba ADF82C20 		strh	r2, [sp, #44]	@ movhi
 598:Drivers/lvgl/src/widgets/lv_img.c ****         }
 540              		.loc 1 598 13 is_stmt 1 view .LVU172
 598:Drivers/lvgl/src/widgets/lv_img.c ****         }
 541              		.loc 1 598 26 is_stmt 0 view .LVU173
 542 01be BDF82E20 		ldrh	r2, [sp, #46]
 543 01c2 1344     		add	r3, r3, r2
 544 01c4 ADF82E30 		strh	r3, [sp, #46]	@ movhi
 545              	.L14:
 601:Drivers/lvgl/src/widgets/lv_img.c ****         lv_area_copy(&ori_coords, &obj->coords);
 546              		.loc 1 601 9 is_stmt 1 view .LVU174
 602:Drivers/lvgl/src/widgets/lv_img.c ****         lv_area_copy(&obj->coords, &bg_coords);
 547              		.loc 1 602 9 view .LVU175
 548              	.LVL46:
 549              	.LBB63:
 550              	.LBI63:
 110:Drivers/lvgl/src/widgets/../core/../misc/../font/../misc/lv_area.h **** {
 551              		.loc 2 110 20 view .LVU176
 552              	.LBB64:
 112:Drivers/lvgl/src/widgets/../core/../misc/../font/../misc/lv_area.h ****     dest->y1 = src->y1;
 553              		.loc 2 112 5 view .LVU177
 112:Drivers/lvgl/src/widgets/../core/../misc/../font/../misc/lv_area.h ****     dest->y1 = src->y1;
 554              		.loc 2 112 19 is_stmt 0 view .LVU178
 555 01c8 B4F914A0 		ldrsh	r10, [r4, #20]
 112:Drivers/lvgl/src/widgets/../core/../misc/../font/../misc/lv_area.h ****     dest->y1 = src->y1;
 556              		.loc 2 112 14 view .LVU179
 557 01cc ADF830A0 		strh	r10, [sp, #48]	@ movhi
 113:Drivers/lvgl/src/widgets/../core/../misc/../font/../misc/lv_area.h ****     dest->x2 = src->x2;
 558              		.loc 2 113 5 is_stmt 1 view .LVU180
 113:Drivers/lvgl/src/widgets/../core/../misc/../font/../misc/lv_area.h ****     dest->x2 = src->x2;
 559              		.loc 2 113 19 is_stmt 0 view .LVU181
 560 01d0 B4F91690 		ldrsh	r9, [r4, #22]
 561              	.LVL47:
 113:Drivers/lvgl/src/widgets/../core/../misc/../font/../misc/lv_area.h ****     dest->x2 = src->x2;
 562              		.loc 2 113 14 view .LVU182
 563 01d4 ADF83290 		strh	r9, [sp, #50]	@ movhi
 114:Drivers/lvgl/src/widgets/../core/../misc/../font/../misc/lv_area.h ****     dest->y2 = src->y2;
 564              		.loc 2 114 5 is_stmt 1 view .LVU183
 114:Drivers/lvgl/src/widgets/../core/../misc/../font/../misc/lv_area.h ****     dest->y2 = src->y2;
 565              		.loc 2 114 19 is_stmt 0 view .LVU184
 566 01d8 B4F91880 		ldrsh	r8, [r4, #24]
 567              	.LVL48:
 114:Drivers/lvgl/src/widgets/../core/../misc/../font/../misc/lv_area.h ****     dest->y2 = src->y2;
 568              		.loc 2 114 14 view .LVU185
 569 01dc ADF83480 		strh	r8, [sp, #52]	@ movhi
 115:Drivers/lvgl/src/widgets/../core/../misc/../font/../misc/lv_area.h **** }
 570              		.loc 2 115 5 is_stmt 1 view .LVU186
ARM GAS  /var/folders/0z/tsy30v1j4xl4_7kw94k978ww0000gn/T//ccDjPiYU.s 			page 34


 115:Drivers/lvgl/src/widgets/../core/../misc/../font/../misc/lv_area.h **** }
 571              		.loc 2 115 19 is_stmt 0 view .LVU187
 572 01e0 B4F91A70 		ldrsh	r7, [r4, #26]
 573              	.LVL49:
 115:Drivers/lvgl/src/widgets/../core/../misc/../font/../misc/lv_area.h **** }
 574              		.loc 2 115 14 view .LVU188
 575 01e4 ADF83670 		strh	r7, [sp, #54]	@ movhi
 576              	.LVL50:
 115:Drivers/lvgl/src/widgets/../core/../misc/../font/../misc/lv_area.h **** }
 577              		.loc 2 115 14 view .LVU189
 578              	.LBE64:
 579              	.LBE63:
 603:Drivers/lvgl/src/widgets/lv_img.c **** 
 580              		.loc 1 603 9 is_stmt 1 view .LVU190
 581 01e8 04F11403 		add	r3, r4, #20
 582 01ec 0593     		str	r3, [sp, #20]
 583              	.LVL51:
 584              	.LBB65:
 585              	.LBI65:
 110:Drivers/lvgl/src/widgets/../core/../misc/../font/../misc/lv_area.h **** {
 586              		.loc 2 110 20 view .LVU191
 587              	.LBB66:
 112:Drivers/lvgl/src/widgets/../core/../misc/../font/../misc/lv_area.h ****     dest->y1 = src->y1;
 588              		.loc 2 112 5 view .LVU192
 112:Drivers/lvgl/src/widgets/../core/../misc/../font/../misc/lv_area.h ****     dest->y1 = src->y1;
 589              		.loc 2 112 19 is_stmt 0 view .LVU193
 590 01ee BDF92830 		ldrsh	r3, [sp, #40]
 591              	.LVL52:
 112:Drivers/lvgl/src/widgets/../core/../misc/../font/../misc/lv_area.h ****     dest->y1 = src->y1;
 592              		.loc 2 112 14 view .LVU194
 593 01f2 A382     		strh	r3, [r4, #20]	@ movhi
 113:Drivers/lvgl/src/widgets/../core/../misc/../font/../misc/lv_area.h ****     dest->x2 = src->x2;
 594              		.loc 2 113 5 is_stmt 1 view .LVU195
 113:Drivers/lvgl/src/widgets/../core/../misc/../font/../misc/lv_area.h ****     dest->x2 = src->x2;
 595              		.loc 2 113 19 is_stmt 0 view .LVU196
 596 01f4 BDF92A30 		ldrsh	r3, [sp, #42]
 113:Drivers/lvgl/src/widgets/../core/../misc/../font/../misc/lv_area.h ****     dest->x2 = src->x2;
 597              		.loc 2 113 14 view .LVU197
 598 01f8 E382     		strh	r3, [r4, #22]	@ movhi
 114:Drivers/lvgl/src/widgets/../core/../misc/../font/../misc/lv_area.h ****     dest->y2 = src->y2;
 599              		.loc 2 114 5 is_stmt 1 view .LVU198
 114:Drivers/lvgl/src/widgets/../core/../misc/../font/../misc/lv_area.h ****     dest->y2 = src->y2;
 600              		.loc 2 114 19 is_stmt 0 view .LVU199
 601 01fa BDF92C30 		ldrsh	r3, [sp, #44]
 114:Drivers/lvgl/src/widgets/../core/../misc/../font/../misc/lv_area.h ****     dest->y2 = src->y2;
 602              		.loc 2 114 14 view .LVU200
 603 01fe 2383     		strh	r3, [r4, #24]	@ movhi
 115:Drivers/lvgl/src/widgets/../core/../misc/../font/../misc/lv_area.h **** }
 604              		.loc 2 115 5 is_stmt 1 view .LVU201
 115:Drivers/lvgl/src/widgets/../core/../misc/../font/../misc/lv_area.h **** }
 605              		.loc 2 115 19 is_stmt 0 view .LVU202
 606 0200 BDF92E30 		ldrsh	r3, [sp, #46]
 115:Drivers/lvgl/src/widgets/../core/../misc/../font/../misc/lv_area.h **** }
 607              		.loc 2 115 14 view .LVU203
 608 0204 6383     		strh	r3, [r4, #26]	@ movhi
 609              	.LVL53:
 115:Drivers/lvgl/src/widgets/../core/../misc/../font/../misc/lv_area.h **** }
ARM GAS  /var/folders/0z/tsy30v1j4xl4_7kw94k978ww0000gn/T//ccDjPiYU.s 			page 35


 610              		.loc 2 115 14 view .LVU204
 611              	.LBE66:
 612              	.LBE65:
 605:Drivers/lvgl/src/widgets/lv_img.c ****         if(res != LV_RES_OK) return;
 613              		.loc 1 605 9 is_stmt 1 view .LVU205
 605:Drivers/lvgl/src/widgets/lv_img.c ****         if(res != LV_RES_OK) return;
 614              		.loc 1 605 24 is_stmt 0 view .LVU206
 615 0206 3146     		mov	r1, r6
 616 0208 B548     		ldr	r0, .L39
 617 020a FFF7FEFF 		bl	lv_obj_event_base
 618              	.LVL54:
 606:Drivers/lvgl/src/widgets/lv_img.c **** 
 619              		.loc 1 606 9 is_stmt 1 view .LVU207
 606:Drivers/lvgl/src/widgets/lv_img.c **** 
 620              		.loc 1 606 11 is_stmt 0 view .LVU208
 621 020e 0128     		cmp	r0, #1
 622 0210 7FF407AF 		bne	.L3
 608:Drivers/lvgl/src/widgets/lv_img.c **** 
 623              		.loc 1 608 9 is_stmt 1 view .LVU209
 624              	.LVL55:
 625              	.LBB67:
 626              	.LBI67:
 110:Drivers/lvgl/src/widgets/../core/../misc/../font/../misc/lv_area.h **** {
 627              		.loc 2 110 20 view .LVU210
 628              	.LBB68:
 112:Drivers/lvgl/src/widgets/../core/../misc/../font/../misc/lv_area.h ****     dest->y1 = src->y1;
 629              		.loc 2 112 5 view .LVU211
 112:Drivers/lvgl/src/widgets/../core/../misc/../font/../misc/lv_area.h ****     dest->y1 = src->y1;
 630              		.loc 2 112 14 is_stmt 0 view .LVU212
 631 0214 A4F814A0 		strh	r10, [r4, #20]	@ movhi
 113:Drivers/lvgl/src/widgets/../core/../misc/../font/../misc/lv_area.h ****     dest->x2 = src->x2;
 632              		.loc 2 113 5 is_stmt 1 view .LVU213
 113:Drivers/lvgl/src/widgets/../core/../misc/../font/../misc/lv_area.h ****     dest->x2 = src->x2;
 633              		.loc 2 113 14 is_stmt 0 view .LVU214
 634 0218 A4F81690 		strh	r9, [r4, #22]	@ movhi
 114:Drivers/lvgl/src/widgets/../core/../misc/../font/../misc/lv_area.h ****     dest->y2 = src->y2;
 635              		.loc 2 114 5 is_stmt 1 view .LVU215
 114:Drivers/lvgl/src/widgets/../core/../misc/../font/../misc/lv_area.h ****     dest->y2 = src->y2;
 636              		.loc 2 114 14 is_stmt 0 view .LVU216
 637 021c A4F81880 		strh	r8, [r4, #24]	@ movhi
 115:Drivers/lvgl/src/widgets/../core/../misc/../font/../misc/lv_area.h **** }
 638              		.loc 2 115 5 is_stmt 1 view .LVU217
 115:Drivers/lvgl/src/widgets/../core/../misc/../font/../misc/lv_area.h **** }
 639              		.loc 2 115 14 is_stmt 0 view .LVU218
 640 0220 6783     		strh	r7, [r4, #26]	@ movhi
 641              	.LVL56:
 115:Drivers/lvgl/src/widgets/../core/../misc/../font/../misc/lv_area.h **** }
 642              		.loc 2 115 14 view .LVU219
 643              	.LBE68:
 644              	.LBE67:
 610:Drivers/lvgl/src/widgets/lv_img.c ****             if(img->h == 0 || img->w == 0) return;
 645              		.loc 1 610 9 is_stmt 1 view .LVU220
 610:Drivers/lvgl/src/widgets/lv_img.c ****             if(img->h == 0 || img->w == 0) return;
 646              		.loc 1 610 11 is_stmt 0 view .LVU221
 647 0222 152D     		cmp	r5, #21
 648 0224 7FF4FDAE 		bne	.L3
 649              	.LBB69:
ARM GAS  /var/folders/0z/tsy30v1j4xl4_7kw94k978ww0000gn/T//ccDjPiYU.s 			page 36


 611:Drivers/lvgl/src/widgets/lv_img.c ****             if(img->zoom == 0) return;
 650              		.loc 1 611 13 is_stmt 1 view .LVU222
 611:Drivers/lvgl/src/widgets/lv_img.c ****             if(img->zoom == 0) return;
 651              		.loc 1 611 19 is_stmt 0 view .LVU223
 652 0228 B4F92E30 		ldrsh	r3, [r4, #46]
 611:Drivers/lvgl/src/widgets/lv_img.c ****             if(img->zoom == 0) return;
 653              		.loc 1 611 15 view .LVU224
 654 022c 002B     		cmp	r3, #0
 655 022e 3FF4F8AE 		beq	.L3
 611:Drivers/lvgl/src/widgets/lv_img.c ****             if(img->zoom == 0) return;
 656              		.loc 1 611 34 discriminator 2 view .LVU225
 657 0232 B4F92C30 		ldrsh	r3, [r4, #44]
 611:Drivers/lvgl/src/widgets/lv_img.c ****             if(img->zoom == 0) return;
 658              		.loc 1 611 28 discriminator 2 view .LVU226
 659 0236 002B     		cmp	r3, #0
 660 0238 3FF4F3AE 		beq	.L3
 612:Drivers/lvgl/src/widgets/lv_img.c **** 
 661              		.loc 1 612 13 is_stmt 1 view .LVU227
 612:Drivers/lvgl/src/widgets/lv_img.c **** 
 662              		.loc 1 612 19 is_stmt 0 view .LVU228
 663 023c E38E     		ldrh	r3, [r4, #54]
 612:Drivers/lvgl/src/widgets/lv_img.c **** 
 664              		.loc 1 612 15 view .LVU229
 665 023e 002B     		cmp	r3, #0
 666 0240 3FF4EFAE 		beq	.L3
 614:Drivers/lvgl/src/widgets/lv_img.c **** 
 667              		.loc 1 614 13 is_stmt 1 view .LVU230
 614:Drivers/lvgl/src/widgets/lv_img.c **** 
 668              		.loc 1 614 40 is_stmt 0 view .LVU231
 669 0244 3046     		mov	r0, r6
 670              	.LVL57:
 614:Drivers/lvgl/src/widgets/lv_img.c **** 
 671              		.loc 1 614 40 view .LVU232
 672 0246 FFF7FEFF 		bl	lv_event_get_draw_ctx
 673              	.LVL58:
 674 024a 0546     		mov	r5, r0
 675              	.LVL59:
 616:Drivers/lvgl/src/widgets/lv_img.c ****             lv_area_copy(&img_max_area, &obj->coords);
 676              		.loc 1 616 13 is_stmt 1 view .LVU233
 617:Drivers/lvgl/src/widgets/lv_img.c **** 
 677              		.loc 1 617 13 view .LVU234
 678              	.LBB70:
 679              	.LBI70:
 110:Drivers/lvgl/src/widgets/../core/../misc/../font/../misc/lv_area.h **** {
 680              		.loc 2 110 20 view .LVU235
 681              	.LBB71:
 112:Drivers/lvgl/src/widgets/../core/../misc/../font/../misc/lv_area.h ****     dest->y1 = src->y1;
 682              		.loc 2 112 5 view .LVU236
 112:Drivers/lvgl/src/widgets/../core/../misc/../font/../misc/lv_area.h ****     dest->y1 = src->y1;
 683              		.loc 2 112 19 is_stmt 0 view .LVU237
 684 024c B4F91460 		ldrsh	r6, [r4, #20]
 685              	.LVL60:
 112:Drivers/lvgl/src/widgets/../core/../misc/../font/../misc/lv_area.h ****     dest->y1 = src->y1;
 686              		.loc 2 112 14 view .LVU238
 687 0250 ADF83860 		strh	r6, [sp, #56]	@ movhi
 113:Drivers/lvgl/src/widgets/../core/../misc/../font/../misc/lv_area.h ****     dest->x2 = src->x2;
 688              		.loc 2 113 5 is_stmt 1 view .LVU239
ARM GAS  /var/folders/0z/tsy30v1j4xl4_7kw94k978ww0000gn/T//ccDjPiYU.s 			page 37


 113:Drivers/lvgl/src/widgets/../core/../misc/../font/../misc/lv_area.h ****     dest->x2 = src->x2;
 689              		.loc 2 113 19 is_stmt 0 view .LVU240
 690 0254 B4F91670 		ldrsh	r7, [r4, #22]
 113:Drivers/lvgl/src/widgets/../core/../misc/../font/../misc/lv_area.h ****     dest->x2 = src->x2;
 691              		.loc 2 113 14 view .LVU241
 692 0258 ADF83A70 		strh	r7, [sp, #58]	@ movhi
 114:Drivers/lvgl/src/widgets/../core/../misc/../font/../misc/lv_area.h ****     dest->y2 = src->y2;
 693              		.loc 2 114 5 is_stmt 1 view .LVU242
 114:Drivers/lvgl/src/widgets/../core/../misc/../font/../misc/lv_area.h ****     dest->y2 = src->y2;
 694              		.loc 2 114 19 is_stmt 0 view .LVU243
 695 025c B4F91880 		ldrsh	r8, [r4, #24]
 114:Drivers/lvgl/src/widgets/../core/../misc/../font/../misc/lv_area.h ****     dest->y2 = src->y2;
 696              		.loc 2 114 14 view .LVU244
 697 0260 ADF83C80 		strh	r8, [sp, #60]	@ movhi
 115:Drivers/lvgl/src/widgets/../core/../misc/../font/../misc/lv_area.h **** }
 698              		.loc 2 115 5 is_stmt 1 view .LVU245
 115:Drivers/lvgl/src/widgets/../core/../misc/../font/../misc/lv_area.h **** }
 699              		.loc 2 115 19 is_stmt 0 view .LVU246
 700 0264 B4F91A90 		ldrsh	r9, [r4, #26]
 115:Drivers/lvgl/src/widgets/../core/../misc/../font/../misc/lv_area.h **** }
 701              		.loc 2 115 14 view .LVU247
 702 0268 ADF83E90 		strh	r9, [sp, #62]	@ movhi
 703              	.LVL61:
 115:Drivers/lvgl/src/widgets/../core/../misc/../font/../misc/lv_area.h **** }
 704              		.loc 2 115 14 view .LVU248
 705              	.LBE71:
 706              	.LBE70:
 619:Drivers/lvgl/src/widgets/lv_img.c **** 
 707              		.loc 1 619 13 is_stmt 1 view .LVU249
 619:Drivers/lvgl/src/widgets/lv_img.c **** 
 708              		.loc 1 619 41 is_stmt 0 view .LVU250
 709 026c 2046     		mov	r0, r4
 710              	.LVL62:
 619:Drivers/lvgl/src/widgets/lv_img.c **** 
 711              		.loc 1 619 41 view .LVU251
 712 026e FFF7FEFF 		bl	lv_img_get_transformed_size
 713              	.LVL63:
 714 0272 0990     		str	r0, [sp, #36]
 621:Drivers/lvgl/src/widgets/lv_img.c ****                 img_max_area.x1 -= ((img->w - img_size_final.x) + 1) / 2;
 715              		.loc 1 621 13 is_stmt 1 view .LVU252
 621:Drivers/lvgl/src/widgets/lv_img.c ****                 img_max_area.x1 -= ((img->w - img_size_final.x) + 1) / 2;
 716              		.loc 1 621 35 is_stmt 0 view .LVU253
 717 0274 94F83930 		ldrb	r3, [r4, #57]	@ zero_extendqisi2
 718 0278 03F00303 		and	r3, r3, #3
 621:Drivers/lvgl/src/widgets/lv_img.c ****                 img_max_area.x1 -= ((img->w - img_size_final.x) + 1) / 2;
 719              		.loc 1 621 15 view .LVU254
 720 027c 012B     		cmp	r3, #1
 721 027e 52D0     		beq	.L35
 628:Drivers/lvgl/src/widgets/lv_img.c ****                 img_max_area.y2 = img_max_area.y1 + lv_area_get_height(&bg_coords) - 1;
 722              		.loc 1 628 17 is_stmt 1 view .LVU255
 723              	.LVL64:
 724              	.LBB72:
 725              	.LBI72:
 123:Drivers/lvgl/src/widgets/../core/../misc/../font/../misc/lv_area.h **** {
 726              		.loc 2 123 26 view .LVU256
 727              	.LBB73:
 125:Drivers/lvgl/src/widgets/../core/../misc/../font/../misc/lv_area.h **** }
ARM GAS  /var/folders/0z/tsy30v1j4xl4_7kw94k978ww0000gn/T//ccDjPiYU.s 			page 38


 728              		.loc 2 125 5 view .LVU257
 125:Drivers/lvgl/src/widgets/../core/../misc/../font/../misc/lv_area.h **** }
 729              		.loc 2 125 31 is_stmt 0 view .LVU258
 730 0280 BDF82C30 		ldrh	r3, [sp, #44]
 125:Drivers/lvgl/src/widgets/../core/../misc/../font/../misc/lv_area.h **** }
 731              		.loc 2 125 44 view .LVU259
 732 0284 BDF82820 		ldrh	r2, [sp, #40]
 125:Drivers/lvgl/src/widgets/../core/../misc/../font/../misc/lv_area.h **** }
 733              		.loc 2 125 36 view .LVU260
 734 0288 9B1A     		subs	r3, r3, r2
 735 028a 9BB2     		uxth	r3, r3
 125:Drivers/lvgl/src/widgets/../core/../misc/../font/../misc/lv_area.h **** }
 736              		.loc 2 125 49 view .LVU261
 737 028c 0133     		adds	r3, r3, #1
 738 028e 9BB2     		uxth	r3, r3
 739              	.LVL65:
 125:Drivers/lvgl/src/widgets/../core/../misc/../font/../misc/lv_area.h **** }
 740              		.loc 2 125 49 view .LVU262
 741              	.LBE73:
 742              	.LBE72:
 628:Drivers/lvgl/src/widgets/lv_img.c ****                 img_max_area.y2 = img_max_area.y1 + lv_area_get_height(&bg_coords) - 1;
 743              		.loc 1 628 51 view .LVU263
 744 0290 13FA86F3 		uxtah	r3, r3, r6
 745 0294 9BB2     		uxth	r3, r3
 628:Drivers/lvgl/src/widgets/lv_img.c ****                 img_max_area.y2 = img_max_area.y1 + lv_area_get_height(&bg_coords) - 1;
 746              		.loc 1 628 83 view .LVU264
 747 0296 013B     		subs	r3, r3, #1
 628:Drivers/lvgl/src/widgets/lv_img.c ****                 img_max_area.y2 = img_max_area.y1 + lv_area_get_height(&bg_coords) - 1;
 748              		.loc 1 628 33 view .LVU265
 749 0298 ADF83C30 		strh	r3, [sp, #60]	@ movhi
 629:Drivers/lvgl/src/widgets/lv_img.c ****             }
 750              		.loc 1 629 17 is_stmt 1 view .LVU266
 751              	.LVL66:
 752              	.LBB74:
 753              	.LBI74:
 133:Drivers/lvgl/src/widgets/../core/../misc/../font/../misc/lv_area.h **** {
 754              		.loc 2 133 26 view .LVU267
 755              	.LBB75:
 756              		.loc 2 135 5 view .LVU268
 757              		.loc 2 135 31 is_stmt 0 view .LVU269
 758 029c BDF82E30 		ldrh	r3, [sp, #46]
 759              		.loc 2 135 44 view .LVU270
 760 02a0 BDF82A20 		ldrh	r2, [sp, #42]
 761              		.loc 2 135 36 view .LVU271
 762 02a4 9B1A     		subs	r3, r3, r2
 763 02a6 9BB2     		uxth	r3, r3
 764              		.loc 2 135 49 view .LVU272
 765 02a8 0133     		adds	r3, r3, #1
 766 02aa 9BB2     		uxth	r3, r3
 767              	.LVL67:
 768              		.loc 2 135 49 view .LVU273
 769              	.LBE75:
 770              	.LBE74:
 629:Drivers/lvgl/src/widgets/lv_img.c ****             }
 771              		.loc 1 629 51 view .LVU274
 772 02ac 13FA87F3 		uxtah	r3, r3, r7
 773 02b0 9BB2     		uxth	r3, r3
ARM GAS  /var/folders/0z/tsy30v1j4xl4_7kw94k978ww0000gn/T//ccDjPiYU.s 			page 39


 629:Drivers/lvgl/src/widgets/lv_img.c ****             }
 774              		.loc 1 629 84 view .LVU275
 775 02b2 013B     		subs	r3, r3, #1
 629:Drivers/lvgl/src/widgets/lv_img.c ****             }
 776              		.loc 1 629 33 view .LVU276
 777 02b4 ADF83E30 		strh	r3, [sp, #62]	@ movhi
 778              	.L19:
 632:Drivers/lvgl/src/widgets/lv_img.c ****             img_max_area.y1 += ptop;
 779              		.loc 1 632 13 is_stmt 1 view .LVU277
 632:Drivers/lvgl/src/widgets/lv_img.c ****             img_max_area.y1 += ptop;
 780              		.loc 1 632 29 is_stmt 0 view .LVU278
 781 02b8 BDF83830 		ldrh	r3, [sp, #56]
 782 02bc 029A     		ldr	r2, [sp, #8]
 783 02be 1344     		add	r3, r3, r2
 784 02c0 1FFA83F9 		uxth	r9, r3
 785 02c4 0FFA83F8 		sxth	r8, r3
 786 02c8 ADF83880 		strh	r8, [sp, #56]	@ movhi
 633:Drivers/lvgl/src/widgets/lv_img.c ****             img_max_area.x2 -= pright;
 787              		.loc 1 633 13 is_stmt 1 view .LVU279
 633:Drivers/lvgl/src/widgets/lv_img.c ****             img_max_area.x2 -= pright;
 788              		.loc 1 633 29 is_stmt 0 view .LVU280
 789 02cc BDF83A30 		ldrh	r3, [sp, #58]
 790 02d0 5B44     		add	r3, r3, fp
 791 02d2 9AB2     		uxth	r2, r3
 792 02d4 0692     		str	r2, [sp, #24]
 793 02d6 1BB2     		sxth	r3, r3
 794 02d8 0793     		str	r3, [sp, #28]
 795 02da ADF83A30 		strh	r3, [sp, #58]	@ movhi
 634:Drivers/lvgl/src/widgets/lv_img.c ****             img_max_area.y2 -= pbottom;
 796              		.loc 1 634 13 is_stmt 1 view .LVU281
 634:Drivers/lvgl/src/widgets/lv_img.c ****             img_max_area.y2 -= pbottom;
 797              		.loc 1 634 29 is_stmt 0 view .LVU282
 798 02de BDF83C60 		ldrh	r6, [sp, #60]
 799 02e2 039B     		ldr	r3, [sp, #12]
 800 02e4 F61A     		subs	r6, r6, r3
 801 02e6 36B2     		sxth	r6, r6
 802 02e8 ADF83C60 		strh	r6, [sp, #60]	@ movhi
 635:Drivers/lvgl/src/widgets/lv_img.c **** 
 803              		.loc 1 635 13 is_stmt 1 view .LVU283
 635:Drivers/lvgl/src/widgets/lv_img.c **** 
 804              		.loc 1 635 29 is_stmt 0 view .LVU284
 805 02ec BDF83E30 		ldrh	r3, [sp, #62]
 806 02f0 049A     		ldr	r2, [sp, #16]
 807 02f2 9B1A     		subs	r3, r3, r2
 808 02f4 1FB2     		sxth	r7, r3
 809 02f6 ADF83E70 		strh	r7, [sp, #62]	@ movhi
 637:Drivers/lvgl/src/widgets/lv_img.c ****                 lv_draw_img_dsc_t img_dsc;
 810              		.loc 1 637 13 is_stmt 1 view .LVU285
 637:Drivers/lvgl/src/widgets/lv_img.c ****                 lv_draw_img_dsc_t img_dsc;
 811              		.loc 1 637 30 is_stmt 0 view .LVU286
 812 02fa 94F83830 		ldrb	r3, [r4, #56]	@ zero_extendqisi2
 637:Drivers/lvgl/src/widgets/lv_img.c ****                 lv_draw_img_dsc_t img_dsc;
 813              		.loc 1 637 15 view .LVU287
 814 02fe 13F0020F 		tst	r3, #2
 815 0302 33D0     		beq	.L36
 676:Drivers/lvgl/src/widgets/lv_img.c ****                 lv_draw_label_dsc_t label_dsc;
 816              		.loc 1 676 18 is_stmt 1 view .LVU288
ARM GAS  /var/folders/0z/tsy30v1j4xl4_7kw94k978ww0000gn/T//ccDjPiYU.s 			page 40


 676:Drivers/lvgl/src/widgets/lv_img.c ****                 lv_draw_label_dsc_t label_dsc;
 817              		.loc 1 676 35 is_stmt 0 view .LVU289
 818 0304 03F00303 		and	r3, r3, #3
 676:Drivers/lvgl/src/widgets/lv_img.c ****                 lv_draw_label_dsc_t label_dsc;
 819              		.loc 1 676 20 view .LVU290
 820 0308 022B     		cmp	r3, #2
 821 030a 00F0D780 		beq	.L37
 685:Drivers/lvgl/src/widgets/lv_img.c ****                 lv_draw_img(draw_ctx, NULL, &obj->coords, NULL);
 822              		.loc 1 685 17 is_stmt 1 view .LVU291
 685:Drivers/lvgl/src/widgets/lv_img.c ****                 lv_draw_img(draw_ctx, NULL, &obj->coords, NULL);
 823              		.loc 1 685 17 view .LVU292
 685:Drivers/lvgl/src/widgets/lv_img.c ****                 lv_draw_img(draw_ctx, NULL, &obj->coords, NULL);
 824              		.loc 1 685 17 view .LVU293
 686:Drivers/lvgl/src/widgets/lv_img.c ****             }
 825              		.loc 1 686 17 view .LVU294
 826 030e 0023     		movs	r3, #0
 827 0310 059A     		ldr	r2, [sp, #20]
 828 0312 1946     		mov	r1, r3
 829 0314 2846     		mov	r0, r5
 830 0316 FFF7FEFF 		bl	lv_draw_img
 831              	.LVL68:
 832 031a 82E6     		b	.L3
 833              	.LVL69:
 834              	.L34:
 686:Drivers/lvgl/src/widgets/lv_img.c ****             }
 835              		.loc 1 686 17 is_stmt 0 view .LVU295
 836              	.LBE69:
 588:Drivers/lvgl/src/widgets/lv_img.c ****         }
 837              		.loc 1 588 13 is_stmt 1 view .LVU296
 838 031c 0AA9     		add	r1, sp, #40
 839 031e 2046     		mov	r0, r4
 840 0320 FFF7FEFF 		bl	lv_obj_get_coords
 841              	.LVL70:
 842 0324 50E7     		b	.L14
 843              	.LVL71:
 844              	.L35:
 845              	.LBB78:
 622:Drivers/lvgl/src/widgets/lv_img.c ****                 img_max_area.x2 -= ((img->w - img_size_final.x) + 1) / 2;
 846              		.loc 1 622 17 view .LVU297
 622:Drivers/lvgl/src/widgets/lv_img.c ****                 img_max_area.x2 -= ((img->w - img_size_final.x) + 1) / 2;
 847              		.loc 1 622 41 is_stmt 0 view .LVU298
 848 0326 B4F92C30 		ldrsh	r3, [r4, #44]
 622:Drivers/lvgl/src/widgets/lv_img.c ****                 img_max_area.x2 -= ((img->w - img_size_final.x) + 1) / 2;
 849              		.loc 1 622 61 view .LVU299
 850 032a BDF92420 		ldrsh	r2, [sp, #36]
 622:Drivers/lvgl/src/widgets/lv_img.c ****                 img_max_area.x2 -= ((img->w - img_size_final.x) + 1) / 2;
 851              		.loc 1 622 45 view .LVU300
 852 032e 9B1A     		subs	r3, r3, r2
 622:Drivers/lvgl/src/widgets/lv_img.c ****                 img_max_area.x2 -= ((img->w - img_size_final.x) + 1) / 2;
 853              		.loc 1 622 65 view .LVU301
 854 0330 0133     		adds	r3, r3, #1
 622:Drivers/lvgl/src/widgets/lv_img.c ****                 img_max_area.x2 -= ((img->w - img_size_final.x) + 1) / 2;
 855              		.loc 1 622 70 view .LVU302
 856 0332 03EBD373 		add	r3, r3, r3, lsr #31
 857 0336 5B10     		asrs	r3, r3, #1
 858 0338 5B42     		rsbs	r3, r3, #0
 622:Drivers/lvgl/src/widgets/lv_img.c ****                 img_max_area.x2 -= ((img->w - img_size_final.x) + 1) / 2;
ARM GAS  /var/folders/0z/tsy30v1j4xl4_7kw94k978ww0000gn/T//ccDjPiYU.s 			page 41


 859              		.loc 1 622 33 view .LVU303
 860 033a 9BB2     		uxth	r3, r3
 861 033c 1E44     		add	r6, r6, r3
 862 033e ADF83860 		strh	r6, [sp, #56]	@ movhi
 623:Drivers/lvgl/src/widgets/lv_img.c ****                 img_max_area.y1 -= ((img->h - img_size_final.y) + 1) / 2;
 863              		.loc 1 623 17 is_stmt 1 view .LVU304
 623:Drivers/lvgl/src/widgets/lv_img.c ****                 img_max_area.y1 -= ((img->h - img_size_final.y) + 1) / 2;
 864              		.loc 1 623 33 is_stmt 0 view .LVU305
 865 0342 4344     		add	r3, r3, r8
 866 0344 ADF83C30 		strh	r3, [sp, #60]	@ movhi
 624:Drivers/lvgl/src/widgets/lv_img.c ****                 img_max_area.y2 -= ((img->h - img_size_final.y) + 1) / 2;
 867              		.loc 1 624 17 is_stmt 1 view .LVU306
 624:Drivers/lvgl/src/widgets/lv_img.c ****                 img_max_area.y2 -= ((img->h - img_size_final.y) + 1) / 2;
 868              		.loc 1 624 41 is_stmt 0 view .LVU307
 869 0348 B4F92E30 		ldrsh	r3, [r4, #46]
 624:Drivers/lvgl/src/widgets/lv_img.c ****                 img_max_area.y2 -= ((img->h - img_size_final.y) + 1) / 2;
 870              		.loc 1 624 61 view .LVU308
 871 034c BDF92620 		ldrsh	r2, [sp, #38]
 624:Drivers/lvgl/src/widgets/lv_img.c ****                 img_max_area.y2 -= ((img->h - img_size_final.y) + 1) / 2;
 872              		.loc 1 624 45 view .LVU309
 873 0350 9B1A     		subs	r3, r3, r2
 624:Drivers/lvgl/src/widgets/lv_img.c ****                 img_max_area.y2 -= ((img->h - img_size_final.y) + 1) / 2;
 874              		.loc 1 624 65 view .LVU310
 875 0352 0133     		adds	r3, r3, #1
 624:Drivers/lvgl/src/widgets/lv_img.c ****                 img_max_area.y2 -= ((img->h - img_size_final.y) + 1) / 2;
 876              		.loc 1 624 70 view .LVU311
 877 0354 03EBD373 		add	r3, r3, r3, lsr #31
 878 0358 5B10     		asrs	r3, r3, #1
 879 035a 5B42     		rsbs	r3, r3, #0
 624:Drivers/lvgl/src/widgets/lv_img.c ****                 img_max_area.y2 -= ((img->h - img_size_final.y) + 1) / 2;
 880              		.loc 1 624 33 view .LVU312
 881 035c 9BB2     		uxth	r3, r3
 882 035e DA19     		adds	r2, r3, r7
 883 0360 ADF83A20 		strh	r2, [sp, #58]	@ movhi
 625:Drivers/lvgl/src/widgets/lv_img.c ****             }
 884              		.loc 1 625 17 is_stmt 1 view .LVU313
 625:Drivers/lvgl/src/widgets/lv_img.c ****             }
 885              		.loc 1 625 33 is_stmt 0 view .LVU314
 886 0364 4B44     		add	r3, r3, r9
 887 0366 ADF83E30 		strh	r3, [sp, #62]	@ movhi
 888 036a A5E7     		b	.L19
 889              	.L36:
 890              	.LBB76:
 638:Drivers/lvgl/src/widgets/lv_img.c ****                 lv_draw_img_dsc_init(&img_dsc);
 891              		.loc 1 638 17 is_stmt 1 view .LVU315
 639:Drivers/lvgl/src/widgets/lv_img.c ****                 lv_obj_init_draw_img_dsc(obj, LV_PART_MAIN, &img_dsc);
 892              		.loc 1 639 17 view .LVU316
 893 036c 14A8     		add	r0, sp, #80
 894 036e FFF7FEFF 		bl	lv_draw_img_dsc_init
 895              	.LVL72:
 640:Drivers/lvgl/src/widgets/lv_img.c **** 
 896              		.loc 1 640 17 view .LVU317
 897 0372 14AA     		add	r2, sp, #80
 898 0374 0021     		movs	r1, #0
 899 0376 2046     		mov	r0, r4
 900 0378 FFF7FEFF 		bl	lv_obj_init_draw_img_dsc
 901              	.LVL73:
ARM GAS  /var/folders/0z/tsy30v1j4xl4_7kw94k978ww0000gn/T//ccDjPiYU.s 			page 42


 642:Drivers/lvgl/src/widgets/lv_img.c ****                 img_dsc.angle = img->angle;
 902              		.loc 1 642 17 view .LVU318
 642:Drivers/lvgl/src/widgets/lv_img.c ****                 img_dsc.angle = img->angle;
 903              		.loc 1 642 35 is_stmt 0 view .LVU319
 904 037c E38E     		ldrh	r3, [r4, #54]
 642:Drivers/lvgl/src/widgets/lv_img.c ****                 img_dsc.angle = img->angle;
 905              		.loc 1 642 30 view .LVU320
 906 037e ADF85230 		strh	r3, [sp, #82]	@ movhi
 643:Drivers/lvgl/src/widgets/lv_img.c ****                 img_dsc.pivot.x = img->pivot.x;
 907              		.loc 1 643 17 is_stmt 1 view .LVU321
 643:Drivers/lvgl/src/widgets/lv_img.c ****                 img_dsc.pivot.x = img->pivot.x;
 908              		.loc 1 643 36 is_stmt 0 view .LVU322
 909 0382 B4F93030 		ldrsh	r3, [r4, #48]
 643:Drivers/lvgl/src/widgets/lv_img.c ****                 img_dsc.pivot.x = img->pivot.x;
 910              		.loc 1 643 31 view .LVU323
 911 0386 ADF85030 		strh	r3, [sp, #80]	@ movhi
 644:Drivers/lvgl/src/widgets/lv_img.c ****                 img_dsc.pivot.y = img->pivot.y;
 912              		.loc 1 644 17 is_stmt 1 view .LVU324
 644:Drivers/lvgl/src/widgets/lv_img.c ****                 img_dsc.pivot.y = img->pivot.y;
 913              		.loc 1 644 45 is_stmt 0 view .LVU325
 914 038a B4F93230 		ldrsh	r3, [r4, #50]
 644:Drivers/lvgl/src/widgets/lv_img.c ****                 img_dsc.pivot.y = img->pivot.y;
 915              		.loc 1 644 33 view .LVU326
 916 038e ADF85430 		strh	r3, [sp, #84]	@ movhi
 645:Drivers/lvgl/src/widgets/lv_img.c ****                 img_dsc.antialias = img->antialias;
 917              		.loc 1 645 17 is_stmt 1 view .LVU327
 645:Drivers/lvgl/src/widgets/lv_img.c ****                 img_dsc.antialias = img->antialias;
 918              		.loc 1 645 45 is_stmt 0 view .LVU328
 919 0392 B4F93430 		ldrsh	r3, [r4, #52]
 645:Drivers/lvgl/src/widgets/lv_img.c ****                 img_dsc.antialias = img->antialias;
 920              		.loc 1 645 33 view .LVU329
 921 0396 ADF85630 		strh	r3, [sp, #86]	@ movhi
 646:Drivers/lvgl/src/widgets/lv_img.c **** 
 922              		.loc 1 646 17 is_stmt 1 view .LVU330
 646:Drivers/lvgl/src/widgets/lv_img.c **** 
 923              		.loc 1 646 40 is_stmt 0 view .LVU331
 924 039a 94F83830 		ldrb	r3, [r4, #56]	@ zero_extendqisi2
 925 039e DB09     		lsrs	r3, r3, #7
 646:Drivers/lvgl/src/widgets/lv_img.c **** 
 926              		.loc 1 646 35 view .LVU332
 927 03a0 9DF86420 		ldrb	r2, [sp, #100]	@ zero_extendqisi2
 928 03a4 63F30002 		bfi	r2, r3, #0, #1
 929 03a8 8DF86420 		strb	r2, [sp, #100]
 648:Drivers/lvgl/src/widgets/lv_img.c ****                 img_clip_area.x1 = bg_coords.x1 + pleft;
 930              		.loc 1 648 17 is_stmt 1 view .LVU333
 649:Drivers/lvgl/src/widgets/lv_img.c ****                 img_clip_area.y1 = bg_coords.y1 + ptop;
 931              		.loc 1 649 17 view .LVU334
 649:Drivers/lvgl/src/widgets/lv_img.c ****                 img_clip_area.y1 = bg_coords.y1 + ptop;
 932              		.loc 1 649 45 is_stmt 0 view .LVU335
 933 03ac BDF82830 		ldrh	r3, [sp, #40]
 649:Drivers/lvgl/src/widgets/lv_img.c ****                 img_clip_area.y1 = bg_coords.y1 + ptop;
 934              		.loc 1 649 49 view .LVU336
 935 03b0 029A     		ldr	r2, [sp, #8]
 936 03b2 1A44     		add	r2, r2, r3
 649:Drivers/lvgl/src/widgets/lv_img.c ****                 img_clip_area.y1 = bg_coords.y1 + ptop;
 937              		.loc 1 649 34 view .LVU337
 938 03b4 ADF84020 		strh	r2, [sp, #64]	@ movhi
ARM GAS  /var/folders/0z/tsy30v1j4xl4_7kw94k978ww0000gn/T//ccDjPiYU.s 			page 43


 650:Drivers/lvgl/src/widgets/lv_img.c ****                 img_clip_area.x2 = bg_coords.x2 - pright;
 939              		.loc 1 650 17 is_stmt 1 view .LVU338
 650:Drivers/lvgl/src/widgets/lv_img.c ****                 img_clip_area.x2 = bg_coords.x2 - pright;
 940              		.loc 1 650 45 is_stmt 0 view .LVU339
 941 03b8 BDF82A30 		ldrh	r3, [sp, #42]
 650:Drivers/lvgl/src/widgets/lv_img.c ****                 img_clip_area.x2 = bg_coords.x2 - pright;
 942              		.loc 1 650 49 view .LVU340
 943 03bc 5B44     		add	r3, r3, fp
 650:Drivers/lvgl/src/widgets/lv_img.c ****                 img_clip_area.x2 = bg_coords.x2 - pright;
 944              		.loc 1 650 34 view .LVU341
 945 03be ADF84230 		strh	r3, [sp, #66]	@ movhi
 651:Drivers/lvgl/src/widgets/lv_img.c ****                 img_clip_area.y2 = bg_coords.y2 - pbottom;
 946              		.loc 1 651 17 is_stmt 1 view .LVU342
 651:Drivers/lvgl/src/widgets/lv_img.c ****                 img_clip_area.y2 = bg_coords.y2 - pbottom;
 947              		.loc 1 651 45 is_stmt 0 view .LVU343
 948 03c2 BDF82C30 		ldrh	r3, [sp, #44]
 651:Drivers/lvgl/src/widgets/lv_img.c ****                 img_clip_area.y2 = bg_coords.y2 - pbottom;
 949              		.loc 1 651 49 view .LVU344
 950 03c6 039A     		ldr	r2, [sp, #12]
 951 03c8 9B1A     		subs	r3, r3, r2
 651:Drivers/lvgl/src/widgets/lv_img.c ****                 img_clip_area.y2 = bg_coords.y2 - pbottom;
 952              		.loc 1 651 34 view .LVU345
 953 03ca ADF84430 		strh	r3, [sp, #68]	@ movhi
 652:Drivers/lvgl/src/widgets/lv_img.c ****                 const lv_area_t * clip_area_ori = draw_ctx->clip_area;
 954              		.loc 1 652 17 is_stmt 1 view .LVU346
 652:Drivers/lvgl/src/widgets/lv_img.c ****                 const lv_area_t * clip_area_ori = draw_ctx->clip_area;
 955              		.loc 1 652 45 is_stmt 0 view .LVU347
 956 03ce BDF82E30 		ldrh	r3, [sp, #46]
 652:Drivers/lvgl/src/widgets/lv_img.c ****                 const lv_area_t * clip_area_ori = draw_ctx->clip_area;
 957              		.loc 1 652 49 view .LVU348
 958 03d2 049A     		ldr	r2, [sp, #16]
 959 03d4 9B1A     		subs	r3, r3, r2
 652:Drivers/lvgl/src/widgets/lv_img.c ****                 const lv_area_t * clip_area_ori = draw_ctx->clip_area;
 960              		.loc 1 652 34 view .LVU349
 961 03d6 ADF84630 		strh	r3, [sp, #70]	@ movhi
 653:Drivers/lvgl/src/widgets/lv_img.c **** 
 962              		.loc 1 653 17 is_stmt 1 view .LVU350
 653:Drivers/lvgl/src/widgets/lv_img.c **** 
 963              		.loc 1 653 35 is_stmt 0 view .LVU351
 964 03da D5F808B0 		ldr	fp, [r5, #8]
 965              	.LVL74:
 655:Drivers/lvgl/src/widgets/lv_img.c ****                 draw_ctx->clip_area = &img_clip_area;
 966              		.loc 1 655 17 is_stmt 1 view .LVU352
 655:Drivers/lvgl/src/widgets/lv_img.c ****                 draw_ctx->clip_area = &img_clip_area;
 967              		.loc 1 655 21 is_stmt 0 view .LVU353
 968 03de 10AA     		add	r2, sp, #64
 969 03e0 5946     		mov	r1, fp
 970 03e2 1046     		mov	r0, r2
 971 03e4 FFF7FEFF 		bl	_lv_area_intersect
 972              	.LVL75:
 655:Drivers/lvgl/src/widgets/lv_img.c ****                 draw_ctx->clip_area = &img_clip_area;
 973              		.loc 1 655 19 view .LVU354
 974 03e8 0028     		cmp	r0, #0
 975 03ea 3FF41AAE 		beq	.L3
 656:Drivers/lvgl/src/widgets/lv_img.c **** 
 976              		.loc 1 656 17 is_stmt 1 view .LVU355
 656:Drivers/lvgl/src/widgets/lv_img.c **** 
ARM GAS  /var/folders/0z/tsy30v1j4xl4_7kw94k978ww0000gn/T//ccDjPiYU.s 			page 44


 977              		.loc 1 656 37 is_stmt 0 view .LVU356
 978 03ee 10AB     		add	r3, sp, #64
 979 03f0 AB60     		str	r3, [r5, #8]
 658:Drivers/lvgl/src/widgets/lv_img.c ****                 lv_coord_t offset_x = img->offset.x % img->w;
 980              		.loc 1 658 17 is_stmt 1 view .LVU357
 659:Drivers/lvgl/src/widgets/lv_img.c ****                 lv_coord_t offset_y = img->offset.y % img->h;
 981              		.loc 1 659 17 view .LVU358
 659:Drivers/lvgl/src/widgets/lv_img.c ****                 lv_coord_t offset_y = img->offset.y % img->h;
 982              		.loc 1 659 50 is_stmt 0 view .LVU359
 983 03f2 B4F928A0 		ldrsh	r10, [r4, #40]
 659:Drivers/lvgl/src/widgets/lv_img.c ****                 lv_coord_t offset_y = img->offset.y % img->h;
 984              		.loc 1 659 58 view .LVU360
 985 03f6 B4F92C30 		ldrsh	r3, [r4, #44]
 659:Drivers/lvgl/src/widgets/lv_img.c ****                 lv_coord_t offset_y = img->offset.y % img->h;
 986              		.loc 1 659 53 view .LVU361
 987 03fa 9AFBF3F2 		sdiv	r2, r10, r3
 988 03fe 03FB12AA 		mls	r10, r3, r2, r10
 989              	.LVL76:
 660:Drivers/lvgl/src/widgets/lv_img.c ****                 coords_tmp.y1 = img_max_area.y1 + offset_y;
 990              		.loc 1 660 17 is_stmt 1 view .LVU362
 660:Drivers/lvgl/src/widgets/lv_img.c ****                 coords_tmp.y1 = img_max_area.y1 + offset_y;
 991              		.loc 1 660 50 is_stmt 0 view .LVU363
 992 0402 B4F92A30 		ldrsh	r3, [r4, #42]
 660:Drivers/lvgl/src/widgets/lv_img.c ****                 coords_tmp.y1 = img_max_area.y1 + offset_y;
 993              		.loc 1 660 58 view .LVU364
 994 0406 B4F92E20 		ldrsh	r2, [r4, #46]
 660:Drivers/lvgl/src/widgets/lv_img.c ****                 coords_tmp.y1 = img_max_area.y1 + offset_y;
 995              		.loc 1 660 53 view .LVU365
 996 040a 93FBF2F1 		sdiv	r1, r3, r2
 997 040e 02FB1133 		mls	r3, r2, r1, r3
 998              	.LVL77:
 661:Drivers/lvgl/src/widgets/lv_img.c ****                 if(coords_tmp.y1 > img_max_area.y1) coords_tmp.y1 -= img->h;
 999              		.loc 1 661 17 is_stmt 1 view .LVU366
 661:Drivers/lvgl/src/widgets/lv_img.c ****                 if(coords_tmp.y1 > img_max_area.y1) coords_tmp.y1 -= img->h;
 1000              		.loc 1 661 49 is_stmt 0 view .LVU367
 1001 0412 0699     		ldr	r1, [sp, #24]
 1002 0414 1944     		add	r1, r1, r3
 1003 0416 0B46     		mov	r3, r1
 1004              	.LVL78:
 661:Drivers/lvgl/src/widgets/lv_img.c ****                 if(coords_tmp.y1 > img_max_area.y1) coords_tmp.y1 -= img->h;
 1005              		.loc 1 661 49 view .LVU368
 1006 0418 89B2     		uxth	r1, r1
 1007 041a 1BB2     		sxth	r3, r3
 661:Drivers/lvgl/src/widgets/lv_img.c ****                 if(coords_tmp.y1 > img_max_area.y1) coords_tmp.y1 -= img->h;
 1008              		.loc 1 661 31 view .LVU369
 1009 041c ADF84A30 		strh	r3, [sp, #74]	@ movhi
 662:Drivers/lvgl/src/widgets/lv_img.c ****                 coords_tmp.y2 = coords_tmp.y1 + img->h - 1;
 1010              		.loc 1 662 17 is_stmt 1 view .LVU370
 662:Drivers/lvgl/src/widgets/lv_img.c ****                 coords_tmp.y2 = coords_tmp.y1 + img->h - 1;
 1011              		.loc 1 662 19 is_stmt 0 view .LVU371
 1012 0420 0798     		ldr	r0, [sp, #28]
 1013 0422 9842     		cmp	r0, r3
 1014 0424 03DA     		bge	.L22
 662:Drivers/lvgl/src/widgets/lv_img.c ****                 coords_tmp.y2 = coords_tmp.y1 + img->h - 1;
 1015              		.loc 1 662 53 is_stmt 1 discriminator 1 view .LVU372
 662:Drivers/lvgl/src/widgets/lv_img.c ****                 coords_tmp.y2 = coords_tmp.y1 + img->h - 1;
 1016              		.loc 1 662 73 is_stmt 0 discriminator 1 view .LVU373
ARM GAS  /var/folders/0z/tsy30v1j4xl4_7kw94k978ww0000gn/T//ccDjPiYU.s 			page 45


 1017 0426 93B2     		uxth	r3, r2
 662:Drivers/lvgl/src/widgets/lv_img.c ****                 coords_tmp.y2 = coords_tmp.y1 + img->h - 1;
 1018              		.loc 1 662 67 discriminator 1 view .LVU374
 1019 0428 C91A     		subs	r1, r1, r3
 1020 042a ADF84A10 		strh	r1, [sp, #74]	@ movhi
 1021              	.L22:
 663:Drivers/lvgl/src/widgets/lv_img.c **** 
 1022              		.loc 1 663 17 is_stmt 1 view .LVU375
 663:Drivers/lvgl/src/widgets/lv_img.c **** 
 1023              		.loc 1 663 43 is_stmt 0 view .LVU376
 1024 042e BDF84A30 		ldrh	r3, [sp, #74]
 663:Drivers/lvgl/src/widgets/lv_img.c **** 
 1025              		.loc 1 663 47 view .LVU377
 1026 0432 13FA82F3 		uxtah	r3, r3, r2
 1027 0436 9BB2     		uxth	r3, r3
 663:Drivers/lvgl/src/widgets/lv_img.c **** 
 1028              		.loc 1 663 56 view .LVU378
 1029 0438 013B     		subs	r3, r3, #1
 663:Drivers/lvgl/src/widgets/lv_img.c **** 
 1030              		.loc 1 663 31 view .LVU379
 1031 043a ADF84E30 		strh	r3, [sp, #78]	@ movhi
 665:Drivers/lvgl/src/widgets/lv_img.c ****                     coords_tmp.x1 = img_max_area.x1 + offset_x;
 1032              		.loc 1 665 17 is_stmt 1 view .LVU380
 1033 043e 21E0     		b	.L23
 1034              	.LVL79:
 1035              	.L26:
 671:Drivers/lvgl/src/widgets/lv_img.c ****                     }
 1036              		.loc 1 671 25 discriminator 2 view .LVU381
 1037 0440 636A     		ldr	r3, [r4, #36]
 1038 0442 12AA     		add	r2, sp, #72
 1039 0444 14A9     		add	r1, sp, #80
 1040 0446 2846     		mov	r0, r5
 1041 0448 FFF7FEFF 		bl	lv_draw_img
 1042              	.LVL80:
 670:Drivers/lvgl/src/widgets/lv_img.c ****                         lv_draw_img(draw_ctx, &img_dsc, &coords_tmp, img->src);
 1043              		.loc 1 670 93 discriminator 2 view .LVU382
 670:Drivers/lvgl/src/widgets/lv_img.c ****                         lv_draw_img(draw_ctx, &img_dsc, &coords_tmp, img->src);
 1044              		.loc 1 670 91 is_stmt 0 discriminator 2 view .LVU383
 1045 044c BDF82430 		ldrh	r3, [sp, #36]
 670:Drivers/lvgl/src/widgets/lv_img.c ****                         lv_draw_img(draw_ctx, &img_dsc, &coords_tmp, img->src);
 1046              		.loc 1 670 74 discriminator 2 view .LVU384
 1047 0450 BDF84820 		ldrh	r2, [sp, #72]
 1048 0454 1A44     		add	r2, r2, r3
 1049 0456 ADF84820 		strh	r2, [sp, #72]	@ movhi
 670:Drivers/lvgl/src/widgets/lv_img.c ****                         lv_draw_img(draw_ctx, &img_dsc, &coords_tmp, img->src);
 1050              		.loc 1 670 109 discriminator 2 view .LVU385
 1051 045a BDF84C20 		ldrh	r2, [sp, #76]
 1052 045e 1344     		add	r3, r3, r2
 1053 0460 ADF84C30 		strh	r3, [sp, #76]	@ movhi
 1054              	.L25:
 670:Drivers/lvgl/src/widgets/lv_img.c ****                         lv_draw_img(draw_ctx, &img_dsc, &coords_tmp, img->src);
 1055              		.loc 1 670 41 is_stmt 1 discriminator 1 view .LVU386
 670:Drivers/lvgl/src/widgets/lv_img.c ****                         lv_draw_img(draw_ctx, &img_dsc, &coords_tmp, img->src);
 1056              		.loc 1 670 37 is_stmt 0 discriminator 1 view .LVU387
 1057 0464 BDF94830 		ldrsh	r3, [sp, #72]
 670:Drivers/lvgl/src/widgets/lv_img.c ****                         lv_draw_img(draw_ctx, &img_dsc, &coords_tmp, img->src);
 1058              		.loc 1 670 41 discriminator 1 view .LVU388
ARM GAS  /var/folders/0z/tsy30v1j4xl4_7kw94k978ww0000gn/T//ccDjPiYU.s 			page 46


 1059 0468 9E42     		cmp	r6, r3
 1060 046a E9DC     		bgt	.L26
 665:Drivers/lvgl/src/widgets/lv_img.c ****                     coords_tmp.x1 = img_max_area.x1 + offset_x;
 1061              		.loc 1 665 89 is_stmt 1 view .LVU389
 665:Drivers/lvgl/src/widgets/lv_img.c ****                     coords_tmp.x1 = img_max_area.x1 + offset_x;
 1062              		.loc 1 665 87 is_stmt 0 view .LVU390
 1063 046c BDF82630 		ldrh	r3, [sp, #38]
 665:Drivers/lvgl/src/widgets/lv_img.c ****                     coords_tmp.x1 = img_max_area.x1 + offset_x;
 1064              		.loc 1 665 70 view .LVU391
 1065 0470 BDF84A20 		ldrh	r2, [sp, #74]
 1066 0474 1A44     		add	r2, r2, r3
 1067 0476 ADF84A20 		strh	r2, [sp, #74]	@ movhi
 665:Drivers/lvgl/src/widgets/lv_img.c ****                     coords_tmp.x1 = img_max_area.x1 + offset_x;
 1068              		.loc 1 665 105 view .LVU392
 1069 047a BDF84E20 		ldrh	r2, [sp, #78]
 1070 047e 1344     		add	r3, r3, r2
 1071 0480 ADF84E30 		strh	r3, [sp, #78]	@ movhi
 1072              	.L23:
 665:Drivers/lvgl/src/widgets/lv_img.c ****                     coords_tmp.x1 = img_max_area.x1 + offset_x;
 1073              		.loc 1 665 37 is_stmt 1 discriminator 1 view .LVU393
 665:Drivers/lvgl/src/widgets/lv_img.c ****                     coords_tmp.x1 = img_max_area.x1 + offset_x;
 1074              		.loc 1 665 33 is_stmt 0 discriminator 1 view .LVU394
 1075 0484 BDF94A30 		ldrsh	r3, [sp, #74]
 665:Drivers/lvgl/src/widgets/lv_img.c ****                     coords_tmp.x1 = img_max_area.x1 + offset_x;
 1076              		.loc 1 665 37 discriminator 1 view .LVU395
 1077 0488 9F42     		cmp	r7, r3
 1078 048a 14DD     		ble	.L38
 666:Drivers/lvgl/src/widgets/lv_img.c ****                     if(coords_tmp.x1 > img_max_area.x1) coords_tmp.x1 -= img->w;
 1079              		.loc 1 666 21 is_stmt 1 view .LVU396
 666:Drivers/lvgl/src/widgets/lv_img.c ****                     if(coords_tmp.x1 > img_max_area.x1) coords_tmp.x1 -= img->w;
 1080              		.loc 1 666 53 is_stmt 0 view .LVU397
 1081 048c 09EB0A03 		add	r3, r9, r10
 1082 0490 9AB2     		uxth	r2, r3
 1083 0492 1BB2     		sxth	r3, r3
 666:Drivers/lvgl/src/widgets/lv_img.c ****                     if(coords_tmp.x1 > img_max_area.x1) coords_tmp.x1 -= img->w;
 1084              		.loc 1 666 35 view .LVU398
 1085 0494 ADF84830 		strh	r3, [sp, #72]	@ movhi
 667:Drivers/lvgl/src/widgets/lv_img.c ****                     coords_tmp.x2 = coords_tmp.x1 + img->w - 1;
 1086              		.loc 1 667 21 is_stmt 1 view .LVU399
 667:Drivers/lvgl/src/widgets/lv_img.c ****                     coords_tmp.x2 = coords_tmp.x1 + img->w - 1;
 1087              		.loc 1 667 23 is_stmt 0 view .LVU400
 1088 0498 9845     		cmp	r8, r3
 1089 049a 03DA     		bge	.L24
 667:Drivers/lvgl/src/widgets/lv_img.c ****                     coords_tmp.x2 = coords_tmp.x1 + img->w - 1;
 1090              		.loc 1 667 57 is_stmt 1 discriminator 1 view .LVU401
 667:Drivers/lvgl/src/widgets/lv_img.c ****                     coords_tmp.x2 = coords_tmp.x1 + img->w - 1;
 1091              		.loc 1 667 77 is_stmt 0 discriminator 1 view .LVU402
 1092 049c A38D     		ldrh	r3, [r4, #44]
 667:Drivers/lvgl/src/widgets/lv_img.c ****                     coords_tmp.x2 = coords_tmp.x1 + img->w - 1;
 1093              		.loc 1 667 71 discriminator 1 view .LVU403
 1094 049e D21A     		subs	r2, r2, r3
 1095 04a0 ADF84820 		strh	r2, [sp, #72]	@ movhi
 1096              	.L24:
 668:Drivers/lvgl/src/widgets/lv_img.c **** 
 1097              		.loc 1 668 21 is_stmt 1 view .LVU404
 668:Drivers/lvgl/src/widgets/lv_img.c **** 
 1098              		.loc 1 668 47 is_stmt 0 view .LVU405
ARM GAS  /var/folders/0z/tsy30v1j4xl4_7kw94k978ww0000gn/T//ccDjPiYU.s 			page 47


 1099 04a4 BDF84830 		ldrh	r3, [sp, #72]
 668:Drivers/lvgl/src/widgets/lv_img.c **** 
 1100              		.loc 1 668 56 view .LVU406
 1101 04a8 A28D     		ldrh	r2, [r4, #44]
 668:Drivers/lvgl/src/widgets/lv_img.c **** 
 1102              		.loc 1 668 51 view .LVU407
 1103 04aa 1344     		add	r3, r3, r2
 1104 04ac 9BB2     		uxth	r3, r3
 668:Drivers/lvgl/src/widgets/lv_img.c **** 
 1105              		.loc 1 668 60 view .LVU408
 1106 04ae 013B     		subs	r3, r3, #1
 668:Drivers/lvgl/src/widgets/lv_img.c **** 
 1107              		.loc 1 668 35 view .LVU409
 1108 04b0 ADF84C30 		strh	r3, [sp, #76]	@ movhi
 670:Drivers/lvgl/src/widgets/lv_img.c ****                         lv_draw_img(draw_ctx, &img_dsc, &coords_tmp, img->src);
 1109              		.loc 1 670 21 is_stmt 1 view .LVU410
 1110 04b4 D6E7     		b	.L25
 1111              	.L38:
 674:Drivers/lvgl/src/widgets/lv_img.c ****             }
 1112              		.loc 1 674 17 view .LVU411
 674:Drivers/lvgl/src/widgets/lv_img.c ****             }
 1113              		.loc 1 674 37 is_stmt 0 view .LVU412
 1114 04b6 C5F808B0 		str	fp, [r5, #8]
 1115              	.LBE76:
 1116 04ba B2E5     		b	.L3
 1117              	.LVL81:
 1118              	.L37:
 1119              	.LBB77:
 677:Drivers/lvgl/src/widgets/lv_img.c ****                 lv_draw_label_dsc_init(&label_dsc);
 1120              		.loc 1 677 17 is_stmt 1 view .LVU413
 678:Drivers/lvgl/src/widgets/lv_img.c ****                 lv_obj_init_draw_label_dsc(obj, LV_PART_MAIN, &label_dsc);
 1121              		.loc 1 678 17 view .LVU414
 1122 04bc 14A8     		add	r0, sp, #80
 1123 04be FFF7FEFF 		bl	lv_draw_label_dsc_init
 1124              	.LVL82:
 679:Drivers/lvgl/src/widgets/lv_img.c **** 
 1125              		.loc 1 679 17 view .LVU415
 1126 04c2 14AA     		add	r2, sp, #80
 1127 04c4 0021     		movs	r1, #0
 1128 04c6 2046     		mov	r0, r4
 1129 04c8 FFF7FEFF 		bl	lv_obj_init_draw_label_dsc
 1130              	.LVL83:
 681:Drivers/lvgl/src/widgets/lv_img.c ****             }
 1131              		.loc 1 681 17 view .LVU416
 681:Drivers/lvgl/src/widgets/lv_img.c ****             }
 1132              		.loc 1 681 70 is_stmt 0 view .LVU417
 1133 04cc 636A     		ldr	r3, [r4, #36]
 681:Drivers/lvgl/src/widgets/lv_img.c ****             }
 1134              		.loc 1 681 17 view .LVU418
 1135 04ce 0022     		movs	r2, #0
 1136 04d0 0092     		str	r2, [sp]
 1137 04d2 059A     		ldr	r2, [sp, #20]
 1138 04d4 14A9     		add	r1, sp, #80
 1139 04d6 2846     		mov	r0, r5
 1140 04d8 FFF7FEFF 		bl	lv_draw_label
 1141              	.LVL84:
 1142              	.LBE77:
ARM GAS  /var/folders/0z/tsy30v1j4xl4_7kw94k978ww0000gn/T//ccDjPiYU.s 			page 48


 1143 04dc A1E5     		b	.L3
 1144              	.L40:
 1145 04de 00BF     		.align	2
 1146              	.L39:
 1147 04e0 00000000 		.word	.LANCHOR0
 1148              	.LBE78:
 1149              	.LBE52:
 1150              		.cfi_endproc
 1151              	.LFE188:
 1153              		.section	.text.lv_img_destructor,"ax",%progbits
 1154              		.align	1
 1155              		.syntax unified
 1156              		.thumb
 1157              		.thumb_func
 1159              	lv_img_destructor:
 1160              	.LVL85:
 1161              	.LFB185:
 413:Drivers/lvgl/src/widgets/lv_img.c ****     LV_UNUSED(class_p);
 1162              		.loc 1 413 1 is_stmt 1 view -0
 1163              		.cfi_startproc
 1164              		@ args = 0, pretend = 0, frame = 0
 1165              		@ frame_needed = 0, uses_anonymous_args = 0
 414:Drivers/lvgl/src/widgets/lv_img.c ****     lv_img_t * img = (lv_img_t *)obj;
 1166              		.loc 1 414 5 view .LVU420
 415:Drivers/lvgl/src/widgets/lv_img.c ****     if(img->src_type == LV_IMG_SRC_FILE || img->src_type == LV_IMG_SRC_SYMBOL) {
 1167              		.loc 1 415 5 view .LVU421
 416:Drivers/lvgl/src/widgets/lv_img.c ****         lv_mem_free((void *)img->src);
 1168              		.loc 1 416 5 view .LVU422
 416:Drivers/lvgl/src/widgets/lv_img.c ****         lv_mem_free((void *)img->src);
 1169              		.loc 1 416 22 is_stmt 0 view .LVU423
 1170 0000 91F83830 		ldrb	r3, [r1, #56]	@ zero_extendqisi2
 416:Drivers/lvgl/src/widgets/lv_img.c ****         lv_mem_free((void *)img->src);
 1171              		.loc 1 416 41 view .LVU424
 1172 0004 03F00303 		and	r3, r3, #3
 1173 0008 013B     		subs	r3, r3, #1
 1174 000a DBB2     		uxtb	r3, r3
 416:Drivers/lvgl/src/widgets/lv_img.c ****         lv_mem_free((void *)img->src);
 1175              		.loc 1 416 7 view .LVU425
 1176 000c 012B     		cmp	r3, #1
 1177 000e 00D9     		bls	.L47
 1178 0010 7047     		bx	lr
 1179              	.L47:
 413:Drivers/lvgl/src/widgets/lv_img.c ****     LV_UNUSED(class_p);
 1180              		.loc 1 413 1 view .LVU426
 1181 0012 10B5     		push	{r4, lr}
 1182              		.cfi_def_cfa_offset 8
 1183              		.cfi_offset 4, -8
 1184              		.cfi_offset 14, -4
 1185 0014 0C46     		mov	r4, r1
 417:Drivers/lvgl/src/widgets/lv_img.c ****         img->src      = NULL;
 1186              		.loc 1 417 9 is_stmt 1 view .LVU427
 1187 0016 486A     		ldr	r0, [r1, #36]
 1188              	.LVL86:
 417:Drivers/lvgl/src/widgets/lv_img.c ****         img->src      = NULL;
 1189              		.loc 1 417 9 is_stmt 0 view .LVU428
 1190 0018 FFF7FEFF 		bl	lv_mem_free
 1191              	.LVL87:
ARM GAS  /var/folders/0z/tsy30v1j4xl4_7kw94k978ww0000gn/T//ccDjPiYU.s 			page 49


 418:Drivers/lvgl/src/widgets/lv_img.c ****         img->src_type = LV_IMG_SRC_UNKNOWN;
 1192              		.loc 1 418 9 is_stmt 1 view .LVU429
 418:Drivers/lvgl/src/widgets/lv_img.c ****         img->src_type = LV_IMG_SRC_UNKNOWN;
 1193              		.loc 1 418 23 is_stmt 0 view .LVU430
 1194 001c 0023     		movs	r3, #0
 1195 001e 6362     		str	r3, [r4, #36]
 419:Drivers/lvgl/src/widgets/lv_img.c ****     }
 1196              		.loc 1 419 9 is_stmt 1 view .LVU431
 419:Drivers/lvgl/src/widgets/lv_img.c ****     }
 1197              		.loc 1 419 23 is_stmt 0 view .LVU432
 1198 0020 94F83830 		ldrb	r3, [r4, #56]	@ zero_extendqisi2
 1199 0024 43F00303 		orr	r3, r3, #3
 1200 0028 84F83830 		strb	r3, [r4, #56]
 421:Drivers/lvgl/src/widgets/lv_img.c **** 
 1201              		.loc 1 421 1 view .LVU433
 1202 002c 10BD     		pop	{r4, pc}
 421:Drivers/lvgl/src/widgets/lv_img.c **** 
 1203              		.loc 1 421 1 view .LVU434
 1204              		.cfi_endproc
 1205              	.LFE185:
 1207              		.section	.text.lv_img_constructor,"ax",%progbits
 1208              		.align	1
 1209              		.syntax unified
 1210              		.thumb
 1211              		.thumb_func
 1213              	lv_img_constructor:
 1214              	.LVL88:
 1215              	.LFB184:
 386:Drivers/lvgl/src/widgets/lv_img.c ****     LV_UNUSED(class_p);
 1216              		.loc 1 386 1 is_stmt 1 view -0
 1217              		.cfi_startproc
 1218              		@ args = 0, pretend = 0, frame = 0
 1219              		@ frame_needed = 0, uses_anonymous_args = 0
 386:Drivers/lvgl/src/widgets/lv_img.c ****     LV_UNUSED(class_p);
 1220              		.loc 1 386 1 is_stmt 0 view .LVU436
 1221 0000 38B5     		push	{r3, r4, r5, lr}
 1222              		.cfi_def_cfa_offset 16
 1223              		.cfi_offset 3, -16
 1224              		.cfi_offset 4, -12
 1225              		.cfi_offset 5, -8
 1226              		.cfi_offset 14, -4
 1227 0002 0C46     		mov	r4, r1
 387:Drivers/lvgl/src/widgets/lv_img.c ****     LV_TRACE_OBJ_CREATE("begin");
 1228              		.loc 1 387 5 is_stmt 1 view .LVU437
 388:Drivers/lvgl/src/widgets/lv_img.c **** 
 1229              		.loc 1 388 33 view .LVU438
 390:Drivers/lvgl/src/widgets/lv_img.c **** 
 1230              		.loc 1 390 5 view .LVU439
 1231              	.LVL89:
 392:Drivers/lvgl/src/widgets/lv_img.c ****     img->src_type  = LV_IMG_SRC_UNKNOWN;
 1232              		.loc 1 392 5 view .LVU440
 392:Drivers/lvgl/src/widgets/lv_img.c ****     img->src_type  = LV_IMG_SRC_UNKNOWN;
 1233              		.loc 1 392 20 is_stmt 0 view .LVU441
 1234 0004 0025     		movs	r5, #0
 1235 0006 4D62     		str	r5, [r1, #36]
 393:Drivers/lvgl/src/widgets/lv_img.c ****     img->cf        = LV_IMG_CF_UNKNOWN;
 1236              		.loc 1 393 5 is_stmt 1 view .LVU442
ARM GAS  /var/folders/0z/tsy30v1j4xl4_7kw94k978ww0000gn/T//ccDjPiYU.s 			page 50


 393:Drivers/lvgl/src/widgets/lv_img.c ****     img->cf        = LV_IMG_CF_UNKNOWN;
 1237              		.loc 1 393 20 is_stmt 0 view .LVU443
 1238 0008 91F83830 		ldrb	r3, [r1, #56]	@ zero_extendqisi2
 1239 000c 43F00303 		orr	r3, r3, #3
 1240 0010 81F83830 		strb	r3, [r1, #56]
 394:Drivers/lvgl/src/widgets/lv_img.c ****     img->w         = lv_obj_get_width(obj);
 1241              		.loc 1 394 5 is_stmt 1 view .LVU444
 394:Drivers/lvgl/src/widgets/lv_img.c ****     img->w         = lv_obj_get_width(obj);
 1242              		.loc 1 394 20 is_stmt 0 view .LVU445
 1243 0014 DBB2     		uxtb	r3, r3
 1244 0016 65F38603 		bfi	r3, r5, #2, #5
 1245 001a 81F83830 		strb	r3, [r1, #56]
 395:Drivers/lvgl/src/widgets/lv_img.c ****     img->h         = lv_obj_get_height(obj);
 1246              		.loc 1 395 5 is_stmt 1 view .LVU446
 395:Drivers/lvgl/src/widgets/lv_img.c ****     img->h         = lv_obj_get_height(obj);
 1247              		.loc 1 395 22 is_stmt 0 view .LVU447
 1248 001e 0846     		mov	r0, r1
 1249              	.LVL90:
 395:Drivers/lvgl/src/widgets/lv_img.c ****     img->h         = lv_obj_get_height(obj);
 1250              		.loc 1 395 22 view .LVU448
 1251 0020 FFF7FEFF 		bl	lv_obj_get_width
 1252              	.LVL91:
 395:Drivers/lvgl/src/widgets/lv_img.c ****     img->h         = lv_obj_get_height(obj);
 1253              		.loc 1 395 20 view .LVU449
 1254 0024 A085     		strh	r0, [r4, #44]	@ movhi
 396:Drivers/lvgl/src/widgets/lv_img.c ****     img->angle = 0;
 1255              		.loc 1 396 5 is_stmt 1 view .LVU450
 396:Drivers/lvgl/src/widgets/lv_img.c ****     img->angle = 0;
 1256              		.loc 1 396 22 is_stmt 0 view .LVU451
 1257 0026 2046     		mov	r0, r4
 1258 0028 FFF7FEFF 		bl	lv_obj_get_height
 1259              	.LVL92:
 396:Drivers/lvgl/src/widgets/lv_img.c ****     img->angle = 0;
 1260              		.loc 1 396 20 view .LVU452
 1261 002c E085     		strh	r0, [r4, #46]	@ movhi
 397:Drivers/lvgl/src/widgets/lv_img.c ****     img->zoom = LV_IMG_ZOOM_NONE;
 1262              		.loc 1 397 5 is_stmt 1 view .LVU453
 397:Drivers/lvgl/src/widgets/lv_img.c ****     img->zoom = LV_IMG_ZOOM_NONE;
 1263              		.loc 1 397 16 is_stmt 0 view .LVU454
 1264 002e 2586     		strh	r5, [r4, #48]	@ movhi
 398:Drivers/lvgl/src/widgets/lv_img.c ****     img->antialias = LV_COLOR_DEPTH > 8 ? 1 : 0;
 1265              		.loc 1 398 5 is_stmt 1 view .LVU455
 398:Drivers/lvgl/src/widgets/lv_img.c ****     img->antialias = LV_COLOR_DEPTH > 8 ? 1 : 0;
 1266              		.loc 1 398 15 is_stmt 0 view .LVU456
 1267 0030 4FF48073 		mov	r3, #256
 1268 0034 E386     		strh	r3, [r4, #54]	@ movhi
 399:Drivers/lvgl/src/widgets/lv_img.c ****     img->offset.x  = 0;
 1269              		.loc 1 399 5 is_stmt 1 view .LVU457
 399:Drivers/lvgl/src/widgets/lv_img.c ****     img->offset.x  = 0;
 1270              		.loc 1 399 20 is_stmt 0 view .LVU458
 1271 0036 94F83830 		ldrb	r3, [r4, #56]	@ zero_extendqisi2
 1272 003a 43F08003 		orr	r3, r3, #128
 1273 003e 84F83830 		strb	r3, [r4, #56]
 400:Drivers/lvgl/src/widgets/lv_img.c ****     img->offset.y  = 0;
 1274              		.loc 1 400 5 is_stmt 1 view .LVU459
 400:Drivers/lvgl/src/widgets/lv_img.c ****     img->offset.y  = 0;
 1275              		.loc 1 400 20 is_stmt 0 view .LVU460
ARM GAS  /var/folders/0z/tsy30v1j4xl4_7kw94k978ww0000gn/T//ccDjPiYU.s 			page 51


 1276 0042 2585     		strh	r5, [r4, #40]	@ movhi
 401:Drivers/lvgl/src/widgets/lv_img.c ****     img->pivot.x = 0;
 1277              		.loc 1 401 5 is_stmt 1 view .LVU461
 401:Drivers/lvgl/src/widgets/lv_img.c ****     img->pivot.x = 0;
 1278              		.loc 1 401 20 is_stmt 0 view .LVU462
 1279 0044 6585     		strh	r5, [r4, #42]	@ movhi
 402:Drivers/lvgl/src/widgets/lv_img.c ****     img->pivot.y = 0;
 1280              		.loc 1 402 5 is_stmt 1 view .LVU463
 402:Drivers/lvgl/src/widgets/lv_img.c ****     img->pivot.y = 0;
 1281              		.loc 1 402 18 is_stmt 0 view .LVU464
 1282 0046 6586     		strh	r5, [r4, #50]	@ movhi
 403:Drivers/lvgl/src/widgets/lv_img.c ****     img->obj_size_mode = LV_IMG_SIZE_MODE_VIRTUAL;
 1283              		.loc 1 403 5 is_stmt 1 view .LVU465
 403:Drivers/lvgl/src/widgets/lv_img.c ****     img->obj_size_mode = LV_IMG_SIZE_MODE_VIRTUAL;
 1284              		.loc 1 403 18 is_stmt 0 view .LVU466
 1285 0048 A586     		strh	r5, [r4, #52]	@ movhi
 404:Drivers/lvgl/src/widgets/lv_img.c **** 
 1286              		.loc 1 404 5 is_stmt 1 view .LVU467
 404:Drivers/lvgl/src/widgets/lv_img.c **** 
 1287              		.loc 1 404 24 is_stmt 0 view .LVU468
 1288 004a 94F83930 		ldrb	r3, [r4, #57]	@ zero_extendqisi2
 1289 004e 65F30103 		bfi	r3, r5, #0, #2
 1290 0052 84F83930 		strb	r3, [r4, #57]
 406:Drivers/lvgl/src/widgets/lv_img.c ****     lv_obj_add_flag(obj, LV_OBJ_FLAG_ADV_HITTEST);
 1291              		.loc 1 406 5 is_stmt 1 view .LVU469
 1292 0056 0221     		movs	r1, #2
 1293 0058 2046     		mov	r0, r4
 1294 005a FFF7FEFF 		bl	lv_obj_clear_flag
 1295              	.LVL93:
 407:Drivers/lvgl/src/widgets/lv_img.c **** 
 1296              		.loc 1 407 5 view .LVU470
 1297 005e 4FF48031 		mov	r1, #65536
 1298 0062 2046     		mov	r0, r4
 1299 0064 FFF7FEFF 		bl	lv_obj_add_flag
 1300              	.LVL94:
 409:Drivers/lvgl/src/widgets/lv_img.c **** }
 1301              		.loc 1 409 36 view .LVU471
 410:Drivers/lvgl/src/widgets/lv_img.c **** 
 1302              		.loc 1 410 1 is_stmt 0 view .LVU472
 1303 0068 38BD     		pop	{r3, r4, r5, pc}
 410:Drivers/lvgl/src/widgets/lv_img.c **** 
 1304              		.loc 1 410 1 view .LVU473
 1305              		.cfi_endproc
 1306              	.LFE184:
 1308              		.section	.text.lv_img_create,"ax",%progbits
 1309              		.align	1
 1310              		.global	lv_img_create
 1311              		.syntax unified
 1312              		.thumb
 1313              		.thumb_func
 1315              	lv_img_create:
 1316              	.LVL95:
 1317              	.LFB167:
  59:Drivers/lvgl/src/widgets/lv_img.c ****     LV_LOG_INFO("begin");
 1318              		.loc 1 59 1 is_stmt 1 view -0
 1319              		.cfi_startproc
 1320              		@ args = 0, pretend = 0, frame = 0
ARM GAS  /var/folders/0z/tsy30v1j4xl4_7kw94k978ww0000gn/T//ccDjPiYU.s 			page 52


 1321              		@ frame_needed = 0, uses_anonymous_args = 0
  59:Drivers/lvgl/src/widgets/lv_img.c ****     LV_LOG_INFO("begin");
 1322              		.loc 1 59 1 is_stmt 0 view .LVU475
 1323 0000 10B5     		push	{r4, lr}
 1324              		.cfi_def_cfa_offset 8
 1325              		.cfi_offset 4, -8
 1326              		.cfi_offset 14, -4
 1327 0002 0146     		mov	r1, r0
  60:Drivers/lvgl/src/widgets/lv_img.c ****     lv_obj_t * obj = lv_obj_class_create_obj(MY_CLASS, parent);
 1328              		.loc 1 60 5 is_stmt 1 view .LVU476
  60:Drivers/lvgl/src/widgets/lv_img.c ****     lv_obj_t * obj = lv_obj_class_create_obj(MY_CLASS, parent);
 1329              		.loc 1 60 5 view .LVU477
  60:Drivers/lvgl/src/widgets/lv_img.c ****     lv_obj_t * obj = lv_obj_class_create_obj(MY_CLASS, parent);
 1330              		.loc 1 60 5 view .LVU478
  61:Drivers/lvgl/src/widgets/lv_img.c ****     lv_obj_class_init_obj(obj);
 1331              		.loc 1 61 5 view .LVU479
  61:Drivers/lvgl/src/widgets/lv_img.c ****     lv_obj_class_init_obj(obj);
 1332              		.loc 1 61 22 is_stmt 0 view .LVU480
 1333 0004 0348     		ldr	r0, .L52
 1334              	.LVL96:
  61:Drivers/lvgl/src/widgets/lv_img.c ****     lv_obj_class_init_obj(obj);
 1335              		.loc 1 61 22 view .LVU481
 1336 0006 FFF7FEFF 		bl	lv_obj_class_create_obj
 1337              	.LVL97:
  61:Drivers/lvgl/src/widgets/lv_img.c ****     lv_obj_class_init_obj(obj);
 1338              		.loc 1 61 22 view .LVU482
 1339 000a 0446     		mov	r4, r0
 1340              	.LVL98:
  62:Drivers/lvgl/src/widgets/lv_img.c ****     return obj;
 1341              		.loc 1 62 5 is_stmt 1 view .LVU483
 1342 000c FFF7FEFF 		bl	lv_obj_class_init_obj
 1343              	.LVL99:
  63:Drivers/lvgl/src/widgets/lv_img.c **** }
 1344              		.loc 1 63 5 view .LVU484
  64:Drivers/lvgl/src/widgets/lv_img.c **** 
 1345              		.loc 1 64 1 is_stmt 0 view .LVU485
 1346 0010 2046     		mov	r0, r4
 1347 0012 10BD     		pop	{r4, pc}
 1348              	.LVL100:
 1349              	.L53:
  64:Drivers/lvgl/src/widgets/lv_img.c **** 
 1350              		.loc 1 64 1 view .LVU486
 1351              		.align	2
 1352              	.L52:
 1353 0014 00000000 		.word	.LANCHOR0
 1354              		.cfi_endproc
 1355              	.LFE167:
 1357              		.section	.text.lv_img_set_src,"ax",%progbits
 1358              		.align	1
 1359              		.global	lv_img_set_src
 1360              		.syntax unified
 1361              		.thumb
 1362              		.thumb_func
 1364              	lv_img_set_src:
 1365              	.LVL101:
 1366              	.LFB168:
  71:Drivers/lvgl/src/widgets/lv_img.c ****     LV_ASSERT_OBJ(obj, MY_CLASS);
ARM GAS  /var/folders/0z/tsy30v1j4xl4_7kw94k978ww0000gn/T//ccDjPiYU.s 			page 53


 1367              		.loc 1 71 1 is_stmt 1 view -0
 1368              		.cfi_startproc
 1369              		@ args = 0, pretend = 0, frame = 8
 1370              		@ frame_needed = 0, uses_anonymous_args = 0
  71:Drivers/lvgl/src/widgets/lv_img.c ****     LV_ASSERT_OBJ(obj, MY_CLASS);
 1371              		.loc 1 71 1 is_stmt 0 view .LVU488
 1372 0000 2DE9F041 		push	{r4, r5, r6, r7, r8, lr}
 1373              		.cfi_def_cfa_offset 24
 1374              		.cfi_offset 4, -24
 1375              		.cfi_offset 5, -20
 1376              		.cfi_offset 6, -16
 1377              		.cfi_offset 7, -12
 1378              		.cfi_offset 8, -8
 1379              		.cfi_offset 14, -4
 1380 0004 86B0     		sub	sp, sp, #24
 1381              		.cfi_def_cfa_offset 48
 1382 0006 0446     		mov	r4, r0
 1383 0008 0E46     		mov	r6, r1
  72:Drivers/lvgl/src/widgets/lv_img.c **** 
 1384              		.loc 1 72 5 is_stmt 1 view .LVU489
  72:Drivers/lvgl/src/widgets/lv_img.c **** 
 1385              		.loc 1 72 5 view .LVU490
  72:Drivers/lvgl/src/widgets/lv_img.c **** 
 1386              		.loc 1 72 5 view .LVU491
  74:Drivers/lvgl/src/widgets/lv_img.c **** 
 1387              		.loc 1 74 5 view .LVU492
 1388 000a FFF7FEFF 		bl	lv_obj_invalidate
 1389              	.LVL102:
  76:Drivers/lvgl/src/widgets/lv_img.c ****     lv_img_t * img = (lv_img_t *)obj;
 1390              		.loc 1 76 5 view .LVU493
  76:Drivers/lvgl/src/widgets/lv_img.c ****     lv_img_t * img = (lv_img_t *)obj;
 1391              		.loc 1 76 29 is_stmt 0 view .LVU494
 1392 000e 3046     		mov	r0, r6
 1393 0010 FFF7FEFF 		bl	lv_img_src_get_type
 1394              	.LVL103:
  77:Drivers/lvgl/src/widgets/lv_img.c **** 
 1395              		.loc 1 77 5 is_stmt 1 view .LVU495
  96:Drivers/lvgl/src/widgets/lv_img.c ****         LV_LOG_WARN("lv_img_set_src: unknown image type");
 1396              		.loc 1 96 5 view .LVU496
  96:Drivers/lvgl/src/widgets/lv_img.c ****         LV_LOG_WARN("lv_img_set_src: unknown image type");
 1397              		.loc 1 96 7 is_stmt 0 view .LVU497
 1398 0014 0328     		cmp	r0, #3
 1399 0016 40D0     		beq	.L68
 1400 0018 0546     		mov	r5, r0
 106:Drivers/lvgl/src/widgets/lv_img.c ****     lv_img_decoder_get_info(src, &header);
 1401              		.loc 1 106 5 is_stmt 1 view .LVU498
 107:Drivers/lvgl/src/widgets/lv_img.c **** 
 1402              		.loc 1 107 5 view .LVU499
 1403 001a 05A9     		add	r1, sp, #20
 1404 001c 3046     		mov	r0, r6
 1405              	.LVL104:
 107:Drivers/lvgl/src/widgets/lv_img.c **** 
 1406              		.loc 1 107 5 is_stmt 0 view .LVU500
 1407 001e FFF7FEFF 		bl	lv_img_decoder_get_info
 1408              	.LVL105:
 110:Drivers/lvgl/src/widgets/lv_img.c ****         /*If memory was allocated because of the previous `src_type` then free it*/
 1409              		.loc 1 110 5 is_stmt 1 view .LVU501
ARM GAS  /var/folders/0z/tsy30v1j4xl4_7kw94k978ww0000gn/T//ccDjPiYU.s 			page 54


 110:Drivers/lvgl/src/widgets/lv_img.c ****         /*If memory was allocated because of the previous `src_type` then free it*/
 1410              		.loc 1 110 7 is_stmt 0 view .LVU502
 1411 0022 002D     		cmp	r5, #0
 1412 0024 52D1     		bne	.L58
 112:Drivers/lvgl/src/widgets/lv_img.c ****             lv_mem_free((void *)img->src);
 1413              		.loc 1 112 9 is_stmt 1 view .LVU503
 112:Drivers/lvgl/src/widgets/lv_img.c ****             lv_mem_free((void *)img->src);
 1414              		.loc 1 112 26 is_stmt 0 view .LVU504
 1415 0026 94F83830 		ldrb	r3, [r4, #56]	@ zero_extendqisi2
 112:Drivers/lvgl/src/widgets/lv_img.c ****             lv_mem_free((void *)img->src);
 1416              		.loc 1 112 45 view .LVU505
 1417 002a 03F00303 		and	r3, r3, #3
 1418 002e 013B     		subs	r3, r3, #1
 1419 0030 DBB2     		uxtb	r3, r3
 112:Drivers/lvgl/src/widgets/lv_img.c ****             lv_mem_free((void *)img->src);
 1420              		.loc 1 112 11 view .LVU506
 1421 0032 012B     		cmp	r3, #1
 1422 0034 46D9     		bls	.L69
 1423              	.L59:
 115:Drivers/lvgl/src/widgets/lv_img.c ****     }
 1424              		.loc 1 115 9 is_stmt 1 view .LVU507
 115:Drivers/lvgl/src/widgets/lv_img.c ****     }
 1425              		.loc 1 115 18 is_stmt 0 view .LVU508
 1426 0036 6662     		str	r6, [r4, #36]
 1427              	.L60:
 137:Drivers/lvgl/src/widgets/lv_img.c ****         /*`lv_img_dsc_get_info` couldn't set the width and height of a font so set it here*/
 1428              		.loc 1 137 5 is_stmt 1 view .LVU509
 137:Drivers/lvgl/src/widgets/lv_img.c ****         /*`lv_img_dsc_get_info` couldn't set the width and height of a font so set it here*/
 1429              		.loc 1 137 7 is_stmt 0 view .LVU510
 1430 0038 022D     		cmp	r5, #2
 1431 003a 6BD0     		beq	.L70
 1432              	.LVL106:
 1433              	.L64:
 148:Drivers/lvgl/src/widgets/lv_img.c ****     img->w        = header.w;
 1434              		.loc 1 148 5 is_stmt 1 view .LVU511
 148:Drivers/lvgl/src/widgets/lv_img.c ****     img->w        = header.w;
 1435              		.loc 1 148 19 is_stmt 0 view .LVU512
 1436 003c 94F83830 		ldrb	r3, [r4, #56]	@ zero_extendqisi2
 1437 0040 65F30103 		bfi	r3, r5, #0, #2
 1438 0044 84F83830 		strb	r3, [r4, #56]
 149:Drivers/lvgl/src/widgets/lv_img.c ****     img->h        = header.h;
 1439              		.loc 1 149 5 is_stmt 1 view .LVU513
 149:Drivers/lvgl/src/widgets/lv_img.c ****     img->h        = header.h;
 1440              		.loc 1 149 27 is_stmt 0 view .LVU514
 1441 0048 059A     		ldr	r2, [sp, #20]
 1442 004a C2F38A23 		ubfx	r3, r2, #10, #11
 149:Drivers/lvgl/src/widgets/lv_img.c ****     img->h        = header.h;
 1443              		.loc 1 149 19 view .LVU515
 1444 004e A385     		strh	r3, [r4, #44]	@ movhi
 150:Drivers/lvgl/src/widgets/lv_img.c ****     img->cf       = header.cf;
 1445              		.loc 1 150 5 is_stmt 1 view .LVU516
 150:Drivers/lvgl/src/widgets/lv_img.c ****     img->cf       = header.cf;
 1446              		.loc 1 150 27 is_stmt 0 view .LVU517
 1447 0050 BDF81630 		ldrh	r3, [sp, #22]
 1448 0054 C3F34A11 		ubfx	r1, r3, #5, #11
 150:Drivers/lvgl/src/widgets/lv_img.c ****     img->cf       = header.cf;
 1449              		.loc 1 150 19 view .LVU518
ARM GAS  /var/folders/0z/tsy30v1j4xl4_7kw94k978ww0000gn/T//ccDjPiYU.s 			page 55


 1450 0058 E185     		strh	r1, [r4, #46]	@ movhi
 151:Drivers/lvgl/src/widgets/lv_img.c ****     img->pivot.x = header.w / 2;
 1451              		.loc 1 151 5 is_stmt 1 view .LVU519
 151:Drivers/lvgl/src/widgets/lv_img.c ****     img->pivot.x = header.w / 2;
 1452              		.loc 1 151 27 is_stmt 0 view .LVU520
 1453 005a 9DF81400 		ldrb	r0, [sp, #20]	@ zero_extendqisi2
 151:Drivers/lvgl/src/widgets/lv_img.c ****     img->pivot.x = header.w / 2;
 1454              		.loc 1 151 19 view .LVU521
 1455 005e 94F83810 		ldrb	r1, [r4, #56]	@ zero_extendqisi2
 1456 0062 60F38601 		bfi	r1, r0, #2, #5
 1457 0066 84F83810 		strb	r1, [r4, #56]
 152:Drivers/lvgl/src/widgets/lv_img.c ****     img->pivot.y = header.h / 2;
 1458              		.loc 1 152 5 is_stmt 1 view .LVU522
 152:Drivers/lvgl/src/widgets/lv_img.c ****     img->pivot.y = header.h / 2;
 1459              		.loc 1 152 29 is_stmt 0 view .LVU523
 1460 006a C2F3C922 		ubfx	r2, r2, #11, #10
 152:Drivers/lvgl/src/widgets/lv_img.c ****     img->pivot.y = header.h / 2;
 1461              		.loc 1 152 18 view .LVU524
 1462 006e 6286     		strh	r2, [r4, #50]	@ movhi
 153:Drivers/lvgl/src/widgets/lv_img.c **** 
 1463              		.loc 1 153 5 is_stmt 1 view .LVU525
 153:Drivers/lvgl/src/widgets/lv_img.c **** 
 1464              		.loc 1 153 29 is_stmt 0 view .LVU526
 1465 0070 C3F38913 		ubfx	r3, r3, #6, #10
 153:Drivers/lvgl/src/widgets/lv_img.c **** 
 1466              		.loc 1 153 18 view .LVU527
 1467 0074 A386     		strh	r3, [r4, #52]	@ movhi
 155:Drivers/lvgl/src/widgets/lv_img.c **** 
 1468              		.loc 1 155 5 is_stmt 1 view .LVU528
 1469 0076 2046     		mov	r0, r4
 1470 0078 FFF7FEFF 		bl	lv_obj_refresh_self_size
 1471              	.LVL107:
 158:Drivers/lvgl/src/widgets/lv_img.c **** 
 1472              		.loc 1 158 5 view .LVU529
 158:Drivers/lvgl/src/widgets/lv_img.c **** 
 1473              		.loc 1 158 11 is_stmt 0 view .LVU530
 1474 007c 238E     		ldrh	r3, [r4, #48]
 158:Drivers/lvgl/src/widgets/lv_img.c **** 
 1475              		.loc 1 158 7 view .LVU531
 1476 007e 1BB9     		cbnz	r3, .L65
 158:Drivers/lvgl/src/widgets/lv_img.c **** 
 1477              		.loc 1 158 25 discriminator 2 view .LVU532
 1478 0080 E38E     		ldrh	r3, [r4, #54]
 158:Drivers/lvgl/src/widgets/lv_img.c **** 
 1479              		.loc 1 158 19 discriminator 2 view .LVU533
 1480 0082 B3F5807F 		cmp	r3, #256
 1481 0086 02D0     		beq	.L66
 1482              	.L65:
 158:Drivers/lvgl/src/widgets/lv_img.c **** 
 1483              		.loc 1 158 53 is_stmt 1 discriminator 3 view .LVU534
 1484 0088 2046     		mov	r0, r4
 1485 008a FFF7FEFF 		bl	lv_obj_refresh_ext_draw_size
 1486              	.LVL108:
 1487              	.L66:
 160:Drivers/lvgl/src/widgets/lv_img.c **** }
 1488              		.loc 1 160 5 view .LVU535
 1489 008e 2046     		mov	r0, r4
ARM GAS  /var/folders/0z/tsy30v1j4xl4_7kw94k978ww0000gn/T//ccDjPiYU.s 			page 56


 1490 0090 FFF7FEFF 		bl	lv_obj_invalidate
 1491              	.LVL109:
 1492              	.L54:
 161:Drivers/lvgl/src/widgets/lv_img.c **** 
 1493              		.loc 1 161 1 is_stmt 0 view .LVU536
 1494 0094 06B0     		add	sp, sp, #24
 1495              		.cfi_remember_state
 1496              		.cfi_def_cfa_offset 24
 1497              		@ sp needed
 1498 0096 BDE8F081 		pop	{r4, r5, r6, r7, r8, pc}
 1499              	.LVL110:
 1500              	.L68:
 1501              		.cfi_restore_state
  97:Drivers/lvgl/src/widgets/lv_img.c ****         if(img->src_type == LV_IMG_SRC_SYMBOL || img->src_type == LV_IMG_SRC_FILE) {
 1502              		.loc 1 97 9 is_stmt 1 view .LVU537
  97:Drivers/lvgl/src/widgets/lv_img.c ****         if(img->src_type == LV_IMG_SRC_SYMBOL || img->src_type == LV_IMG_SRC_FILE) {
 1503              		.loc 1 97 9 view .LVU538
  97:Drivers/lvgl/src/widgets/lv_img.c ****         if(img->src_type == LV_IMG_SRC_SYMBOL || img->src_type == LV_IMG_SRC_FILE) {
 1504              		.loc 1 97 9 view .LVU539
  98:Drivers/lvgl/src/widgets/lv_img.c ****             lv_mem_free((void *)img->src);
 1505              		.loc 1 98 9 view .LVU540
  98:Drivers/lvgl/src/widgets/lv_img.c ****             lv_mem_free((void *)img->src);
 1506              		.loc 1 98 26 is_stmt 0 view .LVU541
 1507 009a 94F83830 		ldrb	r3, [r4, #56]	@ zero_extendqisi2
  98:Drivers/lvgl/src/widgets/lv_img.c ****             lv_mem_free((void *)img->src);
 1508              		.loc 1 98 47 view .LVU542
 1509 009e 03F00303 		and	r3, r3, #3
 1510 00a2 013B     		subs	r3, r3, #1
 1511 00a4 DBB2     		uxtb	r3, r3
  98:Drivers/lvgl/src/widgets/lv_img.c ****             lv_mem_free((void *)img->src);
 1512              		.loc 1 98 11 view .LVU543
 1513 00a6 012B     		cmp	r3, #1
 1514 00a8 08D9     		bls	.L71
 1515              	.LVL111:
 1516              	.L56:
 101:Drivers/lvgl/src/widgets/lv_img.c ****         img->src_type = LV_IMG_SRC_UNKNOWN;
 1517              		.loc 1 101 9 is_stmt 1 view .LVU544
 101:Drivers/lvgl/src/widgets/lv_img.c ****         img->src_type = LV_IMG_SRC_UNKNOWN;
 1518              		.loc 1 101 23 is_stmt 0 view .LVU545
 1519 00aa 0023     		movs	r3, #0
 1520 00ac 6362     		str	r3, [r4, #36]
 102:Drivers/lvgl/src/widgets/lv_img.c ****         return;
 1521              		.loc 1 102 9 is_stmt 1 view .LVU546
 102:Drivers/lvgl/src/widgets/lv_img.c ****         return;
 1522              		.loc 1 102 23 is_stmt 0 view .LVU547
 1523 00ae 94F83830 		ldrb	r3, [r4, #56]	@ zero_extendqisi2
 1524 00b2 43F00303 		orr	r3, r3, #3
 1525 00b6 84F83830 		strb	r3, [r4, #56]
 103:Drivers/lvgl/src/widgets/lv_img.c ****     }
 1526              		.loc 1 103 9 is_stmt 1 view .LVU548
 1527 00ba EBE7     		b	.L54
 1528              	.LVL112:
 1529              	.L71:
  99:Drivers/lvgl/src/widgets/lv_img.c ****         }
 1530              		.loc 1 99 13 view .LVU549
 1531 00bc 606A     		ldr	r0, [r4, #36]
 1532              	.LVL113:
ARM GAS  /var/folders/0z/tsy30v1j4xl4_7kw94k978ww0000gn/T//ccDjPiYU.s 			page 57


  99:Drivers/lvgl/src/widgets/lv_img.c ****         }
 1533              		.loc 1 99 13 is_stmt 0 view .LVU550
 1534 00be FFF7FEFF 		bl	lv_mem_free
 1535              	.LVL114:
 1536 00c2 F2E7     		b	.L56
 1537              	.L69:
 113:Drivers/lvgl/src/widgets/lv_img.c ****         }
 1538              		.loc 1 113 13 is_stmt 1 view .LVU551
 1539 00c4 606A     		ldr	r0, [r4, #36]
 1540 00c6 FFF7FEFF 		bl	lv_mem_free
 1541              	.LVL115:
 1542 00ca B4E7     		b	.L59
 1543              	.L58:
 117:Drivers/lvgl/src/widgets/lv_img.c ****         /*If the new and the old src are the same then it was only a refresh.*/
 1544              		.loc 1 117 10 view .LVU552
 117:Drivers/lvgl/src/widgets/lv_img.c ****         /*If the new and the old src are the same then it was only a refresh.*/
 1545              		.loc 1 117 41 is_stmt 0 view .LVU553
 1546 00cc 6B1E     		subs	r3, r5, #1
 1547 00ce DBB2     		uxtb	r3, r3
 117:Drivers/lvgl/src/widgets/lv_img.c ****         /*If the new and the old src are the same then it was only a refresh.*/
 1548              		.loc 1 117 12 view .LVU554
 1549 00d0 012B     		cmp	r3, #1
 1550 00d2 B1D8     		bhi	.L60
 119:Drivers/lvgl/src/widgets/lv_img.c ****             const void * old_src = NULL;
 1551              		.loc 1 119 9 is_stmt 1 view .LVU555
 119:Drivers/lvgl/src/widgets/lv_img.c ****             const void * old_src = NULL;
 1552              		.loc 1 119 15 is_stmt 0 view .LVU556
 1553 00d4 676A     		ldr	r7, [r4, #36]
 119:Drivers/lvgl/src/widgets/lv_img.c ****             const void * old_src = NULL;
 1554              		.loc 1 119 11 view .LVU557
 1555 00d6 B742     		cmp	r7, r6
 1556 00d8 AED0     		beq	.L60
 1557              	.LBB79:
 120:Drivers/lvgl/src/widgets/lv_img.c ****             /*If memory was allocated because of the previous `src_type` then save its pointer and 
 1558              		.loc 1 120 13 is_stmt 1 view .LVU558
 1559              	.LVL116:
 124:Drivers/lvgl/src/widgets/lv_img.c ****                 old_src = img->src;
 1560              		.loc 1 124 13 view .LVU559
 124:Drivers/lvgl/src/widgets/lv_img.c ****                 old_src = img->src;
 1561              		.loc 1 124 30 is_stmt 0 view .LVU560
 1562 00da 94F83830 		ldrb	r3, [r4, #56]	@ zero_extendqisi2
 124:Drivers/lvgl/src/widgets/lv_img.c ****                 old_src = img->src;
 1563              		.loc 1 124 49 view .LVU561
 1564 00de 03F00303 		and	r3, r3, #3
 1565 00e2 013B     		subs	r3, r3, #1
 1566 00e4 DBB2     		uxtb	r3, r3
 124:Drivers/lvgl/src/widgets/lv_img.c ****                 old_src = img->src;
 1567              		.loc 1 124 15 view .LVU562
 1568 00e6 012B     		cmp	r3, #1
 1569 00e8 00D9     		bls	.L61
 120:Drivers/lvgl/src/widgets/lv_img.c ****             /*If memory was allocated because of the previous `src_type` then save its pointer and 
 1570              		.loc 1 120 26 view .LVU563
 1571 00ea 0027     		movs	r7, #0
 1572              	.L61:
 1573              	.LVL117:
 127:Drivers/lvgl/src/widgets/lv_img.c ****             LV_ASSERT_MALLOC(new_str);
 1574              		.loc 1 127 13 is_stmt 1 view .LVU564
ARM GAS  /var/folders/0z/tsy30v1j4xl4_7kw94k978ww0000gn/T//ccDjPiYU.s 			page 58


 127:Drivers/lvgl/src/widgets/lv_img.c ****             LV_ASSERT_MALLOC(new_str);
 1575              		.loc 1 127 43 is_stmt 0 view .LVU565
 1576 00ec 3046     		mov	r0, r6
 1577 00ee FFF7FEFF 		bl	strlen
 1578              	.LVL118:
 127:Drivers/lvgl/src/widgets/lv_img.c ****             LV_ASSERT_MALLOC(new_str);
 1579              		.loc 1 127 30 view .LVU566
 1580 00f2 0130     		adds	r0, r0, #1
 1581 00f4 FFF7FEFF 		bl	lv_mem_alloc
 1582              	.LVL119:
 128:Drivers/lvgl/src/widgets/lv_img.c ****             if(new_str == NULL) return;
 1583              		.loc 1 128 13 is_stmt 1 view .LVU567
 128:Drivers/lvgl/src/widgets/lv_img.c ****             if(new_str == NULL) return;
 1584              		.loc 1 128 13 view .LVU568
 1585 00f8 8046     		mov	r8, r0
 1586 00fa 50B1     		cbz	r0, .L63
 128:Drivers/lvgl/src/widgets/lv_img.c ****             if(new_str == NULL) return;
 1587              		.loc 1 128 13 view .LVU569
 128:Drivers/lvgl/src/widgets/lv_img.c ****             if(new_str == NULL) return;
 1588              		.loc 1 128 38 view .LVU570
 129:Drivers/lvgl/src/widgets/lv_img.c ****             strcpy(new_str, src);
 1589              		.loc 1 129 13 view .LVU571
 130:Drivers/lvgl/src/widgets/lv_img.c ****             img->src = new_str;
 1590              		.loc 1 130 13 view .LVU572
 1591 00fc 3146     		mov	r1, r6
 1592 00fe FFF7FEFF 		bl	strcpy
 1593              	.LVL120:
 131:Drivers/lvgl/src/widgets/lv_img.c **** 
 1594              		.loc 1 131 13 view .LVU573
 131:Drivers/lvgl/src/widgets/lv_img.c **** 
 1595              		.loc 1 131 22 is_stmt 0 view .LVU574
 1596 0102 C4F82480 		str	r8, [r4, #36]
 133:Drivers/lvgl/src/widgets/lv_img.c ****         }
 1597              		.loc 1 133 13 is_stmt 1 view .LVU575
 133:Drivers/lvgl/src/widgets/lv_img.c ****         }
 1598              		.loc 1 133 15 is_stmt 0 view .LVU576
 1599 0106 002F     		cmp	r7, #0
 1600 0108 96D0     		beq	.L60
 133:Drivers/lvgl/src/widgets/lv_img.c ****         }
 1601              		.loc 1 133 25 is_stmt 1 discriminator 1 view .LVU577
 1602 010a 3846     		mov	r0, r7
 1603 010c FFF7FEFF 		bl	lv_mem_free
 1604              	.LVL121:
 1605 0110 92E7     		b	.L60
 1606              	.LVL122:
 1607              	.L63:
 128:Drivers/lvgl/src/widgets/lv_img.c ****             if(new_str == NULL) return;
 1608              		.loc 1 128 13 discriminator 1 view .LVU578
 128:Drivers/lvgl/src/widgets/lv_img.c ****             if(new_str == NULL) return;
 1609              		.loc 1 128 13 discriminator 1 view .LVU579
 128:Drivers/lvgl/src/widgets/lv_img.c ****             if(new_str == NULL) return;
 1610              		.loc 1 128 13 discriminator 1 view .LVU580
 128:Drivers/lvgl/src/widgets/lv_img.c ****             if(new_str == NULL) return;
 1611              		.loc 1 128 13 discriminator 1 view .LVU581
 128:Drivers/lvgl/src/widgets/lv_img.c ****             if(new_str == NULL) return;
 1612              		.loc 1 128 13 discriminator 1 view .LVU582
 1613 0112 FEE7     		b	.L63
ARM GAS  /var/folders/0z/tsy30v1j4xl4_7kw94k978ww0000gn/T//ccDjPiYU.s 			page 59


 1614              	.LVL123:
 1615              	.L70:
 128:Drivers/lvgl/src/widgets/lv_img.c ****             if(new_str == NULL) return;
 1616              		.loc 1 128 13 is_stmt 0 discriminator 1 view .LVU583
 1617              	.LBE79:
 1618              	.LBB80:
 139:Drivers/lvgl/src/widgets/lv_img.c ****         lv_coord_t letter_space = lv_obj_get_style_text_letter_space(obj, LV_PART_MAIN);
 1619              		.loc 1 139 9 is_stmt 1 view .LVU584
 1620              	.LBB81:
 1621              	.LBI81:
 347:Drivers/lvgl/src/widgets/../core/lv_obj_style_gen.h **** }
 348:Drivers/lvgl/src/widgets/../core/lv_obj_style_gen.h **** 
 349:Drivers/lvgl/src/widgets/../core/lv_obj_style_gen.h **** static inline lv_color_t lv_obj_get_style_img_recolor(const struct _lv_obj_t * obj, uint32_t part)
 350:Drivers/lvgl/src/widgets/../core/lv_obj_style_gen.h **** {
 351:Drivers/lvgl/src/widgets/../core/lv_obj_style_gen.h ****     lv_style_value_t v = lv_obj_get_style_prop(obj, part, LV_STYLE_IMG_RECOLOR);
 352:Drivers/lvgl/src/widgets/../core/lv_obj_style_gen.h ****     return v.color;
 353:Drivers/lvgl/src/widgets/../core/lv_obj_style_gen.h **** }
 354:Drivers/lvgl/src/widgets/../core/lv_obj_style_gen.h **** 
 355:Drivers/lvgl/src/widgets/../core/lv_obj_style_gen.h **** static inline lv_color_t lv_obj_get_style_img_recolor_filtered(const struct _lv_obj_t * obj, uint32
 356:Drivers/lvgl/src/widgets/../core/lv_obj_style_gen.h **** {
 357:Drivers/lvgl/src/widgets/../core/lv_obj_style_gen.h ****     lv_style_value_t v = _lv_obj_style_apply_color_filter(obj, part, lv_obj_get_style_prop(obj, par
 358:Drivers/lvgl/src/widgets/../core/lv_obj_style_gen.h ****     return v.color;
 359:Drivers/lvgl/src/widgets/../core/lv_obj_style_gen.h **** }
 360:Drivers/lvgl/src/widgets/../core/lv_obj_style_gen.h **** 
 361:Drivers/lvgl/src/widgets/../core/lv_obj_style_gen.h **** static inline lv_opa_t lv_obj_get_style_img_recolor_opa(const struct _lv_obj_t * obj, uint32_t part
 362:Drivers/lvgl/src/widgets/../core/lv_obj_style_gen.h **** {
 363:Drivers/lvgl/src/widgets/../core/lv_obj_style_gen.h ****     lv_style_value_t v = lv_obj_get_style_prop(obj, part, LV_STYLE_IMG_RECOLOR_OPA);
 364:Drivers/lvgl/src/widgets/../core/lv_obj_style_gen.h ****     return (lv_opa_t)v.num;
 365:Drivers/lvgl/src/widgets/../core/lv_obj_style_gen.h **** }
 366:Drivers/lvgl/src/widgets/../core/lv_obj_style_gen.h **** 
 367:Drivers/lvgl/src/widgets/../core/lv_obj_style_gen.h **** static inline lv_coord_t lv_obj_get_style_line_width(const struct _lv_obj_t * obj, uint32_t part)
 368:Drivers/lvgl/src/widgets/../core/lv_obj_style_gen.h **** {
 369:Drivers/lvgl/src/widgets/../core/lv_obj_style_gen.h ****     lv_style_value_t v = lv_obj_get_style_prop(obj, part, LV_STYLE_LINE_WIDTH);
 370:Drivers/lvgl/src/widgets/../core/lv_obj_style_gen.h ****     return (lv_coord_t)v.num;
 371:Drivers/lvgl/src/widgets/../core/lv_obj_style_gen.h **** }
 372:Drivers/lvgl/src/widgets/../core/lv_obj_style_gen.h **** 
 373:Drivers/lvgl/src/widgets/../core/lv_obj_style_gen.h **** static inline lv_coord_t lv_obj_get_style_line_dash_width(const struct _lv_obj_t * obj, uint32_t pa
 374:Drivers/lvgl/src/widgets/../core/lv_obj_style_gen.h **** {
 375:Drivers/lvgl/src/widgets/../core/lv_obj_style_gen.h ****     lv_style_value_t v = lv_obj_get_style_prop(obj, part, LV_STYLE_LINE_DASH_WIDTH);
 376:Drivers/lvgl/src/widgets/../core/lv_obj_style_gen.h ****     return (lv_coord_t)v.num;
 377:Drivers/lvgl/src/widgets/../core/lv_obj_style_gen.h **** }
 378:Drivers/lvgl/src/widgets/../core/lv_obj_style_gen.h **** 
 379:Drivers/lvgl/src/widgets/../core/lv_obj_style_gen.h **** static inline lv_coord_t lv_obj_get_style_line_dash_gap(const struct _lv_obj_t * obj, uint32_t part
 380:Drivers/lvgl/src/widgets/../core/lv_obj_style_gen.h **** {
 381:Drivers/lvgl/src/widgets/../core/lv_obj_style_gen.h ****     lv_style_value_t v = lv_obj_get_style_prop(obj, part, LV_STYLE_LINE_DASH_GAP);
 382:Drivers/lvgl/src/widgets/../core/lv_obj_style_gen.h ****     return (lv_coord_t)v.num;
 383:Drivers/lvgl/src/widgets/../core/lv_obj_style_gen.h **** }
 384:Drivers/lvgl/src/widgets/../core/lv_obj_style_gen.h **** 
 385:Drivers/lvgl/src/widgets/../core/lv_obj_style_gen.h **** static inline bool lv_obj_get_style_line_rounded(const struct _lv_obj_t * obj, uint32_t part)
 386:Drivers/lvgl/src/widgets/../core/lv_obj_style_gen.h **** {
 387:Drivers/lvgl/src/widgets/../core/lv_obj_style_gen.h ****     lv_style_value_t v = lv_obj_get_style_prop(obj, part, LV_STYLE_LINE_ROUNDED);
 388:Drivers/lvgl/src/widgets/../core/lv_obj_style_gen.h ****     return (bool)v.num;
 389:Drivers/lvgl/src/widgets/../core/lv_obj_style_gen.h **** }
 390:Drivers/lvgl/src/widgets/../core/lv_obj_style_gen.h **** 
 391:Drivers/lvgl/src/widgets/../core/lv_obj_style_gen.h **** static inline lv_color_t lv_obj_get_style_line_color(const struct _lv_obj_t * obj, uint32_t part)
 392:Drivers/lvgl/src/widgets/../core/lv_obj_style_gen.h **** {
 393:Drivers/lvgl/src/widgets/../core/lv_obj_style_gen.h ****     lv_style_value_t v = lv_obj_get_style_prop(obj, part, LV_STYLE_LINE_COLOR);
ARM GAS  /var/folders/0z/tsy30v1j4xl4_7kw94k978ww0000gn/T//ccDjPiYU.s 			page 60


 394:Drivers/lvgl/src/widgets/../core/lv_obj_style_gen.h ****     return v.color;
 395:Drivers/lvgl/src/widgets/../core/lv_obj_style_gen.h **** }
 396:Drivers/lvgl/src/widgets/../core/lv_obj_style_gen.h **** 
 397:Drivers/lvgl/src/widgets/../core/lv_obj_style_gen.h **** static inline lv_color_t lv_obj_get_style_line_color_filtered(const struct _lv_obj_t * obj, uint32_
 398:Drivers/lvgl/src/widgets/../core/lv_obj_style_gen.h **** {
 399:Drivers/lvgl/src/widgets/../core/lv_obj_style_gen.h ****     lv_style_value_t v = _lv_obj_style_apply_color_filter(obj, part, lv_obj_get_style_prop(obj, par
 400:Drivers/lvgl/src/widgets/../core/lv_obj_style_gen.h ****     return v.color;
 401:Drivers/lvgl/src/widgets/../core/lv_obj_style_gen.h **** }
 402:Drivers/lvgl/src/widgets/../core/lv_obj_style_gen.h **** 
 403:Drivers/lvgl/src/widgets/../core/lv_obj_style_gen.h **** static inline lv_opa_t lv_obj_get_style_line_opa(const struct _lv_obj_t * obj, uint32_t part)
 404:Drivers/lvgl/src/widgets/../core/lv_obj_style_gen.h **** {
 405:Drivers/lvgl/src/widgets/../core/lv_obj_style_gen.h ****     lv_style_value_t v = lv_obj_get_style_prop(obj, part, LV_STYLE_LINE_OPA);
 406:Drivers/lvgl/src/widgets/../core/lv_obj_style_gen.h ****     return (lv_opa_t)v.num;
 407:Drivers/lvgl/src/widgets/../core/lv_obj_style_gen.h **** }
 408:Drivers/lvgl/src/widgets/../core/lv_obj_style_gen.h **** 
 409:Drivers/lvgl/src/widgets/../core/lv_obj_style_gen.h **** static inline lv_coord_t lv_obj_get_style_arc_width(const struct _lv_obj_t * obj, uint32_t part)
 410:Drivers/lvgl/src/widgets/../core/lv_obj_style_gen.h **** {
 411:Drivers/lvgl/src/widgets/../core/lv_obj_style_gen.h ****     lv_style_value_t v = lv_obj_get_style_prop(obj, part, LV_STYLE_ARC_WIDTH);
 412:Drivers/lvgl/src/widgets/../core/lv_obj_style_gen.h ****     return (lv_coord_t)v.num;
 413:Drivers/lvgl/src/widgets/../core/lv_obj_style_gen.h **** }
 414:Drivers/lvgl/src/widgets/../core/lv_obj_style_gen.h **** 
 415:Drivers/lvgl/src/widgets/../core/lv_obj_style_gen.h **** static inline bool lv_obj_get_style_arc_rounded(const struct _lv_obj_t * obj, uint32_t part)
 416:Drivers/lvgl/src/widgets/../core/lv_obj_style_gen.h **** {
 417:Drivers/lvgl/src/widgets/../core/lv_obj_style_gen.h ****     lv_style_value_t v = lv_obj_get_style_prop(obj, part, LV_STYLE_ARC_ROUNDED);
 418:Drivers/lvgl/src/widgets/../core/lv_obj_style_gen.h ****     return (bool)v.num;
 419:Drivers/lvgl/src/widgets/../core/lv_obj_style_gen.h **** }
 420:Drivers/lvgl/src/widgets/../core/lv_obj_style_gen.h **** 
 421:Drivers/lvgl/src/widgets/../core/lv_obj_style_gen.h **** static inline lv_color_t lv_obj_get_style_arc_color(const struct _lv_obj_t * obj, uint32_t part)
 422:Drivers/lvgl/src/widgets/../core/lv_obj_style_gen.h **** {
 423:Drivers/lvgl/src/widgets/../core/lv_obj_style_gen.h ****     lv_style_value_t v = lv_obj_get_style_prop(obj, part, LV_STYLE_ARC_COLOR);
 424:Drivers/lvgl/src/widgets/../core/lv_obj_style_gen.h ****     return v.color;
 425:Drivers/lvgl/src/widgets/../core/lv_obj_style_gen.h **** }
 426:Drivers/lvgl/src/widgets/../core/lv_obj_style_gen.h **** 
 427:Drivers/lvgl/src/widgets/../core/lv_obj_style_gen.h **** static inline lv_color_t lv_obj_get_style_arc_color_filtered(const struct _lv_obj_t * obj, uint32_t
 428:Drivers/lvgl/src/widgets/../core/lv_obj_style_gen.h **** {
 429:Drivers/lvgl/src/widgets/../core/lv_obj_style_gen.h ****     lv_style_value_t v = _lv_obj_style_apply_color_filter(obj, part, lv_obj_get_style_prop(obj, par
 430:Drivers/lvgl/src/widgets/../core/lv_obj_style_gen.h ****     return v.color;
 431:Drivers/lvgl/src/widgets/../core/lv_obj_style_gen.h **** }
 432:Drivers/lvgl/src/widgets/../core/lv_obj_style_gen.h **** 
 433:Drivers/lvgl/src/widgets/../core/lv_obj_style_gen.h **** static inline lv_opa_t lv_obj_get_style_arc_opa(const struct _lv_obj_t * obj, uint32_t part)
 434:Drivers/lvgl/src/widgets/../core/lv_obj_style_gen.h **** {
 435:Drivers/lvgl/src/widgets/../core/lv_obj_style_gen.h ****     lv_style_value_t v = lv_obj_get_style_prop(obj, part, LV_STYLE_ARC_OPA);
 436:Drivers/lvgl/src/widgets/../core/lv_obj_style_gen.h ****     return (lv_opa_t)v.num;
 437:Drivers/lvgl/src/widgets/../core/lv_obj_style_gen.h **** }
 438:Drivers/lvgl/src/widgets/../core/lv_obj_style_gen.h **** 
 439:Drivers/lvgl/src/widgets/../core/lv_obj_style_gen.h **** static inline const void * lv_obj_get_style_arc_img_src(const struct _lv_obj_t * obj, uint32_t part
 440:Drivers/lvgl/src/widgets/../core/lv_obj_style_gen.h **** {
 441:Drivers/lvgl/src/widgets/../core/lv_obj_style_gen.h ****     lv_style_value_t v = lv_obj_get_style_prop(obj, part, LV_STYLE_ARC_IMG_SRC);
 442:Drivers/lvgl/src/widgets/../core/lv_obj_style_gen.h ****     return (const void *)v.ptr;
 443:Drivers/lvgl/src/widgets/../core/lv_obj_style_gen.h **** }
 444:Drivers/lvgl/src/widgets/../core/lv_obj_style_gen.h **** 
 445:Drivers/lvgl/src/widgets/../core/lv_obj_style_gen.h **** static inline lv_color_t lv_obj_get_style_text_color(const struct _lv_obj_t * obj, uint32_t part)
 446:Drivers/lvgl/src/widgets/../core/lv_obj_style_gen.h **** {
 447:Drivers/lvgl/src/widgets/../core/lv_obj_style_gen.h ****     lv_style_value_t v = lv_obj_get_style_prop(obj, part, LV_STYLE_TEXT_COLOR);
 448:Drivers/lvgl/src/widgets/../core/lv_obj_style_gen.h ****     return v.color;
 449:Drivers/lvgl/src/widgets/../core/lv_obj_style_gen.h **** }
 450:Drivers/lvgl/src/widgets/../core/lv_obj_style_gen.h **** 
ARM GAS  /var/folders/0z/tsy30v1j4xl4_7kw94k978ww0000gn/T//ccDjPiYU.s 			page 61


 451:Drivers/lvgl/src/widgets/../core/lv_obj_style_gen.h **** static inline lv_color_t lv_obj_get_style_text_color_filtered(const struct _lv_obj_t * obj, uint32_
 452:Drivers/lvgl/src/widgets/../core/lv_obj_style_gen.h **** {
 453:Drivers/lvgl/src/widgets/../core/lv_obj_style_gen.h ****     lv_style_value_t v = _lv_obj_style_apply_color_filter(obj, part, lv_obj_get_style_prop(obj, par
 454:Drivers/lvgl/src/widgets/../core/lv_obj_style_gen.h ****     return v.color;
 455:Drivers/lvgl/src/widgets/../core/lv_obj_style_gen.h **** }
 456:Drivers/lvgl/src/widgets/../core/lv_obj_style_gen.h **** 
 457:Drivers/lvgl/src/widgets/../core/lv_obj_style_gen.h **** static inline lv_opa_t lv_obj_get_style_text_opa(const struct _lv_obj_t * obj, uint32_t part)
 458:Drivers/lvgl/src/widgets/../core/lv_obj_style_gen.h **** {
 459:Drivers/lvgl/src/widgets/../core/lv_obj_style_gen.h ****     lv_style_value_t v = lv_obj_get_style_prop(obj, part, LV_STYLE_TEXT_OPA);
 460:Drivers/lvgl/src/widgets/../core/lv_obj_style_gen.h ****     return (lv_opa_t)v.num;
 461:Drivers/lvgl/src/widgets/../core/lv_obj_style_gen.h **** }
 462:Drivers/lvgl/src/widgets/../core/lv_obj_style_gen.h **** 
 463:Drivers/lvgl/src/widgets/../core/lv_obj_style_gen.h **** static inline const lv_font_t * lv_obj_get_style_text_font(const struct _lv_obj_t * obj, uint32_t p
 1622              		.loc 3 463 33 view .LVU585
 1623              	.LBB82:
 464:Drivers/lvgl/src/widgets/../core/lv_obj_style_gen.h **** {
 465:Drivers/lvgl/src/widgets/../core/lv_obj_style_gen.h ****     lv_style_value_t v = lv_obj_get_style_prop(obj, part, LV_STYLE_TEXT_FONT);
 1624              		.loc 3 465 5 view .LVU586
 1625              		.loc 3 465 26 is_stmt 0 view .LVU587
 1626 0114 5722     		movs	r2, #87
 1627 0116 0021     		movs	r1, #0
 1628 0118 2046     		mov	r0, r4
 1629 011a FFF7FEFF 		bl	lv_obj_get_style_prop
 1630              	.LVL124:
 1631 011e 0746     		mov	r7, r0
 466:Drivers/lvgl/src/widgets/../core/lv_obj_style_gen.h ****     return (const lv_font_t *)v.ptr;
 1632              		.loc 3 466 5 is_stmt 1 view .LVU588
 1633              	.LVL125:
 1634              		.loc 3 466 5 is_stmt 0 view .LVU589
 1635              	.LBE82:
 1636              	.LBE81:
 140:Drivers/lvgl/src/widgets/lv_img.c ****         lv_coord_t line_space = lv_obj_get_style_text_line_space(obj, LV_PART_MAIN);
 1637              		.loc 1 140 9 is_stmt 1 view .LVU590
 1638              	.LBB83:
 1639              	.LBI83:
 467:Drivers/lvgl/src/widgets/../core/lv_obj_style_gen.h **** }
 468:Drivers/lvgl/src/widgets/../core/lv_obj_style_gen.h **** 
 469:Drivers/lvgl/src/widgets/../core/lv_obj_style_gen.h **** static inline lv_coord_t lv_obj_get_style_text_letter_space(const struct _lv_obj_t * obj, uint32_t 
 1640              		.loc 3 469 26 view .LVU591
 1641              	.LBB84:
 470:Drivers/lvgl/src/widgets/../core/lv_obj_style_gen.h **** {
 471:Drivers/lvgl/src/widgets/../core/lv_obj_style_gen.h ****     lv_style_value_t v = lv_obj_get_style_prop(obj, part, LV_STYLE_TEXT_LETTER_SPACE);
 1642              		.loc 3 471 5 view .LVU592
 1643              		.loc 3 471 26 is_stmt 0 view .LVU593
 1644 0120 5822     		movs	r2, #88
 1645 0122 0021     		movs	r1, #0
 1646 0124 2046     		mov	r0, r4
 1647              	.LVL126:
 1648              		.loc 3 471 26 view .LVU594
 1649 0126 FFF7FEFF 		bl	lv_obj_get_style_prop
 1650              	.LVL127:
 472:Drivers/lvgl/src/widgets/../core/lv_obj_style_gen.h ****     return (lv_coord_t)v.num;
 1651              		.loc 3 472 5 is_stmt 1 view .LVU595
 1652              		.loc 3 472 12 is_stmt 0 view .LVU596
 1653 012a 0FFA80F8 		sxth	r8, r0
 1654              	.LVL128:
 1655              		.loc 3 472 12 view .LVU597
ARM GAS  /var/folders/0z/tsy30v1j4xl4_7kw94k978ww0000gn/T//ccDjPiYU.s 			page 62


 1656              	.LBE84:
 1657              	.LBE83:
 141:Drivers/lvgl/src/widgets/lv_img.c ****         lv_point_t size;
 1658              		.loc 1 141 9 is_stmt 1 view .LVU598
 1659              	.LBB85:
 1660              	.LBI85:
 473:Drivers/lvgl/src/widgets/../core/lv_obj_style_gen.h **** }
 474:Drivers/lvgl/src/widgets/../core/lv_obj_style_gen.h **** 
 475:Drivers/lvgl/src/widgets/../core/lv_obj_style_gen.h **** static inline lv_coord_t lv_obj_get_style_text_line_space(const struct _lv_obj_t * obj, uint32_t pa
 1661              		.loc 3 475 26 view .LVU599
 1662              	.LBB86:
 476:Drivers/lvgl/src/widgets/../core/lv_obj_style_gen.h **** {
 477:Drivers/lvgl/src/widgets/../core/lv_obj_style_gen.h ****     lv_style_value_t v = lv_obj_get_style_prop(obj, part, LV_STYLE_TEXT_LINE_SPACE);
 1663              		.loc 3 477 5 view .LVU600
 1664              		.loc 3 477 26 is_stmt 0 view .LVU601
 1665 012e 5922     		movs	r2, #89
 1666 0130 0021     		movs	r1, #0
 1667 0132 2046     		mov	r0, r4
 1668 0134 FFF7FEFF 		bl	lv_obj_get_style_prop
 1669              	.LVL129:
 478:Drivers/lvgl/src/widgets/../core/lv_obj_style_gen.h ****     return (lv_coord_t)v.num;
 1670              		.loc 3 478 5 is_stmt 1 view .LVU602
 1671              		.loc 3 478 12 is_stmt 0 view .LVU603
 1672 0138 00B2     		sxth	r0, r0
 1673              	.LVL130:
 1674              		.loc 3 478 12 view .LVU604
 1675              	.LBE86:
 1676              	.LBE85:
 142:Drivers/lvgl/src/widgets/lv_img.c ****         lv_txt_get_size(&size, src, font, letter_space, line_space, LV_COORD_MAX, LV_TEXT_FLAG_NONE
 1677              		.loc 1 142 9 is_stmt 1 view .LVU605
 143:Drivers/lvgl/src/widgets/lv_img.c ****         header.w = size.x;
 1678              		.loc 1 143 9 view .LVU606
 1679 013a 0023     		movs	r3, #0
 1680 013c 0293     		str	r3, [sp, #8]
 1681 013e 41F6FF73 		movw	r3, #8191
 1682 0142 0193     		str	r3, [sp, #4]
 1683 0144 0090     		str	r0, [sp]
 1684 0146 4346     		mov	r3, r8
 1685 0148 3A46     		mov	r2, r7
 1686 014a 3146     		mov	r1, r6
 1687 014c 04A8     		add	r0, sp, #16
 1688              	.LVL131:
 143:Drivers/lvgl/src/widgets/lv_img.c ****         header.w = size.x;
 1689              		.loc 1 143 9 is_stmt 0 view .LVU607
 1690 014e FFF7FEFF 		bl	lv_txt_get_size
 1691              	.LVL132:
 144:Drivers/lvgl/src/widgets/lv_img.c ****         header.h = size.y;
 1692              		.loc 1 144 9 is_stmt 1 view .LVU608
 144:Drivers/lvgl/src/widgets/lv_img.c ****         header.h = size.y;
 1693              		.loc 1 144 24 is_stmt 0 view .LVU609
 1694 0152 BDF81020 		ldrh	r2, [sp, #16]
 144:Drivers/lvgl/src/widgets/lv_img.c ****         header.h = size.y;
 1695              		.loc 1 144 18 view .LVU610
 1696 0156 059B     		ldr	r3, [sp, #20]
 1697 0158 62F39423 		bfi	r3, r2, #10, #11
 1698 015c 0593     		str	r3, [sp, #20]
 145:Drivers/lvgl/src/widgets/lv_img.c ****     }
ARM GAS  /var/folders/0z/tsy30v1j4xl4_7kw94k978ww0000gn/T//ccDjPiYU.s 			page 63


 1699              		.loc 1 145 9 is_stmt 1 view .LVU611
 145:Drivers/lvgl/src/widgets/lv_img.c ****     }
 1700              		.loc 1 145 24 is_stmt 0 view .LVU612
 1701 015e BDF81220 		ldrh	r2, [sp, #18]
 145:Drivers/lvgl/src/widgets/lv_img.c ****     }
 1702              		.loc 1 145 18 view .LVU613
 1703 0162 BDF81630 		ldrh	r3, [sp, #22]
 1704 0166 62F34F13 		bfi	r3, r2, #5, #11
 1705 016a ADF81630 		strh	r3, [sp, #22]	@ movhi
 1706 016e 65E7     		b	.L64
 1707              	.LBE80:
 1708              		.cfi_endproc
 1709              	.LFE168:
 1711              		.section	.text.lv_img_event,"ax",%progbits
 1712              		.align	1
 1713              		.syntax unified
 1714              		.thumb
 1715              		.thumb_func
 1717              	lv_img_event:
 1718              	.LVL133:
 1719              	.LFB187:
 438:Drivers/lvgl/src/widgets/lv_img.c ****     LV_UNUSED(class_p);
 1720              		.loc 1 438 1 is_stmt 1 view -0
 1721              		.cfi_startproc
 1722              		@ args = 0, pretend = 0, frame = 8
 1723              		@ frame_needed = 0, uses_anonymous_args = 0
 438:Drivers/lvgl/src/widgets/lv_img.c ****     LV_UNUSED(class_p);
 1724              		.loc 1 438 1 is_stmt 0 view .LVU615
 1725 0000 2DE9F041 		push	{r4, r5, r6, r7, r8, lr}
 1726              		.cfi_def_cfa_offset 24
 1727              		.cfi_offset 4, -24
 1728              		.cfi_offset 5, -20
 1729              		.cfi_offset 6, -16
 1730              		.cfi_offset 7, -12
 1731              		.cfi_offset 8, -8
 1732              		.cfi_offset 14, -4
 1733 0004 84B0     		sub	sp, sp, #16
 1734              		.cfi_def_cfa_offset 40
 1735 0006 0D46     		mov	r5, r1
 439:Drivers/lvgl/src/widgets/lv_img.c **** 
 1736              		.loc 1 439 5 is_stmt 1 view .LVU616
 441:Drivers/lvgl/src/widgets/lv_img.c **** 
 1737              		.loc 1 441 5 view .LVU617
 441:Drivers/lvgl/src/widgets/lv_img.c **** 
 1738              		.loc 1 441 28 is_stmt 0 view .LVU618
 1739 0008 0846     		mov	r0, r1
 1740              	.LVL134:
 441:Drivers/lvgl/src/widgets/lv_img.c **** 
 1741              		.loc 1 441 28 view .LVU619
 1742 000a FFF7FEFF 		bl	lv_event_get_code
 1743              	.LVL135:
 441:Drivers/lvgl/src/widgets/lv_img.c **** 
 1744              		.loc 1 441 28 view .LVU620
 1745 000e 0446     		mov	r4, r0
 1746              	.LVL136:
 444:Drivers/lvgl/src/widgets/lv_img.c ****         /*Call the ancestor's event handler*/
 1747              		.loc 1 444 5 is_stmt 1 view .LVU621
ARM GAS  /var/folders/0z/tsy30v1j4xl4_7kw94k978ww0000gn/T//ccDjPiYU.s 			page 64


 444:Drivers/lvgl/src/widgets/lv_img.c ****         /*Call the ancestor's event handler*/
 1748              		.loc 1 444 7 is_stmt 0 view .LVU622
 1749 0010 1528     		cmp	r0, #21
 1750 0012 01D0     		beq	.L73
 444:Drivers/lvgl/src/widgets/lv_img.c ****         /*Call the ancestor's event handler*/
 1751              		.loc 1 444 35 discriminator 1 view .LVU623
 1752 0014 1828     		cmp	r0, #24
 1753 0016 26D1     		bne	.L88
 1754              	.LVL137:
 1755              	.L73:
 450:Drivers/lvgl/src/widgets/lv_img.c ****     lv_img_t * img = (lv_img_t *)obj;
 1756              		.loc 1 450 5 is_stmt 1 view .LVU624
 450:Drivers/lvgl/src/widgets/lv_img.c ****     lv_img_t * img = (lv_img_t *)obj;
 1757              		.loc 1 450 22 is_stmt 0 view .LVU625
 1758 0018 2846     		mov	r0, r5
 1759 001a FFF7FEFF 		bl	lv_event_get_target
 1760              	.LVL138:
 1761 001e 0646     		mov	r6, r0
 1762              	.LVL139:
 451:Drivers/lvgl/src/widgets/lv_img.c **** 
 1763              		.loc 1 451 5 is_stmt 1 view .LVU626
 453:Drivers/lvgl/src/widgets/lv_img.c ****         /*Refresh the file name to refresh the symbol text size*/
 1764              		.loc 1 453 5 view .LVU627
 453:Drivers/lvgl/src/widgets/lv_img.c ****         /*Refresh the file name to refresh the symbol text size*/
 1765              		.loc 1 453 7 is_stmt 0 view .LVU628
 1766 0020 2A2C     		cmp	r4, #42
 1767 0022 29D0     		beq	.L89
 463:Drivers/lvgl/src/widgets/lv_img.c **** 
 1768              		.loc 1 463 10 is_stmt 1 view .LVU629
 1769 0024 113C     		subs	r4, r4, #17
 1770 0026 1B2C     		cmp	r4, #27
 1771 0028 23D8     		bhi	.L72
 1772 002a DFE814F0 		tbh	[pc, r4, lsl #1]
 1773              	.L78:
 1774 002e 7300     		.2byte	(.L81-.L78)/2
 1775 0030 F200     		.2byte	(.L79-.L78)/2
 1776 0032 3200     		.2byte	(.L80-.L78)/2
 1777 0034 2200     		.2byte	(.L72-.L78)/2
 1778 0036 F200     		.2byte	(.L79-.L78)/2
 1779 0038 2200     		.2byte	(.L72-.L78)/2
 1780 003a 2200     		.2byte	(.L72-.L78)/2
 1781 003c F200     		.2byte	(.L79-.L78)/2
 1782 003e 2200     		.2byte	(.L72-.L78)/2
 1783 0040 2200     		.2byte	(.L72-.L78)/2
 1784 0042 2200     		.2byte	(.L72-.L78)/2
 1785 0044 2200     		.2byte	(.L72-.L78)/2
 1786 0046 2200     		.2byte	(.L72-.L78)/2
 1787 0048 2200     		.2byte	(.L72-.L78)/2
 1788 004a 2200     		.2byte	(.L72-.L78)/2
 1789 004c 2200     		.2byte	(.L72-.L78)/2
 1790 004e 2200     		.2byte	(.L72-.L78)/2
 1791 0050 2200     		.2byte	(.L72-.L78)/2
 1792 0052 2200     		.2byte	(.L72-.L78)/2
 1793 0054 2200     		.2byte	(.L72-.L78)/2
 1794 0056 2200     		.2byte	(.L72-.L78)/2
 1795 0058 2200     		.2byte	(.L72-.L78)/2
 1796 005a 2200     		.2byte	(.L72-.L78)/2
ARM GAS  /var/folders/0z/tsy30v1j4xl4_7kw94k978ww0000gn/T//ccDjPiYU.s 			page 65


 1797 005c 2200     		.2byte	(.L72-.L78)/2
 1798 005e 2200     		.2byte	(.L72-.L78)/2
 1799 0060 2200     		.2byte	(.L72-.L78)/2
 1800 0062 2200     		.2byte	(.L72-.L78)/2
 1801 0064 D900     		.2byte	(.L77-.L78)/2
 1802              	.LVL140:
 1803              		.p2align 1
 1804              	.L88:
 1805              	.LBB87:
 446:Drivers/lvgl/src/widgets/lv_img.c ****         if(res != LV_RES_OK) return;
 1806              		.loc 1 446 9 view .LVU630
 446:Drivers/lvgl/src/widgets/lv_img.c ****         if(res != LV_RES_OK) return;
 1807              		.loc 1 446 24 is_stmt 0 view .LVU631
 1808 0066 2946     		mov	r1, r5
 1809 0068 6C48     		ldr	r0, .L94
 1810              	.LVL141:
 446:Drivers/lvgl/src/widgets/lv_img.c ****         if(res != LV_RES_OK) return;
 1811              		.loc 1 446 24 view .LVU632
 1812 006a FFF7FEFF 		bl	lv_obj_event_base
 1813              	.LVL142:
 447:Drivers/lvgl/src/widgets/lv_img.c ****     }
 1814              		.loc 1 447 9 is_stmt 1 view .LVU633
 447:Drivers/lvgl/src/widgets/lv_img.c ****     }
 1815              		.loc 1 447 11 is_stmt 0 view .LVU634
 1816 006e 0128     		cmp	r0, #1
 1817 0070 D2D0     		beq	.L73
 1818              	.LVL143:
 1819              	.L72:
 447:Drivers/lvgl/src/widgets/lv_img.c ****     }
 1820              		.loc 1 447 11 view .LVU635
 1821              	.LBE87:
 517:Drivers/lvgl/src/widgets/lv_img.c **** 
 1822              		.loc 1 517 1 view .LVU636
 1823 0072 04B0     		add	sp, sp, #16
 1824              		.cfi_remember_state
 1825              		.cfi_def_cfa_offset 24
 1826              		@ sp needed
 1827 0074 BDE8F081 		pop	{r4, r5, r6, r7, r8, pc}
 1828              	.LVL144:
 1829              	.L89:
 1830              		.cfi_restore_state
 455:Drivers/lvgl/src/widgets/lv_img.c ****             lv_img_set_src(obj, img->src);
 1831              		.loc 1 455 9 is_stmt 1 view .LVU637
 455:Drivers/lvgl/src/widgets/lv_img.c ****             lv_img_set_src(obj, img->src);
 1832              		.loc 1 455 26 is_stmt 0 view .LVU638
 1833 0078 90F83830 		ldrb	r3, [r0, #56]	@ zero_extendqisi2
 1834 007c 03F00303 		and	r3, r3, #3
 455:Drivers/lvgl/src/widgets/lv_img.c ****             lv_img_set_src(obj, img->src);
 1835              		.loc 1 455 11 view .LVU639
 1836 0080 022B     		cmp	r3, #2
 1837 0082 02D0     		beq	.L90
 460:Drivers/lvgl/src/widgets/lv_img.c ****         }
 1838              		.loc 1 460 13 is_stmt 1 view .LVU640
 1839 0084 FFF7FEFF 		bl	lv_obj_refresh_ext_draw_size
 1840              	.LVL145:
 460:Drivers/lvgl/src/widgets/lv_img.c ****         }
 1841              		.loc 1 460 13 is_stmt 0 view .LVU641
ARM GAS  /var/folders/0z/tsy30v1j4xl4_7kw94k978ww0000gn/T//ccDjPiYU.s 			page 66


 1842 0088 F3E7     		b	.L72
 1843              	.LVL146:
 1844              	.L90:
 456:Drivers/lvgl/src/widgets/lv_img.c ****         }
 1845              		.loc 1 456 13 is_stmt 1 view .LVU642
 1846 008a 416A     		ldr	r1, [r0, #36]
 1847 008c FFF7FEFF 		bl	lv_img_set_src
 1848              	.LVL147:
 456:Drivers/lvgl/src/widgets/lv_img.c ****         }
 1849              		.loc 1 456 13 is_stmt 0 view .LVU643
 1850 0090 EFE7     		b	.L72
 1851              	.LVL148:
 1852              	.L80:
 1853              	.LBB88:
 465:Drivers/lvgl/src/widgets/lv_img.c **** 
 1854              		.loc 1 465 9 is_stmt 1 view .LVU644
 465:Drivers/lvgl/src/widgets/lv_img.c **** 
 1855              		.loc 1 465 26 is_stmt 0 view .LVU645
 1856 0092 2846     		mov	r0, r5
 1857              	.LVL149:
 465:Drivers/lvgl/src/widgets/lv_img.c **** 
 1858              		.loc 1 465 26 view .LVU646
 1859 0094 FFF7FEFF 		bl	lv_event_get_param
 1860              	.LVL150:
 1861 0098 0546     		mov	r5, r0
 1862              	.LVL151:
 468:Drivers/lvgl/src/widgets/lv_img.c ****             lv_area_t a;
 1863              		.loc 1 468 9 is_stmt 1 view .LVU647
 468:Drivers/lvgl/src/widgets/lv_img.c ****             lv_area_t a;
 1864              		.loc 1 468 15 is_stmt 0 view .LVU648
 1865 009a 338E     		ldrh	r3, [r6, #48]
 468:Drivers/lvgl/src/widgets/lv_img.c ****             lv_area_t a;
 1866              		.loc 1 468 11 view .LVU649
 1867 009c 1BB9     		cbnz	r3, .L82
 468:Drivers/lvgl/src/widgets/lv_img.c ****             lv_area_t a;
 1868              		.loc 1 468 29 discriminator 1 view .LVU650
 1869 009e F38E     		ldrh	r3, [r6, #54]
 468:Drivers/lvgl/src/widgets/lv_img.c ****             lv_area_t a;
 1870              		.loc 1 468 23 discriminator 1 view .LVU651
 1871 00a0 B3F5807F 		cmp	r3, #256
 1872 00a4 E5D0     		beq	.L72
 1873              	.L82:
 1874              	.LBB89:
 469:Drivers/lvgl/src/widgets/lv_img.c ****             lv_coord_t w = lv_obj_get_width(obj);
 1875              		.loc 1 469 13 is_stmt 1 view .LVU652
 470:Drivers/lvgl/src/widgets/lv_img.c ****             lv_coord_t h = lv_obj_get_height(obj);
 1876              		.loc 1 470 13 view .LVU653
 470:Drivers/lvgl/src/widgets/lv_img.c ****             lv_coord_t h = lv_obj_get_height(obj);
 1877              		.loc 1 470 28 is_stmt 0 view .LVU654
 1878 00a6 3046     		mov	r0, r6
 1879              	.LVL152:
 470:Drivers/lvgl/src/widgets/lv_img.c ****             lv_coord_t h = lv_obj_get_height(obj);
 1880              		.loc 1 470 28 view .LVU655
 1881 00a8 FFF7FEFF 		bl	lv_obj_get_width
 1882              	.LVL153:
 1883 00ac 8046     		mov	r8, r0
 1884              	.LVL154:
ARM GAS  /var/folders/0z/tsy30v1j4xl4_7kw94k978ww0000gn/T//ccDjPiYU.s 			page 67


 471:Drivers/lvgl/src/widgets/lv_img.c ****             _lv_img_buf_get_transformed_area(&a, w, h, img->angle, img->zoom, &img->pivot);
 1885              		.loc 1 471 13 is_stmt 1 view .LVU656
 471:Drivers/lvgl/src/widgets/lv_img.c ****             _lv_img_buf_get_transformed_area(&a, w, h, img->angle, img->zoom, &img->pivot);
 1886              		.loc 1 471 28 is_stmt 0 view .LVU657
 1887 00ae 3046     		mov	r0, r6
 1888 00b0 FFF7FEFF 		bl	lv_obj_get_height
 1889              	.LVL155:
 1890 00b4 0746     		mov	r7, r0
 1891              	.LVL156:
 472:Drivers/lvgl/src/widgets/lv_img.c ****             *s = LV_MAX(*s, -a.x1);
 1892              		.loc 1 472 13 is_stmt 1 view .LVU658
 472:Drivers/lvgl/src/widgets/lv_img.c ****             *s = LV_MAX(*s, -a.x1);
 1893              		.loc 1 472 79 is_stmt 0 view .LVU659
 1894 00b6 06F13202 		add	r2, r6, #50
 472:Drivers/lvgl/src/widgets/lv_img.c ****             *s = LV_MAX(*s, -a.x1);
 1895              		.loc 1 472 13 view .LVU660
 1896 00ba B6F93030 		ldrsh	r3, [r6, #48]
 1897 00be 0192     		str	r2, [sp, #4]
 1898 00c0 F28E     		ldrh	r2, [r6, #54]
 1899 00c2 0092     		str	r2, [sp]
 1900 00c4 0246     		mov	r2, r0
 1901 00c6 4146     		mov	r1, r8
 1902 00c8 02A8     		add	r0, sp, #8
 1903              	.LVL157:
 472:Drivers/lvgl/src/widgets/lv_img.c ****             *s = LV_MAX(*s, -a.x1);
 1904              		.loc 1 472 13 view .LVU661
 1905 00ca FFF7FEFF 		bl	_lv_img_buf_get_transformed_area
 1906              	.LVL158:
 473:Drivers/lvgl/src/widgets/lv_img.c ****             *s = LV_MAX(*s, -a.y1);
 1907              		.loc 1 473 13 is_stmt 1 view .LVU662
 473:Drivers/lvgl/src/widgets/lv_img.c ****             *s = LV_MAX(*s, -a.y1);
 1908              		.loc 1 473 18 is_stmt 0 view .LVU663
 1909 00ce BDF90830 		ldrsh	r3, [sp, #8]
 1910 00d2 5B42     		rsbs	r3, r3, #0
 1911 00d4 B5F90020 		ldrsh	r2, [r5]
 1912 00d8 9342     		cmp	r3, r2
 1913 00da B8BF     		it	lt
 1914 00dc 1346     		movlt	r3, r2
 473:Drivers/lvgl/src/widgets/lv_img.c ****             *s = LV_MAX(*s, -a.y1);
 1915              		.loc 1 473 16 view .LVU664
 1916 00de 1BB2     		sxth	r3, r3
 1917 00e0 2B80     		strh	r3, [r5]	@ movhi
 474:Drivers/lvgl/src/widgets/lv_img.c ****             *s = LV_MAX(*s, a.x2 - w);
 1918              		.loc 1 474 13 is_stmt 1 view .LVU665
 474:Drivers/lvgl/src/widgets/lv_img.c ****             *s = LV_MAX(*s, a.x2 - w);
 1919              		.loc 1 474 18 is_stmt 0 view .LVU666
 1920 00e2 BDF90A40 		ldrsh	r4, [sp, #10]
 1921 00e6 6442     		rsbs	r4, r4, #0
 1922 00e8 9C42     		cmp	r4, r3
 1923 00ea B8BF     		it	lt
 1924 00ec 1C46     		movlt	r4, r3
 474:Drivers/lvgl/src/widgets/lv_img.c ****             *s = LV_MAX(*s, a.x2 - w);
 1925              		.loc 1 474 16 view .LVU667
 1926 00ee 24B2     		sxth	r4, r4
 1927 00f0 2C80     		strh	r4, [r5]	@ movhi
 475:Drivers/lvgl/src/widgets/lv_img.c ****             *s = LV_MAX(*s, a.y2 - h);
 1928              		.loc 1 475 13 is_stmt 1 view .LVU668
ARM GAS  /var/folders/0z/tsy30v1j4xl4_7kw94k978ww0000gn/T//ccDjPiYU.s 			page 68


 475:Drivers/lvgl/src/widgets/lv_img.c ****             *s = LV_MAX(*s, a.y2 - h);
 1929              		.loc 1 475 18 is_stmt 0 view .LVU669
 1930 00f2 BDF90C30 		ldrsh	r3, [sp, #12]
 1931 00f6 A3EB0803 		sub	r3, r3, r8
 1932 00fa A342     		cmp	r3, r4
 1933 00fc B8BF     		it	lt
 1934 00fe 2346     		movlt	r3, r4
 475:Drivers/lvgl/src/widgets/lv_img.c ****             *s = LV_MAX(*s, a.y2 - h);
 1935              		.loc 1 475 16 view .LVU670
 1936 0100 1BB2     		sxth	r3, r3
 1937 0102 2B80     		strh	r3, [r5]	@ movhi
 476:Drivers/lvgl/src/widgets/lv_img.c ****         }
 1938              		.loc 1 476 13 is_stmt 1 view .LVU671
 476:Drivers/lvgl/src/widgets/lv_img.c ****         }
 1939              		.loc 1 476 18 is_stmt 0 view .LVU672
 1940 0104 BDF90E20 		ldrsh	r2, [sp, #14]
 1941 0108 D21B     		subs	r2, r2, r7
 1942 010a 9342     		cmp	r3, r2
 1943 010c B8BF     		it	lt
 1944 010e 1346     		movlt	r3, r2
 476:Drivers/lvgl/src/widgets/lv_img.c ****         }
 1945              		.loc 1 476 16 view .LVU673
 1946 0110 2B80     		strh	r3, [r5]	@ movhi
 1947 0112 AEE7     		b	.L72
 1948              	.LVL159:
 1949              	.L81:
 476:Drivers/lvgl/src/widgets/lv_img.c ****         }
 1950              		.loc 1 476 16 view .LVU674
 1951              	.LBE89:
 1952              	.LBE88:
 1953              	.LBB90:
 480:Drivers/lvgl/src/widgets/lv_img.c **** 
 1954              		.loc 1 480 9 is_stmt 1 view .LVU675
 480:Drivers/lvgl/src/widgets/lv_img.c **** 
 1955              		.loc 1 480 37 is_stmt 0 view .LVU676
 1956 0114 2846     		mov	r0, r5
 1957              	.LVL160:
 480:Drivers/lvgl/src/widgets/lv_img.c **** 
 1958              		.loc 1 480 37 view .LVU677
 1959 0116 FFF7FEFF 		bl	lv_event_get_param
 1960              	.LVL161:
 1961 011a 0446     		mov	r4, r0
 1962              	.LVL162:
 484:Drivers/lvgl/src/widgets/lv_img.c ****            (img->zoom != LV_IMG_ZOOM_NONE || img->angle != 0 || img->pivot.x != img->w / 2 || img->
 1963              		.loc 1 484 9 is_stmt 1 view .LVU678
 484:Drivers/lvgl/src/widgets/lv_img.c ****            (img->zoom != LV_IMG_ZOOM_NONE || img->angle != 0 || img->pivot.x != img->w / 2 || img->
 1964              		.loc 1 484 15 is_stmt 0 view .LVU679
 1965 011c B6F92C50 		ldrsh	r5, [r6, #44]
 1966              	.LVL163:
 484:Drivers/lvgl/src/widgets/lv_img.c ****            (img->zoom != LV_IMG_ZOOM_NONE || img->angle != 0 || img->pivot.x != img->w / 2 || img->
 1967              		.loc 1 484 22 view .LVU680
 1968 0120 3046     		mov	r0, r6
 1969              	.LVL164:
 484:Drivers/lvgl/src/widgets/lv_img.c ****            (img->zoom != LV_IMG_ZOOM_NONE || img->angle != 0 || img->pivot.x != img->w / 2 || img->
 1970              		.loc 1 484 22 view .LVU681
 1971 0122 FFF7FEFF 		bl	lv_obj_get_width
 1972              	.LVL165:
ARM GAS  /var/folders/0z/tsy30v1j4xl4_7kw94k978ww0000gn/T//ccDjPiYU.s 			page 69


 484:Drivers/lvgl/src/widgets/lv_img.c ****            (img->zoom != LV_IMG_ZOOM_NONE || img->angle != 0 || img->pivot.x != img->w / 2 || img->
 1973              		.loc 1 484 11 view .LVU682
 1974 0126 8542     		cmp	r5, r0
 1975 0128 0AD0     		beq	.L91
 1976              	.L83:
 1977              	.LBB91:
 499:Drivers/lvgl/src/widgets/lv_img.c ****             lv_obj_get_click_area(obj, &a);
 1978              		.loc 1 499 13 is_stmt 1 discriminator 5 view .LVU683
 500:Drivers/lvgl/src/widgets/lv_img.c ****             info->res = _lv_area_is_point_on(&a, info->point, 0);
 1979              		.loc 1 500 13 discriminator 5 view .LVU684
 1980 012a 02A9     		add	r1, sp, #8
 1981 012c 3046     		mov	r0, r6
 1982 012e FFF7FEFF 		bl	lv_obj_get_click_area
 1983              	.LVL166:
 501:Drivers/lvgl/src/widgets/lv_img.c ****         }
 1984              		.loc 1 501 13 discriminator 5 view .LVU685
 501:Drivers/lvgl/src/widgets/lv_img.c ****         }
 1985              		.loc 1 501 25 is_stmt 0 discriminator 5 view .LVU686
 1986 0132 0022     		movs	r2, #0
 1987 0134 2168     		ldr	r1, [r4]
 1988 0136 02A8     		add	r0, sp, #8
 1989 0138 FFF7FEFF 		bl	_lv_area_is_point_on
 1990              	.LVL167:
 501:Drivers/lvgl/src/widgets/lv_img.c ****         }
 1991              		.loc 1 501 23 discriminator 5 view .LVU687
 1992 013c 2071     		strb	r0, [r4, #4]
 1993 013e 98E7     		b	.L72
 1994              	.L91:
 501:Drivers/lvgl/src/widgets/lv_img.c ****         }
 1995              		.loc 1 501 23 discriminator 5 view .LVU688
 1996              	.LBE91:
 484:Drivers/lvgl/src/widgets/lv_img.c ****            (img->zoom != LV_IMG_ZOOM_NONE || img->angle != 0 || img->pivot.x != img->w / 2 || img->
 1997              		.loc 1 484 50 discriminator 1 view .LVU689
 1998 0140 B6F92E50 		ldrsh	r5, [r6, #46]
 484:Drivers/lvgl/src/widgets/lv_img.c ****            (img->zoom != LV_IMG_ZOOM_NONE || img->angle != 0 || img->pivot.x != img->w / 2 || img->
 1999              		.loc 1 484 57 discriminator 1 view .LVU690
 2000 0144 3046     		mov	r0, r6
 2001 0146 FFF7FEFF 		bl	lv_obj_get_height
 2002              	.LVL168:
 484:Drivers/lvgl/src/widgets/lv_img.c ****            (img->zoom != LV_IMG_ZOOM_NONE || img->angle != 0 || img->pivot.x != img->w / 2 || img->
 2003              		.loc 1 484 44 discriminator 1 view .LVU691
 2004 014a 8542     		cmp	r5, r0
 2005 014c EDD1     		bne	.L83
 485:Drivers/lvgl/src/widgets/lv_img.c **** 
 2006              		.loc 1 485 16 discriminator 2 view .LVU692
 2007 014e F38E     		ldrh	r3, [r6, #54]
 484:Drivers/lvgl/src/widgets/lv_img.c ****            (img->zoom != LV_IMG_ZOOM_NONE || img->angle != 0 || img->pivot.x != img->w / 2 || img->
 2008              		.loc 1 484 80 discriminator 2 view .LVU693
 2009 0150 B3F5807F 		cmp	r3, #256
 2010 0154 0AD1     		bne	.L84
 485:Drivers/lvgl/src/widgets/lv_img.c **** 
 2011              		.loc 1 485 49 view .LVU694
 2012 0156 338E     		ldrh	r3, [r6, #48]
 485:Drivers/lvgl/src/widgets/lv_img.c **** 
 2013              		.loc 1 485 43 view .LVU695
 2014 0158 43B9     		cbnz	r3, .L84
 485:Drivers/lvgl/src/widgets/lv_img.c **** 
ARM GAS  /var/folders/0z/tsy30v1j4xl4_7kw94k978ww0000gn/T//ccDjPiYU.s 			page 70


 2015              		.loc 1 485 75 discriminator 1 view .LVU696
 2016 015a B6F93220 		ldrsh	r2, [r6, #50]
 485:Drivers/lvgl/src/widgets/lv_img.c **** 
 2017              		.loc 1 485 84 discriminator 1 view .LVU697
 2018 015e B6F92C30 		ldrsh	r3, [r6, #44]
 485:Drivers/lvgl/src/widgets/lv_img.c **** 
 2019              		.loc 1 485 78 discriminator 1 view .LVU698
 2020 0162 03EBD373 		add	r3, r3, r3, lsr #31
 485:Drivers/lvgl/src/widgets/lv_img.c **** 
 2021              		.loc 1 485 62 discriminator 1 view .LVU699
 2022 0166 B2EB630F 		cmp	r2, r3, asr #1
 2023 016a 2FD0     		beq	.L92
 2024              	.L84:
 2025              	.LBB92:
 487:Drivers/lvgl/src/widgets/lv_img.c ****             lv_coord_t h = lv_obj_get_height(obj);
 2026              		.loc 1 487 13 is_stmt 1 view .LVU700
 487:Drivers/lvgl/src/widgets/lv_img.c ****             lv_coord_t h = lv_obj_get_height(obj);
 2027              		.loc 1 487 28 is_stmt 0 view .LVU701
 2028 016c 3046     		mov	r0, r6
 2029 016e FFF7FEFF 		bl	lv_obj_get_width
 2030              	.LVL169:
 2031 0172 0546     		mov	r5, r0
 2032              	.LVL170:
 488:Drivers/lvgl/src/widgets/lv_img.c ****             lv_area_t coords;
 2033              		.loc 1 488 13 is_stmt 1 view .LVU702
 488:Drivers/lvgl/src/widgets/lv_img.c ****             lv_area_t coords;
 2034              		.loc 1 488 28 is_stmt 0 view .LVU703
 2035 0174 3046     		mov	r0, r6
 2036 0176 FFF7FEFF 		bl	lv_obj_get_height
 2037              	.LVL171:
 2038 017a 0246     		mov	r2, r0
 2039              	.LVL172:
 489:Drivers/lvgl/src/widgets/lv_img.c ****             _lv_img_buf_get_transformed_area(&coords, w, h, img->angle, img->zoom, &img->pivot);
 2040              		.loc 1 489 13 is_stmt 1 view .LVU704
 490:Drivers/lvgl/src/widgets/lv_img.c ****             coords.x1 += obj->coords.x1;
 2041              		.loc 1 490 13 view .LVU705
 490:Drivers/lvgl/src/widgets/lv_img.c ****             coords.x1 += obj->coords.x1;
 2042              		.loc 1 490 84 is_stmt 0 view .LVU706
 2043 017c 06F13201 		add	r1, r6, #50
 490:Drivers/lvgl/src/widgets/lv_img.c ****             coords.x1 += obj->coords.x1;
 2044              		.loc 1 490 13 view .LVU707
 2045 0180 B6F93030 		ldrsh	r3, [r6, #48]
 2046 0184 0191     		str	r1, [sp, #4]
 2047 0186 F18E     		ldrh	r1, [r6, #54]
 2048 0188 0091     		str	r1, [sp]
 2049 018a 2946     		mov	r1, r5
 2050 018c 02A8     		add	r0, sp, #8
 2051 018e FFF7FEFF 		bl	_lv_img_buf_get_transformed_area
 2052              	.LVL173:
 491:Drivers/lvgl/src/widgets/lv_img.c ****             coords.y1 += obj->coords.y1;
 2053              		.loc 1 491 13 is_stmt 1 view .LVU708
 491:Drivers/lvgl/src/widgets/lv_img.c ****             coords.y1 += obj->coords.y1;
 2054              		.loc 1 491 37 is_stmt 0 view .LVU709
 2055 0192 B28A     		ldrh	r2, [r6, #20]
 491:Drivers/lvgl/src/widgets/lv_img.c ****             coords.y1 += obj->coords.y1;
 2056              		.loc 1 491 23 view .LVU710
 2057 0194 BDF80830 		ldrh	r3, [sp, #8]
ARM GAS  /var/folders/0z/tsy30v1j4xl4_7kw94k978ww0000gn/T//ccDjPiYU.s 			page 71


 2058 0198 1344     		add	r3, r3, r2
 2059 019a ADF80830 		strh	r3, [sp, #8]	@ movhi
 492:Drivers/lvgl/src/widgets/lv_img.c ****             coords.x2 += obj->coords.x1;
 2060              		.loc 1 492 13 is_stmt 1 view .LVU711
 492:Drivers/lvgl/src/widgets/lv_img.c ****             coords.x2 += obj->coords.x1;
 2061              		.loc 1 492 37 is_stmt 0 view .LVU712
 2062 019e F38A     		ldrh	r3, [r6, #22]
 492:Drivers/lvgl/src/widgets/lv_img.c ****             coords.x2 += obj->coords.x1;
 2063              		.loc 1 492 23 view .LVU713
 2064 01a0 BDF80A10 		ldrh	r1, [sp, #10]
 2065 01a4 1944     		add	r1, r1, r3
 2066 01a6 ADF80A10 		strh	r1, [sp, #10]	@ movhi
 493:Drivers/lvgl/src/widgets/lv_img.c ****             coords.y2 += obj->coords.y1;
 2067              		.loc 1 493 13 is_stmt 1 view .LVU714
 493:Drivers/lvgl/src/widgets/lv_img.c ****             coords.y2 += obj->coords.y1;
 2068              		.loc 1 493 23 is_stmt 0 view .LVU715
 2069 01aa BDF80C10 		ldrh	r1, [sp, #12]
 2070 01ae 0A44     		add	r2, r2, r1
 2071 01b0 ADF80C20 		strh	r2, [sp, #12]	@ movhi
 494:Drivers/lvgl/src/widgets/lv_img.c **** 
 2072              		.loc 1 494 13 is_stmt 1 view .LVU716
 494:Drivers/lvgl/src/widgets/lv_img.c **** 
 2073              		.loc 1 494 23 is_stmt 0 view .LVU717
 2074 01b4 BDF80E20 		ldrh	r2, [sp, #14]
 2075 01b8 1344     		add	r3, r3, r2
 2076 01ba ADF80E30 		strh	r3, [sp, #14]	@ movhi
 496:Drivers/lvgl/src/widgets/lv_img.c ****         }
 2077              		.loc 1 496 13 is_stmt 1 view .LVU718
 496:Drivers/lvgl/src/widgets/lv_img.c ****         }
 2078              		.loc 1 496 25 is_stmt 0 view .LVU719
 2079 01be 0022     		movs	r2, #0
 2080 01c0 2168     		ldr	r1, [r4]
 2081 01c2 02A8     		add	r0, sp, #8
 2082 01c4 FFF7FEFF 		bl	_lv_area_is_point_on
 2083              	.LVL174:
 496:Drivers/lvgl/src/widgets/lv_img.c ****         }
 2084              		.loc 1 496 23 view .LVU720
 2085 01c8 2071     		strb	r0, [r4, #4]
 2086              	.LBE92:
 485:Drivers/lvgl/src/widgets/lv_img.c **** 
 2087              		.loc 1 485 124 view .LVU721
 2088 01ca 52E7     		b	.L72
 2089              	.LVL175:
 2090              	.L92:
 485:Drivers/lvgl/src/widgets/lv_img.c **** 
 2091              		.loc 1 485 105 discriminator 2 view .LVU722
 2092 01cc B6F93420 		ldrsh	r2, [r6, #52]
 485:Drivers/lvgl/src/widgets/lv_img.c **** 
 2093              		.loc 1 485 114 discriminator 2 view .LVU723
 2094 01d0 B6F92E30 		ldrsh	r3, [r6, #46]
 485:Drivers/lvgl/src/widgets/lv_img.c **** 
 2095              		.loc 1 485 108 discriminator 2 view .LVU724
 2096 01d4 03EBD373 		add	r3, r3, r3, lsr #31
 485:Drivers/lvgl/src/widgets/lv_img.c **** 
 2097              		.loc 1 485 92 discriminator 2 view .LVU725
 2098 01d8 B2EB630F 		cmp	r2, r3, asr #1
 2099 01dc C6D1     		bne	.L84
ARM GAS  /var/folders/0z/tsy30v1j4xl4_7kw94k978ww0000gn/T//ccDjPiYU.s 			page 72


 2100 01de A4E7     		b	.L83
 2101              	.LVL176:
 2102              	.L77:
 485:Drivers/lvgl/src/widgets/lv_img.c **** 
 2103              		.loc 1 485 92 discriminator 2 view .LVU726
 2104              	.LBE90:
 2105              	.LBB93:
 505:Drivers/lvgl/src/widgets/lv_img.c ****         if(img->obj_size_mode == LV_IMG_SIZE_MODE_REAL) {
 2106              		.loc 1 505 9 is_stmt 1 view .LVU727
 505:Drivers/lvgl/src/widgets/lv_img.c ****         if(img->obj_size_mode == LV_IMG_SIZE_MODE_REAL) {
 2107              		.loc 1 505 26 is_stmt 0 view .LVU728
 2108 01e0 2846     		mov	r0, r5
 2109              	.LVL177:
 505:Drivers/lvgl/src/widgets/lv_img.c ****         if(img->obj_size_mode == LV_IMG_SIZE_MODE_REAL) {
 2110              		.loc 1 505 26 view .LVU729
 2111 01e2 FFF7FEFF 		bl	lv_event_get_param
 2112              	.LVL178:
 2113 01e6 0446     		mov	r4, r0
 2114              	.LVL179:
 506:Drivers/lvgl/src/widgets/lv_img.c ****             *p = lv_img_get_transformed_size(obj);
 2115              		.loc 1 506 9 is_stmt 1 view .LVU730
 506:Drivers/lvgl/src/widgets/lv_img.c ****             *p = lv_img_get_transformed_size(obj);
 2116              		.loc 1 506 31 is_stmt 0 view .LVU731
 2117 01e8 96F83930 		ldrb	r3, [r6, #57]	@ zero_extendqisi2
 2118 01ec 03F00303 		and	r3, r3, #3
 506:Drivers/lvgl/src/widgets/lv_img.c ****             *p = lv_img_get_transformed_size(obj);
 2119              		.loc 1 506 11 view .LVU732
 2120 01f0 012B     		cmp	r3, #1
 2121 01f2 06D0     		beq	.L93
 510:Drivers/lvgl/src/widgets/lv_img.c ****             p->y = img->h;
 2122              		.loc 1 510 13 is_stmt 1 view .LVU733
 510:Drivers/lvgl/src/widgets/lv_img.c ****             p->y = img->h;
 2123              		.loc 1 510 23 is_stmt 0 view .LVU734
 2124 01f4 B6F92C30 		ldrsh	r3, [r6, #44]
 510:Drivers/lvgl/src/widgets/lv_img.c ****             p->y = img->h;
 2125              		.loc 1 510 18 view .LVU735
 2126 01f8 0380     		strh	r3, [r0]	@ movhi
 511:Drivers/lvgl/src/widgets/lv_img.c ****         }
 2127              		.loc 1 511 13 is_stmt 1 view .LVU736
 511:Drivers/lvgl/src/widgets/lv_img.c ****         }
 2128              		.loc 1 511 23 is_stmt 0 view .LVU737
 2129 01fa B6F92E30 		ldrsh	r3, [r6, #46]
 511:Drivers/lvgl/src/widgets/lv_img.c ****         }
 2130              		.loc 1 511 18 view .LVU738
 2131 01fe 4380     		strh	r3, [r0, #2]	@ movhi
 2132 0200 37E7     		b	.L72
 2133              	.L93:
 507:Drivers/lvgl/src/widgets/lv_img.c ****         }
 2134              		.loc 1 507 13 is_stmt 1 view .LVU739
 507:Drivers/lvgl/src/widgets/lv_img.c ****         }
 2135              		.loc 1 507 18 is_stmt 0 view .LVU740
 2136 0202 3046     		mov	r0, r6
 2137              	.LVL180:
 507:Drivers/lvgl/src/widgets/lv_img.c ****         }
 2138              		.loc 1 507 18 view .LVU741
 2139 0204 FFF7FEFF 		bl	lv_img_get_transformed_size
 2140              	.LVL181:
ARM GAS  /var/folders/0z/tsy30v1j4xl4_7kw94k978ww0000gn/T//ccDjPiYU.s 			page 73


 2141 0208 2080     		strh	r0, [r4]	@ movhi
 2142 020a C0F30F40 		ubfx	r0, r0, #16, #16
 2143 020e 6080     		strh	r0, [r4, #2]	@ movhi
 2144 0210 2FE7     		b	.L72
 2145              	.LVL182:
 2146              	.L79:
 507:Drivers/lvgl/src/widgets/lv_img.c ****         }
 2147              		.loc 1 507 18 view .LVU742
 2148              	.LBE93:
 515:Drivers/lvgl/src/widgets/lv_img.c ****     }
 2149              		.loc 1 515 9 is_stmt 1 view .LVU743
 2150 0212 2846     		mov	r0, r5
 2151              	.LVL183:
 515:Drivers/lvgl/src/widgets/lv_img.c ****     }
 2152              		.loc 1 515 9 is_stmt 0 view .LVU744
 2153 0214 FFF7FEFF 		bl	draw_img
 2154              	.LVL184:
 2155 0218 2BE7     		b	.L72
 2156              	.L95:
 2157 021a 00BF     		.align	2
 2158              	.L94:
 2159 021c 00000000 		.word	.LANCHOR0
 2160              		.cfi_endproc
 2161              	.LFE187:
 2163              		.section	.text.lv_img_set_offset_x,"ax",%progbits
 2164              		.align	1
 2165              		.global	lv_img_set_offset_x
 2166              		.syntax unified
 2167              		.thumb
 2168              		.thumb_func
 2170              	lv_img_set_offset_x:
 2171              	.LVL185:
 2172              	.LFB169:
 164:Drivers/lvgl/src/widgets/lv_img.c ****     LV_ASSERT_OBJ(obj, MY_CLASS);
 2173              		.loc 1 164 1 is_stmt 1 view -0
 2174              		.cfi_startproc
 2175              		@ args = 0, pretend = 0, frame = 0
 2176              		@ frame_needed = 0, uses_anonymous_args = 0
 164:Drivers/lvgl/src/widgets/lv_img.c ****     LV_ASSERT_OBJ(obj, MY_CLASS);
 2177              		.loc 1 164 1 is_stmt 0 view .LVU746
 2178 0000 08B5     		push	{r3, lr}
 2179              		.cfi_def_cfa_offset 8
 2180              		.cfi_offset 3, -8
 2181              		.cfi_offset 14, -4
 165:Drivers/lvgl/src/widgets/lv_img.c **** 
 2182              		.loc 1 165 5 is_stmt 1 view .LVU747
 165:Drivers/lvgl/src/widgets/lv_img.c **** 
 2183              		.loc 1 165 5 view .LVU748
 165:Drivers/lvgl/src/widgets/lv_img.c **** 
 2184              		.loc 1 165 5 view .LVU749
 167:Drivers/lvgl/src/widgets/lv_img.c **** 
 2185              		.loc 1 167 5 view .LVU750
 2186              	.LVL186:
 169:Drivers/lvgl/src/widgets/lv_img.c ****     lv_obj_invalidate(obj);
 2187              		.loc 1 169 5 view .LVU751
 169:Drivers/lvgl/src/widgets/lv_img.c ****     lv_obj_invalidate(obj);
 2188              		.loc 1 169 19 is_stmt 0 view .LVU752
ARM GAS  /var/folders/0z/tsy30v1j4xl4_7kw94k978ww0000gn/T//ccDjPiYU.s 			page 74


 2189 0002 0185     		strh	r1, [r0, #40]	@ movhi
 170:Drivers/lvgl/src/widgets/lv_img.c **** }
 2190              		.loc 1 170 5 is_stmt 1 view .LVU753
 2191 0004 FFF7FEFF 		bl	lv_obj_invalidate
 2192              	.LVL187:
 171:Drivers/lvgl/src/widgets/lv_img.c **** 
 2193              		.loc 1 171 1 is_stmt 0 view .LVU754
 2194 0008 08BD     		pop	{r3, pc}
 2195              		.cfi_endproc
 2196              	.LFE169:
 2198              		.section	.text.lv_img_set_offset_y,"ax",%progbits
 2199              		.align	1
 2200              		.global	lv_img_set_offset_y
 2201              		.syntax unified
 2202              		.thumb
 2203              		.thumb_func
 2205              	lv_img_set_offset_y:
 2206              	.LVL188:
 2207              	.LFB170:
 174:Drivers/lvgl/src/widgets/lv_img.c ****     LV_ASSERT_OBJ(obj, MY_CLASS);
 2208              		.loc 1 174 1 is_stmt 1 view -0
 2209              		.cfi_startproc
 2210              		@ args = 0, pretend = 0, frame = 0
 2211              		@ frame_needed = 0, uses_anonymous_args = 0
 174:Drivers/lvgl/src/widgets/lv_img.c ****     LV_ASSERT_OBJ(obj, MY_CLASS);
 2212              		.loc 1 174 1 is_stmt 0 view .LVU756
 2213 0000 08B5     		push	{r3, lr}
 2214              		.cfi_def_cfa_offset 8
 2215              		.cfi_offset 3, -8
 2216              		.cfi_offset 14, -4
 175:Drivers/lvgl/src/widgets/lv_img.c **** 
 2217              		.loc 1 175 5 is_stmt 1 view .LVU757
 175:Drivers/lvgl/src/widgets/lv_img.c **** 
 2218              		.loc 1 175 5 view .LVU758
 175:Drivers/lvgl/src/widgets/lv_img.c **** 
 2219              		.loc 1 175 5 view .LVU759
 177:Drivers/lvgl/src/widgets/lv_img.c **** 
 2220              		.loc 1 177 5 view .LVU760
 2221              	.LVL189:
 179:Drivers/lvgl/src/widgets/lv_img.c ****     lv_obj_invalidate(obj);
 2222              		.loc 1 179 5 view .LVU761
 179:Drivers/lvgl/src/widgets/lv_img.c ****     lv_obj_invalidate(obj);
 2223              		.loc 1 179 19 is_stmt 0 view .LVU762
 2224 0002 4185     		strh	r1, [r0, #42]	@ movhi
 180:Drivers/lvgl/src/widgets/lv_img.c **** }
 2225              		.loc 1 180 5 is_stmt 1 view .LVU763
 2226 0004 FFF7FEFF 		bl	lv_obj_invalidate
 2227              	.LVL190:
 181:Drivers/lvgl/src/widgets/lv_img.c **** 
 2228              		.loc 1 181 1 is_stmt 0 view .LVU764
 2229 0008 08BD     		pop	{r3, pc}
 2230              		.cfi_endproc
 2231              	.LFE170:
 2233              		.section	.text.lv_img_set_angle,"ax",%progbits
 2234              		.align	1
 2235              		.global	lv_img_set_angle
 2236              		.syntax unified
ARM GAS  /var/folders/0z/tsy30v1j4xl4_7kw94k978ww0000gn/T//ccDjPiYU.s 			page 75


 2237              		.thumb
 2238              		.thumb_func
 2240              	lv_img_set_angle:
 2241              	.LVL191:
 2242              	.LFB171:
 184:Drivers/lvgl/src/widgets/lv_img.c ****     while(angle >= 3600) angle -= 3600;
 2243              		.loc 1 184 1 is_stmt 1 view -0
 2244              		.cfi_startproc
 2245              		@ args = 0, pretend = 0, frame = 8
 2246              		@ frame_needed = 0, uses_anonymous_args = 0
 184:Drivers/lvgl/src/widgets/lv_img.c ****     while(angle >= 3600) angle -= 3600;
 2247              		.loc 1 184 1 is_stmt 0 view .LVU766
 2248 0000 2DE9F041 		push	{r4, r5, r6, r7, r8, lr}
 2249              		.cfi_def_cfa_offset 24
 2250              		.cfi_offset 4, -24
 2251              		.cfi_offset 5, -20
 2252              		.cfi_offset 6, -16
 2253              		.cfi_offset 7, -12
 2254              		.cfi_offset 8, -8
 2255              		.cfi_offset 14, -4
 2256 0004 84B0     		sub	sp, sp, #16
 2257              		.cfi_def_cfa_offset 40
 2258 0006 0546     		mov	r5, r0
 2259 0008 0C46     		mov	r4, r1
 185:Drivers/lvgl/src/widgets/lv_img.c ****     while(angle < 0) angle += 3600;
 2260              		.loc 1 185 5 is_stmt 1 view .LVU767
 185:Drivers/lvgl/src/widgets/lv_img.c ****     while(angle < 0) angle += 3600;
 2261              		.loc 1 185 10 is_stmt 0 view .LVU768
 2262 000a 02E0     		b	.L101
 2263              	.LVL192:
 2264              	.L102:
 185:Drivers/lvgl/src/widgets/lv_img.c ****     while(angle < 0) angle += 3600;
 2265              		.loc 1 185 26 is_stmt 1 discriminator 2 view .LVU769
 185:Drivers/lvgl/src/widgets/lv_img.c ****     while(angle < 0) angle += 3600;
 2266              		.loc 1 185 32 is_stmt 0 discriminator 2 view .LVU770
 2267 000c A4F56164 		sub	r4, r4, #3600
 2268              	.LVL193:
 185:Drivers/lvgl/src/widgets/lv_img.c ****     while(angle < 0) angle += 3600;
 2269              		.loc 1 185 32 discriminator 2 view .LVU771
 2270 0010 24B2     		sxth	r4, r4
 2271              	.LVL194:
 2272              	.L101:
 185:Drivers/lvgl/src/widgets/lv_img.c ****     while(angle < 0) angle += 3600;
 2273              		.loc 1 185 17 is_stmt 1 discriminator 1 view .LVU772
 2274 0012 B4F5616F 		cmp	r4, #3600
 2275 0016 F9DA     		bge	.L102
 2276 0018 02E0     		b	.L103
 2277              	.L104:
 186:Drivers/lvgl/src/widgets/lv_img.c **** 
 2278              		.loc 1 186 22 discriminator 2 view .LVU773
 186:Drivers/lvgl/src/widgets/lv_img.c **** 
 2279              		.loc 1 186 28 is_stmt 0 discriminator 2 view .LVU774
 2280 001a 04F56164 		add	r4, r4, #3600
 2281              	.LVL195:
 186:Drivers/lvgl/src/widgets/lv_img.c **** 
 2282              		.loc 1 186 28 discriminator 2 view .LVU775
 2283 001e 24B2     		sxth	r4, r4
ARM GAS  /var/folders/0z/tsy30v1j4xl4_7kw94k978ww0000gn/T//ccDjPiYU.s 			page 76


 2284              	.LVL196:
 2285              	.L103:
 186:Drivers/lvgl/src/widgets/lv_img.c **** 
 2286              		.loc 1 186 17 is_stmt 1 discriminator 1 view .LVU776
 2287 0020 002C     		cmp	r4, #0
 2288 0022 FADB     		blt	.L104
 188:Drivers/lvgl/src/widgets/lv_img.c ****     if(angle == img->angle) return;
 2289              		.loc 1 188 5 view .LVU777
 2290              	.LVL197:
 189:Drivers/lvgl/src/widgets/lv_img.c **** 
 2291              		.loc 1 189 5 view .LVU778
 189:Drivers/lvgl/src/widgets/lv_img.c **** 
 2292              		.loc 1 189 20 is_stmt 0 view .LVU779
 2293 0024 2B8E     		ldrh	r3, [r5, #48]
 189:Drivers/lvgl/src/widgets/lv_img.c **** 
 2294              		.loc 1 189 7 view .LVU780
 2295 0026 9C42     		cmp	r4, r3
 2296 0028 65D0     		beq	.L100
 191:Drivers/lvgl/src/widgets/lv_img.c ****     lv_coord_t w = lv_obj_get_width(obj);
 2297              		.loc 1 191 5 is_stmt 1 view .LVU781
 2298 002a 2846     		mov	r0, r5
 2299              	.LVL198:
 191:Drivers/lvgl/src/widgets/lv_img.c ****     lv_coord_t w = lv_obj_get_width(obj);
 2300              		.loc 1 191 5 is_stmt 0 view .LVU782
 2301 002c FFF7FEFF 		bl	lv_obj_update_layout
 2302              	.LVL199:
 192:Drivers/lvgl/src/widgets/lv_img.c ****     lv_coord_t h = lv_obj_get_height(obj);
 2303              		.loc 1 192 5 is_stmt 1 view .LVU783
 192:Drivers/lvgl/src/widgets/lv_img.c ****     lv_coord_t h = lv_obj_get_height(obj);
 2304              		.loc 1 192 20 is_stmt 0 view .LVU784
 2305 0030 2846     		mov	r0, r5
 2306 0032 FFF7FEFF 		bl	lv_obj_get_width
 2307              	.LVL200:
 2308 0036 0646     		mov	r6, r0
 2309              	.LVL201:
 193:Drivers/lvgl/src/widgets/lv_img.c ****     lv_area_t a;
 2310              		.loc 1 193 5 is_stmt 1 view .LVU785
 193:Drivers/lvgl/src/widgets/lv_img.c ****     lv_area_t a;
 2311              		.loc 1 193 20 is_stmt 0 view .LVU786
 2312 0038 2846     		mov	r0, r5
 2313 003a FFF7FEFF 		bl	lv_obj_get_height
 2314              	.LVL202:
 2315 003e 0746     		mov	r7, r0
 2316              	.LVL203:
 194:Drivers/lvgl/src/widgets/lv_img.c ****     _lv_img_buf_get_transformed_area(&a, w, h, img->angle, img->zoom, &img->pivot);
 2317              		.loc 1 194 5 is_stmt 1 view .LVU787
 195:Drivers/lvgl/src/widgets/lv_img.c ****     a.x1 += obj->coords.x1;
 2318              		.loc 1 195 5 view .LVU788
 195:Drivers/lvgl/src/widgets/lv_img.c ****     a.x1 += obj->coords.x1;
 2319              		.loc 1 195 71 is_stmt 0 view .LVU789
 2320 0040 05F13208 		add	r8, r5, #50
 195:Drivers/lvgl/src/widgets/lv_img.c ****     a.x1 += obj->coords.x1;
 2321              		.loc 1 195 5 view .LVU790
 2322 0044 CDF80480 		str	r8, [sp, #4]
 2323 0048 EB8E     		ldrh	r3, [r5, #54]
 2324 004a 0093     		str	r3, [sp]
 2325 004c B5F93030 		ldrsh	r3, [r5, #48]
ARM GAS  /var/folders/0z/tsy30v1j4xl4_7kw94k978ww0000gn/T//ccDjPiYU.s 			page 77


 2326 0050 0246     		mov	r2, r0
 2327 0052 3146     		mov	r1, r6
 2328 0054 02A8     		add	r0, sp, #8
 2329              	.LVL204:
 195:Drivers/lvgl/src/widgets/lv_img.c ****     a.x1 += obj->coords.x1;
 2330              		.loc 1 195 5 view .LVU791
 2331 0056 FFF7FEFF 		bl	_lv_img_buf_get_transformed_area
 2332              	.LVL205:
 196:Drivers/lvgl/src/widgets/lv_img.c ****     a.y1 += obj->coords.y1;
 2333              		.loc 1 196 5 is_stmt 1 view .LVU792
 196:Drivers/lvgl/src/widgets/lv_img.c ****     a.y1 += obj->coords.y1;
 2334              		.loc 1 196 24 is_stmt 0 view .LVU793
 2335 005a AA8A     		ldrh	r2, [r5, #20]
 196:Drivers/lvgl/src/widgets/lv_img.c ****     a.y1 += obj->coords.y1;
 2336              		.loc 1 196 10 view .LVU794
 2337 005c BDF80830 		ldrh	r3, [sp, #8]
 2338 0060 1344     		add	r3, r3, r2
 2339 0062 ADF80830 		strh	r3, [sp, #8]	@ movhi
 197:Drivers/lvgl/src/widgets/lv_img.c ****     a.x2 += obj->coords.x1;
 2340              		.loc 1 197 5 is_stmt 1 view .LVU795
 197:Drivers/lvgl/src/widgets/lv_img.c ****     a.x2 += obj->coords.x1;
 2341              		.loc 1 197 24 is_stmt 0 view .LVU796
 2342 0066 EB8A     		ldrh	r3, [r5, #22]
 197:Drivers/lvgl/src/widgets/lv_img.c ****     a.x2 += obj->coords.x1;
 2343              		.loc 1 197 10 view .LVU797
 2344 0068 BDF80A10 		ldrh	r1, [sp, #10]
 2345 006c 1944     		add	r1, r1, r3
 2346 006e ADF80A10 		strh	r1, [sp, #10]	@ movhi
 198:Drivers/lvgl/src/widgets/lv_img.c ****     a.y2 += obj->coords.y1;
 2347              		.loc 1 198 5 is_stmt 1 view .LVU798
 198:Drivers/lvgl/src/widgets/lv_img.c ****     a.y2 += obj->coords.y1;
 2348              		.loc 1 198 10 is_stmt 0 view .LVU799
 2349 0072 BDF80C10 		ldrh	r1, [sp, #12]
 2350 0076 0A44     		add	r2, r2, r1
 2351 0078 ADF80C20 		strh	r2, [sp, #12]	@ movhi
 199:Drivers/lvgl/src/widgets/lv_img.c ****     lv_obj_invalidate_area(obj, &a);
 2352              		.loc 1 199 5 is_stmt 1 view .LVU800
 199:Drivers/lvgl/src/widgets/lv_img.c ****     lv_obj_invalidate_area(obj, &a);
 2353              		.loc 1 199 10 is_stmt 0 view .LVU801
 2354 007c BDF80E20 		ldrh	r2, [sp, #14]
 2355 0080 1344     		add	r3, r3, r2
 2356 0082 ADF80E30 		strh	r3, [sp, #14]	@ movhi
 200:Drivers/lvgl/src/widgets/lv_img.c **** 
 2357              		.loc 1 200 5 is_stmt 1 view .LVU802
 2358 0086 02A9     		add	r1, sp, #8
 2359 0088 2846     		mov	r0, r5
 2360 008a FFF7FEFF 		bl	lv_obj_invalidate_area
 2361              	.LVL206:
 202:Drivers/lvgl/src/widgets/lv_img.c **** 
 2362              		.loc 1 202 5 view .LVU803
 202:Drivers/lvgl/src/widgets/lv_img.c **** 
 2363              		.loc 1 202 16 is_stmt 0 view .LVU804
 2364 008e 2C86     		strh	r4, [r5, #48]	@ movhi
 206:Drivers/lvgl/src/widgets/lv_img.c ****     lv_disp_enable_invalidation(disp, false);
 2365              		.loc 1 206 5 is_stmt 1 view .LVU805
 206:Drivers/lvgl/src/widgets/lv_img.c ****     lv_disp_enable_invalidation(disp, false);
 2366              		.loc 1 206 24 is_stmt 0 view .LVU806
ARM GAS  /var/folders/0z/tsy30v1j4xl4_7kw94k978ww0000gn/T//ccDjPiYU.s 			page 78


 2367 0090 2846     		mov	r0, r5
 2368 0092 FFF7FEFF 		bl	lv_obj_get_disp
 2369              	.LVL207:
 2370 0096 0446     		mov	r4, r0
 2371              	.LVL208:
 207:Drivers/lvgl/src/widgets/lv_img.c ****     lv_obj_refresh_ext_draw_size(obj);
 2372              		.loc 1 207 5 is_stmt 1 view .LVU807
 2373 0098 0021     		movs	r1, #0
 2374 009a FFF7FEFF 		bl	lv_disp_enable_invalidation
 2375              	.LVL209:
 208:Drivers/lvgl/src/widgets/lv_img.c ****     lv_disp_enable_invalidation(disp, true);
 2376              		.loc 1 208 5 view .LVU808
 2377 009e 2846     		mov	r0, r5
 2378 00a0 FFF7FEFF 		bl	lv_obj_refresh_ext_draw_size
 2379              	.LVL210:
 209:Drivers/lvgl/src/widgets/lv_img.c **** 
 2380              		.loc 1 209 5 view .LVU809
 2381 00a4 0121     		movs	r1, #1
 2382 00a6 2046     		mov	r0, r4
 2383 00a8 FFF7FEFF 		bl	lv_disp_enable_invalidation
 2384              	.LVL211:
 211:Drivers/lvgl/src/widgets/lv_img.c ****     a.x1 += obj->coords.x1;
 2385              		.loc 1 211 5 view .LVU810
 2386 00ac CDF80480 		str	r8, [sp, #4]
 2387 00b0 EB8E     		ldrh	r3, [r5, #54]
 2388 00b2 0093     		str	r3, [sp]
 2389 00b4 B5F93030 		ldrsh	r3, [r5, #48]
 2390 00b8 3A46     		mov	r2, r7
 2391 00ba 3146     		mov	r1, r6
 2392 00bc 02A8     		add	r0, sp, #8
 2393 00be FFF7FEFF 		bl	_lv_img_buf_get_transformed_area
 2394              	.LVL212:
 212:Drivers/lvgl/src/widgets/lv_img.c ****     a.y1 += obj->coords.y1;
 2395              		.loc 1 212 5 view .LVU811
 212:Drivers/lvgl/src/widgets/lv_img.c ****     a.y1 += obj->coords.y1;
 2396              		.loc 1 212 24 is_stmt 0 view .LVU812
 2397 00c2 AA8A     		ldrh	r2, [r5, #20]
 212:Drivers/lvgl/src/widgets/lv_img.c ****     a.y1 += obj->coords.y1;
 2398              		.loc 1 212 10 view .LVU813
 2399 00c4 BDF80830 		ldrh	r3, [sp, #8]
 2400 00c8 1344     		add	r3, r3, r2
 2401 00ca ADF80830 		strh	r3, [sp, #8]	@ movhi
 213:Drivers/lvgl/src/widgets/lv_img.c ****     a.x2 += obj->coords.x1;
 2402              		.loc 1 213 5 is_stmt 1 view .LVU814
 213:Drivers/lvgl/src/widgets/lv_img.c ****     a.x2 += obj->coords.x1;
 2403              		.loc 1 213 24 is_stmt 0 view .LVU815
 2404 00ce EB8A     		ldrh	r3, [r5, #22]
 213:Drivers/lvgl/src/widgets/lv_img.c ****     a.x2 += obj->coords.x1;
 2405              		.loc 1 213 10 view .LVU816
 2406 00d0 BDF80A10 		ldrh	r1, [sp, #10]
 2407 00d4 1944     		add	r1, r1, r3
 2408 00d6 ADF80A10 		strh	r1, [sp, #10]	@ movhi
 214:Drivers/lvgl/src/widgets/lv_img.c ****     a.y2 += obj->coords.y1;
 2409              		.loc 1 214 5 is_stmt 1 view .LVU817
 214:Drivers/lvgl/src/widgets/lv_img.c ****     a.y2 += obj->coords.y1;
 2410              		.loc 1 214 10 is_stmt 0 view .LVU818
 2411 00da BDF80C10 		ldrh	r1, [sp, #12]
ARM GAS  /var/folders/0z/tsy30v1j4xl4_7kw94k978ww0000gn/T//ccDjPiYU.s 			page 79


 2412 00de 0A44     		add	r2, r2, r1
 2413 00e0 ADF80C20 		strh	r2, [sp, #12]	@ movhi
 215:Drivers/lvgl/src/widgets/lv_img.c ****     lv_obj_invalidate_area(obj, &a);
 2414              		.loc 1 215 5 is_stmt 1 view .LVU819
 215:Drivers/lvgl/src/widgets/lv_img.c ****     lv_obj_invalidate_area(obj, &a);
 2415              		.loc 1 215 10 is_stmt 0 view .LVU820
 2416 00e4 BDF80E20 		ldrh	r2, [sp, #14]
 2417 00e8 1344     		add	r3, r3, r2
 2418 00ea ADF80E30 		strh	r3, [sp, #14]	@ movhi
 216:Drivers/lvgl/src/widgets/lv_img.c **** }
 2419              		.loc 1 216 5 is_stmt 1 view .LVU821
 2420 00ee 02A9     		add	r1, sp, #8
 2421 00f0 2846     		mov	r0, r5
 2422 00f2 FFF7FEFF 		bl	lv_obj_invalidate_area
 2423              	.LVL213:
 2424              	.L100:
 217:Drivers/lvgl/src/widgets/lv_img.c **** 
 2425              		.loc 1 217 1 is_stmt 0 view .LVU822
 2426 00f6 04B0     		add	sp, sp, #16
 2427              		.cfi_def_cfa_offset 24
 2428              		@ sp needed
 2429 00f8 BDE8F081 		pop	{r4, r5, r6, r7, r8, pc}
 217:Drivers/lvgl/src/widgets/lv_img.c **** 
 2430              		.loc 1 217 1 view .LVU823
 2431              		.cfi_endproc
 2432              	.LFE171:
 2434              		.section	.text.lv_img_set_pivot,"ax",%progbits
 2435              		.align	1
 2436              		.global	lv_img_set_pivot
 2437              		.syntax unified
 2438              		.thumb
 2439              		.thumb_func
 2441              	lv_img_set_pivot:
 2442              	.LVL214:
 2443              	.LFB172:
 220:Drivers/lvgl/src/widgets/lv_img.c ****     lv_img_t * img = (lv_img_t *)obj;
 2444              		.loc 1 220 1 is_stmt 1 view -0
 2445              		.cfi_startproc
 2446              		@ args = 0, pretend = 0, frame = 8
 2447              		@ frame_needed = 0, uses_anonymous_args = 0
 220:Drivers/lvgl/src/widgets/lv_img.c ****     lv_img_t * img = (lv_img_t *)obj;
 2448              		.loc 1 220 1 is_stmt 0 view .LVU825
 2449 0000 2DE9F043 		push	{r4, r5, r6, r7, r8, r9, lr}
 2450              		.cfi_def_cfa_offset 28
 2451              		.cfi_offset 4, -28
 2452              		.cfi_offset 5, -24
 2453              		.cfi_offset 6, -20
 2454              		.cfi_offset 7, -16
 2455              		.cfi_offset 8, -12
 2456              		.cfi_offset 9, -8
 2457              		.cfi_offset 14, -4
 2458 0004 85B0     		sub	sp, sp, #20
 2459              		.cfi_def_cfa_offset 48
 2460 0006 0446     		mov	r4, r0
 2461 0008 0D46     		mov	r5, r1
 2462 000a 9046     		mov	r8, r2
 221:Drivers/lvgl/src/widgets/lv_img.c ****     if(img->pivot.x == x && img->pivot.y == y) return;
ARM GAS  /var/folders/0z/tsy30v1j4xl4_7kw94k978ww0000gn/T//ccDjPiYU.s 			page 80


 2463              		.loc 1 221 5 is_stmt 1 view .LVU826
 2464              	.LVL215:
 222:Drivers/lvgl/src/widgets/lv_img.c **** 
 2465              		.loc 1 222 5 view .LVU827
 222:Drivers/lvgl/src/widgets/lv_img.c **** 
 2466              		.loc 1 222 18 is_stmt 0 view .LVU828
 2467 000c B0F93230 		ldrsh	r3, [r0, #50]
 222:Drivers/lvgl/src/widgets/lv_img.c **** 
 2468              		.loc 1 222 7 view .LVU829
 2469 0010 8B42     		cmp	r3, r1
 2470 0012 03D1     		bne	.L109
 222:Drivers/lvgl/src/widgets/lv_img.c **** 
 2471              		.loc 1 222 39 discriminator 1 view .LVU830
 2472 0014 B0F93430 		ldrsh	r3, [r0, #52]
 222:Drivers/lvgl/src/widgets/lv_img.c **** 
 2473              		.loc 1 222 26 discriminator 1 view .LVU831
 2474 0018 9342     		cmp	r3, r2
 2475 001a 67D0     		beq	.L108
 2476              	.L109:
 224:Drivers/lvgl/src/widgets/lv_img.c ****     lv_coord_t w = lv_obj_get_width(obj);
 2477              		.loc 1 224 5 is_stmt 1 view .LVU832
 2478 001c 2046     		mov	r0, r4
 2479              	.LVL216:
 224:Drivers/lvgl/src/widgets/lv_img.c ****     lv_coord_t w = lv_obj_get_width(obj);
 2480              		.loc 1 224 5 is_stmt 0 view .LVU833
 2481 001e FFF7FEFF 		bl	lv_obj_update_layout
 2482              	.LVL217:
 225:Drivers/lvgl/src/widgets/lv_img.c ****     lv_coord_t h = lv_obj_get_height(obj);
 2483              		.loc 1 225 5 is_stmt 1 view .LVU834
 225:Drivers/lvgl/src/widgets/lv_img.c ****     lv_coord_t h = lv_obj_get_height(obj);
 2484              		.loc 1 225 20 is_stmt 0 view .LVU835
 2485 0022 2046     		mov	r0, r4
 2486 0024 FFF7FEFF 		bl	lv_obj_get_width
 2487              	.LVL218:
 2488 0028 0646     		mov	r6, r0
 2489              	.LVL219:
 226:Drivers/lvgl/src/widgets/lv_img.c ****     lv_area_t a;
 2490              		.loc 1 226 5 is_stmt 1 view .LVU836
 226:Drivers/lvgl/src/widgets/lv_img.c ****     lv_area_t a;
 2491              		.loc 1 226 20 is_stmt 0 view .LVU837
 2492 002a 2046     		mov	r0, r4
 2493 002c FFF7FEFF 		bl	lv_obj_get_height
 2494              	.LVL220:
 2495 0030 0746     		mov	r7, r0
 2496              	.LVL221:
 227:Drivers/lvgl/src/widgets/lv_img.c ****     _lv_img_buf_get_transformed_area(&a, w, h, img->angle, img->zoom, &img->pivot);
 2497              		.loc 1 227 5 is_stmt 1 view .LVU838
 228:Drivers/lvgl/src/widgets/lv_img.c ****     a.x1 += obj->coords.x1;
 2498              		.loc 1 228 5 view .LVU839
 228:Drivers/lvgl/src/widgets/lv_img.c ****     a.x1 += obj->coords.x1;
 2499              		.loc 1 228 71 is_stmt 0 view .LVU840
 2500 0032 04F13209 		add	r9, r4, #50
 228:Drivers/lvgl/src/widgets/lv_img.c ****     a.x1 += obj->coords.x1;
 2501              		.loc 1 228 5 view .LVU841
 2502 0036 CDF80490 		str	r9, [sp, #4]
 2503 003a E38E     		ldrh	r3, [r4, #54]
 2504 003c 0093     		str	r3, [sp]
ARM GAS  /var/folders/0z/tsy30v1j4xl4_7kw94k978ww0000gn/T//ccDjPiYU.s 			page 81


 2505 003e B4F93030 		ldrsh	r3, [r4, #48]
 2506 0042 0246     		mov	r2, r0
 2507 0044 3146     		mov	r1, r6
 2508 0046 02A8     		add	r0, sp, #8
 2509              	.LVL222:
 228:Drivers/lvgl/src/widgets/lv_img.c ****     a.x1 += obj->coords.x1;
 2510              		.loc 1 228 5 view .LVU842
 2511 0048 FFF7FEFF 		bl	_lv_img_buf_get_transformed_area
 2512              	.LVL223:
 229:Drivers/lvgl/src/widgets/lv_img.c ****     a.y1 += obj->coords.y1;
 2513              		.loc 1 229 5 is_stmt 1 view .LVU843
 229:Drivers/lvgl/src/widgets/lv_img.c ****     a.y1 += obj->coords.y1;
 2514              		.loc 1 229 24 is_stmt 0 view .LVU844
 2515 004c A28A     		ldrh	r2, [r4, #20]
 229:Drivers/lvgl/src/widgets/lv_img.c ****     a.y1 += obj->coords.y1;
 2516              		.loc 1 229 10 view .LVU845
 2517 004e BDF80830 		ldrh	r3, [sp, #8]
 2518 0052 1344     		add	r3, r3, r2
 2519 0054 ADF80830 		strh	r3, [sp, #8]	@ movhi
 230:Drivers/lvgl/src/widgets/lv_img.c ****     a.x2 += obj->coords.x1;
 2520              		.loc 1 230 5 is_stmt 1 view .LVU846
 230:Drivers/lvgl/src/widgets/lv_img.c ****     a.x2 += obj->coords.x1;
 2521              		.loc 1 230 24 is_stmt 0 view .LVU847
 2522 0058 E38A     		ldrh	r3, [r4, #22]
 230:Drivers/lvgl/src/widgets/lv_img.c ****     a.x2 += obj->coords.x1;
 2523              		.loc 1 230 10 view .LVU848
 2524 005a BDF80A10 		ldrh	r1, [sp, #10]
 2525 005e 1944     		add	r1, r1, r3
 2526 0060 ADF80A10 		strh	r1, [sp, #10]	@ movhi
 231:Drivers/lvgl/src/widgets/lv_img.c ****     a.y2 += obj->coords.y1;
 2527              		.loc 1 231 5 is_stmt 1 view .LVU849
 231:Drivers/lvgl/src/widgets/lv_img.c ****     a.y2 += obj->coords.y1;
 2528              		.loc 1 231 10 is_stmt 0 view .LVU850
 2529 0064 BDF80C10 		ldrh	r1, [sp, #12]
 2530 0068 0A44     		add	r2, r2, r1
 2531 006a ADF80C20 		strh	r2, [sp, #12]	@ movhi
 232:Drivers/lvgl/src/widgets/lv_img.c ****     lv_obj_invalidate_area(obj, &a);
 2532              		.loc 1 232 5 is_stmt 1 view .LVU851
 232:Drivers/lvgl/src/widgets/lv_img.c ****     lv_obj_invalidate_area(obj, &a);
 2533              		.loc 1 232 10 is_stmt 0 view .LVU852
 2534 006e BDF80E20 		ldrh	r2, [sp, #14]
 2535 0072 1344     		add	r3, r3, r2
 2536 0074 ADF80E30 		strh	r3, [sp, #14]	@ movhi
 233:Drivers/lvgl/src/widgets/lv_img.c **** 
 2537              		.loc 1 233 5 is_stmt 1 view .LVU853
 2538 0078 02A9     		add	r1, sp, #8
 2539 007a 2046     		mov	r0, r4
 2540 007c FFF7FEFF 		bl	lv_obj_invalidate_area
 2541              	.LVL224:
 235:Drivers/lvgl/src/widgets/lv_img.c ****     img->pivot.y = y;
 2542              		.loc 1 235 5 view .LVU854
 235:Drivers/lvgl/src/widgets/lv_img.c ****     img->pivot.y = y;
 2543              		.loc 1 235 18 is_stmt 0 view .LVU855
 2544 0080 6586     		strh	r5, [r4, #50]	@ movhi
 236:Drivers/lvgl/src/widgets/lv_img.c **** 
 2545              		.loc 1 236 5 is_stmt 1 view .LVU856
 236:Drivers/lvgl/src/widgets/lv_img.c **** 
ARM GAS  /var/folders/0z/tsy30v1j4xl4_7kw94k978ww0000gn/T//ccDjPiYU.s 			page 82


 2546              		.loc 1 236 18 is_stmt 0 view .LVU857
 2547 0082 A4F83480 		strh	r8, [r4, #52]	@ movhi
 240:Drivers/lvgl/src/widgets/lv_img.c ****     lv_disp_enable_invalidation(disp, false);
 2548              		.loc 1 240 5 is_stmt 1 view .LVU858
 240:Drivers/lvgl/src/widgets/lv_img.c ****     lv_disp_enable_invalidation(disp, false);
 2549              		.loc 1 240 24 is_stmt 0 view .LVU859
 2550 0086 2046     		mov	r0, r4
 2551 0088 FFF7FEFF 		bl	lv_obj_get_disp
 2552              	.LVL225:
 2553 008c 0546     		mov	r5, r0
 2554              	.LVL226:
 241:Drivers/lvgl/src/widgets/lv_img.c ****     lv_obj_refresh_ext_draw_size(obj);
 2555              		.loc 1 241 5 is_stmt 1 view .LVU860
 2556 008e 0021     		movs	r1, #0
 2557 0090 FFF7FEFF 		bl	lv_disp_enable_invalidation
 2558              	.LVL227:
 242:Drivers/lvgl/src/widgets/lv_img.c ****     lv_disp_enable_invalidation(disp, true);
 2559              		.loc 1 242 5 view .LVU861
 2560 0094 2046     		mov	r0, r4
 2561 0096 FFF7FEFF 		bl	lv_obj_refresh_ext_draw_size
 2562              	.LVL228:
 243:Drivers/lvgl/src/widgets/lv_img.c **** 
 2563              		.loc 1 243 5 view .LVU862
 2564 009a 0121     		movs	r1, #1
 2565 009c 2846     		mov	r0, r5
 2566 009e FFF7FEFF 		bl	lv_disp_enable_invalidation
 2567              	.LVL229:
 245:Drivers/lvgl/src/widgets/lv_img.c ****     a.x1 += obj->coords.x1;
 2568              		.loc 1 245 5 view .LVU863
 2569 00a2 CDF80490 		str	r9, [sp, #4]
 2570 00a6 E38E     		ldrh	r3, [r4, #54]
 2571 00a8 0093     		str	r3, [sp]
 2572 00aa B4F93030 		ldrsh	r3, [r4, #48]
 2573 00ae 3A46     		mov	r2, r7
 2574 00b0 3146     		mov	r1, r6
 2575 00b2 02A8     		add	r0, sp, #8
 2576 00b4 FFF7FEFF 		bl	_lv_img_buf_get_transformed_area
 2577              	.LVL230:
 246:Drivers/lvgl/src/widgets/lv_img.c ****     a.y1 += obj->coords.y1;
 2578              		.loc 1 246 5 view .LVU864
 246:Drivers/lvgl/src/widgets/lv_img.c ****     a.y1 += obj->coords.y1;
 2579              		.loc 1 246 24 is_stmt 0 view .LVU865
 2580 00b8 A28A     		ldrh	r2, [r4, #20]
 246:Drivers/lvgl/src/widgets/lv_img.c ****     a.y1 += obj->coords.y1;
 2581              		.loc 1 246 10 view .LVU866
 2582 00ba BDF80830 		ldrh	r3, [sp, #8]
 2583 00be 1344     		add	r3, r3, r2
 2584 00c0 ADF80830 		strh	r3, [sp, #8]	@ movhi
 247:Drivers/lvgl/src/widgets/lv_img.c ****     a.x2 += obj->coords.x1;
 2585              		.loc 1 247 5 is_stmt 1 view .LVU867
 247:Drivers/lvgl/src/widgets/lv_img.c ****     a.x2 += obj->coords.x1;
 2586              		.loc 1 247 24 is_stmt 0 view .LVU868
 2587 00c4 E38A     		ldrh	r3, [r4, #22]
 247:Drivers/lvgl/src/widgets/lv_img.c ****     a.x2 += obj->coords.x1;
 2588              		.loc 1 247 10 view .LVU869
 2589 00c6 BDF80A10 		ldrh	r1, [sp, #10]
 2590 00ca 1944     		add	r1, r1, r3
ARM GAS  /var/folders/0z/tsy30v1j4xl4_7kw94k978ww0000gn/T//ccDjPiYU.s 			page 83


 2591 00cc ADF80A10 		strh	r1, [sp, #10]	@ movhi
 248:Drivers/lvgl/src/widgets/lv_img.c ****     a.y2 += obj->coords.y1;
 2592              		.loc 1 248 5 is_stmt 1 view .LVU870
 248:Drivers/lvgl/src/widgets/lv_img.c ****     a.y2 += obj->coords.y1;
 2593              		.loc 1 248 10 is_stmt 0 view .LVU871
 2594 00d0 BDF80C10 		ldrh	r1, [sp, #12]
 2595 00d4 0A44     		add	r2, r2, r1
 2596 00d6 ADF80C20 		strh	r2, [sp, #12]	@ movhi
 249:Drivers/lvgl/src/widgets/lv_img.c ****     lv_obj_invalidate_area(obj, &a);
 2597              		.loc 1 249 5 is_stmt 1 view .LVU872
 249:Drivers/lvgl/src/widgets/lv_img.c ****     lv_obj_invalidate_area(obj, &a);
 2598              		.loc 1 249 10 is_stmt 0 view .LVU873
 2599 00da BDF80E20 		ldrh	r2, [sp, #14]
 2600 00de 1344     		add	r3, r3, r2
 2601 00e0 ADF80E30 		strh	r3, [sp, #14]	@ movhi
 250:Drivers/lvgl/src/widgets/lv_img.c **** }
 2602              		.loc 1 250 5 is_stmt 1 view .LVU874
 2603 00e4 02A9     		add	r1, sp, #8
 2604 00e6 2046     		mov	r0, r4
 2605 00e8 FFF7FEFF 		bl	lv_obj_invalidate_area
 2606              	.LVL231:
 2607              	.L108:
 251:Drivers/lvgl/src/widgets/lv_img.c **** 
 2608              		.loc 1 251 1 is_stmt 0 view .LVU875
 2609 00ec 05B0     		add	sp, sp, #20
 2610              		.cfi_def_cfa_offset 28
 2611              		@ sp needed
 2612 00ee BDE8F083 		pop	{r4, r5, r6, r7, r8, r9, pc}
 251:Drivers/lvgl/src/widgets/lv_img.c **** 
 2613              		.loc 1 251 1 view .LVU876
 2614              		.cfi_endproc
 2615              	.LFE172:
 2617              		.section	.text.lv_img_set_zoom,"ax",%progbits
 2618              		.align	1
 2619              		.global	lv_img_set_zoom
 2620              		.syntax unified
 2621              		.thumb
 2622              		.thumb_func
 2624              	lv_img_set_zoom:
 2625              	.LVL232:
 2626              	.LFB173:
 254:Drivers/lvgl/src/widgets/lv_img.c ****     lv_img_t * img = (lv_img_t *)obj;
 2627              		.loc 1 254 1 is_stmt 1 view -0
 2628              		.cfi_startproc
 2629              		@ args = 0, pretend = 0, frame = 8
 2630              		@ frame_needed = 0, uses_anonymous_args = 0
 255:Drivers/lvgl/src/widgets/lv_img.c ****     if(zoom == img->zoom) return;
 2631              		.loc 1 255 5 view .LVU878
 256:Drivers/lvgl/src/widgets/lv_img.c **** 
 2632              		.loc 1 256 5 view .LVU879
 256:Drivers/lvgl/src/widgets/lv_img.c **** 
 2633              		.loc 1 256 19 is_stmt 0 view .LVU880
 2634 0000 C38E     		ldrh	r3, [r0, #54]
 256:Drivers/lvgl/src/widgets/lv_img.c **** 
 2635              		.loc 1 256 7 view .LVU881
 2636 0002 8B42     		cmp	r3, r1
 2637 0004 78D0     		beq	.L118
ARM GAS  /var/folders/0z/tsy30v1j4xl4_7kw94k978ww0000gn/T//ccDjPiYU.s 			page 84


 254:Drivers/lvgl/src/widgets/lv_img.c ****     lv_img_t * img = (lv_img_t *)obj;
 2638              		.loc 1 254 1 view .LVU882
 2639 0006 2DE9F041 		push	{r4, r5, r6, r7, r8, lr}
 2640              		.cfi_def_cfa_offset 24
 2641              		.cfi_offset 4, -24
 2642              		.cfi_offset 5, -20
 2643              		.cfi_offset 6, -16
 2644              		.cfi_offset 7, -12
 2645              		.cfi_offset 8, -8
 2646              		.cfi_offset 14, -4
 2647 000a 84B0     		sub	sp, sp, #16
 2648              		.cfi_def_cfa_offset 40
 2649 000c 0446     		mov	r4, r0
 2650 000e 0D46     		mov	r5, r1
 258:Drivers/lvgl/src/widgets/lv_img.c **** 
 2651              		.loc 1 258 5 is_stmt 1 view .LVU883
 258:Drivers/lvgl/src/widgets/lv_img.c **** 
 2652              		.loc 1 258 7 is_stmt 0 view .LVU884
 2653 0010 01B9     		cbnz	r1, .L115
 258:Drivers/lvgl/src/widgets/lv_img.c **** 
 2654              		.loc 1 258 24 view .LVU885
 2655 0012 0125     		movs	r5, #1
 2656              	.L115:
 2657              	.LVL233:
 260:Drivers/lvgl/src/widgets/lv_img.c ****     lv_coord_t w = lv_obj_get_width(obj);
 2658              		.loc 1 260 5 is_stmt 1 view .LVU886
 2659 0014 2046     		mov	r0, r4
 2660              	.LVL234:
 260:Drivers/lvgl/src/widgets/lv_img.c ****     lv_coord_t w = lv_obj_get_width(obj);
 2661              		.loc 1 260 5 is_stmt 0 view .LVU887
 2662 0016 FFF7FEFF 		bl	lv_obj_update_layout
 2663              	.LVL235:
 261:Drivers/lvgl/src/widgets/lv_img.c ****     lv_coord_t h = lv_obj_get_height(obj);
 2664              		.loc 1 261 5 is_stmt 1 view .LVU888
 261:Drivers/lvgl/src/widgets/lv_img.c ****     lv_coord_t h = lv_obj_get_height(obj);
 2665              		.loc 1 261 20 is_stmt 0 view .LVU889
 2666 001a 2046     		mov	r0, r4
 2667 001c FFF7FEFF 		bl	lv_obj_get_width
 2668              	.LVL236:
 2669 0020 0646     		mov	r6, r0
 2670              	.LVL237:
 262:Drivers/lvgl/src/widgets/lv_img.c ****     lv_area_t a;
 2671              		.loc 1 262 5 is_stmt 1 view .LVU890
 262:Drivers/lvgl/src/widgets/lv_img.c ****     lv_area_t a;
 2672              		.loc 1 262 20 is_stmt 0 view .LVU891
 2673 0022 2046     		mov	r0, r4
 2674 0024 FFF7FEFF 		bl	lv_obj_get_height
 2675              	.LVL238:
 2676 0028 0746     		mov	r7, r0
 2677              	.LVL239:
 263:Drivers/lvgl/src/widgets/lv_img.c ****     _lv_img_buf_get_transformed_area(&a, w, h, img->angle, img->zoom >> 8, &img->pivot);
 2678              		.loc 1 263 5 is_stmt 1 view .LVU892
 264:Drivers/lvgl/src/widgets/lv_img.c ****     a.x1 += obj->coords.x1 - 1;
 2679              		.loc 1 264 5 view .LVU893
 264:Drivers/lvgl/src/widgets/lv_img.c ****     a.x1 += obj->coords.x1 - 1;
 2680              		.loc 1 264 63 is_stmt 0 view .LVU894
 2681 002a E38E     		ldrh	r3, [r4, #54]
ARM GAS  /var/folders/0z/tsy30v1j4xl4_7kw94k978ww0000gn/T//ccDjPiYU.s 			page 85


 264:Drivers/lvgl/src/widgets/lv_img.c ****     a.x1 += obj->coords.x1 - 1;
 2682              		.loc 1 264 76 view .LVU895
 2683 002c 04F13208 		add	r8, r4, #50
 264:Drivers/lvgl/src/widgets/lv_img.c ****     a.x1 += obj->coords.x1 - 1;
 2684              		.loc 1 264 5 view .LVU896
 2685 0030 CDF80480 		str	r8, [sp, #4]
 2686 0034 1B0A     		lsrs	r3, r3, #8
 2687 0036 0093     		str	r3, [sp]
 2688 0038 B4F93030 		ldrsh	r3, [r4, #48]
 2689 003c 0246     		mov	r2, r0
 2690 003e 3146     		mov	r1, r6
 2691 0040 02A8     		add	r0, sp, #8
 2692              	.LVL240:
 264:Drivers/lvgl/src/widgets/lv_img.c ****     a.x1 += obj->coords.x1 - 1;
 2693              		.loc 1 264 5 view .LVU897
 2694 0042 FFF7FEFF 		bl	_lv_img_buf_get_transformed_area
 2695              	.LVL241:
 265:Drivers/lvgl/src/widgets/lv_img.c ****     a.y1 += obj->coords.y1 - 1;
 2696              		.loc 1 265 5 is_stmt 1 view .LVU898
 265:Drivers/lvgl/src/widgets/lv_img.c ****     a.y1 += obj->coords.y1 - 1;
 2697              		.loc 1 265 24 is_stmt 0 view .LVU899
 2698 0046 A28A     		ldrh	r2, [r4, #20]
 265:Drivers/lvgl/src/widgets/lv_img.c ****     a.y1 += obj->coords.y1 - 1;
 2699              		.loc 1 265 10 view .LVU900
 2700 0048 BDF80830 		ldrh	r3, [sp, #8]
 2701 004c 1344     		add	r3, r3, r2
 2702 004e 013B     		subs	r3, r3, #1
 2703 0050 ADF80830 		strh	r3, [sp, #8]	@ movhi
 266:Drivers/lvgl/src/widgets/lv_img.c ****     a.x2 += obj->coords.x1 + 1;
 2704              		.loc 1 266 5 is_stmt 1 view .LVU901
 266:Drivers/lvgl/src/widgets/lv_img.c ****     a.x2 += obj->coords.x1 + 1;
 2705              		.loc 1 266 24 is_stmt 0 view .LVU902
 2706 0054 E38A     		ldrh	r3, [r4, #22]
 266:Drivers/lvgl/src/widgets/lv_img.c ****     a.x2 += obj->coords.x1 + 1;
 2707              		.loc 1 266 10 view .LVU903
 2708 0056 BDF80A10 		ldrh	r1, [sp, #10]
 2709 005a 1944     		add	r1, r1, r3
 2710 005c 0139     		subs	r1, r1, #1
 2711 005e ADF80A10 		strh	r1, [sp, #10]	@ movhi
 267:Drivers/lvgl/src/widgets/lv_img.c ****     a.y2 += obj->coords.y1 + 1;
 2712              		.loc 1 267 5 is_stmt 1 view .LVU904
 267:Drivers/lvgl/src/widgets/lv_img.c ****     a.y2 += obj->coords.y1 + 1;
 2713              		.loc 1 267 10 is_stmt 0 view .LVU905
 2714 0062 BDF80C10 		ldrh	r1, [sp, #12]
 2715 0066 0A44     		add	r2, r2, r1
 2716 0068 0132     		adds	r2, r2, #1
 2717 006a ADF80C20 		strh	r2, [sp, #12]	@ movhi
 268:Drivers/lvgl/src/widgets/lv_img.c ****     lv_obj_invalidate_area(obj, &a);
 2718              		.loc 1 268 5 is_stmt 1 view .LVU906
 268:Drivers/lvgl/src/widgets/lv_img.c ****     lv_obj_invalidate_area(obj, &a);
 2719              		.loc 1 268 10 is_stmt 0 view .LVU907
 2720 006e BDF80E20 		ldrh	r2, [sp, #14]
 2721 0072 1344     		add	r3, r3, r2
 2722 0074 0133     		adds	r3, r3, #1
 2723 0076 ADF80E30 		strh	r3, [sp, #14]	@ movhi
 269:Drivers/lvgl/src/widgets/lv_img.c **** 
 2724              		.loc 1 269 5 is_stmt 1 view .LVU908
ARM GAS  /var/folders/0z/tsy30v1j4xl4_7kw94k978ww0000gn/T//ccDjPiYU.s 			page 86


 2725 007a 02A9     		add	r1, sp, #8
 2726 007c 2046     		mov	r0, r4
 2727 007e FFF7FEFF 		bl	lv_obj_invalidate_area
 2728              	.LVL242:
 271:Drivers/lvgl/src/widgets/lv_img.c **** 
 2729              		.loc 1 271 5 view .LVU909
 271:Drivers/lvgl/src/widgets/lv_img.c **** 
 2730              		.loc 1 271 15 is_stmt 0 view .LVU910
 2731 0082 E586     		strh	r5, [r4, #54]	@ movhi
 275:Drivers/lvgl/src/widgets/lv_img.c ****     lv_disp_enable_invalidation(disp, false);
 2732              		.loc 1 275 5 is_stmt 1 view .LVU911
 275:Drivers/lvgl/src/widgets/lv_img.c ****     lv_disp_enable_invalidation(disp, false);
 2733              		.loc 1 275 24 is_stmt 0 view .LVU912
 2734 0084 2046     		mov	r0, r4
 2735 0086 FFF7FEFF 		bl	lv_obj_get_disp
 2736              	.LVL243:
 2737 008a 0546     		mov	r5, r0
 2738              	.LVL244:
 276:Drivers/lvgl/src/widgets/lv_img.c ****     lv_obj_refresh_ext_draw_size(obj);
 2739              		.loc 1 276 5 is_stmt 1 view .LVU913
 2740 008c 0021     		movs	r1, #0
 2741 008e FFF7FEFF 		bl	lv_disp_enable_invalidation
 2742              	.LVL245:
 277:Drivers/lvgl/src/widgets/lv_img.c ****     lv_disp_enable_invalidation(disp, true);
 2743              		.loc 1 277 5 view .LVU914
 2744 0092 2046     		mov	r0, r4
 2745 0094 FFF7FEFF 		bl	lv_obj_refresh_ext_draw_size
 2746              	.LVL246:
 278:Drivers/lvgl/src/widgets/lv_img.c **** 
 2747              		.loc 1 278 5 view .LVU915
 2748 0098 0121     		movs	r1, #1
 2749 009a 2846     		mov	r0, r5
 2750 009c FFF7FEFF 		bl	lv_disp_enable_invalidation
 2751              	.LVL247:
 280:Drivers/lvgl/src/widgets/lv_img.c ****     a.x1 += obj->coords.x1 - 1;
 2752              		.loc 1 280 5 view .LVU916
 2753 00a0 CDF80480 		str	r8, [sp, #4]
 2754 00a4 E38E     		ldrh	r3, [r4, #54]
 2755 00a6 0093     		str	r3, [sp]
 2756 00a8 B4F93030 		ldrsh	r3, [r4, #48]
 2757 00ac 3A46     		mov	r2, r7
 2758 00ae 3146     		mov	r1, r6
 2759 00b0 02A8     		add	r0, sp, #8
 2760 00b2 FFF7FEFF 		bl	_lv_img_buf_get_transformed_area
 2761              	.LVL248:
 281:Drivers/lvgl/src/widgets/lv_img.c ****     a.y1 += obj->coords.y1 - 1;
 2762              		.loc 1 281 5 view .LVU917
 281:Drivers/lvgl/src/widgets/lv_img.c ****     a.y1 += obj->coords.y1 - 1;
 2763              		.loc 1 281 24 is_stmt 0 view .LVU918
 2764 00b6 A28A     		ldrh	r2, [r4, #20]
 281:Drivers/lvgl/src/widgets/lv_img.c ****     a.y1 += obj->coords.y1 - 1;
 2765              		.loc 1 281 10 view .LVU919
 2766 00b8 BDF80830 		ldrh	r3, [sp, #8]
 2767 00bc 1344     		add	r3, r3, r2
 2768 00be 013B     		subs	r3, r3, #1
 2769 00c0 ADF80830 		strh	r3, [sp, #8]	@ movhi
 282:Drivers/lvgl/src/widgets/lv_img.c ****     a.x2 += obj->coords.x1 + 1;
ARM GAS  /var/folders/0z/tsy30v1j4xl4_7kw94k978ww0000gn/T//ccDjPiYU.s 			page 87


 2770              		.loc 1 282 5 is_stmt 1 view .LVU920
 282:Drivers/lvgl/src/widgets/lv_img.c ****     a.x2 += obj->coords.x1 + 1;
 2771              		.loc 1 282 24 is_stmt 0 view .LVU921
 2772 00c4 E38A     		ldrh	r3, [r4, #22]
 282:Drivers/lvgl/src/widgets/lv_img.c ****     a.x2 += obj->coords.x1 + 1;
 2773              		.loc 1 282 10 view .LVU922
 2774 00c6 BDF80A10 		ldrh	r1, [sp, #10]
 2775 00ca 1944     		add	r1, r1, r3
 2776 00cc 0139     		subs	r1, r1, #1
 2777 00ce ADF80A10 		strh	r1, [sp, #10]	@ movhi
 283:Drivers/lvgl/src/widgets/lv_img.c ****     a.y2 += obj->coords.y1 + 1;
 2778              		.loc 1 283 5 is_stmt 1 view .LVU923
 283:Drivers/lvgl/src/widgets/lv_img.c ****     a.y2 += obj->coords.y1 + 1;
 2779              		.loc 1 283 10 is_stmt 0 view .LVU924
 2780 00d2 BDF80C10 		ldrh	r1, [sp, #12]
 2781 00d6 0A44     		add	r2, r2, r1
 2782 00d8 0132     		adds	r2, r2, #1
 2783 00da ADF80C20 		strh	r2, [sp, #12]	@ movhi
 284:Drivers/lvgl/src/widgets/lv_img.c ****     lv_obj_invalidate_area(obj, &a);
 2784              		.loc 1 284 5 is_stmt 1 view .LVU925
 284:Drivers/lvgl/src/widgets/lv_img.c ****     lv_obj_invalidate_area(obj, &a);
 2785              		.loc 1 284 10 is_stmt 0 view .LVU926
 2786 00de BDF80E20 		ldrh	r2, [sp, #14]
 2787 00e2 1344     		add	r3, r3, r2
 2788 00e4 0133     		adds	r3, r3, #1
 2789 00e6 ADF80E30 		strh	r3, [sp, #14]	@ movhi
 285:Drivers/lvgl/src/widgets/lv_img.c **** }
 2790              		.loc 1 285 5 is_stmt 1 view .LVU927
 2791 00ea 02A9     		add	r1, sp, #8
 2792 00ec 2046     		mov	r0, r4
 2793 00ee FFF7FEFF 		bl	lv_obj_invalidate_area
 2794              	.LVL249:
 286:Drivers/lvgl/src/widgets/lv_img.c **** 
 2795              		.loc 1 286 1 is_stmt 0 view .LVU928
 2796 00f2 04B0     		add	sp, sp, #16
 2797              		.cfi_def_cfa_offset 24
 2798              		@ sp needed
 2799 00f4 BDE8F081 		pop	{r4, r5, r6, r7, r8, pc}
 2800              	.LVL250:
 2801              	.L118:
 2802              		.cfi_def_cfa_offset 0
 2803              		.cfi_restore 4
 2804              		.cfi_restore 5
 2805              		.cfi_restore 6
 2806              		.cfi_restore 7
 2807              		.cfi_restore 8
 2808              		.cfi_restore 14
 286:Drivers/lvgl/src/widgets/lv_img.c **** 
 2809              		.loc 1 286 1 view .LVU929
 2810 00f8 7047     		bx	lr
 2811              		.cfi_endproc
 2812              	.LFE173:
 2814              		.section	.text.lv_img_set_antialias,"ax",%progbits
 2815              		.align	1
 2816              		.global	lv_img_set_antialias
 2817              		.syntax unified
 2818              		.thumb
ARM GAS  /var/folders/0z/tsy30v1j4xl4_7kw94k978ww0000gn/T//ccDjPiYU.s 			page 88


 2819              		.thumb_func
 2821              	lv_img_set_antialias:
 2822              	.LVL251:
 2823              	.LFB174:
 289:Drivers/lvgl/src/widgets/lv_img.c ****     lv_img_t * img = (lv_img_t *)obj;
 2824              		.loc 1 289 1 is_stmt 1 view -0
 2825              		.cfi_startproc
 2826              		@ args = 0, pretend = 0, frame = 0
 2827              		@ frame_needed = 0, uses_anonymous_args = 0
 289:Drivers/lvgl/src/widgets/lv_img.c ****     lv_img_t * img = (lv_img_t *)obj;
 2828              		.loc 1 289 1 is_stmt 0 view .LVU931
 2829 0000 08B5     		push	{r3, lr}
 2830              		.cfi_def_cfa_offset 8
 2831              		.cfi_offset 3, -8
 2832              		.cfi_offset 14, -4
 290:Drivers/lvgl/src/widgets/lv_img.c ****     if(antialias == img->antialias) return;
 2833              		.loc 1 290 5 is_stmt 1 view .LVU932
 2834              	.LVL252:
 291:Drivers/lvgl/src/widgets/lv_img.c **** 
 2835              		.loc 1 291 5 view .LVU933
 291:Drivers/lvgl/src/widgets/lv_img.c **** 
 2836              		.loc 1 291 24 is_stmt 0 view .LVU934
 2837 0002 90F83830 		ldrb	r3, [r0, #56]	@ zero_extendqisi2
 291:Drivers/lvgl/src/widgets/lv_img.c **** 
 2838              		.loc 1 291 7 view .LVU935
 2839 0006 B1EBD31F 		cmp	r1, r3, lsr #7
 2840 000a 07D0     		beq	.L121
 293:Drivers/lvgl/src/widgets/lv_img.c ****     lv_obj_invalidate(obj);
 2841              		.loc 1 293 5 is_stmt 1 view .LVU936
 293:Drivers/lvgl/src/widgets/lv_img.c ****     lv_obj_invalidate(obj);
 2842              		.loc 1 293 20 is_stmt 0 view .LVU937
 2843 000c 90F83830 		ldrb	r3, [r0, #56]	@ zero_extendqisi2
 2844 0010 61F3C713 		bfi	r3, r1, #7, #1
 2845 0014 80F83830 		strb	r3, [r0, #56]
 294:Drivers/lvgl/src/widgets/lv_img.c **** }
 2846              		.loc 1 294 5 is_stmt 1 view .LVU938
 2847 0018 FFF7FEFF 		bl	lv_obj_invalidate
 2848              	.LVL253:
 2849              	.L121:
 295:Drivers/lvgl/src/widgets/lv_img.c **** 
 2850              		.loc 1 295 1 is_stmt 0 view .LVU939
 2851 001c 08BD     		pop	{r3, pc}
 2852              		.cfi_endproc
 2853              	.LFE174:
 2855              		.section	.text.lv_img_set_size_mode,"ax",%progbits
 2856              		.align	1
 2857              		.global	lv_img_set_size_mode
 2858              		.syntax unified
 2859              		.thumb
 2860              		.thumb_func
 2862              	lv_img_set_size_mode:
 2863              	.LVL254:
 2864              	.LFB175:
 298:Drivers/lvgl/src/widgets/lv_img.c ****     LV_ASSERT_OBJ(obj, MY_CLASS);
 2865              		.loc 1 298 1 is_stmt 1 view -0
 2866              		.cfi_startproc
 2867              		@ args = 0, pretend = 0, frame = 0
ARM GAS  /var/folders/0z/tsy30v1j4xl4_7kw94k978ww0000gn/T//ccDjPiYU.s 			page 89


 2868              		@ frame_needed = 0, uses_anonymous_args = 0
 298:Drivers/lvgl/src/widgets/lv_img.c ****     LV_ASSERT_OBJ(obj, MY_CLASS);
 2869              		.loc 1 298 1 is_stmt 0 view .LVU941
 2870 0000 08B5     		push	{r3, lr}
 2871              		.cfi_def_cfa_offset 8
 2872              		.cfi_offset 3, -8
 2873              		.cfi_offset 14, -4
 299:Drivers/lvgl/src/widgets/lv_img.c ****     lv_img_t * img = (lv_img_t *)obj;
 2874              		.loc 1 299 5 is_stmt 1 view .LVU942
 299:Drivers/lvgl/src/widgets/lv_img.c ****     lv_img_t * img = (lv_img_t *)obj;
 2875              		.loc 1 299 5 view .LVU943
 299:Drivers/lvgl/src/widgets/lv_img.c ****     lv_img_t * img = (lv_img_t *)obj;
 2876              		.loc 1 299 5 view .LVU944
 300:Drivers/lvgl/src/widgets/lv_img.c ****     if(mode == img->obj_size_mode) return;
 2877              		.loc 1 300 5 view .LVU945
 2878              	.LVL255:
 301:Drivers/lvgl/src/widgets/lv_img.c **** 
 2879              		.loc 1 301 5 view .LVU946
 301:Drivers/lvgl/src/widgets/lv_img.c **** 
 2880              		.loc 1 301 19 is_stmt 0 view .LVU947
 2881 0002 90F83930 		ldrb	r3, [r0, #57]	@ zero_extendqisi2
 2882 0006 03F00303 		and	r3, r3, #3
 301:Drivers/lvgl/src/widgets/lv_img.c **** 
 2883              		.loc 1 301 7 view .LVU948
 2884 000a 8B42     		cmp	r3, r1
 2885 000c 07D0     		beq	.L124
 303:Drivers/lvgl/src/widgets/lv_img.c ****     lv_obj_invalidate(obj);
 2886              		.loc 1 303 5 is_stmt 1 view .LVU949
 303:Drivers/lvgl/src/widgets/lv_img.c ****     lv_obj_invalidate(obj);
 2887              		.loc 1 303 24 is_stmt 0 view .LVU950
 2888 000e 90F83930 		ldrb	r3, [r0, #57]	@ zero_extendqisi2
 2889 0012 61F30103 		bfi	r3, r1, #0, #2
 2890              	.LVL256:
 303:Drivers/lvgl/src/widgets/lv_img.c ****     lv_obj_invalidate(obj);
 2891              		.loc 1 303 24 view .LVU951
 2892 0016 80F83930 		strb	r3, [r0, #57]
 304:Drivers/lvgl/src/widgets/lv_img.c **** }
 2893              		.loc 1 304 5 is_stmt 1 view .LVU952
 2894 001a FFF7FEFF 		bl	lv_obj_invalidate
 2895              	.LVL257:
 2896              	.L124:
 305:Drivers/lvgl/src/widgets/lv_img.c **** 
 2897              		.loc 1 305 1 is_stmt 0 view .LVU953
 2898 001e 08BD     		pop	{r3, pc}
 2899              		.cfi_endproc
 2900              	.LFE175:
 2902              		.section	.text.lv_img_get_src,"ax",%progbits
 2903              		.align	1
 2904              		.global	lv_img_get_src
 2905              		.syntax unified
 2906              		.thumb
 2907              		.thumb_func
 2909              	lv_img_get_src:
 2910              	.LVL258:
 2911              	.LFB176:
 312:Drivers/lvgl/src/widgets/lv_img.c ****     LV_ASSERT_OBJ(obj, MY_CLASS);
 2912              		.loc 1 312 1 is_stmt 1 view -0
ARM GAS  /var/folders/0z/tsy30v1j4xl4_7kw94k978ww0000gn/T//ccDjPiYU.s 			page 90


 2913              		.cfi_startproc
 2914              		@ args = 0, pretend = 0, frame = 0
 2915              		@ frame_needed = 0, uses_anonymous_args = 0
 2916              		@ link register save eliminated.
 313:Drivers/lvgl/src/widgets/lv_img.c **** 
 2917              		.loc 1 313 5 view .LVU955
 313:Drivers/lvgl/src/widgets/lv_img.c **** 
 2918              		.loc 1 313 5 view .LVU956
 313:Drivers/lvgl/src/widgets/lv_img.c **** 
 2919              		.loc 1 313 5 view .LVU957
 315:Drivers/lvgl/src/widgets/lv_img.c **** 
 2920              		.loc 1 315 5 view .LVU958
 317:Drivers/lvgl/src/widgets/lv_img.c **** }
 2921              		.loc 1 317 5 view .LVU959
 318:Drivers/lvgl/src/widgets/lv_img.c **** 
 2922              		.loc 1 318 1 is_stmt 0 view .LVU960
 2923 0000 406A     		ldr	r0, [r0, #36]
 2924              	.LVL259:
 318:Drivers/lvgl/src/widgets/lv_img.c **** 
 2925              		.loc 1 318 1 view .LVU961
 2926 0002 7047     		bx	lr
 2927              		.cfi_endproc
 2928              	.LFE176:
 2930              		.section	.text.lv_img_get_offset_x,"ax",%progbits
 2931              		.align	1
 2932              		.global	lv_img_get_offset_x
 2933              		.syntax unified
 2934              		.thumb
 2935              		.thumb_func
 2937              	lv_img_get_offset_x:
 2938              	.LVL260:
 2939              	.LFB177:
 321:Drivers/lvgl/src/widgets/lv_img.c ****     LV_ASSERT_OBJ(obj, MY_CLASS);
 2940              		.loc 1 321 1 is_stmt 1 view -0
 2941              		.cfi_startproc
 2942              		@ args = 0, pretend = 0, frame = 0
 2943              		@ frame_needed = 0, uses_anonymous_args = 0
 2944              		@ link register save eliminated.
 322:Drivers/lvgl/src/widgets/lv_img.c **** 
 2945              		.loc 1 322 5 view .LVU963
 322:Drivers/lvgl/src/widgets/lv_img.c **** 
 2946              		.loc 1 322 5 view .LVU964
 322:Drivers/lvgl/src/widgets/lv_img.c **** 
 2947              		.loc 1 322 5 view .LVU965
 324:Drivers/lvgl/src/widgets/lv_img.c **** 
 2948              		.loc 1 324 5 view .LVU966
 326:Drivers/lvgl/src/widgets/lv_img.c **** }
 2949              		.loc 1 326 5 view .LVU967
 327:Drivers/lvgl/src/widgets/lv_img.c **** 
 2950              		.loc 1 327 1 is_stmt 0 view .LVU968
 2951 0000 B0F92800 		ldrsh	r0, [r0, #40]
 2952              	.LVL261:
 327:Drivers/lvgl/src/widgets/lv_img.c **** 
 2953              		.loc 1 327 1 view .LVU969
 2954 0004 7047     		bx	lr
 2955              		.cfi_endproc
 2956              	.LFE177:
ARM GAS  /var/folders/0z/tsy30v1j4xl4_7kw94k978ww0000gn/T//ccDjPiYU.s 			page 91


 2958              		.section	.text.lv_img_get_offset_y,"ax",%progbits
 2959              		.align	1
 2960              		.global	lv_img_get_offset_y
 2961              		.syntax unified
 2962              		.thumb
 2963              		.thumb_func
 2965              	lv_img_get_offset_y:
 2966              	.LVL262:
 2967              	.LFB178:
 330:Drivers/lvgl/src/widgets/lv_img.c ****     LV_ASSERT_OBJ(obj, MY_CLASS);
 2968              		.loc 1 330 1 is_stmt 1 view -0
 2969              		.cfi_startproc
 2970              		@ args = 0, pretend = 0, frame = 0
 2971              		@ frame_needed = 0, uses_anonymous_args = 0
 2972              		@ link register save eliminated.
 331:Drivers/lvgl/src/widgets/lv_img.c **** 
 2973              		.loc 1 331 5 view .LVU971
 331:Drivers/lvgl/src/widgets/lv_img.c **** 
 2974              		.loc 1 331 5 view .LVU972
 331:Drivers/lvgl/src/widgets/lv_img.c **** 
 2975              		.loc 1 331 5 view .LVU973
 333:Drivers/lvgl/src/widgets/lv_img.c **** 
 2976              		.loc 1 333 5 view .LVU974
 335:Drivers/lvgl/src/widgets/lv_img.c **** }
 2977              		.loc 1 335 5 view .LVU975
 336:Drivers/lvgl/src/widgets/lv_img.c **** 
 2978              		.loc 1 336 1 is_stmt 0 view .LVU976
 2979 0000 B0F92A00 		ldrsh	r0, [r0, #42]
 2980              	.LVL263:
 336:Drivers/lvgl/src/widgets/lv_img.c **** 
 2981              		.loc 1 336 1 view .LVU977
 2982 0004 7047     		bx	lr
 2983              		.cfi_endproc
 2984              	.LFE178:
 2986              		.section	.text.lv_img_get_angle,"ax",%progbits
 2987              		.align	1
 2988              		.global	lv_img_get_angle
 2989              		.syntax unified
 2990              		.thumb
 2991              		.thumb_func
 2993              	lv_img_get_angle:
 2994              	.LVL264:
 2995              	.LFB179:
 339:Drivers/lvgl/src/widgets/lv_img.c ****     LV_ASSERT_OBJ(obj, MY_CLASS);
 2996              		.loc 1 339 1 is_stmt 1 view -0
 2997              		.cfi_startproc
 2998              		@ args = 0, pretend = 0, frame = 0
 2999              		@ frame_needed = 0, uses_anonymous_args = 0
 3000              		@ link register save eliminated.
 340:Drivers/lvgl/src/widgets/lv_img.c **** 
 3001              		.loc 1 340 5 view .LVU979
 340:Drivers/lvgl/src/widgets/lv_img.c **** 
 3002              		.loc 1 340 5 view .LVU980
 340:Drivers/lvgl/src/widgets/lv_img.c **** 
 3003              		.loc 1 340 5 view .LVU981
 342:Drivers/lvgl/src/widgets/lv_img.c **** 
 3004              		.loc 1 342 5 view .LVU982
ARM GAS  /var/folders/0z/tsy30v1j4xl4_7kw94k978ww0000gn/T//ccDjPiYU.s 			page 92


 344:Drivers/lvgl/src/widgets/lv_img.c **** }
 3005              		.loc 1 344 5 view .LVU983
 345:Drivers/lvgl/src/widgets/lv_img.c **** 
 3006              		.loc 1 345 1 is_stmt 0 view .LVU984
 3007 0000 008E     		ldrh	r0, [r0, #48]
 3008              	.LVL265:
 345:Drivers/lvgl/src/widgets/lv_img.c **** 
 3009              		.loc 1 345 1 view .LVU985
 3010 0002 7047     		bx	lr
 3011              		.cfi_endproc
 3012              	.LFE179:
 3014              		.section	.text.lv_img_get_pivot,"ax",%progbits
 3015              		.align	1
 3016              		.global	lv_img_get_pivot
 3017              		.syntax unified
 3018              		.thumb
 3019              		.thumb_func
 3021              	lv_img_get_pivot:
 3022              	.LVL266:
 3023              	.LFB180:
 348:Drivers/lvgl/src/widgets/lv_img.c ****     LV_ASSERT_OBJ(obj, MY_CLASS);
 3024              		.loc 1 348 1 is_stmt 1 view -0
 3025              		.cfi_startproc
 3026              		@ args = 0, pretend = 0, frame = 0
 3027              		@ frame_needed = 0, uses_anonymous_args = 0
 3028              		@ link register save eliminated.
 349:Drivers/lvgl/src/widgets/lv_img.c **** 
 3029              		.loc 1 349 5 view .LVU987
 349:Drivers/lvgl/src/widgets/lv_img.c **** 
 3030              		.loc 1 349 5 view .LVU988
 349:Drivers/lvgl/src/widgets/lv_img.c **** 
 3031              		.loc 1 349 5 view .LVU989
 351:Drivers/lvgl/src/widgets/lv_img.c **** 
 3032              		.loc 1 351 5 view .LVU990
 353:Drivers/lvgl/src/widgets/lv_img.c **** }
 3033              		.loc 1 353 5 view .LVU991
 353:Drivers/lvgl/src/widgets/lv_img.c **** }
 3034              		.loc 1 353 12 is_stmt 0 view .LVU992
 3035 0000 D0F83230 		ldr	r3, [r0, #50]	@ unaligned
 3036 0004 0B60     		str	r3, [r1]	@ unaligned
 354:Drivers/lvgl/src/widgets/lv_img.c **** 
 3037              		.loc 1 354 1 view .LVU993
 3038 0006 7047     		bx	lr
 3039              		.cfi_endproc
 3040              	.LFE180:
 3042              		.section	.text.lv_img_get_zoom,"ax",%progbits
 3043              		.align	1
 3044              		.global	lv_img_get_zoom
 3045              		.syntax unified
 3046              		.thumb
 3047              		.thumb_func
 3049              	lv_img_get_zoom:
 3050              	.LVL267:
 3051              	.LFB181:
 357:Drivers/lvgl/src/widgets/lv_img.c ****     LV_ASSERT_OBJ(obj, MY_CLASS);
 3052              		.loc 1 357 1 is_stmt 1 view -0
 3053              		.cfi_startproc
ARM GAS  /var/folders/0z/tsy30v1j4xl4_7kw94k978ww0000gn/T//ccDjPiYU.s 			page 93


 3054              		@ args = 0, pretend = 0, frame = 0
 3055              		@ frame_needed = 0, uses_anonymous_args = 0
 3056              		@ link register save eliminated.
 358:Drivers/lvgl/src/widgets/lv_img.c **** 
 3057              		.loc 1 358 5 view .LVU995
 358:Drivers/lvgl/src/widgets/lv_img.c **** 
 3058              		.loc 1 358 5 view .LVU996
 358:Drivers/lvgl/src/widgets/lv_img.c **** 
 3059              		.loc 1 358 5 view .LVU997
 360:Drivers/lvgl/src/widgets/lv_img.c **** 
 3060              		.loc 1 360 5 view .LVU998
 362:Drivers/lvgl/src/widgets/lv_img.c **** }
 3061              		.loc 1 362 5 view .LVU999
 363:Drivers/lvgl/src/widgets/lv_img.c **** 
 3062              		.loc 1 363 1 is_stmt 0 view .LVU1000
 3063 0000 C08E     		ldrh	r0, [r0, #54]
 3064              	.LVL268:
 363:Drivers/lvgl/src/widgets/lv_img.c **** 
 3065              		.loc 1 363 1 view .LVU1001
 3066 0002 7047     		bx	lr
 3067              		.cfi_endproc
 3068              	.LFE181:
 3070              		.section	.text.lv_img_get_antialias,"ax",%progbits
 3071              		.align	1
 3072              		.global	lv_img_get_antialias
 3073              		.syntax unified
 3074              		.thumb
 3075              		.thumb_func
 3077              	lv_img_get_antialias:
 3078              	.LVL269:
 3079              	.LFB182:
 366:Drivers/lvgl/src/widgets/lv_img.c ****     LV_ASSERT_OBJ(obj, MY_CLASS);
 3080              		.loc 1 366 1 is_stmt 1 view -0
 3081              		.cfi_startproc
 3082              		@ args = 0, pretend = 0, frame = 0
 3083              		@ frame_needed = 0, uses_anonymous_args = 0
 3084              		@ link register save eliminated.
 367:Drivers/lvgl/src/widgets/lv_img.c **** 
 3085              		.loc 1 367 5 view .LVU1003
 367:Drivers/lvgl/src/widgets/lv_img.c **** 
 3086              		.loc 1 367 5 view .LVU1004
 367:Drivers/lvgl/src/widgets/lv_img.c **** 
 3087              		.loc 1 367 5 view .LVU1005
 369:Drivers/lvgl/src/widgets/lv_img.c **** 
 3088              		.loc 1 369 5 view .LVU1006
 371:Drivers/lvgl/src/widgets/lv_img.c **** }
 3089              		.loc 1 371 5 view .LVU1007
 371:Drivers/lvgl/src/widgets/lv_img.c **** }
 3090              		.loc 1 371 27 is_stmt 0 view .LVU1008
 3091 0000 90F83800 		ldrb	r0, [r0, #56]	@ zero_extendqisi2
 3092              	.LVL270:
 372:Drivers/lvgl/src/widgets/lv_img.c **** 
 3093              		.loc 1 372 1 view .LVU1009
 3094 0004 C009     		lsrs	r0, r0, #7
 3095 0006 7047     		bx	lr
 3096              		.cfi_endproc
 3097              	.LFE182:
ARM GAS  /var/folders/0z/tsy30v1j4xl4_7kw94k978ww0000gn/T//ccDjPiYU.s 			page 94


 3099              		.section	.text.lv_img_get_size_mode,"ax",%progbits
 3100              		.align	1
 3101              		.global	lv_img_get_size_mode
 3102              		.syntax unified
 3103              		.thumb
 3104              		.thumb_func
 3106              	lv_img_get_size_mode:
 3107              	.LVL271:
 3108              	.LFB183:
 375:Drivers/lvgl/src/widgets/lv_img.c ****     LV_ASSERT_OBJ(obj, MY_CLASS);
 3109              		.loc 1 375 1 is_stmt 1 view -0
 3110              		.cfi_startproc
 3111              		@ args = 0, pretend = 0, frame = 0
 3112              		@ frame_needed = 0, uses_anonymous_args = 0
 3113              		@ link register save eliminated.
 376:Drivers/lvgl/src/widgets/lv_img.c ****     lv_img_t * img = (lv_img_t *)obj;
 3114              		.loc 1 376 5 view .LVU1011
 376:Drivers/lvgl/src/widgets/lv_img.c ****     lv_img_t * img = (lv_img_t *)obj;
 3115              		.loc 1 376 5 view .LVU1012
 376:Drivers/lvgl/src/widgets/lv_img.c ****     lv_img_t * img = (lv_img_t *)obj;
 3116              		.loc 1 376 5 view .LVU1013
 377:Drivers/lvgl/src/widgets/lv_img.c ****     return img->obj_size_mode;
 3117              		.loc 1 377 5 view .LVU1014
 378:Drivers/lvgl/src/widgets/lv_img.c **** }
 3118              		.loc 1 378 5 view .LVU1015
 378:Drivers/lvgl/src/widgets/lv_img.c **** }
 3119              		.loc 1 378 15 is_stmt 0 view .LVU1016
 3120 0000 90F83900 		ldrb	r0, [r0, #57]	@ zero_extendqisi2
 3121              	.LVL272:
 379:Drivers/lvgl/src/widgets/lv_img.c **** 
 3122              		.loc 1 379 1 view .LVU1017
 3123 0004 00F00300 		and	r0, r0, #3
 3124 0008 7047     		bx	lr
 3125              		.cfi_endproc
 3126              	.LFE183:
 3128              		.global	lv_img_class
 3129              		.section	.rodata.lv_img_class,"a"
 3130              		.align	2
 3131              		.set	.LANCHOR0,. + 0
 3134              	lv_img_class:
 3135 0000 00000000 		.word	lv_obj_class
 3136 0004 00000000 		.word	lv_img_constructor
 3137 0008 00000000 		.word	lv_img_destructor
 3138 000c 00000000 		.space	4
 3139 0010 00000000 		.word	lv_img_event
 3140 0014 D127     		.short	10193
 3141 0016 D127     		.short	10193
 3142 0018 C0       		.byte	192
 3143 0019 03       		.byte	3
 3144 001a 00       		.byte	0
 3145 001b 00       		.space	1
 3146              		.text
 3147              	.Letext0:
 3148              		.file 4 "/Users/johannes/Library/Application Support/Code/User/globalStorage/bmd.stm32-for-vscode/
 3149              		.file 5 "/Users/johannes/Library/Application Support/Code/User/globalStorage/bmd.stm32-for-vscode/
 3150              		.file 6 "/Users/johannes/Library/Application Support/Code/User/globalStorage/bmd.stm32-for-vscode/
 3151              		.file 7 "Drivers/lvgl/src/widgets/../core/../misc/../font/lv_font.h"
ARM GAS  /var/folders/0z/tsy30v1j4xl4_7kw94k978ww0000gn/T//ccDjPiYU.s 			page 95


 3152              		.file 8 "Drivers/lvgl/src/widgets/../core/../misc/lv_types.h"
 3153              		.file 9 "Drivers/lvgl/src/widgets/../core/../misc/lv_color.h"
 3154              		.file 10 "Drivers/lvgl/src/widgets/../core/../misc/lv_txt.h"
 3155              		.file 11 "Drivers/lvgl/src/widgets/../core/../misc/lv_bidi.h"
 3156              		.file 12 "Drivers/lvgl/src/widgets/../core/../misc/lv_style.h"
 3157              		.file 13 "Drivers/lvgl/src/widgets/../core/../hal/../draw/lv_img_buf.h"
 3158              		.file 14 "Drivers/lvgl/src/widgets/../core/../hal/../draw/lv_img_decoder.h"
 3159              		.file 15 "Drivers/lvgl/src/widgets/../core/lv_obj.h"
 3160              		.file 16 "Drivers/lvgl/src/widgets/../core/../hal/../draw/lv_draw_rect.h"
 3161              		.file 17 "Drivers/lvgl/src/widgets/../core/../hal/../draw/lv_draw_label.h"
 3162              		.file 18 "Drivers/lvgl/src/widgets/../core/../hal/../draw/lv_draw_img.h"
 3163              		.file 19 "Drivers/lvgl/src/widgets/../core/../hal/../draw/lv_draw_line.h"
 3164              		.file 20 "Drivers/lvgl/src/widgets/../core/../hal/../draw/lv_draw_arc.h"
 3165              		.file 21 "Drivers/lvgl/src/widgets/../core/../hal/../draw/lv_draw_layer.h"
 3166              		.file 22 "Drivers/lvgl/src/widgets/../core/../hal/../draw/lv_draw.h"
 3167              		.file 23 "Drivers/lvgl/src/widgets/../core/../hal/../misc/lv_ll.h"
 3168              		.file 24 "Drivers/lvgl/src/widgets/../core/../hal/../misc/lv_timer.h"
 3169              		.file 25 "Drivers/lvgl/src/widgets/../core/../hal/lv_hal_disp.h"
 3170              		.file 26 "Drivers/lvgl/src/widgets/../core/lv_theme.h"
 3171              		.file 27 "Drivers/lvgl/src/widgets/../core/lv_group.h"
 3172              		.file 28 "Drivers/lvgl/src/widgets/../core/lv_obj_scroll.h"
 3173              		.file 29 "Drivers/lvgl/src/widgets/../core/lv_obj_style.h"
 3174              		.file 30 "Drivers/lvgl/src/widgets/../core/lv_obj_draw.h"
 3175              		.file 31 "Drivers/lvgl/src/widgets/../core/lv_obj_class.h"
 3176              		.file 32 "Drivers/lvgl/src/widgets/../core/lv_event.h"
 3177              		.file 33 "Drivers/lvgl/src/widgets/lv_img.h"
 3178              		.file 34 "Drivers/lvgl/src/widgets/../core/lv_disp.h"
 3179              		.file 35 "Drivers/lvgl/src/widgets/../core/../hal/../draw/sw/../../core/lv_obj_pos.h"
 3180              		.file 36 "Drivers/lvgl/src/widgets/../core/lv_obj_tree.h"
 3181              		.file 37 "/Users/johannes/Library/Application Support/Code/User/globalStorage/bmd.stm32-for-vscode
 3182              		.file 38 "Drivers/lvgl/src/widgets/../core/../misc/lv_mem.h"
ARM GAS  /var/folders/0z/tsy30v1j4xl4_7kw94k978ww0000gn/T//ccDjPiYU.s 			page 96


DEFINED SYMBOLS
                            *ABS*:0000000000000000 lv_img.c
/var/folders/0z/tsy30v1j4xl4_7kw94k978ww0000gn/T//ccDjPiYU.s:20     .text.lv_img_get_transformed_size:0000000000000000 $t
/var/folders/0z/tsy30v1j4xl4_7kw94k978ww0000gn/T//ccDjPiYU.s:25     .text.lv_img_get_transformed_size:0000000000000000 lv_img_get_transformed_size
/var/folders/0z/tsy30v1j4xl4_7kw94k978ww0000gn/T//ccDjPiYU.s:112    .text.draw_img:0000000000000000 $t
/var/folders/0z/tsy30v1j4xl4_7kw94k978ww0000gn/T//ccDjPiYU.s:117    .text.draw_img:0000000000000000 draw_img
/var/folders/0z/tsy30v1j4xl4_7kw94k978ww0000gn/T//ccDjPiYU.s:1147   .text.draw_img:00000000000004e0 $d
/var/folders/0z/tsy30v1j4xl4_7kw94k978ww0000gn/T//ccDjPiYU.s:1154   .text.lv_img_destructor:0000000000000000 $t
/var/folders/0z/tsy30v1j4xl4_7kw94k978ww0000gn/T//ccDjPiYU.s:1159   .text.lv_img_destructor:0000000000000000 lv_img_destructor
/var/folders/0z/tsy30v1j4xl4_7kw94k978ww0000gn/T//ccDjPiYU.s:1208   .text.lv_img_constructor:0000000000000000 $t
/var/folders/0z/tsy30v1j4xl4_7kw94k978ww0000gn/T//ccDjPiYU.s:1213   .text.lv_img_constructor:0000000000000000 lv_img_constructor
/var/folders/0z/tsy30v1j4xl4_7kw94k978ww0000gn/T//ccDjPiYU.s:1309   .text.lv_img_create:0000000000000000 $t
/var/folders/0z/tsy30v1j4xl4_7kw94k978ww0000gn/T//ccDjPiYU.s:1315   .text.lv_img_create:0000000000000000 lv_img_create
/var/folders/0z/tsy30v1j4xl4_7kw94k978ww0000gn/T//ccDjPiYU.s:1353   .text.lv_img_create:0000000000000014 $d
/var/folders/0z/tsy30v1j4xl4_7kw94k978ww0000gn/T//ccDjPiYU.s:1358   .text.lv_img_set_src:0000000000000000 $t
/var/folders/0z/tsy30v1j4xl4_7kw94k978ww0000gn/T//ccDjPiYU.s:1364   .text.lv_img_set_src:0000000000000000 lv_img_set_src
/var/folders/0z/tsy30v1j4xl4_7kw94k978ww0000gn/T//ccDjPiYU.s:1712   .text.lv_img_event:0000000000000000 $t
/var/folders/0z/tsy30v1j4xl4_7kw94k978ww0000gn/T//ccDjPiYU.s:1717   .text.lv_img_event:0000000000000000 lv_img_event
/var/folders/0z/tsy30v1j4xl4_7kw94k978ww0000gn/T//ccDjPiYU.s:1774   .text.lv_img_event:000000000000002e $d
/var/folders/0z/tsy30v1j4xl4_7kw94k978ww0000gn/T//ccDjPiYU.s:1803   .text.lv_img_event:0000000000000066 $t
/var/folders/0z/tsy30v1j4xl4_7kw94k978ww0000gn/T//ccDjPiYU.s:2159   .text.lv_img_event:000000000000021c $d
/var/folders/0z/tsy30v1j4xl4_7kw94k978ww0000gn/T//ccDjPiYU.s:2164   .text.lv_img_set_offset_x:0000000000000000 $t
/var/folders/0z/tsy30v1j4xl4_7kw94k978ww0000gn/T//ccDjPiYU.s:2170   .text.lv_img_set_offset_x:0000000000000000 lv_img_set_offset_x
/var/folders/0z/tsy30v1j4xl4_7kw94k978ww0000gn/T//ccDjPiYU.s:2199   .text.lv_img_set_offset_y:0000000000000000 $t
/var/folders/0z/tsy30v1j4xl4_7kw94k978ww0000gn/T//ccDjPiYU.s:2205   .text.lv_img_set_offset_y:0000000000000000 lv_img_set_offset_y
/var/folders/0z/tsy30v1j4xl4_7kw94k978ww0000gn/T//ccDjPiYU.s:2234   .text.lv_img_set_angle:0000000000000000 $t
/var/folders/0z/tsy30v1j4xl4_7kw94k978ww0000gn/T//ccDjPiYU.s:2240   .text.lv_img_set_angle:0000000000000000 lv_img_set_angle
/var/folders/0z/tsy30v1j4xl4_7kw94k978ww0000gn/T//ccDjPiYU.s:2435   .text.lv_img_set_pivot:0000000000000000 $t
/var/folders/0z/tsy30v1j4xl4_7kw94k978ww0000gn/T//ccDjPiYU.s:2441   .text.lv_img_set_pivot:0000000000000000 lv_img_set_pivot
/var/folders/0z/tsy30v1j4xl4_7kw94k978ww0000gn/T//ccDjPiYU.s:2618   .text.lv_img_set_zoom:0000000000000000 $t
/var/folders/0z/tsy30v1j4xl4_7kw94k978ww0000gn/T//ccDjPiYU.s:2624   .text.lv_img_set_zoom:0000000000000000 lv_img_set_zoom
/var/folders/0z/tsy30v1j4xl4_7kw94k978ww0000gn/T//ccDjPiYU.s:2815   .text.lv_img_set_antialias:0000000000000000 $t
/var/folders/0z/tsy30v1j4xl4_7kw94k978ww0000gn/T//ccDjPiYU.s:2821   .text.lv_img_set_antialias:0000000000000000 lv_img_set_antialias
/var/folders/0z/tsy30v1j4xl4_7kw94k978ww0000gn/T//ccDjPiYU.s:2856   .text.lv_img_set_size_mode:0000000000000000 $t
/var/folders/0z/tsy30v1j4xl4_7kw94k978ww0000gn/T//ccDjPiYU.s:2862   .text.lv_img_set_size_mode:0000000000000000 lv_img_set_size_mode
/var/folders/0z/tsy30v1j4xl4_7kw94k978ww0000gn/T//ccDjPiYU.s:2903   .text.lv_img_get_src:0000000000000000 $t
/var/folders/0z/tsy30v1j4xl4_7kw94k978ww0000gn/T//ccDjPiYU.s:2909   .text.lv_img_get_src:0000000000000000 lv_img_get_src
/var/folders/0z/tsy30v1j4xl4_7kw94k978ww0000gn/T//ccDjPiYU.s:2931   .text.lv_img_get_offset_x:0000000000000000 $t
/var/folders/0z/tsy30v1j4xl4_7kw94k978ww0000gn/T//ccDjPiYU.s:2937   .text.lv_img_get_offset_x:0000000000000000 lv_img_get_offset_x
/var/folders/0z/tsy30v1j4xl4_7kw94k978ww0000gn/T//ccDjPiYU.s:2959   .text.lv_img_get_offset_y:0000000000000000 $t
/var/folders/0z/tsy30v1j4xl4_7kw94k978ww0000gn/T//ccDjPiYU.s:2965   .text.lv_img_get_offset_y:0000000000000000 lv_img_get_offset_y
/var/folders/0z/tsy30v1j4xl4_7kw94k978ww0000gn/T//ccDjPiYU.s:2987   .text.lv_img_get_angle:0000000000000000 $t
/var/folders/0z/tsy30v1j4xl4_7kw94k978ww0000gn/T//ccDjPiYU.s:2993   .text.lv_img_get_angle:0000000000000000 lv_img_get_angle
/var/folders/0z/tsy30v1j4xl4_7kw94k978ww0000gn/T//ccDjPiYU.s:3015   .text.lv_img_get_pivot:0000000000000000 $t
/var/folders/0z/tsy30v1j4xl4_7kw94k978ww0000gn/T//ccDjPiYU.s:3021   .text.lv_img_get_pivot:0000000000000000 lv_img_get_pivot
/var/folders/0z/tsy30v1j4xl4_7kw94k978ww0000gn/T//ccDjPiYU.s:3043   .text.lv_img_get_zoom:0000000000000000 $t
/var/folders/0z/tsy30v1j4xl4_7kw94k978ww0000gn/T//ccDjPiYU.s:3049   .text.lv_img_get_zoom:0000000000000000 lv_img_get_zoom
/var/folders/0z/tsy30v1j4xl4_7kw94k978ww0000gn/T//ccDjPiYU.s:3071   .text.lv_img_get_antialias:0000000000000000 $t
/var/folders/0z/tsy30v1j4xl4_7kw94k978ww0000gn/T//ccDjPiYU.s:3077   .text.lv_img_get_antialias:0000000000000000 lv_img_get_antialias
/var/folders/0z/tsy30v1j4xl4_7kw94k978ww0000gn/T//ccDjPiYU.s:3100   .text.lv_img_get_size_mode:0000000000000000 $t
/var/folders/0z/tsy30v1j4xl4_7kw94k978ww0000gn/T//ccDjPiYU.s:3106   .text.lv_img_get_size_mode:0000000000000000 lv_img_get_size_mode
/var/folders/0z/tsy30v1j4xl4_7kw94k978ww0000gn/T//ccDjPiYU.s:3134   .rodata.lv_img_class:0000000000000000 lv_img_class
/var/folders/0z/tsy30v1j4xl4_7kw94k978ww0000gn/T//ccDjPiYU.s:3130   .rodata.lv_img_class:0000000000000000 $d

UNDEFINED SYMBOLS
_lv_img_buf_get_transformed_area
lv_event_get_code
ARM GAS  /var/folders/0z/tsy30v1j4xl4_7kw94k978ww0000gn/T//ccDjPiYU.s 			page 97


lv_event_get_target
lv_event_get_param
lv_obj_get_style_prop
lv_obj_get_width
lv_obj_get_height
_lv_area_is_in
lv_obj_event_base
lv_event_get_draw_ctx
lv_draw_img
lv_obj_get_coords
lv_draw_img_dsc_init
lv_obj_init_draw_img_dsc
_lv_area_intersect
lv_draw_label_dsc_init
lv_obj_init_draw_label_dsc
lv_draw_label
lv_mem_free
lv_obj_clear_flag
lv_obj_add_flag
lv_obj_class_create_obj
lv_obj_class_init_obj
lv_obj_invalidate
lv_img_src_get_type
lv_img_decoder_get_info
lv_obj_refresh_self_size
lv_obj_refresh_ext_draw_size
strlen
lv_mem_alloc
strcpy
lv_txt_get_size
lv_obj_get_click_area
_lv_area_is_point_on
lv_obj_update_layout
lv_obj_invalidate_area
lv_obj_get_disp
lv_disp_enable_invalidation
lv_obj_class
