ARM GAS  /var/folders/0z/tsy30v1j4xl4_7kw94k978ww0000gn/T//ccXwtRY4.s 			page 1


   1              		.cpu cortex-m4
   2              		.arch armv7e-m
   3              		.fpu fpv4-sp-d16
   4              		.eabi_attribute 27, 1
   5              		.eabi_attribute 28, 1
   6              		.eabi_attribute 20, 1
   7              		.eabi_attribute 21, 1
   8              		.eabi_attribute 23, 3
   9              		.eabi_attribute 24, 1
  10              		.eabi_attribute 25, 1
  11              		.eabi_attribute 26, 1
  12              		.eabi_attribute 30, 1
  13              		.eabi_attribute 34, 1
  14              		.eabi_attribute 18, 4
  15              		.file	"lv_lru.c"
  16              		.text
  17              	.Ltext0:
  18              		.cfi_sections	.debug_frame
  19              		.section	.text.lv_lru_hash,"ax",%progbits
  20              		.align	1
  21              		.syntax unified
  22              		.thumb
  23              		.thumb_func
  25              	lv_lru_hash:
  26              	.LVL0:
  27              	.LFB8:
  28              		.file 1 "Drivers/lvgl/src/misc/lv_lru.c"
   1:Drivers/lvgl/src/misc/lv_lru.c **** /**
   2:Drivers/lvgl/src/misc/lv_lru.c ****  * @file lv_lru.c
   3:Drivers/lvgl/src/misc/lv_lru.c ****  *
   4:Drivers/lvgl/src/misc/lv_lru.c ****  * @see https://github.com/willcannings/C-LRU-Cache
   5:Drivers/lvgl/src/misc/lv_lru.c ****  */
   6:Drivers/lvgl/src/misc/lv_lru.c **** 
   7:Drivers/lvgl/src/misc/lv_lru.c **** /*********************
   8:Drivers/lvgl/src/misc/lv_lru.c ****  *      INCLUDES
   9:Drivers/lvgl/src/misc/lv_lru.c ****  *********************/
  10:Drivers/lvgl/src/misc/lv_lru.c **** 
  11:Drivers/lvgl/src/misc/lv_lru.c **** #include "lv_lru.h"
  12:Drivers/lvgl/src/misc/lv_lru.c **** #include "lv_math.h"
  13:Drivers/lvgl/src/misc/lv_lru.c **** #include "lv_mem.h"
  14:Drivers/lvgl/src/misc/lv_lru.c **** #include "lv_assert.h"
  15:Drivers/lvgl/src/misc/lv_lru.c **** #include "lv_log.h"
  16:Drivers/lvgl/src/misc/lv_lru.c **** 
  17:Drivers/lvgl/src/misc/lv_lru.c **** /*********************
  18:Drivers/lvgl/src/misc/lv_lru.c ****  *      DEFINES
  19:Drivers/lvgl/src/misc/lv_lru.c ****  *********************/
  20:Drivers/lvgl/src/misc/lv_lru.c **** 
  21:Drivers/lvgl/src/misc/lv_lru.c **** /**********************
  22:Drivers/lvgl/src/misc/lv_lru.c ****  *      TYPEDEFS
  23:Drivers/lvgl/src/misc/lv_lru.c ****  **********************/
  24:Drivers/lvgl/src/misc/lv_lru.c **** 
  25:Drivers/lvgl/src/misc/lv_lru.c **** struct _lv_lru_item_t {
  26:Drivers/lvgl/src/misc/lv_lru.c ****     void * value;
  27:Drivers/lvgl/src/misc/lv_lru.c ****     void * key;
  28:Drivers/lvgl/src/misc/lv_lru.c ****     size_t value_length;
  29:Drivers/lvgl/src/misc/lv_lru.c ****     size_t key_length;
  30:Drivers/lvgl/src/misc/lv_lru.c ****     uint64_t access_count;
ARM GAS  /var/folders/0z/tsy30v1j4xl4_7kw94k978ww0000gn/T//ccXwtRY4.s 			page 2


  31:Drivers/lvgl/src/misc/lv_lru.c ****     struct _lv_lru_item_t * next;
  32:Drivers/lvgl/src/misc/lv_lru.c **** };
  33:Drivers/lvgl/src/misc/lv_lru.c **** 
  34:Drivers/lvgl/src/misc/lv_lru.c **** /**********************
  35:Drivers/lvgl/src/misc/lv_lru.c ****  *  STATIC PROTOTYPES
  36:Drivers/lvgl/src/misc/lv_lru.c ****  **********************/
  37:Drivers/lvgl/src/misc/lv_lru.c **** 
  38:Drivers/lvgl/src/misc/lv_lru.c **** /**
  39:Drivers/lvgl/src/misc/lv_lru.c ****  * MurmurHash2
  40:Drivers/lvgl/src/misc/lv_lru.c ****  * @author Austin Appleby
  41:Drivers/lvgl/src/misc/lv_lru.c ****  * @see http://sites.google.com/site/murmurhash/
  42:Drivers/lvgl/src/misc/lv_lru.c ****  */
  43:Drivers/lvgl/src/misc/lv_lru.c **** static uint32_t lv_lru_hash(lv_lru_t * cache, const void * key, uint32_t key_length);
  44:Drivers/lvgl/src/misc/lv_lru.c **** 
  45:Drivers/lvgl/src/misc/lv_lru.c **** /** compare a key against an existing item's key */
  46:Drivers/lvgl/src/misc/lv_lru.c **** static int lv_lru_cmp_keys(lv_lru_item_t * item, const void * key, uint32_t key_length);
  47:Drivers/lvgl/src/misc/lv_lru.c **** 
  48:Drivers/lvgl/src/misc/lv_lru.c **** /** remove an item and push it to the free items queue */
  49:Drivers/lvgl/src/misc/lv_lru.c **** static void lv_lru_remove_item(lv_lru_t * cache, lv_lru_item_t * prev, lv_lru_item_t * item, uint32
  50:Drivers/lvgl/src/misc/lv_lru.c **** 
  51:Drivers/lvgl/src/misc/lv_lru.c **** /** pop an existing item off the free queue, or create a new one */
  52:Drivers/lvgl/src/misc/lv_lru.c **** static lv_lru_item_t * lv_lru_pop_or_create_item(lv_lru_t * cache);
  53:Drivers/lvgl/src/misc/lv_lru.c **** 
  54:Drivers/lvgl/src/misc/lv_lru.c **** /**********************
  55:Drivers/lvgl/src/misc/lv_lru.c ****  *  STATIC VARIABLES
  56:Drivers/lvgl/src/misc/lv_lru.c ****  **********************/
  57:Drivers/lvgl/src/misc/lv_lru.c **** 
  58:Drivers/lvgl/src/misc/lv_lru.c **** /**********************
  59:Drivers/lvgl/src/misc/lv_lru.c ****  *      MACROS
  60:Drivers/lvgl/src/misc/lv_lru.c ****  **********************/
  61:Drivers/lvgl/src/misc/lv_lru.c **** 
  62:Drivers/lvgl/src/misc/lv_lru.c **** /* error helpers */
  63:Drivers/lvgl/src/misc/lv_lru.c **** #define error_for(conditions, error)  if(conditions) {return error;}
  64:Drivers/lvgl/src/misc/lv_lru.c **** #define test_for_missing_cache()      error_for(!cache, LV_LRU_MISSING_CACHE)
  65:Drivers/lvgl/src/misc/lv_lru.c **** #define test_for_missing_key()        error_for(!key, LV_LRU_MISSING_KEY)
  66:Drivers/lvgl/src/misc/lv_lru.c **** #define test_for_missing_value()      error_for(!value || value_length == 0, LV_LRU_MISSING_VALUE)
  67:Drivers/lvgl/src/misc/lv_lru.c **** #define test_for_value_too_large()    error_for(value_length > cache->total_memory, LV_LRU_VALUE_TO
  68:Drivers/lvgl/src/misc/lv_lru.c **** 
  69:Drivers/lvgl/src/misc/lv_lru.c **** /**********************
  70:Drivers/lvgl/src/misc/lv_lru.c ****  *   GLOBAL FUNCTIONS
  71:Drivers/lvgl/src/misc/lv_lru.c ****  **********************/
  72:Drivers/lvgl/src/misc/lv_lru.c **** 
  73:Drivers/lvgl/src/misc/lv_lru.c **** lv_lru_t * lv_lru_create(size_t cache_size, size_t average_length, lv_lru_free_t * value_free,
  74:Drivers/lvgl/src/misc/lv_lru.c ****                          lv_lru_free_t * key_free)
  75:Drivers/lvgl/src/misc/lv_lru.c **** {
  76:Drivers/lvgl/src/misc/lv_lru.c ****     // create the cache
  77:Drivers/lvgl/src/misc/lv_lru.c ****     lv_lru_t * cache = (lv_lru_t *) lv_mem_alloc(sizeof(lv_lru_t));
  78:Drivers/lvgl/src/misc/lv_lru.c ****     lv_memset_00(cache, sizeof(lv_lru_t));
  79:Drivers/lvgl/src/misc/lv_lru.c ****     if(!cache) {
  80:Drivers/lvgl/src/misc/lv_lru.c ****         LV_LOG_WARN("LRU Cache unable to create cache object");
  81:Drivers/lvgl/src/misc/lv_lru.c ****         return NULL;
  82:Drivers/lvgl/src/misc/lv_lru.c ****     }
  83:Drivers/lvgl/src/misc/lv_lru.c ****     cache->hash_table_size = cache_size / average_length;
  84:Drivers/lvgl/src/misc/lv_lru.c ****     cache->average_item_length = average_length;
  85:Drivers/lvgl/src/misc/lv_lru.c ****     cache->free_memory = cache_size;
  86:Drivers/lvgl/src/misc/lv_lru.c ****     cache->total_memory = cache_size;
  87:Drivers/lvgl/src/misc/lv_lru.c ****     cache->seed = lv_rand(1, UINT32_MAX);
ARM GAS  /var/folders/0z/tsy30v1j4xl4_7kw94k978ww0000gn/T//ccXwtRY4.s 			page 3


  88:Drivers/lvgl/src/misc/lv_lru.c ****     cache->value_free = value_free ? value_free : lv_mem_free;
  89:Drivers/lvgl/src/misc/lv_lru.c ****     cache->key_free = key_free ? key_free : lv_mem_free;
  90:Drivers/lvgl/src/misc/lv_lru.c **** 
  91:Drivers/lvgl/src/misc/lv_lru.c ****     // size the hash table to a guestimate of the number of slots required (assuming a perfect hash
  92:Drivers/lvgl/src/misc/lv_lru.c ****     cache->items = (lv_lru_item_t **) lv_mem_alloc(sizeof(lv_lru_item_t *) * cache->hash_table_size
  93:Drivers/lvgl/src/misc/lv_lru.c ****     lv_memset_00(cache->items, sizeof(lv_lru_item_t *) * cache->hash_table_size);
  94:Drivers/lvgl/src/misc/lv_lru.c ****     if(!cache->items) {
  95:Drivers/lvgl/src/misc/lv_lru.c ****         LV_LOG_WARN("LRU Cache unable to create cache hash table");
  96:Drivers/lvgl/src/misc/lv_lru.c ****         lv_mem_free(cache);
  97:Drivers/lvgl/src/misc/lv_lru.c ****         return NULL;
  98:Drivers/lvgl/src/misc/lv_lru.c ****     }
  99:Drivers/lvgl/src/misc/lv_lru.c ****     return cache;
 100:Drivers/lvgl/src/misc/lv_lru.c **** }
 101:Drivers/lvgl/src/misc/lv_lru.c **** 
 102:Drivers/lvgl/src/misc/lv_lru.c **** 
 103:Drivers/lvgl/src/misc/lv_lru.c **** void lv_lru_del(lv_lru_t * cache)
 104:Drivers/lvgl/src/misc/lv_lru.c **** {
 105:Drivers/lvgl/src/misc/lv_lru.c ****     LV_ASSERT_NULL(cache);
 106:Drivers/lvgl/src/misc/lv_lru.c **** 
 107:Drivers/lvgl/src/misc/lv_lru.c ****     // free each of the cached items, and the hash table
 108:Drivers/lvgl/src/misc/lv_lru.c ****     lv_lru_item_t * item = NULL, *next = NULL;
 109:Drivers/lvgl/src/misc/lv_lru.c ****     uint32_t i = 0;
 110:Drivers/lvgl/src/misc/lv_lru.c ****     if(cache->items) {
 111:Drivers/lvgl/src/misc/lv_lru.c ****         for(; i < cache->hash_table_size; i++) {
 112:Drivers/lvgl/src/misc/lv_lru.c ****             item = cache->items[i];
 113:Drivers/lvgl/src/misc/lv_lru.c ****             while(item) {
 114:Drivers/lvgl/src/misc/lv_lru.c ****                 next = (lv_lru_item_t *) item->next;
 115:Drivers/lvgl/src/misc/lv_lru.c ****                 cache->value_free(item->value);
 116:Drivers/lvgl/src/misc/lv_lru.c ****                 cache->key_free(item->key);
 117:Drivers/lvgl/src/misc/lv_lru.c ****                 cache->free_memory += item->value_length;
 118:Drivers/lvgl/src/misc/lv_lru.c ****                 lv_mem_free(item);
 119:Drivers/lvgl/src/misc/lv_lru.c ****                 item = next;
 120:Drivers/lvgl/src/misc/lv_lru.c ****             }
 121:Drivers/lvgl/src/misc/lv_lru.c ****         }
 122:Drivers/lvgl/src/misc/lv_lru.c ****         lv_mem_free(cache->items);
 123:Drivers/lvgl/src/misc/lv_lru.c ****     }
 124:Drivers/lvgl/src/misc/lv_lru.c **** 
 125:Drivers/lvgl/src/misc/lv_lru.c ****     if(cache->free_items) {
 126:Drivers/lvgl/src/misc/lv_lru.c ****         item = cache->free_items;
 127:Drivers/lvgl/src/misc/lv_lru.c ****         while(item) {
 128:Drivers/lvgl/src/misc/lv_lru.c ****             next = (lv_lru_item_t *) item->next;
 129:Drivers/lvgl/src/misc/lv_lru.c ****             lv_mem_free(item);
 130:Drivers/lvgl/src/misc/lv_lru.c ****             item = next;
 131:Drivers/lvgl/src/misc/lv_lru.c ****         }
 132:Drivers/lvgl/src/misc/lv_lru.c ****     }
 133:Drivers/lvgl/src/misc/lv_lru.c **** 
 134:Drivers/lvgl/src/misc/lv_lru.c ****     // free the cache
 135:Drivers/lvgl/src/misc/lv_lru.c ****     lv_mem_free(cache);
 136:Drivers/lvgl/src/misc/lv_lru.c **** }
 137:Drivers/lvgl/src/misc/lv_lru.c **** 
 138:Drivers/lvgl/src/misc/lv_lru.c **** 
 139:Drivers/lvgl/src/misc/lv_lru.c **** lv_lru_res_t lv_lru_set(lv_lru_t * cache, const void * key, size_t key_length, void * value, size_t
 140:Drivers/lvgl/src/misc/lv_lru.c **** {
 141:Drivers/lvgl/src/misc/lv_lru.c ****     test_for_missing_cache();
 142:Drivers/lvgl/src/misc/lv_lru.c ****     test_for_missing_key();
 143:Drivers/lvgl/src/misc/lv_lru.c ****     test_for_missing_value();
 144:Drivers/lvgl/src/misc/lv_lru.c ****     test_for_value_too_large();
ARM GAS  /var/folders/0z/tsy30v1j4xl4_7kw94k978ww0000gn/T//ccXwtRY4.s 			page 4


 145:Drivers/lvgl/src/misc/lv_lru.c **** 
 146:Drivers/lvgl/src/misc/lv_lru.c ****     // see if the key already exists
 147:Drivers/lvgl/src/misc/lv_lru.c ****     uint32_t hash_index = lv_lru_hash(cache, key, key_length);
 148:Drivers/lvgl/src/misc/lv_lru.c ****     int required = 0;
 149:Drivers/lvgl/src/misc/lv_lru.c ****     lv_lru_item_t * item = NULL, *prev = NULL;
 150:Drivers/lvgl/src/misc/lv_lru.c ****     item = cache->items[hash_index];
 151:Drivers/lvgl/src/misc/lv_lru.c **** 
 152:Drivers/lvgl/src/misc/lv_lru.c ****     while(item && lv_lru_cmp_keys(item, key, key_length)) {
 153:Drivers/lvgl/src/misc/lv_lru.c ****         prev = item;
 154:Drivers/lvgl/src/misc/lv_lru.c ****         item = (lv_lru_item_t *) item->next;
 155:Drivers/lvgl/src/misc/lv_lru.c ****     }
 156:Drivers/lvgl/src/misc/lv_lru.c **** 
 157:Drivers/lvgl/src/misc/lv_lru.c ****     if(item) {
 158:Drivers/lvgl/src/misc/lv_lru.c ****         // update the value and value_lengths
 159:Drivers/lvgl/src/misc/lv_lru.c ****         required = (int)(value_length - item->value_length);
 160:Drivers/lvgl/src/misc/lv_lru.c ****         cache->value_free(item->value);
 161:Drivers/lvgl/src/misc/lv_lru.c ****         item->value = value;
 162:Drivers/lvgl/src/misc/lv_lru.c ****         item->value_length = value_length;
 163:Drivers/lvgl/src/misc/lv_lru.c **** 
 164:Drivers/lvgl/src/misc/lv_lru.c ****     }
 165:Drivers/lvgl/src/misc/lv_lru.c ****     else {
 166:Drivers/lvgl/src/misc/lv_lru.c ****         // insert a new item
 167:Drivers/lvgl/src/misc/lv_lru.c ****         item = lv_lru_pop_or_create_item(cache);
 168:Drivers/lvgl/src/misc/lv_lru.c ****         item->value = value;
 169:Drivers/lvgl/src/misc/lv_lru.c ****         item->key = lv_mem_alloc(key_length);
 170:Drivers/lvgl/src/misc/lv_lru.c ****         memcpy(item->key, key, key_length);
 171:Drivers/lvgl/src/misc/lv_lru.c ****         item->value_length = value_length;
 172:Drivers/lvgl/src/misc/lv_lru.c ****         item->key_length = key_length;
 173:Drivers/lvgl/src/misc/lv_lru.c ****         required = (int) value_length;
 174:Drivers/lvgl/src/misc/lv_lru.c **** 
 175:Drivers/lvgl/src/misc/lv_lru.c ****         if(prev)
 176:Drivers/lvgl/src/misc/lv_lru.c ****             prev->next = item;
 177:Drivers/lvgl/src/misc/lv_lru.c ****         else
 178:Drivers/lvgl/src/misc/lv_lru.c ****             cache->items[hash_index] = item;
 179:Drivers/lvgl/src/misc/lv_lru.c ****     }
 180:Drivers/lvgl/src/misc/lv_lru.c ****     item->access_count = ++cache->access_count;
 181:Drivers/lvgl/src/misc/lv_lru.c **** 
 182:Drivers/lvgl/src/misc/lv_lru.c ****     // remove as many items as necessary to free enough space
 183:Drivers/lvgl/src/misc/lv_lru.c ****     if(required > 0 && (size_t) required > cache->free_memory) {
 184:Drivers/lvgl/src/misc/lv_lru.c ****         while(cache->free_memory < (size_t) required)
 185:Drivers/lvgl/src/misc/lv_lru.c ****             lv_lru_remove_lru_item(cache);
 186:Drivers/lvgl/src/misc/lv_lru.c ****     }
 187:Drivers/lvgl/src/misc/lv_lru.c ****     cache->free_memory -= required;
 188:Drivers/lvgl/src/misc/lv_lru.c ****     return LV_LRU_OK;
 189:Drivers/lvgl/src/misc/lv_lru.c **** }
 190:Drivers/lvgl/src/misc/lv_lru.c **** 
 191:Drivers/lvgl/src/misc/lv_lru.c **** 
 192:Drivers/lvgl/src/misc/lv_lru.c **** lv_lru_res_t lv_lru_get(lv_lru_t * cache, const void * key, size_t key_size, void ** value)
 193:Drivers/lvgl/src/misc/lv_lru.c **** {
 194:Drivers/lvgl/src/misc/lv_lru.c ****     test_for_missing_cache();
 195:Drivers/lvgl/src/misc/lv_lru.c ****     test_for_missing_key();
 196:Drivers/lvgl/src/misc/lv_lru.c **** 
 197:Drivers/lvgl/src/misc/lv_lru.c ****     // loop until we find the item, or hit the end of a chain
 198:Drivers/lvgl/src/misc/lv_lru.c ****     uint32_t hash_index = lv_lru_hash(cache, key, key_size);
 199:Drivers/lvgl/src/misc/lv_lru.c ****     lv_lru_item_t * item = cache->items[hash_index];
 200:Drivers/lvgl/src/misc/lv_lru.c **** 
 201:Drivers/lvgl/src/misc/lv_lru.c ****     while(item && lv_lru_cmp_keys(item, key, key_size))
ARM GAS  /var/folders/0z/tsy30v1j4xl4_7kw94k978ww0000gn/T//ccXwtRY4.s 			page 5


 202:Drivers/lvgl/src/misc/lv_lru.c ****         item = (lv_lru_item_t *) item->next;
 203:Drivers/lvgl/src/misc/lv_lru.c **** 
 204:Drivers/lvgl/src/misc/lv_lru.c ****     if(item) {
 205:Drivers/lvgl/src/misc/lv_lru.c ****         *value = item->value;
 206:Drivers/lvgl/src/misc/lv_lru.c ****         item->access_count = ++cache->access_count;
 207:Drivers/lvgl/src/misc/lv_lru.c ****     }
 208:Drivers/lvgl/src/misc/lv_lru.c ****     else {
 209:Drivers/lvgl/src/misc/lv_lru.c ****         *value = NULL;
 210:Drivers/lvgl/src/misc/lv_lru.c ****     }
 211:Drivers/lvgl/src/misc/lv_lru.c **** 
 212:Drivers/lvgl/src/misc/lv_lru.c ****     return LV_LRU_OK;
 213:Drivers/lvgl/src/misc/lv_lru.c **** }
 214:Drivers/lvgl/src/misc/lv_lru.c **** 
 215:Drivers/lvgl/src/misc/lv_lru.c **** lv_lru_res_t lv_lru_remove(lv_lru_t * cache, const void * key, size_t key_size)
 216:Drivers/lvgl/src/misc/lv_lru.c **** {
 217:Drivers/lvgl/src/misc/lv_lru.c ****     test_for_missing_cache();
 218:Drivers/lvgl/src/misc/lv_lru.c ****     test_for_missing_key();
 219:Drivers/lvgl/src/misc/lv_lru.c **** 
 220:Drivers/lvgl/src/misc/lv_lru.c ****     // loop until we find the item, or hit the end of a chain
 221:Drivers/lvgl/src/misc/lv_lru.c ****     lv_lru_item_t * item = NULL, *prev = NULL;
 222:Drivers/lvgl/src/misc/lv_lru.c ****     uint32_t hash_index = lv_lru_hash(cache, key, key_size);
 223:Drivers/lvgl/src/misc/lv_lru.c ****     item = cache->items[hash_index];
 224:Drivers/lvgl/src/misc/lv_lru.c **** 
 225:Drivers/lvgl/src/misc/lv_lru.c ****     while(item && lv_lru_cmp_keys(item, key, key_size)) {
 226:Drivers/lvgl/src/misc/lv_lru.c ****         prev = item;
 227:Drivers/lvgl/src/misc/lv_lru.c ****         item = (lv_lru_item_t *) item->next;
 228:Drivers/lvgl/src/misc/lv_lru.c ****     }
 229:Drivers/lvgl/src/misc/lv_lru.c **** 
 230:Drivers/lvgl/src/misc/lv_lru.c ****     if(item) {
 231:Drivers/lvgl/src/misc/lv_lru.c ****         lv_lru_remove_item(cache, prev, item, hash_index);
 232:Drivers/lvgl/src/misc/lv_lru.c ****     }
 233:Drivers/lvgl/src/misc/lv_lru.c **** 
 234:Drivers/lvgl/src/misc/lv_lru.c ****     return LV_LRU_OK;
 235:Drivers/lvgl/src/misc/lv_lru.c **** }
 236:Drivers/lvgl/src/misc/lv_lru.c **** 
 237:Drivers/lvgl/src/misc/lv_lru.c **** void lv_lru_remove_lru_item(lv_lru_t * cache)
 238:Drivers/lvgl/src/misc/lv_lru.c **** {
 239:Drivers/lvgl/src/misc/lv_lru.c ****     lv_lru_item_t * min_item = NULL, *min_prev = NULL;
 240:Drivers/lvgl/src/misc/lv_lru.c ****     lv_lru_item_t * item = NULL, *prev = NULL;
 241:Drivers/lvgl/src/misc/lv_lru.c ****     uint32_t i = 0, min_index = -1;
 242:Drivers/lvgl/src/misc/lv_lru.c ****     uint64_t min_access_count = -1;
 243:Drivers/lvgl/src/misc/lv_lru.c **** 
 244:Drivers/lvgl/src/misc/lv_lru.c ****     for(; i < cache->hash_table_size; i++) {
 245:Drivers/lvgl/src/misc/lv_lru.c ****         item = cache->items[i];
 246:Drivers/lvgl/src/misc/lv_lru.c ****         prev = NULL;
 247:Drivers/lvgl/src/misc/lv_lru.c **** 
 248:Drivers/lvgl/src/misc/lv_lru.c ****         while(item) {
 249:Drivers/lvgl/src/misc/lv_lru.c ****             if(item->access_count < min_access_count || (int64_t) min_access_count == -1) {
 250:Drivers/lvgl/src/misc/lv_lru.c ****                 min_access_count = item->access_count;
 251:Drivers/lvgl/src/misc/lv_lru.c ****                 min_item = item;
 252:Drivers/lvgl/src/misc/lv_lru.c ****                 min_prev = prev;
 253:Drivers/lvgl/src/misc/lv_lru.c ****                 min_index = i;
 254:Drivers/lvgl/src/misc/lv_lru.c ****             }
 255:Drivers/lvgl/src/misc/lv_lru.c ****             prev = item;
 256:Drivers/lvgl/src/misc/lv_lru.c ****             item = item->next;
 257:Drivers/lvgl/src/misc/lv_lru.c ****         }
 258:Drivers/lvgl/src/misc/lv_lru.c ****     }
ARM GAS  /var/folders/0z/tsy30v1j4xl4_7kw94k978ww0000gn/T//ccXwtRY4.s 			page 6


 259:Drivers/lvgl/src/misc/lv_lru.c **** 
 260:Drivers/lvgl/src/misc/lv_lru.c ****     if(min_item) {
 261:Drivers/lvgl/src/misc/lv_lru.c ****         lv_lru_remove_item(cache, min_prev, min_item, min_index);
 262:Drivers/lvgl/src/misc/lv_lru.c ****     }
 263:Drivers/lvgl/src/misc/lv_lru.c **** }
 264:Drivers/lvgl/src/misc/lv_lru.c **** 
 265:Drivers/lvgl/src/misc/lv_lru.c **** /**********************
 266:Drivers/lvgl/src/misc/lv_lru.c ****  *   STATIC FUNCTIONS
 267:Drivers/lvgl/src/misc/lv_lru.c ****  **********************/
 268:Drivers/lvgl/src/misc/lv_lru.c **** 
 269:Drivers/lvgl/src/misc/lv_lru.c **** static uint32_t lv_lru_hash(lv_lru_t * cache, const void * key, uint32_t key_length)
 270:Drivers/lvgl/src/misc/lv_lru.c **** {
  29              		.loc 1 270 1 view -0
  30              		.cfi_startproc
  31              		@ args = 0, pretend = 0, frame = 0
  32              		@ frame_needed = 0, uses_anonymous_args = 0
  33              		@ link register save eliminated.
  34              		.loc 1 270 1 is_stmt 0 view .LVU1
  35 0000 10B4     		push	{r4}
  36              		.cfi_def_cfa_offset 4
  37              		.cfi_offset 4, -4
 271:Drivers/lvgl/src/misc/lv_lru.c ****     uint32_t m = 0x5bd1e995;
  38              		.loc 1 271 5 is_stmt 1 view .LVU2
  39              	.LVL1:
 272:Drivers/lvgl/src/misc/lv_lru.c ****     uint32_t r = 24;
  40              		.loc 1 272 5 view .LVU3
 273:Drivers/lvgl/src/misc/lv_lru.c ****     uint32_t h = cache->seed ^ key_length;
  41              		.loc 1 273 5 view .LVU4
  42              		.loc 1 273 23 is_stmt 0 view .LVU5
  43 0002 036A     		ldr	r3, [r0, #32]
  44              		.loc 1 273 14 view .LVU6
  45 0004 83EA020C 		eor	ip, r3, r2
  46              	.LVL2:
 274:Drivers/lvgl/src/misc/lv_lru.c ****     char * data = (char *) key;
  47              		.loc 1 274 5 is_stmt 1 view .LVU7
 275:Drivers/lvgl/src/misc/lv_lru.c **** 
 276:Drivers/lvgl/src/misc/lv_lru.c ****     while(key_length >= 4) {
  48              		.loc 1 276 5 view .LVU8
  49              		.loc 1 276 10 is_stmt 0 view .LVU9
  50 0008 0DE0     		b	.L2
  51              	.LVL3:
  52              	.L3:
  53              	.LBB2:
 277:Drivers/lvgl/src/misc/lv_lru.c ****         uint32_t k = *(uint32_t *) data;
  54              		.loc 1 277 9 is_stmt 1 view .LVU10
  55              		.loc 1 277 18 is_stmt 0 view .LVU11
  56 000a 51F8043B 		ldr	r3, [r1], #4
  57              	.LVL4:
 278:Drivers/lvgl/src/misc/lv_lru.c ****         k *= m;
  58              		.loc 1 278 9 is_stmt 1 view .LVU12
  59              		.loc 1 278 11 is_stmt 0 view .LVU13
  60 000e 174C     		ldr	r4, .L8
  61 0010 04FB03F3 		mul	r3, r4, r3
  62              	.LVL5:
 279:Drivers/lvgl/src/misc/lv_lru.c ****         k ^= k >> r;
  63              		.loc 1 279 9 is_stmt 1 view .LVU14
  64              		.loc 1 279 11 is_stmt 0 view .LVU15
ARM GAS  /var/folders/0z/tsy30v1j4xl4_7kw94k978ww0000gn/T//ccXwtRY4.s 			page 7


  65 0014 83EA1363 		eor	r3, r3, r3, lsr #24
  66              	.LVL6:
 280:Drivers/lvgl/src/misc/lv_lru.c ****         k *= m;
  67              		.loc 1 280 9 is_stmt 1 view .LVU16
  68              		.loc 1 280 11 is_stmt 0 view .LVU17
  69 0018 04FB03F3 		mul	r3, r4, r3
  70              	.LVL7:
 281:Drivers/lvgl/src/misc/lv_lru.c ****         h *= m;
  71              		.loc 1 281 9 is_stmt 1 view .LVU18
  72              		.loc 1 281 11 is_stmt 0 view .LVU19
  73 001c 04FB0CFC 		mul	ip, r4, ip
  74              	.LVL8:
 282:Drivers/lvgl/src/misc/lv_lru.c ****         h ^= k;
  75              		.loc 1 282 9 is_stmt 1 view .LVU20
  76              		.loc 1 282 11 is_stmt 0 view .LVU21
  77 0020 83EA0C0C 		eor	ip, r3, ip
  78              	.LVL9:
 283:Drivers/lvgl/src/misc/lv_lru.c ****         data += 4;
  79              		.loc 1 283 9 is_stmt 1 view .LVU22
 284:Drivers/lvgl/src/misc/lv_lru.c ****         key_length -= 4;
  80              		.loc 1 284 9 view .LVU23
  81              		.loc 1 284 20 is_stmt 0 view .LVU24
  82 0024 043A     		subs	r2, r2, #4
  83              	.LVL10:
  84              	.L2:
  85              		.loc 1 284 20 view .LVU25
  86              	.LBE2:
 276:Drivers/lvgl/src/misc/lv_lru.c ****         uint32_t k = *(uint32_t *) data;
  87              		.loc 1 276 22 is_stmt 1 view .LVU26
  88 0026 032A     		cmp	r2, #3
  89 0028 EFD8     		bhi	.L3
 285:Drivers/lvgl/src/misc/lv_lru.c ****     }
 286:Drivers/lvgl/src/misc/lv_lru.c **** 
 287:Drivers/lvgl/src/misc/lv_lru.c ****     if(key_length >= 3) {
  90              		.loc 1 287 5 view .LVU27
  91              		.loc 1 287 7 is_stmt 0 view .LVU28
  92 002a 022A     		cmp	r2, #2
  93 002c 02D9     		bls	.L4
 288:Drivers/lvgl/src/misc/lv_lru.c ****         h ^= data[2] << 16;
  94              		.loc 1 288 9 is_stmt 1 view .LVU29
  95              		.loc 1 288 18 is_stmt 0 view .LVU30
  96 002e 8B78     		ldrb	r3, [r1, #2]	@ zero_extendqisi2
  97              		.loc 1 288 11 view .LVU31
  98 0030 8CEA034C 		eor	ip, ip, r3, lsl #16
  99              	.LVL11:
 100              	.L4:
 289:Drivers/lvgl/src/misc/lv_lru.c ****     }
 290:Drivers/lvgl/src/misc/lv_lru.c ****     if(key_length >= 2) {
 101              		.loc 1 290 5 is_stmt 1 view .LVU32
 102              		.loc 1 290 7 is_stmt 0 view .LVU33
 103 0034 012A     		cmp	r2, #1
 104 0036 02D9     		bls	.L5
 291:Drivers/lvgl/src/misc/lv_lru.c ****         h ^= data[1] << 8;
 105              		.loc 1 291 9 is_stmt 1 view .LVU34
 106              		.loc 1 291 18 is_stmt 0 view .LVU35
 107 0038 4B78     		ldrb	r3, [r1, #1]	@ zero_extendqisi2
 108              		.loc 1 291 11 view .LVU36
ARM GAS  /var/folders/0z/tsy30v1j4xl4_7kw94k978ww0000gn/T//ccXwtRY4.s 			page 8


 109 003a 8CEA032C 		eor	ip, ip, r3, lsl #8
 110              	.LVL12:
 111              	.L5:
 292:Drivers/lvgl/src/misc/lv_lru.c ****     }
 293:Drivers/lvgl/src/misc/lv_lru.c ****     if(key_length >= 1) {
 112              		.loc 1 293 5 is_stmt 1 view .LVU37
 113              		.loc 1 293 7 is_stmt 0 view .LVU38
 114 003e 2AB1     		cbz	r2, .L6
 294:Drivers/lvgl/src/misc/lv_lru.c ****         h ^= data[0];
 115              		.loc 1 294 9 is_stmt 1 view .LVU39
 116              		.loc 1 294 18 is_stmt 0 view .LVU40
 117 0040 0B78     		ldrb	r3, [r1]	@ zero_extendqisi2
 118              		.loc 1 294 11 view .LVU41
 119 0042 83EA0C0C 		eor	ip, r3, ip
 120              	.LVL13:
 295:Drivers/lvgl/src/misc/lv_lru.c ****         h *= m;
 121              		.loc 1 295 9 is_stmt 1 view .LVU42
 122              		.loc 1 295 11 is_stmt 0 view .LVU43
 123 0046 094B     		ldr	r3, .L8
 124 0048 03FB0CFC 		mul	ip, r3, ip
 125              	.LVL14:
 126              	.L6:
 296:Drivers/lvgl/src/misc/lv_lru.c ****     }
 297:Drivers/lvgl/src/misc/lv_lru.c **** 
 298:Drivers/lvgl/src/misc/lv_lru.c ****     h ^= h >> 13;
 127              		.loc 1 298 5 is_stmt 1 view .LVU44
 128              		.loc 1 298 7 is_stmt 0 view .LVU45
 129 004c 8CEA5C3C 		eor	ip, ip, ip, lsr #13
 130              	.LVL15:
 299:Drivers/lvgl/src/misc/lv_lru.c ****     h *= m;
 131              		.loc 1 299 5 is_stmt 1 view .LVU46
 132              		.loc 1 299 7 is_stmt 0 view .LVU47
 133 0050 064B     		ldr	r3, .L8
 134 0052 03FB0CFC 		mul	ip, r3, ip
 135              	.LVL16:
 300:Drivers/lvgl/src/misc/lv_lru.c ****     h ^= h >> 15;
 136              		.loc 1 300 5 is_stmt 1 view .LVU48
 137              		.loc 1 300 7 is_stmt 0 view .LVU49
 138 0056 8CEADC3C 		eor	ip, ip, ip, lsr #15
 139              	.LVL17:
 301:Drivers/lvgl/src/misc/lv_lru.c ****     return h % cache->hash_table_size;
 140              		.loc 1 301 5 is_stmt 1 view .LVU50
 141              		.loc 1 301 21 is_stmt 0 view .LVU51
 142 005a C369     		ldr	r3, [r0, #28]
 143              		.loc 1 301 14 view .LVU52
 144 005c BCFBF3F0 		udiv	r0, ip, r3
 145              	.LVL18:
 302:Drivers/lvgl/src/misc/lv_lru.c **** }
 146              		.loc 1 302 1 view .LVU53
 147 0060 03FB10C0 		mls	r0, r3, r0, ip
 148 0064 5DF8044B 		ldr	r4, [sp], #4
 149              		.cfi_restore 4
 150              		.cfi_def_cfa_offset 0
 151 0068 7047     		bx	lr
 152              	.L9:
 153 006a 00BF     		.align	2
 154              	.L8:
ARM GAS  /var/folders/0z/tsy30v1j4xl4_7kw94k978ww0000gn/T//ccXwtRY4.s 			page 9


 155 006c 95E9D15B 		.word	1540483477
 156              		.cfi_endproc
 157              	.LFE8:
 159              		.section	.text.lv_lru_pop_or_create_item,"ax",%progbits
 160              		.align	1
 161              		.syntax unified
 162              		.thumb
 163              		.thumb_func
 165              	lv_lru_pop_or_create_item:
 166              	.LVL19:
 167              	.LFB11:
 303:Drivers/lvgl/src/misc/lv_lru.c **** 
 304:Drivers/lvgl/src/misc/lv_lru.c **** static int lv_lru_cmp_keys(lv_lru_item_t * item, const void * key, uint32_t key_length)
 305:Drivers/lvgl/src/misc/lv_lru.c **** {
 306:Drivers/lvgl/src/misc/lv_lru.c ****     if(key_length != item->key_length) {
 307:Drivers/lvgl/src/misc/lv_lru.c ****         return 1;
 308:Drivers/lvgl/src/misc/lv_lru.c ****     }
 309:Drivers/lvgl/src/misc/lv_lru.c ****     else {
 310:Drivers/lvgl/src/misc/lv_lru.c ****         return memcmp(key, item->key, key_length);
 311:Drivers/lvgl/src/misc/lv_lru.c ****     }
 312:Drivers/lvgl/src/misc/lv_lru.c **** }
 313:Drivers/lvgl/src/misc/lv_lru.c **** 
 314:Drivers/lvgl/src/misc/lv_lru.c **** static void lv_lru_remove_item(lv_lru_t * cache, lv_lru_item_t * prev, lv_lru_item_t * item, uint32
 315:Drivers/lvgl/src/misc/lv_lru.c **** {
 316:Drivers/lvgl/src/misc/lv_lru.c ****     if(prev) {
 317:Drivers/lvgl/src/misc/lv_lru.c ****         prev->next = item->next;
 318:Drivers/lvgl/src/misc/lv_lru.c ****     }
 319:Drivers/lvgl/src/misc/lv_lru.c ****     else {
 320:Drivers/lvgl/src/misc/lv_lru.c ****         cache->items[hash_index] = (lv_lru_item_t *) item->next;
 321:Drivers/lvgl/src/misc/lv_lru.c ****     }
 322:Drivers/lvgl/src/misc/lv_lru.c **** 
 323:Drivers/lvgl/src/misc/lv_lru.c ****     // free memory and update the free memory counter
 324:Drivers/lvgl/src/misc/lv_lru.c ****     cache->free_memory += item->value_length;
 325:Drivers/lvgl/src/misc/lv_lru.c ****     cache->value_free(item->value);
 326:Drivers/lvgl/src/misc/lv_lru.c ****     cache->key_free(item->key);
 327:Drivers/lvgl/src/misc/lv_lru.c **** 
 328:Drivers/lvgl/src/misc/lv_lru.c ****     // push the item to the free items queue
 329:Drivers/lvgl/src/misc/lv_lru.c ****     lv_memset_00(item, sizeof(lv_lru_item_t));
 330:Drivers/lvgl/src/misc/lv_lru.c ****     item->next = cache->free_items;
 331:Drivers/lvgl/src/misc/lv_lru.c ****     cache->free_items = item;
 332:Drivers/lvgl/src/misc/lv_lru.c **** }
 333:Drivers/lvgl/src/misc/lv_lru.c **** 
 334:Drivers/lvgl/src/misc/lv_lru.c **** static lv_lru_item_t * lv_lru_pop_or_create_item(lv_lru_t * cache)
 335:Drivers/lvgl/src/misc/lv_lru.c **** {
 168              		.loc 1 335 1 is_stmt 1 view -0
 169              		.cfi_startproc
 170              		@ args = 0, pretend = 0, frame = 0
 171              		@ frame_needed = 0, uses_anonymous_args = 0
 172              		.loc 1 335 1 is_stmt 0 view .LVU55
 173 0000 10B5     		push	{r4, lr}
 174              		.cfi_def_cfa_offset 8
 175              		.cfi_offset 4, -8
 176              		.cfi_offset 14, -4
 336:Drivers/lvgl/src/misc/lv_lru.c ****     lv_lru_item_t * item = NULL;
 177              		.loc 1 336 5 is_stmt 1 view .LVU56
 178              	.LVL20:
 337:Drivers/lvgl/src/misc/lv_lru.c **** 
ARM GAS  /var/folders/0z/tsy30v1j4xl4_7kw94k978ww0000gn/T//ccXwtRY4.s 			page 10


 338:Drivers/lvgl/src/misc/lv_lru.c ****     if(cache->free_items) {
 179              		.loc 1 338 5 view .LVU57
 180              		.loc 1 338 13 is_stmt 0 view .LVU58
 181 0002 C46A     		ldr	r4, [r0, #44]
 182              		.loc 1 338 7 view .LVU59
 183 0004 3CB1     		cbz	r4, .L11
 339:Drivers/lvgl/src/misc/lv_lru.c ****         item = cache->free_items;
 184              		.loc 1 339 9 is_stmt 1 view .LVU60
 185              	.LVL21:
 340:Drivers/lvgl/src/misc/lv_lru.c ****         cache->free_items = item->next;
 186              		.loc 1 340 9 view .LVU61
 187              		.loc 1 340 33 is_stmt 0 view .LVU62
 188 0006 A369     		ldr	r3, [r4, #24]
 189              		.loc 1 340 27 view .LVU63
 190 0008 C362     		str	r3, [r0, #44]
 341:Drivers/lvgl/src/misc/lv_lru.c ****         lv_memset_00(item, sizeof(lv_lru_item_t));
 191              		.loc 1 341 9 is_stmt 1 view .LVU64
 192 000a 2021     		movs	r1, #32
 193 000c 2046     		mov	r0, r4
 194              	.LVL22:
 195              		.loc 1 341 9 is_stmt 0 view .LVU65
 196 000e FFF7FEFF 		bl	lv_memset_00
 197              	.LVL23:
 198              	.L10:
 342:Drivers/lvgl/src/misc/lv_lru.c ****     }
 343:Drivers/lvgl/src/misc/lv_lru.c ****     else {
 344:Drivers/lvgl/src/misc/lv_lru.c ****         item = (lv_lru_item_t *) lv_mem_alloc(sizeof(lv_lru_item_t));
 345:Drivers/lvgl/src/misc/lv_lru.c ****         lv_memset_00(item, sizeof(lv_lru_item_t));
 346:Drivers/lvgl/src/misc/lv_lru.c ****     }
 347:Drivers/lvgl/src/misc/lv_lru.c **** 
 348:Drivers/lvgl/src/misc/lv_lru.c ****     return item;
 349:Drivers/lvgl/src/misc/lv_lru.c **** }
 199              		.loc 1 349 1 view .LVU66
 200 0012 2046     		mov	r0, r4
 201 0014 10BD     		pop	{r4, pc}
 202              	.LVL24:
 203              	.L11:
 344:Drivers/lvgl/src/misc/lv_lru.c ****         lv_memset_00(item, sizeof(lv_lru_item_t));
 204              		.loc 1 344 9 is_stmt 1 view .LVU67
 344:Drivers/lvgl/src/misc/lv_lru.c ****         lv_memset_00(item, sizeof(lv_lru_item_t));
 205              		.loc 1 344 34 is_stmt 0 view .LVU68
 206 0016 2020     		movs	r0, #32
 207              	.LVL25:
 344:Drivers/lvgl/src/misc/lv_lru.c ****         lv_memset_00(item, sizeof(lv_lru_item_t));
 208              		.loc 1 344 34 view .LVU69
 209 0018 FFF7FEFF 		bl	lv_mem_alloc
 210              	.LVL26:
 211 001c 0446     		mov	r4, r0
 212              	.LVL27:
 345:Drivers/lvgl/src/misc/lv_lru.c ****     }
 213              		.loc 1 345 9 is_stmt 1 view .LVU70
 214 001e 2021     		movs	r1, #32
 215 0020 FFF7FEFF 		bl	lv_memset_00
 216              	.LVL28:
 348:Drivers/lvgl/src/misc/lv_lru.c **** }
 217              		.loc 1 348 5 view .LVU71
 348:Drivers/lvgl/src/misc/lv_lru.c **** }
ARM GAS  /var/folders/0z/tsy30v1j4xl4_7kw94k978ww0000gn/T//ccXwtRY4.s 			page 11


 218              		.loc 1 348 12 is_stmt 0 view .LVU72
 219 0024 F5E7     		b	.L10
 220              		.cfi_endproc
 221              	.LFE11:
 223              		.section	.text.lv_lru_remove_item,"ax",%progbits
 224              		.align	1
 225              		.syntax unified
 226              		.thumb
 227              		.thumb_func
 229              	lv_lru_remove_item:
 230              	.LVL29:
 231              	.LFB10:
 315:Drivers/lvgl/src/misc/lv_lru.c ****     if(prev) {
 232              		.loc 1 315 1 is_stmt 1 view -0
 233              		.cfi_startproc
 234              		@ args = 0, pretend = 0, frame = 0
 235              		@ frame_needed = 0, uses_anonymous_args = 0
 315:Drivers/lvgl/src/misc/lv_lru.c ****     if(prev) {
 236              		.loc 1 315 1 is_stmt 0 view .LVU74
 237 0000 38B5     		push	{r3, r4, r5, lr}
 238              		.cfi_def_cfa_offset 16
 239              		.cfi_offset 3, -16
 240              		.cfi_offset 4, -12
 241              		.cfi_offset 5, -8
 242              		.cfi_offset 14, -4
 243 0002 0546     		mov	r5, r0
 244 0004 1446     		mov	r4, r2
 316:Drivers/lvgl/src/misc/lv_lru.c ****         prev->next = item->next;
 245              		.loc 1 316 5 is_stmt 1 view .LVU75
 316:Drivers/lvgl/src/misc/lv_lru.c ****         prev->next = item->next;
 246              		.loc 1 316 7 is_stmt 0 view .LVU76
 247 0006 99B1     		cbz	r1, .L15
 317:Drivers/lvgl/src/misc/lv_lru.c ****     }
 248              		.loc 1 317 9 is_stmt 1 view .LVU77
 317:Drivers/lvgl/src/misc/lv_lru.c ****     }
 249              		.loc 1 317 26 is_stmt 0 view .LVU78
 250 0008 A369     		ldr	r3, [r4, #24]
 251              	.LVL30:
 317:Drivers/lvgl/src/misc/lv_lru.c ****     }
 252              		.loc 1 317 20 view .LVU79
 253 000a 8B61     		str	r3, [r1, #24]
 254              	.LVL31:
 255              	.L16:
 324:Drivers/lvgl/src/misc/lv_lru.c ****     cache->value_free(item->value);
 256              		.loc 1 324 5 is_stmt 1 view .LVU80
 324:Drivers/lvgl/src/misc/lv_lru.c ****     cache->value_free(item->value);
 257              		.loc 1 324 31 is_stmt 0 view .LVU81
 258 000c A268     		ldr	r2, [r4, #8]
 324:Drivers/lvgl/src/misc/lv_lru.c ****     cache->value_free(item->value);
 259              		.loc 1 324 24 view .LVU82
 260 000e 2B69     		ldr	r3, [r5, #16]
 261 0010 1344     		add	r3, r3, r2
 262 0012 2B61     		str	r3, [r5, #16]
 325:Drivers/lvgl/src/misc/lv_lru.c ****     cache->key_free(item->key);
 263              		.loc 1 325 5 is_stmt 1 view .LVU83
 325:Drivers/lvgl/src/misc/lv_lru.c ****     cache->key_free(item->key);
 264              		.loc 1 325 10 is_stmt 0 view .LVU84
ARM GAS  /var/folders/0z/tsy30v1j4xl4_7kw94k978ww0000gn/T//ccXwtRY4.s 			page 12


 265 0014 6B6A     		ldr	r3, [r5, #36]
 325:Drivers/lvgl/src/misc/lv_lru.c ****     cache->key_free(item->key);
 266              		.loc 1 325 5 view .LVU85
 267 0016 2068     		ldr	r0, [r4]
 268              	.LVL32:
 325:Drivers/lvgl/src/misc/lv_lru.c ****     cache->key_free(item->key);
 269              		.loc 1 325 5 view .LVU86
 270 0018 9847     		blx	r3
 271              	.LVL33:
 326:Drivers/lvgl/src/misc/lv_lru.c **** 
 272              		.loc 1 326 5 is_stmt 1 view .LVU87
 326:Drivers/lvgl/src/misc/lv_lru.c **** 
 273              		.loc 1 326 10 is_stmt 0 view .LVU88
 274 001a AB6A     		ldr	r3, [r5, #40]
 326:Drivers/lvgl/src/misc/lv_lru.c **** 
 275              		.loc 1 326 5 view .LVU89
 276 001c 6068     		ldr	r0, [r4, #4]
 277 001e 9847     		blx	r3
 278              	.LVL34:
 329:Drivers/lvgl/src/misc/lv_lru.c ****     item->next = cache->free_items;
 279              		.loc 1 329 5 is_stmt 1 view .LVU90
 280 0020 2021     		movs	r1, #32
 281 0022 2046     		mov	r0, r4
 282 0024 FFF7FEFF 		bl	lv_memset_00
 283              	.LVL35:
 330:Drivers/lvgl/src/misc/lv_lru.c ****     cache->free_items = item;
 284              		.loc 1 330 5 view .LVU91
 330:Drivers/lvgl/src/misc/lv_lru.c ****     cache->free_items = item;
 285              		.loc 1 330 23 is_stmt 0 view .LVU92
 286 0028 EB6A     		ldr	r3, [r5, #44]
 330:Drivers/lvgl/src/misc/lv_lru.c ****     cache->free_items = item;
 287              		.loc 1 330 16 view .LVU93
 288 002a A361     		str	r3, [r4, #24]
 331:Drivers/lvgl/src/misc/lv_lru.c **** }
 289              		.loc 1 331 5 is_stmt 1 view .LVU94
 331:Drivers/lvgl/src/misc/lv_lru.c **** }
 290              		.loc 1 331 23 is_stmt 0 view .LVU95
 291 002c EC62     		str	r4, [r5, #44]
 332:Drivers/lvgl/src/misc/lv_lru.c **** 
 292              		.loc 1 332 1 view .LVU96
 293 002e 38BD     		pop	{r3, r4, r5, pc}
 294              	.LVL36:
 295              	.L15:
 320:Drivers/lvgl/src/misc/lv_lru.c ****     }
 296              		.loc 1 320 9 is_stmt 1 view .LVU97
 320:Drivers/lvgl/src/misc/lv_lru.c ****     }
 297              		.loc 1 320 14 is_stmt 0 view .LVU98
 298 0030 0268     		ldr	r2, [r0]
 299              	.LVL37:
 320:Drivers/lvgl/src/misc/lv_lru.c ****     }
 300              		.loc 1 320 58 view .LVU99
 301 0032 A169     		ldr	r1, [r4, #24]
 302              	.LVL38:
 320:Drivers/lvgl/src/misc/lv_lru.c ****     }
 303              		.loc 1 320 34 view .LVU100
 304 0034 42F82310 		str	r1, [r2, r3, lsl #2]
 305 0038 E8E7     		b	.L16
ARM GAS  /var/folders/0z/tsy30v1j4xl4_7kw94k978ww0000gn/T//ccXwtRY4.s 			page 13


 306              		.cfi_endproc
 307              	.LFE10:
 309              		.section	.text.lv_lru_cmp_keys,"ax",%progbits
 310              		.align	1
 311              		.syntax unified
 312              		.thumb
 313              		.thumb_func
 315              	lv_lru_cmp_keys:
 316              	.LVL39:
 317              	.LFB9:
 305:Drivers/lvgl/src/misc/lv_lru.c ****     if(key_length != item->key_length) {
 318              		.loc 1 305 1 is_stmt 1 view -0
 319              		.cfi_startproc
 320              		@ args = 0, pretend = 0, frame = 0
 321              		@ frame_needed = 0, uses_anonymous_args = 0
 305:Drivers/lvgl/src/misc/lv_lru.c ****     if(key_length != item->key_length) {
 322              		.loc 1 305 1 is_stmt 0 view .LVU102
 323 0000 08B5     		push	{r3, lr}
 324              		.cfi_def_cfa_offset 8
 325              		.cfi_offset 3, -8
 326              		.cfi_offset 14, -4
 327 0002 0346     		mov	r3, r0
 328 0004 0846     		mov	r0, r1
 329              	.LVL40:
 306:Drivers/lvgl/src/misc/lv_lru.c ****         return 1;
 330              		.loc 1 306 5 is_stmt 1 view .LVU103
 306:Drivers/lvgl/src/misc/lv_lru.c ****         return 1;
 331              		.loc 1 306 26 is_stmt 0 view .LVU104
 332 0006 D968     		ldr	r1, [r3, #12]
 333              	.LVL41:
 306:Drivers/lvgl/src/misc/lv_lru.c ****         return 1;
 334              		.loc 1 306 7 view .LVU105
 335 0008 9142     		cmp	r1, r2
 336 000a 01D0     		beq	.L22
 307:Drivers/lvgl/src/misc/lv_lru.c ****     }
 337              		.loc 1 307 16 view .LVU106
 338 000c 0120     		movs	r0, #1
 339              	.LVL42:
 340              	.L18:
 312:Drivers/lvgl/src/misc/lv_lru.c **** 
 341              		.loc 1 312 1 view .LVU107
 342 000e 08BD     		pop	{r3, pc}
 343              	.LVL43:
 344              	.L22:
 310:Drivers/lvgl/src/misc/lv_lru.c ****     }
 345              		.loc 1 310 9 is_stmt 1 view .LVU108
 310:Drivers/lvgl/src/misc/lv_lru.c ****     }
 346              		.loc 1 310 16 is_stmt 0 view .LVU109
 347 0010 5968     		ldr	r1, [r3, #4]
 348 0012 FFF7FEFF 		bl	memcmp
 349              	.LVL44:
 310:Drivers/lvgl/src/misc/lv_lru.c ****     }
 350              		.loc 1 310 16 view .LVU110
 351 0016 FAE7     		b	.L18
 352              		.cfi_endproc
 353              	.LFE9:
 355              		.section	.text.lv_lru_create,"ax",%progbits
ARM GAS  /var/folders/0z/tsy30v1j4xl4_7kw94k978ww0000gn/T//ccXwtRY4.s 			page 14


 356              		.align	1
 357              		.global	lv_lru_create
 358              		.syntax unified
 359              		.thumb
 360              		.thumb_func
 362              	lv_lru_create:
 363              	.LVL45:
 364              	.LFB2:
  75:Drivers/lvgl/src/misc/lv_lru.c ****     // create the cache
 365              		.loc 1 75 1 is_stmt 1 view -0
 366              		.cfi_startproc
 367              		@ args = 0, pretend = 0, frame = 0
 368              		@ frame_needed = 0, uses_anonymous_args = 0
  75:Drivers/lvgl/src/misc/lv_lru.c ****     // create the cache
 369              		.loc 1 75 1 is_stmt 0 view .LVU112
 370 0000 2DE9F041 		push	{r4, r5, r6, r7, r8, lr}
 371              		.cfi_def_cfa_offset 24
 372              		.cfi_offset 4, -24
 373              		.cfi_offset 5, -20
 374              		.cfi_offset 6, -16
 375              		.cfi_offset 7, -12
 376              		.cfi_offset 8, -8
 377              		.cfi_offset 14, -4
 378 0004 0746     		mov	r7, r0
 379 0006 8846     		mov	r8, r1
 380 0008 1646     		mov	r6, r2
 381 000a 1D46     		mov	r5, r3
  77:Drivers/lvgl/src/misc/lv_lru.c ****     lv_memset_00(cache, sizeof(lv_lru_t));
 382              		.loc 1 77 5 is_stmt 1 view .LVU113
  77:Drivers/lvgl/src/misc/lv_lru.c ****     lv_memset_00(cache, sizeof(lv_lru_t));
 383              		.loc 1 77 37 is_stmt 0 view .LVU114
 384 000c 3020     		movs	r0, #48
 385              	.LVL46:
  77:Drivers/lvgl/src/misc/lv_lru.c ****     lv_memset_00(cache, sizeof(lv_lru_t));
 386              		.loc 1 77 37 view .LVU115
 387 000e FFF7FEFF 		bl	lv_mem_alloc
 388              	.LVL47:
  77:Drivers/lvgl/src/misc/lv_lru.c ****     lv_memset_00(cache, sizeof(lv_lru_t));
 389              		.loc 1 77 37 view .LVU116
 390 0012 0446     		mov	r4, r0
 391              	.LVL48:
  78:Drivers/lvgl/src/misc/lv_lru.c ****     if(!cache) {
 392              		.loc 1 78 5 is_stmt 1 view .LVU117
 393 0014 3021     		movs	r1, #48
 394 0016 FFF7FEFF 		bl	lv_memset_00
 395              	.LVL49:
  79:Drivers/lvgl/src/misc/lv_lru.c ****         LV_LOG_WARN("LRU Cache unable to create cache object");
 396              		.loc 1 79 5 view .LVU118
  79:Drivers/lvgl/src/misc/lv_lru.c ****         LV_LOG_WARN("LRU Cache unable to create cache object");
 397              		.loc 1 79 7 is_stmt 0 view .LVU119
 398 001a DCB1     		cbz	r4, .L23
  83:Drivers/lvgl/src/misc/lv_lru.c ****     cache->average_item_length = average_length;
 399              		.loc 1 83 5 is_stmt 1 view .LVU120
  83:Drivers/lvgl/src/misc/lv_lru.c ****     cache->average_item_length = average_length;
 400              		.loc 1 83 41 is_stmt 0 view .LVU121
 401 001c B7FBF8F3 		udiv	r3, r7, r8
  83:Drivers/lvgl/src/misc/lv_lru.c ****     cache->average_item_length = average_length;
ARM GAS  /var/folders/0z/tsy30v1j4xl4_7kw94k978ww0000gn/T//ccXwtRY4.s 			page 15


 402              		.loc 1 83 28 view .LVU122
 403 0020 E361     		str	r3, [r4, #28]
  84:Drivers/lvgl/src/misc/lv_lru.c ****     cache->free_memory = cache_size;
 404              		.loc 1 84 5 is_stmt 1 view .LVU123
  84:Drivers/lvgl/src/misc/lv_lru.c ****     cache->free_memory = cache_size;
 405              		.loc 1 84 32 is_stmt 0 view .LVU124
 406 0022 C4F81880 		str	r8, [r4, #24]
  85:Drivers/lvgl/src/misc/lv_lru.c ****     cache->total_memory = cache_size;
 407              		.loc 1 85 5 is_stmt 1 view .LVU125
  85:Drivers/lvgl/src/misc/lv_lru.c ****     cache->total_memory = cache_size;
 408              		.loc 1 85 24 is_stmt 0 view .LVU126
 409 0026 2761     		str	r7, [r4, #16]
  86:Drivers/lvgl/src/misc/lv_lru.c ****     cache->seed = lv_rand(1, UINT32_MAX);
 410              		.loc 1 86 5 is_stmt 1 view .LVU127
  86:Drivers/lvgl/src/misc/lv_lru.c ****     cache->seed = lv_rand(1, UINT32_MAX);
 411              		.loc 1 86 25 is_stmt 0 view .LVU128
 412 0028 6761     		str	r7, [r4, #20]
  87:Drivers/lvgl/src/misc/lv_lru.c ****     cache->value_free = value_free ? value_free : lv_mem_free;
 413              		.loc 1 87 5 is_stmt 1 view .LVU129
  87:Drivers/lvgl/src/misc/lv_lru.c ****     cache->value_free = value_free ? value_free : lv_mem_free;
 414              		.loc 1 87 19 is_stmt 0 view .LVU130
 415 002a 4FF0FF31 		mov	r1, #-1
 416 002e 0120     		movs	r0, #1
 417 0030 FFF7FEFF 		bl	lv_rand
 418              	.LVL50:
  87:Drivers/lvgl/src/misc/lv_lru.c ****     cache->value_free = value_free ? value_free : lv_mem_free;
 419              		.loc 1 87 17 view .LVU131
 420 0034 2062     		str	r0, [r4, #32]
  88:Drivers/lvgl/src/misc/lv_lru.c ****     cache->key_free = key_free ? key_free : lv_mem_free;
 421              		.loc 1 88 5 is_stmt 1 view .LVU132
  88:Drivers/lvgl/src/misc/lv_lru.c ****     cache->key_free = key_free ? key_free : lv_mem_free;
 422              		.loc 1 88 49 is_stmt 0 view .LVU133
 423 0036 86B1     		cbz	r6, .L30
 424              	.LVL51:
 425              	.L25:
  88:Drivers/lvgl/src/misc/lv_lru.c ****     cache->key_free = key_free ? key_free : lv_mem_free;
 426              		.loc 1 88 23 discriminator 4 view .LVU134
 427 0038 6662     		str	r6, [r4, #36]
  89:Drivers/lvgl/src/misc/lv_lru.c **** 
 428              		.loc 1 89 5 is_stmt 1 discriminator 4 view .LVU135
  89:Drivers/lvgl/src/misc/lv_lru.c **** 
 429              		.loc 1 89 43 is_stmt 0 discriminator 4 view .LVU136
 430 003a 85B1     		cbz	r5, .L31
 431              	.LVL52:
 432              	.L26:
  89:Drivers/lvgl/src/misc/lv_lru.c **** 
 433              		.loc 1 89 21 discriminator 4 view .LVU137
 434 003c A562     		str	r5, [r4, #40]
  92:Drivers/lvgl/src/misc/lv_lru.c ****     lv_memset_00(cache->items, sizeof(lv_lru_item_t *) * cache->hash_table_size);
 435              		.loc 1 92 5 is_stmt 1 discriminator 4 view .LVU138
  92:Drivers/lvgl/src/misc/lv_lru.c ****     lv_memset_00(cache->items, sizeof(lv_lru_item_t *) * cache->hash_table_size);
 436              		.loc 1 92 83 is_stmt 0 discriminator 4 view .LVU139
 437 003e E069     		ldr	r0, [r4, #28]
  92:Drivers/lvgl/src/misc/lv_lru.c ****     lv_memset_00(cache->items, sizeof(lv_lru_item_t *) * cache->hash_table_size);
 438              		.loc 1 92 39 discriminator 4 view .LVU140
 439 0040 8000     		lsls	r0, r0, #2
 440 0042 FFF7FEFF 		bl	lv_mem_alloc
ARM GAS  /var/folders/0z/tsy30v1j4xl4_7kw94k978ww0000gn/T//ccXwtRY4.s 			page 16


 441              	.LVL53:
  92:Drivers/lvgl/src/misc/lv_lru.c ****     lv_memset_00(cache->items, sizeof(lv_lru_item_t *) * cache->hash_table_size);
 442              		.loc 1 92 18 discriminator 4 view .LVU141
 443 0046 2060     		str	r0, [r4]
  93:Drivers/lvgl/src/misc/lv_lru.c ****     if(!cache->items) {
 444              		.loc 1 93 5 is_stmt 1 discriminator 4 view .LVU142
  93:Drivers/lvgl/src/misc/lv_lru.c ****     if(!cache->items) {
 445              		.loc 1 93 63 is_stmt 0 discriminator 4 view .LVU143
 446 0048 E169     		ldr	r1, [r4, #28]
  93:Drivers/lvgl/src/misc/lv_lru.c ****     if(!cache->items) {
 447              		.loc 1 93 5 discriminator 4 view .LVU144
 448 004a 8900     		lsls	r1, r1, #2
 449 004c FFF7FEFF 		bl	lv_memset_00
 450              	.LVL54:
  94:Drivers/lvgl/src/misc/lv_lru.c ****         LV_LOG_WARN("LRU Cache unable to create cache hash table");
 451              		.loc 1 94 5 is_stmt 1 discriminator 4 view .LVU145
  94:Drivers/lvgl/src/misc/lv_lru.c ****         LV_LOG_WARN("LRU Cache unable to create cache hash table");
 452              		.loc 1 94 14 is_stmt 0 discriminator 4 view .LVU146
 453 0050 2568     		ldr	r5, [r4]
  94:Drivers/lvgl/src/misc/lv_lru.c ****         LV_LOG_WARN("LRU Cache unable to create cache hash table");
 454              		.loc 1 94 7 discriminator 4 view .LVU147
 455 0052 35B1     		cbz	r5, .L32
 456              	.LVL55:
 457              	.L23:
 100:Drivers/lvgl/src/misc/lv_lru.c **** 
 458              		.loc 1 100 1 view .LVU148
 459 0054 2046     		mov	r0, r4
 460 0056 BDE8F081 		pop	{r4, r5, r6, r7, r8, pc}
 461              	.LVL56:
 462              	.L30:
  88:Drivers/lvgl/src/misc/lv_lru.c ****     cache->key_free = key_free ? key_free : lv_mem_free;
 463              		.loc 1 88 49 view .LVU149
 464 005a 044E     		ldr	r6, .L33
 465              	.LVL57:
  88:Drivers/lvgl/src/misc/lv_lru.c ****     cache->key_free = key_free ? key_free : lv_mem_free;
 466              		.loc 1 88 49 view .LVU150
 467 005c ECE7     		b	.L25
 468              	.L31:
  89:Drivers/lvgl/src/misc/lv_lru.c **** 
 469              		.loc 1 89 43 view .LVU151
 470 005e 034D     		ldr	r5, .L33
 471              	.LVL58:
  89:Drivers/lvgl/src/misc/lv_lru.c **** 
 472              		.loc 1 89 43 view .LVU152
 473 0060 ECE7     		b	.L26
 474              	.L32:
  95:Drivers/lvgl/src/misc/lv_lru.c ****         lv_mem_free(cache);
 475              		.loc 1 95 9 is_stmt 1 view .LVU153
  95:Drivers/lvgl/src/misc/lv_lru.c ****         lv_mem_free(cache);
 476              		.loc 1 95 9 view .LVU154
  95:Drivers/lvgl/src/misc/lv_lru.c ****         lv_mem_free(cache);
 477              		.loc 1 95 9 view .LVU155
  96:Drivers/lvgl/src/misc/lv_lru.c ****         return NULL;
 478              		.loc 1 96 9 view .LVU156
 479 0062 2046     		mov	r0, r4
 480 0064 FFF7FEFF 		bl	lv_mem_free
 481              	.LVL59:
ARM GAS  /var/folders/0z/tsy30v1j4xl4_7kw94k978ww0000gn/T//ccXwtRY4.s 			page 17


  97:Drivers/lvgl/src/misc/lv_lru.c ****     }
 482              		.loc 1 97 9 view .LVU157
  97:Drivers/lvgl/src/misc/lv_lru.c ****     }
 483              		.loc 1 97 16 is_stmt 0 view .LVU158
 484 0068 2C46     		mov	r4, r5
 485              	.LVL60:
  97:Drivers/lvgl/src/misc/lv_lru.c ****     }
 486              		.loc 1 97 16 view .LVU159
 487 006a F3E7     		b	.L23
 488              	.L34:
 489              		.align	2
 490              	.L33:
 491 006c 00000000 		.word	lv_mem_free
 492              		.cfi_endproc
 493              	.LFE2:
 495              		.section	.text.lv_lru_del,"ax",%progbits
 496              		.align	1
 497              		.global	lv_lru_del
 498              		.syntax unified
 499              		.thumb
 500              		.thumb_func
 502              	lv_lru_del:
 503              	.LVL61:
 504              	.LFB3:
 104:Drivers/lvgl/src/misc/lv_lru.c ****     LV_ASSERT_NULL(cache);
 505              		.loc 1 104 1 is_stmt 1 view -0
 506              		.cfi_startproc
 507              		@ args = 0, pretend = 0, frame = 0
 508              		@ frame_needed = 0, uses_anonymous_args = 0
 105:Drivers/lvgl/src/misc/lv_lru.c **** 
 509              		.loc 1 105 5 view .LVU161
 105:Drivers/lvgl/src/misc/lv_lru.c **** 
 510              		.loc 1 105 5 view .LVU162
 511 0000 28B1     		cbz	r0, .L37
 104:Drivers/lvgl/src/misc/lv_lru.c ****     LV_ASSERT_NULL(cache);
 512              		.loc 1 104 1 is_stmt 0 discriminator 2 view .LVU163
 513 0002 F8B5     		push	{r3, r4, r5, r6, r7, lr}
 514              		.cfi_def_cfa_offset 24
 515              		.cfi_offset 3, -24
 516              		.cfi_offset 4, -20
 517              		.cfi_offset 5, -16
 518              		.cfi_offset 6, -12
 519              		.cfi_offset 7, -8
 520              		.cfi_offset 14, -4
 521 0004 0546     		mov	r5, r0
 105:Drivers/lvgl/src/misc/lv_lru.c **** 
 522              		.loc 1 105 5 is_stmt 1 discriminator 2 view .LVU164
 105:Drivers/lvgl/src/misc/lv_lru.c **** 
 523              		.loc 1 105 26 discriminator 2 view .LVU165
 108:Drivers/lvgl/src/misc/lv_lru.c ****     uint32_t i = 0;
 524              		.loc 1 108 5 discriminator 2 view .LVU166
 525              	.LVL62:
 109:Drivers/lvgl/src/misc/lv_lru.c ****     if(cache->items) {
 526              		.loc 1 109 5 discriminator 2 view .LVU167
 110:Drivers/lvgl/src/misc/lv_lru.c ****         for(; i < cache->hash_table_size; i++) {
 527              		.loc 1 110 5 discriminator 2 view .LVU168
 110:Drivers/lvgl/src/misc/lv_lru.c ****         for(; i < cache->hash_table_size; i++) {
ARM GAS  /var/folders/0z/tsy30v1j4xl4_7kw94k978ww0000gn/T//ccXwtRY4.s 			page 18


 528              		.loc 1 110 13 is_stmt 0 discriminator 2 view .LVU169
 529 0006 0368     		ldr	r3, [r0]
 110:Drivers/lvgl/src/misc/lv_lru.c ****         for(; i < cache->hash_table_size; i++) {
 530              		.loc 1 110 7 discriminator 2 view .LVU170
 531 0008 F3B1     		cbz	r3, .L39
 109:Drivers/lvgl/src/misc/lv_lru.c ****     if(cache->items) {
 532              		.loc 1 109 14 view .LVU171
 533 000a 0027     		movs	r7, #0
 534 000c 12E0     		b	.L38
 535              	.LVL63:
 536              	.L37:
 537              		.cfi_def_cfa_offset 0
 538              		.cfi_restore 3
 539              		.cfi_restore 4
 540              		.cfi_restore 5
 541              		.cfi_restore 6
 542              		.cfi_restore 7
 543              		.cfi_restore 14
 105:Drivers/lvgl/src/misc/lv_lru.c **** 
 544              		.loc 1 105 5 is_stmt 1 discriminator 1 view .LVU172
 105:Drivers/lvgl/src/misc/lv_lru.c **** 
 545              		.loc 1 105 5 discriminator 1 view .LVU173
 105:Drivers/lvgl/src/misc/lv_lru.c **** 
 546              		.loc 1 105 5 discriminator 1 view .LVU174
 105:Drivers/lvgl/src/misc/lv_lru.c **** 
 547              		.loc 1 105 5 discriminator 1 view .LVU175
 105:Drivers/lvgl/src/misc/lv_lru.c **** 
 548              		.loc 1 105 5 discriminator 1 view .LVU176
 549 000e FEE7     		b	.L37
 550              	.LVL64:
 551              	.L41:
 552              		.cfi_def_cfa_offset 24
 553              		.cfi_offset 3, -24
 554              		.cfi_offset 4, -20
 555              		.cfi_offset 5, -16
 556              		.cfi_offset 6, -12
 557              		.cfi_offset 7, -8
 558              		.cfi_offset 14, -4
 114:Drivers/lvgl/src/misc/lv_lru.c ****                 cache->value_free(item->value);
 559              		.loc 1 114 17 view .LVU177
 114:Drivers/lvgl/src/misc/lv_lru.c ****                 cache->value_free(item->value);
 560              		.loc 1 114 22 is_stmt 0 view .LVU178
 561 0010 A669     		ldr	r6, [r4, #24]
 562              	.LVL65:
 115:Drivers/lvgl/src/misc/lv_lru.c ****                 cache->key_free(item->key);
 563              		.loc 1 115 17 is_stmt 1 view .LVU179
 115:Drivers/lvgl/src/misc/lv_lru.c ****                 cache->key_free(item->key);
 564              		.loc 1 115 22 is_stmt 0 view .LVU180
 565 0012 6B6A     		ldr	r3, [r5, #36]
 115:Drivers/lvgl/src/misc/lv_lru.c ****                 cache->key_free(item->key);
 566              		.loc 1 115 17 view .LVU181
 567 0014 2068     		ldr	r0, [r4]
 568 0016 9847     		blx	r3
 569              	.LVL66:
 116:Drivers/lvgl/src/misc/lv_lru.c ****                 cache->free_memory += item->value_length;
 570              		.loc 1 116 17 is_stmt 1 view .LVU182
 116:Drivers/lvgl/src/misc/lv_lru.c ****                 cache->free_memory += item->value_length;
ARM GAS  /var/folders/0z/tsy30v1j4xl4_7kw94k978ww0000gn/T//ccXwtRY4.s 			page 19


 571              		.loc 1 116 22 is_stmt 0 view .LVU183
 572 0018 AB6A     		ldr	r3, [r5, #40]
 116:Drivers/lvgl/src/misc/lv_lru.c ****                 cache->free_memory += item->value_length;
 573              		.loc 1 116 17 view .LVU184
 574 001a 6068     		ldr	r0, [r4, #4]
 575 001c 9847     		blx	r3
 576              	.LVL67:
 117:Drivers/lvgl/src/misc/lv_lru.c ****                 lv_mem_free(item);
 577              		.loc 1 117 17 is_stmt 1 view .LVU185
 117:Drivers/lvgl/src/misc/lv_lru.c ****                 lv_mem_free(item);
 578              		.loc 1 117 43 is_stmt 0 view .LVU186
 579 001e A268     		ldr	r2, [r4, #8]
 117:Drivers/lvgl/src/misc/lv_lru.c ****                 lv_mem_free(item);
 580              		.loc 1 117 36 view .LVU187
 581 0020 2B69     		ldr	r3, [r5, #16]
 582 0022 1344     		add	r3, r3, r2
 583 0024 2B61     		str	r3, [r5, #16]
 118:Drivers/lvgl/src/misc/lv_lru.c ****                 item = next;
 584              		.loc 1 118 17 is_stmt 1 view .LVU188
 585 0026 2046     		mov	r0, r4
 586 0028 FFF7FEFF 		bl	lv_mem_free
 587              	.LVL68:
 119:Drivers/lvgl/src/misc/lv_lru.c ****             }
 588              		.loc 1 119 17 view .LVU189
 119:Drivers/lvgl/src/misc/lv_lru.c ****             }
 589              		.loc 1 119 22 is_stmt 0 view .LVU190
 590 002c 3446     		mov	r4, r6
 591              	.LVL69:
 592              	.L40:
 113:Drivers/lvgl/src/misc/lv_lru.c ****                 next = (lv_lru_item_t *) item->next;
 593              		.loc 1 113 19 is_stmt 1 view .LVU191
 594 002e 002C     		cmp	r4, #0
 595 0030 EED1     		bne	.L41
 111:Drivers/lvgl/src/misc/lv_lru.c ****             item = cache->items[i];
 596              		.loc 1 111 44 view .LVU192
 597 0032 0137     		adds	r7, r7, #1
 598              	.LVL70:
 599              	.L38:
 111:Drivers/lvgl/src/misc/lv_lru.c ****             item = cache->items[i];
 600              		.loc 1 111 17 discriminator 1 view .LVU193
 111:Drivers/lvgl/src/misc/lv_lru.c ****             item = cache->items[i];
 601              		.loc 1 111 24 is_stmt 0 discriminator 1 view .LVU194
 602 0034 EB69     		ldr	r3, [r5, #28]
 111:Drivers/lvgl/src/misc/lv_lru.c ****             item = cache->items[i];
 603              		.loc 1 111 17 discriminator 1 view .LVU195
 604 0036 BB42     		cmp	r3, r7
 605 0038 03D9     		bls	.L49
 112:Drivers/lvgl/src/misc/lv_lru.c ****             while(item) {
 606              		.loc 1 112 13 is_stmt 1 view .LVU196
 112:Drivers/lvgl/src/misc/lv_lru.c ****             while(item) {
 607              		.loc 1 112 25 is_stmt 0 view .LVU197
 608 003a 2B68     		ldr	r3, [r5]
 112:Drivers/lvgl/src/misc/lv_lru.c ****             while(item) {
 609              		.loc 1 112 18 view .LVU198
 610 003c 53F82740 		ldr	r4, [r3, r7, lsl #2]
 611              	.LVL71:
 113:Drivers/lvgl/src/misc/lv_lru.c ****                 next = (lv_lru_item_t *) item->next;
ARM GAS  /var/folders/0z/tsy30v1j4xl4_7kw94k978ww0000gn/T//ccXwtRY4.s 			page 20


 612              		.loc 1 113 13 is_stmt 1 view .LVU199
 113:Drivers/lvgl/src/misc/lv_lru.c ****                 next = (lv_lru_item_t *) item->next;
 613              		.loc 1 113 18 is_stmt 0 view .LVU200
 614 0040 F5E7     		b	.L40
 615              	.LVL72:
 616              	.L49:
 122:Drivers/lvgl/src/misc/lv_lru.c ****     }
 617              		.loc 1 122 9 is_stmt 1 view .LVU201
 618 0042 2868     		ldr	r0, [r5]
 619 0044 FFF7FEFF 		bl	lv_mem_free
 620              	.LVL73:
 621              	.L39:
 125:Drivers/lvgl/src/misc/lv_lru.c ****         item = cache->free_items;
 622              		.loc 1 125 5 view .LVU202
 125:Drivers/lvgl/src/misc/lv_lru.c ****         item = cache->free_items;
 623              		.loc 1 125 13 is_stmt 0 view .LVU203
 624 0048 E86A     		ldr	r0, [r5, #44]
 125:Drivers/lvgl/src/misc/lv_lru.c ****         item = cache->free_items;
 625              		.loc 1 125 7 view .LVU204
 626 004a 20B9     		cbnz	r0, .L43
 627 004c 05E0     		b	.L44
 628              	.LVL74:
 629              	.L45:
 128:Drivers/lvgl/src/misc/lv_lru.c ****             lv_mem_free(item);
 630              		.loc 1 128 13 is_stmt 1 view .LVU205
 128:Drivers/lvgl/src/misc/lv_lru.c ****             lv_mem_free(item);
 631              		.loc 1 128 18 is_stmt 0 view .LVU206
 632 004e 8469     		ldr	r4, [r0, #24]
 633              	.LVL75:
 129:Drivers/lvgl/src/misc/lv_lru.c ****             item = next;
 634              		.loc 1 129 13 is_stmt 1 view .LVU207
 635 0050 FFF7FEFF 		bl	lv_mem_free
 636              	.LVL76:
 130:Drivers/lvgl/src/misc/lv_lru.c ****         }
 637              		.loc 1 130 13 view .LVU208
 130:Drivers/lvgl/src/misc/lv_lru.c ****         }
 638              		.loc 1 130 18 is_stmt 0 view .LVU209
 639 0054 2046     		mov	r0, r4
 640              	.LVL77:
 641              	.L43:
 127:Drivers/lvgl/src/misc/lv_lru.c ****             next = (lv_lru_item_t *) item->next;
 642              		.loc 1 127 15 is_stmt 1 view .LVU210
 643 0056 0028     		cmp	r0, #0
 644 0058 F9D1     		bne	.L45
 645              	.LVL78:
 646              	.L44:
 135:Drivers/lvgl/src/misc/lv_lru.c **** }
 647              		.loc 1 135 5 view .LVU211
 648 005a 2846     		mov	r0, r5
 649 005c FFF7FEFF 		bl	lv_mem_free
 650              	.LVL79:
 136:Drivers/lvgl/src/misc/lv_lru.c **** 
 651              		.loc 1 136 1 is_stmt 0 view .LVU212
 652 0060 F8BD     		pop	{r3, r4, r5, r6, r7, pc}
 136:Drivers/lvgl/src/misc/lv_lru.c **** 
 653              		.loc 1 136 1 view .LVU213
 654              		.cfi_endproc
ARM GAS  /var/folders/0z/tsy30v1j4xl4_7kw94k978ww0000gn/T//ccXwtRY4.s 			page 21


 655              	.LFE3:
 657              		.section	.text.lv_lru_get,"ax",%progbits
 658              		.align	1
 659              		.global	lv_lru_get
 660              		.syntax unified
 661              		.thumb
 662              		.thumb_func
 664              	lv_lru_get:
 665              	.LVL80:
 666              	.LFB5:
 193:Drivers/lvgl/src/misc/lv_lru.c ****     test_for_missing_cache();
 667              		.loc 1 193 1 is_stmt 1 view -0
 668              		.cfi_startproc
 669              		@ args = 0, pretend = 0, frame = 0
 670              		@ frame_needed = 0, uses_anonymous_args = 0
 194:Drivers/lvgl/src/misc/lv_lru.c ****     test_for_missing_key();
 671              		.loc 1 194 5 view .LVU215
 672 0000 48B3     		cbz	r0, .L56
 193:Drivers/lvgl/src/misc/lv_lru.c ****     test_for_missing_cache();
 673              		.loc 1 193 1 is_stmt 0 discriminator 2 view .LVU216
 674 0002 2DE9F041 		push	{r4, r5, r6, r7, r8, lr}
 675              		.cfi_def_cfa_offset 24
 676              		.cfi_offset 4, -24
 677              		.cfi_offset 5, -20
 678              		.cfi_offset 6, -16
 679              		.cfi_offset 7, -12
 680              		.cfi_offset 8, -8
 681              		.cfi_offset 14, -4
 682 0006 0D46     		mov	r5, r1
 683 0008 1646     		mov	r6, r2
 684 000a 9846     		mov	r8, r3
 685 000c 0746     		mov	r7, r0
 194:Drivers/lvgl/src/misc/lv_lru.c ****     test_for_missing_key();
 686              		.loc 1 194 29 is_stmt 1 discriminator 2 view .LVU217
 195:Drivers/lvgl/src/misc/lv_lru.c **** 
 687              		.loc 1 195 5 discriminator 2 view .LVU218
 688 000e 21B3     		cbz	r1, .L57
 195:Drivers/lvgl/src/misc/lv_lru.c **** 
 689              		.loc 1 195 27 discriminator 2 view .LVU219
 198:Drivers/lvgl/src/misc/lv_lru.c ****     lv_lru_item_t * item = cache->items[hash_index];
 690              		.loc 1 198 5 discriminator 2 view .LVU220
 198:Drivers/lvgl/src/misc/lv_lru.c ****     lv_lru_item_t * item = cache->items[hash_index];
 691              		.loc 1 198 27 is_stmt 0 discriminator 2 view .LVU221
 692 0010 FFF7FEFF 		bl	lv_lru_hash
 693              	.LVL81:
 199:Drivers/lvgl/src/misc/lv_lru.c **** 
 694              		.loc 1 199 5 is_stmt 1 discriminator 2 view .LVU222
 199:Drivers/lvgl/src/misc/lv_lru.c **** 
 695              		.loc 1 199 33 is_stmt 0 discriminator 2 view .LVU223
 696 0014 3B68     		ldr	r3, [r7]
 199:Drivers/lvgl/src/misc/lv_lru.c **** 
 697              		.loc 1 199 21 discriminator 2 view .LVU224
 698 0016 53F82040 		ldr	r4, [r3, r0, lsl #2]
 699              	.LVL82:
 201:Drivers/lvgl/src/misc/lv_lru.c ****         item = (lv_lru_item_t *) item->next;
 700              		.loc 1 201 5 is_stmt 1 discriminator 2 view .LVU225
 201:Drivers/lvgl/src/misc/lv_lru.c ****         item = (lv_lru_item_t *) item->next;
ARM GAS  /var/folders/0z/tsy30v1j4xl4_7kw94k978ww0000gn/T//ccXwtRY4.s 			page 22


 701              		.loc 1 201 10 is_stmt 0 discriminator 2 view .LVU226
 702 001a 00E0     		b	.L52
 703              	.LVL83:
 704              	.L54:
 202:Drivers/lvgl/src/misc/lv_lru.c **** 
 705              		.loc 1 202 9 is_stmt 1 view .LVU227
 202:Drivers/lvgl/src/misc/lv_lru.c **** 
 706              		.loc 1 202 14 is_stmt 0 view .LVU228
 707 001c A469     		ldr	r4, [r4, #24]
 708              	.LVL84:
 709              	.L52:
 201:Drivers/lvgl/src/misc/lv_lru.c ****         item = (lv_lru_item_t *) item->next;
 710              		.loc 1 201 16 is_stmt 1 view .LVU229
 711 001e 34B1     		cbz	r4, .L53
 201:Drivers/lvgl/src/misc/lv_lru.c ****         item = (lv_lru_item_t *) item->next;
 712              		.loc 1 201 19 is_stmt 0 discriminator 1 view .LVU230
 713 0020 3246     		mov	r2, r6
 714 0022 2946     		mov	r1, r5
 715 0024 2046     		mov	r0, r4
 716 0026 FFF7FEFF 		bl	lv_lru_cmp_keys
 717              	.LVL85:
 201:Drivers/lvgl/src/misc/lv_lru.c ****         item = (lv_lru_item_t *) item->next;
 718              		.loc 1 201 16 discriminator 1 view .LVU231
 719 002a 0028     		cmp	r0, #0
 720 002c F6D1     		bne	.L54
 721              	.L53:
 204:Drivers/lvgl/src/misc/lv_lru.c ****         *value = item->value;
 722              		.loc 1 204 5 is_stmt 1 view .LVU232
 204:Drivers/lvgl/src/misc/lv_lru.c ****         *value = item->value;
 723              		.loc 1 204 7 is_stmt 0 view .LVU233
 724 002e 74B1     		cbz	r4, .L55
 205:Drivers/lvgl/src/misc/lv_lru.c ****         item->access_count = ++cache->access_count;
 725              		.loc 1 205 9 is_stmt 1 view .LVU234
 205:Drivers/lvgl/src/misc/lv_lru.c ****         item->access_count = ++cache->access_count;
 726              		.loc 1 205 22 is_stmt 0 view .LVU235
 727 0030 2368     		ldr	r3, [r4]
 205:Drivers/lvgl/src/misc/lv_lru.c ****         item->access_count = ++cache->access_count;
 728              		.loc 1 205 16 view .LVU236
 729 0032 C8F80030 		str	r3, [r8]
 206:Drivers/lvgl/src/misc/lv_lru.c ****     }
 730              		.loc 1 206 9 is_stmt 1 view .LVU237
 206:Drivers/lvgl/src/misc/lv_lru.c ****     }
 731              		.loc 1 206 37 is_stmt 0 view .LVU238
 732 0036 BB68     		ldr	r3, [r7, #8]
 733 0038 FA68     		ldr	r2, [r7, #12]
 206:Drivers/lvgl/src/misc/lv_lru.c ****     }
 734              		.loc 1 206 30 view .LVU239
 735 003a 0133     		adds	r3, r3, #1
 736 003c 42F10002 		adc	r2, r2, #0
 206:Drivers/lvgl/src/misc/lv_lru.c ****     }
 737              		.loc 1 206 28 view .LVU240
 738 0040 BB60     		str	r3, [r7, #8]
 739 0042 FA60     		str	r2, [r7, #12]
 740 0044 2361     		str	r3, [r4, #16]
 741 0046 6261     		str	r2, [r4, #20]
 212:Drivers/lvgl/src/misc/lv_lru.c **** }
 742              		.loc 1 212 12 view .LVU241
ARM GAS  /var/folders/0z/tsy30v1j4xl4_7kw94k978ww0000gn/T//ccXwtRY4.s 			page 23


 743 0048 0020     		movs	r0, #0
 744              	.LVL86:
 745              	.L51:
 213:Drivers/lvgl/src/misc/lv_lru.c **** 
 746              		.loc 1 213 1 view .LVU242
 747 004a BDE8F081 		pop	{r4, r5, r6, r7, r8, pc}
 748              	.LVL87:
 749              	.L55:
 209:Drivers/lvgl/src/misc/lv_lru.c ****     }
 750              		.loc 1 209 9 is_stmt 1 view .LVU243
 209:Drivers/lvgl/src/misc/lv_lru.c ****     }
 751              		.loc 1 209 16 is_stmt 0 view .LVU244
 752 004e 0020     		movs	r0, #0
 753 0050 C8F80000 		str	r0, [r8]
 754 0054 F9E7     		b	.L51
 755              	.LVL88:
 756              	.L56:
 757              		.cfi_def_cfa_offset 0
 758              		.cfi_restore 4
 759              		.cfi_restore 5
 760              		.cfi_restore 6
 761              		.cfi_restore 7
 762              		.cfi_restore 8
 763              		.cfi_restore 14
 194:Drivers/lvgl/src/misc/lv_lru.c ****     test_for_missing_key();
 764              		.loc 1 194 5 view .LVU245
 765 0056 0120     		movs	r0, #1
 766              	.LVL89:
 213:Drivers/lvgl/src/misc/lv_lru.c **** 
 767              		.loc 1 213 1 view .LVU246
 768 0058 7047     		bx	lr
 769              	.LVL90:
 770              	.L57:
 771              		.cfi_def_cfa_offset 24
 772              		.cfi_offset 4, -24
 773              		.cfi_offset 5, -20
 774              		.cfi_offset 6, -16
 775              		.cfi_offset 7, -12
 776              		.cfi_offset 8, -8
 777              		.cfi_offset 14, -4
 195:Drivers/lvgl/src/misc/lv_lru.c **** 
 778              		.loc 1 195 5 view .LVU247
 779 005a 0220     		movs	r0, #2
 780              	.LVL91:
 195:Drivers/lvgl/src/misc/lv_lru.c **** 
 781              		.loc 1 195 5 view .LVU248
 782 005c F5E7     		b	.L51
 783              		.cfi_endproc
 784              	.LFE5:
 786              		.section	.text.lv_lru_remove,"ax",%progbits
 787              		.align	1
 788              		.global	lv_lru_remove
 789              		.syntax unified
 790              		.thumb
 791              		.thumb_func
 793              	lv_lru_remove:
 794              	.LVL92:
ARM GAS  /var/folders/0z/tsy30v1j4xl4_7kw94k978ww0000gn/T//ccXwtRY4.s 			page 24


 795              	.LFB6:
 216:Drivers/lvgl/src/misc/lv_lru.c ****     test_for_missing_cache();
 796              		.loc 1 216 1 is_stmt 1 view -0
 797              		.cfi_startproc
 798              		@ args = 0, pretend = 0, frame = 0
 799              		@ frame_needed = 0, uses_anonymous_args = 0
 217:Drivers/lvgl/src/misc/lv_lru.c ****     test_for_missing_key();
 800              		.loc 1 217 5 view .LVU250
 801 0000 10B3     		cbz	r0, .L67
 216:Drivers/lvgl/src/misc/lv_lru.c ****     test_for_missing_cache();
 802              		.loc 1 216 1 is_stmt 0 discriminator 2 view .LVU251
 803 0002 2DE9F843 		push	{r3, r4, r5, r6, r7, r8, r9, lr}
 804              		.cfi_def_cfa_offset 32
 805              		.cfi_offset 3, -32
 806              		.cfi_offset 4, -28
 807              		.cfi_offset 5, -24
 808              		.cfi_offset 6, -20
 809              		.cfi_offset 7, -16
 810              		.cfi_offset 8, -12
 811              		.cfi_offset 9, -8
 812              		.cfi_offset 14, -4
 813 0006 0D46     		mov	r5, r1
 814 0008 1646     		mov	r6, r2
 815 000a 8146     		mov	r9, r0
 217:Drivers/lvgl/src/misc/lv_lru.c ****     test_for_missing_key();
 816              		.loc 1 217 29 is_stmt 1 discriminator 2 view .LVU252
 218:Drivers/lvgl/src/misc/lv_lru.c **** 
 817              		.loc 1 218 5 discriminator 2 view .LVU253
 818 000c F1B1     		cbz	r1, .L68
 218:Drivers/lvgl/src/misc/lv_lru.c **** 
 819              		.loc 1 218 27 discriminator 2 view .LVU254
 221:Drivers/lvgl/src/misc/lv_lru.c ****     uint32_t hash_index = lv_lru_hash(cache, key, key_size);
 820              		.loc 1 221 5 discriminator 2 view .LVU255
 821              	.LVL93:
 222:Drivers/lvgl/src/misc/lv_lru.c ****     item = cache->items[hash_index];
 822              		.loc 1 222 5 discriminator 2 view .LVU256
 222:Drivers/lvgl/src/misc/lv_lru.c ****     item = cache->items[hash_index];
 823              		.loc 1 222 27 is_stmt 0 discriminator 2 view .LVU257
 824 000e FFF7FEFF 		bl	lv_lru_hash
 825              	.LVL94:
 222:Drivers/lvgl/src/misc/lv_lru.c ****     item = cache->items[hash_index];
 826              		.loc 1 222 27 discriminator 2 view .LVU258
 827 0012 8046     		mov	r8, r0
 828              	.LVL95:
 223:Drivers/lvgl/src/misc/lv_lru.c **** 
 829              		.loc 1 223 5 is_stmt 1 discriminator 2 view .LVU259
 223:Drivers/lvgl/src/misc/lv_lru.c **** 
 830              		.loc 1 223 17 is_stmt 0 discriminator 2 view .LVU260
 831 0014 D9F80030 		ldr	r3, [r9]
 223:Drivers/lvgl/src/misc/lv_lru.c **** 
 832              		.loc 1 223 10 discriminator 2 view .LVU261
 833 0018 53F82040 		ldr	r4, [r3, r0, lsl #2]
 834              	.LVL96:
 225:Drivers/lvgl/src/misc/lv_lru.c ****         prev = item;
 835              		.loc 1 225 5 is_stmt 1 discriminator 2 view .LVU262
 221:Drivers/lvgl/src/misc/lv_lru.c ****     uint32_t hash_index = lv_lru_hash(cache, key, key_size);
 836              		.loc 1 221 35 is_stmt 0 discriminator 2 view .LVU263
ARM GAS  /var/folders/0z/tsy30v1j4xl4_7kw94k978ww0000gn/T//ccXwtRY4.s 			page 25


 837 001c 0027     		movs	r7, #0
 225:Drivers/lvgl/src/misc/lv_lru.c ****         prev = item;
 838              		.loc 1 225 10 discriminator 2 view .LVU264
 839 001e 01E0     		b	.L64
 840              	.LVL97:
 841              	.L66:
 226:Drivers/lvgl/src/misc/lv_lru.c ****         item = (lv_lru_item_t *) item->next;
 842              		.loc 1 226 9 is_stmt 1 view .LVU265
 227:Drivers/lvgl/src/misc/lv_lru.c ****     }
 843              		.loc 1 227 9 view .LVU266
 226:Drivers/lvgl/src/misc/lv_lru.c ****         item = (lv_lru_item_t *) item->next;
 844              		.loc 1 226 14 is_stmt 0 view .LVU267
 845 0020 2746     		mov	r7, r4
 227:Drivers/lvgl/src/misc/lv_lru.c ****     }
 846              		.loc 1 227 14 view .LVU268
 847 0022 A469     		ldr	r4, [r4, #24]
 848              	.LVL98:
 849              	.L64:
 225:Drivers/lvgl/src/misc/lv_lru.c ****         prev = item;
 850              		.loc 1 225 16 is_stmt 1 view .LVU269
 851 0024 34B1     		cbz	r4, .L65
 225:Drivers/lvgl/src/misc/lv_lru.c ****         prev = item;
 852              		.loc 1 225 19 is_stmt 0 discriminator 1 view .LVU270
 853 0026 3246     		mov	r2, r6
 854 0028 2946     		mov	r1, r5
 855 002a 2046     		mov	r0, r4
 856 002c FFF7FEFF 		bl	lv_lru_cmp_keys
 857              	.LVL99:
 225:Drivers/lvgl/src/misc/lv_lru.c ****         prev = item;
 858              		.loc 1 225 16 discriminator 1 view .LVU271
 859 0030 0028     		cmp	r0, #0
 860 0032 F5D1     		bne	.L66
 861              	.L65:
 230:Drivers/lvgl/src/misc/lv_lru.c ****         lv_lru_remove_item(cache, prev, item, hash_index);
 862              		.loc 1 230 5 is_stmt 1 view .LVU272
 230:Drivers/lvgl/src/misc/lv_lru.c ****         lv_lru_remove_item(cache, prev, item, hash_index);
 863              		.loc 1 230 7 is_stmt 0 view .LVU273
 864 0034 64B1     		cbz	r4, .L69
 231:Drivers/lvgl/src/misc/lv_lru.c ****     }
 865              		.loc 1 231 9 is_stmt 1 view .LVU274
 866 0036 4346     		mov	r3, r8
 867 0038 2246     		mov	r2, r4
 868 003a 3946     		mov	r1, r7
 869 003c 4846     		mov	r0, r9
 870 003e FFF7FEFF 		bl	lv_lru_remove_item
 871              	.LVL100:
 234:Drivers/lvgl/src/misc/lv_lru.c **** }
 872              		.loc 1 234 12 is_stmt 0 view .LVU275
 873 0042 0020     		movs	r0, #0
 874              	.LVL101:
 875              	.L63:
 235:Drivers/lvgl/src/misc/lv_lru.c **** 
 876              		.loc 1 235 1 view .LVU276
 877 0044 BDE8F883 		pop	{r3, r4, r5, r6, r7, r8, r9, pc}
 878              	.LVL102:
 879              	.L67:
 880              		.cfi_def_cfa_offset 0
ARM GAS  /var/folders/0z/tsy30v1j4xl4_7kw94k978ww0000gn/T//ccXwtRY4.s 			page 26


 881              		.cfi_restore 3
 882              		.cfi_restore 4
 883              		.cfi_restore 5
 884              		.cfi_restore 6
 885              		.cfi_restore 7
 886              		.cfi_restore 8
 887              		.cfi_restore 9
 888              		.cfi_restore 14
 217:Drivers/lvgl/src/misc/lv_lru.c ****     test_for_missing_key();
 889              		.loc 1 217 5 view .LVU277
 890 0048 0120     		movs	r0, #1
 891              	.LVL103:
 235:Drivers/lvgl/src/misc/lv_lru.c **** 
 892              		.loc 1 235 1 view .LVU278
 893 004a 7047     		bx	lr
 894              	.LVL104:
 895              	.L68:
 896              		.cfi_def_cfa_offset 32
 897              		.cfi_offset 3, -32
 898              		.cfi_offset 4, -28
 899              		.cfi_offset 5, -24
 900              		.cfi_offset 6, -20
 901              		.cfi_offset 7, -16
 902              		.cfi_offset 8, -12
 903              		.cfi_offset 9, -8
 904              		.cfi_offset 14, -4
 218:Drivers/lvgl/src/misc/lv_lru.c **** 
 905              		.loc 1 218 5 view .LVU279
 906 004c 0220     		movs	r0, #2
 907              	.LVL105:
 218:Drivers/lvgl/src/misc/lv_lru.c **** 
 908              		.loc 1 218 5 view .LVU280
 909 004e F9E7     		b	.L63
 910              	.LVL106:
 911              	.L69:
 234:Drivers/lvgl/src/misc/lv_lru.c **** }
 912              		.loc 1 234 12 view .LVU281
 913 0050 0020     		movs	r0, #0
 914 0052 F7E7     		b	.L63
 915              		.cfi_endproc
 916              	.LFE6:
 918              		.section	.text.lv_lru_remove_lru_item,"ax",%progbits
 919              		.align	1
 920              		.global	lv_lru_remove_lru_item
 921              		.syntax unified
 922              		.thumb
 923              		.thumb_func
 925              	lv_lru_remove_lru_item:
 926              	.LVL107:
 927              	.LFB7:
 238:Drivers/lvgl/src/misc/lv_lru.c ****     lv_lru_item_t * min_item = NULL, *min_prev = NULL;
 928              		.loc 1 238 1 is_stmt 1 view -0
 929              		.cfi_startproc
 930              		@ args = 0, pretend = 0, frame = 0
 931              		@ frame_needed = 0, uses_anonymous_args = 0
 238:Drivers/lvgl/src/misc/lv_lru.c ****     lv_lru_item_t * min_item = NULL, *min_prev = NULL;
 932              		.loc 1 238 1 is_stmt 0 view .LVU283
ARM GAS  /var/folders/0z/tsy30v1j4xl4_7kw94k978ww0000gn/T//ccXwtRY4.s 			page 27


 933 0000 2DE9F843 		push	{r3, r4, r5, r6, r7, r8, r9, lr}
 934              		.cfi_def_cfa_offset 32
 935              		.cfi_offset 3, -32
 936              		.cfi_offset 4, -28
 937              		.cfi_offset 5, -24
 938              		.cfi_offset 6, -20
 939              		.cfi_offset 7, -16
 940              		.cfi_offset 8, -12
 941              		.cfi_offset 9, -8
 942              		.cfi_offset 14, -4
 239:Drivers/lvgl/src/misc/lv_lru.c ****     lv_lru_item_t * item = NULL, *prev = NULL;
 943              		.loc 1 239 5 is_stmt 1 view .LVU284
 944              	.LVL108:
 240:Drivers/lvgl/src/misc/lv_lru.c ****     uint32_t i = 0, min_index = -1;
 945              		.loc 1 240 5 view .LVU285
 241:Drivers/lvgl/src/misc/lv_lru.c ****     uint64_t min_access_count = -1;
 946              		.loc 1 241 5 view .LVU286
 242:Drivers/lvgl/src/misc/lv_lru.c **** 
 947              		.loc 1 242 5 view .LVU287
 244:Drivers/lvgl/src/misc/lv_lru.c ****         item = cache->items[i];
 948              		.loc 1 244 5 view .LVU288
 242:Drivers/lvgl/src/misc/lv_lru.c **** 
 949              		.loc 1 242 14 is_stmt 0 view .LVU289
 950 0004 4FF0FF3C 		mov	ip, #-1
 951 0008 E646     		mov	lr, ip
 241:Drivers/lvgl/src/misc/lv_lru.c ****     uint64_t min_access_count = -1;
 952              		.loc 1 241 21 view .LVU290
 953 000a 6346     		mov	r3, ip
 241:Drivers/lvgl/src/misc/lv_lru.c ****     uint64_t min_access_count = -1;
 954              		.loc 1 241 14 view .LVU291
 955 000c 4FF00008 		mov	r8, #0
 239:Drivers/lvgl/src/misc/lv_lru.c ****     lv_lru_item_t * item = NULL, *prev = NULL;
 956              		.loc 1 239 39 view .LVU292
 957 0010 4146     		mov	r1, r8
 239:Drivers/lvgl/src/misc/lv_lru.c ****     lv_lru_item_t * item = NULL, *prev = NULL;
 958              		.loc 1 239 21 view .LVU293
 959 0012 4246     		mov	r2, r8
 244:Drivers/lvgl/src/misc/lv_lru.c ****         item = cache->items[i];
 960              		.loc 1 244 5 view .LVU294
 961 0014 1CE0     		b	.L75
 962              	.LVL109:
 963              	.L81:
 253:Drivers/lvgl/src/misc/lv_lru.c ****             }
 964              		.loc 1 253 27 view .LVU295
 965 0016 4346     		mov	r3, r8
 966              	.LVL110:
 251:Drivers/lvgl/src/misc/lv_lru.c ****                 min_prev = prev;
 967              		.loc 1 251 26 view .LVU296
 968 0018 2246     		mov	r2, r4
 969              	.LVL111:
 970              	.L77:
 255:Drivers/lvgl/src/misc/lv_lru.c ****             item = item->next;
 971              		.loc 1 255 13 is_stmt 1 view .LVU297
 256:Drivers/lvgl/src/misc/lv_lru.c ****         }
 972              		.loc 1 256 13 view .LVU298
 256:Drivers/lvgl/src/misc/lv_lru.c ****         }
 973              		.loc 1 256 18 is_stmt 0 view .LVU299
ARM GAS  /var/folders/0z/tsy30v1j4xl4_7kw94k978ww0000gn/T//ccXwtRY4.s 			page 28


 974 001a B446     		mov	ip, r6
 975 001c AE46     		mov	lr, r5
 976 001e 3946     		mov	r1, r7
 255:Drivers/lvgl/src/misc/lv_lru.c ****             item = item->next;
 977              		.loc 1 255 18 view .LVU300
 978 0020 2746     		mov	r7, r4
 979              	.LVL112:
 256:Drivers/lvgl/src/misc/lv_lru.c ****         }
 980              		.loc 1 256 18 view .LVU301
 981 0022 A469     		ldr	r4, [r4, #24]
 982              	.LVL113:
 983              	.L76:
 248:Drivers/lvgl/src/misc/lv_lru.c ****             if(item->access_count < min_access_count || (int64_t) min_access_count == -1) {
 984              		.loc 1 248 15 is_stmt 1 view .LVU302
 985 0024 94B1     		cbz	r4, .L84
 249:Drivers/lvgl/src/misc/lv_lru.c ****                 min_access_count = item->access_count;
 986              		.loc 1 249 13 view .LVU303
 249:Drivers/lvgl/src/misc/lv_lru.c ****                 min_access_count = item->access_count;
 987              		.loc 1 249 20 is_stmt 0 view .LVU304
 988 0026 2669     		ldr	r6, [r4, #16]
 989 0028 6569     		ldr	r5, [r4, #20]
 249:Drivers/lvgl/src/misc/lv_lru.c ****                 min_access_count = item->access_count;
 990              		.loc 1 249 15 view .LVU305
 991 002a 6645     		cmp	r6, ip
 992 002c 75EB0E09 		sbcs	r9, r5, lr
 993 0030 F1D3     		bcc	.L81
 249:Drivers/lvgl/src/misc/lv_lru.c ****                 min_access_count = item->access_count;
 994              		.loc 1 249 54 discriminator 1 view .LVU306
 995 0032 BEF1FF3F 		cmp	lr, #-1
 996 0036 08BF     		it	eq
 997 0038 BCF1FF3F 		cmpeq	ip, #-1
 998 003c 03D0     		beq	.L82
 249:Drivers/lvgl/src/misc/lv_lru.c ****                 min_access_count = item->access_count;
 999              		.loc 1 249 54 view .LVU307
 1000 003e 6646     		mov	r6, ip
 1001 0040 7546     		mov	r5, lr
 1002 0042 0F46     		mov	r7, r1
 1003              	.LVL114:
 249:Drivers/lvgl/src/misc/lv_lru.c ****                 min_access_count = item->access_count;
 1004              		.loc 1 249 54 view .LVU308
 1005 0044 E9E7     		b	.L77
 1006              	.LVL115:
 1007              	.L82:
 253:Drivers/lvgl/src/misc/lv_lru.c ****             }
 1008              		.loc 1 253 27 view .LVU309
 1009 0046 4346     		mov	r3, r8
 1010              	.LVL116:
 251:Drivers/lvgl/src/misc/lv_lru.c ****                 min_prev = prev;
 1011              		.loc 1 251 26 view .LVU310
 1012 0048 2246     		mov	r2, r4
 1013              	.LVL117:
 251:Drivers/lvgl/src/misc/lv_lru.c ****                 min_prev = prev;
 1014              		.loc 1 251 26 view .LVU311
 1015 004a E6E7     		b	.L77
 1016              	.LVL118:
 1017              	.L84:
 244:Drivers/lvgl/src/misc/lv_lru.c ****         item = cache->items[i];
ARM GAS  /var/folders/0z/tsy30v1j4xl4_7kw94k978ww0000gn/T//ccXwtRY4.s 			page 29


 1018              		.loc 1 244 40 is_stmt 1 view .LVU312
 1019 004c 08F10108 		add	r8, r8, #1
 1020              	.LVL119:
 1021              	.L75:
 244:Drivers/lvgl/src/misc/lv_lru.c ****         item = cache->items[i];
 1022              		.loc 1 244 13 discriminator 1 view .LVU313
 244:Drivers/lvgl/src/misc/lv_lru.c ****         item = cache->items[i];
 1023              		.loc 1 244 20 is_stmt 0 discriminator 1 view .LVU314
 1024 0050 C469     		ldr	r4, [r0, #28]
 244:Drivers/lvgl/src/misc/lv_lru.c ****         item = cache->items[i];
 1025              		.loc 1 244 13 discriminator 1 view .LVU315
 1026 0052 4445     		cmp	r4, r8
 1027 0054 04D9     		bls	.L85
 245:Drivers/lvgl/src/misc/lv_lru.c ****         prev = NULL;
 1028              		.loc 1 245 9 is_stmt 1 view .LVU316
 245:Drivers/lvgl/src/misc/lv_lru.c ****         prev = NULL;
 1029              		.loc 1 245 21 is_stmt 0 view .LVU317
 1030 0056 0468     		ldr	r4, [r0]
 245:Drivers/lvgl/src/misc/lv_lru.c ****         prev = NULL;
 1031              		.loc 1 245 14 view .LVU318
 1032 0058 54F82840 		ldr	r4, [r4, r8, lsl #2]
 1033              	.LVL120:
 246:Drivers/lvgl/src/misc/lv_lru.c **** 
 1034              		.loc 1 246 9 is_stmt 1 view .LVU319
 248:Drivers/lvgl/src/misc/lv_lru.c ****             if(item->access_count < min_access_count || (int64_t) min_access_count == -1) {
 1035              		.loc 1 248 9 view .LVU320
 246:Drivers/lvgl/src/misc/lv_lru.c **** 
 1036              		.loc 1 246 14 is_stmt 0 view .LVU321
 1037 005c 0027     		movs	r7, #0
 248:Drivers/lvgl/src/misc/lv_lru.c ****             if(item->access_count < min_access_count || (int64_t) min_access_count == -1) {
 1038              		.loc 1 248 14 view .LVU322
 1039 005e E1E7     		b	.L76
 1040              	.LVL121:
 1041              	.L85:
 260:Drivers/lvgl/src/misc/lv_lru.c ****         lv_lru_remove_item(cache, min_prev, min_item, min_index);
 1042              		.loc 1 260 5 is_stmt 1 view .LVU323
 260:Drivers/lvgl/src/misc/lv_lru.c ****         lv_lru_remove_item(cache, min_prev, min_item, min_index);
 1043              		.loc 1 260 7 is_stmt 0 view .LVU324
 1044 0060 0AB1     		cbz	r2, .L74
 261:Drivers/lvgl/src/misc/lv_lru.c ****     }
 1045              		.loc 1 261 9 is_stmt 1 view .LVU325
 1046 0062 FFF7FEFF 		bl	lv_lru_remove_item
 1047              	.LVL122:
 1048              	.L74:
 263:Drivers/lvgl/src/misc/lv_lru.c **** 
 1049              		.loc 1 263 1 is_stmt 0 view .LVU326
 1050 0066 BDE8F883 		pop	{r3, r4, r5, r6, r7, r8, r9, pc}
 263:Drivers/lvgl/src/misc/lv_lru.c **** 
 1051              		.loc 1 263 1 view .LVU327
 1052              		.cfi_endproc
 1053              	.LFE7:
 1055              		.section	.text.lv_lru_set,"ax",%progbits
 1056              		.align	1
 1057              		.global	lv_lru_set
 1058              		.syntax unified
 1059              		.thumb
 1060              		.thumb_func
ARM GAS  /var/folders/0z/tsy30v1j4xl4_7kw94k978ww0000gn/T//ccXwtRY4.s 			page 30


 1062              	lv_lru_set:
 1063              	.LVL123:
 1064              	.LFB4:
 140:Drivers/lvgl/src/misc/lv_lru.c ****     test_for_missing_cache();
 1065              		.loc 1 140 1 is_stmt 1 view -0
 1066              		.cfi_startproc
 1067              		@ args = 4, pretend = 0, frame = 0
 1068              		@ frame_needed = 0, uses_anonymous_args = 0
 140:Drivers/lvgl/src/misc/lv_lru.c ****     test_for_missing_cache();
 1069              		.loc 1 140 1 is_stmt 0 view .LVU329
 1070 0000 2DE9F84F 		push	{r3, r4, r5, r6, r7, r8, r9, r10, fp, lr}
 1071              		.cfi_def_cfa_offset 40
 1072              		.cfi_offset 3, -40
 1073              		.cfi_offset 4, -36
 1074              		.cfi_offset 5, -32
 1075              		.cfi_offset 6, -28
 1076              		.cfi_offset 7, -24
 1077              		.cfi_offset 8, -20
 1078              		.cfi_offset 9, -16
 1079              		.cfi_offset 10, -12
 1080              		.cfi_offset 11, -8
 1081              		.cfi_offset 14, -4
 1082 0004 DDF828A0 		ldr	r10, [sp, #40]
 141:Drivers/lvgl/src/misc/lv_lru.c ****     test_for_missing_key();
 1083              		.loc 1 141 5 is_stmt 1 view .LVU330
 1084 0008 0028     		cmp	r0, #0
 1085 000a 62D0     		beq	.L97
 1086 000c 0D46     		mov	r5, r1
 1087 000e 1746     		mov	r7, r2
 1088 0010 9846     		mov	r8, r3
 1089 0012 0646     		mov	r6, r0
 141:Drivers/lvgl/src/misc/lv_lru.c ****     test_for_missing_key();
 1090              		.loc 1 141 29 discriminator 2 view .LVU331
 142:Drivers/lvgl/src/misc/lv_lru.c ****     test_for_missing_value();
 1091              		.loc 1 142 5 discriminator 2 view .LVU332
 1092 0014 0029     		cmp	r1, #0
 1093 0016 5ED0     		beq	.L98
 142:Drivers/lvgl/src/misc/lv_lru.c ****     test_for_missing_value();
 1094              		.loc 1 142 27 discriminator 2 view .LVU333
 143:Drivers/lvgl/src/misc/lv_lru.c ****     test_for_value_too_large();
 1095              		.loc 1 143 5 discriminator 2 view .LVU334
 1096 0018 002B     		cmp	r3, #0
 1097 001a 5ED0     		beq	.L99
 1098 001c BAF1000F 		cmp	r10, #0
 1099 0020 5DD0     		beq	.L100
 143:Drivers/lvgl/src/misc/lv_lru.c ****     test_for_value_too_large();
 1100              		.loc 1 143 29 discriminator 4 view .LVU335
 144:Drivers/lvgl/src/misc/lv_lru.c **** 
 1101              		.loc 1 144 5 discriminator 4 view .LVU336
 1102 0022 4369     		ldr	r3, [r0, #20]
 1103              	.LVL124:
 144:Drivers/lvgl/src/misc/lv_lru.c **** 
 1104              		.loc 1 144 5 is_stmt 0 discriminator 4 view .LVU337
 1105 0024 5345     		cmp	r3, r10
 1106 0026 5CD3     		bcc	.L101
 144:Drivers/lvgl/src/misc/lv_lru.c **** 
 1107              		.loc 1 144 31 is_stmt 1 discriminator 2 view .LVU338
ARM GAS  /var/folders/0z/tsy30v1j4xl4_7kw94k978ww0000gn/T//ccXwtRY4.s 			page 31


 147:Drivers/lvgl/src/misc/lv_lru.c ****     int required = 0;
 1108              		.loc 1 147 5 discriminator 2 view .LVU339
 147:Drivers/lvgl/src/misc/lv_lru.c ****     int required = 0;
 1109              		.loc 1 147 27 is_stmt 0 discriminator 2 view .LVU340
 1110 0028 FFF7FEFF 		bl	lv_lru_hash
 1111              	.LVL125:
 147:Drivers/lvgl/src/misc/lv_lru.c ****     int required = 0;
 1112              		.loc 1 147 27 discriminator 2 view .LVU341
 1113 002c 8346     		mov	fp, r0
 1114              	.LVL126:
 148:Drivers/lvgl/src/misc/lv_lru.c ****     lv_lru_item_t * item = NULL, *prev = NULL;
 1115              		.loc 1 148 5 is_stmt 1 discriminator 2 view .LVU342
 149:Drivers/lvgl/src/misc/lv_lru.c ****     item = cache->items[hash_index];
 1116              		.loc 1 149 5 discriminator 2 view .LVU343
 150:Drivers/lvgl/src/misc/lv_lru.c **** 
 1117              		.loc 1 150 5 discriminator 2 view .LVU344
 150:Drivers/lvgl/src/misc/lv_lru.c **** 
 1118              		.loc 1 150 17 is_stmt 0 discriminator 2 view .LVU345
 1119 002e 3368     		ldr	r3, [r6]
 150:Drivers/lvgl/src/misc/lv_lru.c **** 
 1120              		.loc 1 150 10 discriminator 2 view .LVU346
 1121 0030 53F82040 		ldr	r4, [r3, r0, lsl #2]
 1122              	.LVL127:
 152:Drivers/lvgl/src/misc/lv_lru.c ****         prev = item;
 1123              		.loc 1 152 5 is_stmt 1 discriminator 2 view .LVU347
 149:Drivers/lvgl/src/misc/lv_lru.c ****     item = cache->items[hash_index];
 1124              		.loc 1 149 35 is_stmt 0 discriminator 2 view .LVU348
 1125 0034 4FF00009 		mov	r9, #0
 1126              	.LVL128:
 1127              	.L88:
 152:Drivers/lvgl/src/misc/lv_lru.c ****         prev = item;
 1128              		.loc 1 152 16 is_stmt 1 view .LVU349
 1129 0038 44B1     		cbz	r4, .L89
 152:Drivers/lvgl/src/misc/lv_lru.c ****         prev = item;
 1130              		.loc 1 152 19 is_stmt 0 discriminator 1 view .LVU350
 1131 003a 3A46     		mov	r2, r7
 1132 003c 2946     		mov	r1, r5
 1133 003e 2046     		mov	r0, r4
 1134 0040 FFF7FEFF 		bl	lv_lru_cmp_keys
 1135              	.LVL129:
 152:Drivers/lvgl/src/misc/lv_lru.c ****         prev = item;
 1136              		.loc 1 152 16 discriminator 1 view .LVU351
 1137 0044 10B1     		cbz	r0, .L89
 153:Drivers/lvgl/src/misc/lv_lru.c ****         item = (lv_lru_item_t *) item->next;
 1138              		.loc 1 153 9 is_stmt 1 view .LVU352
 1139              	.LVL130:
 154:Drivers/lvgl/src/misc/lv_lru.c ****     }
 1140              		.loc 1 154 9 view .LVU353
 153:Drivers/lvgl/src/misc/lv_lru.c ****         item = (lv_lru_item_t *) item->next;
 1141              		.loc 1 153 14 is_stmt 0 view .LVU354
 1142 0046 A146     		mov	r9, r4
 154:Drivers/lvgl/src/misc/lv_lru.c ****     }
 1143              		.loc 1 154 14 view .LVU355
 1144 0048 A469     		ldr	r4, [r4, #24]
 1145              	.LVL131:
 154:Drivers/lvgl/src/misc/lv_lru.c ****     }
 1146              		.loc 1 154 14 view .LVU356
ARM GAS  /var/folders/0z/tsy30v1j4xl4_7kw94k978ww0000gn/T//ccXwtRY4.s 			page 32


 1147 004a F5E7     		b	.L88
 1148              	.L89:
 157:Drivers/lvgl/src/misc/lv_lru.c ****         // update the value and value_lengths
 1149              		.loc 1 157 5 is_stmt 1 view .LVU357
 157:Drivers/lvgl/src/misc/lv_lru.c ****         // update the value and value_lengths
 1150              		.loc 1 157 7 is_stmt 0 view .LVU358
 1151 004c F4B1     		cbz	r4, .L91
 159:Drivers/lvgl/src/misc/lv_lru.c ****         cache->value_free(item->value);
 1152              		.loc 1 159 9 is_stmt 1 view .LVU359
 159:Drivers/lvgl/src/misc/lv_lru.c ****         cache->value_free(item->value);
 1153              		.loc 1 159 45 is_stmt 0 view .LVU360
 1154 004e A568     		ldr	r5, [r4, #8]
 1155              	.LVL132:
 159:Drivers/lvgl/src/misc/lv_lru.c ****         cache->value_free(item->value);
 1156              		.loc 1 159 39 view .LVU361
 1157 0050 AAEB0505 		sub	r5, r10, r5
 1158              	.LVL133:
 160:Drivers/lvgl/src/misc/lv_lru.c ****         item->value = value;
 1159              		.loc 1 160 9 is_stmt 1 view .LVU362
 160:Drivers/lvgl/src/misc/lv_lru.c ****         item->value = value;
 1160              		.loc 1 160 14 is_stmt 0 view .LVU363
 1161 0054 736A     		ldr	r3, [r6, #36]
 160:Drivers/lvgl/src/misc/lv_lru.c ****         item->value = value;
 1162              		.loc 1 160 9 view .LVU364
 1163 0056 2068     		ldr	r0, [r4]
 1164 0058 9847     		blx	r3
 1165              	.LVL134:
 161:Drivers/lvgl/src/misc/lv_lru.c ****         item->value_length = value_length;
 1166              		.loc 1 161 9 is_stmt 1 view .LVU365
 161:Drivers/lvgl/src/misc/lv_lru.c ****         item->value_length = value_length;
 1167              		.loc 1 161 21 is_stmt 0 view .LVU366
 1168 005a C4F80080 		str	r8, [r4]
 162:Drivers/lvgl/src/misc/lv_lru.c **** 
 1169              		.loc 1 162 9 is_stmt 1 view .LVU367
 162:Drivers/lvgl/src/misc/lv_lru.c **** 
 1170              		.loc 1 162 28 is_stmt 0 view .LVU368
 1171 005e C4F808A0 		str	r10, [r4, #8]
 1172              	.LVL135:
 1173              	.L92:
 180:Drivers/lvgl/src/misc/lv_lru.c **** 
 1174              		.loc 1 180 5 is_stmt 1 view .LVU369
 180:Drivers/lvgl/src/misc/lv_lru.c **** 
 1175              		.loc 1 180 33 is_stmt 0 view .LVU370
 1176 0062 B368     		ldr	r3, [r6, #8]
 1177 0064 F268     		ldr	r2, [r6, #12]
 180:Drivers/lvgl/src/misc/lv_lru.c **** 
 1178              		.loc 1 180 26 view .LVU371
 1179 0066 0133     		adds	r3, r3, #1
 1180 0068 42F10002 		adc	r2, r2, #0
 180:Drivers/lvgl/src/misc/lv_lru.c **** 
 1181              		.loc 1 180 24 view .LVU372
 1182 006c B360     		str	r3, [r6, #8]
 1183 006e F260     		str	r2, [r6, #12]
 1184 0070 2361     		str	r3, [r4, #16]
 1185 0072 6261     		str	r2, [r4, #20]
 183:Drivers/lvgl/src/misc/lv_lru.c ****         while(cache->free_memory < (size_t) required)
 1186              		.loc 1 183 5 is_stmt 1 view .LVU373
ARM GAS  /var/folders/0z/tsy30v1j4xl4_7kw94k978ww0000gn/T//ccXwtRY4.s 			page 33


 183:Drivers/lvgl/src/misc/lv_lru.c ****         while(cache->free_memory < (size_t) required)
 1187              		.loc 1 183 7 is_stmt 0 view .LVU374
 1188 0074 002D     		cmp	r5, #0
 1189 0076 03DD     		ble	.L94
 183:Drivers/lvgl/src/misc/lv_lru.c ****         while(cache->free_memory < (size_t) required)
 1190              		.loc 1 183 49 discriminator 1 view .LVU375
 1191 0078 3369     		ldr	r3, [r6, #16]
 183:Drivers/lvgl/src/misc/lv_lru.c ****         while(cache->free_memory < (size_t) required)
 1192              		.loc 1 183 42 discriminator 1 view .LVU376
 1193 007a 2C46     		mov	r4, r5
 1194              	.LVL136:
 183:Drivers/lvgl/src/misc/lv_lru.c ****         while(cache->free_memory < (size_t) required)
 1195              		.loc 1 183 21 discriminator 1 view .LVU377
 1196 007c AB42     		cmp	r3, r5
 1197 007e 24D3     		bcc	.L95
 1198              	.L94:
 187:Drivers/lvgl/src/misc/lv_lru.c ****     return LV_LRU_OK;
 1199              		.loc 1 187 5 is_stmt 1 view .LVU378
 187:Drivers/lvgl/src/misc/lv_lru.c ****     return LV_LRU_OK;
 1200              		.loc 1 187 24 is_stmt 0 view .LVU379
 1201 0080 3369     		ldr	r3, [r6, #16]
 1202 0082 5B1B     		subs	r3, r3, r5
 1203 0084 3361     		str	r3, [r6, #16]
 188:Drivers/lvgl/src/misc/lv_lru.c **** }
 1204              		.loc 1 188 5 is_stmt 1 view .LVU380
 188:Drivers/lvgl/src/misc/lv_lru.c **** }
 1205              		.loc 1 188 12 is_stmt 0 view .LVU381
 1206 0086 0020     		movs	r0, #0
 1207              	.LVL137:
 1208              	.L87:
 189:Drivers/lvgl/src/misc/lv_lru.c **** 
 1209              		.loc 1 189 1 view .LVU382
 1210 0088 BDE8F88F 		pop	{r3, r4, r5, r6, r7, r8, r9, r10, fp, pc}
 1211              	.LVL138:
 1212              	.L91:
 167:Drivers/lvgl/src/misc/lv_lru.c ****         item->value = value;
 1213              		.loc 1 167 9 is_stmt 1 view .LVU383
 167:Drivers/lvgl/src/misc/lv_lru.c ****         item->value = value;
 1214              		.loc 1 167 16 is_stmt 0 view .LVU384
 1215 008c 3046     		mov	r0, r6
 1216 008e FFF7FEFF 		bl	lv_lru_pop_or_create_item
 1217              	.LVL139:
 1218 0092 0446     		mov	r4, r0
 1219              	.LVL140:
 168:Drivers/lvgl/src/misc/lv_lru.c ****         item->key = lv_mem_alloc(key_length);
 1220              		.loc 1 168 9 is_stmt 1 view .LVU385
 168:Drivers/lvgl/src/misc/lv_lru.c ****         item->key = lv_mem_alloc(key_length);
 1221              		.loc 1 168 21 is_stmt 0 view .LVU386
 1222 0094 C0F80080 		str	r8, [r0]
 169:Drivers/lvgl/src/misc/lv_lru.c ****         memcpy(item->key, key, key_length);
 1223              		.loc 1 169 9 is_stmt 1 view .LVU387
 169:Drivers/lvgl/src/misc/lv_lru.c ****         memcpy(item->key, key, key_length);
 1224              		.loc 1 169 21 is_stmt 0 view .LVU388
 1225 0098 3846     		mov	r0, r7
 1226              	.LVL141:
 169:Drivers/lvgl/src/misc/lv_lru.c ****         memcpy(item->key, key, key_length);
 1227              		.loc 1 169 21 view .LVU389
ARM GAS  /var/folders/0z/tsy30v1j4xl4_7kw94k978ww0000gn/T//ccXwtRY4.s 			page 34


 1228 009a FFF7FEFF 		bl	lv_mem_alloc
 1229              	.LVL142:
 169:Drivers/lvgl/src/misc/lv_lru.c ****         memcpy(item->key, key, key_length);
 1230              		.loc 1 169 19 view .LVU390
 1231 009e 6060     		str	r0, [r4, #4]
 170:Drivers/lvgl/src/misc/lv_lru.c ****         item->value_length = value_length;
 1232              		.loc 1 170 9 is_stmt 1 view .LVU391
 1233 00a0 3A46     		mov	r2, r7
 1234 00a2 2946     		mov	r1, r5
 1235 00a4 FFF7FEFF 		bl	memcpy
 1236              	.LVL143:
 171:Drivers/lvgl/src/misc/lv_lru.c ****         item->key_length = key_length;
 1237              		.loc 1 171 9 view .LVU392
 171:Drivers/lvgl/src/misc/lv_lru.c ****         item->key_length = key_length;
 1238              		.loc 1 171 28 is_stmt 0 view .LVU393
 1239 00a8 C4F808A0 		str	r10, [r4, #8]
 172:Drivers/lvgl/src/misc/lv_lru.c ****         required = (int) value_length;
 1240              		.loc 1 172 9 is_stmt 1 view .LVU394
 172:Drivers/lvgl/src/misc/lv_lru.c ****         required = (int) value_length;
 1241              		.loc 1 172 26 is_stmt 0 view .LVU395
 1242 00ac E760     		str	r7, [r4, #12]
 173:Drivers/lvgl/src/misc/lv_lru.c **** 
 1243              		.loc 1 173 9 is_stmt 1 view .LVU396
 173:Drivers/lvgl/src/misc/lv_lru.c **** 
 1244              		.loc 1 173 18 is_stmt 0 view .LVU397
 1245 00ae 5546     		mov	r5, r10
 1246              	.LVL144:
 175:Drivers/lvgl/src/misc/lv_lru.c ****             prev->next = item;
 1247              		.loc 1 175 9 is_stmt 1 view .LVU398
 175:Drivers/lvgl/src/misc/lv_lru.c ****             prev->next = item;
 1248              		.loc 1 175 11 is_stmt 0 view .LVU399
 1249 00b0 B9F1000F 		cmp	r9, #0
 1250 00b4 02D0     		beq	.L93
 176:Drivers/lvgl/src/misc/lv_lru.c ****         else
 1251              		.loc 1 176 13 is_stmt 1 view .LVU400
 176:Drivers/lvgl/src/misc/lv_lru.c ****         else
 1252              		.loc 1 176 24 is_stmt 0 view .LVU401
 1253 00b6 C9F81840 		str	r4, [r9, #24]
 1254 00ba D2E7     		b	.L92
 1255              	.L93:
 178:Drivers/lvgl/src/misc/lv_lru.c ****     }
 1256              		.loc 1 178 13 is_stmt 1 view .LVU402
 178:Drivers/lvgl/src/misc/lv_lru.c ****     }
 1257              		.loc 1 178 18 is_stmt 0 view .LVU403
 1258 00bc 3368     		ldr	r3, [r6]
 178:Drivers/lvgl/src/misc/lv_lru.c ****     }
 1259              		.loc 1 178 38 view .LVU404
 1260 00be 43F82B40 		str	r4, [r3, fp, lsl #2]
 1261 00c2 CEE7     		b	.L92
 1262              	.LVL145:
 1263              	.L96:
 185:Drivers/lvgl/src/misc/lv_lru.c ****     }
 1264              		.loc 1 185 13 is_stmt 1 view .LVU405
 1265 00c4 3046     		mov	r0, r6
 1266 00c6 FFF7FEFF 		bl	lv_lru_remove_lru_item
 1267              	.LVL146:
 1268              	.L95:
ARM GAS  /var/folders/0z/tsy30v1j4xl4_7kw94k978ww0000gn/T//ccXwtRY4.s 			page 35


 184:Drivers/lvgl/src/misc/lv_lru.c ****             lv_lru_remove_lru_item(cache);
 1269              		.loc 1 184 34 view .LVU406
 184:Drivers/lvgl/src/misc/lv_lru.c ****             lv_lru_remove_lru_item(cache);
 1270              		.loc 1 184 20 is_stmt 0 view .LVU407
 1271 00ca 3369     		ldr	r3, [r6, #16]
 184:Drivers/lvgl/src/misc/lv_lru.c ****             lv_lru_remove_lru_item(cache);
 1272              		.loc 1 184 34 view .LVU408
 1273 00cc 9C42     		cmp	r4, r3
 1274 00ce F9D8     		bhi	.L96
 1275 00d0 D6E7     		b	.L94
 1276              	.LVL147:
 1277              	.L97:
 141:Drivers/lvgl/src/misc/lv_lru.c ****     test_for_missing_key();
 1278              		.loc 1 141 5 view .LVU409
 1279 00d2 0120     		movs	r0, #1
 1280              	.LVL148:
 141:Drivers/lvgl/src/misc/lv_lru.c ****     test_for_missing_key();
 1281              		.loc 1 141 5 view .LVU410
 1282 00d4 D8E7     		b	.L87
 1283              	.LVL149:
 1284              	.L98:
 142:Drivers/lvgl/src/misc/lv_lru.c ****     test_for_missing_value();
 1285              		.loc 1 142 5 view .LVU411
 1286 00d6 0220     		movs	r0, #2
 1287              	.LVL150:
 142:Drivers/lvgl/src/misc/lv_lru.c ****     test_for_missing_value();
 1288              		.loc 1 142 5 view .LVU412
 1289 00d8 D6E7     		b	.L87
 1290              	.LVL151:
 1291              	.L99:
 143:Drivers/lvgl/src/misc/lv_lru.c ****     test_for_value_too_large();
 1292              		.loc 1 143 5 view .LVU413
 1293 00da 0320     		movs	r0, #3
 1294              	.LVL152:
 143:Drivers/lvgl/src/misc/lv_lru.c ****     test_for_value_too_large();
 1295              		.loc 1 143 5 view .LVU414
 1296 00dc D4E7     		b	.L87
 1297              	.LVL153:
 1298              	.L100:
 143:Drivers/lvgl/src/misc/lv_lru.c ****     test_for_value_too_large();
 1299              		.loc 1 143 5 view .LVU415
 1300 00de 0320     		movs	r0, #3
 1301              	.LVL154:
 143:Drivers/lvgl/src/misc/lv_lru.c ****     test_for_value_too_large();
 1302              		.loc 1 143 5 view .LVU416
 1303 00e0 D2E7     		b	.L87
 1304              	.LVL155:
 1305              	.L101:
 144:Drivers/lvgl/src/misc/lv_lru.c **** 
 1306              		.loc 1 144 5 view .LVU417
 1307 00e2 0520     		movs	r0, #5
 1308              	.LVL156:
 144:Drivers/lvgl/src/misc/lv_lru.c **** 
 1309              		.loc 1 144 5 view .LVU418
 1310 00e4 D0E7     		b	.L87
 1311              		.cfi_endproc
 1312              	.LFE4:
ARM GAS  /var/folders/0z/tsy30v1j4xl4_7kw94k978ww0000gn/T//ccXwtRY4.s 			page 36


 1314              		.text
 1315              	.Letext0:
 1316              		.file 2 "/Users/johannes/Library/Application Support/Code/User/globalStorage/bmd.stm32-for-vscode/
 1317              		.file 3 "/Users/johannes/Library/Application Support/Code/User/globalStorage/bmd.stm32-for-vscode/
 1318              		.file 4 "/Users/johannes/Library/Application Support/Code/User/globalStorage/bmd.stm32-for-vscode/
 1319              		.file 5 "Drivers/lvgl/src/misc/lv_lru.h"
 1320              		.file 6 "/Users/johannes/Library/Application Support/Code/User/globalStorage/bmd.stm32-for-vscode/
 1321              		.file 7 "Drivers/lvgl/src/misc/lv_math.h"
 1322              		.file 8 "Drivers/lvgl/src/misc/lv_mem.h"
 1323              		.file 9 "<built-in>"
ARM GAS  /var/folders/0z/tsy30v1j4xl4_7kw94k978ww0000gn/T//ccXwtRY4.s 			page 37

