ARM GAS  /var/folders/0z/tsy30v1j4xl4_7kw94k978ww0000gn/T//ccCXLm7m.s 			page 1


   1              		.cpu cortex-m4
   2              		.arch armv7e-m
   3              		.fpu fpv4-sp-d16
   4              		.eabi_attribute 27, 1
   5              		.eabi_attribute 28, 1
   6              		.eabi_attribute 20, 1
   7              		.eabi_attribute 21, 1
   8              		.eabi_attribute 23, 3
   9              		.eabi_attribute 24, 1
  10              		.eabi_attribute 25, 1
  11              		.eabi_attribute 26, 1
  12              		.eabi_attribute 30, 1
  13              		.eabi_attribute 34, 1
  14              		.eabi_attribute 18, 4
  15              		.file	"lv_led.c"
  16              		.text
  17              	.Ltext0:
  18              		.cfi_sections	.debug_frame
  19              		.section	.text.lv_led_constructor,"ax",%progbits
  20              		.align	1
  21              		.syntax unified
  22              		.thumb
  23              		.thumb_func
  25              	lv_led_constructor:
  26              	.LVL0:
  27              	.LFB211:
  28              		.file 1 "Drivers/lvgl/src/extra/widgets/led/lv_led.c"
   1:Drivers/lvgl/src/extra/widgets/led/lv_led.c **** /**
   2:Drivers/lvgl/src/extra/widgets/led/lv_led.c ****  * @file lv_led.c
   3:Drivers/lvgl/src/extra/widgets/led/lv_led.c ****  *
   4:Drivers/lvgl/src/extra/widgets/led/lv_led.c ****  */
   5:Drivers/lvgl/src/extra/widgets/led/lv_led.c **** 
   6:Drivers/lvgl/src/extra/widgets/led/lv_led.c **** /*********************
   7:Drivers/lvgl/src/extra/widgets/led/lv_led.c ****  *      INCLUDES
   8:Drivers/lvgl/src/extra/widgets/led/lv_led.c ****  *********************/
   9:Drivers/lvgl/src/extra/widgets/led/lv_led.c **** #include "lv_led.h"
  10:Drivers/lvgl/src/extra/widgets/led/lv_led.c **** #if LV_USE_LED
  11:Drivers/lvgl/src/extra/widgets/led/lv_led.c **** 
  12:Drivers/lvgl/src/extra/widgets/led/lv_led.c **** #include "../../../misc/lv_assert.h"
  13:Drivers/lvgl/src/extra/widgets/led/lv_led.c **** 
  14:Drivers/lvgl/src/extra/widgets/led/lv_led.c **** /*********************
  15:Drivers/lvgl/src/extra/widgets/led/lv_led.c ****  *      DEFINES
  16:Drivers/lvgl/src/extra/widgets/led/lv_led.c ****  *********************/
  17:Drivers/lvgl/src/extra/widgets/led/lv_led.c **** #define MY_CLASS &lv_led_class
  18:Drivers/lvgl/src/extra/widgets/led/lv_led.c **** 
  19:Drivers/lvgl/src/extra/widgets/led/lv_led.c **** /**********************
  20:Drivers/lvgl/src/extra/widgets/led/lv_led.c ****  *      TYPEDEFS
  21:Drivers/lvgl/src/extra/widgets/led/lv_led.c ****  **********************/
  22:Drivers/lvgl/src/extra/widgets/led/lv_led.c **** 
  23:Drivers/lvgl/src/extra/widgets/led/lv_led.c **** /**********************
  24:Drivers/lvgl/src/extra/widgets/led/lv_led.c ****  *  STATIC PROTOTYPES
  25:Drivers/lvgl/src/extra/widgets/led/lv_led.c ****  **********************/
  26:Drivers/lvgl/src/extra/widgets/led/lv_led.c **** static void lv_led_constructor(const lv_obj_class_t * class_p, lv_obj_t * obj);
  27:Drivers/lvgl/src/extra/widgets/led/lv_led.c **** static void lv_led_event(const lv_obj_class_t * class_p, lv_event_t * e);
  28:Drivers/lvgl/src/extra/widgets/led/lv_led.c **** 
  29:Drivers/lvgl/src/extra/widgets/led/lv_led.c **** /**********************
  30:Drivers/lvgl/src/extra/widgets/led/lv_led.c ****  *  STATIC VARIABLES
ARM GAS  /var/folders/0z/tsy30v1j4xl4_7kw94k978ww0000gn/T//ccCXLm7m.s 			page 2


  31:Drivers/lvgl/src/extra/widgets/led/lv_led.c ****  **********************/
  32:Drivers/lvgl/src/extra/widgets/led/lv_led.c **** const lv_obj_class_t lv_led_class  = {
  33:Drivers/lvgl/src/extra/widgets/led/lv_led.c ****     .base_class = &lv_obj_class,
  34:Drivers/lvgl/src/extra/widgets/led/lv_led.c ****     .constructor_cb = lv_led_constructor,
  35:Drivers/lvgl/src/extra/widgets/led/lv_led.c ****     .width_def = LV_DPI_DEF / 5,
  36:Drivers/lvgl/src/extra/widgets/led/lv_led.c ****     .height_def = LV_DPI_DEF / 5,
  37:Drivers/lvgl/src/extra/widgets/led/lv_led.c ****     .event_cb = lv_led_event,
  38:Drivers/lvgl/src/extra/widgets/led/lv_led.c ****     .instance_size = sizeof(lv_led_t),
  39:Drivers/lvgl/src/extra/widgets/led/lv_led.c **** };
  40:Drivers/lvgl/src/extra/widgets/led/lv_led.c **** 
  41:Drivers/lvgl/src/extra/widgets/led/lv_led.c **** /**********************
  42:Drivers/lvgl/src/extra/widgets/led/lv_led.c ****  *      MACROS
  43:Drivers/lvgl/src/extra/widgets/led/lv_led.c ****  **********************/
  44:Drivers/lvgl/src/extra/widgets/led/lv_led.c **** 
  45:Drivers/lvgl/src/extra/widgets/led/lv_led.c **** /**********************
  46:Drivers/lvgl/src/extra/widgets/led/lv_led.c ****  *   GLOBAL FUNCTIONS
  47:Drivers/lvgl/src/extra/widgets/led/lv_led.c ****  **********************/
  48:Drivers/lvgl/src/extra/widgets/led/lv_led.c **** 
  49:Drivers/lvgl/src/extra/widgets/led/lv_led.c **** /**
  50:Drivers/lvgl/src/extra/widgets/led/lv_led.c ****  * Create a led object
  51:Drivers/lvgl/src/extra/widgets/led/lv_led.c ****  * @param parent pointer to an object, it will be the parent of the new led
  52:Drivers/lvgl/src/extra/widgets/led/lv_led.c ****  * @return pointer to the created led
  53:Drivers/lvgl/src/extra/widgets/led/lv_led.c ****  */
  54:Drivers/lvgl/src/extra/widgets/led/lv_led.c **** lv_obj_t * lv_led_create(lv_obj_t * parent)
  55:Drivers/lvgl/src/extra/widgets/led/lv_led.c **** {
  56:Drivers/lvgl/src/extra/widgets/led/lv_led.c ****     LV_LOG_INFO("begin");
  57:Drivers/lvgl/src/extra/widgets/led/lv_led.c ****     lv_obj_t * obj = lv_obj_class_create_obj(MY_CLASS, parent);
  58:Drivers/lvgl/src/extra/widgets/led/lv_led.c ****     lv_obj_class_init_obj(obj);
  59:Drivers/lvgl/src/extra/widgets/led/lv_led.c ****     return obj;
  60:Drivers/lvgl/src/extra/widgets/led/lv_led.c **** }
  61:Drivers/lvgl/src/extra/widgets/led/lv_led.c **** 
  62:Drivers/lvgl/src/extra/widgets/led/lv_led.c **** /*=====================
  63:Drivers/lvgl/src/extra/widgets/led/lv_led.c ****  * Setter functions
  64:Drivers/lvgl/src/extra/widgets/led/lv_led.c ****  *====================*/
  65:Drivers/lvgl/src/extra/widgets/led/lv_led.c **** 
  66:Drivers/lvgl/src/extra/widgets/led/lv_led.c **** /**
  67:Drivers/lvgl/src/extra/widgets/led/lv_led.c ****  * Set the color of the LED
  68:Drivers/lvgl/src/extra/widgets/led/lv_led.c ****  * @param led       pointer to a LED object
  69:Drivers/lvgl/src/extra/widgets/led/lv_led.c ****  * @param color     the color of the LED
  70:Drivers/lvgl/src/extra/widgets/led/lv_led.c ****  */
  71:Drivers/lvgl/src/extra/widgets/led/lv_led.c **** void lv_led_set_color(lv_obj_t * obj, lv_color_t color)
  72:Drivers/lvgl/src/extra/widgets/led/lv_led.c **** {
  73:Drivers/lvgl/src/extra/widgets/led/lv_led.c ****     LV_ASSERT_OBJ(obj, MY_CLASS);
  74:Drivers/lvgl/src/extra/widgets/led/lv_led.c **** 
  75:Drivers/lvgl/src/extra/widgets/led/lv_led.c ****     lv_led_t * led = (lv_led_t *)obj;
  76:Drivers/lvgl/src/extra/widgets/led/lv_led.c ****     led->color = color;
  77:Drivers/lvgl/src/extra/widgets/led/lv_led.c ****     lv_obj_invalidate(obj);
  78:Drivers/lvgl/src/extra/widgets/led/lv_led.c **** }
  79:Drivers/lvgl/src/extra/widgets/led/lv_led.c **** 
  80:Drivers/lvgl/src/extra/widgets/led/lv_led.c **** /**
  81:Drivers/lvgl/src/extra/widgets/led/lv_led.c ****  * Set the brightness of a LED object
  82:Drivers/lvgl/src/extra/widgets/led/lv_led.c ****  * @param led pointer to a LED object
  83:Drivers/lvgl/src/extra/widgets/led/lv_led.c ****  * @param bright LV_LED_BRIGHT_MIN (max. dark) ... LV_LED_BRIGHT_MAX (max. light)
  84:Drivers/lvgl/src/extra/widgets/led/lv_led.c ****  */
  85:Drivers/lvgl/src/extra/widgets/led/lv_led.c **** void lv_led_set_brightness(lv_obj_t * obj, uint8_t bright)
  86:Drivers/lvgl/src/extra/widgets/led/lv_led.c **** {
  87:Drivers/lvgl/src/extra/widgets/led/lv_led.c ****     LV_ASSERT_OBJ(obj, MY_CLASS);
ARM GAS  /var/folders/0z/tsy30v1j4xl4_7kw94k978ww0000gn/T//ccCXLm7m.s 			page 3


  88:Drivers/lvgl/src/extra/widgets/led/lv_led.c **** 
  89:Drivers/lvgl/src/extra/widgets/led/lv_led.c ****     lv_led_t * led = (lv_led_t *)obj;
  90:Drivers/lvgl/src/extra/widgets/led/lv_led.c ****     if(led->bright == bright) return;
  91:Drivers/lvgl/src/extra/widgets/led/lv_led.c **** 
  92:Drivers/lvgl/src/extra/widgets/led/lv_led.c ****     led->bright = LV_CLAMP(LV_LED_BRIGHT_MIN, bright, LV_LED_BRIGHT_MAX);
  93:Drivers/lvgl/src/extra/widgets/led/lv_led.c **** 
  94:Drivers/lvgl/src/extra/widgets/led/lv_led.c ****     /*Invalidate the object there fore it will be redrawn*/
  95:Drivers/lvgl/src/extra/widgets/led/lv_led.c ****     lv_obj_invalidate(obj);
  96:Drivers/lvgl/src/extra/widgets/led/lv_led.c **** }
  97:Drivers/lvgl/src/extra/widgets/led/lv_led.c **** 
  98:Drivers/lvgl/src/extra/widgets/led/lv_led.c **** /**
  99:Drivers/lvgl/src/extra/widgets/led/lv_led.c ****  * Light on a LED
 100:Drivers/lvgl/src/extra/widgets/led/lv_led.c ****  * @param led pointer to a LED object
 101:Drivers/lvgl/src/extra/widgets/led/lv_led.c ****  */
 102:Drivers/lvgl/src/extra/widgets/led/lv_led.c **** void lv_led_on(lv_obj_t * led)
 103:Drivers/lvgl/src/extra/widgets/led/lv_led.c **** {
 104:Drivers/lvgl/src/extra/widgets/led/lv_led.c ****     lv_led_set_brightness(led, LV_LED_BRIGHT_MAX);
 105:Drivers/lvgl/src/extra/widgets/led/lv_led.c **** }
 106:Drivers/lvgl/src/extra/widgets/led/lv_led.c **** 
 107:Drivers/lvgl/src/extra/widgets/led/lv_led.c **** /**
 108:Drivers/lvgl/src/extra/widgets/led/lv_led.c ****  * Light off a LED
 109:Drivers/lvgl/src/extra/widgets/led/lv_led.c ****  * @param led pointer to a LED object
 110:Drivers/lvgl/src/extra/widgets/led/lv_led.c ****  */
 111:Drivers/lvgl/src/extra/widgets/led/lv_led.c **** void lv_led_off(lv_obj_t * led)
 112:Drivers/lvgl/src/extra/widgets/led/lv_led.c **** {
 113:Drivers/lvgl/src/extra/widgets/led/lv_led.c ****     lv_led_set_brightness(led, LV_LED_BRIGHT_MIN);
 114:Drivers/lvgl/src/extra/widgets/led/lv_led.c **** }
 115:Drivers/lvgl/src/extra/widgets/led/lv_led.c **** 
 116:Drivers/lvgl/src/extra/widgets/led/lv_led.c **** /**
 117:Drivers/lvgl/src/extra/widgets/led/lv_led.c ****  * Toggle the state of a LED
 118:Drivers/lvgl/src/extra/widgets/led/lv_led.c ****  * @param led pointer to a LED object
 119:Drivers/lvgl/src/extra/widgets/led/lv_led.c ****  */
 120:Drivers/lvgl/src/extra/widgets/led/lv_led.c **** void lv_led_toggle(lv_obj_t * obj)
 121:Drivers/lvgl/src/extra/widgets/led/lv_led.c **** {
 122:Drivers/lvgl/src/extra/widgets/led/lv_led.c ****     uint8_t bright = lv_led_get_brightness(obj);
 123:Drivers/lvgl/src/extra/widgets/led/lv_led.c ****     if(bright > (LV_LED_BRIGHT_MIN + LV_LED_BRIGHT_MAX) >> 1)
 124:Drivers/lvgl/src/extra/widgets/led/lv_led.c ****         lv_led_off(obj);
 125:Drivers/lvgl/src/extra/widgets/led/lv_led.c ****     else
 126:Drivers/lvgl/src/extra/widgets/led/lv_led.c ****         lv_led_on(obj);
 127:Drivers/lvgl/src/extra/widgets/led/lv_led.c **** }
 128:Drivers/lvgl/src/extra/widgets/led/lv_led.c **** 
 129:Drivers/lvgl/src/extra/widgets/led/lv_led.c **** /*=====================
 130:Drivers/lvgl/src/extra/widgets/led/lv_led.c ****  * Getter functions
 131:Drivers/lvgl/src/extra/widgets/led/lv_led.c ****  *====================*/
 132:Drivers/lvgl/src/extra/widgets/led/lv_led.c **** 
 133:Drivers/lvgl/src/extra/widgets/led/lv_led.c **** /**
 134:Drivers/lvgl/src/extra/widgets/led/lv_led.c ****  * Get the brightness of a LEd object
 135:Drivers/lvgl/src/extra/widgets/led/lv_led.c ****  * @param led pointer to LED object
 136:Drivers/lvgl/src/extra/widgets/led/lv_led.c ****  * @return bright 0 (max. dark) ... 255 (max. light)
 137:Drivers/lvgl/src/extra/widgets/led/lv_led.c ****  */
 138:Drivers/lvgl/src/extra/widgets/led/lv_led.c **** uint8_t lv_led_get_brightness(const lv_obj_t * obj)
 139:Drivers/lvgl/src/extra/widgets/led/lv_led.c **** {
 140:Drivers/lvgl/src/extra/widgets/led/lv_led.c ****     LV_ASSERT_OBJ(obj, MY_CLASS);
 141:Drivers/lvgl/src/extra/widgets/led/lv_led.c **** 
 142:Drivers/lvgl/src/extra/widgets/led/lv_led.c ****     lv_led_t * led = (lv_led_t *)obj;
 143:Drivers/lvgl/src/extra/widgets/led/lv_led.c ****     return led->bright;
 144:Drivers/lvgl/src/extra/widgets/led/lv_led.c **** }
ARM GAS  /var/folders/0z/tsy30v1j4xl4_7kw94k978ww0000gn/T//ccCXLm7m.s 			page 4


 145:Drivers/lvgl/src/extra/widgets/led/lv_led.c **** 
 146:Drivers/lvgl/src/extra/widgets/led/lv_led.c **** /**********************
 147:Drivers/lvgl/src/extra/widgets/led/lv_led.c ****  *   STATIC FUNCTIONS
 148:Drivers/lvgl/src/extra/widgets/led/lv_led.c ****  **********************/
 149:Drivers/lvgl/src/extra/widgets/led/lv_led.c **** 
 150:Drivers/lvgl/src/extra/widgets/led/lv_led.c **** static void lv_led_constructor(const lv_obj_class_t * class_p, lv_obj_t * obj)
 151:Drivers/lvgl/src/extra/widgets/led/lv_led.c **** {
  29              		.loc 1 151 1 view -0
  30              		.cfi_startproc
  31              		@ args = 0, pretend = 0, frame = 0
  32              		@ frame_needed = 0, uses_anonymous_args = 0
  33              		.loc 1 151 1 is_stmt 0 view .LVU1
  34 0000 10B5     		push	{r4, lr}
  35              		.cfi_def_cfa_offset 8
  36              		.cfi_offset 4, -8
  37              		.cfi_offset 14, -4
  38 0002 0C46     		mov	r4, r1
 152:Drivers/lvgl/src/extra/widgets/led/lv_led.c ****     LV_UNUSED(class_p);
  39              		.loc 1 152 5 is_stmt 1 view .LVU2
 153:Drivers/lvgl/src/extra/widgets/led/lv_led.c ****     lv_led_t * led = (lv_led_t *)obj;
  40              		.loc 1 153 5 view .LVU3
  41              	.LVL1:
 154:Drivers/lvgl/src/extra/widgets/led/lv_led.c ****     led->color = lv_theme_get_color_primary(obj);
  42              		.loc 1 154 5 view .LVU4
  43              		.loc 1 154 18 is_stmt 0 view .LVU5
  44 0004 0846     		mov	r0, r1
  45              	.LVL2:
  46              		.loc 1 154 18 view .LVU6
  47 0006 FFF7FEFF 		bl	lv_theme_get_color_primary
  48              	.LVL3:
  49              		.loc 1 154 18 view .LVU7
  50 000a A084     		strh	r0, [r4, #36]	@ movhi
 155:Drivers/lvgl/src/extra/widgets/led/lv_led.c ****     led->bright = LV_LED_BRIGHT_MAX;
  51              		.loc 1 155 5 is_stmt 1 view .LVU8
  52              		.loc 1 155 17 is_stmt 0 view .LVU9
  53 000c FF23     		movs	r3, #255
  54 000e 84F82630 		strb	r3, [r4, #38]
 156:Drivers/lvgl/src/extra/widgets/led/lv_led.c **** }
  55              		.loc 1 156 1 view .LVU10
  56 0012 10BD     		pop	{r4, pc}
  57              		.loc 1 156 1 view .LVU11
  58              		.cfi_endproc
  59              	.LFE211:
  61              		.section	.text.lv_led_event,"ax",%progbits
  62              		.align	1
  63              		.syntax unified
  64              		.thumb
  65              		.thumb_func
  67              	lv_led_event:
  68              	.LVL4:
  69              	.LFB212:
 157:Drivers/lvgl/src/extra/widgets/led/lv_led.c **** 
 158:Drivers/lvgl/src/extra/widgets/led/lv_led.c **** static void lv_led_event(const lv_obj_class_t * class_p, lv_event_t * e)
 159:Drivers/lvgl/src/extra/widgets/led/lv_led.c **** {
  70              		.loc 1 159 1 is_stmt 1 view -0
  71              		.cfi_startproc
  72              		@ args = 0, pretend = 0, frame = 128
ARM GAS  /var/folders/0z/tsy30v1j4xl4_7kw94k978ww0000gn/T//ccCXLm7m.s 			page 5


  73              		@ frame_needed = 0, uses_anonymous_args = 0
  74              		.loc 1 159 1 is_stmt 0 view .LVU13
  75 0000 2DE9F043 		push	{r4, r5, r6, r7, r8, r9, lr}
  76              		.cfi_def_cfa_offset 28
  77              		.cfi_offset 4, -28
  78              		.cfi_offset 5, -24
  79              		.cfi_offset 6, -20
  80              		.cfi_offset 7, -16
  81              		.cfi_offset 8, -12
  82              		.cfi_offset 9, -8
  83              		.cfi_offset 14, -4
  84 0004 A1B0     		sub	sp, sp, #132
  85              		.cfi_def_cfa_offset 160
  86 0006 0C46     		mov	r4, r1
 160:Drivers/lvgl/src/extra/widgets/led/lv_led.c ****     LV_UNUSED(class_p);
  87              		.loc 1 160 5 is_stmt 1 view .LVU14
 161:Drivers/lvgl/src/extra/widgets/led/lv_led.c **** 
 162:Drivers/lvgl/src/extra/widgets/led/lv_led.c ****     lv_res_t res;
  88              		.loc 1 162 5 view .LVU15
 163:Drivers/lvgl/src/extra/widgets/led/lv_led.c **** 
 164:Drivers/lvgl/src/extra/widgets/led/lv_led.c ****     /* Call the ancestor's event handler */
 165:Drivers/lvgl/src/extra/widgets/led/lv_led.c ****     lv_event_code_t code = lv_event_get_code(e);
  89              		.loc 1 165 5 view .LVU16
  90              		.loc 1 165 28 is_stmt 0 view .LVU17
  91 0008 0846     		mov	r0, r1
  92              	.LVL5:
  93              		.loc 1 165 28 view .LVU18
  94 000a FFF7FEFF 		bl	lv_event_get_code
  95              	.LVL6:
  96              		.loc 1 165 28 view .LVU19
  97 000e 0546     		mov	r5, r0
  98              	.LVL7:
 166:Drivers/lvgl/src/extra/widgets/led/lv_led.c ****     if(code != LV_EVENT_DRAW_MAIN && code != LV_EVENT_DRAW_MAIN_END) {
  99              		.loc 1 166 5 is_stmt 1 view .LVU20
 100              		.loc 1 166 35 is_stmt 0 view .LVU21
 101 0010 A0F11503 		sub	r3, r0, #21
 102 0014 DBB2     		uxtb	r3, r3
 103              		.loc 1 166 7 view .LVU22
 104 0016 012B     		cmp	r3, #1
 105 0018 05D9     		bls	.L4
 167:Drivers/lvgl/src/extra/widgets/led/lv_led.c ****         res = lv_obj_event_base(MY_CLASS, e);
 106              		.loc 1 167 9 is_stmt 1 view .LVU23
 107              		.loc 1 167 15 is_stmt 0 view .LVU24
 108 001a 2146     		mov	r1, r4
 109 001c 0648     		ldr	r0, .L8
 110              	.LVL8:
 111              		.loc 1 167 15 view .LVU25
 112 001e FFF7FEFF 		bl	lv_obj_event_base
 113              	.LVL9:
 168:Drivers/lvgl/src/extra/widgets/led/lv_led.c ****         if(res != LV_RES_OK) return;
 114              		.loc 1 168 9 is_stmt 1 view .LVU26
 115              		.loc 1 168 11 is_stmt 0 view .LVU27
 116 0022 0128     		cmp	r0, #1
 117 0024 05D1     		bne	.L3
 118              	.LVL10:
 119              	.L4:
 169:Drivers/lvgl/src/extra/widgets/led/lv_led.c ****     }
ARM GAS  /var/folders/0z/tsy30v1j4xl4_7kw94k978ww0000gn/T//ccCXLm7m.s 			page 6


 170:Drivers/lvgl/src/extra/widgets/led/lv_led.c **** 
 171:Drivers/lvgl/src/extra/widgets/led/lv_led.c ****     lv_obj_t * obj = lv_event_get_target(e);
 120              		.loc 1 171 5 is_stmt 1 view .LVU28
 121              		.loc 1 171 22 is_stmt 0 view .LVU29
 122 0026 2046     		mov	r0, r4
 123 0028 FFF7FEFF 		bl	lv_event_get_target
 124              	.LVL11:
 125 002c 0746     		mov	r7, r0
 126              	.LVL12:
 172:Drivers/lvgl/src/extra/widgets/led/lv_led.c ****     if(code == LV_EVENT_DRAW_MAIN) {
 127              		.loc 1 172 5 is_stmt 1 view .LVU30
 128              		.loc 1 172 7 is_stmt 0 view .LVU31
 129 002e 152D     		cmp	r5, #21
 130 0030 04D0     		beq	.L7
 131              	.LVL13:
 132              	.L3:
 173:Drivers/lvgl/src/extra/widgets/led/lv_led.c ****         /*Make darker colors in a temporary style according to the brightness*/
 174:Drivers/lvgl/src/extra/widgets/led/lv_led.c ****         lv_led_t * led = (lv_led_t *)obj;
 175:Drivers/lvgl/src/extra/widgets/led/lv_led.c **** 
 176:Drivers/lvgl/src/extra/widgets/led/lv_led.c ****         lv_draw_rect_dsc_t rect_dsc;
 177:Drivers/lvgl/src/extra/widgets/led/lv_led.c ****         lv_draw_rect_dsc_init(&rect_dsc);
 178:Drivers/lvgl/src/extra/widgets/led/lv_led.c ****         lv_obj_init_draw_rect_dsc(obj, LV_PART_MAIN, &rect_dsc);
 179:Drivers/lvgl/src/extra/widgets/led/lv_led.c **** 
 180:Drivers/lvgl/src/extra/widgets/led/lv_led.c ****         /*Use the original colors brightness to modify color->led*/
 181:Drivers/lvgl/src/extra/widgets/led/lv_led.c ****         rect_dsc.bg_color = lv_color_mix(led->color, lv_color_black(), lv_color_brightness(rect_dsc
 182:Drivers/lvgl/src/extra/widgets/led/lv_led.c ****         rect_dsc.bg_grad.stops[0].color = lv_color_mix(led->color, lv_color_black(),
 183:Drivers/lvgl/src/extra/widgets/led/lv_led.c ****                                                        lv_color_brightness(rect_dsc.bg_grad.stops[0
 184:Drivers/lvgl/src/extra/widgets/led/lv_led.c ****         rect_dsc.bg_grad.stops[1].color = lv_color_mix(led->color, lv_color_black(),
 185:Drivers/lvgl/src/extra/widgets/led/lv_led.c ****                                                        lv_color_brightness(rect_dsc.bg_grad.stops[1
 186:Drivers/lvgl/src/extra/widgets/led/lv_led.c ****         rect_dsc.shadow_color = lv_color_mix(led->color, lv_color_black(), lv_color_brightness(rect
 187:Drivers/lvgl/src/extra/widgets/led/lv_led.c ****         rect_dsc.border_color = lv_color_mix(led->color, lv_color_black(), lv_color_brightness(rect
 188:Drivers/lvgl/src/extra/widgets/led/lv_led.c ****         rect_dsc.outline_color = lv_color_mix(led->color, lv_color_black(), lv_color_brightness(rec
 189:Drivers/lvgl/src/extra/widgets/led/lv_led.c **** 
 190:Drivers/lvgl/src/extra/widgets/led/lv_led.c ****         /*Mix. the color with black proportionally with brightness*/
 191:Drivers/lvgl/src/extra/widgets/led/lv_led.c ****         rect_dsc.bg_color = lv_color_mix(rect_dsc.bg_color, lv_color_black(), led->bright);
 192:Drivers/lvgl/src/extra/widgets/led/lv_led.c ****         rect_dsc.bg_grad.stops[0].color   = lv_color_mix(rect_dsc.bg_grad.stops[0].color, lv_color_
 193:Drivers/lvgl/src/extra/widgets/led/lv_led.c ****         rect_dsc.bg_grad.stops[1].color   = lv_color_mix(rect_dsc.bg_grad.stops[1].color, lv_color_
 194:Drivers/lvgl/src/extra/widgets/led/lv_led.c ****         rect_dsc.border_color = lv_color_mix(rect_dsc.border_color, lv_color_black(), led->bright);
 195:Drivers/lvgl/src/extra/widgets/led/lv_led.c ****         rect_dsc.shadow_color = lv_color_mix(rect_dsc.shadow_color, lv_color_black(), led->bright);
 196:Drivers/lvgl/src/extra/widgets/led/lv_led.c ****         rect_dsc.outline_color = lv_color_mix(rect_dsc.outline_color, lv_color_black(), led->bright
 197:Drivers/lvgl/src/extra/widgets/led/lv_led.c **** 
 198:Drivers/lvgl/src/extra/widgets/led/lv_led.c ****         /*Set the current shadow width according to brightness proportionally between LV_LED_BRIGHT
 199:Drivers/lvgl/src/extra/widgets/led/lv_led.c ****          * and LV_LED_BRIGHT_ON*/
 200:Drivers/lvgl/src/extra/widgets/led/lv_led.c ****         rect_dsc.shadow_width = ((led->bright - LV_LED_BRIGHT_MIN) * rect_dsc.shadow_width) /
 201:Drivers/lvgl/src/extra/widgets/led/lv_led.c ****                                 (LV_LED_BRIGHT_MAX - LV_LED_BRIGHT_MIN);
 202:Drivers/lvgl/src/extra/widgets/led/lv_led.c ****         rect_dsc.shadow_spread = ((led->bright - LV_LED_BRIGHT_MIN) * rect_dsc.shadow_spread) /
 203:Drivers/lvgl/src/extra/widgets/led/lv_led.c ****                                  (LV_LED_BRIGHT_MAX - LV_LED_BRIGHT_MIN);
 204:Drivers/lvgl/src/extra/widgets/led/lv_led.c **** 
 205:Drivers/lvgl/src/extra/widgets/led/lv_led.c ****         lv_draw_ctx_t * draw_ctx = lv_event_get_draw_ctx(e);
 206:Drivers/lvgl/src/extra/widgets/led/lv_led.c **** 
 207:Drivers/lvgl/src/extra/widgets/led/lv_led.c ****         lv_obj_draw_part_dsc_t  part_draw_dsc;
 208:Drivers/lvgl/src/extra/widgets/led/lv_led.c ****         lv_obj_draw_dsc_init(&part_draw_dsc, draw_ctx);
 209:Drivers/lvgl/src/extra/widgets/led/lv_led.c ****         part_draw_dsc.draw_area = &obj->coords;
 210:Drivers/lvgl/src/extra/widgets/led/lv_led.c ****         part_draw_dsc.class_p = MY_CLASS;
 211:Drivers/lvgl/src/extra/widgets/led/lv_led.c ****         part_draw_dsc.type = LV_LED_DRAW_PART_RECTANGLE;
 212:Drivers/lvgl/src/extra/widgets/led/lv_led.c ****         part_draw_dsc.rect_dsc = &rect_dsc;
 213:Drivers/lvgl/src/extra/widgets/led/lv_led.c ****         part_draw_dsc.part = LV_PART_MAIN;
ARM GAS  /var/folders/0z/tsy30v1j4xl4_7kw94k978ww0000gn/T//ccCXLm7m.s 			page 7


 214:Drivers/lvgl/src/extra/widgets/led/lv_led.c **** 
 215:Drivers/lvgl/src/extra/widgets/led/lv_led.c ****         lv_event_send(obj, LV_EVENT_DRAW_PART_BEGIN, &part_draw_dsc);
 216:Drivers/lvgl/src/extra/widgets/led/lv_led.c ****         lv_draw_rect(draw_ctx, &rect_dsc, &obj->coords);
 217:Drivers/lvgl/src/extra/widgets/led/lv_led.c ****         lv_event_send(obj, LV_EVENT_DRAW_PART_END, &part_draw_dsc);
 218:Drivers/lvgl/src/extra/widgets/led/lv_led.c ****     }
 219:Drivers/lvgl/src/extra/widgets/led/lv_led.c **** }
 133              		.loc 1 219 1 view .LVU32
 134 0032 21B0     		add	sp, sp, #132
 135              		.cfi_remember_state
 136              		.cfi_def_cfa_offset 28
 137              		@ sp needed
 138 0034 BDE8F083 		pop	{r4, r5, r6, r7, r8, r9, pc}
 139              	.L9:
 140              		.align	2
 141              	.L8:
 142 0038 00000000 		.word	.LANCHOR0
 143              	.LVL14:
 144              	.L7:
 145              		.cfi_restore_state
 146              	.LBB150:
 174:Drivers/lvgl/src/extra/widgets/led/lv_led.c **** 
 147              		.loc 1 174 9 is_stmt 1 view .LVU33
 176:Drivers/lvgl/src/extra/widgets/led/lv_led.c ****         lv_draw_rect_dsc_init(&rect_dsc);
 148              		.loc 1 176 9 view .LVU34
 177:Drivers/lvgl/src/extra/widgets/led/lv_led.c ****         lv_obj_init_draw_rect_dsc(obj, LV_PART_MAIN, &rect_dsc);
 149              		.loc 1 177 9 view .LVU35
 150 003c 6846     		mov	r0, sp
 151              	.LVL15:
 177:Drivers/lvgl/src/extra/widgets/led/lv_led.c ****         lv_obj_init_draw_rect_dsc(obj, LV_PART_MAIN, &rect_dsc);
 152              		.loc 1 177 9 is_stmt 0 view .LVU36
 153 003e FFF7FEFF 		bl	lv_draw_rect_dsc_init
 154              	.LVL16:
 178:Drivers/lvgl/src/extra/widgets/led/lv_led.c **** 
 155              		.loc 1 178 9 is_stmt 1 view .LVU37
 156 0042 6A46     		mov	r2, sp
 157 0044 0021     		movs	r1, #0
 158 0046 3846     		mov	r0, r7
 159 0048 FFF7FEFF 		bl	lv_obj_init_draw_rect_dsc
 160              	.LVL17:
 181:Drivers/lvgl/src/extra/widgets/led/lv_led.c ****         rect_dsc.bg_grad.stops[0].color = lv_color_mix(led->color, lv_color_black(),
 161              		.loc 1 181 9 view .LVU38
 162              	.LBB151:
 163              	.LBI151:
 164              		.file 2 "Drivers/lvgl/src/extra/widgets/led/../../../../src/hal/../draw/../misc/lv_color.h"
   1:Drivers/lvgl/src/extra/widgets/led/../../../../src/hal/../draw/../misc/lv_color.h **** /**
   2:Drivers/lvgl/src/extra/widgets/led/../../../../src/hal/../draw/../misc/lv_color.h ****  * @file lv_color.h
   3:Drivers/lvgl/src/extra/widgets/led/../../../../src/hal/../draw/../misc/lv_color.h ****  *
   4:Drivers/lvgl/src/extra/widgets/led/../../../../src/hal/../draw/../misc/lv_color.h ****  */
   5:Drivers/lvgl/src/extra/widgets/led/../../../../src/hal/../draw/../misc/lv_color.h **** 
   6:Drivers/lvgl/src/extra/widgets/led/../../../../src/hal/../draw/../misc/lv_color.h **** #ifndef LV_COLOR_H
   7:Drivers/lvgl/src/extra/widgets/led/../../../../src/hal/../draw/../misc/lv_color.h **** #define LV_COLOR_H
   8:Drivers/lvgl/src/extra/widgets/led/../../../../src/hal/../draw/../misc/lv_color.h **** 
   9:Drivers/lvgl/src/extra/widgets/led/../../../../src/hal/../draw/../misc/lv_color.h **** #ifdef __cplusplus
  10:Drivers/lvgl/src/extra/widgets/led/../../../../src/hal/../draw/../misc/lv_color.h **** extern "C" {
  11:Drivers/lvgl/src/extra/widgets/led/../../../../src/hal/../draw/../misc/lv_color.h **** #endif
  12:Drivers/lvgl/src/extra/widgets/led/../../../../src/hal/../draw/../misc/lv_color.h **** 
  13:Drivers/lvgl/src/extra/widgets/led/../../../../src/hal/../draw/../misc/lv_color.h **** /*********************
ARM GAS  /var/folders/0z/tsy30v1j4xl4_7kw94k978ww0000gn/T//ccCXLm7m.s 			page 8


  14:Drivers/lvgl/src/extra/widgets/led/../../../../src/hal/../draw/../misc/lv_color.h ****  *      INCLUDES
  15:Drivers/lvgl/src/extra/widgets/led/../../../../src/hal/../draw/../misc/lv_color.h ****  *********************/
  16:Drivers/lvgl/src/extra/widgets/led/../../../../src/hal/../draw/../misc/lv_color.h **** #include "../lv_conf_internal.h"
  17:Drivers/lvgl/src/extra/widgets/led/../../../../src/hal/../draw/../misc/lv_color.h **** #include "lv_assert.h"
  18:Drivers/lvgl/src/extra/widgets/led/../../../../src/hal/../draw/../misc/lv_color.h **** #include "lv_math.h"
  19:Drivers/lvgl/src/extra/widgets/led/../../../../src/hal/../draw/../misc/lv_color.h **** #include "lv_types.h"
  20:Drivers/lvgl/src/extra/widgets/led/../../../../src/hal/../draw/../misc/lv_color.h **** 
  21:Drivers/lvgl/src/extra/widgets/led/../../../../src/hal/../draw/../misc/lv_color.h **** /*Error checking*/
  22:Drivers/lvgl/src/extra/widgets/led/../../../../src/hal/../draw/../misc/lv_color.h **** #if LV_COLOR_DEPTH == 24
  23:Drivers/lvgl/src/extra/widgets/led/../../../../src/hal/../draw/../misc/lv_color.h **** #error "LV_COLOR_DEPTH 24 is deprecated. Use LV_COLOR_DEPTH 32 instead (lv_conf.h)"
  24:Drivers/lvgl/src/extra/widgets/led/../../../../src/hal/../draw/../misc/lv_color.h **** #endif
  25:Drivers/lvgl/src/extra/widgets/led/../../../../src/hal/../draw/../misc/lv_color.h **** 
  26:Drivers/lvgl/src/extra/widgets/led/../../../../src/hal/../draw/../misc/lv_color.h **** #if LV_COLOR_DEPTH != 16 && LV_COLOR_16_SWAP != 0
  27:Drivers/lvgl/src/extra/widgets/led/../../../../src/hal/../draw/../misc/lv_color.h **** #error "LV_COLOR_16_SWAP requires LV_COLOR_DEPTH == 16. Set it in lv_conf.h"
  28:Drivers/lvgl/src/extra/widgets/led/../../../../src/hal/../draw/../misc/lv_color.h **** #endif
  29:Drivers/lvgl/src/extra/widgets/led/../../../../src/hal/../draw/../misc/lv_color.h **** 
  30:Drivers/lvgl/src/extra/widgets/led/../../../../src/hal/../draw/../misc/lv_color.h **** #include <stdint.h>
  31:Drivers/lvgl/src/extra/widgets/led/../../../../src/hal/../draw/../misc/lv_color.h **** 
  32:Drivers/lvgl/src/extra/widgets/led/../../../../src/hal/../draw/../misc/lv_color.h **** /*********************
  33:Drivers/lvgl/src/extra/widgets/led/../../../../src/hal/../draw/../misc/lv_color.h ****  *      DEFINES
  34:Drivers/lvgl/src/extra/widgets/led/../../../../src/hal/../draw/../misc/lv_color.h ****  *********************/
  35:Drivers/lvgl/src/extra/widgets/led/../../../../src/hal/../draw/../misc/lv_color.h **** LV_EXPORT_CONST_INT(LV_COLOR_DEPTH);
  36:Drivers/lvgl/src/extra/widgets/led/../../../../src/hal/../draw/../misc/lv_color.h **** LV_EXPORT_CONST_INT(LV_COLOR_16_SWAP);
  37:Drivers/lvgl/src/extra/widgets/led/../../../../src/hal/../draw/../misc/lv_color.h **** 
  38:Drivers/lvgl/src/extra/widgets/led/../../../../src/hal/../draw/../misc/lv_color.h **** /**
  39:Drivers/lvgl/src/extra/widgets/led/../../../../src/hal/../draw/../misc/lv_color.h ****  * Opacity percentages.
  40:Drivers/lvgl/src/extra/widgets/led/../../../../src/hal/../draw/../misc/lv_color.h ****  */
  41:Drivers/lvgl/src/extra/widgets/led/../../../../src/hal/../draw/../misc/lv_color.h **** enum {
  42:Drivers/lvgl/src/extra/widgets/led/../../../../src/hal/../draw/../misc/lv_color.h ****     LV_OPA_TRANSP = 0,
  43:Drivers/lvgl/src/extra/widgets/led/../../../../src/hal/../draw/../misc/lv_color.h ****     LV_OPA_0      = 0,
  44:Drivers/lvgl/src/extra/widgets/led/../../../../src/hal/../draw/../misc/lv_color.h ****     LV_OPA_10     = 25,
  45:Drivers/lvgl/src/extra/widgets/led/../../../../src/hal/../draw/../misc/lv_color.h ****     LV_OPA_20     = 51,
  46:Drivers/lvgl/src/extra/widgets/led/../../../../src/hal/../draw/../misc/lv_color.h ****     LV_OPA_30     = 76,
  47:Drivers/lvgl/src/extra/widgets/led/../../../../src/hal/../draw/../misc/lv_color.h ****     LV_OPA_40     = 102,
  48:Drivers/lvgl/src/extra/widgets/led/../../../../src/hal/../draw/../misc/lv_color.h ****     LV_OPA_50     = 127,
  49:Drivers/lvgl/src/extra/widgets/led/../../../../src/hal/../draw/../misc/lv_color.h ****     LV_OPA_60     = 153,
  50:Drivers/lvgl/src/extra/widgets/led/../../../../src/hal/../draw/../misc/lv_color.h ****     LV_OPA_70     = 178,
  51:Drivers/lvgl/src/extra/widgets/led/../../../../src/hal/../draw/../misc/lv_color.h ****     LV_OPA_80     = 204,
  52:Drivers/lvgl/src/extra/widgets/led/../../../../src/hal/../draw/../misc/lv_color.h ****     LV_OPA_90     = 229,
  53:Drivers/lvgl/src/extra/widgets/led/../../../../src/hal/../draw/../misc/lv_color.h ****     LV_OPA_100    = 255,
  54:Drivers/lvgl/src/extra/widgets/led/../../../../src/hal/../draw/../misc/lv_color.h ****     LV_OPA_COVER  = 255,
  55:Drivers/lvgl/src/extra/widgets/led/../../../../src/hal/../draw/../misc/lv_color.h **** };
  56:Drivers/lvgl/src/extra/widgets/led/../../../../src/hal/../draw/../misc/lv_color.h **** 
  57:Drivers/lvgl/src/extra/widgets/led/../../../../src/hal/../draw/../misc/lv_color.h **** #define LV_OPA_MIN 2    /*Opacities below this will be transparent*/
  58:Drivers/lvgl/src/extra/widgets/led/../../../../src/hal/../draw/../misc/lv_color.h **** #define LV_OPA_MAX 253  /*Opacities above this will fully cover*/
  59:Drivers/lvgl/src/extra/widgets/led/../../../../src/hal/../draw/../misc/lv_color.h **** 
  60:Drivers/lvgl/src/extra/widgets/led/../../../../src/hal/../draw/../misc/lv_color.h **** #if LV_COLOR_DEPTH == 1
  61:Drivers/lvgl/src/extra/widgets/led/../../../../src/hal/../draw/../misc/lv_color.h **** #define LV_COLOR_SIZE 8
  62:Drivers/lvgl/src/extra/widgets/led/../../../../src/hal/../draw/../misc/lv_color.h **** #elif LV_COLOR_DEPTH == 8
  63:Drivers/lvgl/src/extra/widgets/led/../../../../src/hal/../draw/../misc/lv_color.h **** #define LV_COLOR_SIZE 8
  64:Drivers/lvgl/src/extra/widgets/led/../../../../src/hal/../draw/../misc/lv_color.h **** #elif LV_COLOR_DEPTH == 16
  65:Drivers/lvgl/src/extra/widgets/led/../../../../src/hal/../draw/../misc/lv_color.h **** #define LV_COLOR_SIZE 16
  66:Drivers/lvgl/src/extra/widgets/led/../../../../src/hal/../draw/../misc/lv_color.h **** #elif LV_COLOR_DEPTH == 32
  67:Drivers/lvgl/src/extra/widgets/led/../../../../src/hal/../draw/../misc/lv_color.h **** #define LV_COLOR_SIZE 32
  68:Drivers/lvgl/src/extra/widgets/led/../../../../src/hal/../draw/../misc/lv_color.h **** #else
  69:Drivers/lvgl/src/extra/widgets/led/../../../../src/hal/../draw/../misc/lv_color.h **** #error "Invalid LV_COLOR_DEPTH in lv_conf.h! Set it to 1, 8, 16 or 32!"
  70:Drivers/lvgl/src/extra/widgets/led/../../../../src/hal/../draw/../misc/lv_color.h **** #endif
ARM GAS  /var/folders/0z/tsy30v1j4xl4_7kw94k978ww0000gn/T//ccCXLm7m.s 			page 9


  71:Drivers/lvgl/src/extra/widgets/led/../../../../src/hal/../draw/../misc/lv_color.h **** 
  72:Drivers/lvgl/src/extra/widgets/led/../../../../src/hal/../draw/../misc/lv_color.h **** #if defined(__cplusplus) && !defined(_LV_COLOR_HAS_MODERN_CPP)
  73:Drivers/lvgl/src/extra/widgets/led/../../../../src/hal/../draw/../misc/lv_color.h **** /**
  74:Drivers/lvgl/src/extra/widgets/led/../../../../src/hal/../draw/../misc/lv_color.h **** * MSVC compiler's definition of the __cplusplus indicating 199711L regardless to C++ standard versi
  75:Drivers/lvgl/src/extra/widgets/led/../../../../src/hal/../draw/../misc/lv_color.h **** * see https://devblogs.microsoft.com/cppblog/msvc-now-correctly-reports-cplusplus
  76:Drivers/lvgl/src/extra/widgets/led/../../../../src/hal/../draw/../misc/lv_color.h **** * so we use _MSC_VER macro instead of __cplusplus
  77:Drivers/lvgl/src/extra/widgets/led/../../../../src/hal/../draw/../misc/lv_color.h **** */
  78:Drivers/lvgl/src/extra/widgets/led/../../../../src/hal/../draw/../misc/lv_color.h **** #ifdef _MSC_VER
  79:Drivers/lvgl/src/extra/widgets/led/../../../../src/hal/../draw/../misc/lv_color.h **** #if _MSC_VER >= 1900 /*Visual Studio 2015*/
  80:Drivers/lvgl/src/extra/widgets/led/../../../../src/hal/../draw/../misc/lv_color.h **** #define _LV_COLOR_HAS_MODERN_CPP 1
  81:Drivers/lvgl/src/extra/widgets/led/../../../../src/hal/../draw/../misc/lv_color.h **** #endif
  82:Drivers/lvgl/src/extra/widgets/led/../../../../src/hal/../draw/../misc/lv_color.h **** #else
  83:Drivers/lvgl/src/extra/widgets/led/../../../../src/hal/../draw/../misc/lv_color.h **** #if __cplusplus >= 201103L
  84:Drivers/lvgl/src/extra/widgets/led/../../../../src/hal/../draw/../misc/lv_color.h **** #define _LV_COLOR_HAS_MODERN_CPP 1
  85:Drivers/lvgl/src/extra/widgets/led/../../../../src/hal/../draw/../misc/lv_color.h **** #endif
  86:Drivers/lvgl/src/extra/widgets/led/../../../../src/hal/../draw/../misc/lv_color.h **** #endif
  87:Drivers/lvgl/src/extra/widgets/led/../../../../src/hal/../draw/../misc/lv_color.h **** #endif /*__cplusplus*/
  88:Drivers/lvgl/src/extra/widgets/led/../../../../src/hal/../draw/../misc/lv_color.h **** 
  89:Drivers/lvgl/src/extra/widgets/led/../../../../src/hal/../draw/../misc/lv_color.h **** #ifndef _LV_COLOR_HAS_MODERN_CPP
  90:Drivers/lvgl/src/extra/widgets/led/../../../../src/hal/../draw/../misc/lv_color.h **** #define _LV_COLOR_HAS_MODERN_CPP 0
  91:Drivers/lvgl/src/extra/widgets/led/../../../../src/hal/../draw/../misc/lv_color.h **** #endif
  92:Drivers/lvgl/src/extra/widgets/led/../../../../src/hal/../draw/../misc/lv_color.h **** 
  93:Drivers/lvgl/src/extra/widgets/led/../../../../src/hal/../draw/../misc/lv_color.h **** #if _LV_COLOR_HAS_MODERN_CPP
  94:Drivers/lvgl/src/extra/widgets/led/../../../../src/hal/../draw/../misc/lv_color.h **** /*Fix msvc compiler error C4576 inside C++ code*/
  95:Drivers/lvgl/src/extra/widgets/led/../../../../src/hal/../draw/../misc/lv_color.h **** #define _LV_COLOR_MAKE_TYPE_HELPER lv_color_t
  96:Drivers/lvgl/src/extra/widgets/led/../../../../src/hal/../draw/../misc/lv_color.h **** #else
  97:Drivers/lvgl/src/extra/widgets/led/../../../../src/hal/../draw/../misc/lv_color.h **** #define _LV_COLOR_MAKE_TYPE_HELPER (lv_color_t)
  98:Drivers/lvgl/src/extra/widgets/led/../../../../src/hal/../draw/../misc/lv_color.h **** #endif
  99:Drivers/lvgl/src/extra/widgets/led/../../../../src/hal/../draw/../misc/lv_color.h **** 
 100:Drivers/lvgl/src/extra/widgets/led/../../../../src/hal/../draw/../misc/lv_color.h **** /*---------------------------------------
 101:Drivers/lvgl/src/extra/widgets/led/../../../../src/hal/../draw/../misc/lv_color.h ****  * Macros for all existing color depths
 102:Drivers/lvgl/src/extra/widgets/led/../../../../src/hal/../draw/../misc/lv_color.h ****  * to set/get values of the color channels
 103:Drivers/lvgl/src/extra/widgets/led/../../../../src/hal/../draw/../misc/lv_color.h ****  *------------------------------------------*/
 104:Drivers/lvgl/src/extra/widgets/led/../../../../src/hal/../draw/../misc/lv_color.h **** # define LV_COLOR_SET_R1(c, v) (c).ch.red = (uint8_t)((v) & 0x1)
 105:Drivers/lvgl/src/extra/widgets/led/../../../../src/hal/../draw/../misc/lv_color.h **** # define LV_COLOR_SET_G1(c, v) (c).ch.green = (uint8_t)((v) & 0x1)
 106:Drivers/lvgl/src/extra/widgets/led/../../../../src/hal/../draw/../misc/lv_color.h **** # define LV_COLOR_SET_B1(c, v) (c).ch.blue = (uint8_t)((v) & 0x1)
 107:Drivers/lvgl/src/extra/widgets/led/../../../../src/hal/../draw/../misc/lv_color.h **** # define LV_COLOR_SET_A1(c, v) do {} while(0)
 108:Drivers/lvgl/src/extra/widgets/led/../../../../src/hal/../draw/../misc/lv_color.h **** 
 109:Drivers/lvgl/src/extra/widgets/led/../../../../src/hal/../draw/../misc/lv_color.h **** # define LV_COLOR_GET_R1(c) (c).ch.red
 110:Drivers/lvgl/src/extra/widgets/led/../../../../src/hal/../draw/../misc/lv_color.h **** # define LV_COLOR_GET_G1(c) (c).ch.green
 111:Drivers/lvgl/src/extra/widgets/led/../../../../src/hal/../draw/../misc/lv_color.h **** # define LV_COLOR_GET_B1(c) (c).ch.blue
 112:Drivers/lvgl/src/extra/widgets/led/../../../../src/hal/../draw/../misc/lv_color.h **** # define LV_COLOR_GET_A1(c) 0xFF
 113:Drivers/lvgl/src/extra/widgets/led/../../../../src/hal/../draw/../misc/lv_color.h **** 
 114:Drivers/lvgl/src/extra/widgets/led/../../../../src/hal/../draw/../misc/lv_color.h **** # define _LV_COLOR_ZERO_INITIALIZER1 {0x00}
 115:Drivers/lvgl/src/extra/widgets/led/../../../../src/hal/../draw/../misc/lv_color.h **** # define LV_COLOR_MAKE1(r8, g8, b8)  {(uint8_t)((b8 >> 7) | (g8 >> 7) | (r8 >> 7))}
 116:Drivers/lvgl/src/extra/widgets/led/../../../../src/hal/../draw/../misc/lv_color.h **** 
 117:Drivers/lvgl/src/extra/widgets/led/../../../../src/hal/../draw/../misc/lv_color.h **** # define LV_COLOR_SET_R8(c, v) (c).ch.red = (uint8_t)((v) & 0x7U)
 118:Drivers/lvgl/src/extra/widgets/led/../../../../src/hal/../draw/../misc/lv_color.h **** # define LV_COLOR_SET_G8(c, v) (c).ch.green = (uint8_t)((v) & 0x7U)
 119:Drivers/lvgl/src/extra/widgets/led/../../../../src/hal/../draw/../misc/lv_color.h **** # define LV_COLOR_SET_B8(c, v) (c).ch.blue = (uint8_t)((v) & 0x3U)
 120:Drivers/lvgl/src/extra/widgets/led/../../../../src/hal/../draw/../misc/lv_color.h **** # define LV_COLOR_SET_A8(c, v) do {} while(0)
 121:Drivers/lvgl/src/extra/widgets/led/../../../../src/hal/../draw/../misc/lv_color.h **** 
 122:Drivers/lvgl/src/extra/widgets/led/../../../../src/hal/../draw/../misc/lv_color.h **** # define LV_COLOR_GET_R8(c) (c).ch.red
 123:Drivers/lvgl/src/extra/widgets/led/../../../../src/hal/../draw/../misc/lv_color.h **** # define LV_COLOR_GET_G8(c) (c).ch.green
 124:Drivers/lvgl/src/extra/widgets/led/../../../../src/hal/../draw/../misc/lv_color.h **** # define LV_COLOR_GET_B8(c) (c).ch.blue
 125:Drivers/lvgl/src/extra/widgets/led/../../../../src/hal/../draw/../misc/lv_color.h **** # define LV_COLOR_GET_A8(c) 0xFF
 126:Drivers/lvgl/src/extra/widgets/led/../../../../src/hal/../draw/../misc/lv_color.h **** 
 127:Drivers/lvgl/src/extra/widgets/led/../../../../src/hal/../draw/../misc/lv_color.h **** # define _LV_COLOR_ZERO_INITIALIZER8 {{0x00, 0x00, 0x00}}
ARM GAS  /var/folders/0z/tsy30v1j4xl4_7kw94k978ww0000gn/T//ccCXLm7m.s 			page 10


 128:Drivers/lvgl/src/extra/widgets/led/../../../../src/hal/../draw/../misc/lv_color.h **** # define LV_COLOR_MAKE8(r8, g8, b8) {{(uint8_t)((b8 >> 6) & 0x3U), (uint8_t)((g8 >> 5) & 0x7U), (ui
 129:Drivers/lvgl/src/extra/widgets/led/../../../../src/hal/../draw/../misc/lv_color.h **** 
 130:Drivers/lvgl/src/extra/widgets/led/../../../../src/hal/../draw/../misc/lv_color.h **** # define LV_COLOR_SET_R16(c, v) (c).ch.red = (uint8_t)((v) & 0x1FU)
 131:Drivers/lvgl/src/extra/widgets/led/../../../../src/hal/../draw/../misc/lv_color.h **** #if LV_COLOR_16_SWAP == 0
 132:Drivers/lvgl/src/extra/widgets/led/../../../../src/hal/../draw/../misc/lv_color.h **** # define LV_COLOR_SET_G16(c, v) (c).ch.green = (uint8_t)((v) & 0x3FU)
 133:Drivers/lvgl/src/extra/widgets/led/../../../../src/hal/../draw/../misc/lv_color.h **** #else
 134:Drivers/lvgl/src/extra/widgets/led/../../../../src/hal/../draw/../misc/lv_color.h **** # define LV_COLOR_SET_G16(c, v) {(c).ch.green_h = (uint8_t)(((v) >> 3) & 0x7); (c).ch.green_l = (ui
 135:Drivers/lvgl/src/extra/widgets/led/../../../../src/hal/../draw/../misc/lv_color.h **** #endif
 136:Drivers/lvgl/src/extra/widgets/led/../../../../src/hal/../draw/../misc/lv_color.h **** # define LV_COLOR_SET_B16(c, v) (c).ch.blue = (uint8_t)((v) & 0x1FU)
 137:Drivers/lvgl/src/extra/widgets/led/../../../../src/hal/../draw/../misc/lv_color.h **** # define LV_COLOR_SET_A16(c, v) do {} while(0)
 138:Drivers/lvgl/src/extra/widgets/led/../../../../src/hal/../draw/../misc/lv_color.h **** 
 139:Drivers/lvgl/src/extra/widgets/led/../../../../src/hal/../draw/../misc/lv_color.h **** # define LV_COLOR_GET_R16(c) (c).ch.red
 140:Drivers/lvgl/src/extra/widgets/led/../../../../src/hal/../draw/../misc/lv_color.h **** #if LV_COLOR_16_SWAP == 0
 141:Drivers/lvgl/src/extra/widgets/led/../../../../src/hal/../draw/../misc/lv_color.h **** # define LV_COLOR_GET_G16(c) (c).ch.green
 142:Drivers/lvgl/src/extra/widgets/led/../../../../src/hal/../draw/../misc/lv_color.h **** #else
 143:Drivers/lvgl/src/extra/widgets/led/../../../../src/hal/../draw/../misc/lv_color.h **** # define LV_COLOR_GET_G16(c) (((c).ch.green_h << 3) + (c).ch.green_l)
 144:Drivers/lvgl/src/extra/widgets/led/../../../../src/hal/../draw/../misc/lv_color.h **** #endif
 145:Drivers/lvgl/src/extra/widgets/led/../../../../src/hal/../draw/../misc/lv_color.h **** # define LV_COLOR_GET_B16(c) (c).ch.blue
 146:Drivers/lvgl/src/extra/widgets/led/../../../../src/hal/../draw/../misc/lv_color.h **** # define LV_COLOR_GET_A16(c) 0xFF
 147:Drivers/lvgl/src/extra/widgets/led/../../../../src/hal/../draw/../misc/lv_color.h **** 
 148:Drivers/lvgl/src/extra/widgets/led/../../../../src/hal/../draw/../misc/lv_color.h **** #if LV_COLOR_16_SWAP == 0
 149:Drivers/lvgl/src/extra/widgets/led/../../../../src/hal/../draw/../misc/lv_color.h **** # define _LV_COLOR_ZERO_INITIALIZER16  {{0x00, 0x00, 0x00}}
 150:Drivers/lvgl/src/extra/widgets/led/../../../../src/hal/../draw/../misc/lv_color.h **** # define LV_COLOR_MAKE16(r8, g8, b8) {{(uint8_t)((b8 >> 3) & 0x1FU), (uint8_t)((g8 >> 2) & 0x3FU), 
 151:Drivers/lvgl/src/extra/widgets/led/../../../../src/hal/../draw/../misc/lv_color.h **** #else
 152:Drivers/lvgl/src/extra/widgets/led/../../../../src/hal/../draw/../misc/lv_color.h **** # define _LV_COLOR_ZERO_INITIALIZER16 {{0x00, 0x00, 0x00, 0x00}}
 153:Drivers/lvgl/src/extra/widgets/led/../../../../src/hal/../draw/../misc/lv_color.h **** # define LV_COLOR_MAKE16(r8, g8, b8) {{(uint8_t)((g8 >> 5) & 0x7U), (uint8_t)((r8 >> 3) & 0x1FU), (
 154:Drivers/lvgl/src/extra/widgets/led/../../../../src/hal/../draw/../misc/lv_color.h **** #endif
 155:Drivers/lvgl/src/extra/widgets/led/../../../../src/hal/../draw/../misc/lv_color.h **** 
 156:Drivers/lvgl/src/extra/widgets/led/../../../../src/hal/../draw/../misc/lv_color.h **** # define LV_COLOR_SET_R32(c, v) (c).ch.red = (uint8_t)((v) & 0xFF)
 157:Drivers/lvgl/src/extra/widgets/led/../../../../src/hal/../draw/../misc/lv_color.h **** # define LV_COLOR_SET_G32(c, v) (c).ch.green = (uint8_t)((v) & 0xFF)
 158:Drivers/lvgl/src/extra/widgets/led/../../../../src/hal/../draw/../misc/lv_color.h **** # define LV_COLOR_SET_B32(c, v) (c).ch.blue = (uint8_t)((v) & 0xFF)
 159:Drivers/lvgl/src/extra/widgets/led/../../../../src/hal/../draw/../misc/lv_color.h **** # define LV_COLOR_SET_A32(c, v) (c).ch.alpha = (uint8_t)((v) & 0xFF)
 160:Drivers/lvgl/src/extra/widgets/led/../../../../src/hal/../draw/../misc/lv_color.h **** 
 161:Drivers/lvgl/src/extra/widgets/led/../../../../src/hal/../draw/../misc/lv_color.h **** # define LV_COLOR_GET_R32(c) (c).ch.red
 162:Drivers/lvgl/src/extra/widgets/led/../../../../src/hal/../draw/../misc/lv_color.h **** # define LV_COLOR_GET_G32(c) (c).ch.green
 163:Drivers/lvgl/src/extra/widgets/led/../../../../src/hal/../draw/../misc/lv_color.h **** # define LV_COLOR_GET_B32(c) (c).ch.blue
 164:Drivers/lvgl/src/extra/widgets/led/../../../../src/hal/../draw/../misc/lv_color.h **** # define LV_COLOR_GET_A32(c) (c).ch.alpha
 165:Drivers/lvgl/src/extra/widgets/led/../../../../src/hal/../draw/../misc/lv_color.h **** 
 166:Drivers/lvgl/src/extra/widgets/led/../../../../src/hal/../draw/../misc/lv_color.h **** # define _LV_COLOR_ZERO_INITIALIZER32  {{0x00, 0x00, 0x00, 0x00}}
 167:Drivers/lvgl/src/extra/widgets/led/../../../../src/hal/../draw/../misc/lv_color.h **** # define LV_COLOR_MAKE32(r8, g8, b8) {{b8, g8, r8, 0xff}} /*Fix 0xff alpha*/
 168:Drivers/lvgl/src/extra/widgets/led/../../../../src/hal/../draw/../misc/lv_color.h **** 
 169:Drivers/lvgl/src/extra/widgets/led/../../../../src/hal/../draw/../misc/lv_color.h **** /*---------------------------------------
 170:Drivers/lvgl/src/extra/widgets/led/../../../../src/hal/../draw/../misc/lv_color.h ****  * Macros for the current color depth
 171:Drivers/lvgl/src/extra/widgets/led/../../../../src/hal/../draw/../misc/lv_color.h ****  * to set/get values of the color channels
 172:Drivers/lvgl/src/extra/widgets/led/../../../../src/hal/../draw/../misc/lv_color.h ****  *------------------------------------------*/
 173:Drivers/lvgl/src/extra/widgets/led/../../../../src/hal/../draw/../misc/lv_color.h **** #define LV_COLOR_SET_R(c, v) LV_CONCAT(LV_COLOR_SET_R, LV_COLOR_DEPTH)(c, v)
 174:Drivers/lvgl/src/extra/widgets/led/../../../../src/hal/../draw/../misc/lv_color.h **** #define LV_COLOR_SET_G(c, v) LV_CONCAT(LV_COLOR_SET_G, LV_COLOR_DEPTH)(c, v)
 175:Drivers/lvgl/src/extra/widgets/led/../../../../src/hal/../draw/../misc/lv_color.h **** #define LV_COLOR_SET_B(c, v) LV_CONCAT(LV_COLOR_SET_B, LV_COLOR_DEPTH)(c, v)
 176:Drivers/lvgl/src/extra/widgets/led/../../../../src/hal/../draw/../misc/lv_color.h **** #define LV_COLOR_SET_A(c, v) LV_CONCAT(LV_COLOR_SET_A, LV_COLOR_DEPTH)(c, v)
 177:Drivers/lvgl/src/extra/widgets/led/../../../../src/hal/../draw/../misc/lv_color.h **** 
 178:Drivers/lvgl/src/extra/widgets/led/../../../../src/hal/../draw/../misc/lv_color.h **** #define LV_COLOR_GET_R(c) LV_CONCAT(LV_COLOR_GET_R, LV_COLOR_DEPTH)(c)
 179:Drivers/lvgl/src/extra/widgets/led/../../../../src/hal/../draw/../misc/lv_color.h **** #define LV_COLOR_GET_G(c) LV_CONCAT(LV_COLOR_GET_G, LV_COLOR_DEPTH)(c)
 180:Drivers/lvgl/src/extra/widgets/led/../../../../src/hal/../draw/../misc/lv_color.h **** #define LV_COLOR_GET_B(c) LV_CONCAT(LV_COLOR_GET_B, LV_COLOR_DEPTH)(c)
 181:Drivers/lvgl/src/extra/widgets/led/../../../../src/hal/../draw/../misc/lv_color.h **** #define LV_COLOR_GET_A(c) LV_CONCAT(LV_COLOR_GET_A, LV_COLOR_DEPTH)(c)
 182:Drivers/lvgl/src/extra/widgets/led/../../../../src/hal/../draw/../misc/lv_color.h **** 
 183:Drivers/lvgl/src/extra/widgets/led/../../../../src/hal/../draw/../misc/lv_color.h **** #define _LV_COLOR_ZERO_INITIALIZER LV_CONCAT(_LV_COLOR_ZERO_INITIALIZER, LV_COLOR_DEPTH)
 184:Drivers/lvgl/src/extra/widgets/led/../../../../src/hal/../draw/../misc/lv_color.h **** #define LV_COLOR_MAKE(r8, g8, b8) LV_CONCAT(LV_COLOR_MAKE, LV_COLOR_DEPTH)(r8, g8, b8)
ARM GAS  /var/folders/0z/tsy30v1j4xl4_7kw94k978ww0000gn/T//ccCXLm7m.s 			page 11


 185:Drivers/lvgl/src/extra/widgets/led/../../../../src/hal/../draw/../misc/lv_color.h **** 
 186:Drivers/lvgl/src/extra/widgets/led/../../../../src/hal/../draw/../misc/lv_color.h **** /**********************
 187:Drivers/lvgl/src/extra/widgets/led/../../../../src/hal/../draw/../misc/lv_color.h ****  *      TYPEDEFS
 188:Drivers/lvgl/src/extra/widgets/led/../../../../src/hal/../draw/../misc/lv_color.h ****  **********************/
 189:Drivers/lvgl/src/extra/widgets/led/../../../../src/hal/../draw/../misc/lv_color.h **** 
 190:Drivers/lvgl/src/extra/widgets/led/../../../../src/hal/../draw/../misc/lv_color.h **** typedef union {
 191:Drivers/lvgl/src/extra/widgets/led/../../../../src/hal/../draw/../misc/lv_color.h ****     uint8_t full; /*must be declared first to set all bits of byte via initializer list*/
 192:Drivers/lvgl/src/extra/widgets/led/../../../../src/hal/../draw/../misc/lv_color.h ****     union {
 193:Drivers/lvgl/src/extra/widgets/led/../../../../src/hal/../draw/../misc/lv_color.h ****         uint8_t blue : 1;
 194:Drivers/lvgl/src/extra/widgets/led/../../../../src/hal/../draw/../misc/lv_color.h ****         uint8_t green : 1;
 195:Drivers/lvgl/src/extra/widgets/led/../../../../src/hal/../draw/../misc/lv_color.h ****         uint8_t red : 1;
 196:Drivers/lvgl/src/extra/widgets/led/../../../../src/hal/../draw/../misc/lv_color.h ****     } ch;
 197:Drivers/lvgl/src/extra/widgets/led/../../../../src/hal/../draw/../misc/lv_color.h **** } lv_color1_t;
 198:Drivers/lvgl/src/extra/widgets/led/../../../../src/hal/../draw/../misc/lv_color.h **** 
 199:Drivers/lvgl/src/extra/widgets/led/../../../../src/hal/../draw/../misc/lv_color.h **** typedef union {
 200:Drivers/lvgl/src/extra/widgets/led/../../../../src/hal/../draw/../misc/lv_color.h ****     struct {
 201:Drivers/lvgl/src/extra/widgets/led/../../../../src/hal/../draw/../misc/lv_color.h ****         uint8_t blue : 2;
 202:Drivers/lvgl/src/extra/widgets/led/../../../../src/hal/../draw/../misc/lv_color.h ****         uint8_t green : 3;
 203:Drivers/lvgl/src/extra/widgets/led/../../../../src/hal/../draw/../misc/lv_color.h ****         uint8_t red : 3;
 204:Drivers/lvgl/src/extra/widgets/led/../../../../src/hal/../draw/../misc/lv_color.h ****     } ch;
 205:Drivers/lvgl/src/extra/widgets/led/../../../../src/hal/../draw/../misc/lv_color.h ****     uint8_t full;
 206:Drivers/lvgl/src/extra/widgets/led/../../../../src/hal/../draw/../misc/lv_color.h **** } lv_color8_t;
 207:Drivers/lvgl/src/extra/widgets/led/../../../../src/hal/../draw/../misc/lv_color.h **** 
 208:Drivers/lvgl/src/extra/widgets/led/../../../../src/hal/../draw/../misc/lv_color.h **** typedef union {
 209:Drivers/lvgl/src/extra/widgets/led/../../../../src/hal/../draw/../misc/lv_color.h ****     struct {
 210:Drivers/lvgl/src/extra/widgets/led/../../../../src/hal/../draw/../misc/lv_color.h **** #if LV_COLOR_16_SWAP == 0
 211:Drivers/lvgl/src/extra/widgets/led/../../../../src/hal/../draw/../misc/lv_color.h ****         uint16_t blue : 5;
 212:Drivers/lvgl/src/extra/widgets/led/../../../../src/hal/../draw/../misc/lv_color.h ****         uint16_t green : 6;
 213:Drivers/lvgl/src/extra/widgets/led/../../../../src/hal/../draw/../misc/lv_color.h ****         uint16_t red : 5;
 214:Drivers/lvgl/src/extra/widgets/led/../../../../src/hal/../draw/../misc/lv_color.h **** #else
 215:Drivers/lvgl/src/extra/widgets/led/../../../../src/hal/../draw/../misc/lv_color.h ****         uint16_t green_h : 3;
 216:Drivers/lvgl/src/extra/widgets/led/../../../../src/hal/../draw/../misc/lv_color.h ****         uint16_t red : 5;
 217:Drivers/lvgl/src/extra/widgets/led/../../../../src/hal/../draw/../misc/lv_color.h ****         uint16_t blue : 5;
 218:Drivers/lvgl/src/extra/widgets/led/../../../../src/hal/../draw/../misc/lv_color.h ****         uint16_t green_l : 3;
 219:Drivers/lvgl/src/extra/widgets/led/../../../../src/hal/../draw/../misc/lv_color.h **** #endif
 220:Drivers/lvgl/src/extra/widgets/led/../../../../src/hal/../draw/../misc/lv_color.h ****     } ch;
 221:Drivers/lvgl/src/extra/widgets/led/../../../../src/hal/../draw/../misc/lv_color.h ****     uint16_t full;
 222:Drivers/lvgl/src/extra/widgets/led/../../../../src/hal/../draw/../misc/lv_color.h **** } lv_color16_t;
 223:Drivers/lvgl/src/extra/widgets/led/../../../../src/hal/../draw/../misc/lv_color.h **** 
 224:Drivers/lvgl/src/extra/widgets/led/../../../../src/hal/../draw/../misc/lv_color.h **** typedef union {
 225:Drivers/lvgl/src/extra/widgets/led/../../../../src/hal/../draw/../misc/lv_color.h ****     struct {
 226:Drivers/lvgl/src/extra/widgets/led/../../../../src/hal/../draw/../misc/lv_color.h ****         uint8_t blue;
 227:Drivers/lvgl/src/extra/widgets/led/../../../../src/hal/../draw/../misc/lv_color.h ****         uint8_t green;
 228:Drivers/lvgl/src/extra/widgets/led/../../../../src/hal/../draw/../misc/lv_color.h ****         uint8_t red;
 229:Drivers/lvgl/src/extra/widgets/led/../../../../src/hal/../draw/../misc/lv_color.h ****         uint8_t alpha;
 230:Drivers/lvgl/src/extra/widgets/led/../../../../src/hal/../draw/../misc/lv_color.h ****     } ch;
 231:Drivers/lvgl/src/extra/widgets/led/../../../../src/hal/../draw/../misc/lv_color.h ****     uint32_t full;
 232:Drivers/lvgl/src/extra/widgets/led/../../../../src/hal/../draw/../misc/lv_color.h **** } lv_color32_t;
 233:Drivers/lvgl/src/extra/widgets/led/../../../../src/hal/../draw/../misc/lv_color.h **** 
 234:Drivers/lvgl/src/extra/widgets/led/../../../../src/hal/../draw/../misc/lv_color.h **** typedef LV_CONCAT3(uint, LV_COLOR_SIZE, _t) lv_color_int_t;
 235:Drivers/lvgl/src/extra/widgets/led/../../../../src/hal/../draw/../misc/lv_color.h **** typedef LV_CONCAT3(lv_color, LV_COLOR_DEPTH, _t) lv_color_t;
 236:Drivers/lvgl/src/extra/widgets/led/../../../../src/hal/../draw/../misc/lv_color.h **** 
 237:Drivers/lvgl/src/extra/widgets/led/../../../../src/hal/../draw/../misc/lv_color.h **** typedef struct {
 238:Drivers/lvgl/src/extra/widgets/led/../../../../src/hal/../draw/../misc/lv_color.h ****     uint16_t h;
 239:Drivers/lvgl/src/extra/widgets/led/../../../../src/hal/../draw/../misc/lv_color.h ****     uint8_t s;
 240:Drivers/lvgl/src/extra/widgets/led/../../../../src/hal/../draw/../misc/lv_color.h ****     uint8_t v;
 241:Drivers/lvgl/src/extra/widgets/led/../../../../src/hal/../draw/../misc/lv_color.h **** } lv_color_hsv_t;
ARM GAS  /var/folders/0z/tsy30v1j4xl4_7kw94k978ww0000gn/T//ccCXLm7m.s 			page 12


 242:Drivers/lvgl/src/extra/widgets/led/../../../../src/hal/../draw/../misc/lv_color.h **** 
 243:Drivers/lvgl/src/extra/widgets/led/../../../../src/hal/../draw/../misc/lv_color.h **** //! @cond Doxygen_Suppress
 244:Drivers/lvgl/src/extra/widgets/led/../../../../src/hal/../draw/../misc/lv_color.h **** /*No idea where the guard is required but else throws warnings in the docs*/
 245:Drivers/lvgl/src/extra/widgets/led/../../../../src/hal/../draw/../misc/lv_color.h **** typedef uint8_t lv_opa_t;
 246:Drivers/lvgl/src/extra/widgets/led/../../../../src/hal/../draw/../misc/lv_color.h **** //! @endcond
 247:Drivers/lvgl/src/extra/widgets/led/../../../../src/hal/../draw/../misc/lv_color.h **** 
 248:Drivers/lvgl/src/extra/widgets/led/../../../../src/hal/../draw/../misc/lv_color.h **** struct _lv_color_filter_dsc_t;
 249:Drivers/lvgl/src/extra/widgets/led/../../../../src/hal/../draw/../misc/lv_color.h **** 
 250:Drivers/lvgl/src/extra/widgets/led/../../../../src/hal/../draw/../misc/lv_color.h **** typedef lv_color_t (*lv_color_filter_cb_t)(const struct _lv_color_filter_dsc_t *, lv_color_t, lv_op
 251:Drivers/lvgl/src/extra/widgets/led/../../../../src/hal/../draw/../misc/lv_color.h **** 
 252:Drivers/lvgl/src/extra/widgets/led/../../../../src/hal/../draw/../misc/lv_color.h **** typedef struct _lv_color_filter_dsc_t {
 253:Drivers/lvgl/src/extra/widgets/led/../../../../src/hal/../draw/../misc/lv_color.h ****     lv_color_filter_cb_t filter_cb;
 254:Drivers/lvgl/src/extra/widgets/led/../../../../src/hal/../draw/../misc/lv_color.h ****     void * user_data;
 255:Drivers/lvgl/src/extra/widgets/led/../../../../src/hal/../draw/../misc/lv_color.h **** } lv_color_filter_dsc_t;
 256:Drivers/lvgl/src/extra/widgets/led/../../../../src/hal/../draw/../misc/lv_color.h **** 
 257:Drivers/lvgl/src/extra/widgets/led/../../../../src/hal/../draw/../misc/lv_color.h **** 
 258:Drivers/lvgl/src/extra/widgets/led/../../../../src/hal/../draw/../misc/lv_color.h **** typedef enum {
 259:Drivers/lvgl/src/extra/widgets/led/../../../../src/hal/../draw/../misc/lv_color.h ****     LV_PALETTE_RED,
 260:Drivers/lvgl/src/extra/widgets/led/../../../../src/hal/../draw/../misc/lv_color.h ****     LV_PALETTE_PINK,
 261:Drivers/lvgl/src/extra/widgets/led/../../../../src/hal/../draw/../misc/lv_color.h ****     LV_PALETTE_PURPLE,
 262:Drivers/lvgl/src/extra/widgets/led/../../../../src/hal/../draw/../misc/lv_color.h ****     LV_PALETTE_DEEP_PURPLE,
 263:Drivers/lvgl/src/extra/widgets/led/../../../../src/hal/../draw/../misc/lv_color.h ****     LV_PALETTE_INDIGO,
 264:Drivers/lvgl/src/extra/widgets/led/../../../../src/hal/../draw/../misc/lv_color.h ****     LV_PALETTE_BLUE,
 265:Drivers/lvgl/src/extra/widgets/led/../../../../src/hal/../draw/../misc/lv_color.h ****     LV_PALETTE_LIGHT_BLUE,
 266:Drivers/lvgl/src/extra/widgets/led/../../../../src/hal/../draw/../misc/lv_color.h ****     LV_PALETTE_CYAN,
 267:Drivers/lvgl/src/extra/widgets/led/../../../../src/hal/../draw/../misc/lv_color.h ****     LV_PALETTE_TEAL,
 268:Drivers/lvgl/src/extra/widgets/led/../../../../src/hal/../draw/../misc/lv_color.h ****     LV_PALETTE_GREEN,
 269:Drivers/lvgl/src/extra/widgets/led/../../../../src/hal/../draw/../misc/lv_color.h ****     LV_PALETTE_LIGHT_GREEN,
 270:Drivers/lvgl/src/extra/widgets/led/../../../../src/hal/../draw/../misc/lv_color.h ****     LV_PALETTE_LIME,
 271:Drivers/lvgl/src/extra/widgets/led/../../../../src/hal/../draw/../misc/lv_color.h ****     LV_PALETTE_YELLOW,
 272:Drivers/lvgl/src/extra/widgets/led/../../../../src/hal/../draw/../misc/lv_color.h ****     LV_PALETTE_AMBER,
 273:Drivers/lvgl/src/extra/widgets/led/../../../../src/hal/../draw/../misc/lv_color.h ****     LV_PALETTE_ORANGE,
 274:Drivers/lvgl/src/extra/widgets/led/../../../../src/hal/../draw/../misc/lv_color.h ****     LV_PALETTE_DEEP_ORANGE,
 275:Drivers/lvgl/src/extra/widgets/led/../../../../src/hal/../draw/../misc/lv_color.h ****     LV_PALETTE_BROWN,
 276:Drivers/lvgl/src/extra/widgets/led/../../../../src/hal/../draw/../misc/lv_color.h ****     LV_PALETTE_BLUE_GREY,
 277:Drivers/lvgl/src/extra/widgets/led/../../../../src/hal/../draw/../misc/lv_color.h ****     LV_PALETTE_GREY,
 278:Drivers/lvgl/src/extra/widgets/led/../../../../src/hal/../draw/../misc/lv_color.h ****     _LV_PALETTE_LAST,
 279:Drivers/lvgl/src/extra/widgets/led/../../../../src/hal/../draw/../misc/lv_color.h ****     LV_PALETTE_NONE = 0xff,
 280:Drivers/lvgl/src/extra/widgets/led/../../../../src/hal/../draw/../misc/lv_color.h **** } lv_palette_t;
 281:Drivers/lvgl/src/extra/widgets/led/../../../../src/hal/../draw/../misc/lv_color.h **** 
 282:Drivers/lvgl/src/extra/widgets/led/../../../../src/hal/../draw/../misc/lv_color.h **** /**********************
 283:Drivers/lvgl/src/extra/widgets/led/../../../../src/hal/../draw/../misc/lv_color.h ****  * GLOBAL PROTOTYPES
 284:Drivers/lvgl/src/extra/widgets/led/../../../../src/hal/../draw/../misc/lv_color.h ****  **********************/
 285:Drivers/lvgl/src/extra/widgets/led/../../../../src/hal/../draw/../misc/lv_color.h **** 
 286:Drivers/lvgl/src/extra/widgets/led/../../../../src/hal/../draw/../misc/lv_color.h **** /*In color conversations:
 287:Drivers/lvgl/src/extra/widgets/led/../../../../src/hal/../draw/../misc/lv_color.h ****  * - When converting to bigger color type the LSB weight of 1 LSB is calculated
 288:Drivers/lvgl/src/extra/widgets/led/../../../../src/hal/../draw/../misc/lv_color.h ****  *   E.g. 16 bit Red has 5 bits
 289:Drivers/lvgl/src/extra/widgets/led/../../../../src/hal/../draw/../misc/lv_color.h ****  *         8 bit Red has 3 bits
 290:Drivers/lvgl/src/extra/widgets/led/../../../../src/hal/../draw/../misc/lv_color.h ****  *        ----------------------
 291:Drivers/lvgl/src/extra/widgets/led/../../../../src/hal/../draw/../misc/lv_color.h ****  *        8 bit red LSB = (2^5 - 1) / (2^3 - 1) = 31 / 7 = 4
 292:Drivers/lvgl/src/extra/widgets/led/../../../../src/hal/../draw/../misc/lv_color.h ****  *
 293:Drivers/lvgl/src/extra/widgets/led/../../../../src/hal/../draw/../misc/lv_color.h ****  * - When calculating to smaller color type simply shift out the LSBs
 294:Drivers/lvgl/src/extra/widgets/led/../../../../src/hal/../draw/../misc/lv_color.h ****  *   E.g.  8 bit Red has 3 bits
 295:Drivers/lvgl/src/extra/widgets/led/../../../../src/hal/../draw/../misc/lv_color.h ****  *        16 bit Red has 5 bits
 296:Drivers/lvgl/src/extra/widgets/led/../../../../src/hal/../draw/../misc/lv_color.h ****  *        ----------------------
 297:Drivers/lvgl/src/extra/widgets/led/../../../../src/hal/../draw/../misc/lv_color.h ****  *         Shift right with 5 - 3 = 2
 298:Drivers/lvgl/src/extra/widgets/led/../../../../src/hal/../draw/../misc/lv_color.h ****  */
ARM GAS  /var/folders/0z/tsy30v1j4xl4_7kw94k978ww0000gn/T//ccCXLm7m.s 			page 13


 299:Drivers/lvgl/src/extra/widgets/led/../../../../src/hal/../draw/../misc/lv_color.h **** static inline uint8_t lv_color_to1(lv_color_t color)
 300:Drivers/lvgl/src/extra/widgets/led/../../../../src/hal/../draw/../misc/lv_color.h **** {
 301:Drivers/lvgl/src/extra/widgets/led/../../../../src/hal/../draw/../misc/lv_color.h **** #if LV_COLOR_DEPTH == 1
 302:Drivers/lvgl/src/extra/widgets/led/../../../../src/hal/../draw/../misc/lv_color.h ****     return color.full;
 303:Drivers/lvgl/src/extra/widgets/led/../../../../src/hal/../draw/../misc/lv_color.h **** #elif LV_COLOR_DEPTH == 8
 304:Drivers/lvgl/src/extra/widgets/led/../../../../src/hal/../draw/../misc/lv_color.h ****     if((LV_COLOR_GET_R(color) & 0x4) || (LV_COLOR_GET_G(color) & 0x4) || (LV_COLOR_GET_B(color) & 0
 305:Drivers/lvgl/src/extra/widgets/led/../../../../src/hal/../draw/../misc/lv_color.h ****         return 1;
 306:Drivers/lvgl/src/extra/widgets/led/../../../../src/hal/../draw/../misc/lv_color.h ****     }
 307:Drivers/lvgl/src/extra/widgets/led/../../../../src/hal/../draw/../misc/lv_color.h ****     else {
 308:Drivers/lvgl/src/extra/widgets/led/../../../../src/hal/../draw/../misc/lv_color.h ****         return 0;
 309:Drivers/lvgl/src/extra/widgets/led/../../../../src/hal/../draw/../misc/lv_color.h ****     }
 310:Drivers/lvgl/src/extra/widgets/led/../../../../src/hal/../draw/../misc/lv_color.h **** #elif LV_COLOR_DEPTH == 16
 311:Drivers/lvgl/src/extra/widgets/led/../../../../src/hal/../draw/../misc/lv_color.h ****     if((LV_COLOR_GET_R(color) & 0x10) || (LV_COLOR_GET_G(color) & 0x20) || (LV_COLOR_GET_B(color) &
 312:Drivers/lvgl/src/extra/widgets/led/../../../../src/hal/../draw/../misc/lv_color.h ****         return 1;
 313:Drivers/lvgl/src/extra/widgets/led/../../../../src/hal/../draw/../misc/lv_color.h ****     }
 314:Drivers/lvgl/src/extra/widgets/led/../../../../src/hal/../draw/../misc/lv_color.h ****     else {
 315:Drivers/lvgl/src/extra/widgets/led/../../../../src/hal/../draw/../misc/lv_color.h ****         return 0;
 316:Drivers/lvgl/src/extra/widgets/led/../../../../src/hal/../draw/../misc/lv_color.h ****     }
 317:Drivers/lvgl/src/extra/widgets/led/../../../../src/hal/../draw/../misc/lv_color.h **** #elif LV_COLOR_DEPTH == 32
 318:Drivers/lvgl/src/extra/widgets/led/../../../../src/hal/../draw/../misc/lv_color.h ****     if((LV_COLOR_GET_R(color) & 0x80) || (LV_COLOR_GET_G(color) & 0x80) || (LV_COLOR_GET_B(color) &
 319:Drivers/lvgl/src/extra/widgets/led/../../../../src/hal/../draw/../misc/lv_color.h ****         return 1;
 320:Drivers/lvgl/src/extra/widgets/led/../../../../src/hal/../draw/../misc/lv_color.h ****     }
 321:Drivers/lvgl/src/extra/widgets/led/../../../../src/hal/../draw/../misc/lv_color.h ****     else {
 322:Drivers/lvgl/src/extra/widgets/led/../../../../src/hal/../draw/../misc/lv_color.h ****         return 0;
 323:Drivers/lvgl/src/extra/widgets/led/../../../../src/hal/../draw/../misc/lv_color.h ****     }
 324:Drivers/lvgl/src/extra/widgets/led/../../../../src/hal/../draw/../misc/lv_color.h **** #endif
 325:Drivers/lvgl/src/extra/widgets/led/../../../../src/hal/../draw/../misc/lv_color.h **** }
 326:Drivers/lvgl/src/extra/widgets/led/../../../../src/hal/../draw/../misc/lv_color.h **** 
 327:Drivers/lvgl/src/extra/widgets/led/../../../../src/hal/../draw/../misc/lv_color.h **** static inline uint8_t lv_color_to8(lv_color_t color)
 328:Drivers/lvgl/src/extra/widgets/led/../../../../src/hal/../draw/../misc/lv_color.h **** {
 329:Drivers/lvgl/src/extra/widgets/led/../../../../src/hal/../draw/../misc/lv_color.h **** #if LV_COLOR_DEPTH == 1
 330:Drivers/lvgl/src/extra/widgets/led/../../../../src/hal/../draw/../misc/lv_color.h ****     if(color.full == 0)
 331:Drivers/lvgl/src/extra/widgets/led/../../../../src/hal/../draw/../misc/lv_color.h ****         return 0;
 332:Drivers/lvgl/src/extra/widgets/led/../../../../src/hal/../draw/../misc/lv_color.h ****     else
 333:Drivers/lvgl/src/extra/widgets/led/../../../../src/hal/../draw/../misc/lv_color.h ****         return 0xFF;
 334:Drivers/lvgl/src/extra/widgets/led/../../../../src/hal/../draw/../misc/lv_color.h **** #elif LV_COLOR_DEPTH == 8
 335:Drivers/lvgl/src/extra/widgets/led/../../../../src/hal/../draw/../misc/lv_color.h ****     return color.full;
 336:Drivers/lvgl/src/extra/widgets/led/../../../../src/hal/../draw/../misc/lv_color.h **** #elif LV_COLOR_DEPTH == 16
 337:Drivers/lvgl/src/extra/widgets/led/../../../../src/hal/../draw/../misc/lv_color.h ****     lv_color8_t ret;
 338:Drivers/lvgl/src/extra/widgets/led/../../../../src/hal/../draw/../misc/lv_color.h ****     LV_COLOR_SET_R8(ret, LV_COLOR_GET_R(color) >> 2); /*5 - 3  = 2*/
 339:Drivers/lvgl/src/extra/widgets/led/../../../../src/hal/../draw/../misc/lv_color.h ****     LV_COLOR_SET_G8(ret, LV_COLOR_GET_G(color) >> 3); /*6 - 3  = 3*/
 340:Drivers/lvgl/src/extra/widgets/led/../../../../src/hal/../draw/../misc/lv_color.h ****     LV_COLOR_SET_B8(ret, LV_COLOR_GET_B(color) >> 3); /*5 - 2  = 3*/
 341:Drivers/lvgl/src/extra/widgets/led/../../../../src/hal/../draw/../misc/lv_color.h ****     return ret.full;
 342:Drivers/lvgl/src/extra/widgets/led/../../../../src/hal/../draw/../misc/lv_color.h **** #elif LV_COLOR_DEPTH == 32
 343:Drivers/lvgl/src/extra/widgets/led/../../../../src/hal/../draw/../misc/lv_color.h ****     lv_color8_t ret;
 344:Drivers/lvgl/src/extra/widgets/led/../../../../src/hal/../draw/../misc/lv_color.h ****     LV_COLOR_SET_R8(ret, LV_COLOR_GET_R(color) >> 5); /*8 - 3  = 5*/
 345:Drivers/lvgl/src/extra/widgets/led/../../../../src/hal/../draw/../misc/lv_color.h ****     LV_COLOR_SET_G8(ret, LV_COLOR_GET_G(color) >> 5); /*8 - 3  = 5*/
 346:Drivers/lvgl/src/extra/widgets/led/../../../../src/hal/../draw/../misc/lv_color.h ****     LV_COLOR_SET_B8(ret, LV_COLOR_GET_B(color) >> 6); /*8 - 2  = 6*/
 347:Drivers/lvgl/src/extra/widgets/led/../../../../src/hal/../draw/../misc/lv_color.h ****     return ret.full;
 348:Drivers/lvgl/src/extra/widgets/led/../../../../src/hal/../draw/../misc/lv_color.h **** #endif
 349:Drivers/lvgl/src/extra/widgets/led/../../../../src/hal/../draw/../misc/lv_color.h **** }
 350:Drivers/lvgl/src/extra/widgets/led/../../../../src/hal/../draw/../misc/lv_color.h **** 
 351:Drivers/lvgl/src/extra/widgets/led/../../../../src/hal/../draw/../misc/lv_color.h **** static inline uint16_t lv_color_to16(lv_color_t color)
 352:Drivers/lvgl/src/extra/widgets/led/../../../../src/hal/../draw/../misc/lv_color.h **** {
 353:Drivers/lvgl/src/extra/widgets/led/../../../../src/hal/../draw/../misc/lv_color.h **** #if LV_COLOR_DEPTH == 1
 354:Drivers/lvgl/src/extra/widgets/led/../../../../src/hal/../draw/../misc/lv_color.h ****     if(color.full == 0)
 355:Drivers/lvgl/src/extra/widgets/led/../../../../src/hal/../draw/../misc/lv_color.h ****         return 0;
ARM GAS  /var/folders/0z/tsy30v1j4xl4_7kw94k978ww0000gn/T//ccCXLm7m.s 			page 14


 356:Drivers/lvgl/src/extra/widgets/led/../../../../src/hal/../draw/../misc/lv_color.h ****     else
 357:Drivers/lvgl/src/extra/widgets/led/../../../../src/hal/../draw/../misc/lv_color.h ****         return 0xFFFF;
 358:Drivers/lvgl/src/extra/widgets/led/../../../../src/hal/../draw/../misc/lv_color.h **** #elif LV_COLOR_DEPTH == 8
 359:Drivers/lvgl/src/extra/widgets/led/../../../../src/hal/../draw/../misc/lv_color.h ****     lv_color16_t ret;
 360:Drivers/lvgl/src/extra/widgets/led/../../../../src/hal/../draw/../misc/lv_color.h ****     LV_COLOR_SET_R16(ret, LV_COLOR_GET_R(color) * 4);  /*(2^5 - 1)/(2^3 - 1) = 31/7 = 4*/
 361:Drivers/lvgl/src/extra/widgets/led/../../../../src/hal/../draw/../misc/lv_color.h ****     LV_COLOR_SET_G16(ret, LV_COLOR_GET_G(color) * 9);  /*(2^6 - 1)/(2^3 - 1) = 63/7 = 9*/
 362:Drivers/lvgl/src/extra/widgets/led/../../../../src/hal/../draw/../misc/lv_color.h ****     LV_COLOR_SET_B16(ret, LV_COLOR_GET_B(color) * 10); /*(2^5 - 1)/(2^2 - 1) = 31/3 = 10*/
 363:Drivers/lvgl/src/extra/widgets/led/../../../../src/hal/../draw/../misc/lv_color.h ****     return ret.full;
 364:Drivers/lvgl/src/extra/widgets/led/../../../../src/hal/../draw/../misc/lv_color.h **** #elif LV_COLOR_DEPTH == 16
 365:Drivers/lvgl/src/extra/widgets/led/../../../../src/hal/../draw/../misc/lv_color.h ****     return color.full;
 366:Drivers/lvgl/src/extra/widgets/led/../../../../src/hal/../draw/../misc/lv_color.h **** #elif LV_COLOR_DEPTH == 32
 367:Drivers/lvgl/src/extra/widgets/led/../../../../src/hal/../draw/../misc/lv_color.h ****     lv_color16_t ret;
 368:Drivers/lvgl/src/extra/widgets/led/../../../../src/hal/../draw/../misc/lv_color.h ****     LV_COLOR_SET_R16(ret, LV_COLOR_GET_R(color) >> 3); /*8 - 5  = 3*/
 369:Drivers/lvgl/src/extra/widgets/led/../../../../src/hal/../draw/../misc/lv_color.h ****     LV_COLOR_SET_G16(ret, LV_COLOR_GET_G(color) >> 2); /*8 - 6  = 2*/
 370:Drivers/lvgl/src/extra/widgets/led/../../../../src/hal/../draw/../misc/lv_color.h ****     LV_COLOR_SET_B16(ret, LV_COLOR_GET_B(color) >> 3); /*8 - 5  = 3*/
 371:Drivers/lvgl/src/extra/widgets/led/../../../../src/hal/../draw/../misc/lv_color.h ****     return ret.full;
 372:Drivers/lvgl/src/extra/widgets/led/../../../../src/hal/../draw/../misc/lv_color.h **** #endif
 373:Drivers/lvgl/src/extra/widgets/led/../../../../src/hal/../draw/../misc/lv_color.h **** }
 374:Drivers/lvgl/src/extra/widgets/led/../../../../src/hal/../draw/../misc/lv_color.h **** 
 375:Drivers/lvgl/src/extra/widgets/led/../../../../src/hal/../draw/../misc/lv_color.h **** static inline uint32_t lv_color_to32(lv_color_t color)
 376:Drivers/lvgl/src/extra/widgets/led/../../../../src/hal/../draw/../misc/lv_color.h **** {
 377:Drivers/lvgl/src/extra/widgets/led/../../../../src/hal/../draw/../misc/lv_color.h **** #if LV_COLOR_DEPTH == 1
 378:Drivers/lvgl/src/extra/widgets/led/../../../../src/hal/../draw/../misc/lv_color.h ****     if(color.full == 0)
 379:Drivers/lvgl/src/extra/widgets/led/../../../../src/hal/../draw/../misc/lv_color.h ****         return 0xFF000000;
 380:Drivers/lvgl/src/extra/widgets/led/../../../../src/hal/../draw/../misc/lv_color.h ****     else
 381:Drivers/lvgl/src/extra/widgets/led/../../../../src/hal/../draw/../misc/lv_color.h ****         return 0xFFFFFFFF;
 382:Drivers/lvgl/src/extra/widgets/led/../../../../src/hal/../draw/../misc/lv_color.h **** #elif LV_COLOR_DEPTH == 8
 383:Drivers/lvgl/src/extra/widgets/led/../../../../src/hal/../draw/../misc/lv_color.h ****     lv_color32_t ret;
 384:Drivers/lvgl/src/extra/widgets/led/../../../../src/hal/../draw/../misc/lv_color.h ****     LV_COLOR_SET_R32(ret, LV_COLOR_GET_R(color) * 36); /*(2^8 - 1)/(2^3 - 1) = 255/7 = 36*/
 385:Drivers/lvgl/src/extra/widgets/led/../../../../src/hal/../draw/../misc/lv_color.h ****     LV_COLOR_SET_G32(ret, LV_COLOR_GET_G(color) * 36); /*(2^8 - 1)/(2^3 - 1) = 255/7 = 36*/
 386:Drivers/lvgl/src/extra/widgets/led/../../../../src/hal/../draw/../misc/lv_color.h ****     LV_COLOR_SET_B32(ret, LV_COLOR_GET_B(color) * 85); /*(2^8 - 1)/(2^2 - 1) = 255/3 = 85*/
 387:Drivers/lvgl/src/extra/widgets/led/../../../../src/hal/../draw/../misc/lv_color.h ****     LV_COLOR_SET_A32(ret, 0xFF);
 388:Drivers/lvgl/src/extra/widgets/led/../../../../src/hal/../draw/../misc/lv_color.h ****     return ret.full;
 389:Drivers/lvgl/src/extra/widgets/led/../../../../src/hal/../draw/../misc/lv_color.h **** #elif LV_COLOR_DEPTH == 16
 390:Drivers/lvgl/src/extra/widgets/led/../../../../src/hal/../draw/../misc/lv_color.h ****     /**
 391:Drivers/lvgl/src/extra/widgets/led/../../../../src/hal/../draw/../misc/lv_color.h ****      * The floating point math for conversion is:
 392:Drivers/lvgl/src/extra/widgets/led/../../../../src/hal/../draw/../misc/lv_color.h ****      *  valueto = valuefrom * ( (2^bitsto - 1) / (float)(2^bitsfrom - 1) )
 393:Drivers/lvgl/src/extra/widgets/led/../../../../src/hal/../draw/../misc/lv_color.h ****      * The faster integer math for conversion is:
 394:Drivers/lvgl/src/extra/widgets/led/../../../../src/hal/../draw/../misc/lv_color.h ****      *  valueto = ( valuefrom * multiplier + adder ) >> divisor
 395:Drivers/lvgl/src/extra/widgets/led/../../../../src/hal/../draw/../misc/lv_color.h ****      *   multiplier = FLOOR( ( (2^bitsto - 1) << divisor ) / (float)(2^bitsfrom - 1) )
 396:Drivers/lvgl/src/extra/widgets/led/../../../../src/hal/../draw/../misc/lv_color.h ****      *
 397:Drivers/lvgl/src/extra/widgets/led/../../../../src/hal/../draw/../misc/lv_color.h ****      * Find the first divisor where ( adder >> divisor ) <= 0
 398:Drivers/lvgl/src/extra/widgets/led/../../../../src/hal/../draw/../misc/lv_color.h ****      *
 399:Drivers/lvgl/src/extra/widgets/led/../../../../src/hal/../draw/../misc/lv_color.h ****      * 5-bit to 8-bit: ( 31 * multiplier + adder ) >> divisor = 255
 400:Drivers/lvgl/src/extra/widgets/led/../../../../src/hal/../draw/../misc/lv_color.h ****      * divisor  multiplier  adder  min (0)  max (31)
 401:Drivers/lvgl/src/extra/widgets/led/../../../../src/hal/../draw/../misc/lv_color.h ****      *       0           8      7        7       255
 402:Drivers/lvgl/src/extra/widgets/led/../../../../src/hal/../draw/../misc/lv_color.h ****      *       1          16     14        7       255
 403:Drivers/lvgl/src/extra/widgets/led/../../../../src/hal/../draw/../misc/lv_color.h ****      *       2          32     28        7       255
 404:Drivers/lvgl/src/extra/widgets/led/../../../../src/hal/../draw/../misc/lv_color.h ****      *       3          65     25        3       255
 405:Drivers/lvgl/src/extra/widgets/led/../../../../src/hal/../draw/../misc/lv_color.h ****      *       4         131     19        1       255
 406:Drivers/lvgl/src/extra/widgets/led/../../../../src/hal/../draw/../misc/lv_color.h ****      *       5         263      7        0       255
 407:Drivers/lvgl/src/extra/widgets/led/../../../../src/hal/../draw/../misc/lv_color.h ****      *
 408:Drivers/lvgl/src/extra/widgets/led/../../../../src/hal/../draw/../misc/lv_color.h ****      * 6-bit to 8-bit: 255 = ( 63 * multiplier + adder ) >> divisor
 409:Drivers/lvgl/src/extra/widgets/led/../../../../src/hal/../draw/../misc/lv_color.h ****      * divisor  multiplier  adder  min (0)  max (63)
 410:Drivers/lvgl/src/extra/widgets/led/../../../../src/hal/../draw/../misc/lv_color.h ****      *       0           4      3        3       255
 411:Drivers/lvgl/src/extra/widgets/led/../../../../src/hal/../draw/../misc/lv_color.h ****      *       1           8      6        3       255
 412:Drivers/lvgl/src/extra/widgets/led/../../../../src/hal/../draw/../misc/lv_color.h ****      *       2          16     12        3       255
ARM GAS  /var/folders/0z/tsy30v1j4xl4_7kw94k978ww0000gn/T//ccCXLm7m.s 			page 15


 413:Drivers/lvgl/src/extra/widgets/led/../../../../src/hal/../draw/../misc/lv_color.h ****      *       3          32     24        3       255
 414:Drivers/lvgl/src/extra/widgets/led/../../../../src/hal/../draw/../misc/lv_color.h ****      *       4          64     48        3       255
 415:Drivers/lvgl/src/extra/widgets/led/../../../../src/hal/../draw/../misc/lv_color.h ****      *       5         129     33        1       255
 416:Drivers/lvgl/src/extra/widgets/led/../../../../src/hal/../draw/../misc/lv_color.h ****      *       6         259      3        0       255
 417:Drivers/lvgl/src/extra/widgets/led/../../../../src/hal/../draw/../misc/lv_color.h ****      */
 418:Drivers/lvgl/src/extra/widgets/led/../../../../src/hal/../draw/../misc/lv_color.h **** 
 419:Drivers/lvgl/src/extra/widgets/led/../../../../src/hal/../draw/../misc/lv_color.h ****     lv_color32_t ret;
 420:Drivers/lvgl/src/extra/widgets/led/../../../../src/hal/../draw/../misc/lv_color.h ****     LV_COLOR_SET_R32(ret, (LV_COLOR_GET_R(color) * 263 + 7) >> 5);
 421:Drivers/lvgl/src/extra/widgets/led/../../../../src/hal/../draw/../misc/lv_color.h ****     LV_COLOR_SET_G32(ret, (LV_COLOR_GET_G(color) * 259 + 3) >> 6);
 422:Drivers/lvgl/src/extra/widgets/led/../../../../src/hal/../draw/../misc/lv_color.h ****     LV_COLOR_SET_B32(ret, (LV_COLOR_GET_B(color) * 263 + 7) >> 5);
 423:Drivers/lvgl/src/extra/widgets/led/../../../../src/hal/../draw/../misc/lv_color.h ****     LV_COLOR_SET_A32(ret, 0xFF);
 424:Drivers/lvgl/src/extra/widgets/led/../../../../src/hal/../draw/../misc/lv_color.h ****     return ret.full;
 425:Drivers/lvgl/src/extra/widgets/led/../../../../src/hal/../draw/../misc/lv_color.h **** #elif LV_COLOR_DEPTH == 32
 426:Drivers/lvgl/src/extra/widgets/led/../../../../src/hal/../draw/../misc/lv_color.h ****     return color.full;
 427:Drivers/lvgl/src/extra/widgets/led/../../../../src/hal/../draw/../misc/lv_color.h **** #endif
 428:Drivers/lvgl/src/extra/widgets/led/../../../../src/hal/../draw/../misc/lv_color.h **** }
 429:Drivers/lvgl/src/extra/widgets/led/../../../../src/hal/../draw/../misc/lv_color.h **** 
 430:Drivers/lvgl/src/extra/widgets/led/../../../../src/hal/../draw/../misc/lv_color.h **** //! @cond Doxygen_Suppress
 431:Drivers/lvgl/src/extra/widgets/led/../../../../src/hal/../draw/../misc/lv_color.h **** 
 432:Drivers/lvgl/src/extra/widgets/led/../../../../src/hal/../draw/../misc/lv_color.h **** /**
 433:Drivers/lvgl/src/extra/widgets/led/../../../../src/hal/../draw/../misc/lv_color.h ****  * Mix two colors with a given ratio.
 434:Drivers/lvgl/src/extra/widgets/led/../../../../src/hal/../draw/../misc/lv_color.h ****  * @param c1 the first color to mix (usually the foreground)
 435:Drivers/lvgl/src/extra/widgets/led/../../../../src/hal/../draw/../misc/lv_color.h ****  * @param c2 the second color to mix (usually the background)
 436:Drivers/lvgl/src/extra/widgets/led/../../../../src/hal/../draw/../misc/lv_color.h ****  * @param mix The ratio of the colors. 0: full `c2`, 255: full `c1`, 127: half `c1` and half`c2`
 437:Drivers/lvgl/src/extra/widgets/led/../../../../src/hal/../draw/../misc/lv_color.h ****  * @return the mixed color
 438:Drivers/lvgl/src/extra/widgets/led/../../../../src/hal/../draw/../misc/lv_color.h ****  */
 439:Drivers/lvgl/src/extra/widgets/led/../../../../src/hal/../draw/../misc/lv_color.h **** static inline lv_color_t LV_ATTRIBUTE_FAST_MEM lv_color_mix(lv_color_t c1, lv_color_t c2, uint8_t m
 440:Drivers/lvgl/src/extra/widgets/led/../../../../src/hal/../draw/../misc/lv_color.h **** {
 441:Drivers/lvgl/src/extra/widgets/led/../../../../src/hal/../draw/../misc/lv_color.h ****     lv_color_t ret;
 442:Drivers/lvgl/src/extra/widgets/led/../../../../src/hal/../draw/../misc/lv_color.h **** 
 443:Drivers/lvgl/src/extra/widgets/led/../../../../src/hal/../draw/../misc/lv_color.h **** #if LV_COLOR_DEPTH == 16 && LV_COLOR_MIX_ROUND_OFS == 0
 444:Drivers/lvgl/src/extra/widgets/led/../../../../src/hal/../draw/../misc/lv_color.h **** #if LV_COLOR_16_SWAP == 1
 445:Drivers/lvgl/src/extra/widgets/led/../../../../src/hal/../draw/../misc/lv_color.h ****     c1.full = c1.full << 8 | c1.full >> 8;
 446:Drivers/lvgl/src/extra/widgets/led/../../../../src/hal/../draw/../misc/lv_color.h ****     c2.full = c2.full << 8 | c2.full >> 8;
 447:Drivers/lvgl/src/extra/widgets/led/../../../../src/hal/../draw/../misc/lv_color.h **** #endif
 448:Drivers/lvgl/src/extra/widgets/led/../../../../src/hal/../draw/../misc/lv_color.h ****     /*Source: https://stackoverflow.com/a/50012418/1999969*/
 449:Drivers/lvgl/src/extra/widgets/led/../../../../src/hal/../draw/../misc/lv_color.h ****     mix = (uint32_t)((uint32_t)mix + 4) >> 3;
 450:Drivers/lvgl/src/extra/widgets/led/../../../../src/hal/../draw/../misc/lv_color.h ****     uint32_t bg = (uint32_t)((uint32_t)c2.full | ((uint32_t)c2.full << 16)) &
 451:Drivers/lvgl/src/extra/widgets/led/../../../../src/hal/../draw/../misc/lv_color.h ****                   0x7E0F81F; /*0b00000111111000001111100000011111*/
 452:Drivers/lvgl/src/extra/widgets/led/../../../../src/hal/../draw/../misc/lv_color.h ****     uint32_t fg = (uint32_t)((uint32_t)c1.full | ((uint32_t)c1.full << 16)) & 0x7E0F81F;
 453:Drivers/lvgl/src/extra/widgets/led/../../../../src/hal/../draw/../misc/lv_color.h ****     uint32_t result = ((((fg - bg) * mix) >> 5) + bg) & 0x7E0F81F;
 454:Drivers/lvgl/src/extra/widgets/led/../../../../src/hal/../draw/../misc/lv_color.h ****     ret.full = (uint16_t)((result >> 16) | result);
 455:Drivers/lvgl/src/extra/widgets/led/../../../../src/hal/../draw/../misc/lv_color.h **** #if LV_COLOR_16_SWAP == 1
 456:Drivers/lvgl/src/extra/widgets/led/../../../../src/hal/../draw/../misc/lv_color.h ****     ret.full = ret.full << 8 | ret.full >> 8;
 457:Drivers/lvgl/src/extra/widgets/led/../../../../src/hal/../draw/../misc/lv_color.h **** #endif
 458:Drivers/lvgl/src/extra/widgets/led/../../../../src/hal/../draw/../misc/lv_color.h **** #elif LV_COLOR_DEPTH != 1
 459:Drivers/lvgl/src/extra/widgets/led/../../../../src/hal/../draw/../misc/lv_color.h ****     /*LV_COLOR_DEPTH == 8, 16 or 32*/
 460:Drivers/lvgl/src/extra/widgets/led/../../../../src/hal/../draw/../misc/lv_color.h ****     LV_COLOR_SET_R(ret, LV_UDIV255((uint16_t)LV_COLOR_GET_R(c1) * mix + LV_COLOR_GET_R(c2) *
 461:Drivers/lvgl/src/extra/widgets/led/../../../../src/hal/../draw/../misc/lv_color.h ****                                    (255 - mix) + LV_COLOR_MIX_ROUND_OFS));
 462:Drivers/lvgl/src/extra/widgets/led/../../../../src/hal/../draw/../misc/lv_color.h ****     LV_COLOR_SET_G(ret, LV_UDIV255((uint16_t)LV_COLOR_GET_G(c1) * mix + LV_COLOR_GET_G(c2) *
 463:Drivers/lvgl/src/extra/widgets/led/../../../../src/hal/../draw/../misc/lv_color.h ****                                    (255 - mix) + LV_COLOR_MIX_ROUND_OFS));
 464:Drivers/lvgl/src/extra/widgets/led/../../../../src/hal/../draw/../misc/lv_color.h ****     LV_COLOR_SET_B(ret, LV_UDIV255((uint16_t)LV_COLOR_GET_B(c1) * mix + LV_COLOR_GET_B(c2) *
 465:Drivers/lvgl/src/extra/widgets/led/../../../../src/hal/../draw/../misc/lv_color.h ****                                    (255 - mix) + LV_COLOR_MIX_ROUND_OFS));
 466:Drivers/lvgl/src/extra/widgets/led/../../../../src/hal/../draw/../misc/lv_color.h ****     LV_COLOR_SET_A(ret, 0xFF);
 467:Drivers/lvgl/src/extra/widgets/led/../../../../src/hal/../draw/../misc/lv_color.h **** #else
 468:Drivers/lvgl/src/extra/widgets/led/../../../../src/hal/../draw/../misc/lv_color.h ****     /*LV_COLOR_DEPTH == 1*/
 469:Drivers/lvgl/src/extra/widgets/led/../../../../src/hal/../draw/../misc/lv_color.h ****     ret.full = mix > LV_OPA_50 ? c1.full : c2.full;
ARM GAS  /var/folders/0z/tsy30v1j4xl4_7kw94k978ww0000gn/T//ccCXLm7m.s 			page 16


 470:Drivers/lvgl/src/extra/widgets/led/../../../../src/hal/../draw/../misc/lv_color.h **** #endif
 471:Drivers/lvgl/src/extra/widgets/led/../../../../src/hal/../draw/../misc/lv_color.h **** 
 472:Drivers/lvgl/src/extra/widgets/led/../../../../src/hal/../draw/../misc/lv_color.h ****     return ret;
 473:Drivers/lvgl/src/extra/widgets/led/../../../../src/hal/../draw/../misc/lv_color.h **** }
 474:Drivers/lvgl/src/extra/widgets/led/../../../../src/hal/../draw/../misc/lv_color.h **** 
 475:Drivers/lvgl/src/extra/widgets/led/../../../../src/hal/../draw/../misc/lv_color.h **** static inline void LV_ATTRIBUTE_FAST_MEM lv_color_premult(lv_color_t c, uint8_t mix, uint16_t * out
 476:Drivers/lvgl/src/extra/widgets/led/../../../../src/hal/../draw/../misc/lv_color.h **** {
 477:Drivers/lvgl/src/extra/widgets/led/../../../../src/hal/../draw/../misc/lv_color.h **** #if LV_COLOR_DEPTH != 1
 478:Drivers/lvgl/src/extra/widgets/led/../../../../src/hal/../draw/../misc/lv_color.h ****     out[0] = (uint16_t)LV_COLOR_GET_R(c) * mix;
 479:Drivers/lvgl/src/extra/widgets/led/../../../../src/hal/../draw/../misc/lv_color.h ****     out[1] = (uint16_t)LV_COLOR_GET_G(c) * mix;
 480:Drivers/lvgl/src/extra/widgets/led/../../../../src/hal/../draw/../misc/lv_color.h ****     out[2] = (uint16_t)LV_COLOR_GET_B(c) * mix;
 481:Drivers/lvgl/src/extra/widgets/led/../../../../src/hal/../draw/../misc/lv_color.h **** #else
 482:Drivers/lvgl/src/extra/widgets/led/../../../../src/hal/../draw/../misc/lv_color.h ****     (void) mix;
 483:Drivers/lvgl/src/extra/widgets/led/../../../../src/hal/../draw/../misc/lv_color.h ****     /*Pre-multiplication can't be used with 1 bpp*/
 484:Drivers/lvgl/src/extra/widgets/led/../../../../src/hal/../draw/../misc/lv_color.h ****     out[0] = LV_COLOR_GET_R(c);
 485:Drivers/lvgl/src/extra/widgets/led/../../../../src/hal/../draw/../misc/lv_color.h ****     out[1] = LV_COLOR_GET_G(c);
 486:Drivers/lvgl/src/extra/widgets/led/../../../../src/hal/../draw/../misc/lv_color.h ****     out[2] = LV_COLOR_GET_B(c);
 487:Drivers/lvgl/src/extra/widgets/led/../../../../src/hal/../draw/../misc/lv_color.h **** #endif
 488:Drivers/lvgl/src/extra/widgets/led/../../../../src/hal/../draw/../misc/lv_color.h **** 
 489:Drivers/lvgl/src/extra/widgets/led/../../../../src/hal/../draw/../misc/lv_color.h **** }
 490:Drivers/lvgl/src/extra/widgets/led/../../../../src/hal/../draw/../misc/lv_color.h **** 
 491:Drivers/lvgl/src/extra/widgets/led/../../../../src/hal/../draw/../misc/lv_color.h **** /**
 492:Drivers/lvgl/src/extra/widgets/led/../../../../src/hal/../draw/../misc/lv_color.h ****  * Mix two colors with a given ratio. It runs faster then `lv_color_mix` but requires some pre comp
 493:Drivers/lvgl/src/extra/widgets/led/../../../../src/hal/../draw/../misc/lv_color.h ****  * @param premult_c1 The first color. Should be preprocessed with `lv_color_premult(c1)`
 494:Drivers/lvgl/src/extra/widgets/led/../../../../src/hal/../draw/../misc/lv_color.h ****  * @param c2 The second color. As it is no pre computation required on it
 495:Drivers/lvgl/src/extra/widgets/led/../../../../src/hal/../draw/../misc/lv_color.h ****  * @param mix The ratio of the colors. 0: full `c1`, 255: full `c2`, 127: half `c1` and half `c2`.
 496:Drivers/lvgl/src/extra/widgets/led/../../../../src/hal/../draw/../misc/lv_color.h ****  *            Should be modified like mix = `255 - mix`
 497:Drivers/lvgl/src/extra/widgets/led/../../../../src/hal/../draw/../misc/lv_color.h ****  * @return the mixed color
 498:Drivers/lvgl/src/extra/widgets/led/../../../../src/hal/../draw/../misc/lv_color.h ****  * @note 255 won't give clearly `c1`.
 499:Drivers/lvgl/src/extra/widgets/led/../../../../src/hal/../draw/../misc/lv_color.h ****  */
 500:Drivers/lvgl/src/extra/widgets/led/../../../../src/hal/../draw/../misc/lv_color.h **** static inline lv_color_t LV_ATTRIBUTE_FAST_MEM lv_color_mix_premult(uint16_t * premult_c1, lv_color
 501:Drivers/lvgl/src/extra/widgets/led/../../../../src/hal/../draw/../misc/lv_color.h **** {
 502:Drivers/lvgl/src/extra/widgets/led/../../../../src/hal/../draw/../misc/lv_color.h ****     lv_color_t ret;
 503:Drivers/lvgl/src/extra/widgets/led/../../../../src/hal/../draw/../misc/lv_color.h **** #if LV_COLOR_DEPTH != 1
 504:Drivers/lvgl/src/extra/widgets/led/../../../../src/hal/../draw/../misc/lv_color.h ****     /*LV_COLOR_DEPTH == 8 or 32*/
 505:Drivers/lvgl/src/extra/widgets/led/../../../../src/hal/../draw/../misc/lv_color.h ****     LV_COLOR_SET_R(ret, LV_UDIV255(premult_c1[0] + LV_COLOR_GET_R(c2) * mix + LV_COLOR_MIX_ROUND_OF
 506:Drivers/lvgl/src/extra/widgets/led/../../../../src/hal/../draw/../misc/lv_color.h ****     LV_COLOR_SET_G(ret, LV_UDIV255(premult_c1[1] + LV_COLOR_GET_G(c2) * mix + LV_COLOR_MIX_ROUND_OF
 507:Drivers/lvgl/src/extra/widgets/led/../../../../src/hal/../draw/../misc/lv_color.h ****     LV_COLOR_SET_B(ret, LV_UDIV255(premult_c1[2] + LV_COLOR_GET_B(c2) * mix + LV_COLOR_MIX_ROUND_OF
 508:Drivers/lvgl/src/extra/widgets/led/../../../../src/hal/../draw/../misc/lv_color.h ****     LV_COLOR_SET_A(ret, 0xFF);
 509:Drivers/lvgl/src/extra/widgets/led/../../../../src/hal/../draw/../misc/lv_color.h **** #else
 510:Drivers/lvgl/src/extra/widgets/led/../../../../src/hal/../draw/../misc/lv_color.h ****     /*LV_COLOR_DEPTH == 1*/
 511:Drivers/lvgl/src/extra/widgets/led/../../../../src/hal/../draw/../misc/lv_color.h ****     /*Restore color1*/
 512:Drivers/lvgl/src/extra/widgets/led/../../../../src/hal/../draw/../misc/lv_color.h ****     lv_color_t c1;
 513:Drivers/lvgl/src/extra/widgets/led/../../../../src/hal/../draw/../misc/lv_color.h ****     LV_COLOR_SET_R(c1, premult_c1[0]);
 514:Drivers/lvgl/src/extra/widgets/led/../../../../src/hal/../draw/../misc/lv_color.h ****     LV_COLOR_SET_G(c1, premult_c1[1]);
 515:Drivers/lvgl/src/extra/widgets/led/../../../../src/hal/../draw/../misc/lv_color.h ****     LV_COLOR_SET_B(c1, premult_c1[2]);
 516:Drivers/lvgl/src/extra/widgets/led/../../../../src/hal/../draw/../misc/lv_color.h ****     ret.full = mix > LV_OPA_50 ? c2.full : c1.full;
 517:Drivers/lvgl/src/extra/widgets/led/../../../../src/hal/../draw/../misc/lv_color.h **** #endif
 518:Drivers/lvgl/src/extra/widgets/led/../../../../src/hal/../draw/../misc/lv_color.h **** 
 519:Drivers/lvgl/src/extra/widgets/led/../../../../src/hal/../draw/../misc/lv_color.h ****     return ret;
 520:Drivers/lvgl/src/extra/widgets/led/../../../../src/hal/../draw/../misc/lv_color.h **** }
 521:Drivers/lvgl/src/extra/widgets/led/../../../../src/hal/../draw/../misc/lv_color.h **** 
 522:Drivers/lvgl/src/extra/widgets/led/../../../../src/hal/../draw/../misc/lv_color.h **** /**
 523:Drivers/lvgl/src/extra/widgets/led/../../../../src/hal/../draw/../misc/lv_color.h ****  * Mix two colors. Both color can have alpha value.
 524:Drivers/lvgl/src/extra/widgets/led/../../../../src/hal/../draw/../misc/lv_color.h ****  * @param bg_color background color
 525:Drivers/lvgl/src/extra/widgets/led/../../../../src/hal/../draw/../misc/lv_color.h ****  * @param bg_opa alpha of the background color
 526:Drivers/lvgl/src/extra/widgets/led/../../../../src/hal/../draw/../misc/lv_color.h ****  * @param fg_color foreground color
ARM GAS  /var/folders/0z/tsy30v1j4xl4_7kw94k978ww0000gn/T//ccCXLm7m.s 			page 17


 527:Drivers/lvgl/src/extra/widgets/led/../../../../src/hal/../draw/../misc/lv_color.h ****  * @param fg_opa alpha of the foreground color
 528:Drivers/lvgl/src/extra/widgets/led/../../../../src/hal/../draw/../misc/lv_color.h ****  * @param res_color the result color
 529:Drivers/lvgl/src/extra/widgets/led/../../../../src/hal/../draw/../misc/lv_color.h ****  * @param res_opa the result opacity
 530:Drivers/lvgl/src/extra/widgets/led/../../../../src/hal/../draw/../misc/lv_color.h ****  */
 531:Drivers/lvgl/src/extra/widgets/led/../../../../src/hal/../draw/../misc/lv_color.h **** static inline void LV_ATTRIBUTE_FAST_MEM lv_color_mix_with_alpha(lv_color_t bg_color, lv_opa_t bg_o
 532:Drivers/lvgl/src/extra/widgets/led/../../../../src/hal/../draw/../misc/lv_color.h ****                                                                  lv_color_t fg_color, lv_opa_t fg_o
 533:Drivers/lvgl/src/extra/widgets/led/../../../../src/hal/../draw/../misc/lv_color.h ****                                                                  lv_color_t * res_color, lv_opa_t *
 534:Drivers/lvgl/src/extra/widgets/led/../../../../src/hal/../draw/../misc/lv_color.h **** {
 535:Drivers/lvgl/src/extra/widgets/led/../../../../src/hal/../draw/../misc/lv_color.h ****     /*Pick the foreground if it's fully opaque or the Background is fully transparent*/
 536:Drivers/lvgl/src/extra/widgets/led/../../../../src/hal/../draw/../misc/lv_color.h ****     if(fg_opa >= LV_OPA_MAX || bg_opa <= LV_OPA_MIN) {
 537:Drivers/lvgl/src/extra/widgets/led/../../../../src/hal/../draw/../misc/lv_color.h ****         res_color->full = fg_color.full;
 538:Drivers/lvgl/src/extra/widgets/led/../../../../src/hal/../draw/../misc/lv_color.h ****         *res_opa = fg_opa;
 539:Drivers/lvgl/src/extra/widgets/led/../../../../src/hal/../draw/../misc/lv_color.h ****     }
 540:Drivers/lvgl/src/extra/widgets/led/../../../../src/hal/../draw/../misc/lv_color.h ****     /*Transparent foreground: use the Background*/
 541:Drivers/lvgl/src/extra/widgets/led/../../../../src/hal/../draw/../misc/lv_color.h ****     else if(fg_opa <= LV_OPA_MIN) {
 542:Drivers/lvgl/src/extra/widgets/led/../../../../src/hal/../draw/../misc/lv_color.h ****         res_color->full = bg_color.full;
 543:Drivers/lvgl/src/extra/widgets/led/../../../../src/hal/../draw/../misc/lv_color.h ****         *res_opa = bg_opa;
 544:Drivers/lvgl/src/extra/widgets/led/../../../../src/hal/../draw/../misc/lv_color.h ****     }
 545:Drivers/lvgl/src/extra/widgets/led/../../../../src/hal/../draw/../misc/lv_color.h ****     /*Opaque background: use simple mix*/
 546:Drivers/lvgl/src/extra/widgets/led/../../../../src/hal/../draw/../misc/lv_color.h ****     else if(bg_opa >= LV_OPA_MAX) {
 547:Drivers/lvgl/src/extra/widgets/led/../../../../src/hal/../draw/../misc/lv_color.h ****         *res_color = lv_color_mix(fg_color, bg_color, fg_opa);
 548:Drivers/lvgl/src/extra/widgets/led/../../../../src/hal/../draw/../misc/lv_color.h ****         *res_opa = LV_OPA_COVER;
 549:Drivers/lvgl/src/extra/widgets/led/../../../../src/hal/../draw/../misc/lv_color.h ****     }
 550:Drivers/lvgl/src/extra/widgets/led/../../../../src/hal/../draw/../misc/lv_color.h ****     /*Both colors have alpha. Expensive calculation need to be applied*/
 551:Drivers/lvgl/src/extra/widgets/led/../../../../src/hal/../draw/../misc/lv_color.h ****     else {
 552:Drivers/lvgl/src/extra/widgets/led/../../../../src/hal/../draw/../misc/lv_color.h ****         /*Save the parameters and the result. If they will be asked again don't compute again*/
 553:Drivers/lvgl/src/extra/widgets/led/../../../../src/hal/../draw/../misc/lv_color.h ****         static lv_opa_t fg_opa_save     = 0;
 554:Drivers/lvgl/src/extra/widgets/led/../../../../src/hal/../draw/../misc/lv_color.h ****         static lv_opa_t bg_opa_save     = 0;
 555:Drivers/lvgl/src/extra/widgets/led/../../../../src/hal/../draw/../misc/lv_color.h ****         static lv_color_t fg_color_save = _LV_COLOR_ZERO_INITIALIZER;
 556:Drivers/lvgl/src/extra/widgets/led/../../../../src/hal/../draw/../misc/lv_color.h ****         static lv_color_t bg_color_save = _LV_COLOR_ZERO_INITIALIZER;
 557:Drivers/lvgl/src/extra/widgets/led/../../../../src/hal/../draw/../misc/lv_color.h ****         static lv_color_t res_color_saved = _LV_COLOR_ZERO_INITIALIZER;
 558:Drivers/lvgl/src/extra/widgets/led/../../../../src/hal/../draw/../misc/lv_color.h ****         static lv_opa_t res_opa_saved = 0;
 559:Drivers/lvgl/src/extra/widgets/led/../../../../src/hal/../draw/../misc/lv_color.h **** 
 560:Drivers/lvgl/src/extra/widgets/led/../../../../src/hal/../draw/../misc/lv_color.h ****         if(fg_opa != fg_opa_save || bg_opa != bg_opa_save || fg_color.full != fg_color_save.full ||
 561:Drivers/lvgl/src/extra/widgets/led/../../../../src/hal/../draw/../misc/lv_color.h ****            bg_color.full != bg_color_save.full) {
 562:Drivers/lvgl/src/extra/widgets/led/../../../../src/hal/../draw/../misc/lv_color.h ****             fg_opa_save        = fg_opa;
 563:Drivers/lvgl/src/extra/widgets/led/../../../../src/hal/../draw/../misc/lv_color.h ****             bg_opa_save        = bg_opa;
 564:Drivers/lvgl/src/extra/widgets/led/../../../../src/hal/../draw/../misc/lv_color.h ****             fg_color_save.full = fg_color.full;
 565:Drivers/lvgl/src/extra/widgets/led/../../../../src/hal/../draw/../misc/lv_color.h ****             bg_color_save.full = bg_color.full;
 566:Drivers/lvgl/src/extra/widgets/led/../../../../src/hal/../draw/../misc/lv_color.h ****             /*Info:
 567:Drivers/lvgl/src/extra/widgets/led/../../../../src/hal/../draw/../misc/lv_color.h ****              * https://en.wikipedia.org/wiki/Alpha_compositing#Analytical_derivation_of_the_over_op
 568:Drivers/lvgl/src/extra/widgets/led/../../../../src/hal/../draw/../misc/lv_color.h ****             res_opa_saved = 255 - ((uint16_t)((uint16_t)(255 - fg_opa) * (255 - bg_opa)) >> 8);
 569:Drivers/lvgl/src/extra/widgets/led/../../../../src/hal/../draw/../misc/lv_color.h ****             LV_ASSERT(res_opa_saved != 0);
 570:Drivers/lvgl/src/extra/widgets/led/../../../../src/hal/../draw/../misc/lv_color.h ****             lv_opa_t ratio = (uint16_t)((uint16_t)fg_opa * 255) / res_opa_saved;
 571:Drivers/lvgl/src/extra/widgets/led/../../../../src/hal/../draw/../misc/lv_color.h ****             res_color_saved = lv_color_mix(fg_color, bg_color, ratio);
 572:Drivers/lvgl/src/extra/widgets/led/../../../../src/hal/../draw/../misc/lv_color.h **** 
 573:Drivers/lvgl/src/extra/widgets/led/../../../../src/hal/../draw/../misc/lv_color.h ****         }
 574:Drivers/lvgl/src/extra/widgets/led/../../../../src/hal/../draw/../misc/lv_color.h **** 
 575:Drivers/lvgl/src/extra/widgets/led/../../../../src/hal/../draw/../misc/lv_color.h ****         res_color->full = res_color_saved.full;
 576:Drivers/lvgl/src/extra/widgets/led/../../../../src/hal/../draw/../misc/lv_color.h ****         *res_opa = res_opa_saved;
 577:Drivers/lvgl/src/extra/widgets/led/../../../../src/hal/../draw/../misc/lv_color.h ****     }
 578:Drivers/lvgl/src/extra/widgets/led/../../../../src/hal/../draw/../misc/lv_color.h **** }
 579:Drivers/lvgl/src/extra/widgets/led/../../../../src/hal/../draw/../misc/lv_color.h **** 
 580:Drivers/lvgl/src/extra/widgets/led/../../../../src/hal/../draw/../misc/lv_color.h **** //! @endcond
 581:Drivers/lvgl/src/extra/widgets/led/../../../../src/hal/../draw/../misc/lv_color.h **** 
 582:Drivers/lvgl/src/extra/widgets/led/../../../../src/hal/../draw/../misc/lv_color.h **** /**
 583:Drivers/lvgl/src/extra/widgets/led/../../../../src/hal/../draw/../misc/lv_color.h ****  * Get the brightness of a color
ARM GAS  /var/folders/0z/tsy30v1j4xl4_7kw94k978ww0000gn/T//ccCXLm7m.s 			page 18


 584:Drivers/lvgl/src/extra/widgets/led/../../../../src/hal/../draw/../misc/lv_color.h ****  * @param color a color
 585:Drivers/lvgl/src/extra/widgets/led/../../../../src/hal/../draw/../misc/lv_color.h ****  * @return the brightness [0..255]
 586:Drivers/lvgl/src/extra/widgets/led/../../../../src/hal/../draw/../misc/lv_color.h ****  */
 587:Drivers/lvgl/src/extra/widgets/led/../../../../src/hal/../draw/../misc/lv_color.h **** static inline uint8_t lv_color_brightness(lv_color_t color)
 588:Drivers/lvgl/src/extra/widgets/led/../../../../src/hal/../draw/../misc/lv_color.h **** {
 589:Drivers/lvgl/src/extra/widgets/led/../../../../src/hal/../draw/../misc/lv_color.h ****     lv_color32_t c32;
 590:Drivers/lvgl/src/extra/widgets/led/../../../../src/hal/../draw/../misc/lv_color.h ****     c32.full        = lv_color_to32(color);
 591:Drivers/lvgl/src/extra/widgets/led/../../../../src/hal/../draw/../misc/lv_color.h ****     uint16_t bright = (uint16_t)(3u * LV_COLOR_GET_R32(c32) + LV_COLOR_GET_B32(c32) + 4u * LV_COLOR
 592:Drivers/lvgl/src/extra/widgets/led/../../../../src/hal/../draw/../misc/lv_color.h ****     return (uint8_t)(bright >> 3);
 593:Drivers/lvgl/src/extra/widgets/led/../../../../src/hal/../draw/../misc/lv_color.h **** }
 594:Drivers/lvgl/src/extra/widgets/led/../../../../src/hal/../draw/../misc/lv_color.h **** 
 595:Drivers/lvgl/src/extra/widgets/led/../../../../src/hal/../draw/../misc/lv_color.h **** static inline lv_color_t lv_color_make(uint8_t r, uint8_t g, uint8_t b)
 596:Drivers/lvgl/src/extra/widgets/led/../../../../src/hal/../draw/../misc/lv_color.h **** {
 597:Drivers/lvgl/src/extra/widgets/led/../../../../src/hal/../draw/../misc/lv_color.h ****     return _LV_COLOR_MAKE_TYPE_HELPER LV_COLOR_MAKE(r, g, b);
 598:Drivers/lvgl/src/extra/widgets/led/../../../../src/hal/../draw/../misc/lv_color.h **** }
 599:Drivers/lvgl/src/extra/widgets/led/../../../../src/hal/../draw/../misc/lv_color.h **** 
 600:Drivers/lvgl/src/extra/widgets/led/../../../../src/hal/../draw/../misc/lv_color.h **** static inline lv_color_t lv_color_hex(uint32_t c)
 601:Drivers/lvgl/src/extra/widgets/led/../../../../src/hal/../draw/../misc/lv_color.h **** {
 602:Drivers/lvgl/src/extra/widgets/led/../../../../src/hal/../draw/../misc/lv_color.h **** #if LV_COLOR_DEPTH == 16
 603:Drivers/lvgl/src/extra/widgets/led/../../../../src/hal/../draw/../misc/lv_color.h ****     lv_color_t r;
 604:Drivers/lvgl/src/extra/widgets/led/../../../../src/hal/../draw/../misc/lv_color.h **** #if LV_COLOR_16_SWAP == 0
 605:Drivers/lvgl/src/extra/widgets/led/../../../../src/hal/../draw/../misc/lv_color.h ****     /* Convert a 4 bytes per pixel in format ARGB32 to R5G6B5 format
 606:Drivers/lvgl/src/extra/widgets/led/../../../../src/hal/../draw/../misc/lv_color.h ****         naive way (by calling lv_color_make with components):
 607:Drivers/lvgl/src/extra/widgets/led/../../../../src/hal/../draw/../misc/lv_color.h ****                     r = ((c & 0xFF0000) >> 19)
 608:Drivers/lvgl/src/extra/widgets/led/../../../../src/hal/../draw/../misc/lv_color.h ****                     g = ((c & 0xFF00) >> 10)
 609:Drivers/lvgl/src/extra/widgets/led/../../../../src/hal/../draw/../misc/lv_color.h ****                     b = ((c & 0xFF) >> 3)
 610:Drivers/lvgl/src/extra/widgets/led/../../../../src/hal/../draw/../misc/lv_color.h ****                     rgb565 = (r << 11) | (g << 5) | b
 611:Drivers/lvgl/src/extra/widgets/led/../../../../src/hal/../draw/../misc/lv_color.h ****         That's 3 mask, 5 bitshift and 2 or operations
 612:Drivers/lvgl/src/extra/widgets/led/../../../../src/hal/../draw/../misc/lv_color.h **** 
 613:Drivers/lvgl/src/extra/widgets/led/../../../../src/hal/../draw/../misc/lv_color.h ****         A bit better:
 614:Drivers/lvgl/src/extra/widgets/led/../../../../src/hal/../draw/../misc/lv_color.h ****                     r = ((c & 0xF80000) >> 8)
 615:Drivers/lvgl/src/extra/widgets/led/../../../../src/hal/../draw/../misc/lv_color.h ****                     g = ((c & 0xFC00) >> 5)
 616:Drivers/lvgl/src/extra/widgets/led/../../../../src/hal/../draw/../misc/lv_color.h ****                     b = ((c & 0xFF) >> 3)
 617:Drivers/lvgl/src/extra/widgets/led/../../../../src/hal/../draw/../misc/lv_color.h ****                     rgb565 = r | g | b
 618:Drivers/lvgl/src/extra/widgets/led/../../../../src/hal/../draw/../misc/lv_color.h ****         That's 3 mask, 3 bitshifts and 2 or operations */
 619:Drivers/lvgl/src/extra/widgets/led/../../../../src/hal/../draw/../misc/lv_color.h ****     r.full = (uint16_t)(((c & 0xF80000) >> 8) | ((c & 0xFC00) >> 5) | ((c & 0xFF) >> 3));
 620:Drivers/lvgl/src/extra/widgets/led/../../../../src/hal/../draw/../misc/lv_color.h **** #else
 621:Drivers/lvgl/src/extra/widgets/led/../../../../src/hal/../draw/../misc/lv_color.h ****     /* We want: rrrr rrrr GGGg gggg bbbb bbbb => gggb bbbb rrrr rGGG */
 622:Drivers/lvgl/src/extra/widgets/led/../../../../src/hal/../draw/../misc/lv_color.h ****     r.full = (uint16_t)(((c & 0xF80000) >> 16) | ((c & 0xFC00) >> 13) | ((c & 0x1C00) << 3) | ((c &
 623:Drivers/lvgl/src/extra/widgets/led/../../../../src/hal/../draw/../misc/lv_color.h **** #endif
 624:Drivers/lvgl/src/extra/widgets/led/../../../../src/hal/../draw/../misc/lv_color.h ****     return r;
 625:Drivers/lvgl/src/extra/widgets/led/../../../../src/hal/../draw/../misc/lv_color.h **** #elif LV_COLOR_DEPTH == 32
 626:Drivers/lvgl/src/extra/widgets/led/../../../../src/hal/../draw/../misc/lv_color.h ****     lv_color_t r;
 627:Drivers/lvgl/src/extra/widgets/led/../../../../src/hal/../draw/../misc/lv_color.h ****     r.full = c | 0xFF000000;
 628:Drivers/lvgl/src/extra/widgets/led/../../../../src/hal/../draw/../misc/lv_color.h ****     return r;
 629:Drivers/lvgl/src/extra/widgets/led/../../../../src/hal/../draw/../misc/lv_color.h **** #else /*LV_COLOR_DEPTH == 8*/
 630:Drivers/lvgl/src/extra/widgets/led/../../../../src/hal/../draw/../misc/lv_color.h ****     return lv_color_make((uint8_t)((c >> 16) & 0xFF), (uint8_t)((c >> 8) & 0xFF), (uint8_t)(c & 0xF
 631:Drivers/lvgl/src/extra/widgets/led/../../../../src/hal/../draw/../misc/lv_color.h **** #endif
 632:Drivers/lvgl/src/extra/widgets/led/../../../../src/hal/../draw/../misc/lv_color.h **** }
 633:Drivers/lvgl/src/extra/widgets/led/../../../../src/hal/../draw/../misc/lv_color.h **** 
 634:Drivers/lvgl/src/extra/widgets/led/../../../../src/hal/../draw/../misc/lv_color.h **** static inline lv_color_t lv_color_hex3(uint32_t c)
 635:Drivers/lvgl/src/extra/widgets/led/../../../../src/hal/../draw/../misc/lv_color.h **** {
 636:Drivers/lvgl/src/extra/widgets/led/../../../../src/hal/../draw/../misc/lv_color.h ****     return lv_color_make((uint8_t)(((c >> 4) & 0xF0) | ((c >> 8) & 0xF)), (uint8_t)((c & 0xF0) | ((
 637:Drivers/lvgl/src/extra/widgets/led/../../../../src/hal/../draw/../misc/lv_color.h ****                          (uint8_t)((c & 0xF) | ((c & 0xF) << 4)));
 638:Drivers/lvgl/src/extra/widgets/led/../../../../src/hal/../draw/../misc/lv_color.h **** }
 639:Drivers/lvgl/src/extra/widgets/led/../../../../src/hal/../draw/../misc/lv_color.h **** 
 640:Drivers/lvgl/src/extra/widgets/led/../../../../src/hal/../draw/../misc/lv_color.h **** static inline void lv_color_filter_dsc_init(lv_color_filter_dsc_t * dsc, lv_color_filter_cb_t cb)
ARM GAS  /var/folders/0z/tsy30v1j4xl4_7kw94k978ww0000gn/T//ccCXLm7m.s 			page 19


 641:Drivers/lvgl/src/extra/widgets/led/../../../../src/hal/../draw/../misc/lv_color.h **** {
 642:Drivers/lvgl/src/extra/widgets/led/../../../../src/hal/../draw/../misc/lv_color.h ****     dsc->filter_cb = cb;
 643:Drivers/lvgl/src/extra/widgets/led/../../../../src/hal/../draw/../misc/lv_color.h **** }
 644:Drivers/lvgl/src/extra/widgets/led/../../../../src/hal/../draw/../misc/lv_color.h **** 
 645:Drivers/lvgl/src/extra/widgets/led/../../../../src/hal/../draw/../misc/lv_color.h **** //! @cond Doxygen_Suppress
 646:Drivers/lvgl/src/extra/widgets/led/../../../../src/hal/../draw/../misc/lv_color.h **** //!
 647:Drivers/lvgl/src/extra/widgets/led/../../../../src/hal/../draw/../misc/lv_color.h **** void /* LV_ATTRIBUTE_FAST_MEM */ lv_color_fill(lv_color_t * buf, lv_color_t color, uint32_t px_num)
 648:Drivers/lvgl/src/extra/widgets/led/../../../../src/hal/../draw/../misc/lv_color.h **** 
 649:Drivers/lvgl/src/extra/widgets/led/../../../../src/hal/../draw/../misc/lv_color.h **** //! @endcond
 650:Drivers/lvgl/src/extra/widgets/led/../../../../src/hal/../draw/../misc/lv_color.h **** lv_color_t lv_color_lighten(lv_color_t c, lv_opa_t lvl);
 651:Drivers/lvgl/src/extra/widgets/led/../../../../src/hal/../draw/../misc/lv_color.h **** 
 652:Drivers/lvgl/src/extra/widgets/led/../../../../src/hal/../draw/../misc/lv_color.h **** lv_color_t lv_color_darken(lv_color_t c, lv_opa_t lvl);
 653:Drivers/lvgl/src/extra/widgets/led/../../../../src/hal/../draw/../misc/lv_color.h **** 
 654:Drivers/lvgl/src/extra/widgets/led/../../../../src/hal/../draw/../misc/lv_color.h **** lv_color_t lv_color_change_lightness(lv_color_t c, lv_opa_t lvl);
 655:Drivers/lvgl/src/extra/widgets/led/../../../../src/hal/../draw/../misc/lv_color.h **** 
 656:Drivers/lvgl/src/extra/widgets/led/../../../../src/hal/../draw/../misc/lv_color.h **** /**
 657:Drivers/lvgl/src/extra/widgets/led/../../../../src/hal/../draw/../misc/lv_color.h ****  * Convert a HSV color to RGB
 658:Drivers/lvgl/src/extra/widgets/led/../../../../src/hal/../draw/../misc/lv_color.h ****  * @param h hue [0..359]
 659:Drivers/lvgl/src/extra/widgets/led/../../../../src/hal/../draw/../misc/lv_color.h ****  * @param s saturation [0..100]
 660:Drivers/lvgl/src/extra/widgets/led/../../../../src/hal/../draw/../misc/lv_color.h ****  * @param v value [0..100]
 661:Drivers/lvgl/src/extra/widgets/led/../../../../src/hal/../draw/../misc/lv_color.h ****  * @return the given RGB color in RGB (with LV_COLOR_DEPTH depth)
 662:Drivers/lvgl/src/extra/widgets/led/../../../../src/hal/../draw/../misc/lv_color.h ****  */
 663:Drivers/lvgl/src/extra/widgets/led/../../../../src/hal/../draw/../misc/lv_color.h **** lv_color_t lv_color_hsv_to_rgb(uint16_t h, uint8_t s, uint8_t v);
 664:Drivers/lvgl/src/extra/widgets/led/../../../../src/hal/../draw/../misc/lv_color.h **** 
 665:Drivers/lvgl/src/extra/widgets/led/../../../../src/hal/../draw/../misc/lv_color.h **** /**
 666:Drivers/lvgl/src/extra/widgets/led/../../../../src/hal/../draw/../misc/lv_color.h ****  * Convert a 32-bit RGB color to HSV
 667:Drivers/lvgl/src/extra/widgets/led/../../../../src/hal/../draw/../misc/lv_color.h ****  * @param r8 8-bit red
 668:Drivers/lvgl/src/extra/widgets/led/../../../../src/hal/../draw/../misc/lv_color.h ****  * @param g8 8-bit green
 669:Drivers/lvgl/src/extra/widgets/led/../../../../src/hal/../draw/../misc/lv_color.h ****  * @param b8 8-bit blue
 670:Drivers/lvgl/src/extra/widgets/led/../../../../src/hal/../draw/../misc/lv_color.h ****  * @return the given RGB color in HSV
 671:Drivers/lvgl/src/extra/widgets/led/../../../../src/hal/../draw/../misc/lv_color.h ****  */
 672:Drivers/lvgl/src/extra/widgets/led/../../../../src/hal/../draw/../misc/lv_color.h **** lv_color_hsv_t lv_color_rgb_to_hsv(uint8_t r8, uint8_t g8, uint8_t b8);
 673:Drivers/lvgl/src/extra/widgets/led/../../../../src/hal/../draw/../misc/lv_color.h **** 
 674:Drivers/lvgl/src/extra/widgets/led/../../../../src/hal/../draw/../misc/lv_color.h **** /**
 675:Drivers/lvgl/src/extra/widgets/led/../../../../src/hal/../draw/../misc/lv_color.h ****  * Convert a color to HSV
 676:Drivers/lvgl/src/extra/widgets/led/../../../../src/hal/../draw/../misc/lv_color.h ****  * @param color color
 677:Drivers/lvgl/src/extra/widgets/led/../../../../src/hal/../draw/../misc/lv_color.h ****  * @return the given color in HSV
 678:Drivers/lvgl/src/extra/widgets/led/../../../../src/hal/../draw/../misc/lv_color.h ****  */
 679:Drivers/lvgl/src/extra/widgets/led/../../../../src/hal/../draw/../misc/lv_color.h **** lv_color_hsv_t lv_color_to_hsv(lv_color_t color);
 680:Drivers/lvgl/src/extra/widgets/led/../../../../src/hal/../draw/../misc/lv_color.h **** 
 681:Drivers/lvgl/src/extra/widgets/led/../../../../src/hal/../draw/../misc/lv_color.h **** /**
 682:Drivers/lvgl/src/extra/widgets/led/../../../../src/hal/../draw/../misc/lv_color.h ****  * Just a wrapper around LV_COLOR_CHROMA_KEY because it might be more convenient to use a function 
 683:Drivers/lvgl/src/extra/widgets/led/../../../../src/hal/../draw/../misc/lv_color.h ****  * @return LV_COLOR_CHROMA_KEY
 684:Drivers/lvgl/src/extra/widgets/led/../../../../src/hal/../draw/../misc/lv_color.h ****  */
 685:Drivers/lvgl/src/extra/widgets/led/../../../../src/hal/../draw/../misc/lv_color.h **** static inline lv_color_t lv_color_chroma_key(void)
 686:Drivers/lvgl/src/extra/widgets/led/../../../../src/hal/../draw/../misc/lv_color.h **** {
 687:Drivers/lvgl/src/extra/widgets/led/../../../../src/hal/../draw/../misc/lv_color.h ****     return LV_COLOR_CHROMA_KEY;
 688:Drivers/lvgl/src/extra/widgets/led/../../../../src/hal/../draw/../misc/lv_color.h **** }
 689:Drivers/lvgl/src/extra/widgets/led/../../../../src/hal/../draw/../misc/lv_color.h **** 
 690:Drivers/lvgl/src/extra/widgets/led/../../../../src/hal/../draw/../misc/lv_color.h **** /**********************
 691:Drivers/lvgl/src/extra/widgets/led/../../../../src/hal/../draw/../misc/lv_color.h ****  *  PREDEFINED COLORS
 692:Drivers/lvgl/src/extra/widgets/led/../../../../src/hal/../draw/../misc/lv_color.h ****  **********************/
 693:Drivers/lvgl/src/extra/widgets/led/../../../../src/hal/../draw/../misc/lv_color.h **** /*Source: https://vuetifyjs.com/en/styles/colors/#material-colors*/
 694:Drivers/lvgl/src/extra/widgets/led/../../../../src/hal/../draw/../misc/lv_color.h **** 
 695:Drivers/lvgl/src/extra/widgets/led/../../../../src/hal/../draw/../misc/lv_color.h **** lv_color_t lv_palette_main(lv_palette_t p);
 696:Drivers/lvgl/src/extra/widgets/led/../../../../src/hal/../draw/../misc/lv_color.h **** static inline lv_color_t lv_color_white(void)
 697:Drivers/lvgl/src/extra/widgets/led/../../../../src/hal/../draw/../misc/lv_color.h **** {
ARM GAS  /var/folders/0z/tsy30v1j4xl4_7kw94k978ww0000gn/T//ccCXLm7m.s 			page 20


 698:Drivers/lvgl/src/extra/widgets/led/../../../../src/hal/../draw/../misc/lv_color.h ****     return lv_color_make(0xff, 0xff, 0xff);
 699:Drivers/lvgl/src/extra/widgets/led/../../../../src/hal/../draw/../misc/lv_color.h **** }
 700:Drivers/lvgl/src/extra/widgets/led/../../../../src/hal/../draw/../misc/lv_color.h **** static inline lv_color_t lv_color_black(void)
 165              		.loc 2 700 26 view .LVU39
 701:Drivers/lvgl/src/extra/widgets/led/../../../../src/hal/../draw/../misc/lv_color.h **** {
 702:Drivers/lvgl/src/extra/widgets/led/../../../../src/hal/../draw/../misc/lv_color.h ****     return lv_color_make(0x00, 0x0, 0x00);
 166              		.loc 2 702 5 view .LVU40
 167              	.LBB152:
 168              	.LBI152:
 595:Drivers/lvgl/src/extra/widgets/led/../../../../src/hal/../draw/../misc/lv_color.h **** {
 169              		.loc 2 595 26 view .LVU41
 170              	.LBB153:
 597:Drivers/lvgl/src/extra/widgets/led/../../../../src/hal/../draw/../misc/lv_color.h **** }
 171              		.loc 2 597 5 view .LVU42
 597:Drivers/lvgl/src/extra/widgets/led/../../../../src/hal/../draw/../misc/lv_color.h **** }
 172              		.loc 2 597 5 is_stmt 0 view .LVU43
 173 004c BDF80430 		ldrh	r3, [sp, #4]
 174              	.LBE153:
 175              	.LBE152:
 176              	.LBE151:
 177              	.LBB154:
 178              	.LBI154:
 587:Drivers/lvgl/src/extra/widgets/led/../../../../src/hal/../draw/../misc/lv_color.h **** {
 179              		.loc 2 587 23 is_stmt 1 view .LVU44
 180              	.LBB155:
 589:Drivers/lvgl/src/extra/widgets/led/../../../../src/hal/../draw/../misc/lv_color.h ****     c32.full        = lv_color_to32(color);
 181              		.loc 2 589 5 view .LVU45
 590:Drivers/lvgl/src/extra/widgets/led/../../../../src/hal/../draw/../misc/lv_color.h ****     uint16_t bright = (uint16_t)(3u * LV_COLOR_GET_R32(c32) + LV_COLOR_GET_B32(c32) + 4u * LV_COLOR
 182              		.loc 2 590 5 view .LVU46
 183              	.LBB156:
 184              	.LBI156:
 375:Drivers/lvgl/src/extra/widgets/led/../../../../src/hal/../draw/../misc/lv_color.h **** {
 185              		.loc 2 375 24 view .LVU47
 186              	.LBB157:
 419:Drivers/lvgl/src/extra/widgets/led/../../../../src/hal/../draw/../misc/lv_color.h ****     LV_COLOR_SET_R32(ret, (LV_COLOR_GET_R(color) * 263 + 7) >> 5);
 187              		.loc 2 419 5 view .LVU48
 420:Drivers/lvgl/src/extra/widgets/led/../../../../src/hal/../draw/../misc/lv_color.h ****     LV_COLOR_SET_G32(ret, (LV_COLOR_GET_G(color) * 259 + 3) >> 6);
 188              		.loc 2 420 5 view .LVU49
 189              	.LVL18:
 420:Drivers/lvgl/src/extra/widgets/led/../../../../src/hal/../draw/../misc/lv_color.h ****     LV_COLOR_SET_G32(ret, (LV_COLOR_GET_G(color) * 259 + 3) >> 6);
 190              		.loc 2 420 5 is_stmt 0 view .LVU50
 191 0050 C3F3C402 		ubfx	r2, r3, #3, #5
 192 0054 02EB4211 		add	r1, r2, r2, lsl #5
 193 0058 C2EBC102 		rsb	r2, r2, r1, lsl #3
 194 005c 0732     		adds	r2, r2, #7
 195 005e C2F34712 		ubfx	r2, r2, #5, #8
 196 0062 0021     		movs	r1, #0
 197              	.LVL19:
 420:Drivers/lvgl/src/extra/widgets/led/../../../../src/hal/../draw/../misc/lv_color.h ****     LV_COLOR_SET_G32(ret, (LV_COLOR_GET_G(color) * 259 + 3) >> 6);
 198              		.loc 2 420 5 view .LVU51
 199 0064 62F31741 		bfi	r1, r2, #16, #8
 200              	.LVL20:
 421:Drivers/lvgl/src/extra/widgets/led/../../../../src/hal/../draw/../misc/lv_color.h ****     LV_COLOR_SET_B32(ret, (LV_COLOR_GET_B(color) * 263 + 7) >> 5);
 201              		.loc 2 421 5 is_stmt 1 view .LVU52
 202 0068 03F00700 		and	r0, r3, #7
 203 006c C3F34232 		ubfx	r2, r3, #13, #3
 204 0070 02EBC002 		add	r2, r2, r0, lsl #3
ARM GAS  /var/folders/0z/tsy30v1j4xl4_7kw94k978ww0000gn/T//ccCXLm7m.s 			page 21


 205 0074 02EBC210 		add	r0, r2, r2, lsl #7
 206 0078 02EB4002 		add	r2, r2, r0, lsl #1
 207 007c 0332     		adds	r2, r2, #3
 208 007e C2F38712 		ubfx	r2, r2, #6, #8
 209 0082 62F30F21 		bfi	r1, r2, #8, #8
 422:Drivers/lvgl/src/extra/widgets/led/../../../../src/hal/../draw/../misc/lv_color.h ****     LV_COLOR_SET_A32(ret, 0xFF);
 210              		.loc 2 422 5 view .LVU53
 211 0086 C3F30423 		ubfx	r3, r3, #8, #5
 212              	.LVL21:
 422:Drivers/lvgl/src/extra/widgets/led/../../../../src/hal/../draw/../misc/lv_color.h ****     LV_COLOR_SET_A32(ret, 0xFF);
 213              		.loc 2 422 5 is_stmt 0 view .LVU54
 214 008a 03EB4312 		add	r2, r3, r3, lsl #5
 215 008e C3EBC203 		rsb	r3, r3, r2, lsl #3
 216 0092 0733     		adds	r3, r3, #7
 217 0094 C3F34713 		ubfx	r3, r3, #5, #8
 218 0098 63F30701 		bfi	r1, r3, #0, #8
 423:Drivers/lvgl/src/extra/widgets/led/../../../../src/hal/../draw/../misc/lv_color.h ****     return ret.full;
 219              		.loc 2 423 5 is_stmt 1 view .LVU55
 220 009c 41F07F41 		orr	r1, r1, #-16777216
 221              	.LVL22:
 424:Drivers/lvgl/src/extra/widgets/led/../../../../src/hal/../draw/../misc/lv_color.h **** #elif LV_COLOR_DEPTH == 32
 222              		.loc 2 424 5 view .LVU56
 223              	.LBE157:
 224              	.LBE156:
 591:Drivers/lvgl/src/extra/widgets/led/../../../../src/hal/../draw/../misc/lv_color.h ****     return (uint8_t)(bright >> 3);
 225              		.loc 2 591 5 view .LVU57
 591:Drivers/lvgl/src/extra/widgets/led/../../../../src/hal/../draw/../misc/lv_color.h ****     return (uint8_t)(bright >> 3);
 226              		.loc 2 591 39 is_stmt 0 view .LVU58
 227 00a0 C1F30743 		ubfx	r3, r1, #16, #8
 591:Drivers/lvgl/src/extra/widgets/led/../../../../src/hal/../draw/../misc/lv_color.h ****     return (uint8_t)(bright >> 3);
 228              		.loc 2 591 37 view .LVU59
 229 00a4 03EB4305 		add	r5, r3, r3, lsl #1
 591:Drivers/lvgl/src/extra/widgets/led/../../../../src/hal/../draw/../misc/lv_color.h ****     return (uint8_t)(bright >> 3);
 230              		.loc 2 591 92 view .LVU60
 231 00a8 C1F30723 		ubfx	r3, r1, #8, #8
 591:Drivers/lvgl/src/extra/widgets/led/../../../../src/hal/../draw/../misc/lv_color.h ****     return (uint8_t)(bright >> 3);
 232              		.loc 2 591 85 view .LVU61
 233 00ac 05EB8305 		add	r5, r5, r3, lsl #2
 591:Drivers/lvgl/src/extra/widgets/led/../../../../src/hal/../draw/../misc/lv_color.h ****     return (uint8_t)(bright >> 3);
 234              		.loc 2 591 63 view .LVU62
 235 00b0 C9B2     		uxtb	r1, r1
 236              	.LVL23:
 591:Drivers/lvgl/src/extra/widgets/led/../../../../src/hal/../draw/../misc/lv_color.h ****     return (uint8_t)(bright >> 3);
 237              		.loc 2 591 14 view .LVU63
 238 00b2 11FA85F5 		uxtah	r5, r1, r5
 239              	.LVL24:
 592:Drivers/lvgl/src/extra/widgets/led/../../../../src/hal/../draw/../misc/lv_color.h **** }
 240              		.loc 2 592 5 is_stmt 1 view .LVU64
 592:Drivers/lvgl/src/extra/widgets/led/../../../../src/hal/../draw/../misc/lv_color.h **** }
 241              		.loc 2 592 12 is_stmt 0 view .LVU65
 242 00b6 C5F3C705 		ubfx	r5, r5, #3, #8
 243              	.LVL25:
 592:Drivers/lvgl/src/extra/widgets/led/../../../../src/hal/../draw/../misc/lv_color.h **** }
 244              		.loc 2 592 12 view .LVU66
 245              	.LBE155:
 246              	.LBE154:
 247              	.LBB158:
ARM GAS  /var/folders/0z/tsy30v1j4xl4_7kw94k978ww0000gn/T//ccCXLm7m.s 			page 22


 248              	.LBI158:
 439:Drivers/lvgl/src/extra/widgets/led/../../../../src/hal/../draw/../misc/lv_color.h **** {
 249              		.loc 2 439 48 is_stmt 1 view .LVU67
 250              	.LBB159:
 441:Drivers/lvgl/src/extra/widgets/led/../../../../src/hal/../draw/../misc/lv_color.h **** 
 251              		.loc 2 441 5 view .LVU68
 445:Drivers/lvgl/src/extra/widgets/led/../../../../src/hal/../draw/../misc/lv_color.h ****     c2.full = c2.full << 8 | c2.full >> 8;
 252              		.loc 2 445 5 view .LVU69
 445:Drivers/lvgl/src/extra/widgets/led/../../../../src/hal/../draw/../misc/lv_color.h ****     c2.full = c2.full << 8 | c2.full >> 8;
 253              		.loc 2 445 17 is_stmt 0 view .LVU70
 254 00ba BA8C     		ldrh	r2, [r7, #36]
 445:Drivers/lvgl/src/extra/widgets/led/../../../../src/hal/../draw/../misc/lv_color.h ****     c2.full = c2.full << 8 | c2.full >> 8;
 255              		.loc 2 445 28 view .LVU71
 256 00bc 130A     		lsrs	r3, r2, #8
 257 00be 43EA0223 		orr	r3, r3, r2, lsl #8
 258 00c2 98B2     		uxth	r0, r3
 446:Drivers/lvgl/src/extra/widgets/led/../../../../src/hal/../draw/../misc/lv_color.h **** #endif
 259              		.loc 2 446 5 is_stmt 1 view .LVU72
 449:Drivers/lvgl/src/extra/widgets/led/../../../../src/hal/../draw/../misc/lv_color.h ****     uint32_t bg = (uint32_t)((uint32_t)c2.full | ((uint32_t)c2.full << 16)) &
 260              		.loc 2 449 5 view .LVU73
 449:Drivers/lvgl/src/extra/widgets/led/../../../../src/hal/../draw/../misc/lv_color.h ****     uint32_t bg = (uint32_t)((uint32_t)c2.full | ((uint32_t)c2.full << 16)) &
 261              		.loc 2 449 11 is_stmt 0 view .LVU74
 262 00c4 0435     		adds	r5, r5, #4
 263              	.LVL26:
 450:Drivers/lvgl/src/extra/widgets/led/../../../../src/hal/../draw/../misc/lv_color.h ****                   0x7E0F81F; /*0b00000111111000001111100000011111*/
 264              		.loc 2 450 5 is_stmt 1 view .LVU75
 450:Drivers/lvgl/src/extra/widgets/led/../../../../src/hal/../draw/../misc/lv_color.h ****                   0x7E0F81F; /*0b00000111111000001111100000011111*/
 265              		.loc 2 450 14 is_stmt 0 view .LVU76
 266 00c6 F64E     		ldr	r6, .L10
 267              	.LVL27:
 452:Drivers/lvgl/src/extra/widgets/led/../../../../src/hal/../draw/../misc/lv_color.h ****     uint32_t result = ((((fg - bg) * mix) >> 5) + bg) & 0x7E0F81F;
 268              		.loc 2 452 5 is_stmt 1 view .LVU77
 452:Drivers/lvgl/src/extra/widgets/led/../../../../src/hal/../draw/../misc/lv_color.h ****     uint32_t result = ((((fg - bg) * mix) >> 5) + bg) & 0x7E0F81F;
 269              		.loc 2 452 19 is_stmt 0 view .LVU78
 270 00c8 40EA0340 		orr	r0, r0, r3, lsl #16
 271              	.LVL28:
 453:Drivers/lvgl/src/extra/widgets/led/../../../../src/hal/../draw/../misc/lv_color.h ****     ret.full = (uint16_t)((result >> 16) | result);
 272              		.loc 2 453 5 is_stmt 1 view .LVU79
 453:Drivers/lvgl/src/extra/widgets/led/../../../../src/hal/../draw/../misc/lv_color.h ****     ret.full = (uint16_t)((result >> 16) | result);
 273              		.loc 2 453 30 is_stmt 0 view .LVU80
 274 00cc 00EA0603 		and	r3, r0, r6
 275              	.LVL29:
 453:Drivers/lvgl/src/extra/widgets/led/../../../../src/hal/../draw/../misc/lv_color.h ****     ret.full = (uint16_t)((result >> 16) | result);
 276              		.loc 2 453 36 view .LVU81
 277 00d0 C5F3C705 		ubfx	r5, r5, #3, #8
 278              	.LVL30:
 453:Drivers/lvgl/src/extra/widgets/led/../../../../src/hal/../draw/../misc/lv_color.h ****     ret.full = (uint16_t)((result >> 16) | result);
 279              		.loc 2 453 36 view .LVU82
 280 00d4 03FB05F5 		mul	r5, r3, r5
 453:Drivers/lvgl/src/extra/widgets/led/../../../../src/hal/../draw/../misc/lv_color.h ****     ret.full = (uint16_t)((result >> 16) | result);
 281              		.loc 2 453 14 view .LVU83
 282 00d8 06EA5515 		and	r5, r6, r5, lsr #5
 283              	.LVL31:
 454:Drivers/lvgl/src/extra/widgets/led/../../../../src/hal/../draw/../misc/lv_color.h **** #if LV_COLOR_16_SWAP == 1
 284              		.loc 2 454 5 is_stmt 1 view .LVU84
 454:Drivers/lvgl/src/extra/widgets/led/../../../../src/hal/../draw/../misc/lv_color.h **** #if LV_COLOR_16_SWAP == 1
 285              		.loc 2 454 16 is_stmt 0 view .LVU85
ARM GAS  /var/folders/0z/tsy30v1j4xl4_7kw94k978ww0000gn/T//ccCXLm7m.s 			page 23


 286 00dc 45EA1545 		orr	r5, r5, r5, lsr #16
 287              	.LVL32:
 454:Drivers/lvgl/src/extra/widgets/led/../../../../src/hal/../draw/../misc/lv_color.h **** #if LV_COLOR_16_SWAP == 1
 288              		.loc 2 454 16 view .LVU86
 289 00e0 ABB2     		uxth	r3, r5
 290              	.LVL33:
 456:Drivers/lvgl/src/extra/widgets/led/../../../../src/hal/../draw/../misc/lv_color.h **** #endif
 291              		.loc 2 456 5 is_stmt 1 view .LVU87
 456:Drivers/lvgl/src/extra/widgets/led/../../../../src/hal/../draw/../misc/lv_color.h **** #endif
 292              		.loc 2 456 30 is_stmt 0 view .LVU88
 293 00e2 C5F30725 		ubfx	r5, r5, #8, #8
 294 00e6 45EA0325 		orr	r5, r5, r3, lsl #8
 295 00ea ADB2     		uxth	r5, r5
 472:Drivers/lvgl/src/extra/widgets/led/../../../../src/hal/../draw/../misc/lv_color.h **** }
 296              		.loc 2 472 5 is_stmt 1 view .LVU89
 297              	.LVL34:
 472:Drivers/lvgl/src/extra/widgets/led/../../../../src/hal/../draw/../misc/lv_color.h **** }
 298              		.loc 2 472 5 is_stmt 0 view .LVU90
 299              	.LBE159:
 300              	.LBE158:
 181:Drivers/lvgl/src/extra/widgets/led/lv_led.c ****         rect_dsc.bg_grad.stops[0].color = lv_color_mix(led->color, lv_color_black(),
 301              		.loc 1 181 29 view .LVU91
 302 00ec ADF80450 		strh	r5, [sp, #4]	@ movhi
 182:Drivers/lvgl/src/extra/widgets/led/lv_led.c ****                                                        lv_color_brightness(rect_dsc.bg_grad.stops[0
 303              		.loc 1 182 9 is_stmt 1 view .LVU92
 304              	.LBB160:
 305              	.LBI160:
 700:Drivers/lvgl/src/extra/widgets/led/../../../../src/hal/../draw/../misc/lv_color.h **** {
 306              		.loc 2 700 26 view .LVU93
 307              		.loc 2 702 5 view .LVU94
 308              	.LVL35:
 309              	.LBB161:
 310              	.LBI161:
 595:Drivers/lvgl/src/extra/widgets/led/../../../../src/hal/../draw/../misc/lv_color.h **** {
 311              		.loc 2 595 26 view .LVU95
 312              	.LBB162:
 597:Drivers/lvgl/src/extra/widgets/led/../../../../src/hal/../draw/../misc/lv_color.h **** }
 313              		.loc 2 597 5 view .LVU96
 597:Drivers/lvgl/src/extra/widgets/led/../../../../src/hal/../draw/../misc/lv_color.h **** }
 314              		.loc 2 597 5 is_stmt 0 view .LVU97
 315 00f0 BDF80630 		ldrh	r3, [sp, #6]
 316              	.LBE162:
 317              	.LBE161:
 318              	.LBE160:
 319              	.LBB163:
 320              	.LBI163:
 587:Drivers/lvgl/src/extra/widgets/led/../../../../src/hal/../draw/../misc/lv_color.h **** {
 321              		.loc 2 587 23 is_stmt 1 view .LVU98
 322              	.LBB164:
 589:Drivers/lvgl/src/extra/widgets/led/../../../../src/hal/../draw/../misc/lv_color.h ****     c32.full        = lv_color_to32(color);
 323              		.loc 2 589 5 view .LVU99
 590:Drivers/lvgl/src/extra/widgets/led/../../../../src/hal/../draw/../misc/lv_color.h ****     uint16_t bright = (uint16_t)(3u * LV_COLOR_GET_R32(c32) + LV_COLOR_GET_B32(c32) + 4u * LV_COLOR
 324              		.loc 2 590 5 view .LVU100
 325              	.LBB165:
 326              	.LBI165:
 375:Drivers/lvgl/src/extra/widgets/led/../../../../src/hal/../draw/../misc/lv_color.h **** {
 327              		.loc 2 375 24 view .LVU101
ARM GAS  /var/folders/0z/tsy30v1j4xl4_7kw94k978ww0000gn/T//ccCXLm7m.s 			page 24


 328              	.LBB166:
 419:Drivers/lvgl/src/extra/widgets/led/../../../../src/hal/../draw/../misc/lv_color.h ****     LV_COLOR_SET_R32(ret, (LV_COLOR_GET_R(color) * 263 + 7) >> 5);
 329              		.loc 2 419 5 view .LVU102
 420:Drivers/lvgl/src/extra/widgets/led/../../../../src/hal/../draw/../misc/lv_color.h ****     LV_COLOR_SET_G32(ret, (LV_COLOR_GET_G(color) * 259 + 3) >> 6);
 330              		.loc 2 420 5 view .LVU103
 331              	.LVL36:
 420:Drivers/lvgl/src/extra/widgets/led/../../../../src/hal/../draw/../misc/lv_color.h ****     LV_COLOR_SET_G32(ret, (LV_COLOR_GET_G(color) * 259 + 3) >> 6);
 332              		.loc 2 420 5 is_stmt 0 view .LVU104
 333 00f4 C3F3C402 		ubfx	r2, r3, #3, #5
 334 00f8 02EB4211 		add	r1, r2, r2, lsl #5
 335 00fc C2EBC101 		rsb	r1, r2, r1, lsl #3
 336 0100 0731     		adds	r1, r1, #7
 337 0102 C1F34711 		ubfx	r1, r1, #5, #8
 338 0106 0022     		movs	r2, #0
 339              	.LVL37:
 420:Drivers/lvgl/src/extra/widgets/led/../../../../src/hal/../draw/../misc/lv_color.h ****     LV_COLOR_SET_G32(ret, (LV_COLOR_GET_G(color) * 259 + 3) >> 6);
 340              		.loc 2 420 5 view .LVU105
 341 0108 61F31742 		bfi	r2, r1, #16, #8
 342              	.LVL38:
 421:Drivers/lvgl/src/extra/widgets/led/../../../../src/hal/../draw/../misc/lv_color.h ****     LV_COLOR_SET_B32(ret, (LV_COLOR_GET_B(color) * 263 + 7) >> 5);
 343              		.loc 2 421 5 is_stmt 1 view .LVU106
 344 010c 03F0070C 		and	ip, r3, #7
 345 0110 C3F34231 		ubfx	r1, r3, #13, #3
 346 0114 01EBCC01 		add	r1, r1, ip, lsl #3
 347 0118 01EBC11C 		add	ip, r1, r1, lsl #7
 348 011c 01EB4C01 		add	r1, r1, ip, lsl #1
 349 0120 0331     		adds	r1, r1, #3
 350 0122 C1F38711 		ubfx	r1, r1, #6, #8
 351 0126 61F30F22 		bfi	r2, r1, #8, #8
 422:Drivers/lvgl/src/extra/widgets/led/../../../../src/hal/../draw/../misc/lv_color.h ****     LV_COLOR_SET_A32(ret, 0xFF);
 352              		.loc 2 422 5 view .LVU107
 353 012a C3F30423 		ubfx	r3, r3, #8, #5
 354              	.LVL39:
 422:Drivers/lvgl/src/extra/widgets/led/../../../../src/hal/../draw/../misc/lv_color.h ****     LV_COLOR_SET_A32(ret, 0xFF);
 355              		.loc 2 422 5 is_stmt 0 view .LVU108
 356 012e 03EB4311 		add	r1, r3, r3, lsl #5
 357 0132 C3EBC103 		rsb	r3, r3, r1, lsl #3
 358 0136 0733     		adds	r3, r3, #7
 359 0138 C3F34713 		ubfx	r3, r3, #5, #8
 360 013c 63F30702 		bfi	r2, r3, #0, #8
 423:Drivers/lvgl/src/extra/widgets/led/../../../../src/hal/../draw/../misc/lv_color.h ****     return ret.full;
 361              		.loc 2 423 5 is_stmt 1 view .LVU109
 362 0140 42F07F42 		orr	r2, r2, #-16777216
 363              	.LVL40:
 424:Drivers/lvgl/src/extra/widgets/led/../../../../src/hal/../draw/../misc/lv_color.h **** #elif LV_COLOR_DEPTH == 32
 364              		.loc 2 424 5 view .LVU110
 365              	.LBE166:
 366              	.LBE165:
 591:Drivers/lvgl/src/extra/widgets/led/../../../../src/hal/../draw/../misc/lv_color.h ****     return (uint8_t)(bright >> 3);
 367              		.loc 2 591 5 view .LVU111
 591:Drivers/lvgl/src/extra/widgets/led/../../../../src/hal/../draw/../misc/lv_color.h ****     return (uint8_t)(bright >> 3);
 368              		.loc 2 591 39 is_stmt 0 view .LVU112
 369 0144 C2F30743 		ubfx	r3, r2, #16, #8
 591:Drivers/lvgl/src/extra/widgets/led/../../../../src/hal/../draw/../misc/lv_color.h ****     return (uint8_t)(bright >> 3);
 370              		.loc 2 591 37 view .LVU113
 371 0148 03EB4301 		add	r1, r3, r3, lsl #1
 591:Drivers/lvgl/src/extra/widgets/led/../../../../src/hal/../draw/../misc/lv_color.h ****     return (uint8_t)(bright >> 3);
ARM GAS  /var/folders/0z/tsy30v1j4xl4_7kw94k978ww0000gn/T//ccCXLm7m.s 			page 25


 372              		.loc 2 591 92 view .LVU114
 373 014c C2F30723 		ubfx	r3, r2, #8, #8
 591:Drivers/lvgl/src/extra/widgets/led/../../../../src/hal/../draw/../misc/lv_color.h ****     return (uint8_t)(bright >> 3);
 374              		.loc 2 591 85 view .LVU115
 375 0150 01EB8301 		add	r1, r1, r3, lsl #2
 591:Drivers/lvgl/src/extra/widgets/led/../../../../src/hal/../draw/../misc/lv_color.h ****     return (uint8_t)(bright >> 3);
 376              		.loc 2 591 63 view .LVU116
 377 0154 D2B2     		uxtb	r2, r2
 378              	.LVL41:
 591:Drivers/lvgl/src/extra/widgets/led/../../../../src/hal/../draw/../misc/lv_color.h ****     return (uint8_t)(bright >> 3);
 379              		.loc 2 591 14 view .LVU117
 380 0156 12FA81F1 		uxtah	r1, r2, r1
 381              	.LVL42:
 592:Drivers/lvgl/src/extra/widgets/led/../../../../src/hal/../draw/../misc/lv_color.h **** }
 382              		.loc 2 592 5 is_stmt 1 view .LVU118
 592:Drivers/lvgl/src/extra/widgets/led/../../../../src/hal/../draw/../misc/lv_color.h **** }
 383              		.loc 2 592 12 is_stmt 0 view .LVU119
 384 015a C1F3C701 		ubfx	r1, r1, #3, #8
 385              	.LVL43:
 592:Drivers/lvgl/src/extra/widgets/led/../../../../src/hal/../draw/../misc/lv_color.h **** }
 386              		.loc 2 592 12 view .LVU120
 387              	.LBE164:
 388              	.LBE163:
 389              	.LBB167:
 390              	.LBI167:
 439:Drivers/lvgl/src/extra/widgets/led/../../../../src/hal/../draw/../misc/lv_color.h **** {
 391              		.loc 2 439 48 is_stmt 1 view .LVU121
 392              	.LBB168:
 441:Drivers/lvgl/src/extra/widgets/led/../../../../src/hal/../draw/../misc/lv_color.h **** 
 393              		.loc 2 441 5 view .LVU122
 445:Drivers/lvgl/src/extra/widgets/led/../../../../src/hal/../draw/../misc/lv_color.h ****     c2.full = c2.full << 8 | c2.full >> 8;
 394              		.loc 2 445 5 view .LVU123
 446:Drivers/lvgl/src/extra/widgets/led/../../../../src/hal/../draw/../misc/lv_color.h **** #endif
 395              		.loc 2 446 5 view .LVU124
 449:Drivers/lvgl/src/extra/widgets/led/../../../../src/hal/../draw/../misc/lv_color.h ****     uint32_t bg = (uint32_t)((uint32_t)c2.full | ((uint32_t)c2.full << 16)) &
 396              		.loc 2 449 5 view .LVU125
 449:Drivers/lvgl/src/extra/widgets/led/../../../../src/hal/../draw/../misc/lv_color.h ****     uint32_t bg = (uint32_t)((uint32_t)c2.full | ((uint32_t)c2.full << 16)) &
 397              		.loc 2 449 11 is_stmt 0 view .LVU126
 398 015e 0431     		adds	r1, r1, #4
 399              	.LVL44:
 450:Drivers/lvgl/src/extra/widgets/led/../../../../src/hal/../draw/../misc/lv_color.h ****                   0x7E0F81F; /*0b00000111111000001111100000011111*/
 400              		.loc 2 450 5 is_stmt 1 view .LVU127
 452:Drivers/lvgl/src/extra/widgets/led/../../../../src/hal/../draw/../misc/lv_color.h ****     uint32_t result = ((((fg - bg) * mix) >> 5) + bg) & 0x7E0F81F;
 401              		.loc 2 452 5 view .LVU128
 453:Drivers/lvgl/src/extra/widgets/led/../../../../src/hal/../draw/../misc/lv_color.h ****     ret.full = (uint16_t)((result >> 16) | result);
 402              		.loc 2 453 5 view .LVU129
 453:Drivers/lvgl/src/extra/widgets/led/../../../../src/hal/../draw/../misc/lv_color.h ****     ret.full = (uint16_t)((result >> 16) | result);
 403              		.loc 2 453 30 is_stmt 0 view .LVU130
 404 0160 00EA0603 		and	r3, r0, r6
 405              	.LVL45:
 453:Drivers/lvgl/src/extra/widgets/led/../../../../src/hal/../draw/../misc/lv_color.h ****     ret.full = (uint16_t)((result >> 16) | result);
 406              		.loc 2 453 36 view .LVU131
 407 0164 C1F3C701 		ubfx	r1, r1, #3, #8
 408              	.LVL46:
 453:Drivers/lvgl/src/extra/widgets/led/../../../../src/hal/../draw/../misc/lv_color.h ****     ret.full = (uint16_t)((result >> 16) | result);
 409              		.loc 2 453 36 view .LVU132
 410 0168 03FB01F1 		mul	r1, r3, r1
ARM GAS  /var/folders/0z/tsy30v1j4xl4_7kw94k978ww0000gn/T//ccCXLm7m.s 			page 26


 453:Drivers/lvgl/src/extra/widgets/led/../../../../src/hal/../draw/../misc/lv_color.h ****     ret.full = (uint16_t)((result >> 16) | result);
 411              		.loc 2 453 14 view .LVU133
 412 016c 06EA5111 		and	r1, r6, r1, lsr #5
 413              	.LVL47:
 454:Drivers/lvgl/src/extra/widgets/led/../../../../src/hal/../draw/../misc/lv_color.h **** #if LV_COLOR_16_SWAP == 1
 414              		.loc 2 454 5 is_stmt 1 view .LVU134
 454:Drivers/lvgl/src/extra/widgets/led/../../../../src/hal/../draw/../misc/lv_color.h **** #if LV_COLOR_16_SWAP == 1
 415              		.loc 2 454 16 is_stmt 0 view .LVU135
 416 0170 41EA1141 		orr	r1, r1, r1, lsr #16
 417              	.LVL48:
 454:Drivers/lvgl/src/extra/widgets/led/../../../../src/hal/../draw/../misc/lv_color.h **** #if LV_COLOR_16_SWAP == 1
 418              		.loc 2 454 16 view .LVU136
 419 0174 8BB2     		uxth	r3, r1
 420              	.LVL49:
 456:Drivers/lvgl/src/extra/widgets/led/../../../../src/hal/../draw/../misc/lv_color.h **** #endif
 421              		.loc 2 456 5 is_stmt 1 view .LVU137
 456:Drivers/lvgl/src/extra/widgets/led/../../../../src/hal/../draw/../misc/lv_color.h **** #endif
 422              		.loc 2 456 30 is_stmt 0 view .LVU138
 423 0176 C1F30721 		ubfx	r1, r1, #8, #8
 424 017a 41EA0321 		orr	r1, r1, r3, lsl #8
 425 017e 89B2     		uxth	r1, r1
 472:Drivers/lvgl/src/extra/widgets/led/../../../../src/hal/../draw/../misc/lv_color.h **** }
 426              		.loc 2 472 5 is_stmt 1 view .LVU139
 427              	.LVL50:
 472:Drivers/lvgl/src/extra/widgets/led/../../../../src/hal/../draw/../misc/lv_color.h **** }
 428              		.loc 2 472 5 is_stmt 0 view .LVU140
 429              	.LBE168:
 430              	.LBE167:
 182:Drivers/lvgl/src/extra/widgets/led/lv_led.c ****                                                        lv_color_brightness(rect_dsc.bg_grad.stops[0
 431              		.loc 1 182 43 view .LVU141
 432 0180 ADF80610 		strh	r1, [sp, #6]	@ movhi
 184:Drivers/lvgl/src/extra/widgets/led/lv_led.c ****                                                        lv_color_brightness(rect_dsc.bg_grad.stops[1
 433              		.loc 1 184 9 is_stmt 1 view .LVU142
 434              	.LBB169:
 435              	.LBI169:
 700:Drivers/lvgl/src/extra/widgets/led/../../../../src/hal/../draw/../misc/lv_color.h **** {
 436              		.loc 2 700 26 view .LVU143
 437              		.loc 2 702 5 view .LVU144
 438              	.LVL51:
 439              	.LBB170:
 440              	.LBI170:
 595:Drivers/lvgl/src/extra/widgets/led/../../../../src/hal/../draw/../misc/lv_color.h **** {
 441              		.loc 2 595 26 view .LVU145
 442              	.LBB171:
 597:Drivers/lvgl/src/extra/widgets/led/../../../../src/hal/../draw/../misc/lv_color.h **** }
 443              		.loc 2 597 5 view .LVU146
 597:Drivers/lvgl/src/extra/widgets/led/../../../../src/hal/../draw/../misc/lv_color.h **** }
 444              		.loc 2 597 5 is_stmt 0 view .LVU147
 445 0184 BDF80A30 		ldrh	r3, [sp, #10]
 446              	.LBE171:
 447              	.LBE170:
 448              	.LBE169:
 449              	.LBB172:
 450              	.LBI172:
 587:Drivers/lvgl/src/extra/widgets/led/../../../../src/hal/../draw/../misc/lv_color.h **** {
 451              		.loc 2 587 23 is_stmt 1 view .LVU148
 452              	.LBB173:
ARM GAS  /var/folders/0z/tsy30v1j4xl4_7kw94k978ww0000gn/T//ccCXLm7m.s 			page 27


 589:Drivers/lvgl/src/extra/widgets/led/../../../../src/hal/../draw/../misc/lv_color.h ****     c32.full        = lv_color_to32(color);
 453              		.loc 2 589 5 view .LVU149
 590:Drivers/lvgl/src/extra/widgets/led/../../../../src/hal/../draw/../misc/lv_color.h ****     uint16_t bright = (uint16_t)(3u * LV_COLOR_GET_R32(c32) + LV_COLOR_GET_B32(c32) + 4u * LV_COLOR
 454              		.loc 2 590 5 view .LVU150
 455              	.LBB174:
 456              	.LBI174:
 375:Drivers/lvgl/src/extra/widgets/led/../../../../src/hal/../draw/../misc/lv_color.h **** {
 457              		.loc 2 375 24 view .LVU151
 458              	.LBB175:
 419:Drivers/lvgl/src/extra/widgets/led/../../../../src/hal/../draw/../misc/lv_color.h ****     LV_COLOR_SET_R32(ret, (LV_COLOR_GET_R(color) * 263 + 7) >> 5);
 459              		.loc 2 419 5 view .LVU152
 420:Drivers/lvgl/src/extra/widgets/led/../../../../src/hal/../draw/../misc/lv_color.h ****     LV_COLOR_SET_G32(ret, (LV_COLOR_GET_G(color) * 259 + 3) >> 6);
 460              		.loc 2 420 5 view .LVU153
 461              	.LVL52:
 420:Drivers/lvgl/src/extra/widgets/led/../../../../src/hal/../draw/../misc/lv_color.h ****     LV_COLOR_SET_G32(ret, (LV_COLOR_GET_G(color) * 259 + 3) >> 6);
 462              		.loc 2 420 5 is_stmt 0 view .LVU154
 463 0188 C3F3C402 		ubfx	r2, r3, #3, #5
 464 018c 02EB421C 		add	ip, r2, r2, lsl #5
 465 0190 C2EBCC02 		rsb	r2, r2, ip, lsl #3
 466 0194 0732     		adds	r2, r2, #7
 467 0196 C2F34712 		ubfx	r2, r2, #5, #8
 468 019a 4FF0000C 		mov	ip, #0
 469              	.LVL53:
 420:Drivers/lvgl/src/extra/widgets/led/../../../../src/hal/../draw/../misc/lv_color.h ****     LV_COLOR_SET_G32(ret, (LV_COLOR_GET_G(color) * 259 + 3) >> 6);
 470              		.loc 2 420 5 view .LVU155
 471 019e 62F3174C 		bfi	ip, r2, #16, #8
 472              	.LVL54:
 421:Drivers/lvgl/src/extra/widgets/led/../../../../src/hal/../draw/../misc/lv_color.h ****     LV_COLOR_SET_B32(ret, (LV_COLOR_GET_B(color) * 263 + 7) >> 5);
 473              		.loc 2 421 5 is_stmt 1 view .LVU156
 474 01a2 03F0070E 		and	lr, r3, #7
 475 01a6 C3F34232 		ubfx	r2, r3, #13, #3
 476 01aa 02EBCE02 		add	r2, r2, lr, lsl #3
 477 01ae 02EBC21E 		add	lr, r2, r2, lsl #7
 478 01b2 02EB4E02 		add	r2, r2, lr, lsl #1
 479 01b6 0332     		adds	r2, r2, #3
 480 01b8 C2F38712 		ubfx	r2, r2, #6, #8
 481 01bc 62F30F2C 		bfi	ip, r2, #8, #8
 422:Drivers/lvgl/src/extra/widgets/led/../../../../src/hal/../draw/../misc/lv_color.h ****     LV_COLOR_SET_A32(ret, 0xFF);
 482              		.loc 2 422 5 view .LVU157
 483 01c0 C3F30423 		ubfx	r3, r3, #8, #5
 484              	.LVL55:
 422:Drivers/lvgl/src/extra/widgets/led/../../../../src/hal/../draw/../misc/lv_color.h ****     LV_COLOR_SET_A32(ret, 0xFF);
 485              		.loc 2 422 5 is_stmt 0 view .LVU158
 486 01c4 03EB4312 		add	r2, r3, r3, lsl #5
 487 01c8 C3EBC203 		rsb	r3, r3, r2, lsl #3
 488 01cc 0733     		adds	r3, r3, #7
 489 01ce C3F34713 		ubfx	r3, r3, #5, #8
 490 01d2 63F3070C 		bfi	ip, r3, #0, #8
 423:Drivers/lvgl/src/extra/widgets/led/../../../../src/hal/../draw/../misc/lv_color.h ****     return ret.full;
 491              		.loc 2 423 5 is_stmt 1 view .LVU159
 492 01d6 4CF07F4C 		orr	ip, ip, #-16777216
 493              	.LVL56:
 424:Drivers/lvgl/src/extra/widgets/led/../../../../src/hal/../draw/../misc/lv_color.h **** #elif LV_COLOR_DEPTH == 32
 494              		.loc 2 424 5 view .LVU160
 495              	.LBE175:
 496              	.LBE174:
 591:Drivers/lvgl/src/extra/widgets/led/../../../../src/hal/../draw/../misc/lv_color.h ****     return (uint8_t)(bright >> 3);
ARM GAS  /var/folders/0z/tsy30v1j4xl4_7kw94k978ww0000gn/T//ccCXLm7m.s 			page 28


 497              		.loc 2 591 5 view .LVU161
 591:Drivers/lvgl/src/extra/widgets/led/../../../../src/hal/../draw/../misc/lv_color.h ****     return (uint8_t)(bright >> 3);
 498              		.loc 2 591 39 is_stmt 0 view .LVU162
 499 01da CCF30743 		ubfx	r3, ip, #16, #8
 591:Drivers/lvgl/src/extra/widgets/led/../../../../src/hal/../draw/../misc/lv_color.h ****     return (uint8_t)(bright >> 3);
 500              		.loc 2 591 37 view .LVU163
 501 01de 03EB4302 		add	r2, r3, r3, lsl #1
 591:Drivers/lvgl/src/extra/widgets/led/../../../../src/hal/../draw/../misc/lv_color.h ****     return (uint8_t)(bright >> 3);
 502              		.loc 2 591 92 view .LVU164
 503 01e2 CCF30723 		ubfx	r3, ip, #8, #8
 591:Drivers/lvgl/src/extra/widgets/led/../../../../src/hal/../draw/../misc/lv_color.h ****     return (uint8_t)(bright >> 3);
 504              		.loc 2 591 85 view .LVU165
 505 01e6 02EB8302 		add	r2, r2, r3, lsl #2
 591:Drivers/lvgl/src/extra/widgets/led/../../../../src/hal/../draw/../misc/lv_color.h ****     return (uint8_t)(bright >> 3);
 506              		.loc 2 591 63 view .LVU166
 507 01ea 5FFA8CFC 		uxtb	ip, ip
 508              	.LVL57:
 591:Drivers/lvgl/src/extra/widgets/led/../../../../src/hal/../draw/../misc/lv_color.h ****     return (uint8_t)(bright >> 3);
 509              		.loc 2 591 14 view .LVU167
 510 01ee 1CFA82F2 		uxtah	r2, ip, r2
 511              	.LVL58:
 592:Drivers/lvgl/src/extra/widgets/led/../../../../src/hal/../draw/../misc/lv_color.h **** }
 512              		.loc 2 592 5 is_stmt 1 view .LVU168
 592:Drivers/lvgl/src/extra/widgets/led/../../../../src/hal/../draw/../misc/lv_color.h **** }
 513              		.loc 2 592 12 is_stmt 0 view .LVU169
 514 01f2 C2F3C702 		ubfx	r2, r2, #3, #8
 515              	.LVL59:
 592:Drivers/lvgl/src/extra/widgets/led/../../../../src/hal/../draw/../misc/lv_color.h **** }
 516              		.loc 2 592 12 view .LVU170
 517              	.LBE173:
 518              	.LBE172:
 519              	.LBB176:
 520              	.LBI176:
 439:Drivers/lvgl/src/extra/widgets/led/../../../../src/hal/../draw/../misc/lv_color.h **** {
 521              		.loc 2 439 48 is_stmt 1 view .LVU171
 522              	.LBB177:
 441:Drivers/lvgl/src/extra/widgets/led/../../../../src/hal/../draw/../misc/lv_color.h **** 
 523              		.loc 2 441 5 view .LVU172
 445:Drivers/lvgl/src/extra/widgets/led/../../../../src/hal/../draw/../misc/lv_color.h ****     c2.full = c2.full << 8 | c2.full >> 8;
 524              		.loc 2 445 5 view .LVU173
 446:Drivers/lvgl/src/extra/widgets/led/../../../../src/hal/../draw/../misc/lv_color.h **** #endif
 525              		.loc 2 446 5 view .LVU174
 449:Drivers/lvgl/src/extra/widgets/led/../../../../src/hal/../draw/../misc/lv_color.h ****     uint32_t bg = (uint32_t)((uint32_t)c2.full | ((uint32_t)c2.full << 16)) &
 526              		.loc 2 449 5 view .LVU175
 449:Drivers/lvgl/src/extra/widgets/led/../../../../src/hal/../draw/../misc/lv_color.h ****     uint32_t bg = (uint32_t)((uint32_t)c2.full | ((uint32_t)c2.full << 16)) &
 527              		.loc 2 449 11 is_stmt 0 view .LVU176
 528 01f6 0432     		adds	r2, r2, #4
 529              	.LVL60:
 450:Drivers/lvgl/src/extra/widgets/led/../../../../src/hal/../draw/../misc/lv_color.h ****                   0x7E0F81F; /*0b00000111111000001111100000011111*/
 530              		.loc 2 450 5 is_stmt 1 view .LVU177
 452:Drivers/lvgl/src/extra/widgets/led/../../../../src/hal/../draw/../misc/lv_color.h ****     uint32_t result = ((((fg - bg) * mix) >> 5) + bg) & 0x7E0F81F;
 531              		.loc 2 452 5 view .LVU178
 453:Drivers/lvgl/src/extra/widgets/led/../../../../src/hal/../draw/../misc/lv_color.h ****     ret.full = (uint16_t)((result >> 16) | result);
 532              		.loc 2 453 5 view .LVU179
 453:Drivers/lvgl/src/extra/widgets/led/../../../../src/hal/../draw/../misc/lv_color.h ****     ret.full = (uint16_t)((result >> 16) | result);
 533              		.loc 2 453 30 is_stmt 0 view .LVU180
 534 01f8 00EA0603 		and	r3, r0, r6
ARM GAS  /var/folders/0z/tsy30v1j4xl4_7kw94k978ww0000gn/T//ccCXLm7m.s 			page 29


 535              	.LVL61:
 453:Drivers/lvgl/src/extra/widgets/led/../../../../src/hal/../draw/../misc/lv_color.h ****     ret.full = (uint16_t)((result >> 16) | result);
 536              		.loc 2 453 36 view .LVU181
 537 01fc C2F3C702 		ubfx	r2, r2, #3, #8
 538              	.LVL62:
 453:Drivers/lvgl/src/extra/widgets/led/../../../../src/hal/../draw/../misc/lv_color.h ****     ret.full = (uint16_t)((result >> 16) | result);
 539              		.loc 2 453 36 view .LVU182
 540 0200 03FB02F2 		mul	r2, r3, r2
 453:Drivers/lvgl/src/extra/widgets/led/../../../../src/hal/../draw/../misc/lv_color.h ****     ret.full = (uint16_t)((result >> 16) | result);
 541              		.loc 2 453 14 view .LVU183
 542 0204 06EA5212 		and	r2, r6, r2, lsr #5
 543              	.LVL63:
 454:Drivers/lvgl/src/extra/widgets/led/../../../../src/hal/../draw/../misc/lv_color.h **** #if LV_COLOR_16_SWAP == 1
 544              		.loc 2 454 5 is_stmt 1 view .LVU184
 454:Drivers/lvgl/src/extra/widgets/led/../../../../src/hal/../draw/../misc/lv_color.h **** #if LV_COLOR_16_SWAP == 1
 545              		.loc 2 454 16 is_stmt 0 view .LVU185
 546 0208 42EA1242 		orr	r2, r2, r2, lsr #16
 547              	.LVL64:
 454:Drivers/lvgl/src/extra/widgets/led/../../../../src/hal/../draw/../misc/lv_color.h **** #if LV_COLOR_16_SWAP == 1
 548              		.loc 2 454 16 view .LVU186
 549 020c 93B2     		uxth	r3, r2
 550              	.LVL65:
 456:Drivers/lvgl/src/extra/widgets/led/../../../../src/hal/../draw/../misc/lv_color.h **** #endif
 551              		.loc 2 456 5 is_stmt 1 view .LVU187
 456:Drivers/lvgl/src/extra/widgets/led/../../../../src/hal/../draw/../misc/lv_color.h **** #endif
 552              		.loc 2 456 30 is_stmt 0 view .LVU188
 553 020e C2F30722 		ubfx	r2, r2, #8, #8
 554 0212 42EA0322 		orr	r2, r2, r3, lsl #8
 555 0216 92B2     		uxth	r2, r2
 472:Drivers/lvgl/src/extra/widgets/led/../../../../src/hal/../draw/../misc/lv_color.h **** }
 556              		.loc 2 472 5 is_stmt 1 view .LVU189
 557              	.LVL66:
 472:Drivers/lvgl/src/extra/widgets/led/../../../../src/hal/../draw/../misc/lv_color.h **** }
 558              		.loc 2 472 5 is_stmt 0 view .LVU190
 559              	.LBE177:
 560              	.LBE176:
 184:Drivers/lvgl/src/extra/widgets/led/lv_led.c ****                                                        lv_color_brightness(rect_dsc.bg_grad.stops[1
 561              		.loc 1 184 43 view .LVU191
 562 0218 ADF80A20 		strh	r2, [sp, #10]	@ movhi
 186:Drivers/lvgl/src/extra/widgets/led/lv_led.c ****         rect_dsc.border_color = lv_color_mix(led->color, lv_color_black(), lv_color_brightness(rect
 563              		.loc 1 186 9 is_stmt 1 view .LVU192
 564              	.LBB178:
 565              	.LBI178:
 700:Drivers/lvgl/src/extra/widgets/led/../../../../src/hal/../draw/../misc/lv_color.h **** {
 566              		.loc 2 700 26 view .LVU193
 567              		.loc 2 702 5 view .LVU194
 568              	.LVL67:
 569              	.LBB179:
 570              	.LBI179:
 595:Drivers/lvgl/src/extra/widgets/led/../../../../src/hal/../draw/../misc/lv_color.h **** {
 571              		.loc 2 595 26 view .LVU195
 572              	.LBB180:
 597:Drivers/lvgl/src/extra/widgets/led/../../../../src/hal/../draw/../misc/lv_color.h **** }
 573              		.loc 2 597 5 view .LVU196
 597:Drivers/lvgl/src/extra/widgets/led/../../../../src/hal/../draw/../misc/lv_color.h **** }
 574              		.loc 2 597 5 is_stmt 0 view .LVU197
 575 021c BDF82C30 		ldrh	r3, [sp, #44]
ARM GAS  /var/folders/0z/tsy30v1j4xl4_7kw94k978ww0000gn/T//ccCXLm7m.s 			page 30


 576              	.LBE180:
 577              	.LBE179:
 578              	.LBE178:
 579              	.LBB181:
 580              	.LBI181:
 587:Drivers/lvgl/src/extra/widgets/led/../../../../src/hal/../draw/../misc/lv_color.h **** {
 581              		.loc 2 587 23 is_stmt 1 view .LVU198
 582              	.LBB182:
 589:Drivers/lvgl/src/extra/widgets/led/../../../../src/hal/../draw/../misc/lv_color.h ****     c32.full        = lv_color_to32(color);
 583              		.loc 2 589 5 view .LVU199
 590:Drivers/lvgl/src/extra/widgets/led/../../../../src/hal/../draw/../misc/lv_color.h ****     uint16_t bright = (uint16_t)(3u * LV_COLOR_GET_R32(c32) + LV_COLOR_GET_B32(c32) + 4u * LV_COLOR
 584              		.loc 2 590 5 view .LVU200
 585              	.LBB183:
 586              	.LBI183:
 375:Drivers/lvgl/src/extra/widgets/led/../../../../src/hal/../draw/../misc/lv_color.h **** {
 587              		.loc 2 375 24 view .LVU201
 588              	.LBB184:
 419:Drivers/lvgl/src/extra/widgets/led/../../../../src/hal/../draw/../misc/lv_color.h ****     LV_COLOR_SET_R32(ret, (LV_COLOR_GET_R(color) * 263 + 7) >> 5);
 589              		.loc 2 419 5 view .LVU202
 420:Drivers/lvgl/src/extra/widgets/led/../../../../src/hal/../draw/../misc/lv_color.h ****     LV_COLOR_SET_G32(ret, (LV_COLOR_GET_G(color) * 259 + 3) >> 6);
 590              		.loc 2 420 5 view .LVU203
 591              	.LVL68:
 420:Drivers/lvgl/src/extra/widgets/led/../../../../src/hal/../draw/../misc/lv_color.h ****     LV_COLOR_SET_G32(ret, (LV_COLOR_GET_G(color) * 259 + 3) >> 6);
 592              		.loc 2 420 5 is_stmt 0 view .LVU204
 593 0220 C3F3C40C 		ubfx	ip, r3, #3, #5
 594 0224 0CEB4C1E 		add	lr, ip, ip, lsl #5
 595 0228 CCEBCE0E 		rsb	lr, ip, lr, lsl #3
 596 022c 0EF1070E 		add	lr, lr, #7
 597 0230 CEF3471E 		ubfx	lr, lr, #5, #8
 598 0234 4FF0000C 		mov	ip, #0
 599              	.LVL69:
 420:Drivers/lvgl/src/extra/widgets/led/../../../../src/hal/../draw/../misc/lv_color.h ****     LV_COLOR_SET_G32(ret, (LV_COLOR_GET_G(color) * 259 + 3) >> 6);
 600              		.loc 2 420 5 view .LVU205
 601 0238 6EF3174C 		bfi	ip, lr, #16, #8
 602              	.LVL70:
 421:Drivers/lvgl/src/extra/widgets/led/../../../../src/hal/../draw/../misc/lv_color.h ****     LV_COLOR_SET_B32(ret, (LV_COLOR_GET_B(color) * 263 + 7) >> 5);
 603              		.loc 2 421 5 is_stmt 1 view .LVU206
 604 023c 03F00708 		and	r8, r3, #7
 605 0240 C3F3423E 		ubfx	lr, r3, #13, #3
 606 0244 0EEBC80E 		add	lr, lr, r8, lsl #3
 607 0248 0EEBCE18 		add	r8, lr, lr, lsl #7
 608 024c 0EEB480E 		add	lr, lr, r8, lsl #1
 609 0250 0EF1030E 		add	lr, lr, #3
 610 0254 CEF3871E 		ubfx	lr, lr, #6, #8
 611 0258 6EF30F2C 		bfi	ip, lr, #8, #8
 422:Drivers/lvgl/src/extra/widgets/led/../../../../src/hal/../draw/../misc/lv_color.h ****     LV_COLOR_SET_A32(ret, 0xFF);
 612              		.loc 2 422 5 view .LVU207
 613 025c C3F30423 		ubfx	r3, r3, #8, #5
 614              	.LVL71:
 422:Drivers/lvgl/src/extra/widgets/led/../../../../src/hal/../draw/../misc/lv_color.h ****     LV_COLOR_SET_A32(ret, 0xFF);
 615              		.loc 2 422 5 is_stmt 0 view .LVU208
 616 0260 03EB431E 		add	lr, r3, r3, lsl #5
 617 0264 C3EBCE03 		rsb	r3, r3, lr, lsl #3
 618 0268 0733     		adds	r3, r3, #7
 619 026a C3F34713 		ubfx	r3, r3, #5, #8
 620 026e 63F3070C 		bfi	ip, r3, #0, #8
 423:Drivers/lvgl/src/extra/widgets/led/../../../../src/hal/../draw/../misc/lv_color.h ****     return ret.full;
ARM GAS  /var/folders/0z/tsy30v1j4xl4_7kw94k978ww0000gn/T//ccCXLm7m.s 			page 31


 621              		.loc 2 423 5 is_stmt 1 view .LVU209
 622 0272 4CF07F4C 		orr	ip, ip, #-16777216
 623              	.LVL72:
 424:Drivers/lvgl/src/extra/widgets/led/../../../../src/hal/../draw/../misc/lv_color.h **** #elif LV_COLOR_DEPTH == 32
 624              		.loc 2 424 5 view .LVU210
 625              	.LBE184:
 626              	.LBE183:
 591:Drivers/lvgl/src/extra/widgets/led/../../../../src/hal/../draw/../misc/lv_color.h ****     return (uint8_t)(bright >> 3);
 627              		.loc 2 591 5 view .LVU211
 591:Drivers/lvgl/src/extra/widgets/led/../../../../src/hal/../draw/../misc/lv_color.h ****     return (uint8_t)(bright >> 3);
 628              		.loc 2 591 39 is_stmt 0 view .LVU212
 629 0276 CCF30743 		ubfx	r3, ip, #16, #8
 591:Drivers/lvgl/src/extra/widgets/led/../../../../src/hal/../draw/../misc/lv_color.h ****     return (uint8_t)(bright >> 3);
 630              		.loc 2 591 37 view .LVU213
 631 027a 03EB4303 		add	r3, r3, r3, lsl #1
 591:Drivers/lvgl/src/extra/widgets/led/../../../../src/hal/../draw/../misc/lv_color.h ****     return (uint8_t)(bright >> 3);
 632              		.loc 2 591 92 view .LVU214
 633 027e CCF3072E 		ubfx	lr, ip, #8, #8
 591:Drivers/lvgl/src/extra/widgets/led/../../../../src/hal/../draw/../misc/lv_color.h ****     return (uint8_t)(bright >> 3);
 634              		.loc 2 591 85 view .LVU215
 635 0282 03EB8E03 		add	r3, r3, lr, lsl #2
 591:Drivers/lvgl/src/extra/widgets/led/../../../../src/hal/../draw/../misc/lv_color.h ****     return (uint8_t)(bright >> 3);
 636              		.loc 2 591 63 view .LVU216
 637 0286 5FFA8CFC 		uxtb	ip, ip
 638              	.LVL73:
 591:Drivers/lvgl/src/extra/widgets/led/../../../../src/hal/../draw/../misc/lv_color.h ****     return (uint8_t)(bright >> 3);
 639              		.loc 2 591 14 view .LVU217
 640 028a 1CFA83F3 		uxtah	r3, ip, r3
 641              	.LVL74:
 592:Drivers/lvgl/src/extra/widgets/led/../../../../src/hal/../draw/../misc/lv_color.h **** }
 642              		.loc 2 592 5 is_stmt 1 view .LVU218
 592:Drivers/lvgl/src/extra/widgets/led/../../../../src/hal/../draw/../misc/lv_color.h **** }
 643              		.loc 2 592 12 is_stmt 0 view .LVU219
 644 028e C3F3C703 		ubfx	r3, r3, #3, #8
 645              	.LVL75:
 592:Drivers/lvgl/src/extra/widgets/led/../../../../src/hal/../draw/../misc/lv_color.h **** }
 646              		.loc 2 592 12 view .LVU220
 647              	.LBE182:
 648              	.LBE181:
 649              	.LBB185:
 650              	.LBI185:
 439:Drivers/lvgl/src/extra/widgets/led/../../../../src/hal/../draw/../misc/lv_color.h **** {
 651              		.loc 2 439 48 is_stmt 1 view .LVU221
 652              	.LBB186:
 441:Drivers/lvgl/src/extra/widgets/led/../../../../src/hal/../draw/../misc/lv_color.h **** 
 653              		.loc 2 441 5 view .LVU222
 445:Drivers/lvgl/src/extra/widgets/led/../../../../src/hal/../draw/../misc/lv_color.h ****     c2.full = c2.full << 8 | c2.full >> 8;
 654              		.loc 2 445 5 view .LVU223
 446:Drivers/lvgl/src/extra/widgets/led/../../../../src/hal/../draw/../misc/lv_color.h **** #endif
 655              		.loc 2 446 5 view .LVU224
 449:Drivers/lvgl/src/extra/widgets/led/../../../../src/hal/../draw/../misc/lv_color.h ****     uint32_t bg = (uint32_t)((uint32_t)c2.full | ((uint32_t)c2.full << 16)) &
 656              		.loc 2 449 5 view .LVU225
 449:Drivers/lvgl/src/extra/widgets/led/../../../../src/hal/../draw/../misc/lv_color.h ****     uint32_t bg = (uint32_t)((uint32_t)c2.full | ((uint32_t)c2.full << 16)) &
 657              		.loc 2 449 11 is_stmt 0 view .LVU226
 658 0292 0433     		adds	r3, r3, #4
 659              	.LVL76:
 450:Drivers/lvgl/src/extra/widgets/led/../../../../src/hal/../draw/../misc/lv_color.h ****                   0x7E0F81F; /*0b00000111111000001111100000011111*/
ARM GAS  /var/folders/0z/tsy30v1j4xl4_7kw94k978ww0000gn/T//ccCXLm7m.s 			page 32


 660              		.loc 2 450 5 is_stmt 1 view .LVU227
 452:Drivers/lvgl/src/extra/widgets/led/../../../../src/hal/../draw/../misc/lv_color.h ****     uint32_t result = ((((fg - bg) * mix) >> 5) + bg) & 0x7E0F81F;
 661              		.loc 2 452 5 view .LVU228
 453:Drivers/lvgl/src/extra/widgets/led/../../../../src/hal/../draw/../misc/lv_color.h ****     ret.full = (uint16_t)((result >> 16) | result);
 662              		.loc 2 453 5 view .LVU229
 453:Drivers/lvgl/src/extra/widgets/led/../../../../src/hal/../draw/../misc/lv_color.h ****     ret.full = (uint16_t)((result >> 16) | result);
 663              		.loc 2 453 30 is_stmt 0 view .LVU230
 664 0294 3040     		ands	r0, r0, r6
 665              	.LVL77:
 453:Drivers/lvgl/src/extra/widgets/led/../../../../src/hal/../draw/../misc/lv_color.h ****     ret.full = (uint16_t)((result >> 16) | result);
 666              		.loc 2 453 36 view .LVU231
 667 0296 C3F3C703 		ubfx	r3, r3, #3, #8
 668              	.LVL78:
 453:Drivers/lvgl/src/extra/widgets/led/../../../../src/hal/../draw/../misc/lv_color.h ****     ret.full = (uint16_t)((result >> 16) | result);
 669              		.loc 2 453 36 view .LVU232
 670 029a 00FB03F3 		mul	r3, r0, r3
 453:Drivers/lvgl/src/extra/widgets/led/../../../../src/hal/../draw/../misc/lv_color.h ****     ret.full = (uint16_t)((result >> 16) | result);
 671              		.loc 2 453 14 view .LVU233
 672 029e 06EA5313 		and	r3, r6, r3, lsr #5
 673              	.LVL79:
 454:Drivers/lvgl/src/extra/widgets/led/../../../../src/hal/../draw/../misc/lv_color.h **** #if LV_COLOR_16_SWAP == 1
 674              		.loc 2 454 5 is_stmt 1 view .LVU234
 454:Drivers/lvgl/src/extra/widgets/led/../../../../src/hal/../draw/../misc/lv_color.h **** #if LV_COLOR_16_SWAP == 1
 675              		.loc 2 454 16 is_stmt 0 view .LVU235
 676 02a2 43EA1343 		orr	r3, r3, r3, lsr #16
 677              	.LVL80:
 454:Drivers/lvgl/src/extra/widgets/led/../../../../src/hal/../draw/../misc/lv_color.h **** #if LV_COLOR_16_SWAP == 1
 678              		.loc 2 454 16 view .LVU236
 679 02a6 98B2     		uxth	r0, r3
 680              	.LVL81:
 456:Drivers/lvgl/src/extra/widgets/led/../../../../src/hal/../draw/../misc/lv_color.h **** #endif
 681              		.loc 2 456 5 is_stmt 1 view .LVU237
 456:Drivers/lvgl/src/extra/widgets/led/../../../../src/hal/../draw/../misc/lv_color.h **** #endif
 682              		.loc 2 456 30 is_stmt 0 view .LVU238
 683 02a8 C3F30723 		ubfx	r3, r3, #8, #8
 684 02ac 43EA0023 		orr	r3, r3, r0, lsl #8
 472:Drivers/lvgl/src/extra/widgets/led/../../../../src/hal/../draw/../misc/lv_color.h **** }
 685              		.loc 2 472 5 is_stmt 1 view .LVU239
 686              	.LVL82:
 472:Drivers/lvgl/src/extra/widgets/led/../../../../src/hal/../draw/../misc/lv_color.h **** }
 687              		.loc 2 472 5 is_stmt 0 view .LVU240
 688              	.LBE186:
 689              	.LBE185:
 186:Drivers/lvgl/src/extra/widgets/led/lv_led.c ****         rect_dsc.border_color = lv_color_mix(led->color, lv_color_black(), lv_color_brightness(rect
 690              		.loc 1 186 33 view .LVU241
 691 02b0 ADF82C30 		strh	r3, [sp, #44]	@ movhi
 187:Drivers/lvgl/src/extra/widgets/led/lv_led.c ****         rect_dsc.outline_color = lv_color_mix(led->color, lv_color_black(), lv_color_brightness(rec
 692              		.loc 1 187 9 is_stmt 1 view .LVU242
 693              	.LBB187:
 694              	.LBI187:
 700:Drivers/lvgl/src/extra/widgets/led/../../../../src/hal/../draw/../misc/lv_color.h **** {
 695              		.loc 2 700 26 view .LVU243
 696              		.loc 2 702 5 view .LVU244
 697              	.LVL83:
 698              	.LBB188:
 699              	.LBI188:
 595:Drivers/lvgl/src/extra/widgets/led/../../../../src/hal/../draw/../misc/lv_color.h **** {
ARM GAS  /var/folders/0z/tsy30v1j4xl4_7kw94k978ww0000gn/T//ccCXLm7m.s 			page 33


 700              		.loc 2 595 26 view .LVU245
 701              	.LBB189:
 597:Drivers/lvgl/src/extra/widgets/led/../../../../src/hal/../draw/../misc/lv_color.h **** }
 702              		.loc 2 597 5 view .LVU246
 597:Drivers/lvgl/src/extra/widgets/led/../../../../src/hal/../draw/../misc/lv_color.h **** }
 703              		.loc 2 597 5 is_stmt 0 view .LVU247
 704 02b4 BDF81E30 		ldrh	r3, [sp, #30]
 705              	.LBE189:
 706              	.LBE188:
 707              	.LBE187:
 708              	.LBB190:
 709              	.LBI190:
 587:Drivers/lvgl/src/extra/widgets/led/../../../../src/hal/../draw/../misc/lv_color.h **** {
 710              		.loc 2 587 23 is_stmt 1 view .LVU248
 711              	.LBB191:
 589:Drivers/lvgl/src/extra/widgets/led/../../../../src/hal/../draw/../misc/lv_color.h ****     c32.full        = lv_color_to32(color);
 712              		.loc 2 589 5 view .LVU249
 590:Drivers/lvgl/src/extra/widgets/led/../../../../src/hal/../draw/../misc/lv_color.h ****     uint16_t bright = (uint16_t)(3u * LV_COLOR_GET_R32(c32) + LV_COLOR_GET_B32(c32) + 4u * LV_COLOR
 713              		.loc 2 590 5 view .LVU250
 714              	.LBB192:
 715              	.LBI192:
 375:Drivers/lvgl/src/extra/widgets/led/../../../../src/hal/../draw/../misc/lv_color.h **** {
 716              		.loc 2 375 24 view .LVU251
 717              	.LBB193:
 419:Drivers/lvgl/src/extra/widgets/led/../../../../src/hal/../draw/../misc/lv_color.h ****     LV_COLOR_SET_R32(ret, (LV_COLOR_GET_R(color) * 263 + 7) >> 5);
 718              		.loc 2 419 5 view .LVU252
 420:Drivers/lvgl/src/extra/widgets/led/../../../../src/hal/../draw/../misc/lv_color.h ****     LV_COLOR_SET_G32(ret, (LV_COLOR_GET_G(color) * 259 + 3) >> 6);
 719              		.loc 2 420 5 view .LVU253
 720              	.LVL84:
 420:Drivers/lvgl/src/extra/widgets/led/../../../../src/hal/../draw/../misc/lv_color.h ****     LV_COLOR_SET_G32(ret, (LV_COLOR_GET_G(color) * 259 + 3) >> 6);
 721              		.loc 2 420 5 is_stmt 0 view .LVU254
 722 02b8 C3F3C400 		ubfx	r0, r3, #3, #5
 723 02bc 00EB401C 		add	ip, r0, r0, lsl #5
 724 02c0 C0EBCC0C 		rsb	ip, r0, ip, lsl #3
 725 02c4 0CF1070C 		add	ip, ip, #7
 726 02c8 CCF3471C 		ubfx	ip, ip, #5, #8
 727 02cc 0020     		movs	r0, #0
 728              	.LVL85:
 420:Drivers/lvgl/src/extra/widgets/led/../../../../src/hal/../draw/../misc/lv_color.h ****     LV_COLOR_SET_G32(ret, (LV_COLOR_GET_G(color) * 259 + 3) >> 6);
 729              		.loc 2 420 5 view .LVU255
 730 02ce 6CF31740 		bfi	r0, ip, #16, #8
 731              	.LVL86:
 421:Drivers/lvgl/src/extra/widgets/led/../../../../src/hal/../draw/../misc/lv_color.h ****     LV_COLOR_SET_B32(ret, (LV_COLOR_GET_B(color) * 263 + 7) >> 5);
 732              		.loc 2 421 5 is_stmt 1 view .LVU256
 733 02d2 03F0070E 		and	lr, r3, #7
 734 02d6 C3F3423C 		ubfx	ip, r3, #13, #3
 735 02da 0CEBCE0C 		add	ip, ip, lr, lsl #3
 736 02de 0CEBCC1E 		add	lr, ip, ip, lsl #7
 737 02e2 0CEB4E0C 		add	ip, ip, lr, lsl #1
 738 02e6 0CF1030C 		add	ip, ip, #3
 739 02ea CCF3871C 		ubfx	ip, ip, #6, #8
 740 02ee 6CF30F20 		bfi	r0, ip, #8, #8
 422:Drivers/lvgl/src/extra/widgets/led/../../../../src/hal/../draw/../misc/lv_color.h ****     LV_COLOR_SET_A32(ret, 0xFF);
 741              		.loc 2 422 5 view .LVU257
 742 02f2 C3F30423 		ubfx	r3, r3, #8, #5
 743              	.LVL87:
 422:Drivers/lvgl/src/extra/widgets/led/../../../../src/hal/../draw/../misc/lv_color.h ****     LV_COLOR_SET_A32(ret, 0xFF);
ARM GAS  /var/folders/0z/tsy30v1j4xl4_7kw94k978ww0000gn/T//ccCXLm7m.s 			page 34


 744              		.loc 2 422 5 is_stmt 0 view .LVU258
 745 02f6 03EB431C 		add	ip, r3, r3, lsl #5
 746 02fa C3EBCC03 		rsb	r3, r3, ip, lsl #3
 747 02fe 0733     		adds	r3, r3, #7
 748 0300 C3F34713 		ubfx	r3, r3, #5, #8
 749 0304 63F30700 		bfi	r0, r3, #0, #8
 423:Drivers/lvgl/src/extra/widgets/led/../../../../src/hal/../draw/../misc/lv_color.h ****     return ret.full;
 750              		.loc 2 423 5 is_stmt 1 view .LVU259
 751 0308 40F07F40 		orr	r0, r0, #-16777216
 752              	.LVL88:
 424:Drivers/lvgl/src/extra/widgets/led/../../../../src/hal/../draw/../misc/lv_color.h **** #elif LV_COLOR_DEPTH == 32
 753              		.loc 2 424 5 view .LVU260
 754              	.LBE193:
 755              	.LBE192:
 591:Drivers/lvgl/src/extra/widgets/led/../../../../src/hal/../draw/../misc/lv_color.h ****     return (uint8_t)(bright >> 3);
 756              		.loc 2 591 5 view .LVU261
 591:Drivers/lvgl/src/extra/widgets/led/../../../../src/hal/../draw/../misc/lv_color.h ****     return (uint8_t)(bright >> 3);
 757              		.loc 2 591 39 is_stmt 0 view .LVU262
 758 030c C0F30743 		ubfx	r3, r0, #16, #8
 591:Drivers/lvgl/src/extra/widgets/led/../../../../src/hal/../draw/../misc/lv_color.h ****     return (uint8_t)(bright >> 3);
 759              		.loc 2 591 37 view .LVU263
 760 0310 03EB4303 		add	r3, r3, r3, lsl #1
 591:Drivers/lvgl/src/extra/widgets/led/../../../../src/hal/../draw/../misc/lv_color.h ****     return (uint8_t)(bright >> 3);
 761              		.loc 2 591 92 view .LVU264
 762 0314 C0F3072C 		ubfx	ip, r0, #8, #8
 591:Drivers/lvgl/src/extra/widgets/led/../../../../src/hal/../draw/../misc/lv_color.h ****     return (uint8_t)(bright >> 3);
 763              		.loc 2 591 85 view .LVU265
 764 0318 03EB8C03 		add	r3, r3, ip, lsl #2
 591:Drivers/lvgl/src/extra/widgets/led/../../../../src/hal/../draw/../misc/lv_color.h ****     return (uint8_t)(bright >> 3);
 765              		.loc 2 591 63 view .LVU266
 766 031c C0B2     		uxtb	r0, r0
 767              	.LVL89:
 591:Drivers/lvgl/src/extra/widgets/led/../../../../src/hal/../draw/../misc/lv_color.h ****     return (uint8_t)(bright >> 3);
 768              		.loc 2 591 14 view .LVU267
 769 031e 10FA83F3 		uxtah	r3, r0, r3
 770              	.LVL90:
 592:Drivers/lvgl/src/extra/widgets/led/../../../../src/hal/../draw/../misc/lv_color.h **** }
 771              		.loc 2 592 5 is_stmt 1 view .LVU268
 592:Drivers/lvgl/src/extra/widgets/led/../../../../src/hal/../draw/../misc/lv_color.h **** }
 772              		.loc 2 592 12 is_stmt 0 view .LVU269
 773 0322 C3F3C703 		ubfx	r3, r3, #3, #8
 774              	.LVL91:
 592:Drivers/lvgl/src/extra/widgets/led/../../../../src/hal/../draw/../misc/lv_color.h **** }
 775              		.loc 2 592 12 view .LVU270
 776              	.LBE191:
 777              	.LBE190:
 778              	.LBB194:
 779              	.LBI194:
 439:Drivers/lvgl/src/extra/widgets/led/../../../../src/hal/../draw/../misc/lv_color.h **** {
 780              		.loc 2 439 48 is_stmt 1 view .LVU271
 781              	.LBB195:
 441:Drivers/lvgl/src/extra/widgets/led/../../../../src/hal/../draw/../misc/lv_color.h **** 
 782              		.loc 2 441 5 view .LVU272
 445:Drivers/lvgl/src/extra/widgets/led/../../../../src/hal/../draw/../misc/lv_color.h ****     c2.full = c2.full << 8 | c2.full >> 8;
 783              		.loc 2 445 5 view .LVU273
 445:Drivers/lvgl/src/extra/widgets/led/../../../../src/hal/../draw/../misc/lv_color.h ****     c2.full = c2.full << 8 | c2.full >> 8;
 784              		.loc 2 445 17 is_stmt 0 view .LVU274
ARM GAS  /var/folders/0z/tsy30v1j4xl4_7kw94k978ww0000gn/T//ccCXLm7m.s 			page 35


 785 0326 B7F824C0 		ldrh	ip, [r7, #36]
 445:Drivers/lvgl/src/extra/widgets/led/../../../../src/hal/../draw/../misc/lv_color.h ****     c2.full = c2.full << 8 | c2.full >> 8;
 786              		.loc 2 445 28 view .LVU275
 787 032a 4FEA1C20 		lsr	r0, ip, #8
 788 032e 40EA0C20 		orr	r0, r0, ip, lsl #8
 789 0332 1FFA80FC 		uxth	ip, r0
 446:Drivers/lvgl/src/extra/widgets/led/../../../../src/hal/../draw/../misc/lv_color.h **** #endif
 790              		.loc 2 446 5 is_stmt 1 view .LVU276
 449:Drivers/lvgl/src/extra/widgets/led/../../../../src/hal/../draw/../misc/lv_color.h ****     uint32_t bg = (uint32_t)((uint32_t)c2.full | ((uint32_t)c2.full << 16)) &
 791              		.loc 2 449 5 view .LVU277
 449:Drivers/lvgl/src/extra/widgets/led/../../../../src/hal/../draw/../misc/lv_color.h ****     uint32_t bg = (uint32_t)((uint32_t)c2.full | ((uint32_t)c2.full << 16)) &
 792              		.loc 2 449 11 is_stmt 0 view .LVU278
 793 0336 0433     		adds	r3, r3, #4
 794              	.LVL92:
 450:Drivers/lvgl/src/extra/widgets/led/../../../../src/hal/../draw/../misc/lv_color.h ****                   0x7E0F81F; /*0b00000111111000001111100000011111*/
 795              		.loc 2 450 5 is_stmt 1 view .LVU279
 452:Drivers/lvgl/src/extra/widgets/led/../../../../src/hal/../draw/../misc/lv_color.h ****     uint32_t result = ((((fg - bg) * mix) >> 5) + bg) & 0x7E0F81F;
 796              		.loc 2 452 5 view .LVU280
 452:Drivers/lvgl/src/extra/widgets/led/../../../../src/hal/../draw/../misc/lv_color.h ****     uint32_t result = ((((fg - bg) * mix) >> 5) + bg) & 0x7E0F81F;
 797              		.loc 2 452 19 is_stmt 0 view .LVU281
 798 0338 4CEA004C 		orr	ip, ip, r0, lsl #16
 799              	.LVL93:
 453:Drivers/lvgl/src/extra/widgets/led/../../../../src/hal/../draw/../misc/lv_color.h ****     ret.full = (uint16_t)((result >> 16) | result);
 800              		.loc 2 453 5 is_stmt 1 view .LVU282
 453:Drivers/lvgl/src/extra/widgets/led/../../../../src/hal/../draw/../misc/lv_color.h ****     ret.full = (uint16_t)((result >> 16) | result);
 801              		.loc 2 453 30 is_stmt 0 view .LVU283
 802 033c 0CEA0600 		and	r0, ip, r6
 803              	.LVL94:
 453:Drivers/lvgl/src/extra/widgets/led/../../../../src/hal/../draw/../misc/lv_color.h ****     ret.full = (uint16_t)((result >> 16) | result);
 804              		.loc 2 453 36 view .LVU284
 805 0340 C3F3C703 		ubfx	r3, r3, #3, #8
 806              	.LVL95:
 453:Drivers/lvgl/src/extra/widgets/led/../../../../src/hal/../draw/../misc/lv_color.h ****     ret.full = (uint16_t)((result >> 16) | result);
 807              		.loc 2 453 36 view .LVU285
 808 0344 00FB03F3 		mul	r3, r0, r3
 453:Drivers/lvgl/src/extra/widgets/led/../../../../src/hal/../draw/../misc/lv_color.h ****     ret.full = (uint16_t)((result >> 16) | result);
 809              		.loc 2 453 14 view .LVU286
 810 0348 06EA5313 		and	r3, r6, r3, lsr #5
 811              	.LVL96:
 454:Drivers/lvgl/src/extra/widgets/led/../../../../src/hal/../draw/../misc/lv_color.h **** #if LV_COLOR_16_SWAP == 1
 812              		.loc 2 454 5 is_stmt 1 view .LVU287
 454:Drivers/lvgl/src/extra/widgets/led/../../../../src/hal/../draw/../misc/lv_color.h **** #if LV_COLOR_16_SWAP == 1
 813              		.loc 2 454 16 is_stmt 0 view .LVU288
 814 034c 43EA1343 		orr	r3, r3, r3, lsr #16
 815              	.LVL97:
 454:Drivers/lvgl/src/extra/widgets/led/../../../../src/hal/../draw/../misc/lv_color.h **** #if LV_COLOR_16_SWAP == 1
 816              		.loc 2 454 16 view .LVU289
 817 0350 98B2     		uxth	r0, r3
 818              	.LVL98:
 456:Drivers/lvgl/src/extra/widgets/led/../../../../src/hal/../draw/../misc/lv_color.h **** #endif
 819              		.loc 2 456 5 is_stmt 1 view .LVU290
 456:Drivers/lvgl/src/extra/widgets/led/../../../../src/hal/../draw/../misc/lv_color.h **** #endif
 820              		.loc 2 456 30 is_stmt 0 view .LVU291
 821 0352 C3F30723 		ubfx	r3, r3, #8, #8
 822 0356 43EA0023 		orr	r3, r3, r0, lsl #8
 823 035a 9BB2     		uxth	r3, r3
 472:Drivers/lvgl/src/extra/widgets/led/../../../../src/hal/../draw/../misc/lv_color.h **** }
ARM GAS  /var/folders/0z/tsy30v1j4xl4_7kw94k978ww0000gn/T//ccCXLm7m.s 			page 36


 824              		.loc 2 472 5 is_stmt 1 view .LVU292
 825              	.LVL99:
 472:Drivers/lvgl/src/extra/widgets/led/../../../../src/hal/../draw/../misc/lv_color.h **** }
 826              		.loc 2 472 5 is_stmt 0 view .LVU293
 827              	.LBE195:
 828              	.LBE194:
 187:Drivers/lvgl/src/extra/widgets/led/lv_led.c ****         rect_dsc.outline_color = lv_color_mix(led->color, lv_color_black(), lv_color_brightness(rec
 829              		.loc 1 187 33 view .LVU294
 830 035c ADF81E30 		strh	r3, [sp, #30]	@ movhi
 188:Drivers/lvgl/src/extra/widgets/led/lv_led.c **** 
 831              		.loc 1 188 9 is_stmt 1 view .LVU295
 832              	.LBB196:
 833              	.LBI196:
 700:Drivers/lvgl/src/extra/widgets/led/../../../../src/hal/../draw/../misc/lv_color.h **** {
 834              		.loc 2 700 26 view .LVU296
 835              		.loc 2 702 5 view .LVU297
 836              	.LVL100:
 837              	.LBB197:
 838              	.LBI197:
 595:Drivers/lvgl/src/extra/widgets/led/../../../../src/hal/../draw/../misc/lv_color.h **** {
 839              		.loc 2 595 26 view .LVU298
 840              	.LBB198:
 597:Drivers/lvgl/src/extra/widgets/led/../../../../src/hal/../draw/../misc/lv_color.h **** }
 841              		.loc 2 597 5 view .LVU299
 597:Drivers/lvgl/src/extra/widgets/led/../../../../src/hal/../draw/../misc/lv_color.h **** }
 842              		.loc 2 597 5 is_stmt 0 view .LVU300
 843 0360 BDF82400 		ldrh	r0, [sp, #36]
 844              	.LBE198:
 845              	.LBE197:
 846              	.LBE196:
 847              	.LBB199:
 848              	.LBI199:
 587:Drivers/lvgl/src/extra/widgets/led/../../../../src/hal/../draw/../misc/lv_color.h **** {
 849              		.loc 2 587 23 is_stmt 1 view .LVU301
 850              	.LBB200:
 589:Drivers/lvgl/src/extra/widgets/led/../../../../src/hal/../draw/../misc/lv_color.h ****     c32.full        = lv_color_to32(color);
 851              		.loc 2 589 5 view .LVU302
 590:Drivers/lvgl/src/extra/widgets/led/../../../../src/hal/../draw/../misc/lv_color.h ****     uint16_t bright = (uint16_t)(3u * LV_COLOR_GET_R32(c32) + LV_COLOR_GET_B32(c32) + 4u * LV_COLOR
 852              		.loc 2 590 5 view .LVU303
 853              	.LBB201:
 854              	.LBI201:
 375:Drivers/lvgl/src/extra/widgets/led/../../../../src/hal/../draw/../misc/lv_color.h **** {
 855              		.loc 2 375 24 view .LVU304
 856              	.LBB202:
 419:Drivers/lvgl/src/extra/widgets/led/../../../../src/hal/../draw/../misc/lv_color.h ****     LV_COLOR_SET_R32(ret, (LV_COLOR_GET_R(color) * 263 + 7) >> 5);
 857              		.loc 2 419 5 view .LVU305
 420:Drivers/lvgl/src/extra/widgets/led/../../../../src/hal/../draw/../misc/lv_color.h ****     LV_COLOR_SET_G32(ret, (LV_COLOR_GET_G(color) * 259 + 3) >> 6);
 858              		.loc 2 420 5 view .LVU306
 859              	.LVL101:
 420:Drivers/lvgl/src/extra/widgets/led/../../../../src/hal/../draw/../misc/lv_color.h ****     LV_COLOR_SET_G32(ret, (LV_COLOR_GET_G(color) * 259 + 3) >> 6);
 860              		.loc 2 420 5 is_stmt 0 view .LVU307
 861 0364 C0F3C40E 		ubfx	lr, r0, #3, #5
 862 0368 0EEB4E18 		add	r8, lr, lr, lsl #5
 863 036c CEEBC808 		rsb	r8, lr, r8, lsl #3
 864 0370 08F10708 		add	r8, r8, #7
 865 0374 C8F34718 		ubfx	r8, r8, #5, #8
 866 0378 4FF0000E 		mov	lr, #0
ARM GAS  /var/folders/0z/tsy30v1j4xl4_7kw94k978ww0000gn/T//ccCXLm7m.s 			page 37


 867              	.LVL102:
 420:Drivers/lvgl/src/extra/widgets/led/../../../../src/hal/../draw/../misc/lv_color.h ****     LV_COLOR_SET_G32(ret, (LV_COLOR_GET_G(color) * 259 + 3) >> 6);
 868              		.loc 2 420 5 view .LVU308
 869 037c 68F3174E 		bfi	lr, r8, #16, #8
 870              	.LVL103:
 421:Drivers/lvgl/src/extra/widgets/led/../../../../src/hal/../draw/../misc/lv_color.h ****     LV_COLOR_SET_B32(ret, (LV_COLOR_GET_B(color) * 263 + 7) >> 5);
 871              		.loc 2 421 5 is_stmt 1 view .LVU309
 872 0380 00F00709 		and	r9, r0, #7
 873 0384 C0F34238 		ubfx	r8, r0, #13, #3
 874 0388 08EBC908 		add	r8, r8, r9, lsl #3
 875 038c 08EBC819 		add	r9, r8, r8, lsl #7
 876 0390 08EB4908 		add	r8, r8, r9, lsl #1
 877 0394 08F10308 		add	r8, r8, #3
 878 0398 C8F38718 		ubfx	r8, r8, #6, #8
 879 039c 68F30F2E 		bfi	lr, r8, #8, #8
 422:Drivers/lvgl/src/extra/widgets/led/../../../../src/hal/../draw/../misc/lv_color.h ****     LV_COLOR_SET_A32(ret, 0xFF);
 880              		.loc 2 422 5 view .LVU310
 881 03a0 C0F30420 		ubfx	r0, r0, #8, #5
 882              	.LVL104:
 422:Drivers/lvgl/src/extra/widgets/led/../../../../src/hal/../draw/../misc/lv_color.h ****     LV_COLOR_SET_A32(ret, 0xFF);
 883              		.loc 2 422 5 is_stmt 0 view .LVU311
 884 03a4 00EB4018 		add	r8, r0, r0, lsl #5
 885 03a8 C0EBC800 		rsb	r0, r0, r8, lsl #3
 886 03ac 0730     		adds	r0, r0, #7
 887 03ae C0F34710 		ubfx	r0, r0, #5, #8
 888 03b2 60F3070E 		bfi	lr, r0, #0, #8
 423:Drivers/lvgl/src/extra/widgets/led/../../../../src/hal/../draw/../misc/lv_color.h ****     return ret.full;
 889              		.loc 2 423 5 is_stmt 1 view .LVU312
 890 03b6 4EF07F4E 		orr	lr, lr, #-16777216
 891              	.LVL105:
 424:Drivers/lvgl/src/extra/widgets/led/../../../../src/hal/../draw/../misc/lv_color.h **** #elif LV_COLOR_DEPTH == 32
 892              		.loc 2 424 5 view .LVU313
 893              	.LBE202:
 894              	.LBE201:
 591:Drivers/lvgl/src/extra/widgets/led/../../../../src/hal/../draw/../misc/lv_color.h ****     return (uint8_t)(bright >> 3);
 895              		.loc 2 591 5 view .LVU314
 591:Drivers/lvgl/src/extra/widgets/led/../../../../src/hal/../draw/../misc/lv_color.h ****     return (uint8_t)(bright >> 3);
 896              		.loc 2 591 39 is_stmt 0 view .LVU315
 897 03ba CEF30740 		ubfx	r0, lr, #16, #8
 591:Drivers/lvgl/src/extra/widgets/led/../../../../src/hal/../draw/../misc/lv_color.h ****     return (uint8_t)(bright >> 3);
 898              		.loc 2 591 37 view .LVU316
 899 03be 00EB4000 		add	r0, r0, r0, lsl #1
 591:Drivers/lvgl/src/extra/widgets/led/../../../../src/hal/../draw/../misc/lv_color.h ****     return (uint8_t)(bright >> 3);
 900              		.loc 2 591 92 view .LVU317
 901 03c2 CEF30728 		ubfx	r8, lr, #8, #8
 591:Drivers/lvgl/src/extra/widgets/led/../../../../src/hal/../draw/../misc/lv_color.h ****     return (uint8_t)(bright >> 3);
 902              		.loc 2 591 85 view .LVU318
 903 03c6 00EB8800 		add	r0, r0, r8, lsl #2
 591:Drivers/lvgl/src/extra/widgets/led/../../../../src/hal/../draw/../misc/lv_color.h ****     return (uint8_t)(bright >> 3);
 904              		.loc 2 591 63 view .LVU319
 905 03ca 5FFA8EFE 		uxtb	lr, lr
 906              	.LVL106:
 591:Drivers/lvgl/src/extra/widgets/led/../../../../src/hal/../draw/../misc/lv_color.h ****     return (uint8_t)(bright >> 3);
 907              		.loc 2 591 14 view .LVU320
 908 03ce 1EFA80F0 		uxtah	r0, lr, r0
 909              	.LVL107:
 592:Drivers/lvgl/src/extra/widgets/led/../../../../src/hal/../draw/../misc/lv_color.h **** }
ARM GAS  /var/folders/0z/tsy30v1j4xl4_7kw94k978ww0000gn/T//ccCXLm7m.s 			page 38


 910              		.loc 2 592 5 is_stmt 1 view .LVU321
 592:Drivers/lvgl/src/extra/widgets/led/../../../../src/hal/../draw/../misc/lv_color.h **** }
 911              		.loc 2 592 12 is_stmt 0 view .LVU322
 912 03d2 C0F3C700 		ubfx	r0, r0, #3, #8
 913              	.LVL108:
 592:Drivers/lvgl/src/extra/widgets/led/../../../../src/hal/../draw/../misc/lv_color.h **** }
 914              		.loc 2 592 12 view .LVU323
 915              	.LBE200:
 916              	.LBE199:
 917              	.LBB203:
 918              	.LBI203:
 439:Drivers/lvgl/src/extra/widgets/led/../../../../src/hal/../draw/../misc/lv_color.h **** {
 919              		.loc 2 439 48 is_stmt 1 view .LVU324
 920              	.LBB204:
 441:Drivers/lvgl/src/extra/widgets/led/../../../../src/hal/../draw/../misc/lv_color.h **** 
 921              		.loc 2 441 5 view .LVU325
 445:Drivers/lvgl/src/extra/widgets/led/../../../../src/hal/../draw/../misc/lv_color.h ****     c2.full = c2.full << 8 | c2.full >> 8;
 922              		.loc 2 445 5 view .LVU326
 446:Drivers/lvgl/src/extra/widgets/led/../../../../src/hal/../draw/../misc/lv_color.h **** #endif
 923              		.loc 2 446 5 view .LVU327
 449:Drivers/lvgl/src/extra/widgets/led/../../../../src/hal/../draw/../misc/lv_color.h ****     uint32_t bg = (uint32_t)((uint32_t)c2.full | ((uint32_t)c2.full << 16)) &
 924              		.loc 2 449 5 view .LVU328
 449:Drivers/lvgl/src/extra/widgets/led/../../../../src/hal/../draw/../misc/lv_color.h ****     uint32_t bg = (uint32_t)((uint32_t)c2.full | ((uint32_t)c2.full << 16)) &
 925              		.loc 2 449 11 is_stmt 0 view .LVU329
 926 03d6 0430     		adds	r0, r0, #4
 927              	.LVL109:
 450:Drivers/lvgl/src/extra/widgets/led/../../../../src/hal/../draw/../misc/lv_color.h ****                   0x7E0F81F; /*0b00000111111000001111100000011111*/
 928              		.loc 2 450 5 is_stmt 1 view .LVU330
 452:Drivers/lvgl/src/extra/widgets/led/../../../../src/hal/../draw/../misc/lv_color.h ****     uint32_t result = ((((fg - bg) * mix) >> 5) + bg) & 0x7E0F81F;
 929              		.loc 2 452 5 view .LVU331
 453:Drivers/lvgl/src/extra/widgets/led/../../../../src/hal/../draw/../misc/lv_color.h ****     ret.full = (uint16_t)((result >> 16) | result);
 930              		.loc 2 453 5 view .LVU332
 453:Drivers/lvgl/src/extra/widgets/led/../../../../src/hal/../draw/../misc/lv_color.h ****     ret.full = (uint16_t)((result >> 16) | result);
 931              		.loc 2 453 30 is_stmt 0 view .LVU333
 932 03d8 0CEA060C 		and	ip, ip, r6
 933              	.LVL110:
 453:Drivers/lvgl/src/extra/widgets/led/../../../../src/hal/../draw/../misc/lv_color.h ****     ret.full = (uint16_t)((result >> 16) | result);
 934              		.loc 2 453 36 view .LVU334
 935 03dc C0F3C700 		ubfx	r0, r0, #3, #8
 936              	.LVL111:
 453:Drivers/lvgl/src/extra/widgets/led/../../../../src/hal/../draw/../misc/lv_color.h ****     ret.full = (uint16_t)((result >> 16) | result);
 937              		.loc 2 453 36 view .LVU335
 938 03e0 0CFB00F0 		mul	r0, ip, r0
 453:Drivers/lvgl/src/extra/widgets/led/../../../../src/hal/../draw/../misc/lv_color.h ****     ret.full = (uint16_t)((result >> 16) | result);
 939              		.loc 2 453 14 view .LVU336
 940 03e4 06EA5010 		and	r0, r6, r0, lsr #5
 941              	.LVL112:
 454:Drivers/lvgl/src/extra/widgets/led/../../../../src/hal/../draw/../misc/lv_color.h **** #if LV_COLOR_16_SWAP == 1
 942              		.loc 2 454 5 is_stmt 1 view .LVU337
 454:Drivers/lvgl/src/extra/widgets/led/../../../../src/hal/../draw/../misc/lv_color.h **** #if LV_COLOR_16_SWAP == 1
 943              		.loc 2 454 16 is_stmt 0 view .LVU338
 944 03e8 40EA1040 		orr	r0, r0, r0, lsr #16
 945              	.LVL113:
 454:Drivers/lvgl/src/extra/widgets/led/../../../../src/hal/../draw/../misc/lv_color.h **** #if LV_COLOR_16_SWAP == 1
 946              		.loc 2 454 16 view .LVU339
 947 03ec 1FFA80FC 		uxth	ip, r0
 948              	.LVL114:
ARM GAS  /var/folders/0z/tsy30v1j4xl4_7kw94k978ww0000gn/T//ccCXLm7m.s 			page 39


 456:Drivers/lvgl/src/extra/widgets/led/../../../../src/hal/../draw/../misc/lv_color.h **** #endif
 949              		.loc 2 456 5 is_stmt 1 view .LVU340
 456:Drivers/lvgl/src/extra/widgets/led/../../../../src/hal/../draw/../misc/lv_color.h **** #endif
 950              		.loc 2 456 30 is_stmt 0 view .LVU341
 951 03f0 C0F30720 		ubfx	r0, r0, #8, #8
 952 03f4 40EA0C20 		orr	r0, r0, ip, lsl #8
 472:Drivers/lvgl/src/extra/widgets/led/../../../../src/hal/../draw/../misc/lv_color.h **** }
 953              		.loc 2 472 5 is_stmt 1 view .LVU342
 954              	.LVL115:
 472:Drivers/lvgl/src/extra/widgets/led/../../../../src/hal/../draw/../misc/lv_color.h **** }
 955              		.loc 2 472 5 is_stmt 0 view .LVU343
 956              	.LBE204:
 957              	.LBE203:
 188:Drivers/lvgl/src/extra/widgets/led/lv_led.c **** 
 958              		.loc 1 188 34 view .LVU344
 959 03f8 ADF82400 		strh	r0, [sp, #36]	@ movhi
 191:Drivers/lvgl/src/extra/widgets/led/lv_led.c ****         rect_dsc.bg_grad.stops[0].color   = lv_color_mix(rect_dsc.bg_grad.stops[0].color, lv_color_
 960              		.loc 1 191 9 is_stmt 1 view .LVU345
 961              	.LBB205:
 962              	.LBI205:
 700:Drivers/lvgl/src/extra/widgets/led/../../../../src/hal/../draw/../misc/lv_color.h **** {
 963              		.loc 2 700 26 view .LVU346
 964              		.loc 2 702 5 view .LVU347
 965              	.LVL116:
 966              	.LBB206:
 967              	.LBI206:
 595:Drivers/lvgl/src/extra/widgets/led/../../../../src/hal/../draw/../misc/lv_color.h **** {
 968              		.loc 2 595 26 view .LVU348
 969              	.LBB207:
 597:Drivers/lvgl/src/extra/widgets/led/../../../../src/hal/../draw/../misc/lv_color.h **** }
 970              		.loc 2 597 5 view .LVU349
 597:Drivers/lvgl/src/extra/widgets/led/../../../../src/hal/../draw/../misc/lv_color.h **** }
 971              		.loc 2 597 5 is_stmt 0 view .LVU350
 972              	.LBE207:
 973              	.LBE206:
 974              	.LBE205:
 191:Drivers/lvgl/src/extra/widgets/led/lv_led.c ****         rect_dsc.bg_grad.stops[0].color   = lv_color_mix(rect_dsc.bg_grad.stops[0].color, lv_color_
 975              		.loc 1 191 29 view .LVU351
 976 03fc 97F82600 		ldrb	r0, [r7, #38]	@ zero_extendqisi2
 977              	.LVL117:
 978              	.LBB208:
 979              	.LBI208:
 439:Drivers/lvgl/src/extra/widgets/led/../../../../src/hal/../draw/../misc/lv_color.h **** {
 980              		.loc 2 439 48 is_stmt 1 view .LVU352
 981              	.LBB209:
 441:Drivers/lvgl/src/extra/widgets/led/../../../../src/hal/../draw/../misc/lv_color.h **** 
 982              		.loc 2 441 5 view .LVU353
 445:Drivers/lvgl/src/extra/widgets/led/../../../../src/hal/../draw/../misc/lv_color.h ****     c2.full = c2.full << 8 | c2.full >> 8;
 983              		.loc 2 445 5 view .LVU354
 445:Drivers/lvgl/src/extra/widgets/led/../../../../src/hal/../draw/../misc/lv_color.h ****     c2.full = c2.full << 8 | c2.full >> 8;
 984              		.loc 2 445 28 is_stmt 0 view .LVU355
 985 0400 4FEA152C 		lsr	ip, r5, #8
 986 0404 4CEA052C 		orr	ip, ip, r5, lsl #8
 987 0408 1FFA8CFE 		uxth	lr, ip
 446:Drivers/lvgl/src/extra/widgets/led/../../../../src/hal/../draw/../misc/lv_color.h **** #endif
 988              		.loc 2 446 5 is_stmt 1 view .LVU356
 449:Drivers/lvgl/src/extra/widgets/led/../../../../src/hal/../draw/../misc/lv_color.h ****     uint32_t bg = (uint32_t)((uint32_t)c2.full | ((uint32_t)c2.full << 16)) &
ARM GAS  /var/folders/0z/tsy30v1j4xl4_7kw94k978ww0000gn/T//ccCXLm7m.s 			page 40


 989              		.loc 2 449 5 view .LVU357
 449:Drivers/lvgl/src/extra/widgets/led/../../../../src/hal/../draw/../misc/lv_color.h ****     uint32_t bg = (uint32_t)((uint32_t)c2.full | ((uint32_t)c2.full << 16)) &
 990              		.loc 2 449 11 is_stmt 0 view .LVU358
 991 040c 051D     		adds	r5, r0, #4
 992              	.LVL118:
 450:Drivers/lvgl/src/extra/widgets/led/../../../../src/hal/../draw/../misc/lv_color.h ****                   0x7E0F81F; /*0b00000111111000001111100000011111*/
 993              		.loc 2 450 5 is_stmt 1 view .LVU359
 452:Drivers/lvgl/src/extra/widgets/led/../../../../src/hal/../draw/../misc/lv_color.h ****     uint32_t result = ((((fg - bg) * mix) >> 5) + bg) & 0x7E0F81F;
 994              		.loc 2 452 5 view .LVU360
 452:Drivers/lvgl/src/extra/widgets/led/../../../../src/hal/../draw/../misc/lv_color.h ****     uint32_t result = ((((fg - bg) * mix) >> 5) + bg) & 0x7E0F81F;
 995              		.loc 2 452 19 is_stmt 0 view .LVU361
 996 040e 4EEA0C4E 		orr	lr, lr, ip, lsl #16
 997              	.LVL119:
 453:Drivers/lvgl/src/extra/widgets/led/../../../../src/hal/../draw/../misc/lv_color.h ****     ret.full = (uint16_t)((result >> 16) | result);
 998              		.loc 2 453 5 is_stmt 1 view .LVU362
 453:Drivers/lvgl/src/extra/widgets/led/../../../../src/hal/../draw/../misc/lv_color.h ****     ret.full = (uint16_t)((result >> 16) | result);
 999              		.loc 2 453 30 is_stmt 0 view .LVU363
 1000 0412 0EEA060E 		and	lr, lr, r6
 1001              	.LVL120:
 453:Drivers/lvgl/src/extra/widgets/led/../../../../src/hal/../draw/../misc/lv_color.h ****     ret.full = (uint16_t)((result >> 16) | result);
 1002              		.loc 2 453 36 view .LVU364
 1003 0416 4FEAD50C 		lsr	ip, r5, #3
 1004 041a 0EFB0CFE 		mul	lr, lr, ip
 1005              	.LVL121:
 453:Drivers/lvgl/src/extra/widgets/led/../../../../src/hal/../draw/../misc/lv_color.h ****     ret.full = (uint16_t)((result >> 16) | result);
 1006              		.loc 2 453 14 view .LVU365
 1007 041e 06EA5E1E 		and	lr, r6, lr, lsr #5
 1008              	.LVL122:
 454:Drivers/lvgl/src/extra/widgets/led/../../../../src/hal/../draw/../misc/lv_color.h **** #if LV_COLOR_16_SWAP == 1
 1009              		.loc 2 454 5 is_stmt 1 view .LVU366
 454:Drivers/lvgl/src/extra/widgets/led/../../../../src/hal/../draw/../misc/lv_color.h **** #if LV_COLOR_16_SWAP == 1
 1010              		.loc 2 454 16 is_stmt 0 view .LVU367
 1011 0422 4EEA1E4E 		orr	lr, lr, lr, lsr #16
 1012              	.LVL123:
 454:Drivers/lvgl/src/extra/widgets/led/../../../../src/hal/../draw/../misc/lv_color.h **** #if LV_COLOR_16_SWAP == 1
 1013              		.loc 2 454 16 view .LVU368
 1014 0426 1FFA8EF8 		uxth	r8, lr
 456:Drivers/lvgl/src/extra/widgets/led/../../../../src/hal/../draw/../misc/lv_color.h **** #endif
 1015              		.loc 2 456 5 is_stmt 1 view .LVU369
 456:Drivers/lvgl/src/extra/widgets/led/../../../../src/hal/../draw/../misc/lv_color.h **** #endif
 1016              		.loc 2 456 30 is_stmt 0 view .LVU370
 1017 042a CEF3072E 		ubfx	lr, lr, #8, #8
 1018 042e 4EEA082E 		orr	lr, lr, r8, lsl #8
 472:Drivers/lvgl/src/extra/widgets/led/../../../../src/hal/../draw/../misc/lv_color.h **** }
 1019              		.loc 2 472 5 is_stmt 1 view .LVU371
 1020              	.LVL124:
 472:Drivers/lvgl/src/extra/widgets/led/../../../../src/hal/../draw/../misc/lv_color.h **** }
 1021              		.loc 2 472 5 is_stmt 0 view .LVU372
 1022              	.LBE209:
 1023              	.LBE208:
 191:Drivers/lvgl/src/extra/widgets/led/lv_led.c ****         rect_dsc.bg_grad.stops[0].color   = lv_color_mix(rect_dsc.bg_grad.stops[0].color, lv_color_
 1024              		.loc 1 191 29 view .LVU373
 1025 0432 ADF804E0 		strh	lr, [sp, #4]	@ movhi
 192:Drivers/lvgl/src/extra/widgets/led/lv_led.c ****         rect_dsc.bg_grad.stops[1].color   = lv_color_mix(rect_dsc.bg_grad.stops[1].color, lv_color_
 1026              		.loc 1 192 9 is_stmt 1 view .LVU374
 1027              	.LBB210:
 1028              	.LBI210:
ARM GAS  /var/folders/0z/tsy30v1j4xl4_7kw94k978ww0000gn/T//ccCXLm7m.s 			page 41


 700:Drivers/lvgl/src/extra/widgets/led/../../../../src/hal/../draw/../misc/lv_color.h **** {
 1029              		.loc 2 700 26 view .LVU375
 1030              		.loc 2 702 5 view .LVU376
 1031              	.LVL125:
 1032              	.LBB211:
 1033              	.LBI211:
 595:Drivers/lvgl/src/extra/widgets/led/../../../../src/hal/../draw/../misc/lv_color.h **** {
 1034              		.loc 2 595 26 view .LVU377
 1035              	.LBB212:
 597:Drivers/lvgl/src/extra/widgets/led/../../../../src/hal/../draw/../misc/lv_color.h **** }
 1036              		.loc 2 597 5 view .LVU378
 597:Drivers/lvgl/src/extra/widgets/led/../../../../src/hal/../draw/../misc/lv_color.h **** }
 1037              		.loc 2 597 5 is_stmt 0 view .LVU379
 1038              	.LBE212:
 1039              	.LBE211:
 1040              	.LBE210:
 1041              	.LBB213:
 1042              	.LBI213:
 439:Drivers/lvgl/src/extra/widgets/led/../../../../src/hal/../draw/../misc/lv_color.h **** {
 1043              		.loc 2 439 48 is_stmt 1 view .LVU380
 1044              	.LBB214:
 441:Drivers/lvgl/src/extra/widgets/led/../../../../src/hal/../draw/../misc/lv_color.h **** 
 1045              		.loc 2 441 5 view .LVU381
 445:Drivers/lvgl/src/extra/widgets/led/../../../../src/hal/../draw/../misc/lv_color.h ****     c2.full = c2.full << 8 | c2.full >> 8;
 1046              		.loc 2 445 5 view .LVU382
 445:Drivers/lvgl/src/extra/widgets/led/../../../../src/hal/../draw/../misc/lv_color.h ****     c2.full = c2.full << 8 | c2.full >> 8;
 1047              		.loc 2 445 28 is_stmt 0 view .LVU383
 1048 0436 4FEA112E 		lsr	lr, r1, #8
 1049 043a 4EEA012E 		orr	lr, lr, r1, lsl #8
 1050 043e 1FFA8EF1 		uxth	r1, lr
 446:Drivers/lvgl/src/extra/widgets/led/../../../../src/hal/../draw/../misc/lv_color.h **** #endif
 1051              		.loc 2 446 5 is_stmt 1 view .LVU384
 449:Drivers/lvgl/src/extra/widgets/led/../../../../src/hal/../draw/../misc/lv_color.h ****     uint32_t bg = (uint32_t)((uint32_t)c2.full | ((uint32_t)c2.full << 16)) &
 1052              		.loc 2 449 5 view .LVU385
 1053              	.LVL126:
 450:Drivers/lvgl/src/extra/widgets/led/../../../../src/hal/../draw/../misc/lv_color.h ****                   0x7E0F81F; /*0b00000111111000001111100000011111*/
 1054              		.loc 2 450 5 view .LVU386
 452:Drivers/lvgl/src/extra/widgets/led/../../../../src/hal/../draw/../misc/lv_color.h ****     uint32_t result = ((((fg - bg) * mix) >> 5) + bg) & 0x7E0F81F;
 1055              		.loc 2 452 5 view .LVU387
 452:Drivers/lvgl/src/extra/widgets/led/../../../../src/hal/../draw/../misc/lv_color.h ****     uint32_t result = ((((fg - bg) * mix) >> 5) + bg) & 0x7E0F81F;
 1056              		.loc 2 452 19 is_stmt 0 view .LVU388
 1057 0442 41EA0E41 		orr	r1, r1, lr, lsl #16
 1058              	.LVL127:
 453:Drivers/lvgl/src/extra/widgets/led/../../../../src/hal/../draw/../misc/lv_color.h ****     ret.full = (uint16_t)((result >> 16) | result);
 1059              		.loc 2 453 5 is_stmt 1 view .LVU389
 453:Drivers/lvgl/src/extra/widgets/led/../../../../src/hal/../draw/../misc/lv_color.h ****     ret.full = (uint16_t)((result >> 16) | result);
 1060              		.loc 2 453 30 is_stmt 0 view .LVU390
 1061 0446 3140     		ands	r1, r1, r6
 1062              	.LVL128:
 453:Drivers/lvgl/src/extra/widgets/led/../../../../src/hal/../draw/../misc/lv_color.h ****     ret.full = (uint16_t)((result >> 16) | result);
 1063              		.loc 2 453 36 view .LVU391
 1064 0448 01FB0CF1 		mul	r1, r1, ip
 1065              	.LVL129:
 453:Drivers/lvgl/src/extra/widgets/led/../../../../src/hal/../draw/../misc/lv_color.h ****     ret.full = (uint16_t)((result >> 16) | result);
 1066              		.loc 2 453 14 view .LVU392
 1067 044c 06EA5111 		and	r1, r6, r1, lsr #5
 1068              	.LVL130:
ARM GAS  /var/folders/0z/tsy30v1j4xl4_7kw94k978ww0000gn/T//ccCXLm7m.s 			page 42


 454:Drivers/lvgl/src/extra/widgets/led/../../../../src/hal/../draw/../misc/lv_color.h **** #if LV_COLOR_16_SWAP == 1
 1069              		.loc 2 454 5 is_stmt 1 view .LVU393
 454:Drivers/lvgl/src/extra/widgets/led/../../../../src/hal/../draw/../misc/lv_color.h **** #if LV_COLOR_16_SWAP == 1
 1070              		.loc 2 454 16 is_stmt 0 view .LVU394
 1071 0450 41EA1141 		orr	r1, r1, r1, lsr #16
 1072              	.LVL131:
 454:Drivers/lvgl/src/extra/widgets/led/../../../../src/hal/../draw/../misc/lv_color.h **** #if LV_COLOR_16_SWAP == 1
 1073              		.loc 2 454 16 view .LVU395
 1074 0454 1FFA81FE 		uxth	lr, r1
 1075              	.LVL132:
 456:Drivers/lvgl/src/extra/widgets/led/../../../../src/hal/../draw/../misc/lv_color.h **** #endif
 1076              		.loc 2 456 5 is_stmt 1 view .LVU396
 456:Drivers/lvgl/src/extra/widgets/led/../../../../src/hal/../draw/../misc/lv_color.h **** #endif
 1077              		.loc 2 456 30 is_stmt 0 view .LVU397
 1078 0458 C1F30721 		ubfx	r1, r1, #8, #8
 1079 045c 41EA0E21 		orr	r1, r1, lr, lsl #8
 472:Drivers/lvgl/src/extra/widgets/led/../../../../src/hal/../draw/../misc/lv_color.h **** }
 1080              		.loc 2 472 5 is_stmt 1 view .LVU398
 1081              	.LVL133:
 472:Drivers/lvgl/src/extra/widgets/led/../../../../src/hal/../draw/../misc/lv_color.h **** }
 1082              		.loc 2 472 5 is_stmt 0 view .LVU399
 1083              	.LBE214:
 1084              	.LBE213:
 192:Drivers/lvgl/src/extra/widgets/led/lv_led.c ****         rect_dsc.bg_grad.stops[1].color   = lv_color_mix(rect_dsc.bg_grad.stops[1].color, lv_color_
 1085              		.loc 1 192 45 view .LVU400
 1086 0460 ADF80610 		strh	r1, [sp, #6]	@ movhi
 193:Drivers/lvgl/src/extra/widgets/led/lv_led.c ****         rect_dsc.border_color = lv_color_mix(rect_dsc.border_color, lv_color_black(), led->bright);
 1087              		.loc 1 193 9 is_stmt 1 view .LVU401
 1088              	.LBB215:
 1089              	.LBI215:
 700:Drivers/lvgl/src/extra/widgets/led/../../../../src/hal/../draw/../misc/lv_color.h **** {
 1090              		.loc 2 700 26 view .LVU402
 1091              		.loc 2 702 5 view .LVU403
 1092              	.LVL134:
 1093              	.LBB216:
 1094              	.LBI216:
 595:Drivers/lvgl/src/extra/widgets/led/../../../../src/hal/../draw/../misc/lv_color.h **** {
 1095              		.loc 2 595 26 view .LVU404
 1096              	.LBB217:
 597:Drivers/lvgl/src/extra/widgets/led/../../../../src/hal/../draw/../misc/lv_color.h **** }
 1097              		.loc 2 597 5 view .LVU405
 597:Drivers/lvgl/src/extra/widgets/led/../../../../src/hal/../draw/../misc/lv_color.h **** }
 1098              		.loc 2 597 5 is_stmt 0 view .LVU406
 1099              	.LBE217:
 1100              	.LBE216:
 1101              	.LBE215:
 1102              	.LBB218:
 1103              	.LBI218:
 439:Drivers/lvgl/src/extra/widgets/led/../../../../src/hal/../draw/../misc/lv_color.h **** {
 1104              		.loc 2 439 48 is_stmt 1 view .LVU407
 1105              	.LBB219:
 441:Drivers/lvgl/src/extra/widgets/led/../../../../src/hal/../draw/../misc/lv_color.h **** 
 1106              		.loc 2 441 5 view .LVU408
 445:Drivers/lvgl/src/extra/widgets/led/../../../../src/hal/../draw/../misc/lv_color.h ****     c2.full = c2.full << 8 | c2.full >> 8;
 1107              		.loc 2 445 5 view .LVU409
 445:Drivers/lvgl/src/extra/widgets/led/../../../../src/hal/../draw/../misc/lv_color.h ****     c2.full = c2.full << 8 | c2.full >> 8;
 1108              		.loc 2 445 28 is_stmt 0 view .LVU410
ARM GAS  /var/folders/0z/tsy30v1j4xl4_7kw94k978ww0000gn/T//ccCXLm7m.s 			page 43


 1109 0464 110A     		lsrs	r1, r2, #8
 1110 0466 41EA0221 		orr	r1, r1, r2, lsl #8
 1111 046a 8AB2     		uxth	r2, r1
 446:Drivers/lvgl/src/extra/widgets/led/../../../../src/hal/../draw/../misc/lv_color.h **** #endif
 1112              		.loc 2 446 5 is_stmt 1 view .LVU411
 449:Drivers/lvgl/src/extra/widgets/led/../../../../src/hal/../draw/../misc/lv_color.h ****     uint32_t bg = (uint32_t)((uint32_t)c2.full | ((uint32_t)c2.full << 16)) &
 1113              		.loc 2 449 5 view .LVU412
 1114              	.LVL135:
 450:Drivers/lvgl/src/extra/widgets/led/../../../../src/hal/../draw/../misc/lv_color.h ****                   0x7E0F81F; /*0b00000111111000001111100000011111*/
 1115              		.loc 2 450 5 view .LVU413
 452:Drivers/lvgl/src/extra/widgets/led/../../../../src/hal/../draw/../misc/lv_color.h ****     uint32_t result = ((((fg - bg) * mix) >> 5) + bg) & 0x7E0F81F;
 1116              		.loc 2 452 5 view .LVU414
 452:Drivers/lvgl/src/extra/widgets/led/../../../../src/hal/../draw/../misc/lv_color.h ****     uint32_t result = ((((fg - bg) * mix) >> 5) + bg) & 0x7E0F81F;
 1117              		.loc 2 452 19 is_stmt 0 view .LVU415
 1118 046c 42EA0142 		orr	r2, r2, r1, lsl #16
 1119              	.LVL136:
 453:Drivers/lvgl/src/extra/widgets/led/../../../../src/hal/../draw/../misc/lv_color.h ****     ret.full = (uint16_t)((result >> 16) | result);
 1120              		.loc 2 453 5 is_stmt 1 view .LVU416
 453:Drivers/lvgl/src/extra/widgets/led/../../../../src/hal/../draw/../misc/lv_color.h ****     ret.full = (uint16_t)((result >> 16) | result);
 1121              		.loc 2 453 30 is_stmt 0 view .LVU417
 1122 0470 3240     		ands	r2, r2, r6
 1123              	.LVL137:
 453:Drivers/lvgl/src/extra/widgets/led/../../../../src/hal/../draw/../misc/lv_color.h ****     ret.full = (uint16_t)((result >> 16) | result);
 1124              		.loc 2 453 36 view .LVU418
 1125 0472 02FB0CFC 		mul	ip, r2, ip
 1126              	.LVL138:
 453:Drivers/lvgl/src/extra/widgets/led/../../../../src/hal/../draw/../misc/lv_color.h ****     ret.full = (uint16_t)((result >> 16) | result);
 1127              		.loc 2 453 14 view .LVU419
 1128 0476 06EA5C16 		and	r6, r6, ip, lsr #5
 1129              	.LVL139:
 454:Drivers/lvgl/src/extra/widgets/led/../../../../src/hal/../draw/../misc/lv_color.h **** #if LV_COLOR_16_SWAP == 1
 1130              		.loc 2 454 5 is_stmt 1 view .LVU420
 454:Drivers/lvgl/src/extra/widgets/led/../../../../src/hal/../draw/../misc/lv_color.h **** #if LV_COLOR_16_SWAP == 1
 1131              		.loc 2 454 16 is_stmt 0 view .LVU421
 1132 047a 46EA1646 		orr	r6, r6, r6, lsr #16
 1133              	.LVL140:
 454:Drivers/lvgl/src/extra/widgets/led/../../../../src/hal/../draw/../misc/lv_color.h **** #if LV_COLOR_16_SWAP == 1
 1134              		.loc 2 454 16 view .LVU422
 1135 047e B2B2     		uxth	r2, r6
 1136              	.LVL141:
 456:Drivers/lvgl/src/extra/widgets/led/../../../../src/hal/../draw/../misc/lv_color.h **** #endif
 1137              		.loc 2 456 5 is_stmt 1 view .LVU423
 456:Drivers/lvgl/src/extra/widgets/led/../../../../src/hal/../draw/../misc/lv_color.h **** #endif
 1138              		.loc 2 456 30 is_stmt 0 view .LVU424
 1139 0480 C6F30726 		ubfx	r6, r6, #8, #8
 1140 0484 46EA0226 		orr	r6, r6, r2, lsl #8
 472:Drivers/lvgl/src/extra/widgets/led/../../../../src/hal/../draw/../misc/lv_color.h **** }
 1141              		.loc 2 472 5 is_stmt 1 view .LVU425
 1142              	.LVL142:
 472:Drivers/lvgl/src/extra/widgets/led/../../../../src/hal/../draw/../misc/lv_color.h **** }
 1143              		.loc 2 472 5 is_stmt 0 view .LVU426
 1144              	.LBE219:
 1145              	.LBE218:
 193:Drivers/lvgl/src/extra/widgets/led/lv_led.c ****         rect_dsc.border_color = lv_color_mix(rect_dsc.border_color, lv_color_black(), led->bright);
 1146              		.loc 1 193 45 view .LVU427
 1147 0488 ADF80A60 		strh	r6, [sp, #10]	@ movhi
 194:Drivers/lvgl/src/extra/widgets/led/lv_led.c ****         rect_dsc.shadow_color = lv_color_mix(rect_dsc.shadow_color, lv_color_black(), led->bright);
ARM GAS  /var/folders/0z/tsy30v1j4xl4_7kw94k978ww0000gn/T//ccCXLm7m.s 			page 44


 1148              		.loc 1 194 9 is_stmt 1 view .LVU428
 1149              	.LBB220:
 1150              	.LBI220:
 700:Drivers/lvgl/src/extra/widgets/led/../../../../src/hal/../draw/../misc/lv_color.h **** {
 1151              		.loc 2 700 26 view .LVU429
 1152              		.loc 2 702 5 view .LVU430
 1153              	.LVL143:
 1154              	.LBB221:
 1155              	.LBI221:
 595:Drivers/lvgl/src/extra/widgets/led/../../../../src/hal/../draw/../misc/lv_color.h **** {
 1156              		.loc 2 595 26 view .LVU431
 1157              	.LBB222:
 597:Drivers/lvgl/src/extra/widgets/led/../../../../src/hal/../draw/../misc/lv_color.h **** }
 1158              		.loc 2 597 5 view .LVU432
 597:Drivers/lvgl/src/extra/widgets/led/../../../../src/hal/../draw/../misc/lv_color.h **** }
 1159              		.loc 2 597 5 is_stmt 0 view .LVU433
 1160              	.LBE222:
 1161              	.LBE221:
 1162              	.LBE220:
 1163              	.LBB223:
 1164              	.LBI223:
 439:Drivers/lvgl/src/extra/widgets/led/../../../../src/hal/../draw/../misc/lv_color.h **** {
 1165              		.loc 2 439 48 is_stmt 1 view .LVU434
 1166              	.LBB224:
 441:Drivers/lvgl/src/extra/widgets/led/../../../../src/hal/../draw/../misc/lv_color.h **** 
 1167              		.loc 2 441 5 view .LVU435
 445:Drivers/lvgl/src/extra/widgets/led/../../../../src/hal/../draw/../misc/lv_color.h ****     c2.full = c2.full << 8 | c2.full >> 8;
 1168              		.loc 2 445 5 view .LVU436
 445:Drivers/lvgl/src/extra/widgets/led/../../../../src/hal/../draw/../misc/lv_color.h ****     c2.full = c2.full << 8 | c2.full >> 8;
 1169              		.loc 2 445 28 is_stmt 0 view .LVU437
 1170 048c 190A     		lsrs	r1, r3, #8
 1171 048e 41EA0321 		orr	r1, r1, r3, lsl #8
 1172 0492 8BB2     		uxth	r3, r1
 446:Drivers/lvgl/src/extra/widgets/led/../../../../src/hal/../draw/../misc/lv_color.h **** #endif
 1173              		.loc 2 446 5 is_stmt 1 view .LVU438
 449:Drivers/lvgl/src/extra/widgets/led/../../../../src/hal/../draw/../misc/lv_color.h ****     uint32_t bg = (uint32_t)((uint32_t)c2.full | ((uint32_t)c2.full << 16)) &
 1174              		.loc 2 449 5 view .LVU439
 1175              	.LVL144:
 450:Drivers/lvgl/src/extra/widgets/led/../../../../src/hal/../draw/../misc/lv_color.h ****                   0x7E0F81F; /*0b00000111111000001111100000011111*/
 1176              		.loc 2 450 5 view .LVU440
 450:Drivers/lvgl/src/extra/widgets/led/../../../../src/hal/../draw/../misc/lv_color.h ****                   0x7E0F81F; /*0b00000111111000001111100000011111*/
 1177              		.loc 2 450 14 is_stmt 0 view .LVU441
 1178 0494 024A     		ldr	r2, .L10
 1179              	.LVL145:
 452:Drivers/lvgl/src/extra/widgets/led/../../../../src/hal/../draw/../misc/lv_color.h ****     uint32_t result = ((((fg - bg) * mix) >> 5) + bg) & 0x7E0F81F;
 1180              		.loc 2 452 5 is_stmt 1 view .LVU442
 452:Drivers/lvgl/src/extra/widgets/led/../../../../src/hal/../draw/../misc/lv_color.h ****     uint32_t result = ((((fg - bg) * mix) >> 5) + bg) & 0x7E0F81F;
 1181              		.loc 2 452 19 is_stmt 0 view .LVU443
 1182 0496 43EA0143 		orr	r3, r3, r1, lsl #16
 1183              	.LVL146:
 453:Drivers/lvgl/src/extra/widgets/led/../../../../src/hal/../draw/../misc/lv_color.h ****     ret.full = (uint16_t)((result >> 16) | result);
 1184              		.loc 2 453 5 is_stmt 1 view .LVU444
 453:Drivers/lvgl/src/extra/widgets/led/../../../../src/hal/../draw/../misc/lv_color.h ****     ret.full = (uint16_t)((result >> 16) | result);
 1185              		.loc 2 453 30 is_stmt 0 view .LVU445
 1186 049a 1340     		ands	r3, r3, r2
 1187              	.LVL147:
 453:Drivers/lvgl/src/extra/widgets/led/../../../../src/hal/../draw/../misc/lv_color.h ****     ret.full = (uint16_t)((result >> 16) | result);
ARM GAS  /var/folders/0z/tsy30v1j4xl4_7kw94k978ww0000gn/T//ccCXLm7m.s 			page 45


 1188              		.loc 2 453 36 view .LVU446
 1189 049c ED08     		lsrs	r5, r5, #3
 1190 049e 01E0     		b	.L11
 1191              	.L12:
 1192              		.align	2
 1193              	.L10:
 1194 04a0 1FF8E007 		.word	132184095
 1195              	.L11:
 1196              	.LVL148:
 453:Drivers/lvgl/src/extra/widgets/led/../../../../src/hal/../draw/../misc/lv_color.h ****     ret.full = (uint16_t)((result >> 16) | result);
 1197              		.loc 2 453 36 view .LVU447
 1198 04a4 03FB05F5 		mul	r5, r3, r5
 453:Drivers/lvgl/src/extra/widgets/led/../../../../src/hal/../draw/../misc/lv_color.h ****     ret.full = (uint16_t)((result >> 16) | result);
 1199              		.loc 2 453 14 view .LVU448
 1200 04a8 02EA5515 		and	r5, r2, r5, lsr #5
 1201              	.LVL149:
 454:Drivers/lvgl/src/extra/widgets/led/../../../../src/hal/../draw/../misc/lv_color.h **** #if LV_COLOR_16_SWAP == 1
 1202              		.loc 2 454 5 is_stmt 1 view .LVU449
 454:Drivers/lvgl/src/extra/widgets/led/../../../../src/hal/../draw/../misc/lv_color.h **** #if LV_COLOR_16_SWAP == 1
 1203              		.loc 2 454 16 is_stmt 0 view .LVU450
 1204 04ac 45EA1545 		orr	r5, r5, r5, lsr #16
 1205              	.LVL150:
 454:Drivers/lvgl/src/extra/widgets/led/../../../../src/hal/../draw/../misc/lv_color.h **** #if LV_COLOR_16_SWAP == 1
 1206              		.loc 2 454 16 view .LVU451
 1207 04b0 ABB2     		uxth	r3, r5
 1208              	.LVL151:
 456:Drivers/lvgl/src/extra/widgets/led/../../../../src/hal/../draw/../misc/lv_color.h **** #endif
 1209              		.loc 2 456 5 is_stmt 1 view .LVU452
 456:Drivers/lvgl/src/extra/widgets/led/../../../../src/hal/../draw/../misc/lv_color.h **** #endif
 1210              		.loc 2 456 30 is_stmt 0 view .LVU453
 1211 04b2 C5F30725 		ubfx	r5, r5, #8, #8
 1212 04b6 45EA0325 		orr	r5, r5, r3, lsl #8
 472:Drivers/lvgl/src/extra/widgets/led/../../../../src/hal/../draw/../misc/lv_color.h **** }
 1213              		.loc 2 472 5 is_stmt 1 view .LVU454
 1214              	.LVL152:
 472:Drivers/lvgl/src/extra/widgets/led/../../../../src/hal/../draw/../misc/lv_color.h **** }
 1215              		.loc 2 472 5 is_stmt 0 view .LVU455
 1216              	.LBE224:
 1217              	.LBE223:
 194:Drivers/lvgl/src/extra/widgets/led/lv_led.c ****         rect_dsc.shadow_color = lv_color_mix(rect_dsc.shadow_color, lv_color_black(), led->bright);
 1218              		.loc 1 194 33 view .LVU456
 1219 04ba ADF81E50 		strh	r5, [sp, #30]	@ movhi
 195:Drivers/lvgl/src/extra/widgets/led/lv_led.c ****         rect_dsc.outline_color = lv_color_mix(rect_dsc.outline_color, lv_color_black(), led->bright
 1220              		.loc 1 195 9 is_stmt 1 view .LVU457
 1221              	.LBB225:
 1222              	.LBI225:
 700:Drivers/lvgl/src/extra/widgets/led/../../../../src/hal/../draw/../misc/lv_color.h **** {
 1223              		.loc 2 700 26 view .LVU458
 1224              		.loc 2 702 5 view .LVU459
 1225              	.LVL153:
 1226              	.LBB226:
 1227              	.LBI226:
 595:Drivers/lvgl/src/extra/widgets/led/../../../../src/hal/../draw/../misc/lv_color.h **** {
 1228              		.loc 2 595 26 view .LVU460
 1229              	.LBB227:
 597:Drivers/lvgl/src/extra/widgets/led/../../../../src/hal/../draw/../misc/lv_color.h **** }
 1230              		.loc 2 597 5 view .LVU461
ARM GAS  /var/folders/0z/tsy30v1j4xl4_7kw94k978ww0000gn/T//ccCXLm7m.s 			page 46


 597:Drivers/lvgl/src/extra/widgets/led/../../../../src/hal/../draw/../misc/lv_color.h **** }
 1231              		.loc 2 597 5 is_stmt 0 view .LVU462
 1232              	.LBE227:
 1233              	.LBE226:
 1234              	.LBE225:
 1235              	.LBB228:
 1236              	.LBI228:
 439:Drivers/lvgl/src/extra/widgets/led/../../../../src/hal/../draw/../misc/lv_color.h **** {
 1237              		.loc 2 439 48 is_stmt 1 view .LVU463
 1238              	.LBB229:
 441:Drivers/lvgl/src/extra/widgets/led/../../../../src/hal/../draw/../misc/lv_color.h **** 
 1239              		.loc 2 441 5 view .LVU464
 445:Drivers/lvgl/src/extra/widgets/led/../../../../src/hal/../draw/../misc/lv_color.h ****     c2.full = c2.full << 8 | c2.full >> 8;
 1240              		.loc 2 445 5 view .LVU465
 445:Drivers/lvgl/src/extra/widgets/led/../../../../src/hal/../draw/../misc/lv_color.h ****     c2.full = c2.full << 8 | c2.full >> 8;
 1241              		.loc 2 445 17 is_stmt 0 view .LVU466
 1242 04be BDF82C30 		ldrh	r3, [sp, #44]
 445:Drivers/lvgl/src/extra/widgets/led/../../../../src/hal/../draw/../misc/lv_color.h ****     c2.full = c2.full << 8 | c2.full >> 8;
 1243              		.loc 2 445 28 view .LVU467
 1244 04c2 1D0A     		lsrs	r5, r3, #8
 1245 04c4 45EA0325 		orr	r5, r5, r3, lsl #8
 1246 04c8 A9B2     		uxth	r1, r5
 446:Drivers/lvgl/src/extra/widgets/led/../../../../src/hal/../draw/../misc/lv_color.h **** #endif
 1247              		.loc 2 446 5 is_stmt 1 view .LVU468
 449:Drivers/lvgl/src/extra/widgets/led/../../../../src/hal/../draw/../misc/lv_color.h ****     uint32_t bg = (uint32_t)((uint32_t)c2.full | ((uint32_t)c2.full << 16)) &
 1248              		.loc 2 449 5 view .LVU469
 449:Drivers/lvgl/src/extra/widgets/led/../../../../src/hal/../draw/../misc/lv_color.h ****     uint32_t bg = (uint32_t)((uint32_t)c2.full | ((uint32_t)c2.full << 16)) &
 1249              		.loc 2 449 11 is_stmt 0 view .LVU470
 1250 04ca 031D     		adds	r3, r0, #4
 1251              	.LVL154:
 450:Drivers/lvgl/src/extra/widgets/led/../../../../src/hal/../draw/../misc/lv_color.h ****                   0x7E0F81F; /*0b00000111111000001111100000011111*/
 1252              		.loc 2 450 5 is_stmt 1 view .LVU471
 452:Drivers/lvgl/src/extra/widgets/led/../../../../src/hal/../draw/../misc/lv_color.h ****     uint32_t result = ((((fg - bg) * mix) >> 5) + bg) & 0x7E0F81F;
 1253              		.loc 2 452 5 view .LVU472
 452:Drivers/lvgl/src/extra/widgets/led/../../../../src/hal/../draw/../misc/lv_color.h ****     uint32_t result = ((((fg - bg) * mix) >> 5) + bg) & 0x7E0F81F;
 1254              		.loc 2 452 19 is_stmt 0 view .LVU473
 1255 04cc 41EA0541 		orr	r1, r1, r5, lsl #16
 1256              	.LVL155:
 453:Drivers/lvgl/src/extra/widgets/led/../../../../src/hal/../draw/../misc/lv_color.h ****     ret.full = (uint16_t)((result >> 16) | result);
 1257              		.loc 2 453 5 is_stmt 1 view .LVU474
 453:Drivers/lvgl/src/extra/widgets/led/../../../../src/hal/../draw/../misc/lv_color.h ****     ret.full = (uint16_t)((result >> 16) | result);
 1258              		.loc 2 453 30 is_stmt 0 view .LVU475
 1259 04d0 1140     		ands	r1, r1, r2
 1260              	.LVL156:
 453:Drivers/lvgl/src/extra/widgets/led/../../../../src/hal/../draw/../misc/lv_color.h ****     ret.full = (uint16_t)((result >> 16) | result);
 1261              		.loc 2 453 36 view .LVU476
 1262 04d2 DB08     		lsrs	r3, r3, #3
 1263              	.LVL157:
 453:Drivers/lvgl/src/extra/widgets/led/../../../../src/hal/../draw/../misc/lv_color.h ****     ret.full = (uint16_t)((result >> 16) | result);
 1264              		.loc 2 453 36 view .LVU477
 1265 04d4 01FB03F3 		mul	r3, r1, r3
 453:Drivers/lvgl/src/extra/widgets/led/../../../../src/hal/../draw/../misc/lv_color.h ****     ret.full = (uint16_t)((result >> 16) | result);
 1266              		.loc 2 453 14 view .LVU478
 1267 04d8 02EA5313 		and	r3, r2, r3, lsr #5
 1268              	.LVL158:
 454:Drivers/lvgl/src/extra/widgets/led/../../../../src/hal/../draw/../misc/lv_color.h **** #if LV_COLOR_16_SWAP == 1
 1269              		.loc 2 454 5 is_stmt 1 view .LVU479
ARM GAS  /var/folders/0z/tsy30v1j4xl4_7kw94k978ww0000gn/T//ccCXLm7m.s 			page 47


 454:Drivers/lvgl/src/extra/widgets/led/../../../../src/hal/../draw/../misc/lv_color.h **** #if LV_COLOR_16_SWAP == 1
 1270              		.loc 2 454 16 is_stmt 0 view .LVU480
 1271 04dc 43EA1343 		orr	r3, r3, r3, lsr #16
 1272              	.LVL159:
 454:Drivers/lvgl/src/extra/widgets/led/../../../../src/hal/../draw/../misc/lv_color.h **** #if LV_COLOR_16_SWAP == 1
 1273              		.loc 2 454 16 view .LVU481
 1274 04e0 99B2     		uxth	r1, r3
 1275              	.LVL160:
 456:Drivers/lvgl/src/extra/widgets/led/../../../../src/hal/../draw/../misc/lv_color.h **** #endif
 1276              		.loc 2 456 5 is_stmt 1 view .LVU482
 456:Drivers/lvgl/src/extra/widgets/led/../../../../src/hal/../draw/../misc/lv_color.h **** #endif
 1277              		.loc 2 456 30 is_stmt 0 view .LVU483
 1278 04e2 C3F30723 		ubfx	r3, r3, #8, #8
 1279 04e6 43EA0123 		orr	r3, r3, r1, lsl #8
 472:Drivers/lvgl/src/extra/widgets/led/../../../../src/hal/../draw/../misc/lv_color.h **** }
 1280              		.loc 2 472 5 is_stmt 1 view .LVU484
 1281              	.LVL161:
 472:Drivers/lvgl/src/extra/widgets/led/../../../../src/hal/../draw/../misc/lv_color.h **** }
 1282              		.loc 2 472 5 is_stmt 0 view .LVU485
 1283              	.LBE229:
 1284              	.LBE228:
 195:Drivers/lvgl/src/extra/widgets/led/lv_led.c ****         rect_dsc.outline_color = lv_color_mix(rect_dsc.outline_color, lv_color_black(), led->bright
 1285              		.loc 1 195 33 view .LVU486
 1286 04ea ADF82C30 		strh	r3, [sp, #44]	@ movhi
 196:Drivers/lvgl/src/extra/widgets/led/lv_led.c **** 
 1287              		.loc 1 196 9 is_stmt 1 view .LVU487
 1288              	.LBB230:
 1289              	.LBI230:
 700:Drivers/lvgl/src/extra/widgets/led/../../../../src/hal/../draw/../misc/lv_color.h **** {
 1290              		.loc 2 700 26 view .LVU488
 1291              		.loc 2 702 5 view .LVU489
 1292              	.LVL162:
 1293              	.LBB231:
 1294              	.LBI231:
 595:Drivers/lvgl/src/extra/widgets/led/../../../../src/hal/../draw/../misc/lv_color.h **** {
 1295              		.loc 2 595 26 view .LVU490
 1296              	.LBB232:
 597:Drivers/lvgl/src/extra/widgets/led/../../../../src/hal/../draw/../misc/lv_color.h **** }
 1297              		.loc 2 597 5 view .LVU491
 597:Drivers/lvgl/src/extra/widgets/led/../../../../src/hal/../draw/../misc/lv_color.h **** }
 1298              		.loc 2 597 5 is_stmt 0 view .LVU492
 1299              	.LBE232:
 1300              	.LBE231:
 1301              	.LBE230:
 196:Drivers/lvgl/src/extra/widgets/led/lv_led.c **** 
 1302              		.loc 1 196 34 view .LVU493
 1303 04ee 97F82630 		ldrb	r3, [r7, #38]	@ zero_extendqisi2
 1304              	.LVL163:
 1305              	.LBB233:
 1306              	.LBI233:
 439:Drivers/lvgl/src/extra/widgets/led/../../../../src/hal/../draw/../misc/lv_color.h **** {
 1307              		.loc 2 439 48 is_stmt 1 view .LVU494
 1308              	.LBB234:
 441:Drivers/lvgl/src/extra/widgets/led/../../../../src/hal/../draw/../misc/lv_color.h **** 
 1309              		.loc 2 441 5 view .LVU495
 445:Drivers/lvgl/src/extra/widgets/led/../../../../src/hal/../draw/../misc/lv_color.h ****     c2.full = c2.full << 8 | c2.full >> 8;
 1310              		.loc 2 445 5 view .LVU496
ARM GAS  /var/folders/0z/tsy30v1j4xl4_7kw94k978ww0000gn/T//ccCXLm7m.s 			page 48


 445:Drivers/lvgl/src/extra/widgets/led/../../../../src/hal/../draw/../misc/lv_color.h ****     c2.full = c2.full << 8 | c2.full >> 8;
 1311              		.loc 2 445 17 is_stmt 0 view .LVU497
 1312 04f2 BDF82410 		ldrh	r1, [sp, #36]
 445:Drivers/lvgl/src/extra/widgets/led/../../../../src/hal/../draw/../misc/lv_color.h ****     c2.full = c2.full << 8 | c2.full >> 8;
 1313              		.loc 2 445 28 view .LVU498
 1314 04f6 0D0A     		lsrs	r5, r1, #8
 1315 04f8 45EA0125 		orr	r5, r5, r1, lsl #8
 1316 04fc A8B2     		uxth	r0, r5
 446:Drivers/lvgl/src/extra/widgets/led/../../../../src/hal/../draw/../misc/lv_color.h **** #endif
 1317              		.loc 2 446 5 is_stmt 1 view .LVU499
 449:Drivers/lvgl/src/extra/widgets/led/../../../../src/hal/../draw/../misc/lv_color.h ****     uint32_t bg = (uint32_t)((uint32_t)c2.full | ((uint32_t)c2.full << 16)) &
 1318              		.loc 2 449 5 view .LVU500
 449:Drivers/lvgl/src/extra/widgets/led/../../../../src/hal/../draw/../misc/lv_color.h ****     uint32_t bg = (uint32_t)((uint32_t)c2.full | ((uint32_t)c2.full << 16)) &
 1319              		.loc 2 449 11 is_stmt 0 view .LVU501
 1320 04fe 191D     		adds	r1, r3, #4
 1321              	.LVL164:
 450:Drivers/lvgl/src/extra/widgets/led/../../../../src/hal/../draw/../misc/lv_color.h ****                   0x7E0F81F; /*0b00000111111000001111100000011111*/
 1322              		.loc 2 450 5 is_stmt 1 view .LVU502
 452:Drivers/lvgl/src/extra/widgets/led/../../../../src/hal/../draw/../misc/lv_color.h ****     uint32_t result = ((((fg - bg) * mix) >> 5) + bg) & 0x7E0F81F;
 1323              		.loc 2 452 5 view .LVU503
 452:Drivers/lvgl/src/extra/widgets/led/../../../../src/hal/../draw/../misc/lv_color.h ****     uint32_t result = ((((fg - bg) * mix) >> 5) + bg) & 0x7E0F81F;
 1324              		.loc 2 452 19 is_stmt 0 view .LVU504
 1325 0500 40EA0540 		orr	r0, r0, r5, lsl #16
 1326              	.LVL165:
 453:Drivers/lvgl/src/extra/widgets/led/../../../../src/hal/../draw/../misc/lv_color.h ****     ret.full = (uint16_t)((result >> 16) | result);
 1327              		.loc 2 453 5 is_stmt 1 view .LVU505
 453:Drivers/lvgl/src/extra/widgets/led/../../../../src/hal/../draw/../misc/lv_color.h ****     ret.full = (uint16_t)((result >> 16) | result);
 1328              		.loc 2 453 30 is_stmt 0 view .LVU506
 1329 0504 1040     		ands	r0, r0, r2
 1330              	.LVL166:
 453:Drivers/lvgl/src/extra/widgets/led/../../../../src/hal/../draw/../misc/lv_color.h ****     ret.full = (uint16_t)((result >> 16) | result);
 1331              		.loc 2 453 36 view .LVU507
 1332 0506 C908     		lsrs	r1, r1, #3
 1333              	.LVL167:
 453:Drivers/lvgl/src/extra/widgets/led/../../../../src/hal/../draw/../misc/lv_color.h ****     ret.full = (uint16_t)((result >> 16) | result);
 1334              		.loc 2 453 36 view .LVU508
 1335 0508 00FB01F1 		mul	r1, r0, r1
 453:Drivers/lvgl/src/extra/widgets/led/../../../../src/hal/../draw/../misc/lv_color.h ****     ret.full = (uint16_t)((result >> 16) | result);
 1336              		.loc 2 453 14 view .LVU509
 1337 050c 02EA5112 		and	r2, r2, r1, lsr #5
 1338              	.LVL168:
 454:Drivers/lvgl/src/extra/widgets/led/../../../../src/hal/../draw/../misc/lv_color.h **** #if LV_COLOR_16_SWAP == 1
 1339              		.loc 2 454 5 is_stmt 1 view .LVU510
 454:Drivers/lvgl/src/extra/widgets/led/../../../../src/hal/../draw/../misc/lv_color.h **** #if LV_COLOR_16_SWAP == 1
 1340              		.loc 2 454 16 is_stmt 0 view .LVU511
 1341 0510 42EA1242 		orr	r2, r2, r2, lsr #16
 1342              	.LVL169:
 454:Drivers/lvgl/src/extra/widgets/led/../../../../src/hal/../draw/../misc/lv_color.h **** #if LV_COLOR_16_SWAP == 1
 1343              		.loc 2 454 16 view .LVU512
 1344 0514 91B2     		uxth	r1, r2
 1345              	.LVL170:
 456:Drivers/lvgl/src/extra/widgets/led/../../../../src/hal/../draw/../misc/lv_color.h **** #endif
 1346              		.loc 2 456 5 is_stmt 1 view .LVU513
 456:Drivers/lvgl/src/extra/widgets/led/../../../../src/hal/../draw/../misc/lv_color.h **** #endif
 1347              		.loc 2 456 30 is_stmt 0 view .LVU514
 1348 0516 C2F30722 		ubfx	r2, r2, #8, #8
 1349 051a 42EA0122 		orr	r2, r2, r1, lsl #8
ARM GAS  /var/folders/0z/tsy30v1j4xl4_7kw94k978ww0000gn/T//ccCXLm7m.s 			page 49


 472:Drivers/lvgl/src/extra/widgets/led/../../../../src/hal/../draw/../misc/lv_color.h **** }
 1350              		.loc 2 472 5 is_stmt 1 view .LVU515
 1351              	.LVL171:
 472:Drivers/lvgl/src/extra/widgets/led/../../../../src/hal/../draw/../misc/lv_color.h **** }
 1352              		.loc 2 472 5 is_stmt 0 view .LVU516
 1353              	.LBE234:
 1354              	.LBE233:
 196:Drivers/lvgl/src/extra/widgets/led/lv_led.c **** 
 1355              		.loc 1 196 34 view .LVU517
 1356 051e ADF82420 		strh	r2, [sp, #36]	@ movhi
 200:Drivers/lvgl/src/extra/widgets/led/lv_led.c ****                                 (LV_LED_BRIGHT_MAX - LV_LED_BRIGHT_MIN);
 1357              		.loc 1 200 9 is_stmt 1 view .LVU518
 200:Drivers/lvgl/src/extra/widgets/led/lv_led.c ****                                 (LV_LED_BRIGHT_MAX - LV_LED_BRIGHT_MIN);
 1358              		.loc 1 200 47 is_stmt 0 view .LVU519
 1359 0522 503B     		subs	r3, r3, #80
 200:Drivers/lvgl/src/extra/widgets/led/lv_led.c ****                                 (LV_LED_BRIGHT_MAX - LV_LED_BRIGHT_MIN);
 1360              		.loc 1 200 78 view .LVU520
 1361 0524 BDF92E20 		ldrsh	r2, [sp, #46]
 200:Drivers/lvgl/src/extra/widgets/led/lv_led.c ****                                 (LV_LED_BRIGHT_MAX - LV_LED_BRIGHT_MIN);
 1362              		.loc 1 200 68 view .LVU521
 1363 0528 02FB03F3 		mul	r3, r2, r3
 200:Drivers/lvgl/src/extra/widgets/led/lv_led.c ****                                 (LV_LED_BRIGHT_MAX - LV_LED_BRIGHT_MIN);
 1364              		.loc 1 200 93 view .LVU522
 1365 052c 1B4A     		ldr	r2, .L13
 1366 052e 82FB0301 		smull	r0, r1, r2, r3
 1367 0532 DB17     		asrs	r3, r3, #31
 1368 0534 C3EBA113 		rsb	r3, r3, r1, asr #6
 200:Drivers/lvgl/src/extra/widgets/led/lv_led.c ****                                 (LV_LED_BRIGHT_MAX - LV_LED_BRIGHT_MIN);
 1369              		.loc 1 200 31 view .LVU523
 1370 0538 ADF82E30 		strh	r3, [sp, #46]	@ movhi
 202:Drivers/lvgl/src/extra/widgets/led/lv_led.c ****                                  (LV_LED_BRIGHT_MAX - LV_LED_BRIGHT_MIN);
 1371              		.loc 1 202 9 is_stmt 1 view .LVU524
 202:Drivers/lvgl/src/extra/widgets/led/lv_led.c ****                                  (LV_LED_BRIGHT_MAX - LV_LED_BRIGHT_MIN);
 1372              		.loc 1 202 39 is_stmt 0 view .LVU525
 1373 053c 97F82630 		ldrb	r3, [r7, #38]	@ zero_extendqisi2
 202:Drivers/lvgl/src/extra/widgets/led/lv_led.c ****                                  (LV_LED_BRIGHT_MAX - LV_LED_BRIGHT_MIN);
 1374              		.loc 1 202 48 view .LVU526
 1375 0540 503B     		subs	r3, r3, #80
 202:Drivers/lvgl/src/extra/widgets/led/lv_led.c ****                                  (LV_LED_BRIGHT_MAX - LV_LED_BRIGHT_MIN);
 1376              		.loc 1 202 79 view .LVU527
 1377 0542 BDF93410 		ldrsh	r1, [sp, #52]
 202:Drivers/lvgl/src/extra/widgets/led/lv_led.c ****                                  (LV_LED_BRIGHT_MAX - LV_LED_BRIGHT_MIN);
 1378              		.loc 1 202 69 view .LVU528
 1379 0546 01FB03F3 		mul	r3, r1, r3
 202:Drivers/lvgl/src/extra/widgets/led/lv_led.c ****                                  (LV_LED_BRIGHT_MAX - LV_LED_BRIGHT_MIN);
 1380              		.loc 1 202 95 view .LVU529
 1381 054a 82FB0312 		smull	r1, r2, r2, r3
 1382 054e DB17     		asrs	r3, r3, #31
 1383 0550 C3EBA213 		rsb	r3, r3, r2, asr #6
 202:Drivers/lvgl/src/extra/widgets/led/lv_led.c ****                                  (LV_LED_BRIGHT_MAX - LV_LED_BRIGHT_MIN);
 1384              		.loc 1 202 32 view .LVU530
 1385 0554 ADF83430 		strh	r3, [sp, #52]	@ movhi
 205:Drivers/lvgl/src/extra/widgets/led/lv_led.c **** 
 1386              		.loc 1 205 9 is_stmt 1 view .LVU531
 205:Drivers/lvgl/src/extra/widgets/led/lv_led.c **** 
 1387              		.loc 1 205 36 is_stmt 0 view .LVU532
 1388 0558 2046     		mov	r0, r4
ARM GAS  /var/folders/0z/tsy30v1j4xl4_7kw94k978ww0000gn/T//ccCXLm7m.s 			page 50


 1389 055a FFF7FEFF 		bl	lv_event_get_draw_ctx
 1390              	.LVL172:
 1391 055e 0446     		mov	r4, r0
 1392              	.LVL173:
 207:Drivers/lvgl/src/extra/widgets/led/lv_led.c ****         lv_obj_draw_dsc_init(&part_draw_dsc, draw_ctx);
 1393              		.loc 1 207 9 is_stmt 1 view .LVU533
 208:Drivers/lvgl/src/extra/widgets/led/lv_led.c ****         part_draw_dsc.draw_area = &obj->coords;
 1394              		.loc 1 208 9 view .LVU534
 1395 0560 0146     		mov	r1, r0
 1396 0562 0EA8     		add	r0, sp, #56
 1397              	.LVL174:
 208:Drivers/lvgl/src/extra/widgets/led/lv_led.c ****         part_draw_dsc.draw_area = &obj->coords;
 1398              		.loc 1 208 9 is_stmt 0 view .LVU535
 1399 0564 FFF7FEFF 		bl	lv_obj_draw_dsc_init
 1400              	.LVL175:
 209:Drivers/lvgl/src/extra/widgets/led/lv_led.c ****         part_draw_dsc.class_p = MY_CLASS;
 1401              		.loc 1 209 9 is_stmt 1 view .LVU536
 209:Drivers/lvgl/src/extra/widgets/led/lv_led.c ****         part_draw_dsc.class_p = MY_CLASS;
 1402              		.loc 1 209 35 is_stmt 0 view .LVU537
 1403 0568 07F11405 		add	r5, r7, #20
 209:Drivers/lvgl/src/extra/widgets/led/lv_led.c ****         part_draw_dsc.class_p = MY_CLASS;
 1404              		.loc 1 209 33 view .LVU538
 1405 056c 1195     		str	r5, [sp, #68]
 210:Drivers/lvgl/src/extra/widgets/led/lv_led.c ****         part_draw_dsc.type = LV_LED_DRAW_PART_RECTANGLE;
 1406              		.loc 1 210 9 is_stmt 1 view .LVU539
 210:Drivers/lvgl/src/extra/widgets/led/lv_led.c ****         part_draw_dsc.type = LV_LED_DRAW_PART_RECTANGLE;
 1407              		.loc 1 210 31 is_stmt 0 view .LVU540
 1408 056e 0C4B     		ldr	r3, .L13+4
 1409 0570 0F93     		str	r3, [sp, #60]
 211:Drivers/lvgl/src/extra/widgets/led/lv_led.c ****         part_draw_dsc.rect_dsc = &rect_dsc;
 1410              		.loc 1 211 9 is_stmt 1 view .LVU541
 211:Drivers/lvgl/src/extra/widgets/led/lv_led.c ****         part_draw_dsc.rect_dsc = &rect_dsc;
 1411              		.loc 1 211 28 is_stmt 0 view .LVU542
 1412 0572 0023     		movs	r3, #0
 1413 0574 1093     		str	r3, [sp, #64]
 212:Drivers/lvgl/src/extra/widgets/led/lv_led.c ****         part_draw_dsc.part = LV_PART_MAIN;
 1414              		.loc 1 212 9 is_stmt 1 view .LVU543
 212:Drivers/lvgl/src/extra/widgets/led/lv_led.c ****         part_draw_dsc.part = LV_PART_MAIN;
 1415              		.loc 1 212 32 is_stmt 0 view .LVU544
 1416 0576 CDF848D0 		str	sp, [sp, #72]
 213:Drivers/lvgl/src/extra/widgets/led/lv_led.c **** 
 1417              		.loc 1 213 9 is_stmt 1 view .LVU545
 213:Drivers/lvgl/src/extra/widgets/led/lv_led.c **** 
 1418              		.loc 1 213 28 is_stmt 0 view .LVU546
 1419 057a 1B93     		str	r3, [sp, #108]
 215:Drivers/lvgl/src/extra/widgets/led/lv_led.c ****         lv_draw_rect(draw_ctx, &rect_dsc, &obj->coords);
 1420              		.loc 1 215 9 is_stmt 1 view .LVU547
 1421 057c 0EAA     		add	r2, sp, #56
 1422 057e 1A21     		movs	r1, #26
 1423 0580 3846     		mov	r0, r7
 1424 0582 FFF7FEFF 		bl	lv_event_send
 1425              	.LVL176:
 216:Drivers/lvgl/src/extra/widgets/led/lv_led.c ****         lv_event_send(obj, LV_EVENT_DRAW_PART_END, &part_draw_dsc);
 1426              		.loc 1 216 9 view .LVU548
 1427 0586 2A46     		mov	r2, r5
 1428 0588 6946     		mov	r1, sp
 1429 058a 2046     		mov	r0, r4
ARM GAS  /var/folders/0z/tsy30v1j4xl4_7kw94k978ww0000gn/T//ccCXLm7m.s 			page 51


 1430 058c FFF7FEFF 		bl	lv_draw_rect
 1431              	.LVL177:
 217:Drivers/lvgl/src/extra/widgets/led/lv_led.c ****     }
 1432              		.loc 1 217 9 view .LVU549
 1433 0590 0EAA     		add	r2, sp, #56
 1434 0592 1B21     		movs	r1, #27
 1435 0594 3846     		mov	r0, r7
 1436 0596 FFF7FEFF 		bl	lv_event_send
 1437              	.LVL178:
 1438 059a 4AE5     		b	.L3
 1439              	.L14:
 1440              		.align	2
 1441              	.L13:
 1442 059c 91739F5D 		.word	1570730897
 1443 05a0 00000000 		.word	.LANCHOR0
 1444              	.LBE150:
 1445              		.cfi_endproc
 1446              	.LFE212:
 1448              		.section	.text.lv_led_create,"ax",%progbits
 1449              		.align	1
 1450              		.global	lv_led_create
 1451              		.syntax unified
 1452              		.thumb
 1453              		.thumb_func
 1455              	lv_led_create:
 1456              	.LVL179:
 1457              	.LFB204:
  55:Drivers/lvgl/src/extra/widgets/led/lv_led.c ****     LV_LOG_INFO("begin");
 1458              		.loc 1 55 1 view -0
 1459              		.cfi_startproc
 1460              		@ args = 0, pretend = 0, frame = 0
 1461              		@ frame_needed = 0, uses_anonymous_args = 0
  55:Drivers/lvgl/src/extra/widgets/led/lv_led.c ****     LV_LOG_INFO("begin");
 1462              		.loc 1 55 1 is_stmt 0 view .LVU551
 1463 0000 10B5     		push	{r4, lr}
 1464              		.cfi_def_cfa_offset 8
 1465              		.cfi_offset 4, -8
 1466              		.cfi_offset 14, -4
 1467 0002 0146     		mov	r1, r0
  56:Drivers/lvgl/src/extra/widgets/led/lv_led.c ****     lv_obj_t * obj = lv_obj_class_create_obj(MY_CLASS, parent);
 1468              		.loc 1 56 5 is_stmt 1 view .LVU552
  56:Drivers/lvgl/src/extra/widgets/led/lv_led.c ****     lv_obj_t * obj = lv_obj_class_create_obj(MY_CLASS, parent);
 1469              		.loc 1 56 5 view .LVU553
  56:Drivers/lvgl/src/extra/widgets/led/lv_led.c ****     lv_obj_t * obj = lv_obj_class_create_obj(MY_CLASS, parent);
 1470              		.loc 1 56 5 view .LVU554
  57:Drivers/lvgl/src/extra/widgets/led/lv_led.c ****     lv_obj_class_init_obj(obj);
 1471              		.loc 1 57 5 view .LVU555
  57:Drivers/lvgl/src/extra/widgets/led/lv_led.c ****     lv_obj_class_init_obj(obj);
 1472              		.loc 1 57 22 is_stmt 0 view .LVU556
 1473 0004 0348     		ldr	r0, .L17
 1474              	.LVL180:
  57:Drivers/lvgl/src/extra/widgets/led/lv_led.c ****     lv_obj_class_init_obj(obj);
 1475              		.loc 1 57 22 view .LVU557
 1476 0006 FFF7FEFF 		bl	lv_obj_class_create_obj
 1477              	.LVL181:
  57:Drivers/lvgl/src/extra/widgets/led/lv_led.c ****     lv_obj_class_init_obj(obj);
 1478              		.loc 1 57 22 view .LVU558
ARM GAS  /var/folders/0z/tsy30v1j4xl4_7kw94k978ww0000gn/T//ccCXLm7m.s 			page 52


 1479 000a 0446     		mov	r4, r0
 1480              	.LVL182:
  58:Drivers/lvgl/src/extra/widgets/led/lv_led.c ****     return obj;
 1481              		.loc 1 58 5 is_stmt 1 view .LVU559
 1482 000c FFF7FEFF 		bl	lv_obj_class_init_obj
 1483              	.LVL183:
  59:Drivers/lvgl/src/extra/widgets/led/lv_led.c **** }
 1484              		.loc 1 59 5 view .LVU560
  60:Drivers/lvgl/src/extra/widgets/led/lv_led.c **** 
 1485              		.loc 1 60 1 is_stmt 0 view .LVU561
 1486 0010 2046     		mov	r0, r4
 1487 0012 10BD     		pop	{r4, pc}
 1488              	.LVL184:
 1489              	.L18:
  60:Drivers/lvgl/src/extra/widgets/led/lv_led.c **** 
 1490              		.loc 1 60 1 view .LVU562
 1491              		.align	2
 1492              	.L17:
 1493 0014 00000000 		.word	.LANCHOR0
 1494              		.cfi_endproc
 1495              	.LFE204:
 1497              		.section	.text.lv_led_set_color,"ax",%progbits
 1498              		.align	1
 1499              		.global	lv_led_set_color
 1500              		.syntax unified
 1501              		.thumb
 1502              		.thumb_func
 1504              	lv_led_set_color:
 1505              	.LVL185:
 1506              	.LFB205:
  72:Drivers/lvgl/src/extra/widgets/led/lv_led.c ****     LV_ASSERT_OBJ(obj, MY_CLASS);
 1507              		.loc 1 72 1 is_stmt 1 view -0
 1508              		.cfi_startproc
 1509              		@ args = 0, pretend = 0, frame = 0
 1510              		@ frame_needed = 0, uses_anonymous_args = 0
  72:Drivers/lvgl/src/extra/widgets/led/lv_led.c ****     LV_ASSERT_OBJ(obj, MY_CLASS);
 1511              		.loc 1 72 1 is_stmt 0 view .LVU564
 1512 0000 08B5     		push	{r3, lr}
 1513              		.cfi_def_cfa_offset 8
 1514              		.cfi_offset 3, -8
 1515              		.cfi_offset 14, -4
  73:Drivers/lvgl/src/extra/widgets/led/lv_led.c **** 
 1516              		.loc 1 73 5 is_stmt 1 view .LVU565
  73:Drivers/lvgl/src/extra/widgets/led/lv_led.c **** 
 1517              		.loc 1 73 5 view .LVU566
  73:Drivers/lvgl/src/extra/widgets/led/lv_led.c **** 
 1518              		.loc 1 73 5 view .LVU567
  75:Drivers/lvgl/src/extra/widgets/led/lv_led.c ****     led->color = color;
 1519              		.loc 1 75 5 view .LVU568
 1520              	.LVL186:
  76:Drivers/lvgl/src/extra/widgets/led/lv_led.c ****     lv_obj_invalidate(obj);
 1521              		.loc 1 76 5 view .LVU569
  76:Drivers/lvgl/src/extra/widgets/led/lv_led.c ****     lv_obj_invalidate(obj);
 1522              		.loc 1 76 16 is_stmt 0 view .LVU570
 1523 0002 8184     		strh	r1, [r0, #36]	@ movhi
  77:Drivers/lvgl/src/extra/widgets/led/lv_led.c **** }
 1524              		.loc 1 77 5 is_stmt 1 view .LVU571
ARM GAS  /var/folders/0z/tsy30v1j4xl4_7kw94k978ww0000gn/T//ccCXLm7m.s 			page 53


 1525 0004 FFF7FEFF 		bl	lv_obj_invalidate
 1526              	.LVL187:
  78:Drivers/lvgl/src/extra/widgets/led/lv_led.c **** 
 1527              		.loc 1 78 1 is_stmt 0 view .LVU572
 1528 0008 08BD     		pop	{r3, pc}
 1529              		.cfi_endproc
 1530              	.LFE205:
 1532              		.section	.text.lv_led_set_brightness,"ax",%progbits
 1533              		.align	1
 1534              		.global	lv_led_set_brightness
 1535              		.syntax unified
 1536              		.thumb
 1537              		.thumb_func
 1539              	lv_led_set_brightness:
 1540              	.LVL188:
 1541              	.LFB206:
  86:Drivers/lvgl/src/extra/widgets/led/lv_led.c ****     LV_ASSERT_OBJ(obj, MY_CLASS);
 1542              		.loc 1 86 1 is_stmt 1 view -0
 1543              		.cfi_startproc
 1544              		@ args = 0, pretend = 0, frame = 0
 1545              		@ frame_needed = 0, uses_anonymous_args = 0
  86:Drivers/lvgl/src/extra/widgets/led/lv_led.c ****     LV_ASSERT_OBJ(obj, MY_CLASS);
 1546              		.loc 1 86 1 is_stmt 0 view .LVU574
 1547 0000 08B5     		push	{r3, lr}
 1548              		.cfi_def_cfa_offset 8
 1549              		.cfi_offset 3, -8
 1550              		.cfi_offset 14, -4
  87:Drivers/lvgl/src/extra/widgets/led/lv_led.c **** 
 1551              		.loc 1 87 5 is_stmt 1 view .LVU575
  87:Drivers/lvgl/src/extra/widgets/led/lv_led.c **** 
 1552              		.loc 1 87 5 view .LVU576
  87:Drivers/lvgl/src/extra/widgets/led/lv_led.c **** 
 1553              		.loc 1 87 5 view .LVU577
  89:Drivers/lvgl/src/extra/widgets/led/lv_led.c ****     if(led->bright == bright) return;
 1554              		.loc 1 89 5 view .LVU578
 1555              	.LVL189:
  90:Drivers/lvgl/src/extra/widgets/led/lv_led.c **** 
 1556              		.loc 1 90 5 view .LVU579
  90:Drivers/lvgl/src/extra/widgets/led/lv_led.c **** 
 1557              		.loc 1 90 11 is_stmt 0 view .LVU580
 1558 0002 90F82630 		ldrb	r3, [r0, #38]	@ zero_extendqisi2
  90:Drivers/lvgl/src/extra/widgets/led/lv_led.c **** 
 1559              		.loc 1 90 7 view .LVU581
 1560 0006 8B42     		cmp	r3, r1
 1561 0008 06D0     		beq	.L21
  92:Drivers/lvgl/src/extra/widgets/led/lv_led.c **** 
 1562              		.loc 1 92 5 is_stmt 1 view .LVU582
  92:Drivers/lvgl/src/extra/widgets/led/lv_led.c **** 
 1563              		.loc 1 92 19 is_stmt 0 view .LVU583
 1564 000a 5029     		cmp	r1, #80
 1565 000c 38BF     		it	cc
 1566 000e 5021     		movcc	r1, #80
 1567              	.LVL190:
  92:Drivers/lvgl/src/extra/widgets/led/lv_led.c **** 
 1568              		.loc 1 92 17 view .LVU584
 1569 0010 80F82610 		strb	r1, [r0, #38]
  95:Drivers/lvgl/src/extra/widgets/led/lv_led.c **** }
ARM GAS  /var/folders/0z/tsy30v1j4xl4_7kw94k978ww0000gn/T//ccCXLm7m.s 			page 54


 1570              		.loc 1 95 5 is_stmt 1 view .LVU585
 1571 0014 FFF7FEFF 		bl	lv_obj_invalidate
 1572              	.LVL191:
 1573              	.L21:
  96:Drivers/lvgl/src/extra/widgets/led/lv_led.c **** 
 1574              		.loc 1 96 1 is_stmt 0 view .LVU586
 1575 0018 08BD     		pop	{r3, pc}
 1576              		.cfi_endproc
 1577              	.LFE206:
 1579              		.section	.text.lv_led_on,"ax",%progbits
 1580              		.align	1
 1581              		.global	lv_led_on
 1582              		.syntax unified
 1583              		.thumb
 1584              		.thumb_func
 1586              	lv_led_on:
 1587              	.LVL192:
 1588              	.LFB207:
 103:Drivers/lvgl/src/extra/widgets/led/lv_led.c ****     lv_led_set_brightness(led, LV_LED_BRIGHT_MAX);
 1589              		.loc 1 103 1 is_stmt 1 view -0
 1590              		.cfi_startproc
 1591              		@ args = 0, pretend = 0, frame = 0
 1592              		@ frame_needed = 0, uses_anonymous_args = 0
 103:Drivers/lvgl/src/extra/widgets/led/lv_led.c ****     lv_led_set_brightness(led, LV_LED_BRIGHT_MAX);
 1593              		.loc 1 103 1 is_stmt 0 view .LVU588
 1594 0000 08B5     		push	{r3, lr}
 1595              		.cfi_def_cfa_offset 8
 1596              		.cfi_offset 3, -8
 1597              		.cfi_offset 14, -4
 104:Drivers/lvgl/src/extra/widgets/led/lv_led.c **** }
 1598              		.loc 1 104 5 is_stmt 1 view .LVU589
 1599 0002 FF21     		movs	r1, #255
 1600 0004 FFF7FEFF 		bl	lv_led_set_brightness
 1601              	.LVL193:
 105:Drivers/lvgl/src/extra/widgets/led/lv_led.c **** 
 1602              		.loc 1 105 1 is_stmt 0 view .LVU590
 1603 0008 08BD     		pop	{r3, pc}
 1604              		.cfi_endproc
 1605              	.LFE207:
 1607              		.section	.text.lv_led_off,"ax",%progbits
 1608              		.align	1
 1609              		.global	lv_led_off
 1610              		.syntax unified
 1611              		.thumb
 1612              		.thumb_func
 1614              	lv_led_off:
 1615              	.LVL194:
 1616              	.LFB208:
 112:Drivers/lvgl/src/extra/widgets/led/lv_led.c ****     lv_led_set_brightness(led, LV_LED_BRIGHT_MIN);
 1617              		.loc 1 112 1 is_stmt 1 view -0
 1618              		.cfi_startproc
 1619              		@ args = 0, pretend = 0, frame = 0
 1620              		@ frame_needed = 0, uses_anonymous_args = 0
 112:Drivers/lvgl/src/extra/widgets/led/lv_led.c ****     lv_led_set_brightness(led, LV_LED_BRIGHT_MIN);
 1621              		.loc 1 112 1 is_stmt 0 view .LVU592
 1622 0000 08B5     		push	{r3, lr}
 1623              		.cfi_def_cfa_offset 8
ARM GAS  /var/folders/0z/tsy30v1j4xl4_7kw94k978ww0000gn/T//ccCXLm7m.s 			page 55


 1624              		.cfi_offset 3, -8
 1625              		.cfi_offset 14, -4
 113:Drivers/lvgl/src/extra/widgets/led/lv_led.c **** }
 1626              		.loc 1 113 5 is_stmt 1 view .LVU593
 1627 0002 5021     		movs	r1, #80
 1628 0004 FFF7FEFF 		bl	lv_led_set_brightness
 1629              	.LVL195:
 114:Drivers/lvgl/src/extra/widgets/led/lv_led.c **** 
 1630              		.loc 1 114 1 is_stmt 0 view .LVU594
 1631 0008 08BD     		pop	{r3, pc}
 1632              		.cfi_endproc
 1633              	.LFE208:
 1635              		.section	.text.lv_led_get_brightness,"ax",%progbits
 1636              		.align	1
 1637              		.global	lv_led_get_brightness
 1638              		.syntax unified
 1639              		.thumb
 1640              		.thumb_func
 1642              	lv_led_get_brightness:
 1643              	.LVL196:
 1644              	.LFB210:
 139:Drivers/lvgl/src/extra/widgets/led/lv_led.c ****     LV_ASSERT_OBJ(obj, MY_CLASS);
 1645              		.loc 1 139 1 is_stmt 1 view -0
 1646              		.cfi_startproc
 1647              		@ args = 0, pretend = 0, frame = 0
 1648              		@ frame_needed = 0, uses_anonymous_args = 0
 1649              		@ link register save eliminated.
 140:Drivers/lvgl/src/extra/widgets/led/lv_led.c **** 
 1650              		.loc 1 140 5 view .LVU596
 140:Drivers/lvgl/src/extra/widgets/led/lv_led.c **** 
 1651              		.loc 1 140 5 view .LVU597
 140:Drivers/lvgl/src/extra/widgets/led/lv_led.c **** 
 1652              		.loc 1 140 5 view .LVU598
 142:Drivers/lvgl/src/extra/widgets/led/lv_led.c ****     return led->bright;
 1653              		.loc 1 142 5 view .LVU599
 143:Drivers/lvgl/src/extra/widgets/led/lv_led.c **** }
 1654              		.loc 1 143 5 view .LVU600
 144:Drivers/lvgl/src/extra/widgets/led/lv_led.c **** 
 1655              		.loc 1 144 1 is_stmt 0 view .LVU601
 1656 0000 90F82600 		ldrb	r0, [r0, #38]	@ zero_extendqisi2
 1657              	.LVL197:
 144:Drivers/lvgl/src/extra/widgets/led/lv_led.c **** 
 1658              		.loc 1 144 1 view .LVU602
 1659 0004 7047     		bx	lr
 1660              		.cfi_endproc
 1661              	.LFE210:
 1663              		.section	.text.lv_led_toggle,"ax",%progbits
 1664              		.align	1
 1665              		.global	lv_led_toggle
 1666              		.syntax unified
 1667              		.thumb
 1668              		.thumb_func
 1670              	lv_led_toggle:
 1671              	.LVL198:
 1672              	.LFB209:
 121:Drivers/lvgl/src/extra/widgets/led/lv_led.c ****     uint8_t bright = lv_led_get_brightness(obj);
 1673              		.loc 1 121 1 is_stmt 1 view -0
ARM GAS  /var/folders/0z/tsy30v1j4xl4_7kw94k978ww0000gn/T//ccCXLm7m.s 			page 56


 1674              		.cfi_startproc
 1675              		@ args = 0, pretend = 0, frame = 0
 1676              		@ frame_needed = 0, uses_anonymous_args = 0
 121:Drivers/lvgl/src/extra/widgets/led/lv_led.c ****     uint8_t bright = lv_led_get_brightness(obj);
 1677              		.loc 1 121 1 is_stmt 0 view .LVU604
 1678 0000 10B5     		push	{r4, lr}
 1679              		.cfi_def_cfa_offset 8
 1680              		.cfi_offset 4, -8
 1681              		.cfi_offset 14, -4
 1682 0002 0446     		mov	r4, r0
 122:Drivers/lvgl/src/extra/widgets/led/lv_led.c ****     if(bright > (LV_LED_BRIGHT_MIN + LV_LED_BRIGHT_MAX) >> 1)
 1683              		.loc 1 122 5 is_stmt 1 view .LVU605
 122:Drivers/lvgl/src/extra/widgets/led/lv_led.c ****     if(bright > (LV_LED_BRIGHT_MIN + LV_LED_BRIGHT_MAX) >> 1)
 1684              		.loc 1 122 22 is_stmt 0 view .LVU606
 1685 0004 FFF7FEFF 		bl	lv_led_get_brightness
 1686              	.LVL199:
 123:Drivers/lvgl/src/extra/widgets/led/lv_led.c ****         lv_led_off(obj);
 1687              		.loc 1 123 5 is_stmt 1 view .LVU607
 123:Drivers/lvgl/src/extra/widgets/led/lv_led.c ****         lv_led_off(obj);
 1688              		.loc 1 123 7 is_stmt 0 view .LVU608
 1689 0008 A728     		cmp	r0, #167
 1690 000a 03D9     		bls	.L30
 124:Drivers/lvgl/src/extra/widgets/led/lv_led.c ****     else
 1691              		.loc 1 124 9 is_stmt 1 view .LVU609
 1692 000c 2046     		mov	r0, r4
 1693              	.LVL200:
 124:Drivers/lvgl/src/extra/widgets/led/lv_led.c ****     else
 1694              		.loc 1 124 9 is_stmt 0 view .LVU610
 1695 000e FFF7FEFF 		bl	lv_led_off
 1696              	.LVL201:
 1697              	.L29:
 127:Drivers/lvgl/src/extra/widgets/led/lv_led.c **** 
 1698              		.loc 1 127 1 view .LVU611
 1699 0012 10BD     		pop	{r4, pc}
 1700              	.LVL202:
 1701              	.L30:
 126:Drivers/lvgl/src/extra/widgets/led/lv_led.c **** }
 1702              		.loc 1 126 9 is_stmt 1 view .LVU612
 1703 0014 2046     		mov	r0, r4
 1704              	.LVL203:
 126:Drivers/lvgl/src/extra/widgets/led/lv_led.c **** }
 1705              		.loc 1 126 9 is_stmt 0 view .LVU613
 1706 0016 FFF7FEFF 		bl	lv_led_on
 1707              	.LVL204:
 127:Drivers/lvgl/src/extra/widgets/led/lv_led.c **** 
 1708              		.loc 1 127 1 view .LVU614
 1709 001a FAE7     		b	.L29
 1710              		.cfi_endproc
 1711              	.LFE209:
 1713              		.global	lv_led_class
 1714              		.section	.rodata.lv_led_class,"a"
 1715              		.align	2
 1716              		.set	.LANCHOR0,. + 0
 1719              	lv_led_class:
 1720 0000 00000000 		.word	lv_obj_class
 1721 0004 00000000 		.word	lv_led_constructor
 1722 0008 00000000 		.space	8
ARM GAS  /var/folders/0z/tsy30v1j4xl4_7kw94k978ww0000gn/T//ccCXLm7m.s 			page 57


 1722      00000000 
 1723 0010 00000000 		.word	lv_led_event
 1724 0014 1A00     		.short	26
 1725 0016 1A00     		.short	26
 1726 0018 80       		.byte	128
 1727 0019 02       		.byte	2
 1728 001a 00       		.byte	0
 1729 001b 00       		.space	1
 1730              		.text
 1731              	.Letext0:
 1732              		.file 3 "/Users/johannes/Library/Application Support/Code/User/globalStorage/bmd.stm32-for-vscode/
 1733              		.file 4 "/Users/johannes/Library/Application Support/Code/User/globalStorage/bmd.stm32-for-vscode/
 1734              		.file 5 "Drivers/lvgl/src/extra/widgets/led/../../../../src/misc/lv_types.h"
 1735              		.file 6 "/Users/johannes/Library/Application Support/Code/User/globalStorage/bmd.stm32-for-vscode/
 1736              		.file 7 "Drivers/lvgl/src/extra/widgets/led/../../../../src/hal/../draw/../misc/../font/../misc/lv
 1737              		.file 8 "Drivers/lvgl/src/extra/widgets/led/../../../../src/hal/../draw/../misc/../font/lv_font.h"
 1738              		.file 9 "Drivers/lvgl/src/extra/widgets/led/../../../../src/hal/../draw/../misc/lv_txt.h"
 1739              		.file 10 "Drivers/lvgl/src/extra/widgets/led/../../../../src/hal/../draw/../misc/lv_bidi.h"
 1740              		.file 11 "Drivers/lvgl/src/extra/widgets/led/../../../../src/hal/../draw/../misc/lv_style.h"
 1741              		.file 12 "Drivers/lvgl/src/extra/widgets/led/../../../../src/hal/../draw/lv_img_buf.h"
 1742              		.file 13 "Drivers/lvgl/src/extra/widgets/led/../../../../src/core/lv_obj.h"
 1743              		.file 14 "Drivers/lvgl/src/extra/widgets/led/../../../../src/hal/../draw/lv_draw_rect.h"
 1744              		.file 15 "Drivers/lvgl/src/extra/widgets/led/../../../../src/hal/../draw/lv_draw_label.h"
 1745              		.file 16 "Drivers/lvgl/src/extra/widgets/led/../../../../src/hal/../draw/lv_draw_img.h"
 1746              		.file 17 "Drivers/lvgl/src/extra/widgets/led/../../../../src/hal/../draw/lv_draw_line.h"
 1747              		.file 18 "Drivers/lvgl/src/extra/widgets/led/../../../../src/hal/../draw/lv_draw_arc.h"
