ARM GAS  /var/folders/0z/tsy30v1j4xl4_7kw94k978ww0000gn/T//ccLT6Yh4.s 			page 1


   1              		.cpu cortex-m4
   2              		.arch armv7e-m
   3              		.fpu fpv4-sp-d16
   4              		.eabi_attribute 27, 1
   5              		.eabi_attribute 28, 1
   6              		.eabi_attribute 20, 1
   7              		.eabi_attribute 21, 1
   8              		.eabi_attribute 23, 3
   9              		.eabi_attribute 24, 1
  10              		.eabi_attribute 25, 1
  11              		.eabi_attribute 26, 1
  12              		.eabi_attribute 30, 1
  13              		.eabi_attribute 34, 1
  14              		.eabi_attribute 18, 4
  15              		.file	"lv_msgbox.c"
  16              		.text
  17              	.Ltext0:
  18              		.cfi_sections	.debug_frame
  19              		.section	.rodata.lv_msgbox_create.str1.4,"aMS",%progbits,1
  20              		.align	2
  21              	.LC0:
  22 0000 00       		.ascii	"\000"
  23 0001 000000   		.align	2
  24              	.LC1:
  25 0004 EF808D00 		.ascii	"\357\200\215\000"
  26              		.section	.text.lv_msgbox_create,"ax",%progbits
  27              		.align	1
  28              		.global	lv_msgbox_create
  29              		.syntax unified
  30              		.thumb
  31              		.thumb_func
  33              	lv_msgbox_create:
  34              	.LVL0:
  35              	.LFB204:
  36              		.file 1 "Drivers/lvgl/src/extra/widgets/msgbox/lv_msgbox.c"
   1:Drivers/lvgl/src/extra/widgets/msgbox/lv_msgbox.c **** /**
   2:Drivers/lvgl/src/extra/widgets/msgbox/lv_msgbox.c ****  * @file lv_msgbox.c
   3:Drivers/lvgl/src/extra/widgets/msgbox/lv_msgbox.c ****  *
   4:Drivers/lvgl/src/extra/widgets/msgbox/lv_msgbox.c ****  */
   5:Drivers/lvgl/src/extra/widgets/msgbox/lv_msgbox.c **** 
   6:Drivers/lvgl/src/extra/widgets/msgbox/lv_msgbox.c **** /*********************
   7:Drivers/lvgl/src/extra/widgets/msgbox/lv_msgbox.c ****  *      INCLUDES
   8:Drivers/lvgl/src/extra/widgets/msgbox/lv_msgbox.c ****  *********************/
   9:Drivers/lvgl/src/extra/widgets/msgbox/lv_msgbox.c **** #include "lv_msgbox.h"
  10:Drivers/lvgl/src/extra/widgets/msgbox/lv_msgbox.c **** #if LV_USE_MSGBOX
  11:Drivers/lvgl/src/extra/widgets/msgbox/lv_msgbox.c **** 
  12:Drivers/lvgl/src/extra/widgets/msgbox/lv_msgbox.c **** #include "../../../misc/lv_assert.h"
  13:Drivers/lvgl/src/extra/widgets/msgbox/lv_msgbox.c **** 
  14:Drivers/lvgl/src/extra/widgets/msgbox/lv_msgbox.c **** /*********************
  15:Drivers/lvgl/src/extra/widgets/msgbox/lv_msgbox.c ****  *      DEFINES
  16:Drivers/lvgl/src/extra/widgets/msgbox/lv_msgbox.c ****  *********************/
  17:Drivers/lvgl/src/extra/widgets/msgbox/lv_msgbox.c **** #define LV_MSGBOX_FLAG_AUTO_PARENT  LV_OBJ_FLAG_WIDGET_1        /*Mark that the parent was automati
  18:Drivers/lvgl/src/extra/widgets/msgbox/lv_msgbox.c **** #define MY_CLASS    &lv_msgbox_class
  19:Drivers/lvgl/src/extra/widgets/msgbox/lv_msgbox.c **** 
  20:Drivers/lvgl/src/extra/widgets/msgbox/lv_msgbox.c **** /**********************
  21:Drivers/lvgl/src/extra/widgets/msgbox/lv_msgbox.c ****  *      TYPEDEFS
  22:Drivers/lvgl/src/extra/widgets/msgbox/lv_msgbox.c ****  **********************/
ARM GAS  /var/folders/0z/tsy30v1j4xl4_7kw94k978ww0000gn/T//ccLT6Yh4.s 			page 2


  23:Drivers/lvgl/src/extra/widgets/msgbox/lv_msgbox.c **** 
  24:Drivers/lvgl/src/extra/widgets/msgbox/lv_msgbox.c **** /**********************
  25:Drivers/lvgl/src/extra/widgets/msgbox/lv_msgbox.c ****  *  STATIC PROTOTYPES
  26:Drivers/lvgl/src/extra/widgets/msgbox/lv_msgbox.c ****  **********************/
  27:Drivers/lvgl/src/extra/widgets/msgbox/lv_msgbox.c **** static void msgbox_close_click_event_cb(lv_event_t * e);
  28:Drivers/lvgl/src/extra/widgets/msgbox/lv_msgbox.c **** 
  29:Drivers/lvgl/src/extra/widgets/msgbox/lv_msgbox.c **** /**********************
  30:Drivers/lvgl/src/extra/widgets/msgbox/lv_msgbox.c ****  *  STATIC VARIABLES
  31:Drivers/lvgl/src/extra/widgets/msgbox/lv_msgbox.c ****  **********************/
  32:Drivers/lvgl/src/extra/widgets/msgbox/lv_msgbox.c **** const lv_obj_class_t lv_msgbox_class = {
  33:Drivers/lvgl/src/extra/widgets/msgbox/lv_msgbox.c ****     .base_class = &lv_obj_class,
  34:Drivers/lvgl/src/extra/widgets/msgbox/lv_msgbox.c ****     .width_def = LV_DPI_DEF * 2,
  35:Drivers/lvgl/src/extra/widgets/msgbox/lv_msgbox.c ****     .height_def = LV_SIZE_CONTENT,
  36:Drivers/lvgl/src/extra/widgets/msgbox/lv_msgbox.c ****     .instance_size = sizeof(lv_msgbox_t)
  37:Drivers/lvgl/src/extra/widgets/msgbox/lv_msgbox.c **** };
  38:Drivers/lvgl/src/extra/widgets/msgbox/lv_msgbox.c **** 
  39:Drivers/lvgl/src/extra/widgets/msgbox/lv_msgbox.c **** const lv_obj_class_t lv_msgbox_content_class = {
  40:Drivers/lvgl/src/extra/widgets/msgbox/lv_msgbox.c ****     .base_class = &lv_obj_class,
  41:Drivers/lvgl/src/extra/widgets/msgbox/lv_msgbox.c ****     .width_def = LV_PCT(100),
  42:Drivers/lvgl/src/extra/widgets/msgbox/lv_msgbox.c ****     .height_def = LV_SIZE_CONTENT,
  43:Drivers/lvgl/src/extra/widgets/msgbox/lv_msgbox.c ****     .instance_size = sizeof(lv_obj_t)
  44:Drivers/lvgl/src/extra/widgets/msgbox/lv_msgbox.c **** };
  45:Drivers/lvgl/src/extra/widgets/msgbox/lv_msgbox.c **** 
  46:Drivers/lvgl/src/extra/widgets/msgbox/lv_msgbox.c **** const lv_obj_class_t lv_msgbox_backdrop_class = {
  47:Drivers/lvgl/src/extra/widgets/msgbox/lv_msgbox.c ****     .base_class = &lv_obj_class,
  48:Drivers/lvgl/src/extra/widgets/msgbox/lv_msgbox.c ****     .width_def = LV_PCT(100),
  49:Drivers/lvgl/src/extra/widgets/msgbox/lv_msgbox.c ****     .height_def = LV_PCT(100),
  50:Drivers/lvgl/src/extra/widgets/msgbox/lv_msgbox.c ****     .instance_size = sizeof(lv_obj_t)
  51:Drivers/lvgl/src/extra/widgets/msgbox/lv_msgbox.c **** };
  52:Drivers/lvgl/src/extra/widgets/msgbox/lv_msgbox.c **** 
  53:Drivers/lvgl/src/extra/widgets/msgbox/lv_msgbox.c **** /**********************
  54:Drivers/lvgl/src/extra/widgets/msgbox/lv_msgbox.c ****  *      MACROS
  55:Drivers/lvgl/src/extra/widgets/msgbox/lv_msgbox.c ****  **********************/
  56:Drivers/lvgl/src/extra/widgets/msgbox/lv_msgbox.c **** 
  57:Drivers/lvgl/src/extra/widgets/msgbox/lv_msgbox.c **** /**********************
  58:Drivers/lvgl/src/extra/widgets/msgbox/lv_msgbox.c ****  *   GLOBAL FUNCTIONS
  59:Drivers/lvgl/src/extra/widgets/msgbox/lv_msgbox.c ****  **********************/
  60:Drivers/lvgl/src/extra/widgets/msgbox/lv_msgbox.c **** 
  61:Drivers/lvgl/src/extra/widgets/msgbox/lv_msgbox.c **** lv_obj_t * lv_msgbox_create(lv_obj_t * parent, const char * title, const char * txt, const char * b
  62:Drivers/lvgl/src/extra/widgets/msgbox/lv_msgbox.c ****                             bool add_close_btn)
  63:Drivers/lvgl/src/extra/widgets/msgbox/lv_msgbox.c **** {
  37              		.loc 1 63 1 view -0
  38              		.cfi_startproc
  39              		@ args = 4, pretend = 0, frame = 0
  40              		@ frame_needed = 0, uses_anonymous_args = 0
  41              		.loc 1 63 1 is_stmt 0 view .LVU1
  42 0000 2DE9F843 		push	{r3, r4, r5, r6, r7, r8, r9, lr}
  43              		.cfi_def_cfa_offset 32
  44              		.cfi_offset 3, -32
  45              		.cfi_offset 4, -28
  46              		.cfi_offset 5, -24
  47              		.cfi_offset 6, -20
  48              		.cfi_offset 7, -16
  49              		.cfi_offset 8, -12
  50              		.cfi_offset 9, -8
  51              		.cfi_offset 14, -4
  52 0004 0E46     		mov	r6, r1
ARM GAS  /var/folders/0z/tsy30v1j4xl4_7kw94k978ww0000gn/T//ccLT6Yh4.s 			page 3


  53 0006 1746     		mov	r7, r2
  54 0008 1D46     		mov	r5, r3
  55 000a 9DF82080 		ldrb	r8, [sp, #32]	@ zero_extendqisi2
  64:Drivers/lvgl/src/extra/widgets/msgbox/lv_msgbox.c ****     LV_LOG_INFO("begin");
  56              		.loc 1 64 5 is_stmt 1 view .LVU2
  57              		.loc 1 64 5 view .LVU3
  58              		.loc 1 64 5 view .LVU4
  65:Drivers/lvgl/src/extra/widgets/msgbox/lv_msgbox.c ****     bool auto_parent = false;
  59              		.loc 1 65 5 view .LVU5
  60              	.LVL1:
  66:Drivers/lvgl/src/extra/widgets/msgbox/lv_msgbox.c ****     if(parent == NULL) {
  61              		.loc 1 66 5 view .LVU6
  62              		.loc 1 66 7 is_stmt 0 view .LVU7
  63 000e 0028     		cmp	r0, #0
  64 0010 5DD0     		beq	.L33
  65 0012 0446     		mov	r4, r0
  65:Drivers/lvgl/src/extra/widgets/msgbox/lv_msgbox.c ****     bool auto_parent = false;
  66              		.loc 1 65 10 view .LVU8
  67 0014 4FF00009 		mov	r9, #0
  68              	.LVL2:
  69              	.L2:
  67:Drivers/lvgl/src/extra/widgets/msgbox/lv_msgbox.c ****         auto_parent = true;
  68:Drivers/lvgl/src/extra/widgets/msgbox/lv_msgbox.c ****         parent = lv_obj_class_create_obj(&lv_msgbox_backdrop_class, lv_layer_top());
  69:Drivers/lvgl/src/extra/widgets/msgbox/lv_msgbox.c ****         LV_ASSERT_MALLOC(parent);
  70:Drivers/lvgl/src/extra/widgets/msgbox/lv_msgbox.c ****         lv_obj_class_init_obj(parent);
  71:Drivers/lvgl/src/extra/widgets/msgbox/lv_msgbox.c ****         lv_obj_clear_flag(parent, LV_OBJ_FLAG_IGNORE_LAYOUT);
  72:Drivers/lvgl/src/extra/widgets/msgbox/lv_msgbox.c ****         lv_obj_set_size(parent, LV_PCT(100), LV_PCT(100));
  73:Drivers/lvgl/src/extra/widgets/msgbox/lv_msgbox.c ****     }
  74:Drivers/lvgl/src/extra/widgets/msgbox/lv_msgbox.c **** 
  75:Drivers/lvgl/src/extra/widgets/msgbox/lv_msgbox.c ****     lv_obj_t * obj = lv_obj_class_create_obj(&lv_msgbox_class, parent);
  70              		.loc 1 75 5 is_stmt 1 view .LVU9
  71              		.loc 1 75 22 is_stmt 0 view .LVU10
  72 0018 2146     		mov	r1, r4
  73 001a 9048     		ldr	r0, .L39
  74 001c FFF7FEFF 		bl	lv_obj_class_create_obj
  75              	.LVL3:
  76:Drivers/lvgl/src/extra/widgets/msgbox/lv_msgbox.c ****     LV_ASSERT_MALLOC(obj);
  76              		.loc 1 76 5 is_stmt 1 view .LVU11
  77              		.loc 1 76 5 view .LVU12
  78 0020 0446     		mov	r4, r0
  79              	.LVL4:
  80              		.loc 1 76 5 is_stmt 0 view .LVU13
  81 0022 0028     		cmp	r0, #0
  82 0024 6ED0     		beq	.L6
  83              		.loc 1 76 5 is_stmt 1 view .LVU14
  84              		.loc 1 76 26 view .LVU15
  77:Drivers/lvgl/src/extra/widgets/msgbox/lv_msgbox.c ****     if(obj == NULL) return NULL;
  85              		.loc 1 77 5 view .LVU16
  78:Drivers/lvgl/src/extra/widgets/msgbox/lv_msgbox.c ****     lv_obj_class_init_obj(obj);
  86              		.loc 1 78 5 view .LVU17
  87 0026 FFF7FEFF 		bl	lv_obj_class_init_obj
  88              	.LVL5:
  79:Drivers/lvgl/src/extra/widgets/msgbox/lv_msgbox.c ****     lv_msgbox_t * mbox = (lv_msgbox_t *)obj;
  89              		.loc 1 79 5 view .LVU18
  80:Drivers/lvgl/src/extra/widgets/msgbox/lv_msgbox.c **** 
  81:Drivers/lvgl/src/extra/widgets/msgbox/lv_msgbox.c ****     if(auto_parent) lv_obj_add_flag(obj, LV_MSGBOX_FLAG_AUTO_PARENT);
  90              		.loc 1 81 5 view .LVU19
ARM GAS  /var/folders/0z/tsy30v1j4xl4_7kw94k978ww0000gn/T//ccLT6Yh4.s 			page 4


  91              		.loc 1 81 7 is_stmt 0 view .LVU20
  92 002a B9F1000F 		cmp	r9, #0
  93 002e 6AD1     		bne	.L34
  94              	.L7:
  82:Drivers/lvgl/src/extra/widgets/msgbox/lv_msgbox.c **** 
  83:Drivers/lvgl/src/extra/widgets/msgbox/lv_msgbox.c ****     lv_obj_set_flex_flow(obj, LV_FLEX_FLOW_ROW_WRAP);
  95              		.loc 1 83 5 is_stmt 1 view .LVU21
  96 0030 0421     		movs	r1, #4
  97 0032 2046     		mov	r0, r4
  98 0034 FFF7FEFF 		bl	lv_obj_set_flex_flow
  99              	.LVL6:
  84:Drivers/lvgl/src/extra/widgets/msgbox/lv_msgbox.c **** 
  85:Drivers/lvgl/src/extra/widgets/msgbox/lv_msgbox.c ****     bool has_title = title && strlen(title) > 0;
 100              		.loc 1 85 5 view .LVU22
 101              		.loc 1 85 28 is_stmt 0 view .LVU23
 102 0038 002E     		cmp	r6, #0
 103 003a 6AD0     		beq	.L25
 104              		.loc 1 85 45 discriminator 1 view .LVU24
 105 003c 3378     		ldrb	r3, [r6]	@ zero_extendqisi2
 106              		.loc 1 85 28 discriminator 1 view .LVU25
 107 003e 002B     		cmp	r3, #0
 108 0040 6AD1     		bne	.L26
 109              		.loc 1 85 28 view .LVU26
 110 0042 4FF00009 		mov	r9, #0
 111              	.LVL7:
 112              	.L8:
  86:Drivers/lvgl/src/extra/widgets/msgbox/lv_msgbox.c **** 
  87:Drivers/lvgl/src/extra/widgets/msgbox/lv_msgbox.c ****     /*When a close button is required, we need the empty label as spacer to push the button to the 
  88:Drivers/lvgl/src/extra/widgets/msgbox/lv_msgbox.c ****     if(add_close_btn || has_title) {
 113              		.loc 1 88 5 is_stmt 1 discriminator 6 view .LVU27
 114              		.loc 1 88 7 is_stmt 0 discriminator 6 view .LVU28
 115 0046 B8F1000F 		cmp	r8, #0
 116 004a 02D1     		bne	.L9
 117              		.loc 1 88 22 discriminator 1 view .LVU29
 118 004c B9F1000F 		cmp	r9, #0
 119 0050 15D0     		beq	.L10
 120              	.L9:
  89:Drivers/lvgl/src/extra/widgets/msgbox/lv_msgbox.c ****         mbox->title = lv_label_create(obj);
 121              		.loc 1 89 9 is_stmt 1 view .LVU30
 122              		.loc 1 89 23 is_stmt 0 view .LVU31
 123 0052 2046     		mov	r0, r4
 124 0054 FFF7FEFF 		bl	lv_label_create
 125              	.LVL8:
 126              		.loc 1 89 21 view .LVU32
 127 0058 6062     		str	r0, [r4, #36]
  90:Drivers/lvgl/src/extra/widgets/msgbox/lv_msgbox.c ****         lv_label_set_text(mbox->title, has_title ? title : "");
 128              		.loc 1 90 9 is_stmt 1 view .LVU33
 129 005a B9F1000F 		cmp	r9, #0
 130 005e 00D1     		bne	.L11
 131 0060 7F4E     		ldr	r6, .L39+4
 132              	.LVL9:
 133              	.L11:
 134              		.loc 1 90 9 is_stmt 0 discriminator 4 view .LVU34
 135 0062 3146     		mov	r1, r6
 136 0064 FFF7FEFF 		bl	lv_label_set_text
 137              	.LVL10:
  91:Drivers/lvgl/src/extra/widgets/msgbox/lv_msgbox.c ****         lv_label_set_long_mode(mbox->title, LV_LABEL_LONG_SCROLL_CIRCULAR);
ARM GAS  /var/folders/0z/tsy30v1j4xl4_7kw94k978ww0000gn/T//ccLT6Yh4.s 			page 5


 138              		.loc 1 91 9 is_stmt 1 discriminator 4 view .LVU35
 139 0068 0321     		movs	r1, #3
 140 006a 606A     		ldr	r0, [r4, #36]
 141 006c FFF7FEFF 		bl	lv_label_set_long_mode
 142              	.LVL11:
  92:Drivers/lvgl/src/extra/widgets/msgbox/lv_msgbox.c ****         if(add_close_btn) lv_obj_set_flex_grow(mbox->title, 1);
 143              		.loc 1 92 9 discriminator 4 view .LVU36
 144              		.loc 1 92 11 is_stmt 0 discriminator 4 view .LVU37
 145 0070 B8F1000F 		cmp	r8, #0
 146 0074 53D0     		beq	.L12
 147              		.loc 1 92 27 is_stmt 1 discriminator 1 view .LVU38
 148 0076 0121     		movs	r1, #1
 149 0078 606A     		ldr	r0, [r4, #36]
 150 007a FFF7FEFF 		bl	lv_obj_set_flex_grow
 151              	.LVL12:
 152              	.L10:
  93:Drivers/lvgl/src/extra/widgets/msgbox/lv_msgbox.c ****         else lv_obj_set_width(mbox->title, LV_PCT(100));
  94:Drivers/lvgl/src/extra/widgets/msgbox/lv_msgbox.c ****     }
  95:Drivers/lvgl/src/extra/widgets/msgbox/lv_msgbox.c **** 
  96:Drivers/lvgl/src/extra/widgets/msgbox/lv_msgbox.c ****     if(add_close_btn) {
 153              		.loc 1 96 5 view .LVU39
 154              		.loc 1 96 7 is_stmt 0 view .LVU40
 155 007e B8F1000F 		cmp	r8, #0
 156 0082 52D1     		bne	.L35
 157              	.L13:
  97:Drivers/lvgl/src/extra/widgets/msgbox/lv_msgbox.c ****         mbox->close_btn = lv_btn_create(obj);
  98:Drivers/lvgl/src/extra/widgets/msgbox/lv_msgbox.c ****         lv_obj_set_ext_click_area(mbox->close_btn, LV_DPX(10));
  99:Drivers/lvgl/src/extra/widgets/msgbox/lv_msgbox.c ****         lv_obj_add_event_cb(mbox->close_btn, msgbox_close_click_event_cb, LV_EVENT_CLICKED, NULL);
 100:Drivers/lvgl/src/extra/widgets/msgbox/lv_msgbox.c ****         lv_obj_t * label = lv_label_create(mbox->close_btn);
 101:Drivers/lvgl/src/extra/widgets/msgbox/lv_msgbox.c ****         lv_label_set_text(label, LV_SYMBOL_CLOSE);
 102:Drivers/lvgl/src/extra/widgets/msgbox/lv_msgbox.c ****         const lv_font_t * font = lv_obj_get_style_text_font(mbox->close_btn, LV_PART_MAIN);
 103:Drivers/lvgl/src/extra/widgets/msgbox/lv_msgbox.c ****         lv_coord_t close_btn_size = lv_font_get_line_height(font) + LV_DPX(10);
 104:Drivers/lvgl/src/extra/widgets/msgbox/lv_msgbox.c ****         lv_obj_set_size(mbox->close_btn, close_btn_size, close_btn_size);
 105:Drivers/lvgl/src/extra/widgets/msgbox/lv_msgbox.c ****         lv_obj_align(label, LV_ALIGN_CENTER, 0, 0);
 106:Drivers/lvgl/src/extra/widgets/msgbox/lv_msgbox.c ****     }
 107:Drivers/lvgl/src/extra/widgets/msgbox/lv_msgbox.c **** 
 108:Drivers/lvgl/src/extra/widgets/msgbox/lv_msgbox.c ****     mbox->content = lv_obj_class_create_obj(&lv_msgbox_content_class, obj);
 158              		.loc 1 108 5 is_stmt 1 view .LVU41
 159              		.loc 1 108 21 is_stmt 0 view .LVU42
 160 0084 2146     		mov	r1, r4
 161 0086 7748     		ldr	r0, .L39+8
 162 0088 FFF7FEFF 		bl	lv_obj_class_create_obj
 163              	.LVL13:
 164              		.loc 1 108 19 view .LVU43
 165 008c E062     		str	r0, [r4, #44]
 109:Drivers/lvgl/src/extra/widgets/msgbox/lv_msgbox.c ****     LV_ASSERT_MALLOC(mbox->content);
 166              		.loc 1 109 5 is_stmt 1 view .LVU44
 167              		.loc 1 109 5 view .LVU45
 168 008e 0028     		cmp	r0, #0
 169 0090 00F0A580 		beq	.L17
 170              		.loc 1 109 5 view .LVU46
 171              		.loc 1 109 36 view .LVU47
 110:Drivers/lvgl/src/extra/widgets/msgbox/lv_msgbox.c ****     if(mbox->content == NULL) return NULL;
 172              		.loc 1 110 5 view .LVU48
 111:Drivers/lvgl/src/extra/widgets/msgbox/lv_msgbox.c ****     lv_obj_class_init_obj(mbox->content);
 173              		.loc 1 111 5 view .LVU49
 174 0094 FFF7FEFF 		bl	lv_obj_class_init_obj
ARM GAS  /var/folders/0z/tsy30v1j4xl4_7kw94k978ww0000gn/T//ccLT6Yh4.s 			page 6


 175              	.LVL14:
 112:Drivers/lvgl/src/extra/widgets/msgbox/lv_msgbox.c **** 
 113:Drivers/lvgl/src/extra/widgets/msgbox/lv_msgbox.c ****     bool has_txt = txt && strlen(txt) > 0;
 176              		.loc 1 113 5 view .LVU50
 177              		.loc 1 113 24 is_stmt 0 view .LVU51
 178 0098 002F     		cmp	r7, #0
 179 009a 00F0A180 		beq	.L30
 180              		.loc 1 113 39 discriminator 1 view .LVU52
 181 009e 3B78     		ldrb	r3, [r7]	@ zero_extendqisi2
 182              		.loc 1 113 24 discriminator 1 view .LVU53
 183 00a0 002B     		cmp	r3, #0
 184 00a2 40F09F80 		bne	.L31
 185              	.L18:
 186              	.LVL15:
 114:Drivers/lvgl/src/extra/widgets/msgbox/lv_msgbox.c ****     if(has_txt) {
 187              		.loc 1 114 5 is_stmt 1 discriminator 6 view .LVU54
 188              		.loc 1 114 7 is_stmt 0 discriminator 6 view .LVU55
 189 00a6 002B     		cmp	r3, #0
 190 00a8 40F09E80 		bne	.L36
 191              	.LVL16:
 192              	.L19:
 115:Drivers/lvgl/src/extra/widgets/msgbox/lv_msgbox.c ****         mbox->text = lv_label_create(mbox->content);
 116:Drivers/lvgl/src/extra/widgets/msgbox/lv_msgbox.c ****         lv_label_set_text(mbox->text, txt);
 117:Drivers/lvgl/src/extra/widgets/msgbox/lv_msgbox.c ****         lv_label_set_long_mode(mbox->text, LV_LABEL_LONG_WRAP);
 118:Drivers/lvgl/src/extra/widgets/msgbox/lv_msgbox.c ****         lv_obj_set_width(mbox->text, lv_pct(100));
 119:Drivers/lvgl/src/extra/widgets/msgbox/lv_msgbox.c ****     }
 120:Drivers/lvgl/src/extra/widgets/msgbox/lv_msgbox.c **** 
 121:Drivers/lvgl/src/extra/widgets/msgbox/lv_msgbox.c ****     if(btn_txts) {
 193              		.loc 1 121 5 is_stmt 1 view .LVU56
 194              		.loc 1 121 7 is_stmt 0 view .LVU57
 195 00ac 002D     		cmp	r5, #0
 196 00ae 00F0D280 		beq	.L1
 197              	.LBB28:
 122:Drivers/lvgl/src/extra/widgets/msgbox/lv_msgbox.c ****         mbox->btns = lv_btnmatrix_create(obj);
 198              		.loc 1 122 9 is_stmt 1 view .LVU58
 199              		.loc 1 122 22 is_stmt 0 view .LVU59
 200 00b2 2046     		mov	r0, r4
 201 00b4 FFF7FEFF 		bl	lv_btnmatrix_create
 202              	.LVL17:
 203              		.loc 1 122 20 view .LVU60
 204 00b8 6063     		str	r0, [r4, #52]
 123:Drivers/lvgl/src/extra/widgets/msgbox/lv_msgbox.c ****         lv_btnmatrix_set_map(mbox->btns, btn_txts);
 205              		.loc 1 123 9 is_stmt 1 view .LVU61
 206 00ba 2946     		mov	r1, r5
 207 00bc FFF7FEFF 		bl	lv_btnmatrix_set_map
 208              	.LVL18:
 124:Drivers/lvgl/src/extra/widgets/msgbox/lv_msgbox.c ****         lv_btnmatrix_set_btn_ctrl_all(mbox->btns, LV_BTNMATRIX_CTRL_CLICK_TRIG | LV_BTNMATRIX_CTRL_
 209              		.loc 1 124 9 view .LVU62
 210 00c0 4FF40871 		mov	r1, #544
 211 00c4 606B     		ldr	r0, [r4, #52]
 212 00c6 FFF7FEFF 		bl	lv_btnmatrix_set_btn_ctrl_all
 213              	.LVL19:
 125:Drivers/lvgl/src/extra/widgets/msgbox/lv_msgbox.c **** 
 126:Drivers/lvgl/src/extra/widgets/msgbox/lv_msgbox.c ****         uint32_t btn_cnt = 0;
 214              		.loc 1 126 9 view .LVU63
 127:Drivers/lvgl/src/extra/widgets/msgbox/lv_msgbox.c ****         while(btn_txts[btn_cnt] && btn_txts[btn_cnt][0] != '\0') {
 215              		.loc 1 127 9 view .LVU64
ARM GAS  /var/folders/0z/tsy30v1j4xl4_7kw94k978ww0000gn/T//ccLT6Yh4.s 			page 7


 126:Drivers/lvgl/src/extra/widgets/msgbox/lv_msgbox.c ****         while(btn_txts[btn_cnt] && btn_txts[btn_cnt][0] != '\0') {
 216              		.loc 1 126 18 is_stmt 0 view .LVU65
 217 00ca 0026     		movs	r6, #0
 218              		.loc 1 127 14 view .LVU66
 219 00cc 9EE0     		b	.L21
 220              	.LVL20:
 221              	.L33:
 222              		.loc 1 127 14 view .LVU67
 223              	.LBE28:
  67:Drivers/lvgl/src/extra/widgets/msgbox/lv_msgbox.c ****         parent = lv_obj_class_create_obj(&lv_msgbox_backdrop_class, lv_layer_top());
 224              		.loc 1 67 9 is_stmt 1 view .LVU68
  68:Drivers/lvgl/src/extra/widgets/msgbox/lv_msgbox.c ****         LV_ASSERT_MALLOC(parent);
 225              		.loc 1 68 9 view .LVU69
 226              	.LBB33:
 227              	.LBI33:
 228              		.file 2 "Drivers/lvgl/src/extra/widgets/msgbox/../../../../src/core/lv_disp.h"
   1:Drivers/lvgl/src/extra/widgets/msgbox/../../../../src/core/lv_disp.h **** /**
   2:Drivers/lvgl/src/extra/widgets/msgbox/../../../../src/core/lv_disp.h ****  * @file lv_disp.h
   3:Drivers/lvgl/src/extra/widgets/msgbox/../../../../src/core/lv_disp.h ****  *
   4:Drivers/lvgl/src/extra/widgets/msgbox/../../../../src/core/lv_disp.h ****  */
   5:Drivers/lvgl/src/extra/widgets/msgbox/../../../../src/core/lv_disp.h **** 
   6:Drivers/lvgl/src/extra/widgets/msgbox/../../../../src/core/lv_disp.h **** #ifndef LV_DISP_H
   7:Drivers/lvgl/src/extra/widgets/msgbox/../../../../src/core/lv_disp.h **** #define LV_DISP_H
   8:Drivers/lvgl/src/extra/widgets/msgbox/../../../../src/core/lv_disp.h **** 
   9:Drivers/lvgl/src/extra/widgets/msgbox/../../../../src/core/lv_disp.h **** #ifdef __cplusplus
  10:Drivers/lvgl/src/extra/widgets/msgbox/../../../../src/core/lv_disp.h **** extern "C" {
  11:Drivers/lvgl/src/extra/widgets/msgbox/../../../../src/core/lv_disp.h **** #endif
  12:Drivers/lvgl/src/extra/widgets/msgbox/../../../../src/core/lv_disp.h **** 
  13:Drivers/lvgl/src/extra/widgets/msgbox/../../../../src/core/lv_disp.h **** /*********************
  14:Drivers/lvgl/src/extra/widgets/msgbox/../../../../src/core/lv_disp.h ****  *      INCLUDES
  15:Drivers/lvgl/src/extra/widgets/msgbox/../../../../src/core/lv_disp.h ****  *********************/
  16:Drivers/lvgl/src/extra/widgets/msgbox/../../../../src/core/lv_disp.h **** #include "../hal/lv_hal.h"
  17:Drivers/lvgl/src/extra/widgets/msgbox/../../../../src/core/lv_disp.h **** #include "lv_obj.h"
  18:Drivers/lvgl/src/extra/widgets/msgbox/../../../../src/core/lv_disp.h **** #include "lv_theme.h"
  19:Drivers/lvgl/src/extra/widgets/msgbox/../../../../src/core/lv_disp.h **** 
  20:Drivers/lvgl/src/extra/widgets/msgbox/../../../../src/core/lv_disp.h **** /*********************
  21:Drivers/lvgl/src/extra/widgets/msgbox/../../../../src/core/lv_disp.h ****  *      DEFINES
  22:Drivers/lvgl/src/extra/widgets/msgbox/../../../../src/core/lv_disp.h ****  *********************/
  23:Drivers/lvgl/src/extra/widgets/msgbox/../../../../src/core/lv_disp.h **** 
  24:Drivers/lvgl/src/extra/widgets/msgbox/../../../../src/core/lv_disp.h **** /**********************
  25:Drivers/lvgl/src/extra/widgets/msgbox/../../../../src/core/lv_disp.h ****  *      TYPEDEFS
  26:Drivers/lvgl/src/extra/widgets/msgbox/../../../../src/core/lv_disp.h ****  **********************/
  27:Drivers/lvgl/src/extra/widgets/msgbox/../../../../src/core/lv_disp.h **** 
  28:Drivers/lvgl/src/extra/widgets/msgbox/../../../../src/core/lv_disp.h **** typedef enum {
  29:Drivers/lvgl/src/extra/widgets/msgbox/../../../../src/core/lv_disp.h ****     LV_SCR_LOAD_ANIM_NONE,
  30:Drivers/lvgl/src/extra/widgets/msgbox/../../../../src/core/lv_disp.h ****     LV_SCR_LOAD_ANIM_OVER_LEFT,
  31:Drivers/lvgl/src/extra/widgets/msgbox/../../../../src/core/lv_disp.h ****     LV_SCR_LOAD_ANIM_OVER_RIGHT,
  32:Drivers/lvgl/src/extra/widgets/msgbox/../../../../src/core/lv_disp.h ****     LV_SCR_LOAD_ANIM_OVER_TOP,
  33:Drivers/lvgl/src/extra/widgets/msgbox/../../../../src/core/lv_disp.h ****     LV_SCR_LOAD_ANIM_OVER_BOTTOM,
  34:Drivers/lvgl/src/extra/widgets/msgbox/../../../../src/core/lv_disp.h ****     LV_SCR_LOAD_ANIM_MOVE_LEFT,
  35:Drivers/lvgl/src/extra/widgets/msgbox/../../../../src/core/lv_disp.h ****     LV_SCR_LOAD_ANIM_MOVE_RIGHT,
  36:Drivers/lvgl/src/extra/widgets/msgbox/../../../../src/core/lv_disp.h ****     LV_SCR_LOAD_ANIM_MOVE_TOP,
  37:Drivers/lvgl/src/extra/widgets/msgbox/../../../../src/core/lv_disp.h ****     LV_SCR_LOAD_ANIM_MOVE_BOTTOM,
  38:Drivers/lvgl/src/extra/widgets/msgbox/../../../../src/core/lv_disp.h ****     LV_SCR_LOAD_ANIM_FADE_IN,
  39:Drivers/lvgl/src/extra/widgets/msgbox/../../../../src/core/lv_disp.h ****     LV_SCR_LOAD_ANIM_FADE_ON = LV_SCR_LOAD_ANIM_FADE_IN, /*For backward compatibility*/
  40:Drivers/lvgl/src/extra/widgets/msgbox/../../../../src/core/lv_disp.h ****     LV_SCR_LOAD_ANIM_FADE_OUT,
  41:Drivers/lvgl/src/extra/widgets/msgbox/../../../../src/core/lv_disp.h ****     LV_SCR_LOAD_ANIM_OUT_LEFT,
ARM GAS  /var/folders/0z/tsy30v1j4xl4_7kw94k978ww0000gn/T//ccLT6Yh4.s 			page 8


  42:Drivers/lvgl/src/extra/widgets/msgbox/../../../../src/core/lv_disp.h ****     LV_SCR_LOAD_ANIM_OUT_RIGHT,
  43:Drivers/lvgl/src/extra/widgets/msgbox/../../../../src/core/lv_disp.h ****     LV_SCR_LOAD_ANIM_OUT_TOP,
  44:Drivers/lvgl/src/extra/widgets/msgbox/../../../../src/core/lv_disp.h ****     LV_SCR_LOAD_ANIM_OUT_BOTTOM,
  45:Drivers/lvgl/src/extra/widgets/msgbox/../../../../src/core/lv_disp.h **** } lv_scr_load_anim_t;
  46:Drivers/lvgl/src/extra/widgets/msgbox/../../../../src/core/lv_disp.h **** 
  47:Drivers/lvgl/src/extra/widgets/msgbox/../../../../src/core/lv_disp.h **** /**********************
  48:Drivers/lvgl/src/extra/widgets/msgbox/../../../../src/core/lv_disp.h ****  * GLOBAL PROTOTYPES
  49:Drivers/lvgl/src/extra/widgets/msgbox/../../../../src/core/lv_disp.h ****  **********************/
  50:Drivers/lvgl/src/extra/widgets/msgbox/../../../../src/core/lv_disp.h **** 
  51:Drivers/lvgl/src/extra/widgets/msgbox/../../../../src/core/lv_disp.h **** /**
  52:Drivers/lvgl/src/extra/widgets/msgbox/../../../../src/core/lv_disp.h ****  * Return with a pointer to the active screen
  53:Drivers/lvgl/src/extra/widgets/msgbox/../../../../src/core/lv_disp.h ****  * @param disp pointer to display which active screen should be get. (NULL to use the default
  54:Drivers/lvgl/src/extra/widgets/msgbox/../../../../src/core/lv_disp.h ****  * screen)
  55:Drivers/lvgl/src/extra/widgets/msgbox/../../../../src/core/lv_disp.h ****  * @return pointer to the active screen object (loaded by 'lv_scr_load()')
  56:Drivers/lvgl/src/extra/widgets/msgbox/../../../../src/core/lv_disp.h ****  */
  57:Drivers/lvgl/src/extra/widgets/msgbox/../../../../src/core/lv_disp.h **** lv_obj_t * lv_disp_get_scr_act(lv_disp_t * disp);
  58:Drivers/lvgl/src/extra/widgets/msgbox/../../../../src/core/lv_disp.h **** 
  59:Drivers/lvgl/src/extra/widgets/msgbox/../../../../src/core/lv_disp.h **** /**
  60:Drivers/lvgl/src/extra/widgets/msgbox/../../../../src/core/lv_disp.h ****  * Return with a pointer to the previous screen. Only used during screen transitions.
  61:Drivers/lvgl/src/extra/widgets/msgbox/../../../../src/core/lv_disp.h ****  * @param disp pointer to display which previous screen should be get. (NULL to use the default
  62:Drivers/lvgl/src/extra/widgets/msgbox/../../../../src/core/lv_disp.h ****  * screen)
  63:Drivers/lvgl/src/extra/widgets/msgbox/../../../../src/core/lv_disp.h ****  * @return pointer to the previous screen object or NULL if not used now
  64:Drivers/lvgl/src/extra/widgets/msgbox/../../../../src/core/lv_disp.h ****  */
  65:Drivers/lvgl/src/extra/widgets/msgbox/../../../../src/core/lv_disp.h **** lv_obj_t * lv_disp_get_scr_prev(lv_disp_t * disp);
  66:Drivers/lvgl/src/extra/widgets/msgbox/../../../../src/core/lv_disp.h **** 
  67:Drivers/lvgl/src/extra/widgets/msgbox/../../../../src/core/lv_disp.h **** /**
  68:Drivers/lvgl/src/extra/widgets/msgbox/../../../../src/core/lv_disp.h ****  * Make a screen active
  69:Drivers/lvgl/src/extra/widgets/msgbox/../../../../src/core/lv_disp.h ****  * @param scr pointer to a screen
  70:Drivers/lvgl/src/extra/widgets/msgbox/../../../../src/core/lv_disp.h ****  */
  71:Drivers/lvgl/src/extra/widgets/msgbox/../../../../src/core/lv_disp.h **** void lv_disp_load_scr(lv_obj_t * scr);
  72:Drivers/lvgl/src/extra/widgets/msgbox/../../../../src/core/lv_disp.h **** 
  73:Drivers/lvgl/src/extra/widgets/msgbox/../../../../src/core/lv_disp.h **** /**
  74:Drivers/lvgl/src/extra/widgets/msgbox/../../../../src/core/lv_disp.h ****  * Return with the top layer. (Same on every screen and it is above the normal screen layer)
  75:Drivers/lvgl/src/extra/widgets/msgbox/../../../../src/core/lv_disp.h ****  * @param disp pointer to display which top layer should be get. (NULL to use the default screen)
  76:Drivers/lvgl/src/extra/widgets/msgbox/../../../../src/core/lv_disp.h ****  * @return pointer to the top layer object (transparent screen sized lv_obj)
  77:Drivers/lvgl/src/extra/widgets/msgbox/../../../../src/core/lv_disp.h ****  */
  78:Drivers/lvgl/src/extra/widgets/msgbox/../../../../src/core/lv_disp.h **** lv_obj_t * lv_disp_get_layer_top(lv_disp_t * disp);
  79:Drivers/lvgl/src/extra/widgets/msgbox/../../../../src/core/lv_disp.h **** 
  80:Drivers/lvgl/src/extra/widgets/msgbox/../../../../src/core/lv_disp.h **** /**
  81:Drivers/lvgl/src/extra/widgets/msgbox/../../../../src/core/lv_disp.h ****  * Return with the sys. layer. (Same on every screen and it is above the normal screen and the top
  82:Drivers/lvgl/src/extra/widgets/msgbox/../../../../src/core/lv_disp.h ****  * layer)
  83:Drivers/lvgl/src/extra/widgets/msgbox/../../../../src/core/lv_disp.h ****  * @param disp pointer to display which sys. layer should be retrieved. (NULL to use the default sc
  84:Drivers/lvgl/src/extra/widgets/msgbox/../../../../src/core/lv_disp.h ****  * @return pointer to the sys layer object (transparent screen sized lv_obj)
  85:Drivers/lvgl/src/extra/widgets/msgbox/../../../../src/core/lv_disp.h ****  */
  86:Drivers/lvgl/src/extra/widgets/msgbox/../../../../src/core/lv_disp.h **** lv_obj_t * lv_disp_get_layer_sys(lv_disp_t * disp);
  87:Drivers/lvgl/src/extra/widgets/msgbox/../../../../src/core/lv_disp.h **** 
  88:Drivers/lvgl/src/extra/widgets/msgbox/../../../../src/core/lv_disp.h **** /**
  89:Drivers/lvgl/src/extra/widgets/msgbox/../../../../src/core/lv_disp.h ****  * Set the theme of a display
  90:Drivers/lvgl/src/extra/widgets/msgbox/../../../../src/core/lv_disp.h ****  * @param disp pointer to a display
  91:Drivers/lvgl/src/extra/widgets/msgbox/../../../../src/core/lv_disp.h ****  */
  92:Drivers/lvgl/src/extra/widgets/msgbox/../../../../src/core/lv_disp.h **** void lv_disp_set_theme(lv_disp_t * disp, lv_theme_t * th);
  93:Drivers/lvgl/src/extra/widgets/msgbox/../../../../src/core/lv_disp.h **** 
  94:Drivers/lvgl/src/extra/widgets/msgbox/../../../../src/core/lv_disp.h **** /**
  95:Drivers/lvgl/src/extra/widgets/msgbox/../../../../src/core/lv_disp.h ****  * Get the theme of a display
  96:Drivers/lvgl/src/extra/widgets/msgbox/../../../../src/core/lv_disp.h ****  * @param disp pointer to a display
  97:Drivers/lvgl/src/extra/widgets/msgbox/../../../../src/core/lv_disp.h ****  * @return the display's theme (can be NULL)
  98:Drivers/lvgl/src/extra/widgets/msgbox/../../../../src/core/lv_disp.h ****  */
ARM GAS  /var/folders/0z/tsy30v1j4xl4_7kw94k978ww0000gn/T//ccLT6Yh4.s 			page 9


  99:Drivers/lvgl/src/extra/widgets/msgbox/../../../../src/core/lv_disp.h **** lv_theme_t * lv_disp_get_theme(lv_disp_t * disp);
 100:Drivers/lvgl/src/extra/widgets/msgbox/../../../../src/core/lv_disp.h **** 
 101:Drivers/lvgl/src/extra/widgets/msgbox/../../../../src/core/lv_disp.h **** /**
 102:Drivers/lvgl/src/extra/widgets/msgbox/../../../../src/core/lv_disp.h ****  * Set the background color of a display
 103:Drivers/lvgl/src/extra/widgets/msgbox/../../../../src/core/lv_disp.h ****  * @param disp pointer to a display
 104:Drivers/lvgl/src/extra/widgets/msgbox/../../../../src/core/lv_disp.h ****  * @param color color of the background
 105:Drivers/lvgl/src/extra/widgets/msgbox/../../../../src/core/lv_disp.h ****  */
 106:Drivers/lvgl/src/extra/widgets/msgbox/../../../../src/core/lv_disp.h **** void lv_disp_set_bg_color(lv_disp_t * disp, lv_color_t color);
 107:Drivers/lvgl/src/extra/widgets/msgbox/../../../../src/core/lv_disp.h **** 
 108:Drivers/lvgl/src/extra/widgets/msgbox/../../../../src/core/lv_disp.h **** /**
 109:Drivers/lvgl/src/extra/widgets/msgbox/../../../../src/core/lv_disp.h ****  * Set the background image of a display
 110:Drivers/lvgl/src/extra/widgets/msgbox/../../../../src/core/lv_disp.h ****  * @param disp pointer to a display
 111:Drivers/lvgl/src/extra/widgets/msgbox/../../../../src/core/lv_disp.h ****  * @param img_src path to file or pointer to an `lv_img_dsc_t` variable
 112:Drivers/lvgl/src/extra/widgets/msgbox/../../../../src/core/lv_disp.h ****  */
 113:Drivers/lvgl/src/extra/widgets/msgbox/../../../../src/core/lv_disp.h **** void lv_disp_set_bg_image(lv_disp_t * disp, const void  * img_src);
 114:Drivers/lvgl/src/extra/widgets/msgbox/../../../../src/core/lv_disp.h **** 
 115:Drivers/lvgl/src/extra/widgets/msgbox/../../../../src/core/lv_disp.h **** /**
 116:Drivers/lvgl/src/extra/widgets/msgbox/../../../../src/core/lv_disp.h ****  * Set opacity of the background
 117:Drivers/lvgl/src/extra/widgets/msgbox/../../../../src/core/lv_disp.h ****  * @param disp pointer to a display
 118:Drivers/lvgl/src/extra/widgets/msgbox/../../../../src/core/lv_disp.h ****  * @param opa opacity (0..255)
 119:Drivers/lvgl/src/extra/widgets/msgbox/../../../../src/core/lv_disp.h ****  */
 120:Drivers/lvgl/src/extra/widgets/msgbox/../../../../src/core/lv_disp.h **** void lv_disp_set_bg_opa(lv_disp_t * disp, lv_opa_t opa);
 121:Drivers/lvgl/src/extra/widgets/msgbox/../../../../src/core/lv_disp.h **** 
 122:Drivers/lvgl/src/extra/widgets/msgbox/../../../../src/core/lv_disp.h **** /**
 123:Drivers/lvgl/src/extra/widgets/msgbox/../../../../src/core/lv_disp.h ****  * Switch screen with animation
 124:Drivers/lvgl/src/extra/widgets/msgbox/../../../../src/core/lv_disp.h ****  * @param scr pointer to the new screen to load
 125:Drivers/lvgl/src/extra/widgets/msgbox/../../../../src/core/lv_disp.h ****  * @param anim_type type of the animation from `lv_scr_load_anim_t`, e.g. `LV_SCR_LOAD_ANIM_MOVE_LE
 126:Drivers/lvgl/src/extra/widgets/msgbox/../../../../src/core/lv_disp.h ****  * @param time time of the animation
 127:Drivers/lvgl/src/extra/widgets/msgbox/../../../../src/core/lv_disp.h ****  * @param delay delay before the transition
 128:Drivers/lvgl/src/extra/widgets/msgbox/../../../../src/core/lv_disp.h ****  * @param auto_del true: automatically delete the old screen
 129:Drivers/lvgl/src/extra/widgets/msgbox/../../../../src/core/lv_disp.h ****  */
 130:Drivers/lvgl/src/extra/widgets/msgbox/../../../../src/core/lv_disp.h **** void lv_scr_load_anim(lv_obj_t * scr, lv_scr_load_anim_t anim_type, uint32_t time, uint32_t delay, 
 131:Drivers/lvgl/src/extra/widgets/msgbox/../../../../src/core/lv_disp.h **** 
 132:Drivers/lvgl/src/extra/widgets/msgbox/../../../../src/core/lv_disp.h **** /**
 133:Drivers/lvgl/src/extra/widgets/msgbox/../../../../src/core/lv_disp.h ****  * Get elapsed time since last user activity on a display (e.g. click)
 134:Drivers/lvgl/src/extra/widgets/msgbox/../../../../src/core/lv_disp.h ****  * @param disp pointer to a display (NULL to get the overall smallest inactivity)
 135:Drivers/lvgl/src/extra/widgets/msgbox/../../../../src/core/lv_disp.h ****  * @return elapsed ticks (milliseconds) since the last activity
 136:Drivers/lvgl/src/extra/widgets/msgbox/../../../../src/core/lv_disp.h ****  */
 137:Drivers/lvgl/src/extra/widgets/msgbox/../../../../src/core/lv_disp.h **** uint32_t lv_disp_get_inactive_time(const lv_disp_t * disp);
 138:Drivers/lvgl/src/extra/widgets/msgbox/../../../../src/core/lv_disp.h **** 
 139:Drivers/lvgl/src/extra/widgets/msgbox/../../../../src/core/lv_disp.h **** /**
 140:Drivers/lvgl/src/extra/widgets/msgbox/../../../../src/core/lv_disp.h ****  * Manually trigger an activity on a display
 141:Drivers/lvgl/src/extra/widgets/msgbox/../../../../src/core/lv_disp.h ****  * @param disp pointer to a display (NULL to use the default display)
 142:Drivers/lvgl/src/extra/widgets/msgbox/../../../../src/core/lv_disp.h ****  */
 143:Drivers/lvgl/src/extra/widgets/msgbox/../../../../src/core/lv_disp.h **** void lv_disp_trig_activity(lv_disp_t * disp);
 144:Drivers/lvgl/src/extra/widgets/msgbox/../../../../src/core/lv_disp.h **** 
 145:Drivers/lvgl/src/extra/widgets/msgbox/../../../../src/core/lv_disp.h **** /**
 146:Drivers/lvgl/src/extra/widgets/msgbox/../../../../src/core/lv_disp.h ****  * Clean any CPU cache that is related to the display.
 147:Drivers/lvgl/src/extra/widgets/msgbox/../../../../src/core/lv_disp.h ****  * @param disp pointer to a display (NULL to use the default display)
 148:Drivers/lvgl/src/extra/widgets/msgbox/../../../../src/core/lv_disp.h ****  */
 149:Drivers/lvgl/src/extra/widgets/msgbox/../../../../src/core/lv_disp.h **** void lv_disp_clean_dcache(lv_disp_t * disp);
 150:Drivers/lvgl/src/extra/widgets/msgbox/../../../../src/core/lv_disp.h **** 
 151:Drivers/lvgl/src/extra/widgets/msgbox/../../../../src/core/lv_disp.h **** /**
 152:Drivers/lvgl/src/extra/widgets/msgbox/../../../../src/core/lv_disp.h ****  * Temporarily enable and disable the invalidation of the display.
 153:Drivers/lvgl/src/extra/widgets/msgbox/../../../../src/core/lv_disp.h ****  * @param disp pointer to a display (NULL to use the default display)
 154:Drivers/lvgl/src/extra/widgets/msgbox/../../../../src/core/lv_disp.h ****  * @param en true: enable invalidation; false: invalidation
 155:Drivers/lvgl/src/extra/widgets/msgbox/../../../../src/core/lv_disp.h ****  */
ARM GAS  /var/folders/0z/tsy30v1j4xl4_7kw94k978ww0000gn/T//ccLT6Yh4.s 			page 10


 156:Drivers/lvgl/src/extra/widgets/msgbox/../../../../src/core/lv_disp.h **** void lv_disp_enable_invalidation(lv_disp_t * disp, bool en);
 157:Drivers/lvgl/src/extra/widgets/msgbox/../../../../src/core/lv_disp.h **** 
 158:Drivers/lvgl/src/extra/widgets/msgbox/../../../../src/core/lv_disp.h **** /**
 159:Drivers/lvgl/src/extra/widgets/msgbox/../../../../src/core/lv_disp.h ****  * Get display invalidation is enabled.
 160:Drivers/lvgl/src/extra/widgets/msgbox/../../../../src/core/lv_disp.h ****  * @param disp pointer to a display (NULL to use the default display)
 161:Drivers/lvgl/src/extra/widgets/msgbox/../../../../src/core/lv_disp.h ****  * @return return true if invalidation is enabled
 162:Drivers/lvgl/src/extra/widgets/msgbox/../../../../src/core/lv_disp.h ****  */
 163:Drivers/lvgl/src/extra/widgets/msgbox/../../../../src/core/lv_disp.h **** bool lv_disp_is_invalidation_enabled(lv_disp_t * disp);
 164:Drivers/lvgl/src/extra/widgets/msgbox/../../../../src/core/lv_disp.h **** 
 165:Drivers/lvgl/src/extra/widgets/msgbox/../../../../src/core/lv_disp.h **** /**
 166:Drivers/lvgl/src/extra/widgets/msgbox/../../../../src/core/lv_disp.h ****  * Get a pointer to the screen refresher timer to
 167:Drivers/lvgl/src/extra/widgets/msgbox/../../../../src/core/lv_disp.h ****  * modify its parameters with `lv_timer_...` functions.
 168:Drivers/lvgl/src/extra/widgets/msgbox/../../../../src/core/lv_disp.h ****  * @param disp pointer to a display
 169:Drivers/lvgl/src/extra/widgets/msgbox/../../../../src/core/lv_disp.h ****  * @return pointer to the display refresher timer. (NULL on error)
 170:Drivers/lvgl/src/extra/widgets/msgbox/../../../../src/core/lv_disp.h ****  */
 171:Drivers/lvgl/src/extra/widgets/msgbox/../../../../src/core/lv_disp.h **** lv_timer_t * _lv_disp_get_refr_timer(lv_disp_t * disp);
 172:Drivers/lvgl/src/extra/widgets/msgbox/../../../../src/core/lv_disp.h **** 
 173:Drivers/lvgl/src/extra/widgets/msgbox/../../../../src/core/lv_disp.h **** /*------------------------------------------------
 174:Drivers/lvgl/src/extra/widgets/msgbox/../../../../src/core/lv_disp.h ****  * To improve backward compatibility
 175:Drivers/lvgl/src/extra/widgets/msgbox/../../../../src/core/lv_disp.h ****  * Recommended only if you have one display
 176:Drivers/lvgl/src/extra/widgets/msgbox/../../../../src/core/lv_disp.h ****  *------------------------------------------------*/
 177:Drivers/lvgl/src/extra/widgets/msgbox/../../../../src/core/lv_disp.h **** 
 178:Drivers/lvgl/src/extra/widgets/msgbox/../../../../src/core/lv_disp.h **** /**
 179:Drivers/lvgl/src/extra/widgets/msgbox/../../../../src/core/lv_disp.h ****  * Get the active screen of the default display
 180:Drivers/lvgl/src/extra/widgets/msgbox/../../../../src/core/lv_disp.h ****  * @return pointer to the active screen
 181:Drivers/lvgl/src/extra/widgets/msgbox/../../../../src/core/lv_disp.h ****  */
 182:Drivers/lvgl/src/extra/widgets/msgbox/../../../../src/core/lv_disp.h **** static inline lv_obj_t * lv_scr_act(void)
 183:Drivers/lvgl/src/extra/widgets/msgbox/../../../../src/core/lv_disp.h **** {
 184:Drivers/lvgl/src/extra/widgets/msgbox/../../../../src/core/lv_disp.h ****     return lv_disp_get_scr_act(lv_disp_get_default());
 185:Drivers/lvgl/src/extra/widgets/msgbox/../../../../src/core/lv_disp.h **** }
 186:Drivers/lvgl/src/extra/widgets/msgbox/../../../../src/core/lv_disp.h **** 
 187:Drivers/lvgl/src/extra/widgets/msgbox/../../../../src/core/lv_disp.h **** /**
 188:Drivers/lvgl/src/extra/widgets/msgbox/../../../../src/core/lv_disp.h ****  * Get the top layer  of the default display
 189:Drivers/lvgl/src/extra/widgets/msgbox/../../../../src/core/lv_disp.h ****  * @return pointer to the top layer
 190:Drivers/lvgl/src/extra/widgets/msgbox/../../../../src/core/lv_disp.h ****  */
 191:Drivers/lvgl/src/extra/widgets/msgbox/../../../../src/core/lv_disp.h **** static inline lv_obj_t * lv_layer_top(void)
 229              		.loc 2 191 26 view .LVU70
 230              	.LBB34:
 192:Drivers/lvgl/src/extra/widgets/msgbox/../../../../src/core/lv_disp.h **** {
 193:Drivers/lvgl/src/extra/widgets/msgbox/../../../../src/core/lv_disp.h ****     return lv_disp_get_layer_top(lv_disp_get_default());
 231              		.loc 2 193 5 view .LVU71
 232              		.loc 2 193 12 is_stmt 0 view .LVU72
 233 00ce FFF7FEFF 		bl	lv_disp_get_default
 234              	.LVL21:
 235              		.loc 2 193 12 view .LVU73
 236 00d2 FFF7FEFF 		bl	lv_disp_get_layer_top
 237              	.LVL22:
 238 00d6 0146     		mov	r1, r0
 239              	.LBE34:
 240              	.LBE33:
  68:Drivers/lvgl/src/extra/widgets/msgbox/lv_msgbox.c ****         LV_ASSERT_MALLOC(parent);
 241              		.loc 1 68 18 view .LVU74
 242 00d8 6348     		ldr	r0, .L39+12
 243 00da FFF7FEFF 		bl	lv_obj_class_create_obj
 244              	.LVL23:
  69:Drivers/lvgl/src/extra/widgets/msgbox/lv_msgbox.c ****         lv_obj_class_init_obj(parent);
 245              		.loc 1 69 9 is_stmt 1 view .LVU75
ARM GAS  /var/folders/0z/tsy30v1j4xl4_7kw94k978ww0000gn/T//ccLT6Yh4.s 			page 11


  69:Drivers/lvgl/src/extra/widgets/msgbox/lv_msgbox.c ****         lv_obj_class_init_obj(parent);
 246              		.loc 1 69 9 view .LVU76
 247 00de 0446     		mov	r4, r0
 248 00e0 78B1     		cbz	r0, .L4
  69:Drivers/lvgl/src/extra/widgets/msgbox/lv_msgbox.c ****         lv_obj_class_init_obj(parent);
 249              		.loc 1 69 9 discriminator 2 view .LVU77
  69:Drivers/lvgl/src/extra/widgets/msgbox/lv_msgbox.c ****         lv_obj_class_init_obj(parent);
 250              		.loc 1 69 33 discriminator 2 view .LVU78
  70:Drivers/lvgl/src/extra/widgets/msgbox/lv_msgbox.c ****         lv_obj_clear_flag(parent, LV_OBJ_FLAG_IGNORE_LAYOUT);
 251              		.loc 1 70 9 discriminator 2 view .LVU79
 252 00e2 FFF7FEFF 		bl	lv_obj_class_init_obj
 253              	.LVL24:
  71:Drivers/lvgl/src/extra/widgets/msgbox/lv_msgbox.c ****         lv_obj_set_size(parent, LV_PCT(100), LV_PCT(100));
 254              		.loc 1 71 9 discriminator 2 view .LVU80
 255 00e6 4FF40031 		mov	r1, #131072
 256 00ea 2046     		mov	r0, r4
 257 00ec FFF7FEFF 		bl	lv_obj_clear_flag
 258              	.LVL25:
  72:Drivers/lvgl/src/extra/widgets/msgbox/lv_msgbox.c ****     }
 259              		.loc 1 72 9 discriminator 2 view .LVU81
 260 00f0 42F26402 		movw	r2, #8292
 261 00f4 1146     		mov	r1, r2
 262 00f6 2046     		mov	r0, r4
 263 00f8 FFF7FEFF 		bl	lv_obj_set_size
 264              	.LVL26:
  67:Drivers/lvgl/src/extra/widgets/msgbox/lv_msgbox.c ****         parent = lv_obj_class_create_obj(&lv_msgbox_backdrop_class, lv_layer_top());
 265              		.loc 1 67 21 is_stmt 0 discriminator 2 view .LVU82
 266 00fc 4FF00109 		mov	r9, #1
 267 0100 8AE7     		b	.L2
 268              	.LVL27:
 269              	.L4:
  69:Drivers/lvgl/src/extra/widgets/msgbox/lv_msgbox.c ****         lv_obj_class_init_obj(parent);
 270              		.loc 1 69 9 is_stmt 1 discriminator 1 view .LVU83
  69:Drivers/lvgl/src/extra/widgets/msgbox/lv_msgbox.c ****         lv_obj_class_init_obj(parent);
 271              		.loc 1 69 9 discriminator 1 view .LVU84
  69:Drivers/lvgl/src/extra/widgets/msgbox/lv_msgbox.c ****         lv_obj_class_init_obj(parent);
 272              		.loc 1 69 9 discriminator 1 view .LVU85
  69:Drivers/lvgl/src/extra/widgets/msgbox/lv_msgbox.c ****         lv_obj_class_init_obj(parent);
 273              		.loc 1 69 9 discriminator 1 view .LVU86
  69:Drivers/lvgl/src/extra/widgets/msgbox/lv_msgbox.c ****         lv_obj_class_init_obj(parent);
 274              		.loc 1 69 9 discriminator 1 view .LVU87
 275 0102 FEE7     		b	.L4
 276              	.LVL28:
 277              	.L6:
  76:Drivers/lvgl/src/extra/widgets/msgbox/lv_msgbox.c ****     if(obj == NULL) return NULL;
 278              		.loc 1 76 5 discriminator 2 view .LVU88
  76:Drivers/lvgl/src/extra/widgets/msgbox/lv_msgbox.c ****     if(obj == NULL) return NULL;
 279              		.loc 1 76 5 discriminator 2 view .LVU89
  76:Drivers/lvgl/src/extra/widgets/msgbox/lv_msgbox.c ****     if(obj == NULL) return NULL;
 280              		.loc 1 76 5 discriminator 2 view .LVU90
  76:Drivers/lvgl/src/extra/widgets/msgbox/lv_msgbox.c ****     if(obj == NULL) return NULL;
 281              		.loc 1 76 5 discriminator 2 view .LVU91
  76:Drivers/lvgl/src/extra/widgets/msgbox/lv_msgbox.c ****     if(obj == NULL) return NULL;
 282              		.loc 1 76 5 discriminator 2 view .LVU92
 283 0104 FEE7     		b	.L6
 284              	.LVL29:
 285              	.L34:
ARM GAS  /var/folders/0z/tsy30v1j4xl4_7kw94k978ww0000gn/T//ccLT6Yh4.s 			page 12


  81:Drivers/lvgl/src/extra/widgets/msgbox/lv_msgbox.c **** 
 286              		.loc 1 81 21 discriminator 1 view .LVU93
 287 0106 4FF00071 		mov	r1, #33554432
 288 010a 2046     		mov	r0, r4
 289 010c FFF7FEFF 		bl	lv_obj_add_flag
 290              	.LVL30:
 291 0110 8EE7     		b	.L7
 292              	.L25:
  85:Drivers/lvgl/src/extra/widgets/msgbox/lv_msgbox.c **** 
 293              		.loc 1 85 28 is_stmt 0 view .LVU94
 294 0112 4FF00009 		mov	r9, #0
 295              	.LVL31:
  85:Drivers/lvgl/src/extra/widgets/msgbox/lv_msgbox.c **** 
 296              		.loc 1 85 28 view .LVU95
 297 0116 96E7     		b	.L8
 298              	.LVL32:
 299              	.L26:
  85:Drivers/lvgl/src/extra/widgets/msgbox/lv_msgbox.c **** 
 300              		.loc 1 85 28 view .LVU96
 301 0118 4FF00109 		mov	r9, #1
 302              	.LVL33:
  85:Drivers/lvgl/src/extra/widgets/msgbox/lv_msgbox.c **** 
 303              		.loc 1 85 28 view .LVU97
 304 011c 93E7     		b	.L8
 305              	.LVL34:
 306              	.L12:
  93:Drivers/lvgl/src/extra/widgets/msgbox/lv_msgbox.c ****     }
 307              		.loc 1 93 14 is_stmt 1 view .LVU98
 308 011e 42F26401 		movw	r1, #8292
 309 0122 606A     		ldr	r0, [r4, #36]
 310 0124 FFF7FEFF 		bl	lv_obj_set_width
 311              	.LVL35:
 312 0128 A9E7     		b	.L10
 313              	.L35:
 314              	.LBB35:
  97:Drivers/lvgl/src/extra/widgets/msgbox/lv_msgbox.c ****         lv_obj_set_ext_click_area(mbox->close_btn, LV_DPX(10));
 315              		.loc 1 97 9 view .LVU99
  97:Drivers/lvgl/src/extra/widgets/msgbox/lv_msgbox.c ****         lv_obj_set_ext_click_area(mbox->close_btn, LV_DPX(10));
 316              		.loc 1 97 27 is_stmt 0 view .LVU100
 317 012a 2046     		mov	r0, r4
 318 012c FFF7FEFF 		bl	lv_btn_create
 319              	.LVL36:
 320 0130 0646     		mov	r6, r0
  97:Drivers/lvgl/src/extra/widgets/msgbox/lv_msgbox.c ****         lv_obj_set_ext_click_area(mbox->close_btn, LV_DPX(10));
 321              		.loc 1 97 25 view .LVU101
 322 0132 A062     		str	r0, [r4, #40]
  98:Drivers/lvgl/src/extra/widgets/msgbox/lv_msgbox.c ****         lv_obj_add_event_cb(mbox->close_btn, msgbox_close_click_event_cb, LV_EVENT_CLICKED, NULL);
 323              		.loc 1 98 9 is_stmt 1 view .LVU102
  98:Drivers/lvgl/src/extra/widgets/msgbox/lv_msgbox.c ****         lv_obj_add_event_cb(mbox->close_btn, msgbox_close_click_event_cb, LV_EVENT_CLICKED, NULL);
 324              		.loc 1 98 52 is_stmt 0 view .LVU103
 325 0134 0020     		movs	r0, #0
 326 0136 FFF7FEFF 		bl	lv_disp_get_dpi
 327              	.LVL37:
 328 013a 00EB8000 		add	r0, r0, r0, lsl #2
 329 013e 4300     		lsls	r3, r0, #1
  98:Drivers/lvgl/src/extra/widgets/msgbox/lv_msgbox.c ****         lv_obj_add_event_cb(mbox->close_btn, msgbox_close_click_event_cb, LV_EVENT_CLICKED, NULL);
 330              		.loc 1 98 9 view .LVU104
ARM GAS  /var/folders/0z/tsy30v1j4xl4_7kw94k978ww0000gn/T//ccLT6Yh4.s 			page 13


 331 0140 EF2B     		cmp	r3, #239
 332 0142 2EDC     		bgt	.L37
 333 0144 0121     		movs	r1, #1
 334              	.L14:
  98:Drivers/lvgl/src/extra/widgets/msgbox/lv_msgbox.c ****         lv_obj_add_event_cb(mbox->close_btn, msgbox_close_click_event_cb, LV_EVENT_CLICKED, NULL);
 335              		.loc 1 98 9 discriminator 4 view .LVU105
 336 0146 3046     		mov	r0, r6
 337 0148 FFF7FEFF 		bl	lv_obj_set_ext_click_area
 338              	.LVL38:
  99:Drivers/lvgl/src/extra/widgets/msgbox/lv_msgbox.c ****         lv_obj_t * label = lv_label_create(mbox->close_btn);
 339              		.loc 1 99 9 is_stmt 1 discriminator 4 view .LVU106
 340 014c 0023     		movs	r3, #0
 341 014e 0722     		movs	r2, #7
 342 0150 4649     		ldr	r1, .L39+16
 343 0152 A06A     		ldr	r0, [r4, #40]
 344 0154 FFF7FEFF 		bl	lv_obj_add_event_cb
 345              	.LVL39:
 100:Drivers/lvgl/src/extra/widgets/msgbox/lv_msgbox.c ****         lv_label_set_text(label, LV_SYMBOL_CLOSE);
 346              		.loc 1 100 9 discriminator 4 view .LVU107
 100:Drivers/lvgl/src/extra/widgets/msgbox/lv_msgbox.c ****         lv_label_set_text(label, LV_SYMBOL_CLOSE);
 347              		.loc 1 100 28 is_stmt 0 discriminator 4 view .LVU108
 348 0158 A06A     		ldr	r0, [r4, #40]
 349 015a FFF7FEFF 		bl	lv_label_create
 350              	.LVL40:
 351 015e 8046     		mov	r8, r0
 352              	.LVL41:
 101:Drivers/lvgl/src/extra/widgets/msgbox/lv_msgbox.c ****         const lv_font_t * font = lv_obj_get_style_text_font(mbox->close_btn, LV_PART_MAIN);
 353              		.loc 1 101 9 is_stmt 1 discriminator 4 view .LVU109
 354 0160 4349     		ldr	r1, .L39+20
 355 0162 FFF7FEFF 		bl	lv_label_set_text
 356              	.LVL42:
 102:Drivers/lvgl/src/extra/widgets/msgbox/lv_msgbox.c ****         lv_coord_t close_btn_size = lv_font_get_line_height(font) + LV_DPX(10);
 357              		.loc 1 102 9 discriminator 4 view .LVU110
 358              	.LBB36:
 359              	.LBI36:
 360              		.file 3 "Drivers/lvgl/src/extra/widgets/msgbox/../../../../src/core/lv_obj_style_gen.h"
   1:Drivers/lvgl/src/extra/widgets/msgbox/../../../../src/core/lv_obj_style_gen.h **** static inline lv_coord_t lv_obj_get_style_width(const struct _lv_obj_t * obj, uint32_t part)
   2:Drivers/lvgl/src/extra/widgets/msgbox/../../../../src/core/lv_obj_style_gen.h **** {
   3:Drivers/lvgl/src/extra/widgets/msgbox/../../../../src/core/lv_obj_style_gen.h ****     lv_style_value_t v = lv_obj_get_style_prop(obj, part, LV_STYLE_WIDTH);
   4:Drivers/lvgl/src/extra/widgets/msgbox/../../../../src/core/lv_obj_style_gen.h ****     return (lv_coord_t)v.num;
   5:Drivers/lvgl/src/extra/widgets/msgbox/../../../../src/core/lv_obj_style_gen.h **** }
   6:Drivers/lvgl/src/extra/widgets/msgbox/../../../../src/core/lv_obj_style_gen.h **** 
   7:Drivers/lvgl/src/extra/widgets/msgbox/../../../../src/core/lv_obj_style_gen.h **** static inline lv_coord_t lv_obj_get_style_min_width(const struct _lv_obj_t * obj, uint32_t part)
   8:Drivers/lvgl/src/extra/widgets/msgbox/../../../../src/core/lv_obj_style_gen.h **** {
   9:Drivers/lvgl/src/extra/widgets/msgbox/../../../../src/core/lv_obj_style_gen.h ****     lv_style_value_t v = lv_obj_get_style_prop(obj, part, LV_STYLE_MIN_WIDTH);
  10:Drivers/lvgl/src/extra/widgets/msgbox/../../../../src/core/lv_obj_style_gen.h ****     return (lv_coord_t)v.num;
  11:Drivers/lvgl/src/extra/widgets/msgbox/../../../../src/core/lv_obj_style_gen.h **** }
  12:Drivers/lvgl/src/extra/widgets/msgbox/../../../../src/core/lv_obj_style_gen.h **** 
  13:Drivers/lvgl/src/extra/widgets/msgbox/../../../../src/core/lv_obj_style_gen.h **** static inline lv_coord_t lv_obj_get_style_max_width(const struct _lv_obj_t * obj, uint32_t part)
  14:Drivers/lvgl/src/extra/widgets/msgbox/../../../../src/core/lv_obj_style_gen.h **** {
  15:Drivers/lvgl/src/extra/widgets/msgbox/../../../../src/core/lv_obj_style_gen.h ****     lv_style_value_t v = lv_obj_get_style_prop(obj, part, LV_STYLE_MAX_WIDTH);
  16:Drivers/lvgl/src/extra/widgets/msgbox/../../../../src/core/lv_obj_style_gen.h ****     return (lv_coord_t)v.num;
  17:Drivers/lvgl/src/extra/widgets/msgbox/../../../../src/core/lv_obj_style_gen.h **** }
  18:Drivers/lvgl/src/extra/widgets/msgbox/../../../../src/core/lv_obj_style_gen.h **** 
  19:Drivers/lvgl/src/extra/widgets/msgbox/../../../../src/core/lv_obj_style_gen.h **** static inline lv_coord_t lv_obj_get_style_height(const struct _lv_obj_t * obj, uint32_t part)
  20:Drivers/lvgl/src/extra/widgets/msgbox/../../../../src/core/lv_obj_style_gen.h **** {
  21:Drivers/lvgl/src/extra/widgets/msgbox/../../../../src/core/lv_obj_style_gen.h ****     lv_style_value_t v = lv_obj_get_style_prop(obj, part, LV_STYLE_HEIGHT);
ARM GAS  /var/folders/0z/tsy30v1j4xl4_7kw94k978ww0000gn/T//ccLT6Yh4.s 			page 14


  22:Drivers/lvgl/src/extra/widgets/msgbox/../../../../src/core/lv_obj_style_gen.h ****     return (lv_coord_t)v.num;
  23:Drivers/lvgl/src/extra/widgets/msgbox/../../../../src/core/lv_obj_style_gen.h **** }
  24:Drivers/lvgl/src/extra/widgets/msgbox/../../../../src/core/lv_obj_style_gen.h **** 
  25:Drivers/lvgl/src/extra/widgets/msgbox/../../../../src/core/lv_obj_style_gen.h **** static inline lv_coord_t lv_obj_get_style_min_height(const struct _lv_obj_t * obj, uint32_t part)
  26:Drivers/lvgl/src/extra/widgets/msgbox/../../../../src/core/lv_obj_style_gen.h **** {
  27:Drivers/lvgl/src/extra/widgets/msgbox/../../../../src/core/lv_obj_style_gen.h ****     lv_style_value_t v = lv_obj_get_style_prop(obj, part, LV_STYLE_MIN_HEIGHT);
  28:Drivers/lvgl/src/extra/widgets/msgbox/../../../../src/core/lv_obj_style_gen.h ****     return (lv_coord_t)v.num;
  29:Drivers/lvgl/src/extra/widgets/msgbox/../../../../src/core/lv_obj_style_gen.h **** }
  30:Drivers/lvgl/src/extra/widgets/msgbox/../../../../src/core/lv_obj_style_gen.h **** 
  31:Drivers/lvgl/src/extra/widgets/msgbox/../../../../src/core/lv_obj_style_gen.h **** static inline lv_coord_t lv_obj_get_style_max_height(const struct _lv_obj_t * obj, uint32_t part)
  32:Drivers/lvgl/src/extra/widgets/msgbox/../../../../src/core/lv_obj_style_gen.h **** {
  33:Drivers/lvgl/src/extra/widgets/msgbox/../../../../src/core/lv_obj_style_gen.h ****     lv_style_value_t v = lv_obj_get_style_prop(obj, part, LV_STYLE_MAX_HEIGHT);
  34:Drivers/lvgl/src/extra/widgets/msgbox/../../../../src/core/lv_obj_style_gen.h ****     return (lv_coord_t)v.num;
  35:Drivers/lvgl/src/extra/widgets/msgbox/../../../../src/core/lv_obj_style_gen.h **** }
  36:Drivers/lvgl/src/extra/widgets/msgbox/../../../../src/core/lv_obj_style_gen.h **** 
  37:Drivers/lvgl/src/extra/widgets/msgbox/../../../../src/core/lv_obj_style_gen.h **** static inline lv_coord_t lv_obj_get_style_x(const struct _lv_obj_t * obj, uint32_t part)
  38:Drivers/lvgl/src/extra/widgets/msgbox/../../../../src/core/lv_obj_style_gen.h **** {
  39:Drivers/lvgl/src/extra/widgets/msgbox/../../../../src/core/lv_obj_style_gen.h ****     lv_style_value_t v = lv_obj_get_style_prop(obj, part, LV_STYLE_X);
  40:Drivers/lvgl/src/extra/widgets/msgbox/../../../../src/core/lv_obj_style_gen.h ****     return (lv_coord_t)v.num;
  41:Drivers/lvgl/src/extra/widgets/msgbox/../../../../src/core/lv_obj_style_gen.h **** }
  42:Drivers/lvgl/src/extra/widgets/msgbox/../../../../src/core/lv_obj_style_gen.h **** 
  43:Drivers/lvgl/src/extra/widgets/msgbox/../../../../src/core/lv_obj_style_gen.h **** static inline lv_coord_t lv_obj_get_style_y(const struct _lv_obj_t * obj, uint32_t part)
  44:Drivers/lvgl/src/extra/widgets/msgbox/../../../../src/core/lv_obj_style_gen.h **** {
  45:Drivers/lvgl/src/extra/widgets/msgbox/../../../../src/core/lv_obj_style_gen.h ****     lv_style_value_t v = lv_obj_get_style_prop(obj, part, LV_STYLE_Y);
  46:Drivers/lvgl/src/extra/widgets/msgbox/../../../../src/core/lv_obj_style_gen.h ****     return (lv_coord_t)v.num;
  47:Drivers/lvgl/src/extra/widgets/msgbox/../../../../src/core/lv_obj_style_gen.h **** }
  48:Drivers/lvgl/src/extra/widgets/msgbox/../../../../src/core/lv_obj_style_gen.h **** 
  49:Drivers/lvgl/src/extra/widgets/msgbox/../../../../src/core/lv_obj_style_gen.h **** static inline lv_align_t lv_obj_get_style_align(const struct _lv_obj_t * obj, uint32_t part)
  50:Drivers/lvgl/src/extra/widgets/msgbox/../../../../src/core/lv_obj_style_gen.h **** {
  51:Drivers/lvgl/src/extra/widgets/msgbox/../../../../src/core/lv_obj_style_gen.h ****     lv_style_value_t v = lv_obj_get_style_prop(obj, part, LV_STYLE_ALIGN);
  52:Drivers/lvgl/src/extra/widgets/msgbox/../../../../src/core/lv_obj_style_gen.h ****     return (lv_align_t)v.num;
  53:Drivers/lvgl/src/extra/widgets/msgbox/../../../../src/core/lv_obj_style_gen.h **** }
  54:Drivers/lvgl/src/extra/widgets/msgbox/../../../../src/core/lv_obj_style_gen.h **** 
  55:Drivers/lvgl/src/extra/widgets/msgbox/../../../../src/core/lv_obj_style_gen.h **** static inline lv_coord_t lv_obj_get_style_transform_width(const struct _lv_obj_t * obj, uint32_t pa
  56:Drivers/lvgl/src/extra/widgets/msgbox/../../../../src/core/lv_obj_style_gen.h **** {
  57:Drivers/lvgl/src/extra/widgets/msgbox/../../../../src/core/lv_obj_style_gen.h ****     lv_style_value_t v = lv_obj_get_style_prop(obj, part, LV_STYLE_TRANSFORM_WIDTH);
  58:Drivers/lvgl/src/extra/widgets/msgbox/../../../../src/core/lv_obj_style_gen.h ****     return (lv_coord_t)v.num;
  59:Drivers/lvgl/src/extra/widgets/msgbox/../../../../src/core/lv_obj_style_gen.h **** }
  60:Drivers/lvgl/src/extra/widgets/msgbox/../../../../src/core/lv_obj_style_gen.h **** 
  61:Drivers/lvgl/src/extra/widgets/msgbox/../../../../src/core/lv_obj_style_gen.h **** static inline lv_coord_t lv_obj_get_style_transform_height(const struct _lv_obj_t * obj, uint32_t p
  62:Drivers/lvgl/src/extra/widgets/msgbox/../../../../src/core/lv_obj_style_gen.h **** {
  63:Drivers/lvgl/src/extra/widgets/msgbox/../../../../src/core/lv_obj_style_gen.h ****     lv_style_value_t v = lv_obj_get_style_prop(obj, part, LV_STYLE_TRANSFORM_HEIGHT);
  64:Drivers/lvgl/src/extra/widgets/msgbox/../../../../src/core/lv_obj_style_gen.h ****     return (lv_coord_t)v.num;
  65:Drivers/lvgl/src/extra/widgets/msgbox/../../../../src/core/lv_obj_style_gen.h **** }
  66:Drivers/lvgl/src/extra/widgets/msgbox/../../../../src/core/lv_obj_style_gen.h **** 
  67:Drivers/lvgl/src/extra/widgets/msgbox/../../../../src/core/lv_obj_style_gen.h **** static inline lv_coord_t lv_obj_get_style_translate_x(const struct _lv_obj_t * obj, uint32_t part)
  68:Drivers/lvgl/src/extra/widgets/msgbox/../../../../src/core/lv_obj_style_gen.h **** {
  69:Drivers/lvgl/src/extra/widgets/msgbox/../../../../src/core/lv_obj_style_gen.h ****     lv_style_value_t v = lv_obj_get_style_prop(obj, part, LV_STYLE_TRANSLATE_X);
  70:Drivers/lvgl/src/extra/widgets/msgbox/../../../../src/core/lv_obj_style_gen.h ****     return (lv_coord_t)v.num;
  71:Drivers/lvgl/src/extra/widgets/msgbox/../../../../src/core/lv_obj_style_gen.h **** }
  72:Drivers/lvgl/src/extra/widgets/msgbox/../../../../src/core/lv_obj_style_gen.h **** 
  73:Drivers/lvgl/src/extra/widgets/msgbox/../../../../src/core/lv_obj_style_gen.h **** static inline lv_coord_t lv_obj_get_style_translate_y(const struct _lv_obj_t * obj, uint32_t part)
  74:Drivers/lvgl/src/extra/widgets/msgbox/../../../../src/core/lv_obj_style_gen.h **** {
  75:Drivers/lvgl/src/extra/widgets/msgbox/../../../../src/core/lv_obj_style_gen.h ****     lv_style_value_t v = lv_obj_get_style_prop(obj, part, LV_STYLE_TRANSLATE_Y);
  76:Drivers/lvgl/src/extra/widgets/msgbox/../../../../src/core/lv_obj_style_gen.h ****     return (lv_coord_t)v.num;
  77:Drivers/lvgl/src/extra/widgets/msgbox/../../../../src/core/lv_obj_style_gen.h **** }
  78:Drivers/lvgl/src/extra/widgets/msgbox/../../../../src/core/lv_obj_style_gen.h **** 
ARM GAS  /var/folders/0z/tsy30v1j4xl4_7kw94k978ww0000gn/T//ccLT6Yh4.s 			page 15


  79:Drivers/lvgl/src/extra/widgets/msgbox/../../../../src/core/lv_obj_style_gen.h **** static inline lv_coord_t lv_obj_get_style_transform_zoom(const struct _lv_obj_t * obj, uint32_t par
  80:Drivers/lvgl/src/extra/widgets/msgbox/../../../../src/core/lv_obj_style_gen.h **** {
  81:Drivers/lvgl/src/extra/widgets/msgbox/../../../../src/core/lv_obj_style_gen.h ****     lv_style_value_t v = lv_obj_get_style_prop(obj, part, LV_STYLE_TRANSFORM_ZOOM);
  82:Drivers/lvgl/src/extra/widgets/msgbox/../../../../src/core/lv_obj_style_gen.h ****     return (lv_coord_t)v.num;
  83:Drivers/lvgl/src/extra/widgets/msgbox/../../../../src/core/lv_obj_style_gen.h **** }
  84:Drivers/lvgl/src/extra/widgets/msgbox/../../../../src/core/lv_obj_style_gen.h **** 
  85:Drivers/lvgl/src/extra/widgets/msgbox/../../../../src/core/lv_obj_style_gen.h **** static inline lv_coord_t lv_obj_get_style_transform_angle(const struct _lv_obj_t * obj, uint32_t pa
  86:Drivers/lvgl/src/extra/widgets/msgbox/../../../../src/core/lv_obj_style_gen.h **** {
  87:Drivers/lvgl/src/extra/widgets/msgbox/../../../../src/core/lv_obj_style_gen.h ****     lv_style_value_t v = lv_obj_get_style_prop(obj, part, LV_STYLE_TRANSFORM_ANGLE);
  88:Drivers/lvgl/src/extra/widgets/msgbox/../../../../src/core/lv_obj_style_gen.h ****     return (lv_coord_t)v.num;
  89:Drivers/lvgl/src/extra/widgets/msgbox/../../../../src/core/lv_obj_style_gen.h **** }
  90:Drivers/lvgl/src/extra/widgets/msgbox/../../../../src/core/lv_obj_style_gen.h **** 
  91:Drivers/lvgl/src/extra/widgets/msgbox/../../../../src/core/lv_obj_style_gen.h **** static inline lv_coord_t lv_obj_get_style_transform_pivot_x(const struct _lv_obj_t * obj, uint32_t 
  92:Drivers/lvgl/src/extra/widgets/msgbox/../../../../src/core/lv_obj_style_gen.h **** {
  93:Drivers/lvgl/src/extra/widgets/msgbox/../../../../src/core/lv_obj_style_gen.h ****     lv_style_value_t v = lv_obj_get_style_prop(obj, part, LV_STYLE_TRANSFORM_PIVOT_X);
  94:Drivers/lvgl/src/extra/widgets/msgbox/../../../../src/core/lv_obj_style_gen.h ****     return (lv_coord_t)v.num;
  95:Drivers/lvgl/src/extra/widgets/msgbox/../../../../src/core/lv_obj_style_gen.h **** }
  96:Drivers/lvgl/src/extra/widgets/msgbox/../../../../src/core/lv_obj_style_gen.h **** 
  97:Drivers/lvgl/src/extra/widgets/msgbox/../../../../src/core/lv_obj_style_gen.h **** static inline lv_coord_t lv_obj_get_style_transform_pivot_y(const struct _lv_obj_t * obj, uint32_t 
  98:Drivers/lvgl/src/extra/widgets/msgbox/../../../../src/core/lv_obj_style_gen.h **** {
  99:Drivers/lvgl/src/extra/widgets/msgbox/../../../../src/core/lv_obj_style_gen.h ****     lv_style_value_t v = lv_obj_get_style_prop(obj, part, LV_STYLE_TRANSFORM_PIVOT_Y);
 100:Drivers/lvgl/src/extra/widgets/msgbox/../../../../src/core/lv_obj_style_gen.h ****     return (lv_coord_t)v.num;
 101:Drivers/lvgl/src/extra/widgets/msgbox/../../../../src/core/lv_obj_style_gen.h **** }
 102:Drivers/lvgl/src/extra/widgets/msgbox/../../../../src/core/lv_obj_style_gen.h **** 
 103:Drivers/lvgl/src/extra/widgets/msgbox/../../../../src/core/lv_obj_style_gen.h **** static inline lv_coord_t lv_obj_get_style_pad_top(const struct _lv_obj_t * obj, uint32_t part)
 104:Drivers/lvgl/src/extra/widgets/msgbox/../../../../src/core/lv_obj_style_gen.h **** {
 105:Drivers/lvgl/src/extra/widgets/msgbox/../../../../src/core/lv_obj_style_gen.h ****     lv_style_value_t v = lv_obj_get_style_prop(obj, part, LV_STYLE_PAD_TOP);
 106:Drivers/lvgl/src/extra/widgets/msgbox/../../../../src/core/lv_obj_style_gen.h ****     return (lv_coord_t)v.num;
 107:Drivers/lvgl/src/extra/widgets/msgbox/../../../../src/core/lv_obj_style_gen.h **** }
 108:Drivers/lvgl/src/extra/widgets/msgbox/../../../../src/core/lv_obj_style_gen.h **** 
 109:Drivers/lvgl/src/extra/widgets/msgbox/../../../../src/core/lv_obj_style_gen.h **** static inline lv_coord_t lv_obj_get_style_pad_bottom(const struct _lv_obj_t * obj, uint32_t part)
 110:Drivers/lvgl/src/extra/widgets/msgbox/../../../../src/core/lv_obj_style_gen.h **** {
 111:Drivers/lvgl/src/extra/widgets/msgbox/../../../../src/core/lv_obj_style_gen.h ****     lv_style_value_t v = lv_obj_get_style_prop(obj, part, LV_STYLE_PAD_BOTTOM);
 112:Drivers/lvgl/src/extra/widgets/msgbox/../../../../src/core/lv_obj_style_gen.h ****     return (lv_coord_t)v.num;
 113:Drivers/lvgl/src/extra/widgets/msgbox/../../../../src/core/lv_obj_style_gen.h **** }
 114:Drivers/lvgl/src/extra/widgets/msgbox/../../../../src/core/lv_obj_style_gen.h **** 
 115:Drivers/lvgl/src/extra/widgets/msgbox/../../../../src/core/lv_obj_style_gen.h **** static inline lv_coord_t lv_obj_get_style_pad_left(const struct _lv_obj_t * obj, uint32_t part)
 116:Drivers/lvgl/src/extra/widgets/msgbox/../../../../src/core/lv_obj_style_gen.h **** {
 117:Drivers/lvgl/src/extra/widgets/msgbox/../../../../src/core/lv_obj_style_gen.h ****     lv_style_value_t v = lv_obj_get_style_prop(obj, part, LV_STYLE_PAD_LEFT);
 118:Drivers/lvgl/src/extra/widgets/msgbox/../../../../src/core/lv_obj_style_gen.h ****     return (lv_coord_t)v.num;
 119:Drivers/lvgl/src/extra/widgets/msgbox/../../../../src/core/lv_obj_style_gen.h **** }
 120:Drivers/lvgl/src/extra/widgets/msgbox/../../../../src/core/lv_obj_style_gen.h **** 
 121:Drivers/lvgl/src/extra/widgets/msgbox/../../../../src/core/lv_obj_style_gen.h **** static inline lv_coord_t lv_obj_get_style_pad_right(const struct _lv_obj_t * obj, uint32_t part)
 122:Drivers/lvgl/src/extra/widgets/msgbox/../../../../src/core/lv_obj_style_gen.h **** {
 123:Drivers/lvgl/src/extra/widgets/msgbox/../../../../src/core/lv_obj_style_gen.h ****     lv_style_value_t v = lv_obj_get_style_prop(obj, part, LV_STYLE_PAD_RIGHT);
 124:Drivers/lvgl/src/extra/widgets/msgbox/../../../../src/core/lv_obj_style_gen.h ****     return (lv_coord_t)v.num;
 125:Drivers/lvgl/src/extra/widgets/msgbox/../../../../src/core/lv_obj_style_gen.h **** }
 126:Drivers/lvgl/src/extra/widgets/msgbox/../../../../src/core/lv_obj_style_gen.h **** 
 127:Drivers/lvgl/src/extra/widgets/msgbox/../../../../src/core/lv_obj_style_gen.h **** static inline lv_coord_t lv_obj_get_style_pad_row(const struct _lv_obj_t * obj, uint32_t part)
 128:Drivers/lvgl/src/extra/widgets/msgbox/../../../../src/core/lv_obj_style_gen.h **** {
 129:Drivers/lvgl/src/extra/widgets/msgbox/../../../../src/core/lv_obj_style_gen.h ****     lv_style_value_t v = lv_obj_get_style_prop(obj, part, LV_STYLE_PAD_ROW);
 130:Drivers/lvgl/src/extra/widgets/msgbox/../../../../src/core/lv_obj_style_gen.h ****     return (lv_coord_t)v.num;
 131:Drivers/lvgl/src/extra/widgets/msgbox/../../../../src/core/lv_obj_style_gen.h **** }
 132:Drivers/lvgl/src/extra/widgets/msgbox/../../../../src/core/lv_obj_style_gen.h **** 
 133:Drivers/lvgl/src/extra/widgets/msgbox/../../../../src/core/lv_obj_style_gen.h **** static inline lv_coord_t lv_obj_get_style_pad_column(const struct _lv_obj_t * obj, uint32_t part)
 134:Drivers/lvgl/src/extra/widgets/msgbox/../../../../src/core/lv_obj_style_gen.h **** {
 135:Drivers/lvgl/src/extra/widgets/msgbox/../../../../src/core/lv_obj_style_gen.h ****     lv_style_value_t v = lv_obj_get_style_prop(obj, part, LV_STYLE_PAD_COLUMN);
ARM GAS  /var/folders/0z/tsy30v1j4xl4_7kw94k978ww0000gn/T//ccLT6Yh4.s 			page 16


 136:Drivers/lvgl/src/extra/widgets/msgbox/../../../../src/core/lv_obj_style_gen.h ****     return (lv_coord_t)v.num;
 137:Drivers/lvgl/src/extra/widgets/msgbox/../../../../src/core/lv_obj_style_gen.h **** }
 138:Drivers/lvgl/src/extra/widgets/msgbox/../../../../src/core/lv_obj_style_gen.h **** 
 139:Drivers/lvgl/src/extra/widgets/msgbox/../../../../src/core/lv_obj_style_gen.h **** static inline lv_color_t lv_obj_get_style_bg_color(const struct _lv_obj_t * obj, uint32_t part)
 140:Drivers/lvgl/src/extra/widgets/msgbox/../../../../src/core/lv_obj_style_gen.h **** {
 141:Drivers/lvgl/src/extra/widgets/msgbox/../../../../src/core/lv_obj_style_gen.h ****     lv_style_value_t v = lv_obj_get_style_prop(obj, part, LV_STYLE_BG_COLOR);
 142:Drivers/lvgl/src/extra/widgets/msgbox/../../../../src/core/lv_obj_style_gen.h ****     return v.color;
 143:Drivers/lvgl/src/extra/widgets/msgbox/../../../../src/core/lv_obj_style_gen.h **** }
 144:Drivers/lvgl/src/extra/widgets/msgbox/../../../../src/core/lv_obj_style_gen.h **** 
 145:Drivers/lvgl/src/extra/widgets/msgbox/../../../../src/core/lv_obj_style_gen.h **** static inline lv_color_t lv_obj_get_style_bg_color_filtered(const struct _lv_obj_t * obj, uint32_t 
 146:Drivers/lvgl/src/extra/widgets/msgbox/../../../../src/core/lv_obj_style_gen.h **** {
 147:Drivers/lvgl/src/extra/widgets/msgbox/../../../../src/core/lv_obj_style_gen.h ****     lv_style_value_t v = _lv_obj_style_apply_color_filter(obj, part, lv_obj_get_style_prop(obj, par
 148:Drivers/lvgl/src/extra/widgets/msgbox/../../../../src/core/lv_obj_style_gen.h ****     return v.color;
 149:Drivers/lvgl/src/extra/widgets/msgbox/../../../../src/core/lv_obj_style_gen.h **** }
 150:Drivers/lvgl/src/extra/widgets/msgbox/../../../../src/core/lv_obj_style_gen.h **** 
 151:Drivers/lvgl/src/extra/widgets/msgbox/../../../../src/core/lv_obj_style_gen.h **** static inline lv_opa_t lv_obj_get_style_bg_opa(const struct _lv_obj_t * obj, uint32_t part)
 152:Drivers/lvgl/src/extra/widgets/msgbox/../../../../src/core/lv_obj_style_gen.h **** {
 153:Drivers/lvgl/src/extra/widgets/msgbox/../../../../src/core/lv_obj_style_gen.h ****     lv_style_value_t v = lv_obj_get_style_prop(obj, part, LV_STYLE_BG_OPA);
 154:Drivers/lvgl/src/extra/widgets/msgbox/../../../../src/core/lv_obj_style_gen.h ****     return (lv_opa_t)v.num;
 155:Drivers/lvgl/src/extra/widgets/msgbox/../../../../src/core/lv_obj_style_gen.h **** }
 156:Drivers/lvgl/src/extra/widgets/msgbox/../../../../src/core/lv_obj_style_gen.h **** 
 157:Drivers/lvgl/src/extra/widgets/msgbox/../../../../src/core/lv_obj_style_gen.h **** static inline lv_color_t lv_obj_get_style_bg_grad_color(const struct _lv_obj_t * obj, uint32_t part
 158:Drivers/lvgl/src/extra/widgets/msgbox/../../../../src/core/lv_obj_style_gen.h **** {
 159:Drivers/lvgl/src/extra/widgets/msgbox/../../../../src/core/lv_obj_style_gen.h ****     lv_style_value_t v = lv_obj_get_style_prop(obj, part, LV_STYLE_BG_GRAD_COLOR);
 160:Drivers/lvgl/src/extra/widgets/msgbox/../../../../src/core/lv_obj_style_gen.h ****     return v.color;
 161:Drivers/lvgl/src/extra/widgets/msgbox/../../../../src/core/lv_obj_style_gen.h **** }
 162:Drivers/lvgl/src/extra/widgets/msgbox/../../../../src/core/lv_obj_style_gen.h **** 
 163:Drivers/lvgl/src/extra/widgets/msgbox/../../../../src/core/lv_obj_style_gen.h **** static inline lv_color_t lv_obj_get_style_bg_grad_color_filtered(const struct _lv_obj_t * obj, uint
 164:Drivers/lvgl/src/extra/widgets/msgbox/../../../../src/core/lv_obj_style_gen.h **** {
 165:Drivers/lvgl/src/extra/widgets/msgbox/../../../../src/core/lv_obj_style_gen.h ****     lv_style_value_t v = _lv_obj_style_apply_color_filter(obj, part, lv_obj_get_style_prop(obj, par
 166:Drivers/lvgl/src/extra/widgets/msgbox/../../../../src/core/lv_obj_style_gen.h ****     return v.color;
 167:Drivers/lvgl/src/extra/widgets/msgbox/../../../../src/core/lv_obj_style_gen.h **** }
 168:Drivers/lvgl/src/extra/widgets/msgbox/../../../../src/core/lv_obj_style_gen.h **** 
 169:Drivers/lvgl/src/extra/widgets/msgbox/../../../../src/core/lv_obj_style_gen.h **** static inline lv_grad_dir_t lv_obj_get_style_bg_grad_dir(const struct _lv_obj_t * obj, uint32_t par
 170:Drivers/lvgl/src/extra/widgets/msgbox/../../../../src/core/lv_obj_style_gen.h **** {
 171:Drivers/lvgl/src/extra/widgets/msgbox/../../../../src/core/lv_obj_style_gen.h ****     lv_style_value_t v = lv_obj_get_style_prop(obj, part, LV_STYLE_BG_GRAD_DIR);
 172:Drivers/lvgl/src/extra/widgets/msgbox/../../../../src/core/lv_obj_style_gen.h ****     return (lv_grad_dir_t)v.num;
 173:Drivers/lvgl/src/extra/widgets/msgbox/../../../../src/core/lv_obj_style_gen.h **** }
 174:Drivers/lvgl/src/extra/widgets/msgbox/../../../../src/core/lv_obj_style_gen.h **** 
 175:Drivers/lvgl/src/extra/widgets/msgbox/../../../../src/core/lv_obj_style_gen.h **** static inline lv_coord_t lv_obj_get_style_bg_main_stop(const struct _lv_obj_t * obj, uint32_t part)
 176:Drivers/lvgl/src/extra/widgets/msgbox/../../../../src/core/lv_obj_style_gen.h **** {
 177:Drivers/lvgl/src/extra/widgets/msgbox/../../../../src/core/lv_obj_style_gen.h ****     lv_style_value_t v = lv_obj_get_style_prop(obj, part, LV_STYLE_BG_MAIN_STOP);
 178:Drivers/lvgl/src/extra/widgets/msgbox/../../../../src/core/lv_obj_style_gen.h ****     return (lv_coord_t)v.num;
 179:Drivers/lvgl/src/extra/widgets/msgbox/../../../../src/core/lv_obj_style_gen.h **** }
 180:Drivers/lvgl/src/extra/widgets/msgbox/../../../../src/core/lv_obj_style_gen.h **** 
 181:Drivers/lvgl/src/extra/widgets/msgbox/../../../../src/core/lv_obj_style_gen.h **** static inline lv_coord_t lv_obj_get_style_bg_grad_stop(const struct _lv_obj_t * obj, uint32_t part)
 182:Drivers/lvgl/src/extra/widgets/msgbox/../../../../src/core/lv_obj_style_gen.h **** {
 183:Drivers/lvgl/src/extra/widgets/msgbox/../../../../src/core/lv_obj_style_gen.h ****     lv_style_value_t v = lv_obj_get_style_prop(obj, part, LV_STYLE_BG_GRAD_STOP);
 184:Drivers/lvgl/src/extra/widgets/msgbox/../../../../src/core/lv_obj_style_gen.h ****     return (lv_coord_t)v.num;
 185:Drivers/lvgl/src/extra/widgets/msgbox/../../../../src/core/lv_obj_style_gen.h **** }
 186:Drivers/lvgl/src/extra/widgets/msgbox/../../../../src/core/lv_obj_style_gen.h **** 
 187:Drivers/lvgl/src/extra/widgets/msgbox/../../../../src/core/lv_obj_style_gen.h **** static inline const lv_grad_dsc_t * lv_obj_get_style_bg_grad(const struct _lv_obj_t * obj, uint32_t
 188:Drivers/lvgl/src/extra/widgets/msgbox/../../../../src/core/lv_obj_style_gen.h **** {
 189:Drivers/lvgl/src/extra/widgets/msgbox/../../../../src/core/lv_obj_style_gen.h ****     lv_style_value_t v = lv_obj_get_style_prop(obj, part, LV_STYLE_BG_GRAD);
 190:Drivers/lvgl/src/extra/widgets/msgbox/../../../../src/core/lv_obj_style_gen.h ****     return (const lv_grad_dsc_t *)v.ptr;
 191:Drivers/lvgl/src/extra/widgets/msgbox/../../../../src/core/lv_obj_style_gen.h **** }
 192:Drivers/lvgl/src/extra/widgets/msgbox/../../../../src/core/lv_obj_style_gen.h **** 
ARM GAS  /var/folders/0z/tsy30v1j4xl4_7kw94k978ww0000gn/T//ccLT6Yh4.s 			page 17


 193:Drivers/lvgl/src/extra/widgets/msgbox/../../../../src/core/lv_obj_style_gen.h **** static inline lv_dither_mode_t lv_obj_get_style_bg_dither_mode(const struct _lv_obj_t * obj, uint32
 194:Drivers/lvgl/src/extra/widgets/msgbox/../../../../src/core/lv_obj_style_gen.h **** {
 195:Drivers/lvgl/src/extra/widgets/msgbox/../../../../src/core/lv_obj_style_gen.h ****     lv_style_value_t v = lv_obj_get_style_prop(obj, part, LV_STYLE_BG_DITHER_MODE);
 196:Drivers/lvgl/src/extra/widgets/msgbox/../../../../src/core/lv_obj_style_gen.h ****     return (lv_dither_mode_t)v.num;
 197:Drivers/lvgl/src/extra/widgets/msgbox/../../../../src/core/lv_obj_style_gen.h **** }
 198:Drivers/lvgl/src/extra/widgets/msgbox/../../../../src/core/lv_obj_style_gen.h **** 
 199:Drivers/lvgl/src/extra/widgets/msgbox/../../../../src/core/lv_obj_style_gen.h **** static inline const void * lv_obj_get_style_bg_img_src(const struct _lv_obj_t * obj, uint32_t part)
 200:Drivers/lvgl/src/extra/widgets/msgbox/../../../../src/core/lv_obj_style_gen.h **** {
 201:Drivers/lvgl/src/extra/widgets/msgbox/../../../../src/core/lv_obj_style_gen.h ****     lv_style_value_t v = lv_obj_get_style_prop(obj, part, LV_STYLE_BG_IMG_SRC);
 202:Drivers/lvgl/src/extra/widgets/msgbox/../../../../src/core/lv_obj_style_gen.h ****     return (const void *)v.ptr;
 203:Drivers/lvgl/src/extra/widgets/msgbox/../../../../src/core/lv_obj_style_gen.h **** }
 204:Drivers/lvgl/src/extra/widgets/msgbox/../../../../src/core/lv_obj_style_gen.h **** 
 205:Drivers/lvgl/src/extra/widgets/msgbox/../../../../src/core/lv_obj_style_gen.h **** static inline lv_opa_t lv_obj_get_style_bg_img_opa(const struct _lv_obj_t * obj, uint32_t part)
 206:Drivers/lvgl/src/extra/widgets/msgbox/../../../../src/core/lv_obj_style_gen.h **** {
 207:Drivers/lvgl/src/extra/widgets/msgbox/../../../../src/core/lv_obj_style_gen.h ****     lv_style_value_t v = lv_obj_get_style_prop(obj, part, LV_STYLE_BG_IMG_OPA);
 208:Drivers/lvgl/src/extra/widgets/msgbox/../../../../src/core/lv_obj_style_gen.h ****     return (lv_opa_t)v.num;
 209:Drivers/lvgl/src/extra/widgets/msgbox/../../../../src/core/lv_obj_style_gen.h **** }
 210:Drivers/lvgl/src/extra/widgets/msgbox/../../../../src/core/lv_obj_style_gen.h **** 
 211:Drivers/lvgl/src/extra/widgets/msgbox/../../../../src/core/lv_obj_style_gen.h **** static inline lv_color_t lv_obj_get_style_bg_img_recolor(const struct _lv_obj_t * obj, uint32_t par
 212:Drivers/lvgl/src/extra/widgets/msgbox/../../../../src/core/lv_obj_style_gen.h **** {
 213:Drivers/lvgl/src/extra/widgets/msgbox/../../../../src/core/lv_obj_style_gen.h ****     lv_style_value_t v = lv_obj_get_style_prop(obj, part, LV_STYLE_BG_IMG_RECOLOR);
 214:Drivers/lvgl/src/extra/widgets/msgbox/../../../../src/core/lv_obj_style_gen.h ****     return v.color;
 215:Drivers/lvgl/src/extra/widgets/msgbox/../../../../src/core/lv_obj_style_gen.h **** }
 216:Drivers/lvgl/src/extra/widgets/msgbox/../../../../src/core/lv_obj_style_gen.h **** 
 217:Drivers/lvgl/src/extra/widgets/msgbox/../../../../src/core/lv_obj_style_gen.h **** static inline lv_color_t lv_obj_get_style_bg_img_recolor_filtered(const struct _lv_obj_t * obj, uin
 218:Drivers/lvgl/src/extra/widgets/msgbox/../../../../src/core/lv_obj_style_gen.h **** {
 219:Drivers/lvgl/src/extra/widgets/msgbox/../../../../src/core/lv_obj_style_gen.h ****     lv_style_value_t v = _lv_obj_style_apply_color_filter(obj, part, lv_obj_get_style_prop(obj, par
 220:Drivers/lvgl/src/extra/widgets/msgbox/../../../../src/core/lv_obj_style_gen.h ****     return v.color;
 221:Drivers/lvgl/src/extra/widgets/msgbox/../../../../src/core/lv_obj_style_gen.h **** }
 222:Drivers/lvgl/src/extra/widgets/msgbox/../../../../src/core/lv_obj_style_gen.h **** 
 223:Drivers/lvgl/src/extra/widgets/msgbox/../../../../src/core/lv_obj_style_gen.h **** static inline lv_opa_t lv_obj_get_style_bg_img_recolor_opa(const struct _lv_obj_t * obj, uint32_t p
 224:Drivers/lvgl/src/extra/widgets/msgbox/../../../../src/core/lv_obj_style_gen.h **** {
 225:Drivers/lvgl/src/extra/widgets/msgbox/../../../../src/core/lv_obj_style_gen.h ****     lv_style_value_t v = lv_obj_get_style_prop(obj, part, LV_STYLE_BG_IMG_RECOLOR_OPA);
 226:Drivers/lvgl/src/extra/widgets/msgbox/../../../../src/core/lv_obj_style_gen.h ****     return (lv_opa_t)v.num;
 227:Drivers/lvgl/src/extra/widgets/msgbox/../../../../src/core/lv_obj_style_gen.h **** }
 228:Drivers/lvgl/src/extra/widgets/msgbox/../../../../src/core/lv_obj_style_gen.h **** 
 229:Drivers/lvgl/src/extra/widgets/msgbox/../../../../src/core/lv_obj_style_gen.h **** static inline bool lv_obj_get_style_bg_img_tiled(const struct _lv_obj_t * obj, uint32_t part)
 230:Drivers/lvgl/src/extra/widgets/msgbox/../../../../src/core/lv_obj_style_gen.h **** {
 231:Drivers/lvgl/src/extra/widgets/msgbox/../../../../src/core/lv_obj_style_gen.h ****     lv_style_value_t v = lv_obj_get_style_prop(obj, part, LV_STYLE_BG_IMG_TILED);
 232:Drivers/lvgl/src/extra/widgets/msgbox/../../../../src/core/lv_obj_style_gen.h ****     return (bool)v.num;
 233:Drivers/lvgl/src/extra/widgets/msgbox/../../../../src/core/lv_obj_style_gen.h **** }
 234:Drivers/lvgl/src/extra/widgets/msgbox/../../../../src/core/lv_obj_style_gen.h **** 
 235:Drivers/lvgl/src/extra/widgets/msgbox/../../../../src/core/lv_obj_style_gen.h **** static inline lv_color_t lv_obj_get_style_border_color(const struct _lv_obj_t * obj, uint32_t part)
 236:Drivers/lvgl/src/extra/widgets/msgbox/../../../../src/core/lv_obj_style_gen.h **** {
 237:Drivers/lvgl/src/extra/widgets/msgbox/../../../../src/core/lv_obj_style_gen.h ****     lv_style_value_t v = lv_obj_get_style_prop(obj, part, LV_STYLE_BORDER_COLOR);
 238:Drivers/lvgl/src/extra/widgets/msgbox/../../../../src/core/lv_obj_style_gen.h ****     return v.color;
 239:Drivers/lvgl/src/extra/widgets/msgbox/../../../../src/core/lv_obj_style_gen.h **** }
 240:Drivers/lvgl/src/extra/widgets/msgbox/../../../../src/core/lv_obj_style_gen.h **** 
 241:Drivers/lvgl/src/extra/widgets/msgbox/../../../../src/core/lv_obj_style_gen.h **** static inline lv_color_t lv_obj_get_style_border_color_filtered(const struct _lv_obj_t * obj, uint3
 242:Drivers/lvgl/src/extra/widgets/msgbox/../../../../src/core/lv_obj_style_gen.h **** {
 243:Drivers/lvgl/src/extra/widgets/msgbox/../../../../src/core/lv_obj_style_gen.h ****     lv_style_value_t v = _lv_obj_style_apply_color_filter(obj, part, lv_obj_get_style_prop(obj, par
 244:Drivers/lvgl/src/extra/widgets/msgbox/../../../../src/core/lv_obj_style_gen.h ****     return v.color;
 245:Drivers/lvgl/src/extra/widgets/msgbox/../../../../src/core/lv_obj_style_gen.h **** }
 246:Drivers/lvgl/src/extra/widgets/msgbox/../../../../src/core/lv_obj_style_gen.h **** 
 247:Drivers/lvgl/src/extra/widgets/msgbox/../../../../src/core/lv_obj_style_gen.h **** static inline lv_opa_t lv_obj_get_style_border_opa(const struct _lv_obj_t * obj, uint32_t part)
 248:Drivers/lvgl/src/extra/widgets/msgbox/../../../../src/core/lv_obj_style_gen.h **** {
 249:Drivers/lvgl/src/extra/widgets/msgbox/../../../../src/core/lv_obj_style_gen.h ****     lv_style_value_t v = lv_obj_get_style_prop(obj, part, LV_STYLE_BORDER_OPA);
ARM GAS  /var/folders/0z/tsy30v1j4xl4_7kw94k978ww0000gn/T//ccLT6Yh4.s 			page 18


 250:Drivers/lvgl/src/extra/widgets/msgbox/../../../../src/core/lv_obj_style_gen.h ****     return (lv_opa_t)v.num;
 251:Drivers/lvgl/src/extra/widgets/msgbox/../../../../src/core/lv_obj_style_gen.h **** }
 252:Drivers/lvgl/src/extra/widgets/msgbox/../../../../src/core/lv_obj_style_gen.h **** 
 253:Drivers/lvgl/src/extra/widgets/msgbox/../../../../src/core/lv_obj_style_gen.h **** static inline lv_coord_t lv_obj_get_style_border_width(const struct _lv_obj_t * obj, uint32_t part)
 254:Drivers/lvgl/src/extra/widgets/msgbox/../../../../src/core/lv_obj_style_gen.h **** {
 255:Drivers/lvgl/src/extra/widgets/msgbox/../../../../src/core/lv_obj_style_gen.h ****     lv_style_value_t v = lv_obj_get_style_prop(obj, part, LV_STYLE_BORDER_WIDTH);
 256:Drivers/lvgl/src/extra/widgets/msgbox/../../../../src/core/lv_obj_style_gen.h ****     return (lv_coord_t)v.num;
 257:Drivers/lvgl/src/extra/widgets/msgbox/../../../../src/core/lv_obj_style_gen.h **** }
 258:Drivers/lvgl/src/extra/widgets/msgbox/../../../../src/core/lv_obj_style_gen.h **** 
 259:Drivers/lvgl/src/extra/widgets/msgbox/../../../../src/core/lv_obj_style_gen.h **** static inline lv_border_side_t lv_obj_get_style_border_side(const struct _lv_obj_t * obj, uint32_t 
 260:Drivers/lvgl/src/extra/widgets/msgbox/../../../../src/core/lv_obj_style_gen.h **** {
 261:Drivers/lvgl/src/extra/widgets/msgbox/../../../../src/core/lv_obj_style_gen.h ****     lv_style_value_t v = lv_obj_get_style_prop(obj, part, LV_STYLE_BORDER_SIDE);
 262:Drivers/lvgl/src/extra/widgets/msgbox/../../../../src/core/lv_obj_style_gen.h ****     return (lv_border_side_t)v.num;
 263:Drivers/lvgl/src/extra/widgets/msgbox/../../../../src/core/lv_obj_style_gen.h **** }
 264:Drivers/lvgl/src/extra/widgets/msgbox/../../../../src/core/lv_obj_style_gen.h **** 
 265:Drivers/lvgl/src/extra/widgets/msgbox/../../../../src/core/lv_obj_style_gen.h **** static inline bool lv_obj_get_style_border_post(const struct _lv_obj_t * obj, uint32_t part)
 266:Drivers/lvgl/src/extra/widgets/msgbox/../../../../src/core/lv_obj_style_gen.h **** {
 267:Drivers/lvgl/src/extra/widgets/msgbox/../../../../src/core/lv_obj_style_gen.h ****     lv_style_value_t v = lv_obj_get_style_prop(obj, part, LV_STYLE_BORDER_POST);
 268:Drivers/lvgl/src/extra/widgets/msgbox/../../../../src/core/lv_obj_style_gen.h ****     return (bool)v.num;
 269:Drivers/lvgl/src/extra/widgets/msgbox/../../../../src/core/lv_obj_style_gen.h **** }
 270:Drivers/lvgl/src/extra/widgets/msgbox/../../../../src/core/lv_obj_style_gen.h **** 
 271:Drivers/lvgl/src/extra/widgets/msgbox/../../../../src/core/lv_obj_style_gen.h **** static inline lv_coord_t lv_obj_get_style_outline_width(const struct _lv_obj_t * obj, uint32_t part
 272:Drivers/lvgl/src/extra/widgets/msgbox/../../../../src/core/lv_obj_style_gen.h **** {
 273:Drivers/lvgl/src/extra/widgets/msgbox/../../../../src/core/lv_obj_style_gen.h ****     lv_style_value_t v = lv_obj_get_style_prop(obj, part, LV_STYLE_OUTLINE_WIDTH);
 274:Drivers/lvgl/src/extra/widgets/msgbox/../../../../src/core/lv_obj_style_gen.h ****     return (lv_coord_t)v.num;
 275:Drivers/lvgl/src/extra/widgets/msgbox/../../../../src/core/lv_obj_style_gen.h **** }
 276:Drivers/lvgl/src/extra/widgets/msgbox/../../../../src/core/lv_obj_style_gen.h **** 
 277:Drivers/lvgl/src/extra/widgets/msgbox/../../../../src/core/lv_obj_style_gen.h **** static inline lv_color_t lv_obj_get_style_outline_color(const struct _lv_obj_t * obj, uint32_t part
 278:Drivers/lvgl/src/extra/widgets/msgbox/../../../../src/core/lv_obj_style_gen.h **** {
 279:Drivers/lvgl/src/extra/widgets/msgbox/../../../../src/core/lv_obj_style_gen.h ****     lv_style_value_t v = lv_obj_get_style_prop(obj, part, LV_STYLE_OUTLINE_COLOR);
 280:Drivers/lvgl/src/extra/widgets/msgbox/../../../../src/core/lv_obj_style_gen.h ****     return v.color;
 281:Drivers/lvgl/src/extra/widgets/msgbox/../../../../src/core/lv_obj_style_gen.h **** }
 282:Drivers/lvgl/src/extra/widgets/msgbox/../../../../src/core/lv_obj_style_gen.h **** 
 283:Drivers/lvgl/src/extra/widgets/msgbox/../../../../src/core/lv_obj_style_gen.h **** static inline lv_color_t lv_obj_get_style_outline_color_filtered(const struct _lv_obj_t * obj, uint
 284:Drivers/lvgl/src/extra/widgets/msgbox/../../../../src/core/lv_obj_style_gen.h **** {
 285:Drivers/lvgl/src/extra/widgets/msgbox/../../../../src/core/lv_obj_style_gen.h ****     lv_style_value_t v = _lv_obj_style_apply_color_filter(obj, part, lv_obj_get_style_prop(obj, par
 286:Drivers/lvgl/src/extra/widgets/msgbox/../../../../src/core/lv_obj_style_gen.h ****     return v.color;
 287:Drivers/lvgl/src/extra/widgets/msgbox/../../../../src/core/lv_obj_style_gen.h **** }
 288:Drivers/lvgl/src/extra/widgets/msgbox/../../../../src/core/lv_obj_style_gen.h **** 
 289:Drivers/lvgl/src/extra/widgets/msgbox/../../../../src/core/lv_obj_style_gen.h **** static inline lv_opa_t lv_obj_get_style_outline_opa(const struct _lv_obj_t * obj, uint32_t part)
 290:Drivers/lvgl/src/extra/widgets/msgbox/../../../../src/core/lv_obj_style_gen.h **** {
 291:Drivers/lvgl/src/extra/widgets/msgbox/../../../../src/core/lv_obj_style_gen.h ****     lv_style_value_t v = lv_obj_get_style_prop(obj, part, LV_STYLE_OUTLINE_OPA);
 292:Drivers/lvgl/src/extra/widgets/msgbox/../../../../src/core/lv_obj_style_gen.h ****     return (lv_opa_t)v.num;
 293:Drivers/lvgl/src/extra/widgets/msgbox/../../../../src/core/lv_obj_style_gen.h **** }
 294:Drivers/lvgl/src/extra/widgets/msgbox/../../../../src/core/lv_obj_style_gen.h **** 
 295:Drivers/lvgl/src/extra/widgets/msgbox/../../../../src/core/lv_obj_style_gen.h **** static inline lv_coord_t lv_obj_get_style_outline_pad(const struct _lv_obj_t * obj, uint32_t part)
 296:Drivers/lvgl/src/extra/widgets/msgbox/../../../../src/core/lv_obj_style_gen.h **** {
 297:Drivers/lvgl/src/extra/widgets/msgbox/../../../../src/core/lv_obj_style_gen.h ****     lv_style_value_t v = lv_obj_get_style_prop(obj, part, LV_STYLE_OUTLINE_PAD);
 298:Drivers/lvgl/src/extra/widgets/msgbox/../../../../src/core/lv_obj_style_gen.h ****     return (lv_coord_t)v.num;
 299:Drivers/lvgl/src/extra/widgets/msgbox/../../../../src/core/lv_obj_style_gen.h **** }
 300:Drivers/lvgl/src/extra/widgets/msgbox/../../../../src/core/lv_obj_style_gen.h **** 
 301:Drivers/lvgl/src/extra/widgets/msgbox/../../../../src/core/lv_obj_style_gen.h **** static inline lv_coord_t lv_obj_get_style_shadow_width(const struct _lv_obj_t * obj, uint32_t part)
 302:Drivers/lvgl/src/extra/widgets/msgbox/../../../../src/core/lv_obj_style_gen.h **** {
 303:Drivers/lvgl/src/extra/widgets/msgbox/../../../../src/core/lv_obj_style_gen.h ****     lv_style_value_t v = lv_obj_get_style_prop(obj, part, LV_STYLE_SHADOW_WIDTH);
 304:Drivers/lvgl/src/extra/widgets/msgbox/../../../../src/core/lv_obj_style_gen.h ****     return (lv_coord_t)v.num;
 305:Drivers/lvgl/src/extra/widgets/msgbox/../../../../src/core/lv_obj_style_gen.h **** }
 306:Drivers/lvgl/src/extra/widgets/msgbox/../../../../src/core/lv_obj_style_gen.h **** 
ARM GAS  /var/folders/0z/tsy30v1j4xl4_7kw94k978ww0000gn/T//ccLT6Yh4.s 			page 19


 307:Drivers/lvgl/src/extra/widgets/msgbox/../../../../src/core/lv_obj_style_gen.h **** static inline lv_coord_t lv_obj_get_style_shadow_ofs_x(const struct _lv_obj_t * obj, uint32_t part)
 308:Drivers/lvgl/src/extra/widgets/msgbox/../../../../src/core/lv_obj_style_gen.h **** {
 309:Drivers/lvgl/src/extra/widgets/msgbox/../../../../src/core/lv_obj_style_gen.h ****     lv_style_value_t v = lv_obj_get_style_prop(obj, part, LV_STYLE_SHADOW_OFS_X);
 310:Drivers/lvgl/src/extra/widgets/msgbox/../../../../src/core/lv_obj_style_gen.h ****     return (lv_coord_t)v.num;
 311:Drivers/lvgl/src/extra/widgets/msgbox/../../../../src/core/lv_obj_style_gen.h **** }
 312:Drivers/lvgl/src/extra/widgets/msgbox/../../../../src/core/lv_obj_style_gen.h **** 
 313:Drivers/lvgl/src/extra/widgets/msgbox/../../../../src/core/lv_obj_style_gen.h **** static inline lv_coord_t lv_obj_get_style_shadow_ofs_y(const struct _lv_obj_t * obj, uint32_t part)
 314:Drivers/lvgl/src/extra/widgets/msgbox/../../../../src/core/lv_obj_style_gen.h **** {
 315:Drivers/lvgl/src/extra/widgets/msgbox/../../../../src/core/lv_obj_style_gen.h ****     lv_style_value_t v = lv_obj_get_style_prop(obj, part, LV_STYLE_SHADOW_OFS_Y);
 316:Drivers/lvgl/src/extra/widgets/msgbox/../../../../src/core/lv_obj_style_gen.h ****     return (lv_coord_t)v.num;
 317:Drivers/lvgl/src/extra/widgets/msgbox/../../../../src/core/lv_obj_style_gen.h **** }
 318:Drivers/lvgl/src/extra/widgets/msgbox/../../../../src/core/lv_obj_style_gen.h **** 
 319:Drivers/lvgl/src/extra/widgets/msgbox/../../../../src/core/lv_obj_style_gen.h **** static inline lv_coord_t lv_obj_get_style_shadow_spread(const struct _lv_obj_t * obj, uint32_t part
 320:Drivers/lvgl/src/extra/widgets/msgbox/../../../../src/core/lv_obj_style_gen.h **** {
 321:Drivers/lvgl/src/extra/widgets/msgbox/../../../../src/core/lv_obj_style_gen.h ****     lv_style_value_t v = lv_obj_get_style_prop(obj, part, LV_STYLE_SHADOW_SPREAD);
 322:Drivers/lvgl/src/extra/widgets/msgbox/../../../../src/core/lv_obj_style_gen.h ****     return (lv_coord_t)v.num;
 323:Drivers/lvgl/src/extra/widgets/msgbox/../../../../src/core/lv_obj_style_gen.h **** }
 324:Drivers/lvgl/src/extra/widgets/msgbox/../../../../src/core/lv_obj_style_gen.h **** 
 325:Drivers/lvgl/src/extra/widgets/msgbox/../../../../src/core/lv_obj_style_gen.h **** static inline lv_color_t lv_obj_get_style_shadow_color(const struct _lv_obj_t * obj, uint32_t part)
 326:Drivers/lvgl/src/extra/widgets/msgbox/../../../../src/core/lv_obj_style_gen.h **** {
 327:Drivers/lvgl/src/extra/widgets/msgbox/../../../../src/core/lv_obj_style_gen.h ****     lv_style_value_t v = lv_obj_get_style_prop(obj, part, LV_STYLE_SHADOW_COLOR);
 328:Drivers/lvgl/src/extra/widgets/msgbox/../../../../src/core/lv_obj_style_gen.h ****     return v.color;
 329:Drivers/lvgl/src/extra/widgets/msgbox/../../../../src/core/lv_obj_style_gen.h **** }
 330:Drivers/lvgl/src/extra/widgets/msgbox/../../../../src/core/lv_obj_style_gen.h **** 
 331:Drivers/lvgl/src/extra/widgets/msgbox/../../../../src/core/lv_obj_style_gen.h **** static inline lv_color_t lv_obj_get_style_shadow_color_filtered(const struct _lv_obj_t * obj, uint3
 332:Drivers/lvgl/src/extra/widgets/msgbox/../../../../src/core/lv_obj_style_gen.h **** {
 333:Drivers/lvgl/src/extra/widgets/msgbox/../../../../src/core/lv_obj_style_gen.h ****     lv_style_value_t v = _lv_obj_style_apply_color_filter(obj, part, lv_obj_get_style_prop(obj, par
 334:Drivers/lvgl/src/extra/widgets/msgbox/../../../../src/core/lv_obj_style_gen.h ****     return v.color;
 335:Drivers/lvgl/src/extra/widgets/msgbox/../../../../src/core/lv_obj_style_gen.h **** }
 336:Drivers/lvgl/src/extra/widgets/msgbox/../../../../src/core/lv_obj_style_gen.h **** 
 337:Drivers/lvgl/src/extra/widgets/msgbox/../../../../src/core/lv_obj_style_gen.h **** static inline lv_opa_t lv_obj_get_style_shadow_opa(const struct _lv_obj_t * obj, uint32_t part)
 338:Drivers/lvgl/src/extra/widgets/msgbox/../../../../src/core/lv_obj_style_gen.h **** {
 339:Drivers/lvgl/src/extra/widgets/msgbox/../../../../src/core/lv_obj_style_gen.h ****     lv_style_value_t v = lv_obj_get_style_prop(obj, part, LV_STYLE_SHADOW_OPA);
 340:Drivers/lvgl/src/extra/widgets/msgbox/../../../../src/core/lv_obj_style_gen.h ****     return (lv_opa_t)v.num;
 341:Drivers/lvgl/src/extra/widgets/msgbox/../../../../src/core/lv_obj_style_gen.h **** }
 342:Drivers/lvgl/src/extra/widgets/msgbox/../../../../src/core/lv_obj_style_gen.h **** 
 343:Drivers/lvgl/src/extra/widgets/msgbox/../../../../src/core/lv_obj_style_gen.h **** static inline lv_opa_t lv_obj_get_style_img_opa(const struct _lv_obj_t * obj, uint32_t part)
 344:Drivers/lvgl/src/extra/widgets/msgbox/../../../../src/core/lv_obj_style_gen.h **** {
 345:Drivers/lvgl/src/extra/widgets/msgbox/../../../../src/core/lv_obj_style_gen.h ****     lv_style_value_t v = lv_obj_get_style_prop(obj, part, LV_STYLE_IMG_OPA);
 346:Drivers/lvgl/src/extra/widgets/msgbox/../../../../src/core/lv_obj_style_gen.h ****     return (lv_opa_t)v.num;
 347:Drivers/lvgl/src/extra/widgets/msgbox/../../../../src/core/lv_obj_style_gen.h **** }
 348:Drivers/lvgl/src/extra/widgets/msgbox/../../../../src/core/lv_obj_style_gen.h **** 
 349:Drivers/lvgl/src/extra/widgets/msgbox/../../../../src/core/lv_obj_style_gen.h **** static inline lv_color_t lv_obj_get_style_img_recolor(const struct _lv_obj_t * obj, uint32_t part)
 350:Drivers/lvgl/src/extra/widgets/msgbox/../../../../src/core/lv_obj_style_gen.h **** {
 351:Drivers/lvgl/src/extra/widgets/msgbox/../../../../src/core/lv_obj_style_gen.h ****     lv_style_value_t v = lv_obj_get_style_prop(obj, part, LV_STYLE_IMG_RECOLOR);
 352:Drivers/lvgl/src/extra/widgets/msgbox/../../../../src/core/lv_obj_style_gen.h ****     return v.color;
 353:Drivers/lvgl/src/extra/widgets/msgbox/../../../../src/core/lv_obj_style_gen.h **** }
 354:Drivers/lvgl/src/extra/widgets/msgbox/../../../../src/core/lv_obj_style_gen.h **** 
 355:Drivers/lvgl/src/extra/widgets/msgbox/../../../../src/core/lv_obj_style_gen.h **** static inline lv_color_t lv_obj_get_style_img_recolor_filtered(const struct _lv_obj_t * obj, uint32
 356:Drivers/lvgl/src/extra/widgets/msgbox/../../../../src/core/lv_obj_style_gen.h **** {
 357:Drivers/lvgl/src/extra/widgets/msgbox/../../../../src/core/lv_obj_style_gen.h ****     lv_style_value_t v = _lv_obj_style_apply_color_filter(obj, part, lv_obj_get_style_prop(obj, par
 358:Drivers/lvgl/src/extra/widgets/msgbox/../../../../src/core/lv_obj_style_gen.h ****     return v.color;
 359:Drivers/lvgl/src/extra/widgets/msgbox/../../../../src/core/lv_obj_style_gen.h **** }
 360:Drivers/lvgl/src/extra/widgets/msgbox/../../../../src/core/lv_obj_style_gen.h **** 
 361:Drivers/lvgl/src/extra/widgets/msgbox/../../../../src/core/lv_obj_style_gen.h **** static inline lv_opa_t lv_obj_get_style_img_recolor_opa(const struct _lv_obj_t * obj, uint32_t part
 362:Drivers/lvgl/src/extra/widgets/msgbox/../../../../src/core/lv_obj_style_gen.h **** {
 363:Drivers/lvgl/src/extra/widgets/msgbox/../../../../src/core/lv_obj_style_gen.h ****     lv_style_value_t v = lv_obj_get_style_prop(obj, part, LV_STYLE_IMG_RECOLOR_OPA);
ARM GAS  /var/folders/0z/tsy30v1j4xl4_7kw94k978ww0000gn/T//ccLT6Yh4.s 			page 20


 364:Drivers/lvgl/src/extra/widgets/msgbox/../../../../src/core/lv_obj_style_gen.h ****     return (lv_opa_t)v.num;
 365:Drivers/lvgl/src/extra/widgets/msgbox/../../../../src/core/lv_obj_style_gen.h **** }
 366:Drivers/lvgl/src/extra/widgets/msgbox/../../../../src/core/lv_obj_style_gen.h **** 
 367:Drivers/lvgl/src/extra/widgets/msgbox/../../../../src/core/lv_obj_style_gen.h **** static inline lv_coord_t lv_obj_get_style_line_width(const struct _lv_obj_t * obj, uint32_t part)
 368:Drivers/lvgl/src/extra/widgets/msgbox/../../../../src/core/lv_obj_style_gen.h **** {
 369:Drivers/lvgl/src/extra/widgets/msgbox/../../../../src/core/lv_obj_style_gen.h ****     lv_style_value_t v = lv_obj_get_style_prop(obj, part, LV_STYLE_LINE_WIDTH);
 370:Drivers/lvgl/src/extra/widgets/msgbox/../../../../src/core/lv_obj_style_gen.h ****     return (lv_coord_t)v.num;
 371:Drivers/lvgl/src/extra/widgets/msgbox/../../../../src/core/lv_obj_style_gen.h **** }
 372:Drivers/lvgl/src/extra/widgets/msgbox/../../../../src/core/lv_obj_style_gen.h **** 
 373:Drivers/lvgl/src/extra/widgets/msgbox/../../../../src/core/lv_obj_style_gen.h **** static inline lv_coord_t lv_obj_get_style_line_dash_width(const struct _lv_obj_t * obj, uint32_t pa
 374:Drivers/lvgl/src/extra/widgets/msgbox/../../../../src/core/lv_obj_style_gen.h **** {
 375:Drivers/lvgl/src/extra/widgets/msgbox/../../../../src/core/lv_obj_style_gen.h ****     lv_style_value_t v = lv_obj_get_style_prop(obj, part, LV_STYLE_LINE_DASH_WIDTH);
 376:Drivers/lvgl/src/extra/widgets/msgbox/../../../../src/core/lv_obj_style_gen.h ****     return (lv_coord_t)v.num;
 377:Drivers/lvgl/src/extra/widgets/msgbox/../../../../src/core/lv_obj_style_gen.h **** }
 378:Drivers/lvgl/src/extra/widgets/msgbox/../../../../src/core/lv_obj_style_gen.h **** 
 379:Drivers/lvgl/src/extra/widgets/msgbox/../../../../src/core/lv_obj_style_gen.h **** static inline lv_coord_t lv_obj_get_style_line_dash_gap(const struct _lv_obj_t * obj, uint32_t part
 380:Drivers/lvgl/src/extra/widgets/msgbox/../../../../src/core/lv_obj_style_gen.h **** {
 381:Drivers/lvgl/src/extra/widgets/msgbox/../../../../src/core/lv_obj_style_gen.h ****     lv_style_value_t v = lv_obj_get_style_prop(obj, part, LV_STYLE_LINE_DASH_GAP);
 382:Drivers/lvgl/src/extra/widgets/msgbox/../../../../src/core/lv_obj_style_gen.h ****     return (lv_coord_t)v.num;
 383:Drivers/lvgl/src/extra/widgets/msgbox/../../../../src/core/lv_obj_style_gen.h **** }
 384:Drivers/lvgl/src/extra/widgets/msgbox/../../../../src/core/lv_obj_style_gen.h **** 
 385:Drivers/lvgl/src/extra/widgets/msgbox/../../../../src/core/lv_obj_style_gen.h **** static inline bool lv_obj_get_style_line_rounded(const struct _lv_obj_t * obj, uint32_t part)
 386:Drivers/lvgl/src/extra/widgets/msgbox/../../../../src/core/lv_obj_style_gen.h **** {
 387:Drivers/lvgl/src/extra/widgets/msgbox/../../../../src/core/lv_obj_style_gen.h ****     lv_style_value_t v = lv_obj_get_style_prop(obj, part, LV_STYLE_LINE_ROUNDED);
 388:Drivers/lvgl/src/extra/widgets/msgbox/../../../../src/core/lv_obj_style_gen.h ****     return (bool)v.num;
 389:Drivers/lvgl/src/extra/widgets/msgbox/../../../../src/core/lv_obj_style_gen.h **** }
 390:Drivers/lvgl/src/extra/widgets/msgbox/../../../../src/core/lv_obj_style_gen.h **** 
 391:Drivers/lvgl/src/extra/widgets/msgbox/../../../../src/core/lv_obj_style_gen.h **** static inline lv_color_t lv_obj_get_style_line_color(const struct _lv_obj_t * obj, uint32_t part)
 392:Drivers/lvgl/src/extra/widgets/msgbox/../../../../src/core/lv_obj_style_gen.h **** {
 393:Drivers/lvgl/src/extra/widgets/msgbox/../../../../src/core/lv_obj_style_gen.h ****     lv_style_value_t v = lv_obj_get_style_prop(obj, part, LV_STYLE_LINE_COLOR);
 394:Drivers/lvgl/src/extra/widgets/msgbox/../../../../src/core/lv_obj_style_gen.h ****     return v.color;
 395:Drivers/lvgl/src/extra/widgets/msgbox/../../../../src/core/lv_obj_style_gen.h **** }
 396:Drivers/lvgl/src/extra/widgets/msgbox/../../../../src/core/lv_obj_style_gen.h **** 
 397:Drivers/lvgl/src/extra/widgets/msgbox/../../../../src/core/lv_obj_style_gen.h **** static inline lv_color_t lv_obj_get_style_line_color_filtered(const struct _lv_obj_t * obj, uint32_
 398:Drivers/lvgl/src/extra/widgets/msgbox/../../../../src/core/lv_obj_style_gen.h **** {
 399:Drivers/lvgl/src/extra/widgets/msgbox/../../../../src/core/lv_obj_style_gen.h ****     lv_style_value_t v = _lv_obj_style_apply_color_filter(obj, part, lv_obj_get_style_prop(obj, par
 400:Drivers/lvgl/src/extra/widgets/msgbox/../../../../src/core/lv_obj_style_gen.h ****     return v.color;
 401:Drivers/lvgl/src/extra/widgets/msgbox/../../../../src/core/lv_obj_style_gen.h **** }
 402:Drivers/lvgl/src/extra/widgets/msgbox/../../../../src/core/lv_obj_style_gen.h **** 
 403:Drivers/lvgl/src/extra/widgets/msgbox/../../../../src/core/lv_obj_style_gen.h **** static inline lv_opa_t lv_obj_get_style_line_opa(const struct _lv_obj_t * obj, uint32_t part)
 404:Drivers/lvgl/src/extra/widgets/msgbox/../../../../src/core/lv_obj_style_gen.h **** {
 405:Drivers/lvgl/src/extra/widgets/msgbox/../../../../src/core/lv_obj_style_gen.h ****     lv_style_value_t v = lv_obj_get_style_prop(obj, part, LV_STYLE_LINE_OPA);
 406:Drivers/lvgl/src/extra/widgets/msgbox/../../../../src/core/lv_obj_style_gen.h ****     return (lv_opa_t)v.num;
 407:Drivers/lvgl/src/extra/widgets/msgbox/../../../../src/core/lv_obj_style_gen.h **** }
 408:Drivers/lvgl/src/extra/widgets/msgbox/../../../../src/core/lv_obj_style_gen.h **** 
 409:Drivers/lvgl/src/extra/widgets/msgbox/../../../../src/core/lv_obj_style_gen.h **** static inline lv_coord_t lv_obj_get_style_arc_width(const struct _lv_obj_t * obj, uint32_t part)
 410:Drivers/lvgl/src/extra/widgets/msgbox/../../../../src/core/lv_obj_style_gen.h **** {
 411:Drivers/lvgl/src/extra/widgets/msgbox/../../../../src/core/lv_obj_style_gen.h ****     lv_style_value_t v = lv_obj_get_style_prop(obj, part, LV_STYLE_ARC_WIDTH);
 412:Drivers/lvgl/src/extra/widgets/msgbox/../../../../src/core/lv_obj_style_gen.h ****     return (lv_coord_t)v.num;
 413:Drivers/lvgl/src/extra/widgets/msgbox/../../../../src/core/lv_obj_style_gen.h **** }
 414:Drivers/lvgl/src/extra/widgets/msgbox/../../../../src/core/lv_obj_style_gen.h **** 
 415:Drivers/lvgl/src/extra/widgets/msgbox/../../../../src/core/lv_obj_style_gen.h **** static inline bool lv_obj_get_style_arc_rounded(const struct _lv_obj_t * obj, uint32_t part)
 416:Drivers/lvgl/src/extra/widgets/msgbox/../../../../src/core/lv_obj_style_gen.h **** {
 417:Drivers/lvgl/src/extra/widgets/msgbox/../../../../src/core/lv_obj_style_gen.h ****     lv_style_value_t v = lv_obj_get_style_prop(obj, part, LV_STYLE_ARC_ROUNDED);
 418:Drivers/lvgl/src/extra/widgets/msgbox/../../../../src/core/lv_obj_style_gen.h ****     return (bool)v.num;
 419:Drivers/lvgl/src/extra/widgets/msgbox/../../../../src/core/lv_obj_style_gen.h **** }
 420:Drivers/lvgl/src/extra/widgets/msgbox/../../../../src/core/lv_obj_style_gen.h **** 
ARM GAS  /var/folders/0z/tsy30v1j4xl4_7kw94k978ww0000gn/T//ccLT6Yh4.s 			page 21


 421:Drivers/lvgl/src/extra/widgets/msgbox/../../../../src/core/lv_obj_style_gen.h **** static inline lv_color_t lv_obj_get_style_arc_color(const struct _lv_obj_t * obj, uint32_t part)
 422:Drivers/lvgl/src/extra/widgets/msgbox/../../../../src/core/lv_obj_style_gen.h **** {
 423:Drivers/lvgl/src/extra/widgets/msgbox/../../../../src/core/lv_obj_style_gen.h ****     lv_style_value_t v = lv_obj_get_style_prop(obj, part, LV_STYLE_ARC_COLOR);
 424:Drivers/lvgl/src/extra/widgets/msgbox/../../../../src/core/lv_obj_style_gen.h ****     return v.color;
 425:Drivers/lvgl/src/extra/widgets/msgbox/../../../../src/core/lv_obj_style_gen.h **** }
 426:Drivers/lvgl/src/extra/widgets/msgbox/../../../../src/core/lv_obj_style_gen.h **** 
 427:Drivers/lvgl/src/extra/widgets/msgbox/../../../../src/core/lv_obj_style_gen.h **** static inline lv_color_t lv_obj_get_style_arc_color_filtered(const struct _lv_obj_t * obj, uint32_t
 428:Drivers/lvgl/src/extra/widgets/msgbox/../../../../src/core/lv_obj_style_gen.h **** {
 429:Drivers/lvgl/src/extra/widgets/msgbox/../../../../src/core/lv_obj_style_gen.h ****     lv_style_value_t v = _lv_obj_style_apply_color_filter(obj, part, lv_obj_get_style_prop(obj, par
 430:Drivers/lvgl/src/extra/widgets/msgbox/../../../../src/core/lv_obj_style_gen.h ****     return v.color;
 431:Drivers/lvgl/src/extra/widgets/msgbox/../../../../src/core/lv_obj_style_gen.h **** }
 432:Drivers/lvgl/src/extra/widgets/msgbox/../../../../src/core/lv_obj_style_gen.h **** 
 433:Drivers/lvgl/src/extra/widgets/msgbox/../../../../src/core/lv_obj_style_gen.h **** static inline lv_opa_t lv_obj_get_style_arc_opa(const struct _lv_obj_t * obj, uint32_t part)
 434:Drivers/lvgl/src/extra/widgets/msgbox/../../../../src/core/lv_obj_style_gen.h **** {
 435:Drivers/lvgl/src/extra/widgets/msgbox/../../../../src/core/lv_obj_style_gen.h ****     lv_style_value_t v = lv_obj_get_style_prop(obj, part, LV_STYLE_ARC_OPA);
 436:Drivers/lvgl/src/extra/widgets/msgbox/../../../../src/core/lv_obj_style_gen.h ****     return (lv_opa_t)v.num;
 437:Drivers/lvgl/src/extra/widgets/msgbox/../../../../src/core/lv_obj_style_gen.h **** }
 438:Drivers/lvgl/src/extra/widgets/msgbox/../../../../src/core/lv_obj_style_gen.h **** 
 439:Drivers/lvgl/src/extra/widgets/msgbox/../../../../src/core/lv_obj_style_gen.h **** static inline const void * lv_obj_get_style_arc_img_src(const struct _lv_obj_t * obj, uint32_t part
 440:Drivers/lvgl/src/extra/widgets/msgbox/../../../../src/core/lv_obj_style_gen.h **** {
 441:Drivers/lvgl/src/extra/widgets/msgbox/../../../../src/core/lv_obj_style_gen.h ****     lv_style_value_t v = lv_obj_get_style_prop(obj, part, LV_STYLE_ARC_IMG_SRC);
 442:Drivers/lvgl/src/extra/widgets/msgbox/../../../../src/core/lv_obj_style_gen.h ****     return (const void *)v.ptr;
 443:Drivers/lvgl/src/extra/widgets/msgbox/../../../../src/core/lv_obj_style_gen.h **** }
 444:Drivers/lvgl/src/extra/widgets/msgbox/../../../../src/core/lv_obj_style_gen.h **** 
 445:Drivers/lvgl/src/extra/widgets/msgbox/../../../../src/core/lv_obj_style_gen.h **** static inline lv_color_t lv_obj_get_style_text_color(const struct _lv_obj_t * obj, uint32_t part)
 446:Drivers/lvgl/src/extra/widgets/msgbox/../../../../src/core/lv_obj_style_gen.h **** {
 447:Drivers/lvgl/src/extra/widgets/msgbox/../../../../src/core/lv_obj_style_gen.h ****     lv_style_value_t v = lv_obj_get_style_prop(obj, part, LV_STYLE_TEXT_COLOR);
 448:Drivers/lvgl/src/extra/widgets/msgbox/../../../../src/core/lv_obj_style_gen.h ****     return v.color;
 449:Drivers/lvgl/src/extra/widgets/msgbox/../../../../src/core/lv_obj_style_gen.h **** }
 450:Drivers/lvgl/src/extra/widgets/msgbox/../../../../src/core/lv_obj_style_gen.h **** 
 451:Drivers/lvgl/src/extra/widgets/msgbox/../../../../src/core/lv_obj_style_gen.h **** static inline lv_color_t lv_obj_get_style_text_color_filtered(const struct _lv_obj_t * obj, uint32_
 452:Drivers/lvgl/src/extra/widgets/msgbox/../../../../src/core/lv_obj_style_gen.h **** {
 453:Drivers/lvgl/src/extra/widgets/msgbox/../../../../src/core/lv_obj_style_gen.h ****     lv_style_value_t v = _lv_obj_style_apply_color_filter(obj, part, lv_obj_get_style_prop(obj, par
 454:Drivers/lvgl/src/extra/widgets/msgbox/../../../../src/core/lv_obj_style_gen.h ****     return v.color;
 455:Drivers/lvgl/src/extra/widgets/msgbox/../../../../src/core/lv_obj_style_gen.h **** }
 456:Drivers/lvgl/src/extra/widgets/msgbox/../../../../src/core/lv_obj_style_gen.h **** 
 457:Drivers/lvgl/src/extra/widgets/msgbox/../../../../src/core/lv_obj_style_gen.h **** static inline lv_opa_t lv_obj_get_style_text_opa(const struct _lv_obj_t * obj, uint32_t part)
 458:Drivers/lvgl/src/extra/widgets/msgbox/../../../../src/core/lv_obj_style_gen.h **** {
 459:Drivers/lvgl/src/extra/widgets/msgbox/../../../../src/core/lv_obj_style_gen.h ****     lv_style_value_t v = lv_obj_get_style_prop(obj, part, LV_STYLE_TEXT_OPA);
 460:Drivers/lvgl/src/extra/widgets/msgbox/../../../../src/core/lv_obj_style_gen.h ****     return (lv_opa_t)v.num;
 461:Drivers/lvgl/src/extra/widgets/msgbox/../../../../src/core/lv_obj_style_gen.h **** }
 462:Drivers/lvgl/src/extra/widgets/msgbox/../../../../src/core/lv_obj_style_gen.h **** 
 463:Drivers/lvgl/src/extra/widgets/msgbox/../../../../src/core/lv_obj_style_gen.h **** static inline const lv_font_t * lv_obj_get_style_text_font(const struct _lv_obj_t * obj, uint32_t p
 361              		.loc 3 463 33 discriminator 4 view .LVU111
 362              	.LBB37:
 464:Drivers/lvgl/src/extra/widgets/msgbox/../../../../src/core/lv_obj_style_gen.h **** {
 465:Drivers/lvgl/src/extra/widgets/msgbox/../../../../src/core/lv_obj_style_gen.h ****     lv_style_value_t v = lv_obj_get_style_prop(obj, part, LV_STYLE_TEXT_FONT);
 363              		.loc 3 465 5 discriminator 4 view .LVU112
 364              		.loc 3 465 26 is_stmt 0 discriminator 4 view .LVU113
 365 0166 5722     		movs	r2, #87
 366 0168 0021     		movs	r1, #0
 367 016a A06A     		ldr	r0, [r4, #40]
 368 016c FFF7FEFF 		bl	lv_obj_get_style_prop
 369              	.LVL43:
 466:Drivers/lvgl/src/extra/widgets/msgbox/../../../../src/core/lv_obj_style_gen.h ****     return (const lv_font_t *)v.ptr;
 370              		.loc 3 466 5 is_stmt 1 discriminator 4 view .LVU114
 371              		.loc 3 466 5 is_stmt 0 discriminator 4 view .LVU115
ARM GAS  /var/folders/0z/tsy30v1j4xl4_7kw94k978ww0000gn/T//ccLT6Yh4.s 			page 22


 372              	.LBE37:
 373              	.LBE36:
 103:Drivers/lvgl/src/extra/widgets/msgbox/lv_msgbox.c ****         lv_obj_set_size(mbox->close_btn, close_btn_size, close_btn_size);
 374              		.loc 1 103 9 is_stmt 1 discriminator 4 view .LVU116
 375              	.LBB38:
 376              	.LBI38:
 377              		.file 4 "Drivers/lvgl/src/extra/widgets/msgbox/../../../../src/hal/../draw/../misc/../font/lv_font
   1:Drivers/lvgl/src/extra/widgets/msgbox/../../../../src/hal/../draw/../misc/../font/lv_font.h **** /**
   2:Drivers/lvgl/src/extra/widgets/msgbox/../../../../src/hal/../draw/../misc/../font/lv_font.h ****  * @file lv_font.h
   3:Drivers/lvgl/src/extra/widgets/msgbox/../../../../src/hal/../draw/../misc/../font/lv_font.h ****  *
   4:Drivers/lvgl/src/extra/widgets/msgbox/../../../../src/hal/../draw/../misc/../font/lv_font.h ****  */
   5:Drivers/lvgl/src/extra/widgets/msgbox/../../../../src/hal/../draw/../misc/../font/lv_font.h **** 
   6:Drivers/lvgl/src/extra/widgets/msgbox/../../../../src/hal/../draw/../misc/../font/lv_font.h **** #ifndef LV_FONT_H
   7:Drivers/lvgl/src/extra/widgets/msgbox/../../../../src/hal/../draw/../misc/../font/lv_font.h **** #define LV_FONT_H
   8:Drivers/lvgl/src/extra/widgets/msgbox/../../../../src/hal/../draw/../misc/../font/lv_font.h **** 
   9:Drivers/lvgl/src/extra/widgets/msgbox/../../../../src/hal/../draw/../misc/../font/lv_font.h **** #ifdef __cplusplus
  10:Drivers/lvgl/src/extra/widgets/msgbox/../../../../src/hal/../draw/../misc/../font/lv_font.h **** extern "C" {
  11:Drivers/lvgl/src/extra/widgets/msgbox/../../../../src/hal/../draw/../misc/../font/lv_font.h **** #endif
  12:Drivers/lvgl/src/extra/widgets/msgbox/../../../../src/hal/../draw/../misc/../font/lv_font.h **** 
  13:Drivers/lvgl/src/extra/widgets/msgbox/../../../../src/hal/../draw/../misc/../font/lv_font.h **** /*********************
  14:Drivers/lvgl/src/extra/widgets/msgbox/../../../../src/hal/../draw/../misc/../font/lv_font.h ****  *      INCLUDES
  15:Drivers/lvgl/src/extra/widgets/msgbox/../../../../src/hal/../draw/../misc/../font/lv_font.h ****  *********************/
  16:Drivers/lvgl/src/extra/widgets/msgbox/../../../../src/hal/../draw/../misc/../font/lv_font.h **** #include "../lv_conf_internal.h"
  17:Drivers/lvgl/src/extra/widgets/msgbox/../../../../src/hal/../draw/../misc/../font/lv_font.h **** #include <stdint.h>
  18:Drivers/lvgl/src/extra/widgets/msgbox/../../../../src/hal/../draw/../misc/../font/lv_font.h **** #include <stddef.h>
  19:Drivers/lvgl/src/extra/widgets/msgbox/../../../../src/hal/../draw/../misc/../font/lv_font.h **** #include <stdbool.h>
  20:Drivers/lvgl/src/extra/widgets/msgbox/../../../../src/hal/../draw/../misc/../font/lv_font.h **** 
  21:Drivers/lvgl/src/extra/widgets/msgbox/../../../../src/hal/../draw/../misc/../font/lv_font.h **** #include "lv_symbol_def.h"
  22:Drivers/lvgl/src/extra/widgets/msgbox/../../../../src/hal/../draw/../misc/../font/lv_font.h **** #include "../misc/lv_area.h"
  23:Drivers/lvgl/src/extra/widgets/msgbox/../../../../src/hal/../draw/../misc/../font/lv_font.h **** 
  24:Drivers/lvgl/src/extra/widgets/msgbox/../../../../src/hal/../draw/../misc/../font/lv_font.h **** /*********************
  25:Drivers/lvgl/src/extra/widgets/msgbox/../../../../src/hal/../draw/../misc/../font/lv_font.h ****  *      DEFINES
  26:Drivers/lvgl/src/extra/widgets/msgbox/../../../../src/hal/../draw/../misc/../font/lv_font.h ****  *********************/
  27:Drivers/lvgl/src/extra/widgets/msgbox/../../../../src/hal/../draw/../misc/../font/lv_font.h **** 
  28:Drivers/lvgl/src/extra/widgets/msgbox/../../../../src/hal/../draw/../misc/../font/lv_font.h **** /* imgfont identifier */
  29:Drivers/lvgl/src/extra/widgets/msgbox/../../../../src/hal/../draw/../misc/../font/lv_font.h **** #define LV_IMGFONT_BPP 9
  30:Drivers/lvgl/src/extra/widgets/msgbox/../../../../src/hal/../draw/../misc/../font/lv_font.h **** 
  31:Drivers/lvgl/src/extra/widgets/msgbox/../../../../src/hal/../draw/../misc/../font/lv_font.h **** /**********************
  32:Drivers/lvgl/src/extra/widgets/msgbox/../../../../src/hal/../draw/../misc/../font/lv_font.h ****  *      TYPEDEFS
  33:Drivers/lvgl/src/extra/widgets/msgbox/../../../../src/hal/../draw/../misc/../font/lv_font.h ****  **********************/
  34:Drivers/lvgl/src/extra/widgets/msgbox/../../../../src/hal/../draw/../misc/../font/lv_font.h **** 
  35:Drivers/lvgl/src/extra/widgets/msgbox/../../../../src/hal/../draw/../misc/../font/lv_font.h **** /*------------------
  36:Drivers/lvgl/src/extra/widgets/msgbox/../../../../src/hal/../draw/../misc/../font/lv_font.h ****  * General types
  37:Drivers/lvgl/src/extra/widgets/msgbox/../../../../src/hal/../draw/../misc/../font/lv_font.h ****  *-----------------*/
  38:Drivers/lvgl/src/extra/widgets/msgbox/../../../../src/hal/../draw/../misc/../font/lv_font.h **** 
  39:Drivers/lvgl/src/extra/widgets/msgbox/../../../../src/hal/../draw/../misc/../font/lv_font.h **** struct _lv_font_t;
  40:Drivers/lvgl/src/extra/widgets/msgbox/../../../../src/hal/../draw/../misc/../font/lv_font.h **** /** Describes the properties of a glyph.*/
  41:Drivers/lvgl/src/extra/widgets/msgbox/../../../../src/hal/../draw/../misc/../font/lv_font.h **** typedef struct {
  42:Drivers/lvgl/src/extra/widgets/msgbox/../../../../src/hal/../draw/../misc/../font/lv_font.h ****     const struct _lv_font_t *
  43:Drivers/lvgl/src/extra/widgets/msgbox/../../../../src/hal/../draw/../misc/../font/lv_font.h ****         resolved_font; /**< Pointer to a font where the glyph was actually found after handling fal
  44:Drivers/lvgl/src/extra/widgets/msgbox/../../../../src/hal/../draw/../misc/../font/lv_font.h ****     uint16_t adv_w; /**< The glyph needs this space. Draw the next glyph after this width.*/
  45:Drivers/lvgl/src/extra/widgets/msgbox/../../../../src/hal/../draw/../misc/../font/lv_font.h ****     uint16_t box_w; /**< Width of the glyph's bounding box*/
  46:Drivers/lvgl/src/extra/widgets/msgbox/../../../../src/hal/../draw/../misc/../font/lv_font.h ****     uint16_t box_h; /**< Height of the glyph's bounding box*/
  47:Drivers/lvgl/src/extra/widgets/msgbox/../../../../src/hal/../draw/../misc/../font/lv_font.h ****     int16_t ofs_x;  /**< x offset of the bounding box*/
  48:Drivers/lvgl/src/extra/widgets/msgbox/../../../../src/hal/../draw/../misc/../font/lv_font.h ****     int16_t ofs_y;  /**< y offset of the bounding box*/
  49:Drivers/lvgl/src/extra/widgets/msgbox/../../../../src/hal/../draw/../misc/../font/lv_font.h ****     uint8_t bpp: 4;  /**< Bit-per-pixel: 1, 2, 4, 8*/
  50:Drivers/lvgl/src/extra/widgets/msgbox/../../../../src/hal/../draw/../misc/../font/lv_font.h ****     uint8_t is_placeholder: 1; /** Glyph is missing. But placeholder will still be displayed */
ARM GAS  /var/folders/0z/tsy30v1j4xl4_7kw94k978ww0000gn/T//ccLT6Yh4.s 			page 23


  51:Drivers/lvgl/src/extra/widgets/msgbox/../../../../src/hal/../draw/../misc/../font/lv_font.h **** } lv_font_glyph_dsc_t;
  52:Drivers/lvgl/src/extra/widgets/msgbox/../../../../src/hal/../draw/../misc/../font/lv_font.h **** 
  53:Drivers/lvgl/src/extra/widgets/msgbox/../../../../src/hal/../draw/../misc/../font/lv_font.h **** /** The bitmaps might be upscaled by 3 to achieve subpixel rendering.*/
  54:Drivers/lvgl/src/extra/widgets/msgbox/../../../../src/hal/../draw/../misc/../font/lv_font.h **** enum {
  55:Drivers/lvgl/src/extra/widgets/msgbox/../../../../src/hal/../draw/../misc/../font/lv_font.h ****     LV_FONT_SUBPX_NONE,
  56:Drivers/lvgl/src/extra/widgets/msgbox/../../../../src/hal/../draw/../misc/../font/lv_font.h ****     LV_FONT_SUBPX_HOR,
  57:Drivers/lvgl/src/extra/widgets/msgbox/../../../../src/hal/../draw/../misc/../font/lv_font.h ****     LV_FONT_SUBPX_VER,
  58:Drivers/lvgl/src/extra/widgets/msgbox/../../../../src/hal/../draw/../misc/../font/lv_font.h ****     LV_FONT_SUBPX_BOTH,
  59:Drivers/lvgl/src/extra/widgets/msgbox/../../../../src/hal/../draw/../misc/../font/lv_font.h **** };
  60:Drivers/lvgl/src/extra/widgets/msgbox/../../../../src/hal/../draw/../misc/../font/lv_font.h **** 
  61:Drivers/lvgl/src/extra/widgets/msgbox/../../../../src/hal/../draw/../misc/../font/lv_font.h **** typedef uint8_t lv_font_subpx_t;
  62:Drivers/lvgl/src/extra/widgets/msgbox/../../../../src/hal/../draw/../misc/../font/lv_font.h **** 
  63:Drivers/lvgl/src/extra/widgets/msgbox/../../../../src/hal/../draw/../misc/../font/lv_font.h **** /** Describe the properties of a font*/
  64:Drivers/lvgl/src/extra/widgets/msgbox/../../../../src/hal/../draw/../misc/../font/lv_font.h **** typedef struct _lv_font_t {
  65:Drivers/lvgl/src/extra/widgets/msgbox/../../../../src/hal/../draw/../misc/../font/lv_font.h ****     /** Get a glyph's descriptor from a font*/
  66:Drivers/lvgl/src/extra/widgets/msgbox/../../../../src/hal/../draw/../misc/../font/lv_font.h ****     bool (*get_glyph_dsc)(const struct _lv_font_t *, lv_font_glyph_dsc_t *, uint32_t letter, uint32
  67:Drivers/lvgl/src/extra/widgets/msgbox/../../../../src/hal/../draw/../misc/../font/lv_font.h **** 
  68:Drivers/lvgl/src/extra/widgets/msgbox/../../../../src/hal/../draw/../misc/../font/lv_font.h ****     /** Get a glyph's bitmap from a font*/
  69:Drivers/lvgl/src/extra/widgets/msgbox/../../../../src/hal/../draw/../misc/../font/lv_font.h ****     const uint8_t * (*get_glyph_bitmap)(const struct _lv_font_t *, uint32_t);
  70:Drivers/lvgl/src/extra/widgets/msgbox/../../../../src/hal/../draw/../misc/../font/lv_font.h **** 
  71:Drivers/lvgl/src/extra/widgets/msgbox/../../../../src/hal/../draw/../misc/../font/lv_font.h ****     /*Pointer to the font in a font pack (must have the same line height)*/
  72:Drivers/lvgl/src/extra/widgets/msgbox/../../../../src/hal/../draw/../misc/../font/lv_font.h ****     lv_coord_t line_height;         /**< The real line height where any text fits*/
  73:Drivers/lvgl/src/extra/widgets/msgbox/../../../../src/hal/../draw/../misc/../font/lv_font.h ****     lv_coord_t base_line;           /**< Base line measured from the top of the line_height*/
  74:Drivers/lvgl/src/extra/widgets/msgbox/../../../../src/hal/../draw/../misc/../font/lv_font.h ****     uint8_t subpx  : 2;             /**< An element of `lv_font_subpx_t`*/
  75:Drivers/lvgl/src/extra/widgets/msgbox/../../../../src/hal/../draw/../misc/../font/lv_font.h **** 
  76:Drivers/lvgl/src/extra/widgets/msgbox/../../../../src/hal/../draw/../misc/../font/lv_font.h ****     int8_t underline_position;      /**< Distance between the top of the underline and base line (<
  77:Drivers/lvgl/src/extra/widgets/msgbox/../../../../src/hal/../draw/../misc/../font/lv_font.h ****     int8_t underline_thickness;     /**< Thickness of the underline*/
  78:Drivers/lvgl/src/extra/widgets/msgbox/../../../../src/hal/../draw/../misc/../font/lv_font.h **** 
  79:Drivers/lvgl/src/extra/widgets/msgbox/../../../../src/hal/../draw/../misc/../font/lv_font.h ****     const void * dsc;               /**< Store implementation specific or run_time data or caching 
  80:Drivers/lvgl/src/extra/widgets/msgbox/../../../../src/hal/../draw/../misc/../font/lv_font.h ****     const struct _lv_font_t * fallback;   /**< Fallback font for missing glyph. Resolved recursivel
  81:Drivers/lvgl/src/extra/widgets/msgbox/../../../../src/hal/../draw/../misc/../font/lv_font.h **** #if LV_USE_USER_DATA
  82:Drivers/lvgl/src/extra/widgets/msgbox/../../../../src/hal/../draw/../misc/../font/lv_font.h ****     void * user_data;               /**< Custom user data for font.*/
  83:Drivers/lvgl/src/extra/widgets/msgbox/../../../../src/hal/../draw/../misc/../font/lv_font.h **** #endif
  84:Drivers/lvgl/src/extra/widgets/msgbox/../../../../src/hal/../draw/../misc/../font/lv_font.h **** } lv_font_t;
  85:Drivers/lvgl/src/extra/widgets/msgbox/../../../../src/hal/../draw/../misc/../font/lv_font.h **** 
  86:Drivers/lvgl/src/extra/widgets/msgbox/../../../../src/hal/../draw/../misc/../font/lv_font.h **** /**********************
  87:Drivers/lvgl/src/extra/widgets/msgbox/../../../../src/hal/../draw/../misc/../font/lv_font.h ****  * GLOBAL PROTOTYPES
  88:Drivers/lvgl/src/extra/widgets/msgbox/../../../../src/hal/../draw/../misc/../font/lv_font.h ****  **********************/
  89:Drivers/lvgl/src/extra/widgets/msgbox/../../../../src/hal/../draw/../misc/../font/lv_font.h **** 
  90:Drivers/lvgl/src/extra/widgets/msgbox/../../../../src/hal/../draw/../misc/../font/lv_font.h **** /**
  91:Drivers/lvgl/src/extra/widgets/msgbox/../../../../src/hal/../draw/../misc/../font/lv_font.h ****  * Return with the bitmap of a font.
  92:Drivers/lvgl/src/extra/widgets/msgbox/../../../../src/hal/../draw/../misc/../font/lv_font.h ****  * @param font_p pointer to a font
  93:Drivers/lvgl/src/extra/widgets/msgbox/../../../../src/hal/../draw/../misc/../font/lv_font.h ****  * @param letter a UNICODE character code
  94:Drivers/lvgl/src/extra/widgets/msgbox/../../../../src/hal/../draw/../misc/../font/lv_font.h ****  * @return pointer to the bitmap of the letter
  95:Drivers/lvgl/src/extra/widgets/msgbox/../../../../src/hal/../draw/../misc/../font/lv_font.h ****  */
  96:Drivers/lvgl/src/extra/widgets/msgbox/../../../../src/hal/../draw/../misc/../font/lv_font.h **** const uint8_t * lv_font_get_glyph_bitmap(const lv_font_t * font_p, uint32_t letter);
  97:Drivers/lvgl/src/extra/widgets/msgbox/../../../../src/hal/../draw/../misc/../font/lv_font.h **** 
  98:Drivers/lvgl/src/extra/widgets/msgbox/../../../../src/hal/../draw/../misc/../font/lv_font.h **** /**
  99:Drivers/lvgl/src/extra/widgets/msgbox/../../../../src/hal/../draw/../misc/../font/lv_font.h ****  * Get the descriptor of a glyph
 100:Drivers/lvgl/src/extra/widgets/msgbox/../../../../src/hal/../draw/../misc/../font/lv_font.h ****  * @param font_p pointer to font
 101:Drivers/lvgl/src/extra/widgets/msgbox/../../../../src/hal/../draw/../misc/../font/lv_font.h ****  * @param dsc_out store the result descriptor here
 102:Drivers/lvgl/src/extra/widgets/msgbox/../../../../src/hal/../draw/../misc/../font/lv_font.h ****  * @param letter a UNICODE letter code
 103:Drivers/lvgl/src/extra/widgets/msgbox/../../../../src/hal/../draw/../misc/../font/lv_font.h ****  * @param letter_next the next letter after `letter`. Used for kerning
 104:Drivers/lvgl/src/extra/widgets/msgbox/../../../../src/hal/../draw/../misc/../font/lv_font.h ****  * @return true: descriptor is successfully loaded into `dsc_out`.
 105:Drivers/lvgl/src/extra/widgets/msgbox/../../../../src/hal/../draw/../misc/../font/lv_font.h ****  *         false: the letter was not found, no data is loaded to `dsc_out`
 106:Drivers/lvgl/src/extra/widgets/msgbox/../../../../src/hal/../draw/../misc/../font/lv_font.h ****  */
 107:Drivers/lvgl/src/extra/widgets/msgbox/../../../../src/hal/../draw/../misc/../font/lv_font.h **** bool lv_font_get_glyph_dsc(const lv_font_t * font_p, lv_font_glyph_dsc_t * dsc_out, uint32_t letter
ARM GAS  /var/folders/0z/tsy30v1j4xl4_7kw94k978ww0000gn/T//ccLT6Yh4.s 			page 24


 108:Drivers/lvgl/src/extra/widgets/msgbox/../../../../src/hal/../draw/../misc/../font/lv_font.h ****                            uint32_t letter_next);
 109:Drivers/lvgl/src/extra/widgets/msgbox/../../../../src/hal/../draw/../misc/../font/lv_font.h **** 
 110:Drivers/lvgl/src/extra/widgets/msgbox/../../../../src/hal/../draw/../misc/../font/lv_font.h **** /**
 111:Drivers/lvgl/src/extra/widgets/msgbox/../../../../src/hal/../draw/../misc/../font/lv_font.h ****  * Get the width of a glyph with kerning
 112:Drivers/lvgl/src/extra/widgets/msgbox/../../../../src/hal/../draw/../misc/../font/lv_font.h ****  * @param font pointer to a font
 113:Drivers/lvgl/src/extra/widgets/msgbox/../../../../src/hal/../draw/../misc/../font/lv_font.h ****  * @param letter a UNICODE letter
 114:Drivers/lvgl/src/extra/widgets/msgbox/../../../../src/hal/../draw/../misc/../font/lv_font.h ****  * @param letter_next the next letter after `letter`. Used for kerning
 115:Drivers/lvgl/src/extra/widgets/msgbox/../../../../src/hal/../draw/../misc/../font/lv_font.h ****  * @return the width of the glyph
 116:Drivers/lvgl/src/extra/widgets/msgbox/../../../../src/hal/../draw/../misc/../font/lv_font.h ****  */
 117:Drivers/lvgl/src/extra/widgets/msgbox/../../../../src/hal/../draw/../misc/../font/lv_font.h **** uint16_t lv_font_get_glyph_width(const lv_font_t * font, uint32_t letter, uint32_t letter_next);
 118:Drivers/lvgl/src/extra/widgets/msgbox/../../../../src/hal/../draw/../misc/../font/lv_font.h **** 
 119:Drivers/lvgl/src/extra/widgets/msgbox/../../../../src/hal/../draw/../misc/../font/lv_font.h **** /**
 120:Drivers/lvgl/src/extra/widgets/msgbox/../../../../src/hal/../draw/../misc/../font/lv_font.h ****  * Get the line height of a font. All characters fit into this height
 121:Drivers/lvgl/src/extra/widgets/msgbox/../../../../src/hal/../draw/../misc/../font/lv_font.h ****  * @param font_p pointer to a font
 122:Drivers/lvgl/src/extra/widgets/msgbox/../../../../src/hal/../draw/../misc/../font/lv_font.h ****  * @return the height of a font
 123:Drivers/lvgl/src/extra/widgets/msgbox/../../../../src/hal/../draw/../misc/../font/lv_font.h ****  */
 124:Drivers/lvgl/src/extra/widgets/msgbox/../../../../src/hal/../draw/../misc/../font/lv_font.h **** static inline lv_coord_t lv_font_get_line_height(const lv_font_t * font_p)
 378              		.loc 4 124 26 discriminator 4 view .LVU117
 379              	.LBB39:
 125:Drivers/lvgl/src/extra/widgets/msgbox/../../../../src/hal/../draw/../misc/../font/lv_font.h **** {
 126:Drivers/lvgl/src/extra/widgets/msgbox/../../../../src/hal/../draw/../misc/../font/lv_font.h ****     return font_p->line_height;
 380              		.loc 4 126 5 discriminator 4 view .LVU118
 381              		.loc 4 126 18 is_stmt 0 discriminator 4 view .LVU119
 382 0170 B0F90860 		ldrsh	r6, [r0, #8]
 383              	.LVL44:
 384              		.loc 4 126 18 discriminator 4 view .LVU120
 385              	.LBE39:
 386              	.LBE38:
 103:Drivers/lvgl/src/extra/widgets/msgbox/lv_msgbox.c ****         lv_obj_set_size(mbox->close_btn, close_btn_size, close_btn_size);
 387              		.loc 1 103 37 discriminator 4 view .LVU121
 388 0174 B6B2     		uxth	r6, r6
 103:Drivers/lvgl/src/extra/widgets/msgbox/lv_msgbox.c ****         lv_obj_set_size(mbox->close_btn, close_btn_size, close_btn_size);
 389              		.loc 1 103 69 discriminator 4 view .LVU122
 390 0176 0020     		movs	r0, #0
 391              	.LVL45:
 103:Drivers/lvgl/src/extra/widgets/msgbox/lv_msgbox.c ****         lv_obj_set_size(mbox->close_btn, close_btn_size, close_btn_size);
 392              		.loc 1 103 69 discriminator 4 view .LVU123
 393 0178 FFF7FEFF 		bl	lv_disp_get_dpi
 394              	.LVL46:
 395 017c 00EB8000 		add	r0, r0, r0, lsl #2
 396 0180 4300     		lsls	r3, r0, #1
 103:Drivers/lvgl/src/extra/widgets/msgbox/lv_msgbox.c ****         lv_obj_set_size(mbox->close_btn, close_btn_size, close_btn_size);
 397              		.loc 1 103 67 discriminator 4 view .LVU124
 398 0182 EF2B     		cmp	r3, #239
 399 0184 1CDC     		bgt	.L38
 103:Drivers/lvgl/src/extra/widgets/msgbox/lv_msgbox.c ****         lv_obj_set_size(mbox->close_btn, close_btn_size, close_btn_size);
 400              		.loc 1 103 67 view .LVU125
 401 0186 0123     		movs	r3, #1
 402              	.L15:
 103:Drivers/lvgl/src/extra/widgets/msgbox/lv_msgbox.c ****         lv_obj_set_size(mbox->close_btn, close_btn_size, close_btn_size);
 403              		.loc 1 103 67 discriminator 4 view .LVU126
 404 0188 F118     		adds	r1, r6, r3
 103:Drivers/lvgl/src/extra/widgets/msgbox/lv_msgbox.c ****         lv_obj_set_size(mbox->close_btn, close_btn_size, close_btn_size);
 405              		.loc 1 103 20 discriminator 4 view .LVU127
 406 018a 09B2     		sxth	r1, r1
 407              	.LVL47:
 104:Drivers/lvgl/src/extra/widgets/msgbox/lv_msgbox.c ****         lv_obj_align(label, LV_ALIGN_CENTER, 0, 0);
ARM GAS  /var/folders/0z/tsy30v1j4xl4_7kw94k978ww0000gn/T//ccLT6Yh4.s 			page 25


 408              		.loc 1 104 9 is_stmt 1 discriminator 4 view .LVU128
 409 018c 0A46     		mov	r2, r1
 410 018e A06A     		ldr	r0, [r4, #40]
 411 0190 FFF7FEFF 		bl	lv_obj_set_size
 412              	.LVL48:
 105:Drivers/lvgl/src/extra/widgets/msgbox/lv_msgbox.c ****     }
 413              		.loc 1 105 9 discriminator 4 view .LVU129
 414 0194 0023     		movs	r3, #0
 415 0196 1A46     		mov	r2, r3
 416 0198 0921     		movs	r1, #9
 417 019a 4046     		mov	r0, r8
 418 019c FFF7FEFF 		bl	lv_obj_align
 419              	.LVL49:
 420 01a0 70E7     		b	.L13
 421              	.LVL50:
 422              	.L37:
  98:Drivers/lvgl/src/extra/widgets/msgbox/lv_msgbox.c ****         lv_obj_add_event_cb(mbox->close_btn, msgbox_close_click_event_cb, LV_EVENT_CLICKED, NULL);
 423              		.loc 1 98 52 is_stmt 0 discriminator 1 view .LVU130
 424 01a2 0020     		movs	r0, #0
 425 01a4 FFF7FEFF 		bl	lv_disp_get_dpi
 426              	.LVL51:
 427 01a8 00EB8000 		add	r0, r0, r0, lsl #2
 428 01ac 4300     		lsls	r3, r0, #1
 429 01ae 5033     		adds	r3, r3, #80
 430 01b0 304A     		ldr	r2, .L39+24
 431 01b2 82FB0312 		smull	r1, r2, r2, r3
 432 01b6 D917     		asrs	r1, r3, #31
 433 01b8 C1EBA211 		rsb	r1, r1, r2, asr #6
  98:Drivers/lvgl/src/extra/widgets/msgbox/lv_msgbox.c ****         lv_obj_add_event_cb(mbox->close_btn, msgbox_close_click_event_cb, LV_EVENT_CLICKED, NULL);
 434              		.loc 1 98 9 discriminator 1 view .LVU131
 435 01bc 09B2     		sxth	r1, r1
 436 01be C2E7     		b	.L14
 437              	.LVL52:
 438              	.L38:
 103:Drivers/lvgl/src/extra/widgets/msgbox/lv_msgbox.c ****         lv_obj_set_size(mbox->close_btn, close_btn_size, close_btn_size);
 439              		.loc 1 103 69 discriminator 1 view .LVU132
 440 01c0 0020     		movs	r0, #0
 441 01c2 FFF7FEFF 		bl	lv_disp_get_dpi
 442              	.LVL53:
 443 01c6 00EB8000 		add	r0, r0, r0, lsl #2
 444 01ca 4300     		lsls	r3, r0, #1
 445 01cc 5033     		adds	r3, r3, #80
 446 01ce 294A     		ldr	r2, .L39+24
 447 01d0 82FB0312 		smull	r1, r2, r2, r3
 448 01d4 DB17     		asrs	r3, r3, #31
 449 01d6 C3EBA213 		rsb	r3, r3, r2, asr #6
 103:Drivers/lvgl/src/extra/widgets/msgbox/lv_msgbox.c ****         lv_obj_set_size(mbox->close_btn, close_btn_size, close_btn_size);
 450              		.loc 1 103 67 discriminator 1 view .LVU133
 451 01da 9BB2     		uxth	r3, r3
 452 01dc D4E7     		b	.L15
 453              	.LVL54:
 454              	.L17:
 103:Drivers/lvgl/src/extra/widgets/msgbox/lv_msgbox.c ****         lv_obj_set_size(mbox->close_btn, close_btn_size, close_btn_size);
 455              		.loc 1 103 67 discriminator 1 view .LVU134
 456              	.LBE35:
 109:Drivers/lvgl/src/extra/widgets/msgbox/lv_msgbox.c ****     if(mbox->content == NULL) return NULL;
 457              		.loc 1 109 5 is_stmt 1 discriminator 3 view .LVU135
ARM GAS  /var/folders/0z/tsy30v1j4xl4_7kw94k978ww0000gn/T//ccLT6Yh4.s 			page 26


 109:Drivers/lvgl/src/extra/widgets/msgbox/lv_msgbox.c ****     if(mbox->content == NULL) return NULL;
 458              		.loc 1 109 5 discriminator 3 view .LVU136
 109:Drivers/lvgl/src/extra/widgets/msgbox/lv_msgbox.c ****     if(mbox->content == NULL) return NULL;
 459              		.loc 1 109 5 discriminator 3 view .LVU137
 109:Drivers/lvgl/src/extra/widgets/msgbox/lv_msgbox.c ****     if(mbox->content == NULL) return NULL;
 460              		.loc 1 109 5 discriminator 3 view .LVU138
 109:Drivers/lvgl/src/extra/widgets/msgbox/lv_msgbox.c ****     if(mbox->content == NULL) return NULL;
 461              		.loc 1 109 5 discriminator 3 view .LVU139
 462 01de FEE7     		b	.L17
 463              	.L30:
 113:Drivers/lvgl/src/extra/widgets/msgbox/lv_msgbox.c ****     if(has_txt) {
 464              		.loc 1 113 24 is_stmt 0 view .LVU140
 465 01e0 0023     		movs	r3, #0
 466 01e2 60E7     		b	.L18
 467              	.L31:
 113:Drivers/lvgl/src/extra/widgets/msgbox/lv_msgbox.c ****     if(has_txt) {
 468              		.loc 1 113 24 view .LVU141
 469 01e4 0123     		movs	r3, #1
 470 01e6 5EE7     		b	.L18
 471              	.LVL55:
 472              	.L36:
 115:Drivers/lvgl/src/extra/widgets/msgbox/lv_msgbox.c ****         lv_label_set_text(mbox->text, txt);
 473              		.loc 1 115 9 is_stmt 1 view .LVU142
 115:Drivers/lvgl/src/extra/widgets/msgbox/lv_msgbox.c ****         lv_label_set_text(mbox->text, txt);
 474              		.loc 1 115 22 is_stmt 0 view .LVU143
 475 01e8 E06A     		ldr	r0, [r4, #44]
 476 01ea FFF7FEFF 		bl	lv_label_create
 477              	.LVL56:
 115:Drivers/lvgl/src/extra/widgets/msgbox/lv_msgbox.c ****         lv_label_set_text(mbox->text, txt);
 478              		.loc 1 115 20 view .LVU144
 479 01ee 2063     		str	r0, [r4, #48]
 116:Drivers/lvgl/src/extra/widgets/msgbox/lv_msgbox.c ****         lv_label_set_long_mode(mbox->text, LV_LABEL_LONG_WRAP);
 480              		.loc 1 116 9 is_stmt 1 view .LVU145
 481 01f0 3946     		mov	r1, r7
 482 01f2 FFF7FEFF 		bl	lv_label_set_text
 483              	.LVL57:
 117:Drivers/lvgl/src/extra/widgets/msgbox/lv_msgbox.c ****         lv_obj_set_width(mbox->text, lv_pct(100));
 484              		.loc 1 117 9 view .LVU146
 485 01f6 0021     		movs	r1, #0
 486 01f8 206B     		ldr	r0, [r4, #48]
 487 01fa FFF7FEFF 		bl	lv_label_set_long_mode
 488              	.LVL58:
 118:Drivers/lvgl/src/extra/widgets/msgbox/lv_msgbox.c ****     }
 489              		.loc 1 118 9 view .LVU147
 490 01fe 42F26401 		movw	r1, #8292
 491 0202 206B     		ldr	r0, [r4, #48]
 492 0204 FFF7FEFF 		bl	lv_obj_set_width
 493              	.LVL59:
 494 0208 50E7     		b	.L19
 495              	.LVL60:
 496              	.L23:
 497              	.LBB40:
 128:Drivers/lvgl/src/extra/widgets/msgbox/lv_msgbox.c ****             btn_cnt++;
 498              		.loc 1 128 13 view .LVU148
 499              		.loc 1 128 20 is_stmt 0 view .LVU149
 500 020a 0136     		adds	r6, r6, #1
 501              	.LVL61:
ARM GAS  /var/folders/0z/tsy30v1j4xl4_7kw94k978ww0000gn/T//ccLT6Yh4.s 			page 27


 502              	.L21:
 127:Drivers/lvgl/src/extra/widgets/msgbox/lv_msgbox.c ****             btn_cnt++;
 503              		.loc 1 127 33 is_stmt 1 view .LVU150
 127:Drivers/lvgl/src/extra/widgets/msgbox/lv_msgbox.c ****             btn_cnt++;
 504              		.loc 1 127 23 is_stmt 0 view .LVU151
 505 020c 55F82630 		ldr	r3, [r5, r6, lsl #2]
 127:Drivers/lvgl/src/extra/widgets/msgbox/lv_msgbox.c ****             btn_cnt++;
 506              		.loc 1 127 33 view .LVU152
 507 0210 13B1     		cbz	r3, .L22
 127:Drivers/lvgl/src/extra/widgets/msgbox/lv_msgbox.c ****             btn_cnt++;
 508              		.loc 1 127 53 discriminator 1 view .LVU153
 509 0212 1B78     		ldrb	r3, [r3]	@ zero_extendqisi2
 127:Drivers/lvgl/src/extra/widgets/msgbox/lv_msgbox.c ****             btn_cnt++;
 510              		.loc 1 127 33 discriminator 1 view .LVU154
 511 0214 002B     		cmp	r3, #0
 512 0216 F8D1     		bne	.L23
 513              	.L22:
 129:Drivers/lvgl/src/extra/widgets/msgbox/lv_msgbox.c ****         }
 130:Drivers/lvgl/src/extra/widgets/msgbox/lv_msgbox.c **** 
 131:Drivers/lvgl/src/extra/widgets/msgbox/lv_msgbox.c ****         const lv_font_t * font = lv_obj_get_style_text_font(mbox->btns, LV_PART_ITEMS);
 514              		.loc 1 131 9 is_stmt 1 view .LVU155
 515              	.LVL62:
 516              	.LBB29:
 517              	.LBI29:
 463:Drivers/lvgl/src/extra/widgets/msgbox/../../../../src/core/lv_obj_style_gen.h **** {
 518              		.loc 3 463 33 view .LVU156
 519              	.LBB30:
 465:Drivers/lvgl/src/extra/widgets/msgbox/../../../../src/core/lv_obj_style_gen.h ****     return (const lv_font_t *)v.ptr;
 520              		.loc 3 465 5 view .LVU157
 465:Drivers/lvgl/src/extra/widgets/msgbox/../../../../src/core/lv_obj_style_gen.h ****     return (const lv_font_t *)v.ptr;
 521              		.loc 3 465 26 is_stmt 0 view .LVU158
 522 0218 5722     		movs	r2, #87
 523 021a 4FF4A021 		mov	r1, #327680
 524 021e 606B     		ldr	r0, [r4, #52]
 525 0220 FFF7FEFF 		bl	lv_obj_get_style_prop
 526              	.LVL63:
 527              		.loc 3 466 5 is_stmt 1 view .LVU159
 528              		.loc 3 466 5 is_stmt 0 view .LVU160
 529              	.LBE30:
 530              	.LBE29:
 132:Drivers/lvgl/src/extra/widgets/msgbox/lv_msgbox.c ****         lv_coord_t btn_h = lv_font_get_line_height(font) + LV_DPI_DEF / 10;
 531              		.loc 1 132 9 is_stmt 1 view .LVU161
 532              	.LBB31:
 533              	.LBI31:
 124:Drivers/lvgl/src/extra/widgets/msgbox/../../../../src/hal/../draw/../misc/../font/lv_font.h **** {
 534              		.loc 4 124 26 view .LVU162
 535              	.LBB32:
 536              		.loc 4 126 5 view .LVU163
 537              		.loc 4 126 18 is_stmt 0 view .LVU164
 538 0224 B0F90820 		ldrsh	r2, [r0, #8]
 539              	.LVL64:
 540              		.loc 4 126 18 view .LVU165
 541              	.LBE32:
 542              	.LBE31:
 543              		.loc 1 132 28 view .LVU166
 544 0228 92B2     		uxth	r2, r2
 545              		.loc 1 132 58 view .LVU167
ARM GAS  /var/folders/0z/tsy30v1j4xl4_7kw94k978ww0000gn/T//ccLT6Yh4.s 			page 28


 546 022a 0D32     		adds	r2, r2, #13
 547              	.LVL65:
 133:Drivers/lvgl/src/extra/widgets/msgbox/lv_msgbox.c ****         lv_obj_set_size(mbox->btns, btn_cnt * (2 * LV_DPI_DEF / 3), btn_h);
 548              		.loc 1 133 9 is_stmt 1 view .LVU168
 549 022c 06EB8603 		add	r3, r6, r6, lsl #2
 550 0230 03EB0313 		add	r3, r3, r3, lsl #4
 551 0234 F118     		adds	r1, r6, r3
 552 0236 12B2     		sxth	r2, r2
 553              		.loc 1 133 9 is_stmt 0 view .LVU169
 554 0238 09B2     		sxth	r1, r1
 555 023a 606B     		ldr	r0, [r4, #52]
 556              	.LVL66:
 557              		.loc 1 133 9 view .LVU170
 558 023c FFF7FEFF 		bl	lv_obj_set_size
 559              	.LVL67:
 134:Drivers/lvgl/src/extra/widgets/msgbox/lv_msgbox.c ****         lv_obj_set_style_max_width(mbox->btns, lv_pct(100), 0);
 560              		.loc 1 134 9 is_stmt 1 view .LVU171
 561 0240 0022     		movs	r2, #0
 562 0242 42F26401 		movw	r1, #8292
 563 0246 606B     		ldr	r0, [r4, #52]
 564 0248 FFF7FEFF 		bl	lv_obj_set_style_max_width
 565              	.LVL68:
 135:Drivers/lvgl/src/extra/widgets/msgbox/lv_msgbox.c ****         lv_obj_add_flag(mbox->btns, LV_OBJ_FLAG_EVENT_BUBBLE);    /*To see the event directly on th
 566              		.loc 1 135 9 view .LVU172
 567 024c 4FF48041 		mov	r1, #16384
 568 0250 606B     		ldr	r0, [r4, #52]
 569 0252 FFF7FEFF 		bl	lv_obj_add_flag
 570              	.LVL69:
 571              	.LBE40:
 136:Drivers/lvgl/src/extra/widgets/msgbox/lv_msgbox.c ****     }
 137:Drivers/lvgl/src/extra/widgets/msgbox/lv_msgbox.c **** 
 138:Drivers/lvgl/src/extra/widgets/msgbox/lv_msgbox.c ****     return obj;
 572              		.loc 1 138 5 view .LVU173
 573              	.L1:
 139:Drivers/lvgl/src/extra/widgets/msgbox/lv_msgbox.c **** }
 574              		.loc 1 139 1 is_stmt 0 view .LVU174
 575 0256 2046     		mov	r0, r4
 576 0258 BDE8F883 		pop	{r3, r4, r5, r6, r7, r8, r9, pc}
 577              	.LVL70:
 578              	.L40:
 579              		.loc 1 139 1 view .LVU175
 580              		.align	2
 581              	.L39:
 582 025c 00000000 		.word	.LANCHOR1
 583 0260 00000000 		.word	.LC0
 584 0264 00000000 		.word	.LANCHOR2
 585 0268 00000000 		.word	.LANCHOR0
 586 026c 00000000 		.word	msgbox_close_click_event_cb
 587 0270 04000000 		.word	.LC1
 588 0274 67666666 		.word	1717986919
 589              		.cfi_endproc
 590              	.LFE204:
 592              		.section	.text.lv_msgbox_get_title,"ax",%progbits
 593              		.align	1
 594              		.global	lv_msgbox_get_title
 595              		.syntax unified
 596              		.thumb
ARM GAS  /var/folders/0z/tsy30v1j4xl4_7kw94k978ww0000gn/T//ccLT6Yh4.s 			page 29


 597              		.thumb_func
 599              	lv_msgbox_get_title:
 600              	.LVL71:
 601              	.LFB205:
 140:Drivers/lvgl/src/extra/widgets/msgbox/lv_msgbox.c **** 
 141:Drivers/lvgl/src/extra/widgets/msgbox/lv_msgbox.c **** 
 142:Drivers/lvgl/src/extra/widgets/msgbox/lv_msgbox.c **** lv_obj_t * lv_msgbox_get_title(lv_obj_t * obj)
 143:Drivers/lvgl/src/extra/widgets/msgbox/lv_msgbox.c **** {
 602              		.loc 1 143 1 is_stmt 1 view -0
 603              		.cfi_startproc
 604              		@ args = 0, pretend = 0, frame = 0
 605              		@ frame_needed = 0, uses_anonymous_args = 0
 606              		@ link register save eliminated.
 144:Drivers/lvgl/src/extra/widgets/msgbox/lv_msgbox.c ****     LV_ASSERT_OBJ(obj, MY_CLASS);
 607              		.loc 1 144 5 view .LVU177
 608              		.loc 1 144 5 view .LVU178
 609              		.loc 1 144 5 view .LVU179
 145:Drivers/lvgl/src/extra/widgets/msgbox/lv_msgbox.c ****     lv_msgbox_t * mbox = (lv_msgbox_t *)obj;
 610              		.loc 1 145 5 view .LVU180
 146:Drivers/lvgl/src/extra/widgets/msgbox/lv_msgbox.c ****     return mbox->title;
 611              		.loc 1 146 5 view .LVU181
 147:Drivers/lvgl/src/extra/widgets/msgbox/lv_msgbox.c **** }
 612              		.loc 1 147 1 is_stmt 0 view .LVU182
 613 0000 406A     		ldr	r0, [r0, #36]
 614              	.LVL72:
 615              		.loc 1 147 1 view .LVU183
 616 0002 7047     		bx	lr
 617              		.cfi_endproc
 618              	.LFE205:
 620              		.section	.text.lv_msgbox_get_close_btn,"ax",%progbits
 621              		.align	1
 622              		.global	lv_msgbox_get_close_btn
 623              		.syntax unified
 624              		.thumb
 625              		.thumb_func
 627              	lv_msgbox_get_close_btn:
 628              	.LVL73:
 629              	.LFB206:
 148:Drivers/lvgl/src/extra/widgets/msgbox/lv_msgbox.c **** 
 149:Drivers/lvgl/src/extra/widgets/msgbox/lv_msgbox.c **** lv_obj_t * lv_msgbox_get_close_btn(lv_obj_t * obj)
 150:Drivers/lvgl/src/extra/widgets/msgbox/lv_msgbox.c **** {
 630              		.loc 1 150 1 is_stmt 1 view -0
 631              		.cfi_startproc
 632              		@ args = 0, pretend = 0, frame = 0
 633              		@ frame_needed = 0, uses_anonymous_args = 0
 634              		@ link register save eliminated.
 151:Drivers/lvgl/src/extra/widgets/msgbox/lv_msgbox.c ****     LV_ASSERT_OBJ(obj, MY_CLASS);
 635              		.loc 1 151 5 view .LVU185
 636              		.loc 1 151 5 view .LVU186
 637              		.loc 1 151 5 view .LVU187
 152:Drivers/lvgl/src/extra/widgets/msgbox/lv_msgbox.c ****     lv_msgbox_t * mbox = (lv_msgbox_t *)obj;
 638              		.loc 1 152 5 view .LVU188
 153:Drivers/lvgl/src/extra/widgets/msgbox/lv_msgbox.c ****     return mbox->close_btn;
 639              		.loc 1 153 5 view .LVU189
 154:Drivers/lvgl/src/extra/widgets/msgbox/lv_msgbox.c **** }
 640              		.loc 1 154 1 is_stmt 0 view .LVU190
 641 0000 806A     		ldr	r0, [r0, #40]
ARM GAS  /var/folders/0z/tsy30v1j4xl4_7kw94k978ww0000gn/T//ccLT6Yh4.s 			page 30


 642              	.LVL74:
 643              		.loc 1 154 1 view .LVU191
 644 0002 7047     		bx	lr
 645              		.cfi_endproc
 646              	.LFE206:
 648              		.section	.text.lv_msgbox_get_text,"ax",%progbits
 649              		.align	1
 650              		.global	lv_msgbox_get_text
 651              		.syntax unified
 652              		.thumb
 653              		.thumb_func
 655              	lv_msgbox_get_text:
 656              	.LVL75:
 657              	.LFB207:
 155:Drivers/lvgl/src/extra/widgets/msgbox/lv_msgbox.c **** 
 156:Drivers/lvgl/src/extra/widgets/msgbox/lv_msgbox.c **** lv_obj_t * lv_msgbox_get_text(lv_obj_t * obj)
 157:Drivers/lvgl/src/extra/widgets/msgbox/lv_msgbox.c **** {
 658              		.loc 1 157 1 is_stmt 1 view -0
 659              		.cfi_startproc
 660              		@ args = 0, pretend = 0, frame = 0
 661              		@ frame_needed = 0, uses_anonymous_args = 0
 662              		@ link register save eliminated.
 158:Drivers/lvgl/src/extra/widgets/msgbox/lv_msgbox.c ****     LV_ASSERT_OBJ(obj, MY_CLASS);
 663              		.loc 1 158 5 view .LVU193
 664              		.loc 1 158 5 view .LVU194
 665              		.loc 1 158 5 view .LVU195
 159:Drivers/lvgl/src/extra/widgets/msgbox/lv_msgbox.c ****     lv_msgbox_t * mbox = (lv_msgbox_t *)obj;
 666              		.loc 1 159 5 view .LVU196
 160:Drivers/lvgl/src/extra/widgets/msgbox/lv_msgbox.c ****     return mbox->text;
 667              		.loc 1 160 5 view .LVU197
 161:Drivers/lvgl/src/extra/widgets/msgbox/lv_msgbox.c **** }
 668              		.loc 1 161 1 is_stmt 0 view .LVU198
 669 0000 006B     		ldr	r0, [r0, #48]
 670              	.LVL76:
 671              		.loc 1 161 1 view .LVU199
 672 0002 7047     		bx	lr
 673              		.cfi_endproc
 674              	.LFE207:
 676              		.section	.text.lv_msgbox_get_content,"ax",%progbits
 677              		.align	1
 678              		.global	lv_msgbox_get_content
 679              		.syntax unified
 680              		.thumb
 681              		.thumb_func
 683              	lv_msgbox_get_content:
 684              	.LVL77:
 685              	.LFB208:
 162:Drivers/lvgl/src/extra/widgets/msgbox/lv_msgbox.c **** 
 163:Drivers/lvgl/src/extra/widgets/msgbox/lv_msgbox.c **** lv_obj_t * lv_msgbox_get_content(lv_obj_t * obj)
 164:Drivers/lvgl/src/extra/widgets/msgbox/lv_msgbox.c **** {
 686              		.loc 1 164 1 is_stmt 1 view -0
 687              		.cfi_startproc
 688              		@ args = 0, pretend = 0, frame = 0
 689              		@ frame_needed = 0, uses_anonymous_args = 0
 690              		@ link register save eliminated.
 165:Drivers/lvgl/src/extra/widgets/msgbox/lv_msgbox.c ****     LV_ASSERT_OBJ(obj, MY_CLASS);
 691              		.loc 1 165 5 view .LVU201
ARM GAS  /var/folders/0z/tsy30v1j4xl4_7kw94k978ww0000gn/T//ccLT6Yh4.s 			page 31


 692              		.loc 1 165 5 view .LVU202
 693              		.loc 1 165 5 view .LVU203
 166:Drivers/lvgl/src/extra/widgets/msgbox/lv_msgbox.c ****     lv_msgbox_t * mbox = (lv_msgbox_t *)obj;
 694              		.loc 1 166 5 view .LVU204
 167:Drivers/lvgl/src/extra/widgets/msgbox/lv_msgbox.c ****     return mbox->content;
 695              		.loc 1 167 5 view .LVU205
 168:Drivers/lvgl/src/extra/widgets/msgbox/lv_msgbox.c **** }
 696              		.loc 1 168 1 is_stmt 0 view .LVU206
 697 0000 C06A     		ldr	r0, [r0, #44]
 698              	.LVL78:
 699              		.loc 1 168 1 view .LVU207
 700 0002 7047     		bx	lr
 701              		.cfi_endproc
 702              	.LFE208:
 704              		.section	.text.lv_msgbox_get_btns,"ax",%progbits
 705              		.align	1
 706              		.global	lv_msgbox_get_btns
 707              		.syntax unified
 708              		.thumb
 709              		.thumb_func
 711              	lv_msgbox_get_btns:
 712              	.LVL79:
 713              	.LFB209:
 169:Drivers/lvgl/src/extra/widgets/msgbox/lv_msgbox.c **** 
 170:Drivers/lvgl/src/extra/widgets/msgbox/lv_msgbox.c **** lv_obj_t * lv_msgbox_get_btns(lv_obj_t * obj)
 171:Drivers/lvgl/src/extra/widgets/msgbox/lv_msgbox.c **** {
 714              		.loc 1 171 1 is_stmt 1 view -0
 715              		.cfi_startproc
 716              		@ args = 0, pretend = 0, frame = 0
 717              		@ frame_needed = 0, uses_anonymous_args = 0
 718              		@ link register save eliminated.
 172:Drivers/lvgl/src/extra/widgets/msgbox/lv_msgbox.c ****     LV_ASSERT_OBJ(obj, MY_CLASS);
 719              		.loc 1 172 5 view .LVU209
 720              		.loc 1 172 5 view .LVU210
 721              		.loc 1 172 5 view .LVU211
 173:Drivers/lvgl/src/extra/widgets/msgbox/lv_msgbox.c ****     lv_msgbox_t * mbox = (lv_msgbox_t *)obj;
 722              		.loc 1 173 5 view .LVU212
 174:Drivers/lvgl/src/extra/widgets/msgbox/lv_msgbox.c ****     return mbox->btns;
 723              		.loc 1 174 5 view .LVU213
 175:Drivers/lvgl/src/extra/widgets/msgbox/lv_msgbox.c **** }
 724              		.loc 1 175 1 is_stmt 0 view .LVU214
 725 0000 406B     		ldr	r0, [r0, #52]
 726              	.LVL80:
 727              		.loc 1 175 1 view .LVU215
 728 0002 7047     		bx	lr
 729              		.cfi_endproc
 730              	.LFE209:
 732              		.section	.text.lv_msgbox_get_active_btn,"ax",%progbits
 733              		.align	1
 734              		.global	lv_msgbox_get_active_btn
 735              		.syntax unified
 736              		.thumb
 737              		.thumb_func
 739              	lv_msgbox_get_active_btn:
 740              	.LVL81:
 741              	.LFB210:
 176:Drivers/lvgl/src/extra/widgets/msgbox/lv_msgbox.c **** 
ARM GAS  /var/folders/0z/tsy30v1j4xl4_7kw94k978ww0000gn/T//ccLT6Yh4.s 			page 32


 177:Drivers/lvgl/src/extra/widgets/msgbox/lv_msgbox.c **** uint16_t lv_msgbox_get_active_btn(lv_obj_t * mbox)
 178:Drivers/lvgl/src/extra/widgets/msgbox/lv_msgbox.c **** {
 742              		.loc 1 178 1 is_stmt 1 view -0
 743              		.cfi_startproc
 744              		@ args = 0, pretend = 0, frame = 0
 745              		@ frame_needed = 0, uses_anonymous_args = 0
 746              		.loc 1 178 1 is_stmt 0 view .LVU217
 747 0000 08B5     		push	{r3, lr}
 748              		.cfi_def_cfa_offset 8
 749              		.cfi_offset 3, -8
 750              		.cfi_offset 14, -4
 179:Drivers/lvgl/src/extra/widgets/msgbox/lv_msgbox.c ****     lv_obj_t * btnm = lv_msgbox_get_btns(mbox);
 751              		.loc 1 179 5 is_stmt 1 view .LVU218
 752              		.loc 1 179 23 is_stmt 0 view .LVU219
 753 0002 FFF7FEFF 		bl	lv_msgbox_get_btns
 754              	.LVL82:
 180:Drivers/lvgl/src/extra/widgets/msgbox/lv_msgbox.c ****     return lv_btnmatrix_get_selected_btn(btnm);
 755              		.loc 1 180 5 is_stmt 1 view .LVU220
 756              		.loc 1 180 12 is_stmt 0 view .LVU221
 757 0006 FFF7FEFF 		bl	lv_btnmatrix_get_selected_btn
 758              	.LVL83:
 181:Drivers/lvgl/src/extra/widgets/msgbox/lv_msgbox.c **** }
 759              		.loc 1 181 1 view .LVU222
 760 000a 08BD     		pop	{r3, pc}
 761              		.cfi_endproc
 762              	.LFE210:
 764              		.section	.text.lv_msgbox_get_active_btn_text,"ax",%progbits
 765              		.align	1
 766              		.global	lv_msgbox_get_active_btn_text
 767              		.syntax unified
 768              		.thumb
 769              		.thumb_func
 771              	lv_msgbox_get_active_btn_text:
 772              	.LVL84:
 773              	.LFB211:
 182:Drivers/lvgl/src/extra/widgets/msgbox/lv_msgbox.c **** 
 183:Drivers/lvgl/src/extra/widgets/msgbox/lv_msgbox.c **** const char * lv_msgbox_get_active_btn_text(lv_obj_t * mbox)
 184:Drivers/lvgl/src/extra/widgets/msgbox/lv_msgbox.c **** {
 774              		.loc 1 184 1 is_stmt 1 view -0
 775              		.cfi_startproc
 776              		@ args = 0, pretend = 0, frame = 0
 777              		@ frame_needed = 0, uses_anonymous_args = 0
 778              		.loc 1 184 1 is_stmt 0 view .LVU224
 779 0000 10B5     		push	{r4, lr}
 780              		.cfi_def_cfa_offset 8
 781              		.cfi_offset 4, -8
 782              		.cfi_offset 14, -4
 185:Drivers/lvgl/src/extra/widgets/msgbox/lv_msgbox.c ****     lv_obj_t * btnm = lv_msgbox_get_btns(mbox);
 783              		.loc 1 185 5 is_stmt 1 view .LVU225
 784              		.loc 1 185 23 is_stmt 0 view .LVU226
 785 0002 FFF7FEFF 		bl	lv_msgbox_get_btns
 786              	.LVL85:
 787              		.loc 1 185 23 view .LVU227
 788 0006 0446     		mov	r4, r0
 789              	.LVL86:
 186:Drivers/lvgl/src/extra/widgets/msgbox/lv_msgbox.c ****     return lv_btnmatrix_get_btn_text(btnm, lv_btnmatrix_get_selected_btn(btnm));
 790              		.loc 1 186 5 is_stmt 1 view .LVU228
ARM GAS  /var/folders/0z/tsy30v1j4xl4_7kw94k978ww0000gn/T//ccLT6Yh4.s 			page 33


 791              		.loc 1 186 12 is_stmt 0 view .LVU229
 792 0008 FFF7FEFF 		bl	lv_btnmatrix_get_selected_btn
 793              	.LVL87:
 794              		.loc 1 186 12 view .LVU230
 795 000c 0146     		mov	r1, r0
 796 000e 2046     		mov	r0, r4
 797 0010 FFF7FEFF 		bl	lv_btnmatrix_get_btn_text
 798              	.LVL88:
 187:Drivers/lvgl/src/extra/widgets/msgbox/lv_msgbox.c **** }
 799              		.loc 1 187 1 view .LVU231
 800 0014 10BD     		pop	{r4, pc}
 801              		.loc 1 187 1 view .LVU232
 802              		.cfi_endproc
 803              	.LFE211:
 805              		.section	.text.lv_msgbox_close,"ax",%progbits
 806              		.align	1
 807              		.global	lv_msgbox_close
 808              		.syntax unified
 809              		.thumb
 810              		.thumb_func
 812              	lv_msgbox_close:
 813              	.LVL89:
 814              	.LFB212:
 188:Drivers/lvgl/src/extra/widgets/msgbox/lv_msgbox.c **** 
 189:Drivers/lvgl/src/extra/widgets/msgbox/lv_msgbox.c **** void lv_msgbox_close(lv_obj_t * mbox)
 190:Drivers/lvgl/src/extra/widgets/msgbox/lv_msgbox.c **** {
 815              		.loc 1 190 1 is_stmt 1 view -0
 816              		.cfi_startproc
 817              		@ args = 0, pretend = 0, frame = 0
 818              		@ frame_needed = 0, uses_anonymous_args = 0
 819              		.loc 1 190 1 is_stmt 0 view .LVU234
 820 0000 10B5     		push	{r4, lr}
 821              		.cfi_def_cfa_offset 8
 822              		.cfi_offset 4, -8
 823              		.cfi_offset 14, -4
 824 0002 0446     		mov	r4, r0
 191:Drivers/lvgl/src/extra/widgets/msgbox/lv_msgbox.c ****     if(lv_obj_has_flag(mbox, LV_MSGBOX_FLAG_AUTO_PARENT)) lv_obj_del(lv_obj_get_parent(mbox));
 825              		.loc 1 191 5 is_stmt 1 view .LVU235
 826              		.loc 1 191 8 is_stmt 0 view .LVU236
 827 0004 4FF00071 		mov	r1, #33554432
 828 0008 FFF7FEFF 		bl	lv_obj_has_flag
 829              	.LVL90:
 830              		.loc 1 191 7 view .LVU237
 831 000c 28B1     		cbz	r0, .L51
 832              		.loc 1 191 59 is_stmt 1 discriminator 1 view .LVU238
 833 000e 2046     		mov	r0, r4
 834 0010 FFF7FEFF 		bl	lv_obj_get_parent
 835              	.LVL91:
 836 0014 FFF7FEFF 		bl	lv_obj_del
 837              	.LVL92:
 838              	.L50:
 192:Drivers/lvgl/src/extra/widgets/msgbox/lv_msgbox.c ****     else lv_obj_del(mbox);
 193:Drivers/lvgl/src/extra/widgets/msgbox/lv_msgbox.c **** }
 839              		.loc 1 193 1 is_stmt 0 view .LVU239
 840 0018 10BD     		pop	{r4, pc}
 841              	.LVL93:
 842              	.L51:
ARM GAS  /var/folders/0z/tsy30v1j4xl4_7kw94k978ww0000gn/T//ccLT6Yh4.s 			page 34


 192:Drivers/lvgl/src/extra/widgets/msgbox/lv_msgbox.c ****     else lv_obj_del(mbox);
 843              		.loc 1 192 10 is_stmt 1 view .LVU240
 844 001a 2046     		mov	r0, r4
 845 001c FFF7FEFF 		bl	lv_obj_del
 846              	.LVL94:
 847              		.loc 1 193 1 is_stmt 0 view .LVU241
 848 0020 FAE7     		b	.L50
 849              		.cfi_endproc
 850              	.LFE212:
 852              		.section	.text.msgbox_close_click_event_cb,"ax",%progbits
 853              		.align	1
 854              		.syntax unified
 855              		.thumb
 856              		.thumb_func
 858              	msgbox_close_click_event_cb:
 859              	.LVL95:
 860              	.LFB214:
 194:Drivers/lvgl/src/extra/widgets/msgbox/lv_msgbox.c **** 
 195:Drivers/lvgl/src/extra/widgets/msgbox/lv_msgbox.c **** void lv_msgbox_close_async(lv_obj_t * dialog)
 196:Drivers/lvgl/src/extra/widgets/msgbox/lv_msgbox.c **** {
 197:Drivers/lvgl/src/extra/widgets/msgbox/lv_msgbox.c ****     if(lv_obj_has_flag(dialog, LV_MSGBOX_FLAG_AUTO_PARENT)) lv_obj_del_async(lv_obj_get_parent(dial
 198:Drivers/lvgl/src/extra/widgets/msgbox/lv_msgbox.c ****     else lv_obj_del_async(dialog);
 199:Drivers/lvgl/src/extra/widgets/msgbox/lv_msgbox.c **** }
 200:Drivers/lvgl/src/extra/widgets/msgbox/lv_msgbox.c **** 
 201:Drivers/lvgl/src/extra/widgets/msgbox/lv_msgbox.c **** /**********************
 202:Drivers/lvgl/src/extra/widgets/msgbox/lv_msgbox.c ****  *   STATIC FUNCTIONS
 203:Drivers/lvgl/src/extra/widgets/msgbox/lv_msgbox.c ****  **********************/
 204:Drivers/lvgl/src/extra/widgets/msgbox/lv_msgbox.c **** 
 205:Drivers/lvgl/src/extra/widgets/msgbox/lv_msgbox.c **** static void msgbox_close_click_event_cb(lv_event_t * e)
 206:Drivers/lvgl/src/extra/widgets/msgbox/lv_msgbox.c **** {
 861              		.loc 1 206 1 is_stmt 1 view -0
 862              		.cfi_startproc
 863              		@ args = 0, pretend = 0, frame = 0
 864              		@ frame_needed = 0, uses_anonymous_args = 0
 865              		.loc 1 206 1 is_stmt 0 view .LVU243
 866 0000 08B5     		push	{r3, lr}
 867              		.cfi_def_cfa_offset 8
 868              		.cfi_offset 3, -8
 869              		.cfi_offset 14, -4
 207:Drivers/lvgl/src/extra/widgets/msgbox/lv_msgbox.c ****     lv_obj_t * btn = lv_event_get_target(e);
 870              		.loc 1 207 5 is_stmt 1 view .LVU244
 871              		.loc 1 207 22 is_stmt 0 view .LVU245
 872 0002 FFF7FEFF 		bl	lv_event_get_target
 873              	.LVL96:
 208:Drivers/lvgl/src/extra/widgets/msgbox/lv_msgbox.c ****     lv_obj_t * mbox = lv_obj_get_parent(btn);
 874              		.loc 1 208 5 is_stmt 1 view .LVU246
 875              		.loc 1 208 23 is_stmt 0 view .LVU247
 876 0006 FFF7FEFF 		bl	lv_obj_get_parent
 877              	.LVL97:
 209:Drivers/lvgl/src/extra/widgets/msgbox/lv_msgbox.c ****     lv_msgbox_close(mbox);
 878              		.loc 1 209 5 is_stmt 1 view .LVU248
 879 000a FFF7FEFF 		bl	lv_msgbox_close
 880              	.LVL98:
 210:Drivers/lvgl/src/extra/widgets/msgbox/lv_msgbox.c **** }
 881              		.loc 1 210 1 is_stmt 0 view .LVU249
 882 000e 08BD     		pop	{r3, pc}
 883              		.cfi_endproc
ARM GAS  /var/folders/0z/tsy30v1j4xl4_7kw94k978ww0000gn/T//ccLT6Yh4.s 			page 35


 884              	.LFE214:
 886              		.section	.text.lv_msgbox_close_async,"ax",%progbits
 887              		.align	1
 888              		.global	lv_msgbox_close_async
 889              		.syntax unified
 890              		.thumb
 891              		.thumb_func
 893              	lv_msgbox_close_async:
 894              	.LVL99:
 895              	.LFB213:
 196:Drivers/lvgl/src/extra/widgets/msgbox/lv_msgbox.c ****     if(lv_obj_has_flag(dialog, LV_MSGBOX_FLAG_AUTO_PARENT)) lv_obj_del_async(lv_obj_get_parent(dial
 896              		.loc 1 196 1 is_stmt 1 view -0
 897              		.cfi_startproc
 898              		@ args = 0, pretend = 0, frame = 0
 899              		@ frame_needed = 0, uses_anonymous_args = 0
 196:Drivers/lvgl/src/extra/widgets/msgbox/lv_msgbox.c ****     if(lv_obj_has_flag(dialog, LV_MSGBOX_FLAG_AUTO_PARENT)) lv_obj_del_async(lv_obj_get_parent(dial
 900              		.loc 1 196 1 is_stmt 0 view .LVU251
 901 0000 10B5     		push	{r4, lr}
 902              		.cfi_def_cfa_offset 8
 903              		.cfi_offset 4, -8
 904              		.cfi_offset 14, -4
 905 0002 0446     		mov	r4, r0
 197:Drivers/lvgl/src/extra/widgets/msgbox/lv_msgbox.c ****     else lv_obj_del_async(dialog);
 906              		.loc 1 197 5 is_stmt 1 view .LVU252
 197:Drivers/lvgl/src/extra/widgets/msgbox/lv_msgbox.c ****     else lv_obj_del_async(dialog);
 907              		.loc 1 197 8 is_stmt 0 view .LVU253
 908 0004 4FF00071 		mov	r1, #33554432
 909 0008 FFF7FEFF 		bl	lv_obj_has_flag
 910              	.LVL100:
 197:Drivers/lvgl/src/extra/widgets/msgbox/lv_msgbox.c ****     else lv_obj_del_async(dialog);
 911              		.loc 1 197 7 view .LVU254
 912 000c 28B1     		cbz	r0, .L57
 197:Drivers/lvgl/src/extra/widgets/msgbox/lv_msgbox.c ****     else lv_obj_del_async(dialog);
 913              		.loc 1 197 61 is_stmt 1 discriminator 1 view .LVU255
 914 000e 2046     		mov	r0, r4
 915 0010 FFF7FEFF 		bl	lv_obj_get_parent
 916              	.LVL101:
 917 0014 FFF7FEFF 		bl	lv_obj_del_async
 918              	.LVL102:
 919              	.L56:
 199:Drivers/lvgl/src/extra/widgets/msgbox/lv_msgbox.c **** 
 920              		.loc 1 199 1 is_stmt 0 view .LVU256
 921 0018 10BD     		pop	{r4, pc}
 922              	.LVL103:
 923              	.L57:
 198:Drivers/lvgl/src/extra/widgets/msgbox/lv_msgbox.c **** }
 924              		.loc 1 198 10 is_stmt 1 view .LVU257
 925 001a 2046     		mov	r0, r4
 926 001c FFF7FEFF 		bl	lv_obj_del_async
 927              	.LVL104:
 199:Drivers/lvgl/src/extra/widgets/msgbox/lv_msgbox.c **** 
 928              		.loc 1 199 1 is_stmt 0 view .LVU258
 929 0020 FAE7     		b	.L56
 930              		.cfi_endproc
 931              	.LFE213:
 933              		.global	lv_msgbox_backdrop_class
 934              		.global	lv_msgbox_content_class
ARM GAS  /var/folders/0z/tsy30v1j4xl4_7kw94k978ww0000gn/T//ccLT6Yh4.s 			page 36


 935              		.global	lv_msgbox_class
 936              		.section	.rodata.lv_msgbox_backdrop_class,"a"
 937              		.align	2
 938              		.set	.LANCHOR0,. + 0
 941              	lv_msgbox_backdrop_class:
 942 0000 00000000 		.word	lv_obj_class
 943 0004 00000000 		.space	16
 943      00000000 
 943      00000000 
 943      00000000 
 944 0014 6420     		.short	8292
 945 0016 6420     		.short	8292
 946 0018 40       		.byte	64
 947 0019 02       		.byte	2
 948 001a 00       		.byte	0
 949 001b 00       		.space	1
 950              		.section	.rodata.lv_msgbox_class,"a"
 951              		.align	2
 952              		.set	.LANCHOR1,. + 0
 955              	lv_msgbox_class:
 956 0000 00000000 		.word	lv_obj_class
 957 0004 00000000 		.space	16
 957      00000000 
 957      00000000 
 957      00000000 
 958 0014 0401     		.short	260
 959 0016 D127     		.short	10193
 960 0018 80       		.byte	128
 961 0019 03       		.byte	3
 962 001a 00       		.byte	0
 963 001b 00       		.space	1
 964              		.section	.rodata.lv_msgbox_content_class,"a"
 965              		.align	2
 966              		.set	.LANCHOR2,. + 0
 969              	lv_msgbox_content_class:
 970 0000 00000000 		.word	lv_obj_class
 971 0004 00000000 		.space	16
 971      00000000 
 971      00000000 
 971      00000000 
 972 0014 6420     		.short	8292
 973 0016 D127     		.short	10193
 974 0018 40       		.byte	64
 975 0019 02       		.byte	2
 976 001a 00       		.byte	0
 977 001b 00       		.space	1
 978              		.text
 979              	.Letext0:
 980              		.file 5 "/Users/johannes/Library/Application Support/Code/User/globalStorage/bmd.stm32-for-vscode/
 981              		.file 6 "/Users/johannes/Library/Application Support/Code/User/globalStorage/bmd.stm32-for-vscode/
 982              		.file 7 "Drivers/lvgl/src/extra/widgets/msgbox/../../../../src/misc/lv_types.h"
 983              		.file 8 "Drivers/lvgl/src/extra/widgets/msgbox/../../../../src/misc/lv_timer.h"
 984              		.file 9 "/Users/johannes/Library/Application Support/Code/User/globalStorage/bmd.stm32-for-vscode/
 985              		.file 10 "Drivers/lvgl/src/extra/widgets/msgbox/../../../../src/hal/../draw/../misc/../font/../mis
 986              		.file 11 "Drivers/lvgl/src/extra/widgets/msgbox/../../../../src/hal/../draw/../misc/lv_color.h"
 987              		.file 12 "Drivers/lvgl/src/extra/widgets/msgbox/../../../../src/hal/../draw/../misc/lv_txt.h"
 988              		.file 13 "Drivers/lvgl/src/extra/widgets/msgbox/../../../../src/hal/../draw/../misc/lv_bidi.h"
ARM GAS  /var/folders/0z/tsy30v1j4xl4_7kw94k978ww0000gn/T//ccLT6Yh4.s 			page 37


 989              		.file 14 "Drivers/lvgl/src/extra/widgets/msgbox/../../../../src/hal/../draw/../misc/lv_style.h"
 990              		.file 15 "Drivers/lvgl/src/extra/widgets/msgbox/../../../../src/hal/../draw/lv_img_buf.h"
 991              		.file 16 "Drivers/lvgl/src/extra/widgets/msgbox/../../../../src/core/lv_obj.h"
 992              		.file 17 "Drivers/lvgl/src/extra/widgets/msgbox/../../../../src/hal/../draw/lv_draw_rect.h"
 993              		.file 18 "Drivers/lvgl/src/extra/widgets/msgbox/../../../../src/hal/../draw/lv_draw_label.h"
 994              		.file 19 "Drivers/lvgl/src/extra/widgets/msgbox/../../../../src/hal/../draw/lv_draw_img.h"
 995              		.file 20 "Drivers/lvgl/src/extra/widgets/msgbox/../../../../src/hal/../draw/lv_draw_line.h"
 996              		.file 21 "Drivers/lvgl/src/extra/widgets/msgbox/../../../../src/hal/../draw/lv_draw_arc.h"
 997              		.file 22 "Drivers/lvgl/src/extra/widgets/msgbox/../../../../src/hal/../draw/lv_draw_layer.h"
 998              		.file 23 "Drivers/lvgl/src/extra/widgets/msgbox/../../../../src/hal/../draw/lv_draw.h"
 999              		.file 24 "Drivers/lvgl/src/extra/widgets/msgbox/../../../../src/hal/../misc/lv_ll.h"
 1000              		.file 25 "Drivers/lvgl/src/extra/widgets/msgbox/../../../../src/hal/lv_hal_disp.h"
 1001              		.file 26 "Drivers/lvgl/src/extra/widgets/msgbox/../../../../src/core/lv_theme.h"
 1002              		.file 27 "Drivers/lvgl/src/extra/widgets/msgbox/../../../../src/core/lv_group.h"
 1003              		.file 28 "Drivers/lvgl/src/extra/widgets/msgbox/../../../../src/core/lv_obj_scroll.h"
 1004              		.file 29 "Drivers/lvgl/src/extra/widgets/msgbox/../../../../src/core/lv_obj_style.h"
 1005              		.file 30 "Drivers/lvgl/src/extra/widgets/msgbox/../../../../src/core/lv_obj_class.h"
 1006              		.file 31 "Drivers/lvgl/src/extra/widgets/msgbox/../../../../src/core/lv_event.h"
 1007              		.file 32 "Drivers/lvgl/src/extra/widgets/msgbox/../../../../src/widgets/lv_label.h"
 1008              		.file 33 "Drivers/lvgl/src/extra/widgets/msgbox/../../../../src/widgets/lv_bar.h"
 1009              		.file 34 "Drivers/lvgl/src/extra/widgets/msgbox/../../../../src/widgets/lv_btnmatrix.h"
 1010              		.file 35 "Drivers/lvgl/src/extra/widgets/msgbox/../../../../src/extra/layouts/flex/lv_flex.h"
 1011              		.file 36 "Drivers/lvgl/src/extra/widgets/msgbox/../../../../src/extra/widgets/imgbtn/lv_imgbtn.h"
 1012              		.file 37 "Drivers/lvgl/src/extra/widgets/msgbox/lv_msgbox.h"
 1013              		.file 38 "Drivers/lvgl/src/extra/widgets/msgbox/../../../../src/core/lv_obj_tree.h"
 1014              		.file 39 "Drivers/lvgl/src/extra/widgets/msgbox/../../../../src/hal/../draw/sw/../../core/lv_obj_p
 1015              		.file 40 "Drivers/lvgl/src/extra/widgets/msgbox/../../../../src/widgets/lv_btn.h"
ARM GAS  /var/folders/0z/tsy30v1j4xl4_7kw94k978ww0000gn/T//ccLT6Yh4.s 			page 38

