ARM GAS  /var/folders/0z/tsy30v1j4xl4_7kw94k978ww0000gn/T//ccyPizd3.s 			page 1


   1              		.cpu cortex-m4
   2              		.arch armv7e-m
   3              		.fpu fpv4-sp-d16
   4              		.eabi_attribute 27, 1
   5              		.eabi_attribute 28, 1
   6              		.eabi_attribute 20, 1
   7              		.eabi_attribute 21, 1
   8              		.eabi_attribute 23, 3
   9              		.eabi_attribute 24, 1
  10              		.eabi_attribute 25, 1
  11              		.eabi_attribute 26, 1
  12              		.eabi_attribute 30, 1
  13              		.eabi_attribute 34, 1
  14              		.eabi_attribute 18, 4
  15              		.file	"lv_math.c"
  16              		.text
  17              	.Ltext0:
  18              		.cfi_sections	.debug_frame
  19              		.section	.text.lv_trigo_sin,"ax",%progbits
  20              		.align	1
  21              		.global	lv_trigo_sin
  22              		.syntax unified
  23              		.thumb
  24              		.thumb_func
  26              	lv_trigo_sin:
  27              	.LVL0:
  28              	.LFB1:
  29              		.file 1 "Drivers/lvgl/src/misc/lv_math.c"
   1:Drivers/lvgl/src/misc/lv_math.c **** /**
   2:Drivers/lvgl/src/misc/lv_math.c ****  * @file lv_math.c
   3:Drivers/lvgl/src/misc/lv_math.c ****  *
   4:Drivers/lvgl/src/misc/lv_math.c ****  */
   5:Drivers/lvgl/src/misc/lv_math.c **** 
   6:Drivers/lvgl/src/misc/lv_math.c **** /*********************
   7:Drivers/lvgl/src/misc/lv_math.c ****  *      INCLUDES
   8:Drivers/lvgl/src/misc/lv_math.c ****  *********************/
   9:Drivers/lvgl/src/misc/lv_math.c **** #include "lv_math.h"
  10:Drivers/lvgl/src/misc/lv_math.c **** 
  11:Drivers/lvgl/src/misc/lv_math.c **** /*********************
  12:Drivers/lvgl/src/misc/lv_math.c ****  *      DEFINES
  13:Drivers/lvgl/src/misc/lv_math.c ****  *********************/
  14:Drivers/lvgl/src/misc/lv_math.c **** 
  15:Drivers/lvgl/src/misc/lv_math.c **** /**********************
  16:Drivers/lvgl/src/misc/lv_math.c ****  *      TYPEDEFS
  17:Drivers/lvgl/src/misc/lv_math.c ****  **********************/
  18:Drivers/lvgl/src/misc/lv_math.c **** 
  19:Drivers/lvgl/src/misc/lv_math.c **** /**********************
  20:Drivers/lvgl/src/misc/lv_math.c ****  *  STATIC PROTOTYPES
  21:Drivers/lvgl/src/misc/lv_math.c ****  **********************/
  22:Drivers/lvgl/src/misc/lv_math.c **** 
  23:Drivers/lvgl/src/misc/lv_math.c **** /**********************
  24:Drivers/lvgl/src/misc/lv_math.c ****  *  STATIC VARIABLES
  25:Drivers/lvgl/src/misc/lv_math.c ****  **********************/
  26:Drivers/lvgl/src/misc/lv_math.c **** static const int16_t sin0_90_table[] = {
  27:Drivers/lvgl/src/misc/lv_math.c ****     0,     572,   1144,  1715,  2286,  2856,  3425,  3993,  4560,  5126,  5690,  6252,  6813,  7371
  28:Drivers/lvgl/src/misc/lv_math.c ****     9032,  9580,  10126, 10668, 11207, 11743, 12275, 12803, 13328, 13848, 14364, 14876, 15383, 1588
  29:Drivers/lvgl/src/misc/lv_math.c ****     17364, 17846, 18323, 18794, 19260, 19720, 20173, 20621, 21062, 21497, 21925, 22347, 22762, 2317
ARM GAS  /var/folders/0z/tsy30v1j4xl4_7kw94k978ww0000gn/T//ccyPizd3.s 			page 2


  30:Drivers/lvgl/src/misc/lv_math.c ****     24351, 24730, 25101, 25465, 25821, 26169, 26509, 26841, 27165, 27481, 27788, 28087, 28377, 2865
  31:Drivers/lvgl/src/misc/lv_math.c ****     29451, 29697, 29934, 30162, 30381, 30591, 30791, 30982, 31163, 31335, 31498, 31650, 31794, 3192
  32:Drivers/lvgl/src/misc/lv_math.c ****     32269, 32364, 32448, 32523, 32587, 32642, 32687, 32722, 32747, 32762, 32767
  33:Drivers/lvgl/src/misc/lv_math.c **** };
  34:Drivers/lvgl/src/misc/lv_math.c **** 
  35:Drivers/lvgl/src/misc/lv_math.c **** /**********************
  36:Drivers/lvgl/src/misc/lv_math.c ****  *      MACROS
  37:Drivers/lvgl/src/misc/lv_math.c ****  **********************/
  38:Drivers/lvgl/src/misc/lv_math.c **** 
  39:Drivers/lvgl/src/misc/lv_math.c **** /**********************
  40:Drivers/lvgl/src/misc/lv_math.c ****  *   GLOBAL FUNCTIONS
  41:Drivers/lvgl/src/misc/lv_math.c ****  **********************/
  42:Drivers/lvgl/src/misc/lv_math.c **** 
  43:Drivers/lvgl/src/misc/lv_math.c **** /**
  44:Drivers/lvgl/src/misc/lv_math.c ****  * Return with sinus of an angle
  45:Drivers/lvgl/src/misc/lv_math.c ****  * @param angle
  46:Drivers/lvgl/src/misc/lv_math.c ****  * @return sinus of 'angle'. sin(-90) = -32767, sin(90) = 32767
  47:Drivers/lvgl/src/misc/lv_math.c ****  */
  48:Drivers/lvgl/src/misc/lv_math.c **** int16_t LV_ATTRIBUTE_FAST_MEM lv_trigo_sin(int16_t angle)
  49:Drivers/lvgl/src/misc/lv_math.c **** {
  30              		.loc 1 49 1 view -0
  31              		.cfi_startproc
  32              		@ args = 0, pretend = 0, frame = 0
  33              		@ frame_needed = 0, uses_anonymous_args = 0
  34              		@ link register save eliminated.
  50:Drivers/lvgl/src/misc/lv_math.c ****     int16_t ret = 0;
  35              		.loc 1 50 5 view .LVU1
  51:Drivers/lvgl/src/misc/lv_math.c ****     angle       = angle % 360;
  36              		.loc 1 51 5 view .LVU2
  37              		.loc 1 51 17 is_stmt 0 view .LVU3
  38 0000 1C4B     		ldr	r3, .L8
  39 0002 83FB0023 		smull	r2, r3, r3, r0
  40 0006 0344     		add	r3, r3, r0
  41 0008 C217     		asrs	r2, r0, #31
  42 000a C2EB2323 		rsb	r3, r2, r3, asr #8
  43 000e 4FF4B472 		mov	r2, #360
  44 0012 02FB1300 		mls	r0, r2, r3, r0
  45              	.LVL1:
  46              		.loc 1 51 17 view .LVU4
  47 0016 00B2     		sxth	r0, r0
  48              	.LVL2:
  52:Drivers/lvgl/src/misc/lv_math.c **** 
  53:Drivers/lvgl/src/misc/lv_math.c ****     if(angle < 0) angle = 360 + angle;
  49              		.loc 1 53 5 is_stmt 1 view .LVU5
  50              		.loc 1 53 7 is_stmt 0 view .LVU6
  51 0018 0028     		cmp	r0, #0
  52 001a 05DB     		blt	.L7
  53              	.L2:
  54:Drivers/lvgl/src/misc/lv_math.c **** 
  55:Drivers/lvgl/src/misc/lv_math.c ****     if(angle < 90) {
  54              		.loc 1 55 5 is_stmt 1 view .LVU7
  55              		.loc 1 55 7 is_stmt 0 view .LVU8
  56 001c 5928     		cmp	r0, #89
  57 001e 06DC     		bgt	.L3
  56:Drivers/lvgl/src/misc/lv_math.c ****         ret = sin0_90_table[angle];
  58              		.loc 1 56 9 is_stmt 1 view .LVU9
  59              		.loc 1 56 13 is_stmt 0 view .LVU10
ARM GAS  /var/folders/0z/tsy30v1j4xl4_7kw94k978ww0000gn/T//ccyPizd3.s 			page 3


  60 0020 154B     		ldr	r3, .L8+4
  61 0022 33F91000 		ldrsh	r0, [r3, r0, lsl #1]
  62              	.LVL3:
  63              		.loc 1 56 13 view .LVU11
  64 0026 7047     		bx	lr
  65              	.LVL4:
  66              	.L7:
  53:Drivers/lvgl/src/misc/lv_math.c **** 
  67              		.loc 1 53 19 is_stmt 1 discriminator 1 view .LVU12
  53:Drivers/lvgl/src/misc/lv_math.c **** 
  68              		.loc 1 53 31 is_stmt 0 discriminator 1 view .LVU13
  69 0028 1044     		add	r0, r0, r2
  70              	.LVL5:
  53:Drivers/lvgl/src/misc/lv_math.c **** 
  71              		.loc 1 53 25 discriminator 1 view .LVU14
  72 002a 00B2     		sxth	r0, r0
  73              	.LVL6:
  53:Drivers/lvgl/src/misc/lv_math.c **** 
  74              		.loc 1 53 25 discriminator 1 view .LVU15
  75 002c F6E7     		b	.L2
  76              	.L3:
  57:Drivers/lvgl/src/misc/lv_math.c ****     }
  58:Drivers/lvgl/src/misc/lv_math.c ****     else if(angle >= 90 && angle < 180) {
  77              		.loc 1 58 10 is_stmt 1 view .LVU16
  78              		.loc 1 58 25 is_stmt 0 view .LVU17
  79 002e 80B2     		uxth	r0, r0
  80              		.loc 1 58 25 view .LVU18
  81 0030 A0F15A03 		sub	r3, r0, #90
  82 0034 9BB2     		uxth	r3, r3
  83              		.loc 1 58 12 view .LVU19
  84 0036 592B     		cmp	r3, #89
  85 0038 06D8     		bhi	.L5
  59:Drivers/lvgl/src/misc/lv_math.c ****         angle = 180 - angle;
  86              		.loc 1 59 9 is_stmt 1 view .LVU20
  87              		.loc 1 59 21 is_stmt 0 view .LVU21
  88 003a C0F1B400 		rsb	r0, r0, #180
  89              	.LVL7:
  90              		.loc 1 59 15 view .LVU22
  91 003e 00B2     		sxth	r0, r0
  92              	.LVL8:
  60:Drivers/lvgl/src/misc/lv_math.c ****         ret   = sin0_90_table[angle];
  93              		.loc 1 60 9 is_stmt 1 view .LVU23
  94              		.loc 1 60 15 is_stmt 0 view .LVU24
  95 0040 0D4B     		ldr	r3, .L8+4
  96 0042 33F91000 		ldrsh	r0, [r3, r0, lsl #1]
  97              	.LVL9:
  98              		.loc 1 60 15 view .LVU25
  99 0046 7047     		bx	lr
 100              	.LVL10:
 101              	.L5:
  61:Drivers/lvgl/src/misc/lv_math.c ****     }
  62:Drivers/lvgl/src/misc/lv_math.c ****     else if(angle >= 180 && angle < 270) {
 102              		.loc 1 62 10 is_stmt 1 view .LVU26
 103              		.loc 1 62 26 is_stmt 0 view .LVU27
 104 0048 A0F1B403 		sub	r3, r0, #180
 105 004c 9BB2     		uxth	r3, r3
 106              		.loc 1 62 12 view .LVU28
ARM GAS  /var/folders/0z/tsy30v1j4xl4_7kw94k978ww0000gn/T//ccyPizd3.s 			page 4


 107 004e 592B     		cmp	r3, #89
 108 0050 06D8     		bhi	.L6
  63:Drivers/lvgl/src/misc/lv_math.c ****         angle = angle - 180;
 109              		.loc 1 63 9 is_stmt 1 view .LVU29
 110              		.loc 1 63 15 is_stmt 0 view .LVU30
 111 0052 1BB2     		sxth	r3, r3
 112              	.LVL11:
  64:Drivers/lvgl/src/misc/lv_math.c ****         ret   = -sin0_90_table[angle];
 113              		.loc 1 64 9 is_stmt 1 view .LVU31
 114              		.loc 1 64 31 is_stmt 0 view .LVU32
 115 0054 084A     		ldr	r2, .L8+4
 116 0056 32F81300 		ldrh	r0, [r2, r3, lsl #1]
 117              		.loc 1 64 15 view .LVU33
 118 005a 4042     		rsbs	r0, r0, #0
 119 005c 00B2     		sxth	r0, r0
 120              	.LVL12:
 121              		.loc 1 64 15 view .LVU34
 122 005e 7047     		bx	lr
 123              	.LVL13:
 124              	.L6:
  65:Drivers/lvgl/src/misc/lv_math.c ****     }
  66:Drivers/lvgl/src/misc/lv_math.c ****     else {   /*angle >=270*/
  67:Drivers/lvgl/src/misc/lv_math.c ****         angle = 360 - angle;
 125              		.loc 1 67 9 is_stmt 1 view .LVU35
 126              		.loc 1 67 21 is_stmt 0 view .LVU36
 127 0060 C0F5B470 		rsb	r0, r0, #360
 128              	.LVL14:
 129              		.loc 1 67 15 view .LVU37
 130 0064 00B2     		sxth	r0, r0
 131              	.LVL15:
  68:Drivers/lvgl/src/misc/lv_math.c ****         ret   = -sin0_90_table[angle];
 132              		.loc 1 68 9 is_stmt 1 view .LVU38
 133              		.loc 1 68 31 is_stmt 0 view .LVU39
 134 0066 044B     		ldr	r3, .L8+4
 135 0068 33F81000 		ldrh	r0, [r3, r0, lsl #1]
 136              	.LVL16:
 137              		.loc 1 68 15 view .LVU40
 138 006c 4042     		rsbs	r0, r0, #0
 139 006e 00B2     		sxth	r0, r0
 140              	.LVL17:
  69:Drivers/lvgl/src/misc/lv_math.c ****     }
  70:Drivers/lvgl/src/misc/lv_math.c **** 
  71:Drivers/lvgl/src/misc/lv_math.c ****     return ret;
 141              		.loc 1 71 5 is_stmt 1 view .LVU41
  72:Drivers/lvgl/src/misc/lv_math.c **** }
 142              		.loc 1 72 1 is_stmt 0 view .LVU42
 143 0070 7047     		bx	lr
 144              	.L9:
 145 0072 00BF     		.align	2
 146              	.L8:
 147 0074 B7600BB6 		.word	-1240768329
 148 0078 00000000 		.word	.LANCHOR0
 149              		.cfi_endproc
 150              	.LFE1:
 152              		.section	.text.lv_bezier3,"ax",%progbits
 153              		.align	1
 154              		.global	lv_bezier3
ARM GAS  /var/folders/0z/tsy30v1j4xl4_7kw94k978ww0000gn/T//ccyPizd3.s 			page 5


 155              		.syntax unified
 156              		.thumb
 157              		.thumb_func
 159              	lv_bezier3:
 160              	.LVL18:
 161              	.LFB2:
  73:Drivers/lvgl/src/misc/lv_math.c **** 
  74:Drivers/lvgl/src/misc/lv_math.c **** /**
  75:Drivers/lvgl/src/misc/lv_math.c ****  * Calculate a value of a Cubic Bezier function.
  76:Drivers/lvgl/src/misc/lv_math.c ****  * @param t time in range of [0..LV_BEZIER_VAL_MAX]
  77:Drivers/lvgl/src/misc/lv_math.c ****  * @param u0 start values in range of [0..LV_BEZIER_VAL_MAX]
  78:Drivers/lvgl/src/misc/lv_math.c ****  * @param u1 control value 1 values in range of [0..LV_BEZIER_VAL_MAX]
  79:Drivers/lvgl/src/misc/lv_math.c ****  * @param u2 control value 2 in range of [0..LV_BEZIER_VAL_MAX]
  80:Drivers/lvgl/src/misc/lv_math.c ****  * @param u3 end values in range of [0..LV_BEZIER_VAL_MAX]
  81:Drivers/lvgl/src/misc/lv_math.c ****  * @return the value calculated from the given parameters in range of [0..LV_BEZIER_VAL_MAX]
  82:Drivers/lvgl/src/misc/lv_math.c ****  */
  83:Drivers/lvgl/src/misc/lv_math.c **** uint32_t lv_bezier3(uint32_t t, uint32_t u0, uint32_t u1, uint32_t u2, uint32_t u3)
  84:Drivers/lvgl/src/misc/lv_math.c **** {
 162              		.loc 1 84 1 is_stmt 1 view -0
 163              		.cfi_startproc
 164              		@ args = 4, pretend = 0, frame = 0
 165              		@ frame_needed = 0, uses_anonymous_args = 0
 166              		.loc 1 84 1 is_stmt 0 view .LVU44
 167 0000 70B5     		push	{r4, r5, r6, lr}
 168              		.cfi_def_cfa_offset 16
 169              		.cfi_offset 4, -16
 170              		.cfi_offset 5, -12
 171              		.cfi_offset 6, -8
 172              		.cfi_offset 14, -4
  85:Drivers/lvgl/src/misc/lv_math.c ****     uint32_t t_rem  = 1024 - t;
 173              		.loc 1 85 5 is_stmt 1 view .LVU45
 174              		.loc 1 85 14 is_stmt 0 view .LVU46
 175 0002 C0F5806C 		rsb	ip, r0, #1024
 176              	.LVL19:
  86:Drivers/lvgl/src/misc/lv_math.c ****     uint32_t t_rem2 = (t_rem * t_rem) >> 10;
 177              		.loc 1 86 5 is_stmt 1 view .LVU47
 178              		.loc 1 86 30 is_stmt 0 view .LVU48
 179 0006 0CFB0CF4 		mul	r4, ip, ip
 180              		.loc 1 86 14 view .LVU49
 181 000a A40A     		lsrs	r4, r4, #10
 182              	.LVL20:
  87:Drivers/lvgl/src/misc/lv_math.c ****     uint32_t t_rem3 = (t_rem2 * t_rem) >> 10;
 183              		.loc 1 87 5 is_stmt 1 view .LVU50
 184              		.loc 1 87 31 is_stmt 0 view .LVU51
 185 000c 04FB0CF6 		mul	r6, r4, ip
 186              		.loc 1 87 14 view .LVU52
 187 0010 B60A     		lsrs	r6, r6, #10
 188              	.LVL21:
  88:Drivers/lvgl/src/misc/lv_math.c ****     uint32_t t2     = (t * t) >> 10;
 189              		.loc 1 88 5 is_stmt 1 view .LVU53
 190              		.loc 1 88 26 is_stmt 0 view .LVU54
 191 0012 00FB00FE 		mul	lr, r0, r0
 192              		.loc 1 88 14 view .LVU55
 193 0016 4FEA9E2E 		lsr	lr, lr, #10
 194              	.LVL22:
  89:Drivers/lvgl/src/misc/lv_math.c ****     uint32_t t3     = (t2 * t) >> 10;
 195              		.loc 1 89 5 is_stmt 1 view .LVU56
ARM GAS  /var/folders/0z/tsy30v1j4xl4_7kw94k978ww0000gn/T//ccyPizd3.s 			page 6


 196              		.loc 1 89 27 is_stmt 0 view .LVU57
 197 001a 0EFB00F5 		mul	r5, lr, r0
 198              		.loc 1 89 14 view .LVU58
 199 001e AD0A     		lsrs	r5, r5, #10
 200              	.LVL23:
  90:Drivers/lvgl/src/misc/lv_math.c **** 
  91:Drivers/lvgl/src/misc/lv_math.c ****     uint32_t v1 = (t_rem3 * u0) >> 10;
 201              		.loc 1 91 5 is_stmt 1 view .LVU59
 202              		.loc 1 91 27 is_stmt 0 view .LVU60
 203 0020 01FB06F6 		mul	r6, r1, r6
 204              	.LVL24:
  92:Drivers/lvgl/src/misc/lv_math.c ****     uint32_t v2 = (3 * t_rem2 * t * u1) >> 20;
 205              		.loc 1 92 5 is_stmt 1 view .LVU61
 206              		.loc 1 92 31 is_stmt 0 view .LVU62
 207 0024 04FB00F0 		mul	r0, r4, r0
 208              	.LVL25:
 209              		.loc 1 92 35 view .LVU63
 210 0028 00FB02F2 		mul	r2, r0, r2
 211              	.LVL26:
 212              		.loc 1 92 35 view .LVU64
 213 002c 02EB4202 		add	r2, r2, r2, lsl #1
 214              		.loc 1 92 14 view .LVU65
 215 0030 120D     		lsrs	r2, r2, #20
 216              	.LVL27:
  93:Drivers/lvgl/src/misc/lv_math.c ****     uint32_t v3 = (3 * t_rem * t2 * u2) >> 20;
 217              		.loc 1 93 5 is_stmt 1 view .LVU66
 218              		.loc 1 93 30 is_stmt 0 view .LVU67
 219 0032 0EFB0CFC 		mul	ip, lr, ip
 220              	.LVL28:
 221              		.loc 1 93 35 view .LVU68
 222 0036 03FB0CFC 		mul	ip, r3, ip
 223 003a 0CEB4C0C 		add	ip, ip, ip, lsl #1
 224              	.LVL29:
  94:Drivers/lvgl/src/misc/lv_math.c ****     uint32_t v4 = (t3 * u3) >> 10;
 225              		.loc 1 94 5 is_stmt 1 view .LVU69
 226              		.loc 1 94 23 is_stmt 0 view .LVU70
 227 003e 049B     		ldr	r3, [sp, #16]
 228              	.LVL30:
 229              		.loc 1 94 23 view .LVU71
 230 0040 03FB05F0 		mul	r0, r3, r5
 231              	.LVL31:
  95:Drivers/lvgl/src/misc/lv_math.c **** 
  96:Drivers/lvgl/src/misc/lv_math.c ****     return v1 + v2 + v3 + v4;
 232              		.loc 1 96 5 is_stmt 1 view .LVU72
 233              		.loc 1 96 15 is_stmt 0 view .LVU73
 234 0044 02EB9622 		add	r2, r2, r6, lsr #10
 235              	.LVL32:
 236              		.loc 1 96 20 view .LVU74
 237 0048 02EB1C52 		add	r2, r2, ip, lsr #20
  97:Drivers/lvgl/src/misc/lv_math.c **** }
 238              		.loc 1 97 1 view .LVU75
 239 004c 02EB9020 		add	r0, r2, r0, lsr #10
 240              	.LVL33:
 241              		.loc 1 97 1 view .LVU76
 242 0050 70BD     		pop	{r4, r5, r6, pc}
 243              		.loc 1 97 1 view .LVU77
 244              		.cfi_endproc
ARM GAS  /var/folders/0z/tsy30v1j4xl4_7kw94k978ww0000gn/T//ccyPizd3.s 			page 7


 245              	.LFE2:
 247              		.section	.text.lv_sqrt,"ax",%progbits
 248              		.align	1
 249              		.global	lv_sqrt
 250              		.syntax unified
 251              		.thumb
 252              		.thumb_func
 254              	lv_sqrt:
 255              	.LVL34:
 256              	.LFB3:
  98:Drivers/lvgl/src/misc/lv_math.c **** 
  99:Drivers/lvgl/src/misc/lv_math.c **** /**
 100:Drivers/lvgl/src/misc/lv_math.c ****  * Get the square root of a number
 101:Drivers/lvgl/src/misc/lv_math.c ****  * @param x integer which square root should be calculated
 102:Drivers/lvgl/src/misc/lv_math.c ****  * @param q store the result here. q->i: integer part, q->f: fractional part in 1/256 unit
 103:Drivers/lvgl/src/misc/lv_math.c ****  * @param mask optional to skip some iterations if the magnitude of the root is known.
 104:Drivers/lvgl/src/misc/lv_math.c ****  * Set to 0x8000 by default.
 105:Drivers/lvgl/src/misc/lv_math.c ****  * If root < 16: mask = 0x80
 106:Drivers/lvgl/src/misc/lv_math.c ****  * If root < 256: mask = 0x800
 107:Drivers/lvgl/src/misc/lv_math.c ****  * Else: mask = 0x8000
 108:Drivers/lvgl/src/misc/lv_math.c ****  */
 109:Drivers/lvgl/src/misc/lv_math.c **** void LV_ATTRIBUTE_FAST_MEM lv_sqrt(uint32_t x, lv_sqrt_res_t * q, uint32_t mask)
 110:Drivers/lvgl/src/misc/lv_math.c **** {
 257              		.loc 1 110 1 is_stmt 1 view -0
 258              		.cfi_startproc
 259              		@ args = 0, pretend = 0, frame = 0
 260              		@ frame_needed = 0, uses_anonymous_args = 0
 261              		.loc 1 110 1 is_stmt 0 view .LVU79
 262 0000 00B5     		push	{lr}
 263              		.cfi_def_cfa_offset 4
 264              		.cfi_offset 14, -4
 111:Drivers/lvgl/src/misc/lv_math.c ****     x = x << 8; /*To get 4 bit precision. (sqrt(256) = 16 = 4 bit)*/
 265              		.loc 1 111 5 is_stmt 1 view .LVU80
 266              		.loc 1 111 7 is_stmt 0 view .LVU81
 267 0002 0002     		lsls	r0, r0, #8
 268              	.LVL35:
 112:Drivers/lvgl/src/misc/lv_math.c **** 
 113:Drivers/lvgl/src/misc/lv_math.c ****     uint32_t root = 0;
 269              		.loc 1 113 5 is_stmt 1 view .LVU82
 270              		.loc 1 113 14 is_stmt 0 view .LVU83
 271 0004 4FF0000C 		mov	ip, #0
 272 0008 01E0     		b	.L14
 273              	.LVL36:
 274              	.L13:
 114:Drivers/lvgl/src/misc/lv_math.c ****     uint32_t trial;
 115:Drivers/lvgl/src/misc/lv_math.c ****     // http://ww1.microchip.com/...en/AppNotes/91040a.pdf
 116:Drivers/lvgl/src/misc/lv_math.c ****     do {
 117:Drivers/lvgl/src/misc/lv_math.c ****         trial = root + mask;
 118:Drivers/lvgl/src/misc/lv_math.c ****         if(trial * trial <= x) root = trial;
 119:Drivers/lvgl/src/misc/lv_math.c ****         mask = mask >> 1;
 275              		.loc 1 119 9 is_stmt 1 view .LVU84
 120:Drivers/lvgl/src/misc/lv_math.c ****     } while(mask);
 276              		.loc 1 120 13 view .LVU85
 277 000a 5208     		lsrs	r2, r2, #1
 278              	.LVL37:
 279              		.loc 1 120 13 is_stmt 0 view .LVU86
 280 000c 07D0     		beq	.L17
ARM GAS  /var/folders/0z/tsy30v1j4xl4_7kw94k978ww0000gn/T//ccyPizd3.s 			page 8


 281              	.LVL38:
 282              	.L14:
 114:Drivers/lvgl/src/misc/lv_math.c ****     uint32_t trial;
 283              		.loc 1 114 5 is_stmt 1 view .LVU87
 116:Drivers/lvgl/src/misc/lv_math.c ****         trial = root + mask;
 284              		.loc 1 116 5 view .LVU88
 117:Drivers/lvgl/src/misc/lv_math.c ****         if(trial * trial <= x) root = trial;
 285              		.loc 1 117 9 view .LVU89
 117:Drivers/lvgl/src/misc/lv_math.c ****         if(trial * trial <= x) root = trial;
 286              		.loc 1 117 15 is_stmt 0 view .LVU90
 287 000e 02EB0C03 		add	r3, r2, ip
 288              	.LVL39:
 118:Drivers/lvgl/src/misc/lv_math.c ****         mask = mask >> 1;
 289              		.loc 1 118 9 is_stmt 1 view .LVU91
 118:Drivers/lvgl/src/misc/lv_math.c ****         mask = mask >> 1;
 290              		.loc 1 118 18 is_stmt 0 view .LVU92
 291 0012 03FB03FE 		mul	lr, r3, r3
 118:Drivers/lvgl/src/misc/lv_math.c ****         mask = mask >> 1;
 292              		.loc 1 118 11 view .LVU93
 293 0016 8645     		cmp	lr, r0
 294 0018 F7D8     		bhi	.L13
 118:Drivers/lvgl/src/misc/lv_math.c ****         mask = mask >> 1;
 295              		.loc 1 118 37 view .LVU94
 296 001a 9C46     		mov	ip, r3
 297              	.LVL40:
 118:Drivers/lvgl/src/misc/lv_math.c ****         mask = mask >> 1;
 298              		.loc 1 118 37 view .LVU95
 299 001c F5E7     		b	.L13
 300              	.LVL41:
 301              	.L17:
 121:Drivers/lvgl/src/misc/lv_math.c **** 
 122:Drivers/lvgl/src/misc/lv_math.c ****     q->i = root >> 4;
 302              		.loc 1 122 5 is_stmt 1 view .LVU96
 303              		.loc 1 122 17 is_stmt 0 view .LVU97
 304 001e 4FEA1C13 		lsr	r3, ip, #4
 305              	.LVL42:
 306              		.loc 1 122 10 view .LVU98
 307 0022 0B80     		strh	r3, [r1]	@ movhi
 123:Drivers/lvgl/src/misc/lv_math.c ****     q->f = (root & 0xf) << 4;
 308              		.loc 1 123 5 is_stmt 1 view .LVU99
 309              		.loc 1 123 25 is_stmt 0 view .LVU100
 310 0024 4FEA0C1C 		lsl	ip, ip, #4
 311              	.LVL43:
 312              		.loc 1 123 25 view .LVU101
 313 0028 0CF0F00C 		and	ip, ip, #240
 314              		.loc 1 123 10 view .LVU102
 315 002c A1F802C0 		strh	ip, [r1, #2]	@ movhi
 124:Drivers/lvgl/src/misc/lv_math.c **** }
 316              		.loc 1 124 1 view .LVU103
 317 0030 5DF804FB 		ldr	pc, [sp], #4
 318              		.cfi_endproc
 319              	.LFE3:
 321              		.section	.text.lv_atan2,"ax",%progbits
 322              		.align	1
 323              		.global	lv_atan2
 324              		.syntax unified
 325              		.thumb
ARM GAS  /var/folders/0z/tsy30v1j4xl4_7kw94k978ww0000gn/T//ccyPizd3.s 			page 9


 326              		.thumb_func
 328              	lv_atan2:
 329              	.LVL44:
 330              	.LFB4:
 125:Drivers/lvgl/src/misc/lv_math.c **** 
 126:Drivers/lvgl/src/misc/lv_math.c **** /**
 127:Drivers/lvgl/src/misc/lv_math.c ****  * Calculate the atan2 of a vector.
 128:Drivers/lvgl/src/misc/lv_math.c ****  * @param x
 129:Drivers/lvgl/src/misc/lv_math.c ****  * @param y
 130:Drivers/lvgl/src/misc/lv_math.c ****  * @return the angle in degree calculated from the given parameters in range of [0..360]
 131:Drivers/lvgl/src/misc/lv_math.c ****  */
 132:Drivers/lvgl/src/misc/lv_math.c **** uint16_t lv_atan2(int x, int y)
 133:Drivers/lvgl/src/misc/lv_math.c **** {
 331              		.loc 1 133 1 is_stmt 1 view -0
 332              		.cfi_startproc
 333              		@ args = 0, pretend = 0, frame = 0
 334              		@ frame_needed = 0, uses_anonymous_args = 0
 335              		@ link register save eliminated.
 134:Drivers/lvgl/src/misc/lv_math.c ****     // Fast XY vector to integer degree algorithm - Jan 2011 www.RomanBlack.com
 135:Drivers/lvgl/src/misc/lv_math.c ****     // Converts any XY values including 0 to a degree value that should be
 136:Drivers/lvgl/src/misc/lv_math.c ****     // within +/- 1 degree of the accurate value without needing
 137:Drivers/lvgl/src/misc/lv_math.c ****     // large slow trig functions like ArcTan() or ArcCos().
 138:Drivers/lvgl/src/misc/lv_math.c ****     // NOTE! at least one of the X or Y values must be non-zero!
 139:Drivers/lvgl/src/misc/lv_math.c ****     // This is the full version, for all 4 quadrants and will generate
 140:Drivers/lvgl/src/misc/lv_math.c ****     // the angle in integer degrees from 0-360.
 141:Drivers/lvgl/src/misc/lv_math.c ****     // Any values of X and Y are usable including negative values provided
 142:Drivers/lvgl/src/misc/lv_math.c ****     // they are between -1456 and 1456 so the 16bit multiply does not overflow.
 143:Drivers/lvgl/src/misc/lv_math.c **** 
 144:Drivers/lvgl/src/misc/lv_math.c ****     unsigned char negflag;
 336              		.loc 1 144 5 view .LVU105
 145:Drivers/lvgl/src/misc/lv_math.c ****     unsigned char tempdegree;
 337              		.loc 1 145 5 view .LVU106
 146:Drivers/lvgl/src/misc/lv_math.c ****     unsigned char comp;
 338              		.loc 1 146 5 view .LVU107
 147:Drivers/lvgl/src/misc/lv_math.c ****     unsigned int degree;     // this will hold the result
 339              		.loc 1 147 5 view .LVU108
 148:Drivers/lvgl/src/misc/lv_math.c ****     unsigned int ux;
 340              		.loc 1 148 5 view .LVU109
 149:Drivers/lvgl/src/misc/lv_math.c ****     unsigned int uy;
 341              		.loc 1 149 5 view .LVU110
 150:Drivers/lvgl/src/misc/lv_math.c **** 
 151:Drivers/lvgl/src/misc/lv_math.c ****     // Save the sign flags then remove signs and get XY as unsigned ints
 152:Drivers/lvgl/src/misc/lv_math.c ****     negflag = 0;
 342              		.loc 1 152 5 view .LVU111
 153:Drivers/lvgl/src/misc/lv_math.c ****     if(x < 0) {
 343              		.loc 1 153 5 view .LVU112
 344              		.loc 1 153 7 is_stmt 0 view .LVU113
 345 0000 0028     		cmp	r0, #0
 346              		.loc 1 153 7 view .LVU114
 347 0002 2DDB     		blt	.L38
 152:Drivers/lvgl/src/misc/lv_math.c ****     if(x < 0) {
 348              		.loc 1 152 13 view .LVU115
 349 0004 0023     		movs	r3, #0
 350              	.LVL45:
 351              	.L19:
 154:Drivers/lvgl/src/misc/lv_math.c ****         negflag += 0x01;    // x flag bit
 155:Drivers/lvgl/src/misc/lv_math.c ****         x = (0 - x);        // is now +
ARM GAS  /var/folders/0z/tsy30v1j4xl4_7kw94k978ww0000gn/T//ccyPizd3.s 			page 10


 156:Drivers/lvgl/src/misc/lv_math.c ****     }
 157:Drivers/lvgl/src/misc/lv_math.c ****     ux = x;                // copy to unsigned var before multiply
 352              		.loc 1 157 5 is_stmt 1 view .LVU116
 158:Drivers/lvgl/src/misc/lv_math.c ****     if(y < 0) {
 353              		.loc 1 158 5 view .LVU117
 354              		.loc 1 158 7 is_stmt 0 view .LVU118
 355 0006 0029     		cmp	r1, #0
 356 0008 2DDB     		blt	.L39
 357              	.L20:
 159:Drivers/lvgl/src/misc/lv_math.c ****         negflag += 0x02;    // y flag bit
 160:Drivers/lvgl/src/misc/lv_math.c ****         y = (0 - y);        // is now +
 161:Drivers/lvgl/src/misc/lv_math.c ****     }
 162:Drivers/lvgl/src/misc/lv_math.c ****     uy = y;                // copy to unsigned var before multiply
 358              		.loc 1 162 5 is_stmt 1 view .LVU119
 359              	.LVL46:
 163:Drivers/lvgl/src/misc/lv_math.c **** 
 164:Drivers/lvgl/src/misc/lv_math.c ****     // 1. Calc the scaled "degrees"
 165:Drivers/lvgl/src/misc/lv_math.c ****     if(ux > uy) {
 360              		.loc 1 165 5 view .LVU120
 361              		.loc 1 165 7 is_stmt 0 view .LVU121
 362 000a 8842     		cmp	r0, r1
 363 000c 2FD9     		bls	.L21
 166:Drivers/lvgl/src/misc/lv_math.c ****         degree = (uy * 45) / ux;   // degree result will be 0-45 range
 364              		.loc 1 166 9 is_stmt 1 view .LVU122
 365              		.loc 1 166 22 is_stmt 0 view .LVU123
 366 000e 01EB4101 		add	r1, r1, r1, lsl #1
 367              	.LVL47:
 368              		.loc 1 166 22 view .LVU124
 369 0012 C1EB0111 		rsb	r1, r1, r1, lsl #4
 370              		.loc 1 166 16 view .LVU125
 371 0016 B1FBF0F1 		udiv	r1, r1, r0
 372              	.LVL48:
 167:Drivers/lvgl/src/misc/lv_math.c ****         negflag += 0x10;    // octant flag bit
 373              		.loc 1 167 9 is_stmt 1 view .LVU126
 374              		.loc 1 167 17 is_stmt 0 view .LVU127
 375 001a 1033     		adds	r3, r3, #16
 376              	.LVL49:
 377              		.loc 1 167 17 view .LVU128
 378 001c DBB2     		uxtb	r3, r3
 379              	.LVL50:
 380              	.L22:
 168:Drivers/lvgl/src/misc/lv_math.c ****     }
 169:Drivers/lvgl/src/misc/lv_math.c ****     else {
 170:Drivers/lvgl/src/misc/lv_math.c ****         degree = (ux * 45) / uy;   // degree result will be 0-45 range
 171:Drivers/lvgl/src/misc/lv_math.c ****     }
 172:Drivers/lvgl/src/misc/lv_math.c **** 
 173:Drivers/lvgl/src/misc/lv_math.c ****     // 2. Compensate for the 4 degree error curve
 174:Drivers/lvgl/src/misc/lv_math.c ****     comp = 0;
 381              		.loc 1 174 5 is_stmt 1 view .LVU129
 175:Drivers/lvgl/src/misc/lv_math.c ****     tempdegree = degree;    // use an unsigned char for speed!
 382              		.loc 1 175 5 view .LVU130
 383              		.loc 1 175 16 is_stmt 0 view .LVU131
 384 001e CAB2     		uxtb	r2, r1
 385              	.LVL51:
 176:Drivers/lvgl/src/misc/lv_math.c ****     if(tempdegree > 22) {    // if top half of range
 386              		.loc 1 176 5 is_stmt 1 view .LVU132
 387              		.loc 1 176 7 is_stmt 0 view .LVU133
ARM GAS  /var/folders/0z/tsy30v1j4xl4_7kw94k978ww0000gn/T//ccyPizd3.s 			page 11


 388 0020 162A     		cmp	r2, #22
 389 0022 2DD9     		bls	.L23
 177:Drivers/lvgl/src/misc/lv_math.c ****         if(tempdegree <= 44) comp++;
 390              		.loc 1 177 9 is_stmt 1 view .LVU134
 391              		.loc 1 177 11 is_stmt 0 view .LVU135
 392 0024 2C2A     		cmp	r2, #44
 393 0026 29D9     		bls	.L36
 174:Drivers/lvgl/src/misc/lv_math.c ****     tempdegree = degree;    // use an unsigned char for speed!
 394              		.loc 1 174 10 view .LVU136
 395 0028 0020     		movs	r0, #0
 396              	.L24:
 397              	.LVL52:
 178:Drivers/lvgl/src/misc/lv_math.c ****         if(tempdegree <= 41) comp++;
 398              		.loc 1 178 9 is_stmt 1 view .LVU137
 399              		.loc 1 178 11 is_stmt 0 view .LVU138
 400 002a 292A     		cmp	r2, #41
 401 002c 01D8     		bhi	.L25
 402              		.loc 1 178 30 is_stmt 1 discriminator 1 view .LVU139
 403              		.loc 1 178 34 is_stmt 0 discriminator 1 view .LVU140
 404 002e 0130     		adds	r0, r0, #1
 405              	.LVL53:
 406              		.loc 1 178 34 discriminator 1 view .LVU141
 407 0030 C0B2     		uxtb	r0, r0
 408              	.LVL54:
 409              	.L25:
 179:Drivers/lvgl/src/misc/lv_math.c ****         if(tempdegree <= 37) comp++;
 410              		.loc 1 179 9 is_stmt 1 view .LVU142
 411              		.loc 1 179 11 is_stmt 0 view .LVU143
 412 0032 252A     		cmp	r2, #37
 413 0034 01D8     		bhi	.L26
 414              		.loc 1 179 30 is_stmt 1 discriminator 1 view .LVU144
 415              		.loc 1 179 34 is_stmt 0 discriminator 1 view .LVU145
 416 0036 0130     		adds	r0, r0, #1
 417              	.LVL55:
 418              		.loc 1 179 34 discriminator 1 view .LVU146
 419 0038 C0B2     		uxtb	r0, r0
 420              	.LVL56:
 421              	.L26:
 180:Drivers/lvgl/src/misc/lv_math.c ****         if(tempdegree <= 32) comp++;  // max is 4 degrees compensated
 422              		.loc 1 180 9 is_stmt 1 view .LVU147
 423              		.loc 1 180 11 is_stmt 0 view .LVU148
 424 003a 202A     		cmp	r2, #32
 425 003c 01D8     		bhi	.L27
 426              		.loc 1 180 30 is_stmt 1 discriminator 1 view .LVU149
 427              		.loc 1 180 34 is_stmt 0 discriminator 1 view .LVU150
 428 003e 0130     		adds	r0, r0, #1
 429              	.LVL57:
 430              		.loc 1 180 34 discriminator 1 view .LVU151
 431 0040 C0B2     		uxtb	r0, r0
 432              	.LVL58:
 433              	.L27:
 181:Drivers/lvgl/src/misc/lv_math.c ****     }
 182:Drivers/lvgl/src/misc/lv_math.c ****     else {   // else is lower half of range
 183:Drivers/lvgl/src/misc/lv_math.c ****         if(tempdegree >= 2) comp++;
 184:Drivers/lvgl/src/misc/lv_math.c ****         if(tempdegree >= 6) comp++;
 185:Drivers/lvgl/src/misc/lv_math.c ****         if(tempdegree >= 10) comp++;
 186:Drivers/lvgl/src/misc/lv_math.c ****         if(tempdegree >= 15) comp++;  // max is 4 degrees compensated
ARM GAS  /var/folders/0z/tsy30v1j4xl4_7kw94k978ww0000gn/T//ccyPizd3.s 			page 12


 187:Drivers/lvgl/src/misc/lv_math.c ****     }
 188:Drivers/lvgl/src/misc/lv_math.c ****     degree += comp;   // degree is now accurate to +/- 1 degree!
 434              		.loc 1 188 5 is_stmt 1 view .LVU152
 435              		.loc 1 188 12 is_stmt 0 view .LVU153
 436 0042 0844     		add	r0, r0, r1
 437              	.LVL59:
 189:Drivers/lvgl/src/misc/lv_math.c **** 
 190:Drivers/lvgl/src/misc/lv_math.c ****     // Invert degree if it was X>Y octant, makes 0-45 into 90-45
 191:Drivers/lvgl/src/misc/lv_math.c ****     if(negflag & 0x10) degree = (90 - degree);
 438              		.loc 1 191 5 is_stmt 1 view .LVU154
 439              		.loc 1 191 7 is_stmt 0 view .LVU155
 440 0044 13F0100F 		tst	r3, #16
 441 0048 01D0     		beq	.L31
 442              		.loc 1 191 24 is_stmt 1 discriminator 1 view .LVU156
 443              		.loc 1 191 31 is_stmt 0 discriminator 1 view .LVU157
 444 004a C0F15A00 		rsb	r0, r0, #90
 445              	.LVL60:
 446              	.L31:
 192:Drivers/lvgl/src/misc/lv_math.c **** 
 193:Drivers/lvgl/src/misc/lv_math.c ****     // 3. Degree is now 0-90 range for this quadrant,
 194:Drivers/lvgl/src/misc/lv_math.c ****     // need to invert it for whichever quadrant it was in
 195:Drivers/lvgl/src/misc/lv_math.c ****     if(negflag & 0x02) { // if -Y
 447              		.loc 1 195 5 is_stmt 1 view .LVU158
 448              		.loc 1 195 7 is_stmt 0 view .LVU159
 449 004e 13F0020F 		tst	r3, #2
 450 0052 2AD0     		beq	.L32
 196:Drivers/lvgl/src/misc/lv_math.c ****         if(negflag & 0x01)   // if -Y -X
 451              		.loc 1 196 9 is_stmt 1 view .LVU160
 452              		.loc 1 196 11 is_stmt 0 view .LVU161
 453 0054 13F0010F 		tst	r3, #1
 454 0058 24D0     		beq	.L33
 197:Drivers/lvgl/src/misc/lv_math.c ****             degree = (180 + degree);
 455              		.loc 1 197 13 is_stmt 1 view .LVU162
 456              		.loc 1 197 20 is_stmt 0 view .LVU163
 457 005a B430     		adds	r0, r0, #180
 458              	.LVL61:
 459              	.L34:
 198:Drivers/lvgl/src/misc/lv_math.c ****         else        // else is -Y +X
 199:Drivers/lvgl/src/misc/lv_math.c ****             degree = (180 - degree);
 200:Drivers/lvgl/src/misc/lv_math.c ****     }
 201:Drivers/lvgl/src/misc/lv_math.c ****     else {   // else is +Y
 202:Drivers/lvgl/src/misc/lv_math.c ****         if(negflag & 0x01)   // if +Y -X
 203:Drivers/lvgl/src/misc/lv_math.c ****             degree = (360 - degree);
 204:Drivers/lvgl/src/misc/lv_math.c ****     }
 205:Drivers/lvgl/src/misc/lv_math.c ****     return degree;
 460              		.loc 1 205 5 is_stmt 1 view .LVU164
 206:Drivers/lvgl/src/misc/lv_math.c **** }
 461              		.loc 1 206 1 is_stmt 0 view .LVU165
 462 005c 80B2     		uxth	r0, r0
 463              	.LVL62:
 464              		.loc 1 206 1 view .LVU166
 465 005e 7047     		bx	lr
 466              	.LVL63:
 467              	.L38:
 154:Drivers/lvgl/src/misc/lv_math.c ****         x = (0 - x);        // is now +
 468              		.loc 1 154 9 is_stmt 1 view .LVU167
 155:Drivers/lvgl/src/misc/lv_math.c ****     }
ARM GAS  /var/folders/0z/tsy30v1j4xl4_7kw94k978ww0000gn/T//ccyPizd3.s 			page 13


 469              		.loc 1 155 9 view .LVU168
 155:Drivers/lvgl/src/misc/lv_math.c ****     }
 470              		.loc 1 155 11 is_stmt 0 view .LVU169
 471 0060 4042     		rsbs	r0, r0, #0
 472              	.LVL64:
 154:Drivers/lvgl/src/misc/lv_math.c ****         x = (0 - x);        // is now +
 473              		.loc 1 154 17 view .LVU170
 474 0062 0123     		movs	r3, #1
 475 0064 CFE7     		b	.L19
 476              	.LVL65:
 477              	.L39:
 159:Drivers/lvgl/src/misc/lv_math.c ****         y = (0 - y);        // is now +
 478              		.loc 1 159 9 is_stmt 1 view .LVU171
 159:Drivers/lvgl/src/misc/lv_math.c ****         y = (0 - y);        // is now +
 479              		.loc 1 159 17 is_stmt 0 view .LVU172
 480 0066 0233     		adds	r3, r3, #2
 481              	.LVL66:
 159:Drivers/lvgl/src/misc/lv_math.c ****         y = (0 - y);        // is now +
 482              		.loc 1 159 17 view .LVU173
 483 0068 DBB2     		uxtb	r3, r3
 484              	.LVL67:
 160:Drivers/lvgl/src/misc/lv_math.c ****     }
 485              		.loc 1 160 9 is_stmt 1 view .LVU174
 160:Drivers/lvgl/src/misc/lv_math.c ****     }
 486              		.loc 1 160 11 is_stmt 0 view .LVU175
 487 006a 4942     		rsbs	r1, r1, #0
 488              	.LVL68:
 160:Drivers/lvgl/src/misc/lv_math.c ****     }
 489              		.loc 1 160 11 view .LVU176
 490 006c CDE7     		b	.L20
 491              	.LVL69:
 492              	.L21:
 170:Drivers/lvgl/src/misc/lv_math.c ****     }
 493              		.loc 1 170 9 is_stmt 1 view .LVU177
 170:Drivers/lvgl/src/misc/lv_math.c ****     }
 494              		.loc 1 170 22 is_stmt 0 view .LVU178
 495 006e 00EB4000 		add	r0, r0, r0, lsl #1
 496              	.LVL70:
 170:Drivers/lvgl/src/misc/lv_math.c ****     }
 497              		.loc 1 170 22 view .LVU179
 498 0072 C0EB0010 		rsb	r0, r0, r0, lsl #4
 170:Drivers/lvgl/src/misc/lv_math.c ****     }
 499              		.loc 1 170 16 view .LVU180
 500 0076 B0FBF1F1 		udiv	r1, r0, r1
 501              	.LVL71:
 170:Drivers/lvgl/src/misc/lv_math.c ****     }
 502              		.loc 1 170 16 view .LVU181
 503 007a D0E7     		b	.L22
 504              	.LVL72:
 505              	.L36:
 177:Drivers/lvgl/src/misc/lv_math.c ****         if(tempdegree <= 41) comp++;
 506              		.loc 1 177 34 view .LVU182
 507 007c 0120     		movs	r0, #1
 508 007e D4E7     		b	.L24
 509              	.L23:
 183:Drivers/lvgl/src/misc/lv_math.c ****         if(tempdegree >= 6) comp++;
 510              		.loc 1 183 9 is_stmt 1 view .LVU183
ARM GAS  /var/folders/0z/tsy30v1j4xl4_7kw94k978ww0000gn/T//ccyPizd3.s 			page 14


 183:Drivers/lvgl/src/misc/lv_math.c ****         if(tempdegree >= 6) comp++;
 511              		.loc 1 183 11 is_stmt 0 view .LVU184
 512 0080 012A     		cmp	r2, #1
 513 0082 0DD9     		bls	.L40
 183:Drivers/lvgl/src/misc/lv_math.c ****         if(tempdegree >= 6) comp++;
 514              		.loc 1 183 33 view .LVU185
 515 0084 0120     		movs	r0, #1
 516              	.L28:
 517              	.LVL73:
 184:Drivers/lvgl/src/misc/lv_math.c ****         if(tempdegree >= 10) comp++;
 518              		.loc 1 184 9 is_stmt 1 view .LVU186
 184:Drivers/lvgl/src/misc/lv_math.c ****         if(tempdegree >= 10) comp++;
 519              		.loc 1 184 11 is_stmt 0 view .LVU187
 520 0086 052A     		cmp	r2, #5
 521 0088 01D9     		bls	.L29
 184:Drivers/lvgl/src/misc/lv_math.c ****         if(tempdegree >= 10) comp++;
 522              		.loc 1 184 29 is_stmt 1 discriminator 1 view .LVU188
 184:Drivers/lvgl/src/misc/lv_math.c ****         if(tempdegree >= 10) comp++;
 523              		.loc 1 184 33 is_stmt 0 discriminator 1 view .LVU189
 524 008a 0130     		adds	r0, r0, #1
 525              	.LVL74:
 184:Drivers/lvgl/src/misc/lv_math.c ****         if(tempdegree >= 10) comp++;
 526              		.loc 1 184 33 discriminator 1 view .LVU190
 527 008c C0B2     		uxtb	r0, r0
 528              	.LVL75:
 529              	.L29:
 185:Drivers/lvgl/src/misc/lv_math.c ****         if(tempdegree >= 15) comp++;  // max is 4 degrees compensated
 530              		.loc 1 185 9 is_stmt 1 view .LVU191
 185:Drivers/lvgl/src/misc/lv_math.c ****         if(tempdegree >= 15) comp++;  // max is 4 degrees compensated
 531              		.loc 1 185 11 is_stmt 0 view .LVU192
 532 008e 092A     		cmp	r2, #9
 533 0090 01D9     		bls	.L30
 185:Drivers/lvgl/src/misc/lv_math.c ****         if(tempdegree >= 15) comp++;  // max is 4 degrees compensated
 534              		.loc 1 185 30 is_stmt 1 discriminator 1 view .LVU193
 185:Drivers/lvgl/src/misc/lv_math.c ****         if(tempdegree >= 15) comp++;  // max is 4 degrees compensated
 535              		.loc 1 185 34 is_stmt 0 discriminator 1 view .LVU194
 536 0092 0130     		adds	r0, r0, #1
 537              	.LVL76:
 185:Drivers/lvgl/src/misc/lv_math.c ****         if(tempdegree >= 15) comp++;  // max is 4 degrees compensated
 538              		.loc 1 185 34 discriminator 1 view .LVU195
 539 0094 C0B2     		uxtb	r0, r0
 540              	.LVL77:
 541              	.L30:
 186:Drivers/lvgl/src/misc/lv_math.c ****     }
 542              		.loc 1 186 9 is_stmt 1 view .LVU196
 186:Drivers/lvgl/src/misc/lv_math.c ****     }
 543              		.loc 1 186 11 is_stmt 0 view .LVU197
 544 0096 0E2A     		cmp	r2, #14
 545 0098 D3D9     		bls	.L27
 186:Drivers/lvgl/src/misc/lv_math.c ****     }
 546              		.loc 1 186 30 is_stmt 1 discriminator 1 view .LVU198
 186:Drivers/lvgl/src/misc/lv_math.c ****     }
 547              		.loc 1 186 34 is_stmt 0 discriminator 1 view .LVU199
 548 009a 0130     		adds	r0, r0, #1
 549              	.LVL78:
 186:Drivers/lvgl/src/misc/lv_math.c ****     }
 550              		.loc 1 186 34 discriminator 1 view .LVU200
ARM GAS  /var/folders/0z/tsy30v1j4xl4_7kw94k978ww0000gn/T//ccyPizd3.s 			page 15


 551 009c C0B2     		uxtb	r0, r0
 552              	.LVL79:
 186:Drivers/lvgl/src/misc/lv_math.c ****     }
 553              		.loc 1 186 34 discriminator 1 view .LVU201
 554 009e D0E7     		b	.L27
 555              	.LVL80:
 556              	.L40:
 174:Drivers/lvgl/src/misc/lv_math.c ****     tempdegree = degree;    // use an unsigned char for speed!
 557              		.loc 1 174 10 view .LVU202
 558 00a0 0020     		movs	r0, #0
 559 00a2 F0E7     		b	.L28
 560              	.LVL81:
 561              	.L33:
 199:Drivers/lvgl/src/misc/lv_math.c ****     }
 562              		.loc 1 199 13 is_stmt 1 view .LVU203
 199:Drivers/lvgl/src/misc/lv_math.c ****     }
 563              		.loc 1 199 20 is_stmt 0 view .LVU204
 564 00a4 C0F1B400 		rsb	r0, r0, #180
 565              	.LVL82:
 199:Drivers/lvgl/src/misc/lv_math.c ****     }
 566              		.loc 1 199 20 view .LVU205
 567 00a8 D8E7     		b	.L34
 568              	.L32:
 202:Drivers/lvgl/src/misc/lv_math.c ****             degree = (360 - degree);
 569              		.loc 1 202 9 is_stmt 1 view .LVU206
 202:Drivers/lvgl/src/misc/lv_math.c ****             degree = (360 - degree);
 570              		.loc 1 202 11 is_stmt 0 view .LVU207
 571 00aa 13F0010F 		tst	r3, #1
 572 00ae D5D0     		beq	.L34
 203:Drivers/lvgl/src/misc/lv_math.c ****     }
 573              		.loc 1 203 13 is_stmt 1 view .LVU208
 203:Drivers/lvgl/src/misc/lv_math.c ****     }
 574              		.loc 1 203 20 is_stmt 0 view .LVU209
 575 00b0 C0F5B470 		rsb	r0, r0, #360
 576              	.LVL83:
 203:Drivers/lvgl/src/misc/lv_math.c ****     }
 577              		.loc 1 203 20 view .LVU210
 578 00b4 D2E7     		b	.L34
 579              		.cfi_endproc
 580              	.LFE4:
 582              		.section	.text.lv_pow,"ax",%progbits
 583              		.align	1
 584              		.global	lv_pow
 585              		.syntax unified
 586              		.thumb
 587              		.thumb_func
 589              	lv_pow:
 590              	.LVL84:
 591              	.LFB5:
 207:Drivers/lvgl/src/misc/lv_math.c **** 
 208:Drivers/lvgl/src/misc/lv_math.c **** /**
 209:Drivers/lvgl/src/misc/lv_math.c ****  * Calculate the integer exponents.
 210:Drivers/lvgl/src/misc/lv_math.c ****  * @param base
 211:Drivers/lvgl/src/misc/lv_math.c ****  * @param power
 212:Drivers/lvgl/src/misc/lv_math.c ****  * @return base raised to the power exponent
 213:Drivers/lvgl/src/misc/lv_math.c ****  */
 214:Drivers/lvgl/src/misc/lv_math.c **** int64_t lv_pow(int64_t base, int8_t exp)
ARM GAS  /var/folders/0z/tsy30v1j4xl4_7kw94k978ww0000gn/T//ccyPizd3.s 			page 16


 215:Drivers/lvgl/src/misc/lv_math.c **** {
 592              		.loc 1 215 1 is_stmt 1 view -0
 593              		.cfi_startproc
 594              		@ args = 0, pretend = 0, frame = 0
 595              		@ frame_needed = 0, uses_anonymous_args = 0
 596              		.loc 1 215 1 is_stmt 0 view .LVU212
 597 0000 0346     		mov	r3, r0
 598 0002 8C46     		mov	ip, r1
 216:Drivers/lvgl/src/misc/lv_math.c ****     int64_t result = 1;
 599              		.loc 1 216 5 is_stmt 1 view .LVU213
 600              	.LVL85:
 217:Drivers/lvgl/src/misc/lv_math.c ****     while(exp) {
 601              		.loc 1 217 5 view .LVU214
 216:Drivers/lvgl/src/misc/lv_math.c ****     int64_t result = 1;
 602              		.loc 1 216 13 is_stmt 0 view .LVU215
 603 0004 0120     		movs	r0, #1
 604              	.LVL86:
 216:Drivers/lvgl/src/misc/lv_math.c ****     int64_t result = 1;
 605              		.loc 1 216 13 view .LVU216
 606 0006 0021     		movs	r1, #0
 607              	.LVL87:
 608              		.loc 1 217 11 is_stmt 1 view .LVU217
 609 0008 B2B1     		cbz	r2, .L49
 215:Drivers/lvgl/src/misc/lv_math.c ****     int64_t result = 1;
 610              		.loc 1 215 1 is_stmt 0 view .LVU218
 611 000a 00B5     		push	{lr}
 612              		.cfi_def_cfa_offset 4
 613              		.cfi_offset 14, -4
 614 000c 07E0     		b	.L44
 615              	.LVL88:
 616              	.L43:
 218:Drivers/lvgl/src/misc/lv_math.c ****         if(exp & 1)
 219:Drivers/lvgl/src/misc/lv_math.c ****             result *= base;
 220:Drivers/lvgl/src/misc/lv_math.c ****         exp >>= 1;
 617              		.loc 1 220 9 is_stmt 1 view .LVU219
 618              		.loc 1 220 13 is_stmt 0 view .LVU220
 619 000e 5210     		asrs	r2, r2, #1
 620              	.LVL89:
 221:Drivers/lvgl/src/misc/lv_math.c ****         base *= base;
 621              		.loc 1 221 9 is_stmt 1 view .LVU221
 622              		.loc 1 221 14 is_stmt 0 view .LVU222
 623 0010 03FB0CFE 		mul	lr, r3, ip
 624 0014 A3FB033C 		umull	r3, ip, r3, r3
 625 0018 0CEB4E0C 		add	ip, ip, lr, lsl #1
 626              	.LVL90:
 217:Drivers/lvgl/src/misc/lv_math.c ****         if(exp & 1)
 627              		.loc 1 217 11 is_stmt 1 view .LVU223
 628 001c 52B1     		cbz	r2, .L50
 629              	.LVL91:
 630              	.L44:
 218:Drivers/lvgl/src/misc/lv_math.c ****         if(exp & 1)
 631              		.loc 1 218 9 view .LVU224
 218:Drivers/lvgl/src/misc/lv_math.c ****         if(exp & 1)
 632              		.loc 1 218 11 is_stmt 0 view .LVU225
 633 001e 12F0010F 		tst	r2, #1
 634 0022 F4D0     		beq	.L43
 219:Drivers/lvgl/src/misc/lv_math.c ****         exp >>= 1;
ARM GAS  /var/folders/0z/tsy30v1j4xl4_7kw94k978ww0000gn/T//ccyPizd3.s 			page 17


 635              		.loc 1 219 13 is_stmt 1 view .LVU226
 219:Drivers/lvgl/src/misc/lv_math.c ****         exp >>= 1;
 636              		.loc 1 219 20 is_stmt 0 view .LVU227
 637 0024 00FB0CFE 		mul	lr, r0, ip
 638 0028 03FB01EE 		mla	lr, r3, r1, lr
 639 002c A0FB0301 		umull	r0, r1, r0, r3
 640 0030 7144     		add	r1, r1, lr
 641              	.LVL92:
 219:Drivers/lvgl/src/misc/lv_math.c ****         exp >>= 1;
 642              		.loc 1 219 20 view .LVU228
 643 0032 ECE7     		b	.L43
 644              	.LVL93:
 645              	.L50:
 222:Drivers/lvgl/src/misc/lv_math.c ****     }
 223:Drivers/lvgl/src/misc/lv_math.c **** 
 224:Drivers/lvgl/src/misc/lv_math.c ****     return result;
 646              		.loc 1 224 5 is_stmt 1 view .LVU229
 225:Drivers/lvgl/src/misc/lv_math.c **** }
 647              		.loc 1 225 1 is_stmt 0 view .LVU230
 648 0034 5DF804FB 		ldr	pc, [sp], #4
 649              	.L49:
 650              		.cfi_def_cfa_offset 0
 651              		.cfi_restore 14
 652              		.loc 1 225 1 view .LVU231
 653 0038 7047     		bx	lr
 654              		.cfi_endproc
 655              	.LFE5:
 657              		.section	.text.lv_map,"ax",%progbits
 658              		.align	1
 659              		.global	lv_map
 660              		.syntax unified
 661              		.thumb
 662              		.thumb_func
 664              	lv_map:
 665              	.LVL94:
 666              	.LFB6:
 226:Drivers/lvgl/src/misc/lv_math.c **** 
 227:Drivers/lvgl/src/misc/lv_math.c **** /**
 228:Drivers/lvgl/src/misc/lv_math.c ****  * Get the mapped of a number given an input and output range
 229:Drivers/lvgl/src/misc/lv_math.c ****  * @param x integer which mapped value should be calculated
 230:Drivers/lvgl/src/misc/lv_math.c ****  * @param min_in min input range
 231:Drivers/lvgl/src/misc/lv_math.c ****  * @param max_in max input range
 232:Drivers/lvgl/src/misc/lv_math.c ****  * @param min_out max output range
 233:Drivers/lvgl/src/misc/lv_math.c ****  * @param max_out max output range
 234:Drivers/lvgl/src/misc/lv_math.c ****  * @return the mapped number
 235:Drivers/lvgl/src/misc/lv_math.c ****  */
 236:Drivers/lvgl/src/misc/lv_math.c **** int32_t lv_map(int32_t x, int32_t min_in, int32_t max_in, int32_t min_out, int32_t max_out)
 237:Drivers/lvgl/src/misc/lv_math.c **** {
 667              		.loc 1 237 1 is_stmt 1 view -0
 668              		.cfi_startproc
 669              		@ args = 4, pretend = 0, frame = 0
 670              		@ frame_needed = 0, uses_anonymous_args = 0
 671              		@ link register save eliminated.
 672              		.loc 1 237 1 is_stmt 0 view .LVU233
 673 0000 10B4     		push	{r4}
 674              		.cfi_def_cfa_offset 4
 675              		.cfi_offset 4, -4
ARM GAS  /var/folders/0z/tsy30v1j4xl4_7kw94k978ww0000gn/T//ccyPizd3.s 			page 18


 238:Drivers/lvgl/src/misc/lv_math.c ****     if(max_in >= min_in && x >= max_in) return max_out;
 676              		.loc 1 238 5 is_stmt 1 view .LVU234
 677              		.loc 1 238 7 is_stmt 0 view .LVU235
 678 0002 8A42     		cmp	r2, r1
 679 0004 01DB     		blt	.L52
 680              		.loc 1 238 25 discriminator 1 view .LVU236
 681 0006 8242     		cmp	r2, r0
 682 0008 18DD     		ble	.L57
 683              	.L52:
 239:Drivers/lvgl/src/misc/lv_math.c ****     if(max_in >= min_in && x <= min_in) return min_out;
 684              		.loc 1 239 5 is_stmt 1 view .LVU237
 685              		.loc 1 239 7 is_stmt 0 view .LVU238
 686 000a 8A42     		cmp	r2, r1
 687 000c 01DB     		blt	.L54
 688              		.loc 1 239 25 discriminator 1 view .LVU239
 689 000e 8142     		cmp	r1, r0
 690 0010 16DA     		bge	.L58
 691              	.L54:
 240:Drivers/lvgl/src/misc/lv_math.c **** 
 241:Drivers/lvgl/src/misc/lv_math.c ****     if(max_in <= min_in && x <= max_in) return max_out;
 692              		.loc 1 241 5 is_stmt 1 view .LVU240
 693              		.loc 1 241 7 is_stmt 0 view .LVU241
 694 0012 8A42     		cmp	r2, r1
 695 0014 01DC     		bgt	.L55
 696              		.loc 1 241 25 discriminator 1 view .LVU242
 697 0016 8242     		cmp	r2, r0
 698 0018 14DA     		bge	.L59
 699              	.L55:
 242:Drivers/lvgl/src/misc/lv_math.c ****     if(max_in <= min_in && x >= min_in) return min_out;
 700              		.loc 1 242 5 is_stmt 1 view .LVU243
 701              		.loc 1 242 7 is_stmt 0 view .LVU244
 702 001a 8A42     		cmp	r2, r1
 703 001c 01DC     		bgt	.L56
 704              		.loc 1 242 25 discriminator 1 view .LVU245
 705 001e 8142     		cmp	r1, r0
 706 0020 12DD     		ble	.L60
 707              	.L56:
 243:Drivers/lvgl/src/misc/lv_math.c **** 
 244:Drivers/lvgl/src/misc/lv_math.c ****     /**
 245:Drivers/lvgl/src/misc/lv_math.c ****      * The equation should be:
 246:Drivers/lvgl/src/misc/lv_math.c ****      *   ((x - min_in) * delta_out) / delta in) + min_out
 247:Drivers/lvgl/src/misc/lv_math.c ****      * To avoid rounding error reorder the operations:
 248:Drivers/lvgl/src/misc/lv_math.c ****      *   (x - min_in) * (delta_out / delta_min) + min_out
 249:Drivers/lvgl/src/misc/lv_math.c ****      */
 250:Drivers/lvgl/src/misc/lv_math.c **** 
 251:Drivers/lvgl/src/misc/lv_math.c ****     int32_t delta_in = max_in - min_in;
 708              		.loc 1 251 5 is_stmt 1 view .LVU246
 709              		.loc 1 251 13 is_stmt 0 view .LVU247
 710 0022 521A     		subs	r2, r2, r1
 711              	.LVL95:
 252:Drivers/lvgl/src/misc/lv_math.c ****     int32_t delta_out = max_out - min_out;
 712              		.loc 1 252 5 is_stmt 1 view .LVU248
 713              		.loc 1 252 13 is_stmt 0 view .LVU249
 714 0024 019C     		ldr	r4, [sp, #4]
 715 0026 A4EB030C 		sub	ip, r4, r3
 716              	.LVL96:
 253:Drivers/lvgl/src/misc/lv_math.c **** 
ARM GAS  /var/folders/0z/tsy30v1j4xl4_7kw94k978ww0000gn/T//ccyPizd3.s 			page 19


 254:Drivers/lvgl/src/misc/lv_math.c ****     return ((x - min_in) * delta_out) / delta_in + min_out;
 717              		.loc 1 254 5 is_stmt 1 view .LVU250
 718              		.loc 1 254 16 is_stmt 0 view .LVU251
 719 002a 411A     		subs	r1, r0, r1
 720              	.LVL97:
 721              		.loc 1 254 26 view .LVU252
 722 002c 0CFB01F1 		mul	r1, ip, r1
 723              		.loc 1 254 39 view .LVU253
 724 0030 91FBF2F2 		sdiv	r2, r1, r2
 725              	.LVL98:
 726              		.loc 1 254 50 view .LVU254
 727 0034 D018     		adds	r0, r2, r3
 728              	.LVL99:
 729              	.L51:
 255:Drivers/lvgl/src/misc/lv_math.c **** }
 730              		.loc 1 255 1 view .LVU255
 731 0036 5DF8044B 		ldr	r4, [sp], #4
 732              		.cfi_remember_state
 733              		.cfi_restore 4
 734              		.cfi_def_cfa_offset 0
 735              	.LVL100:
 736              		.loc 1 255 1 view .LVU256
 737 003a 7047     		bx	lr
 738              	.LVL101:
 739              	.L57:
 740              		.cfi_restore_state
 238:Drivers/lvgl/src/misc/lv_math.c ****     if(max_in >= min_in && x <= min_in) return min_out;
 741              		.loc 1 238 48 view .LVU257
 742 003c 0198     		ldr	r0, [sp, #4]
 743              	.LVL102:
 238:Drivers/lvgl/src/misc/lv_math.c ****     if(max_in >= min_in && x <= min_in) return min_out;
 744              		.loc 1 238 48 view .LVU258
 745 003e FAE7     		b	.L51
 746              	.LVL103:
 747              	.L58:
 239:Drivers/lvgl/src/misc/lv_math.c **** 
 748              		.loc 1 239 48 view .LVU259
 749 0040 1846     		mov	r0, r3
 750              	.LVL104:
 239:Drivers/lvgl/src/misc/lv_math.c **** 
 751              		.loc 1 239 48 view .LVU260
 752 0042 F8E7     		b	.L51
 753              	.LVL105:
 754              	.L59:
 241:Drivers/lvgl/src/misc/lv_math.c ****     if(max_in <= min_in && x >= min_in) return min_out;
 755              		.loc 1 241 48 view .LVU261
 756 0044 0198     		ldr	r0, [sp, #4]
 757              	.LVL106:
 241:Drivers/lvgl/src/misc/lv_math.c ****     if(max_in <= min_in && x >= min_in) return min_out;
 758              		.loc 1 241 48 view .LVU262
 759 0046 F6E7     		b	.L51
 760              	.LVL107:
 761              	.L60:
 242:Drivers/lvgl/src/misc/lv_math.c **** 
 762              		.loc 1 242 48 view .LVU263
 763 0048 1846     		mov	r0, r3
 764              	.LVL108:
ARM GAS  /var/folders/0z/tsy30v1j4xl4_7kw94k978ww0000gn/T//ccyPizd3.s 			page 20


 242:Drivers/lvgl/src/misc/lv_math.c **** 
 765              		.loc 1 242 48 view .LVU264
 766 004a F4E7     		b	.L51
 767              		.cfi_endproc
 768              	.LFE6:
 770              		.section	.text.lv_rand,"ax",%progbits
 771              		.align	1
 772              		.global	lv_rand
 773              		.syntax unified
 774              		.thumb
 775              		.thumb_func
 777              	lv_rand:
 778              	.LVL109:
 779              	.LFB7:
 256:Drivers/lvgl/src/misc/lv_math.c **** 
 257:Drivers/lvgl/src/misc/lv_math.c **** uint32_t lv_rand(uint32_t min, uint32_t max)
 258:Drivers/lvgl/src/misc/lv_math.c **** {
 780              		.loc 1 258 1 is_stmt 1 view -0
 781              		.cfi_startproc
 782              		@ args = 0, pretend = 0, frame = 0
 783              		@ frame_needed = 0, uses_anonymous_args = 0
 784              		@ link register save eliminated.
 259:Drivers/lvgl/src/misc/lv_math.c ****     static uint32_t a = 0x1234ABCD; /*Seed*/
 785              		.loc 1 259 5 view .LVU266
 260:Drivers/lvgl/src/misc/lv_math.c **** 
 261:Drivers/lvgl/src/misc/lv_math.c ****     /*Algorithm "xor" from p. 4 of Marsaglia, "Xorshift RNGs"*/
 262:Drivers/lvgl/src/misc/lv_math.c ****     uint32_t x = a;
 786              		.loc 1 262 5 view .LVU267
 787              		.loc 1 262 14 is_stmt 0 view .LVU268
 788 0000 084A     		ldr	r2, .L63
 789 0002 1368     		ldr	r3, [r2]
 790              	.LVL110:
 263:Drivers/lvgl/src/misc/lv_math.c ****     x ^= x << 13;
 791              		.loc 1 263 5 is_stmt 1 view .LVU269
 792              		.loc 1 263 7 is_stmt 0 view .LVU270
 793 0004 83EA4333 		eor	r3, r3, r3, lsl #13
 794              	.LVL111:
 264:Drivers/lvgl/src/misc/lv_math.c ****     x ^= x >> 17;
 795              		.loc 1 264 5 is_stmt 1 view .LVU271
 796              		.loc 1 264 7 is_stmt 0 view .LVU272
 797 0008 83EA5343 		eor	r3, r3, r3, lsr #17
 798              	.LVL112:
 265:Drivers/lvgl/src/misc/lv_math.c ****     x ^= x << 5;
 799              		.loc 1 265 5 is_stmt 1 view .LVU273
 800              		.loc 1 265 7 is_stmt 0 view .LVU274
 801 000c 83EA4313 		eor	r3, r3, r3, lsl #5
 802              	.LVL113:
 266:Drivers/lvgl/src/misc/lv_math.c ****     a = x;
 803              		.loc 1 266 5 is_stmt 1 view .LVU275
 804              		.loc 1 266 7 is_stmt 0 view .LVU276
 805 0010 1360     		str	r3, [r2]
 267:Drivers/lvgl/src/misc/lv_math.c **** 
 268:Drivers/lvgl/src/misc/lv_math.c ****     return (a % (max - min + 1)) + min;
 806              		.loc 1 268 5 is_stmt 1 view .LVU277
 807              		.loc 1 268 22 is_stmt 0 view .LVU278
 808 0012 091A     		subs	r1, r1, r0
 809              	.LVL114:
ARM GAS  /var/folders/0z/tsy30v1j4xl4_7kw94k978ww0000gn/T//ccyPizd3.s 			page 21


 810              		.loc 1 268 28 view .LVU279
 811 0014 0131     		adds	r1, r1, #1
 812              		.loc 1 268 15 view .LVU280
 813 0016 B3FBF1F2 		udiv	r2, r3, r1
 814 001a 01FB1233 		mls	r3, r1, r2, r3
 815              	.LVL115:
 269:Drivers/lvgl/src/misc/lv_math.c **** }
 816              		.loc 1 269 1 view .LVU281
 817 001e 1844     		add	r0, r0, r3
 818              	.LVL116:
 819              		.loc 1 269 1 view .LVU282
 820 0020 7047     		bx	lr
 821              	.L64:
 822 0022 00BF     		.align	2
 823              	.L63:
 824 0024 00000000 		.word	.LANCHOR1
 825              		.cfi_endproc
 826              	.LFE7:
 828              		.section	.data.a.0,"aw"
 829              		.align	2
 830              		.set	.LANCHOR1,. + 0
 833              	a.0:
 834 0000 CDAB3412 		.word	305441741
 835              		.section	.rodata.sin0_90_table,"a"
 836              		.align	2
 837              		.set	.LANCHOR0,. + 0
 840              	sin0_90_table:
 841 0000 0000     		.short	0
 842 0002 3C02     		.short	572
 843 0004 7804     		.short	1144
 844 0006 B306     		.short	1715
 845 0008 EE08     		.short	2286
 846 000a 280B     		.short	2856
 847 000c 610D     		.short	3425
 848 000e 990F     		.short	3993
 849 0010 D011     		.short	4560
 850 0012 0614     		.short	5126
 851 0014 3A16     		.short	5690
 852 0016 6C18     		.short	6252
 853 0018 9D1A     		.short	6813
 854 001a CB1C     		.short	7371
 855 001c F71E     		.short	7927
 856 001e 2121     		.short	8481
 857 0020 4823     		.short	9032
 858 0022 6C25     		.short	9580
 859 0024 8E27     		.short	10126
 860 0026 AC29     		.short	10668
 861 0028 C72B     		.short	11207
 862 002a DF2D     		.short	11743
 863 002c F32F     		.short	12275
 864 002e 0332     		.short	12803
 865 0030 1034     		.short	13328
 866 0032 1836     		.short	13848
 867 0034 1C38     		.short	14364
 868 0036 1C3A     		.short	14876
 869 0038 173C     		.short	15383
 870 003a 0E3E     		.short	15886
ARM GAS  /var/folders/0z/tsy30v1j4xl4_7kw94k978ww0000gn/T//ccyPizd3.s 			page 22


 871 003c FF3F     		.short	16383
 872 003e EC41     		.short	16876
 873 0040 D443     		.short	17364
 874 0042 B645     		.short	17846
 875 0044 9347     		.short	18323
 876 0046 6A49     		.short	18794
 877 0048 3C4B     		.short	19260
 878 004a 084D     		.short	19720
 879 004c CD4E     		.short	20173
 880 004e 8D50     		.short	20621
 881 0050 4652     		.short	21062
 882 0052 F953     		.short	21497
 883 0054 A555     		.short	21925
 884 0056 4B57     		.short	22347
 885 0058 EA58     		.short	22762
 886 005a 825A     		.short	23170
 887 005c 135C     		.short	23571
 888 005e 9C5D     		.short	23964
 889 0060 1F5F     		.short	24351
 890 0062 9A60     		.short	24730
 891 0064 0D62     		.short	25101
 892 0066 7963     		.short	25465
 893 0068 DD64     		.short	25821
 894 006a 3966     		.short	26169
 895 006c 8D67     		.short	26509
 896 006e D968     		.short	26841
 897 0070 1D6A     		.short	27165
 898 0072 596B     		.short	27481
 899 0074 8C6C     		.short	27788
 900 0076 B76D     		.short	28087
 901 0078 D96E     		.short	28377
 902 007a F36F     		.short	28659
 903 007c 0471     		.short	28932
 904 007e 0C72     		.short	29196
 905 0080 0B73     		.short	29451
 906 0082 0174     		.short	29697
 907 0084 EE74     		.short	29934
 908 0086 D275     		.short	30162
 909 0088 AD76     		.short	30381
 910 008a 7F77     		.short	30591
 911 008c 4778     		.short	30791
 912 008e 0679     		.short	30982
 913 0090 BB79     		.short	31163
 914 0092 677A     		.short	31335
 915 0094 0A7B     		.short	31498
 916 0096 A27B     		.short	31650
 917 0098 327C     		.short	31794
 918 009a B77C     		.short	31927
 919 009c 337D     		.short	32051
 920 009e A57D     		.short	32165
 921 00a0 0D7E     		.short	32269
 922 00a2 6C7E     		.short	32364
 923 00a4 C07E     		.short	32448
 924 00a6 0B7F     		.short	32523
 925 00a8 4B7F     		.short	32587
 926 00aa 827F     		.short	32642
 927 00ac AF7F     		.short	32687
ARM GAS  /var/folders/0z/tsy30v1j4xl4_7kw94k978ww0000gn/T//ccyPizd3.s 			page 23


 928 00ae D27F     		.short	32722
 929 00b0 EB7F     		.short	32747
 930 00b2 FA7F     		.short	32762
 931 00b4 FF7F     		.short	32767
 932              		.text
 933              	.Letext0:
 934              		.file 2 "/Users/johannes/Library/Application Support/Code/User/globalStorage/bmd.stm32-for-vscode/
 935              		.file 3 "/Users/johannes/Library/Application Support/Code/User/globalStorage/bmd.stm32-for-vscode/
 936              		.file 4 "Drivers/lvgl/src/misc/lv_math.h"
ARM GAS  /var/folders/0z/tsy30v1j4xl4_7kw94k978ww0000gn/T//ccyPizd3.s 			page 24

