ARM GAS  /var/folders/0z/tsy30v1j4xl4_7kw94k978ww0000gn/T//cc4e96aK.s 			page 1


   1              		.cpu cortex-m4
   2              		.arch armv7e-m
   3              		.fpu fpv4-sp-d16
   4              		.eabi_attribute 27, 1
   5              		.eabi_attribute 28, 1
   6              		.eabi_attribute 20, 1
   7              		.eabi_attribute 21, 1
   8              		.eabi_attribute 23, 3
   9              		.eabi_attribute 24, 1
  10              		.eabi_attribute 25, 1
  11              		.eabi_attribute 26, 1
  12              		.eabi_attribute 30, 1
  13              		.eabi_attribute 34, 1
  14              		.eabi_attribute 18, 4
  15              		.file	"lv_obj_pos.c"
  16              		.text
  17              	.Ltext0:
  18              		.cfi_sections	.debug_frame
  19              		.section	.text.transform_point,"ax",%progbits
  20              		.align	1
  21              		.syntax unified
  22              		.thumb
  23              		.thumb_func
  25              	transform_point:
  26              	.LVL0:
  27              	.LFB216:
  28              		.file 1 "Drivers/lvgl/src/core/lv_obj_pos.c"
   1:Drivers/lvgl/src/core/lv_obj_pos.c **** /**
   2:Drivers/lvgl/src/core/lv_obj_pos.c ****  * @file lv_obj_pos.c
   3:Drivers/lvgl/src/core/lv_obj_pos.c ****  *
   4:Drivers/lvgl/src/core/lv_obj_pos.c ****  */
   5:Drivers/lvgl/src/core/lv_obj_pos.c **** 
   6:Drivers/lvgl/src/core/lv_obj_pos.c **** /*********************
   7:Drivers/lvgl/src/core/lv_obj_pos.c ****  *      INCLUDES
   8:Drivers/lvgl/src/core/lv_obj_pos.c ****  *********************/
   9:Drivers/lvgl/src/core/lv_obj_pos.c **** #include "lv_obj.h"
  10:Drivers/lvgl/src/core/lv_obj_pos.c **** #include "lv_disp.h"
  11:Drivers/lvgl/src/core/lv_obj_pos.c **** #include "lv_refr.h"
  12:Drivers/lvgl/src/core/lv_obj_pos.c **** #include "../misc/lv_gc.h"
  13:Drivers/lvgl/src/core/lv_obj_pos.c **** 
  14:Drivers/lvgl/src/core/lv_obj_pos.c **** /*********************
  15:Drivers/lvgl/src/core/lv_obj_pos.c ****  *      DEFINES
  16:Drivers/lvgl/src/core/lv_obj_pos.c ****  *********************/
  17:Drivers/lvgl/src/core/lv_obj_pos.c **** #define MY_CLASS &lv_obj_class
  18:Drivers/lvgl/src/core/lv_obj_pos.c **** 
  19:Drivers/lvgl/src/core/lv_obj_pos.c **** /**********************
  20:Drivers/lvgl/src/core/lv_obj_pos.c ****  *      TYPEDEFS
  21:Drivers/lvgl/src/core/lv_obj_pos.c ****  **********************/
  22:Drivers/lvgl/src/core/lv_obj_pos.c **** 
  23:Drivers/lvgl/src/core/lv_obj_pos.c **** /**********************
  24:Drivers/lvgl/src/core/lv_obj_pos.c ****  *  STATIC PROTOTYPES
  25:Drivers/lvgl/src/core/lv_obj_pos.c ****  **********************/
  26:Drivers/lvgl/src/core/lv_obj_pos.c **** static lv_coord_t calc_content_width(lv_obj_t * obj);
  27:Drivers/lvgl/src/core/lv_obj_pos.c **** static lv_coord_t calc_content_height(lv_obj_t * obj);
  28:Drivers/lvgl/src/core/lv_obj_pos.c **** static void layout_update_core(lv_obj_t * obj);
  29:Drivers/lvgl/src/core/lv_obj_pos.c **** static void transform_point(const lv_obj_t * obj, lv_point_t * p, bool inv);
  30:Drivers/lvgl/src/core/lv_obj_pos.c **** 
ARM GAS  /var/folders/0z/tsy30v1j4xl4_7kw94k978ww0000gn/T//cc4e96aK.s 			page 2


  31:Drivers/lvgl/src/core/lv_obj_pos.c **** /**********************
  32:Drivers/lvgl/src/core/lv_obj_pos.c ****  *  STATIC VARIABLES
  33:Drivers/lvgl/src/core/lv_obj_pos.c ****  **********************/
  34:Drivers/lvgl/src/core/lv_obj_pos.c **** static uint32_t layout_cnt;
  35:Drivers/lvgl/src/core/lv_obj_pos.c **** 
  36:Drivers/lvgl/src/core/lv_obj_pos.c **** /**********************
  37:Drivers/lvgl/src/core/lv_obj_pos.c ****  *      MACROS
  38:Drivers/lvgl/src/core/lv_obj_pos.c ****  **********************/
  39:Drivers/lvgl/src/core/lv_obj_pos.c **** 
  40:Drivers/lvgl/src/core/lv_obj_pos.c **** /**********************
  41:Drivers/lvgl/src/core/lv_obj_pos.c ****  *   GLOBAL FUNCTIONS
  42:Drivers/lvgl/src/core/lv_obj_pos.c ****  **********************/
  43:Drivers/lvgl/src/core/lv_obj_pos.c **** 
  44:Drivers/lvgl/src/core/lv_obj_pos.c **** void lv_obj_set_pos(lv_obj_t * obj, lv_coord_t x, lv_coord_t y)
  45:Drivers/lvgl/src/core/lv_obj_pos.c **** {
  46:Drivers/lvgl/src/core/lv_obj_pos.c ****     LV_ASSERT_OBJ(obj, MY_CLASS);
  47:Drivers/lvgl/src/core/lv_obj_pos.c **** 
  48:Drivers/lvgl/src/core/lv_obj_pos.c ****     lv_obj_set_x(obj, x);
  49:Drivers/lvgl/src/core/lv_obj_pos.c ****     lv_obj_set_y(obj, y);
  50:Drivers/lvgl/src/core/lv_obj_pos.c **** }
  51:Drivers/lvgl/src/core/lv_obj_pos.c **** 
  52:Drivers/lvgl/src/core/lv_obj_pos.c **** void lv_obj_set_x(lv_obj_t * obj, lv_coord_t x)
  53:Drivers/lvgl/src/core/lv_obj_pos.c **** {
  54:Drivers/lvgl/src/core/lv_obj_pos.c ****     LV_ASSERT_OBJ(obj, MY_CLASS);
  55:Drivers/lvgl/src/core/lv_obj_pos.c **** 
  56:Drivers/lvgl/src/core/lv_obj_pos.c ****     lv_res_t res_x;
  57:Drivers/lvgl/src/core/lv_obj_pos.c ****     lv_style_value_t v_x;
  58:Drivers/lvgl/src/core/lv_obj_pos.c **** 
  59:Drivers/lvgl/src/core/lv_obj_pos.c ****     res_x = lv_obj_get_local_style_prop(obj, LV_STYLE_X, &v_x, 0);
  60:Drivers/lvgl/src/core/lv_obj_pos.c **** 
  61:Drivers/lvgl/src/core/lv_obj_pos.c ****     if((res_x == LV_RES_OK && v_x.num != x) || res_x == LV_RES_INV) {
  62:Drivers/lvgl/src/core/lv_obj_pos.c ****         lv_obj_set_style_x(obj, x, 0);
  63:Drivers/lvgl/src/core/lv_obj_pos.c ****     }
  64:Drivers/lvgl/src/core/lv_obj_pos.c **** }
  65:Drivers/lvgl/src/core/lv_obj_pos.c **** 
  66:Drivers/lvgl/src/core/lv_obj_pos.c **** void lv_obj_set_y(lv_obj_t * obj, lv_coord_t y)
  67:Drivers/lvgl/src/core/lv_obj_pos.c **** {
  68:Drivers/lvgl/src/core/lv_obj_pos.c ****     LV_ASSERT_OBJ(obj, MY_CLASS);
  69:Drivers/lvgl/src/core/lv_obj_pos.c **** 
  70:Drivers/lvgl/src/core/lv_obj_pos.c ****     lv_res_t res_y;
  71:Drivers/lvgl/src/core/lv_obj_pos.c ****     lv_style_value_t v_y;
  72:Drivers/lvgl/src/core/lv_obj_pos.c **** 
  73:Drivers/lvgl/src/core/lv_obj_pos.c ****     res_y = lv_obj_get_local_style_prop(obj, LV_STYLE_Y, &v_y, 0);
  74:Drivers/lvgl/src/core/lv_obj_pos.c **** 
  75:Drivers/lvgl/src/core/lv_obj_pos.c ****     if((res_y == LV_RES_OK && v_y.num != y) || res_y == LV_RES_INV) {
  76:Drivers/lvgl/src/core/lv_obj_pos.c ****         lv_obj_set_style_y(obj, y, 0);
  77:Drivers/lvgl/src/core/lv_obj_pos.c ****     }
  78:Drivers/lvgl/src/core/lv_obj_pos.c **** }
  79:Drivers/lvgl/src/core/lv_obj_pos.c **** 
  80:Drivers/lvgl/src/core/lv_obj_pos.c **** bool lv_obj_refr_size(lv_obj_t * obj)
  81:Drivers/lvgl/src/core/lv_obj_pos.c **** {
  82:Drivers/lvgl/src/core/lv_obj_pos.c ****     LV_ASSERT_OBJ(obj, MY_CLASS);
  83:Drivers/lvgl/src/core/lv_obj_pos.c **** 
  84:Drivers/lvgl/src/core/lv_obj_pos.c ****     /*If the width or height is set by a layout do not modify them*/
  85:Drivers/lvgl/src/core/lv_obj_pos.c ****     if(obj->w_layout && obj->h_layout) return false;
  86:Drivers/lvgl/src/core/lv_obj_pos.c **** 
  87:Drivers/lvgl/src/core/lv_obj_pos.c ****     lv_obj_t * parent = lv_obj_get_parent(obj);
ARM GAS  /var/folders/0z/tsy30v1j4xl4_7kw94k978ww0000gn/T//cc4e96aK.s 			page 3


  88:Drivers/lvgl/src/core/lv_obj_pos.c ****     if(parent == NULL) return false;
  89:Drivers/lvgl/src/core/lv_obj_pos.c **** 
  90:Drivers/lvgl/src/core/lv_obj_pos.c ****     lv_coord_t sl_ori = lv_obj_get_scroll_left(obj);
  91:Drivers/lvgl/src/core/lv_obj_pos.c ****     bool w_is_content = false;
  92:Drivers/lvgl/src/core/lv_obj_pos.c ****     bool w_is_pct = false;
  93:Drivers/lvgl/src/core/lv_obj_pos.c **** 
  94:Drivers/lvgl/src/core/lv_obj_pos.c ****     lv_coord_t w;
  95:Drivers/lvgl/src/core/lv_obj_pos.c ****     if(obj->w_layout) {
  96:Drivers/lvgl/src/core/lv_obj_pos.c ****         w = lv_obj_get_width(obj);
  97:Drivers/lvgl/src/core/lv_obj_pos.c ****     }
  98:Drivers/lvgl/src/core/lv_obj_pos.c ****     else {
  99:Drivers/lvgl/src/core/lv_obj_pos.c ****         w = lv_obj_get_style_width(obj, LV_PART_MAIN);
 100:Drivers/lvgl/src/core/lv_obj_pos.c ****         w_is_content = w == LV_SIZE_CONTENT ? true : false;
 101:Drivers/lvgl/src/core/lv_obj_pos.c ****         w_is_pct = LV_COORD_IS_PCT(w) ? true : false;
 102:Drivers/lvgl/src/core/lv_obj_pos.c ****         lv_coord_t parent_w = lv_obj_get_content_width(parent);
 103:Drivers/lvgl/src/core/lv_obj_pos.c **** 
 104:Drivers/lvgl/src/core/lv_obj_pos.c ****         if(w_is_content) {
 105:Drivers/lvgl/src/core/lv_obj_pos.c ****             w = calc_content_width(obj);
 106:Drivers/lvgl/src/core/lv_obj_pos.c ****         }
 107:Drivers/lvgl/src/core/lv_obj_pos.c ****         else if(w_is_pct) {
 108:Drivers/lvgl/src/core/lv_obj_pos.c ****             /*If parent has content size and the child has pct size
 109:Drivers/lvgl/src/core/lv_obj_pos.c ****              *a circular dependency will occur. To solve it keep child size at zero */
 110:Drivers/lvgl/src/core/lv_obj_pos.c ****             if(parent->w_layout == 0 && lv_obj_get_style_width(parent, 0) == LV_SIZE_CONTENT) {
 111:Drivers/lvgl/src/core/lv_obj_pos.c ****                 lv_coord_t border_w = lv_obj_get_style_border_width(obj, 0);
 112:Drivers/lvgl/src/core/lv_obj_pos.c ****                 w = lv_obj_get_style_pad_left(obj, 0) + border_w;
 113:Drivers/lvgl/src/core/lv_obj_pos.c ****                 w += lv_obj_get_style_pad_right(obj, 0) + border_w;
 114:Drivers/lvgl/src/core/lv_obj_pos.c ****             }
 115:Drivers/lvgl/src/core/lv_obj_pos.c ****             else {
 116:Drivers/lvgl/src/core/lv_obj_pos.c ****                 w = (LV_COORD_GET_PCT(w) * parent_w) / 100;
 117:Drivers/lvgl/src/core/lv_obj_pos.c ****             }
 118:Drivers/lvgl/src/core/lv_obj_pos.c ****         }
 119:Drivers/lvgl/src/core/lv_obj_pos.c **** 
 120:Drivers/lvgl/src/core/lv_obj_pos.c ****         lv_coord_t minw = lv_obj_get_style_min_width(obj, LV_PART_MAIN);
 121:Drivers/lvgl/src/core/lv_obj_pos.c ****         lv_coord_t maxw = lv_obj_get_style_max_width(obj, LV_PART_MAIN);
 122:Drivers/lvgl/src/core/lv_obj_pos.c ****         w = lv_clamp_width(w, minw, maxw, parent_w);
 123:Drivers/lvgl/src/core/lv_obj_pos.c ****     }
 124:Drivers/lvgl/src/core/lv_obj_pos.c **** 
 125:Drivers/lvgl/src/core/lv_obj_pos.c ****     lv_coord_t st_ori = lv_obj_get_scroll_top(obj);
 126:Drivers/lvgl/src/core/lv_obj_pos.c ****     lv_coord_t h;
 127:Drivers/lvgl/src/core/lv_obj_pos.c ****     bool h_is_content = false;
 128:Drivers/lvgl/src/core/lv_obj_pos.c ****     bool h_is_pct = false;
 129:Drivers/lvgl/src/core/lv_obj_pos.c ****     if(obj->h_layout) {
 130:Drivers/lvgl/src/core/lv_obj_pos.c ****         h = lv_obj_get_height(obj);
 131:Drivers/lvgl/src/core/lv_obj_pos.c ****     }
 132:Drivers/lvgl/src/core/lv_obj_pos.c ****     else {
 133:Drivers/lvgl/src/core/lv_obj_pos.c ****         h = lv_obj_get_style_height(obj, LV_PART_MAIN);
 134:Drivers/lvgl/src/core/lv_obj_pos.c ****         h_is_content = h == LV_SIZE_CONTENT ? true : false;
 135:Drivers/lvgl/src/core/lv_obj_pos.c ****         h_is_pct = LV_COORD_IS_PCT(h) ? true : false;
 136:Drivers/lvgl/src/core/lv_obj_pos.c ****         lv_coord_t parent_h = lv_obj_get_content_height(parent);
 137:Drivers/lvgl/src/core/lv_obj_pos.c **** 
 138:Drivers/lvgl/src/core/lv_obj_pos.c ****         if(h_is_content) {
 139:Drivers/lvgl/src/core/lv_obj_pos.c ****             h = calc_content_height(obj);
 140:Drivers/lvgl/src/core/lv_obj_pos.c ****         }
 141:Drivers/lvgl/src/core/lv_obj_pos.c ****         else if(h_is_pct) {
 142:Drivers/lvgl/src/core/lv_obj_pos.c ****             /*If parent has content size and the child has pct size
 143:Drivers/lvgl/src/core/lv_obj_pos.c ****              *a circular dependency will occur. To solve it keep child size at zero */
 144:Drivers/lvgl/src/core/lv_obj_pos.c ****             if(parent->h_layout == 0 && lv_obj_get_style_height(parent, 0) == LV_SIZE_CONTENT) {
ARM GAS  /var/folders/0z/tsy30v1j4xl4_7kw94k978ww0000gn/T//cc4e96aK.s 			page 4


 145:Drivers/lvgl/src/core/lv_obj_pos.c ****                 lv_coord_t border_w = lv_obj_get_style_border_width(obj, 0);
 146:Drivers/lvgl/src/core/lv_obj_pos.c ****                 h = lv_obj_get_style_pad_top(obj, 0) + border_w;
 147:Drivers/lvgl/src/core/lv_obj_pos.c ****                 h += lv_obj_get_style_pad_bottom(obj, 0) + border_w;
 148:Drivers/lvgl/src/core/lv_obj_pos.c ****             }
 149:Drivers/lvgl/src/core/lv_obj_pos.c ****             else {
 150:Drivers/lvgl/src/core/lv_obj_pos.c ****                 h = (LV_COORD_GET_PCT(h) * parent_h) / 100;
 151:Drivers/lvgl/src/core/lv_obj_pos.c ****             }
 152:Drivers/lvgl/src/core/lv_obj_pos.c ****         }
 153:Drivers/lvgl/src/core/lv_obj_pos.c **** 
 154:Drivers/lvgl/src/core/lv_obj_pos.c ****         lv_coord_t minh = lv_obj_get_style_min_height(obj, LV_PART_MAIN);
 155:Drivers/lvgl/src/core/lv_obj_pos.c ****         lv_coord_t maxh = lv_obj_get_style_max_height(obj, LV_PART_MAIN);
 156:Drivers/lvgl/src/core/lv_obj_pos.c ****         h = lv_clamp_height(h, minh, maxh, parent_h);
 157:Drivers/lvgl/src/core/lv_obj_pos.c ****     }
 158:Drivers/lvgl/src/core/lv_obj_pos.c **** 
 159:Drivers/lvgl/src/core/lv_obj_pos.c ****     /*calc_auto_size set the scroll x/y to 0 so revert the original value*/
 160:Drivers/lvgl/src/core/lv_obj_pos.c ****     if(w_is_content || h_is_content) {
 161:Drivers/lvgl/src/core/lv_obj_pos.c ****         lv_obj_scroll_to(obj, sl_ori, st_ori, LV_ANIM_OFF);
 162:Drivers/lvgl/src/core/lv_obj_pos.c ****     }
 163:Drivers/lvgl/src/core/lv_obj_pos.c **** 
 164:Drivers/lvgl/src/core/lv_obj_pos.c ****     /*Do nothing if the size is not changed*/
 165:Drivers/lvgl/src/core/lv_obj_pos.c ****     /*It is very important else recursive resizing can occur without size change*/
 166:Drivers/lvgl/src/core/lv_obj_pos.c ****     if(lv_obj_get_width(obj) == w && lv_obj_get_height(obj) == h) return false;
 167:Drivers/lvgl/src/core/lv_obj_pos.c **** 
 168:Drivers/lvgl/src/core/lv_obj_pos.c ****     /*Invalidate the original area*/
 169:Drivers/lvgl/src/core/lv_obj_pos.c ****     lv_obj_invalidate(obj);
 170:Drivers/lvgl/src/core/lv_obj_pos.c **** 
 171:Drivers/lvgl/src/core/lv_obj_pos.c ****     /*Save the original coordinates*/
 172:Drivers/lvgl/src/core/lv_obj_pos.c ****     lv_area_t ori;
 173:Drivers/lvgl/src/core/lv_obj_pos.c ****     lv_obj_get_coords(obj, &ori);
 174:Drivers/lvgl/src/core/lv_obj_pos.c **** 
 175:Drivers/lvgl/src/core/lv_obj_pos.c ****     /*Check if the object inside the parent or not*/
 176:Drivers/lvgl/src/core/lv_obj_pos.c ****     lv_area_t parent_fit_area;
 177:Drivers/lvgl/src/core/lv_obj_pos.c ****     lv_obj_get_content_coords(parent, &parent_fit_area);
 178:Drivers/lvgl/src/core/lv_obj_pos.c **** 
 179:Drivers/lvgl/src/core/lv_obj_pos.c ****     /*If the object is already out of the parent and its position is changes
 180:Drivers/lvgl/src/core/lv_obj_pos.c ****      *surely the scrollbars also changes so invalidate them*/
 181:Drivers/lvgl/src/core/lv_obj_pos.c ****     bool on1 = _lv_area_is_in(&ori, &parent_fit_area, 0);
 182:Drivers/lvgl/src/core/lv_obj_pos.c ****     if(!on1) lv_obj_scrollbar_invalidate(parent);
 183:Drivers/lvgl/src/core/lv_obj_pos.c **** 
 184:Drivers/lvgl/src/core/lv_obj_pos.c ****     /*Set the length and height
 185:Drivers/lvgl/src/core/lv_obj_pos.c ****      *Be sure the content is not scrolled in an invalid position on the new size*/
 186:Drivers/lvgl/src/core/lv_obj_pos.c ****     obj->coords.y2 = obj->coords.y1 + h - 1;
 187:Drivers/lvgl/src/core/lv_obj_pos.c ****     if(lv_obj_get_style_base_dir(obj, LV_PART_MAIN) == LV_BASE_DIR_RTL) {
 188:Drivers/lvgl/src/core/lv_obj_pos.c ****         obj->coords.x1 = obj->coords.x2 - w + 1;
 189:Drivers/lvgl/src/core/lv_obj_pos.c ****     }
 190:Drivers/lvgl/src/core/lv_obj_pos.c ****     else {
 191:Drivers/lvgl/src/core/lv_obj_pos.c ****         obj->coords.x2 = obj->coords.x1 + w - 1;
 192:Drivers/lvgl/src/core/lv_obj_pos.c ****     }
 193:Drivers/lvgl/src/core/lv_obj_pos.c **** 
 194:Drivers/lvgl/src/core/lv_obj_pos.c ****     /*Call the ancestor's event handler to the object with its new coordinates*/
 195:Drivers/lvgl/src/core/lv_obj_pos.c ****     lv_event_send(obj, LV_EVENT_SIZE_CHANGED, &ori);
 196:Drivers/lvgl/src/core/lv_obj_pos.c **** 
 197:Drivers/lvgl/src/core/lv_obj_pos.c ****     /*Call the ancestor's event handler to the parent too*/
 198:Drivers/lvgl/src/core/lv_obj_pos.c ****     lv_event_send(parent, LV_EVENT_CHILD_CHANGED, obj);
 199:Drivers/lvgl/src/core/lv_obj_pos.c **** 
 200:Drivers/lvgl/src/core/lv_obj_pos.c ****     /*Invalidate the new area*/
 201:Drivers/lvgl/src/core/lv_obj_pos.c ****     lv_obj_invalidate(obj);
ARM GAS  /var/folders/0z/tsy30v1j4xl4_7kw94k978ww0000gn/T//cc4e96aK.s 			page 5


 202:Drivers/lvgl/src/core/lv_obj_pos.c **** 
 203:Drivers/lvgl/src/core/lv_obj_pos.c ****     obj->readjust_scroll_after_layout = 1;
 204:Drivers/lvgl/src/core/lv_obj_pos.c **** 
 205:Drivers/lvgl/src/core/lv_obj_pos.c ****     /*If the object was out of the parent invalidate the new scrollbar area too.
 206:Drivers/lvgl/src/core/lv_obj_pos.c ****      *If it wasn't out of the parent but out now, also invalidate the scrollbars*/
 207:Drivers/lvgl/src/core/lv_obj_pos.c ****     bool on2 = _lv_area_is_in(&obj->coords, &parent_fit_area, 0);
 208:Drivers/lvgl/src/core/lv_obj_pos.c ****     if(on1 || (!on1 && on2)) lv_obj_scrollbar_invalidate(parent);
 209:Drivers/lvgl/src/core/lv_obj_pos.c **** 
 210:Drivers/lvgl/src/core/lv_obj_pos.c ****     lv_obj_refresh_ext_draw_size(obj);
 211:Drivers/lvgl/src/core/lv_obj_pos.c **** 
 212:Drivers/lvgl/src/core/lv_obj_pos.c ****     return true;
 213:Drivers/lvgl/src/core/lv_obj_pos.c **** }
 214:Drivers/lvgl/src/core/lv_obj_pos.c **** 
 215:Drivers/lvgl/src/core/lv_obj_pos.c **** void lv_obj_set_size(lv_obj_t * obj, lv_coord_t w, lv_coord_t h)
 216:Drivers/lvgl/src/core/lv_obj_pos.c **** {
 217:Drivers/lvgl/src/core/lv_obj_pos.c ****     LV_ASSERT_OBJ(obj, MY_CLASS);
 218:Drivers/lvgl/src/core/lv_obj_pos.c **** 
 219:Drivers/lvgl/src/core/lv_obj_pos.c ****     lv_obj_set_width(obj, w);
 220:Drivers/lvgl/src/core/lv_obj_pos.c ****     lv_obj_set_height(obj, h);
 221:Drivers/lvgl/src/core/lv_obj_pos.c **** }
 222:Drivers/lvgl/src/core/lv_obj_pos.c **** 
 223:Drivers/lvgl/src/core/lv_obj_pos.c **** void lv_obj_set_width(lv_obj_t * obj, lv_coord_t w)
 224:Drivers/lvgl/src/core/lv_obj_pos.c **** {
 225:Drivers/lvgl/src/core/lv_obj_pos.c ****     LV_ASSERT_OBJ(obj, MY_CLASS);
 226:Drivers/lvgl/src/core/lv_obj_pos.c ****     lv_res_t res_w;
 227:Drivers/lvgl/src/core/lv_obj_pos.c ****     lv_style_value_t v_w;
 228:Drivers/lvgl/src/core/lv_obj_pos.c **** 
 229:Drivers/lvgl/src/core/lv_obj_pos.c ****     res_w = lv_obj_get_local_style_prop(obj, LV_STYLE_WIDTH, &v_w, 0);
 230:Drivers/lvgl/src/core/lv_obj_pos.c **** 
 231:Drivers/lvgl/src/core/lv_obj_pos.c ****     if((res_w == LV_RES_OK && v_w.num != w) || res_w == LV_RES_INV) {
 232:Drivers/lvgl/src/core/lv_obj_pos.c ****         lv_obj_set_style_width(obj, w, 0);
 233:Drivers/lvgl/src/core/lv_obj_pos.c ****     }
 234:Drivers/lvgl/src/core/lv_obj_pos.c **** }
 235:Drivers/lvgl/src/core/lv_obj_pos.c **** 
 236:Drivers/lvgl/src/core/lv_obj_pos.c **** void lv_obj_set_height(lv_obj_t * obj, lv_coord_t h)
 237:Drivers/lvgl/src/core/lv_obj_pos.c **** {
 238:Drivers/lvgl/src/core/lv_obj_pos.c ****     LV_ASSERT_OBJ(obj, MY_CLASS);
 239:Drivers/lvgl/src/core/lv_obj_pos.c ****     lv_res_t res_h;
 240:Drivers/lvgl/src/core/lv_obj_pos.c ****     lv_style_value_t v_h;
 241:Drivers/lvgl/src/core/lv_obj_pos.c **** 
 242:Drivers/lvgl/src/core/lv_obj_pos.c ****     res_h = lv_obj_get_local_style_prop(obj, LV_STYLE_HEIGHT, &v_h, 0);
 243:Drivers/lvgl/src/core/lv_obj_pos.c **** 
 244:Drivers/lvgl/src/core/lv_obj_pos.c ****     if((res_h == LV_RES_OK && v_h.num != h) || res_h == LV_RES_INV) {
 245:Drivers/lvgl/src/core/lv_obj_pos.c ****         lv_obj_set_style_height(obj, h, 0);
 246:Drivers/lvgl/src/core/lv_obj_pos.c ****     }
 247:Drivers/lvgl/src/core/lv_obj_pos.c **** }
 248:Drivers/lvgl/src/core/lv_obj_pos.c **** 
 249:Drivers/lvgl/src/core/lv_obj_pos.c **** void lv_obj_set_content_width(lv_obj_t * obj, lv_coord_t w)
 250:Drivers/lvgl/src/core/lv_obj_pos.c **** {
 251:Drivers/lvgl/src/core/lv_obj_pos.c ****     lv_coord_t pleft = lv_obj_get_style_pad_left(obj, LV_PART_MAIN);
 252:Drivers/lvgl/src/core/lv_obj_pos.c ****     lv_coord_t pright = lv_obj_get_style_pad_right(obj, LV_PART_MAIN);
 253:Drivers/lvgl/src/core/lv_obj_pos.c ****     lv_coord_t border_width = lv_obj_get_style_border_width(obj, LV_PART_MAIN);
 254:Drivers/lvgl/src/core/lv_obj_pos.c **** 
 255:Drivers/lvgl/src/core/lv_obj_pos.c ****     lv_obj_set_width(obj, w + pleft + pright + 2 * border_width);
 256:Drivers/lvgl/src/core/lv_obj_pos.c **** }
 257:Drivers/lvgl/src/core/lv_obj_pos.c **** 
 258:Drivers/lvgl/src/core/lv_obj_pos.c **** void lv_obj_set_content_height(lv_obj_t * obj, lv_coord_t h)
ARM GAS  /var/folders/0z/tsy30v1j4xl4_7kw94k978ww0000gn/T//cc4e96aK.s 			page 6


 259:Drivers/lvgl/src/core/lv_obj_pos.c **** {
 260:Drivers/lvgl/src/core/lv_obj_pos.c ****     lv_coord_t ptop = lv_obj_get_style_pad_top(obj, LV_PART_MAIN);
 261:Drivers/lvgl/src/core/lv_obj_pos.c ****     lv_coord_t pbottom = lv_obj_get_style_pad_bottom(obj, LV_PART_MAIN);
 262:Drivers/lvgl/src/core/lv_obj_pos.c ****     lv_coord_t border_width = lv_obj_get_style_border_width(obj, LV_PART_MAIN);
 263:Drivers/lvgl/src/core/lv_obj_pos.c **** 
 264:Drivers/lvgl/src/core/lv_obj_pos.c ****     lv_obj_set_height(obj, h + ptop + pbottom + 2 * border_width);
 265:Drivers/lvgl/src/core/lv_obj_pos.c **** }
 266:Drivers/lvgl/src/core/lv_obj_pos.c **** 
 267:Drivers/lvgl/src/core/lv_obj_pos.c **** void lv_obj_set_layout(lv_obj_t * obj, uint32_t layout)
 268:Drivers/lvgl/src/core/lv_obj_pos.c **** {
 269:Drivers/lvgl/src/core/lv_obj_pos.c ****     LV_ASSERT_OBJ(obj, MY_CLASS);
 270:Drivers/lvgl/src/core/lv_obj_pos.c **** 
 271:Drivers/lvgl/src/core/lv_obj_pos.c ****     lv_obj_set_style_layout(obj, layout, 0);
 272:Drivers/lvgl/src/core/lv_obj_pos.c **** 
 273:Drivers/lvgl/src/core/lv_obj_pos.c ****     lv_obj_mark_layout_as_dirty(obj);
 274:Drivers/lvgl/src/core/lv_obj_pos.c **** }
 275:Drivers/lvgl/src/core/lv_obj_pos.c **** 
 276:Drivers/lvgl/src/core/lv_obj_pos.c **** bool lv_obj_is_layout_positioned(const lv_obj_t * obj)
 277:Drivers/lvgl/src/core/lv_obj_pos.c **** {
 278:Drivers/lvgl/src/core/lv_obj_pos.c ****     if(lv_obj_has_flag_any(obj, LV_OBJ_FLAG_HIDDEN | LV_OBJ_FLAG_IGNORE_LAYOUT | LV_OBJ_FLAG_FLOATI
 279:Drivers/lvgl/src/core/lv_obj_pos.c **** 
 280:Drivers/lvgl/src/core/lv_obj_pos.c ****     lv_obj_t * parent = lv_obj_get_parent(obj);
 281:Drivers/lvgl/src/core/lv_obj_pos.c ****     if(parent == NULL) return false;
 282:Drivers/lvgl/src/core/lv_obj_pos.c **** 
 283:Drivers/lvgl/src/core/lv_obj_pos.c ****     uint32_t layout = lv_obj_get_style_layout(parent, LV_PART_MAIN);
 284:Drivers/lvgl/src/core/lv_obj_pos.c ****     if(layout) return true;
 285:Drivers/lvgl/src/core/lv_obj_pos.c ****     else return false;
 286:Drivers/lvgl/src/core/lv_obj_pos.c **** }
 287:Drivers/lvgl/src/core/lv_obj_pos.c **** 
 288:Drivers/lvgl/src/core/lv_obj_pos.c **** void lv_obj_mark_layout_as_dirty(lv_obj_t * obj)
 289:Drivers/lvgl/src/core/lv_obj_pos.c **** {
 290:Drivers/lvgl/src/core/lv_obj_pos.c ****     obj->layout_inv = 1;
 291:Drivers/lvgl/src/core/lv_obj_pos.c **** 
 292:Drivers/lvgl/src/core/lv_obj_pos.c ****     /*Mark the screen as dirty too to mark that there is something to do on this screen*/
 293:Drivers/lvgl/src/core/lv_obj_pos.c ****     lv_obj_t * scr = lv_obj_get_screen(obj);
 294:Drivers/lvgl/src/core/lv_obj_pos.c ****     scr->scr_layout_inv = 1;
 295:Drivers/lvgl/src/core/lv_obj_pos.c **** 
 296:Drivers/lvgl/src/core/lv_obj_pos.c ****     /*Make the display refreshing*/
 297:Drivers/lvgl/src/core/lv_obj_pos.c ****     lv_disp_t * disp = lv_obj_get_disp(scr);
 298:Drivers/lvgl/src/core/lv_obj_pos.c ****     if(disp->refr_timer) lv_timer_resume(disp->refr_timer);
 299:Drivers/lvgl/src/core/lv_obj_pos.c **** }
 300:Drivers/lvgl/src/core/lv_obj_pos.c **** 
 301:Drivers/lvgl/src/core/lv_obj_pos.c **** void lv_obj_update_layout(const lv_obj_t * obj)
 302:Drivers/lvgl/src/core/lv_obj_pos.c **** {
 303:Drivers/lvgl/src/core/lv_obj_pos.c ****     static bool mutex = false;
 304:Drivers/lvgl/src/core/lv_obj_pos.c ****     if(mutex) {
 305:Drivers/lvgl/src/core/lv_obj_pos.c ****         LV_LOG_TRACE("Already running, returning");
 306:Drivers/lvgl/src/core/lv_obj_pos.c ****         return;
 307:Drivers/lvgl/src/core/lv_obj_pos.c ****     }
 308:Drivers/lvgl/src/core/lv_obj_pos.c ****     mutex = true;
 309:Drivers/lvgl/src/core/lv_obj_pos.c **** 
 310:Drivers/lvgl/src/core/lv_obj_pos.c ****     lv_obj_t * scr = lv_obj_get_screen(obj);
 311:Drivers/lvgl/src/core/lv_obj_pos.c **** 
 312:Drivers/lvgl/src/core/lv_obj_pos.c ****     /*Repeat until there where layout invalidations*/
 313:Drivers/lvgl/src/core/lv_obj_pos.c ****     while(scr->scr_layout_inv) {
 314:Drivers/lvgl/src/core/lv_obj_pos.c ****         LV_LOG_INFO("Layout update begin");
 315:Drivers/lvgl/src/core/lv_obj_pos.c ****         scr->scr_layout_inv = 0;
ARM GAS  /var/folders/0z/tsy30v1j4xl4_7kw94k978ww0000gn/T//cc4e96aK.s 			page 7


 316:Drivers/lvgl/src/core/lv_obj_pos.c ****         layout_update_core(scr);
 317:Drivers/lvgl/src/core/lv_obj_pos.c ****         LV_LOG_TRACE("Layout update end");
 318:Drivers/lvgl/src/core/lv_obj_pos.c ****     }
 319:Drivers/lvgl/src/core/lv_obj_pos.c **** 
 320:Drivers/lvgl/src/core/lv_obj_pos.c ****     mutex = false;
 321:Drivers/lvgl/src/core/lv_obj_pos.c **** }
 322:Drivers/lvgl/src/core/lv_obj_pos.c **** 
 323:Drivers/lvgl/src/core/lv_obj_pos.c **** uint32_t lv_layout_register(lv_layout_update_cb_t cb, void * user_data)
 324:Drivers/lvgl/src/core/lv_obj_pos.c **** {
 325:Drivers/lvgl/src/core/lv_obj_pos.c ****     layout_cnt++;
 326:Drivers/lvgl/src/core/lv_obj_pos.c ****     LV_GC_ROOT(_lv_layout_list) = lv_mem_realloc(LV_GC_ROOT(_lv_layout_list), layout_cnt * sizeof(l
 327:Drivers/lvgl/src/core/lv_obj_pos.c ****     LV_ASSERT_MALLOC(LV_GC_ROOT(_lv_layout_list));
 328:Drivers/lvgl/src/core/lv_obj_pos.c **** 
 329:Drivers/lvgl/src/core/lv_obj_pos.c ****     LV_GC_ROOT(_lv_layout_list)[layout_cnt - 1].cb = cb;
 330:Drivers/lvgl/src/core/lv_obj_pos.c ****     LV_GC_ROOT(_lv_layout_list)[layout_cnt - 1].user_data = user_data;
 331:Drivers/lvgl/src/core/lv_obj_pos.c ****     return layout_cnt;  /*No -1 to skip 0th index*/
 332:Drivers/lvgl/src/core/lv_obj_pos.c **** }
 333:Drivers/lvgl/src/core/lv_obj_pos.c **** 
 334:Drivers/lvgl/src/core/lv_obj_pos.c **** void lv_obj_set_align(lv_obj_t * obj, lv_align_t align)
 335:Drivers/lvgl/src/core/lv_obj_pos.c **** {
 336:Drivers/lvgl/src/core/lv_obj_pos.c ****     lv_obj_set_style_align(obj, align, 0);
 337:Drivers/lvgl/src/core/lv_obj_pos.c **** }
 338:Drivers/lvgl/src/core/lv_obj_pos.c **** 
 339:Drivers/lvgl/src/core/lv_obj_pos.c **** void lv_obj_align(lv_obj_t * obj, lv_align_t align, lv_coord_t x_ofs, lv_coord_t y_ofs)
 340:Drivers/lvgl/src/core/lv_obj_pos.c **** {
 341:Drivers/lvgl/src/core/lv_obj_pos.c ****     lv_obj_set_style_align(obj, align, 0);
 342:Drivers/lvgl/src/core/lv_obj_pos.c ****     lv_obj_set_pos(obj, x_ofs, y_ofs);
 343:Drivers/lvgl/src/core/lv_obj_pos.c **** }
 344:Drivers/lvgl/src/core/lv_obj_pos.c **** 
 345:Drivers/lvgl/src/core/lv_obj_pos.c **** void lv_obj_align_to(lv_obj_t * obj, const lv_obj_t * base, lv_align_t align, lv_coord_t x_ofs, lv_
 346:Drivers/lvgl/src/core/lv_obj_pos.c **** {
 347:Drivers/lvgl/src/core/lv_obj_pos.c ****     LV_ASSERT_OBJ(obj, MY_CLASS);
 348:Drivers/lvgl/src/core/lv_obj_pos.c **** 
 349:Drivers/lvgl/src/core/lv_obj_pos.c ****     lv_obj_update_layout(obj);
 350:Drivers/lvgl/src/core/lv_obj_pos.c ****     if(base == NULL) base = lv_obj_get_parent(obj);
 351:Drivers/lvgl/src/core/lv_obj_pos.c **** 
 352:Drivers/lvgl/src/core/lv_obj_pos.c ****     LV_ASSERT_OBJ(base, MY_CLASS);
 353:Drivers/lvgl/src/core/lv_obj_pos.c **** 
 354:Drivers/lvgl/src/core/lv_obj_pos.c ****     lv_coord_t x = 0;
 355:Drivers/lvgl/src/core/lv_obj_pos.c ****     lv_coord_t y = 0;
 356:Drivers/lvgl/src/core/lv_obj_pos.c **** 
 357:Drivers/lvgl/src/core/lv_obj_pos.c ****     lv_obj_t * parent = lv_obj_get_parent(obj);
 358:Drivers/lvgl/src/core/lv_obj_pos.c ****     lv_coord_t pborder = lv_obj_get_style_border_width(parent, LV_PART_MAIN);
 359:Drivers/lvgl/src/core/lv_obj_pos.c ****     lv_coord_t pleft = lv_obj_get_style_pad_left(parent, LV_PART_MAIN) + pborder;
 360:Drivers/lvgl/src/core/lv_obj_pos.c ****     lv_coord_t ptop = lv_obj_get_style_pad_top(parent, LV_PART_MAIN) + pborder;
 361:Drivers/lvgl/src/core/lv_obj_pos.c **** 
 362:Drivers/lvgl/src/core/lv_obj_pos.c ****     lv_coord_t bborder = lv_obj_get_style_border_width(base, LV_PART_MAIN);
 363:Drivers/lvgl/src/core/lv_obj_pos.c ****     lv_coord_t bleft = lv_obj_get_style_pad_left(base, LV_PART_MAIN) + bborder;
 364:Drivers/lvgl/src/core/lv_obj_pos.c ****     lv_coord_t btop = lv_obj_get_style_pad_top(base, LV_PART_MAIN) + bborder;
 365:Drivers/lvgl/src/core/lv_obj_pos.c **** 
 366:Drivers/lvgl/src/core/lv_obj_pos.c ****     if(align == LV_ALIGN_DEFAULT) {
 367:Drivers/lvgl/src/core/lv_obj_pos.c ****         if(lv_obj_get_style_base_dir(base, LV_PART_MAIN) == LV_BASE_DIR_RTL) align = LV_ALIGN_TOP_R
 368:Drivers/lvgl/src/core/lv_obj_pos.c ****         else align = LV_ALIGN_TOP_LEFT;
 369:Drivers/lvgl/src/core/lv_obj_pos.c ****     }
 370:Drivers/lvgl/src/core/lv_obj_pos.c **** 
 371:Drivers/lvgl/src/core/lv_obj_pos.c ****     switch(align) {
 372:Drivers/lvgl/src/core/lv_obj_pos.c ****         case LV_ALIGN_CENTER:
ARM GAS  /var/folders/0z/tsy30v1j4xl4_7kw94k978ww0000gn/T//cc4e96aK.s 			page 8


 373:Drivers/lvgl/src/core/lv_obj_pos.c ****             x = lv_obj_get_content_width(base) / 2 - lv_obj_get_width(obj) / 2 + bleft;
 374:Drivers/lvgl/src/core/lv_obj_pos.c ****             y = lv_obj_get_content_height(base) / 2 - lv_obj_get_height(obj) / 2 + btop;
 375:Drivers/lvgl/src/core/lv_obj_pos.c ****             break;
 376:Drivers/lvgl/src/core/lv_obj_pos.c ****         case LV_ALIGN_TOP_LEFT:
 377:Drivers/lvgl/src/core/lv_obj_pos.c ****             x = bleft;
 378:Drivers/lvgl/src/core/lv_obj_pos.c ****             y = btop;
 379:Drivers/lvgl/src/core/lv_obj_pos.c ****             break;
 380:Drivers/lvgl/src/core/lv_obj_pos.c ****         case LV_ALIGN_TOP_MID:
 381:Drivers/lvgl/src/core/lv_obj_pos.c ****             x = lv_obj_get_content_width(base) / 2 - lv_obj_get_width(obj) / 2 + bleft;
 382:Drivers/lvgl/src/core/lv_obj_pos.c ****             y = btop;
 383:Drivers/lvgl/src/core/lv_obj_pos.c ****             break;
 384:Drivers/lvgl/src/core/lv_obj_pos.c **** 
 385:Drivers/lvgl/src/core/lv_obj_pos.c ****         case LV_ALIGN_TOP_RIGHT:
 386:Drivers/lvgl/src/core/lv_obj_pos.c ****             x = lv_obj_get_content_width(base) - lv_obj_get_width(obj) + bleft;
 387:Drivers/lvgl/src/core/lv_obj_pos.c ****             y = btop;
 388:Drivers/lvgl/src/core/lv_obj_pos.c ****             break;
 389:Drivers/lvgl/src/core/lv_obj_pos.c **** 
 390:Drivers/lvgl/src/core/lv_obj_pos.c ****         case LV_ALIGN_BOTTOM_LEFT:
 391:Drivers/lvgl/src/core/lv_obj_pos.c ****             x = bleft;
 392:Drivers/lvgl/src/core/lv_obj_pos.c ****             y = lv_obj_get_content_height(base) - lv_obj_get_height(obj) + btop;
 393:Drivers/lvgl/src/core/lv_obj_pos.c ****             break;
 394:Drivers/lvgl/src/core/lv_obj_pos.c ****         case LV_ALIGN_BOTTOM_MID:
 395:Drivers/lvgl/src/core/lv_obj_pos.c ****             x = lv_obj_get_content_width(base) / 2 - lv_obj_get_width(obj) / 2 + bleft;
 396:Drivers/lvgl/src/core/lv_obj_pos.c ****             y = lv_obj_get_content_height(base) - lv_obj_get_height(obj) + btop;
 397:Drivers/lvgl/src/core/lv_obj_pos.c ****             break;
 398:Drivers/lvgl/src/core/lv_obj_pos.c **** 
 399:Drivers/lvgl/src/core/lv_obj_pos.c ****         case LV_ALIGN_BOTTOM_RIGHT:
 400:Drivers/lvgl/src/core/lv_obj_pos.c ****             x = lv_obj_get_content_width(base) - lv_obj_get_width(obj) + bleft;
 401:Drivers/lvgl/src/core/lv_obj_pos.c ****             y = lv_obj_get_content_height(base) - lv_obj_get_height(obj) + btop;
 402:Drivers/lvgl/src/core/lv_obj_pos.c ****             break;
 403:Drivers/lvgl/src/core/lv_obj_pos.c **** 
 404:Drivers/lvgl/src/core/lv_obj_pos.c ****         case LV_ALIGN_LEFT_MID:
 405:Drivers/lvgl/src/core/lv_obj_pos.c ****             x = bleft;
 406:Drivers/lvgl/src/core/lv_obj_pos.c ****             y = lv_obj_get_content_height(base) / 2 - lv_obj_get_height(obj) / 2 + btop;
 407:Drivers/lvgl/src/core/lv_obj_pos.c ****             break;
 408:Drivers/lvgl/src/core/lv_obj_pos.c **** 
 409:Drivers/lvgl/src/core/lv_obj_pos.c ****         case LV_ALIGN_RIGHT_MID:
 410:Drivers/lvgl/src/core/lv_obj_pos.c ****             x = lv_obj_get_content_width(base) - lv_obj_get_width(obj) + bleft;
 411:Drivers/lvgl/src/core/lv_obj_pos.c ****             y = lv_obj_get_content_height(base) / 2 - lv_obj_get_height(obj) / 2 + btop;
 412:Drivers/lvgl/src/core/lv_obj_pos.c ****             break;
 413:Drivers/lvgl/src/core/lv_obj_pos.c **** 
 414:Drivers/lvgl/src/core/lv_obj_pos.c ****         case LV_ALIGN_OUT_TOP_LEFT:
 415:Drivers/lvgl/src/core/lv_obj_pos.c ****             x = 0;
 416:Drivers/lvgl/src/core/lv_obj_pos.c ****             y = -lv_obj_get_height(obj);
 417:Drivers/lvgl/src/core/lv_obj_pos.c ****             break;
 418:Drivers/lvgl/src/core/lv_obj_pos.c **** 
 419:Drivers/lvgl/src/core/lv_obj_pos.c ****         case LV_ALIGN_OUT_TOP_MID:
 420:Drivers/lvgl/src/core/lv_obj_pos.c ****             x = lv_obj_get_width(base) / 2 - lv_obj_get_width(obj) / 2;
 421:Drivers/lvgl/src/core/lv_obj_pos.c ****             y = -lv_obj_get_height(obj);
 422:Drivers/lvgl/src/core/lv_obj_pos.c ****             break;
 423:Drivers/lvgl/src/core/lv_obj_pos.c **** 
 424:Drivers/lvgl/src/core/lv_obj_pos.c ****         case LV_ALIGN_OUT_TOP_RIGHT:
 425:Drivers/lvgl/src/core/lv_obj_pos.c ****             x = lv_obj_get_width(base) - lv_obj_get_width(obj);
 426:Drivers/lvgl/src/core/lv_obj_pos.c ****             y = -lv_obj_get_height(obj);
 427:Drivers/lvgl/src/core/lv_obj_pos.c ****             break;
 428:Drivers/lvgl/src/core/lv_obj_pos.c **** 
 429:Drivers/lvgl/src/core/lv_obj_pos.c ****         case LV_ALIGN_OUT_BOTTOM_LEFT:
ARM GAS  /var/folders/0z/tsy30v1j4xl4_7kw94k978ww0000gn/T//cc4e96aK.s 			page 9


 430:Drivers/lvgl/src/core/lv_obj_pos.c ****             x = 0;
 431:Drivers/lvgl/src/core/lv_obj_pos.c ****             y = lv_obj_get_height(base);
 432:Drivers/lvgl/src/core/lv_obj_pos.c ****             break;
 433:Drivers/lvgl/src/core/lv_obj_pos.c **** 
 434:Drivers/lvgl/src/core/lv_obj_pos.c ****         case LV_ALIGN_OUT_BOTTOM_MID:
 435:Drivers/lvgl/src/core/lv_obj_pos.c ****             x = lv_obj_get_width(base) / 2 - lv_obj_get_width(obj) / 2;
 436:Drivers/lvgl/src/core/lv_obj_pos.c ****             y = lv_obj_get_height(base);
 437:Drivers/lvgl/src/core/lv_obj_pos.c ****             break;
 438:Drivers/lvgl/src/core/lv_obj_pos.c **** 
 439:Drivers/lvgl/src/core/lv_obj_pos.c ****         case LV_ALIGN_OUT_BOTTOM_RIGHT:
 440:Drivers/lvgl/src/core/lv_obj_pos.c ****             x = lv_obj_get_width(base) - lv_obj_get_width(obj);
 441:Drivers/lvgl/src/core/lv_obj_pos.c ****             y = lv_obj_get_height(base);
 442:Drivers/lvgl/src/core/lv_obj_pos.c ****             break;
 443:Drivers/lvgl/src/core/lv_obj_pos.c **** 
 444:Drivers/lvgl/src/core/lv_obj_pos.c ****         case LV_ALIGN_OUT_LEFT_TOP:
 445:Drivers/lvgl/src/core/lv_obj_pos.c ****             x = -lv_obj_get_width(obj);
 446:Drivers/lvgl/src/core/lv_obj_pos.c ****             y = 0;
 447:Drivers/lvgl/src/core/lv_obj_pos.c ****             break;
 448:Drivers/lvgl/src/core/lv_obj_pos.c **** 
 449:Drivers/lvgl/src/core/lv_obj_pos.c ****         case LV_ALIGN_OUT_LEFT_MID:
 450:Drivers/lvgl/src/core/lv_obj_pos.c ****             x = -lv_obj_get_width(obj);
 451:Drivers/lvgl/src/core/lv_obj_pos.c ****             y = lv_obj_get_height(base) / 2 - lv_obj_get_height(obj) / 2;
 452:Drivers/lvgl/src/core/lv_obj_pos.c ****             break;
 453:Drivers/lvgl/src/core/lv_obj_pos.c **** 
 454:Drivers/lvgl/src/core/lv_obj_pos.c ****         case LV_ALIGN_OUT_LEFT_BOTTOM:
 455:Drivers/lvgl/src/core/lv_obj_pos.c ****             x = -lv_obj_get_width(obj);
 456:Drivers/lvgl/src/core/lv_obj_pos.c ****             y = lv_obj_get_height(base) - lv_obj_get_height(obj);
 457:Drivers/lvgl/src/core/lv_obj_pos.c ****             break;
 458:Drivers/lvgl/src/core/lv_obj_pos.c **** 
 459:Drivers/lvgl/src/core/lv_obj_pos.c ****         case LV_ALIGN_OUT_RIGHT_TOP:
 460:Drivers/lvgl/src/core/lv_obj_pos.c ****             x = lv_obj_get_width(base);
 461:Drivers/lvgl/src/core/lv_obj_pos.c ****             y = 0;
 462:Drivers/lvgl/src/core/lv_obj_pos.c ****             break;
 463:Drivers/lvgl/src/core/lv_obj_pos.c **** 
 464:Drivers/lvgl/src/core/lv_obj_pos.c ****         case LV_ALIGN_OUT_RIGHT_MID:
 465:Drivers/lvgl/src/core/lv_obj_pos.c ****             x = lv_obj_get_width(base);
 466:Drivers/lvgl/src/core/lv_obj_pos.c ****             y = lv_obj_get_height(base) / 2 - lv_obj_get_height(obj) / 2;
 467:Drivers/lvgl/src/core/lv_obj_pos.c ****             break;
 468:Drivers/lvgl/src/core/lv_obj_pos.c **** 
 469:Drivers/lvgl/src/core/lv_obj_pos.c ****         case LV_ALIGN_OUT_RIGHT_BOTTOM:
 470:Drivers/lvgl/src/core/lv_obj_pos.c ****             x = lv_obj_get_width(base);
 471:Drivers/lvgl/src/core/lv_obj_pos.c ****             y = lv_obj_get_height(base) - lv_obj_get_height(obj);
 472:Drivers/lvgl/src/core/lv_obj_pos.c ****             break;
 473:Drivers/lvgl/src/core/lv_obj_pos.c ****     }
 474:Drivers/lvgl/src/core/lv_obj_pos.c **** 
 475:Drivers/lvgl/src/core/lv_obj_pos.c ****     if(lv_obj_get_style_base_dir(parent, LV_PART_MAIN) == LV_BASE_DIR_RTL) {
 476:Drivers/lvgl/src/core/lv_obj_pos.c ****         x += x_ofs + base->coords.x1 - parent->coords.x1 + lv_obj_get_scroll_right(parent) - pleft;
 477:Drivers/lvgl/src/core/lv_obj_pos.c ****     }
 478:Drivers/lvgl/src/core/lv_obj_pos.c ****     else {
 479:Drivers/lvgl/src/core/lv_obj_pos.c ****         x += x_ofs + base->coords.x1 - parent->coords.x1 + lv_obj_get_scroll_left(parent) - pleft;
 480:Drivers/lvgl/src/core/lv_obj_pos.c ****     }
 481:Drivers/lvgl/src/core/lv_obj_pos.c ****     y += y_ofs + base->coords.y1 - parent->coords.y1 + lv_obj_get_scroll_top(parent) - ptop;
 482:Drivers/lvgl/src/core/lv_obj_pos.c ****     lv_obj_set_style_align(obj, LV_ALIGN_TOP_LEFT, 0);
 483:Drivers/lvgl/src/core/lv_obj_pos.c ****     lv_obj_set_pos(obj, x, y);
 484:Drivers/lvgl/src/core/lv_obj_pos.c **** 
 485:Drivers/lvgl/src/core/lv_obj_pos.c **** }
 486:Drivers/lvgl/src/core/lv_obj_pos.c **** 
ARM GAS  /var/folders/0z/tsy30v1j4xl4_7kw94k978ww0000gn/T//cc4e96aK.s 			page 10


 487:Drivers/lvgl/src/core/lv_obj_pos.c **** void lv_obj_get_coords(const lv_obj_t * obj, lv_area_t * coords)
 488:Drivers/lvgl/src/core/lv_obj_pos.c **** {
 489:Drivers/lvgl/src/core/lv_obj_pos.c ****     LV_ASSERT_OBJ(obj, MY_CLASS);
 490:Drivers/lvgl/src/core/lv_obj_pos.c **** 
 491:Drivers/lvgl/src/core/lv_obj_pos.c ****     lv_area_copy(coords, &obj->coords);
 492:Drivers/lvgl/src/core/lv_obj_pos.c **** }
 493:Drivers/lvgl/src/core/lv_obj_pos.c **** 
 494:Drivers/lvgl/src/core/lv_obj_pos.c **** lv_coord_t lv_obj_get_x(const lv_obj_t * obj)
 495:Drivers/lvgl/src/core/lv_obj_pos.c **** {
 496:Drivers/lvgl/src/core/lv_obj_pos.c ****     LV_ASSERT_OBJ(obj, MY_CLASS);
 497:Drivers/lvgl/src/core/lv_obj_pos.c **** 
 498:Drivers/lvgl/src/core/lv_obj_pos.c ****     lv_coord_t rel_x;
 499:Drivers/lvgl/src/core/lv_obj_pos.c ****     lv_obj_t * parent = lv_obj_get_parent(obj);
 500:Drivers/lvgl/src/core/lv_obj_pos.c ****     if(parent) {
 501:Drivers/lvgl/src/core/lv_obj_pos.c ****         rel_x  = obj->coords.x1 - parent->coords.x1;
 502:Drivers/lvgl/src/core/lv_obj_pos.c ****         rel_x += lv_obj_get_scroll_x(parent);
 503:Drivers/lvgl/src/core/lv_obj_pos.c ****         rel_x -= lv_obj_get_style_pad_left(parent, LV_PART_MAIN);
 504:Drivers/lvgl/src/core/lv_obj_pos.c ****         rel_x -= lv_obj_get_style_border_width(parent, LV_PART_MAIN);
 505:Drivers/lvgl/src/core/lv_obj_pos.c ****     }
 506:Drivers/lvgl/src/core/lv_obj_pos.c ****     else {
 507:Drivers/lvgl/src/core/lv_obj_pos.c ****         rel_x = obj->coords.x1;
 508:Drivers/lvgl/src/core/lv_obj_pos.c ****     }
 509:Drivers/lvgl/src/core/lv_obj_pos.c ****     return rel_x;
 510:Drivers/lvgl/src/core/lv_obj_pos.c **** }
 511:Drivers/lvgl/src/core/lv_obj_pos.c **** 
 512:Drivers/lvgl/src/core/lv_obj_pos.c **** lv_coord_t lv_obj_get_x2(const lv_obj_t * obj)
 513:Drivers/lvgl/src/core/lv_obj_pos.c **** {
 514:Drivers/lvgl/src/core/lv_obj_pos.c ****     LV_ASSERT_OBJ(obj, MY_CLASS);
 515:Drivers/lvgl/src/core/lv_obj_pos.c **** 
 516:Drivers/lvgl/src/core/lv_obj_pos.c ****     return lv_obj_get_x(obj) + lv_obj_get_width(obj);
 517:Drivers/lvgl/src/core/lv_obj_pos.c **** }
 518:Drivers/lvgl/src/core/lv_obj_pos.c **** 
 519:Drivers/lvgl/src/core/lv_obj_pos.c **** lv_coord_t lv_obj_get_y(const lv_obj_t * obj)
 520:Drivers/lvgl/src/core/lv_obj_pos.c **** {
 521:Drivers/lvgl/src/core/lv_obj_pos.c ****     LV_ASSERT_OBJ(obj, MY_CLASS);
 522:Drivers/lvgl/src/core/lv_obj_pos.c **** 
 523:Drivers/lvgl/src/core/lv_obj_pos.c ****     lv_coord_t rel_y;
 524:Drivers/lvgl/src/core/lv_obj_pos.c ****     lv_obj_t * parent = lv_obj_get_parent(obj);
 525:Drivers/lvgl/src/core/lv_obj_pos.c ****     if(parent) {
 526:Drivers/lvgl/src/core/lv_obj_pos.c ****         rel_y = obj->coords.y1 - parent->coords.y1;
 527:Drivers/lvgl/src/core/lv_obj_pos.c ****         rel_y += lv_obj_get_scroll_y(parent);
 528:Drivers/lvgl/src/core/lv_obj_pos.c ****         rel_y -= lv_obj_get_style_pad_top(parent, LV_PART_MAIN);
 529:Drivers/lvgl/src/core/lv_obj_pos.c ****         rel_y -= lv_obj_get_style_border_width(parent, LV_PART_MAIN);
 530:Drivers/lvgl/src/core/lv_obj_pos.c ****     }
 531:Drivers/lvgl/src/core/lv_obj_pos.c ****     else {
 532:Drivers/lvgl/src/core/lv_obj_pos.c ****         rel_y = obj->coords.y1;
 533:Drivers/lvgl/src/core/lv_obj_pos.c ****     }
 534:Drivers/lvgl/src/core/lv_obj_pos.c ****     return rel_y;
 535:Drivers/lvgl/src/core/lv_obj_pos.c **** }
 536:Drivers/lvgl/src/core/lv_obj_pos.c **** 
 537:Drivers/lvgl/src/core/lv_obj_pos.c **** lv_coord_t lv_obj_get_y2(const lv_obj_t * obj)
 538:Drivers/lvgl/src/core/lv_obj_pos.c **** {
 539:Drivers/lvgl/src/core/lv_obj_pos.c ****     LV_ASSERT_OBJ(obj, MY_CLASS);
 540:Drivers/lvgl/src/core/lv_obj_pos.c **** 
 541:Drivers/lvgl/src/core/lv_obj_pos.c ****     return lv_obj_get_y(obj) + lv_obj_get_height(obj);
 542:Drivers/lvgl/src/core/lv_obj_pos.c **** }
 543:Drivers/lvgl/src/core/lv_obj_pos.c **** 
ARM GAS  /var/folders/0z/tsy30v1j4xl4_7kw94k978ww0000gn/T//cc4e96aK.s 			page 11


 544:Drivers/lvgl/src/core/lv_obj_pos.c **** lv_coord_t lv_obj_get_x_aligned(const lv_obj_t * obj)
 545:Drivers/lvgl/src/core/lv_obj_pos.c **** {
 546:Drivers/lvgl/src/core/lv_obj_pos.c ****     return lv_obj_get_style_x(obj, LV_PART_MAIN);
 547:Drivers/lvgl/src/core/lv_obj_pos.c **** }
 548:Drivers/lvgl/src/core/lv_obj_pos.c **** 
 549:Drivers/lvgl/src/core/lv_obj_pos.c **** lv_coord_t lv_obj_get_y_aligned(const lv_obj_t * obj)
 550:Drivers/lvgl/src/core/lv_obj_pos.c **** {
 551:Drivers/lvgl/src/core/lv_obj_pos.c ****     return lv_obj_get_style_y(obj, LV_PART_MAIN);
 552:Drivers/lvgl/src/core/lv_obj_pos.c **** }
 553:Drivers/lvgl/src/core/lv_obj_pos.c **** 
 554:Drivers/lvgl/src/core/lv_obj_pos.c **** 
 555:Drivers/lvgl/src/core/lv_obj_pos.c **** lv_coord_t lv_obj_get_width(const lv_obj_t * obj)
 556:Drivers/lvgl/src/core/lv_obj_pos.c **** {
 557:Drivers/lvgl/src/core/lv_obj_pos.c ****     LV_ASSERT_OBJ(obj, MY_CLASS);
 558:Drivers/lvgl/src/core/lv_obj_pos.c **** 
 559:Drivers/lvgl/src/core/lv_obj_pos.c ****     return lv_area_get_width(&obj->coords);
 560:Drivers/lvgl/src/core/lv_obj_pos.c **** }
 561:Drivers/lvgl/src/core/lv_obj_pos.c **** 
 562:Drivers/lvgl/src/core/lv_obj_pos.c **** lv_coord_t lv_obj_get_height(const lv_obj_t * obj)
 563:Drivers/lvgl/src/core/lv_obj_pos.c **** {
 564:Drivers/lvgl/src/core/lv_obj_pos.c ****     LV_ASSERT_OBJ(obj, MY_CLASS);
 565:Drivers/lvgl/src/core/lv_obj_pos.c **** 
 566:Drivers/lvgl/src/core/lv_obj_pos.c ****     return lv_area_get_height(&obj->coords);
 567:Drivers/lvgl/src/core/lv_obj_pos.c **** }
 568:Drivers/lvgl/src/core/lv_obj_pos.c **** 
 569:Drivers/lvgl/src/core/lv_obj_pos.c **** lv_coord_t lv_obj_get_content_width(const lv_obj_t * obj)
 570:Drivers/lvgl/src/core/lv_obj_pos.c **** {
 571:Drivers/lvgl/src/core/lv_obj_pos.c ****     LV_ASSERT_OBJ(obj, MY_CLASS);
 572:Drivers/lvgl/src/core/lv_obj_pos.c **** 
 573:Drivers/lvgl/src/core/lv_obj_pos.c ****     lv_coord_t left = lv_obj_get_style_pad_left(obj, LV_PART_MAIN);
 574:Drivers/lvgl/src/core/lv_obj_pos.c ****     lv_coord_t right = lv_obj_get_style_pad_right(obj, LV_PART_MAIN);
 575:Drivers/lvgl/src/core/lv_obj_pos.c ****     lv_coord_t border_width = lv_obj_get_style_border_width(obj, LV_PART_MAIN);
 576:Drivers/lvgl/src/core/lv_obj_pos.c **** 
 577:Drivers/lvgl/src/core/lv_obj_pos.c ****     return lv_obj_get_width(obj) - left - right - 2 * border_width;
 578:Drivers/lvgl/src/core/lv_obj_pos.c **** }
 579:Drivers/lvgl/src/core/lv_obj_pos.c **** 
 580:Drivers/lvgl/src/core/lv_obj_pos.c **** lv_coord_t lv_obj_get_content_height(const lv_obj_t * obj)
 581:Drivers/lvgl/src/core/lv_obj_pos.c **** {
 582:Drivers/lvgl/src/core/lv_obj_pos.c ****     LV_ASSERT_OBJ(obj, MY_CLASS);
 583:Drivers/lvgl/src/core/lv_obj_pos.c **** 
 584:Drivers/lvgl/src/core/lv_obj_pos.c ****     lv_coord_t top = lv_obj_get_style_pad_top(obj, LV_PART_MAIN);
 585:Drivers/lvgl/src/core/lv_obj_pos.c ****     lv_coord_t bottom = lv_obj_get_style_pad_bottom(obj, LV_PART_MAIN);
 586:Drivers/lvgl/src/core/lv_obj_pos.c ****     lv_coord_t border_width = lv_obj_get_style_border_width(obj, LV_PART_MAIN);
 587:Drivers/lvgl/src/core/lv_obj_pos.c **** 
 588:Drivers/lvgl/src/core/lv_obj_pos.c ****     return lv_obj_get_height(obj) - top - bottom - 2 * border_width;
 589:Drivers/lvgl/src/core/lv_obj_pos.c **** }
 590:Drivers/lvgl/src/core/lv_obj_pos.c **** 
 591:Drivers/lvgl/src/core/lv_obj_pos.c **** void lv_obj_get_content_coords(const lv_obj_t * obj, lv_area_t * area)
 592:Drivers/lvgl/src/core/lv_obj_pos.c **** {
 593:Drivers/lvgl/src/core/lv_obj_pos.c ****     LV_ASSERT_OBJ(obj, MY_CLASS);
 594:Drivers/lvgl/src/core/lv_obj_pos.c ****     lv_coord_t border_width = lv_obj_get_style_border_width(obj, LV_PART_MAIN);
 595:Drivers/lvgl/src/core/lv_obj_pos.c **** 
 596:Drivers/lvgl/src/core/lv_obj_pos.c ****     lv_obj_get_coords(obj, area);
 597:Drivers/lvgl/src/core/lv_obj_pos.c ****     lv_area_increase(area, -border_width, -border_width);
 598:Drivers/lvgl/src/core/lv_obj_pos.c ****     area->x1 += lv_obj_get_style_pad_left(obj, LV_PART_MAIN);
 599:Drivers/lvgl/src/core/lv_obj_pos.c ****     area->x2 -= lv_obj_get_style_pad_right(obj, LV_PART_MAIN);
 600:Drivers/lvgl/src/core/lv_obj_pos.c ****     area->y1 += lv_obj_get_style_pad_top(obj, LV_PART_MAIN);
ARM GAS  /var/folders/0z/tsy30v1j4xl4_7kw94k978ww0000gn/T//cc4e96aK.s 			page 12


 601:Drivers/lvgl/src/core/lv_obj_pos.c ****     area->y2 -= lv_obj_get_style_pad_bottom(obj, LV_PART_MAIN);
 602:Drivers/lvgl/src/core/lv_obj_pos.c **** 
 603:Drivers/lvgl/src/core/lv_obj_pos.c **** }
 604:Drivers/lvgl/src/core/lv_obj_pos.c **** 
 605:Drivers/lvgl/src/core/lv_obj_pos.c **** lv_coord_t lv_obj_get_self_width(const lv_obj_t * obj)
 606:Drivers/lvgl/src/core/lv_obj_pos.c **** {
 607:Drivers/lvgl/src/core/lv_obj_pos.c ****     lv_point_t p = {0, LV_COORD_MIN};
 608:Drivers/lvgl/src/core/lv_obj_pos.c ****     lv_event_send((lv_obj_t *)obj, LV_EVENT_GET_SELF_SIZE, &p);
 609:Drivers/lvgl/src/core/lv_obj_pos.c ****     return p.x;
 610:Drivers/lvgl/src/core/lv_obj_pos.c **** }
 611:Drivers/lvgl/src/core/lv_obj_pos.c **** 
 612:Drivers/lvgl/src/core/lv_obj_pos.c **** lv_coord_t lv_obj_get_self_height(const lv_obj_t * obj)
 613:Drivers/lvgl/src/core/lv_obj_pos.c **** {
 614:Drivers/lvgl/src/core/lv_obj_pos.c ****     lv_point_t p = {LV_COORD_MIN, 0};
 615:Drivers/lvgl/src/core/lv_obj_pos.c ****     lv_event_send((lv_obj_t *)obj, LV_EVENT_GET_SELF_SIZE, &p);
 616:Drivers/lvgl/src/core/lv_obj_pos.c ****     return p.y;
 617:Drivers/lvgl/src/core/lv_obj_pos.c **** }
 618:Drivers/lvgl/src/core/lv_obj_pos.c **** 
 619:Drivers/lvgl/src/core/lv_obj_pos.c **** bool lv_obj_refresh_self_size(lv_obj_t * obj)
 620:Drivers/lvgl/src/core/lv_obj_pos.c **** {
 621:Drivers/lvgl/src/core/lv_obj_pos.c ****     lv_coord_t w_set = lv_obj_get_style_width(obj, LV_PART_MAIN);
 622:Drivers/lvgl/src/core/lv_obj_pos.c ****     lv_coord_t h_set = lv_obj_get_style_height(obj, LV_PART_MAIN);
 623:Drivers/lvgl/src/core/lv_obj_pos.c ****     if(w_set != LV_SIZE_CONTENT && h_set != LV_SIZE_CONTENT) return false;
 624:Drivers/lvgl/src/core/lv_obj_pos.c **** 
 625:Drivers/lvgl/src/core/lv_obj_pos.c ****     lv_obj_mark_layout_as_dirty(obj);
 626:Drivers/lvgl/src/core/lv_obj_pos.c ****     return true;
 627:Drivers/lvgl/src/core/lv_obj_pos.c **** }
 628:Drivers/lvgl/src/core/lv_obj_pos.c **** 
 629:Drivers/lvgl/src/core/lv_obj_pos.c **** void lv_obj_refr_pos(lv_obj_t * obj)
 630:Drivers/lvgl/src/core/lv_obj_pos.c **** {
 631:Drivers/lvgl/src/core/lv_obj_pos.c ****     if(lv_obj_is_layout_positioned(obj)) return;
 632:Drivers/lvgl/src/core/lv_obj_pos.c **** 
 633:Drivers/lvgl/src/core/lv_obj_pos.c **** 
 634:Drivers/lvgl/src/core/lv_obj_pos.c ****     lv_obj_t * parent = lv_obj_get_parent(obj);
 635:Drivers/lvgl/src/core/lv_obj_pos.c ****     lv_coord_t x = lv_obj_get_style_x(obj, LV_PART_MAIN);
 636:Drivers/lvgl/src/core/lv_obj_pos.c ****     lv_coord_t y = lv_obj_get_style_y(obj, LV_PART_MAIN);
 637:Drivers/lvgl/src/core/lv_obj_pos.c **** 
 638:Drivers/lvgl/src/core/lv_obj_pos.c ****     if(parent == NULL) {
 639:Drivers/lvgl/src/core/lv_obj_pos.c ****         lv_obj_move_to(obj, x, y);
 640:Drivers/lvgl/src/core/lv_obj_pos.c ****         return;
 641:Drivers/lvgl/src/core/lv_obj_pos.c ****     }
 642:Drivers/lvgl/src/core/lv_obj_pos.c **** 
 643:Drivers/lvgl/src/core/lv_obj_pos.c ****     /*Handle percentage value*/
 644:Drivers/lvgl/src/core/lv_obj_pos.c ****     lv_coord_t pw = lv_obj_get_content_width(parent);
 645:Drivers/lvgl/src/core/lv_obj_pos.c ****     lv_coord_t ph = lv_obj_get_content_height(parent);
 646:Drivers/lvgl/src/core/lv_obj_pos.c ****     if(LV_COORD_IS_PCT(x)) x = (pw * LV_COORD_GET_PCT(x)) / 100;
 647:Drivers/lvgl/src/core/lv_obj_pos.c ****     if(LV_COORD_IS_PCT(y)) y = (ph * LV_COORD_GET_PCT(y)) / 100;
 648:Drivers/lvgl/src/core/lv_obj_pos.c **** 
 649:Drivers/lvgl/src/core/lv_obj_pos.c ****     /*Handle percentage value of translate*/
 650:Drivers/lvgl/src/core/lv_obj_pos.c ****     lv_coord_t tr_x = lv_obj_get_style_translate_x(obj, LV_PART_MAIN);
 651:Drivers/lvgl/src/core/lv_obj_pos.c ****     lv_coord_t tr_y = lv_obj_get_style_translate_y(obj, LV_PART_MAIN);
 652:Drivers/lvgl/src/core/lv_obj_pos.c ****     lv_coord_t w = lv_obj_get_width(obj);
 653:Drivers/lvgl/src/core/lv_obj_pos.c ****     lv_coord_t h = lv_obj_get_height(obj);
 654:Drivers/lvgl/src/core/lv_obj_pos.c ****     if(LV_COORD_IS_PCT(tr_x)) tr_x = (w * LV_COORD_GET_PCT(tr_x)) / 100;
 655:Drivers/lvgl/src/core/lv_obj_pos.c ****     if(LV_COORD_IS_PCT(tr_y)) tr_y = (h * LV_COORD_GET_PCT(tr_y)) / 100;
 656:Drivers/lvgl/src/core/lv_obj_pos.c **** 
 657:Drivers/lvgl/src/core/lv_obj_pos.c ****     /*Use the translation*/
ARM GAS  /var/folders/0z/tsy30v1j4xl4_7kw94k978ww0000gn/T//cc4e96aK.s 			page 13


 658:Drivers/lvgl/src/core/lv_obj_pos.c ****     x += tr_x;
 659:Drivers/lvgl/src/core/lv_obj_pos.c ****     y += tr_y;
 660:Drivers/lvgl/src/core/lv_obj_pos.c **** 
 661:Drivers/lvgl/src/core/lv_obj_pos.c ****     lv_align_t align = lv_obj_get_style_align(obj, LV_PART_MAIN);
 662:Drivers/lvgl/src/core/lv_obj_pos.c **** 
 663:Drivers/lvgl/src/core/lv_obj_pos.c ****     if(align == LV_ALIGN_DEFAULT) {
 664:Drivers/lvgl/src/core/lv_obj_pos.c ****         if(lv_obj_get_style_base_dir(parent, LV_PART_MAIN) == LV_BASE_DIR_RTL) align = LV_ALIGN_TOP
 665:Drivers/lvgl/src/core/lv_obj_pos.c ****         else align = LV_ALIGN_TOP_LEFT;
 666:Drivers/lvgl/src/core/lv_obj_pos.c ****     }
 667:Drivers/lvgl/src/core/lv_obj_pos.c **** 
 668:Drivers/lvgl/src/core/lv_obj_pos.c ****     if(align == LV_ALIGN_TOP_LEFT) {
 669:Drivers/lvgl/src/core/lv_obj_pos.c ****         lv_obj_move_to(obj, x, y);
 670:Drivers/lvgl/src/core/lv_obj_pos.c ****     }
 671:Drivers/lvgl/src/core/lv_obj_pos.c ****     else {
 672:Drivers/lvgl/src/core/lv_obj_pos.c **** 
 673:Drivers/lvgl/src/core/lv_obj_pos.c ****         switch(align) {
 674:Drivers/lvgl/src/core/lv_obj_pos.c ****             case LV_ALIGN_TOP_MID:
 675:Drivers/lvgl/src/core/lv_obj_pos.c ****                 x += pw / 2 - w / 2;
 676:Drivers/lvgl/src/core/lv_obj_pos.c ****                 break;
 677:Drivers/lvgl/src/core/lv_obj_pos.c ****             case LV_ALIGN_TOP_RIGHT:
 678:Drivers/lvgl/src/core/lv_obj_pos.c ****                 x += pw - w;
 679:Drivers/lvgl/src/core/lv_obj_pos.c ****                 break;
 680:Drivers/lvgl/src/core/lv_obj_pos.c ****             case LV_ALIGN_LEFT_MID:
 681:Drivers/lvgl/src/core/lv_obj_pos.c ****                 y += ph / 2 - h / 2;
 682:Drivers/lvgl/src/core/lv_obj_pos.c ****                 break;
 683:Drivers/lvgl/src/core/lv_obj_pos.c ****             case LV_ALIGN_BOTTOM_LEFT:
 684:Drivers/lvgl/src/core/lv_obj_pos.c ****                 y += ph - h;
 685:Drivers/lvgl/src/core/lv_obj_pos.c ****                 break;
 686:Drivers/lvgl/src/core/lv_obj_pos.c ****             case LV_ALIGN_BOTTOM_MID:
 687:Drivers/lvgl/src/core/lv_obj_pos.c ****                 x += pw / 2 - w / 2;
 688:Drivers/lvgl/src/core/lv_obj_pos.c ****                 y += ph - h;
 689:Drivers/lvgl/src/core/lv_obj_pos.c ****                 break;
 690:Drivers/lvgl/src/core/lv_obj_pos.c ****             case LV_ALIGN_BOTTOM_RIGHT:
 691:Drivers/lvgl/src/core/lv_obj_pos.c ****                 x += pw - w;
 692:Drivers/lvgl/src/core/lv_obj_pos.c ****                 y += ph - h;
 693:Drivers/lvgl/src/core/lv_obj_pos.c ****                 break;
 694:Drivers/lvgl/src/core/lv_obj_pos.c ****             case LV_ALIGN_RIGHT_MID:
 695:Drivers/lvgl/src/core/lv_obj_pos.c ****                 x += pw - w;
 696:Drivers/lvgl/src/core/lv_obj_pos.c ****                 y += ph / 2 - h / 2;
 697:Drivers/lvgl/src/core/lv_obj_pos.c ****                 break;
 698:Drivers/lvgl/src/core/lv_obj_pos.c ****             case LV_ALIGN_CENTER:
 699:Drivers/lvgl/src/core/lv_obj_pos.c ****                 x += pw / 2 - w / 2;
 700:Drivers/lvgl/src/core/lv_obj_pos.c ****                 y += ph / 2 - h / 2;
 701:Drivers/lvgl/src/core/lv_obj_pos.c ****                 break;
 702:Drivers/lvgl/src/core/lv_obj_pos.c ****             default:
 703:Drivers/lvgl/src/core/lv_obj_pos.c ****                 break;
 704:Drivers/lvgl/src/core/lv_obj_pos.c ****         }
 705:Drivers/lvgl/src/core/lv_obj_pos.c ****         lv_obj_move_to(obj, x, y);
 706:Drivers/lvgl/src/core/lv_obj_pos.c ****     }
 707:Drivers/lvgl/src/core/lv_obj_pos.c **** }
 708:Drivers/lvgl/src/core/lv_obj_pos.c **** 
 709:Drivers/lvgl/src/core/lv_obj_pos.c **** void lv_obj_move_to(lv_obj_t * obj, lv_coord_t x, lv_coord_t y)
 710:Drivers/lvgl/src/core/lv_obj_pos.c **** {
 711:Drivers/lvgl/src/core/lv_obj_pos.c ****     /*Convert x and y to absolute coordinates*/
 712:Drivers/lvgl/src/core/lv_obj_pos.c ****     lv_obj_t * parent = obj->parent;
 713:Drivers/lvgl/src/core/lv_obj_pos.c **** 
 714:Drivers/lvgl/src/core/lv_obj_pos.c ****     if(parent) {
ARM GAS  /var/folders/0z/tsy30v1j4xl4_7kw94k978ww0000gn/T//cc4e96aK.s 			page 14


 715:Drivers/lvgl/src/core/lv_obj_pos.c ****         lv_coord_t pad_left = lv_obj_get_style_pad_left(parent, LV_PART_MAIN);
 716:Drivers/lvgl/src/core/lv_obj_pos.c ****         lv_coord_t pad_top = lv_obj_get_style_pad_top(parent, LV_PART_MAIN);
 717:Drivers/lvgl/src/core/lv_obj_pos.c **** 
 718:Drivers/lvgl/src/core/lv_obj_pos.c ****         if(lv_obj_has_flag(obj, LV_OBJ_FLAG_FLOATING)) {
 719:Drivers/lvgl/src/core/lv_obj_pos.c ****             x += pad_left + parent->coords.x1;
 720:Drivers/lvgl/src/core/lv_obj_pos.c ****             y += pad_top + parent->coords.y1;
 721:Drivers/lvgl/src/core/lv_obj_pos.c ****         }
 722:Drivers/lvgl/src/core/lv_obj_pos.c ****         else {
 723:Drivers/lvgl/src/core/lv_obj_pos.c ****             x += pad_left + parent->coords.x1 - lv_obj_get_scroll_x(parent);
 724:Drivers/lvgl/src/core/lv_obj_pos.c ****             y += pad_top + parent->coords.y1 - lv_obj_get_scroll_y(parent);
 725:Drivers/lvgl/src/core/lv_obj_pos.c ****         }
 726:Drivers/lvgl/src/core/lv_obj_pos.c **** 
 727:Drivers/lvgl/src/core/lv_obj_pos.c ****         lv_coord_t border_width = lv_obj_get_style_border_width(parent, LV_PART_MAIN);
 728:Drivers/lvgl/src/core/lv_obj_pos.c ****         x += border_width;
 729:Drivers/lvgl/src/core/lv_obj_pos.c ****         y += border_width;
 730:Drivers/lvgl/src/core/lv_obj_pos.c ****     }
 731:Drivers/lvgl/src/core/lv_obj_pos.c **** 
 732:Drivers/lvgl/src/core/lv_obj_pos.c ****     /*Calculate and set the movement*/
 733:Drivers/lvgl/src/core/lv_obj_pos.c ****     lv_point_t diff;
 734:Drivers/lvgl/src/core/lv_obj_pos.c ****     diff.x = x - obj->coords.x1;
 735:Drivers/lvgl/src/core/lv_obj_pos.c ****     diff.y = y - obj->coords.y1;
 736:Drivers/lvgl/src/core/lv_obj_pos.c **** 
 737:Drivers/lvgl/src/core/lv_obj_pos.c ****     /*Do nothing if the position is not changed*/
 738:Drivers/lvgl/src/core/lv_obj_pos.c ****     /*It is very important else recursive positioning can
 739:Drivers/lvgl/src/core/lv_obj_pos.c ****      *occur without position change*/
 740:Drivers/lvgl/src/core/lv_obj_pos.c ****     if(diff.x == 0 && diff.y == 0) return;
 741:Drivers/lvgl/src/core/lv_obj_pos.c **** 
 742:Drivers/lvgl/src/core/lv_obj_pos.c ****     /*Invalidate the original area*/
 743:Drivers/lvgl/src/core/lv_obj_pos.c ****     lv_obj_invalidate(obj);
 744:Drivers/lvgl/src/core/lv_obj_pos.c **** 
 745:Drivers/lvgl/src/core/lv_obj_pos.c ****     /*Save the original coordinates*/
 746:Drivers/lvgl/src/core/lv_obj_pos.c ****     lv_area_t ori;
 747:Drivers/lvgl/src/core/lv_obj_pos.c ****     lv_obj_get_coords(obj, &ori);
 748:Drivers/lvgl/src/core/lv_obj_pos.c **** 
 749:Drivers/lvgl/src/core/lv_obj_pos.c ****     /*Check if the object inside the parent or not*/
 750:Drivers/lvgl/src/core/lv_obj_pos.c ****     lv_area_t parent_fit_area;
 751:Drivers/lvgl/src/core/lv_obj_pos.c ****     bool on1 = false;
 752:Drivers/lvgl/src/core/lv_obj_pos.c ****     if(parent) {
 753:Drivers/lvgl/src/core/lv_obj_pos.c ****         lv_obj_get_content_coords(parent, &parent_fit_area);
 754:Drivers/lvgl/src/core/lv_obj_pos.c **** 
 755:Drivers/lvgl/src/core/lv_obj_pos.c ****         /*If the object is already out of the parent and its position is changes
 756:Drivers/lvgl/src/core/lv_obj_pos.c ****          *surely the scrollbars also changes so invalidate them*/
 757:Drivers/lvgl/src/core/lv_obj_pos.c ****         on1 = _lv_area_is_in(&ori, &parent_fit_area, 0);
 758:Drivers/lvgl/src/core/lv_obj_pos.c ****         if(!on1) lv_obj_scrollbar_invalidate(parent);
 759:Drivers/lvgl/src/core/lv_obj_pos.c ****     }
 760:Drivers/lvgl/src/core/lv_obj_pos.c **** 
 761:Drivers/lvgl/src/core/lv_obj_pos.c ****     obj->coords.x1 += diff.x;
 762:Drivers/lvgl/src/core/lv_obj_pos.c ****     obj->coords.y1 += diff.y;
 763:Drivers/lvgl/src/core/lv_obj_pos.c ****     obj->coords.x2 += diff.x;
 764:Drivers/lvgl/src/core/lv_obj_pos.c ****     obj->coords.y2 += diff.y;
 765:Drivers/lvgl/src/core/lv_obj_pos.c **** 
 766:Drivers/lvgl/src/core/lv_obj_pos.c ****     lv_obj_move_children_by(obj, diff.x, diff.y, false);
 767:Drivers/lvgl/src/core/lv_obj_pos.c **** 
 768:Drivers/lvgl/src/core/lv_obj_pos.c ****     /*Call the ancestor's event handler to the parent too*/
 769:Drivers/lvgl/src/core/lv_obj_pos.c ****     if(parent) lv_event_send(parent, LV_EVENT_CHILD_CHANGED, obj);
 770:Drivers/lvgl/src/core/lv_obj_pos.c **** 
 771:Drivers/lvgl/src/core/lv_obj_pos.c ****     /*Invalidate the new area*/
ARM GAS  /var/folders/0z/tsy30v1j4xl4_7kw94k978ww0000gn/T//cc4e96aK.s 			page 15


 772:Drivers/lvgl/src/core/lv_obj_pos.c ****     lv_obj_invalidate(obj);
 773:Drivers/lvgl/src/core/lv_obj_pos.c **** 
 774:Drivers/lvgl/src/core/lv_obj_pos.c ****     /*If the object was out of the parent invalidate the new scrollbar area too.
 775:Drivers/lvgl/src/core/lv_obj_pos.c ****      *If it wasn't out of the parent but out now, also invalidate the srollbars*/
 776:Drivers/lvgl/src/core/lv_obj_pos.c ****     if(parent) {
 777:Drivers/lvgl/src/core/lv_obj_pos.c ****         bool on2 = _lv_area_is_in(&obj->coords, &parent_fit_area, 0);
 778:Drivers/lvgl/src/core/lv_obj_pos.c ****         if(on1 || (!on1 && on2)) lv_obj_scrollbar_invalidate(parent);
 779:Drivers/lvgl/src/core/lv_obj_pos.c ****     }
 780:Drivers/lvgl/src/core/lv_obj_pos.c **** }
 781:Drivers/lvgl/src/core/lv_obj_pos.c **** 
 782:Drivers/lvgl/src/core/lv_obj_pos.c **** void lv_obj_move_children_by(lv_obj_t * obj, lv_coord_t x_diff, lv_coord_t y_diff, bool ignore_floa
 783:Drivers/lvgl/src/core/lv_obj_pos.c **** {
 784:Drivers/lvgl/src/core/lv_obj_pos.c ****     uint32_t i;
 785:Drivers/lvgl/src/core/lv_obj_pos.c ****     uint32_t child_cnt = lv_obj_get_child_cnt(obj);
 786:Drivers/lvgl/src/core/lv_obj_pos.c ****     for(i = 0; i < child_cnt; i++) {
 787:Drivers/lvgl/src/core/lv_obj_pos.c ****         lv_obj_t * child = obj->spec_attr->children[i];
 788:Drivers/lvgl/src/core/lv_obj_pos.c ****         if(ignore_floating && lv_obj_has_flag(child, LV_OBJ_FLAG_FLOATING)) continue;
 789:Drivers/lvgl/src/core/lv_obj_pos.c ****         child->coords.x1 += x_diff;
 790:Drivers/lvgl/src/core/lv_obj_pos.c ****         child->coords.y1 += y_diff;
 791:Drivers/lvgl/src/core/lv_obj_pos.c ****         child->coords.x2 += x_diff;
 792:Drivers/lvgl/src/core/lv_obj_pos.c ****         child->coords.y2 += y_diff;
 793:Drivers/lvgl/src/core/lv_obj_pos.c **** 
 794:Drivers/lvgl/src/core/lv_obj_pos.c ****         lv_obj_move_children_by(child, x_diff, y_diff, false);
 795:Drivers/lvgl/src/core/lv_obj_pos.c ****     }
 796:Drivers/lvgl/src/core/lv_obj_pos.c **** }
 797:Drivers/lvgl/src/core/lv_obj_pos.c **** 
 798:Drivers/lvgl/src/core/lv_obj_pos.c **** void lv_obj_transform_point(const lv_obj_t * obj, lv_point_t * p, bool recursive, bool inv)
 799:Drivers/lvgl/src/core/lv_obj_pos.c **** {
 800:Drivers/lvgl/src/core/lv_obj_pos.c ****     if(obj) {
 801:Drivers/lvgl/src/core/lv_obj_pos.c ****         lv_layer_type_t layer_type = _lv_obj_get_layer_type(obj);
 802:Drivers/lvgl/src/core/lv_obj_pos.c ****         bool do_tranf = layer_type == LV_LAYER_TYPE_TRANSFORM;
 803:Drivers/lvgl/src/core/lv_obj_pos.c ****         if(inv) {
 804:Drivers/lvgl/src/core/lv_obj_pos.c ****             if(recursive) lv_obj_transform_point(lv_obj_get_parent(obj), p, recursive, inv);
 805:Drivers/lvgl/src/core/lv_obj_pos.c ****             if(do_tranf) transform_point(obj, p, inv);
 806:Drivers/lvgl/src/core/lv_obj_pos.c ****         }
 807:Drivers/lvgl/src/core/lv_obj_pos.c ****         else {
 808:Drivers/lvgl/src/core/lv_obj_pos.c ****             if(do_tranf) transform_point(obj, p, inv);
 809:Drivers/lvgl/src/core/lv_obj_pos.c ****             if(recursive) lv_obj_transform_point(lv_obj_get_parent(obj), p, recursive, inv);
 810:Drivers/lvgl/src/core/lv_obj_pos.c ****         }
 811:Drivers/lvgl/src/core/lv_obj_pos.c ****     }
 812:Drivers/lvgl/src/core/lv_obj_pos.c **** }
 813:Drivers/lvgl/src/core/lv_obj_pos.c **** 
 814:Drivers/lvgl/src/core/lv_obj_pos.c **** void lv_obj_get_transformed_area(const lv_obj_t * obj, lv_area_t * area, bool recursive,
 815:Drivers/lvgl/src/core/lv_obj_pos.c ****                                  bool inv)
 816:Drivers/lvgl/src/core/lv_obj_pos.c **** {
 817:Drivers/lvgl/src/core/lv_obj_pos.c ****     lv_point_t p[4] = {
 818:Drivers/lvgl/src/core/lv_obj_pos.c ****         {area->x1, area->y1},
 819:Drivers/lvgl/src/core/lv_obj_pos.c ****         {area->x1, area->y2},
 820:Drivers/lvgl/src/core/lv_obj_pos.c ****         {area->x2, area->y1},
 821:Drivers/lvgl/src/core/lv_obj_pos.c ****         {area->x2, area->y2},
 822:Drivers/lvgl/src/core/lv_obj_pos.c ****     };
 823:Drivers/lvgl/src/core/lv_obj_pos.c **** 
 824:Drivers/lvgl/src/core/lv_obj_pos.c ****     lv_obj_transform_point(obj, &p[0], recursive, inv);
 825:Drivers/lvgl/src/core/lv_obj_pos.c ****     lv_obj_transform_point(obj, &p[1], recursive, inv);
 826:Drivers/lvgl/src/core/lv_obj_pos.c ****     lv_obj_transform_point(obj, &p[2], recursive, inv);
 827:Drivers/lvgl/src/core/lv_obj_pos.c ****     lv_obj_transform_point(obj, &p[3], recursive, inv);
 828:Drivers/lvgl/src/core/lv_obj_pos.c **** 
ARM GAS  /var/folders/0z/tsy30v1j4xl4_7kw94k978ww0000gn/T//cc4e96aK.s 			page 16


 829:Drivers/lvgl/src/core/lv_obj_pos.c ****     area->x1 = LV_MIN4(p[0].x, p[1].x, p[2].x, p[3].x);
 830:Drivers/lvgl/src/core/lv_obj_pos.c ****     area->x2 = LV_MAX4(p[0].x, p[1].x, p[2].x, p[3].x);
 831:Drivers/lvgl/src/core/lv_obj_pos.c ****     area->y1 = LV_MIN4(p[0].y, p[1].y, p[2].y, p[3].y);
 832:Drivers/lvgl/src/core/lv_obj_pos.c ****     area->y2 = LV_MAX4(p[0].y, p[1].y, p[2].y, p[3].y);
 833:Drivers/lvgl/src/core/lv_obj_pos.c ****     lv_area_increase(area, 5, 5);
 834:Drivers/lvgl/src/core/lv_obj_pos.c **** }
 835:Drivers/lvgl/src/core/lv_obj_pos.c **** 
 836:Drivers/lvgl/src/core/lv_obj_pos.c **** 
 837:Drivers/lvgl/src/core/lv_obj_pos.c **** void lv_obj_invalidate_area(const lv_obj_t * obj, const lv_area_t * area)
 838:Drivers/lvgl/src/core/lv_obj_pos.c **** {
 839:Drivers/lvgl/src/core/lv_obj_pos.c ****     LV_ASSERT_OBJ(obj, MY_CLASS);
 840:Drivers/lvgl/src/core/lv_obj_pos.c **** 
 841:Drivers/lvgl/src/core/lv_obj_pos.c ****     lv_disp_t * disp   = lv_obj_get_disp(obj);
 842:Drivers/lvgl/src/core/lv_obj_pos.c ****     if(!lv_disp_is_invalidation_enabled(disp)) return;
 843:Drivers/lvgl/src/core/lv_obj_pos.c **** 
 844:Drivers/lvgl/src/core/lv_obj_pos.c ****     lv_area_t area_tmp;
 845:Drivers/lvgl/src/core/lv_obj_pos.c ****     lv_area_copy(&area_tmp, area);
 846:Drivers/lvgl/src/core/lv_obj_pos.c ****     if(!lv_obj_area_is_visible(obj, &area_tmp)) return;
 847:Drivers/lvgl/src/core/lv_obj_pos.c **** 
 848:Drivers/lvgl/src/core/lv_obj_pos.c ****     _lv_inv_area(lv_obj_get_disp(obj),  &area_tmp);
 849:Drivers/lvgl/src/core/lv_obj_pos.c **** }
 850:Drivers/lvgl/src/core/lv_obj_pos.c **** 
 851:Drivers/lvgl/src/core/lv_obj_pos.c **** void lv_obj_invalidate(const lv_obj_t * obj)
 852:Drivers/lvgl/src/core/lv_obj_pos.c **** {
 853:Drivers/lvgl/src/core/lv_obj_pos.c ****     LV_ASSERT_OBJ(obj, MY_CLASS);
 854:Drivers/lvgl/src/core/lv_obj_pos.c **** 
 855:Drivers/lvgl/src/core/lv_obj_pos.c ****     /*Truncate the area to the object*/
 856:Drivers/lvgl/src/core/lv_obj_pos.c ****     lv_area_t obj_coords;
 857:Drivers/lvgl/src/core/lv_obj_pos.c ****     lv_coord_t ext_size = _lv_obj_get_ext_draw_size(obj);
 858:Drivers/lvgl/src/core/lv_obj_pos.c ****     lv_area_copy(&obj_coords, &obj->coords);
 859:Drivers/lvgl/src/core/lv_obj_pos.c ****     obj_coords.x1 -= ext_size;
 860:Drivers/lvgl/src/core/lv_obj_pos.c ****     obj_coords.y1 -= ext_size;
 861:Drivers/lvgl/src/core/lv_obj_pos.c ****     obj_coords.x2 += ext_size;
 862:Drivers/lvgl/src/core/lv_obj_pos.c ****     obj_coords.y2 += ext_size;
 863:Drivers/lvgl/src/core/lv_obj_pos.c **** 
 864:Drivers/lvgl/src/core/lv_obj_pos.c ****     lv_obj_invalidate_area(obj, &obj_coords);
 865:Drivers/lvgl/src/core/lv_obj_pos.c **** 
 866:Drivers/lvgl/src/core/lv_obj_pos.c **** }
 867:Drivers/lvgl/src/core/lv_obj_pos.c **** 
 868:Drivers/lvgl/src/core/lv_obj_pos.c **** bool lv_obj_area_is_visible(const lv_obj_t * obj, lv_area_t * area)
 869:Drivers/lvgl/src/core/lv_obj_pos.c **** {
 870:Drivers/lvgl/src/core/lv_obj_pos.c ****     if(lv_obj_has_flag(obj, LV_OBJ_FLAG_HIDDEN)) return false;
 871:Drivers/lvgl/src/core/lv_obj_pos.c **** 
 872:Drivers/lvgl/src/core/lv_obj_pos.c ****     /*Invalidate the object only if it belongs to the current or previous or one of the layers'*/
 873:Drivers/lvgl/src/core/lv_obj_pos.c ****     lv_obj_t * obj_scr = lv_obj_get_screen(obj);
 874:Drivers/lvgl/src/core/lv_obj_pos.c ****     lv_disp_t * disp   = lv_obj_get_disp(obj_scr);
 875:Drivers/lvgl/src/core/lv_obj_pos.c ****     if(obj_scr != lv_disp_get_scr_act(disp) &&
 876:Drivers/lvgl/src/core/lv_obj_pos.c ****        obj_scr != lv_disp_get_scr_prev(disp) &&
 877:Drivers/lvgl/src/core/lv_obj_pos.c ****        obj_scr != lv_disp_get_layer_top(disp) &&
 878:Drivers/lvgl/src/core/lv_obj_pos.c ****        obj_scr != lv_disp_get_layer_sys(disp)) {
 879:Drivers/lvgl/src/core/lv_obj_pos.c ****         return false;
 880:Drivers/lvgl/src/core/lv_obj_pos.c ****     }
 881:Drivers/lvgl/src/core/lv_obj_pos.c **** 
 882:Drivers/lvgl/src/core/lv_obj_pos.c ****     /*Truncate the area to the object*/
 883:Drivers/lvgl/src/core/lv_obj_pos.c ****     if(!lv_obj_has_flag_any(obj, LV_OBJ_FLAG_OVERFLOW_VISIBLE)) {
 884:Drivers/lvgl/src/core/lv_obj_pos.c ****         lv_area_t obj_coords;
 885:Drivers/lvgl/src/core/lv_obj_pos.c ****         lv_coord_t ext_size = _lv_obj_get_ext_draw_size(obj);
ARM GAS  /var/folders/0z/tsy30v1j4xl4_7kw94k978ww0000gn/T//cc4e96aK.s 			page 17


 886:Drivers/lvgl/src/core/lv_obj_pos.c ****         lv_area_copy(&obj_coords, &obj->coords);
 887:Drivers/lvgl/src/core/lv_obj_pos.c ****         obj_coords.x1 -= ext_size;
 888:Drivers/lvgl/src/core/lv_obj_pos.c ****         obj_coords.y1 -= ext_size;
 889:Drivers/lvgl/src/core/lv_obj_pos.c ****         obj_coords.x2 += ext_size;
 890:Drivers/lvgl/src/core/lv_obj_pos.c ****         obj_coords.y2 += ext_size;
 891:Drivers/lvgl/src/core/lv_obj_pos.c **** 
 892:Drivers/lvgl/src/core/lv_obj_pos.c ****         /*The area is not on the object*/
 893:Drivers/lvgl/src/core/lv_obj_pos.c ****         if(!_lv_area_intersect(area, area, &obj_coords)) return false;
 894:Drivers/lvgl/src/core/lv_obj_pos.c ****     }
 895:Drivers/lvgl/src/core/lv_obj_pos.c **** 
 896:Drivers/lvgl/src/core/lv_obj_pos.c ****     lv_obj_get_transformed_area(obj, area, true, false);
 897:Drivers/lvgl/src/core/lv_obj_pos.c **** 
 898:Drivers/lvgl/src/core/lv_obj_pos.c **** 
 899:Drivers/lvgl/src/core/lv_obj_pos.c ****     /*Truncate recursively to the parents*/
 900:Drivers/lvgl/src/core/lv_obj_pos.c ****     lv_obj_t * par = lv_obj_get_parent(obj);
 901:Drivers/lvgl/src/core/lv_obj_pos.c ****     while(par != NULL) {
 902:Drivers/lvgl/src/core/lv_obj_pos.c ****         /*If the parent is hidden then the child is hidden and won't be drawn*/
 903:Drivers/lvgl/src/core/lv_obj_pos.c ****         if(lv_obj_has_flag(par, LV_OBJ_FLAG_HIDDEN)) return false;
 904:Drivers/lvgl/src/core/lv_obj_pos.c **** 
 905:Drivers/lvgl/src/core/lv_obj_pos.c ****         /*Truncate to the parent and if no common parts break*/
 906:Drivers/lvgl/src/core/lv_obj_pos.c ****         if(!lv_obj_has_flag_any(par, LV_OBJ_FLAG_OVERFLOW_VISIBLE)) {
 907:Drivers/lvgl/src/core/lv_obj_pos.c ****             lv_area_t par_area = par->coords;
 908:Drivers/lvgl/src/core/lv_obj_pos.c ****             lv_obj_get_transformed_area(par, &par_area, true, false);
 909:Drivers/lvgl/src/core/lv_obj_pos.c ****             if(!_lv_area_intersect(area, area, &par_area)) return false;
 910:Drivers/lvgl/src/core/lv_obj_pos.c ****         }
 911:Drivers/lvgl/src/core/lv_obj_pos.c **** 
 912:Drivers/lvgl/src/core/lv_obj_pos.c ****         par = lv_obj_get_parent(par);
 913:Drivers/lvgl/src/core/lv_obj_pos.c ****     }
 914:Drivers/lvgl/src/core/lv_obj_pos.c **** 
 915:Drivers/lvgl/src/core/lv_obj_pos.c ****     return true;
 916:Drivers/lvgl/src/core/lv_obj_pos.c **** }
 917:Drivers/lvgl/src/core/lv_obj_pos.c **** 
 918:Drivers/lvgl/src/core/lv_obj_pos.c **** bool lv_obj_is_visible(const lv_obj_t * obj)
 919:Drivers/lvgl/src/core/lv_obj_pos.c **** {
 920:Drivers/lvgl/src/core/lv_obj_pos.c ****     LV_ASSERT_OBJ(obj, MY_CLASS);
 921:Drivers/lvgl/src/core/lv_obj_pos.c **** 
 922:Drivers/lvgl/src/core/lv_obj_pos.c ****     lv_area_t obj_coords;
 923:Drivers/lvgl/src/core/lv_obj_pos.c ****     lv_coord_t ext_size = _lv_obj_get_ext_draw_size(obj);
 924:Drivers/lvgl/src/core/lv_obj_pos.c ****     lv_area_copy(&obj_coords, &obj->coords);
 925:Drivers/lvgl/src/core/lv_obj_pos.c ****     obj_coords.x1 -= ext_size;
 926:Drivers/lvgl/src/core/lv_obj_pos.c ****     obj_coords.y1 -= ext_size;
 927:Drivers/lvgl/src/core/lv_obj_pos.c ****     obj_coords.x2 += ext_size;
 928:Drivers/lvgl/src/core/lv_obj_pos.c ****     obj_coords.y2 += ext_size;
 929:Drivers/lvgl/src/core/lv_obj_pos.c **** 
 930:Drivers/lvgl/src/core/lv_obj_pos.c ****     return lv_obj_area_is_visible(obj, &obj_coords);
 931:Drivers/lvgl/src/core/lv_obj_pos.c **** 
 932:Drivers/lvgl/src/core/lv_obj_pos.c **** }
 933:Drivers/lvgl/src/core/lv_obj_pos.c **** 
 934:Drivers/lvgl/src/core/lv_obj_pos.c **** void lv_obj_set_ext_click_area(lv_obj_t * obj, lv_coord_t size)
 935:Drivers/lvgl/src/core/lv_obj_pos.c **** {
 936:Drivers/lvgl/src/core/lv_obj_pos.c ****     LV_ASSERT_OBJ(obj, MY_CLASS);
 937:Drivers/lvgl/src/core/lv_obj_pos.c **** 
 938:Drivers/lvgl/src/core/lv_obj_pos.c ****     lv_obj_allocate_spec_attr(obj);
 939:Drivers/lvgl/src/core/lv_obj_pos.c ****     obj->spec_attr->ext_click_pad = size;
 940:Drivers/lvgl/src/core/lv_obj_pos.c **** }
 941:Drivers/lvgl/src/core/lv_obj_pos.c **** 
 942:Drivers/lvgl/src/core/lv_obj_pos.c **** void lv_obj_get_click_area(const lv_obj_t * obj, lv_area_t * area)
ARM GAS  /var/folders/0z/tsy30v1j4xl4_7kw94k978ww0000gn/T//cc4e96aK.s 			page 18


 943:Drivers/lvgl/src/core/lv_obj_pos.c **** {
 944:Drivers/lvgl/src/core/lv_obj_pos.c ****     lv_area_copy(area, &obj->coords);
 945:Drivers/lvgl/src/core/lv_obj_pos.c ****     if(obj->spec_attr) {
 946:Drivers/lvgl/src/core/lv_obj_pos.c ****         area->x1 -= obj->spec_attr->ext_click_pad;
 947:Drivers/lvgl/src/core/lv_obj_pos.c ****         area->x2 += obj->spec_attr->ext_click_pad;
 948:Drivers/lvgl/src/core/lv_obj_pos.c ****         area->y1 -= obj->spec_attr->ext_click_pad;
 949:Drivers/lvgl/src/core/lv_obj_pos.c ****         area->y2 += obj->spec_attr->ext_click_pad;
 950:Drivers/lvgl/src/core/lv_obj_pos.c ****     }
 951:Drivers/lvgl/src/core/lv_obj_pos.c **** }
 952:Drivers/lvgl/src/core/lv_obj_pos.c **** 
 953:Drivers/lvgl/src/core/lv_obj_pos.c **** bool lv_obj_hit_test(lv_obj_t * obj, const lv_point_t * point)
 954:Drivers/lvgl/src/core/lv_obj_pos.c **** {
 955:Drivers/lvgl/src/core/lv_obj_pos.c ****     if(!lv_obj_has_flag(obj, LV_OBJ_FLAG_CLICKABLE)) return false;
 956:Drivers/lvgl/src/core/lv_obj_pos.c ****     if(lv_obj_has_state(obj, LV_STATE_DISABLED)) return false;
 957:Drivers/lvgl/src/core/lv_obj_pos.c **** 
 958:Drivers/lvgl/src/core/lv_obj_pos.c ****     lv_area_t a;
 959:Drivers/lvgl/src/core/lv_obj_pos.c ****     lv_obj_get_click_area(obj, &a);
 960:Drivers/lvgl/src/core/lv_obj_pos.c ****     bool res = _lv_area_is_point_on(&a, point, 0);
 961:Drivers/lvgl/src/core/lv_obj_pos.c ****     if(res == false) return false;
 962:Drivers/lvgl/src/core/lv_obj_pos.c **** 
 963:Drivers/lvgl/src/core/lv_obj_pos.c ****     if(lv_obj_has_flag(obj, LV_OBJ_FLAG_ADV_HITTEST)) {
 964:Drivers/lvgl/src/core/lv_obj_pos.c ****         lv_hit_test_info_t hit_info;
 965:Drivers/lvgl/src/core/lv_obj_pos.c ****         hit_info.point = point;
 966:Drivers/lvgl/src/core/lv_obj_pos.c ****         hit_info.res = true;
 967:Drivers/lvgl/src/core/lv_obj_pos.c ****         lv_event_send(obj, LV_EVENT_HIT_TEST, &hit_info);
 968:Drivers/lvgl/src/core/lv_obj_pos.c ****         return hit_info.res;
 969:Drivers/lvgl/src/core/lv_obj_pos.c ****     }
 970:Drivers/lvgl/src/core/lv_obj_pos.c **** 
 971:Drivers/lvgl/src/core/lv_obj_pos.c ****     return res;
 972:Drivers/lvgl/src/core/lv_obj_pos.c **** }
 973:Drivers/lvgl/src/core/lv_obj_pos.c **** 
 974:Drivers/lvgl/src/core/lv_obj_pos.c **** lv_coord_t lv_clamp_width(lv_coord_t width, lv_coord_t min_width, lv_coord_t max_width, lv_coord_t 
 975:Drivers/lvgl/src/core/lv_obj_pos.c **** {
 976:Drivers/lvgl/src/core/lv_obj_pos.c ****     if(LV_COORD_IS_PCT(min_width)) min_width = (ref_width * LV_COORD_GET_PCT(min_width)) / 100;
 977:Drivers/lvgl/src/core/lv_obj_pos.c ****     if(LV_COORD_IS_PCT(max_width)) max_width = (ref_width * LV_COORD_GET_PCT(max_width)) / 100;
 978:Drivers/lvgl/src/core/lv_obj_pos.c ****     return LV_CLAMP(min_width, width, max_width);
 979:Drivers/lvgl/src/core/lv_obj_pos.c **** }
 980:Drivers/lvgl/src/core/lv_obj_pos.c **** 
 981:Drivers/lvgl/src/core/lv_obj_pos.c **** lv_coord_t lv_clamp_height(lv_coord_t height, lv_coord_t min_height, lv_coord_t max_height, lv_coor
 982:Drivers/lvgl/src/core/lv_obj_pos.c **** {
 983:Drivers/lvgl/src/core/lv_obj_pos.c ****     if(LV_COORD_IS_PCT(min_height)) min_height = (ref_height * LV_COORD_GET_PCT(min_height)) / 100;
 984:Drivers/lvgl/src/core/lv_obj_pos.c ****     if(LV_COORD_IS_PCT(max_height)) max_height = (ref_height * LV_COORD_GET_PCT(max_height)) / 100;
 985:Drivers/lvgl/src/core/lv_obj_pos.c ****     return LV_CLAMP(min_height, height, max_height);
 986:Drivers/lvgl/src/core/lv_obj_pos.c **** }
 987:Drivers/lvgl/src/core/lv_obj_pos.c **** 
 988:Drivers/lvgl/src/core/lv_obj_pos.c **** 
 989:Drivers/lvgl/src/core/lv_obj_pos.c **** 
 990:Drivers/lvgl/src/core/lv_obj_pos.c **** /**********************
 991:Drivers/lvgl/src/core/lv_obj_pos.c ****  *   STATIC FUNCTIONS
 992:Drivers/lvgl/src/core/lv_obj_pos.c ****  **********************/
 993:Drivers/lvgl/src/core/lv_obj_pos.c **** 
 994:Drivers/lvgl/src/core/lv_obj_pos.c **** static lv_coord_t calc_content_width(lv_obj_t * obj)
 995:Drivers/lvgl/src/core/lv_obj_pos.c **** {
 996:Drivers/lvgl/src/core/lv_obj_pos.c ****     lv_obj_scroll_to_x(obj, 0, LV_ANIM_OFF);
 997:Drivers/lvgl/src/core/lv_obj_pos.c **** 
 998:Drivers/lvgl/src/core/lv_obj_pos.c ****     lv_coord_t border_width = lv_obj_get_style_border_width(obj, LV_PART_MAIN);
 999:Drivers/lvgl/src/core/lv_obj_pos.c ****     lv_coord_t pad_right = lv_obj_get_style_pad_right(obj, LV_PART_MAIN) + border_width;
ARM GAS  /var/folders/0z/tsy30v1j4xl4_7kw94k978ww0000gn/T//cc4e96aK.s 			page 19


1000:Drivers/lvgl/src/core/lv_obj_pos.c ****     lv_coord_t pad_left = lv_obj_get_style_pad_left(obj, LV_PART_MAIN) + border_width;
1001:Drivers/lvgl/src/core/lv_obj_pos.c **** 
1002:Drivers/lvgl/src/core/lv_obj_pos.c ****     lv_coord_t self_w;
1003:Drivers/lvgl/src/core/lv_obj_pos.c ****     self_w = lv_obj_get_self_width(obj) +  pad_left + pad_right;
1004:Drivers/lvgl/src/core/lv_obj_pos.c **** 
1005:Drivers/lvgl/src/core/lv_obj_pos.c ****     lv_coord_t child_res = LV_COORD_MIN;
1006:Drivers/lvgl/src/core/lv_obj_pos.c ****     uint32_t i;
1007:Drivers/lvgl/src/core/lv_obj_pos.c ****     uint32_t child_cnt = lv_obj_get_child_cnt(obj);
1008:Drivers/lvgl/src/core/lv_obj_pos.c ****     /*With RTL find the left most coordinate*/
1009:Drivers/lvgl/src/core/lv_obj_pos.c ****     if(lv_obj_get_style_base_dir(obj, LV_PART_MAIN) == LV_BASE_DIR_RTL) {
1010:Drivers/lvgl/src/core/lv_obj_pos.c ****         for(i = 0; i < child_cnt; i++) {
1011:Drivers/lvgl/src/core/lv_obj_pos.c ****             lv_obj_t * child = obj->spec_attr->children[i];
1012:Drivers/lvgl/src/core/lv_obj_pos.c ****             if(lv_obj_has_flag_any(child,  LV_OBJ_FLAG_HIDDEN | LV_OBJ_FLAG_FLOATING)) continue;
1013:Drivers/lvgl/src/core/lv_obj_pos.c **** 
1014:Drivers/lvgl/src/core/lv_obj_pos.c ****             if(!lv_obj_is_layout_positioned(child)) {
1015:Drivers/lvgl/src/core/lv_obj_pos.c ****                 lv_align_t align = lv_obj_get_style_align(child, 0);
1016:Drivers/lvgl/src/core/lv_obj_pos.c ****                 switch(align) {
1017:Drivers/lvgl/src/core/lv_obj_pos.c ****                     case LV_ALIGN_DEFAULT:
1018:Drivers/lvgl/src/core/lv_obj_pos.c ****                     case LV_ALIGN_TOP_RIGHT:
1019:Drivers/lvgl/src/core/lv_obj_pos.c ****                     case LV_ALIGN_BOTTOM_RIGHT:
1020:Drivers/lvgl/src/core/lv_obj_pos.c ****                     case LV_ALIGN_RIGHT_MID:
1021:Drivers/lvgl/src/core/lv_obj_pos.c ****                         /*Normal right aligns. Other are ignored due to possible circular dependenc
1022:Drivers/lvgl/src/core/lv_obj_pos.c ****                         child_res = LV_MAX(child_res, obj->coords.x2 - child->coords.x1 + 1);
1023:Drivers/lvgl/src/core/lv_obj_pos.c ****                         break;
1024:Drivers/lvgl/src/core/lv_obj_pos.c ****                     default:
1025:Drivers/lvgl/src/core/lv_obj_pos.c ****                         /* Consider other cases only if x=0 and use the width of the object.
1026:Drivers/lvgl/src/core/lv_obj_pos.c ****                          * With x!=0 circular dependency could occur. */
1027:Drivers/lvgl/src/core/lv_obj_pos.c ****                         if(lv_obj_get_style_x(child, 0) == 0) {
1028:Drivers/lvgl/src/core/lv_obj_pos.c ****                             child_res = LV_MAX(child_res, lv_area_get_width(&child->coords) + pad_r
1029:Drivers/lvgl/src/core/lv_obj_pos.c ****                         }
1030:Drivers/lvgl/src/core/lv_obj_pos.c ****                 }
1031:Drivers/lvgl/src/core/lv_obj_pos.c ****             }
1032:Drivers/lvgl/src/core/lv_obj_pos.c ****             else {
1033:Drivers/lvgl/src/core/lv_obj_pos.c ****                 child_res = LV_MAX(child_res, obj->coords.x2 - child->coords.x1 + 1);
1034:Drivers/lvgl/src/core/lv_obj_pos.c ****             }
1035:Drivers/lvgl/src/core/lv_obj_pos.c ****         }
1036:Drivers/lvgl/src/core/lv_obj_pos.c ****         if(child_res != LV_COORD_MIN) {
1037:Drivers/lvgl/src/core/lv_obj_pos.c ****             child_res += pad_left;
1038:Drivers/lvgl/src/core/lv_obj_pos.c ****         }
1039:Drivers/lvgl/src/core/lv_obj_pos.c ****     }
1040:Drivers/lvgl/src/core/lv_obj_pos.c ****     /*Else find the right most coordinate*/
1041:Drivers/lvgl/src/core/lv_obj_pos.c ****     else {
1042:Drivers/lvgl/src/core/lv_obj_pos.c ****         for(i = 0; i < child_cnt; i++) {
1043:Drivers/lvgl/src/core/lv_obj_pos.c ****             lv_obj_t * child = obj->spec_attr->children[i];
1044:Drivers/lvgl/src/core/lv_obj_pos.c ****             if(lv_obj_has_flag_any(child,  LV_OBJ_FLAG_HIDDEN | LV_OBJ_FLAG_FLOATING)) continue;
1045:Drivers/lvgl/src/core/lv_obj_pos.c **** 
1046:Drivers/lvgl/src/core/lv_obj_pos.c ****             if(!lv_obj_is_layout_positioned(child)) {
1047:Drivers/lvgl/src/core/lv_obj_pos.c ****                 lv_align_t align = lv_obj_get_style_align(child, 0);
1048:Drivers/lvgl/src/core/lv_obj_pos.c ****                 switch(align) {
1049:Drivers/lvgl/src/core/lv_obj_pos.c ****                     case LV_ALIGN_DEFAULT:
1050:Drivers/lvgl/src/core/lv_obj_pos.c ****                     case LV_ALIGN_TOP_LEFT:
1051:Drivers/lvgl/src/core/lv_obj_pos.c ****                     case LV_ALIGN_BOTTOM_LEFT:
1052:Drivers/lvgl/src/core/lv_obj_pos.c ****                     case LV_ALIGN_LEFT_MID:
1053:Drivers/lvgl/src/core/lv_obj_pos.c ****                         /*Normal left aligns.*/
1054:Drivers/lvgl/src/core/lv_obj_pos.c ****                         child_res = LV_MAX(child_res, child->coords.x2 - obj->coords.x1 + 1);
1055:Drivers/lvgl/src/core/lv_obj_pos.c ****                         break;
1056:Drivers/lvgl/src/core/lv_obj_pos.c ****                     default:
ARM GAS  /var/folders/0z/tsy30v1j4xl4_7kw94k978ww0000gn/T//cc4e96aK.s 			page 20


1057:Drivers/lvgl/src/core/lv_obj_pos.c ****                         /* Consider other cases only if x=0 and use the width of the object.
1058:Drivers/lvgl/src/core/lv_obj_pos.c ****                          * With x!=0 circular dependency could occur. */
1059:Drivers/lvgl/src/core/lv_obj_pos.c ****                         if(lv_obj_get_style_y(child, 0) == 0) {
1060:Drivers/lvgl/src/core/lv_obj_pos.c ****                             child_res = LV_MAX(child_res, lv_area_get_width(&child->coords) + pad_l
1061:Drivers/lvgl/src/core/lv_obj_pos.c ****                         }
1062:Drivers/lvgl/src/core/lv_obj_pos.c ****                 }
1063:Drivers/lvgl/src/core/lv_obj_pos.c ****             }
1064:Drivers/lvgl/src/core/lv_obj_pos.c ****             else {
1065:Drivers/lvgl/src/core/lv_obj_pos.c ****                 child_res = LV_MAX(child_res, child->coords.x2 - obj->coords.x1 + 1);
1066:Drivers/lvgl/src/core/lv_obj_pos.c ****             }
1067:Drivers/lvgl/src/core/lv_obj_pos.c ****         }
1068:Drivers/lvgl/src/core/lv_obj_pos.c **** 
1069:Drivers/lvgl/src/core/lv_obj_pos.c ****         if(child_res != LV_COORD_MIN) {
1070:Drivers/lvgl/src/core/lv_obj_pos.c ****             child_res += pad_right;
1071:Drivers/lvgl/src/core/lv_obj_pos.c ****         }
1072:Drivers/lvgl/src/core/lv_obj_pos.c ****     }
1073:Drivers/lvgl/src/core/lv_obj_pos.c **** 
1074:Drivers/lvgl/src/core/lv_obj_pos.c ****     if(child_res == LV_COORD_MIN) return self_w;
1075:Drivers/lvgl/src/core/lv_obj_pos.c ****     else return LV_MAX(child_res, self_w);
1076:Drivers/lvgl/src/core/lv_obj_pos.c **** }
1077:Drivers/lvgl/src/core/lv_obj_pos.c **** 
1078:Drivers/lvgl/src/core/lv_obj_pos.c **** static lv_coord_t calc_content_height(lv_obj_t * obj)
1079:Drivers/lvgl/src/core/lv_obj_pos.c **** {
1080:Drivers/lvgl/src/core/lv_obj_pos.c ****     lv_obj_scroll_to_y(obj, 0, LV_ANIM_OFF);
1081:Drivers/lvgl/src/core/lv_obj_pos.c **** 
1082:Drivers/lvgl/src/core/lv_obj_pos.c ****     lv_coord_t border_width = lv_obj_get_style_border_width(obj, LV_PART_MAIN);
1083:Drivers/lvgl/src/core/lv_obj_pos.c ****     lv_coord_t pad_top = lv_obj_get_style_pad_top(obj, LV_PART_MAIN) + border_width;
1084:Drivers/lvgl/src/core/lv_obj_pos.c ****     lv_coord_t pad_bottom = lv_obj_get_style_pad_bottom(obj, LV_PART_MAIN) + border_width;
1085:Drivers/lvgl/src/core/lv_obj_pos.c **** 
1086:Drivers/lvgl/src/core/lv_obj_pos.c ****     lv_coord_t self_h;
1087:Drivers/lvgl/src/core/lv_obj_pos.c ****     self_h = lv_obj_get_self_height(obj) + pad_top + pad_bottom;
1088:Drivers/lvgl/src/core/lv_obj_pos.c **** 
1089:Drivers/lvgl/src/core/lv_obj_pos.c ****     lv_coord_t child_res = LV_COORD_MIN;
1090:Drivers/lvgl/src/core/lv_obj_pos.c ****     uint32_t i;
1091:Drivers/lvgl/src/core/lv_obj_pos.c ****     uint32_t child_cnt = lv_obj_get_child_cnt(obj);
1092:Drivers/lvgl/src/core/lv_obj_pos.c ****     for(i = 0; i < child_cnt; i++) {
1093:Drivers/lvgl/src/core/lv_obj_pos.c ****         lv_obj_t * child = obj->spec_attr->children[i];
1094:Drivers/lvgl/src/core/lv_obj_pos.c ****         if(lv_obj_has_flag_any(child,  LV_OBJ_FLAG_HIDDEN | LV_OBJ_FLAG_FLOATING)) continue;
1095:Drivers/lvgl/src/core/lv_obj_pos.c **** 
1096:Drivers/lvgl/src/core/lv_obj_pos.c **** 
1097:Drivers/lvgl/src/core/lv_obj_pos.c ****         if(!lv_obj_is_layout_positioned(child)) {
1098:Drivers/lvgl/src/core/lv_obj_pos.c ****             lv_align_t align = lv_obj_get_style_align(child, 0);
1099:Drivers/lvgl/src/core/lv_obj_pos.c ****             switch(align) {
1100:Drivers/lvgl/src/core/lv_obj_pos.c ****                 case LV_ALIGN_DEFAULT:
1101:Drivers/lvgl/src/core/lv_obj_pos.c ****                 case LV_ALIGN_TOP_RIGHT:
1102:Drivers/lvgl/src/core/lv_obj_pos.c ****                 case LV_ALIGN_TOP_MID:
1103:Drivers/lvgl/src/core/lv_obj_pos.c ****                 case LV_ALIGN_TOP_LEFT:
1104:Drivers/lvgl/src/core/lv_obj_pos.c ****                     /*Normal top aligns. */
1105:Drivers/lvgl/src/core/lv_obj_pos.c ****                     child_res = LV_MAX(child_res, child->coords.y2 - obj->coords.y1 + 1);
1106:Drivers/lvgl/src/core/lv_obj_pos.c ****                     break;
1107:Drivers/lvgl/src/core/lv_obj_pos.c ****                 default:
1108:Drivers/lvgl/src/core/lv_obj_pos.c ****                     /* Consider other cases only if y=0 and use the height of the object.
1109:Drivers/lvgl/src/core/lv_obj_pos.c ****                      * With y!=0 circular dependency could occur. */
1110:Drivers/lvgl/src/core/lv_obj_pos.c ****                     if(lv_obj_get_style_y(child, 0) == 0) {
1111:Drivers/lvgl/src/core/lv_obj_pos.c ****                         child_res = LV_MAX(child_res, lv_area_get_height(&child->coords) + pad_top)
1112:Drivers/lvgl/src/core/lv_obj_pos.c ****                     }
1113:Drivers/lvgl/src/core/lv_obj_pos.c ****                     break;
ARM GAS  /var/folders/0z/tsy30v1j4xl4_7kw94k978ww0000gn/T//cc4e96aK.s 			page 21


1114:Drivers/lvgl/src/core/lv_obj_pos.c ****             }
1115:Drivers/lvgl/src/core/lv_obj_pos.c ****         }
1116:Drivers/lvgl/src/core/lv_obj_pos.c ****         else {
1117:Drivers/lvgl/src/core/lv_obj_pos.c ****             child_res = LV_MAX(child_res, child->coords.y2 - obj->coords.y1 + 1);
1118:Drivers/lvgl/src/core/lv_obj_pos.c ****         }
1119:Drivers/lvgl/src/core/lv_obj_pos.c ****     }
1120:Drivers/lvgl/src/core/lv_obj_pos.c **** 
1121:Drivers/lvgl/src/core/lv_obj_pos.c ****     if(child_res != LV_COORD_MIN) {
1122:Drivers/lvgl/src/core/lv_obj_pos.c ****         child_res += pad_bottom;
1123:Drivers/lvgl/src/core/lv_obj_pos.c ****         return LV_MAX(child_res, self_h);
1124:Drivers/lvgl/src/core/lv_obj_pos.c ****     }
1125:Drivers/lvgl/src/core/lv_obj_pos.c ****     else {
1126:Drivers/lvgl/src/core/lv_obj_pos.c ****         return self_h;
1127:Drivers/lvgl/src/core/lv_obj_pos.c ****     }
1128:Drivers/lvgl/src/core/lv_obj_pos.c **** 
1129:Drivers/lvgl/src/core/lv_obj_pos.c **** }
1130:Drivers/lvgl/src/core/lv_obj_pos.c **** 
1131:Drivers/lvgl/src/core/lv_obj_pos.c **** static void layout_update_core(lv_obj_t * obj)
1132:Drivers/lvgl/src/core/lv_obj_pos.c **** {
1133:Drivers/lvgl/src/core/lv_obj_pos.c ****     uint32_t i;
1134:Drivers/lvgl/src/core/lv_obj_pos.c ****     uint32_t child_cnt = lv_obj_get_child_cnt(obj);
1135:Drivers/lvgl/src/core/lv_obj_pos.c ****     for(i = 0; i < child_cnt; i++) {
1136:Drivers/lvgl/src/core/lv_obj_pos.c ****         lv_obj_t * child = obj->spec_attr->children[i];
1137:Drivers/lvgl/src/core/lv_obj_pos.c ****         layout_update_core(child);
1138:Drivers/lvgl/src/core/lv_obj_pos.c ****     }
1139:Drivers/lvgl/src/core/lv_obj_pos.c **** 
1140:Drivers/lvgl/src/core/lv_obj_pos.c ****     if(obj->layout_inv) {
1141:Drivers/lvgl/src/core/lv_obj_pos.c ****         obj->layout_inv = 0;
1142:Drivers/lvgl/src/core/lv_obj_pos.c ****         lv_obj_refr_size(obj);
1143:Drivers/lvgl/src/core/lv_obj_pos.c ****         lv_obj_refr_pos(obj);
1144:Drivers/lvgl/src/core/lv_obj_pos.c **** 
1145:Drivers/lvgl/src/core/lv_obj_pos.c ****         if(child_cnt > 0) {
1146:Drivers/lvgl/src/core/lv_obj_pos.c ****             uint32_t layout_id = lv_obj_get_style_layout(obj, LV_PART_MAIN);
1147:Drivers/lvgl/src/core/lv_obj_pos.c ****             if(layout_id > 0 && layout_id <= layout_cnt) {
1148:Drivers/lvgl/src/core/lv_obj_pos.c ****                 void  * user_data = LV_GC_ROOT(_lv_layout_list)[layout_id - 1].user_data;
1149:Drivers/lvgl/src/core/lv_obj_pos.c ****                 LV_GC_ROOT(_lv_layout_list)[layout_id - 1].cb(obj, user_data);
1150:Drivers/lvgl/src/core/lv_obj_pos.c ****             }
1151:Drivers/lvgl/src/core/lv_obj_pos.c ****         }
1152:Drivers/lvgl/src/core/lv_obj_pos.c ****     }
1153:Drivers/lvgl/src/core/lv_obj_pos.c **** 
1154:Drivers/lvgl/src/core/lv_obj_pos.c ****     if(obj->readjust_scroll_after_layout) {
1155:Drivers/lvgl/src/core/lv_obj_pos.c ****         obj->readjust_scroll_after_layout = 0;
1156:Drivers/lvgl/src/core/lv_obj_pos.c ****         lv_obj_readjust_scroll(obj, LV_ANIM_OFF);
1157:Drivers/lvgl/src/core/lv_obj_pos.c ****     }
1158:Drivers/lvgl/src/core/lv_obj_pos.c **** }
1159:Drivers/lvgl/src/core/lv_obj_pos.c **** 
1160:Drivers/lvgl/src/core/lv_obj_pos.c **** static void transform_point(const lv_obj_t * obj, lv_point_t * p, bool inv)
1161:Drivers/lvgl/src/core/lv_obj_pos.c **** {
  29              		.loc 1 1161 1 view -0
  30              		.cfi_startproc
  31              		@ args = 0, pretend = 0, frame = 8
  32              		@ frame_needed = 0, uses_anonymous_args = 0
  33              		.loc 1 1161 1 is_stmt 0 view .LVU1
  34 0000 2DE9F043 		push	{r4, r5, r6, r7, r8, r9, lr}
  35              		.cfi_def_cfa_offset 28
  36              		.cfi_offset 4, -28
  37              		.cfi_offset 5, -24
ARM GAS  /var/folders/0z/tsy30v1j4xl4_7kw94k978ww0000gn/T//cc4e96aK.s 			page 22


  38              		.cfi_offset 6, -20
  39              		.cfi_offset 7, -16
  40              		.cfi_offset 8, -12
  41              		.cfi_offset 9, -8
  42              		.cfi_offset 14, -4
  43 0004 83B0     		sub	sp, sp, #12
  44              		.cfi_def_cfa_offset 40
  45 0006 0446     		mov	r4, r0
  46 0008 0F46     		mov	r7, r1
  47 000a 9046     		mov	r8, r2
1162:Drivers/lvgl/src/core/lv_obj_pos.c ****     int16_t angle = lv_obj_get_style_transform_angle(obj, 0);
  48              		.loc 1 1162 5 is_stmt 1 view .LVU2
  49              	.LVL1:
  50              	.LBB203:
  51              	.LBI203:
  52              		.file 2 "Drivers/lvgl/src/core/lv_obj_style_gen.h"
   1:Drivers/lvgl/src/core/lv_obj_style_gen.h **** static inline lv_coord_t lv_obj_get_style_width(const struct _lv_obj_t * obj, uint32_t part)
   2:Drivers/lvgl/src/core/lv_obj_style_gen.h **** {
   3:Drivers/lvgl/src/core/lv_obj_style_gen.h ****     lv_style_value_t v = lv_obj_get_style_prop(obj, part, LV_STYLE_WIDTH);
   4:Drivers/lvgl/src/core/lv_obj_style_gen.h ****     return (lv_coord_t)v.num;
   5:Drivers/lvgl/src/core/lv_obj_style_gen.h **** }
   6:Drivers/lvgl/src/core/lv_obj_style_gen.h **** 
   7:Drivers/lvgl/src/core/lv_obj_style_gen.h **** static inline lv_coord_t lv_obj_get_style_min_width(const struct _lv_obj_t * obj, uint32_t part)
   8:Drivers/lvgl/src/core/lv_obj_style_gen.h **** {
   9:Drivers/lvgl/src/core/lv_obj_style_gen.h ****     lv_style_value_t v = lv_obj_get_style_prop(obj, part, LV_STYLE_MIN_WIDTH);
  10:Drivers/lvgl/src/core/lv_obj_style_gen.h ****     return (lv_coord_t)v.num;
  11:Drivers/lvgl/src/core/lv_obj_style_gen.h **** }
  12:Drivers/lvgl/src/core/lv_obj_style_gen.h **** 
  13:Drivers/lvgl/src/core/lv_obj_style_gen.h **** static inline lv_coord_t lv_obj_get_style_max_width(const struct _lv_obj_t * obj, uint32_t part)
  14:Drivers/lvgl/src/core/lv_obj_style_gen.h **** {
  15:Drivers/lvgl/src/core/lv_obj_style_gen.h ****     lv_style_value_t v = lv_obj_get_style_prop(obj, part, LV_STYLE_MAX_WIDTH);
  16:Drivers/lvgl/src/core/lv_obj_style_gen.h ****     return (lv_coord_t)v.num;
  17:Drivers/lvgl/src/core/lv_obj_style_gen.h **** }
  18:Drivers/lvgl/src/core/lv_obj_style_gen.h **** 
  19:Drivers/lvgl/src/core/lv_obj_style_gen.h **** static inline lv_coord_t lv_obj_get_style_height(const struct _lv_obj_t * obj, uint32_t part)
  20:Drivers/lvgl/src/core/lv_obj_style_gen.h **** {
  21:Drivers/lvgl/src/core/lv_obj_style_gen.h ****     lv_style_value_t v = lv_obj_get_style_prop(obj, part, LV_STYLE_HEIGHT);
  22:Drivers/lvgl/src/core/lv_obj_style_gen.h ****     return (lv_coord_t)v.num;
  23:Drivers/lvgl/src/core/lv_obj_style_gen.h **** }
  24:Drivers/lvgl/src/core/lv_obj_style_gen.h **** 
  25:Drivers/lvgl/src/core/lv_obj_style_gen.h **** static inline lv_coord_t lv_obj_get_style_min_height(const struct _lv_obj_t * obj, uint32_t part)
  26:Drivers/lvgl/src/core/lv_obj_style_gen.h **** {
  27:Drivers/lvgl/src/core/lv_obj_style_gen.h ****     lv_style_value_t v = lv_obj_get_style_prop(obj, part, LV_STYLE_MIN_HEIGHT);
  28:Drivers/lvgl/src/core/lv_obj_style_gen.h ****     return (lv_coord_t)v.num;
  29:Drivers/lvgl/src/core/lv_obj_style_gen.h **** }
  30:Drivers/lvgl/src/core/lv_obj_style_gen.h **** 
  31:Drivers/lvgl/src/core/lv_obj_style_gen.h **** static inline lv_coord_t lv_obj_get_style_max_height(const struct _lv_obj_t * obj, uint32_t part)
  32:Drivers/lvgl/src/core/lv_obj_style_gen.h **** {
  33:Drivers/lvgl/src/core/lv_obj_style_gen.h ****     lv_style_value_t v = lv_obj_get_style_prop(obj, part, LV_STYLE_MAX_HEIGHT);
  34:Drivers/lvgl/src/core/lv_obj_style_gen.h ****     return (lv_coord_t)v.num;
  35:Drivers/lvgl/src/core/lv_obj_style_gen.h **** }
  36:Drivers/lvgl/src/core/lv_obj_style_gen.h **** 
  37:Drivers/lvgl/src/core/lv_obj_style_gen.h **** static inline lv_coord_t lv_obj_get_style_x(const struct _lv_obj_t * obj, uint32_t part)
  38:Drivers/lvgl/src/core/lv_obj_style_gen.h **** {
  39:Drivers/lvgl/src/core/lv_obj_style_gen.h ****     lv_style_value_t v = lv_obj_get_style_prop(obj, part, LV_STYLE_X);
  40:Drivers/lvgl/src/core/lv_obj_style_gen.h ****     return (lv_coord_t)v.num;
  41:Drivers/lvgl/src/core/lv_obj_style_gen.h **** }
ARM GAS  /var/folders/0z/tsy30v1j4xl4_7kw94k978ww0000gn/T//cc4e96aK.s 			page 23


  42:Drivers/lvgl/src/core/lv_obj_style_gen.h **** 
  43:Drivers/lvgl/src/core/lv_obj_style_gen.h **** static inline lv_coord_t lv_obj_get_style_y(const struct _lv_obj_t * obj, uint32_t part)
  44:Drivers/lvgl/src/core/lv_obj_style_gen.h **** {
  45:Drivers/lvgl/src/core/lv_obj_style_gen.h ****     lv_style_value_t v = lv_obj_get_style_prop(obj, part, LV_STYLE_Y);
  46:Drivers/lvgl/src/core/lv_obj_style_gen.h ****     return (lv_coord_t)v.num;
  47:Drivers/lvgl/src/core/lv_obj_style_gen.h **** }
  48:Drivers/lvgl/src/core/lv_obj_style_gen.h **** 
  49:Drivers/lvgl/src/core/lv_obj_style_gen.h **** static inline lv_align_t lv_obj_get_style_align(const struct _lv_obj_t * obj, uint32_t part)
  50:Drivers/lvgl/src/core/lv_obj_style_gen.h **** {
  51:Drivers/lvgl/src/core/lv_obj_style_gen.h ****     lv_style_value_t v = lv_obj_get_style_prop(obj, part, LV_STYLE_ALIGN);
  52:Drivers/lvgl/src/core/lv_obj_style_gen.h ****     return (lv_align_t)v.num;
  53:Drivers/lvgl/src/core/lv_obj_style_gen.h **** }
  54:Drivers/lvgl/src/core/lv_obj_style_gen.h **** 
  55:Drivers/lvgl/src/core/lv_obj_style_gen.h **** static inline lv_coord_t lv_obj_get_style_transform_width(const struct _lv_obj_t * obj, uint32_t pa
  56:Drivers/lvgl/src/core/lv_obj_style_gen.h **** {
  57:Drivers/lvgl/src/core/lv_obj_style_gen.h ****     lv_style_value_t v = lv_obj_get_style_prop(obj, part, LV_STYLE_TRANSFORM_WIDTH);
  58:Drivers/lvgl/src/core/lv_obj_style_gen.h ****     return (lv_coord_t)v.num;
  59:Drivers/lvgl/src/core/lv_obj_style_gen.h **** }
  60:Drivers/lvgl/src/core/lv_obj_style_gen.h **** 
  61:Drivers/lvgl/src/core/lv_obj_style_gen.h **** static inline lv_coord_t lv_obj_get_style_transform_height(const struct _lv_obj_t * obj, uint32_t p
  62:Drivers/lvgl/src/core/lv_obj_style_gen.h **** {
  63:Drivers/lvgl/src/core/lv_obj_style_gen.h ****     lv_style_value_t v = lv_obj_get_style_prop(obj, part, LV_STYLE_TRANSFORM_HEIGHT);
  64:Drivers/lvgl/src/core/lv_obj_style_gen.h ****     return (lv_coord_t)v.num;
  65:Drivers/lvgl/src/core/lv_obj_style_gen.h **** }
  66:Drivers/lvgl/src/core/lv_obj_style_gen.h **** 
  67:Drivers/lvgl/src/core/lv_obj_style_gen.h **** static inline lv_coord_t lv_obj_get_style_translate_x(const struct _lv_obj_t * obj, uint32_t part)
  68:Drivers/lvgl/src/core/lv_obj_style_gen.h **** {
  69:Drivers/lvgl/src/core/lv_obj_style_gen.h ****     lv_style_value_t v = lv_obj_get_style_prop(obj, part, LV_STYLE_TRANSLATE_X);
  70:Drivers/lvgl/src/core/lv_obj_style_gen.h ****     return (lv_coord_t)v.num;
  71:Drivers/lvgl/src/core/lv_obj_style_gen.h **** }
  72:Drivers/lvgl/src/core/lv_obj_style_gen.h **** 
  73:Drivers/lvgl/src/core/lv_obj_style_gen.h **** static inline lv_coord_t lv_obj_get_style_translate_y(const struct _lv_obj_t * obj, uint32_t part)
  74:Drivers/lvgl/src/core/lv_obj_style_gen.h **** {
  75:Drivers/lvgl/src/core/lv_obj_style_gen.h ****     lv_style_value_t v = lv_obj_get_style_prop(obj, part, LV_STYLE_TRANSLATE_Y);
  76:Drivers/lvgl/src/core/lv_obj_style_gen.h ****     return (lv_coord_t)v.num;
  77:Drivers/lvgl/src/core/lv_obj_style_gen.h **** }
  78:Drivers/lvgl/src/core/lv_obj_style_gen.h **** 
  79:Drivers/lvgl/src/core/lv_obj_style_gen.h **** static inline lv_coord_t lv_obj_get_style_transform_zoom(const struct _lv_obj_t * obj, uint32_t par
  80:Drivers/lvgl/src/core/lv_obj_style_gen.h **** {
  81:Drivers/lvgl/src/core/lv_obj_style_gen.h ****     lv_style_value_t v = lv_obj_get_style_prop(obj, part, LV_STYLE_TRANSFORM_ZOOM);
  82:Drivers/lvgl/src/core/lv_obj_style_gen.h ****     return (lv_coord_t)v.num;
  83:Drivers/lvgl/src/core/lv_obj_style_gen.h **** }
  84:Drivers/lvgl/src/core/lv_obj_style_gen.h **** 
  85:Drivers/lvgl/src/core/lv_obj_style_gen.h **** static inline lv_coord_t lv_obj_get_style_transform_angle(const struct _lv_obj_t * obj, uint32_t pa
  53              		.loc 2 85 26 view .LVU3
  54              	.LBB204:
  86:Drivers/lvgl/src/core/lv_obj_style_gen.h **** {
  87:Drivers/lvgl/src/core/lv_obj_style_gen.h ****     lv_style_value_t v = lv_obj_get_style_prop(obj, part, LV_STYLE_TRANSFORM_ANGLE);
  55              		.loc 2 87 5 view .LVU4
  56              		.loc 2 87 26 is_stmt 0 view .LVU5
  57 000c 6E22     		movs	r2, #110
  58              	.LVL2:
  59              		.loc 2 87 26 view .LVU6
  60 000e 0021     		movs	r1, #0
  61              	.LVL3:
  62              		.loc 2 87 26 view .LVU7
  63 0010 FFF7FEFF 		bl	lv_obj_get_style_prop
ARM GAS  /var/folders/0z/tsy30v1j4xl4_7kw94k978ww0000gn/T//cc4e96aK.s 			page 24


  64              	.LVL4:
  65              		.loc 2 87 26 view .LVU8
  66 0014 0646     		mov	r6, r0
  88:Drivers/lvgl/src/core/lv_obj_style_gen.h ****     return (lv_coord_t)v.num;
  67              		.loc 2 88 5 is_stmt 1 view .LVU9
  68              		.loc 2 88 12 is_stmt 0 view .LVU10
  69 0016 0FFA80F9 		sxth	r9, r0
  70              	.LVL5:
  71              		.loc 2 88 12 view .LVU11
  72              	.LBE204:
  73              	.LBE203:
1163:Drivers/lvgl/src/core/lv_obj_pos.c ****     int16_t zoom = lv_obj_get_style_transform_zoom(obj, 0);
  74              		.loc 1 1163 5 is_stmt 1 view .LVU12
  75              	.LBB205:
  76              	.LBI205:
  79:Drivers/lvgl/src/core/lv_obj_style_gen.h **** {
  77              		.loc 2 79 26 view .LVU13
  78              	.LBB206:
  81:Drivers/lvgl/src/core/lv_obj_style_gen.h ****     return (lv_coord_t)v.num;
  79              		.loc 2 81 5 view .LVU14
  81:Drivers/lvgl/src/core/lv_obj_style_gen.h ****     return (lv_coord_t)v.num;
  80              		.loc 2 81 26 is_stmt 0 view .LVU15
  81 001a 6D22     		movs	r2, #109
  82 001c 0021     		movs	r1, #0
  83 001e 2046     		mov	r0, r4
  84 0020 FFF7FEFF 		bl	lv_obj_get_style_prop
  85              	.LVL6:
  82:Drivers/lvgl/src/core/lv_obj_style_gen.h **** }
  86              		.loc 2 82 5 is_stmt 1 view .LVU16
  82:Drivers/lvgl/src/core/lv_obj_style_gen.h **** }
  87              		.loc 2 82 12 is_stmt 0 view .LVU17
  88 0024 05B2     		sxth	r5, r0
  89              	.LVL7:
  82:Drivers/lvgl/src/core/lv_obj_style_gen.h **** }
  90              		.loc 2 82 12 view .LVU18
  91              	.LBE206:
  92              	.LBE205:
1164:Drivers/lvgl/src/core/lv_obj_pos.c **** 
1165:Drivers/lvgl/src/core/lv_obj_pos.c ****     if(angle == 0 && zoom == LV_IMG_ZOOM_NONE) return;
  93              		.loc 1 1165 5 is_stmt 1 view .LVU19
  94              		.loc 1 1165 7 is_stmt 0 view .LVU20
  95 0026 B9F1000F 		cmp	r9, #0
  96 002a 02D1     		bne	.L2
  97              		.loc 1 1165 19 discriminator 1 view .LVU21
  98 002c B5F5807F 		cmp	r5, #256
  99 0030 37D0     		beq	.L1
 100              	.L2:
1166:Drivers/lvgl/src/core/lv_obj_pos.c **** 
1167:Drivers/lvgl/src/core/lv_obj_pos.c ****     lv_point_t pivot = {
 101              		.loc 1 1167 5 is_stmt 1 view .LVU22
 102              	.LVL8:
 103              	.LBB207:
 104              	.LBI207:
  89:Drivers/lvgl/src/core/lv_obj_style_gen.h **** }
  90:Drivers/lvgl/src/core/lv_obj_style_gen.h **** 
  91:Drivers/lvgl/src/core/lv_obj_style_gen.h **** static inline lv_coord_t lv_obj_get_style_transform_pivot_x(const struct _lv_obj_t * obj, uint32_t 
 105              		.loc 2 91 26 view .LVU23
ARM GAS  /var/folders/0z/tsy30v1j4xl4_7kw94k978ww0000gn/T//cc4e96aK.s 			page 25


 106              	.LBB208:
  92:Drivers/lvgl/src/core/lv_obj_style_gen.h **** {
  93:Drivers/lvgl/src/core/lv_obj_style_gen.h ****     lv_style_value_t v = lv_obj_get_style_prop(obj, part, LV_STYLE_TRANSFORM_PIVOT_X);
 107              		.loc 2 93 5 view .LVU24
 108              		.loc 2 93 26 is_stmt 0 view .LVU25
 109 0032 6F22     		movs	r2, #111
 110 0034 0021     		movs	r1, #0
 111 0036 2046     		mov	r0, r4
 112 0038 FFF7FEFF 		bl	lv_obj_get_style_prop
 113              	.LVL9:
  94:Drivers/lvgl/src/core/lv_obj_style_gen.h ****     return (lv_coord_t)v.num;
 114              		.loc 2 94 5 is_stmt 1 view .LVU26
 115              		.loc 2 94 5 is_stmt 0 view .LVU27
 116              	.LBE208:
 117              	.LBE207:
 118              		.loc 1 1167 16 view .LVU28
 119 003c ADF80400 		strh	r0, [sp, #4]	@ movhi
 120              	.LVL10:
 121              	.LBB209:
 122              	.LBI209:
  95:Drivers/lvgl/src/core/lv_obj_style_gen.h **** }
  96:Drivers/lvgl/src/core/lv_obj_style_gen.h **** 
  97:Drivers/lvgl/src/core/lv_obj_style_gen.h **** static inline lv_coord_t lv_obj_get_style_transform_pivot_y(const struct _lv_obj_t * obj, uint32_t 
 123              		.loc 2 97 26 is_stmt 1 view .LVU29
 124              	.LBB210:
  98:Drivers/lvgl/src/core/lv_obj_style_gen.h **** {
  99:Drivers/lvgl/src/core/lv_obj_style_gen.h ****     lv_style_value_t v = lv_obj_get_style_prop(obj, part, LV_STYLE_TRANSFORM_PIVOT_Y);
 125              		.loc 2 99 5 view .LVU30
 126              		.loc 2 99 26 is_stmt 0 view .LVU31
 127 0040 7022     		movs	r2, #112
 128 0042 0021     		movs	r1, #0
 129 0044 2046     		mov	r0, r4
 130 0046 FFF7FEFF 		bl	lv_obj_get_style_prop
 131              	.LVL11:
 100:Drivers/lvgl/src/core/lv_obj_style_gen.h ****     return (lv_coord_t)v.num;
 132              		.loc 2 100 5 is_stmt 1 view .LVU32
 133              		.loc 2 100 12 is_stmt 0 view .LVU33
 134 004a 03B2     		sxth	r3, r0
 135              	.LVL12:
 136              		.loc 2 100 12 view .LVU34
 137              	.LBE210:
 138              	.LBE209:
 139              		.loc 1 1167 16 view .LVU35
 140 004c ADF80630 		strh	r3, [sp, #6]	@ movhi
1168:Drivers/lvgl/src/core/lv_obj_pos.c ****         .x = lv_obj_get_style_transform_pivot_x(obj, 0),
1169:Drivers/lvgl/src/core/lv_obj_pos.c ****         .y = lv_obj_get_style_transform_pivot_y(obj, 0)
1170:Drivers/lvgl/src/core/lv_obj_pos.c ****     };
1171:Drivers/lvgl/src/core/lv_obj_pos.c **** 
1172:Drivers/lvgl/src/core/lv_obj_pos.c ****     if(LV_COORD_IS_PCT(pivot.x)) {
 141              		.loc 1 1172 5 is_stmt 1 view .LVU36
 142              		.loc 1 1172 8 is_stmt 0 view .LVU37
 143 0050 BDF90420 		ldrsh	r2, [sp, #4]
 144              		.loc 1 1172 7 view .LVU38
 145 0054 02F4C041 		and	r1, r2, #24576
 146 0058 B1F5005F 		cmp	r1, #8192
 147 005c 24D0     		beq	.L12
 148              	.L4:
ARM GAS  /var/folders/0z/tsy30v1j4xl4_7kw94k978ww0000gn/T//cc4e96aK.s 			page 26


1173:Drivers/lvgl/src/core/lv_obj_pos.c ****         pivot.x = (LV_COORD_GET_PCT(pivot.x) * lv_area_get_width(&obj->coords)) / 100;
1174:Drivers/lvgl/src/core/lv_obj_pos.c ****     }
1175:Drivers/lvgl/src/core/lv_obj_pos.c ****     if(LV_COORD_IS_PCT(pivot.y)) {
 149              		.loc 1 1175 5 is_stmt 1 view .LVU39
 150              		.loc 1 1175 7 is_stmt 0 view .LVU40
 151 005e 03F4C042 		and	r2, r3, #24576
 152 0062 B2F5005F 		cmp	r2, #8192
 153 0066 3AD0     		beq	.L13
 154              	.L7:
1176:Drivers/lvgl/src/core/lv_obj_pos.c ****         pivot.y = (LV_COORD_GET_PCT(pivot.y) * lv_area_get_height(&obj->coords)) / 100;
1177:Drivers/lvgl/src/core/lv_obj_pos.c ****     }
1178:Drivers/lvgl/src/core/lv_obj_pos.c **** 
1179:Drivers/lvgl/src/core/lv_obj_pos.c ****     pivot.x = obj->coords.x1 + pivot.x;
 155              		.loc 1 1179 5 is_stmt 1 view .LVU41
 156              		.loc 1 1179 26 is_stmt 0 view .LVU42
 157 0068 A38A     		ldrh	r3, [r4, #20]
 158              		.loc 1 1179 37 view .LVU43
 159 006a BDF80420 		ldrh	r2, [sp, #4]
 160              		.loc 1 1179 30 view .LVU44
 161 006e 1344     		add	r3, r3, r2
 162              		.loc 1 1179 13 view .LVU45
 163 0070 ADF80430 		strh	r3, [sp, #4]	@ movhi
1180:Drivers/lvgl/src/core/lv_obj_pos.c ****     pivot.y = obj->coords.y1 + pivot.y;
 164              		.loc 1 1180 5 is_stmt 1 view .LVU46
 165              		.loc 1 1180 26 is_stmt 0 view .LVU47
 166 0074 E38A     		ldrh	r3, [r4, #22]
 167              		.loc 1 1180 37 view .LVU48
 168 0076 BDF80620 		ldrh	r2, [sp, #6]
 169              		.loc 1 1180 30 view .LVU49
 170 007a 1344     		add	r3, r3, r2
 171              		.loc 1 1180 13 view .LVU50
 172 007c ADF80630 		strh	r3, [sp, #6]	@ movhi
1181:Drivers/lvgl/src/core/lv_obj_pos.c **** 
1182:Drivers/lvgl/src/core/lv_obj_pos.c ****     if(inv) {
 173              		.loc 1 1182 5 is_stmt 1 view .LVU51
 174              		.loc 1 1182 7 is_stmt 0 view .LVU52
 175 0080 B8F1000F 		cmp	r8, #0
 176 0084 07D0     		beq	.L10
1183:Drivers/lvgl/src/core/lv_obj_pos.c ****         angle = -angle;
 177              		.loc 1 1183 9 is_stmt 1 view .LVU53
 178              		.loc 1 1183 15 is_stmt 0 view .LVU54
 179 0086 7642     		rsbs	r6, r6, #0
 180 0088 0FFA86F9 		sxth	r9, r6
 181              	.LVL13:
1184:Drivers/lvgl/src/core/lv_obj_pos.c ****         zoom = (256 * 256) / zoom;
 182              		.loc 1 1184 9 is_stmt 1 view .LVU55
 183              		.loc 1 1184 28 is_stmt 0 view .LVU56
 184 008c 4FF48033 		mov	r3, #65536
 185 0090 93FBF5F3 		sdiv	r3, r3, r5
 186              		.loc 1 1184 14 view .LVU57
 187 0094 1DB2     		sxth	r5, r3
 188              	.LVL14:
 189              	.L10:
1185:Drivers/lvgl/src/core/lv_obj_pos.c ****     }
1186:Drivers/lvgl/src/core/lv_obj_pos.c **** 
1187:Drivers/lvgl/src/core/lv_obj_pos.c ****     lv_point_transform(p, angle, zoom, &pivot);
 190              		.loc 1 1187 5 is_stmt 1 view .LVU58
ARM GAS  /var/folders/0z/tsy30v1j4xl4_7kw94k978ww0000gn/T//cc4e96aK.s 			page 27


 191 0096 01AB     		add	r3, sp, #4
 192 0098 2A46     		mov	r2, r5
 193 009a 4946     		mov	r1, r9
 194 009c 3846     		mov	r0, r7
 195 009e FFF7FEFF 		bl	lv_point_transform
 196              	.LVL15:
 197              	.L1:
1188:Drivers/lvgl/src/core/lv_obj_pos.c **** }
 198              		.loc 1 1188 1 is_stmt 0 view .LVU59
 199 00a2 03B0     		add	sp, sp, #12
 200              		.cfi_remember_state
 201              		.cfi_def_cfa_offset 28
 202              		@ sp needed
 203 00a4 BDE8F083 		pop	{r4, r5, r6, r7, r8, r9, pc}
 204              	.LVL16:
 205              	.L12:
 206              		.cfi_restore_state
1172:Drivers/lvgl/src/core/lv_obj_pos.c ****         pivot.x = (LV_COORD_GET_PCT(pivot.x) * lv_area_get_width(&obj->coords)) / 100;
 207              		.loc 1 1172 8 discriminator 1 view .LVU60
 208 00a8 22F4C042 		bic	r2, r2, #24576
 209 00ac B2F5FA6F 		cmp	r2, #2000
 210 00b0 D5DC     		bgt	.L4
1173:Drivers/lvgl/src/core/lv_obj_pos.c ****     }
 211              		.loc 1 1173 9 is_stmt 1 view .LVU61
1173:Drivers/lvgl/src/core/lv_obj_pos.c ****     }
 212              		.loc 1 1173 20 is_stmt 0 view .LVU62
 213 00b2 B2F57A7F 		cmp	r2, #1000
 214 00b6 01DD     		ble	.L6
1173:Drivers/lvgl/src/core/lv_obj_pos.c ****     }
 215              		.loc 1 1173 20 discriminator 1 view .LVU63
 216 00b8 C2F57A72 		rsb	r2, r2, #1000
 217              	.L6:
 218              	.LVL17:
 219              	.LBB211:
 220              	.LBI211:
 221              		.file 3 "Drivers/lvgl/src/core/../misc/../font/../misc/lv_area.h"
   1:Drivers/lvgl/src/core/../misc/../font/../misc/lv_area.h **** /**
   2:Drivers/lvgl/src/core/../misc/../font/../misc/lv_area.h ****  * @file lv_area.h
   3:Drivers/lvgl/src/core/../misc/../font/../misc/lv_area.h ****  *
   4:Drivers/lvgl/src/core/../misc/../font/../misc/lv_area.h ****  */
   5:Drivers/lvgl/src/core/../misc/../font/../misc/lv_area.h **** 
   6:Drivers/lvgl/src/core/../misc/../font/../misc/lv_area.h **** #ifndef LV_AREA_H
   7:Drivers/lvgl/src/core/../misc/../font/../misc/lv_area.h **** #define LV_AREA_H
   8:Drivers/lvgl/src/core/../misc/../font/../misc/lv_area.h **** 
   9:Drivers/lvgl/src/core/../misc/../font/../misc/lv_area.h **** #ifdef __cplusplus
  10:Drivers/lvgl/src/core/../misc/../font/../misc/lv_area.h **** extern "C" {
  11:Drivers/lvgl/src/core/../misc/../font/../misc/lv_area.h **** #endif
  12:Drivers/lvgl/src/core/../misc/../font/../misc/lv_area.h **** 
  13:Drivers/lvgl/src/core/../misc/../font/../misc/lv_area.h **** /*********************
  14:Drivers/lvgl/src/core/../misc/../font/../misc/lv_area.h ****  *      INCLUDES
  15:Drivers/lvgl/src/core/../misc/../font/../misc/lv_area.h ****  *********************/
  16:Drivers/lvgl/src/core/../misc/../font/../misc/lv_area.h **** #include "../lv_conf_internal.h"
  17:Drivers/lvgl/src/core/../misc/../font/../misc/lv_area.h **** #include <stdbool.h>
  18:Drivers/lvgl/src/core/../misc/../font/../misc/lv_area.h **** #include <stdint.h>
  19:Drivers/lvgl/src/core/../misc/../font/../misc/lv_area.h **** 
  20:Drivers/lvgl/src/core/../misc/../font/../misc/lv_area.h **** /*********************
  21:Drivers/lvgl/src/core/../misc/../font/../misc/lv_area.h ****  *      DEFINES
ARM GAS  /var/folders/0z/tsy30v1j4xl4_7kw94k978ww0000gn/T//cc4e96aK.s 			page 28


  22:Drivers/lvgl/src/core/../misc/../font/../misc/lv_area.h ****  *********************/
  23:Drivers/lvgl/src/core/../misc/../font/../misc/lv_area.h **** 
  24:Drivers/lvgl/src/core/../misc/../font/../misc/lv_area.h **** #if LV_USE_LARGE_COORD
  25:Drivers/lvgl/src/core/../misc/../font/../misc/lv_area.h **** typedef int32_t lv_coord_t;
  26:Drivers/lvgl/src/core/../misc/../font/../misc/lv_area.h **** #else
  27:Drivers/lvgl/src/core/../misc/../font/../misc/lv_area.h **** typedef int16_t lv_coord_t;
  28:Drivers/lvgl/src/core/../misc/../font/../misc/lv_area.h **** #endif
  29:Drivers/lvgl/src/core/../misc/../font/../misc/lv_area.h **** 
  30:Drivers/lvgl/src/core/../misc/../font/../misc/lv_area.h **** /**********************
  31:Drivers/lvgl/src/core/../misc/../font/../misc/lv_area.h ****  *      TYPEDEFS
  32:Drivers/lvgl/src/core/../misc/../font/../misc/lv_area.h ****  **********************/
  33:Drivers/lvgl/src/core/../misc/../font/../misc/lv_area.h **** 
  34:Drivers/lvgl/src/core/../misc/../font/../misc/lv_area.h **** /**
  35:Drivers/lvgl/src/core/../misc/../font/../misc/lv_area.h ****  * Represents a point on the screen.
  36:Drivers/lvgl/src/core/../misc/../font/../misc/lv_area.h ****  */
  37:Drivers/lvgl/src/core/../misc/../font/../misc/lv_area.h **** typedef struct {
  38:Drivers/lvgl/src/core/../misc/../font/../misc/lv_area.h ****     lv_coord_t x;
  39:Drivers/lvgl/src/core/../misc/../font/../misc/lv_area.h ****     lv_coord_t y;
  40:Drivers/lvgl/src/core/../misc/../font/../misc/lv_area.h **** } lv_point_t;
  41:Drivers/lvgl/src/core/../misc/../font/../misc/lv_area.h **** 
  42:Drivers/lvgl/src/core/../misc/../font/../misc/lv_area.h **** /** Represents an area of the screen.*/
  43:Drivers/lvgl/src/core/../misc/../font/../misc/lv_area.h **** typedef struct {
  44:Drivers/lvgl/src/core/../misc/../font/../misc/lv_area.h ****     lv_coord_t x1;
  45:Drivers/lvgl/src/core/../misc/../font/../misc/lv_area.h ****     lv_coord_t y1;
  46:Drivers/lvgl/src/core/../misc/../font/../misc/lv_area.h ****     lv_coord_t x2;
  47:Drivers/lvgl/src/core/../misc/../font/../misc/lv_area.h ****     lv_coord_t y2;
  48:Drivers/lvgl/src/core/../misc/../font/../misc/lv_area.h **** } lv_area_t;
  49:Drivers/lvgl/src/core/../misc/../font/../misc/lv_area.h **** 
  50:Drivers/lvgl/src/core/../misc/../font/../misc/lv_area.h **** /** Alignments*/
  51:Drivers/lvgl/src/core/../misc/../font/../misc/lv_area.h **** enum {
  52:Drivers/lvgl/src/core/../misc/../font/../misc/lv_area.h ****     LV_ALIGN_DEFAULT = 0,
  53:Drivers/lvgl/src/core/../misc/../font/../misc/lv_area.h ****     LV_ALIGN_TOP_LEFT,
  54:Drivers/lvgl/src/core/../misc/../font/../misc/lv_area.h ****     LV_ALIGN_TOP_MID,
  55:Drivers/lvgl/src/core/../misc/../font/../misc/lv_area.h ****     LV_ALIGN_TOP_RIGHT,
  56:Drivers/lvgl/src/core/../misc/../font/../misc/lv_area.h ****     LV_ALIGN_BOTTOM_LEFT,
  57:Drivers/lvgl/src/core/../misc/../font/../misc/lv_area.h ****     LV_ALIGN_BOTTOM_MID,
  58:Drivers/lvgl/src/core/../misc/../font/../misc/lv_area.h ****     LV_ALIGN_BOTTOM_RIGHT,
  59:Drivers/lvgl/src/core/../misc/../font/../misc/lv_area.h ****     LV_ALIGN_LEFT_MID,
  60:Drivers/lvgl/src/core/../misc/../font/../misc/lv_area.h ****     LV_ALIGN_RIGHT_MID,
  61:Drivers/lvgl/src/core/../misc/../font/../misc/lv_area.h ****     LV_ALIGN_CENTER,
  62:Drivers/lvgl/src/core/../misc/../font/../misc/lv_area.h **** 
  63:Drivers/lvgl/src/core/../misc/../font/../misc/lv_area.h ****     LV_ALIGN_OUT_TOP_LEFT,
  64:Drivers/lvgl/src/core/../misc/../font/../misc/lv_area.h ****     LV_ALIGN_OUT_TOP_MID,
  65:Drivers/lvgl/src/core/../misc/../font/../misc/lv_area.h ****     LV_ALIGN_OUT_TOP_RIGHT,
  66:Drivers/lvgl/src/core/../misc/../font/../misc/lv_area.h ****     LV_ALIGN_OUT_BOTTOM_LEFT,
  67:Drivers/lvgl/src/core/../misc/../font/../misc/lv_area.h ****     LV_ALIGN_OUT_BOTTOM_MID,
  68:Drivers/lvgl/src/core/../misc/../font/../misc/lv_area.h ****     LV_ALIGN_OUT_BOTTOM_RIGHT,
  69:Drivers/lvgl/src/core/../misc/../font/../misc/lv_area.h ****     LV_ALIGN_OUT_LEFT_TOP,
  70:Drivers/lvgl/src/core/../misc/../font/../misc/lv_area.h ****     LV_ALIGN_OUT_LEFT_MID,
  71:Drivers/lvgl/src/core/../misc/../font/../misc/lv_area.h ****     LV_ALIGN_OUT_LEFT_BOTTOM,
  72:Drivers/lvgl/src/core/../misc/../font/../misc/lv_area.h ****     LV_ALIGN_OUT_RIGHT_TOP,
  73:Drivers/lvgl/src/core/../misc/../font/../misc/lv_area.h ****     LV_ALIGN_OUT_RIGHT_MID,
  74:Drivers/lvgl/src/core/../misc/../font/../misc/lv_area.h ****     LV_ALIGN_OUT_RIGHT_BOTTOM,
  75:Drivers/lvgl/src/core/../misc/../font/../misc/lv_area.h **** };
  76:Drivers/lvgl/src/core/../misc/../font/../misc/lv_area.h **** typedef uint8_t lv_align_t;
  77:Drivers/lvgl/src/core/../misc/../font/../misc/lv_area.h **** 
  78:Drivers/lvgl/src/core/../misc/../font/../misc/lv_area.h **** enum {
ARM GAS  /var/folders/0z/tsy30v1j4xl4_7kw94k978ww0000gn/T//cc4e96aK.s 			page 29


  79:Drivers/lvgl/src/core/../misc/../font/../misc/lv_area.h ****     LV_DIR_NONE     = 0x00,
  80:Drivers/lvgl/src/core/../misc/../font/../misc/lv_area.h ****     LV_DIR_LEFT     = (1 << 0),
  81:Drivers/lvgl/src/core/../misc/../font/../misc/lv_area.h ****     LV_DIR_RIGHT    = (1 << 1),
  82:Drivers/lvgl/src/core/../misc/../font/../misc/lv_area.h ****     LV_DIR_TOP      = (1 << 2),
  83:Drivers/lvgl/src/core/../misc/../font/../misc/lv_area.h ****     LV_DIR_BOTTOM   = (1 << 3),
  84:Drivers/lvgl/src/core/../misc/../font/../misc/lv_area.h ****     LV_DIR_HOR      = LV_DIR_LEFT | LV_DIR_RIGHT,
  85:Drivers/lvgl/src/core/../misc/../font/../misc/lv_area.h ****     LV_DIR_VER      = LV_DIR_TOP | LV_DIR_BOTTOM,
  86:Drivers/lvgl/src/core/../misc/../font/../misc/lv_area.h ****     LV_DIR_ALL      = LV_DIR_HOR | LV_DIR_VER,
  87:Drivers/lvgl/src/core/../misc/../font/../misc/lv_area.h **** };
  88:Drivers/lvgl/src/core/../misc/../font/../misc/lv_area.h **** 
  89:Drivers/lvgl/src/core/../misc/../font/../misc/lv_area.h **** typedef uint8_t lv_dir_t;
  90:Drivers/lvgl/src/core/../misc/../font/../misc/lv_area.h **** 
  91:Drivers/lvgl/src/core/../misc/../font/../misc/lv_area.h **** /**********************
  92:Drivers/lvgl/src/core/../misc/../font/../misc/lv_area.h ****  * GLOBAL PROTOTYPES
  93:Drivers/lvgl/src/core/../misc/../font/../misc/lv_area.h ****  **********************/
  94:Drivers/lvgl/src/core/../misc/../font/../misc/lv_area.h **** 
  95:Drivers/lvgl/src/core/../misc/../font/../misc/lv_area.h **** /**
  96:Drivers/lvgl/src/core/../misc/../font/../misc/lv_area.h ****  * Initialize an area
  97:Drivers/lvgl/src/core/../misc/../font/../misc/lv_area.h ****  * @param area_p pointer to an area
  98:Drivers/lvgl/src/core/../misc/../font/../misc/lv_area.h ****  * @param x1 left coordinate of the area
  99:Drivers/lvgl/src/core/../misc/../font/../misc/lv_area.h ****  * @param y1 top coordinate of the area
 100:Drivers/lvgl/src/core/../misc/../font/../misc/lv_area.h ****  * @param x2 right coordinate of the area
 101:Drivers/lvgl/src/core/../misc/../font/../misc/lv_area.h ****  * @param y2 bottom coordinate of the area
 102:Drivers/lvgl/src/core/../misc/../font/../misc/lv_area.h ****  */
 103:Drivers/lvgl/src/core/../misc/../font/../misc/lv_area.h **** void lv_area_set(lv_area_t * area_p, lv_coord_t x1, lv_coord_t y1, lv_coord_t x2, lv_coord_t y2);
 104:Drivers/lvgl/src/core/../misc/../font/../misc/lv_area.h **** 
 105:Drivers/lvgl/src/core/../misc/../font/../misc/lv_area.h **** /**
 106:Drivers/lvgl/src/core/../misc/../font/../misc/lv_area.h ****  * Copy an area
 107:Drivers/lvgl/src/core/../misc/../font/../misc/lv_area.h ****  * @param dest pointer to the destination area
 108:Drivers/lvgl/src/core/../misc/../font/../misc/lv_area.h ****  * @param src pointer to the source area
 109:Drivers/lvgl/src/core/../misc/../font/../misc/lv_area.h ****  */
 110:Drivers/lvgl/src/core/../misc/../font/../misc/lv_area.h **** inline static void lv_area_copy(lv_area_t * dest, const lv_area_t * src)
 111:Drivers/lvgl/src/core/../misc/../font/../misc/lv_area.h **** {
 112:Drivers/lvgl/src/core/../misc/../font/../misc/lv_area.h ****     dest->x1 = src->x1;
 113:Drivers/lvgl/src/core/../misc/../font/../misc/lv_area.h ****     dest->y1 = src->y1;
 114:Drivers/lvgl/src/core/../misc/../font/../misc/lv_area.h ****     dest->x2 = src->x2;
 115:Drivers/lvgl/src/core/../misc/../font/../misc/lv_area.h ****     dest->y2 = src->y2;
 116:Drivers/lvgl/src/core/../misc/../font/../misc/lv_area.h **** }
 117:Drivers/lvgl/src/core/../misc/../font/../misc/lv_area.h **** 
 118:Drivers/lvgl/src/core/../misc/../font/../misc/lv_area.h **** /**
 119:Drivers/lvgl/src/core/../misc/../font/../misc/lv_area.h ****  * Get the width of an area
 120:Drivers/lvgl/src/core/../misc/../font/../misc/lv_area.h ****  * @param area_p pointer to an area
 121:Drivers/lvgl/src/core/../misc/../font/../misc/lv_area.h ****  * @return the width of the area (if x1 == x2 -> width = 1)
 122:Drivers/lvgl/src/core/../misc/../font/../misc/lv_area.h ****  */
 123:Drivers/lvgl/src/core/../misc/../font/../misc/lv_area.h **** static inline lv_coord_t lv_area_get_width(const lv_area_t * area_p)
 222              		.loc 3 123 26 is_stmt 1 discriminator 4 view .LVU64
 223              	.LBB212:
 124:Drivers/lvgl/src/core/../misc/../font/../misc/lv_area.h **** {
 125:Drivers/lvgl/src/core/../misc/../font/../misc/lv_area.h ****     return (lv_coord_t)(area_p->x2 - area_p->x1 + 1);
 224              		.loc 3 125 5 discriminator 4 view .LVU65
 225              		.loc 3 125 31 is_stmt 0 discriminator 4 view .LVU66
 226 00bc 218B     		ldrh	r1, [r4, #24]
 227              		.loc 3 125 44 discriminator 4 view .LVU67
 228 00be A08A     		ldrh	r0, [r4, #20]
 229              		.loc 3 125 36 discriminator 4 view .LVU68
 230 00c0 091A     		subs	r1, r1, r0
 231 00c2 89B2     		uxth	r1, r1
ARM GAS  /var/folders/0z/tsy30v1j4xl4_7kw94k978ww0000gn/T//cc4e96aK.s 			page 30


 232              		.loc 3 125 49 discriminator 4 view .LVU69
 233 00c4 0131     		adds	r1, r1, #1
 234              		.loc 3 125 12 discriminator 4 view .LVU70
 235 00c6 09B2     		sxth	r1, r1
 236              	.LVL18:
 237              		.loc 3 125 12 discriminator 4 view .LVU71
 238              	.LBE212:
 239              	.LBE211:
1173:Drivers/lvgl/src/core/lv_obj_pos.c ****     }
 240              		.loc 1 1173 46 discriminator 4 view .LVU72
 241 00c8 01FB02F2 		mul	r2, r1, r2
1173:Drivers/lvgl/src/core/lv_obj_pos.c ****     }
 242              		.loc 1 1173 81 discriminator 4 view .LVU73
 243 00cc 1149     		ldr	r1, .L14
 244 00ce 81FB0201 		smull	r0, r1, r1, r2
 245 00d2 D217     		asrs	r2, r2, #31
 246 00d4 C2EB6112 		rsb	r2, r2, r1, asr #5
1173:Drivers/lvgl/src/core/lv_obj_pos.c ****     }
 247              		.loc 1 1173 17 discriminator 4 view .LVU74
 248 00d8 ADF80420 		strh	r2, [sp, #4]	@ movhi
 249 00dc BFE7     		b	.L4
 250              	.L13:
1175:Drivers/lvgl/src/core/lv_obj_pos.c ****         pivot.y = (LV_COORD_GET_PCT(pivot.y) * lv_area_get_height(&obj->coords)) / 100;
 251              		.loc 1 1175 8 discriminator 1 view .LVU75
 252 00de 23F4C043 		bic	r3, r3, #24576
 253 00e2 B3F5FA6F 		cmp	r3, #2000
 254 00e6 BFDC     		bgt	.L7
1176:Drivers/lvgl/src/core/lv_obj_pos.c ****     }
 255              		.loc 1 1176 9 is_stmt 1 view .LVU76
1176:Drivers/lvgl/src/core/lv_obj_pos.c ****     }
 256              		.loc 1 1176 20 is_stmt 0 view .LVU77
 257 00e8 B3F57A7F 		cmp	r3, #1000
 258 00ec 01DD     		ble	.L9
1176:Drivers/lvgl/src/core/lv_obj_pos.c ****     }
 259              		.loc 1 1176 20 discriminator 1 view .LVU78
 260 00ee C3F57A73 		rsb	r3, r3, #1000
 261              	.L9:
 262              	.LVL19:
 263              	.LBB213:
 264              	.LBI213:
 126:Drivers/lvgl/src/core/../misc/../font/../misc/lv_area.h **** }
 127:Drivers/lvgl/src/core/../misc/../font/../misc/lv_area.h **** 
 128:Drivers/lvgl/src/core/../misc/../font/../misc/lv_area.h **** /**
 129:Drivers/lvgl/src/core/../misc/../font/../misc/lv_area.h ****  * Get the height of an area
 130:Drivers/lvgl/src/core/../misc/../font/../misc/lv_area.h ****  * @param area_p pointer to an area
 131:Drivers/lvgl/src/core/../misc/../font/../misc/lv_area.h ****  * @return the height of the area (if y1 == y2 -> height = 1)
 132:Drivers/lvgl/src/core/../misc/../font/../misc/lv_area.h ****  */
 133:Drivers/lvgl/src/core/../misc/../font/../misc/lv_area.h **** static inline lv_coord_t lv_area_get_height(const lv_area_t * area_p)
 265              		.loc 3 133 26 is_stmt 1 discriminator 4 view .LVU79
 266              	.LBB214:
 134:Drivers/lvgl/src/core/../misc/../font/../misc/lv_area.h **** {
 135:Drivers/lvgl/src/core/../misc/../font/../misc/lv_area.h ****     return (lv_coord_t)(area_p->y2 - area_p->y1 + 1);
 267              		.loc 3 135 5 discriminator 4 view .LVU80
 268              		.loc 3 135 31 is_stmt 0 discriminator 4 view .LVU81
 269 00f2 628B     		ldrh	r2, [r4, #26]
 270              		.loc 3 135 44 discriminator 4 view .LVU82
 271 00f4 E18A     		ldrh	r1, [r4, #22]
ARM GAS  /var/folders/0z/tsy30v1j4xl4_7kw94k978ww0000gn/T//cc4e96aK.s 			page 31


 272              		.loc 3 135 36 discriminator 4 view .LVU83
 273 00f6 521A     		subs	r2, r2, r1
 274 00f8 92B2     		uxth	r2, r2
 275              		.loc 3 135 49 discriminator 4 view .LVU84
 276 00fa 0132     		adds	r2, r2, #1
 277              		.loc 3 135 12 discriminator 4 view .LVU85
 278 00fc 12B2     		sxth	r2, r2
 279              	.LVL20:
 280              		.loc 3 135 12 discriminator 4 view .LVU86
 281              	.LBE214:
 282              	.LBE213:
1176:Drivers/lvgl/src/core/lv_obj_pos.c ****     }
 283              		.loc 1 1176 46 discriminator 4 view .LVU87
 284 00fe 02FB03F3 		mul	r3, r2, r3
1176:Drivers/lvgl/src/core/lv_obj_pos.c ****     }
 285              		.loc 1 1176 82 discriminator 4 view .LVU88
 286 0102 044A     		ldr	r2, .L14
 287 0104 82FB0312 		smull	r1, r2, r2, r3
 288 0108 DB17     		asrs	r3, r3, #31
 289 010a C3EB6213 		rsb	r3, r3, r2, asr #5
1176:Drivers/lvgl/src/core/lv_obj_pos.c ****     }
 290              		.loc 1 1176 17 discriminator 4 view .LVU89
 291 010e ADF80630 		strh	r3, [sp, #6]	@ movhi
 292 0112 A9E7     		b	.L7
 293              	.L15:
 294              		.align	2
 295              	.L14:
 296 0114 1F85EB51 		.word	1374389535
 297              		.cfi_endproc
 298              	.LFE216:
 300              		.section	.text.lv_obj_set_x,"ax",%progbits
 301              		.align	1
 302              		.global	lv_obj_set_x
 303              		.syntax unified
 304              		.thumb
 305              		.thumb_func
 307              	lv_obj_set_x:
 308              	.LVL21:
 309              	.LFB168:
  53:Drivers/lvgl/src/core/lv_obj_pos.c ****     LV_ASSERT_OBJ(obj, MY_CLASS);
 310              		.loc 1 53 1 is_stmt 1 view -0
 311              		.cfi_startproc
 312              		@ args = 0, pretend = 0, frame = 8
 313              		@ frame_needed = 0, uses_anonymous_args = 0
  53:Drivers/lvgl/src/core/lv_obj_pos.c ****     LV_ASSERT_OBJ(obj, MY_CLASS);
 314              		.loc 1 53 1 is_stmt 0 view .LVU91
 315 0000 30B5     		push	{r4, r5, lr}
 316              		.cfi_def_cfa_offset 12
 317              		.cfi_offset 4, -12
 318              		.cfi_offset 5, -8
 319              		.cfi_offset 14, -4
 320 0002 83B0     		sub	sp, sp, #12
 321              		.cfi_def_cfa_offset 24
 322 0004 0546     		mov	r5, r0
 323 0006 0C46     		mov	r4, r1
  54:Drivers/lvgl/src/core/lv_obj_pos.c **** 
 324              		.loc 1 54 5 is_stmt 1 view .LVU92
ARM GAS  /var/folders/0z/tsy30v1j4xl4_7kw94k978ww0000gn/T//cc4e96aK.s 			page 32


  54:Drivers/lvgl/src/core/lv_obj_pos.c **** 
 325              		.loc 1 54 5 view .LVU93
  54:Drivers/lvgl/src/core/lv_obj_pos.c **** 
 326              		.loc 1 54 5 view .LVU94
  56:Drivers/lvgl/src/core/lv_obj_pos.c ****     lv_style_value_t v_x;
 327              		.loc 1 56 5 view .LVU95
  57:Drivers/lvgl/src/core/lv_obj_pos.c **** 
 328              		.loc 1 57 5 view .LVU96
  59:Drivers/lvgl/src/core/lv_obj_pos.c **** 
 329              		.loc 1 59 5 view .LVU97
  59:Drivers/lvgl/src/core/lv_obj_pos.c **** 
 330              		.loc 1 59 13 is_stmt 0 view .LVU98
 331 0008 0023     		movs	r3, #0
 332 000a 01AA     		add	r2, sp, #4
 333 000c 0721     		movs	r1, #7
 334              	.LVL22:
  59:Drivers/lvgl/src/core/lv_obj_pos.c **** 
 335              		.loc 1 59 13 view .LVU99
 336 000e FFF7FEFF 		bl	lv_obj_get_local_style_prop
 337              	.LVL23:
  61:Drivers/lvgl/src/core/lv_obj_pos.c ****         lv_obj_set_style_x(obj, x, 0);
 338              		.loc 1 61 5 is_stmt 1 view .LVU100
  61:Drivers/lvgl/src/core/lv_obj_pos.c ****         lv_obj_set_style_x(obj, x, 0);
 339              		.loc 1 61 7 is_stmt 0 view .LVU101
 340 0012 0128     		cmp	r0, #1
 341 0014 07D0     		beq	.L21
 342              	.L17:
  61:Drivers/lvgl/src/core/lv_obj_pos.c ****         lv_obj_set_style_x(obj, x, 0);
 343              		.loc 1 61 45 discriminator 3 view .LVU102
 344 0016 20B9     		cbnz	r0, .L16
 345              	.L18:
  62:Drivers/lvgl/src/core/lv_obj_pos.c ****     }
 346              		.loc 1 62 9 is_stmt 1 view .LVU103
 347 0018 0022     		movs	r2, #0
 348 001a 2146     		mov	r1, r4
 349 001c 2846     		mov	r0, r5
 350              	.LVL24:
  62:Drivers/lvgl/src/core/lv_obj_pos.c ****     }
 351              		.loc 1 62 9 is_stmt 0 view .LVU104
 352 001e FFF7FEFF 		bl	lv_obj_set_style_x
 353              	.LVL25:
 354              	.L16:
  64:Drivers/lvgl/src/core/lv_obj_pos.c **** 
 355              		.loc 1 64 1 view .LVU105
 356 0022 03B0     		add	sp, sp, #12
 357              		.cfi_remember_state
 358              		.cfi_def_cfa_offset 12
 359              		@ sp needed
 360 0024 30BD     		pop	{r4, r5, pc}
 361              	.LVL26:
 362              	.L21:
 363              		.cfi_restore_state
  61:Drivers/lvgl/src/core/lv_obj_pos.c ****         lv_obj_set_style_x(obj, x, 0);
 364              		.loc 1 61 34 discriminator 1 view .LVU106
 365 0026 019B     		ldr	r3, [sp, #4]
  61:Drivers/lvgl/src/core/lv_obj_pos.c ****         lv_obj_set_style_x(obj, x, 0);
 366              		.loc 1 61 28 discriminator 1 view .LVU107
ARM GAS  /var/folders/0z/tsy30v1j4xl4_7kw94k978ww0000gn/T//cc4e96aK.s 			page 33


 367 0028 A342     		cmp	r3, r4
 368 002a F5D1     		bne	.L18
 369 002c F3E7     		b	.L17
 370              		.cfi_endproc
 371              	.LFE168:
 373              		.section	.text.lv_obj_set_y,"ax",%progbits
 374              		.align	1
 375              		.global	lv_obj_set_y
 376              		.syntax unified
 377              		.thumb
 378              		.thumb_func
 380              	lv_obj_set_y:
 381              	.LVL27:
 382              	.LFB169:
  67:Drivers/lvgl/src/core/lv_obj_pos.c ****     LV_ASSERT_OBJ(obj, MY_CLASS);
 383              		.loc 1 67 1 is_stmt 1 view -0
 384              		.cfi_startproc
 385              		@ args = 0, pretend = 0, frame = 8
 386              		@ frame_needed = 0, uses_anonymous_args = 0
  67:Drivers/lvgl/src/core/lv_obj_pos.c ****     LV_ASSERT_OBJ(obj, MY_CLASS);
 387              		.loc 1 67 1 is_stmt 0 view .LVU109
 388 0000 30B5     		push	{r4, r5, lr}
 389              		.cfi_def_cfa_offset 12
 390              		.cfi_offset 4, -12
 391              		.cfi_offset 5, -8
 392              		.cfi_offset 14, -4
 393 0002 83B0     		sub	sp, sp, #12
 394              		.cfi_def_cfa_offset 24
 395 0004 0546     		mov	r5, r0
 396 0006 0C46     		mov	r4, r1
  68:Drivers/lvgl/src/core/lv_obj_pos.c **** 
 397              		.loc 1 68 5 is_stmt 1 view .LVU110
  68:Drivers/lvgl/src/core/lv_obj_pos.c **** 
 398              		.loc 1 68 5 view .LVU111
  68:Drivers/lvgl/src/core/lv_obj_pos.c **** 
 399              		.loc 1 68 5 view .LVU112
  70:Drivers/lvgl/src/core/lv_obj_pos.c ****     lv_style_value_t v_y;
 400              		.loc 1 70 5 view .LVU113
  71:Drivers/lvgl/src/core/lv_obj_pos.c **** 
 401              		.loc 1 71 5 view .LVU114
  73:Drivers/lvgl/src/core/lv_obj_pos.c **** 
 402              		.loc 1 73 5 view .LVU115
  73:Drivers/lvgl/src/core/lv_obj_pos.c **** 
 403              		.loc 1 73 13 is_stmt 0 view .LVU116
 404 0008 0023     		movs	r3, #0
 405 000a 01AA     		add	r2, sp, #4
 406 000c 0821     		movs	r1, #8
 407              	.LVL28:
  73:Drivers/lvgl/src/core/lv_obj_pos.c **** 
 408              		.loc 1 73 13 view .LVU117
 409 000e FFF7FEFF 		bl	lv_obj_get_local_style_prop
 410              	.LVL29:
  75:Drivers/lvgl/src/core/lv_obj_pos.c ****         lv_obj_set_style_y(obj, y, 0);
 411              		.loc 1 75 5 is_stmt 1 view .LVU118
  75:Drivers/lvgl/src/core/lv_obj_pos.c ****         lv_obj_set_style_y(obj, y, 0);
 412              		.loc 1 75 7 is_stmt 0 view .LVU119
 413 0012 0128     		cmp	r0, #1
ARM GAS  /var/folders/0z/tsy30v1j4xl4_7kw94k978ww0000gn/T//cc4e96aK.s 			page 34


 414 0014 07D0     		beq	.L27
 415              	.L23:
  75:Drivers/lvgl/src/core/lv_obj_pos.c ****         lv_obj_set_style_y(obj, y, 0);
 416              		.loc 1 75 45 discriminator 3 view .LVU120
 417 0016 20B9     		cbnz	r0, .L22
 418              	.L24:
  76:Drivers/lvgl/src/core/lv_obj_pos.c ****     }
 419              		.loc 1 76 9 is_stmt 1 view .LVU121
 420 0018 0022     		movs	r2, #0
 421 001a 2146     		mov	r1, r4
 422 001c 2846     		mov	r0, r5
 423              	.LVL30:
  76:Drivers/lvgl/src/core/lv_obj_pos.c ****     }
 424              		.loc 1 76 9 is_stmt 0 view .LVU122
 425 001e FFF7FEFF 		bl	lv_obj_set_style_y
 426              	.LVL31:
 427              	.L22:
  78:Drivers/lvgl/src/core/lv_obj_pos.c **** 
 428              		.loc 1 78 1 view .LVU123
 429 0022 03B0     		add	sp, sp, #12
 430              		.cfi_remember_state
 431              		.cfi_def_cfa_offset 12
 432              		@ sp needed
 433 0024 30BD     		pop	{r4, r5, pc}
 434              	.LVL32:
 435              	.L27:
 436              		.cfi_restore_state
  75:Drivers/lvgl/src/core/lv_obj_pos.c ****         lv_obj_set_style_y(obj, y, 0);
 437              		.loc 1 75 34 discriminator 1 view .LVU124
 438 0026 019B     		ldr	r3, [sp, #4]
  75:Drivers/lvgl/src/core/lv_obj_pos.c ****         lv_obj_set_style_y(obj, y, 0);
 439              		.loc 1 75 28 discriminator 1 view .LVU125
 440 0028 A342     		cmp	r3, r4
 441 002a F5D1     		bne	.L24
 442 002c F3E7     		b	.L23
 443              		.cfi_endproc
 444              	.LFE169:
 446              		.section	.text.lv_obj_set_pos,"ax",%progbits
 447              		.align	1
 448              		.global	lv_obj_set_pos
 449              		.syntax unified
 450              		.thumb
 451              		.thumb_func
 453              	lv_obj_set_pos:
 454              	.LVL33:
 455              	.LFB167:
  45:Drivers/lvgl/src/core/lv_obj_pos.c ****     LV_ASSERT_OBJ(obj, MY_CLASS);
 456              		.loc 1 45 1 is_stmt 1 view -0
 457              		.cfi_startproc
 458              		@ args = 0, pretend = 0, frame = 0
 459              		@ frame_needed = 0, uses_anonymous_args = 0
  45:Drivers/lvgl/src/core/lv_obj_pos.c ****     LV_ASSERT_OBJ(obj, MY_CLASS);
 460              		.loc 1 45 1 is_stmt 0 view .LVU127
 461 0000 38B5     		push	{r3, r4, r5, lr}
 462              		.cfi_def_cfa_offset 16
 463              		.cfi_offset 3, -16
 464              		.cfi_offset 4, -12
ARM GAS  /var/folders/0z/tsy30v1j4xl4_7kw94k978ww0000gn/T//cc4e96aK.s 			page 35


 465              		.cfi_offset 5, -8
 466              		.cfi_offset 14, -4
 467 0002 0446     		mov	r4, r0
 468 0004 1546     		mov	r5, r2
  46:Drivers/lvgl/src/core/lv_obj_pos.c **** 
 469              		.loc 1 46 5 is_stmt 1 view .LVU128
  46:Drivers/lvgl/src/core/lv_obj_pos.c **** 
 470              		.loc 1 46 5 view .LVU129
  46:Drivers/lvgl/src/core/lv_obj_pos.c **** 
 471              		.loc 1 46 5 view .LVU130
  48:Drivers/lvgl/src/core/lv_obj_pos.c ****     lv_obj_set_y(obj, y);
 472              		.loc 1 48 5 view .LVU131
 473 0006 FFF7FEFF 		bl	lv_obj_set_x
 474              	.LVL34:
  49:Drivers/lvgl/src/core/lv_obj_pos.c **** }
 475              		.loc 1 49 5 view .LVU132
 476 000a 2946     		mov	r1, r5
 477 000c 2046     		mov	r0, r4
 478 000e FFF7FEFF 		bl	lv_obj_set_y
 479              	.LVL35:
  50:Drivers/lvgl/src/core/lv_obj_pos.c **** 
 480              		.loc 1 50 1 is_stmt 0 view .LVU133
 481 0012 38BD     		pop	{r3, r4, r5, pc}
  50:Drivers/lvgl/src/core/lv_obj_pos.c **** 
 482              		.loc 1 50 1 view .LVU134
 483              		.cfi_endproc
 484              	.LFE167:
 486              		.section	.text.lv_obj_set_width,"ax",%progbits
 487              		.align	1
 488              		.global	lv_obj_set_width
 489              		.syntax unified
 490              		.thumb
 491              		.thumb_func
 493              	lv_obj_set_width:
 494              	.LVL36:
 495              	.LFB172:
 224:Drivers/lvgl/src/core/lv_obj_pos.c ****     LV_ASSERT_OBJ(obj, MY_CLASS);
 496              		.loc 1 224 1 is_stmt 1 view -0
 497              		.cfi_startproc
 498              		@ args = 0, pretend = 0, frame = 8
 499              		@ frame_needed = 0, uses_anonymous_args = 0
 224:Drivers/lvgl/src/core/lv_obj_pos.c ****     LV_ASSERT_OBJ(obj, MY_CLASS);
 500              		.loc 1 224 1 is_stmt 0 view .LVU136
 501 0000 30B5     		push	{r4, r5, lr}
 502              		.cfi_def_cfa_offset 12
 503              		.cfi_offset 4, -12
 504              		.cfi_offset 5, -8
 505              		.cfi_offset 14, -4
 506 0002 83B0     		sub	sp, sp, #12
 507              		.cfi_def_cfa_offset 24
 508 0004 0546     		mov	r5, r0
 509 0006 0C46     		mov	r4, r1
 225:Drivers/lvgl/src/core/lv_obj_pos.c ****     lv_res_t res_w;
 510              		.loc 1 225 5 is_stmt 1 view .LVU137
 225:Drivers/lvgl/src/core/lv_obj_pos.c ****     lv_res_t res_w;
 511              		.loc 1 225 5 view .LVU138
 225:Drivers/lvgl/src/core/lv_obj_pos.c ****     lv_res_t res_w;
ARM GAS  /var/folders/0z/tsy30v1j4xl4_7kw94k978ww0000gn/T//cc4e96aK.s 			page 36


 512              		.loc 1 225 5 view .LVU139
 226:Drivers/lvgl/src/core/lv_obj_pos.c ****     lv_style_value_t v_w;
 513              		.loc 1 226 5 view .LVU140
 227:Drivers/lvgl/src/core/lv_obj_pos.c **** 
 514              		.loc 1 227 5 view .LVU141
 229:Drivers/lvgl/src/core/lv_obj_pos.c **** 
 515              		.loc 1 229 5 view .LVU142
 229:Drivers/lvgl/src/core/lv_obj_pos.c **** 
 516              		.loc 1 229 13 is_stmt 0 view .LVU143
 517 0008 0023     		movs	r3, #0
 518 000a 01AA     		add	r2, sp, #4
 519 000c 0121     		movs	r1, #1
 520              	.LVL37:
 229:Drivers/lvgl/src/core/lv_obj_pos.c **** 
 521              		.loc 1 229 13 view .LVU144
 522 000e FFF7FEFF 		bl	lv_obj_get_local_style_prop
 523              	.LVL38:
 231:Drivers/lvgl/src/core/lv_obj_pos.c ****         lv_obj_set_style_width(obj, w, 0);
 524              		.loc 1 231 5 is_stmt 1 view .LVU145
 231:Drivers/lvgl/src/core/lv_obj_pos.c ****         lv_obj_set_style_width(obj, w, 0);
 525              		.loc 1 231 7 is_stmt 0 view .LVU146
 526 0012 0128     		cmp	r0, #1
 527 0014 07D0     		beq	.L35
 528              	.L31:
 231:Drivers/lvgl/src/core/lv_obj_pos.c ****         lv_obj_set_style_width(obj, w, 0);
 529              		.loc 1 231 45 discriminator 3 view .LVU147
 530 0016 20B9     		cbnz	r0, .L30
 531              	.L32:
 232:Drivers/lvgl/src/core/lv_obj_pos.c ****     }
 532              		.loc 1 232 9 is_stmt 1 view .LVU148
 533 0018 0022     		movs	r2, #0
 534 001a 2146     		mov	r1, r4
 535 001c 2846     		mov	r0, r5
 536              	.LVL39:
 232:Drivers/lvgl/src/core/lv_obj_pos.c ****     }
 537              		.loc 1 232 9 is_stmt 0 view .LVU149
 538 001e FFF7FEFF 		bl	lv_obj_set_style_width
 539              	.LVL40:
 540              	.L30:
 234:Drivers/lvgl/src/core/lv_obj_pos.c **** 
 541              		.loc 1 234 1 view .LVU150
 542 0022 03B0     		add	sp, sp, #12
 543              		.cfi_remember_state
 544              		.cfi_def_cfa_offset 12
 545              		@ sp needed
 546 0024 30BD     		pop	{r4, r5, pc}
 547              	.LVL41:
 548              	.L35:
 549              		.cfi_restore_state
 231:Drivers/lvgl/src/core/lv_obj_pos.c ****         lv_obj_set_style_width(obj, w, 0);
 550              		.loc 1 231 34 discriminator 1 view .LVU151
 551 0026 019B     		ldr	r3, [sp, #4]
 231:Drivers/lvgl/src/core/lv_obj_pos.c ****         lv_obj_set_style_width(obj, w, 0);
 552              		.loc 1 231 28 discriminator 1 view .LVU152
 553 0028 A342     		cmp	r3, r4
 554 002a F5D1     		bne	.L32
 555 002c F3E7     		b	.L31
ARM GAS  /var/folders/0z/tsy30v1j4xl4_7kw94k978ww0000gn/T//cc4e96aK.s 			page 37


 556              		.cfi_endproc
 557              	.LFE172:
 559              		.section	.text.lv_obj_set_height,"ax",%progbits
 560              		.align	1
 561              		.global	lv_obj_set_height
 562              		.syntax unified
 563              		.thumb
 564              		.thumb_func
 566              	lv_obj_set_height:
 567              	.LVL42:
 568              	.LFB173:
 237:Drivers/lvgl/src/core/lv_obj_pos.c ****     LV_ASSERT_OBJ(obj, MY_CLASS);
 569              		.loc 1 237 1 is_stmt 1 view -0
 570              		.cfi_startproc
 571              		@ args = 0, pretend = 0, frame = 8
 572              		@ frame_needed = 0, uses_anonymous_args = 0
 237:Drivers/lvgl/src/core/lv_obj_pos.c ****     LV_ASSERT_OBJ(obj, MY_CLASS);
 573              		.loc 1 237 1 is_stmt 0 view .LVU154
 574 0000 30B5     		push	{r4, r5, lr}
 575              		.cfi_def_cfa_offset 12
 576              		.cfi_offset 4, -12
 577              		.cfi_offset 5, -8
 578              		.cfi_offset 14, -4
 579 0002 83B0     		sub	sp, sp, #12
 580              		.cfi_def_cfa_offset 24
 581 0004 0546     		mov	r5, r0
 582 0006 0C46     		mov	r4, r1
 238:Drivers/lvgl/src/core/lv_obj_pos.c ****     lv_res_t res_h;
 583              		.loc 1 238 5 is_stmt 1 view .LVU155
 238:Drivers/lvgl/src/core/lv_obj_pos.c ****     lv_res_t res_h;
 584              		.loc 1 238 5 view .LVU156
 238:Drivers/lvgl/src/core/lv_obj_pos.c ****     lv_res_t res_h;
 585              		.loc 1 238 5 view .LVU157
 239:Drivers/lvgl/src/core/lv_obj_pos.c ****     lv_style_value_t v_h;
 586              		.loc 1 239 5 view .LVU158
 240:Drivers/lvgl/src/core/lv_obj_pos.c **** 
 587              		.loc 1 240 5 view .LVU159
 242:Drivers/lvgl/src/core/lv_obj_pos.c **** 
 588              		.loc 1 242 5 view .LVU160
 242:Drivers/lvgl/src/core/lv_obj_pos.c **** 
 589              		.loc 1 242 13 is_stmt 0 view .LVU161
 590 0008 0023     		movs	r3, #0
 591 000a 01AA     		add	r2, sp, #4
 592 000c 0421     		movs	r1, #4
 593              	.LVL43:
 242:Drivers/lvgl/src/core/lv_obj_pos.c **** 
 594              		.loc 1 242 13 view .LVU162
 595 000e FFF7FEFF 		bl	lv_obj_get_local_style_prop
 596              	.LVL44:
 244:Drivers/lvgl/src/core/lv_obj_pos.c ****         lv_obj_set_style_height(obj, h, 0);
 597              		.loc 1 244 5 is_stmt 1 view .LVU163
 244:Drivers/lvgl/src/core/lv_obj_pos.c ****         lv_obj_set_style_height(obj, h, 0);
 598              		.loc 1 244 7 is_stmt 0 view .LVU164
 599 0012 0128     		cmp	r0, #1
 600 0014 07D0     		beq	.L41
 601              	.L37:
 244:Drivers/lvgl/src/core/lv_obj_pos.c ****         lv_obj_set_style_height(obj, h, 0);
ARM GAS  /var/folders/0z/tsy30v1j4xl4_7kw94k978ww0000gn/T//cc4e96aK.s 			page 38


 602              		.loc 1 244 45 discriminator 3 view .LVU165
 603 0016 20B9     		cbnz	r0, .L36
 604              	.L38:
 245:Drivers/lvgl/src/core/lv_obj_pos.c ****     }
 605              		.loc 1 245 9 is_stmt 1 view .LVU166
 606 0018 0022     		movs	r2, #0
 607 001a 2146     		mov	r1, r4
 608 001c 2846     		mov	r0, r5
 609              	.LVL45:
 245:Drivers/lvgl/src/core/lv_obj_pos.c ****     }
 610              		.loc 1 245 9 is_stmt 0 view .LVU167
 611 001e FFF7FEFF 		bl	lv_obj_set_style_height
 612              	.LVL46:
 613              	.L36:
 247:Drivers/lvgl/src/core/lv_obj_pos.c **** 
 614              		.loc 1 247 1 view .LVU168
 615 0022 03B0     		add	sp, sp, #12
 616              		.cfi_remember_state
 617              		.cfi_def_cfa_offset 12
 618              		@ sp needed
 619 0024 30BD     		pop	{r4, r5, pc}
 620              	.LVL47:
 621              	.L41:
 622              		.cfi_restore_state
 244:Drivers/lvgl/src/core/lv_obj_pos.c ****         lv_obj_set_style_height(obj, h, 0);
 623              		.loc 1 244 34 discriminator 1 view .LVU169
 624 0026 019B     		ldr	r3, [sp, #4]
 244:Drivers/lvgl/src/core/lv_obj_pos.c ****         lv_obj_set_style_height(obj, h, 0);
 625              		.loc 1 244 28 discriminator 1 view .LVU170
 626 0028 A342     		cmp	r3, r4
 627 002a F5D1     		bne	.L38
 628 002c F3E7     		b	.L37
 629              		.cfi_endproc
 630              	.LFE173:
 632              		.section	.text.lv_obj_set_size,"ax",%progbits
 633              		.align	1
 634              		.global	lv_obj_set_size
 635              		.syntax unified
 636              		.thumb
 637              		.thumb_func
 639              	lv_obj_set_size:
 640              	.LVL48:
 641              	.LFB171:
 216:Drivers/lvgl/src/core/lv_obj_pos.c ****     LV_ASSERT_OBJ(obj, MY_CLASS);
 642              		.loc 1 216 1 is_stmt 1 view -0
 643              		.cfi_startproc
 644              		@ args = 0, pretend = 0, frame = 0
 645              		@ frame_needed = 0, uses_anonymous_args = 0
 216:Drivers/lvgl/src/core/lv_obj_pos.c ****     LV_ASSERT_OBJ(obj, MY_CLASS);
 646              		.loc 1 216 1 is_stmt 0 view .LVU172
 647 0000 38B5     		push	{r3, r4, r5, lr}
 648              		.cfi_def_cfa_offset 16
 649              		.cfi_offset 3, -16
 650              		.cfi_offset 4, -12
 651              		.cfi_offset 5, -8
 652              		.cfi_offset 14, -4
 653 0002 0446     		mov	r4, r0
ARM GAS  /var/folders/0z/tsy30v1j4xl4_7kw94k978ww0000gn/T//cc4e96aK.s 			page 39


 654 0004 1546     		mov	r5, r2
 217:Drivers/lvgl/src/core/lv_obj_pos.c **** 
 655              		.loc 1 217 5 is_stmt 1 view .LVU173
 217:Drivers/lvgl/src/core/lv_obj_pos.c **** 
 656              		.loc 1 217 5 view .LVU174
 217:Drivers/lvgl/src/core/lv_obj_pos.c **** 
 657              		.loc 1 217 5 view .LVU175
 219:Drivers/lvgl/src/core/lv_obj_pos.c ****     lv_obj_set_height(obj, h);
 658              		.loc 1 219 5 view .LVU176
 659 0006 FFF7FEFF 		bl	lv_obj_set_width
 660              	.LVL49:
 220:Drivers/lvgl/src/core/lv_obj_pos.c **** }
 661              		.loc 1 220 5 view .LVU177
 662 000a 2946     		mov	r1, r5
 663 000c 2046     		mov	r0, r4
 664 000e FFF7FEFF 		bl	lv_obj_set_height
 665              	.LVL50:
 221:Drivers/lvgl/src/core/lv_obj_pos.c **** 
 666              		.loc 1 221 1 is_stmt 0 view .LVU178
 667 0012 38BD     		pop	{r3, r4, r5, pc}
 221:Drivers/lvgl/src/core/lv_obj_pos.c **** 
 668              		.loc 1 221 1 view .LVU179
 669              		.cfi_endproc
 670              	.LFE171:
 672              		.section	.text.lv_obj_set_content_width,"ax",%progbits
 673              		.align	1
 674              		.global	lv_obj_set_content_width
 675              		.syntax unified
 676              		.thumb
 677              		.thumb_func
 679              	lv_obj_set_content_width:
 680              	.LVL51:
 681              	.LFB174:
 250:Drivers/lvgl/src/core/lv_obj_pos.c ****     lv_coord_t pleft = lv_obj_get_style_pad_left(obj, LV_PART_MAIN);
 682              		.loc 1 250 1 is_stmt 1 view -0
 683              		.cfi_startproc
 684              		@ args = 0, pretend = 0, frame = 0
 685              		@ frame_needed = 0, uses_anonymous_args = 0
 250:Drivers/lvgl/src/core/lv_obj_pos.c ****     lv_coord_t pleft = lv_obj_get_style_pad_left(obj, LV_PART_MAIN);
 686              		.loc 1 250 1 is_stmt 0 view .LVU181
 687 0000 F8B5     		push	{r3, r4, r5, r6, r7, lr}
 688              		.cfi_def_cfa_offset 24
 689              		.cfi_offset 3, -24
 690              		.cfi_offset 4, -20
 691              		.cfi_offset 5, -16
 692              		.cfi_offset 6, -12
 693              		.cfi_offset 7, -8
 694              		.cfi_offset 14, -4
 695 0002 0546     		mov	r5, r0
 696 0004 0C46     		mov	r4, r1
 251:Drivers/lvgl/src/core/lv_obj_pos.c ****     lv_coord_t pright = lv_obj_get_style_pad_right(obj, LV_PART_MAIN);
 697              		.loc 1 251 5 is_stmt 1 view .LVU182
 698              	.LVL52:
 699              	.LBB215:
 700              	.LBI215:
 101:Drivers/lvgl/src/core/lv_obj_style_gen.h **** }
 102:Drivers/lvgl/src/core/lv_obj_style_gen.h **** 
ARM GAS  /var/folders/0z/tsy30v1j4xl4_7kw94k978ww0000gn/T//cc4e96aK.s 			page 40


 103:Drivers/lvgl/src/core/lv_obj_style_gen.h **** static inline lv_coord_t lv_obj_get_style_pad_top(const struct _lv_obj_t * obj, uint32_t part)
 104:Drivers/lvgl/src/core/lv_obj_style_gen.h **** {
 105:Drivers/lvgl/src/core/lv_obj_style_gen.h ****     lv_style_value_t v = lv_obj_get_style_prop(obj, part, LV_STYLE_PAD_TOP);
 106:Drivers/lvgl/src/core/lv_obj_style_gen.h ****     return (lv_coord_t)v.num;
 107:Drivers/lvgl/src/core/lv_obj_style_gen.h **** }
 108:Drivers/lvgl/src/core/lv_obj_style_gen.h **** 
 109:Drivers/lvgl/src/core/lv_obj_style_gen.h **** static inline lv_coord_t lv_obj_get_style_pad_bottom(const struct _lv_obj_t * obj, uint32_t part)
 110:Drivers/lvgl/src/core/lv_obj_style_gen.h **** {
 111:Drivers/lvgl/src/core/lv_obj_style_gen.h ****     lv_style_value_t v = lv_obj_get_style_prop(obj, part, LV_STYLE_PAD_BOTTOM);
 112:Drivers/lvgl/src/core/lv_obj_style_gen.h ****     return (lv_coord_t)v.num;
 113:Drivers/lvgl/src/core/lv_obj_style_gen.h **** }
 114:Drivers/lvgl/src/core/lv_obj_style_gen.h **** 
 115:Drivers/lvgl/src/core/lv_obj_style_gen.h **** static inline lv_coord_t lv_obj_get_style_pad_left(const struct _lv_obj_t * obj, uint32_t part)
 701              		.loc 2 115 26 view .LVU183
 702              	.LBB216:
 116:Drivers/lvgl/src/core/lv_obj_style_gen.h **** {
 117:Drivers/lvgl/src/core/lv_obj_style_gen.h ****     lv_style_value_t v = lv_obj_get_style_prop(obj, part, LV_STYLE_PAD_LEFT);
 703              		.loc 2 117 5 view .LVU184
 704              		.loc 2 117 26 is_stmt 0 view .LVU185
 705 0006 1222     		movs	r2, #18
 706 0008 0021     		movs	r1, #0
 707              	.LVL53:
 708              		.loc 2 117 26 view .LVU186
 709 000a FFF7FEFF 		bl	lv_obj_get_style_prop
 710              	.LVL54:
 711              		.loc 2 117 26 view .LVU187
 712 000e 0746     		mov	r7, r0
 713              	.LVL55:
 118:Drivers/lvgl/src/core/lv_obj_style_gen.h ****     return (lv_coord_t)v.num;
 714              		.loc 2 118 5 is_stmt 1 view .LVU188
 715              		.loc 2 118 5 is_stmt 0 view .LVU189
 716              	.LBE216:
 717              	.LBE215:
 252:Drivers/lvgl/src/core/lv_obj_pos.c ****     lv_coord_t border_width = lv_obj_get_style_border_width(obj, LV_PART_MAIN);
 718              		.loc 1 252 5 is_stmt 1 view .LVU190
 719              	.LBB217:
 720              	.LBI217:
 119:Drivers/lvgl/src/core/lv_obj_style_gen.h **** }
 120:Drivers/lvgl/src/core/lv_obj_style_gen.h **** 
 121:Drivers/lvgl/src/core/lv_obj_style_gen.h **** static inline lv_coord_t lv_obj_get_style_pad_right(const struct _lv_obj_t * obj, uint32_t part)
 721              		.loc 2 121 26 view .LVU191
 722              	.LBB218:
 122:Drivers/lvgl/src/core/lv_obj_style_gen.h **** {
 123:Drivers/lvgl/src/core/lv_obj_style_gen.h ****     lv_style_value_t v = lv_obj_get_style_prop(obj, part, LV_STYLE_PAD_RIGHT);
 723              		.loc 2 123 5 view .LVU192
 724              		.loc 2 123 26 is_stmt 0 view .LVU193
 725 0010 1322     		movs	r2, #19
 726 0012 0021     		movs	r1, #0
 727 0014 2846     		mov	r0, r5
 728 0016 FFF7FEFF 		bl	lv_obj_get_style_prop
 729              	.LVL56:
 730 001a 0646     		mov	r6, r0
 731              	.LVL57:
 124:Drivers/lvgl/src/core/lv_obj_style_gen.h ****     return (lv_coord_t)v.num;
 732              		.loc 2 124 5 is_stmt 1 view .LVU194
 733              		.loc 2 124 5 is_stmt 0 view .LVU195
 734              	.LBE218:
ARM GAS  /var/folders/0z/tsy30v1j4xl4_7kw94k978ww0000gn/T//cc4e96aK.s 			page 41


 735              	.LBE217:
 253:Drivers/lvgl/src/core/lv_obj_pos.c **** 
 736              		.loc 1 253 5 is_stmt 1 view .LVU196
 737              	.LBB219:
 738              	.LBI219:
 125:Drivers/lvgl/src/core/lv_obj_style_gen.h **** }
 126:Drivers/lvgl/src/core/lv_obj_style_gen.h **** 
 127:Drivers/lvgl/src/core/lv_obj_style_gen.h **** static inline lv_coord_t lv_obj_get_style_pad_row(const struct _lv_obj_t * obj, uint32_t part)
 128:Drivers/lvgl/src/core/lv_obj_style_gen.h **** {
 129:Drivers/lvgl/src/core/lv_obj_style_gen.h ****     lv_style_value_t v = lv_obj_get_style_prop(obj, part, LV_STYLE_PAD_ROW);
 130:Drivers/lvgl/src/core/lv_obj_style_gen.h ****     return (lv_coord_t)v.num;
 131:Drivers/lvgl/src/core/lv_obj_style_gen.h **** }
 132:Drivers/lvgl/src/core/lv_obj_style_gen.h **** 
 133:Drivers/lvgl/src/core/lv_obj_style_gen.h **** static inline lv_coord_t lv_obj_get_style_pad_column(const struct _lv_obj_t * obj, uint32_t part)
 134:Drivers/lvgl/src/core/lv_obj_style_gen.h **** {
 135:Drivers/lvgl/src/core/lv_obj_style_gen.h ****     lv_style_value_t v = lv_obj_get_style_prop(obj, part, LV_STYLE_PAD_COLUMN);
 136:Drivers/lvgl/src/core/lv_obj_style_gen.h ****     return (lv_coord_t)v.num;
 137:Drivers/lvgl/src/core/lv_obj_style_gen.h **** }
 138:Drivers/lvgl/src/core/lv_obj_style_gen.h **** 
 139:Drivers/lvgl/src/core/lv_obj_style_gen.h **** static inline lv_color_t lv_obj_get_style_bg_color(const struct _lv_obj_t * obj, uint32_t part)
 140:Drivers/lvgl/src/core/lv_obj_style_gen.h **** {
 141:Drivers/lvgl/src/core/lv_obj_style_gen.h ****     lv_style_value_t v = lv_obj_get_style_prop(obj, part, LV_STYLE_BG_COLOR);
 142:Drivers/lvgl/src/core/lv_obj_style_gen.h ****     return v.color;
 143:Drivers/lvgl/src/core/lv_obj_style_gen.h **** }
 144:Drivers/lvgl/src/core/lv_obj_style_gen.h **** 
 145:Drivers/lvgl/src/core/lv_obj_style_gen.h **** static inline lv_color_t lv_obj_get_style_bg_color_filtered(const struct _lv_obj_t * obj, uint32_t 
 146:Drivers/lvgl/src/core/lv_obj_style_gen.h **** {
 147:Drivers/lvgl/src/core/lv_obj_style_gen.h ****     lv_style_value_t v = _lv_obj_style_apply_color_filter(obj, part, lv_obj_get_style_prop(obj, par
 148:Drivers/lvgl/src/core/lv_obj_style_gen.h ****     return v.color;
 149:Drivers/lvgl/src/core/lv_obj_style_gen.h **** }
 150:Drivers/lvgl/src/core/lv_obj_style_gen.h **** 
 151:Drivers/lvgl/src/core/lv_obj_style_gen.h **** static inline lv_opa_t lv_obj_get_style_bg_opa(const struct _lv_obj_t * obj, uint32_t part)
 152:Drivers/lvgl/src/core/lv_obj_style_gen.h **** {
 153:Drivers/lvgl/src/core/lv_obj_style_gen.h ****     lv_style_value_t v = lv_obj_get_style_prop(obj, part, LV_STYLE_BG_OPA);
 154:Drivers/lvgl/src/core/lv_obj_style_gen.h ****     return (lv_opa_t)v.num;
 155:Drivers/lvgl/src/core/lv_obj_style_gen.h **** }
 156:Drivers/lvgl/src/core/lv_obj_style_gen.h **** 
 157:Drivers/lvgl/src/core/lv_obj_style_gen.h **** static inline lv_color_t lv_obj_get_style_bg_grad_color(const struct _lv_obj_t * obj, uint32_t part
 158:Drivers/lvgl/src/core/lv_obj_style_gen.h **** {
 159:Drivers/lvgl/src/core/lv_obj_style_gen.h ****     lv_style_value_t v = lv_obj_get_style_prop(obj, part, LV_STYLE_BG_GRAD_COLOR);
 160:Drivers/lvgl/src/core/lv_obj_style_gen.h ****     return v.color;
 161:Drivers/lvgl/src/core/lv_obj_style_gen.h **** }
 162:Drivers/lvgl/src/core/lv_obj_style_gen.h **** 
 163:Drivers/lvgl/src/core/lv_obj_style_gen.h **** static inline lv_color_t lv_obj_get_style_bg_grad_color_filtered(const struct _lv_obj_t * obj, uint
 164:Drivers/lvgl/src/core/lv_obj_style_gen.h **** {
 165:Drivers/lvgl/src/core/lv_obj_style_gen.h ****     lv_style_value_t v = _lv_obj_style_apply_color_filter(obj, part, lv_obj_get_style_prop(obj, par
 166:Drivers/lvgl/src/core/lv_obj_style_gen.h ****     return v.color;
 167:Drivers/lvgl/src/core/lv_obj_style_gen.h **** }
 168:Drivers/lvgl/src/core/lv_obj_style_gen.h **** 
 169:Drivers/lvgl/src/core/lv_obj_style_gen.h **** static inline lv_grad_dir_t lv_obj_get_style_bg_grad_dir(const struct _lv_obj_t * obj, uint32_t par
 170:Drivers/lvgl/src/core/lv_obj_style_gen.h **** {
 171:Drivers/lvgl/src/core/lv_obj_style_gen.h ****     lv_style_value_t v = lv_obj_get_style_prop(obj, part, LV_STYLE_BG_GRAD_DIR);
 172:Drivers/lvgl/src/core/lv_obj_style_gen.h ****     return (lv_grad_dir_t)v.num;
 173:Drivers/lvgl/src/core/lv_obj_style_gen.h **** }
 174:Drivers/lvgl/src/core/lv_obj_style_gen.h **** 
 175:Drivers/lvgl/src/core/lv_obj_style_gen.h **** static inline lv_coord_t lv_obj_get_style_bg_main_stop(const struct _lv_obj_t * obj, uint32_t part)
 176:Drivers/lvgl/src/core/lv_obj_style_gen.h **** {
ARM GAS  /var/folders/0z/tsy30v1j4xl4_7kw94k978ww0000gn/T//cc4e96aK.s 			page 42


 177:Drivers/lvgl/src/core/lv_obj_style_gen.h ****     lv_style_value_t v = lv_obj_get_style_prop(obj, part, LV_STYLE_BG_MAIN_STOP);
 178:Drivers/lvgl/src/core/lv_obj_style_gen.h ****     return (lv_coord_t)v.num;
 179:Drivers/lvgl/src/core/lv_obj_style_gen.h **** }
 180:Drivers/lvgl/src/core/lv_obj_style_gen.h **** 
 181:Drivers/lvgl/src/core/lv_obj_style_gen.h **** static inline lv_coord_t lv_obj_get_style_bg_grad_stop(const struct _lv_obj_t * obj, uint32_t part)
 182:Drivers/lvgl/src/core/lv_obj_style_gen.h **** {
 183:Drivers/lvgl/src/core/lv_obj_style_gen.h ****     lv_style_value_t v = lv_obj_get_style_prop(obj, part, LV_STYLE_BG_GRAD_STOP);
 184:Drivers/lvgl/src/core/lv_obj_style_gen.h ****     return (lv_coord_t)v.num;
 185:Drivers/lvgl/src/core/lv_obj_style_gen.h **** }
 186:Drivers/lvgl/src/core/lv_obj_style_gen.h **** 
 187:Drivers/lvgl/src/core/lv_obj_style_gen.h **** static inline const lv_grad_dsc_t * lv_obj_get_style_bg_grad(const struct _lv_obj_t * obj, uint32_t
 188:Drivers/lvgl/src/core/lv_obj_style_gen.h **** {
 189:Drivers/lvgl/src/core/lv_obj_style_gen.h ****     lv_style_value_t v = lv_obj_get_style_prop(obj, part, LV_STYLE_BG_GRAD);
 190:Drivers/lvgl/src/core/lv_obj_style_gen.h ****     return (const lv_grad_dsc_t *)v.ptr;
 191:Drivers/lvgl/src/core/lv_obj_style_gen.h **** }
 192:Drivers/lvgl/src/core/lv_obj_style_gen.h **** 
 193:Drivers/lvgl/src/core/lv_obj_style_gen.h **** static inline lv_dither_mode_t lv_obj_get_style_bg_dither_mode(const struct _lv_obj_t * obj, uint32
 194:Drivers/lvgl/src/core/lv_obj_style_gen.h **** {
 195:Drivers/lvgl/src/core/lv_obj_style_gen.h ****     lv_style_value_t v = lv_obj_get_style_prop(obj, part, LV_STYLE_BG_DITHER_MODE);
 196:Drivers/lvgl/src/core/lv_obj_style_gen.h ****     return (lv_dither_mode_t)v.num;
 197:Drivers/lvgl/src/core/lv_obj_style_gen.h **** }
 198:Drivers/lvgl/src/core/lv_obj_style_gen.h **** 
 199:Drivers/lvgl/src/core/lv_obj_style_gen.h **** static inline const void * lv_obj_get_style_bg_img_src(const struct _lv_obj_t * obj, uint32_t part)
 200:Drivers/lvgl/src/core/lv_obj_style_gen.h **** {
 201:Drivers/lvgl/src/core/lv_obj_style_gen.h ****     lv_style_value_t v = lv_obj_get_style_prop(obj, part, LV_STYLE_BG_IMG_SRC);
 202:Drivers/lvgl/src/core/lv_obj_style_gen.h ****     return (const void *)v.ptr;
 203:Drivers/lvgl/src/core/lv_obj_style_gen.h **** }
 204:Drivers/lvgl/src/core/lv_obj_style_gen.h **** 
 205:Drivers/lvgl/src/core/lv_obj_style_gen.h **** static inline lv_opa_t lv_obj_get_style_bg_img_opa(const struct _lv_obj_t * obj, uint32_t part)
 206:Drivers/lvgl/src/core/lv_obj_style_gen.h **** {
 207:Drivers/lvgl/src/core/lv_obj_style_gen.h ****     lv_style_value_t v = lv_obj_get_style_prop(obj, part, LV_STYLE_BG_IMG_OPA);
 208:Drivers/lvgl/src/core/lv_obj_style_gen.h ****     return (lv_opa_t)v.num;
 209:Drivers/lvgl/src/core/lv_obj_style_gen.h **** }
 210:Drivers/lvgl/src/core/lv_obj_style_gen.h **** 
 211:Drivers/lvgl/src/core/lv_obj_style_gen.h **** static inline lv_color_t lv_obj_get_style_bg_img_recolor(const struct _lv_obj_t * obj, uint32_t par
 212:Drivers/lvgl/src/core/lv_obj_style_gen.h **** {
 213:Drivers/lvgl/src/core/lv_obj_style_gen.h ****     lv_style_value_t v = lv_obj_get_style_prop(obj, part, LV_STYLE_BG_IMG_RECOLOR);
 214:Drivers/lvgl/src/core/lv_obj_style_gen.h ****     return v.color;
 215:Drivers/lvgl/src/core/lv_obj_style_gen.h **** }
 216:Drivers/lvgl/src/core/lv_obj_style_gen.h **** 
 217:Drivers/lvgl/src/core/lv_obj_style_gen.h **** static inline lv_color_t lv_obj_get_style_bg_img_recolor_filtered(const struct _lv_obj_t * obj, uin
 218:Drivers/lvgl/src/core/lv_obj_style_gen.h **** {
 219:Drivers/lvgl/src/core/lv_obj_style_gen.h ****     lv_style_value_t v = _lv_obj_style_apply_color_filter(obj, part, lv_obj_get_style_prop(obj, par
 220:Drivers/lvgl/src/core/lv_obj_style_gen.h ****     return v.color;
 221:Drivers/lvgl/src/core/lv_obj_style_gen.h **** }
 222:Drivers/lvgl/src/core/lv_obj_style_gen.h **** 
 223:Drivers/lvgl/src/core/lv_obj_style_gen.h **** static inline lv_opa_t lv_obj_get_style_bg_img_recolor_opa(const struct _lv_obj_t * obj, uint32_t p
 224:Drivers/lvgl/src/core/lv_obj_style_gen.h **** {
 225:Drivers/lvgl/src/core/lv_obj_style_gen.h ****     lv_style_value_t v = lv_obj_get_style_prop(obj, part, LV_STYLE_BG_IMG_RECOLOR_OPA);
 226:Drivers/lvgl/src/core/lv_obj_style_gen.h ****     return (lv_opa_t)v.num;
 227:Drivers/lvgl/src/core/lv_obj_style_gen.h **** }
 228:Drivers/lvgl/src/core/lv_obj_style_gen.h **** 
 229:Drivers/lvgl/src/core/lv_obj_style_gen.h **** static inline bool lv_obj_get_style_bg_img_tiled(const struct _lv_obj_t * obj, uint32_t part)
 230:Drivers/lvgl/src/core/lv_obj_style_gen.h **** {
 231:Drivers/lvgl/src/core/lv_obj_style_gen.h ****     lv_style_value_t v = lv_obj_get_style_prop(obj, part, LV_STYLE_BG_IMG_TILED);
 232:Drivers/lvgl/src/core/lv_obj_style_gen.h ****     return (bool)v.num;
 233:Drivers/lvgl/src/core/lv_obj_style_gen.h **** }
ARM GAS  /var/folders/0z/tsy30v1j4xl4_7kw94k978ww0000gn/T//cc4e96aK.s 			page 43


 234:Drivers/lvgl/src/core/lv_obj_style_gen.h **** 
 235:Drivers/lvgl/src/core/lv_obj_style_gen.h **** static inline lv_color_t lv_obj_get_style_border_color(const struct _lv_obj_t * obj, uint32_t part)
 236:Drivers/lvgl/src/core/lv_obj_style_gen.h **** {
 237:Drivers/lvgl/src/core/lv_obj_style_gen.h ****     lv_style_value_t v = lv_obj_get_style_prop(obj, part, LV_STYLE_BORDER_COLOR);
 238:Drivers/lvgl/src/core/lv_obj_style_gen.h ****     return v.color;
 239:Drivers/lvgl/src/core/lv_obj_style_gen.h **** }
 240:Drivers/lvgl/src/core/lv_obj_style_gen.h **** 
 241:Drivers/lvgl/src/core/lv_obj_style_gen.h **** static inline lv_color_t lv_obj_get_style_border_color_filtered(const struct _lv_obj_t * obj, uint3
 242:Drivers/lvgl/src/core/lv_obj_style_gen.h **** {
 243:Drivers/lvgl/src/core/lv_obj_style_gen.h ****     lv_style_value_t v = _lv_obj_style_apply_color_filter(obj, part, lv_obj_get_style_prop(obj, par
 244:Drivers/lvgl/src/core/lv_obj_style_gen.h ****     return v.color;
 245:Drivers/lvgl/src/core/lv_obj_style_gen.h **** }
 246:Drivers/lvgl/src/core/lv_obj_style_gen.h **** 
 247:Drivers/lvgl/src/core/lv_obj_style_gen.h **** static inline lv_opa_t lv_obj_get_style_border_opa(const struct _lv_obj_t * obj, uint32_t part)
 248:Drivers/lvgl/src/core/lv_obj_style_gen.h **** {
 249:Drivers/lvgl/src/core/lv_obj_style_gen.h ****     lv_style_value_t v = lv_obj_get_style_prop(obj, part, LV_STYLE_BORDER_OPA);
 250:Drivers/lvgl/src/core/lv_obj_style_gen.h ****     return (lv_opa_t)v.num;
 251:Drivers/lvgl/src/core/lv_obj_style_gen.h **** }
 252:Drivers/lvgl/src/core/lv_obj_style_gen.h **** 
 253:Drivers/lvgl/src/core/lv_obj_style_gen.h **** static inline lv_coord_t lv_obj_get_style_border_width(const struct _lv_obj_t * obj, uint32_t part)
 739              		.loc 2 253 26 view .LVU197
 740              	.LBB220:
 254:Drivers/lvgl/src/core/lv_obj_style_gen.h **** {
 255:Drivers/lvgl/src/core/lv_obj_style_gen.h ****     lv_style_value_t v = lv_obj_get_style_prop(obj, part, LV_STYLE_BORDER_WIDTH);
 741              		.loc 2 255 5 view .LVU198
 742              		.loc 2 255 26 is_stmt 0 view .LVU199
 743 001c 3222     		movs	r2, #50
 744 001e 0021     		movs	r1, #0
 745 0020 2846     		mov	r0, r5
 746 0022 FFF7FEFF 		bl	lv_obj_get_style_prop
 747              	.LVL58:
 256:Drivers/lvgl/src/core/lv_obj_style_gen.h ****     return (lv_coord_t)v.num;
 748              		.loc 2 256 5 is_stmt 1 view .LVU200
 749              		.loc 2 256 5 is_stmt 0 view .LVU201
 750              	.LBE220:
 751              	.LBE219:
 255:Drivers/lvgl/src/core/lv_obj_pos.c **** }
 752              		.loc 1 255 5 is_stmt 1 view .LVU202
 255:Drivers/lvgl/src/core/lv_obj_pos.c **** }
 753              		.loc 1 255 29 is_stmt 0 view .LVU203
 754 0026 E119     		adds	r1, r4, r7
 255:Drivers/lvgl/src/core/lv_obj_pos.c **** }
 755              		.loc 1 255 37 view .LVU204
 756 0028 16FA81F1 		uxtah	r1, r6, r1
 255:Drivers/lvgl/src/core/lv_obj_pos.c **** }
 757              		.loc 1 255 50 view .LVU205
 758 002c 4000     		lsls	r0, r0, #1
 759              	.LVL59:
 255:Drivers/lvgl/src/core/lv_obj_pos.c **** }
 760              		.loc 1 255 50 view .LVU206
 761 002e 80B2     		uxth	r0, r0
 255:Drivers/lvgl/src/core/lv_obj_pos.c **** }
 762              		.loc 1 255 46 view .LVU207
 763 0030 10FA81F1 		uxtah	r1, r0, r1
 255:Drivers/lvgl/src/core/lv_obj_pos.c **** }
 764              		.loc 1 255 5 view .LVU208
 765 0034 09B2     		sxth	r1, r1
ARM GAS  /var/folders/0z/tsy30v1j4xl4_7kw94k978ww0000gn/T//cc4e96aK.s 			page 44


 766 0036 2846     		mov	r0, r5
 767 0038 FFF7FEFF 		bl	lv_obj_set_width
 768              	.LVL60:
 256:Drivers/lvgl/src/core/lv_obj_pos.c **** 
 769              		.loc 1 256 1 view .LVU209
 770 003c F8BD     		pop	{r3, r4, r5, r6, r7, pc}
 256:Drivers/lvgl/src/core/lv_obj_pos.c **** 
 771              		.loc 1 256 1 view .LVU210
 772              		.cfi_endproc
 773              	.LFE174:
 775              		.section	.text.lv_obj_set_content_height,"ax",%progbits
 776              		.align	1
 777              		.global	lv_obj_set_content_height
 778              		.syntax unified
 779              		.thumb
 780              		.thumb_func
 782              	lv_obj_set_content_height:
 783              	.LVL61:
 784              	.LFB175:
 259:Drivers/lvgl/src/core/lv_obj_pos.c ****     lv_coord_t ptop = lv_obj_get_style_pad_top(obj, LV_PART_MAIN);
 785              		.loc 1 259 1 is_stmt 1 view -0
 786              		.cfi_startproc
 787              		@ args = 0, pretend = 0, frame = 0
 788              		@ frame_needed = 0, uses_anonymous_args = 0
 259:Drivers/lvgl/src/core/lv_obj_pos.c ****     lv_coord_t ptop = lv_obj_get_style_pad_top(obj, LV_PART_MAIN);
 789              		.loc 1 259 1 is_stmt 0 view .LVU212
 790 0000 F8B5     		push	{r3, r4, r5, r6, r7, lr}
 791              		.cfi_def_cfa_offset 24
 792              		.cfi_offset 3, -24
 793              		.cfi_offset 4, -20
 794              		.cfi_offset 5, -16
 795              		.cfi_offset 6, -12
 796              		.cfi_offset 7, -8
 797              		.cfi_offset 14, -4
 798 0002 0546     		mov	r5, r0
 799 0004 0C46     		mov	r4, r1
 260:Drivers/lvgl/src/core/lv_obj_pos.c ****     lv_coord_t pbottom = lv_obj_get_style_pad_bottom(obj, LV_PART_MAIN);
 800              		.loc 1 260 5 is_stmt 1 view .LVU213
 801              	.LVL62:
 802              	.LBB221:
 803              	.LBI221:
 103:Drivers/lvgl/src/core/lv_obj_style_gen.h **** {
 804              		.loc 2 103 26 view .LVU214
 805              	.LBB222:
 105:Drivers/lvgl/src/core/lv_obj_style_gen.h ****     return (lv_coord_t)v.num;
 806              		.loc 2 105 5 view .LVU215
 105:Drivers/lvgl/src/core/lv_obj_style_gen.h ****     return (lv_coord_t)v.num;
 807              		.loc 2 105 26 is_stmt 0 view .LVU216
 808 0006 1022     		movs	r2, #16
 809 0008 0021     		movs	r1, #0
 810              	.LVL63:
 105:Drivers/lvgl/src/core/lv_obj_style_gen.h ****     return (lv_coord_t)v.num;
 811              		.loc 2 105 26 view .LVU217
 812 000a FFF7FEFF 		bl	lv_obj_get_style_prop
 813              	.LVL64:
 105:Drivers/lvgl/src/core/lv_obj_style_gen.h ****     return (lv_coord_t)v.num;
 814              		.loc 2 105 26 view .LVU218
ARM GAS  /var/folders/0z/tsy30v1j4xl4_7kw94k978ww0000gn/T//cc4e96aK.s 			page 45


 815 000e 0746     		mov	r7, r0
 816              	.LVL65:
 106:Drivers/lvgl/src/core/lv_obj_style_gen.h **** }
 817              		.loc 2 106 5 is_stmt 1 view .LVU219
 106:Drivers/lvgl/src/core/lv_obj_style_gen.h **** }
 818              		.loc 2 106 5 is_stmt 0 view .LVU220
 819              	.LBE222:
 820              	.LBE221:
 261:Drivers/lvgl/src/core/lv_obj_pos.c ****     lv_coord_t border_width = lv_obj_get_style_border_width(obj, LV_PART_MAIN);
 821              		.loc 1 261 5 is_stmt 1 view .LVU221
 822              	.LBB223:
 823              	.LBI223:
 109:Drivers/lvgl/src/core/lv_obj_style_gen.h **** {
 824              		.loc 2 109 26 view .LVU222
 825              	.LBB224:
 111:Drivers/lvgl/src/core/lv_obj_style_gen.h ****     return (lv_coord_t)v.num;
 826              		.loc 2 111 5 view .LVU223
 111:Drivers/lvgl/src/core/lv_obj_style_gen.h ****     return (lv_coord_t)v.num;
 827              		.loc 2 111 26 is_stmt 0 view .LVU224
 828 0010 1122     		movs	r2, #17
 829 0012 0021     		movs	r1, #0
 830 0014 2846     		mov	r0, r5
 831 0016 FFF7FEFF 		bl	lv_obj_get_style_prop
 832              	.LVL66:
 833 001a 0646     		mov	r6, r0
 834              	.LVL67:
 112:Drivers/lvgl/src/core/lv_obj_style_gen.h **** }
 835              		.loc 2 112 5 is_stmt 1 view .LVU225
 112:Drivers/lvgl/src/core/lv_obj_style_gen.h **** }
 836              		.loc 2 112 5 is_stmt 0 view .LVU226
 837              	.LBE224:
 838              	.LBE223:
 262:Drivers/lvgl/src/core/lv_obj_pos.c **** 
 839              		.loc 1 262 5 is_stmt 1 view .LVU227
 840              	.LBB225:
 841              	.LBI225:
 253:Drivers/lvgl/src/core/lv_obj_style_gen.h **** {
 842              		.loc 2 253 26 view .LVU228
 843              	.LBB226:
 255:Drivers/lvgl/src/core/lv_obj_style_gen.h ****     return (lv_coord_t)v.num;
 844              		.loc 2 255 5 view .LVU229
 255:Drivers/lvgl/src/core/lv_obj_style_gen.h ****     return (lv_coord_t)v.num;
 845              		.loc 2 255 26 is_stmt 0 view .LVU230
 846 001c 3222     		movs	r2, #50
 847 001e 0021     		movs	r1, #0
 848 0020 2846     		mov	r0, r5
 849 0022 FFF7FEFF 		bl	lv_obj_get_style_prop
 850              	.LVL68:
 851              		.loc 2 256 5 is_stmt 1 view .LVU231
 852              		.loc 2 256 5 is_stmt 0 view .LVU232
 853              	.LBE226:
 854              	.LBE225:
 264:Drivers/lvgl/src/core/lv_obj_pos.c **** }
 855              		.loc 1 264 5 is_stmt 1 view .LVU233
 264:Drivers/lvgl/src/core/lv_obj_pos.c **** }
 856              		.loc 1 264 30 is_stmt 0 view .LVU234
 857 0026 E119     		adds	r1, r4, r7
ARM GAS  /var/folders/0z/tsy30v1j4xl4_7kw94k978ww0000gn/T//cc4e96aK.s 			page 46


 264:Drivers/lvgl/src/core/lv_obj_pos.c **** }
 858              		.loc 1 264 37 view .LVU235
 859 0028 16FA81F1 		uxtah	r1, r6, r1
 264:Drivers/lvgl/src/core/lv_obj_pos.c **** }
 860              		.loc 1 264 51 view .LVU236
 861 002c 4000     		lsls	r0, r0, #1
 862              	.LVL69:
 264:Drivers/lvgl/src/core/lv_obj_pos.c **** }
 863              		.loc 1 264 51 view .LVU237
 864 002e 80B2     		uxth	r0, r0
 264:Drivers/lvgl/src/core/lv_obj_pos.c **** }
 865              		.loc 1 264 47 view .LVU238
 866 0030 10FA81F1 		uxtah	r1, r0, r1
 264:Drivers/lvgl/src/core/lv_obj_pos.c **** }
 867              		.loc 1 264 5 view .LVU239
 868 0034 09B2     		sxth	r1, r1
 869 0036 2846     		mov	r0, r5
 870 0038 FFF7FEFF 		bl	lv_obj_set_height
 871              	.LVL70:
 265:Drivers/lvgl/src/core/lv_obj_pos.c **** 
 872              		.loc 1 265 1 view .LVU240
 873 003c F8BD     		pop	{r3, r4, r5, r6, r7, pc}
 265:Drivers/lvgl/src/core/lv_obj_pos.c **** 
 874              		.loc 1 265 1 view .LVU241
 875              		.cfi_endproc
 876              	.LFE175:
 878              		.section	.text.lv_obj_is_layout_positioned,"ax",%progbits
 879              		.align	1
 880              		.global	lv_obj_is_layout_positioned
 881              		.syntax unified
 882              		.thumb
 883              		.thumb_func
 885              	lv_obj_is_layout_positioned:
 886              	.LVL71:
 887              	.LFB177:
 277:Drivers/lvgl/src/core/lv_obj_pos.c ****     if(lv_obj_has_flag_any(obj, LV_OBJ_FLAG_HIDDEN | LV_OBJ_FLAG_IGNORE_LAYOUT | LV_OBJ_FLAG_FLOATI
 888              		.loc 1 277 1 is_stmt 1 view -0
 889              		.cfi_startproc
 890              		@ args = 0, pretend = 0, frame = 0
 891              		@ frame_needed = 0, uses_anonymous_args = 0
 277:Drivers/lvgl/src/core/lv_obj_pos.c ****     if(lv_obj_has_flag_any(obj, LV_OBJ_FLAG_HIDDEN | LV_OBJ_FLAG_IGNORE_LAYOUT | LV_OBJ_FLAG_FLOATI
 892              		.loc 1 277 1 is_stmt 0 view .LVU243
 893 0000 38B5     		push	{r3, r4, r5, lr}
 894              		.cfi_def_cfa_offset 16
 895              		.cfi_offset 3, -16
 896              		.cfi_offset 4, -12
 897              		.cfi_offset 5, -8
 898              		.cfi_offset 14, -4
 899 0002 0446     		mov	r4, r0
 278:Drivers/lvgl/src/core/lv_obj_pos.c **** 
 900              		.loc 1 278 5 is_stmt 1 view .LVU244
 278:Drivers/lvgl/src/core/lv_obj_pos.c **** 
 901              		.loc 1 278 8 is_stmt 0 view .LVU245
 902 0004 0A49     		ldr	r1, .L53
 903 0006 FFF7FEFF 		bl	lv_obj_has_flag_any
 904              	.LVL72:
 278:Drivers/lvgl/src/core/lv_obj_pos.c **** 
ARM GAS  /var/folders/0z/tsy30v1j4xl4_7kw94k978ww0000gn/T//cc4e96aK.s 			page 47


 905              		.loc 1 278 7 view .LVU246
 906 000a 10B1     		cbz	r0, .L52
 278:Drivers/lvgl/src/core/lv_obj_pos.c **** 
 907              		.loc 1 278 112 view .LVU247
 908 000c 0025     		movs	r5, #0
 909              	.L49:
 286:Drivers/lvgl/src/core/lv_obj_pos.c **** 
 910              		.loc 1 286 1 view .LVU248
 911 000e 2846     		mov	r0, r5
 912 0010 38BD     		pop	{r3, r4, r5, pc}
 913              	.LVL73:
 914              	.L52:
 286:Drivers/lvgl/src/core/lv_obj_pos.c **** 
 915              		.loc 1 286 1 view .LVU249
 916 0012 0546     		mov	r5, r0
 280:Drivers/lvgl/src/core/lv_obj_pos.c ****     if(parent == NULL) return false;
 917              		.loc 1 280 5 is_stmt 1 view .LVU250
 280:Drivers/lvgl/src/core/lv_obj_pos.c ****     if(parent == NULL) return false;
 918              		.loc 1 280 25 is_stmt 0 view .LVU251
 919 0014 2046     		mov	r0, r4
 920 0016 FFF7FEFF 		bl	lv_obj_get_parent
 921              	.LVL74:
 281:Drivers/lvgl/src/core/lv_obj_pos.c **** 
 922              		.loc 1 281 5 is_stmt 1 view .LVU252
 281:Drivers/lvgl/src/core/lv_obj_pos.c **** 
 923              		.loc 1 281 7 is_stmt 0 view .LVU253
 924 001a 0028     		cmp	r0, #0
 925 001c F7D0     		beq	.L49
 283:Drivers/lvgl/src/core/lv_obj_pos.c ****     if(layout) return true;
 926              		.loc 1 283 5 is_stmt 1 view .LVU254
 927              	.LVL75:
 928              	.LBB227:
 929              	.LBI227:
 257:Drivers/lvgl/src/core/lv_obj_style_gen.h **** }
 258:Drivers/lvgl/src/core/lv_obj_style_gen.h **** 
 259:Drivers/lvgl/src/core/lv_obj_style_gen.h **** static inline lv_border_side_t lv_obj_get_style_border_side(const struct _lv_obj_t * obj, uint32_t 
 260:Drivers/lvgl/src/core/lv_obj_style_gen.h **** {
 261:Drivers/lvgl/src/core/lv_obj_style_gen.h ****     lv_style_value_t v = lv_obj_get_style_prop(obj, part, LV_STYLE_BORDER_SIDE);
 262:Drivers/lvgl/src/core/lv_obj_style_gen.h ****     return (lv_border_side_t)v.num;
 263:Drivers/lvgl/src/core/lv_obj_style_gen.h **** }
 264:Drivers/lvgl/src/core/lv_obj_style_gen.h **** 
 265:Drivers/lvgl/src/core/lv_obj_style_gen.h **** static inline bool lv_obj_get_style_border_post(const struct _lv_obj_t * obj, uint32_t part)
 266:Drivers/lvgl/src/core/lv_obj_style_gen.h **** {
 267:Drivers/lvgl/src/core/lv_obj_style_gen.h ****     lv_style_value_t v = lv_obj_get_style_prop(obj, part, LV_STYLE_BORDER_POST);
 268:Drivers/lvgl/src/core/lv_obj_style_gen.h ****     return (bool)v.num;
 269:Drivers/lvgl/src/core/lv_obj_style_gen.h **** }
 270:Drivers/lvgl/src/core/lv_obj_style_gen.h **** 
 271:Drivers/lvgl/src/core/lv_obj_style_gen.h **** static inline lv_coord_t lv_obj_get_style_outline_width(const struct _lv_obj_t * obj, uint32_t part
 272:Drivers/lvgl/src/core/lv_obj_style_gen.h **** {
 273:Drivers/lvgl/src/core/lv_obj_style_gen.h ****     lv_style_value_t v = lv_obj_get_style_prop(obj, part, LV_STYLE_OUTLINE_WIDTH);
 274:Drivers/lvgl/src/core/lv_obj_style_gen.h ****     return (lv_coord_t)v.num;
 275:Drivers/lvgl/src/core/lv_obj_style_gen.h **** }
 276:Drivers/lvgl/src/core/lv_obj_style_gen.h **** 
 277:Drivers/lvgl/src/core/lv_obj_style_gen.h **** static inline lv_color_t lv_obj_get_style_outline_color(const struct _lv_obj_t * obj, uint32_t part
 278:Drivers/lvgl/src/core/lv_obj_style_gen.h **** {
 279:Drivers/lvgl/src/core/lv_obj_style_gen.h ****     lv_style_value_t v = lv_obj_get_style_prop(obj, part, LV_STYLE_OUTLINE_COLOR);
 280:Drivers/lvgl/src/core/lv_obj_style_gen.h ****     return v.color;
ARM GAS  /var/folders/0z/tsy30v1j4xl4_7kw94k978ww0000gn/T//cc4e96aK.s 			page 48


 281:Drivers/lvgl/src/core/lv_obj_style_gen.h **** }
 282:Drivers/lvgl/src/core/lv_obj_style_gen.h **** 
 283:Drivers/lvgl/src/core/lv_obj_style_gen.h **** static inline lv_color_t lv_obj_get_style_outline_color_filtered(const struct _lv_obj_t * obj, uint
 284:Drivers/lvgl/src/core/lv_obj_style_gen.h **** {
 285:Drivers/lvgl/src/core/lv_obj_style_gen.h ****     lv_style_value_t v = _lv_obj_style_apply_color_filter(obj, part, lv_obj_get_style_prop(obj, par
 286:Drivers/lvgl/src/core/lv_obj_style_gen.h ****     return v.color;
 287:Drivers/lvgl/src/core/lv_obj_style_gen.h **** }
 288:Drivers/lvgl/src/core/lv_obj_style_gen.h **** 
 289:Drivers/lvgl/src/core/lv_obj_style_gen.h **** static inline lv_opa_t lv_obj_get_style_outline_opa(const struct _lv_obj_t * obj, uint32_t part)
 290:Drivers/lvgl/src/core/lv_obj_style_gen.h **** {
 291:Drivers/lvgl/src/core/lv_obj_style_gen.h ****     lv_style_value_t v = lv_obj_get_style_prop(obj, part, LV_STYLE_OUTLINE_OPA);
 292:Drivers/lvgl/src/core/lv_obj_style_gen.h ****     return (lv_opa_t)v.num;
 293:Drivers/lvgl/src/core/lv_obj_style_gen.h **** }
 294:Drivers/lvgl/src/core/lv_obj_style_gen.h **** 
 295:Drivers/lvgl/src/core/lv_obj_style_gen.h **** static inline lv_coord_t lv_obj_get_style_outline_pad(const struct _lv_obj_t * obj, uint32_t part)
 296:Drivers/lvgl/src/core/lv_obj_style_gen.h **** {
 297:Drivers/lvgl/src/core/lv_obj_style_gen.h ****     lv_style_value_t v = lv_obj_get_style_prop(obj, part, LV_STYLE_OUTLINE_PAD);
 298:Drivers/lvgl/src/core/lv_obj_style_gen.h ****     return (lv_coord_t)v.num;
 299:Drivers/lvgl/src/core/lv_obj_style_gen.h **** }
 300:Drivers/lvgl/src/core/lv_obj_style_gen.h **** 
 301:Drivers/lvgl/src/core/lv_obj_style_gen.h **** static inline lv_coord_t lv_obj_get_style_shadow_width(const struct _lv_obj_t * obj, uint32_t part)
 302:Drivers/lvgl/src/core/lv_obj_style_gen.h **** {
 303:Drivers/lvgl/src/core/lv_obj_style_gen.h ****     lv_style_value_t v = lv_obj_get_style_prop(obj, part, LV_STYLE_SHADOW_WIDTH);
 304:Drivers/lvgl/src/core/lv_obj_style_gen.h ****     return (lv_coord_t)v.num;
 305:Drivers/lvgl/src/core/lv_obj_style_gen.h **** }
 306:Drivers/lvgl/src/core/lv_obj_style_gen.h **** 
 307:Drivers/lvgl/src/core/lv_obj_style_gen.h **** static inline lv_coord_t lv_obj_get_style_shadow_ofs_x(const struct _lv_obj_t * obj, uint32_t part)
 308:Drivers/lvgl/src/core/lv_obj_style_gen.h **** {
 309:Drivers/lvgl/src/core/lv_obj_style_gen.h ****     lv_style_value_t v = lv_obj_get_style_prop(obj, part, LV_STYLE_SHADOW_OFS_X);
 310:Drivers/lvgl/src/core/lv_obj_style_gen.h ****     return (lv_coord_t)v.num;
 311:Drivers/lvgl/src/core/lv_obj_style_gen.h **** }
 312:Drivers/lvgl/src/core/lv_obj_style_gen.h **** 
 313:Drivers/lvgl/src/core/lv_obj_style_gen.h **** static inline lv_coord_t lv_obj_get_style_shadow_ofs_y(const struct _lv_obj_t * obj, uint32_t part)
 314:Drivers/lvgl/src/core/lv_obj_style_gen.h **** {
 315:Drivers/lvgl/src/core/lv_obj_style_gen.h ****     lv_style_value_t v = lv_obj_get_style_prop(obj, part, LV_STYLE_SHADOW_OFS_Y);
 316:Drivers/lvgl/src/core/lv_obj_style_gen.h ****     return (lv_coord_t)v.num;
 317:Drivers/lvgl/src/core/lv_obj_style_gen.h **** }
 318:Drivers/lvgl/src/core/lv_obj_style_gen.h **** 
 319:Drivers/lvgl/src/core/lv_obj_style_gen.h **** static inline lv_coord_t lv_obj_get_style_shadow_spread(const struct _lv_obj_t * obj, uint32_t part
 320:Drivers/lvgl/src/core/lv_obj_style_gen.h **** {
 321:Drivers/lvgl/src/core/lv_obj_style_gen.h ****     lv_style_value_t v = lv_obj_get_style_prop(obj, part, LV_STYLE_SHADOW_SPREAD);
 322:Drivers/lvgl/src/core/lv_obj_style_gen.h ****     return (lv_coord_t)v.num;
 323:Drivers/lvgl/src/core/lv_obj_style_gen.h **** }
 324:Drivers/lvgl/src/core/lv_obj_style_gen.h **** 
 325:Drivers/lvgl/src/core/lv_obj_style_gen.h **** static inline lv_color_t lv_obj_get_style_shadow_color(const struct _lv_obj_t * obj, uint32_t part)
 326:Drivers/lvgl/src/core/lv_obj_style_gen.h **** {
 327:Drivers/lvgl/src/core/lv_obj_style_gen.h ****     lv_style_value_t v = lv_obj_get_style_prop(obj, part, LV_STYLE_SHADOW_COLOR);
 328:Drivers/lvgl/src/core/lv_obj_style_gen.h ****     return v.color;
 329:Drivers/lvgl/src/core/lv_obj_style_gen.h **** }
 330:Drivers/lvgl/src/core/lv_obj_style_gen.h **** 
 331:Drivers/lvgl/src/core/lv_obj_style_gen.h **** static inline lv_color_t lv_obj_get_style_shadow_color_filtered(const struct _lv_obj_t * obj, uint3
 332:Drivers/lvgl/src/core/lv_obj_style_gen.h **** {
 333:Drivers/lvgl/src/core/lv_obj_style_gen.h ****     lv_style_value_t v = _lv_obj_style_apply_color_filter(obj, part, lv_obj_get_style_prop(obj, par
 334:Drivers/lvgl/src/core/lv_obj_style_gen.h ****     return v.color;
 335:Drivers/lvgl/src/core/lv_obj_style_gen.h **** }
 336:Drivers/lvgl/src/core/lv_obj_style_gen.h **** 
 337:Drivers/lvgl/src/core/lv_obj_style_gen.h **** static inline lv_opa_t lv_obj_get_style_shadow_opa(const struct _lv_obj_t * obj, uint32_t part)
ARM GAS  /var/folders/0z/tsy30v1j4xl4_7kw94k978ww0000gn/T//cc4e96aK.s 			page 49


 338:Drivers/lvgl/src/core/lv_obj_style_gen.h **** {
 339:Drivers/lvgl/src/core/lv_obj_style_gen.h ****     lv_style_value_t v = lv_obj_get_style_prop(obj, part, LV_STYLE_SHADOW_OPA);
 340:Drivers/lvgl/src/core/lv_obj_style_gen.h ****     return (lv_opa_t)v.num;
 341:Drivers/lvgl/src/core/lv_obj_style_gen.h **** }
 342:Drivers/lvgl/src/core/lv_obj_style_gen.h **** 
 343:Drivers/lvgl/src/core/lv_obj_style_gen.h **** static inline lv_opa_t lv_obj_get_style_img_opa(const struct _lv_obj_t * obj, uint32_t part)
 344:Drivers/lvgl/src/core/lv_obj_style_gen.h **** {
 345:Drivers/lvgl/src/core/lv_obj_style_gen.h ****     lv_style_value_t v = lv_obj_get_style_prop(obj, part, LV_STYLE_IMG_OPA);
 346:Drivers/lvgl/src/core/lv_obj_style_gen.h ****     return (lv_opa_t)v.num;
 347:Drivers/lvgl/src/core/lv_obj_style_gen.h **** }
 348:Drivers/lvgl/src/core/lv_obj_style_gen.h **** 
 349:Drivers/lvgl/src/core/lv_obj_style_gen.h **** static inline lv_color_t lv_obj_get_style_img_recolor(const struct _lv_obj_t * obj, uint32_t part)
 350:Drivers/lvgl/src/core/lv_obj_style_gen.h **** {
 351:Drivers/lvgl/src/core/lv_obj_style_gen.h ****     lv_style_value_t v = lv_obj_get_style_prop(obj, part, LV_STYLE_IMG_RECOLOR);
 352:Drivers/lvgl/src/core/lv_obj_style_gen.h ****     return v.color;
 353:Drivers/lvgl/src/core/lv_obj_style_gen.h **** }
 354:Drivers/lvgl/src/core/lv_obj_style_gen.h **** 
 355:Drivers/lvgl/src/core/lv_obj_style_gen.h **** static inline lv_color_t lv_obj_get_style_img_recolor_filtered(const struct _lv_obj_t * obj, uint32
 356:Drivers/lvgl/src/core/lv_obj_style_gen.h **** {
 357:Drivers/lvgl/src/core/lv_obj_style_gen.h ****     lv_style_value_t v = _lv_obj_style_apply_color_filter(obj, part, lv_obj_get_style_prop(obj, par
 358:Drivers/lvgl/src/core/lv_obj_style_gen.h ****     return v.color;
 359:Drivers/lvgl/src/core/lv_obj_style_gen.h **** }
 360:Drivers/lvgl/src/core/lv_obj_style_gen.h **** 
 361:Drivers/lvgl/src/core/lv_obj_style_gen.h **** static inline lv_opa_t lv_obj_get_style_img_recolor_opa(const struct _lv_obj_t * obj, uint32_t part
 362:Drivers/lvgl/src/core/lv_obj_style_gen.h **** {
 363:Drivers/lvgl/src/core/lv_obj_style_gen.h ****     lv_style_value_t v = lv_obj_get_style_prop(obj, part, LV_STYLE_IMG_RECOLOR_OPA);
 364:Drivers/lvgl/src/core/lv_obj_style_gen.h ****     return (lv_opa_t)v.num;
 365:Drivers/lvgl/src/core/lv_obj_style_gen.h **** }
 366:Drivers/lvgl/src/core/lv_obj_style_gen.h **** 
 367:Drivers/lvgl/src/core/lv_obj_style_gen.h **** static inline lv_coord_t lv_obj_get_style_line_width(const struct _lv_obj_t * obj, uint32_t part)
 368:Drivers/lvgl/src/core/lv_obj_style_gen.h **** {
 369:Drivers/lvgl/src/core/lv_obj_style_gen.h ****     lv_style_value_t v = lv_obj_get_style_prop(obj, part, LV_STYLE_LINE_WIDTH);
 370:Drivers/lvgl/src/core/lv_obj_style_gen.h ****     return (lv_coord_t)v.num;
 371:Drivers/lvgl/src/core/lv_obj_style_gen.h **** }
 372:Drivers/lvgl/src/core/lv_obj_style_gen.h **** 
 373:Drivers/lvgl/src/core/lv_obj_style_gen.h **** static inline lv_coord_t lv_obj_get_style_line_dash_width(const struct _lv_obj_t * obj, uint32_t pa
 374:Drivers/lvgl/src/core/lv_obj_style_gen.h **** {
 375:Drivers/lvgl/src/core/lv_obj_style_gen.h ****     lv_style_value_t v = lv_obj_get_style_prop(obj, part, LV_STYLE_LINE_DASH_WIDTH);
 376:Drivers/lvgl/src/core/lv_obj_style_gen.h ****     return (lv_coord_t)v.num;
 377:Drivers/lvgl/src/core/lv_obj_style_gen.h **** }
 378:Drivers/lvgl/src/core/lv_obj_style_gen.h **** 
 379:Drivers/lvgl/src/core/lv_obj_style_gen.h **** static inline lv_coord_t lv_obj_get_style_line_dash_gap(const struct _lv_obj_t * obj, uint32_t part
 380:Drivers/lvgl/src/core/lv_obj_style_gen.h **** {
 381:Drivers/lvgl/src/core/lv_obj_style_gen.h ****     lv_style_value_t v = lv_obj_get_style_prop(obj, part, LV_STYLE_LINE_DASH_GAP);
 382:Drivers/lvgl/src/core/lv_obj_style_gen.h ****     return (lv_coord_t)v.num;
 383:Drivers/lvgl/src/core/lv_obj_style_gen.h **** }
 384:Drivers/lvgl/src/core/lv_obj_style_gen.h **** 
 385:Drivers/lvgl/src/core/lv_obj_style_gen.h **** static inline bool lv_obj_get_style_line_rounded(const struct _lv_obj_t * obj, uint32_t part)
 386:Drivers/lvgl/src/core/lv_obj_style_gen.h **** {
 387:Drivers/lvgl/src/core/lv_obj_style_gen.h ****     lv_style_value_t v = lv_obj_get_style_prop(obj, part, LV_STYLE_LINE_ROUNDED);
 388:Drivers/lvgl/src/core/lv_obj_style_gen.h ****     return (bool)v.num;
 389:Drivers/lvgl/src/core/lv_obj_style_gen.h **** }
 390:Drivers/lvgl/src/core/lv_obj_style_gen.h **** 
 391:Drivers/lvgl/src/core/lv_obj_style_gen.h **** static inline lv_color_t lv_obj_get_style_line_color(const struct _lv_obj_t * obj, uint32_t part)
 392:Drivers/lvgl/src/core/lv_obj_style_gen.h **** {
 393:Drivers/lvgl/src/core/lv_obj_style_gen.h ****     lv_style_value_t v = lv_obj_get_style_prop(obj, part, LV_STYLE_LINE_COLOR);
 394:Drivers/lvgl/src/core/lv_obj_style_gen.h ****     return v.color;
ARM GAS  /var/folders/0z/tsy30v1j4xl4_7kw94k978ww0000gn/T//cc4e96aK.s 			page 50


 395:Drivers/lvgl/src/core/lv_obj_style_gen.h **** }
 396:Drivers/lvgl/src/core/lv_obj_style_gen.h **** 
 397:Drivers/lvgl/src/core/lv_obj_style_gen.h **** static inline lv_color_t lv_obj_get_style_line_color_filtered(const struct _lv_obj_t * obj, uint32_
 398:Drivers/lvgl/src/core/lv_obj_style_gen.h **** {
 399:Drivers/lvgl/src/core/lv_obj_style_gen.h ****     lv_style_value_t v = _lv_obj_style_apply_color_filter(obj, part, lv_obj_get_style_prop(obj, par
 400:Drivers/lvgl/src/core/lv_obj_style_gen.h ****     return v.color;
 401:Drivers/lvgl/src/core/lv_obj_style_gen.h **** }
 402:Drivers/lvgl/src/core/lv_obj_style_gen.h **** 
 403:Drivers/lvgl/src/core/lv_obj_style_gen.h **** static inline lv_opa_t lv_obj_get_style_line_opa(const struct _lv_obj_t * obj, uint32_t part)
 404:Drivers/lvgl/src/core/lv_obj_style_gen.h **** {
 405:Drivers/lvgl/src/core/lv_obj_style_gen.h ****     lv_style_value_t v = lv_obj_get_style_prop(obj, part, LV_STYLE_LINE_OPA);
 406:Drivers/lvgl/src/core/lv_obj_style_gen.h ****     return (lv_opa_t)v.num;
 407:Drivers/lvgl/src/core/lv_obj_style_gen.h **** }
 408:Drivers/lvgl/src/core/lv_obj_style_gen.h **** 
 409:Drivers/lvgl/src/core/lv_obj_style_gen.h **** static inline lv_coord_t lv_obj_get_style_arc_width(const struct _lv_obj_t * obj, uint32_t part)
 410:Drivers/lvgl/src/core/lv_obj_style_gen.h **** {
 411:Drivers/lvgl/src/core/lv_obj_style_gen.h ****     lv_style_value_t v = lv_obj_get_style_prop(obj, part, LV_STYLE_ARC_WIDTH);
 412:Drivers/lvgl/src/core/lv_obj_style_gen.h ****     return (lv_coord_t)v.num;
 413:Drivers/lvgl/src/core/lv_obj_style_gen.h **** }
 414:Drivers/lvgl/src/core/lv_obj_style_gen.h **** 
 415:Drivers/lvgl/src/core/lv_obj_style_gen.h **** static inline bool lv_obj_get_style_arc_rounded(const struct _lv_obj_t * obj, uint32_t part)
 416:Drivers/lvgl/src/core/lv_obj_style_gen.h **** {
 417:Drivers/lvgl/src/core/lv_obj_style_gen.h ****     lv_style_value_t v = lv_obj_get_style_prop(obj, part, LV_STYLE_ARC_ROUNDED);
 418:Drivers/lvgl/src/core/lv_obj_style_gen.h ****     return (bool)v.num;
 419:Drivers/lvgl/src/core/lv_obj_style_gen.h **** }
 420:Drivers/lvgl/src/core/lv_obj_style_gen.h **** 
 421:Drivers/lvgl/src/core/lv_obj_style_gen.h **** static inline lv_color_t lv_obj_get_style_arc_color(const struct _lv_obj_t * obj, uint32_t part)
 422:Drivers/lvgl/src/core/lv_obj_style_gen.h **** {
 423:Drivers/lvgl/src/core/lv_obj_style_gen.h ****     lv_style_value_t v = lv_obj_get_style_prop(obj, part, LV_STYLE_ARC_COLOR);
 424:Drivers/lvgl/src/core/lv_obj_style_gen.h ****     return v.color;
 425:Drivers/lvgl/src/core/lv_obj_style_gen.h **** }
 426:Drivers/lvgl/src/core/lv_obj_style_gen.h **** 
 427:Drivers/lvgl/src/core/lv_obj_style_gen.h **** static inline lv_color_t lv_obj_get_style_arc_color_filtered(const struct _lv_obj_t * obj, uint32_t
 428:Drivers/lvgl/src/core/lv_obj_style_gen.h **** {
 429:Drivers/lvgl/src/core/lv_obj_style_gen.h ****     lv_style_value_t v = _lv_obj_style_apply_color_filter(obj, part, lv_obj_get_style_prop(obj, par
 430:Drivers/lvgl/src/core/lv_obj_style_gen.h ****     return v.color;
 431:Drivers/lvgl/src/core/lv_obj_style_gen.h **** }
 432:Drivers/lvgl/src/core/lv_obj_style_gen.h **** 
 433:Drivers/lvgl/src/core/lv_obj_style_gen.h **** static inline lv_opa_t lv_obj_get_style_arc_opa(const struct _lv_obj_t * obj, uint32_t part)
 434:Drivers/lvgl/src/core/lv_obj_style_gen.h **** {
 435:Drivers/lvgl/src/core/lv_obj_style_gen.h ****     lv_style_value_t v = lv_obj_get_style_prop(obj, part, LV_STYLE_ARC_OPA);
 436:Drivers/lvgl/src/core/lv_obj_style_gen.h ****     return (lv_opa_t)v.num;
 437:Drivers/lvgl/src/core/lv_obj_style_gen.h **** }
 438:Drivers/lvgl/src/core/lv_obj_style_gen.h **** 
 439:Drivers/lvgl/src/core/lv_obj_style_gen.h **** static inline const void * lv_obj_get_style_arc_img_src(const struct _lv_obj_t * obj, uint32_t part
 440:Drivers/lvgl/src/core/lv_obj_style_gen.h **** {
 441:Drivers/lvgl/src/core/lv_obj_style_gen.h ****     lv_style_value_t v = lv_obj_get_style_prop(obj, part, LV_STYLE_ARC_IMG_SRC);
 442:Drivers/lvgl/src/core/lv_obj_style_gen.h ****     return (const void *)v.ptr;
 443:Drivers/lvgl/src/core/lv_obj_style_gen.h **** }
 444:Drivers/lvgl/src/core/lv_obj_style_gen.h **** 
 445:Drivers/lvgl/src/core/lv_obj_style_gen.h **** static inline lv_color_t lv_obj_get_style_text_color(const struct _lv_obj_t * obj, uint32_t part)
 446:Drivers/lvgl/src/core/lv_obj_style_gen.h **** {
 447:Drivers/lvgl/src/core/lv_obj_style_gen.h ****     lv_style_value_t v = lv_obj_get_style_prop(obj, part, LV_STYLE_TEXT_COLOR);
 448:Drivers/lvgl/src/core/lv_obj_style_gen.h ****     return v.color;
 449:Drivers/lvgl/src/core/lv_obj_style_gen.h **** }
 450:Drivers/lvgl/src/core/lv_obj_style_gen.h **** 
 451:Drivers/lvgl/src/core/lv_obj_style_gen.h **** static inline lv_color_t lv_obj_get_style_text_color_filtered(const struct _lv_obj_t * obj, uint32_
ARM GAS  /var/folders/0z/tsy30v1j4xl4_7kw94k978ww0000gn/T//cc4e96aK.s 			page 51


 452:Drivers/lvgl/src/core/lv_obj_style_gen.h **** {
 453:Drivers/lvgl/src/core/lv_obj_style_gen.h ****     lv_style_value_t v = _lv_obj_style_apply_color_filter(obj, part, lv_obj_get_style_prop(obj, par
 454:Drivers/lvgl/src/core/lv_obj_style_gen.h ****     return v.color;
 455:Drivers/lvgl/src/core/lv_obj_style_gen.h **** }
 456:Drivers/lvgl/src/core/lv_obj_style_gen.h **** 
 457:Drivers/lvgl/src/core/lv_obj_style_gen.h **** static inline lv_opa_t lv_obj_get_style_text_opa(const struct _lv_obj_t * obj, uint32_t part)
 458:Drivers/lvgl/src/core/lv_obj_style_gen.h **** {
 459:Drivers/lvgl/src/core/lv_obj_style_gen.h ****     lv_style_value_t v = lv_obj_get_style_prop(obj, part, LV_STYLE_TEXT_OPA);
 460:Drivers/lvgl/src/core/lv_obj_style_gen.h ****     return (lv_opa_t)v.num;
 461:Drivers/lvgl/src/core/lv_obj_style_gen.h **** }
 462:Drivers/lvgl/src/core/lv_obj_style_gen.h **** 
 463:Drivers/lvgl/src/core/lv_obj_style_gen.h **** static inline const lv_font_t * lv_obj_get_style_text_font(const struct _lv_obj_t * obj, uint32_t p
 464:Drivers/lvgl/src/core/lv_obj_style_gen.h **** {
 465:Drivers/lvgl/src/core/lv_obj_style_gen.h ****     lv_style_value_t v = lv_obj_get_style_prop(obj, part, LV_STYLE_TEXT_FONT);
 466:Drivers/lvgl/src/core/lv_obj_style_gen.h ****     return (const lv_font_t *)v.ptr;
 467:Drivers/lvgl/src/core/lv_obj_style_gen.h **** }
 468:Drivers/lvgl/src/core/lv_obj_style_gen.h **** 
 469:Drivers/lvgl/src/core/lv_obj_style_gen.h **** static inline lv_coord_t lv_obj_get_style_text_letter_space(const struct _lv_obj_t * obj, uint32_t 
 470:Drivers/lvgl/src/core/lv_obj_style_gen.h **** {
 471:Drivers/lvgl/src/core/lv_obj_style_gen.h ****     lv_style_value_t v = lv_obj_get_style_prop(obj, part, LV_STYLE_TEXT_LETTER_SPACE);
 472:Drivers/lvgl/src/core/lv_obj_style_gen.h ****     return (lv_coord_t)v.num;
 473:Drivers/lvgl/src/core/lv_obj_style_gen.h **** }
 474:Drivers/lvgl/src/core/lv_obj_style_gen.h **** 
 475:Drivers/lvgl/src/core/lv_obj_style_gen.h **** static inline lv_coord_t lv_obj_get_style_text_line_space(const struct _lv_obj_t * obj, uint32_t pa
 476:Drivers/lvgl/src/core/lv_obj_style_gen.h **** {
 477:Drivers/lvgl/src/core/lv_obj_style_gen.h ****     lv_style_value_t v = lv_obj_get_style_prop(obj, part, LV_STYLE_TEXT_LINE_SPACE);
 478:Drivers/lvgl/src/core/lv_obj_style_gen.h ****     return (lv_coord_t)v.num;
 479:Drivers/lvgl/src/core/lv_obj_style_gen.h **** }
 480:Drivers/lvgl/src/core/lv_obj_style_gen.h **** 
 481:Drivers/lvgl/src/core/lv_obj_style_gen.h **** static inline lv_text_decor_t lv_obj_get_style_text_decor(const struct _lv_obj_t * obj, uint32_t pa
 482:Drivers/lvgl/src/core/lv_obj_style_gen.h **** {
 483:Drivers/lvgl/src/core/lv_obj_style_gen.h ****     lv_style_value_t v = lv_obj_get_style_prop(obj, part, LV_STYLE_TEXT_DECOR);
 484:Drivers/lvgl/src/core/lv_obj_style_gen.h ****     return (lv_text_decor_t)v.num;
 485:Drivers/lvgl/src/core/lv_obj_style_gen.h **** }
 486:Drivers/lvgl/src/core/lv_obj_style_gen.h **** 
 487:Drivers/lvgl/src/core/lv_obj_style_gen.h **** static inline lv_text_align_t lv_obj_get_style_text_align(const struct _lv_obj_t * obj, uint32_t pa
 488:Drivers/lvgl/src/core/lv_obj_style_gen.h **** {
 489:Drivers/lvgl/src/core/lv_obj_style_gen.h ****     lv_style_value_t v = lv_obj_get_style_prop(obj, part, LV_STYLE_TEXT_ALIGN);
 490:Drivers/lvgl/src/core/lv_obj_style_gen.h ****     return (lv_text_align_t)v.num;
 491:Drivers/lvgl/src/core/lv_obj_style_gen.h **** }
 492:Drivers/lvgl/src/core/lv_obj_style_gen.h **** 
 493:Drivers/lvgl/src/core/lv_obj_style_gen.h **** static inline lv_coord_t lv_obj_get_style_radius(const struct _lv_obj_t * obj, uint32_t part)
 494:Drivers/lvgl/src/core/lv_obj_style_gen.h **** {
 495:Drivers/lvgl/src/core/lv_obj_style_gen.h ****     lv_style_value_t v = lv_obj_get_style_prop(obj, part, LV_STYLE_RADIUS);
 496:Drivers/lvgl/src/core/lv_obj_style_gen.h ****     return (lv_coord_t)v.num;
 497:Drivers/lvgl/src/core/lv_obj_style_gen.h **** }
 498:Drivers/lvgl/src/core/lv_obj_style_gen.h **** 
 499:Drivers/lvgl/src/core/lv_obj_style_gen.h **** static inline bool lv_obj_get_style_clip_corner(const struct _lv_obj_t * obj, uint32_t part)
 500:Drivers/lvgl/src/core/lv_obj_style_gen.h **** {
 501:Drivers/lvgl/src/core/lv_obj_style_gen.h ****     lv_style_value_t v = lv_obj_get_style_prop(obj, part, LV_STYLE_CLIP_CORNER);
 502:Drivers/lvgl/src/core/lv_obj_style_gen.h ****     return (bool)v.num;
 503:Drivers/lvgl/src/core/lv_obj_style_gen.h **** }
 504:Drivers/lvgl/src/core/lv_obj_style_gen.h **** 
 505:Drivers/lvgl/src/core/lv_obj_style_gen.h **** static inline lv_opa_t lv_obj_get_style_opa(const struct _lv_obj_t * obj, uint32_t part)
 506:Drivers/lvgl/src/core/lv_obj_style_gen.h **** {
 507:Drivers/lvgl/src/core/lv_obj_style_gen.h ****     lv_style_value_t v = lv_obj_get_style_prop(obj, part, LV_STYLE_OPA);
 508:Drivers/lvgl/src/core/lv_obj_style_gen.h ****     return (lv_opa_t)v.num;
ARM GAS  /var/folders/0z/tsy30v1j4xl4_7kw94k978ww0000gn/T//cc4e96aK.s 			page 52


 509:Drivers/lvgl/src/core/lv_obj_style_gen.h **** }
 510:Drivers/lvgl/src/core/lv_obj_style_gen.h **** 
 511:Drivers/lvgl/src/core/lv_obj_style_gen.h **** static inline lv_opa_t lv_obj_get_style_opa_layered(const struct _lv_obj_t * obj, uint32_t part)
 512:Drivers/lvgl/src/core/lv_obj_style_gen.h **** {
 513:Drivers/lvgl/src/core/lv_obj_style_gen.h ****     lv_style_value_t v = lv_obj_get_style_prop(obj, part, LV_STYLE_OPA_LAYERED);
 514:Drivers/lvgl/src/core/lv_obj_style_gen.h ****     return (lv_opa_t)v.num;
 515:Drivers/lvgl/src/core/lv_obj_style_gen.h **** }
 516:Drivers/lvgl/src/core/lv_obj_style_gen.h **** 
 517:Drivers/lvgl/src/core/lv_obj_style_gen.h **** static inline const lv_color_filter_dsc_t * lv_obj_get_style_color_filter_dsc(const struct _lv_obj_
 518:Drivers/lvgl/src/core/lv_obj_style_gen.h **** {
 519:Drivers/lvgl/src/core/lv_obj_style_gen.h ****     lv_style_value_t v = lv_obj_get_style_prop(obj, part, LV_STYLE_COLOR_FILTER_DSC);
 520:Drivers/lvgl/src/core/lv_obj_style_gen.h ****     return (const lv_color_filter_dsc_t *)v.ptr;
 521:Drivers/lvgl/src/core/lv_obj_style_gen.h **** }
 522:Drivers/lvgl/src/core/lv_obj_style_gen.h **** 
 523:Drivers/lvgl/src/core/lv_obj_style_gen.h **** static inline lv_opa_t lv_obj_get_style_color_filter_opa(const struct _lv_obj_t * obj, uint32_t par
 524:Drivers/lvgl/src/core/lv_obj_style_gen.h **** {
 525:Drivers/lvgl/src/core/lv_obj_style_gen.h ****     lv_style_value_t v = lv_obj_get_style_prop(obj, part, LV_STYLE_COLOR_FILTER_OPA);
 526:Drivers/lvgl/src/core/lv_obj_style_gen.h ****     return (lv_opa_t)v.num;
 527:Drivers/lvgl/src/core/lv_obj_style_gen.h **** }
 528:Drivers/lvgl/src/core/lv_obj_style_gen.h **** 
 529:Drivers/lvgl/src/core/lv_obj_style_gen.h **** static inline const lv_anim_t * lv_obj_get_style_anim(const struct _lv_obj_t * obj, uint32_t part)
 530:Drivers/lvgl/src/core/lv_obj_style_gen.h **** {
 531:Drivers/lvgl/src/core/lv_obj_style_gen.h ****     lv_style_value_t v = lv_obj_get_style_prop(obj, part, LV_STYLE_ANIM);
 532:Drivers/lvgl/src/core/lv_obj_style_gen.h ****     return (const lv_anim_t *)v.ptr;
 533:Drivers/lvgl/src/core/lv_obj_style_gen.h **** }
 534:Drivers/lvgl/src/core/lv_obj_style_gen.h **** 
 535:Drivers/lvgl/src/core/lv_obj_style_gen.h **** static inline uint32_t lv_obj_get_style_anim_time(const struct _lv_obj_t * obj, uint32_t part)
 536:Drivers/lvgl/src/core/lv_obj_style_gen.h **** {
 537:Drivers/lvgl/src/core/lv_obj_style_gen.h ****     lv_style_value_t v = lv_obj_get_style_prop(obj, part, LV_STYLE_ANIM_TIME);
 538:Drivers/lvgl/src/core/lv_obj_style_gen.h ****     return (uint32_t)v.num;
 539:Drivers/lvgl/src/core/lv_obj_style_gen.h **** }
 540:Drivers/lvgl/src/core/lv_obj_style_gen.h **** 
 541:Drivers/lvgl/src/core/lv_obj_style_gen.h **** static inline uint32_t lv_obj_get_style_anim_speed(const struct _lv_obj_t * obj, uint32_t part)
 542:Drivers/lvgl/src/core/lv_obj_style_gen.h **** {
 543:Drivers/lvgl/src/core/lv_obj_style_gen.h ****     lv_style_value_t v = lv_obj_get_style_prop(obj, part, LV_STYLE_ANIM_SPEED);
 544:Drivers/lvgl/src/core/lv_obj_style_gen.h ****     return (uint32_t)v.num;
 545:Drivers/lvgl/src/core/lv_obj_style_gen.h **** }
 546:Drivers/lvgl/src/core/lv_obj_style_gen.h **** 
 547:Drivers/lvgl/src/core/lv_obj_style_gen.h **** static inline const lv_style_transition_dsc_t * lv_obj_get_style_transition(const struct _lv_obj_t 
 548:Drivers/lvgl/src/core/lv_obj_style_gen.h **** {
 549:Drivers/lvgl/src/core/lv_obj_style_gen.h ****     lv_style_value_t v = lv_obj_get_style_prop(obj, part, LV_STYLE_TRANSITION);
 550:Drivers/lvgl/src/core/lv_obj_style_gen.h ****     return (const lv_style_transition_dsc_t *)v.ptr;
 551:Drivers/lvgl/src/core/lv_obj_style_gen.h **** }
 552:Drivers/lvgl/src/core/lv_obj_style_gen.h **** 
 553:Drivers/lvgl/src/core/lv_obj_style_gen.h **** static inline lv_blend_mode_t lv_obj_get_style_blend_mode(const struct _lv_obj_t * obj, uint32_t pa
 554:Drivers/lvgl/src/core/lv_obj_style_gen.h **** {
 555:Drivers/lvgl/src/core/lv_obj_style_gen.h ****     lv_style_value_t v = lv_obj_get_style_prop(obj, part, LV_STYLE_BLEND_MODE);
 556:Drivers/lvgl/src/core/lv_obj_style_gen.h ****     return (lv_blend_mode_t)v.num;
 557:Drivers/lvgl/src/core/lv_obj_style_gen.h **** }
 558:Drivers/lvgl/src/core/lv_obj_style_gen.h **** 
 559:Drivers/lvgl/src/core/lv_obj_style_gen.h **** static inline uint16_t lv_obj_get_style_layout(const struct _lv_obj_t * obj, uint32_t part)
 930              		.loc 2 559 24 view .LVU255
 931              	.LBB228:
 560:Drivers/lvgl/src/core/lv_obj_style_gen.h **** {
 561:Drivers/lvgl/src/core/lv_obj_style_gen.h ****     lv_style_value_t v = lv_obj_get_style_prop(obj, part, LV_STYLE_LAYOUT);
 932              		.loc 2 561 5 view .LVU256
 933              		.loc 2 561 26 is_stmt 0 view .LVU257
ARM GAS  /var/folders/0z/tsy30v1j4xl4_7kw94k978ww0000gn/T//cc4e96aK.s 			page 53


 934 001e 0A22     		movs	r2, #10
 935 0020 0021     		movs	r1, #0
 936 0022 FFF7FEFF 		bl	lv_obj_get_style_prop
 937              	.LVL76:
 562:Drivers/lvgl/src/core/lv_obj_style_gen.h ****     return (uint16_t)v.num;
 938              		.loc 2 562 5 is_stmt 1 view .LVU258
 939              		.loc 2 562 5 is_stmt 0 view .LVU259
 940              	.LBE228:
 941              	.LBE227:
 284:Drivers/lvgl/src/core/lv_obj_pos.c ****     else return false;
 942              		.loc 1 284 5 is_stmt 1 view .LVU260
 284:Drivers/lvgl/src/core/lv_obj_pos.c ****     else return false;
 943              		.loc 1 284 7 is_stmt 0 view .LVU261
 944 0026 80B2     		uxth	r0, r0
 945              	.LVL77:
 284:Drivers/lvgl/src/core/lv_obj_pos.c ****     else return false;
 946              		.loc 1 284 7 view .LVU262
 947 0028 0028     		cmp	r0, #0
 948 002a F0D0     		beq	.L49
 284:Drivers/lvgl/src/core/lv_obj_pos.c ****     else return false;
 949              		.loc 1 284 23 view .LVU263
 950 002c 0125     		movs	r5, #1
 951 002e EEE7     		b	.L49
 952              	.L54:
 953              		.align	2
 954              	.L53:
 955 0030 01000600 		.word	393217
 956              		.cfi_endproc
 957              	.LFE177:
 959              		.section	.text.lv_obj_mark_layout_as_dirty,"ax",%progbits
 960              		.align	1
 961              		.global	lv_obj_mark_layout_as_dirty
 962              		.syntax unified
 963              		.thumb
 964              		.thumb_func
 966              	lv_obj_mark_layout_as_dirty:
 967              	.LVL78:
 968              	.LFB178:
 289:Drivers/lvgl/src/core/lv_obj_pos.c ****     obj->layout_inv = 1;
 969              		.loc 1 289 1 is_stmt 1 view -0
 970              		.cfi_startproc
 971              		@ args = 0, pretend = 0, frame = 0
 972              		@ frame_needed = 0, uses_anonymous_args = 0
 289:Drivers/lvgl/src/core/lv_obj_pos.c ****     obj->layout_inv = 1;
 973              		.loc 1 289 1 is_stmt 0 view .LVU265
 974 0000 08B5     		push	{r3, lr}
 975              		.cfi_def_cfa_offset 8
 976              		.cfi_offset 3, -8
 977              		.cfi_offset 14, -4
 290:Drivers/lvgl/src/core/lv_obj_pos.c **** 
 978              		.loc 1 290 5 is_stmt 1 view .LVU266
 290:Drivers/lvgl/src/core/lv_obj_pos.c **** 
 979              		.loc 1 290 21 is_stmt 0 view .LVU267
 980 0002 90F82220 		ldrb	r2, [r0, #34]	@ zero_extendqisi2
 981 0006 42F00102 		orr	r2, r2, #1
 982 000a 80F82220 		strb	r2, [r0, #34]
 293:Drivers/lvgl/src/core/lv_obj_pos.c ****     scr->scr_layout_inv = 1;
ARM GAS  /var/folders/0z/tsy30v1j4xl4_7kw94k978ww0000gn/T//cc4e96aK.s 			page 54


 983              		.loc 1 293 5 is_stmt 1 view .LVU268
 293:Drivers/lvgl/src/core/lv_obj_pos.c ****     scr->scr_layout_inv = 1;
 984              		.loc 1 293 22 is_stmt 0 view .LVU269
 985 000e FFF7FEFF 		bl	lv_obj_get_screen
 986              	.LVL79:
 294:Drivers/lvgl/src/core/lv_obj_pos.c **** 
 987              		.loc 1 294 5 is_stmt 1 view .LVU270
 294:Drivers/lvgl/src/core/lv_obj_pos.c **** 
 988              		.loc 1 294 25 is_stmt 0 view .LVU271
 989 0012 90F82220 		ldrb	r2, [r0, #34]	@ zero_extendqisi2
 990 0016 42F00402 		orr	r2, r2, #4
 991 001a 80F82220 		strb	r2, [r0, #34]
 297:Drivers/lvgl/src/core/lv_obj_pos.c ****     if(disp->refr_timer) lv_timer_resume(disp->refr_timer);
 992              		.loc 1 297 5 is_stmt 1 view .LVU272
 297:Drivers/lvgl/src/core/lv_obj_pos.c ****     if(disp->refr_timer) lv_timer_resume(disp->refr_timer);
 993              		.loc 1 297 24 is_stmt 0 view .LVU273
 994 001e FFF7FEFF 		bl	lv_obj_get_disp
 995              	.LVL80:
 298:Drivers/lvgl/src/core/lv_obj_pos.c **** }
 996              		.loc 1 298 5 is_stmt 1 view .LVU274
 298:Drivers/lvgl/src/core/lv_obj_pos.c **** }
 997              		.loc 1 298 12 is_stmt 0 view .LVU275
 998 0022 4068     		ldr	r0, [r0, #4]
 999              	.LVL81:
 298:Drivers/lvgl/src/core/lv_obj_pos.c **** }
 1000              		.loc 1 298 7 view .LVU276
 1001 0024 08B1     		cbz	r0, .L55
 298:Drivers/lvgl/src/core/lv_obj_pos.c **** }
 1002              		.loc 1 298 26 is_stmt 1 discriminator 1 view .LVU277
 1003 0026 FFF7FEFF 		bl	lv_timer_resume
 1004              	.LVL82:
 1005              	.L55:
 299:Drivers/lvgl/src/core/lv_obj_pos.c **** 
 1006              		.loc 1 299 1 is_stmt 0 view .LVU278
 1007 002a 08BD     		pop	{r3, pc}
 1008              		.cfi_endproc
 1009              	.LFE178:
 1011              		.section	.text.lv_obj_set_layout,"ax",%progbits
 1012              		.align	1
 1013              		.global	lv_obj_set_layout
 1014              		.syntax unified
 1015              		.thumb
 1016              		.thumb_func
 1018              	lv_obj_set_layout:
 1019              	.LVL83:
 1020              	.LFB176:
 268:Drivers/lvgl/src/core/lv_obj_pos.c ****     LV_ASSERT_OBJ(obj, MY_CLASS);
 1021              		.loc 1 268 1 is_stmt 1 view -0
 1022              		.cfi_startproc
 1023              		@ args = 0, pretend = 0, frame = 0
 1024              		@ frame_needed = 0, uses_anonymous_args = 0
 268:Drivers/lvgl/src/core/lv_obj_pos.c ****     LV_ASSERT_OBJ(obj, MY_CLASS);
 1025              		.loc 1 268 1 is_stmt 0 view .LVU280
 1026 0000 10B5     		push	{r4, lr}
 1027              		.cfi_def_cfa_offset 8
 1028              		.cfi_offset 4, -8
 1029              		.cfi_offset 14, -4
ARM GAS  /var/folders/0z/tsy30v1j4xl4_7kw94k978ww0000gn/T//cc4e96aK.s 			page 55


 1030 0002 0446     		mov	r4, r0
 269:Drivers/lvgl/src/core/lv_obj_pos.c **** 
 1031              		.loc 1 269 5 is_stmt 1 view .LVU281
 269:Drivers/lvgl/src/core/lv_obj_pos.c **** 
 1032              		.loc 1 269 5 view .LVU282
 269:Drivers/lvgl/src/core/lv_obj_pos.c **** 
 1033              		.loc 1 269 5 view .LVU283
 271:Drivers/lvgl/src/core/lv_obj_pos.c **** 
 1034              		.loc 1 271 5 view .LVU284
 1035 0004 0022     		movs	r2, #0
 1036 0006 89B2     		uxth	r1, r1
 1037              	.LVL84:
 271:Drivers/lvgl/src/core/lv_obj_pos.c **** 
 1038              		.loc 1 271 5 is_stmt 0 view .LVU285
 1039 0008 FFF7FEFF 		bl	lv_obj_set_style_layout
 1040              	.LVL85:
 273:Drivers/lvgl/src/core/lv_obj_pos.c **** }
 1041              		.loc 1 273 5 is_stmt 1 view .LVU286
 1042 000c 2046     		mov	r0, r4
 1043 000e FFF7FEFF 		bl	lv_obj_mark_layout_as_dirty
 1044              	.LVL86:
 274:Drivers/lvgl/src/core/lv_obj_pos.c **** 
 1045              		.loc 1 274 1 is_stmt 0 view .LVU287
 1046 0012 10BD     		pop	{r4, pc}
 274:Drivers/lvgl/src/core/lv_obj_pos.c **** 
 1047              		.loc 1 274 1 view .LVU288
 1048              		.cfi_endproc
 1049              	.LFE176:
 1051              		.section	.text.lv_layout_register,"ax",%progbits
 1052              		.align	1
 1053              		.global	lv_layout_register
 1054              		.syntax unified
 1055              		.thumb
 1056              		.thumb_func
 1058              	lv_layout_register:
 1059              	.LVL87:
 1060              	.LFB180:
 324:Drivers/lvgl/src/core/lv_obj_pos.c ****     layout_cnt++;
 1061              		.loc 1 324 1 is_stmt 1 view -0
 1062              		.cfi_startproc
 1063              		@ args = 0, pretend = 0, frame = 0
 1064              		@ frame_needed = 0, uses_anonymous_args = 0
 324:Drivers/lvgl/src/core/lv_obj_pos.c ****     layout_cnt++;
 1065              		.loc 1 324 1 is_stmt 0 view .LVU290
 1066 0000 70B5     		push	{r4, r5, r6, lr}
 1067              		.cfi_def_cfa_offset 16
 1068              		.cfi_offset 4, -16
 1069              		.cfi_offset 5, -12
 1070              		.cfi_offset 6, -8
 1071              		.cfi_offset 14, -4
 1072 0002 0546     		mov	r5, r0
 1073 0004 0C46     		mov	r4, r1
 325:Drivers/lvgl/src/core/lv_obj_pos.c ****     LV_GC_ROOT(_lv_layout_list) = lv_mem_realloc(LV_GC_ROOT(_lv_layout_list), layout_cnt * sizeof(l
 1074              		.loc 1 325 5 is_stmt 1 view .LVU291
 325:Drivers/lvgl/src/core/lv_obj_pos.c ****     LV_GC_ROOT(_lv_layout_list) = lv_mem_realloc(LV_GC_ROOT(_lv_layout_list), layout_cnt * sizeof(l
 1075              		.loc 1 325 15 is_stmt 0 view .LVU292
 1076 0006 0D4A     		ldr	r2, .L64
ARM GAS  /var/folders/0z/tsy30v1j4xl4_7kw94k978ww0000gn/T//cc4e96aK.s 			page 56


 1077 0008 1368     		ldr	r3, [r2]
 1078 000a 0133     		adds	r3, r3, #1
 1079 000c 1360     		str	r3, [r2]
 326:Drivers/lvgl/src/core/lv_obj_pos.c ****     LV_ASSERT_MALLOC(LV_GC_ROOT(_lv_layout_list));
 1080              		.loc 1 326 5 is_stmt 1 view .LVU293
 326:Drivers/lvgl/src/core/lv_obj_pos.c ****     LV_ASSERT_MALLOC(LV_GC_ROOT(_lv_layout_list));
 1081              		.loc 1 326 35 is_stmt 0 view .LVU294
 1082 000e 0C4E     		ldr	r6, .L64+4
 1083 0010 D900     		lsls	r1, r3, #3
 1084              	.LVL88:
 326:Drivers/lvgl/src/core/lv_obj_pos.c ****     LV_ASSERT_MALLOC(LV_GC_ROOT(_lv_layout_list));
 1085              		.loc 1 326 35 view .LVU295
 1086 0012 3068     		ldr	r0, [r6]
 1087              	.LVL89:
 326:Drivers/lvgl/src/core/lv_obj_pos.c ****     LV_ASSERT_MALLOC(LV_GC_ROOT(_lv_layout_list));
 1088              		.loc 1 326 35 view .LVU296
 1089 0014 FFF7FEFF 		bl	lv_mem_realloc
 1090              	.LVL90:
 326:Drivers/lvgl/src/core/lv_obj_pos.c ****     LV_ASSERT_MALLOC(LV_GC_ROOT(_lv_layout_list));
 1091              		.loc 1 326 33 view .LVU297
 1092 0018 3060     		str	r0, [r6]
 327:Drivers/lvgl/src/core/lv_obj_pos.c **** 
 1093              		.loc 1 327 5 is_stmt 1 view .LVU298
 327:Drivers/lvgl/src/core/lv_obj_pos.c **** 
 1094              		.loc 1 327 5 view .LVU299
 1095 001a 68B1     		cbz	r0, .L62
 1096 001c 0346     		mov	r3, r0
 327:Drivers/lvgl/src/core/lv_obj_pos.c **** 
 1097              		.loc 1 327 5 discriminator 2 view .LVU300
 327:Drivers/lvgl/src/core/lv_obj_pos.c **** 
 1098              		.loc 1 327 50 discriminator 2 view .LVU301
 329:Drivers/lvgl/src/core/lv_obj_pos.c ****     LV_GC_ROOT(_lv_layout_list)[layout_cnt - 1].user_data = user_data;
 1099              		.loc 1 329 5 discriminator 2 view .LVU302
 329:Drivers/lvgl/src/core/lv_obj_pos.c ****     LV_GC_ROOT(_lv_layout_list)[layout_cnt - 1].user_data = user_data;
 1100              		.loc 1 329 32 is_stmt 0 discriminator 2 view .LVU303
 1101 001e 074A     		ldr	r2, .L64
 1102 0020 1068     		ldr	r0, [r2]
 1103 0022 00F10052 		add	r2, r0, #536870912
 1104 0026 013A     		subs	r2, r2, #1
 329:Drivers/lvgl/src/core/lv_obj_pos.c ****     LV_GC_ROOT(_lv_layout_list)[layout_cnt - 1].user_data = user_data;
 1105              		.loc 1 329 52 discriminator 2 view .LVU304
 1106 0028 43F83250 		str	r5, [r3, r2, lsl #3]
 330:Drivers/lvgl/src/core/lv_obj_pos.c ****     return layout_cnt;  /*No -1 to skip 0th index*/
 1107              		.loc 1 330 5 is_stmt 1 discriminator 2 view .LVU305
 330:Drivers/lvgl/src/core/lv_obj_pos.c ****     return layout_cnt;  /*No -1 to skip 0th index*/
 1108              		.loc 1 330 32 is_stmt 0 discriminator 2 view .LVU306
 1109 002c 044B     		ldr	r3, .L64+4
 1110 002e 1B68     		ldr	r3, [r3]
 1111 0030 03EBC203 		add	r3, r3, r2, lsl #3
 330:Drivers/lvgl/src/core/lv_obj_pos.c ****     return layout_cnt;  /*No -1 to skip 0th index*/
 1112              		.loc 1 330 59 discriminator 2 view .LVU307
 1113 0034 5C60     		str	r4, [r3, #4]
 331:Drivers/lvgl/src/core/lv_obj_pos.c **** }
 1114              		.loc 1 331 5 is_stmt 1 discriminator 2 view .LVU308
 332:Drivers/lvgl/src/core/lv_obj_pos.c **** 
 1115              		.loc 1 332 1 is_stmt 0 discriminator 2 view .LVU309
 1116 0036 70BD     		pop	{r4, r5, r6, pc}
ARM GAS  /var/folders/0z/tsy30v1j4xl4_7kw94k978ww0000gn/T//cc4e96aK.s 			page 57


 1117              	.LVL91:
 1118              	.L62:
 327:Drivers/lvgl/src/core/lv_obj_pos.c **** 
 1119              		.loc 1 327 5 is_stmt 1 discriminator 1 view .LVU310
 327:Drivers/lvgl/src/core/lv_obj_pos.c **** 
 1120              		.loc 1 327 5 discriminator 1 view .LVU311
 327:Drivers/lvgl/src/core/lv_obj_pos.c **** 
 1121              		.loc 1 327 5 discriminator 1 view .LVU312
 327:Drivers/lvgl/src/core/lv_obj_pos.c **** 
 1122              		.loc 1 327 5 discriminator 1 view .LVU313
 327:Drivers/lvgl/src/core/lv_obj_pos.c **** 
 1123              		.loc 1 327 5 discriminator 1 view .LVU314
 1124 0038 FEE7     		b	.L62
 1125              	.L65:
 1126 003a 00BF     		.align	2
 1127              	.L64:
 1128 003c 00000000 		.word	.LANCHOR0
 1129 0040 00000000 		.word	_lv_layout_list
 1130              		.cfi_endproc
 1131              	.LFE180:
 1133              		.section	.text.lv_obj_set_align,"ax",%progbits
 1134              		.align	1
 1135              		.global	lv_obj_set_align
 1136              		.syntax unified
 1137              		.thumb
 1138              		.thumb_func
 1140              	lv_obj_set_align:
 1141              	.LVL92:
 1142              	.LFB181:
 335:Drivers/lvgl/src/core/lv_obj_pos.c ****     lv_obj_set_style_align(obj, align, 0);
 1143              		.loc 1 335 1 view -0
 1144              		.cfi_startproc
 1145              		@ args = 0, pretend = 0, frame = 0
 1146              		@ frame_needed = 0, uses_anonymous_args = 0
 335:Drivers/lvgl/src/core/lv_obj_pos.c ****     lv_obj_set_style_align(obj, align, 0);
 1147              		.loc 1 335 1 is_stmt 0 view .LVU316
 1148 0000 08B5     		push	{r3, lr}
 1149              		.cfi_def_cfa_offset 8
 1150              		.cfi_offset 3, -8
 1151              		.cfi_offset 14, -4
 336:Drivers/lvgl/src/core/lv_obj_pos.c **** }
 1152              		.loc 1 336 5 is_stmt 1 view .LVU317
 1153 0002 0022     		movs	r2, #0
 1154 0004 FFF7FEFF 		bl	lv_obj_set_style_align
 1155              	.LVL93:
 337:Drivers/lvgl/src/core/lv_obj_pos.c **** 
 1156              		.loc 1 337 1 is_stmt 0 view .LVU318
 1157 0008 08BD     		pop	{r3, pc}
 1158              		.cfi_endproc
 1159              	.LFE181:
 1161              		.section	.text.lv_obj_align,"ax",%progbits
 1162              		.align	1
 1163              		.global	lv_obj_align
 1164              		.syntax unified
 1165              		.thumb
 1166              		.thumb_func
 1168              	lv_obj_align:
ARM GAS  /var/folders/0z/tsy30v1j4xl4_7kw94k978ww0000gn/T//cc4e96aK.s 			page 58


 1169              	.LVL94:
 1170              	.LFB182:
 340:Drivers/lvgl/src/core/lv_obj_pos.c ****     lv_obj_set_style_align(obj, align, 0);
 1171              		.loc 1 340 1 is_stmt 1 view -0
 1172              		.cfi_startproc
 1173              		@ args = 0, pretend = 0, frame = 0
 1174              		@ frame_needed = 0, uses_anonymous_args = 0
 340:Drivers/lvgl/src/core/lv_obj_pos.c ****     lv_obj_set_style_align(obj, align, 0);
 1175              		.loc 1 340 1 is_stmt 0 view .LVU320
 1176 0000 70B5     		push	{r4, r5, r6, lr}
 1177              		.cfi_def_cfa_offset 16
 1178              		.cfi_offset 4, -16
 1179              		.cfi_offset 5, -12
 1180              		.cfi_offset 6, -8
 1181              		.cfi_offset 14, -4
 1182 0002 0446     		mov	r4, r0
 1183 0004 1546     		mov	r5, r2
 1184 0006 1E46     		mov	r6, r3
 341:Drivers/lvgl/src/core/lv_obj_pos.c ****     lv_obj_set_pos(obj, x_ofs, y_ofs);
 1185              		.loc 1 341 5 is_stmt 1 view .LVU321
 1186 0008 0022     		movs	r2, #0
 1187              	.LVL95:
 341:Drivers/lvgl/src/core/lv_obj_pos.c ****     lv_obj_set_pos(obj, x_ofs, y_ofs);
 1188              		.loc 1 341 5 is_stmt 0 view .LVU322
 1189 000a FFF7FEFF 		bl	lv_obj_set_style_align
 1190              	.LVL96:
 342:Drivers/lvgl/src/core/lv_obj_pos.c **** }
 1191              		.loc 1 342 5 is_stmt 1 view .LVU323
 1192 000e 3246     		mov	r2, r6
 1193 0010 2946     		mov	r1, r5
 1194 0012 2046     		mov	r0, r4
 1195 0014 FFF7FEFF 		bl	lv_obj_set_pos
 1196              	.LVL97:
 343:Drivers/lvgl/src/core/lv_obj_pos.c **** 
 1197              		.loc 1 343 1 is_stmt 0 view .LVU324
 1198 0018 70BD     		pop	{r4, r5, r6, pc}
 343:Drivers/lvgl/src/core/lv_obj_pos.c **** 
 1199              		.loc 1 343 1 view .LVU325
 1200              		.cfi_endproc
 1201              	.LFE182:
 1203              		.section	.text.lv_obj_get_coords,"ax",%progbits
 1204              		.align	1
 1205              		.global	lv_obj_get_coords
 1206              		.syntax unified
 1207              		.thumb
 1208              		.thumb_func
 1210              	lv_obj_get_coords:
 1211              	.LVL98:
 1212              	.LFB184:
 488:Drivers/lvgl/src/core/lv_obj_pos.c ****     LV_ASSERT_OBJ(obj, MY_CLASS);
 1213              		.loc 1 488 1 is_stmt 1 view -0
 1214              		.cfi_startproc
 1215              		@ args = 0, pretend = 0, frame = 0
 1216              		@ frame_needed = 0, uses_anonymous_args = 0
 1217              		@ link register save eliminated.
 489:Drivers/lvgl/src/core/lv_obj_pos.c **** 
 1218              		.loc 1 489 5 view .LVU327
ARM GAS  /var/folders/0z/tsy30v1j4xl4_7kw94k978ww0000gn/T//cc4e96aK.s 			page 59


 489:Drivers/lvgl/src/core/lv_obj_pos.c **** 
 1219              		.loc 1 489 5 view .LVU328
 489:Drivers/lvgl/src/core/lv_obj_pos.c **** 
 1220              		.loc 1 489 5 view .LVU329
 491:Drivers/lvgl/src/core/lv_obj_pos.c **** }
 1221              		.loc 1 491 5 view .LVU330
 1222              	.LBB229:
 1223              	.LBI229:
 110:Drivers/lvgl/src/core/../misc/../font/../misc/lv_area.h **** {
 1224              		.loc 3 110 20 view .LVU331
 1225              	.LBB230:
 112:Drivers/lvgl/src/core/../misc/../font/../misc/lv_area.h ****     dest->y1 = src->y1;
 1226              		.loc 3 112 5 view .LVU332
 112:Drivers/lvgl/src/core/../misc/../font/../misc/lv_area.h ****     dest->y1 = src->y1;
 1227              		.loc 3 112 19 is_stmt 0 view .LVU333
 1228 0000 B0F91430 		ldrsh	r3, [r0, #20]
 112:Drivers/lvgl/src/core/../misc/../font/../misc/lv_area.h ****     dest->y1 = src->y1;
 1229              		.loc 3 112 14 view .LVU334
 1230 0004 0B80     		strh	r3, [r1]	@ movhi
 113:Drivers/lvgl/src/core/../misc/../font/../misc/lv_area.h ****     dest->x2 = src->x2;
 1231              		.loc 3 113 5 is_stmt 1 view .LVU335
 113:Drivers/lvgl/src/core/../misc/../font/../misc/lv_area.h ****     dest->x2 = src->x2;
 1232              		.loc 3 113 19 is_stmt 0 view .LVU336
 1233 0006 B0F91630 		ldrsh	r3, [r0, #22]
 113:Drivers/lvgl/src/core/../misc/../font/../misc/lv_area.h ****     dest->x2 = src->x2;
 1234              		.loc 3 113 14 view .LVU337
 1235 000a 4B80     		strh	r3, [r1, #2]	@ movhi
 114:Drivers/lvgl/src/core/../misc/../font/../misc/lv_area.h ****     dest->y2 = src->y2;
 1236              		.loc 3 114 5 is_stmt 1 view .LVU338
 114:Drivers/lvgl/src/core/../misc/../font/../misc/lv_area.h ****     dest->y2 = src->y2;
 1237              		.loc 3 114 19 is_stmt 0 view .LVU339
 1238 000c B0F91830 		ldrsh	r3, [r0, #24]
 114:Drivers/lvgl/src/core/../misc/../font/../misc/lv_area.h ****     dest->y2 = src->y2;
 1239              		.loc 3 114 14 view .LVU340
 1240 0010 8B80     		strh	r3, [r1, #4]	@ movhi
 115:Drivers/lvgl/src/core/../misc/../font/../misc/lv_area.h **** }
 1241              		.loc 3 115 5 is_stmt 1 view .LVU341
 115:Drivers/lvgl/src/core/../misc/../font/../misc/lv_area.h **** }
 1242              		.loc 3 115 19 is_stmt 0 view .LVU342
 1243 0012 B0F91A30 		ldrsh	r3, [r0, #26]
 115:Drivers/lvgl/src/core/../misc/../font/../misc/lv_area.h **** }
 1244              		.loc 3 115 14 view .LVU343
 1245 0016 CB80     		strh	r3, [r1, #6]	@ movhi
 1246              	.LVL99:
 115:Drivers/lvgl/src/core/../misc/../font/../misc/lv_area.h **** }
 1247              		.loc 3 115 14 view .LVU344
 1248              	.LBE230:
 1249              	.LBE229:
 492:Drivers/lvgl/src/core/lv_obj_pos.c **** 
 1250              		.loc 1 492 1 view .LVU345
 1251 0018 7047     		bx	lr
 1252              		.cfi_endproc
 1253              	.LFE184:
 1255              		.section	.text.lv_obj_get_x,"ax",%progbits
 1256              		.align	1
 1257              		.global	lv_obj_get_x
 1258              		.syntax unified
ARM GAS  /var/folders/0z/tsy30v1j4xl4_7kw94k978ww0000gn/T//cc4e96aK.s 			page 60


 1259              		.thumb
 1260              		.thumb_func
 1262              	lv_obj_get_x:
 1263              	.LVL100:
 1264              	.LFB185:
 495:Drivers/lvgl/src/core/lv_obj_pos.c ****     LV_ASSERT_OBJ(obj, MY_CLASS);
 1265              		.loc 1 495 1 is_stmt 1 view -0
 1266              		.cfi_startproc
 1267              		@ args = 0, pretend = 0, frame = 0
 1268              		@ frame_needed = 0, uses_anonymous_args = 0
 495:Drivers/lvgl/src/core/lv_obj_pos.c ****     LV_ASSERT_OBJ(obj, MY_CLASS);
 1269              		.loc 1 495 1 is_stmt 0 view .LVU347
 1270 0000 38B5     		push	{r3, r4, r5, lr}
 1271              		.cfi_def_cfa_offset 16
 1272              		.cfi_offset 3, -16
 1273              		.cfi_offset 4, -12
 1274              		.cfi_offset 5, -8
 1275              		.cfi_offset 14, -4
 1276 0002 0446     		mov	r4, r0
 496:Drivers/lvgl/src/core/lv_obj_pos.c **** 
 1277              		.loc 1 496 5 is_stmt 1 view .LVU348
 496:Drivers/lvgl/src/core/lv_obj_pos.c **** 
 1278              		.loc 1 496 5 view .LVU349
 496:Drivers/lvgl/src/core/lv_obj_pos.c **** 
 1279              		.loc 1 496 5 view .LVU350
 498:Drivers/lvgl/src/core/lv_obj_pos.c ****     lv_obj_t * parent = lv_obj_get_parent(obj);
 1280              		.loc 1 498 5 view .LVU351
 499:Drivers/lvgl/src/core/lv_obj_pos.c ****     if(parent) {
 1281              		.loc 1 499 5 view .LVU352
 499:Drivers/lvgl/src/core/lv_obj_pos.c ****     if(parent) {
 1282              		.loc 1 499 25 is_stmt 0 view .LVU353
 1283 0004 FFF7FEFF 		bl	lv_obj_get_parent
 1284              	.LVL101:
 500:Drivers/lvgl/src/core/lv_obj_pos.c ****         rel_x  = obj->coords.x1 - parent->coords.x1;
 1285              		.loc 1 500 5 is_stmt 1 view .LVU354
 500:Drivers/lvgl/src/core/lv_obj_pos.c ****         rel_x  = obj->coords.x1 - parent->coords.x1;
 1286              		.loc 1 500 7 is_stmt 0 view .LVU355
 1287 0008 D0B1     		cbz	r0, .L72
 1288 000a 0546     		mov	r5, r0
 501:Drivers/lvgl/src/core/lv_obj_pos.c ****         rel_x += lv_obj_get_scroll_x(parent);
 1289              		.loc 1 501 9 is_stmt 1 view .LVU356
 501:Drivers/lvgl/src/core/lv_obj_pos.c ****         rel_x += lv_obj_get_scroll_x(parent);
 1290              		.loc 1 501 29 is_stmt 0 view .LVU357
 1291 000c A48A     		ldrh	r4, [r4, #20]
 1292              	.LVL102:
 501:Drivers/lvgl/src/core/lv_obj_pos.c ****         rel_x += lv_obj_get_scroll_x(parent);
 1293              		.loc 1 501 49 view .LVU358
 1294 000e 838A     		ldrh	r3, [r0, #20]
 501:Drivers/lvgl/src/core/lv_obj_pos.c ****         rel_x += lv_obj_get_scroll_x(parent);
 1295              		.loc 1 501 33 view .LVU359
 1296 0010 E41A     		subs	r4, r4, r3
 1297 0012 A4B2     		uxth	r4, r4
 1298              	.LVL103:
 502:Drivers/lvgl/src/core/lv_obj_pos.c ****         rel_x -= lv_obj_get_style_pad_left(parent, LV_PART_MAIN);
 1299              		.loc 1 502 9 is_stmt 1 view .LVU360
 502:Drivers/lvgl/src/core/lv_obj_pos.c ****         rel_x -= lv_obj_get_style_pad_left(parent, LV_PART_MAIN);
 1300              		.loc 1 502 18 is_stmt 0 view .LVU361
ARM GAS  /var/folders/0z/tsy30v1j4xl4_7kw94k978ww0000gn/T//cc4e96aK.s 			page 61


 1301 0014 FFF7FEFF 		bl	lv_obj_get_scroll_x
 1302              	.LVL104:
 502:Drivers/lvgl/src/core/lv_obj_pos.c ****         rel_x -= lv_obj_get_style_pad_left(parent, LV_PART_MAIN);
 1303              		.loc 1 502 15 view .LVU362
 1304 0018 14FA80F4 		uxtah	r4, r4, r0
 1305              	.LVL105:
 502:Drivers/lvgl/src/core/lv_obj_pos.c ****         rel_x -= lv_obj_get_style_pad_left(parent, LV_PART_MAIN);
 1306              		.loc 1 502 15 view .LVU363
 1307 001c A4B2     		uxth	r4, r4
 1308              	.LVL106:
 503:Drivers/lvgl/src/core/lv_obj_pos.c ****         rel_x -= lv_obj_get_style_border_width(parent, LV_PART_MAIN);
 1309              		.loc 1 503 9 is_stmt 1 view .LVU364
 1310              	.LBB231:
 1311              	.LBI231:
 115:Drivers/lvgl/src/core/lv_obj_style_gen.h **** {
 1312              		.loc 2 115 26 view .LVU365
 1313              	.LBB232:
 117:Drivers/lvgl/src/core/lv_obj_style_gen.h ****     return (lv_coord_t)v.num;
 1314              		.loc 2 117 5 view .LVU366
 117:Drivers/lvgl/src/core/lv_obj_style_gen.h ****     return (lv_coord_t)v.num;
 1315              		.loc 2 117 26 is_stmt 0 view .LVU367
 1316 001e 1222     		movs	r2, #18
 1317 0020 0021     		movs	r1, #0
 1318 0022 2846     		mov	r0, r5
 1319 0024 FFF7FEFF 		bl	lv_obj_get_style_prop
 1320              	.LVL107:
 118:Drivers/lvgl/src/core/lv_obj_style_gen.h **** }
 1321              		.loc 2 118 5 is_stmt 1 view .LVU368
 118:Drivers/lvgl/src/core/lv_obj_style_gen.h **** }
 1322              		.loc 2 118 5 is_stmt 0 view .LVU369
 1323              	.LBE232:
 1324              	.LBE231:
 503:Drivers/lvgl/src/core/lv_obj_pos.c ****         rel_x -= lv_obj_get_style_border_width(parent, LV_PART_MAIN);
 1325              		.loc 1 503 18 view .LVU370
 1326 0028 80B2     		uxth	r0, r0
 503:Drivers/lvgl/src/core/lv_obj_pos.c ****         rel_x -= lv_obj_get_style_border_width(parent, LV_PART_MAIN);
 1327              		.loc 1 503 15 view .LVU371
 1328 002a 241A     		subs	r4, r4, r0
 1329              	.LVL108:
 503:Drivers/lvgl/src/core/lv_obj_pos.c ****         rel_x -= lv_obj_get_style_border_width(parent, LV_PART_MAIN);
 1330              		.loc 1 503 15 view .LVU372
 1331 002c A4B2     		uxth	r4, r4
 1332              	.LVL109:
 504:Drivers/lvgl/src/core/lv_obj_pos.c ****     }
 1333              		.loc 1 504 9 is_stmt 1 view .LVU373
 1334              	.LBB233:
 1335              	.LBI233:
 253:Drivers/lvgl/src/core/lv_obj_style_gen.h **** {
 1336              		.loc 2 253 26 view .LVU374
 1337              	.LBB234:
 255:Drivers/lvgl/src/core/lv_obj_style_gen.h ****     return (lv_coord_t)v.num;
 1338              		.loc 2 255 5 view .LVU375
 255:Drivers/lvgl/src/core/lv_obj_style_gen.h ****     return (lv_coord_t)v.num;
 1339              		.loc 2 255 26 is_stmt 0 view .LVU376
 1340 002e 3222     		movs	r2, #50
 1341 0030 0021     		movs	r1, #0
 1342 0032 2846     		mov	r0, r5
ARM GAS  /var/folders/0z/tsy30v1j4xl4_7kw94k978ww0000gn/T//cc4e96aK.s 			page 62


 1343 0034 FFF7FEFF 		bl	lv_obj_get_style_prop
 1344              	.LVL110:
 256:Drivers/lvgl/src/core/lv_obj_style_gen.h **** }
 1345              		.loc 2 256 5 is_stmt 1 view .LVU377
 256:Drivers/lvgl/src/core/lv_obj_style_gen.h **** }
 1346              		.loc 2 256 5 is_stmt 0 view .LVU378
 1347              	.LBE234:
 1348              	.LBE233:
 504:Drivers/lvgl/src/core/lv_obj_pos.c ****     }
 1349              		.loc 1 504 18 view .LVU379
 1350 0038 80B2     		uxth	r0, r0
 504:Drivers/lvgl/src/core/lv_obj_pos.c ****     }
 1351              		.loc 1 504 15 view .LVU380
 1352 003a 201A     		subs	r0, r4, r0
 1353 003c 00B2     		sxth	r0, r0
 1354              	.LVL111:
 1355              	.L73:
 509:Drivers/lvgl/src/core/lv_obj_pos.c **** }
 1356              		.loc 1 509 5 is_stmt 1 view .LVU381
 510:Drivers/lvgl/src/core/lv_obj_pos.c **** 
 1357              		.loc 1 510 1 is_stmt 0 view .LVU382
 1358 003e 38BD     		pop	{r3, r4, r5, pc}
 1359              	.LVL112:
 1360              	.L72:
 507:Drivers/lvgl/src/core/lv_obj_pos.c ****     }
 1361              		.loc 1 507 9 is_stmt 1 view .LVU383
 507:Drivers/lvgl/src/core/lv_obj_pos.c ****     }
 1362              		.loc 1 507 15 is_stmt 0 view .LVU384
 1363 0040 B4F91400 		ldrsh	r0, [r4, #20]
 1364              	.LVL113:
 507:Drivers/lvgl/src/core/lv_obj_pos.c ****     }
 1365              		.loc 1 507 15 view .LVU385
 1366 0044 FBE7     		b	.L73
 1367              		.cfi_endproc
 1368              	.LFE185:
 1370              		.section	.text.lv_obj_get_y,"ax",%progbits
 1371              		.align	1
 1372              		.global	lv_obj_get_y
 1373              		.syntax unified
 1374              		.thumb
 1375              		.thumb_func
 1377              	lv_obj_get_y:
 1378              	.LVL114:
 1379              	.LFB187:
 520:Drivers/lvgl/src/core/lv_obj_pos.c ****     LV_ASSERT_OBJ(obj, MY_CLASS);
 1380              		.loc 1 520 1 is_stmt 1 view -0
 1381              		.cfi_startproc
 1382              		@ args = 0, pretend = 0, frame = 0
 1383              		@ frame_needed = 0, uses_anonymous_args = 0
 520:Drivers/lvgl/src/core/lv_obj_pos.c ****     LV_ASSERT_OBJ(obj, MY_CLASS);
 1384              		.loc 1 520 1 is_stmt 0 view .LVU387
 1385 0000 38B5     		push	{r3, r4, r5, lr}
 1386              		.cfi_def_cfa_offset 16
 1387              		.cfi_offset 3, -16
 1388              		.cfi_offset 4, -12
 1389              		.cfi_offset 5, -8
 1390              		.cfi_offset 14, -4
ARM GAS  /var/folders/0z/tsy30v1j4xl4_7kw94k978ww0000gn/T//cc4e96aK.s 			page 63


 1391 0002 0446     		mov	r4, r0
 521:Drivers/lvgl/src/core/lv_obj_pos.c **** 
 1392              		.loc 1 521 5 is_stmt 1 view .LVU388
 521:Drivers/lvgl/src/core/lv_obj_pos.c **** 
 1393              		.loc 1 521 5 view .LVU389
 521:Drivers/lvgl/src/core/lv_obj_pos.c **** 
 1394              		.loc 1 521 5 view .LVU390
 523:Drivers/lvgl/src/core/lv_obj_pos.c ****     lv_obj_t * parent = lv_obj_get_parent(obj);
 1395              		.loc 1 523 5 view .LVU391
 524:Drivers/lvgl/src/core/lv_obj_pos.c ****     if(parent) {
 1396              		.loc 1 524 5 view .LVU392
 524:Drivers/lvgl/src/core/lv_obj_pos.c ****     if(parent) {
 1397              		.loc 1 524 25 is_stmt 0 view .LVU393
 1398 0004 FFF7FEFF 		bl	lv_obj_get_parent
 1399              	.LVL115:
 525:Drivers/lvgl/src/core/lv_obj_pos.c ****         rel_y = obj->coords.y1 - parent->coords.y1;
 1400              		.loc 1 525 5 is_stmt 1 view .LVU394
 525:Drivers/lvgl/src/core/lv_obj_pos.c ****         rel_y = obj->coords.y1 - parent->coords.y1;
 1401              		.loc 1 525 7 is_stmt 0 view .LVU395
 1402 0008 D0B1     		cbz	r0, .L76
 1403 000a 0546     		mov	r5, r0
 526:Drivers/lvgl/src/core/lv_obj_pos.c ****         rel_y += lv_obj_get_scroll_y(parent);
 1404              		.loc 1 526 9 is_stmt 1 view .LVU396
 526:Drivers/lvgl/src/core/lv_obj_pos.c ****         rel_y += lv_obj_get_scroll_y(parent);
 1405              		.loc 1 526 28 is_stmt 0 view .LVU397
 1406 000c E48A     		ldrh	r4, [r4, #22]
 1407              	.LVL116:
 526:Drivers/lvgl/src/core/lv_obj_pos.c ****         rel_y += lv_obj_get_scroll_y(parent);
 1408              		.loc 1 526 48 view .LVU398
 1409 000e C38A     		ldrh	r3, [r0, #22]
 526:Drivers/lvgl/src/core/lv_obj_pos.c ****         rel_y += lv_obj_get_scroll_y(parent);
 1410              		.loc 1 526 32 view .LVU399
 1411 0010 E41A     		subs	r4, r4, r3
 1412 0012 A4B2     		uxth	r4, r4
 1413              	.LVL117:
 527:Drivers/lvgl/src/core/lv_obj_pos.c ****         rel_y -= lv_obj_get_style_pad_top(parent, LV_PART_MAIN);
 1414              		.loc 1 527 9 is_stmt 1 view .LVU400
 527:Drivers/lvgl/src/core/lv_obj_pos.c ****         rel_y -= lv_obj_get_style_pad_top(parent, LV_PART_MAIN);
 1415              		.loc 1 527 18 is_stmt 0 view .LVU401
 1416 0014 FFF7FEFF 		bl	lv_obj_get_scroll_y
 1417              	.LVL118:
 527:Drivers/lvgl/src/core/lv_obj_pos.c ****         rel_y -= lv_obj_get_style_pad_top(parent, LV_PART_MAIN);
 1418              		.loc 1 527 15 view .LVU402
 1419 0018 14FA80F4 		uxtah	r4, r4, r0
 1420              	.LVL119:
 527:Drivers/lvgl/src/core/lv_obj_pos.c ****         rel_y -= lv_obj_get_style_pad_top(parent, LV_PART_MAIN);
 1421              		.loc 1 527 15 view .LVU403
 1422 001c A4B2     		uxth	r4, r4
 1423              	.LVL120:
 528:Drivers/lvgl/src/core/lv_obj_pos.c ****         rel_y -= lv_obj_get_style_border_width(parent, LV_PART_MAIN);
 1424              		.loc 1 528 9 is_stmt 1 view .LVU404
 1425              	.LBB235:
 1426              	.LBI235:
 103:Drivers/lvgl/src/core/lv_obj_style_gen.h **** {
 1427              		.loc 2 103 26 view .LVU405
 1428              	.LBB236:
 105:Drivers/lvgl/src/core/lv_obj_style_gen.h ****     return (lv_coord_t)v.num;
ARM GAS  /var/folders/0z/tsy30v1j4xl4_7kw94k978ww0000gn/T//cc4e96aK.s 			page 64


 1429              		.loc 2 105 5 view .LVU406
 105:Drivers/lvgl/src/core/lv_obj_style_gen.h ****     return (lv_coord_t)v.num;
 1430              		.loc 2 105 26 is_stmt 0 view .LVU407
 1431 001e 1022     		movs	r2, #16
 1432 0020 0021     		movs	r1, #0
 1433 0022 2846     		mov	r0, r5
 1434 0024 FFF7FEFF 		bl	lv_obj_get_style_prop
 1435              	.LVL121:
 106:Drivers/lvgl/src/core/lv_obj_style_gen.h **** }
 1436              		.loc 2 106 5 is_stmt 1 view .LVU408
 106:Drivers/lvgl/src/core/lv_obj_style_gen.h **** }
 1437              		.loc 2 106 5 is_stmt 0 view .LVU409
 1438              	.LBE236:
 1439              	.LBE235:
 528:Drivers/lvgl/src/core/lv_obj_pos.c ****         rel_y -= lv_obj_get_style_border_width(parent, LV_PART_MAIN);
 1440              		.loc 1 528 18 view .LVU410
 1441 0028 80B2     		uxth	r0, r0
 528:Drivers/lvgl/src/core/lv_obj_pos.c ****         rel_y -= lv_obj_get_style_border_width(parent, LV_PART_MAIN);
 1442              		.loc 1 528 15 view .LVU411
 1443 002a 241A     		subs	r4, r4, r0
 1444              	.LVL122:
 528:Drivers/lvgl/src/core/lv_obj_pos.c ****         rel_y -= lv_obj_get_style_border_width(parent, LV_PART_MAIN);
 1445              		.loc 1 528 15 view .LVU412
 1446 002c A4B2     		uxth	r4, r4
 1447              	.LVL123:
 529:Drivers/lvgl/src/core/lv_obj_pos.c ****     }
 1448              		.loc 1 529 9 is_stmt 1 view .LVU413
 1449              	.LBB237:
 1450              	.LBI237:
 253:Drivers/lvgl/src/core/lv_obj_style_gen.h **** {
 1451              		.loc 2 253 26 view .LVU414
 1452              	.LBB238:
 255:Drivers/lvgl/src/core/lv_obj_style_gen.h ****     return (lv_coord_t)v.num;
 1453              		.loc 2 255 5 view .LVU415
 255:Drivers/lvgl/src/core/lv_obj_style_gen.h ****     return (lv_coord_t)v.num;
 1454              		.loc 2 255 26 is_stmt 0 view .LVU416
 1455 002e 3222     		movs	r2, #50
 1456 0030 0021     		movs	r1, #0
 1457 0032 2846     		mov	r0, r5
 1458 0034 FFF7FEFF 		bl	lv_obj_get_style_prop
 1459              	.LVL124:
 256:Drivers/lvgl/src/core/lv_obj_style_gen.h **** }
 1460              		.loc 2 256 5 is_stmt 1 view .LVU417
 256:Drivers/lvgl/src/core/lv_obj_style_gen.h **** }
 1461              		.loc 2 256 5 is_stmt 0 view .LVU418
 1462              	.LBE238:
 1463              	.LBE237:
 529:Drivers/lvgl/src/core/lv_obj_pos.c ****     }
 1464              		.loc 1 529 18 view .LVU419
 1465 0038 80B2     		uxth	r0, r0
 529:Drivers/lvgl/src/core/lv_obj_pos.c ****     }
 1466              		.loc 1 529 15 view .LVU420
 1467 003a 201A     		subs	r0, r4, r0
 1468 003c 00B2     		sxth	r0, r0
 1469              	.LVL125:
 1470              	.L77:
 534:Drivers/lvgl/src/core/lv_obj_pos.c **** }
ARM GAS  /var/folders/0z/tsy30v1j4xl4_7kw94k978ww0000gn/T//cc4e96aK.s 			page 65


 1471              		.loc 1 534 5 is_stmt 1 view .LVU421
 535:Drivers/lvgl/src/core/lv_obj_pos.c **** 
 1472              		.loc 1 535 1 is_stmt 0 view .LVU422
 1473 003e 38BD     		pop	{r3, r4, r5, pc}
 1474              	.LVL126:
 1475              	.L76:
 532:Drivers/lvgl/src/core/lv_obj_pos.c ****     }
 1476              		.loc 1 532 9 is_stmt 1 view .LVU423
 532:Drivers/lvgl/src/core/lv_obj_pos.c ****     }
 1477              		.loc 1 532 15 is_stmt 0 view .LVU424
 1478 0040 B4F91600 		ldrsh	r0, [r4, #22]
 1479              	.LVL127:
 532:Drivers/lvgl/src/core/lv_obj_pos.c ****     }
 1480              		.loc 1 532 15 view .LVU425
 1481 0044 FBE7     		b	.L77
 1482              		.cfi_endproc
 1483              	.LFE187:
 1485              		.section	.text.lv_obj_get_x_aligned,"ax",%progbits
 1486              		.align	1
 1487              		.global	lv_obj_get_x_aligned
 1488              		.syntax unified
 1489              		.thumb
 1490              		.thumb_func
 1492              	lv_obj_get_x_aligned:
 1493              	.LVL128:
 1494              	.LFB189:
 545:Drivers/lvgl/src/core/lv_obj_pos.c ****     return lv_obj_get_style_x(obj, LV_PART_MAIN);
 1495              		.loc 1 545 1 is_stmt 1 view -0
 1496              		.cfi_startproc
 1497              		@ args = 0, pretend = 0, frame = 0
 1498              		@ frame_needed = 0, uses_anonymous_args = 0
 545:Drivers/lvgl/src/core/lv_obj_pos.c ****     return lv_obj_get_style_x(obj, LV_PART_MAIN);
 1499              		.loc 1 545 1 is_stmt 0 view .LVU427
 1500 0000 08B5     		push	{r3, lr}
 1501              		.cfi_def_cfa_offset 8
 1502              		.cfi_offset 3, -8
 1503              		.cfi_offset 14, -4
 546:Drivers/lvgl/src/core/lv_obj_pos.c **** }
 1504              		.loc 1 546 5 is_stmt 1 view .LVU428
 1505              	.LVL129:
 1506              	.LBB239:
 1507              	.LBI239:
  37:Drivers/lvgl/src/core/lv_obj_style_gen.h **** {
 1508              		.loc 2 37 26 view .LVU429
 1509              	.LBB240:
  39:Drivers/lvgl/src/core/lv_obj_style_gen.h ****     return (lv_coord_t)v.num;
 1510              		.loc 2 39 5 view .LVU430
  39:Drivers/lvgl/src/core/lv_obj_style_gen.h ****     return (lv_coord_t)v.num;
 1511              		.loc 2 39 26 is_stmt 0 view .LVU431
 1512 0002 0722     		movs	r2, #7
 1513 0004 0021     		movs	r1, #0
 1514 0006 FFF7FEFF 		bl	lv_obj_get_style_prop
 1515              	.LVL130:
  40:Drivers/lvgl/src/core/lv_obj_style_gen.h **** }
 1516              		.loc 2 40 5 is_stmt 1 view .LVU432
  40:Drivers/lvgl/src/core/lv_obj_style_gen.h **** }
 1517              		.loc 2 40 5 is_stmt 0 view .LVU433
ARM GAS  /var/folders/0z/tsy30v1j4xl4_7kw94k978ww0000gn/T//cc4e96aK.s 			page 66


 1518              	.LBE240:
 1519              	.LBE239:
 547:Drivers/lvgl/src/core/lv_obj_pos.c **** 
 1520              		.loc 1 547 1 view .LVU434
 1521 000a 00B2     		sxth	r0, r0
 1522 000c 08BD     		pop	{r3, pc}
 1523              		.cfi_endproc
 1524              	.LFE189:
 1526              		.section	.text.lv_obj_get_y_aligned,"ax",%progbits
 1527              		.align	1
 1528              		.global	lv_obj_get_y_aligned
 1529              		.syntax unified
 1530              		.thumb
 1531              		.thumb_func
 1533              	lv_obj_get_y_aligned:
 1534              	.LVL131:
 1535              	.LFB190:
 550:Drivers/lvgl/src/core/lv_obj_pos.c ****     return lv_obj_get_style_y(obj, LV_PART_MAIN);
 1536              		.loc 1 550 1 is_stmt 1 view -0
 1537              		.cfi_startproc
 1538              		@ args = 0, pretend = 0, frame = 0
 1539              		@ frame_needed = 0, uses_anonymous_args = 0
 550:Drivers/lvgl/src/core/lv_obj_pos.c ****     return lv_obj_get_style_y(obj, LV_PART_MAIN);
 1540              		.loc 1 550 1 is_stmt 0 view .LVU436
 1541 0000 08B5     		push	{r3, lr}
 1542              		.cfi_def_cfa_offset 8
 1543              		.cfi_offset 3, -8
 1544              		.cfi_offset 14, -4
 551:Drivers/lvgl/src/core/lv_obj_pos.c **** }
 1545              		.loc 1 551 5 is_stmt 1 view .LVU437
 1546              	.LVL132:
 1547              	.LBB241:
 1548              	.LBI241:
  43:Drivers/lvgl/src/core/lv_obj_style_gen.h **** {
 1549              		.loc 2 43 26 view .LVU438
 1550              	.LBB242:
  45:Drivers/lvgl/src/core/lv_obj_style_gen.h ****     return (lv_coord_t)v.num;
 1551              		.loc 2 45 5 view .LVU439
  45:Drivers/lvgl/src/core/lv_obj_style_gen.h ****     return (lv_coord_t)v.num;
 1552              		.loc 2 45 26 is_stmt 0 view .LVU440
 1553 0002 0822     		movs	r2, #8
 1554 0004 0021     		movs	r1, #0
 1555 0006 FFF7FEFF 		bl	lv_obj_get_style_prop
 1556              	.LVL133:
  46:Drivers/lvgl/src/core/lv_obj_style_gen.h **** }
 1557              		.loc 2 46 5 is_stmt 1 view .LVU441
  46:Drivers/lvgl/src/core/lv_obj_style_gen.h **** }
 1558              		.loc 2 46 5 is_stmt 0 view .LVU442
 1559              	.LBE242:
 1560              	.LBE241:
 552:Drivers/lvgl/src/core/lv_obj_pos.c **** 
 1561              		.loc 1 552 1 view .LVU443
 1562 000a 00B2     		sxth	r0, r0
 1563 000c 08BD     		pop	{r3, pc}
 1564              		.cfi_endproc
 1565              	.LFE190:
 1567              		.section	.text.lv_obj_get_width,"ax",%progbits
ARM GAS  /var/folders/0z/tsy30v1j4xl4_7kw94k978ww0000gn/T//cc4e96aK.s 			page 67


 1568              		.align	1
 1569              		.global	lv_obj_get_width
 1570              		.syntax unified
 1571              		.thumb
 1572              		.thumb_func
 1574              	lv_obj_get_width:
 1575              	.LVL134:
 1576              	.LFB191:
 556:Drivers/lvgl/src/core/lv_obj_pos.c ****     LV_ASSERT_OBJ(obj, MY_CLASS);
 1577              		.loc 1 556 1 is_stmt 1 view -0
 1578              		.cfi_startproc
 1579              		@ args = 0, pretend = 0, frame = 0
 1580              		@ frame_needed = 0, uses_anonymous_args = 0
 1581              		@ link register save eliminated.
 557:Drivers/lvgl/src/core/lv_obj_pos.c **** 
 1582              		.loc 1 557 5 view .LVU445
 557:Drivers/lvgl/src/core/lv_obj_pos.c **** 
 1583              		.loc 1 557 5 view .LVU446
 557:Drivers/lvgl/src/core/lv_obj_pos.c **** 
 1584              		.loc 1 557 5 view .LVU447
 559:Drivers/lvgl/src/core/lv_obj_pos.c **** }
 1585              		.loc 1 559 5 view .LVU448
 1586              	.LBB243:
 1587              	.LBI243:
 123:Drivers/lvgl/src/core/../misc/../font/../misc/lv_area.h **** {
 1588              		.loc 3 123 26 view .LVU449
 1589              	.LBB244:
 125:Drivers/lvgl/src/core/../misc/../font/../misc/lv_area.h **** }
 1590              		.loc 3 125 5 view .LVU450
 125:Drivers/lvgl/src/core/../misc/../font/../misc/lv_area.h **** }
 1591              		.loc 3 125 31 is_stmt 0 view .LVU451
 1592 0000 038B     		ldrh	r3, [r0, #24]
 125:Drivers/lvgl/src/core/../misc/../font/../misc/lv_area.h **** }
 1593              		.loc 3 125 44 view .LVU452
 1594 0002 828A     		ldrh	r2, [r0, #20]
 125:Drivers/lvgl/src/core/../misc/../font/../misc/lv_area.h **** }
 1595              		.loc 3 125 36 view .LVU453
 1596 0004 981A     		subs	r0, r3, r2
 1597              	.LVL135:
 125:Drivers/lvgl/src/core/../misc/../font/../misc/lv_area.h **** }
 1598              		.loc 3 125 36 view .LVU454
 1599 0006 80B2     		uxth	r0, r0
 125:Drivers/lvgl/src/core/../misc/../font/../misc/lv_area.h **** }
 1600              		.loc 3 125 49 view .LVU455
 1601 0008 0130     		adds	r0, r0, #1
 1602              	.LVL136:
 125:Drivers/lvgl/src/core/../misc/../font/../misc/lv_area.h **** }
 1603              		.loc 3 125 49 view .LVU456
 1604              	.LBE244:
 1605              	.LBE243:
 560:Drivers/lvgl/src/core/lv_obj_pos.c **** 
 1606              		.loc 1 560 1 view .LVU457
 1607 000a 00B2     		sxth	r0, r0
 1608 000c 7047     		bx	lr
 1609              		.cfi_endproc
 1610              	.LFE191:
 1612              		.section	.text.lv_obj_get_x2,"ax",%progbits
ARM GAS  /var/folders/0z/tsy30v1j4xl4_7kw94k978ww0000gn/T//cc4e96aK.s 			page 68


 1613              		.align	1
 1614              		.global	lv_obj_get_x2
 1615              		.syntax unified
 1616              		.thumb
 1617              		.thumb_func
 1619              	lv_obj_get_x2:
 1620              	.LVL137:
 1621              	.LFB186:
 513:Drivers/lvgl/src/core/lv_obj_pos.c ****     LV_ASSERT_OBJ(obj, MY_CLASS);
 1622              		.loc 1 513 1 is_stmt 1 view -0
 1623              		.cfi_startproc
 1624              		@ args = 0, pretend = 0, frame = 0
 1625              		@ frame_needed = 0, uses_anonymous_args = 0
 513:Drivers/lvgl/src/core/lv_obj_pos.c ****     LV_ASSERT_OBJ(obj, MY_CLASS);
 1626              		.loc 1 513 1 is_stmt 0 view .LVU459
 1627 0000 38B5     		push	{r3, r4, r5, lr}
 1628              		.cfi_def_cfa_offset 16
 1629              		.cfi_offset 3, -16
 1630              		.cfi_offset 4, -12
 1631              		.cfi_offset 5, -8
 1632              		.cfi_offset 14, -4
 1633 0002 0546     		mov	r5, r0
 514:Drivers/lvgl/src/core/lv_obj_pos.c **** 
 1634              		.loc 1 514 5 is_stmt 1 view .LVU460
 514:Drivers/lvgl/src/core/lv_obj_pos.c **** 
 1635              		.loc 1 514 5 view .LVU461
 514:Drivers/lvgl/src/core/lv_obj_pos.c **** 
 1636              		.loc 1 514 5 view .LVU462
 516:Drivers/lvgl/src/core/lv_obj_pos.c **** }
 1637              		.loc 1 516 5 view .LVU463
 516:Drivers/lvgl/src/core/lv_obj_pos.c **** }
 1638              		.loc 1 516 12 is_stmt 0 view .LVU464
 1639 0004 FFF7FEFF 		bl	lv_obj_get_x
 1640              	.LVL138:
 516:Drivers/lvgl/src/core/lv_obj_pos.c **** }
 1641              		.loc 1 516 12 view .LVU465
 1642 0008 84B2     		uxth	r4, r0
 516:Drivers/lvgl/src/core/lv_obj_pos.c **** }
 1643              		.loc 1 516 32 view .LVU466
 1644 000a 2846     		mov	r0, r5
 1645 000c FFF7FEFF 		bl	lv_obj_get_width
 1646              	.LVL139:
 516:Drivers/lvgl/src/core/lv_obj_pos.c **** }
 1647              		.loc 1 516 30 view .LVU467
 1648 0010 14FA80F0 		uxtah	r0, r4, r0
 517:Drivers/lvgl/src/core/lv_obj_pos.c **** 
 1649              		.loc 1 517 1 view .LVU468
 1650 0014 00B2     		sxth	r0, r0
 1651 0016 38BD     		pop	{r3, r4, r5, pc}
 517:Drivers/lvgl/src/core/lv_obj_pos.c **** 
 1652              		.loc 1 517 1 view .LVU469
 1653              		.cfi_endproc
 1654              	.LFE186:
 1656              		.section	.text.lv_obj_get_height,"ax",%progbits
 1657              		.align	1
 1658              		.global	lv_obj_get_height
 1659              		.syntax unified
ARM GAS  /var/folders/0z/tsy30v1j4xl4_7kw94k978ww0000gn/T//cc4e96aK.s 			page 69


 1660              		.thumb
 1661              		.thumb_func
 1663              	lv_obj_get_height:
 1664              	.LVL140:
 1665              	.LFB192:
 563:Drivers/lvgl/src/core/lv_obj_pos.c ****     LV_ASSERT_OBJ(obj, MY_CLASS);
 1666              		.loc 1 563 1 is_stmt 1 view -0
 1667              		.cfi_startproc
 1668              		@ args = 0, pretend = 0, frame = 0
 1669              		@ frame_needed = 0, uses_anonymous_args = 0
 1670              		@ link register save eliminated.
 564:Drivers/lvgl/src/core/lv_obj_pos.c **** 
 1671              		.loc 1 564 5 view .LVU471
