ARM GAS  /var/folders/0z/tsy30v1j4xl4_7kw94k978ww0000gn/T//cc8A9NTU.s 			page 1


   1              		.cpu cortex-m4
   2              		.arch armv7e-m
   3              		.fpu fpv4-sp-d16
   4              		.eabi_attribute 27, 1
   5              		.eabi_attribute 28, 1
   6              		.eabi_attribute 20, 1
   7              		.eabi_attribute 21, 1
   8              		.eabi_attribute 23, 3
   9              		.eabi_attribute 24, 1
  10              		.eabi_attribute 25, 1
  11              		.eabi_attribute 26, 1
  12              		.eabi_attribute 30, 1
  13              		.eabi_attribute 34, 1
  14              		.eabi_attribute 18, 4
  15              		.file	"lv_obj_style.c"
  16              		.text
  17              	.Ltext0:
  18              		.cfi_sections	.debug_frame
  19              		.section	.text.trans_del,"ax",%progbits
  20              		.align	1
  21              		.syntax unified
  22              		.thumb
  23              		.thumb_func
  25              	trans_del:
  26              	.LVL0:
  27              	.LFB192:
  28              		.file 1 "Drivers/lvgl/src/core/lv_obj_style.c"
   1:Drivers/lvgl/src/core/lv_obj_style.c **** /**
   2:Drivers/lvgl/src/core/lv_obj_style.c ****  * @file lv_obj_style.c
   3:Drivers/lvgl/src/core/lv_obj_style.c ****  *
   4:Drivers/lvgl/src/core/lv_obj_style.c ****  */
   5:Drivers/lvgl/src/core/lv_obj_style.c **** 
   6:Drivers/lvgl/src/core/lv_obj_style.c **** /*********************
   7:Drivers/lvgl/src/core/lv_obj_style.c ****  *      INCLUDES
   8:Drivers/lvgl/src/core/lv_obj_style.c ****  *********************/
   9:Drivers/lvgl/src/core/lv_obj_style.c **** #include "lv_obj.h"
  10:Drivers/lvgl/src/core/lv_obj_style.c **** #include "lv_disp.h"
  11:Drivers/lvgl/src/core/lv_obj_style.c **** #include "../misc/lv_gc.h"
  12:Drivers/lvgl/src/core/lv_obj_style.c **** 
  13:Drivers/lvgl/src/core/lv_obj_style.c **** /*********************
  14:Drivers/lvgl/src/core/lv_obj_style.c ****  *      DEFINES
  15:Drivers/lvgl/src/core/lv_obj_style.c ****  *********************/
  16:Drivers/lvgl/src/core/lv_obj_style.c **** #define MY_CLASS &lv_obj_class
  17:Drivers/lvgl/src/core/lv_obj_style.c **** 
  18:Drivers/lvgl/src/core/lv_obj_style.c **** /**********************
  19:Drivers/lvgl/src/core/lv_obj_style.c ****  *      TYPEDEFS
  20:Drivers/lvgl/src/core/lv_obj_style.c ****  **********************/
  21:Drivers/lvgl/src/core/lv_obj_style.c **** 
  22:Drivers/lvgl/src/core/lv_obj_style.c **** typedef struct {
  23:Drivers/lvgl/src/core/lv_obj_style.c ****     lv_obj_t * obj;
  24:Drivers/lvgl/src/core/lv_obj_style.c ****     lv_style_prop_t prop;
  25:Drivers/lvgl/src/core/lv_obj_style.c ****     lv_style_selector_t selector;
  26:Drivers/lvgl/src/core/lv_obj_style.c ****     lv_style_value_t start_value;
  27:Drivers/lvgl/src/core/lv_obj_style.c ****     lv_style_value_t end_value;
  28:Drivers/lvgl/src/core/lv_obj_style.c **** } trans_t;
  29:Drivers/lvgl/src/core/lv_obj_style.c **** 
  30:Drivers/lvgl/src/core/lv_obj_style.c **** typedef enum {
ARM GAS  /var/folders/0z/tsy30v1j4xl4_7kw94k978ww0000gn/T//cc8A9NTU.s 			page 2


  31:Drivers/lvgl/src/core/lv_obj_style.c ****     CACHE_ZERO = 0,
  32:Drivers/lvgl/src/core/lv_obj_style.c ****     CACHE_TRUE = 1,
  33:Drivers/lvgl/src/core/lv_obj_style.c ****     CACHE_UNSET = 2,
  34:Drivers/lvgl/src/core/lv_obj_style.c ****     CACHE_255 = 3,
  35:Drivers/lvgl/src/core/lv_obj_style.c ****     CACHE_NEED_CHECK = 4,
  36:Drivers/lvgl/src/core/lv_obj_style.c **** } cache_t;
  37:Drivers/lvgl/src/core/lv_obj_style.c **** 
  38:Drivers/lvgl/src/core/lv_obj_style.c **** /**********************
  39:Drivers/lvgl/src/core/lv_obj_style.c ****  *  GLOBAL PROTOTYPES
  40:Drivers/lvgl/src/core/lv_obj_style.c ****  **********************/
  41:Drivers/lvgl/src/core/lv_obj_style.c **** 
  42:Drivers/lvgl/src/core/lv_obj_style.c **** /**********************
  43:Drivers/lvgl/src/core/lv_obj_style.c ****  *  STATIC PROTOTYPES
  44:Drivers/lvgl/src/core/lv_obj_style.c ****  **********************/
  45:Drivers/lvgl/src/core/lv_obj_style.c **** static lv_style_t * get_local_style(lv_obj_t * obj, lv_style_selector_t selector);
  46:Drivers/lvgl/src/core/lv_obj_style.c **** static _lv_obj_style_t * get_trans_style(lv_obj_t * obj, uint32_t part);
  47:Drivers/lvgl/src/core/lv_obj_style.c **** static lv_style_res_t get_prop_core(const lv_obj_t * obj, lv_part_t part, lv_style_prop_t prop, lv_
  48:Drivers/lvgl/src/core/lv_obj_style.c **** static void report_style_change_core(void * style, lv_obj_t * obj);
  49:Drivers/lvgl/src/core/lv_obj_style.c **** static void refresh_children_style(lv_obj_t * obj);
  50:Drivers/lvgl/src/core/lv_obj_style.c **** static bool trans_del(lv_obj_t * obj, lv_part_t part, lv_style_prop_t prop, trans_t * tr_limit);
  51:Drivers/lvgl/src/core/lv_obj_style.c **** static void trans_anim_cb(void * _tr, int32_t v);
  52:Drivers/lvgl/src/core/lv_obj_style.c **** static void trans_anim_start_cb(lv_anim_t * a);
  53:Drivers/lvgl/src/core/lv_obj_style.c **** static void trans_anim_ready_cb(lv_anim_t * a);
  54:Drivers/lvgl/src/core/lv_obj_style.c **** static lv_layer_type_t calculate_layer_type(lv_obj_t * obj);
  55:Drivers/lvgl/src/core/lv_obj_style.c **** static void fade_anim_cb(void * obj, int32_t v);
  56:Drivers/lvgl/src/core/lv_obj_style.c **** static void fade_in_anim_ready(lv_anim_t * a);
  57:Drivers/lvgl/src/core/lv_obj_style.c **** 
  58:Drivers/lvgl/src/core/lv_obj_style.c **** /**********************
  59:Drivers/lvgl/src/core/lv_obj_style.c ****  *  STATIC VARIABLES
  60:Drivers/lvgl/src/core/lv_obj_style.c ****  **********************/
  61:Drivers/lvgl/src/core/lv_obj_style.c **** static bool style_refr = true;
  62:Drivers/lvgl/src/core/lv_obj_style.c **** 
  63:Drivers/lvgl/src/core/lv_obj_style.c **** /**********************
  64:Drivers/lvgl/src/core/lv_obj_style.c ****  *      MACROS
  65:Drivers/lvgl/src/core/lv_obj_style.c ****  **********************/
  66:Drivers/lvgl/src/core/lv_obj_style.c **** 
  67:Drivers/lvgl/src/core/lv_obj_style.c **** /**********************
  68:Drivers/lvgl/src/core/lv_obj_style.c ****  *   GLOBAL FUNCTIONS
  69:Drivers/lvgl/src/core/lv_obj_style.c ****  **********************/
  70:Drivers/lvgl/src/core/lv_obj_style.c **** 
  71:Drivers/lvgl/src/core/lv_obj_style.c **** void _lv_obj_style_init(void)
  72:Drivers/lvgl/src/core/lv_obj_style.c **** {
  73:Drivers/lvgl/src/core/lv_obj_style.c ****     _lv_ll_init(&LV_GC_ROOT(_lv_obj_style_trans_ll), sizeof(trans_t));
  74:Drivers/lvgl/src/core/lv_obj_style.c **** }
  75:Drivers/lvgl/src/core/lv_obj_style.c **** 
  76:Drivers/lvgl/src/core/lv_obj_style.c **** void lv_obj_add_style(lv_obj_t * obj, lv_style_t * style, lv_style_selector_t selector)
  77:Drivers/lvgl/src/core/lv_obj_style.c **** {
  78:Drivers/lvgl/src/core/lv_obj_style.c ****     trans_del(obj, selector, LV_STYLE_PROP_ANY, NULL);
  79:Drivers/lvgl/src/core/lv_obj_style.c **** 
  80:Drivers/lvgl/src/core/lv_obj_style.c ****     uint32_t i;
  81:Drivers/lvgl/src/core/lv_obj_style.c ****     /*Go after the transition and local styles*/
  82:Drivers/lvgl/src/core/lv_obj_style.c ****     for(i = 0; i < obj->style_cnt; i++) {
  83:Drivers/lvgl/src/core/lv_obj_style.c ****         if(obj->styles[i].is_trans) continue;
  84:Drivers/lvgl/src/core/lv_obj_style.c ****         if(obj->styles[i].is_local) continue;
  85:Drivers/lvgl/src/core/lv_obj_style.c ****         break;
  86:Drivers/lvgl/src/core/lv_obj_style.c ****     }
  87:Drivers/lvgl/src/core/lv_obj_style.c **** 
ARM GAS  /var/folders/0z/tsy30v1j4xl4_7kw94k978ww0000gn/T//cc8A9NTU.s 			page 3


  88:Drivers/lvgl/src/core/lv_obj_style.c ****     /*Now `i` is at the first normal style. Insert the new style before this*/
  89:Drivers/lvgl/src/core/lv_obj_style.c **** 
  90:Drivers/lvgl/src/core/lv_obj_style.c ****     /*Allocate space for the new style and shift the rest of the style to the end*/
  91:Drivers/lvgl/src/core/lv_obj_style.c ****     obj->style_cnt++;
  92:Drivers/lvgl/src/core/lv_obj_style.c ****     obj->styles = lv_mem_realloc(obj->styles, obj->style_cnt * sizeof(_lv_obj_style_t));
  93:Drivers/lvgl/src/core/lv_obj_style.c **** 
  94:Drivers/lvgl/src/core/lv_obj_style.c ****     uint32_t j;
  95:Drivers/lvgl/src/core/lv_obj_style.c ****     for(j = obj->style_cnt - 1; j > i ; j--) {
  96:Drivers/lvgl/src/core/lv_obj_style.c ****         obj->styles[j] = obj->styles[j - 1];
  97:Drivers/lvgl/src/core/lv_obj_style.c ****     }
  98:Drivers/lvgl/src/core/lv_obj_style.c **** 
  99:Drivers/lvgl/src/core/lv_obj_style.c ****     lv_memset_00(&obj->styles[i], sizeof(_lv_obj_style_t));
 100:Drivers/lvgl/src/core/lv_obj_style.c ****     obj->styles[i].style = style;
 101:Drivers/lvgl/src/core/lv_obj_style.c ****     obj->styles[i].selector = selector;
 102:Drivers/lvgl/src/core/lv_obj_style.c **** 
 103:Drivers/lvgl/src/core/lv_obj_style.c ****     lv_obj_refresh_style(obj, selector, LV_STYLE_PROP_ANY);
 104:Drivers/lvgl/src/core/lv_obj_style.c **** }
 105:Drivers/lvgl/src/core/lv_obj_style.c **** 
 106:Drivers/lvgl/src/core/lv_obj_style.c **** void lv_obj_remove_style(lv_obj_t * obj, lv_style_t * style, lv_style_selector_t selector)
 107:Drivers/lvgl/src/core/lv_obj_style.c **** {
 108:Drivers/lvgl/src/core/lv_obj_style.c ****     lv_state_t state = lv_obj_style_get_selector_state(selector);
 109:Drivers/lvgl/src/core/lv_obj_style.c ****     lv_part_t part = lv_obj_style_get_selector_part(selector);
 110:Drivers/lvgl/src/core/lv_obj_style.c ****     lv_style_prop_t prop = LV_STYLE_PROP_ANY;
 111:Drivers/lvgl/src/core/lv_obj_style.c ****     if(style && style->prop_cnt == 0) prop = LV_STYLE_PROP_INV;
 112:Drivers/lvgl/src/core/lv_obj_style.c **** 
 113:Drivers/lvgl/src/core/lv_obj_style.c ****     uint32_t i = 0;
 114:Drivers/lvgl/src/core/lv_obj_style.c ****     bool deleted = false;
 115:Drivers/lvgl/src/core/lv_obj_style.c ****     while(i <  obj->style_cnt) {
 116:Drivers/lvgl/src/core/lv_obj_style.c ****         lv_state_t state_act = lv_obj_style_get_selector_state(obj->styles[i].selector);
 117:Drivers/lvgl/src/core/lv_obj_style.c ****         lv_part_t part_act = lv_obj_style_get_selector_part(obj->styles[i].selector);
 118:Drivers/lvgl/src/core/lv_obj_style.c ****         if((state != LV_STATE_ANY && state_act != state) ||
 119:Drivers/lvgl/src/core/lv_obj_style.c ****            (part != LV_PART_ANY && part_act != part) ||
 120:Drivers/lvgl/src/core/lv_obj_style.c ****            (style != NULL && style != obj->styles[i].style)) {
 121:Drivers/lvgl/src/core/lv_obj_style.c ****             i++;
 122:Drivers/lvgl/src/core/lv_obj_style.c ****             continue;
 123:Drivers/lvgl/src/core/lv_obj_style.c ****         }
 124:Drivers/lvgl/src/core/lv_obj_style.c **** 
 125:Drivers/lvgl/src/core/lv_obj_style.c ****         if(obj->styles[i].is_trans) {
 126:Drivers/lvgl/src/core/lv_obj_style.c ****             trans_del(obj, part, LV_STYLE_PROP_ANY, NULL);
 127:Drivers/lvgl/src/core/lv_obj_style.c ****         }
 128:Drivers/lvgl/src/core/lv_obj_style.c **** 
 129:Drivers/lvgl/src/core/lv_obj_style.c ****         if(obj->styles[i].is_local || obj->styles[i].is_trans) {
 130:Drivers/lvgl/src/core/lv_obj_style.c ****             lv_style_reset(obj->styles[i].style);
 131:Drivers/lvgl/src/core/lv_obj_style.c ****             lv_mem_free(obj->styles[i].style);
 132:Drivers/lvgl/src/core/lv_obj_style.c ****             obj->styles[i].style = NULL;
 133:Drivers/lvgl/src/core/lv_obj_style.c ****         }
 134:Drivers/lvgl/src/core/lv_obj_style.c **** 
 135:Drivers/lvgl/src/core/lv_obj_style.c ****         /*Shift the styles after `i` by one*/
 136:Drivers/lvgl/src/core/lv_obj_style.c ****         uint32_t j;
 137:Drivers/lvgl/src/core/lv_obj_style.c ****         for(j = i; j < (uint32_t)obj->style_cnt - 1 ; j++) {
 138:Drivers/lvgl/src/core/lv_obj_style.c ****             obj->styles[j] = obj->styles[j + 1];
 139:Drivers/lvgl/src/core/lv_obj_style.c ****         }
 140:Drivers/lvgl/src/core/lv_obj_style.c **** 
 141:Drivers/lvgl/src/core/lv_obj_style.c ****         obj->style_cnt--;
 142:Drivers/lvgl/src/core/lv_obj_style.c ****         obj->styles = lv_mem_realloc(obj->styles, obj->style_cnt * sizeof(_lv_obj_style_t));
 143:Drivers/lvgl/src/core/lv_obj_style.c **** 
 144:Drivers/lvgl/src/core/lv_obj_style.c ****         deleted = true;
ARM GAS  /var/folders/0z/tsy30v1j4xl4_7kw94k978ww0000gn/T//cc8A9NTU.s 			page 4


 145:Drivers/lvgl/src/core/lv_obj_style.c ****         /*The style from the current `i` index is removed, so `i` points to the next style.
 146:Drivers/lvgl/src/core/lv_obj_style.c ****          *Therefore it doesn't needs to be incremented*/
 147:Drivers/lvgl/src/core/lv_obj_style.c ****     }
 148:Drivers/lvgl/src/core/lv_obj_style.c ****     if(deleted && prop != LV_STYLE_PROP_INV) {
 149:Drivers/lvgl/src/core/lv_obj_style.c ****         lv_obj_refresh_style(obj, part, prop);
 150:Drivers/lvgl/src/core/lv_obj_style.c ****     }
 151:Drivers/lvgl/src/core/lv_obj_style.c **** }
 152:Drivers/lvgl/src/core/lv_obj_style.c **** 
 153:Drivers/lvgl/src/core/lv_obj_style.c **** void lv_obj_report_style_change(lv_style_t * style)
 154:Drivers/lvgl/src/core/lv_obj_style.c **** {
 155:Drivers/lvgl/src/core/lv_obj_style.c ****     if(!style_refr) return;
 156:Drivers/lvgl/src/core/lv_obj_style.c ****     lv_disp_t * d = lv_disp_get_next(NULL);
 157:Drivers/lvgl/src/core/lv_obj_style.c **** 
 158:Drivers/lvgl/src/core/lv_obj_style.c ****     while(d) {
 159:Drivers/lvgl/src/core/lv_obj_style.c ****         uint32_t i;
 160:Drivers/lvgl/src/core/lv_obj_style.c ****         for(i = 0; i < d->screen_cnt; i++) {
 161:Drivers/lvgl/src/core/lv_obj_style.c ****             report_style_change_core(style, d->screens[i]);
 162:Drivers/lvgl/src/core/lv_obj_style.c ****         }
 163:Drivers/lvgl/src/core/lv_obj_style.c ****         d = lv_disp_get_next(d);
 164:Drivers/lvgl/src/core/lv_obj_style.c ****     }
 165:Drivers/lvgl/src/core/lv_obj_style.c **** }
 166:Drivers/lvgl/src/core/lv_obj_style.c **** 
 167:Drivers/lvgl/src/core/lv_obj_style.c **** void lv_obj_refresh_style(lv_obj_t * obj, lv_style_selector_t selector, lv_style_prop_t prop)
 168:Drivers/lvgl/src/core/lv_obj_style.c **** {
 169:Drivers/lvgl/src/core/lv_obj_style.c ****     LV_ASSERT_OBJ(obj, MY_CLASS);
 170:Drivers/lvgl/src/core/lv_obj_style.c **** 
 171:Drivers/lvgl/src/core/lv_obj_style.c ****     if(!style_refr) return;
 172:Drivers/lvgl/src/core/lv_obj_style.c **** 
 173:Drivers/lvgl/src/core/lv_obj_style.c ****     lv_obj_invalidate(obj);
 174:Drivers/lvgl/src/core/lv_obj_style.c **** 
 175:Drivers/lvgl/src/core/lv_obj_style.c ****     lv_part_t part = lv_obj_style_get_selector_part(selector);
 176:Drivers/lvgl/src/core/lv_obj_style.c **** 
 177:Drivers/lvgl/src/core/lv_obj_style.c ****     bool is_layout_refr = lv_style_prop_has_flag(prop, LV_STYLE_PROP_LAYOUT_REFR);
 178:Drivers/lvgl/src/core/lv_obj_style.c ****     bool is_ext_draw = lv_style_prop_has_flag(prop, LV_STYLE_PROP_EXT_DRAW);
 179:Drivers/lvgl/src/core/lv_obj_style.c ****     bool is_inheritable = lv_style_prop_has_flag(prop, LV_STYLE_PROP_INHERIT);
 180:Drivers/lvgl/src/core/lv_obj_style.c ****     bool is_layer_refr = lv_style_prop_has_flag(prop, LV_STYLE_PROP_LAYER_REFR);
 181:Drivers/lvgl/src/core/lv_obj_style.c **** 
 182:Drivers/lvgl/src/core/lv_obj_style.c ****     if(is_layout_refr) {
 183:Drivers/lvgl/src/core/lv_obj_style.c ****         if(part == LV_PART_ANY ||
 184:Drivers/lvgl/src/core/lv_obj_style.c ****            part == LV_PART_MAIN ||
 185:Drivers/lvgl/src/core/lv_obj_style.c ****            lv_obj_get_style_height(obj, 0) == LV_SIZE_CONTENT ||
 186:Drivers/lvgl/src/core/lv_obj_style.c ****            lv_obj_get_style_width(obj, 0) == LV_SIZE_CONTENT) {
 187:Drivers/lvgl/src/core/lv_obj_style.c ****             lv_event_send(obj, LV_EVENT_STYLE_CHANGED, NULL);
 188:Drivers/lvgl/src/core/lv_obj_style.c ****             lv_obj_mark_layout_as_dirty(obj);
 189:Drivers/lvgl/src/core/lv_obj_style.c ****         }
 190:Drivers/lvgl/src/core/lv_obj_style.c ****     }
 191:Drivers/lvgl/src/core/lv_obj_style.c ****     if((part == LV_PART_ANY || part == LV_PART_MAIN) && (prop == LV_STYLE_PROP_ANY || is_layout_ref
 192:Drivers/lvgl/src/core/lv_obj_style.c ****         lv_obj_t * parent = lv_obj_get_parent(obj);
 193:Drivers/lvgl/src/core/lv_obj_style.c ****         if(parent) lv_obj_mark_layout_as_dirty(parent);
 194:Drivers/lvgl/src/core/lv_obj_style.c ****     }
 195:Drivers/lvgl/src/core/lv_obj_style.c **** 
 196:Drivers/lvgl/src/core/lv_obj_style.c ****     /*Cache the layer type*/
 197:Drivers/lvgl/src/core/lv_obj_style.c ****     if((part == LV_PART_ANY || part == LV_PART_MAIN) && is_layer_refr) {
 198:Drivers/lvgl/src/core/lv_obj_style.c ****         lv_layer_type_t layer_type = calculate_layer_type(obj);
 199:Drivers/lvgl/src/core/lv_obj_style.c ****         if(obj->spec_attr) obj->spec_attr->layer_type = layer_type;
 200:Drivers/lvgl/src/core/lv_obj_style.c ****         else if(layer_type != LV_LAYER_TYPE_NONE) {
 201:Drivers/lvgl/src/core/lv_obj_style.c ****             lv_obj_allocate_spec_attr(obj);
ARM GAS  /var/folders/0z/tsy30v1j4xl4_7kw94k978ww0000gn/T//cc8A9NTU.s 			page 5


 202:Drivers/lvgl/src/core/lv_obj_style.c ****             obj->spec_attr->layer_type = layer_type;
 203:Drivers/lvgl/src/core/lv_obj_style.c ****         }
 204:Drivers/lvgl/src/core/lv_obj_style.c ****     }
 205:Drivers/lvgl/src/core/lv_obj_style.c **** 
 206:Drivers/lvgl/src/core/lv_obj_style.c ****     if(prop == LV_STYLE_PROP_ANY || is_ext_draw) {
 207:Drivers/lvgl/src/core/lv_obj_style.c ****         lv_obj_refresh_ext_draw_size(obj);
 208:Drivers/lvgl/src/core/lv_obj_style.c ****     }
 209:Drivers/lvgl/src/core/lv_obj_style.c ****     lv_obj_invalidate(obj);
 210:Drivers/lvgl/src/core/lv_obj_style.c **** 
 211:Drivers/lvgl/src/core/lv_obj_style.c ****     if(prop == LV_STYLE_PROP_ANY || (is_inheritable && (is_ext_draw || is_layout_refr))) {
 212:Drivers/lvgl/src/core/lv_obj_style.c ****         if(part != LV_PART_SCROLLBAR) {
 213:Drivers/lvgl/src/core/lv_obj_style.c ****             refresh_children_style(obj);
 214:Drivers/lvgl/src/core/lv_obj_style.c ****         }
 215:Drivers/lvgl/src/core/lv_obj_style.c ****     }
 216:Drivers/lvgl/src/core/lv_obj_style.c **** }
 217:Drivers/lvgl/src/core/lv_obj_style.c **** 
 218:Drivers/lvgl/src/core/lv_obj_style.c **** void lv_obj_enable_style_refresh(bool en)
 219:Drivers/lvgl/src/core/lv_obj_style.c **** {
 220:Drivers/lvgl/src/core/lv_obj_style.c ****     style_refr = en;
 221:Drivers/lvgl/src/core/lv_obj_style.c **** }
 222:Drivers/lvgl/src/core/lv_obj_style.c **** 
 223:Drivers/lvgl/src/core/lv_obj_style.c **** lv_style_value_t lv_obj_get_style_prop(const lv_obj_t * obj, lv_part_t part, lv_style_prop_t prop)
 224:Drivers/lvgl/src/core/lv_obj_style.c **** {
 225:Drivers/lvgl/src/core/lv_obj_style.c ****     lv_style_value_t value_act;
 226:Drivers/lvgl/src/core/lv_obj_style.c ****     bool inheritable = lv_style_prop_has_flag(prop, LV_STYLE_PROP_INHERIT);
 227:Drivers/lvgl/src/core/lv_obj_style.c ****     lv_style_res_t found = LV_STYLE_RES_NOT_FOUND;
 228:Drivers/lvgl/src/core/lv_obj_style.c ****     while(obj) {
 229:Drivers/lvgl/src/core/lv_obj_style.c ****         found = get_prop_core(obj, part, prop, &value_act);
 230:Drivers/lvgl/src/core/lv_obj_style.c ****         if(found == LV_STYLE_RES_FOUND) break;
 231:Drivers/lvgl/src/core/lv_obj_style.c ****         if(!inheritable) break;
 232:Drivers/lvgl/src/core/lv_obj_style.c **** 
 233:Drivers/lvgl/src/core/lv_obj_style.c ****         /*If not found, check the `MAIN` style first*/
 234:Drivers/lvgl/src/core/lv_obj_style.c ****         if(found != LV_STYLE_RES_INHERIT && part != LV_PART_MAIN) {
 235:Drivers/lvgl/src/core/lv_obj_style.c ****             part = LV_PART_MAIN;
 236:Drivers/lvgl/src/core/lv_obj_style.c ****             continue;
 237:Drivers/lvgl/src/core/lv_obj_style.c ****         }
 238:Drivers/lvgl/src/core/lv_obj_style.c **** 
 239:Drivers/lvgl/src/core/lv_obj_style.c ****         /*Check the parent too.*/
 240:Drivers/lvgl/src/core/lv_obj_style.c ****         obj = lv_obj_get_parent(obj);
 241:Drivers/lvgl/src/core/lv_obj_style.c ****     }
 242:Drivers/lvgl/src/core/lv_obj_style.c **** 
 243:Drivers/lvgl/src/core/lv_obj_style.c ****     if(found != LV_STYLE_RES_FOUND) {
 244:Drivers/lvgl/src/core/lv_obj_style.c ****         if(part == LV_PART_MAIN && (prop == LV_STYLE_WIDTH || prop == LV_STYLE_HEIGHT)) {
 245:Drivers/lvgl/src/core/lv_obj_style.c ****             const lv_obj_class_t * cls = obj->class_p;
 246:Drivers/lvgl/src/core/lv_obj_style.c ****             while(cls) {
 247:Drivers/lvgl/src/core/lv_obj_style.c ****                 if(prop == LV_STYLE_WIDTH) {
 248:Drivers/lvgl/src/core/lv_obj_style.c ****                     if(cls->width_def != 0) break;
 249:Drivers/lvgl/src/core/lv_obj_style.c ****                 }
 250:Drivers/lvgl/src/core/lv_obj_style.c ****                 else {
 251:Drivers/lvgl/src/core/lv_obj_style.c ****                     if(cls->height_def != 0) break;
 252:Drivers/lvgl/src/core/lv_obj_style.c ****                 }
 253:Drivers/lvgl/src/core/lv_obj_style.c ****                 cls = cls->base_class;
 254:Drivers/lvgl/src/core/lv_obj_style.c ****             }
 255:Drivers/lvgl/src/core/lv_obj_style.c **** 
 256:Drivers/lvgl/src/core/lv_obj_style.c ****             if(cls) {
 257:Drivers/lvgl/src/core/lv_obj_style.c ****                 value_act.num = prop == LV_STYLE_WIDTH ? cls->width_def : cls->height_def;
 258:Drivers/lvgl/src/core/lv_obj_style.c ****             }
ARM GAS  /var/folders/0z/tsy30v1j4xl4_7kw94k978ww0000gn/T//cc8A9NTU.s 			page 6


 259:Drivers/lvgl/src/core/lv_obj_style.c ****             else {
 260:Drivers/lvgl/src/core/lv_obj_style.c ****                 value_act.num = 0;
 261:Drivers/lvgl/src/core/lv_obj_style.c ****             }
 262:Drivers/lvgl/src/core/lv_obj_style.c ****         }
 263:Drivers/lvgl/src/core/lv_obj_style.c ****         else {
 264:Drivers/lvgl/src/core/lv_obj_style.c ****             value_act = lv_style_prop_get_default(prop);
 265:Drivers/lvgl/src/core/lv_obj_style.c ****         }
 266:Drivers/lvgl/src/core/lv_obj_style.c ****     }
 267:Drivers/lvgl/src/core/lv_obj_style.c ****     return value_act;
 268:Drivers/lvgl/src/core/lv_obj_style.c **** }
 269:Drivers/lvgl/src/core/lv_obj_style.c **** 
 270:Drivers/lvgl/src/core/lv_obj_style.c **** void lv_obj_set_local_style_prop(lv_obj_t * obj, lv_style_prop_t prop, lv_style_value_t value,
 271:Drivers/lvgl/src/core/lv_obj_style.c ****                                  lv_style_selector_t selector)
 272:Drivers/lvgl/src/core/lv_obj_style.c **** {
 273:Drivers/lvgl/src/core/lv_obj_style.c ****     lv_style_t * style = get_local_style(obj, selector);
 274:Drivers/lvgl/src/core/lv_obj_style.c ****     lv_style_set_prop(style, prop, value);
 275:Drivers/lvgl/src/core/lv_obj_style.c ****     lv_obj_refresh_style(obj, selector, prop);
 276:Drivers/lvgl/src/core/lv_obj_style.c **** }
 277:Drivers/lvgl/src/core/lv_obj_style.c **** 
 278:Drivers/lvgl/src/core/lv_obj_style.c **** void lv_obj_set_local_style_prop_meta(lv_obj_t * obj, lv_style_prop_t prop, uint16_t meta,
 279:Drivers/lvgl/src/core/lv_obj_style.c ****                                       lv_style_selector_t selector)
 280:Drivers/lvgl/src/core/lv_obj_style.c **** {
 281:Drivers/lvgl/src/core/lv_obj_style.c ****     lv_style_t * style = get_local_style(obj, selector);
 282:Drivers/lvgl/src/core/lv_obj_style.c ****     lv_style_set_prop_meta(style, prop, meta);
 283:Drivers/lvgl/src/core/lv_obj_style.c ****     lv_obj_refresh_style(obj, selector, prop);
 284:Drivers/lvgl/src/core/lv_obj_style.c **** }
 285:Drivers/lvgl/src/core/lv_obj_style.c **** 
 286:Drivers/lvgl/src/core/lv_obj_style.c **** 
 287:Drivers/lvgl/src/core/lv_obj_style.c **** lv_style_res_t lv_obj_get_local_style_prop(lv_obj_t * obj, lv_style_prop_t prop, lv_style_value_t *
 288:Drivers/lvgl/src/core/lv_obj_style.c ****                                            lv_style_selector_t selector)
 289:Drivers/lvgl/src/core/lv_obj_style.c **** {
 290:Drivers/lvgl/src/core/lv_obj_style.c ****     uint32_t i;
 291:Drivers/lvgl/src/core/lv_obj_style.c ****     for(i = 0; i < obj->style_cnt; i++) {
 292:Drivers/lvgl/src/core/lv_obj_style.c ****         if(obj->styles[i].is_local &&
 293:Drivers/lvgl/src/core/lv_obj_style.c ****            obj->styles[i].selector == selector) {
 294:Drivers/lvgl/src/core/lv_obj_style.c ****             return lv_style_get_prop(obj->styles[i].style, prop, value);
 295:Drivers/lvgl/src/core/lv_obj_style.c ****         }
 296:Drivers/lvgl/src/core/lv_obj_style.c ****     }
 297:Drivers/lvgl/src/core/lv_obj_style.c **** 
 298:Drivers/lvgl/src/core/lv_obj_style.c ****     return LV_STYLE_RES_NOT_FOUND;
 299:Drivers/lvgl/src/core/lv_obj_style.c **** }
 300:Drivers/lvgl/src/core/lv_obj_style.c **** 
 301:Drivers/lvgl/src/core/lv_obj_style.c **** bool lv_obj_remove_local_style_prop(lv_obj_t * obj, lv_style_prop_t prop, lv_style_selector_t selec
 302:Drivers/lvgl/src/core/lv_obj_style.c **** {
 303:Drivers/lvgl/src/core/lv_obj_style.c ****     LV_ASSERT_OBJ(obj, MY_CLASS);
 304:Drivers/lvgl/src/core/lv_obj_style.c **** 
 305:Drivers/lvgl/src/core/lv_obj_style.c ****     uint32_t i;
 306:Drivers/lvgl/src/core/lv_obj_style.c ****     /*Find the style*/
 307:Drivers/lvgl/src/core/lv_obj_style.c ****     for(i = 0; i < obj->style_cnt; i++) {
 308:Drivers/lvgl/src/core/lv_obj_style.c ****         if(obj->styles[i].is_local &&
 309:Drivers/lvgl/src/core/lv_obj_style.c ****            obj->styles[i].selector == selector) {
 310:Drivers/lvgl/src/core/lv_obj_style.c ****             break;
 311:Drivers/lvgl/src/core/lv_obj_style.c ****         }
 312:Drivers/lvgl/src/core/lv_obj_style.c ****     }
 313:Drivers/lvgl/src/core/lv_obj_style.c **** 
 314:Drivers/lvgl/src/core/lv_obj_style.c ****     /*The style is not found*/
 315:Drivers/lvgl/src/core/lv_obj_style.c ****     if(i == obj->style_cnt) return false;
ARM GAS  /var/folders/0z/tsy30v1j4xl4_7kw94k978ww0000gn/T//cc8A9NTU.s 			page 7


 316:Drivers/lvgl/src/core/lv_obj_style.c **** 
 317:Drivers/lvgl/src/core/lv_obj_style.c ****     lv_res_t res = lv_style_remove_prop(obj->styles[i].style, prop);
 318:Drivers/lvgl/src/core/lv_obj_style.c ****     if(res == LV_RES_OK) {
 319:Drivers/lvgl/src/core/lv_obj_style.c ****         lv_obj_refresh_style(obj, selector, prop);
 320:Drivers/lvgl/src/core/lv_obj_style.c ****     }
 321:Drivers/lvgl/src/core/lv_obj_style.c **** 
 322:Drivers/lvgl/src/core/lv_obj_style.c ****     return res;
 323:Drivers/lvgl/src/core/lv_obj_style.c **** }
 324:Drivers/lvgl/src/core/lv_obj_style.c **** 
 325:Drivers/lvgl/src/core/lv_obj_style.c **** void _lv_obj_style_create_transition(lv_obj_t * obj, lv_part_t part, lv_state_t prev_state, lv_stat
 326:Drivers/lvgl/src/core/lv_obj_style.c ****                                      const _lv_obj_style_transition_dsc_t * tr_dsc)
 327:Drivers/lvgl/src/core/lv_obj_style.c **** {
 328:Drivers/lvgl/src/core/lv_obj_style.c ****     trans_t * tr;
 329:Drivers/lvgl/src/core/lv_obj_style.c **** 
 330:Drivers/lvgl/src/core/lv_obj_style.c ****     /*Get the previous and current values*/
 331:Drivers/lvgl/src/core/lv_obj_style.c ****     obj->skip_trans = 1;
 332:Drivers/lvgl/src/core/lv_obj_style.c ****     obj->state = prev_state;
 333:Drivers/lvgl/src/core/lv_obj_style.c ****     lv_style_value_t v1 = lv_obj_get_style_prop(obj, part, tr_dsc->prop);
 334:Drivers/lvgl/src/core/lv_obj_style.c ****     obj->state = new_state;
 335:Drivers/lvgl/src/core/lv_obj_style.c ****     lv_style_value_t v2 = lv_obj_get_style_prop(obj, part, tr_dsc->prop);
 336:Drivers/lvgl/src/core/lv_obj_style.c ****     obj->skip_trans = 0;
 337:Drivers/lvgl/src/core/lv_obj_style.c **** 
 338:Drivers/lvgl/src/core/lv_obj_style.c ****     if(v1.ptr == v2.ptr && v1.num == v2.num && v1.color.full == v2.color.full)  return;
 339:Drivers/lvgl/src/core/lv_obj_style.c ****     obj->state = prev_state;
 340:Drivers/lvgl/src/core/lv_obj_style.c ****     v1 = lv_obj_get_style_prop(obj, part, tr_dsc->prop);
 341:Drivers/lvgl/src/core/lv_obj_style.c ****     obj->state = new_state;
 342:Drivers/lvgl/src/core/lv_obj_style.c **** 
 343:Drivers/lvgl/src/core/lv_obj_style.c ****     _lv_obj_style_t * style_trans = get_trans_style(obj, part);
 344:Drivers/lvgl/src/core/lv_obj_style.c ****     lv_style_set_prop(style_trans->style, tr_dsc->prop, v1);   /*Be sure `trans_style` has a valid 
 345:Drivers/lvgl/src/core/lv_obj_style.c **** 
 346:Drivers/lvgl/src/core/lv_obj_style.c ****     if(tr_dsc->prop == LV_STYLE_RADIUS) {
 347:Drivers/lvgl/src/core/lv_obj_style.c ****         if(v1.num == LV_RADIUS_CIRCLE || v2.num == LV_RADIUS_CIRCLE) {
 348:Drivers/lvgl/src/core/lv_obj_style.c ****             lv_coord_t whalf = lv_obj_get_width(obj) / 2;
 349:Drivers/lvgl/src/core/lv_obj_style.c ****             lv_coord_t hhalf = lv_obj_get_height(obj) / 2;
 350:Drivers/lvgl/src/core/lv_obj_style.c ****             if(v1.num == LV_RADIUS_CIRCLE) v1.num = LV_MIN(whalf + 1, hhalf + 1);
 351:Drivers/lvgl/src/core/lv_obj_style.c ****             if(v2.num == LV_RADIUS_CIRCLE) v2.num = LV_MIN(whalf + 1, hhalf + 1);
 352:Drivers/lvgl/src/core/lv_obj_style.c ****         }
 353:Drivers/lvgl/src/core/lv_obj_style.c ****     }
 354:Drivers/lvgl/src/core/lv_obj_style.c **** 
 355:Drivers/lvgl/src/core/lv_obj_style.c ****     tr = _lv_ll_ins_head(&LV_GC_ROOT(_lv_obj_style_trans_ll));
 356:Drivers/lvgl/src/core/lv_obj_style.c ****     LV_ASSERT_MALLOC(tr);
 357:Drivers/lvgl/src/core/lv_obj_style.c ****     if(tr == NULL) return;
 358:Drivers/lvgl/src/core/lv_obj_style.c ****     tr->start_value = v1;
 359:Drivers/lvgl/src/core/lv_obj_style.c ****     tr->end_value = v2;
 360:Drivers/lvgl/src/core/lv_obj_style.c ****     tr->obj = obj;
 361:Drivers/lvgl/src/core/lv_obj_style.c ****     tr->prop = tr_dsc->prop;
 362:Drivers/lvgl/src/core/lv_obj_style.c ****     tr->selector = part;
 363:Drivers/lvgl/src/core/lv_obj_style.c **** 
 364:Drivers/lvgl/src/core/lv_obj_style.c ****     lv_anim_t a;
 365:Drivers/lvgl/src/core/lv_obj_style.c ****     lv_anim_init(&a);
 366:Drivers/lvgl/src/core/lv_obj_style.c ****     lv_anim_set_var(&a, tr);
 367:Drivers/lvgl/src/core/lv_obj_style.c ****     lv_anim_set_exec_cb(&a, trans_anim_cb);
 368:Drivers/lvgl/src/core/lv_obj_style.c ****     lv_anim_set_start_cb(&a, trans_anim_start_cb);
 369:Drivers/lvgl/src/core/lv_obj_style.c ****     lv_anim_set_ready_cb(&a, trans_anim_ready_cb);
 370:Drivers/lvgl/src/core/lv_obj_style.c ****     lv_anim_set_values(&a, 0x00, 0xFF);
 371:Drivers/lvgl/src/core/lv_obj_style.c ****     lv_anim_set_time(&a, tr_dsc->time);
 372:Drivers/lvgl/src/core/lv_obj_style.c ****     lv_anim_set_delay(&a, tr_dsc->delay);
ARM GAS  /var/folders/0z/tsy30v1j4xl4_7kw94k978ww0000gn/T//cc8A9NTU.s 			page 8


 373:Drivers/lvgl/src/core/lv_obj_style.c ****     lv_anim_set_path_cb(&a, tr_dsc->path_cb);
 374:Drivers/lvgl/src/core/lv_obj_style.c ****     lv_anim_set_early_apply(&a, false);
 375:Drivers/lvgl/src/core/lv_obj_style.c **** #if LV_USE_USER_DATA
 376:Drivers/lvgl/src/core/lv_obj_style.c ****     a.user_data = tr_dsc->user_data;
 377:Drivers/lvgl/src/core/lv_obj_style.c **** #endif
 378:Drivers/lvgl/src/core/lv_obj_style.c ****     lv_anim_start(&a);
 379:Drivers/lvgl/src/core/lv_obj_style.c **** }
 380:Drivers/lvgl/src/core/lv_obj_style.c **** 
 381:Drivers/lvgl/src/core/lv_obj_style.c **** 
 382:Drivers/lvgl/src/core/lv_obj_style.c **** lv_style_value_t _lv_obj_style_apply_color_filter(const lv_obj_t * obj, uint32_t part, lv_style_val
 383:Drivers/lvgl/src/core/lv_obj_style.c **** {
 384:Drivers/lvgl/src/core/lv_obj_style.c ****     if(obj == NULL) return v;
 385:Drivers/lvgl/src/core/lv_obj_style.c ****     const lv_color_filter_dsc_t * f = lv_obj_get_style_color_filter_dsc(obj, part);
 386:Drivers/lvgl/src/core/lv_obj_style.c ****     if(f && f->filter_cb) {
 387:Drivers/lvgl/src/core/lv_obj_style.c ****         lv_opa_t f_opa = lv_obj_get_style_color_filter_opa(obj, part);
 388:Drivers/lvgl/src/core/lv_obj_style.c ****         if(f_opa != 0) v.color = f->filter_cb(f, v.color, f_opa);
 389:Drivers/lvgl/src/core/lv_obj_style.c ****     }
 390:Drivers/lvgl/src/core/lv_obj_style.c ****     return v;
 391:Drivers/lvgl/src/core/lv_obj_style.c **** }
 392:Drivers/lvgl/src/core/lv_obj_style.c **** 
 393:Drivers/lvgl/src/core/lv_obj_style.c **** _lv_style_state_cmp_t _lv_obj_style_state_compare(lv_obj_t * obj, lv_state_t state1, lv_state_t sta
 394:Drivers/lvgl/src/core/lv_obj_style.c **** {
 395:Drivers/lvgl/src/core/lv_obj_style.c ****     _lv_style_state_cmp_t res = _LV_STYLE_STATE_CMP_SAME;
 396:Drivers/lvgl/src/core/lv_obj_style.c **** 
 397:Drivers/lvgl/src/core/lv_obj_style.c ****     /*Are there any new styles for the new state?*/
 398:Drivers/lvgl/src/core/lv_obj_style.c ****     uint32_t i;
 399:Drivers/lvgl/src/core/lv_obj_style.c ****     for(i = 0; i < obj->style_cnt; i++) {
 400:Drivers/lvgl/src/core/lv_obj_style.c ****         if(obj->styles[i].is_trans) continue;
 401:Drivers/lvgl/src/core/lv_obj_style.c **** 
 402:Drivers/lvgl/src/core/lv_obj_style.c ****         lv_state_t state_act = lv_obj_style_get_selector_state(obj->styles[i].selector);
 403:Drivers/lvgl/src/core/lv_obj_style.c ****         /*The style is valid for a state but not the other*/
 404:Drivers/lvgl/src/core/lv_obj_style.c ****         bool valid1 = state_act & (~state1) ? false : true;
 405:Drivers/lvgl/src/core/lv_obj_style.c ****         bool valid2 = state_act & (~state2) ? false : true;
 406:Drivers/lvgl/src/core/lv_obj_style.c ****         if(valid1 != valid2) {
 407:Drivers/lvgl/src/core/lv_obj_style.c ****             lv_style_t * style = obj->styles[i].style;
 408:Drivers/lvgl/src/core/lv_obj_style.c ****             lv_style_value_t v;
 409:Drivers/lvgl/src/core/lv_obj_style.c ****             /*If there is layout difference on the main part, return immediately. There is no more 
 410:Drivers/lvgl/src/core/lv_obj_style.c ****             bool layout_diff = false;
 411:Drivers/lvgl/src/core/lv_obj_style.c ****             if(lv_style_get_prop(style, LV_STYLE_PAD_TOP, &v))layout_diff = true;
 412:Drivers/lvgl/src/core/lv_obj_style.c ****             else if(lv_style_get_prop(style, LV_STYLE_PAD_BOTTOM, &v)) layout_diff = true;
 413:Drivers/lvgl/src/core/lv_obj_style.c ****             else if(lv_style_get_prop(style, LV_STYLE_PAD_LEFT, &v)) layout_diff = true;
 414:Drivers/lvgl/src/core/lv_obj_style.c ****             else if(lv_style_get_prop(style, LV_STYLE_PAD_RIGHT, &v)) layout_diff = true;
 415:Drivers/lvgl/src/core/lv_obj_style.c ****             else if(lv_style_get_prop(style, LV_STYLE_PAD_COLUMN, &v)) layout_diff = true;
 416:Drivers/lvgl/src/core/lv_obj_style.c ****             else if(lv_style_get_prop(style, LV_STYLE_PAD_ROW, &v)) layout_diff = true;
 417:Drivers/lvgl/src/core/lv_obj_style.c ****             else if(lv_style_get_prop(style, LV_STYLE_LAYOUT, &v)) layout_diff = true;
 418:Drivers/lvgl/src/core/lv_obj_style.c ****             else if(lv_style_get_prop(style, LV_STYLE_TRANSLATE_X, &v)) layout_diff = true;
 419:Drivers/lvgl/src/core/lv_obj_style.c ****             else if(lv_style_get_prop(style, LV_STYLE_TRANSLATE_Y, &v)) layout_diff = true;
 420:Drivers/lvgl/src/core/lv_obj_style.c ****             else if(lv_style_get_prop(style, LV_STYLE_WIDTH, &v)) layout_diff = true;
 421:Drivers/lvgl/src/core/lv_obj_style.c ****             else if(lv_style_get_prop(style, LV_STYLE_HEIGHT, &v)) layout_diff = true;
 422:Drivers/lvgl/src/core/lv_obj_style.c ****             else if(lv_style_get_prop(style, LV_STYLE_MIN_WIDTH, &v)) layout_diff = true;
 423:Drivers/lvgl/src/core/lv_obj_style.c ****             else if(lv_style_get_prop(style, LV_STYLE_MAX_WIDTH, &v)) layout_diff = true;
 424:Drivers/lvgl/src/core/lv_obj_style.c ****             else if(lv_style_get_prop(style, LV_STYLE_MIN_HEIGHT, &v)) layout_diff = true;
 425:Drivers/lvgl/src/core/lv_obj_style.c ****             else if(lv_style_get_prop(style, LV_STYLE_MAX_HEIGHT, &v)) layout_diff = true;
 426:Drivers/lvgl/src/core/lv_obj_style.c ****             else if(lv_style_get_prop(style, LV_STYLE_BORDER_WIDTH, &v)) layout_diff = true;
 427:Drivers/lvgl/src/core/lv_obj_style.c ****             else if(lv_style_get_prop(style, LV_STYLE_TRANSFORM_ANGLE, &v)) layout_diff = true;
 428:Drivers/lvgl/src/core/lv_obj_style.c ****             else if(lv_style_get_prop(style, LV_STYLE_TRANSFORM_ZOOM, &v)) layout_diff = true;
 429:Drivers/lvgl/src/core/lv_obj_style.c **** 
ARM GAS  /var/folders/0z/tsy30v1j4xl4_7kw94k978ww0000gn/T//cc8A9NTU.s 			page 9


 430:Drivers/lvgl/src/core/lv_obj_style.c ****             if(layout_diff) {
 431:Drivers/lvgl/src/core/lv_obj_style.c ****                 return _LV_STYLE_STATE_CMP_DIFF_LAYOUT;
 432:Drivers/lvgl/src/core/lv_obj_style.c ****             }
 433:Drivers/lvgl/src/core/lv_obj_style.c **** 
 434:Drivers/lvgl/src/core/lv_obj_style.c ****             /*Check for draw pad changes*/
 435:Drivers/lvgl/src/core/lv_obj_style.c ****             if(lv_style_get_prop(style, LV_STYLE_TRANSFORM_WIDTH, &v)) res = _LV_STYLE_STATE_CMP_DI
 436:Drivers/lvgl/src/core/lv_obj_style.c ****             else if(lv_style_get_prop(style, LV_STYLE_TRANSFORM_HEIGHT, &v)) res = _LV_STYLE_STATE_
 437:Drivers/lvgl/src/core/lv_obj_style.c ****             else if(lv_style_get_prop(style, LV_STYLE_TRANSFORM_ANGLE, &v)) res = _LV_STYLE_STATE_C
 438:Drivers/lvgl/src/core/lv_obj_style.c ****             else if(lv_style_get_prop(style, LV_STYLE_TRANSFORM_ZOOM, &v)) res = _LV_STYLE_STATE_CM
 439:Drivers/lvgl/src/core/lv_obj_style.c ****             else if(lv_style_get_prop(style, LV_STYLE_OUTLINE_OPA, &v)) res = _LV_STYLE_STATE_CMP_D
 440:Drivers/lvgl/src/core/lv_obj_style.c ****             else if(lv_style_get_prop(style, LV_STYLE_OUTLINE_PAD, &v)) res = _LV_STYLE_STATE_CMP_D
 441:Drivers/lvgl/src/core/lv_obj_style.c ****             else if(lv_style_get_prop(style, LV_STYLE_OUTLINE_WIDTH, &v)) res = _LV_STYLE_STATE_CMP
 442:Drivers/lvgl/src/core/lv_obj_style.c ****             else if(lv_style_get_prop(style, LV_STYLE_SHADOW_WIDTH, &v)) res = _LV_STYLE_STATE_CMP_
 443:Drivers/lvgl/src/core/lv_obj_style.c ****             else if(lv_style_get_prop(style, LV_STYLE_SHADOW_OPA, &v)) res = _LV_STYLE_STATE_CMP_DI
 444:Drivers/lvgl/src/core/lv_obj_style.c ****             else if(lv_style_get_prop(style, LV_STYLE_SHADOW_OFS_X, &v)) res = _LV_STYLE_STATE_CMP_
 445:Drivers/lvgl/src/core/lv_obj_style.c ****             else if(lv_style_get_prop(style, LV_STYLE_SHADOW_OFS_Y, &v)) res = _LV_STYLE_STATE_CMP_
 446:Drivers/lvgl/src/core/lv_obj_style.c ****             else if(lv_style_get_prop(style, LV_STYLE_SHADOW_SPREAD, &v)) res = _LV_STYLE_STATE_CMP
 447:Drivers/lvgl/src/core/lv_obj_style.c ****             else if(lv_style_get_prop(style, LV_STYLE_LINE_WIDTH, &v)) res = _LV_STYLE_STATE_CMP_DI
 448:Drivers/lvgl/src/core/lv_obj_style.c ****             else if(res == _LV_STYLE_STATE_CMP_SAME) res = _LV_STYLE_STATE_CMP_DIFF_REDRAW;
 449:Drivers/lvgl/src/core/lv_obj_style.c ****         }
 450:Drivers/lvgl/src/core/lv_obj_style.c ****     }
 451:Drivers/lvgl/src/core/lv_obj_style.c **** 
 452:Drivers/lvgl/src/core/lv_obj_style.c ****     return res;
 453:Drivers/lvgl/src/core/lv_obj_style.c **** }
 454:Drivers/lvgl/src/core/lv_obj_style.c **** 
 455:Drivers/lvgl/src/core/lv_obj_style.c **** void lv_obj_fade_in(lv_obj_t * obj, uint32_t time, uint32_t delay)
 456:Drivers/lvgl/src/core/lv_obj_style.c **** {
 457:Drivers/lvgl/src/core/lv_obj_style.c ****     lv_anim_t a;
 458:Drivers/lvgl/src/core/lv_obj_style.c ****     lv_anim_init(&a);
 459:Drivers/lvgl/src/core/lv_obj_style.c ****     lv_anim_set_var(&a, obj);
 460:Drivers/lvgl/src/core/lv_obj_style.c ****     lv_anim_set_values(&a, 0, LV_OPA_COVER);
 461:Drivers/lvgl/src/core/lv_obj_style.c ****     lv_anim_set_exec_cb(&a, fade_anim_cb);
 462:Drivers/lvgl/src/core/lv_obj_style.c ****     lv_anim_set_ready_cb(&a, fade_in_anim_ready);
 463:Drivers/lvgl/src/core/lv_obj_style.c ****     lv_anim_set_time(&a, time);
 464:Drivers/lvgl/src/core/lv_obj_style.c ****     lv_anim_set_delay(&a, delay);
 465:Drivers/lvgl/src/core/lv_obj_style.c ****     lv_anim_start(&a);
 466:Drivers/lvgl/src/core/lv_obj_style.c **** }
 467:Drivers/lvgl/src/core/lv_obj_style.c **** 
 468:Drivers/lvgl/src/core/lv_obj_style.c **** void lv_obj_fade_out(lv_obj_t * obj, uint32_t time, uint32_t delay)
 469:Drivers/lvgl/src/core/lv_obj_style.c **** {
 470:Drivers/lvgl/src/core/lv_obj_style.c ****     lv_anim_t a;
 471:Drivers/lvgl/src/core/lv_obj_style.c ****     lv_anim_init(&a);
 472:Drivers/lvgl/src/core/lv_obj_style.c ****     lv_anim_set_var(&a, obj);
 473:Drivers/lvgl/src/core/lv_obj_style.c ****     lv_anim_set_values(&a, lv_obj_get_style_opa(obj, 0), LV_OPA_TRANSP);
 474:Drivers/lvgl/src/core/lv_obj_style.c ****     lv_anim_set_exec_cb(&a, fade_anim_cb);
 475:Drivers/lvgl/src/core/lv_obj_style.c ****     lv_anim_set_time(&a, time);
 476:Drivers/lvgl/src/core/lv_obj_style.c ****     lv_anim_set_delay(&a, delay);
 477:Drivers/lvgl/src/core/lv_obj_style.c ****     lv_anim_start(&a);
 478:Drivers/lvgl/src/core/lv_obj_style.c **** }
 479:Drivers/lvgl/src/core/lv_obj_style.c **** 
 480:Drivers/lvgl/src/core/lv_obj_style.c **** lv_state_t lv_obj_style_get_selector_state(lv_style_selector_t selector)
 481:Drivers/lvgl/src/core/lv_obj_style.c **** {
 482:Drivers/lvgl/src/core/lv_obj_style.c ****     return selector & 0xFFFF;
 483:Drivers/lvgl/src/core/lv_obj_style.c **** }
 484:Drivers/lvgl/src/core/lv_obj_style.c **** 
 485:Drivers/lvgl/src/core/lv_obj_style.c **** lv_part_t lv_obj_style_get_selector_part(lv_style_selector_t selector)
 486:Drivers/lvgl/src/core/lv_obj_style.c **** {
ARM GAS  /var/folders/0z/tsy30v1j4xl4_7kw94k978ww0000gn/T//cc8A9NTU.s 			page 10


 487:Drivers/lvgl/src/core/lv_obj_style.c ****     return selector & 0xFF0000;
 488:Drivers/lvgl/src/core/lv_obj_style.c **** }
 489:Drivers/lvgl/src/core/lv_obj_style.c **** 
 490:Drivers/lvgl/src/core/lv_obj_style.c **** 
 491:Drivers/lvgl/src/core/lv_obj_style.c **** lv_text_align_t lv_obj_calculate_style_text_align(const struct _lv_obj_t * obj, lv_part_t part, con
 492:Drivers/lvgl/src/core/lv_obj_style.c **** {
 493:Drivers/lvgl/src/core/lv_obj_style.c ****     lv_text_align_t align = lv_obj_get_style_text_align(obj, part);
 494:Drivers/lvgl/src/core/lv_obj_style.c ****     lv_base_dir_t base_dir = lv_obj_get_style_base_dir(obj, part);
 495:Drivers/lvgl/src/core/lv_obj_style.c ****     lv_bidi_calculate_align(&align, &base_dir, txt);
 496:Drivers/lvgl/src/core/lv_obj_style.c ****     return align;
 497:Drivers/lvgl/src/core/lv_obj_style.c **** }
 498:Drivers/lvgl/src/core/lv_obj_style.c **** 
 499:Drivers/lvgl/src/core/lv_obj_style.c **** lv_opa_t lv_obj_get_style_opa_recursive(const lv_obj_t * obj, lv_part_t part)
 500:Drivers/lvgl/src/core/lv_obj_style.c **** {
 501:Drivers/lvgl/src/core/lv_obj_style.c **** 
 502:Drivers/lvgl/src/core/lv_obj_style.c ****     lv_opa_t opa_obj = lv_obj_get_style_opa(obj, part);
 503:Drivers/lvgl/src/core/lv_obj_style.c ****     if(opa_obj <= LV_OPA_MIN) return LV_OPA_TRANSP;
 504:Drivers/lvgl/src/core/lv_obj_style.c **** 
 505:Drivers/lvgl/src/core/lv_obj_style.c ****     lv_opa_t opa_final = LV_OPA_COVER;
 506:Drivers/lvgl/src/core/lv_obj_style.c ****     if(opa_obj < LV_OPA_MAX) {
 507:Drivers/lvgl/src/core/lv_obj_style.c ****         opa_final = ((uint32_t)opa_final * opa_obj) >> 8;
 508:Drivers/lvgl/src/core/lv_obj_style.c ****     }
 509:Drivers/lvgl/src/core/lv_obj_style.c **** 
 510:Drivers/lvgl/src/core/lv_obj_style.c ****     if(part != LV_PART_MAIN) {
 511:Drivers/lvgl/src/core/lv_obj_style.c ****         part = LV_PART_MAIN;
 512:Drivers/lvgl/src/core/lv_obj_style.c ****     }
 513:Drivers/lvgl/src/core/lv_obj_style.c ****     else {
 514:Drivers/lvgl/src/core/lv_obj_style.c ****         obj = lv_obj_get_parent(obj);
 515:Drivers/lvgl/src/core/lv_obj_style.c ****     }
 516:Drivers/lvgl/src/core/lv_obj_style.c **** 
 517:Drivers/lvgl/src/core/lv_obj_style.c ****     while(obj) {
 518:Drivers/lvgl/src/core/lv_obj_style.c ****         opa_obj = lv_obj_get_style_opa(obj, part);
 519:Drivers/lvgl/src/core/lv_obj_style.c ****         if(opa_obj <= LV_OPA_MIN) return LV_OPA_TRANSP;
 520:Drivers/lvgl/src/core/lv_obj_style.c ****         if(opa_obj < LV_OPA_MAX) {
 521:Drivers/lvgl/src/core/lv_obj_style.c ****             opa_final = ((uint32_t)opa_final * opa_obj) >> 8;
 522:Drivers/lvgl/src/core/lv_obj_style.c ****         }
 523:Drivers/lvgl/src/core/lv_obj_style.c **** 
 524:Drivers/lvgl/src/core/lv_obj_style.c ****         obj = lv_obj_get_parent(obj);
 525:Drivers/lvgl/src/core/lv_obj_style.c ****     }
 526:Drivers/lvgl/src/core/lv_obj_style.c **** 
 527:Drivers/lvgl/src/core/lv_obj_style.c ****     if(opa_final <= LV_OPA_MIN) return LV_OPA_TRANSP;
 528:Drivers/lvgl/src/core/lv_obj_style.c ****     if(opa_final >= LV_OPA_MAX) return LV_OPA_COVER;
 529:Drivers/lvgl/src/core/lv_obj_style.c ****     return opa_final;
 530:Drivers/lvgl/src/core/lv_obj_style.c **** }
 531:Drivers/lvgl/src/core/lv_obj_style.c **** 
 532:Drivers/lvgl/src/core/lv_obj_style.c **** 
 533:Drivers/lvgl/src/core/lv_obj_style.c **** /**********************
 534:Drivers/lvgl/src/core/lv_obj_style.c ****  *   STATIC FUNCTIONS
 535:Drivers/lvgl/src/core/lv_obj_style.c ****  **********************/
 536:Drivers/lvgl/src/core/lv_obj_style.c **** 
 537:Drivers/lvgl/src/core/lv_obj_style.c **** /**
 538:Drivers/lvgl/src/core/lv_obj_style.c ****  * Get the local style of an object for a given part and for a given state.
 539:Drivers/lvgl/src/core/lv_obj_style.c ****  * If the local style for the part-state pair doesn't exist allocate and return it.
 540:Drivers/lvgl/src/core/lv_obj_style.c ****  * @param obj pointer to an object
 541:Drivers/lvgl/src/core/lv_obj_style.c ****  * @param selector OR-ed value of parts and state for which the style should be get
 542:Drivers/lvgl/src/core/lv_obj_style.c ****  * @return pointer to the local style
 543:Drivers/lvgl/src/core/lv_obj_style.c ****  */
ARM GAS  /var/folders/0z/tsy30v1j4xl4_7kw94k978ww0000gn/T//cc8A9NTU.s 			page 11


 544:Drivers/lvgl/src/core/lv_obj_style.c **** static lv_style_t * get_local_style(lv_obj_t * obj, lv_style_selector_t selector)
 545:Drivers/lvgl/src/core/lv_obj_style.c **** {
 546:Drivers/lvgl/src/core/lv_obj_style.c ****     uint32_t i;
 547:Drivers/lvgl/src/core/lv_obj_style.c ****     for(i = 0; i < obj->style_cnt; i++) {
 548:Drivers/lvgl/src/core/lv_obj_style.c ****         if(obj->styles[i].is_local &&
 549:Drivers/lvgl/src/core/lv_obj_style.c ****            obj->styles[i].selector == selector) {
 550:Drivers/lvgl/src/core/lv_obj_style.c ****             return obj->styles[i].style;
 551:Drivers/lvgl/src/core/lv_obj_style.c ****         }
 552:Drivers/lvgl/src/core/lv_obj_style.c ****     }
 553:Drivers/lvgl/src/core/lv_obj_style.c **** 
 554:Drivers/lvgl/src/core/lv_obj_style.c ****     obj->style_cnt++;
 555:Drivers/lvgl/src/core/lv_obj_style.c ****     obj->styles = lv_mem_realloc(obj->styles, obj->style_cnt * sizeof(_lv_obj_style_t));
 556:Drivers/lvgl/src/core/lv_obj_style.c ****     LV_ASSERT_MALLOC(obj->styles);
 557:Drivers/lvgl/src/core/lv_obj_style.c **** 
 558:Drivers/lvgl/src/core/lv_obj_style.c ****     for(i = obj->style_cnt - 1; i > 0 ; i--) {
 559:Drivers/lvgl/src/core/lv_obj_style.c ****         /*Copy only normal styles (not local and transition).
 560:Drivers/lvgl/src/core/lv_obj_style.c ****          *The new local style will be added as the last local style*/
 561:Drivers/lvgl/src/core/lv_obj_style.c ****         if(obj->styles[i - 1].is_local || obj->styles[i - 1].is_trans) break;
 562:Drivers/lvgl/src/core/lv_obj_style.c ****         obj->styles[i] = obj->styles[i - 1];
 563:Drivers/lvgl/src/core/lv_obj_style.c ****     }
 564:Drivers/lvgl/src/core/lv_obj_style.c **** 
 565:Drivers/lvgl/src/core/lv_obj_style.c ****     lv_memset_00(&obj->styles[i], sizeof(_lv_obj_style_t));
 566:Drivers/lvgl/src/core/lv_obj_style.c ****     obj->styles[i].style = lv_mem_alloc(sizeof(lv_style_t));
 567:Drivers/lvgl/src/core/lv_obj_style.c ****     lv_style_init(obj->styles[i].style);
 568:Drivers/lvgl/src/core/lv_obj_style.c ****     obj->styles[i].is_local = 1;
 569:Drivers/lvgl/src/core/lv_obj_style.c ****     obj->styles[i].selector = selector;
 570:Drivers/lvgl/src/core/lv_obj_style.c ****     return obj->styles[i].style;
 571:Drivers/lvgl/src/core/lv_obj_style.c **** }
 572:Drivers/lvgl/src/core/lv_obj_style.c **** 
 573:Drivers/lvgl/src/core/lv_obj_style.c **** /**
 574:Drivers/lvgl/src/core/lv_obj_style.c ****  * Get the transition style of an object for a given part and for a given state.
 575:Drivers/lvgl/src/core/lv_obj_style.c ****  * If the transition style for the part-state pair doesn't exist allocate and return it.
 576:Drivers/lvgl/src/core/lv_obj_style.c ****  * @param obj   pointer to an object
 577:Drivers/lvgl/src/core/lv_obj_style.c ****  * @param selector OR-ed value of parts and state for which the style should be get
 578:Drivers/lvgl/src/core/lv_obj_style.c ****  * @return pointer to the transition style
 579:Drivers/lvgl/src/core/lv_obj_style.c ****  */
 580:Drivers/lvgl/src/core/lv_obj_style.c **** static _lv_obj_style_t * get_trans_style(lv_obj_t * obj,  lv_style_selector_t selector)
 581:Drivers/lvgl/src/core/lv_obj_style.c **** {
 582:Drivers/lvgl/src/core/lv_obj_style.c ****     uint32_t i;
 583:Drivers/lvgl/src/core/lv_obj_style.c ****     for(i = 0; i < obj->style_cnt; i++) {
 584:Drivers/lvgl/src/core/lv_obj_style.c ****         if(obj->styles[i].is_trans && obj->styles[i].selector == selector) break;
 585:Drivers/lvgl/src/core/lv_obj_style.c ****     }
 586:Drivers/lvgl/src/core/lv_obj_style.c **** 
 587:Drivers/lvgl/src/core/lv_obj_style.c ****     /*Already have a transition style for it*/
 588:Drivers/lvgl/src/core/lv_obj_style.c ****     if(i != obj->style_cnt) return &obj->styles[i];
 589:Drivers/lvgl/src/core/lv_obj_style.c **** 
 590:Drivers/lvgl/src/core/lv_obj_style.c ****     obj->style_cnt++;
 591:Drivers/lvgl/src/core/lv_obj_style.c ****     obj->styles = lv_mem_realloc(obj->styles, obj->style_cnt * sizeof(_lv_obj_style_t));
 592:Drivers/lvgl/src/core/lv_obj_style.c **** 
 593:Drivers/lvgl/src/core/lv_obj_style.c ****     for(i = obj->style_cnt - 1; i > 0 ; i--) {
 594:Drivers/lvgl/src/core/lv_obj_style.c ****         obj->styles[i] = obj->styles[i - 1];
 595:Drivers/lvgl/src/core/lv_obj_style.c ****     }
 596:Drivers/lvgl/src/core/lv_obj_style.c **** 
 597:Drivers/lvgl/src/core/lv_obj_style.c ****     lv_memset_00(&obj->styles[0], sizeof(_lv_obj_style_t));
 598:Drivers/lvgl/src/core/lv_obj_style.c ****     obj->styles[0].style = lv_mem_alloc(sizeof(lv_style_t));
 599:Drivers/lvgl/src/core/lv_obj_style.c ****     lv_style_init(obj->styles[0].style);
 600:Drivers/lvgl/src/core/lv_obj_style.c ****     obj->styles[0].is_trans = 1;
ARM GAS  /var/folders/0z/tsy30v1j4xl4_7kw94k978ww0000gn/T//cc8A9NTU.s 			page 12


 601:Drivers/lvgl/src/core/lv_obj_style.c ****     obj->styles[0].selector = selector;
 602:Drivers/lvgl/src/core/lv_obj_style.c ****     return &obj->styles[0];
 603:Drivers/lvgl/src/core/lv_obj_style.c **** }
 604:Drivers/lvgl/src/core/lv_obj_style.c **** 
 605:Drivers/lvgl/src/core/lv_obj_style.c **** 
 606:Drivers/lvgl/src/core/lv_obj_style.c **** static lv_style_res_t get_prop_core(const lv_obj_t * obj, lv_part_t part, lv_style_prop_t prop, lv_
 607:Drivers/lvgl/src/core/lv_obj_style.c **** {
 608:Drivers/lvgl/src/core/lv_obj_style.c ****     uint8_t group = 1 << _lv_style_get_prop_group(prop);
 609:Drivers/lvgl/src/core/lv_obj_style.c ****     int32_t weight = -1;
 610:Drivers/lvgl/src/core/lv_obj_style.c ****     lv_state_t state = obj->state;
 611:Drivers/lvgl/src/core/lv_obj_style.c ****     lv_state_t state_inv = ~state;
 612:Drivers/lvgl/src/core/lv_obj_style.c ****     lv_style_value_t value_tmp;
 613:Drivers/lvgl/src/core/lv_obj_style.c ****     bool skip_trans = obj->skip_trans;
 614:Drivers/lvgl/src/core/lv_obj_style.c ****     uint32_t i;
 615:Drivers/lvgl/src/core/lv_obj_style.c ****     lv_style_res_t found;
 616:Drivers/lvgl/src/core/lv_obj_style.c ****     for(i = 0; i < obj->style_cnt; i++) {
 617:Drivers/lvgl/src/core/lv_obj_style.c ****         _lv_obj_style_t * obj_style = &obj->styles[i];
 618:Drivers/lvgl/src/core/lv_obj_style.c ****         if(obj_style->is_trans == false) break;
 619:Drivers/lvgl/src/core/lv_obj_style.c ****         if(skip_trans) continue;
 620:Drivers/lvgl/src/core/lv_obj_style.c **** 
 621:Drivers/lvgl/src/core/lv_obj_style.c ****         lv_part_t part_act = lv_obj_style_get_selector_part(obj->styles[i].selector);
 622:Drivers/lvgl/src/core/lv_obj_style.c **** 
 623:Drivers/lvgl/src/core/lv_obj_style.c ****         if(part_act != part) continue;
 624:Drivers/lvgl/src/core/lv_obj_style.c ****         if((obj_style->style->has_group & group) == 0) continue;
 625:Drivers/lvgl/src/core/lv_obj_style.c ****         found = lv_style_get_prop(obj_style->style, prop, &value_tmp);
 626:Drivers/lvgl/src/core/lv_obj_style.c ****         if(found == LV_STYLE_RES_FOUND) {
 627:Drivers/lvgl/src/core/lv_obj_style.c ****             *v = value_tmp;
 628:Drivers/lvgl/src/core/lv_obj_style.c ****             return LV_STYLE_RES_FOUND;
 629:Drivers/lvgl/src/core/lv_obj_style.c ****         }
 630:Drivers/lvgl/src/core/lv_obj_style.c ****         else if(found == LV_STYLE_RES_INHERIT) {
 631:Drivers/lvgl/src/core/lv_obj_style.c ****             return LV_STYLE_RES_INHERIT;
 632:Drivers/lvgl/src/core/lv_obj_style.c ****         }
 633:Drivers/lvgl/src/core/lv_obj_style.c ****     }
 634:Drivers/lvgl/src/core/lv_obj_style.c **** 
 635:Drivers/lvgl/src/core/lv_obj_style.c ****     for(; i < obj->style_cnt; i++) {
 636:Drivers/lvgl/src/core/lv_obj_style.c ****         if((obj->styles[i].style->has_group & group) == 0) continue;
 637:Drivers/lvgl/src/core/lv_obj_style.c ****         _lv_obj_style_t * obj_style = &obj->styles[i];
 638:Drivers/lvgl/src/core/lv_obj_style.c ****         lv_part_t part_act = lv_obj_style_get_selector_part(obj->styles[i].selector);
 639:Drivers/lvgl/src/core/lv_obj_style.c ****         lv_state_t state_act = lv_obj_style_get_selector_state(obj->styles[i].selector);
 640:Drivers/lvgl/src/core/lv_obj_style.c ****         if(part_act != part) continue;
 641:Drivers/lvgl/src/core/lv_obj_style.c **** 
 642:Drivers/lvgl/src/core/lv_obj_style.c ****         /*Be sure the style not specifies other state than the requested.
 643:Drivers/lvgl/src/core/lv_obj_style.c ****          *E.g. For HOVER+PRESS object state, HOVER style only is OK, but HOVER+FOCUS style is not*/
 644:Drivers/lvgl/src/core/lv_obj_style.c ****         if((state_act & state_inv)) continue;
 645:Drivers/lvgl/src/core/lv_obj_style.c **** 
 646:Drivers/lvgl/src/core/lv_obj_style.c ****         /*Check only better candidates*/
 647:Drivers/lvgl/src/core/lv_obj_style.c ****         if(state_act <= weight) continue;
 648:Drivers/lvgl/src/core/lv_obj_style.c **** 
 649:Drivers/lvgl/src/core/lv_obj_style.c ****         found = lv_style_get_prop(obj_style->style, prop, &value_tmp);
 650:Drivers/lvgl/src/core/lv_obj_style.c **** 
 651:Drivers/lvgl/src/core/lv_obj_style.c ****         if(found == LV_STYLE_RES_FOUND) {
 652:Drivers/lvgl/src/core/lv_obj_style.c ****             if(state_act == state) {
 653:Drivers/lvgl/src/core/lv_obj_style.c ****                 *v = value_tmp;
 654:Drivers/lvgl/src/core/lv_obj_style.c ****                 return LV_STYLE_RES_FOUND;
 655:Drivers/lvgl/src/core/lv_obj_style.c ****             }
 656:Drivers/lvgl/src/core/lv_obj_style.c ****             if(weight < state_act) {
 657:Drivers/lvgl/src/core/lv_obj_style.c ****                 weight = state_act;
ARM GAS  /var/folders/0z/tsy30v1j4xl4_7kw94k978ww0000gn/T//cc8A9NTU.s 			page 13


 658:Drivers/lvgl/src/core/lv_obj_style.c ****                 *v = value_tmp;
 659:Drivers/lvgl/src/core/lv_obj_style.c ****             }
 660:Drivers/lvgl/src/core/lv_obj_style.c ****         }
 661:Drivers/lvgl/src/core/lv_obj_style.c ****         else if(found == LV_STYLE_RES_INHERIT) {
 662:Drivers/lvgl/src/core/lv_obj_style.c ****             return LV_STYLE_RES_INHERIT;
 663:Drivers/lvgl/src/core/lv_obj_style.c ****         }
 664:Drivers/lvgl/src/core/lv_obj_style.c ****     }
 665:Drivers/lvgl/src/core/lv_obj_style.c **** 
 666:Drivers/lvgl/src/core/lv_obj_style.c ****     if(weight >= 0) {
 667:Drivers/lvgl/src/core/lv_obj_style.c ****         *v = value_tmp;
 668:Drivers/lvgl/src/core/lv_obj_style.c ****         return LV_STYLE_RES_FOUND;
 669:Drivers/lvgl/src/core/lv_obj_style.c ****     }
 670:Drivers/lvgl/src/core/lv_obj_style.c ****     else return LV_STYLE_RES_NOT_FOUND;
 671:Drivers/lvgl/src/core/lv_obj_style.c **** }
 672:Drivers/lvgl/src/core/lv_obj_style.c **** 
 673:Drivers/lvgl/src/core/lv_obj_style.c **** /**
 674:Drivers/lvgl/src/core/lv_obj_style.c ****  * Refresh the style of all children of an object. (Called recursively)
 675:Drivers/lvgl/src/core/lv_obj_style.c ****  * @param style refresh objects only with this
 676:Drivers/lvgl/src/core/lv_obj_style.c ****  * @param obj pointer to an object
 677:Drivers/lvgl/src/core/lv_obj_style.c ****  */
 678:Drivers/lvgl/src/core/lv_obj_style.c **** static void report_style_change_core(void * style, lv_obj_t * obj)
 679:Drivers/lvgl/src/core/lv_obj_style.c **** {
 680:Drivers/lvgl/src/core/lv_obj_style.c ****     uint32_t i;
 681:Drivers/lvgl/src/core/lv_obj_style.c ****     for(i = 0; i < obj->style_cnt; i++) {
 682:Drivers/lvgl/src/core/lv_obj_style.c ****         if(style == NULL || obj->styles[i].style == style) {
 683:Drivers/lvgl/src/core/lv_obj_style.c ****             lv_obj_refresh_style(obj, LV_PART_ANY, LV_STYLE_PROP_ANY);
 684:Drivers/lvgl/src/core/lv_obj_style.c ****             break;
 685:Drivers/lvgl/src/core/lv_obj_style.c ****         }
 686:Drivers/lvgl/src/core/lv_obj_style.c ****     }
 687:Drivers/lvgl/src/core/lv_obj_style.c **** 
 688:Drivers/lvgl/src/core/lv_obj_style.c ****     uint32_t child_cnt = lv_obj_get_child_cnt(obj);
 689:Drivers/lvgl/src/core/lv_obj_style.c ****     for(i = 0; i < child_cnt; i++) {
 690:Drivers/lvgl/src/core/lv_obj_style.c ****         report_style_change_core(style, obj->spec_attr->children[i]);
 691:Drivers/lvgl/src/core/lv_obj_style.c ****     }
 692:Drivers/lvgl/src/core/lv_obj_style.c **** }
 693:Drivers/lvgl/src/core/lv_obj_style.c **** 
 694:Drivers/lvgl/src/core/lv_obj_style.c **** /**
 695:Drivers/lvgl/src/core/lv_obj_style.c ****  * Recursively refresh the style of the children. Go deeper until a not NULL style is found
 696:Drivers/lvgl/src/core/lv_obj_style.c ****  * because the NULL styles are inherited from the parent
 697:Drivers/lvgl/src/core/lv_obj_style.c ****  * @param obj pointer to an object
 698:Drivers/lvgl/src/core/lv_obj_style.c ****  */
 699:Drivers/lvgl/src/core/lv_obj_style.c **** static void refresh_children_style(lv_obj_t * obj)
 700:Drivers/lvgl/src/core/lv_obj_style.c **** {
 701:Drivers/lvgl/src/core/lv_obj_style.c ****     uint32_t i;
 702:Drivers/lvgl/src/core/lv_obj_style.c ****     uint32_t child_cnt = lv_obj_get_child_cnt(obj);
 703:Drivers/lvgl/src/core/lv_obj_style.c ****     for(i = 0; i < child_cnt; i++) {
 704:Drivers/lvgl/src/core/lv_obj_style.c ****         lv_obj_t * child = obj->spec_attr->children[i];
 705:Drivers/lvgl/src/core/lv_obj_style.c ****         lv_obj_invalidate(child);
 706:Drivers/lvgl/src/core/lv_obj_style.c ****         lv_event_send(child, LV_EVENT_STYLE_CHANGED, NULL);
 707:Drivers/lvgl/src/core/lv_obj_style.c ****         lv_obj_invalidate(child);
 708:Drivers/lvgl/src/core/lv_obj_style.c **** 
 709:Drivers/lvgl/src/core/lv_obj_style.c ****         refresh_children_style(child); /*Check children too*/
 710:Drivers/lvgl/src/core/lv_obj_style.c ****     }
 711:Drivers/lvgl/src/core/lv_obj_style.c **** }
 712:Drivers/lvgl/src/core/lv_obj_style.c **** 
 713:Drivers/lvgl/src/core/lv_obj_style.c **** /**
 714:Drivers/lvgl/src/core/lv_obj_style.c ****  * Remove the transition from object's part's property.
ARM GAS  /var/folders/0z/tsy30v1j4xl4_7kw94k978ww0000gn/T//cc8A9NTU.s 			page 14


 715:Drivers/lvgl/src/core/lv_obj_style.c ****  * - Remove the transition from `_lv_obj_style_trans_ll` and free it
 716:Drivers/lvgl/src/core/lv_obj_style.c ****  * - Delete pending transitions
 717:Drivers/lvgl/src/core/lv_obj_style.c ****  * @param obj pointer to an object which transition(s) should be removed
 718:Drivers/lvgl/src/core/lv_obj_style.c ****  * @param part a part of object or 0xFF to remove from all parts
 719:Drivers/lvgl/src/core/lv_obj_style.c ****  * @param prop a property or 0xFF to remove all properties
 720:Drivers/lvgl/src/core/lv_obj_style.c ****  * @param tr_limit delete transitions only "older" than this. `NULL` if not used
 721:Drivers/lvgl/src/core/lv_obj_style.c ****  */
 722:Drivers/lvgl/src/core/lv_obj_style.c **** static bool trans_del(lv_obj_t * obj, lv_part_t part, lv_style_prop_t prop, trans_t * tr_limit)
 723:Drivers/lvgl/src/core/lv_obj_style.c **** {
  29              		.loc 1 723 1 view -0
  30              		.cfi_startproc
  31              		@ args = 0, pretend = 0, frame = 0
  32              		@ frame_needed = 0, uses_anonymous_args = 0
  33              		.loc 1 723 1 is_stmt 0 view .LVU1
  34 0000 2DE9F047 		push	{r4, r5, r6, r7, r8, r9, r10, lr}
  35              		.cfi_def_cfa_offset 32
  36              		.cfi_offset 4, -32
  37              		.cfi_offset 5, -28
  38              		.cfi_offset 6, -24
  39              		.cfi_offset 7, -20
  40              		.cfi_offset 8, -16
  41              		.cfi_offset 9, -12
  42              		.cfi_offset 10, -8
  43              		.cfi_offset 14, -4
  44 0004 0646     		mov	r6, r0
  45 0006 8946     		mov	r9, r1
  46 0008 9246     		mov	r10, r2
  47 000a 9846     		mov	r8, r3
 724:Drivers/lvgl/src/core/lv_obj_style.c ****     trans_t * tr;
  48              		.loc 1 724 5 is_stmt 1 view .LVU2
 725:Drivers/lvgl/src/core/lv_obj_style.c ****     trans_t * tr_prev;
  49              		.loc 1 725 5 view .LVU3
 726:Drivers/lvgl/src/core/lv_obj_style.c ****     bool removed = false;
  50              		.loc 1 726 5 view .LVU4
  51              	.LVL1:
 727:Drivers/lvgl/src/core/lv_obj_style.c ****     tr = _lv_ll_get_tail(&LV_GC_ROOT(_lv_obj_style_trans_ll));
  52              		.loc 1 727 5 view .LVU5
  53              		.loc 1 727 10 is_stmt 0 view .LVU6
  54 000c 2748     		ldr	r0, .L17
  55              	.LVL2:
  56              		.loc 1 727 10 view .LVU7
  57 000e FFF7FEFF 		bl	_lv_ll_get_tail
  58              	.LVL3:
  59              		.loc 1 727 10 view .LVU8
  60 0012 0446     		mov	r4, r0
  61              	.LVL4:
 728:Drivers/lvgl/src/core/lv_obj_style.c ****     while(tr != NULL) {
  62              		.loc 1 728 5 is_stmt 1 view .LVU9
 726:Drivers/lvgl/src/core/lv_obj_style.c ****     bool removed = false;
  63              		.loc 1 726 10 is_stmt 0 view .LVU10
  64 0014 0027     		movs	r7, #0
  65              		.loc 1 728 10 view .LVU11
  66 0016 07E0     		b	.L2
  67              	.LVL5:
  68              	.L5:
 729:Drivers/lvgl/src/core/lv_obj_style.c ****         if(tr == tr_limit) break;
 730:Drivers/lvgl/src/core/lv_obj_style.c **** 
ARM GAS  /var/folders/0z/tsy30v1j4xl4_7kw94k978ww0000gn/T//cc8A9NTU.s 			page 15


 731:Drivers/lvgl/src/core/lv_obj_style.c ****         /*'tr' might be deleted, so get the next object while 'tr' is valid*/
 732:Drivers/lvgl/src/core/lv_obj_style.c ****         tr_prev = _lv_ll_get_prev(&LV_GC_ROOT(_lv_obj_style_trans_ll), tr);
 733:Drivers/lvgl/src/core/lv_obj_style.c **** 
 734:Drivers/lvgl/src/core/lv_obj_style.c ****         if(tr->obj == obj && (part == tr->selector || part == LV_PART_ANY) && (prop == tr->prop || 
  69              		.loc 1 734 90 discriminator 4 view .LVU12
  70 0018 A388     		ldrh	r3, [r4, #4]
  71              		.loc 1 734 76 discriminator 4 view .LVU13
  72 001a 5345     		cmp	r3, r10
  73 001c 32D0     		beq	.L12
  74              		.loc 1 734 97 discriminator 5 view .LVU14
  75 001e 4FF6FF73 		movw	r3, #65535
  76 0022 9A45     		cmp	r10, r3
  77 0024 30D0     		beq	.L15
  78              	.LVL6:
  79              	.L4:
  80              	.LBB85:
 735:Drivers/lvgl/src/core/lv_obj_style.c ****             /*Remove any transitioned properties from the trans. style
 736:Drivers/lvgl/src/core/lv_obj_style.c ****              *to allow changing it by normal styles*/
 737:Drivers/lvgl/src/core/lv_obj_style.c ****             uint32_t i;
 738:Drivers/lvgl/src/core/lv_obj_style.c ****             for(i = 0; i < obj->style_cnt; i++) {
 739:Drivers/lvgl/src/core/lv_obj_style.c ****                 if(obj->styles[i].is_trans && (part == LV_PART_ANY || obj->styles[i].selector == pa
 740:Drivers/lvgl/src/core/lv_obj_style.c ****                     lv_style_remove_prop(obj->styles[i].style, tr->prop);
 741:Drivers/lvgl/src/core/lv_obj_style.c ****                 }
 742:Drivers/lvgl/src/core/lv_obj_style.c ****             }
 743:Drivers/lvgl/src/core/lv_obj_style.c **** 
 744:Drivers/lvgl/src/core/lv_obj_style.c ****             /*Free the transition descriptor too*/
 745:Drivers/lvgl/src/core/lv_obj_style.c ****             lv_anim_del(tr, NULL);
 746:Drivers/lvgl/src/core/lv_obj_style.c ****             _lv_ll_remove(&LV_GC_ROOT(_lv_obj_style_trans_ll), tr);
 747:Drivers/lvgl/src/core/lv_obj_style.c ****             lv_mem_free(tr);
 748:Drivers/lvgl/src/core/lv_obj_style.c ****             removed = true;
  81              		.loc 1 748 21 view .LVU15
  82 0026 2C46     		mov	r4, r5
  83              	.LVL7:
  84              	.L2:
  85              		.loc 1 748 21 view .LVU16
  86              	.LBE85:
 728:Drivers/lvgl/src/core/lv_obj_style.c ****         if(tr == tr_limit) break;
  87              		.loc 1 728 14 is_stmt 1 view .LVU17
  88 0028 002C     		cmp	r4, #0
  89 002a 3CD0     		beq	.L3
 729:Drivers/lvgl/src/core/lv_obj_style.c ****         if(tr == tr_limit) break;
  90              		.loc 1 729 9 view .LVU18
 729:Drivers/lvgl/src/core/lv_obj_style.c ****         if(tr == tr_limit) break;
  91              		.loc 1 729 11 is_stmt 0 view .LVU19
  92 002c 4445     		cmp	r4, r8
  93 002e 3AD0     		beq	.L3
 732:Drivers/lvgl/src/core/lv_obj_style.c **** 
  94              		.loc 1 732 9 is_stmt 1 view .LVU20
 732:Drivers/lvgl/src/core/lv_obj_style.c **** 
  95              		.loc 1 732 19 is_stmt 0 view .LVU21
  96 0030 2146     		mov	r1, r4
  97 0032 1E48     		ldr	r0, .L17
  98 0034 FFF7FEFF 		bl	_lv_ll_get_prev
  99              	.LVL8:
 100 0038 0546     		mov	r5, r0
 101              	.LVL9:
 734:Drivers/lvgl/src/core/lv_obj_style.c ****             /*Remove any transitioned properties from the trans. style
ARM GAS  /var/folders/0z/tsy30v1j4xl4_7kw94k978ww0000gn/T//cc8A9NTU.s 			page 16


 102              		.loc 1 734 9 is_stmt 1 view .LVU22
 734:Drivers/lvgl/src/core/lv_obj_style.c ****             /*Remove any transitioned properties from the trans. style
 103              		.loc 1 734 14 is_stmt 0 view .LVU23
 104 003a 2068     		ldr	r0, [r4]
 105              	.LVL10:
 734:Drivers/lvgl/src/core/lv_obj_style.c ****             /*Remove any transitioned properties from the trans. style
 106              		.loc 1 734 11 view .LVU24
 107 003c B042     		cmp	r0, r6
 108 003e F2D1     		bne	.L4
 734:Drivers/lvgl/src/core/lv_obj_style.c ****             /*Remove any transitioned properties from the trans. style
 109              		.loc 1 734 41 discriminator 1 view .LVU25
 110 0040 A368     		ldr	r3, [r4, #8]
 734:Drivers/lvgl/src/core/lv_obj_style.c ****             /*Remove any transitioned properties from the trans. style
 111              		.loc 1 734 27 discriminator 1 view .LVU26
 112 0042 4B45     		cmp	r3, r9
 113 0044 E8D0     		beq	.L5
 734:Drivers/lvgl/src/core/lv_obj_style.c ****             /*Remove any transitioned properties from the trans. style
 114              		.loc 1 734 52 discriminator 3 view .LVU27
 115 0046 B9F5702F 		cmp	r9, #983040
 116 004a ECD1     		bne	.L4
 117 004c E4E7     		b	.L5
 118              	.LVL11:
 119              	.L8:
 120              	.LBB86:
 740:Drivers/lvgl/src/core/lv_obj_style.c ****                 }
 121              		.loc 1 740 21 is_stmt 1 view .LVU28
 122 004e A188     		ldrh	r1, [r4, #4]
 123 0050 1058     		ldr	r0, [r2, r0]
 124 0052 FFF7FEFF 		bl	lv_style_remove_prop
 125              	.LVL12:
 126              	.L7:
 738:Drivers/lvgl/src/core/lv_obj_style.c ****                 if(obj->styles[i].is_trans && (part == LV_PART_ANY || obj->styles[i].selector == pa
 127              		.loc 1 738 45 discriminator 2 view .LVU29
 128 0056 0137     		adds	r7, r7, #1
 129              	.LVL13:
 130              	.L9:
 738:Drivers/lvgl/src/core/lv_obj_style.c ****                 if(obj->styles[i].is_trans && (part == LV_PART_ANY || obj->styles[i].selector == pa
 131              		.loc 1 738 26 discriminator 1 view .LVU30
 738:Drivers/lvgl/src/core/lv_obj_style.c ****                 if(obj->styles[i].is_trans && (part == LV_PART_ANY || obj->styles[i].selector == pa
 132              		.loc 1 738 31 is_stmt 0 discriminator 1 view .LVU31
 133 0058 738C     		ldrh	r3, [r6, #34]
 134 005a C3F30513 		ubfx	r3, r3, #4, #6
 738:Drivers/lvgl/src/core/lv_obj_style.c ****                 if(obj->styles[i].is_trans && (part == LV_PART_ANY || obj->styles[i].selector == pa
 135              		.loc 1 738 26 discriminator 1 view .LVU32
 136 005e BB42     		cmp	r3, r7
 137 0060 14D9     		bls	.L16
 739:Drivers/lvgl/src/core/lv_obj_style.c ****                     lv_style_remove_prop(obj->styles[i].style, tr->prop);
 138              		.loc 1 739 17 is_stmt 1 view .LVU33
 739:Drivers/lvgl/src/core/lv_obj_style.c ****                     lv_style_remove_prop(obj->styles[i].style, tr->prop);
 139              		.loc 1 739 23 is_stmt 0 view .LVU34
 140 0062 F268     		ldr	r2, [r6, #12]
 739:Drivers/lvgl/src/core/lv_obj_style.c ****                     lv_style_remove_prop(obj->styles[i].style, tr->prop);
 141              		.loc 1 739 31 view .LVU35
 142 0064 F800     		lsls	r0, r7, #3
 143 0066 02EBC703 		add	r3, r2, r7, lsl #3
 739:Drivers/lvgl/src/core/lv_obj_style.c ****                     lv_style_remove_prop(obj->styles[i].style, tr->prop);
 144              		.loc 1 739 20 view .LVU36
ARM GAS  /var/folders/0z/tsy30v1j4xl4_7kw94k978ww0000gn/T//cc8A9NTU.s 			page 17


 145 006a D979     		ldrb	r1, [r3, #7]	@ zero_extendqisi2
 739:Drivers/lvgl/src/core/lv_obj_style.c ****                     lv_style_remove_prop(obj->styles[i].style, tr->prop);
 146              		.loc 1 739 19 view .LVU37
 147 006c 11F0020F 		tst	r1, #2
 148 0070 F1D0     		beq	.L7
 739:Drivers/lvgl/src/core/lv_obj_style.c ****                     lv_style_remove_prop(obj->styles[i].style, tr->prop);
 149              		.loc 1 739 44 discriminator 1 view .LVU38
 150 0072 B9F5702F 		cmp	r9, #983040
 151 0076 EAD0     		beq	.L8
 739:Drivers/lvgl/src/core/lv_obj_style.c ****                     lv_style_remove_prop(obj->styles[i].style, tr->prop);
 152              		.loc 1 739 85 discriminator 2 view .LVU39
 153 0078 5B68     		ldr	r3, [r3, #4]
 154 007a C3F31703 		ubfx	r3, r3, #0, #24
 739:Drivers/lvgl/src/core/lv_obj_style.c ****                     lv_style_remove_prop(obj->styles[i].style, tr->prop);
 155              		.loc 1 739 68 discriminator 2 view .LVU40
 156 007e 4B45     		cmp	r3, r9
 157 0080 E9D1     		bne	.L7
 158 0082 E4E7     		b	.L8
 159              	.LVL14:
 160              	.L12:
 739:Drivers/lvgl/src/core/lv_obj_style.c ****                     lv_style_remove_prop(obj->styles[i].style, tr->prop);
 161              		.loc 1 739 68 discriminator 2 view .LVU41
 162              	.LBE86:
 163 0084 0027     		movs	r7, #0
 164              	.LVL15:
 739:Drivers/lvgl/src/core/lv_obj_style.c ****                     lv_style_remove_prop(obj->styles[i].style, tr->prop);
 165              		.loc 1 739 68 discriminator 2 view .LVU42
 166 0086 E7E7     		b	.L9
 167              	.LVL16:
 168              	.L15:
 739:Drivers/lvgl/src/core/lv_obj_style.c ****                     lv_style_remove_prop(obj->styles[i].style, tr->prop);
 169              		.loc 1 739 68 discriminator 2 view .LVU43
 170 0088 0027     		movs	r7, #0
 171              	.LVL17:
 739:Drivers/lvgl/src/core/lv_obj_style.c ****                     lv_style_remove_prop(obj->styles[i].style, tr->prop);
 172              		.loc 1 739 68 discriminator 2 view .LVU44
 173 008a E5E7     		b	.L9
 174              	.LVL18:
 175              	.L16:
 176              	.LBB87:
 745:Drivers/lvgl/src/core/lv_obj_style.c ****             _lv_ll_remove(&LV_GC_ROOT(_lv_obj_style_trans_ll), tr);
 177              		.loc 1 745 13 is_stmt 1 view .LVU45
 178 008c 0021     		movs	r1, #0
 179 008e 2046     		mov	r0, r4
 180 0090 FFF7FEFF 		bl	lv_anim_del
 181              	.LVL19:
 746:Drivers/lvgl/src/core/lv_obj_style.c ****             lv_mem_free(tr);
 182              		.loc 1 746 13 view .LVU46
 183 0094 2146     		mov	r1, r4
 184 0096 0548     		ldr	r0, .L17
 185 0098 FFF7FEFF 		bl	_lv_ll_remove
 186              	.LVL20:
 747:Drivers/lvgl/src/core/lv_obj_style.c ****             removed = true;
 187              		.loc 1 747 13 view .LVU47
 188 009c 2046     		mov	r0, r4
 189 009e FFF7FEFF 		bl	lv_mem_free
 190              	.LVL21:
ARM GAS  /var/folders/0z/tsy30v1j4xl4_7kw94k978ww0000gn/T//cc8A9NTU.s 			page 18


 191              		.loc 1 748 13 view .LVU48
 192              		.loc 1 748 21 is_stmt 0 view .LVU49
 193 00a2 0127     		movs	r7, #1
 194              	.LVL22:
 195              		.loc 1 748 21 view .LVU50
 196 00a4 BFE7     		b	.L4
 197              	.LVL23:
 198              	.L3:
 199              		.loc 1 748 21 view .LVU51
 200              	.LBE87:
 749:Drivers/lvgl/src/core/lv_obj_style.c **** 
 750:Drivers/lvgl/src/core/lv_obj_style.c ****         }
 751:Drivers/lvgl/src/core/lv_obj_style.c ****         tr = tr_prev;
 752:Drivers/lvgl/src/core/lv_obj_style.c ****     }
 753:Drivers/lvgl/src/core/lv_obj_style.c ****     return removed;
 201              		.loc 1 753 5 is_stmt 1 view .LVU52
 754:Drivers/lvgl/src/core/lv_obj_style.c **** }
 202              		.loc 1 754 1 is_stmt 0 view .LVU53
 203 00a6 3846     		mov	r0, r7
 204 00a8 BDE8F087 		pop	{r4, r5, r6, r7, r8, r9, r10, pc}
 205              	.LVL24:
 206              	.L18:
 207              		.loc 1 754 1 view .LVU54
 208              		.align	2
 209              	.L17:
 210 00ac 00000000 		.word	_lv_obj_style_trans_ll
 211              		.cfi_endproc
 212              	.LFE192:
 214              		.section	.text.refresh_children_style,"ax",%progbits
 215              		.align	1
 216              		.syntax unified
 217              		.thumb
 218              		.thumb_func
 220              	refresh_children_style:
 221              	.LVL25:
 222              	.LFB191:
 700:Drivers/lvgl/src/core/lv_obj_style.c ****     uint32_t i;
 223              		.loc 1 700 1 is_stmt 1 view -0
 224              		.cfi_startproc
 225              		@ args = 0, pretend = 0, frame = 0
 226              		@ frame_needed = 0, uses_anonymous_args = 0
 700:Drivers/lvgl/src/core/lv_obj_style.c ****     uint32_t i;
 227              		.loc 1 700 1 is_stmt 0 view .LVU56
 228 0000 F8B5     		push	{r3, r4, r5, r6, r7, lr}
 229              		.cfi_def_cfa_offset 24
 230              		.cfi_offset 3, -24
 231              		.cfi_offset 4, -20
 232              		.cfi_offset 5, -16
 233              		.cfi_offset 6, -12
 234              		.cfi_offset 7, -8
 235              		.cfi_offset 14, -4
 236 0002 0746     		mov	r7, r0
 701:Drivers/lvgl/src/core/lv_obj_style.c ****     uint32_t child_cnt = lv_obj_get_child_cnt(obj);
 237              		.loc 1 701 5 is_stmt 1 view .LVU57
 702:Drivers/lvgl/src/core/lv_obj_style.c ****     for(i = 0; i < child_cnt; i++) {
 238              		.loc 1 702 5 view .LVU58
 702:Drivers/lvgl/src/core/lv_obj_style.c ****     for(i = 0; i < child_cnt; i++) {
ARM GAS  /var/folders/0z/tsy30v1j4xl4_7kw94k978ww0000gn/T//cc8A9NTU.s 			page 19


 239              		.loc 1 702 26 is_stmt 0 view .LVU59
 240 0004 FFF7FEFF 		bl	lv_obj_get_child_cnt
 241              	.LVL26:
 702:Drivers/lvgl/src/core/lv_obj_style.c ****     for(i = 0; i < child_cnt; i++) {
 242              		.loc 1 702 26 view .LVU60
 243 0008 0546     		mov	r5, r0
 244              	.LVL27:
 703:Drivers/lvgl/src/core/lv_obj_style.c ****         lv_obj_t * child = obj->spec_attr->children[i];
 245              		.loc 1 703 5 is_stmt 1 view .LVU61
 703:Drivers/lvgl/src/core/lv_obj_style.c ****         lv_obj_t * child = obj->spec_attr->children[i];
 246              		.loc 1 703 11 is_stmt 0 view .LVU62
 247 000a 0024     		movs	r4, #0
 248              	.LVL28:
 249              	.L20:
 703:Drivers/lvgl/src/core/lv_obj_style.c ****         lv_obj_t * child = obj->spec_attr->children[i];
 250              		.loc 1 703 18 is_stmt 1 discriminator 1 view .LVU63
 251 000c AC42     		cmp	r4, r5
 252 000e 13D2     		bcs	.L23
 253              	.LBB88:
 704:Drivers/lvgl/src/core/lv_obj_style.c ****         lv_obj_invalidate(child);
 254              		.loc 1 704 9 discriminator 3 view .LVU64
 704:Drivers/lvgl/src/core/lv_obj_style.c ****         lv_obj_invalidate(child);
 255              		.loc 1 704 31 is_stmt 0 discriminator 3 view .LVU65
 256 0010 BB68     		ldr	r3, [r7, #8]
 704:Drivers/lvgl/src/core/lv_obj_style.c ****         lv_obj_invalidate(child);
 257              		.loc 1 704 42 discriminator 3 view .LVU66
 258 0012 1B68     		ldr	r3, [r3]
 704:Drivers/lvgl/src/core/lv_obj_style.c ****         lv_obj_invalidate(child);
 259              		.loc 1 704 20 discriminator 3 view .LVU67
 260 0014 53F82460 		ldr	r6, [r3, r4, lsl #2]
 261              	.LVL29:
 705:Drivers/lvgl/src/core/lv_obj_style.c ****         lv_event_send(child, LV_EVENT_STYLE_CHANGED, NULL);
 262              		.loc 1 705 9 is_stmt 1 discriminator 3 view .LVU68
 263 0018 3046     		mov	r0, r6
 264 001a FFF7FEFF 		bl	lv_obj_invalidate
 265              	.LVL30:
 706:Drivers/lvgl/src/core/lv_obj_style.c ****         lv_obj_invalidate(child);
 266              		.loc 1 706 9 discriminator 3 view .LVU69
 267 001e 0022     		movs	r2, #0
 268 0020 2A21     		movs	r1, #42
 269 0022 3046     		mov	r0, r6
 270 0024 FFF7FEFF 		bl	lv_event_send
 271              	.LVL31:
 707:Drivers/lvgl/src/core/lv_obj_style.c **** 
 272              		.loc 1 707 9 discriminator 3 view .LVU70
 273 0028 3046     		mov	r0, r6
 274 002a FFF7FEFF 		bl	lv_obj_invalidate
 275              	.LVL32:
 709:Drivers/lvgl/src/core/lv_obj_style.c ****     }
 276              		.loc 1 709 9 discriminator 3 view .LVU71
 277 002e 3046     		mov	r0, r6
 278 0030 FFF7E6FF 		bl	refresh_children_style
 279              	.LVL33:
 280              	.LBE88:
 703:Drivers/lvgl/src/core/lv_obj_style.c ****         lv_obj_t * child = obj->spec_attr->children[i];
 281              		.loc 1 703 32 discriminator 3 view .LVU72
 282 0034 0134     		adds	r4, r4, #1
ARM GAS  /var/folders/0z/tsy30v1j4xl4_7kw94k978ww0000gn/T//cc8A9NTU.s 			page 20


 283              	.LVL34:
 703:Drivers/lvgl/src/core/lv_obj_style.c ****         lv_obj_t * child = obj->spec_attr->children[i];
 284              		.loc 1 703 32 is_stmt 0 discriminator 3 view .LVU73
 285 0036 E9E7     		b	.L20
 286              	.LVL35:
 287              	.L23:
 711:Drivers/lvgl/src/core/lv_obj_style.c **** 
 288              		.loc 1 711 1 view .LVU74
 289 0038 F8BD     		pop	{r3, r4, r5, r6, r7, pc}
 711:Drivers/lvgl/src/core/lv_obj_style.c **** 
 290              		.loc 1 711 1 view .LVU75
 291              		.cfi_endproc
 292              	.LFE191:
 294              		.section	.text.get_local_style,"ax",%progbits
 295              		.align	1
 296              		.syntax unified
 297              		.thumb
 298              		.thumb_func
 300              	get_local_style:
 301              	.LVL36:
 302              	.LFB187:
 545:Drivers/lvgl/src/core/lv_obj_style.c ****     uint32_t i;
 303              		.loc 1 545 1 is_stmt 1 view -0
 304              		.cfi_startproc
 305              		@ args = 0, pretend = 0, frame = 0
 306              		@ frame_needed = 0, uses_anonymous_args = 0
 545:Drivers/lvgl/src/core/lv_obj_style.c ****     uint32_t i;
 307              		.loc 1 545 1 is_stmt 0 view .LVU77
 308 0000 2DE9F041 		push	{r4, r5, r6, r7, r8, lr}
 309              		.cfi_def_cfa_offset 24
 310              		.cfi_offset 4, -24
 311              		.cfi_offset 5, -20
 312              		.cfi_offset 6, -16
 313              		.cfi_offset 7, -12
 314              		.cfi_offset 8, -8
 315              		.cfi_offset 14, -4
 316 0004 0446     		mov	r4, r0
 317 0006 0D46     		mov	r5, r1
 546:Drivers/lvgl/src/core/lv_obj_style.c ****     for(i = 0; i < obj->style_cnt; i++) {
 318              		.loc 1 546 5 is_stmt 1 view .LVU78
 547:Drivers/lvgl/src/core/lv_obj_style.c ****         if(obj->styles[i].is_local &&
 319              		.loc 1 547 5 view .LVU79
 320              	.LVL37:
 547:Drivers/lvgl/src/core/lv_obj_style.c ****         if(obj->styles[i].is_local &&
 321              		.loc 1 547 11 is_stmt 0 view .LVU80
 322 0008 0022     		movs	r2, #0
 547:Drivers/lvgl/src/core/lv_obj_style.c ****         if(obj->styles[i].is_local &&
 323              		.loc 1 547 5 view .LVU81
 324 000a 00E0     		b	.L25
 325              	.LVL38:
 326              	.L26:
 547:Drivers/lvgl/src/core/lv_obj_style.c ****         if(obj->styles[i].is_local &&
 327              		.loc 1 547 37 is_stmt 1 discriminator 2 view .LVU82
 328 000c 0132     		adds	r2, r2, #1
 329              	.LVL39:
 330              	.L25:
 547:Drivers/lvgl/src/core/lv_obj_style.c ****         if(obj->styles[i].is_local &&
ARM GAS  /var/folders/0z/tsy30v1j4xl4_7kw94k978ww0000gn/T//cc8A9NTU.s 			page 21


 331              		.loc 1 547 18 discriminator 1 view .LVU83
 547:Drivers/lvgl/src/core/lv_obj_style.c ****         if(obj->styles[i].is_local &&
 332              		.loc 1 547 23 is_stmt 0 discriminator 1 view .LVU84
 333 000e 638C     		ldrh	r3, [r4, #34]
 334 0010 C3F30513 		ubfx	r3, r3, #4, #6
 547:Drivers/lvgl/src/core/lv_obj_style.c ****         if(obj->styles[i].is_local &&
 335              		.loc 1 547 18 discriminator 1 view .LVU85
 336 0014 9342     		cmp	r3, r2
 337 0016 0DD9     		bls	.L35
 548:Drivers/lvgl/src/core/lv_obj_style.c ****            obj->styles[i].selector == selector) {
 338              		.loc 1 548 9 is_stmt 1 view .LVU86
 548:Drivers/lvgl/src/core/lv_obj_style.c ****            obj->styles[i].selector == selector) {
 339              		.loc 1 548 15 is_stmt 0 view .LVU87
 340 0018 E368     		ldr	r3, [r4, #12]
 548:Drivers/lvgl/src/core/lv_obj_style.c ****            obj->styles[i].selector == selector) {
 341              		.loc 1 548 23 view .LVU88
 342 001a 03EBC203 		add	r3, r3, r2, lsl #3
 548:Drivers/lvgl/src/core/lv_obj_style.c ****            obj->styles[i].selector == selector) {
 343              		.loc 1 548 12 view .LVU89
 344 001e D979     		ldrb	r1, [r3, #7]	@ zero_extendqisi2
 548:Drivers/lvgl/src/core/lv_obj_style.c ****            obj->styles[i].selector == selector) {
 345              		.loc 1 548 11 view .LVU90
 346 0020 11F0010F 		tst	r1, #1
 347 0024 F2D0     		beq	.L26
 549:Drivers/lvgl/src/core/lv_obj_style.c ****             return obj->styles[i].style;
 348              		.loc 1 549 26 discriminator 1 view .LVU91
 349 0026 5968     		ldr	r1, [r3, #4]
 350 0028 C1F31701 		ubfx	r1, r1, #0, #24
 548:Drivers/lvgl/src/core/lv_obj_style.c ****            obj->styles[i].selector == selector) {
 351              		.loc 1 548 36 discriminator 1 view .LVU92
 352 002c A942     		cmp	r1, r5
 353 002e EDD1     		bne	.L26
 550:Drivers/lvgl/src/core/lv_obj_style.c ****         }
 354              		.loc 1 550 13 is_stmt 1 view .LVU93
 550:Drivers/lvgl/src/core/lv_obj_style.c ****         }
 355              		.loc 1 550 34 is_stmt 0 view .LVU94
 356 0030 1868     		ldr	r0, [r3]
 357              	.LVL40:
 550:Drivers/lvgl/src/core/lv_obj_style.c ****         }
 358              		.loc 1 550 34 view .LVU95
 359 0032 46E0     		b	.L24
 360              	.LVL41:
 361              	.L35:
 554:Drivers/lvgl/src/core/lv_obj_style.c ****     obj->styles = lv_mem_realloc(obj->styles, obj->style_cnt * sizeof(_lv_obj_style_t));
 362              		.loc 1 554 5 is_stmt 1 view .LVU96
 554:Drivers/lvgl/src/core/lv_obj_style.c ****     obj->styles = lv_mem_realloc(obj->styles, obj->style_cnt * sizeof(_lv_obj_style_t));
 363              		.loc 1 554 19 is_stmt 0 view .LVU97
 364 0034 0133     		adds	r3, r3, #1
 365 0036 03F03F03 		and	r3, r3, #63
 366 003a 628C     		ldrh	r2, [r4, #34]
 367              	.LVL42:
 554:Drivers/lvgl/src/core/lv_obj_style.c ****     obj->styles = lv_mem_realloc(obj->styles, obj->style_cnt * sizeof(_lv_obj_style_t));
 368              		.loc 1 554 19 view .LVU98
 369 003c 63F30912 		bfi	r2, r3, #4, #6
 370 0040 6284     		strh	r2, [r4, #34]	@ movhi
 555:Drivers/lvgl/src/core/lv_obj_style.c ****     LV_ASSERT_MALLOC(obj->styles);
 371              		.loc 1 555 5 is_stmt 1 view .LVU99
ARM GAS  /var/folders/0z/tsy30v1j4xl4_7kw94k978ww0000gn/T//cc8A9NTU.s 			page 22


 555:Drivers/lvgl/src/core/lv_obj_style.c ****     LV_ASSERT_MALLOC(obj->styles);
 372              		.loc 1 555 19 is_stmt 0 view .LVU100
 373 0042 D900     		lsls	r1, r3, #3
 374 0044 E068     		ldr	r0, [r4, #12]
 375              	.LVL43:
 555:Drivers/lvgl/src/core/lv_obj_style.c ****     LV_ASSERT_MALLOC(obj->styles);
 376              		.loc 1 555 19 view .LVU101
 377 0046 FFF7FEFF 		bl	lv_mem_realloc
 378              	.LVL44:
 555:Drivers/lvgl/src/core/lv_obj_style.c ****     LV_ASSERT_MALLOC(obj->styles);
 379              		.loc 1 555 17 view .LVU102
 380 004a E060     		str	r0, [r4, #12]
 556:Drivers/lvgl/src/core/lv_obj_style.c **** 
 381              		.loc 1 556 5 is_stmt 1 view .LVU103
 556:Drivers/lvgl/src/core/lv_obj_style.c **** 
 382              		.loc 1 556 5 view .LVU104
 383 004c B0B1     		cbz	r0, .L30
 556:Drivers/lvgl/src/core/lv_obj_style.c **** 
 384              		.loc 1 556 5 discriminator 2 view .LVU105
 556:Drivers/lvgl/src/core/lv_obj_style.c **** 
 385              		.loc 1 556 34 discriminator 2 view .LVU106
 558:Drivers/lvgl/src/core/lv_obj_style.c ****         /*Copy only normal styles (not local and transition).
 386              		.loc 1 558 5 discriminator 2 view .LVU107
 558:Drivers/lvgl/src/core/lv_obj_style.c ****         /*Copy only normal styles (not local and transition).
 387              		.loc 1 558 16 is_stmt 0 discriminator 2 view .LVU108
 388 004e 668C     		ldrh	r6, [r4, #34]
 389 0050 C6F30516 		ubfx	r6, r6, #4, #6
 558:Drivers/lvgl/src/core/lv_obj_style.c ****         /*Copy only normal styles (not local and transition).
 390              		.loc 1 558 28 discriminator 2 view .LVU109
 391 0054 013E     		subs	r6, r6, #1
 392              	.LVL45:
 393              	.L31:
 558:Drivers/lvgl/src/core/lv_obj_style.c ****         /*Copy only normal styles (not local and transition).
 394              		.loc 1 558 35 is_stmt 1 discriminator 1 view .LVU110
 395 0056 96B1     		cbz	r6, .L32
 561:Drivers/lvgl/src/core/lv_obj_style.c ****         obj->styles[i] = obj->styles[i - 1];
 396              		.loc 1 561 9 view .LVU111
 561:Drivers/lvgl/src/core/lv_obj_style.c ****         obj->styles[i] = obj->styles[i - 1];
 397              		.loc 1 561 15 is_stmt 0 view .LVU112
 398 0058 E268     		ldr	r2, [r4, #12]
 561:Drivers/lvgl/src/core/lv_obj_style.c ****         obj->styles[i] = obj->styles[i - 1];
 399              		.loc 1 561 23 view .LVU113
 400 005a 06F10053 		add	r3, r6, #536870912
 401 005e 013B     		subs	r3, r3, #1
 402 0060 02EBC303 		add	r3, r2, r3, lsl #3
 561:Drivers/lvgl/src/core/lv_obj_style.c ****         obj->styles[i] = obj->styles[i - 1];
 403              		.loc 1 561 40 view .LVU114
 404 0064 D979     		ldrb	r1, [r3, #7]	@ zero_extendqisi2
 561:Drivers/lvgl/src/core/lv_obj_style.c ****         obj->styles[i] = obj->styles[i - 1];
 405              		.loc 1 561 11 view .LVU115
 406 0066 11F0030F 		tst	r1, #3
 407 006a 08D1     		bne	.L32
 562:Drivers/lvgl/src/core/lv_obj_style.c ****     }
 408              		.loc 1 562 9 is_stmt 1 discriminator 2 view .LVU116
 562:Drivers/lvgl/src/core/lv_obj_style.c ****     }
 409              		.loc 1 562 20 is_stmt 0 discriminator 2 view .LVU117
 410 006c 02EBC602 		add	r2, r2, r6, lsl #3
ARM GAS  /var/folders/0z/tsy30v1j4xl4_7kw94k978ww0000gn/T//cc8A9NTU.s 			page 23


 562:Drivers/lvgl/src/core/lv_obj_style.c ****     }
 411              		.loc 1 562 24 discriminator 2 view .LVU118
 412 0070 93E80300 		ldm	r3, {r0, r1}
 413 0074 82E80300 		stm	r2, {r0, r1}
 558:Drivers/lvgl/src/core/lv_obj_style.c ****         /*Copy only normal styles (not local and transition).
 414              		.loc 1 558 42 is_stmt 1 discriminator 2 view .LVU119
 415 0078 013E     		subs	r6, r6, #1
 416              	.LVL46:
 558:Drivers/lvgl/src/core/lv_obj_style.c ****         /*Copy only normal styles (not local and transition).
 417              		.loc 1 558 42 is_stmt 0 discriminator 2 view .LVU120
 418 007a ECE7     		b	.L31
 419              	.LVL47:
 420              	.L30:
 556:Drivers/lvgl/src/core/lv_obj_style.c **** 
 421              		.loc 1 556 5 is_stmt 1 discriminator 1 view .LVU121
 556:Drivers/lvgl/src/core/lv_obj_style.c **** 
 422              		.loc 1 556 5 discriminator 1 view .LVU122
 556:Drivers/lvgl/src/core/lv_obj_style.c **** 
 423              		.loc 1 556 5 discriminator 1 view .LVU123
 556:Drivers/lvgl/src/core/lv_obj_style.c **** 
 424              		.loc 1 556 5 discriminator 1 view .LVU124
 556:Drivers/lvgl/src/core/lv_obj_style.c **** 
 425              		.loc 1 556 5 discriminator 1 view .LVU125
 426 007c FEE7     		b	.L30
 427              	.LVL48:
 428              	.L32:
 565:Drivers/lvgl/src/core/lv_obj_style.c ****     obj->styles[i].style = lv_mem_alloc(sizeof(lv_style_t));
 429              		.loc 1 565 5 view .LVU126
 565:Drivers/lvgl/src/core/lv_obj_style.c ****     obj->styles[i].style = lv_mem_alloc(sizeof(lv_style_t));
 430              		.loc 1 565 22 is_stmt 0 view .LVU127
 431 007e E068     		ldr	r0, [r4, #12]
 565:Drivers/lvgl/src/core/lv_obj_style.c ****     obj->styles[i].style = lv_mem_alloc(sizeof(lv_style_t));
 432              		.loc 1 565 30 view .LVU128
 433 0080 F700     		lsls	r7, r6, #3
 565:Drivers/lvgl/src/core/lv_obj_style.c ****     obj->styles[i].style = lv_mem_alloc(sizeof(lv_style_t));
 434              		.loc 1 565 5 view .LVU129
 435 0082 0821     		movs	r1, #8
 436 0084 00EBC600 		add	r0, r0, r6, lsl #3
 437 0088 FFF7FEFF 		bl	lv_memset_00
 438              	.LVL49:
 566:Drivers/lvgl/src/core/lv_obj_style.c ****     lv_style_init(obj->styles[i].style);
 439              		.loc 1 566 5 is_stmt 1 view .LVU130
 566:Drivers/lvgl/src/core/lv_obj_style.c ****     lv_style_init(obj->styles[i].style);
 440              		.loc 1 566 8 is_stmt 0 view .LVU131
 441 008c D4F80C80 		ldr	r8, [r4, #12]
 566:Drivers/lvgl/src/core/lv_obj_style.c ****     lv_style_init(obj->styles[i].style);
 442              		.loc 1 566 28 view .LVU132
 443 0090 0820     		movs	r0, #8
 444 0092 FFF7FEFF 		bl	lv_mem_alloc
 445              	.LVL50:
 566:Drivers/lvgl/src/core/lv_obj_style.c ****     lv_style_init(obj->styles[i].style);
 446              		.loc 1 566 26 view .LVU133
 447 0096 48F83600 		str	r0, [r8, r6, lsl #3]
 567:Drivers/lvgl/src/core/lv_obj_style.c ****     obj->styles[i].is_local = 1;
 448              		.loc 1 567 5 is_stmt 1 view .LVU134
 567:Drivers/lvgl/src/core/lv_obj_style.c ****     obj->styles[i].is_local = 1;
 449              		.loc 1 567 22 is_stmt 0 view .LVU135
ARM GAS  /var/folders/0z/tsy30v1j4xl4_7kw94k978ww0000gn/T//cc8A9NTU.s 			page 24


 450 009a E368     		ldr	r3, [r4, #12]
 567:Drivers/lvgl/src/core/lv_obj_style.c ****     obj->styles[i].is_local = 1;
 451              		.loc 1 567 5 view .LVU136
 452 009c 53F83600 		ldr	r0, [r3, r6, lsl #3]
 453 00a0 FFF7FEFF 		bl	lv_style_init
 454              	.LVL51:
 568:Drivers/lvgl/src/core/lv_obj_style.c ****     obj->styles[i].selector = selector;
 455              		.loc 1 568 5 is_stmt 1 view .LVU137
 568:Drivers/lvgl/src/core/lv_obj_style.c ****     obj->styles[i].selector = selector;
 456              		.loc 1 568 8 is_stmt 0 view .LVU138
 457 00a4 E368     		ldr	r3, [r4, #12]
 568:Drivers/lvgl/src/core/lv_obj_style.c ****     obj->styles[i].selector = selector;
 458              		.loc 1 568 16 view .LVU139
 459 00a6 3B44     		add	r3, r3, r7
 568:Drivers/lvgl/src/core/lv_obj_style.c ****     obj->styles[i].selector = selector;
 460              		.loc 1 568 29 view .LVU140
 461 00a8 DA79     		ldrb	r2, [r3, #7]	@ zero_extendqisi2
 462 00aa 42F00102 		orr	r2, r2, #1
 463 00ae DA71     		strb	r2, [r3, #7]
 569:Drivers/lvgl/src/core/lv_obj_style.c ****     return obj->styles[i].style;
 464              		.loc 1 569 5 is_stmt 1 view .LVU141
 569:Drivers/lvgl/src/core/lv_obj_style.c ****     return obj->styles[i].style;
 465              		.loc 1 569 8 is_stmt 0 view .LVU142
 466 00b0 E368     		ldr	r3, [r4, #12]
 569:Drivers/lvgl/src/core/lv_obj_style.c ****     return obj->styles[i].style;
 467              		.loc 1 569 16 view .LVU143
 468 00b2 3B44     		add	r3, r3, r7
 569:Drivers/lvgl/src/core/lv_obj_style.c ****     return obj->styles[i].style;
 469              		.loc 1 569 29 view .LVU144
 470 00b4 5A68     		ldr	r2, [r3, #4]
 471 00b6 65F31702 		bfi	r2, r5, #0, #24
 472              	.LVL52:
 569:Drivers/lvgl/src/core/lv_obj_style.c ****     return obj->styles[i].style;
 473              		.loc 1 569 29 view .LVU145
 474 00ba 5A60     		str	r2, [r3, #4]
 570:Drivers/lvgl/src/core/lv_obj_style.c **** }
 475              		.loc 1 570 5 is_stmt 1 view .LVU146
 570:Drivers/lvgl/src/core/lv_obj_style.c **** }
 476              		.loc 1 570 15 is_stmt 0 view .LVU147
 477 00bc E368     		ldr	r3, [r4, #12]
 570:Drivers/lvgl/src/core/lv_obj_style.c **** }
 478              		.loc 1 570 26 view .LVU148
 479 00be 53F83600 		ldr	r0, [r3, r6, lsl #3]
 480              	.LVL53:
 481              	.L24:
 571:Drivers/lvgl/src/core/lv_obj_style.c **** 
 482              		.loc 1 571 1 view .LVU149
 483 00c2 BDE8F081 		pop	{r4, r5, r6, r7, r8, pc}
 571:Drivers/lvgl/src/core/lv_obj_style.c **** 
 484              		.loc 1 571 1 view .LVU150
 485              		.cfi_endproc
 486              	.LFE187:
 488              		.section	.text.get_trans_style,"ax",%progbits
 489              		.align	1
 490              		.syntax unified
 491              		.thumb
 492              		.thumb_func
ARM GAS  /var/folders/0z/tsy30v1j4xl4_7kw94k978ww0000gn/T//cc8A9NTU.s 			page 25


 494              	get_trans_style:
 495              	.LVL54:
 496              	.LFB188:
 581:Drivers/lvgl/src/core/lv_obj_style.c ****     uint32_t i;
 497              		.loc 1 581 1 is_stmt 1 view -0
 498              		.cfi_startproc
 499              		@ args = 0, pretend = 0, frame = 0
 500              		@ frame_needed = 0, uses_anonymous_args = 0
 581:Drivers/lvgl/src/core/lv_obj_style.c ****     uint32_t i;
 501              		.loc 1 581 1 is_stmt 0 view .LVU152
 502 0000 70B5     		push	{r4, r5, r6, lr}
 503              		.cfi_def_cfa_offset 16
 504              		.cfi_offset 4, -16
 505              		.cfi_offset 5, -12
 506              		.cfi_offset 6, -8
 507              		.cfi_offset 14, -4
 508 0002 0446     		mov	r4, r0
 509 0004 0D46     		mov	r5, r1
 582:Drivers/lvgl/src/core/lv_obj_style.c ****     for(i = 0; i < obj->style_cnt; i++) {
 510              		.loc 1 582 5 is_stmt 1 view .LVU153
 583:Drivers/lvgl/src/core/lv_obj_style.c ****         if(obj->styles[i].is_trans && obj->styles[i].selector == selector) break;
 511              		.loc 1 583 5 view .LVU154
 512              	.LVL55:
 583:Drivers/lvgl/src/core/lv_obj_style.c ****         if(obj->styles[i].is_trans && obj->styles[i].selector == selector) break;
 513              		.loc 1 583 11 is_stmt 0 view .LVU155
 514 0006 0021     		movs	r1, #0
 515              	.LVL56:
 583:Drivers/lvgl/src/core/lv_obj_style.c ****         if(obj->styles[i].is_trans && obj->styles[i].selector == selector) break;
 516              		.loc 1 583 5 view .LVU156
 517 0008 00E0     		b	.L37
 518              	.LVL57:
 519              	.L38:
 583:Drivers/lvgl/src/core/lv_obj_style.c ****         if(obj->styles[i].is_trans && obj->styles[i].selector == selector) break;
 520              		.loc 1 583 37 is_stmt 1 discriminator 2 view .LVU157
 521 000a 0131     		adds	r1, r1, #1
 522              	.LVL58:
 523              	.L37:
 583:Drivers/lvgl/src/core/lv_obj_style.c ****         if(obj->styles[i].is_trans && obj->styles[i].selector == selector) break;
 524              		.loc 1 583 18 discriminator 1 view .LVU158
 583:Drivers/lvgl/src/core/lv_obj_style.c ****         if(obj->styles[i].is_trans && obj->styles[i].selector == selector) break;
 525              		.loc 1 583 23 is_stmt 0 discriminator 1 view .LVU159
 526 000c 628C     		ldrh	r2, [r4, #34]
 527 000e C2F30512 		ubfx	r2, r2, #4, #6
 583:Drivers/lvgl/src/core/lv_obj_style.c ****         if(obj->styles[i].is_trans && obj->styles[i].selector == selector) break;
 528              		.loc 1 583 18 discriminator 1 view .LVU160
 529 0012 8A42     		cmp	r2, r1
 530 0014 0BD9     		bls	.L39
 584:Drivers/lvgl/src/core/lv_obj_style.c ****     }
 531              		.loc 1 584 9 is_stmt 1 view .LVU161
 584:Drivers/lvgl/src/core/lv_obj_style.c ****     }
 532              		.loc 1 584 15 is_stmt 0 view .LVU162
 533 0016 E368     		ldr	r3, [r4, #12]
 584:Drivers/lvgl/src/core/lv_obj_style.c ****     }
 534              		.loc 1 584 23 view .LVU163
 535 0018 03EBC103 		add	r3, r3, r1, lsl #3
 584:Drivers/lvgl/src/core/lv_obj_style.c ****     }
 536              		.loc 1 584 12 view .LVU164
ARM GAS  /var/folders/0z/tsy30v1j4xl4_7kw94k978ww0000gn/T//cc8A9NTU.s 			page 26


 537 001c D879     		ldrb	r0, [r3, #7]	@ zero_extendqisi2
 584:Drivers/lvgl/src/core/lv_obj_style.c ****     }
 538              		.loc 1 584 11 view .LVU165
 539 001e 10F0020F 		tst	r0, #2
 540 0022 F2D0     		beq	.L38
 584:Drivers/lvgl/src/core/lv_obj_style.c ****     }
 541              		.loc 1 584 53 discriminator 1 view .LVU166
 542 0024 5B68     		ldr	r3, [r3, #4]
 543 0026 C3F31703 		ubfx	r3, r3, #0, #24
 584:Drivers/lvgl/src/core/lv_obj_style.c ****     }
 544              		.loc 1 584 36 discriminator 1 view .LVU167
 545 002a AB42     		cmp	r3, r5
 546 002c EDD1     		bne	.L38
 547              	.L39:
 588:Drivers/lvgl/src/core/lv_obj_style.c **** 
 548              		.loc 1 588 5 is_stmt 1 view .LVU168
 588:Drivers/lvgl/src/core/lv_obj_style.c **** 
 549              		.loc 1 588 7 is_stmt 0 view .LVU169
 550 002e 8A42     		cmp	r2, r1
 551 0030 03D0     		beq	.L41
 588:Drivers/lvgl/src/core/lv_obj_style.c **** 
 552              		.loc 1 588 29 is_stmt 1 discriminator 1 view .LVU170
 588:Drivers/lvgl/src/core/lv_obj_style.c **** 
 553              		.loc 1 588 40 is_stmt 0 discriminator 1 view .LVU171
 554 0032 E068     		ldr	r0, [r4, #12]
 588:Drivers/lvgl/src/core/lv_obj_style.c **** 
 555              		.loc 1 588 36 discriminator 1 view .LVU172
 556 0034 00EBC100 		add	r0, r0, r1, lsl #3
 557              	.LVL59:
 558              	.L36:
 603:Drivers/lvgl/src/core/lv_obj_style.c **** 
 559              		.loc 1 603 1 view .LVU173
 560 0038 70BD     		pop	{r4, r5, r6, pc}
 561              	.LVL60:
 562              	.L41:
 590:Drivers/lvgl/src/core/lv_obj_style.c ****     obj->styles = lv_mem_realloc(obj->styles, obj->style_cnt * sizeof(_lv_obj_style_t));
 563              		.loc 1 590 5 is_stmt 1 view .LVU174
 590:Drivers/lvgl/src/core/lv_obj_style.c ****     obj->styles = lv_mem_realloc(obj->styles, obj->style_cnt * sizeof(_lv_obj_style_t));
 564              		.loc 1 590 19 is_stmt 0 view .LVU175
 565 003a 0132     		adds	r2, r2, #1
 566 003c 02F03F02 		and	r2, r2, #63
 567 0040 638C     		ldrh	r3, [r4, #34]
 568 0042 62F30913 		bfi	r3, r2, #4, #6
 569 0046 6384     		strh	r3, [r4, #34]	@ movhi
 591:Drivers/lvgl/src/core/lv_obj_style.c **** 
 570              		.loc 1 591 5 is_stmt 1 view .LVU176
 591:Drivers/lvgl/src/core/lv_obj_style.c **** 
 571              		.loc 1 591 19 is_stmt 0 view .LVU177
 572 0048 D100     		lsls	r1, r2, #3
 573              	.LVL61:
 591:Drivers/lvgl/src/core/lv_obj_style.c **** 
 574              		.loc 1 591 19 view .LVU178
 575 004a E068     		ldr	r0, [r4, #12]
 576 004c FFF7FEFF 		bl	lv_mem_realloc
 577              	.LVL62:
 591:Drivers/lvgl/src/core/lv_obj_style.c **** 
 578              		.loc 1 591 17 view .LVU179
ARM GAS  /var/folders/0z/tsy30v1j4xl4_7kw94k978ww0000gn/T//cc8A9NTU.s 			page 27


 579 0050 E060     		str	r0, [r4, #12]
 593:Drivers/lvgl/src/core/lv_obj_style.c ****         obj->styles[i] = obj->styles[i - 1];
 580              		.loc 1 593 5 is_stmt 1 view .LVU180
 593:Drivers/lvgl/src/core/lv_obj_style.c ****         obj->styles[i] = obj->styles[i - 1];
 581              		.loc 1 593 16 is_stmt 0 view .LVU181
 582 0052 668C     		ldrh	r6, [r4, #34]
 583 0054 C6F30516 		ubfx	r6, r6, #4, #6
 593:Drivers/lvgl/src/core/lv_obj_style.c ****         obj->styles[i] = obj->styles[i - 1];
 584              		.loc 1 593 28 view .LVU182
 585 0058 013E     		subs	r6, r6, #1
 586              	.LVL63:
 593:Drivers/lvgl/src/core/lv_obj_style.c ****         obj->styles[i] = obj->styles[i - 1];
 587              		.loc 1 593 5 view .LVU183
 588 005a 0CE0     		b	.L43
 589              	.L44:
 594:Drivers/lvgl/src/core/lv_obj_style.c ****     }
 590              		.loc 1 594 9 is_stmt 1 discriminator 3 view .LVU184
 594:Drivers/lvgl/src/core/lv_obj_style.c ****     }
 591              		.loc 1 594 29 is_stmt 0 discriminator 3 view .LVU185
 592 005c E268     		ldr	r2, [r4, #12]
 594:Drivers/lvgl/src/core/lv_obj_style.c ****     }
 593              		.loc 1 594 37 discriminator 3 view .LVU186
 594 005e 06F10053 		add	r3, r6, #536870912
 595 0062 013B     		subs	r3, r3, #1
 596 0064 02EBC303 		add	r3, r2, r3, lsl #3
 594:Drivers/lvgl/src/core/lv_obj_style.c ****     }
 597              		.loc 1 594 20 discriminator 3 view .LVU187
 598 0068 02EBC602 		add	r2, r2, r6, lsl #3
 594:Drivers/lvgl/src/core/lv_obj_style.c ****     }
 599              		.loc 1 594 24 discriminator 3 view .LVU188
 600 006c 93E80300 		ldm	r3, {r0, r1}
 601 0070 82E80300 		stm	r2, {r0, r1}
 593:Drivers/lvgl/src/core/lv_obj_style.c ****         obj->styles[i] = obj->styles[i - 1];
 602              		.loc 1 593 42 is_stmt 1 discriminator 3 view .LVU189
 603 0074 013E     		subs	r6, r6, #1
 604              	.LVL64:
 605              	.L43:
 593:Drivers/lvgl/src/core/lv_obj_style.c ****         obj->styles[i] = obj->styles[i - 1];
 606              		.loc 1 593 35 discriminator 1 view .LVU190
 607 0076 002E     		cmp	r6, #0
 608 0078 F0D1     		bne	.L44
 597:Drivers/lvgl/src/core/lv_obj_style.c ****     obj->styles[0].style = lv_mem_alloc(sizeof(lv_style_t));
 609              		.loc 1 597 5 view .LVU191
 610 007a 0821     		movs	r1, #8
 611 007c E068     		ldr	r0, [r4, #12]
 612 007e FFF7FEFF 		bl	lv_memset_00
 613              	.LVL65:
 598:Drivers/lvgl/src/core/lv_obj_style.c ****     lv_style_init(obj->styles[0].style);
 614              		.loc 1 598 5 view .LVU192
 598:Drivers/lvgl/src/core/lv_obj_style.c ****     lv_style_init(obj->styles[0].style);
 615              		.loc 1 598 8 is_stmt 0 view .LVU193
 616 0082 E668     		ldr	r6, [r4, #12]
 617              	.LVL66:
 598:Drivers/lvgl/src/core/lv_obj_style.c ****     lv_style_init(obj->styles[0].style);
 618              		.loc 1 598 28 view .LVU194
 619 0084 0820     		movs	r0, #8
 620 0086 FFF7FEFF 		bl	lv_mem_alloc
ARM GAS  /var/folders/0z/tsy30v1j4xl4_7kw94k978ww0000gn/T//cc8A9NTU.s 			page 28


 621              	.LVL67:
 598:Drivers/lvgl/src/core/lv_obj_style.c ****     lv_style_init(obj->styles[0].style);
 622              		.loc 1 598 26 view .LVU195
 623 008a 3060     		str	r0, [r6]
 599:Drivers/lvgl/src/core/lv_obj_style.c ****     obj->styles[0].is_trans = 1;
 624              		.loc 1 599 5 is_stmt 1 view .LVU196
 599:Drivers/lvgl/src/core/lv_obj_style.c ****     obj->styles[0].is_trans = 1;
 625              		.loc 1 599 22 is_stmt 0 view .LVU197
 626 008c E368     		ldr	r3, [r4, #12]
 599:Drivers/lvgl/src/core/lv_obj_style.c ****     obj->styles[0].is_trans = 1;
 627              		.loc 1 599 5 view .LVU198
 628 008e 1868     		ldr	r0, [r3]
 629 0090 FFF7FEFF 		bl	lv_style_init
 630              	.LVL68:
 600:Drivers/lvgl/src/core/lv_obj_style.c ****     obj->styles[0].selector = selector;
 631              		.loc 1 600 5 is_stmt 1 view .LVU199
 600:Drivers/lvgl/src/core/lv_obj_style.c ****     obj->styles[0].selector = selector;
 632              		.loc 1 600 8 is_stmt 0 view .LVU200
 633 0094 E268     		ldr	r2, [r4, #12]
 600:Drivers/lvgl/src/core/lv_obj_style.c ****     obj->styles[0].selector = selector;
 634              		.loc 1 600 29 view .LVU201
 635 0096 D379     		ldrb	r3, [r2, #7]	@ zero_extendqisi2
 636 0098 43F00203 		orr	r3, r3, #2
 637 009c D371     		strb	r3, [r2, #7]
 601:Drivers/lvgl/src/core/lv_obj_style.c ****     return &obj->styles[0];
 638              		.loc 1 601 5 is_stmt 1 view .LVU202
 601:Drivers/lvgl/src/core/lv_obj_style.c ****     return &obj->styles[0];
 639              		.loc 1 601 8 is_stmt 0 view .LVU203
 640 009e E368     		ldr	r3, [r4, #12]
 601:Drivers/lvgl/src/core/lv_obj_style.c ****     return &obj->styles[0];
 641              		.loc 1 601 29 view .LVU204
 642 00a0 5A68     		ldr	r2, [r3, #4]
 643 00a2 65F31702 		bfi	r2, r5, #0, #24
 644              	.LVL69:
 601:Drivers/lvgl/src/core/lv_obj_style.c ****     return &obj->styles[0];
 645              		.loc 1 601 29 view .LVU205
 646 00a6 5A60     		str	r2, [r3, #4]
 602:Drivers/lvgl/src/core/lv_obj_style.c **** }
 647              		.loc 1 602 5 is_stmt 1 view .LVU206
 602:Drivers/lvgl/src/core/lv_obj_style.c **** }
 648              		.loc 1 602 12 is_stmt 0 view .LVU207
 649 00a8 E068     		ldr	r0, [r4, #12]
 650 00aa C5E7     		b	.L36
 651              		.cfi_endproc
 652              	.LFE188:
 654              		.section	.text.fade_anim_cb,"ax",%progbits
 655              		.align	1
 656              		.syntax unified
 657              		.thumb
 658              		.thumb_func
 660              	fade_anim_cb:
 661              	.LVL70:
 662              	.LFB197:
 755:Drivers/lvgl/src/core/lv_obj_style.c **** 
 756:Drivers/lvgl/src/core/lv_obj_style.c **** static void trans_anim_cb(void * _tr, int32_t v)
 757:Drivers/lvgl/src/core/lv_obj_style.c **** {
 758:Drivers/lvgl/src/core/lv_obj_style.c ****     trans_t * tr = _tr;
ARM GAS  /var/folders/0z/tsy30v1j4xl4_7kw94k978ww0000gn/T//cc8A9NTU.s 			page 29


 759:Drivers/lvgl/src/core/lv_obj_style.c ****     lv_obj_t * obj = tr->obj;
 760:Drivers/lvgl/src/core/lv_obj_style.c **** 
 761:Drivers/lvgl/src/core/lv_obj_style.c ****     uint32_t i;
 762:Drivers/lvgl/src/core/lv_obj_style.c ****     for(i = 0; i < obj->style_cnt; i++) {
 763:Drivers/lvgl/src/core/lv_obj_style.c ****         if(obj->styles[i].is_trans == 0 || obj->styles[i].selector != tr->selector) continue;
 764:Drivers/lvgl/src/core/lv_obj_style.c **** 
 765:Drivers/lvgl/src/core/lv_obj_style.c ****         lv_style_value_t value_final;
 766:Drivers/lvgl/src/core/lv_obj_style.c ****         switch(tr->prop) {
 767:Drivers/lvgl/src/core/lv_obj_style.c **** 
 768:Drivers/lvgl/src/core/lv_obj_style.c ****             case LV_STYLE_BORDER_SIDE:
 769:Drivers/lvgl/src/core/lv_obj_style.c ****             case LV_STYLE_BORDER_POST:
 770:Drivers/lvgl/src/core/lv_obj_style.c ****             case LV_STYLE_BLEND_MODE:
 771:Drivers/lvgl/src/core/lv_obj_style.c ****                 if(v < 255) value_final.num = tr->start_value.num;
 772:Drivers/lvgl/src/core/lv_obj_style.c ****                 else value_final.num = tr->end_value.num;
 773:Drivers/lvgl/src/core/lv_obj_style.c ****                 break;
 774:Drivers/lvgl/src/core/lv_obj_style.c ****             case LV_STYLE_TRANSITION:
 775:Drivers/lvgl/src/core/lv_obj_style.c ****             case LV_STYLE_TEXT_FONT:
 776:Drivers/lvgl/src/core/lv_obj_style.c ****                 if(v < 255) value_final.ptr = tr->start_value.ptr;
 777:Drivers/lvgl/src/core/lv_obj_style.c ****                 else value_final.ptr = tr->end_value.ptr;
 778:Drivers/lvgl/src/core/lv_obj_style.c ****                 break;
 779:Drivers/lvgl/src/core/lv_obj_style.c ****             case LV_STYLE_COLOR_FILTER_DSC:
 780:Drivers/lvgl/src/core/lv_obj_style.c ****                 if(tr->start_value.ptr == NULL) value_final.ptr = tr->end_value.ptr;
 781:Drivers/lvgl/src/core/lv_obj_style.c ****                 else if(tr->end_value.ptr == NULL) value_final.ptr = tr->start_value.ptr;
 782:Drivers/lvgl/src/core/lv_obj_style.c ****                 else if(v < 128) value_final.ptr = tr->start_value.ptr;
 783:Drivers/lvgl/src/core/lv_obj_style.c ****                 else value_final.ptr = tr->end_value.ptr;
 784:Drivers/lvgl/src/core/lv_obj_style.c ****                 break;
 785:Drivers/lvgl/src/core/lv_obj_style.c ****             case LV_STYLE_BG_COLOR:
 786:Drivers/lvgl/src/core/lv_obj_style.c ****             case LV_STYLE_BG_GRAD_COLOR:
 787:Drivers/lvgl/src/core/lv_obj_style.c ****             case LV_STYLE_BORDER_COLOR:
 788:Drivers/lvgl/src/core/lv_obj_style.c ****             case LV_STYLE_TEXT_COLOR:
 789:Drivers/lvgl/src/core/lv_obj_style.c ****             case LV_STYLE_SHADOW_COLOR:
 790:Drivers/lvgl/src/core/lv_obj_style.c ****             case LV_STYLE_OUTLINE_COLOR:
 791:Drivers/lvgl/src/core/lv_obj_style.c ****             case LV_STYLE_IMG_RECOLOR:
 792:Drivers/lvgl/src/core/lv_obj_style.c ****                 if(v <= 0) value_final.color = tr->start_value.color;
 793:Drivers/lvgl/src/core/lv_obj_style.c ****                 else if(v >= 255) value_final.color = tr->end_value.color;
 794:Drivers/lvgl/src/core/lv_obj_style.c ****                 else value_final.color = lv_color_mix(tr->end_value.color, tr->start_value.color, v
 795:Drivers/lvgl/src/core/lv_obj_style.c ****                 break;
 796:Drivers/lvgl/src/core/lv_obj_style.c **** 
 797:Drivers/lvgl/src/core/lv_obj_style.c ****             default:
 798:Drivers/lvgl/src/core/lv_obj_style.c ****                 if(v == 0) value_final.num = tr->start_value.num;
 799:Drivers/lvgl/src/core/lv_obj_style.c ****                 else if(v == 255) value_final.num = tr->end_value.num;
 800:Drivers/lvgl/src/core/lv_obj_style.c ****                 else value_final.num = tr->start_value.num + ((int32_t)((int32_t)(tr->end_value.num
 801:Drivers/lvgl/src/core/lv_obj_style.c ****                 break;
 802:Drivers/lvgl/src/core/lv_obj_style.c ****         }
 803:Drivers/lvgl/src/core/lv_obj_style.c **** 
 804:Drivers/lvgl/src/core/lv_obj_style.c ****         lv_style_value_t old_value;
 805:Drivers/lvgl/src/core/lv_obj_style.c ****         bool refr = true;
 806:Drivers/lvgl/src/core/lv_obj_style.c ****         if(lv_style_get_prop(obj->styles[i].style, tr->prop, &old_value)) {
 807:Drivers/lvgl/src/core/lv_obj_style.c ****             if(value_final.ptr == old_value.ptr && value_final.color.full == old_value.color.full &
 808:Drivers/lvgl/src/core/lv_obj_style.c ****                value_final.num == old_value.num) {
 809:Drivers/lvgl/src/core/lv_obj_style.c ****                 refr = false;
 810:Drivers/lvgl/src/core/lv_obj_style.c ****             }
 811:Drivers/lvgl/src/core/lv_obj_style.c ****         }
 812:Drivers/lvgl/src/core/lv_obj_style.c ****         lv_style_set_prop(obj->styles[i].style, tr->prop, value_final);
 813:Drivers/lvgl/src/core/lv_obj_style.c ****         if(refr) lv_obj_refresh_style(tr->obj, tr->selector, tr->prop);
 814:Drivers/lvgl/src/core/lv_obj_style.c ****         break;
 815:Drivers/lvgl/src/core/lv_obj_style.c **** 
ARM GAS  /var/folders/0z/tsy30v1j4xl4_7kw94k978ww0000gn/T//cc8A9NTU.s 			page 30


 816:Drivers/lvgl/src/core/lv_obj_style.c ****     }
 817:Drivers/lvgl/src/core/lv_obj_style.c **** 
 818:Drivers/lvgl/src/core/lv_obj_style.c **** }
 819:Drivers/lvgl/src/core/lv_obj_style.c **** 
 820:Drivers/lvgl/src/core/lv_obj_style.c **** static void trans_anim_start_cb(lv_anim_t * a)
 821:Drivers/lvgl/src/core/lv_obj_style.c **** {
 822:Drivers/lvgl/src/core/lv_obj_style.c ****     trans_t * tr = a->var;
 823:Drivers/lvgl/src/core/lv_obj_style.c **** 
 824:Drivers/lvgl/src/core/lv_obj_style.c ****     lv_part_t part = lv_obj_style_get_selector_part(tr->selector);
 825:Drivers/lvgl/src/core/lv_obj_style.c ****     tr->start_value = lv_obj_get_style_prop(tr->obj, part, tr->prop);
 826:Drivers/lvgl/src/core/lv_obj_style.c **** 
 827:Drivers/lvgl/src/core/lv_obj_style.c ****     /*Init prop to an invalid values to be sure `trans_del` won't delete this added `tr`*/
 828:Drivers/lvgl/src/core/lv_obj_style.c ****     lv_style_prop_t prop_tmp = tr->prop;
 829:Drivers/lvgl/src/core/lv_obj_style.c ****     tr->prop = LV_STYLE_PROP_INV;
 830:Drivers/lvgl/src/core/lv_obj_style.c **** 
 831:Drivers/lvgl/src/core/lv_obj_style.c ****     /*Delete the related transitions if any*/
 832:Drivers/lvgl/src/core/lv_obj_style.c ****     trans_del(tr->obj, part, prop_tmp, tr);
 833:Drivers/lvgl/src/core/lv_obj_style.c **** 
 834:Drivers/lvgl/src/core/lv_obj_style.c ****     tr->prop = prop_tmp;
 835:Drivers/lvgl/src/core/lv_obj_style.c **** 
 836:Drivers/lvgl/src/core/lv_obj_style.c ****     _lv_obj_style_t * style_trans = get_trans_style(tr->obj, tr->selector);
 837:Drivers/lvgl/src/core/lv_obj_style.c ****     lv_style_set_prop(style_trans->style, tr->prop, tr->start_value);   /*Be sure `trans_style` has
 838:Drivers/lvgl/src/core/lv_obj_style.c **** 
 839:Drivers/lvgl/src/core/lv_obj_style.c **** }
 840:Drivers/lvgl/src/core/lv_obj_style.c **** 
 841:Drivers/lvgl/src/core/lv_obj_style.c **** static void trans_anim_ready_cb(lv_anim_t * a)
 842:Drivers/lvgl/src/core/lv_obj_style.c **** {
 843:Drivers/lvgl/src/core/lv_obj_style.c ****     trans_t * tr = a->var;
 844:Drivers/lvgl/src/core/lv_obj_style.c ****     lv_obj_t * obj = tr->obj;
 845:Drivers/lvgl/src/core/lv_obj_style.c ****     lv_style_prop_t prop = tr->prop;
 846:Drivers/lvgl/src/core/lv_obj_style.c **** 
 847:Drivers/lvgl/src/core/lv_obj_style.c ****     /*Remove the transitioned property from trans. style
 848:Drivers/lvgl/src/core/lv_obj_style.c ****      *if there no more transitions for this property
 849:Drivers/lvgl/src/core/lv_obj_style.c ****      *It allows changing it by normal styles*/
 850:Drivers/lvgl/src/core/lv_obj_style.c ****     bool running = false;
 851:Drivers/lvgl/src/core/lv_obj_style.c ****     trans_t * tr_i;
 852:Drivers/lvgl/src/core/lv_obj_style.c ****     _LV_LL_READ(&LV_GC_ROOT(_lv_obj_style_trans_ll), tr_i) {
 853:Drivers/lvgl/src/core/lv_obj_style.c ****         if(tr_i != tr && tr_i->obj == tr->obj && tr_i->selector == tr->selector && tr_i->prop == tr
 854:Drivers/lvgl/src/core/lv_obj_style.c ****             running = true;
 855:Drivers/lvgl/src/core/lv_obj_style.c ****             break;
 856:Drivers/lvgl/src/core/lv_obj_style.c ****         }
 857:Drivers/lvgl/src/core/lv_obj_style.c ****     }
 858:Drivers/lvgl/src/core/lv_obj_style.c **** 
 859:Drivers/lvgl/src/core/lv_obj_style.c ****     if(!running) {
 860:Drivers/lvgl/src/core/lv_obj_style.c ****         uint32_t i;
 861:Drivers/lvgl/src/core/lv_obj_style.c ****         for(i = 0; i < obj->style_cnt; i++) {
 862:Drivers/lvgl/src/core/lv_obj_style.c ****             if(obj->styles[i].is_trans && obj->styles[i].selector == tr->selector) {
 863:Drivers/lvgl/src/core/lv_obj_style.c ****                 _lv_ll_remove(&LV_GC_ROOT(_lv_obj_style_trans_ll), tr);
 864:Drivers/lvgl/src/core/lv_obj_style.c ****                 lv_mem_free(tr);
 865:Drivers/lvgl/src/core/lv_obj_style.c **** 
 866:Drivers/lvgl/src/core/lv_obj_style.c ****                 _lv_obj_style_t * obj_style = &obj->styles[i];
 867:Drivers/lvgl/src/core/lv_obj_style.c ****                 lv_style_remove_prop(obj_style->style, prop);
 868:Drivers/lvgl/src/core/lv_obj_style.c **** 
 869:Drivers/lvgl/src/core/lv_obj_style.c ****                 if(lv_style_is_empty(obj->styles[i].style)) {
 870:Drivers/lvgl/src/core/lv_obj_style.c ****                     lv_obj_remove_style(obj, obj_style->style, obj_style->selector);
 871:Drivers/lvgl/src/core/lv_obj_style.c **** 
 872:Drivers/lvgl/src/core/lv_obj_style.c ****                 }
ARM GAS  /var/folders/0z/tsy30v1j4xl4_7kw94k978ww0000gn/T//cc8A9NTU.s 			page 31


 873:Drivers/lvgl/src/core/lv_obj_style.c ****                 break;
 874:Drivers/lvgl/src/core/lv_obj_style.c ****             }
 875:Drivers/lvgl/src/core/lv_obj_style.c ****         }
 876:Drivers/lvgl/src/core/lv_obj_style.c ****     }
 877:Drivers/lvgl/src/core/lv_obj_style.c **** }
 878:Drivers/lvgl/src/core/lv_obj_style.c **** 
 879:Drivers/lvgl/src/core/lv_obj_style.c **** static lv_layer_type_t calculate_layer_type(lv_obj_t * obj)
 880:Drivers/lvgl/src/core/lv_obj_style.c **** {
 881:Drivers/lvgl/src/core/lv_obj_style.c ****     if(lv_obj_get_style_transform_angle(obj, 0) != 0) return LV_LAYER_TYPE_TRANSFORM;
 882:Drivers/lvgl/src/core/lv_obj_style.c ****     if(lv_obj_get_style_transform_zoom(obj, 0) != 256) return LV_LAYER_TYPE_TRANSFORM;
 883:Drivers/lvgl/src/core/lv_obj_style.c ****     if(lv_obj_get_style_opa_layered(obj, 0) != LV_OPA_COVER) return LV_LAYER_TYPE_SIMPLE;
 884:Drivers/lvgl/src/core/lv_obj_style.c **** #if LV_DRAW_COMPLEX
 885:Drivers/lvgl/src/core/lv_obj_style.c ****     if(lv_obj_get_style_blend_mode(obj, 0) != LV_BLEND_MODE_NORMAL) return LV_LAYER_TYPE_SIMPLE;
 886:Drivers/lvgl/src/core/lv_obj_style.c **** #endif
 887:Drivers/lvgl/src/core/lv_obj_style.c ****     return LV_LAYER_TYPE_NONE;
 888:Drivers/lvgl/src/core/lv_obj_style.c **** }
 889:Drivers/lvgl/src/core/lv_obj_style.c **** 
 890:Drivers/lvgl/src/core/lv_obj_style.c **** static void fade_anim_cb(void * obj, int32_t v)
 891:Drivers/lvgl/src/core/lv_obj_style.c **** {
 663              		.loc 1 891 1 is_stmt 1 view -0
 664              		.cfi_startproc
 665              		@ args = 0, pretend = 0, frame = 0
 666              		@ frame_needed = 0, uses_anonymous_args = 0
 667              		.loc 1 891 1 is_stmt 0 view .LVU209
 668 0000 08B5     		push	{r3, lr}
 669              		.cfi_def_cfa_offset 8
 670              		.cfi_offset 3, -8
 671              		.cfi_offset 14, -4
 892:Drivers/lvgl/src/core/lv_obj_style.c ****     lv_obj_set_style_opa(obj, v, 0);
 672              		.loc 1 892 5 is_stmt 1 view .LVU210
 673 0002 0022     		movs	r2, #0
 674 0004 C9B2     		uxtb	r1, r1
 675              	.LVL71:
 676              		.loc 1 892 5 is_stmt 0 view .LVU211
 677 0006 FFF7FEFF 		bl	lv_obj_set_style_opa
 678              	.LVL72:
 893:Drivers/lvgl/src/core/lv_obj_style.c **** }
 679              		.loc 1 893 1 view .LVU212
 680 000a 08BD     		pop	{r3, pc}
 681              		.cfi_endproc
 682              	.LFE197:
 684              		.section	.text._lv_obj_style_init,"ax",%progbits
 685              		.align	1
 686              		.global	_lv_obj_style_init
 687              		.syntax unified
 688              		.thumb
 689              		.thumb_func
 691              	_lv_obj_style_init:
 692              	.LFB167:
  72:Drivers/lvgl/src/core/lv_obj_style.c ****     _lv_ll_init(&LV_GC_ROOT(_lv_obj_style_trans_ll), sizeof(trans_t));
 693              		.loc 1 72 1 is_stmt 1 view -0
 694              		.cfi_startproc
 695              		@ args = 0, pretend = 0, frame = 0
 696              		@ frame_needed = 0, uses_anonymous_args = 0
 697 0000 08B5     		push	{r3, lr}
 698              		.cfi_def_cfa_offset 8
 699              		.cfi_offset 3, -8
ARM GAS  /var/folders/0z/tsy30v1j4xl4_7kw94k978ww0000gn/T//cc8A9NTU.s 			page 32


 700              		.cfi_offset 14, -4
  73:Drivers/lvgl/src/core/lv_obj_style.c **** }
 701              		.loc 1 73 5 view .LVU214
 702 0002 1421     		movs	r1, #20
 703 0004 0148     		ldr	r0, .L50
 704 0006 FFF7FEFF 		bl	_lv_ll_init
 705              	.LVL73:
  74:Drivers/lvgl/src/core/lv_obj_style.c **** 
 706              		.loc 1 74 1 is_stmt 0 view .LVU215
 707 000a 08BD     		pop	{r3, pc}
 708              	.L51:
 709              		.align	2
 710              	.L50:
 711 000c 00000000 		.word	_lv_obj_style_trans_ll
 712              		.cfi_endproc
 713              	.LFE167:
 715              		.section	.text.lv_obj_enable_style_refresh,"ax",%progbits
 716              		.align	1
 717              		.global	lv_obj_enable_style_refresh
 718              		.syntax unified
 719              		.thumb
 720              		.thumb_func
 722              	lv_obj_enable_style_refresh:
 723              	.LVL74:
 724              	.LFB172:
 219:Drivers/lvgl/src/core/lv_obj_style.c ****     style_refr = en;
 725              		.loc 1 219 1 is_stmt 1 view -0
 726              		.cfi_startproc
 727              		@ args = 0, pretend = 0, frame = 0
 728              		@ frame_needed = 0, uses_anonymous_args = 0
 729              		@ link register save eliminated.
 220:Drivers/lvgl/src/core/lv_obj_style.c **** }
 730              		.loc 1 220 5 view .LVU217
 220:Drivers/lvgl/src/core/lv_obj_style.c **** }
 731              		.loc 1 220 16 is_stmt 0 view .LVU218
 732 0000 014B     		ldr	r3, .L53
 733 0002 1870     		strb	r0, [r3]
 221:Drivers/lvgl/src/core/lv_obj_style.c **** 
 734              		.loc 1 221 1 view .LVU219
 735 0004 7047     		bx	lr
 736              	.L54:
 737 0006 00BF     		.align	2
 738              	.L53:
 739 0008 00000000 		.word	.LANCHOR0
 740              		.cfi_endproc
 741              	.LFE172:
 743              		.section	.text.lv_obj_get_local_style_prop,"ax",%progbits
 744              		.align	1
 745              		.global	lv_obj_get_local_style_prop
 746              		.syntax unified
 747              		.thumb
 748              		.thumb_func
 750              	lv_obj_get_local_style_prop:
 751              	.LVL75:
 752              	.LFB176:
 289:Drivers/lvgl/src/core/lv_obj_style.c ****     uint32_t i;
 753              		.loc 1 289 1 is_stmt 1 view -0
ARM GAS  /var/folders/0z/tsy30v1j4xl4_7kw94k978ww0000gn/T//cc8A9NTU.s 			page 33


 754              		.cfi_startproc
 755              		@ args = 0, pretend = 0, frame = 0
 756              		@ frame_needed = 0, uses_anonymous_args = 0
 289:Drivers/lvgl/src/core/lv_obj_style.c ****     uint32_t i;
 757              		.loc 1 289 1 is_stmt 0 view .LVU221
 758 0000 10B5     		push	{r4, lr}
 759              		.cfi_def_cfa_offset 8
 760              		.cfi_offset 4, -8
 761              		.cfi_offset 14, -4
 290:Drivers/lvgl/src/core/lv_obj_style.c ****     for(i = 0; i < obj->style_cnt; i++) {
 762              		.loc 1 290 5 is_stmt 1 view .LVU222
 291:Drivers/lvgl/src/core/lv_obj_style.c ****         if(obj->styles[i].is_local &&
 763              		.loc 1 291 5 view .LVU223
 764              	.LVL76:
 291:Drivers/lvgl/src/core/lv_obj_style.c ****         if(obj->styles[i].is_local &&
 765              		.loc 1 291 11 is_stmt 0 view .LVU224
 766 0002 4FF0000E 		mov	lr, #0
 291:Drivers/lvgl/src/core/lv_obj_style.c ****         if(obj->styles[i].is_local &&
 767              		.loc 1 291 5 view .LVU225
 768 0006 01E0     		b	.L56
 769              	.LVL77:
 770              	.L57:
 291:Drivers/lvgl/src/core/lv_obj_style.c ****         if(obj->styles[i].is_local &&
 771              		.loc 1 291 37 is_stmt 1 discriminator 2 view .LVU226
 772 0008 0EF1010E 		add	lr, lr, #1
 773              	.LVL78:
 774              	.L56:
 291:Drivers/lvgl/src/core/lv_obj_style.c ****         if(obj->styles[i].is_local &&
 775              		.loc 1 291 18 discriminator 1 view .LVU227
 291:Drivers/lvgl/src/core/lv_obj_style.c ****         if(obj->styles[i].is_local &&
 776              		.loc 1 291 23 is_stmt 0 discriminator 1 view .LVU228
 777 000c B0F822C0 		ldrh	ip, [r0, #34]
 778 0010 CCF3051C 		ubfx	ip, ip, #4, #6
 291:Drivers/lvgl/src/core/lv_obj_style.c ****         if(obj->styles[i].is_local &&
 779              		.loc 1 291 18 discriminator 1 view .LVU229
 780 0014 F445     		cmp	ip, lr
 781 0016 12D9     		bls	.L61
 292:Drivers/lvgl/src/core/lv_obj_style.c ****            obj->styles[i].selector == selector) {
 782              		.loc 1 292 9 is_stmt 1 view .LVU230
 292:Drivers/lvgl/src/core/lv_obj_style.c ****            obj->styles[i].selector == selector) {
 783              		.loc 1 292 23 is_stmt 0 view .LVU231
 784 0018 C468     		ldr	r4, [r0, #12]
 785 001a 04EBCE0C 		add	ip, r4, lr, lsl #3
 292:Drivers/lvgl/src/core/lv_obj_style.c ****            obj->styles[i].selector == selector) {
 786              		.loc 1 292 12 view .LVU232
 787 001e 9CF80740 		ldrb	r4, [ip, #7]	@ zero_extendqisi2
 292:Drivers/lvgl/src/core/lv_obj_style.c ****            obj->styles[i].selector == selector) {
 788              		.loc 1 292 11 view .LVU233
 789 0022 14F0010F 		tst	r4, #1
 790 0026 EFD0     		beq	.L57
 293:Drivers/lvgl/src/core/lv_obj_style.c ****             return lv_style_get_prop(obj->styles[i].style, prop, value);
 791              		.loc 1 293 26 discriminator 1 view .LVU234
 792 0028 DCF80440 		ldr	r4, [ip, #4]
 793 002c C4F31704 		ubfx	r4, r4, #0, #24
 292:Drivers/lvgl/src/core/lv_obj_style.c ****            obj->styles[i].selector == selector) {
 794              		.loc 1 292 36 discriminator 1 view .LVU235
 795 0030 9C42     		cmp	r4, r3
ARM GAS  /var/folders/0z/tsy30v1j4xl4_7kw94k978ww0000gn/T//cc8A9NTU.s 			page 34


 796 0032 E9D1     		bne	.L57
 294:Drivers/lvgl/src/core/lv_obj_style.c ****         }
 797              		.loc 1 294 13 is_stmt 1 view .LVU236
 294:Drivers/lvgl/src/core/lv_obj_style.c ****         }
 798              		.loc 1 294 20 is_stmt 0 view .LVU237
 799 0034 DCF80000 		ldr	r0, [ip]
 800              	.LVL79:
 294:Drivers/lvgl/src/core/lv_obj_style.c ****         }
 801              		.loc 1 294 20 view .LVU238
 802 0038 FFF7FEFF 		bl	lv_style_get_prop
 803              	.LVL80:
 294:Drivers/lvgl/src/core/lv_obj_style.c ****         }
 804              		.loc 1 294 20 view .LVU239
 805 003c 00E0     		b	.L58
 806              	.LVL81:
 807              	.L61:
 298:Drivers/lvgl/src/core/lv_obj_style.c **** }
 808              		.loc 1 298 12 view .LVU240
 809 003e 0020     		movs	r0, #0
 810              	.LVL82:
 811              	.L58:
 299:Drivers/lvgl/src/core/lv_obj_style.c **** 
 812              		.loc 1 299 1 view .LVU241
 813 0040 10BD     		pop	{r4, pc}
 814              		.cfi_endproc
 815              	.LFE176:
 817              		.section	.text.lv_obj_fade_in,"ax",%progbits
 818              		.align	1
 819              		.global	lv_obj_fade_in
 820              		.syntax unified
 821              		.thumb
 822              		.thumb_func
 824              	lv_obj_fade_in:
 825              	.LVL83:
 826              	.LFB181:
 456:Drivers/lvgl/src/core/lv_obj_style.c ****     lv_anim_t a;
 827              		.loc 1 456 1 is_stmt 1 view -0
 828              		.cfi_startproc
 829              		@ args = 0, pretend = 0, frame = 72
 830              		@ frame_needed = 0, uses_anonymous_args = 0
 456:Drivers/lvgl/src/core/lv_obj_style.c ****     lv_anim_t a;
 831              		.loc 1 456 1 is_stmt 0 view .LVU243
 832 0000 70B5     		push	{r4, r5, r6, lr}
 833              		.cfi_def_cfa_offset 16
 834              		.cfi_offset 4, -16
 835              		.cfi_offset 5, -12
 836              		.cfi_offset 6, -8
 837              		.cfi_offset 14, -4
 838 0002 92B0     		sub	sp, sp, #72
 839              		.cfi_def_cfa_offset 88
 840 0004 0646     		mov	r6, r0
 841 0006 0D46     		mov	r5, r1
 842 0008 1446     		mov	r4, r2
 457:Drivers/lvgl/src/core/lv_obj_style.c ****     lv_anim_init(&a);
 843              		.loc 1 457 5 is_stmt 1 view .LVU244
 458:Drivers/lvgl/src/core/lv_obj_style.c ****     lv_anim_set_var(&a, obj);
 844              		.loc 1 458 5 view .LVU245
ARM GAS  /var/folders/0z/tsy30v1j4xl4_7kw94k978ww0000gn/T//cc8A9NTU.s 			page 35


 845 000a 01A8     		add	r0, sp, #4
 846              	.LVL84:
 458:Drivers/lvgl/src/core/lv_obj_style.c ****     lv_anim_set_var(&a, obj);
 847              		.loc 1 458 5 is_stmt 0 view .LVU246
 848 000c FFF7FEFF 		bl	lv_anim_init
 849              	.LVL85:
 459:Drivers/lvgl/src/core/lv_obj_style.c ****     lv_anim_set_values(&a, 0, LV_OPA_COVER);
 850              		.loc 1 459 5 is_stmt 1 view .LVU247
 851              	.LBB89:
 852              	.LBI89:
 853              		.file 2 "Drivers/lvgl/src/core/../misc/lv_anim.h"
   1:Drivers/lvgl/src/core/../misc/lv_anim.h **** /**
   2:Drivers/lvgl/src/core/../misc/lv_anim.h ****  * @file lv_anim.h
   3:Drivers/lvgl/src/core/../misc/lv_anim.h ****  *
   4:Drivers/lvgl/src/core/../misc/lv_anim.h ****  */
   5:Drivers/lvgl/src/core/../misc/lv_anim.h **** 
   6:Drivers/lvgl/src/core/../misc/lv_anim.h **** #ifndef LV_ANIM_H
   7:Drivers/lvgl/src/core/../misc/lv_anim.h **** #define LV_ANIM_H
   8:Drivers/lvgl/src/core/../misc/lv_anim.h **** 
   9:Drivers/lvgl/src/core/../misc/lv_anim.h **** #ifdef __cplusplus
  10:Drivers/lvgl/src/core/../misc/lv_anim.h **** extern "C" {
  11:Drivers/lvgl/src/core/../misc/lv_anim.h **** #endif
  12:Drivers/lvgl/src/core/../misc/lv_anim.h **** 
  13:Drivers/lvgl/src/core/../misc/lv_anim.h **** /*********************
  14:Drivers/lvgl/src/core/../misc/lv_anim.h ****  *      INCLUDES
  15:Drivers/lvgl/src/core/../misc/lv_anim.h ****  *********************/
  16:Drivers/lvgl/src/core/../misc/lv_anim.h **** #include "../lv_conf_internal.h"
  17:Drivers/lvgl/src/core/../misc/lv_anim.h **** 
  18:Drivers/lvgl/src/core/../misc/lv_anim.h **** #include <stdint.h>
  19:Drivers/lvgl/src/core/../misc/lv_anim.h **** #include <stdbool.h>
  20:Drivers/lvgl/src/core/../misc/lv_anim.h **** #include <stddef.h>
  21:Drivers/lvgl/src/core/../misc/lv_anim.h **** 
  22:Drivers/lvgl/src/core/../misc/lv_anim.h **** /*********************
  23:Drivers/lvgl/src/core/../misc/lv_anim.h ****  *      DEFINES
  24:Drivers/lvgl/src/core/../misc/lv_anim.h ****  *********************/
  25:Drivers/lvgl/src/core/../misc/lv_anim.h **** 
  26:Drivers/lvgl/src/core/../misc/lv_anim.h **** #define LV_ANIM_REPEAT_INFINITE      0xFFFF
  27:Drivers/lvgl/src/core/../misc/lv_anim.h **** #define LV_ANIM_PLAYTIME_INFINITE    0xFFFFFFFF
  28:Drivers/lvgl/src/core/../misc/lv_anim.h **** 
  29:Drivers/lvgl/src/core/../misc/lv_anim.h **** LV_EXPORT_CONST_INT(LV_ANIM_REPEAT_INFINITE);
  30:Drivers/lvgl/src/core/../misc/lv_anim.h **** LV_EXPORT_CONST_INT(LV_ANIM_PLAYTIME_INFINITE);
  31:Drivers/lvgl/src/core/../misc/lv_anim.h **** 
  32:Drivers/lvgl/src/core/../misc/lv_anim.h **** /**********************
  33:Drivers/lvgl/src/core/../misc/lv_anim.h ****  *      TYPEDEFS
  34:Drivers/lvgl/src/core/../misc/lv_anim.h ****  **********************/
  35:Drivers/lvgl/src/core/../misc/lv_anim.h **** 
  36:Drivers/lvgl/src/core/../misc/lv_anim.h **** /** Can be used to indicate if animations are enabled or disabled in a case*/
  37:Drivers/lvgl/src/core/../misc/lv_anim.h **** typedef enum {
  38:Drivers/lvgl/src/core/../misc/lv_anim.h ****     LV_ANIM_OFF,
  39:Drivers/lvgl/src/core/../misc/lv_anim.h ****     LV_ANIM_ON,
  40:Drivers/lvgl/src/core/../misc/lv_anim.h **** } lv_anim_enable_t;
  41:Drivers/lvgl/src/core/../misc/lv_anim.h **** 
  42:Drivers/lvgl/src/core/../misc/lv_anim.h **** struct _lv_anim_t;
  43:Drivers/lvgl/src/core/../misc/lv_anim.h **** struct _lv_timer_t;
  44:Drivers/lvgl/src/core/../misc/lv_anim.h **** 
  45:Drivers/lvgl/src/core/../misc/lv_anim.h **** /** Get the current value during an animation*/
  46:Drivers/lvgl/src/core/../misc/lv_anim.h **** typedef int32_t (*lv_anim_path_cb_t)(const struct _lv_anim_t *);
ARM GAS  /var/folders/0z/tsy30v1j4xl4_7kw94k978ww0000gn/T//cc8A9NTU.s 			page 36


  47:Drivers/lvgl/src/core/../misc/lv_anim.h **** 
  48:Drivers/lvgl/src/core/../misc/lv_anim.h **** /** Generic prototype of "animator" functions.
  49:Drivers/lvgl/src/core/../misc/lv_anim.h ****  * First parameter is the variable to animate.
  50:Drivers/lvgl/src/core/../misc/lv_anim.h ****  * Second parameter is the value to set.
  51:Drivers/lvgl/src/core/../misc/lv_anim.h ****  * Compatible with `lv_xxx_set_yyy(obj, value)` functions
  52:Drivers/lvgl/src/core/../misc/lv_anim.h ****  * The `x` in `_xcb_t` means it's not a fully generic prototype because
  53:Drivers/lvgl/src/core/../misc/lv_anim.h ****  * it doesn't receive `lv_anim_t *` as its first argument*/
  54:Drivers/lvgl/src/core/../misc/lv_anim.h **** typedef void (*lv_anim_exec_xcb_t)(void *, int32_t);
  55:Drivers/lvgl/src/core/../misc/lv_anim.h **** 
  56:Drivers/lvgl/src/core/../misc/lv_anim.h **** /** Same as `lv_anim_exec_xcb_t` but receives `lv_anim_t *` as the first parameter.
  57:Drivers/lvgl/src/core/../misc/lv_anim.h ****  * It's more consistent but less convenient. Might be used by binding generator functions.*/
  58:Drivers/lvgl/src/core/../misc/lv_anim.h **** typedef void (*lv_anim_custom_exec_cb_t)(struct _lv_anim_t *, int32_t);
  59:Drivers/lvgl/src/core/../misc/lv_anim.h **** 
  60:Drivers/lvgl/src/core/../misc/lv_anim.h **** /** Callback to call when the animation is ready*/
  61:Drivers/lvgl/src/core/../misc/lv_anim.h **** typedef void (*lv_anim_ready_cb_t)(struct _lv_anim_t *);
  62:Drivers/lvgl/src/core/../misc/lv_anim.h **** 
  63:Drivers/lvgl/src/core/../misc/lv_anim.h **** /** Callback to call when the animation really stars (considering `delay`)*/
  64:Drivers/lvgl/src/core/../misc/lv_anim.h **** typedef void (*lv_anim_start_cb_t)(struct _lv_anim_t *);
  65:Drivers/lvgl/src/core/../misc/lv_anim.h **** 
  66:Drivers/lvgl/src/core/../misc/lv_anim.h **** /** Callback used when the animation values are relative to get the current value*/
  67:Drivers/lvgl/src/core/../misc/lv_anim.h **** typedef int32_t (*lv_anim_get_value_cb_t)(struct _lv_anim_t *);
  68:Drivers/lvgl/src/core/../misc/lv_anim.h **** 
  69:Drivers/lvgl/src/core/../misc/lv_anim.h **** /** Callback used when the animation is deleted*/
  70:Drivers/lvgl/src/core/../misc/lv_anim.h **** typedef void (*lv_anim_deleted_cb_t)(struct _lv_anim_t *);
  71:Drivers/lvgl/src/core/../misc/lv_anim.h **** 
  72:Drivers/lvgl/src/core/../misc/lv_anim.h **** /** Describes an animation*/
  73:Drivers/lvgl/src/core/../misc/lv_anim.h **** typedef struct _lv_anim_t {
  74:Drivers/lvgl/src/core/../misc/lv_anim.h ****     void * var;                          /**<Variable to animate*/
  75:Drivers/lvgl/src/core/../misc/lv_anim.h ****     lv_anim_exec_xcb_t exec_cb;          /**< Function to execute to animate*/
  76:Drivers/lvgl/src/core/../misc/lv_anim.h ****     lv_anim_start_cb_t start_cb;         /**< Call it when the animation is starts (considering `de
  77:Drivers/lvgl/src/core/../misc/lv_anim.h ****     lv_anim_ready_cb_t ready_cb;         /**< Call it when the animation is ready*/
  78:Drivers/lvgl/src/core/../misc/lv_anim.h ****     lv_anim_deleted_cb_t deleted_cb;     /**< Call it when the animation is deleted*/
  79:Drivers/lvgl/src/core/../misc/lv_anim.h ****     lv_anim_get_value_cb_t get_value_cb; /**< Get the current value in relative mode*/
  80:Drivers/lvgl/src/core/../misc/lv_anim.h **** #if LV_USE_USER_DATA
  81:Drivers/lvgl/src/core/../misc/lv_anim.h ****     void * user_data; /**< Custom user data*/
  82:Drivers/lvgl/src/core/../misc/lv_anim.h **** #endif
  83:Drivers/lvgl/src/core/../misc/lv_anim.h ****     lv_anim_path_cb_t path_cb;         /**< Describe the path (curve) of animations*/
  84:Drivers/lvgl/src/core/../misc/lv_anim.h ****     int32_t start_value;               /**< Start value*/
  85:Drivers/lvgl/src/core/../misc/lv_anim.h ****     int32_t current_value;             /**< Current value*/
  86:Drivers/lvgl/src/core/../misc/lv_anim.h ****     int32_t end_value;                 /**< End value*/
  87:Drivers/lvgl/src/core/../misc/lv_anim.h ****     int32_t time;                /**< Animation time in ms*/
  88:Drivers/lvgl/src/core/../misc/lv_anim.h ****     int32_t act_time;            /**< Current time in animation. Set to negative to make delay.*/
  89:Drivers/lvgl/src/core/../misc/lv_anim.h ****     uint32_t playback_delay;     /**< Wait before play back*/
  90:Drivers/lvgl/src/core/../misc/lv_anim.h ****     uint32_t playback_time;      /**< Duration of playback animation*/
  91:Drivers/lvgl/src/core/../misc/lv_anim.h ****     uint32_t repeat_delay;       /**< Wait before repeat*/
  92:Drivers/lvgl/src/core/../misc/lv_anim.h ****     uint16_t repeat_cnt;         /**< Repeat count for the animation*/
  93:Drivers/lvgl/src/core/../misc/lv_anim.h ****     uint8_t early_apply  : 1;    /**< 1: Apply start value immediately even is there is `delay`*/
  94:Drivers/lvgl/src/core/../misc/lv_anim.h **** 
  95:Drivers/lvgl/src/core/../misc/lv_anim.h ****     /*Animation system use these - user shouldn't set*/
  96:Drivers/lvgl/src/core/../misc/lv_anim.h ****     uint8_t playback_now : 1; /**< Play back is in progress*/
  97:Drivers/lvgl/src/core/../misc/lv_anim.h ****     uint8_t run_round : 1;    /**< Indicates the animation has run in this round*/
  98:Drivers/lvgl/src/core/../misc/lv_anim.h ****     uint8_t start_cb_called : 1;    /**< Indicates that the `start_cb` was already called*/
  99:Drivers/lvgl/src/core/../misc/lv_anim.h **** } lv_anim_t;
 100:Drivers/lvgl/src/core/../misc/lv_anim.h **** 
 101:Drivers/lvgl/src/core/../misc/lv_anim.h **** /**********************
 102:Drivers/lvgl/src/core/../misc/lv_anim.h ****  * GLOBAL PROTOTYPES
 103:Drivers/lvgl/src/core/../misc/lv_anim.h ****  **********************/
ARM GAS  /var/folders/0z/tsy30v1j4xl4_7kw94k978ww0000gn/T//cc8A9NTU.s 			page 37


 104:Drivers/lvgl/src/core/../misc/lv_anim.h **** 
 105:Drivers/lvgl/src/core/../misc/lv_anim.h **** /**
 106:Drivers/lvgl/src/core/../misc/lv_anim.h ****  * Init. the animation module
 107:Drivers/lvgl/src/core/../misc/lv_anim.h ****  */
 108:Drivers/lvgl/src/core/../misc/lv_anim.h **** void _lv_anim_core_init(void);
 109:Drivers/lvgl/src/core/../misc/lv_anim.h **** 
 110:Drivers/lvgl/src/core/../misc/lv_anim.h **** /**
 111:Drivers/lvgl/src/core/../misc/lv_anim.h ****  * Initialize an animation variable.
 112:Drivers/lvgl/src/core/../misc/lv_anim.h ****  * E.g.:
 113:Drivers/lvgl/src/core/../misc/lv_anim.h ****  * lv_anim_t a;
 114:Drivers/lvgl/src/core/../misc/lv_anim.h ****  * lv_anim_init(&a);
 115:Drivers/lvgl/src/core/../misc/lv_anim.h ****  * lv_anim_set_...(&a);
 116:Drivers/lvgl/src/core/../misc/lv_anim.h ****  * lv_anim_start(&a);
 117:Drivers/lvgl/src/core/../misc/lv_anim.h ****  * @param a     pointer to an `lv_anim_t` variable to initialize
 118:Drivers/lvgl/src/core/../misc/lv_anim.h ****  */
 119:Drivers/lvgl/src/core/../misc/lv_anim.h **** void lv_anim_init(lv_anim_t * a);
 120:Drivers/lvgl/src/core/../misc/lv_anim.h **** 
 121:Drivers/lvgl/src/core/../misc/lv_anim.h **** /**
 122:Drivers/lvgl/src/core/../misc/lv_anim.h ****  * Set a variable to animate
 123:Drivers/lvgl/src/core/../misc/lv_anim.h ****  * @param a     pointer to an initialized `lv_anim_t` variable
 124:Drivers/lvgl/src/core/../misc/lv_anim.h ****  * @param var   pointer to a variable to animate
 125:Drivers/lvgl/src/core/../misc/lv_anim.h ****  */
 126:Drivers/lvgl/src/core/../misc/lv_anim.h **** static inline void lv_anim_set_var(lv_anim_t * a, void * var)
 854              		.loc 2 126 20 view .LVU248
 855              	.LBB90:
 127:Drivers/lvgl/src/core/../misc/lv_anim.h **** {
 128:Drivers/lvgl/src/core/../misc/lv_anim.h ****     a->var = var;
 856              		.loc 2 128 5 view .LVU249
 857              		.loc 2 128 12 is_stmt 0 view .LVU250
 858 0010 0196     		str	r6, [sp, #4]
 859              	.LVL86:
 860              		.loc 2 128 12 view .LVU251
 861              	.LBE90:
 862              	.LBE89:
 460:Drivers/lvgl/src/core/lv_obj_style.c ****     lv_anim_set_exec_cb(&a, fade_anim_cb);
 863              		.loc 1 460 5 is_stmt 1 view .LVU252
 864              	.LBB91:
 865              	.LBI91:
 129:Drivers/lvgl/src/core/../misc/lv_anim.h **** }
 130:Drivers/lvgl/src/core/../misc/lv_anim.h **** 
 131:Drivers/lvgl/src/core/../misc/lv_anim.h **** /**
 132:Drivers/lvgl/src/core/../misc/lv_anim.h ****  * Set a function to animate `var`
 133:Drivers/lvgl/src/core/../misc/lv_anim.h ****  * @param a         pointer to an initialized `lv_anim_t` variable
 134:Drivers/lvgl/src/core/../misc/lv_anim.h ****  * @param exec_cb   a function to execute during animation
 135:Drivers/lvgl/src/core/../misc/lv_anim.h ****  *                  LVGL's built-in functions can be used.
 136:Drivers/lvgl/src/core/../misc/lv_anim.h ****  *                  E.g. lv_obj_set_x
 137:Drivers/lvgl/src/core/../misc/lv_anim.h ****  */
 138:Drivers/lvgl/src/core/../misc/lv_anim.h **** static inline void lv_anim_set_exec_cb(lv_anim_t * a, lv_anim_exec_xcb_t exec_cb)
 139:Drivers/lvgl/src/core/../misc/lv_anim.h **** {
 140:Drivers/lvgl/src/core/../misc/lv_anim.h ****     a->exec_cb = exec_cb;
 141:Drivers/lvgl/src/core/../misc/lv_anim.h **** }
 142:Drivers/lvgl/src/core/../misc/lv_anim.h **** 
 143:Drivers/lvgl/src/core/../misc/lv_anim.h **** /**
 144:Drivers/lvgl/src/core/../misc/lv_anim.h ****  * Set the duration of an animation
 145:Drivers/lvgl/src/core/../misc/lv_anim.h ****  * @param a         pointer to an initialized `lv_anim_t` variable
 146:Drivers/lvgl/src/core/../misc/lv_anim.h ****  * @param duration  duration of the animation in milliseconds
 147:Drivers/lvgl/src/core/../misc/lv_anim.h ****  */
ARM GAS  /var/folders/0z/tsy30v1j4xl4_7kw94k978ww0000gn/T//cc8A9NTU.s 			page 38


 148:Drivers/lvgl/src/core/../misc/lv_anim.h **** static inline void lv_anim_set_time(lv_anim_t * a, uint32_t duration)
 149:Drivers/lvgl/src/core/../misc/lv_anim.h **** {
 150:Drivers/lvgl/src/core/../misc/lv_anim.h ****     a->time = duration;
 151:Drivers/lvgl/src/core/../misc/lv_anim.h **** }
 152:Drivers/lvgl/src/core/../misc/lv_anim.h **** 
 153:Drivers/lvgl/src/core/../misc/lv_anim.h **** /**
 154:Drivers/lvgl/src/core/../misc/lv_anim.h ****  * Set a delay before starting the animation
 155:Drivers/lvgl/src/core/../misc/lv_anim.h ****  * @param a         pointer to an initialized `lv_anim_t` variable
 156:Drivers/lvgl/src/core/../misc/lv_anim.h ****  * @param delay     delay before the animation in milliseconds
 157:Drivers/lvgl/src/core/../misc/lv_anim.h ****  */
 158:Drivers/lvgl/src/core/../misc/lv_anim.h **** static inline void lv_anim_set_delay(lv_anim_t * a, uint32_t delay)
 159:Drivers/lvgl/src/core/../misc/lv_anim.h **** {
 160:Drivers/lvgl/src/core/../misc/lv_anim.h ****     a->act_time = -(int32_t)(delay);
 161:Drivers/lvgl/src/core/../misc/lv_anim.h **** }
 162:Drivers/lvgl/src/core/../misc/lv_anim.h **** 
 163:Drivers/lvgl/src/core/../misc/lv_anim.h **** /**
 164:Drivers/lvgl/src/core/../misc/lv_anim.h ****  * Set the start and end values of an animation
 165:Drivers/lvgl/src/core/../misc/lv_anim.h ****  * @param a         pointer to an initialized `lv_anim_t` variable
 166:Drivers/lvgl/src/core/../misc/lv_anim.h ****  * @param start     the start value
 167:Drivers/lvgl/src/core/../misc/lv_anim.h ****  * @param end       the end value
 168:Drivers/lvgl/src/core/../misc/lv_anim.h ****  */
 169:Drivers/lvgl/src/core/../misc/lv_anim.h **** static inline void lv_anim_set_values(lv_anim_t * a, int32_t start, int32_t end)
 866              		.loc 2 169 20 view .LVU253
 867              	.LBB92:
 170:Drivers/lvgl/src/core/../misc/lv_anim.h **** {
 171:Drivers/lvgl/src/core/../misc/lv_anim.h ****     a->start_value = start;
 868              		.loc 2 171 5 view .LVU254
 869              		.loc 2 171 20 is_stmt 0 view .LVU255
 870 0012 0023     		movs	r3, #0
 871 0014 0993     		str	r3, [sp, #36]
 172:Drivers/lvgl/src/core/../misc/lv_anim.h ****     a->current_value = start;
 872              		.loc 2 172 5 is_stmt 1 view .LVU256
 873              		.loc 2 172 22 is_stmt 0 view .LVU257
 874 0016 0A93     		str	r3, [sp, #40]
 173:Drivers/lvgl/src/core/../misc/lv_anim.h ****     a->end_value = end;
 875              		.loc 2 173 5 is_stmt 1 view .LVU258
 876              		.loc 2 173 18 is_stmt 0 view .LVU259
 877 0018 FF23     		movs	r3, #255
 878 001a 0B93     		str	r3, [sp, #44]
 879              	.LVL87:
 880              		.loc 2 173 18 view .LVU260
 881              	.LBE92:
 882              	.LBE91:
 461:Drivers/lvgl/src/core/lv_obj_style.c ****     lv_anim_set_ready_cb(&a, fade_in_anim_ready);
 883              		.loc 1 461 5 is_stmt 1 view .LVU261
 884              	.LBB93:
 885              	.LBI93:
 138:Drivers/lvgl/src/core/../misc/lv_anim.h **** {
 886              		.loc 2 138 20 view .LVU262
 887              	.LBB94:
 140:Drivers/lvgl/src/core/../misc/lv_anim.h **** }
 888              		.loc 2 140 5 view .LVU263
 140:Drivers/lvgl/src/core/../misc/lv_anim.h **** }
 889              		.loc 2 140 16 is_stmt 0 view .LVU264
 890 001c 054B     		ldr	r3, .L64
 891 001e 0293     		str	r3, [sp, #8]
 892              	.LVL88:
ARM GAS  /var/folders/0z/tsy30v1j4xl4_7kw94k978ww0000gn/T//cc8A9NTU.s 			page 39


 140:Drivers/lvgl/src/core/../misc/lv_anim.h **** }
 893              		.loc 2 140 16 view .LVU265
 894              	.LBE94:
 895              	.LBE93:
 462:Drivers/lvgl/src/core/lv_obj_style.c ****     lv_anim_set_time(&a, time);
 896              		.loc 1 462 5 is_stmt 1 view .LVU266
 897              	.LBB95:
 898              	.LBI95:
 174:Drivers/lvgl/src/core/../misc/lv_anim.h **** }
 175:Drivers/lvgl/src/core/../misc/lv_anim.h **** 
 176:Drivers/lvgl/src/core/../misc/lv_anim.h **** /**
 177:Drivers/lvgl/src/core/../misc/lv_anim.h ****  * Similar to `lv_anim_set_exec_cb` but `lv_anim_custom_exec_cb_t` receives
 178:Drivers/lvgl/src/core/../misc/lv_anim.h ****  * `lv_anim_t * ` as its first parameter instead of `void *`.
 179:Drivers/lvgl/src/core/../misc/lv_anim.h ****  * This function might be used when LVGL is bound to other languages because
 180:Drivers/lvgl/src/core/../misc/lv_anim.h ****  * it's more consistent to have `lv_anim_t *` as first parameter.
 181:Drivers/lvgl/src/core/../misc/lv_anim.h ****  * The variable to animate can be stored in the animation's `user_data`
 182:Drivers/lvgl/src/core/../misc/lv_anim.h ****  * @param a         pointer to an initialized `lv_anim_t` variable
 183:Drivers/lvgl/src/core/../misc/lv_anim.h ****  * @param exec_cb   a function to execute.
 184:Drivers/lvgl/src/core/../misc/lv_anim.h ****  */
 185:Drivers/lvgl/src/core/../misc/lv_anim.h **** static inline void lv_anim_set_custom_exec_cb(lv_anim_t * a, lv_anim_custom_exec_cb_t exec_cb)
 186:Drivers/lvgl/src/core/../misc/lv_anim.h **** {
 187:Drivers/lvgl/src/core/../misc/lv_anim.h ****     a->var     = a;
 188:Drivers/lvgl/src/core/../misc/lv_anim.h ****     a->exec_cb = (lv_anim_exec_xcb_t)exec_cb;
 189:Drivers/lvgl/src/core/../misc/lv_anim.h **** }
 190:Drivers/lvgl/src/core/../misc/lv_anim.h **** 
 191:Drivers/lvgl/src/core/../misc/lv_anim.h **** /**
 192:Drivers/lvgl/src/core/../misc/lv_anim.h ****  * Set the path (curve) of the animation.
 193:Drivers/lvgl/src/core/../misc/lv_anim.h ****  * @param a         pointer to an initialized `lv_anim_t` variable
 194:Drivers/lvgl/src/core/../misc/lv_anim.h ****  * @param path_cb a function to set the current value of the animation.
 195:Drivers/lvgl/src/core/../misc/lv_anim.h ****  */
 196:Drivers/lvgl/src/core/../misc/lv_anim.h **** static inline void lv_anim_set_path_cb(lv_anim_t * a, lv_anim_path_cb_t path_cb)
 197:Drivers/lvgl/src/core/../misc/lv_anim.h **** {
 198:Drivers/lvgl/src/core/../misc/lv_anim.h ****     a->path_cb = path_cb;
 199:Drivers/lvgl/src/core/../misc/lv_anim.h **** }
 200:Drivers/lvgl/src/core/../misc/lv_anim.h **** 
 201:Drivers/lvgl/src/core/../misc/lv_anim.h **** /**
 202:Drivers/lvgl/src/core/../misc/lv_anim.h ****  * Set a function call when the animation really starts (considering `delay`)
 203:Drivers/lvgl/src/core/../misc/lv_anim.h ****  * @param a         pointer to an initialized `lv_anim_t` variable
 204:Drivers/lvgl/src/core/../misc/lv_anim.h ****  * @param start_cb  a function call when the animation starts
 205:Drivers/lvgl/src/core/../misc/lv_anim.h ****  */
 206:Drivers/lvgl/src/core/../misc/lv_anim.h **** static inline void lv_anim_set_start_cb(lv_anim_t * a, lv_anim_start_cb_t start_cb)
 207:Drivers/lvgl/src/core/../misc/lv_anim.h **** {
 208:Drivers/lvgl/src/core/../misc/lv_anim.h ****     a->start_cb = start_cb;
 209:Drivers/lvgl/src/core/../misc/lv_anim.h **** }
 210:Drivers/lvgl/src/core/../misc/lv_anim.h **** 
 211:Drivers/lvgl/src/core/../misc/lv_anim.h **** /**
 212:Drivers/lvgl/src/core/../misc/lv_anim.h ****  * Set a function to use the current value of the variable and make start and end value
 213:Drivers/lvgl/src/core/../misc/lv_anim.h ****  * relative to the returned current value.
 214:Drivers/lvgl/src/core/../misc/lv_anim.h ****  * @param a             pointer to an initialized `lv_anim_t` variable
 215:Drivers/lvgl/src/core/../misc/lv_anim.h ****  * @param get_value_cb  a function call when the animation starts
 216:Drivers/lvgl/src/core/../misc/lv_anim.h ****  */
 217:Drivers/lvgl/src/core/../misc/lv_anim.h **** static inline void lv_anim_set_get_value_cb(lv_anim_t * a, lv_anim_get_value_cb_t get_value_cb)
 218:Drivers/lvgl/src/core/../misc/lv_anim.h **** {
 219:Drivers/lvgl/src/core/../misc/lv_anim.h ****     a->get_value_cb = get_value_cb;
 220:Drivers/lvgl/src/core/../misc/lv_anim.h **** }
 221:Drivers/lvgl/src/core/../misc/lv_anim.h **** 
 222:Drivers/lvgl/src/core/../misc/lv_anim.h **** /**
ARM GAS  /var/folders/0z/tsy30v1j4xl4_7kw94k978ww0000gn/T//cc8A9NTU.s 			page 40


 223:Drivers/lvgl/src/core/../misc/lv_anim.h ****  * Set a function call when the animation is ready
 224:Drivers/lvgl/src/core/../misc/lv_anim.h ****  * @param a         pointer to an initialized `lv_anim_t` variable
 225:Drivers/lvgl/src/core/../misc/lv_anim.h ****  * @param ready_cb  a function call when the animation is ready
 226:Drivers/lvgl/src/core/../misc/lv_anim.h ****  */
 227:Drivers/lvgl/src/core/../misc/lv_anim.h **** static inline void lv_anim_set_ready_cb(lv_anim_t * a, lv_anim_ready_cb_t ready_cb)
 899              		.loc 2 227 20 view .LVU267
 900              	.LBB96:
 228:Drivers/lvgl/src/core/../misc/lv_anim.h **** {
 229:Drivers/lvgl/src/core/../misc/lv_anim.h ****     a->ready_cb = ready_cb;
 901              		.loc 2 229 5 view .LVU268
 902              		.loc 2 229 17 is_stmt 0 view .LVU269
 903 0020 054B     		ldr	r3, .L64+4
 904 0022 0493     		str	r3, [sp, #16]
 905              	.LVL89:
 906              		.loc 2 229 17 view .LVU270
 907              	.LBE96:
 908              	.LBE95:
 463:Drivers/lvgl/src/core/lv_obj_style.c ****     lv_anim_set_delay(&a, delay);
 909              		.loc 1 463 5 is_stmt 1 view .LVU271
 910              	.LBB97:
 911              	.LBI97:
 148:Drivers/lvgl/src/core/../misc/lv_anim.h **** {
 912              		.loc 2 148 20 view .LVU272
 913              	.LBB98:
 150:Drivers/lvgl/src/core/../misc/lv_anim.h **** }
 914              		.loc 2 150 5 view .LVU273
 150:Drivers/lvgl/src/core/../misc/lv_anim.h **** }
 915              		.loc 2 150 13 is_stmt 0 view .LVU274
 916 0024 0C95     		str	r5, [sp, #48]
 917              	.LVL90:
 150:Drivers/lvgl/src/core/../misc/lv_anim.h **** }
 918              		.loc 2 150 13 view .LVU275
 919              	.LBE98:
 920              	.LBE97:
 464:Drivers/lvgl/src/core/lv_obj_style.c ****     lv_anim_start(&a);
 921              		.loc 1 464 5 is_stmt 1 view .LVU276
 922              	.LBB99:
 923              	.LBI99:
 158:Drivers/lvgl/src/core/../misc/lv_anim.h **** {
 924              		.loc 2 158 20 view .LVU277
 925              	.LBB100:
 160:Drivers/lvgl/src/core/../misc/lv_anim.h **** }
 926              		.loc 2 160 5 view .LVU278
 160:Drivers/lvgl/src/core/../misc/lv_anim.h **** }
 927              		.loc 2 160 19 is_stmt 0 view .LVU279
 928 0026 6442     		rsbs	r4, r4, #0
 929              	.LVL91:
 160:Drivers/lvgl/src/core/../misc/lv_anim.h **** }
 930              		.loc 2 160 17 view .LVU280
 931 0028 0D94     		str	r4, [sp, #52]
 932              	.LVL92:
 160:Drivers/lvgl/src/core/../misc/lv_anim.h **** }
 933              		.loc 2 160 17 view .LVU281
 934              	.LBE100:
 935              	.LBE99:
 465:Drivers/lvgl/src/core/lv_obj_style.c **** }
 936              		.loc 1 465 5 is_stmt 1 view .LVU282
ARM GAS  /var/folders/0z/tsy30v1j4xl4_7kw94k978ww0000gn/T//cc8A9NTU.s 			page 41


 937 002a 01A8     		add	r0, sp, #4
 938 002c FFF7FEFF 		bl	lv_anim_start
 939              	.LVL93:
 466:Drivers/lvgl/src/core/lv_obj_style.c **** 
 940              		.loc 1 466 1 is_stmt 0 view .LVU283
 941 0030 12B0     		add	sp, sp, #72
 942              		.cfi_def_cfa_offset 16
 943              		@ sp needed
 944 0032 70BD     		pop	{r4, r5, r6, pc}
 945              	.LVL94:
 946              	.L65:
 466:Drivers/lvgl/src/core/lv_obj_style.c **** 
 947              		.loc 1 466 1 view .LVU284
 948              		.align	2
 949              	.L64:
 950 0034 00000000 		.word	fade_anim_cb
 951 0038 00000000 		.word	fade_in_anim_ready
 952              		.cfi_endproc
 953              	.LFE181:
 955              		.section	.text.lv_obj_style_get_selector_state,"ax",%progbits
 956              		.align	1
 957              		.global	lv_obj_style_get_selector_state
 958              		.syntax unified
 959              		.thumb
 960              		.thumb_func
 962              	lv_obj_style_get_selector_state:
 963              	.LVL95:
 964              	.LFB183:
 481:Drivers/lvgl/src/core/lv_obj_style.c ****     return selector & 0xFFFF;
 965              		.loc 1 481 1 is_stmt 1 view -0
 966              		.cfi_startproc
 967              		@ args = 0, pretend = 0, frame = 0
 968              		@ frame_needed = 0, uses_anonymous_args = 0
 969              		@ link register save eliminated.
 482:Drivers/lvgl/src/core/lv_obj_style.c **** }
 970              		.loc 1 482 5 view .LVU286
 483:Drivers/lvgl/src/core/lv_obj_style.c **** 
 971              		.loc 1 483 1 is_stmt 0 view .LVU287
 972 0000 80B2     		uxth	r0, r0
 973              	.LVL96:
 483:Drivers/lvgl/src/core/lv_obj_style.c **** 
 974              		.loc 1 483 1 view .LVU288
 975 0002 7047     		bx	lr
 976              		.cfi_endproc
 977              	.LFE183:
 979              		.section	.text._lv_obj_style_state_compare,"ax",%progbits
 980              		.align	1
 981              		.global	_lv_obj_style_state_compare
 982              		.syntax unified
 983              		.thumb
 984              		.thumb_func
 986              	_lv_obj_style_state_compare:
 987              	.LVL97:
 988              	.LFB180:
 394:Drivers/lvgl/src/core/lv_obj_style.c ****     _lv_style_state_cmp_t res = _LV_STYLE_STATE_CMP_SAME;
 989              		.loc 1 394 1 is_stmt 1 view -0
 990              		.cfi_startproc
ARM GAS  /var/folders/0z/tsy30v1j4xl4_7kw94k978ww0000gn/T//cc8A9NTU.s 			page 42


 991              		@ args = 0, pretend = 0, frame = 8
 992              		@ frame_needed = 0, uses_anonymous_args = 0
 394:Drivers/lvgl/src/core/lv_obj_style.c ****     _lv_style_state_cmp_t res = _LV_STYLE_STATE_CMP_SAME;
 993              		.loc 1 394 1 is_stmt 0 view .LVU290
 994 0000 2DE9F047 		push	{r4, r5, r6, r7, r8, r9, r10, lr}
 995              		.cfi_def_cfa_offset 32
 996              		.cfi_offset 4, -32
 997              		.cfi_offset 5, -28
 998              		.cfi_offset 6, -24
 999              		.cfi_offset 7, -20
 1000              		.cfi_offset 8, -16
 1001              		.cfi_offset 9, -12
 1002              		.cfi_offset 10, -8
 1003              		.cfi_offset 14, -4
 1004 0004 82B0     		sub	sp, sp, #8
 1005              		.cfi_def_cfa_offset 40
 1006 0006 0646     		mov	r6, r0
 1007 0008 8846     		mov	r8, r1
 1008 000a 1746     		mov	r7, r2
 395:Drivers/lvgl/src/core/lv_obj_style.c **** 
 1009              		.loc 1 395 5 is_stmt 1 view .LVU291
 1010              	.LVL98:
 398:Drivers/lvgl/src/core/lv_obj_style.c ****     for(i = 0; i < obj->style_cnt; i++) {
 1011              		.loc 1 398 5 view .LVU292
 399:Drivers/lvgl/src/core/lv_obj_style.c ****         if(obj->styles[i].is_trans) continue;
 1012              		.loc 1 399 5 view .LVU293
 399:Drivers/lvgl/src/core/lv_obj_style.c ****         if(obj->styles[i].is_trans) continue;
 1013              		.loc 1 399 11 is_stmt 0 view .LVU294
 1014 000c 0025     		movs	r5, #0
 395:Drivers/lvgl/src/core/lv_obj_style.c **** 
 1015              		.loc 1 395 27 view .LVU295
 1016 000e A946     		mov	r9, r5
 399:Drivers/lvgl/src/core/lv_obj_style.c ****         if(obj->styles[i].is_trans) continue;
 1017              		.loc 1 399 5 view .LVU296
 1018 0010 10E0     		b	.L68
 1019              	.LVL99:
 1020              	.L70:
 1021              	.LBB101:
 1022              	.LBB102:
 431:Drivers/lvgl/src/core/lv_obj_style.c ****             }
 1023              		.loc 1 431 17 is_stmt 1 view .LVU297
 431:Drivers/lvgl/src/core/lv_obj_style.c ****             }
 1024              		.loc 1 431 24 is_stmt 0 view .LVU298
 1025 0012 4FF00309 		mov	r9, #3
 1026              	.LVL100:
 1027              	.L73:
 431:Drivers/lvgl/src/core/lv_obj_style.c ****             }
 1028              		.loc 1 431 24 view .LVU299
 1029              	.LBE102:
 1030              	.LBE101:
 453:Drivers/lvgl/src/core/lv_obj_style.c **** 
 1031              		.loc 1 453 1 view .LVU300
 1032 0016 4846     		mov	r0, r9
 1033 0018 02B0     		add	sp, sp, #8
 1034              		.cfi_remember_state
 1035              		.cfi_def_cfa_offset 32
 1036              		@ sp needed
ARM GAS  /var/folders/0z/tsy30v1j4xl4_7kw94k978ww0000gn/T//cc8A9NTU.s 			page 43


 1037 001a BDE8F087 		pop	{r4, r5, r6, r7, r8, r9, r10, pc}
 1038              	.LVL101:
 1039              	.L92:
 1040              		.cfi_restore_state
 1041              	.LBB105:
 1042              	.LBB103:
 436:Drivers/lvgl/src/core/lv_obj_style.c ****             else if(lv_style_get_prop(style, LV_STYLE_TRANSFORM_ANGLE, &v)) res = _LV_STYLE_STATE_C
 1043              		.loc 1 436 18 is_stmt 1 view .LVU301
 436:Drivers/lvgl/src/core/lv_obj_style.c ****             else if(lv_style_get_prop(style, LV_STYLE_TRANSFORM_ANGLE, &v)) res = _LV_STYLE_STATE_C
 1044              		.loc 1 436 21 is_stmt 0 view .LVU302
 1045 001e 01AA     		add	r2, sp, #4
 1046 0020 6A21     		movs	r1, #106
 1047 0022 2046     		mov	r0, r4
 1048 0024 FFF7FEFF 		bl	lv_style_get_prop
 1049              	.LVL102:
 436:Drivers/lvgl/src/core/lv_obj_style.c ****             else if(lv_style_get_prop(style, LV_STYLE_TRANSFORM_ANGLE, &v)) res = _LV_STYLE_STATE_C
 1050              		.loc 1 436 20 view .LVU303
 1051 0028 0028     		cmp	r0, #0
 1052 002a 00F0B380 		beq	.L91
 436:Drivers/lvgl/src/core/lv_obj_style.c ****             else if(lv_style_get_prop(style, LV_STYLE_TRANSFORM_ANGLE, &v)) res = _LV_STYLE_STATE_C
 1053              		.loc 1 436 82 view .LVU304
 1054 002e 4FF00209 		mov	r9, #2
 1055              	.LVL103:
 1056              	.L69:
 436:Drivers/lvgl/src/core/lv_obj_style.c ****             else if(lv_style_get_prop(style, LV_STYLE_TRANSFORM_ANGLE, &v)) res = _LV_STYLE_STATE_C
 1057              		.loc 1 436 82 view .LVU305
 1058              	.LBE103:
 1059              	.LBE105:
 399:Drivers/lvgl/src/core/lv_obj_style.c ****         if(obj->styles[i].is_trans) continue;
 1060              		.loc 1 399 37 is_stmt 1 discriminator 2 view .LVU306
 1061 0032 0135     		adds	r5, r5, #1
 1062              	.LVL104:
 1063              	.L68:
 399:Drivers/lvgl/src/core/lv_obj_style.c ****         if(obj->styles[i].is_trans) continue;
 1064              		.loc 1 399 18 discriminator 1 view .LVU307
 399:Drivers/lvgl/src/core/lv_obj_style.c ****         if(obj->styles[i].is_trans) continue;
 1065              		.loc 1 399 23 is_stmt 0 discriminator 1 view .LVU308
 1066 0034 738C     		ldrh	r3, [r6, #34]
 1067 0036 C3F30513 		ubfx	r3, r3, #4, #6
 399:Drivers/lvgl/src/core/lv_obj_style.c ****         if(obj->styles[i].is_trans) continue;
 1068              		.loc 1 399 18 discriminator 1 view .LVU309
 1069 003a AB42     		cmp	r3, r5
 1070 003c EBD9     		bls	.L73
 1071              	.LBB106:
 400:Drivers/lvgl/src/core/lv_obj_style.c **** 
 1072              		.loc 1 400 9 is_stmt 1 view .LVU310
 400:Drivers/lvgl/src/core/lv_obj_style.c **** 
 1073              		.loc 1 400 15 is_stmt 0 view .LVU311
 1074 003e F468     		ldr	r4, [r6, #12]
 400:Drivers/lvgl/src/core/lv_obj_style.c **** 
 1075              		.loc 1 400 23 view .LVU312
 1076 0040 4FEAC50A 		lsl	r10, r5, #3
 1077 0044 04EBC503 		add	r3, r4, r5, lsl #3
 400:Drivers/lvgl/src/core/lv_obj_style.c **** 
 1078              		.loc 1 400 12 view .LVU313
 1079 0048 DA79     		ldrb	r2, [r3, #7]	@ zero_extendqisi2
 400:Drivers/lvgl/src/core/lv_obj_style.c **** 
ARM GAS  /var/folders/0z/tsy30v1j4xl4_7kw94k978ww0000gn/T//cc8A9NTU.s 			page 44


 1080              		.loc 1 400 11 view .LVU314
 1081 004a 12F0020F 		tst	r2, #2
 1082 004e F0D1     		bne	.L69
 402:Drivers/lvgl/src/core/lv_obj_style.c ****         /*The style is valid for a state but not the other*/
 1083              		.loc 1 402 9 is_stmt 1 view .LVU315
 402:Drivers/lvgl/src/core/lv_obj_style.c ****         /*The style is valid for a state but not the other*/
 1084              		.loc 1 402 78 is_stmt 0 view .LVU316
 1085 0050 5868     		ldr	r0, [r3, #4]
 402:Drivers/lvgl/src/core/lv_obj_style.c ****         /*The style is valid for a state but not the other*/
 1086              		.loc 1 402 32 view .LVU317
 1087 0052 20F07F40 		bic	r0, r0, #-16777216
 1088 0056 FFF7FEFF 		bl	lv_obj_style_get_selector_state
 1089              	.LVL105:
 404:Drivers/lvgl/src/core/lv_obj_style.c ****         bool valid2 = state_act & (~state2) ? false : true;
 1090              		.loc 1 404 9 is_stmt 1 view .LVU318
 404:Drivers/lvgl/src/core/lv_obj_style.c ****         bool valid2 = state_act & (~state2) ? false : true;
 1091              		.loc 1 404 14 is_stmt 0 view .LVU319
 1092 005a 30EA0803 		bics	r3, r0, r8
 1093 005e 0CBF     		ite	eq
 1094 0060 0122     		moveq	r2, #1
 1095 0062 0022     		movne	r2, #0
 1096              	.LVL106:
 405:Drivers/lvgl/src/core/lv_obj_style.c ****         if(valid1 != valid2) {
 1097              		.loc 1 405 9 is_stmt 1 view .LVU320
 405:Drivers/lvgl/src/core/lv_obj_style.c ****         if(valid1 != valid2) {
 1098              		.loc 1 405 14 is_stmt 0 view .LVU321
 1099 0064 B843     		bics	r0, r0, r7
 1100              	.LVL107:
 405:Drivers/lvgl/src/core/lv_obj_style.c ****         if(valid1 != valid2) {
 1101              		.loc 1 405 14 view .LVU322
 1102 0066 0CBF     		ite	eq
 1103 0068 0123     		moveq	r3, #1
 1104 006a 0023     		movne	r3, #0
 1105              	.LVL108:
 406:Drivers/lvgl/src/core/lv_obj_style.c ****             lv_style_t * style = obj->styles[i].style;
 1106              		.loc 1 406 9 is_stmt 1 view .LVU323
 406:Drivers/lvgl/src/core/lv_obj_style.c ****             lv_style_t * style = obj->styles[i].style;
 1107              		.loc 1 406 11 is_stmt 0 view .LVU324
 1108 006c 9A42     		cmp	r2, r3
 1109 006e E0D0     		beq	.L69
 1110              	.LBB104:
 407:Drivers/lvgl/src/core/lv_obj_style.c ****             lv_style_value_t v;
 1111              		.loc 1 407 13 is_stmt 1 view .LVU325
 407:Drivers/lvgl/src/core/lv_obj_style.c ****             lv_style_value_t v;
 1112              		.loc 1 407 26 is_stmt 0 view .LVU326
 1113 0070 54F80A40 		ldr	r4, [r4, r10]
 1114              	.LVL109:
 408:Drivers/lvgl/src/core/lv_obj_style.c ****             /*If there is layout difference on the main part, return immediately. There is no more 
 1115              		.loc 1 408 13 is_stmt 1 view .LVU327
 410:Drivers/lvgl/src/core/lv_obj_style.c ****             if(lv_style_get_prop(style, LV_STYLE_PAD_TOP, &v))layout_diff = true;
 1116              		.loc 1 410 13 view .LVU328
 411:Drivers/lvgl/src/core/lv_obj_style.c ****             else if(lv_style_get_prop(style, LV_STYLE_PAD_BOTTOM, &v)) layout_diff = true;
 1117              		.loc 1 411 13 view .LVU329
 411:Drivers/lvgl/src/core/lv_obj_style.c ****             else if(lv_style_get_prop(style, LV_STYLE_PAD_BOTTOM, &v)) layout_diff = true;
 1118              		.loc 1 411 16 is_stmt 0 view .LVU330
 1119 0074 01AA     		add	r2, sp, #4
 1120              	.LVL110:
ARM GAS  /var/folders/0z/tsy30v1j4xl4_7kw94k978ww0000gn/T//cc8A9NTU.s 			page 45


 411:Drivers/lvgl/src/core/lv_obj_style.c ****             else if(lv_style_get_prop(style, LV_STYLE_PAD_BOTTOM, &v)) layout_diff = true;
 1121              		.loc 1 411 16 view .LVU331
 1122 0076 1021     		movs	r1, #16
 1123 0078 2046     		mov	r0, r4
 1124 007a FFF7FEFF 		bl	lv_style_get_prop
 1125              	.LVL111:
 411:Drivers/lvgl/src/core/lv_obj_style.c ****             else if(lv_style_get_prop(style, LV_STYLE_PAD_BOTTOM, &v)) layout_diff = true;
 1126              		.loc 1 411 15 view .LVU332
 1127 007e 0028     		cmp	r0, #0
 1128 0080 C7D1     		bne	.L70
 412:Drivers/lvgl/src/core/lv_obj_style.c ****             else if(lv_style_get_prop(style, LV_STYLE_PAD_LEFT, &v)) layout_diff = true;
 1129              		.loc 1 412 18 is_stmt 1 view .LVU333
 412:Drivers/lvgl/src/core/lv_obj_style.c ****             else if(lv_style_get_prop(style, LV_STYLE_PAD_LEFT, &v)) layout_diff = true;
 1130              		.loc 1 412 21 is_stmt 0 view .LVU334
 1131 0082 01AA     		add	r2, sp, #4
 1132 0084 1121     		movs	r1, #17
 1133 0086 2046     		mov	r0, r4
 1134 0088 FFF7FEFF 		bl	lv_style_get_prop
 1135              	.LVL112:
 412:Drivers/lvgl/src/core/lv_obj_style.c ****             else if(lv_style_get_prop(style, LV_STYLE_PAD_LEFT, &v)) layout_diff = true;
 1136              		.loc 1 412 20 view .LVU335
 1137 008c 0028     		cmp	r0, #0
 1138 008e C0D1     		bne	.L70
 413:Drivers/lvgl/src/core/lv_obj_style.c ****             else if(lv_style_get_prop(style, LV_STYLE_PAD_RIGHT, &v)) layout_diff = true;
 1139              		.loc 1 413 18 is_stmt 1 view .LVU336
 413:Drivers/lvgl/src/core/lv_obj_style.c ****             else if(lv_style_get_prop(style, LV_STYLE_PAD_RIGHT, &v)) layout_diff = true;
 1140              		.loc 1 413 21 is_stmt 0 view .LVU337
 1141 0090 01AA     		add	r2, sp, #4
 1142 0092 1221     		movs	r1, #18
 1143 0094 2046     		mov	r0, r4
 1144 0096 FFF7FEFF 		bl	lv_style_get_prop
 1145              	.LVL113:
 413:Drivers/lvgl/src/core/lv_obj_style.c ****             else if(lv_style_get_prop(style, LV_STYLE_PAD_RIGHT, &v)) layout_diff = true;
 1146              		.loc 1 413 20 view .LVU338
 1147 009a 0028     		cmp	r0, #0
 1148 009c B9D1     		bne	.L70
 414:Drivers/lvgl/src/core/lv_obj_style.c ****             else if(lv_style_get_prop(style, LV_STYLE_PAD_COLUMN, &v)) layout_diff = true;
 1149              		.loc 1 414 18 is_stmt 1 view .LVU339
 414:Drivers/lvgl/src/core/lv_obj_style.c ****             else if(lv_style_get_prop(style, LV_STYLE_PAD_COLUMN, &v)) layout_diff = true;
 1150              		.loc 1 414 21 is_stmt 0 view .LVU340
 1151 009e 01AA     		add	r2, sp, #4
 1152 00a0 1321     		movs	r1, #19
 1153 00a2 2046     		mov	r0, r4
 1154 00a4 FFF7FEFF 		bl	lv_style_get_prop
 1155              	.LVL114:
 414:Drivers/lvgl/src/core/lv_obj_style.c ****             else if(lv_style_get_prop(style, LV_STYLE_PAD_COLUMN, &v)) layout_diff = true;
 1156              		.loc 1 414 20 view .LVU341
 1157 00a8 0028     		cmp	r0, #0
 1158 00aa B2D1     		bne	.L70
 415:Drivers/lvgl/src/core/lv_obj_style.c ****             else if(lv_style_get_prop(style, LV_STYLE_PAD_ROW, &v)) layout_diff = true;
 1159              		.loc 1 415 18 is_stmt 1 view .LVU342
 415:Drivers/lvgl/src/core/lv_obj_style.c ****             else if(lv_style_get_prop(style, LV_STYLE_PAD_ROW, &v)) layout_diff = true;
 1160              		.loc 1 415 21 is_stmt 0 view .LVU343
 1161 00ac 01AA     		add	r2, sp, #4
 1162 00ae 1521     		movs	r1, #21
 1163 00b0 2046     		mov	r0, r4
 1164 00b2 FFF7FEFF 		bl	lv_style_get_prop
ARM GAS  /var/folders/0z/tsy30v1j4xl4_7kw94k978ww0000gn/T//cc8A9NTU.s 			page 46


 1165              	.LVL115:
 415:Drivers/lvgl/src/core/lv_obj_style.c ****             else if(lv_style_get_prop(style, LV_STYLE_PAD_ROW, &v)) layout_diff = true;
 1166              		.loc 1 415 20 view .LVU344
 1167 00b6 0028     		cmp	r0, #0
 1168 00b8 ABD1     		bne	.L70
 416:Drivers/lvgl/src/core/lv_obj_style.c ****             else if(lv_style_get_prop(style, LV_STYLE_LAYOUT, &v)) layout_diff = true;
 1169              		.loc 1 416 18 is_stmt 1 view .LVU345
 416:Drivers/lvgl/src/core/lv_obj_style.c ****             else if(lv_style_get_prop(style, LV_STYLE_LAYOUT, &v)) layout_diff = true;
 1170              		.loc 1 416 21 is_stmt 0 view .LVU346
 1171 00ba 01AA     		add	r2, sp, #4
 1172 00bc 1421     		movs	r1, #20
 1173 00be 2046     		mov	r0, r4
 1174 00c0 FFF7FEFF 		bl	lv_style_get_prop
 1175              	.LVL116:
 416:Drivers/lvgl/src/core/lv_obj_style.c ****             else if(lv_style_get_prop(style, LV_STYLE_LAYOUT, &v)) layout_diff = true;
 1176              		.loc 1 416 20 view .LVU347
 1177 00c4 0028     		cmp	r0, #0
 1178 00c6 A4D1     		bne	.L70
 417:Drivers/lvgl/src/core/lv_obj_style.c ****             else if(lv_style_get_prop(style, LV_STYLE_TRANSLATE_X, &v)) layout_diff = true;
 1179              		.loc 1 417 18 is_stmt 1 view .LVU348
 417:Drivers/lvgl/src/core/lv_obj_style.c ****             else if(lv_style_get_prop(style, LV_STYLE_TRANSLATE_X, &v)) layout_diff = true;
 1180              		.loc 1 417 21 is_stmt 0 view .LVU349
 1181 00c8 01AA     		add	r2, sp, #4
 1182 00ca 0A21     		movs	r1, #10
 1183 00cc 2046     		mov	r0, r4
 1184 00ce FFF7FEFF 		bl	lv_style_get_prop
 1185              	.LVL117:
 417:Drivers/lvgl/src/core/lv_obj_style.c ****             else if(lv_style_get_prop(style, LV_STYLE_TRANSLATE_X, &v)) layout_diff = true;
 1186              		.loc 1 417 20 view .LVU350
 1187 00d2 0028     		cmp	r0, #0
 1188 00d4 9DD1     		bne	.L70
 418:Drivers/lvgl/src/core/lv_obj_style.c ****             else if(lv_style_get_prop(style, LV_STYLE_TRANSLATE_Y, &v)) layout_diff = true;
 1189              		.loc 1 418 18 is_stmt 1 view .LVU351
 418:Drivers/lvgl/src/core/lv_obj_style.c ****             else if(lv_style_get_prop(style, LV_STYLE_TRANSLATE_Y, &v)) layout_diff = true;
 1190              		.loc 1 418 21 is_stmt 0 view .LVU352
 1191 00d6 01AA     		add	r2, sp, #4
 1192 00d8 6B21     		movs	r1, #107
 1193 00da 2046     		mov	r0, r4
 1194 00dc FFF7FEFF 		bl	lv_style_get_prop
 1195              	.LVL118:
 418:Drivers/lvgl/src/core/lv_obj_style.c ****             else if(lv_style_get_prop(style, LV_STYLE_TRANSLATE_Y, &v)) layout_diff = true;
 1196              		.loc 1 418 20 view .LVU353
 1197 00e0 0028     		cmp	r0, #0
 1198 00e2 96D1     		bne	.L70
 419:Drivers/lvgl/src/core/lv_obj_style.c ****             else if(lv_style_get_prop(style, LV_STYLE_WIDTH, &v)) layout_diff = true;
 1199              		.loc 1 419 18 is_stmt 1 view .LVU354
 419:Drivers/lvgl/src/core/lv_obj_style.c ****             else if(lv_style_get_prop(style, LV_STYLE_WIDTH, &v)) layout_diff = true;
 1200              		.loc 1 419 21 is_stmt 0 view .LVU355
 1201 00e4 01AA     		add	r2, sp, #4
 1202 00e6 6C21     		movs	r1, #108
 1203 00e8 2046     		mov	r0, r4
 1204 00ea FFF7FEFF 		bl	lv_style_get_prop
 1205              	.LVL119:
 419:Drivers/lvgl/src/core/lv_obj_style.c ****             else if(lv_style_get_prop(style, LV_STYLE_WIDTH, &v)) layout_diff = true;
 1206              		.loc 1 419 20 view .LVU356
 1207 00ee 0028     		cmp	r0, #0
 1208 00f0 8FD1     		bne	.L70
ARM GAS  /var/folders/0z/tsy30v1j4xl4_7kw94k978ww0000gn/T//cc8A9NTU.s 			page 47


 420:Drivers/lvgl/src/core/lv_obj_style.c ****             else if(lv_style_get_prop(style, LV_STYLE_HEIGHT, &v)) layout_diff = true;
 1209              		.loc 1 420 18 is_stmt 1 view .LVU357
 420:Drivers/lvgl/src/core/lv_obj_style.c ****             else if(lv_style_get_prop(style, LV_STYLE_HEIGHT, &v)) layout_diff = true;
 1210              		.loc 1 420 21 is_stmt 0 view .LVU358
 1211 00f2 01AA     		add	r2, sp, #4
 1212 00f4 0121     		movs	r1, #1
 1213 00f6 2046     		mov	r0, r4
 1214 00f8 FFF7FEFF 		bl	lv_style_get_prop
 1215              	.LVL120:
 420:Drivers/lvgl/src/core/lv_obj_style.c ****             else if(lv_style_get_prop(style, LV_STYLE_HEIGHT, &v)) layout_diff = true;
 1216              		.loc 1 420 20 view .LVU359
 1217 00fc 0028     		cmp	r0, #0
 1218 00fe 88D1     		bne	.L70
 421:Drivers/lvgl/src/core/lv_obj_style.c ****             else if(lv_style_get_prop(style, LV_STYLE_MIN_WIDTH, &v)) layout_diff = true;
 1219              		.loc 1 421 18 is_stmt 1 view .LVU360
 421:Drivers/lvgl/src/core/lv_obj_style.c ****             else if(lv_style_get_prop(style, LV_STYLE_MIN_WIDTH, &v)) layout_diff = true;
 1220              		.loc 1 421 21 is_stmt 0 view .LVU361
 1221 0100 01AA     		add	r2, sp, #4
 1222 0102 0421     		movs	r1, #4
 1223 0104 2046     		mov	r0, r4
 1224 0106 FFF7FEFF 		bl	lv_style_get_prop
 1225              	.LVL121:
 421:Drivers/lvgl/src/core/lv_obj_style.c ****             else if(lv_style_get_prop(style, LV_STYLE_MIN_WIDTH, &v)) layout_diff = true;
 1226              		.loc 1 421 20 view .LVU362
 1227 010a 0028     		cmp	r0, #0
 1228 010c 81D1     		bne	.L70
 422:Drivers/lvgl/src/core/lv_obj_style.c ****             else if(lv_style_get_prop(style, LV_STYLE_MAX_WIDTH, &v)) layout_diff = true;
 1229              		.loc 1 422 18 is_stmt 1 view .LVU363
 422:Drivers/lvgl/src/core/lv_obj_style.c ****             else if(lv_style_get_prop(style, LV_STYLE_MAX_WIDTH, &v)) layout_diff = true;
 1230              		.loc 1 422 21 is_stmt 0 view .LVU364
 1231 010e 01AA     		add	r2, sp, #4
 1232 0110 0221     		movs	r1, #2
 1233 0112 2046     		mov	r0, r4
 1234 0114 FFF7FEFF 		bl	lv_style_get_prop
 1235              	.LVL122:
 422:Drivers/lvgl/src/core/lv_obj_style.c ****             else if(lv_style_get_prop(style, LV_STYLE_MAX_WIDTH, &v)) layout_diff = true;
 1236              		.loc 1 422 20 view .LVU365
 1237 0118 0028     		cmp	r0, #0
 1238 011a 7FF47AAF 		bne	.L70
 423:Drivers/lvgl/src/core/lv_obj_style.c ****             else if(lv_style_get_prop(style, LV_STYLE_MIN_HEIGHT, &v)) layout_diff = true;
 1239              		.loc 1 423 18 is_stmt 1 view .LVU366
 423:Drivers/lvgl/src/core/lv_obj_style.c ****             else if(lv_style_get_prop(style, LV_STYLE_MIN_HEIGHT, &v)) layout_diff = true;
 1240              		.loc 1 423 21 is_stmt 0 view .LVU367
 1241 011e 01AA     		add	r2, sp, #4
 1242 0120 0321     		movs	r1, #3
 1243 0122 2046     		mov	r0, r4
 1244 0124 FFF7FEFF 		bl	lv_style_get_prop
 1245              	.LVL123:
 423:Drivers/lvgl/src/core/lv_obj_style.c ****             else if(lv_style_get_prop(style, LV_STYLE_MIN_HEIGHT, &v)) layout_diff = true;
 1246              		.loc 1 423 20 view .LVU368
 1247 0128 0028     		cmp	r0, #0
 1248 012a 7FF472AF 		bne	.L70
 424:Drivers/lvgl/src/core/lv_obj_style.c ****             else if(lv_style_get_prop(style, LV_STYLE_MAX_HEIGHT, &v)) layout_diff = true;
 1249              		.loc 1 424 18 is_stmt 1 view .LVU369
 424:Drivers/lvgl/src/core/lv_obj_style.c ****             else if(lv_style_get_prop(style, LV_STYLE_MAX_HEIGHT, &v)) layout_diff = true;
 1250              		.loc 1 424 21 is_stmt 0 view .LVU370
 1251 012e 01AA     		add	r2, sp, #4
ARM GAS  /var/folders/0z/tsy30v1j4xl4_7kw94k978ww0000gn/T//cc8A9NTU.s 			page 48


 1252 0130 0521     		movs	r1, #5
 1253 0132 2046     		mov	r0, r4
 1254 0134 FFF7FEFF 		bl	lv_style_get_prop
 1255              	.LVL124:
 424:Drivers/lvgl/src/core/lv_obj_style.c ****             else if(lv_style_get_prop(style, LV_STYLE_MAX_HEIGHT, &v)) layout_diff = true;
 1256              		.loc 1 424 20 view .LVU371
 1257 0138 0028     		cmp	r0, #0
 1258 013a 7FF46AAF 		bne	.L70
 425:Drivers/lvgl/src/core/lv_obj_style.c ****             else if(lv_style_get_prop(style, LV_STYLE_BORDER_WIDTH, &v)) layout_diff = true;
 1259              		.loc 1 425 18 is_stmt 1 view .LVU372
 425:Drivers/lvgl/src/core/lv_obj_style.c ****             else if(lv_style_get_prop(style, LV_STYLE_BORDER_WIDTH, &v)) layout_diff = true;
 1260              		.loc 1 425 21 is_stmt 0 view .LVU373
 1261 013e 01AA     		add	r2, sp, #4
 1262 0140 0621     		movs	r1, #6
 1263 0142 2046     		mov	r0, r4
 1264 0144 FFF7FEFF 		bl	lv_style_get_prop
 1265              	.LVL125:
 425:Drivers/lvgl/src/core/lv_obj_style.c ****             else if(lv_style_get_prop(style, LV_STYLE_BORDER_WIDTH, &v)) layout_diff = true;
 1266              		.loc 1 425 20 view .LVU374
 1267 0148 0028     		cmp	r0, #0
 1268 014a 7FF462AF 		bne	.L70
 426:Drivers/lvgl/src/core/lv_obj_style.c ****             else if(lv_style_get_prop(style, LV_STYLE_TRANSFORM_ANGLE, &v)) layout_diff = true;
 1269              		.loc 1 426 18 is_stmt 1 view .LVU375
 426:Drivers/lvgl/src/core/lv_obj_style.c ****             else if(lv_style_get_prop(style, LV_STYLE_TRANSFORM_ANGLE, &v)) layout_diff = true;
 1270              		.loc 1 426 21 is_stmt 0 view .LVU376
 1271 014e 01AA     		add	r2, sp, #4
 1272 0150 3221     		movs	r1, #50
 1273 0152 2046     		mov	r0, r4
 1274 0154 FFF7FEFF 		bl	lv_style_get_prop
 1275              	.LVL126:
 426:Drivers/lvgl/src/core/lv_obj_style.c ****             else if(lv_style_get_prop(style, LV_STYLE_TRANSFORM_ANGLE, &v)) layout_diff = true;
 1276              		.loc 1 426 20 view .LVU377
 1277 0158 0028     		cmp	r0, #0
 1278 015a 7FF45AAF 		bne	.L70
 427:Drivers/lvgl/src/core/lv_obj_style.c ****             else if(lv_style_get_prop(style, LV_STYLE_TRANSFORM_ZOOM, &v)) layout_diff = true;
 1279              		.loc 1 427 18 is_stmt 1 view .LVU378
 427:Drivers/lvgl/src/core/lv_obj_style.c ****             else if(lv_style_get_prop(style, LV_STYLE_TRANSFORM_ZOOM, &v)) layout_diff = true;
 1280              		.loc 1 427 21 is_stmt 0 view .LVU379
 1281 015e 01AA     		add	r2, sp, #4
 1282 0160 6E21     		movs	r1, #110
 1283 0162 2046     		mov	r0, r4
 1284 0164 FFF7FEFF 		bl	lv_style_get_prop
 1285              	.LVL127:
 427:Drivers/lvgl/src/core/lv_obj_style.c ****             else if(lv_style_get_prop(style, LV_STYLE_TRANSFORM_ZOOM, &v)) layout_diff = true;
 1286              		.loc 1 427 20 view .LVU380
 1287 0168 0028     		cmp	r0, #0
 1288 016a 7FF452AF 		bne	.L70
 428:Drivers/lvgl/src/core/lv_obj_style.c **** 
 1289              		.loc 1 428 18 is_stmt 1 view .LVU381
 428:Drivers/lvgl/src/core/lv_obj_style.c **** 
 1290              		.loc 1 428 21 is_stmt 0 view .LVU382
 1291 016e 01AA     		add	r2, sp, #4
 1292 0170 6D21     		movs	r1, #109
 1293 0172 2046     		mov	r0, r4
 1294 0174 FFF7FEFF 		bl	lv_style_get_prop
 1295              	.LVL128:
 428:Drivers/lvgl/src/core/lv_obj_style.c **** 
ARM GAS  /var/folders/0z/tsy30v1j4xl4_7kw94k978ww0000gn/T//cc8A9NTU.s 			page 49


 1296              		.loc 1 428 20 view .LVU383
 1297 0178 0028     		cmp	r0, #0
 1298 017a 7FF44AAF 		bne	.L70
 430:Drivers/lvgl/src/core/lv_obj_style.c ****                 return _LV_STYLE_STATE_CMP_DIFF_LAYOUT;
 1299              		.loc 1 430 13 is_stmt 1 view .LVU384
 435:Drivers/lvgl/src/core/lv_obj_style.c ****             else if(lv_style_get_prop(style, LV_STYLE_TRANSFORM_HEIGHT, &v)) res = _LV_STYLE_STATE_
 1300              		.loc 1 435 13 view .LVU385
 435:Drivers/lvgl/src/core/lv_obj_style.c ****             else if(lv_style_get_prop(style, LV_STYLE_TRANSFORM_HEIGHT, &v)) res = _LV_STYLE_STATE_
 1301              		.loc 1 435 16 is_stmt 0 view .LVU386
 1302 017e 01AA     		add	r2, sp, #4
 1303 0180 6921     		movs	r1, #105
 1304 0182 2046     		mov	r0, r4
 1305 0184 FFF7FEFF 		bl	lv_style_get_prop
 1306              	.LVL129:
 435:Drivers/lvgl/src/core/lv_obj_style.c ****             else if(lv_style_get_prop(style, LV_STYLE_TRANSFORM_HEIGHT, &v)) res = _LV_STYLE_STATE_
 1307              		.loc 1 435 15 view .LVU387
 1308 0188 0028     		cmp	r0, #0
 1309 018a 3FF448AF 		beq	.L92
 435:Drivers/lvgl/src/core/lv_obj_style.c ****             else if(lv_style_get_prop(style, LV_STYLE_TRANSFORM_HEIGHT, &v)) res = _LV_STYLE_STATE_
 1310              		.loc 1 435 76 view .LVU388
 1311 018e 4FF00209 		mov	r9, #2
 1312              	.LVL130:
 435:Drivers/lvgl/src/core/lv_obj_style.c ****             else if(lv_style_get_prop(style, LV_STYLE_TRANSFORM_HEIGHT, &v)) res = _LV_STYLE_STATE_
 1313              		.loc 1 435 76 view .LVU389
 1314 0192 4EE7     		b	.L69
 1315              	.LVL131:
 1316              	.L91:
 437:Drivers/lvgl/src/core/lv_obj_style.c ****             else if(lv_style_get_prop(style, LV_STYLE_TRANSFORM_ZOOM, &v)) res = _LV_STYLE_STATE_CM
 1317              		.loc 1 437 18 is_stmt 1 view .LVU390
 437:Drivers/lvgl/src/core/lv_obj_style.c ****             else if(lv_style_get_prop(style, LV_STYLE_TRANSFORM_ZOOM, &v)) res = _LV_STYLE_STATE_CM
 1318              		.loc 1 437 21 is_stmt 0 view .LVU391
 1319 0194 01AA     		add	r2, sp, #4
 1320 0196 6E21     		movs	r1, #110
 1321 0198 2046     		mov	r0, r4
 1322 019a FFF7FEFF 		bl	lv_style_get_prop
 1323              	.LVL132:
 437:Drivers/lvgl/src/core/lv_obj_style.c ****             else if(lv_style_get_prop(style, LV_STYLE_TRANSFORM_ZOOM, &v)) res = _LV_STYLE_STATE_CM
 1324              		.loc 1 437 20 view .LVU392
 1325 019e 10B1     		cbz	r0, .L93
 437:Drivers/lvgl/src/core/lv_obj_style.c ****             else if(lv_style_get_prop(style, LV_STYLE_TRANSFORM_ZOOM, &v)) res = _LV_STYLE_STATE_CM
 1326              		.loc 1 437 81 view .LVU393
 1327 01a0 4FF00209 		mov	r9, #2
 1328              	.LVL133:
 437:Drivers/lvgl/src/core/lv_obj_style.c ****             else if(lv_style_get_prop(style, LV_STYLE_TRANSFORM_ZOOM, &v)) res = _LV_STYLE_STATE_CM
 1329              		.loc 1 437 81 view .LVU394
 1330 01a4 45E7     		b	.L69
 1331              	.LVL134:
 1332              	.L93:
 438:Drivers/lvgl/src/core/lv_obj_style.c ****             else if(lv_style_get_prop(style, LV_STYLE_OUTLINE_OPA, &v)) res = _LV_STYLE_STATE_CMP_D
 1333              		.loc 1 438 18 is_stmt 1 view .LVU395
 438:Drivers/lvgl/src/core/lv_obj_style.c ****             else if(lv_style_get_prop(style, LV_STYLE_OUTLINE_OPA, &v)) res = _LV_STYLE_STATE_CMP_D
 1334              		.loc 1 438 21 is_stmt 0 view .LVU396
 1335 01a6 01AA     		add	r2, sp, #4
 1336 01a8 6D21     		movs	r1, #109
 1337 01aa 2046     		mov	r0, r4
 1338 01ac FFF7FEFF 		bl	lv_style_get_prop
 1339              	.LVL135:
ARM GAS  /var/folders/0z/tsy30v1j4xl4_7kw94k978ww0000gn/T//cc8A9NTU.s 			page 50


 438:Drivers/lvgl/src/core/lv_obj_style.c ****             else if(lv_style_get_prop(style, LV_STYLE_OUTLINE_OPA, &v)) res = _LV_STYLE_STATE_CMP_D
 1340              		.loc 1 438 20 view .LVU397
 1341 01b0 10B1     		cbz	r0, .L94
 438:Drivers/lvgl/src/core/lv_obj_style.c ****             else if(lv_style_get_prop(style, LV_STYLE_OUTLINE_OPA, &v)) res = _LV_STYLE_STATE_CMP_D
 1342              		.loc 1 438 80 view .LVU398
 1343 01b2 4FF00209 		mov	r9, #2
 1344              	.LVL136:
 438:Drivers/lvgl/src/core/lv_obj_style.c ****             else if(lv_style_get_prop(style, LV_STYLE_OUTLINE_OPA, &v)) res = _LV_STYLE_STATE_CMP_D
 1345              		.loc 1 438 80 view .LVU399
 1346 01b6 3CE7     		b	.L69
 1347              	.LVL137:
 1348              	.L94:
 439:Drivers/lvgl/src/core/lv_obj_style.c ****             else if(lv_style_get_prop(style, LV_STYLE_OUTLINE_PAD, &v)) res = _LV_STYLE_STATE_CMP_D
 1349              		.loc 1 439 18 is_stmt 1 view .LVU400
 439:Drivers/lvgl/src/core/lv_obj_style.c ****             else if(lv_style_get_prop(style, LV_STYLE_OUTLINE_PAD, &v)) res = _LV_STYLE_STATE_CMP_D
 1350              		.loc 1 439 21 is_stmt 0 view .LVU401
 1351 01b8 01AA     		add	r2, sp, #4
 1352 01ba 3721     		movs	r1, #55
 1353 01bc 2046     		mov	r0, r4
 1354 01be FFF7FEFF 		bl	lv_style_get_prop
 1355              	.LVL138:
 439:Drivers/lvgl/src/core/lv_obj_style.c ****             else if(lv_style_get_prop(style, LV_STYLE_OUTLINE_PAD, &v)) res = _LV_STYLE_STATE_CMP_D
 1356              		.loc 1 439 20 view .LVU402
 1357 01c2 10B1     		cbz	r0, .L95
 439:Drivers/lvgl/src/core/lv_obj_style.c ****             else if(lv_style_get_prop(style, LV_STYLE_OUTLINE_PAD, &v)) res = _LV_STYLE_STATE_CMP_D
 1358              		.loc 1 439 77 view .LVU403
 1359 01c4 4FF00209 		mov	r9, #2
 1360              	.LVL139:
 439:Drivers/lvgl/src/core/lv_obj_style.c ****             else if(lv_style_get_prop(style, LV_STYLE_OUTLINE_PAD, &v)) res = _LV_STYLE_STATE_CMP_D
 1361              		.loc 1 439 77 view .LVU404
 1362 01c8 33E7     		b	.L69
 1363              	.LVL140:
 1364              	.L95:
 440:Drivers/lvgl/src/core/lv_obj_style.c ****             else if(lv_style_get_prop(style, LV_STYLE_OUTLINE_WIDTH, &v)) res = _LV_STYLE_STATE_CMP
 1365              		.loc 1 440 18 is_stmt 1 view .LVU405
 440:Drivers/lvgl/src/core/lv_obj_style.c ****             else if(lv_style_get_prop(style, LV_STYLE_OUTLINE_WIDTH, &v)) res = _LV_STYLE_STATE_CMP
 1366              		.loc 1 440 21 is_stmt 0 view .LVU406
 1367 01ca 01AA     		add	r2, sp, #4
 1368 01cc 3821     		movs	r1, #56
 1369 01ce 2046     		mov	r0, r4
 1370 01d0 FFF7FEFF 		bl	lv_style_get_prop
 1371              	.LVL141:
 440:Drivers/lvgl/src/core/lv_obj_style.c ****             else if(lv_style_get_prop(style, LV_STYLE_OUTLINE_WIDTH, &v)) res = _LV_STYLE_STATE_CMP
 1372              		.loc 1 440 20 view .LVU407
 1373 01d4 10B1     		cbz	r0, .L96
 440:Drivers/lvgl/src/core/lv_obj_style.c ****             else if(lv_style_get_prop(style, LV_STYLE_OUTLINE_WIDTH, &v)) res = _LV_STYLE_STATE_CMP
 1374              		.loc 1 440 77 view .LVU408
 1375 01d6 4FF00209 		mov	r9, #2
 1376              	.LVL142:
 440:Drivers/lvgl/src/core/lv_obj_style.c ****             else if(lv_style_get_prop(style, LV_STYLE_OUTLINE_WIDTH, &v)) res = _LV_STYLE_STATE_CMP
 1377              		.loc 1 440 77 view .LVU409
 1378 01da 2AE7     		b	.L69
 1379              	.LVL143:
 1380              	.L96:
 441:Drivers/lvgl/src/core/lv_obj_style.c ****             else if(lv_style_get_prop(style, LV_STYLE_SHADOW_WIDTH, &v)) res = _LV_STYLE_STATE_CMP_
 1381              		.loc 1 441 18 is_stmt 1 view .LVU410
 441:Drivers/lvgl/src/core/lv_obj_style.c ****             else if(lv_style_get_prop(style, LV_STYLE_SHADOW_WIDTH, &v)) res = _LV_STYLE_STATE_CMP_
ARM GAS  /var/folders/0z/tsy30v1j4xl4_7kw94k978ww0000gn/T//cc8A9NTU.s 			page 51


 1382              		.loc 1 441 21 is_stmt 0 view .LVU411
 1383 01dc 01AA     		add	r2, sp, #4
 1384 01de 3521     		movs	r1, #53
 1385 01e0 2046     		mov	r0, r4
 1386 01e2 FFF7FEFF 		bl	lv_style_get_prop
 1387              	.LVL144:
 441:Drivers/lvgl/src/core/lv_obj_style.c ****             else if(lv_style_get_prop(style, LV_STYLE_SHADOW_WIDTH, &v)) res = _LV_STYLE_STATE_CMP_
 1388              		.loc 1 441 20 view .LVU412
 1389 01e6 10B1     		cbz	r0, .L97
 441:Drivers/lvgl/src/core/lv_obj_style.c ****             else if(lv_style_get_prop(style, LV_STYLE_SHADOW_WIDTH, &v)) res = _LV_STYLE_STATE_CMP_
 1390              		.loc 1 441 79 view .LVU413
 1391 01e8 4FF00209 		mov	r9, #2
 1392              	.LVL145:
 441:Drivers/lvgl/src/core/lv_obj_style.c ****             else if(lv_style_get_prop(style, LV_STYLE_SHADOW_WIDTH, &v)) res = _LV_STYLE_STATE_CMP_
 1393              		.loc 1 441 79 view .LVU414
 1394 01ec 21E7     		b	.L69
 1395              	.LVL146:
 1396              	.L97:
 442:Drivers/lvgl/src/core/lv_obj_style.c ****             else if(lv_style_get_prop(style, LV_STYLE_SHADOW_OPA, &v)) res = _LV_STYLE_STATE_CMP_DI
 1397              		.loc 1 442 18 is_stmt 1 view .LVU415
 442:Drivers/lvgl/src/core/lv_obj_style.c ****             else if(lv_style_get_prop(style, LV_STYLE_SHADOW_OPA, &v)) res = _LV_STYLE_STATE_CMP_DI
 1398              		.loc 1 442 21 is_stmt 0 view .LVU416
 1399 01ee 01AA     		add	r2, sp, #4
 1400 01f0 4021     		movs	r1, #64
 1401 01f2 2046     		mov	r0, r4
 1402 01f4 FFF7FEFF 		bl	lv_style_get_prop
 1403              	.LVL147:
 442:Drivers/lvgl/src/core/lv_obj_style.c ****             else if(lv_style_get_prop(style, LV_STYLE_SHADOW_OPA, &v)) res = _LV_STYLE_STATE_CMP_DI
 1404              		.loc 1 442 20 view .LVU417
 1405 01f8 10B1     		cbz	r0, .L98
 442:Drivers/lvgl/src/core/lv_obj_style.c ****             else if(lv_style_get_prop(style, LV_STYLE_SHADOW_OPA, &v)) res = _LV_STYLE_STATE_CMP_DI
 1406              		.loc 1 442 78 view .LVU418
 1407 01fa 4FF00209 		mov	r9, #2
 1408              	.LVL148:
 442:Drivers/lvgl/src/core/lv_obj_style.c ****             else if(lv_style_get_prop(style, LV_STYLE_SHADOW_OPA, &v)) res = _LV_STYLE_STATE_CMP_DI
 1409              		.loc 1 442 78 view .LVU419
 1410 01fe 18E7     		b	.L69
 1411              	.LVL149:
 1412              	.L98:
 443:Drivers/lvgl/src/core/lv_obj_style.c ****             else if(lv_style_get_prop(style, LV_STYLE_SHADOW_OFS_X, &v)) res = _LV_STYLE_STATE_CMP_
 1413              		.loc 1 443 18 is_stmt 1 view .LVU420
 443:Drivers/lvgl/src/core/lv_obj_style.c ****             else if(lv_style_get_prop(style, LV_STYLE_SHADOW_OFS_X, &v)) res = _LV_STYLE_STATE_CMP_
 1414              		.loc 1 443 21 is_stmt 0 view .LVU421
 1415 0200 01AA     		add	r2, sp, #4
 1416 0202 4521     		movs	r1, #69
 1417 0204 2046     		mov	r0, r4
 1418 0206 FFF7FEFF 		bl	lv_style_get_prop
 1419              	.LVL150:
 443:Drivers/lvgl/src/core/lv_obj_style.c ****             else if(lv_style_get_prop(style, LV_STYLE_SHADOW_OFS_X, &v)) res = _LV_STYLE_STATE_CMP_
 1420              		.loc 1 443 20 view .LVU422
 1421 020a 10B1     		cbz	r0, .L99
 443:Drivers/lvgl/src/core/lv_obj_style.c ****             else if(lv_style_get_prop(style, LV_STYLE_SHADOW_OFS_X, &v)) res = _LV_STYLE_STATE_CMP_
 1422              		.loc 1 443 76 view .LVU423
 1423 020c 4FF00209 		mov	r9, #2
 1424              	.LVL151:
 443:Drivers/lvgl/src/core/lv_obj_style.c ****             else if(lv_style_get_prop(style, LV_STYLE_SHADOW_OFS_X, &v)) res = _LV_STYLE_STATE_CMP_
 1425              		.loc 1 443 76 view .LVU424
ARM GAS  /var/folders/0z/tsy30v1j4xl4_7kw94k978ww0000gn/T//cc8A9NTU.s 			page 52


 1426 0210 0FE7     		b	.L69
 1427              	.LVL152:
 1428              	.L99:
 444:Drivers/lvgl/src/core/lv_obj_style.c ****             else if(lv_style_get_prop(style, LV_STYLE_SHADOW_OFS_Y, &v)) res = _LV_STYLE_STATE_CMP_
 1429              		.loc 1 444 18 is_stmt 1 view .LVU425
 444:Drivers/lvgl/src/core/lv_obj_style.c ****             else if(lv_style_get_prop(style, LV_STYLE_SHADOW_OFS_Y, &v)) res = _LV_STYLE_STATE_CMP_
 1430              		.loc 1 444 21 is_stmt 0 view .LVU426
 1431 0212 01AA     		add	r2, sp, #4
 1432 0214 4121     		movs	r1, #65
 1433 0216 2046     		mov	r0, r4
 1434 0218 FFF7FEFF 		bl	lv_style_get_prop
 1435              	.LVL153:
 444:Drivers/lvgl/src/core/lv_obj_style.c ****             else if(lv_style_get_prop(style, LV_STYLE_SHADOW_OFS_Y, &v)) res = _LV_STYLE_STATE_CMP_
 1436              		.loc 1 444 20 view .LVU427
 1437 021c 10B1     		cbz	r0, .L100
 444:Drivers/lvgl/src/core/lv_obj_style.c ****             else if(lv_style_get_prop(style, LV_STYLE_SHADOW_OFS_Y, &v)) res = _LV_STYLE_STATE_CMP_
 1438              		.loc 1 444 78 view .LVU428
 1439 021e 4FF00209 		mov	r9, #2
 1440              	.LVL154:
 444:Drivers/lvgl/src/core/lv_obj_style.c ****             else if(lv_style_get_prop(style, LV_STYLE_SHADOW_OFS_Y, &v)) res = _LV_STYLE_STATE_CMP_
 1441              		.loc 1 444 78 view .LVU429
 1442 0222 06E7     		b	.L69
 1443              	.LVL155:
 1444              	.L100:
 445:Drivers/lvgl/src/core/lv_obj_style.c ****             else if(lv_style_get_prop(style, LV_STYLE_SHADOW_SPREAD, &v)) res = _LV_STYLE_STATE_CMP
 1445              		.loc 1 445 18 is_stmt 1 view .LVU430
 445:Drivers/lvgl/src/core/lv_obj_style.c ****             else if(lv_style_get_prop(style, LV_STYLE_SHADOW_SPREAD, &v)) res = _LV_STYLE_STATE_CMP
 1446              		.loc 1 445 21 is_stmt 0 view .LVU431
 1447 0224 01AA     		add	r2, sp, #4
 1448 0226 4221     		movs	r1, #66
 1449 0228 2046     		mov	r0, r4
 1450 022a FFF7FEFF 		bl	lv_style_get_prop
 1451              	.LVL156:
 445:Drivers/lvgl/src/core/lv_obj_style.c ****             else if(lv_style_get_prop(style, LV_STYLE_SHADOW_SPREAD, &v)) res = _LV_STYLE_STATE_CMP
 1452              		.loc 1 445 20 view .LVU432
 1453 022e 10B1     		cbz	r0, .L101
 445:Drivers/lvgl/src/core/lv_obj_style.c ****             else if(lv_style_get_prop(style, LV_STYLE_SHADOW_SPREAD, &v)) res = _LV_STYLE_STATE_CMP
 1454              		.loc 1 445 78 view .LVU433
 1455 0230 4FF00209 		mov	r9, #2
 1456              	.LVL157:
 445:Drivers/lvgl/src/core/lv_obj_style.c ****             else if(lv_style_get_prop(style, LV_STYLE_SHADOW_SPREAD, &v)) res = _LV_STYLE_STATE_CMP
 1457              		.loc 1 445 78 view .LVU434
 1458 0234 FDE6     		b	.L69
 1459              	.LVL158:
 1460              	.L101:
 446:Drivers/lvgl/src/core/lv_obj_style.c ****             else if(lv_style_get_prop(style, LV_STYLE_LINE_WIDTH, &v)) res = _LV_STYLE_STATE_CMP_DI
 1461              		.loc 1 446 18 is_stmt 1 view .LVU435
 446:Drivers/lvgl/src/core/lv_obj_style.c ****             else if(lv_style_get_prop(style, LV_STYLE_LINE_WIDTH, &v)) res = _LV_STYLE_STATE_CMP_DI
 1462              		.loc 1 446 21 is_stmt 0 view .LVU436
 1463 0236 01AA     		add	r2, sp, #4
 1464 0238 4321     		movs	r1, #67
 1465 023a 2046     		mov	r0, r4
 1466 023c FFF7FEFF 		bl	lv_style_get_prop
 1467              	.LVL159:
 446:Drivers/lvgl/src/core/lv_obj_style.c ****             else if(lv_style_get_prop(style, LV_STYLE_LINE_WIDTH, &v)) res = _LV_STYLE_STATE_CMP_DI
 1468              		.loc 1 446 20 view .LVU437
 1469 0240 10B1     		cbz	r0, .L102
ARM GAS  /var/folders/0z/tsy30v1j4xl4_7kw94k978ww0000gn/T//cc8A9NTU.s 			page 53


 446:Drivers/lvgl/src/core/lv_obj_style.c ****             else if(lv_style_get_prop(style, LV_STYLE_LINE_WIDTH, &v)) res = _LV_STYLE_STATE_CMP_DI
 1470              		.loc 1 446 79 view .LVU438
 1471 0242 4FF00209 		mov	r9, #2
 1472              	.LVL160:
 446:Drivers/lvgl/src/core/lv_obj_style.c ****             else if(lv_style_get_prop(style, LV_STYLE_LINE_WIDTH, &v)) res = _LV_STYLE_STATE_CMP_DI
 1473              		.loc 1 446 79 view .LVU439
 1474 0246 F4E6     		b	.L69
 1475              	.LVL161:
 1476              	.L102:
 447:Drivers/lvgl/src/core/lv_obj_style.c ****             else if(res == _LV_STYLE_STATE_CMP_SAME) res = _LV_STYLE_STATE_CMP_DIFF_REDRAW;
 1477              		.loc 1 447 18 is_stmt 1 view .LVU440
 447:Drivers/lvgl/src/core/lv_obj_style.c ****             else if(res == _LV_STYLE_STATE_CMP_SAME) res = _LV_STYLE_STATE_CMP_DIFF_REDRAW;
 1478              		.loc 1 447 21 is_stmt 0 view .LVU441
 1479 0248 01AA     		add	r2, sp, #4
 1480 024a 4921     		movs	r1, #73
 1481 024c 2046     		mov	r0, r4
 1482 024e FFF7FEFF 		bl	lv_style_get_prop
 1483              	.LVL162:
 447:Drivers/lvgl/src/core/lv_obj_style.c ****             else if(res == _LV_STYLE_STATE_CMP_SAME) res = _LV_STYLE_STATE_CMP_DIFF_REDRAW;
 1484              		.loc 1 447 20 view .LVU442
 1485 0252 30B9     		cbnz	r0, .L87
 448:Drivers/lvgl/src/core/lv_obj_style.c ****         }
 1486              		.loc 1 448 18 is_stmt 1 view .LVU443
 448:Drivers/lvgl/src/core/lv_obj_style.c ****         }
 1487              		.loc 1 448 20 is_stmt 0 view .LVU444
 1488 0254 B9F1000F 		cmp	r9, #0
 1489 0258 7FF4EBAE 		bne	.L69
 448:Drivers/lvgl/src/core/lv_obj_style.c ****         }
 1490              		.loc 1 448 58 view .LVU445
 1491 025c 4FF00109 		mov	r9, #1
 1492              	.LVL163:
 448:Drivers/lvgl/src/core/lv_obj_style.c ****         }
 1493              		.loc 1 448 58 view .LVU446
 1494 0260 E7E6     		b	.L69
 1495              	.LVL164:
 1496              	.L87:
 447:Drivers/lvgl/src/core/lv_obj_style.c ****             else if(res == _LV_STYLE_STATE_CMP_SAME) res = _LV_STYLE_STATE_CMP_DIFF_REDRAW;
 1497              		.loc 1 447 76 view .LVU447
 1498 0262 4FF00209 		mov	r9, #2
 1499              	.LVL165:
 447:Drivers/lvgl/src/core/lv_obj_style.c ****             else if(res == _LV_STYLE_STATE_CMP_SAME) res = _LV_STYLE_STATE_CMP_DIFF_REDRAW;
 1500              		.loc 1 447 76 view .LVU448
 1501 0266 E4E6     		b	.L69
 1502              	.LBE104:
 1503              	.LBE106:
 1504              		.cfi_endproc
 1505              	.LFE180:
 1507              		.section	.text.lv_obj_style_get_selector_part,"ax",%progbits
 1508              		.align	1
 1509              		.global	lv_obj_style_get_selector_part
 1510              		.syntax unified
 1511              		.thumb
 1512              		.thumb_func
 1514              	lv_obj_style_get_selector_part:
 1515              	.LVL166:
 1516              	.LFB184:
 486:Drivers/lvgl/src/core/lv_obj_style.c ****     return selector & 0xFF0000;
ARM GAS  /var/folders/0z/tsy30v1j4xl4_7kw94k978ww0000gn/T//cc8A9NTU.s 			page 54


 1517              		.loc 1 486 1 is_stmt 1 view -0
 1518              		.cfi_startproc
 1519              		@ args = 0, pretend = 0, frame = 0
 1520              		@ frame_needed = 0, uses_anonymous_args = 0
 1521              		@ link register save eliminated.
 487:Drivers/lvgl/src/core/lv_obj_style.c **** }
 1522              		.loc 1 487 5 view .LVU450
 488:Drivers/lvgl/src/core/lv_obj_style.c **** 
 1523              		.loc 1 488 1 is_stmt 0 view .LVU451
 1524 0000 00F47F00 		and	r0, r0, #16711680
 1525              	.LVL167:
 488:Drivers/lvgl/src/core/lv_obj_style.c **** 
 1526              		.loc 1 488 1 view .LVU452
 1527 0004 7047     		bx	lr
 1528              		.cfi_endproc
 1529              	.LFE184:
 1531              		.section	.text.get_prop_core,"ax",%progbits
 1532              		.align	1
 1533              		.syntax unified
 1534              		.thumb
 1535              		.thumb_func
 1537              	get_prop_core:
 1538              	.LVL168:
 1539              	.LFB189:
 607:Drivers/lvgl/src/core/lv_obj_style.c ****     uint8_t group = 1 << _lv_style_get_prop_group(prop);
 1540              		.loc 1 607 1 is_stmt 1 view -0
 1541              		.cfi_startproc
 1542              		@ args = 0, pretend = 0, frame = 24
 1543              		@ frame_needed = 0, uses_anonymous_args = 0
 607:Drivers/lvgl/src/core/lv_obj_style.c ****     uint8_t group = 1 << _lv_style_get_prop_group(prop);
 1544              		.loc 1 607 1 is_stmt 0 view .LVU454
 1545 0000 2DE9F04F 		push	{r4, r5, r6, r7, r8, r9, r10, fp, lr}
 1546              		.cfi_def_cfa_offset 36
 1547              		.cfi_offset 4, -36
 1548              		.cfi_offset 5, -32
 1549              		.cfi_offset 6, -28
 1550              		.cfi_offset 7, -24
 1551              		.cfi_offset 8, -20
 1552              		.cfi_offset 9, -16
 1553              		.cfi_offset 10, -12
 1554              		.cfi_offset 11, -8
 1555              		.cfi_offset 14, -4
 1556 0004 87B0     		sub	sp, sp, #28
 1557              		.cfi_def_cfa_offset 64
 1558 0006 0546     		mov	r5, r0
 1559 0008 8A46     		mov	r10, r1
 1560 000a 0192     		str	r2, [sp, #4]
 1561 000c 0293     		str	r3, [sp, #8]
 608:Drivers/lvgl/src/core/lv_obj_style.c ****     int32_t weight = -1;
 1562              		.loc 1 608 5 is_stmt 1 view .LVU455
 608:Drivers/lvgl/src/core/lv_obj_style.c ****     int32_t weight = -1;
 1563              		.loc 1 608 26 is_stmt 0 view .LVU456
 1564 000e 1046     		mov	r0, r2
 1565              	.LVL169:
 608:Drivers/lvgl/src/core/lv_obj_style.c ****     int32_t weight = -1;
 1566              		.loc 1 608 26 view .LVU457
 1567 0010 FFF7FEFF 		bl	_lv_style_get_prop_group
ARM GAS  /var/folders/0z/tsy30v1j4xl4_7kw94k978ww0000gn/T//cc8A9NTU.s 			page 55


 1568              	.LVL170:
 608:Drivers/lvgl/src/core/lv_obj_style.c ****     int32_t weight = -1;
 1569              		.loc 1 608 23 view .LVU458
 1570 0014 4FF00109 		mov	r9, #1
 1571 0018 09FA00F9 		lsl	r9, r9, r0
 608:Drivers/lvgl/src/core/lv_obj_style.c ****     int32_t weight = -1;
 1572              		.loc 1 608 13 view .LVU459
 1573 001c 5FFA89F9 		uxtb	r9, r9
 1574              	.LVL171:
 609:Drivers/lvgl/src/core/lv_obj_style.c ****     lv_state_t state = obj->state;
 1575              		.loc 1 609 5 is_stmt 1 view .LVU460
 610:Drivers/lvgl/src/core/lv_obj_style.c ****     lv_state_t state_inv = ~state;
 1576              		.loc 1 610 5 view .LVU461
 610:Drivers/lvgl/src/core/lv_obj_style.c ****     lv_state_t state_inv = ~state;
 1577              		.loc 1 610 16 is_stmt 0 view .LVU462
 1578 0020 2B8C     		ldrh	r3, [r5, #32]
 1579 0022 0393     		str	r3, [sp, #12]
 1580              	.LVL172:
 611:Drivers/lvgl/src/core/lv_obj_style.c ****     lv_style_value_t value_tmp;
 1581              		.loc 1 611 5 is_stmt 1 view .LVU463
 611:Drivers/lvgl/src/core/lv_obj_style.c ****     lv_style_value_t value_tmp;
 1582              		.loc 1 611 16 is_stmt 0 view .LVU464
 1583 0024 6FEA030B 		mvn	fp, r3
 1584 0028 1FFA8BFB 		uxth	fp, fp
 1585              	.LVL173:
 612:Drivers/lvgl/src/core/lv_obj_style.c ****     bool skip_trans = obj->skip_trans;
 1586              		.loc 1 612 5 is_stmt 1 view .LVU465
 613:Drivers/lvgl/src/core/lv_obj_style.c ****     uint32_t i;
 1587              		.loc 1 613 5 view .LVU466
 613:Drivers/lvgl/src/core/lv_obj_style.c ****     uint32_t i;
 1588              		.loc 1 613 26 is_stmt 0 view .LVU467
 1589 002c 95F82280 		ldrb	r8, [r5, #34]	@ zero_extendqisi2
 1590 0030 C8F3C008 		ubfx	r8, r8, #3, #1
 1591              	.LVL174:
 614:Drivers/lvgl/src/core/lv_obj_style.c ****     lv_style_res_t found;
 1592              		.loc 1 614 5 is_stmt 1 view .LVU468
 615:Drivers/lvgl/src/core/lv_obj_style.c ****     for(i = 0; i < obj->style_cnt; i++) {
 1593              		.loc 1 615 5 view .LVU469
 616:Drivers/lvgl/src/core/lv_obj_style.c ****         _lv_obj_style_t * obj_style = &obj->styles[i];
 1594              		.loc 1 616 5 view .LVU470
 616:Drivers/lvgl/src/core/lv_obj_style.c ****         _lv_obj_style_t * obj_style = &obj->styles[i];
 1595              		.loc 1 616 11 is_stmt 0 view .LVU471
 1596 0034 0024     		movs	r4, #0
 616:Drivers/lvgl/src/core/lv_obj_style.c ****         _lv_obj_style_t * obj_style = &obj->styles[i];
 1597              		.loc 1 616 5 view .LVU472
 1598 0036 04E0     		b	.L105
 1599              	.LVL175:
 1600              	.L122:
 1601              	.LBB107:
 627:Drivers/lvgl/src/core/lv_obj_style.c ****             return LV_STYLE_RES_FOUND;
 1602              		.loc 1 627 13 is_stmt 1 view .LVU473
 627:Drivers/lvgl/src/core/lv_obj_style.c ****             return LV_STYLE_RES_FOUND;
 1603              		.loc 1 627 16 is_stmt 0 view .LVU474
 1604 0038 059B     		ldr	r3, [sp, #20]
 1605 003a 029A     		ldr	r2, [sp, #8]
 1606 003c 1360     		str	r3, [r2]
 628:Drivers/lvgl/src/core/lv_obj_style.c ****         }
ARM GAS  /var/folders/0z/tsy30v1j4xl4_7kw94k978ww0000gn/T//cc8A9NTU.s 			page 56


 1607              		.loc 1 628 13 is_stmt 1 view .LVU475
 628:Drivers/lvgl/src/core/lv_obj_style.c ****         }
 1608              		.loc 1 628 20 is_stmt 0 view .LVU476
 1609 003e 6FE0     		b	.L109
 1610              	.LVL176:
 1611              	.L107:
 628:Drivers/lvgl/src/core/lv_obj_style.c ****         }
 1612              		.loc 1 628 20 view .LVU477
 1613              	.LBE107:
 616:Drivers/lvgl/src/core/lv_obj_style.c ****         _lv_obj_style_t * obj_style = &obj->styles[i];
 1614              		.loc 1 616 37 is_stmt 1 discriminator 2 view .LVU478
 1615 0040 0134     		adds	r4, r4, #1
 1616              	.LVL177:
 1617              	.L105:
 616:Drivers/lvgl/src/core/lv_obj_style.c ****         _lv_obj_style_t * obj_style = &obj->styles[i];
 1618              		.loc 1 616 18 discriminator 1 view .LVU479
 616:Drivers/lvgl/src/core/lv_obj_style.c ****         _lv_obj_style_t * obj_style = &obj->styles[i];
 1619              		.loc 1 616 23 is_stmt 0 discriminator 1 view .LVU480
 1620 0042 6B8C     		ldrh	r3, [r5, #34]
 1621 0044 C3F30513 		ubfx	r3, r3, #4, #6
 616:Drivers/lvgl/src/core/lv_obj_style.c ****         _lv_obj_style_t * obj_style = &obj->styles[i];
 1622              		.loc 1 616 18 discriminator 1 view .LVU481
 1623 0048 A342     		cmp	r3, r4
 1624 004a 1FD9     		bls	.L121
 1625              	.LBB108:
 617:Drivers/lvgl/src/core/lv_obj_style.c ****         if(obj_style->is_trans == false) break;
 1626              		.loc 1 617 9 is_stmt 1 view .LVU482
 617:Drivers/lvgl/src/core/lv_obj_style.c ****         if(obj_style->is_trans == false) break;
 1627              		.loc 1 617 43 is_stmt 0 view .LVU483
 1628 004c EE68     		ldr	r6, [r5, #12]
 617:Drivers/lvgl/src/core/lv_obj_style.c ****         if(obj_style->is_trans == false) break;
 1629              		.loc 1 617 51 view .LVU484
 1630 004e E700     		lsls	r7, r4, #3
 617:Drivers/lvgl/src/core/lv_obj_style.c ****         if(obj_style->is_trans == false) break;
 1631              		.loc 1 617 27 view .LVU485
 1632 0050 06EBC403 		add	r3, r6, r4, lsl #3
 1633              	.LVL178:
 618:Drivers/lvgl/src/core/lv_obj_style.c ****         if(skip_trans) continue;
 1634              		.loc 1 618 9 is_stmt 1 view .LVU486
 618:Drivers/lvgl/src/core/lv_obj_style.c ****         if(skip_trans) continue;
 1635              		.loc 1 618 32 is_stmt 0 view .LVU487
 1636 0054 DA79     		ldrb	r2, [r3, #7]	@ zero_extendqisi2
 618:Drivers/lvgl/src/core/lv_obj_style.c ****         if(skip_trans) continue;
 1637              		.loc 1 618 11 view .LVU488
 1638 0056 12F0020F 		tst	r2, #2
 1639 005a 55D0     		beq	.L116
 619:Drivers/lvgl/src/core/lv_obj_style.c **** 
 1640              		.loc 1 619 9 is_stmt 1 view .LVU489
 619:Drivers/lvgl/src/core/lv_obj_style.c **** 
 1641              		.loc 1 619 11 is_stmt 0 view .LVU490
 1642 005c B8F1000F 		cmp	r8, #0
 1643 0060 EED1     		bne	.L107
 621:Drivers/lvgl/src/core/lv_obj_style.c **** 
 1644              		.loc 1 621 9 is_stmt 1 view .LVU491
 621:Drivers/lvgl/src/core/lv_obj_style.c **** 
 1645              		.loc 1 621 75 is_stmt 0 view .LVU492
 1646 0062 5868     		ldr	r0, [r3, #4]
ARM GAS  /var/folders/0z/tsy30v1j4xl4_7kw94k978ww0000gn/T//cc8A9NTU.s 			page 57


 621:Drivers/lvgl/src/core/lv_obj_style.c **** 
 1647              		.loc 1 621 30 view .LVU493
 1648 0064 20F07F40 		bic	r0, r0, #-16777216
 1649 0068 FFF7FEFF 		bl	lv_obj_style_get_selector_part
 1650              	.LVL179:
 623:Drivers/lvgl/src/core/lv_obj_style.c ****         if((obj_style->style->has_group & group) == 0) continue;
 1651              		.loc 1 623 9 is_stmt 1 view .LVU494
 623:Drivers/lvgl/src/core/lv_obj_style.c ****         if((obj_style->style->has_group & group) == 0) continue;
 1652              		.loc 1 623 11 is_stmt 0 view .LVU495
 1653 006c 5045     		cmp	r0, r10
 1654 006e E7D1     		bne	.L107
 624:Drivers/lvgl/src/core/lv_obj_style.c ****         found = lv_style_get_prop(obj_style->style, prop, &value_tmp);
 1655              		.loc 1 624 9 is_stmt 1 view .LVU496
 624:Drivers/lvgl/src/core/lv_obj_style.c ****         found = lv_style_get_prop(obj_style->style, prop, &value_tmp);
 1656              		.loc 1 624 22 is_stmt 0 view .LVU497
 1657 0070 F059     		ldr	r0, [r6, r7]
 1658              	.LVL180:
 624:Drivers/lvgl/src/core/lv_obj_style.c ****         found = lv_style_get_prop(obj_style->style, prop, &value_tmp);
 1659              		.loc 1 624 29 view .LVU498
 1660 0072 8379     		ldrb	r3, [r0, #6]	@ zero_extendqisi2
 624:Drivers/lvgl/src/core/lv_obj_style.c ****         found = lv_style_get_prop(obj_style->style, prop, &value_tmp);
 1661              		.loc 1 624 11 view .LVU499
 1662 0074 13EA090F 		tst	r3, r9
 1663 0078 E2D0     		beq	.L107
 625:Drivers/lvgl/src/core/lv_obj_style.c ****         if(found == LV_STYLE_RES_FOUND) {
 1664              		.loc 1 625 9 is_stmt 1 view .LVU500
 625:Drivers/lvgl/src/core/lv_obj_style.c ****         if(found == LV_STYLE_RES_FOUND) {
 1665              		.loc 1 625 17 is_stmt 0 view .LVU501
 1666 007a 05AA     		add	r2, sp, #20
 1667 007c 0199     		ldr	r1, [sp, #4]
 1668 007e FFF7FEFF 		bl	lv_style_get_prop
 1669              	.LVL181:
 626:Drivers/lvgl/src/core/lv_obj_style.c ****             *v = value_tmp;
 1670              		.loc 1 626 9 is_stmt 1 view .LVU502
 626:Drivers/lvgl/src/core/lv_obj_style.c ****             *v = value_tmp;
 1671              		.loc 1 626 11 is_stmt 0 view .LVU503
 1672 0082 0128     		cmp	r0, #1
 1673 0084 D8D0     		beq	.L122
 630:Drivers/lvgl/src/core/lv_obj_style.c ****             return LV_STYLE_RES_INHERIT;
 1674              		.loc 1 630 14 is_stmt 1 view .LVU504
 630:Drivers/lvgl/src/core/lv_obj_style.c ****             return LV_STYLE_RES_INHERIT;
 1675              		.loc 1 630 16 is_stmt 0 view .LVU505
 1676 0086 0228     		cmp	r0, #2
 1677 0088 DAD1     		bne	.L107
 1678 008a 49E0     		b	.L109
 1679              	.LVL182:
 1680              	.L121:
 630:Drivers/lvgl/src/core/lv_obj_style.c ****             return LV_STYLE_RES_INHERIT;
 1681              		.loc 1 630 16 view .LVU506
 1682              	.LBE108:
 1683 008c 4FF0FF33 		mov	r3, #-1
 1684 0090 0093     		str	r3, [sp]
 1685 0092 A846     		mov	r8, r5
 1686 0094 07E0     		b	.L114
 1687              	.LVL183:
 1688              	.L125:
 1689              	.LBB109:
ARM GAS  /var/folders/0z/tsy30v1j4xl4_7kw94k978ww0000gn/T//cc8A9NTU.s 			page 58


 652:Drivers/lvgl/src/core/lv_obj_style.c ****                 *v = value_tmp;
 1690              		.loc 1 652 13 is_stmt 1 view .LVU507
 652:Drivers/lvgl/src/core/lv_obj_style.c ****                 *v = value_tmp;
 1691              		.loc 1 652 15 is_stmt 0 view .LVU508
 1692 0096 039B     		ldr	r3, [sp, #12]
 1693 0098 B342     		cmp	r3, r6
 1694 009a 31D0     		beq	.L123
 656:Drivers/lvgl/src/core/lv_obj_style.c ****                 weight = state_act;
 1695              		.loc 1 656 13 is_stmt 1 view .LVU509
 657:Drivers/lvgl/src/core/lv_obj_style.c ****                 *v = value_tmp;
 1696              		.loc 1 657 17 view .LVU510
 1697              	.LVL184:
 658:Drivers/lvgl/src/core/lv_obj_style.c ****             }
 1698              		.loc 1 658 17 view .LVU511
 658:Drivers/lvgl/src/core/lv_obj_style.c ****             }
 1699              		.loc 1 658 20 is_stmt 0 view .LVU512
 1700 009c 059B     		ldr	r3, [sp, #20]
 1701 009e 029A     		ldr	r2, [sp, #8]
 1702 00a0 1360     		str	r3, [r2]
 657:Drivers/lvgl/src/core/lv_obj_style.c ****                 *v = value_tmp;
 1703              		.loc 1 657 24 view .LVU513
 1704 00a2 0096     		str	r6, [sp]
 1705              	.LVL185:
 1706              	.L111:
 657:Drivers/lvgl/src/core/lv_obj_style.c ****                 *v = value_tmp;
 1707              		.loc 1 657 24 view .LVU514
 1708              	.LBE109:
 635:Drivers/lvgl/src/core/lv_obj_style.c ****         if((obj->styles[i].style->has_group & group) == 0) continue;
 1709              		.loc 1 635 32 is_stmt 1 view .LVU515
 1710 00a4 0134     		adds	r4, r4, #1
 1711              	.LVL186:
 1712              	.L114:
 635:Drivers/lvgl/src/core/lv_obj_style.c ****         if((obj->styles[i].style->has_group & group) == 0) continue;
 1713              		.loc 1 635 13 discriminator 1 view .LVU516
 635:Drivers/lvgl/src/core/lv_obj_style.c ****         if((obj->styles[i].style->has_group & group) == 0) continue;
 1714              		.loc 1 635 18 is_stmt 0 discriminator 1 view .LVU517
 1715 00a6 B8F82230 		ldrh	r3, [r8, #34]
 1716 00aa C3F30513 		ubfx	r3, r3, #4, #6
 635:Drivers/lvgl/src/core/lv_obj_style.c ****         if((obj->styles[i].style->has_group & group) == 0) continue;
 1717              		.loc 1 635 13 discriminator 1 view .LVU518
 1718 00ae A342     		cmp	r3, r4
 1719 00b0 2FD9     		bls	.L124
 1720              	.LBB110:
 636:Drivers/lvgl/src/core/lv_obj_style.c ****         _lv_obj_style_t * obj_style = &obj->styles[i];
 1721              		.loc 1 636 9 is_stmt 1 view .LVU519
 636:Drivers/lvgl/src/core/lv_obj_style.c ****         _lv_obj_style_t * obj_style = &obj->styles[i];
 1722              		.loc 1 636 16 is_stmt 0 view .LVU520
 1723 00b2 D8F80C30 		ldr	r3, [r8, #12]
 636:Drivers/lvgl/src/core/lv_obj_style.c ****         _lv_obj_style_t * obj_style = &obj->styles[i];
 1724              		.loc 1 636 24 view .LVU521
 1725 00b6 03EBC402 		add	r2, r3, r4, lsl #3
 636:Drivers/lvgl/src/core/lv_obj_style.c ****         _lv_obj_style_t * obj_style = &obj->styles[i];
 1726              		.loc 1 636 27 view .LVU522
 1727 00ba 53F83450 		ldr	r5, [r3, r4, lsl #3]
 636:Drivers/lvgl/src/core/lv_obj_style.c ****         _lv_obj_style_t * obj_style = &obj->styles[i];
 1728              		.loc 1 636 33 view .LVU523
 1729 00be AB79     		ldrb	r3, [r5, #6]	@ zero_extendqisi2
ARM GAS  /var/folders/0z/tsy30v1j4xl4_7kw94k978ww0000gn/T//cc8A9NTU.s 			page 59


 636:Drivers/lvgl/src/core/lv_obj_style.c ****         _lv_obj_style_t * obj_style = &obj->styles[i];
 1730              		.loc 1 636 11 view .LVU524
 1731 00c0 13EA090F 		tst	r3, r9
 1732 00c4 EED0     		beq	.L111
 637:Drivers/lvgl/src/core/lv_obj_style.c ****         lv_part_t part_act = lv_obj_style_get_selector_part(obj->styles[i].selector);
 1733              		.loc 1 637 9 is_stmt 1 view .LVU525
 1734              	.LVL187:
 638:Drivers/lvgl/src/core/lv_obj_style.c ****         lv_state_t state_act = lv_obj_style_get_selector_state(obj->styles[i].selector);
 1735              		.loc 1 638 9 view .LVU526
 638:Drivers/lvgl/src/core/lv_obj_style.c ****         lv_state_t state_act = lv_obj_style_get_selector_state(obj->styles[i].selector);
 1736              		.loc 1 638 75 is_stmt 0 view .LVU527
 1737 00c6 5668     		ldr	r6, [r2, #4]
 1738 00c8 C6F31706 		ubfx	r6, r6, #0, #24
 638:Drivers/lvgl/src/core/lv_obj_style.c ****         lv_state_t state_act = lv_obj_style_get_selector_state(obj->styles[i].selector);
 1739              		.loc 1 638 30 view .LVU528
 1740 00cc 3046     		mov	r0, r6
 1741 00ce FFF7FEFF 		bl	lv_obj_style_get_selector_part
 1742              	.LVL188:
 638:Drivers/lvgl/src/core/lv_obj_style.c ****         lv_state_t state_act = lv_obj_style_get_selector_state(obj->styles[i].selector);
 1743              		.loc 1 638 30 view .LVU529
 1744 00d2 0746     		mov	r7, r0
 1745              	.LVL189:
 639:Drivers/lvgl/src/core/lv_obj_style.c ****         if(part_act != part) continue;
 1746              		.loc 1 639 9 is_stmt 1 view .LVU530
 639:Drivers/lvgl/src/core/lv_obj_style.c ****         if(part_act != part) continue;
 1747              		.loc 1 639 32 is_stmt 0 view .LVU531
 1748 00d4 3046     		mov	r0, r6
 1749              	.LVL190:
 639:Drivers/lvgl/src/core/lv_obj_style.c ****         if(part_act != part) continue;
 1750              		.loc 1 639 32 view .LVU532
 1751 00d6 FFF7FEFF 		bl	lv_obj_style_get_selector_state
 1752              	.LVL191:
 1753 00da 0646     		mov	r6, r0
 1754              	.LVL192:
 640:Drivers/lvgl/src/core/lv_obj_style.c **** 
 1755              		.loc 1 640 9 is_stmt 1 view .LVU533
 640:Drivers/lvgl/src/core/lv_obj_style.c **** 
 1756              		.loc 1 640 11 is_stmt 0 view .LVU534
 1757 00dc BA45     		cmp	r10, r7
 1758 00de E1D1     		bne	.L111
 644:Drivers/lvgl/src/core/lv_obj_style.c **** 
 1759              		.loc 1 644 9 is_stmt 1 view .LVU535
 644:Drivers/lvgl/src/core/lv_obj_style.c **** 
 1760              		.loc 1 644 11 is_stmt 0 view .LVU536
 1761 00e0 1BEA000F 		tst	fp, r0
 1762 00e4 DED1     		bne	.L111
 647:Drivers/lvgl/src/core/lv_obj_style.c **** 
 1763              		.loc 1 647 9 is_stmt 1 view .LVU537
 647:Drivers/lvgl/src/core/lv_obj_style.c **** 
 1764              		.loc 1 647 11 is_stmt 0 view .LVU538
 1765 00e6 009B     		ldr	r3, [sp]
 1766 00e8 9842     		cmp	r0, r3
 1767 00ea DBDD     		ble	.L111
 649:Drivers/lvgl/src/core/lv_obj_style.c **** 
 1768              		.loc 1 649 9 is_stmt 1 view .LVU539
 649:Drivers/lvgl/src/core/lv_obj_style.c **** 
 1769              		.loc 1 649 17 is_stmt 0 view .LVU540
ARM GAS  /var/folders/0z/tsy30v1j4xl4_7kw94k978ww0000gn/T//cc8A9NTU.s 			page 60


 1770 00ec 05AA     		add	r2, sp, #20
 1771 00ee 0199     		ldr	r1, [sp, #4]
 1772 00f0 2846     		mov	r0, r5
 1773              	.LVL193:
 649:Drivers/lvgl/src/core/lv_obj_style.c **** 
 1774              		.loc 1 649 17 view .LVU541
 1775 00f2 FFF7FEFF 		bl	lv_style_get_prop
 1776              	.LVL194:
 651:Drivers/lvgl/src/core/lv_obj_style.c ****             if(state_act == state) {
 1777              		.loc 1 651 9 is_stmt 1 view .LVU542
 651:Drivers/lvgl/src/core/lv_obj_style.c ****             if(state_act == state) {
 1778              		.loc 1 651 11 is_stmt 0 view .LVU543
 1779 00f6 0128     		cmp	r0, #1
 1780 00f8 CDD0     		beq	.L125
 661:Drivers/lvgl/src/core/lv_obj_style.c ****             return LV_STYLE_RES_INHERIT;
 1781              		.loc 1 661 14 is_stmt 1 view .LVU544
 661:Drivers/lvgl/src/core/lv_obj_style.c ****             return LV_STYLE_RES_INHERIT;
 1782              		.loc 1 661 16 is_stmt 0 view .LVU545
 1783 00fa 0228     		cmp	r0, #2
 1784 00fc D2D1     		bne	.L111
 1785 00fe 0FE0     		b	.L109
 1786              	.L123:
 653:Drivers/lvgl/src/core/lv_obj_style.c ****                 return LV_STYLE_RES_FOUND;
 1787              		.loc 1 653 17 is_stmt 1 view .LVU546
 653:Drivers/lvgl/src/core/lv_obj_style.c ****                 return LV_STYLE_RES_FOUND;
 1788              		.loc 1 653 20 is_stmt 0 view .LVU547
 1789 0100 059B     		ldr	r3, [sp, #20]
 1790 0102 029A     		ldr	r2, [sp, #8]
 1791 0104 1360     		str	r3, [r2]
 654:Drivers/lvgl/src/core/lv_obj_style.c ****             }
 1792              		.loc 1 654 17 is_stmt 1 view .LVU548
 654:Drivers/lvgl/src/core/lv_obj_style.c ****             }
 1793              		.loc 1 654 24 is_stmt 0 view .LVU549
 1794 0106 0BE0     		b	.L109
 1795              	.LVL195:
 1796              	.L116:
 654:Drivers/lvgl/src/core/lv_obj_style.c ****             }
 1797              		.loc 1 654 24 view .LVU550
 1798              	.LBE110:
 1799 0108 4FF0FF33 		mov	r3, #-1
 1800              	.LVL196:
 654:Drivers/lvgl/src/core/lv_obj_style.c ****             }
 1801              		.loc 1 654 24 view .LVU551
 1802 010c 0093     		str	r3, [sp]
 1803 010e A846     		mov	r8, r5
 1804 0110 C9E7     		b	.L114
 1805              	.LVL197:
 1806              	.L124:
 666:Drivers/lvgl/src/core/lv_obj_style.c ****         *v = value_tmp;
 1807              		.loc 1 666 5 is_stmt 1 view .LVU552
 666:Drivers/lvgl/src/core/lv_obj_style.c ****         *v = value_tmp;
 1808              		.loc 1 666 7 is_stmt 0 view .LVU553
 1809 0112 009B     		ldr	r3, [sp]
 1810 0114 002B     		cmp	r3, #0
 1811 0116 06DB     		blt	.L117
 667:Drivers/lvgl/src/core/lv_obj_style.c ****         return LV_STYLE_RES_FOUND;
 1812              		.loc 1 667 9 is_stmt 1 view .LVU554
ARM GAS  /var/folders/0z/tsy30v1j4xl4_7kw94k978ww0000gn/T//cc8A9NTU.s 			page 61


 667:Drivers/lvgl/src/core/lv_obj_style.c ****         return LV_STYLE_RES_FOUND;
 1813              		.loc 1 667 12 is_stmt 0 view .LVU555
 1814 0118 059B     		ldr	r3, [sp, #20]
 1815 011a 029A     		ldr	r2, [sp, #8]
 1816 011c 1360     		str	r3, [r2]
 668:Drivers/lvgl/src/core/lv_obj_style.c ****     }
 1817              		.loc 1 668 9 is_stmt 1 view .LVU556
 668:Drivers/lvgl/src/core/lv_obj_style.c ****     }
 1818              		.loc 1 668 16 is_stmt 0 view .LVU557
 1819 011e 0120     		movs	r0, #1
 1820              	.LVL198:
 1821              	.L109:
 671:Drivers/lvgl/src/core/lv_obj_style.c **** 
 1822              		.loc 1 671 1 view .LVU558
 1823 0120 07B0     		add	sp, sp, #28
 1824              		.cfi_remember_state
 1825              		.cfi_def_cfa_offset 36
 1826              		@ sp needed
 1827 0122 BDE8F08F 		pop	{r4, r5, r6, r7, r8, r9, r10, fp, pc}
 1828              	.LVL199:
 1829              	.L117:
 1830              		.cfi_restore_state
 670:Drivers/lvgl/src/core/lv_obj_style.c **** }
 1831              		.loc 1 670 17 view .LVU559
 1832 0126 0020     		movs	r0, #0
 1833 0128 FAE7     		b	.L109
 1834              		.cfi_endproc
 1835              	.LFE189:
 1837              		.section	.text.lv_obj_get_style_prop,"ax",%progbits
 1838              		.align	1
 1839              		.global	lv_obj_get_style_prop
 1840              		.syntax unified
 1841              		.thumb
 1842              		.thumb_func
 1844              	lv_obj_get_style_prop:
 1845              	.LVL200:
 1846              	.LFB173:
 224:Drivers/lvgl/src/core/lv_obj_style.c ****     lv_style_value_t value_act;
 1847              		.loc 1 224 1 is_stmt 1 view -0
 1848              		.cfi_startproc
 1849              		@ args = 0, pretend = 0, frame = 8
 1850              		@ frame_needed = 0, uses_anonymous_args = 0
 224:Drivers/lvgl/src/core/lv_obj_style.c ****     lv_style_value_t value_act;
 1851              		.loc 1 224 1 is_stmt 0 view .LVU561
 1852 0000 2DE9F041 		push	{r4, r5, r6, r7, r8, lr}
 1853              		.cfi_def_cfa_offset 24
 1854              		.cfi_offset 4, -24
 1855              		.cfi_offset 5, -20
 1856              		.cfi_offset 6, -16
 1857              		.cfi_offset 7, -12
 1858              		.cfi_offset 8, -8
 1859              		.cfi_offset 14, -4
 1860 0004 82B0     		sub	sp, sp, #8
 1861              		.cfi_def_cfa_offset 32
 1862 0006 0546     		mov	r5, r0
 1863 0008 0E46     		mov	r6, r1
 1864 000a 1746     		mov	r7, r2
ARM GAS  /var/folders/0z/tsy30v1j4xl4_7kw94k978ww0000gn/T//cc8A9NTU.s 			page 62


 225:Drivers/lvgl/src/core/lv_obj_style.c ****     bool inheritable = lv_style_prop_has_flag(prop, LV_STYLE_PROP_INHERIT);
 1865              		.loc 1 225 5 is_stmt 1 view .LVU562
 226:Drivers/lvgl/src/core/lv_obj_style.c ****     lv_style_res_t found = LV_STYLE_RES_NOT_FOUND;
 1866              		.loc 1 226 5 view .LVU563
 1867              	.LVL201:
 1868              	.LBB111:
 1869              	.LBI111:
 1870              		.file 3 "Drivers/lvgl/src/core/../misc/lv_style.h"
   1:Drivers/lvgl/src/core/../misc/lv_style.h **** /**
   2:Drivers/lvgl/src/core/../misc/lv_style.h ****  * @file lv_style.h
   3:Drivers/lvgl/src/core/../misc/lv_style.h ****  *
   4:Drivers/lvgl/src/core/../misc/lv_style.h ****  */
   5:Drivers/lvgl/src/core/../misc/lv_style.h **** 
   6:Drivers/lvgl/src/core/../misc/lv_style.h **** #ifndef LV_STYLE_H
   7:Drivers/lvgl/src/core/../misc/lv_style.h **** #define LV_STYLE_H
   8:Drivers/lvgl/src/core/../misc/lv_style.h **** 
   9:Drivers/lvgl/src/core/../misc/lv_style.h **** #ifdef __cplusplus
  10:Drivers/lvgl/src/core/../misc/lv_style.h **** extern "C" {
  11:Drivers/lvgl/src/core/../misc/lv_style.h **** #endif
  12:Drivers/lvgl/src/core/../misc/lv_style.h **** 
  13:Drivers/lvgl/src/core/../misc/lv_style.h **** /*********************
  14:Drivers/lvgl/src/core/../misc/lv_style.h ****  *      INCLUDES
  15:Drivers/lvgl/src/core/../misc/lv_style.h ****  *********************/
  16:Drivers/lvgl/src/core/../misc/lv_style.h **** #include <stdbool.h>
  17:Drivers/lvgl/src/core/../misc/lv_style.h **** #include <stdint.h>
  18:Drivers/lvgl/src/core/../misc/lv_style.h **** #include "../font/lv_font.h"
  19:Drivers/lvgl/src/core/../misc/lv_style.h **** #include "lv_color.h"
  20:Drivers/lvgl/src/core/../misc/lv_style.h **** #include "lv_area.h"
  21:Drivers/lvgl/src/core/../misc/lv_style.h **** #include "lv_anim.h"
  22:Drivers/lvgl/src/core/../misc/lv_style.h **** #include "lv_txt.h"
  23:Drivers/lvgl/src/core/../misc/lv_style.h **** #include "lv_types.h"
  24:Drivers/lvgl/src/core/../misc/lv_style.h **** #include "lv_assert.h"
  25:Drivers/lvgl/src/core/../misc/lv_style.h **** #include "lv_bidi.h"
  26:Drivers/lvgl/src/core/../misc/lv_style.h **** 
  27:Drivers/lvgl/src/core/../misc/lv_style.h **** /*********************
  28:Drivers/lvgl/src/core/../misc/lv_style.h ****  *      DEFINES
  29:Drivers/lvgl/src/core/../misc/lv_style.h ****  *********************/
  30:Drivers/lvgl/src/core/../misc/lv_style.h **** 
  31:Drivers/lvgl/src/core/../misc/lv_style.h **** #define LV_STYLE_SENTINEL_VALUE     0xAABBCCDD
  32:Drivers/lvgl/src/core/../misc/lv_style.h **** 
  33:Drivers/lvgl/src/core/../misc/lv_style.h **** /**
  34:Drivers/lvgl/src/core/../misc/lv_style.h ****  * Flags for style behavior
  35:Drivers/lvgl/src/core/../misc/lv_style.h ****  *
  36:Drivers/lvgl/src/core/../misc/lv_style.h ****  * The rest of the flags will have _FLAG added to their name in v9.
  37:Drivers/lvgl/src/core/../misc/lv_style.h ****  */
  38:Drivers/lvgl/src/core/../misc/lv_style.h **** #define LV_STYLE_PROP_FLAG_NONE             (0)
  39:Drivers/lvgl/src/core/../misc/lv_style.h **** #define LV_STYLE_PROP_INHERIT               (1 << 0)  /*Inherited*/
  40:Drivers/lvgl/src/core/../misc/lv_style.h **** #define LV_STYLE_PROP_EXT_DRAW              (1 << 1)  /*Requires ext. draw size update when changed
  41:Drivers/lvgl/src/core/../misc/lv_style.h **** #define LV_STYLE_PROP_LAYOUT_REFR           (1 << 2)  /*Requires layout update when changed*/
  42:Drivers/lvgl/src/core/../misc/lv_style.h **** #define LV_STYLE_PROP_PARENT_LAYOUT_REFR    (1 << 3)  /*Requires layout update on parent when chang
  43:Drivers/lvgl/src/core/../misc/lv_style.h **** #define LV_STYLE_PROP_LAYER_REFR            (1 << 4)  /*Affects layer handling*/
  44:Drivers/lvgl/src/core/../misc/lv_style.h **** #define LV_STYLE_PROP_ALL                   (0x1F)     /*Indicating all flags*/
  45:Drivers/lvgl/src/core/../misc/lv_style.h **** 
  46:Drivers/lvgl/src/core/../misc/lv_style.h **** /**
  47:Drivers/lvgl/src/core/../misc/lv_style.h ****  * Other constants
  48:Drivers/lvgl/src/core/../misc/lv_style.h ****  */
  49:Drivers/lvgl/src/core/../misc/lv_style.h **** #define LV_IMG_ZOOM_NONE            256        /*Value for not zooming the image*/
ARM GAS  /var/folders/0z/tsy30v1j4xl4_7kw94k978ww0000gn/T//cc8A9NTU.s 			page 63


  50:Drivers/lvgl/src/core/../misc/lv_style.h **** LV_EXPORT_CONST_INT(LV_IMG_ZOOM_NONE);
  51:Drivers/lvgl/src/core/../misc/lv_style.h **** 
  52:Drivers/lvgl/src/core/../misc/lv_style.h **** // *INDENT-OFF*
  53:Drivers/lvgl/src/core/../misc/lv_style.h **** #if LV_USE_ASSERT_STYLE
  54:Drivers/lvgl/src/core/../misc/lv_style.h **** #define LV_STYLE_CONST_INIT(var_name, prop_array)                       \
  55:Drivers/lvgl/src/core/../misc/lv_style.h ****     const lv_style_t var_name = {                                       \
  56:Drivers/lvgl/src/core/../misc/lv_style.h ****         .sentinel = LV_STYLE_SENTINEL_VALUE,                            \
  57:Drivers/lvgl/src/core/../misc/lv_style.h ****         .v_p = { .const_props = prop_array },                           \
  58:Drivers/lvgl/src/core/../misc/lv_style.h ****         .has_group = 0xFF,                                              \
  59:Drivers/lvgl/src/core/../misc/lv_style.h ****         .prop1 = LV_STYLE_PROP_ANY,                                     \
  60:Drivers/lvgl/src/core/../misc/lv_style.h ****         .prop_cnt = (sizeof(prop_array) / sizeof((prop_array)[0])),     \
  61:Drivers/lvgl/src/core/../misc/lv_style.h ****     }
  62:Drivers/lvgl/src/core/../misc/lv_style.h **** #else
  63:Drivers/lvgl/src/core/../misc/lv_style.h **** #define LV_STYLE_CONST_INIT(var_name, prop_array)                       \
  64:Drivers/lvgl/src/core/../misc/lv_style.h ****     const lv_style_t var_name = {                                       \
  65:Drivers/lvgl/src/core/../misc/lv_style.h ****         .v_p = { .const_props = prop_array },                           \
  66:Drivers/lvgl/src/core/../misc/lv_style.h ****         .has_group = 0xFF,                                              \
  67:Drivers/lvgl/src/core/../misc/lv_style.h ****         .prop1 = LV_STYLE_PROP_ANY,                                     \
  68:Drivers/lvgl/src/core/../misc/lv_style.h ****         .prop_cnt = (sizeof(prop_array) / sizeof((prop_array)[0])),     \
  69:Drivers/lvgl/src/core/../misc/lv_style.h ****     }
  70:Drivers/lvgl/src/core/../misc/lv_style.h **** #endif
  71:Drivers/lvgl/src/core/../misc/lv_style.h **** // *INDENT-ON*
  72:Drivers/lvgl/src/core/../misc/lv_style.h **** 
  73:Drivers/lvgl/src/core/../misc/lv_style.h **** #define LV_STYLE_PROP_META_INHERIT 0x8000
  74:Drivers/lvgl/src/core/../misc/lv_style.h **** #define LV_STYLE_PROP_META_INITIAL 0x4000
  75:Drivers/lvgl/src/core/../misc/lv_style.h **** #define LV_STYLE_PROP_META_MASK (LV_STYLE_PROP_META_INHERIT | LV_STYLE_PROP_META_INITIAL)
  76:Drivers/lvgl/src/core/../misc/lv_style.h **** 
  77:Drivers/lvgl/src/core/../misc/lv_style.h **** #define LV_STYLE_PROP_ID_MASK(prop) ((lv_style_prop_t)((prop) & ~LV_STYLE_PROP_META_MASK))
  78:Drivers/lvgl/src/core/../misc/lv_style.h **** 
  79:Drivers/lvgl/src/core/../misc/lv_style.h **** /**********************
  80:Drivers/lvgl/src/core/../misc/lv_style.h ****  *      TYPEDEFS
  81:Drivers/lvgl/src/core/../misc/lv_style.h ****  **********************/
  82:Drivers/lvgl/src/core/../misc/lv_style.h **** 
  83:Drivers/lvgl/src/core/../misc/lv_style.h **** /**
  84:Drivers/lvgl/src/core/../misc/lv_style.h ****  * Possible options how to blend opaque drawings
  85:Drivers/lvgl/src/core/../misc/lv_style.h ****  */
  86:Drivers/lvgl/src/core/../misc/lv_style.h **** enum {
  87:Drivers/lvgl/src/core/../misc/lv_style.h ****     LV_BLEND_MODE_NORMAL,     /**< Simply mix according to the opacity value*/
  88:Drivers/lvgl/src/core/../misc/lv_style.h ****     LV_BLEND_MODE_ADDITIVE,   /**< Add the respective color channels*/
  89:Drivers/lvgl/src/core/../misc/lv_style.h ****     LV_BLEND_MODE_SUBTRACTIVE,/**< Subtract the foreground from the background*/
  90:Drivers/lvgl/src/core/../misc/lv_style.h ****     LV_BLEND_MODE_MULTIPLY,   /**< Multiply the foreground and background*/
  91:Drivers/lvgl/src/core/../misc/lv_style.h ****     LV_BLEND_MODE_REPLACE,    /**< Replace background with foreground in the area*/
  92:Drivers/lvgl/src/core/../misc/lv_style.h **** };
  93:Drivers/lvgl/src/core/../misc/lv_style.h **** 
  94:Drivers/lvgl/src/core/../misc/lv_style.h **** typedef uint8_t lv_blend_mode_t;
  95:Drivers/lvgl/src/core/../misc/lv_style.h **** 
  96:Drivers/lvgl/src/core/../misc/lv_style.h **** /**
  97:Drivers/lvgl/src/core/../misc/lv_style.h ****  * Some options to apply decorations on texts.
  98:Drivers/lvgl/src/core/../misc/lv_style.h ****  * 'OR'ed values can be used.
  99:Drivers/lvgl/src/core/../misc/lv_style.h ****  */
 100:Drivers/lvgl/src/core/../misc/lv_style.h **** enum {
 101:Drivers/lvgl/src/core/../misc/lv_style.h ****     LV_TEXT_DECOR_NONE          = 0x00,
 102:Drivers/lvgl/src/core/../misc/lv_style.h ****     LV_TEXT_DECOR_UNDERLINE     = 0x01,
 103:Drivers/lvgl/src/core/../misc/lv_style.h ****     LV_TEXT_DECOR_STRIKETHROUGH = 0x02,
 104:Drivers/lvgl/src/core/../misc/lv_style.h **** };
 105:Drivers/lvgl/src/core/../misc/lv_style.h **** 
 106:Drivers/lvgl/src/core/../misc/lv_style.h **** typedef uint8_t lv_text_decor_t;
ARM GAS  /var/folders/0z/tsy30v1j4xl4_7kw94k978ww0000gn/T//cc8A9NTU.s 			page 64


 107:Drivers/lvgl/src/core/../misc/lv_style.h **** 
 108:Drivers/lvgl/src/core/../misc/lv_style.h **** /**
 109:Drivers/lvgl/src/core/../misc/lv_style.h ****  * Selects on which sides border should be drawn
 110:Drivers/lvgl/src/core/../misc/lv_style.h ****  * 'OR'ed values can be used.
 111:Drivers/lvgl/src/core/../misc/lv_style.h ****  */
 112:Drivers/lvgl/src/core/../misc/lv_style.h **** enum {
 113:Drivers/lvgl/src/core/../misc/lv_style.h ****     LV_BORDER_SIDE_NONE     = 0x00,
 114:Drivers/lvgl/src/core/../misc/lv_style.h ****     LV_BORDER_SIDE_BOTTOM   = 0x01,
 115:Drivers/lvgl/src/core/../misc/lv_style.h ****     LV_BORDER_SIDE_TOP      = 0x02,
 116:Drivers/lvgl/src/core/../misc/lv_style.h ****     LV_BORDER_SIDE_LEFT     = 0x04,
 117:Drivers/lvgl/src/core/../misc/lv_style.h ****     LV_BORDER_SIDE_RIGHT    = 0x08,
 118:Drivers/lvgl/src/core/../misc/lv_style.h ****     LV_BORDER_SIDE_FULL     = 0x0F,
 119:Drivers/lvgl/src/core/../misc/lv_style.h ****     LV_BORDER_SIDE_INTERNAL = 0x10, /**< FOR matrix-like objects (e.g. Button matrix)*/
 120:Drivers/lvgl/src/core/../misc/lv_style.h **** };
 121:Drivers/lvgl/src/core/../misc/lv_style.h **** typedef uint8_t lv_border_side_t;
 122:Drivers/lvgl/src/core/../misc/lv_style.h **** 
 123:Drivers/lvgl/src/core/../misc/lv_style.h **** /**
 124:Drivers/lvgl/src/core/../misc/lv_style.h ****  * The direction of the gradient.
 125:Drivers/lvgl/src/core/../misc/lv_style.h ****  */
 126:Drivers/lvgl/src/core/../misc/lv_style.h **** enum {
 127:Drivers/lvgl/src/core/../misc/lv_style.h ****     LV_GRAD_DIR_NONE, /**< No gradient (the `grad_color` property is ignored)*/
 128:Drivers/lvgl/src/core/../misc/lv_style.h ****     LV_GRAD_DIR_VER,  /**< Vertical (top to bottom) gradient*/
 129:Drivers/lvgl/src/core/../misc/lv_style.h ****     LV_GRAD_DIR_HOR,  /**< Horizontal (left to right) gradient*/
 130:Drivers/lvgl/src/core/../misc/lv_style.h **** };
 131:Drivers/lvgl/src/core/../misc/lv_style.h **** 
 132:Drivers/lvgl/src/core/../misc/lv_style.h **** typedef uint8_t lv_grad_dir_t;
 133:Drivers/lvgl/src/core/../misc/lv_style.h **** 
 134:Drivers/lvgl/src/core/../misc/lv_style.h **** /**
 135:Drivers/lvgl/src/core/../misc/lv_style.h ****  * The dithering algorithm for the gradient
 136:Drivers/lvgl/src/core/../misc/lv_style.h ****  * Depends on LV_DITHER_GRADIENT
 137:Drivers/lvgl/src/core/../misc/lv_style.h ****  */
 138:Drivers/lvgl/src/core/../misc/lv_style.h **** enum {
 139:Drivers/lvgl/src/core/../misc/lv_style.h ****     LV_DITHER_NONE,     /**< No dithering, colors are just quantized to the output resolution*/
 140:Drivers/lvgl/src/core/../misc/lv_style.h ****     LV_DITHER_ORDERED,  /**< Ordered dithering. Faster to compute and use less memory but lower qua
 141:Drivers/lvgl/src/core/../misc/lv_style.h ****     LV_DITHER_ERR_DIFF, /**< Error diffusion mode. Slower to compute and use more memory but give h
 142:Drivers/lvgl/src/core/../misc/lv_style.h **** };
 143:Drivers/lvgl/src/core/../misc/lv_style.h **** 
 144:Drivers/lvgl/src/core/../misc/lv_style.h **** typedef uint8_t lv_dither_mode_t;
 145:Drivers/lvgl/src/core/../misc/lv_style.h **** 
 146:Drivers/lvgl/src/core/../misc/lv_style.h **** /** A gradient stop definition.
 147:Drivers/lvgl/src/core/../misc/lv_style.h ****  *  This matches a color and a position in a virtual 0-255 scale.
 148:Drivers/lvgl/src/core/../misc/lv_style.h ****  */
 149:Drivers/lvgl/src/core/../misc/lv_style.h **** typedef struct {
 150:Drivers/lvgl/src/core/../misc/lv_style.h ****     lv_color_t color;   /**< The stop color */
 151:Drivers/lvgl/src/core/../misc/lv_style.h ****     uint8_t    frac;    /**< The stop position in 1/255 unit */
 152:Drivers/lvgl/src/core/../misc/lv_style.h **** } lv_gradient_stop_t;
 153:Drivers/lvgl/src/core/../misc/lv_style.h **** 
 154:Drivers/lvgl/src/core/../misc/lv_style.h **** /** A descriptor of a gradient. */
 155:Drivers/lvgl/src/core/../misc/lv_style.h **** typedef struct {
 156:Drivers/lvgl/src/core/../misc/lv_style.h ****     lv_gradient_stop_t   stops[LV_GRADIENT_MAX_STOPS]; /**< A gradient stop array */
 157:Drivers/lvgl/src/core/../misc/lv_style.h ****     uint8_t              stops_count;                  /**< The number of used stops in the array *
 158:Drivers/lvgl/src/core/../misc/lv_style.h ****     lv_grad_dir_t        dir : 3;                      /**< The gradient direction.
 159:Drivers/lvgl/src/core/../misc/lv_style.h ****                                                         * Any of LV_GRAD_DIR_HOR, LV_GRAD_DIR_VER, 
 160:Drivers/lvgl/src/core/../misc/lv_style.h ****     lv_dither_mode_t     dither : 3;                   /**< Whether to dither the gradient or not.
 161:Drivers/lvgl/src/core/../misc/lv_style.h ****                                                         * Any of LV_DITHER_NONE, LV_DITHER_ORDERED,
 162:Drivers/lvgl/src/core/../misc/lv_style.h **** } lv_grad_dsc_t;
 163:Drivers/lvgl/src/core/../misc/lv_style.h **** 
ARM GAS  /var/folders/0z/tsy30v1j4xl4_7kw94k978ww0000gn/T//cc8A9NTU.s 			page 65


 164:Drivers/lvgl/src/core/../misc/lv_style.h **** /**
 165:Drivers/lvgl/src/core/../misc/lv_style.h ****  * A common type to handle all the property types in the same way.
 166:Drivers/lvgl/src/core/../misc/lv_style.h ****  */
 167:Drivers/lvgl/src/core/../misc/lv_style.h **** typedef union {
 168:Drivers/lvgl/src/core/../misc/lv_style.h ****     int32_t num;         /**< Number integer number (opacity, enums, booleans or "normal" numbers)*
 169:Drivers/lvgl/src/core/../misc/lv_style.h ****     const void * ptr;    /**< Constant pointers  (font, cone text, etc)*/
 170:Drivers/lvgl/src/core/../misc/lv_style.h ****     lv_color_t color;    /**< Colors*/
 171:Drivers/lvgl/src/core/../misc/lv_style.h **** } lv_style_value_t;
 172:Drivers/lvgl/src/core/../misc/lv_style.h **** 
 173:Drivers/lvgl/src/core/../misc/lv_style.h **** /**
 174:Drivers/lvgl/src/core/../misc/lv_style.h ****  * Enumeration of all built in style properties
 175:Drivers/lvgl/src/core/../misc/lv_style.h ****  *
 176:Drivers/lvgl/src/core/../misc/lv_style.h ****  * Props are split into groups of 16. When adding a new prop to a group, ensure it does not overflo
 177:Drivers/lvgl/src/core/../misc/lv_style.h ****  */
 178:Drivers/lvgl/src/core/../misc/lv_style.h **** typedef enum {
 179:Drivers/lvgl/src/core/../misc/lv_style.h ****     LV_STYLE_PROP_INV               = 0,
 180:Drivers/lvgl/src/core/../misc/lv_style.h **** 
 181:Drivers/lvgl/src/core/../misc/lv_style.h ****     /*Group 0*/
 182:Drivers/lvgl/src/core/../misc/lv_style.h ****     LV_STYLE_WIDTH                  = 1,
 183:Drivers/lvgl/src/core/../misc/lv_style.h ****     LV_STYLE_MIN_WIDTH              = 2,
 184:Drivers/lvgl/src/core/../misc/lv_style.h ****     LV_STYLE_MAX_WIDTH              = 3,
 185:Drivers/lvgl/src/core/../misc/lv_style.h ****     LV_STYLE_HEIGHT                 = 4,
 186:Drivers/lvgl/src/core/../misc/lv_style.h ****     LV_STYLE_MIN_HEIGHT             = 5,
 187:Drivers/lvgl/src/core/../misc/lv_style.h ****     LV_STYLE_MAX_HEIGHT             = 6,
 188:Drivers/lvgl/src/core/../misc/lv_style.h ****     LV_STYLE_X                      = 7,
 189:Drivers/lvgl/src/core/../misc/lv_style.h ****     LV_STYLE_Y                      = 8,
 190:Drivers/lvgl/src/core/../misc/lv_style.h ****     LV_STYLE_ALIGN                  = 9,
 191:Drivers/lvgl/src/core/../misc/lv_style.h ****     LV_STYLE_LAYOUT                 = 10,
 192:Drivers/lvgl/src/core/../misc/lv_style.h ****     LV_STYLE_RADIUS                 = 11,
 193:Drivers/lvgl/src/core/../misc/lv_style.h **** 
 194:Drivers/lvgl/src/core/../misc/lv_style.h ****     /*Group 1*/
 195:Drivers/lvgl/src/core/../misc/lv_style.h ****     LV_STYLE_PAD_TOP                = 16,
 196:Drivers/lvgl/src/core/../misc/lv_style.h ****     LV_STYLE_PAD_BOTTOM             = 17,
 197:Drivers/lvgl/src/core/../misc/lv_style.h ****     LV_STYLE_PAD_LEFT               = 18,
 198:Drivers/lvgl/src/core/../misc/lv_style.h ****     LV_STYLE_PAD_RIGHT              = 19,
 199:Drivers/lvgl/src/core/../misc/lv_style.h ****     LV_STYLE_PAD_ROW                = 20,
 200:Drivers/lvgl/src/core/../misc/lv_style.h ****     LV_STYLE_PAD_COLUMN             = 21,
 201:Drivers/lvgl/src/core/../misc/lv_style.h ****     LV_STYLE_BASE_DIR               = 22,
 202:Drivers/lvgl/src/core/../misc/lv_style.h ****     LV_STYLE_CLIP_CORNER            = 23,
 203:Drivers/lvgl/src/core/../misc/lv_style.h **** 
 204:Drivers/lvgl/src/core/../misc/lv_style.h ****     /*Group 2*/
 205:Drivers/lvgl/src/core/../misc/lv_style.h ****     LV_STYLE_BG_COLOR               = 32,
 206:Drivers/lvgl/src/core/../misc/lv_style.h ****     LV_STYLE_BG_OPA                 = 33,
 207:Drivers/lvgl/src/core/../misc/lv_style.h ****     LV_STYLE_BG_GRAD_COLOR          = 34,
 208:Drivers/lvgl/src/core/../misc/lv_style.h ****     LV_STYLE_BG_GRAD_DIR            = 35,
 209:Drivers/lvgl/src/core/../misc/lv_style.h ****     LV_STYLE_BG_MAIN_STOP           = 36,
 210:Drivers/lvgl/src/core/../misc/lv_style.h ****     LV_STYLE_BG_GRAD_STOP           = 37,
 211:Drivers/lvgl/src/core/../misc/lv_style.h ****     LV_STYLE_BG_GRAD                = 38,
 212:Drivers/lvgl/src/core/../misc/lv_style.h ****     LV_STYLE_BG_DITHER_MODE         = 39,
 213:Drivers/lvgl/src/core/../misc/lv_style.h ****     LV_STYLE_BG_IMG_SRC             = 40,
 214:Drivers/lvgl/src/core/../misc/lv_style.h ****     LV_STYLE_BG_IMG_OPA             = 41,
 215:Drivers/lvgl/src/core/../misc/lv_style.h ****     LV_STYLE_BG_IMG_RECOLOR         = 42,
 216:Drivers/lvgl/src/core/../misc/lv_style.h ****     LV_STYLE_BG_IMG_RECOLOR_OPA     = 43,
 217:Drivers/lvgl/src/core/../misc/lv_style.h ****     LV_STYLE_BG_IMG_TILED           = 44,
 218:Drivers/lvgl/src/core/../misc/lv_style.h **** 
 219:Drivers/lvgl/src/core/../misc/lv_style.h ****     /*Group 3*/
 220:Drivers/lvgl/src/core/../misc/lv_style.h ****     LV_STYLE_BORDER_COLOR           = 48,
ARM GAS  /var/folders/0z/tsy30v1j4xl4_7kw94k978ww0000gn/T//cc8A9NTU.s 			page 66


 221:Drivers/lvgl/src/core/../misc/lv_style.h ****     LV_STYLE_BORDER_OPA             = 49,
 222:Drivers/lvgl/src/core/../misc/lv_style.h ****     LV_STYLE_BORDER_WIDTH           = 50,
 223:Drivers/lvgl/src/core/../misc/lv_style.h ****     LV_STYLE_BORDER_SIDE            = 51,
 224:Drivers/lvgl/src/core/../misc/lv_style.h ****     LV_STYLE_BORDER_POST            = 52,
 225:Drivers/lvgl/src/core/../misc/lv_style.h ****     LV_STYLE_OUTLINE_WIDTH          = 53,
 226:Drivers/lvgl/src/core/../misc/lv_style.h ****     LV_STYLE_OUTLINE_COLOR          = 54,
 227:Drivers/lvgl/src/core/../misc/lv_style.h ****     LV_STYLE_OUTLINE_OPA            = 55,
 228:Drivers/lvgl/src/core/../misc/lv_style.h ****     LV_STYLE_OUTLINE_PAD            = 56,
 229:Drivers/lvgl/src/core/../misc/lv_style.h **** 
 230:Drivers/lvgl/src/core/../misc/lv_style.h ****     /*Group 4*/
 231:Drivers/lvgl/src/core/../misc/lv_style.h ****     LV_STYLE_SHADOW_WIDTH           = 64,
 232:Drivers/lvgl/src/core/../misc/lv_style.h ****     LV_STYLE_SHADOW_OFS_X           = 65,
 233:Drivers/lvgl/src/core/../misc/lv_style.h ****     LV_STYLE_SHADOW_OFS_Y           = 66,
 234:Drivers/lvgl/src/core/../misc/lv_style.h ****     LV_STYLE_SHADOW_SPREAD          = 67,
 235:Drivers/lvgl/src/core/../misc/lv_style.h ****     LV_STYLE_SHADOW_COLOR           = 68,
 236:Drivers/lvgl/src/core/../misc/lv_style.h ****     LV_STYLE_SHADOW_OPA             = 69,
 237:Drivers/lvgl/src/core/../misc/lv_style.h ****     LV_STYLE_IMG_OPA                = 70,
 238:Drivers/lvgl/src/core/../misc/lv_style.h ****     LV_STYLE_IMG_RECOLOR            = 71,
 239:Drivers/lvgl/src/core/../misc/lv_style.h ****     LV_STYLE_IMG_RECOLOR_OPA        = 72,
 240:Drivers/lvgl/src/core/../misc/lv_style.h ****     LV_STYLE_LINE_WIDTH             = 73,
 241:Drivers/lvgl/src/core/../misc/lv_style.h ****     LV_STYLE_LINE_DASH_WIDTH        = 74,
 242:Drivers/lvgl/src/core/../misc/lv_style.h ****     LV_STYLE_LINE_DASH_GAP          = 75,
 243:Drivers/lvgl/src/core/../misc/lv_style.h ****     LV_STYLE_LINE_ROUNDED           = 76,
 244:Drivers/lvgl/src/core/../misc/lv_style.h ****     LV_STYLE_LINE_COLOR             = 77,
 245:Drivers/lvgl/src/core/../misc/lv_style.h ****     LV_STYLE_LINE_OPA               = 78,
 246:Drivers/lvgl/src/core/../misc/lv_style.h **** 
 247:Drivers/lvgl/src/core/../misc/lv_style.h ****     /*Group 5*/
 248:Drivers/lvgl/src/core/../misc/lv_style.h ****     LV_STYLE_ARC_WIDTH              = 80,
 249:Drivers/lvgl/src/core/../misc/lv_style.h ****     LV_STYLE_ARC_ROUNDED            = 81,
 250:Drivers/lvgl/src/core/../misc/lv_style.h ****     LV_STYLE_ARC_COLOR              = 82,
 251:Drivers/lvgl/src/core/../misc/lv_style.h ****     LV_STYLE_ARC_OPA                = 83,
 252:Drivers/lvgl/src/core/../misc/lv_style.h ****     LV_STYLE_ARC_IMG_SRC            = 84,
 253:Drivers/lvgl/src/core/../misc/lv_style.h ****     LV_STYLE_TEXT_COLOR             = 85,
 254:Drivers/lvgl/src/core/../misc/lv_style.h ****     LV_STYLE_TEXT_OPA               = 86,
 255:Drivers/lvgl/src/core/../misc/lv_style.h ****     LV_STYLE_TEXT_FONT              = 87,
 256:Drivers/lvgl/src/core/../misc/lv_style.h ****     LV_STYLE_TEXT_LETTER_SPACE      = 88,
 257:Drivers/lvgl/src/core/../misc/lv_style.h ****     LV_STYLE_TEXT_LINE_SPACE        = 89,
 258:Drivers/lvgl/src/core/../misc/lv_style.h ****     LV_STYLE_TEXT_DECOR             = 90,
 259:Drivers/lvgl/src/core/../misc/lv_style.h ****     LV_STYLE_TEXT_ALIGN             = 91,
 260:Drivers/lvgl/src/core/../misc/lv_style.h **** 
 261:Drivers/lvgl/src/core/../misc/lv_style.h ****     /*Group 6*/
 262:Drivers/lvgl/src/core/../misc/lv_style.h ****     LV_STYLE_OPA                    = 96,
 263:Drivers/lvgl/src/core/../misc/lv_style.h ****     LV_STYLE_OPA_LAYERED            = 97,
 264:Drivers/lvgl/src/core/../misc/lv_style.h ****     LV_STYLE_COLOR_FILTER_DSC       = 98,
 265:Drivers/lvgl/src/core/../misc/lv_style.h ****     LV_STYLE_COLOR_FILTER_OPA       = 99,
 266:Drivers/lvgl/src/core/../misc/lv_style.h ****     LV_STYLE_ANIM                   = 100,
 267:Drivers/lvgl/src/core/../misc/lv_style.h ****     LV_STYLE_ANIM_TIME              = 101,
 268:Drivers/lvgl/src/core/../misc/lv_style.h ****     LV_STYLE_ANIM_SPEED             = 102,
 269:Drivers/lvgl/src/core/../misc/lv_style.h ****     LV_STYLE_TRANSITION             = 103,
 270:Drivers/lvgl/src/core/../misc/lv_style.h ****     LV_STYLE_BLEND_MODE             = 104,
 271:Drivers/lvgl/src/core/../misc/lv_style.h ****     LV_STYLE_TRANSFORM_WIDTH        = 105,
 272:Drivers/lvgl/src/core/../misc/lv_style.h ****     LV_STYLE_TRANSFORM_HEIGHT       = 106,
 273:Drivers/lvgl/src/core/../misc/lv_style.h ****     LV_STYLE_TRANSLATE_X            = 107,
 274:Drivers/lvgl/src/core/../misc/lv_style.h ****     LV_STYLE_TRANSLATE_Y            = 108,
 275:Drivers/lvgl/src/core/../misc/lv_style.h ****     LV_STYLE_TRANSFORM_ZOOM         = 109,
 276:Drivers/lvgl/src/core/../misc/lv_style.h ****     LV_STYLE_TRANSFORM_ANGLE        = 110,
 277:Drivers/lvgl/src/core/../misc/lv_style.h ****     LV_STYLE_TRANSFORM_PIVOT_X      = 111,
ARM GAS  /var/folders/0z/tsy30v1j4xl4_7kw94k978ww0000gn/T//cc8A9NTU.s 			page 67


 278:Drivers/lvgl/src/core/../misc/lv_style.h ****     LV_STYLE_TRANSFORM_PIVOT_Y      = 112,
 279:Drivers/lvgl/src/core/../misc/lv_style.h **** 
 280:Drivers/lvgl/src/core/../misc/lv_style.h ****     _LV_STYLE_LAST_BUILT_IN_PROP     = 112,
 281:Drivers/lvgl/src/core/../misc/lv_style.h ****     _LV_STYLE_NUM_BUILT_IN_PROPS     = _LV_STYLE_LAST_BUILT_IN_PROP + 1,
 282:Drivers/lvgl/src/core/../misc/lv_style.h **** 
 283:Drivers/lvgl/src/core/../misc/lv_style.h ****     LV_STYLE_PROP_ANY                = 0xFFFF,
 284:Drivers/lvgl/src/core/../misc/lv_style.h ****     _LV_STYLE_PROP_CONST             = 0xFFFF /* magic value for const styles */
 285:Drivers/lvgl/src/core/../misc/lv_style.h **** } lv_style_prop_t;
 286:Drivers/lvgl/src/core/../misc/lv_style.h **** 
 287:Drivers/lvgl/src/core/../misc/lv_style.h **** enum {
 288:Drivers/lvgl/src/core/../misc/lv_style.h ****     LV_STYLE_RES_NOT_FOUND,
 289:Drivers/lvgl/src/core/../misc/lv_style.h ****     LV_STYLE_RES_FOUND,
 290:Drivers/lvgl/src/core/../misc/lv_style.h ****     LV_STYLE_RES_INHERIT
 291:Drivers/lvgl/src/core/../misc/lv_style.h **** };
 292:Drivers/lvgl/src/core/../misc/lv_style.h **** 
 293:Drivers/lvgl/src/core/../misc/lv_style.h **** typedef uint8_t lv_style_res_t;
 294:Drivers/lvgl/src/core/../misc/lv_style.h **** 
 295:Drivers/lvgl/src/core/../misc/lv_style.h **** /**
 296:Drivers/lvgl/src/core/../misc/lv_style.h ****  * Descriptor for style transitions
 297:Drivers/lvgl/src/core/../misc/lv_style.h ****  */
 298:Drivers/lvgl/src/core/../misc/lv_style.h **** typedef struct {
 299:Drivers/lvgl/src/core/../misc/lv_style.h ****     const lv_style_prop_t * props; /**< An array with the properties to animate.*/
 300:Drivers/lvgl/src/core/../misc/lv_style.h **** #if LV_USE_USER_DATA
 301:Drivers/lvgl/src/core/../misc/lv_style.h ****     void * user_data;              /**< A custom user data that will be passed to the animation's u
 302:Drivers/lvgl/src/core/../misc/lv_style.h **** #endif
 303:Drivers/lvgl/src/core/../misc/lv_style.h ****     lv_anim_path_cb_t path_xcb;     /**< A path for the animation.*/
 304:Drivers/lvgl/src/core/../misc/lv_style.h ****     uint32_t time;                 /**< Duration of the transition in [ms]*/
 305:Drivers/lvgl/src/core/../misc/lv_style.h ****     uint32_t delay;                /**< Delay before the transition in [ms]*/
 306:Drivers/lvgl/src/core/../misc/lv_style.h **** } lv_style_transition_dsc_t;
 307:Drivers/lvgl/src/core/../misc/lv_style.h **** 
 308:Drivers/lvgl/src/core/../misc/lv_style.h **** /**
 309:Drivers/lvgl/src/core/../misc/lv_style.h ****  * Descriptor of a constant style property.
 310:Drivers/lvgl/src/core/../misc/lv_style.h ****  */
 311:Drivers/lvgl/src/core/../misc/lv_style.h **** typedef struct {
 312:Drivers/lvgl/src/core/../misc/lv_style.h ****     lv_style_prop_t prop;
 313:Drivers/lvgl/src/core/../misc/lv_style.h ****     lv_style_value_t value;
 314:Drivers/lvgl/src/core/../misc/lv_style.h **** } lv_style_const_prop_t;
 315:Drivers/lvgl/src/core/../misc/lv_style.h **** 
 316:Drivers/lvgl/src/core/../misc/lv_style.h **** /**
 317:Drivers/lvgl/src/core/../misc/lv_style.h ****  * Descriptor of a style (a collection of properties and values).
 318:Drivers/lvgl/src/core/../misc/lv_style.h ****  */
 319:Drivers/lvgl/src/core/../misc/lv_style.h **** typedef struct {
 320:Drivers/lvgl/src/core/../misc/lv_style.h **** 
 321:Drivers/lvgl/src/core/../misc/lv_style.h **** #if LV_USE_ASSERT_STYLE
 322:Drivers/lvgl/src/core/../misc/lv_style.h ****     uint32_t sentinel;
 323:Drivers/lvgl/src/core/../misc/lv_style.h **** #endif
 324:Drivers/lvgl/src/core/../misc/lv_style.h **** 
 325:Drivers/lvgl/src/core/../misc/lv_style.h ****     /*If there is only one property store it directly.
 326:Drivers/lvgl/src/core/../misc/lv_style.h ****      *For more properties allocate an array*/
 327:Drivers/lvgl/src/core/../misc/lv_style.h ****     union {
 328:Drivers/lvgl/src/core/../misc/lv_style.h ****         lv_style_value_t value1;
 329:Drivers/lvgl/src/core/../misc/lv_style.h ****         uint8_t * values_and_props;
 330:Drivers/lvgl/src/core/../misc/lv_style.h ****         const lv_style_const_prop_t * const_props;
 331:Drivers/lvgl/src/core/../misc/lv_style.h ****     } v_p;
 332:Drivers/lvgl/src/core/../misc/lv_style.h **** 
 333:Drivers/lvgl/src/core/../misc/lv_style.h ****     uint16_t prop1;
 334:Drivers/lvgl/src/core/../misc/lv_style.h ****     uint8_t has_group;
ARM GAS  /var/folders/0z/tsy30v1j4xl4_7kw94k978ww0000gn/T//cc8A9NTU.s 			page 68


 335:Drivers/lvgl/src/core/../misc/lv_style.h ****     uint8_t prop_cnt;
 336:Drivers/lvgl/src/core/../misc/lv_style.h **** } lv_style_t;
 337:Drivers/lvgl/src/core/../misc/lv_style.h **** 
 338:Drivers/lvgl/src/core/../misc/lv_style.h **** /**********************
 339:Drivers/lvgl/src/core/../misc/lv_style.h ****  * GLOBAL PROTOTYPES
 340:Drivers/lvgl/src/core/../misc/lv_style.h ****  **********************/
 341:Drivers/lvgl/src/core/../misc/lv_style.h **** 
 342:Drivers/lvgl/src/core/../misc/lv_style.h **** 
 343:Drivers/lvgl/src/core/../misc/lv_style.h **** /**
 344:Drivers/lvgl/src/core/../misc/lv_style.h ****  * Initialize a style
 345:Drivers/lvgl/src/core/../misc/lv_style.h ****  * @param style pointer to a style to initialize
 346:Drivers/lvgl/src/core/../misc/lv_style.h ****  * @note Do not call `lv_style_init` on styles that already have some properties
 347:Drivers/lvgl/src/core/../misc/lv_style.h ****  *       because this function won't free the used memory, just sets a default state for the style.
 348:Drivers/lvgl/src/core/../misc/lv_style.h ****  *       In other words be sure to initialize styles only once!
 349:Drivers/lvgl/src/core/../misc/lv_style.h ****  */
 350:Drivers/lvgl/src/core/../misc/lv_style.h **** void lv_style_init(lv_style_t * style);
 351:Drivers/lvgl/src/core/../misc/lv_style.h **** 
 352:Drivers/lvgl/src/core/../misc/lv_style.h **** /**
 353:Drivers/lvgl/src/core/../misc/lv_style.h ****  * Clear all properties from a style and free all allocated memories.
 354:Drivers/lvgl/src/core/../misc/lv_style.h ****  * @param style pointer to a style
 355:Drivers/lvgl/src/core/../misc/lv_style.h ****  */
 356:Drivers/lvgl/src/core/../misc/lv_style.h **** void lv_style_reset(lv_style_t * style);
 357:Drivers/lvgl/src/core/../misc/lv_style.h **** 
 358:Drivers/lvgl/src/core/../misc/lv_style.h **** /**
 359:Drivers/lvgl/src/core/../misc/lv_style.h ****  * Register a new style property for custom usage
 360:Drivers/lvgl/src/core/../misc/lv_style.h ****  * @return a new property ID, or LV_STYLE_PROP_INV if there are no more available.
 361:Drivers/lvgl/src/core/../misc/lv_style.h ****  * @example
 362:Drivers/lvgl/src/core/../misc/lv_style.h ****  * lv_style_prop_t MY_PROP;
 363:Drivers/lvgl/src/core/../misc/lv_style.h ****  * static inline void lv_style_set_my_prop(lv_style_t * style, lv_color_t value) {
 364:Drivers/lvgl/src/core/../misc/lv_style.h ****  * lv_style_value_t v = {.color = value}; lv_style_set_prop(style, MY_PROP, v); }
 365:Drivers/lvgl/src/core/../misc/lv_style.h ****  *
 366:Drivers/lvgl/src/core/../misc/lv_style.h ****  * ...
 367:Drivers/lvgl/src/core/../misc/lv_style.h ****  * MY_PROP = lv_style_register_prop();
 368:Drivers/lvgl/src/core/../misc/lv_style.h ****  * ...
 369:Drivers/lvgl/src/core/../misc/lv_style.h ****  * lv_style_set_my_prop(&style1, lv_palette_main(LV_PALETTE_RED));
 370:Drivers/lvgl/src/core/../misc/lv_style.h ****  */
 371:Drivers/lvgl/src/core/../misc/lv_style.h **** lv_style_prop_t lv_style_register_prop(uint8_t flag);
 372:Drivers/lvgl/src/core/../misc/lv_style.h **** 
 373:Drivers/lvgl/src/core/../misc/lv_style.h **** /**
 374:Drivers/lvgl/src/core/../misc/lv_style.h ****  * Get the number of custom properties that have been registered thus far.
 375:Drivers/lvgl/src/core/../misc/lv_style.h ****  */
 376:Drivers/lvgl/src/core/../misc/lv_style.h **** lv_style_prop_t lv_style_get_num_custom_props(void);
 377:Drivers/lvgl/src/core/../misc/lv_style.h **** 
 378:Drivers/lvgl/src/core/../misc/lv_style.h **** /**
 379:Drivers/lvgl/src/core/../misc/lv_style.h ****  * Remove a property from a style
 380:Drivers/lvgl/src/core/../misc/lv_style.h ****  * @param style pointer to a style
 381:Drivers/lvgl/src/core/../misc/lv_style.h ****  * @param prop  a style property ORed with a state.
 382:Drivers/lvgl/src/core/../misc/lv_style.h ****  * @return true: the property was found and removed; false: the property wasn't found
 383:Drivers/lvgl/src/core/../misc/lv_style.h ****  */
 384:Drivers/lvgl/src/core/../misc/lv_style.h **** bool lv_style_remove_prop(lv_style_t * style, lv_style_prop_t prop);
 385:Drivers/lvgl/src/core/../misc/lv_style.h **** 
 386:Drivers/lvgl/src/core/../misc/lv_style.h **** /**
 387:Drivers/lvgl/src/core/../misc/lv_style.h ****  * Set the value of property in a style.
 388:Drivers/lvgl/src/core/../misc/lv_style.h ****  * This function shouldn't be used directly by the user.
 389:Drivers/lvgl/src/core/../misc/lv_style.h ****  * Instead use `lv_style_set_<prop_name>()`. E.g. `lv_style_set_bg_color()`
 390:Drivers/lvgl/src/core/../misc/lv_style.h ****  * @param style pointer to style
 391:Drivers/lvgl/src/core/../misc/lv_style.h ****  * @param prop the ID of a property (e.g. `LV_STYLE_BG_COLOR`)
ARM GAS  /var/folders/0z/tsy30v1j4xl4_7kw94k978ww0000gn/T//cc8A9NTU.s 			page 69


 392:Drivers/lvgl/src/core/../misc/lv_style.h ****  * @param value `lv_style_value_t` variable in which a field is set according to the type of `prop`
 393:Drivers/lvgl/src/core/../misc/lv_style.h ****  */
 394:Drivers/lvgl/src/core/../misc/lv_style.h **** void lv_style_set_prop(lv_style_t * style, lv_style_prop_t prop, lv_style_value_t value);
 395:Drivers/lvgl/src/core/../misc/lv_style.h **** 
 396:Drivers/lvgl/src/core/../misc/lv_style.h **** /**
 397:Drivers/lvgl/src/core/../misc/lv_style.h ****  * Set a special meta state for a property in a style.
 398:Drivers/lvgl/src/core/../misc/lv_style.h ****  * This function shouldn't be used directly by the user.
 399:Drivers/lvgl/src/core/../misc/lv_style.h ****  * @param style pointer to style
 400:Drivers/lvgl/src/core/../misc/lv_style.h ****  * @param prop the ID of a property (e.g. `LV_STYLE_BG_COLOR`)
 401:Drivers/lvgl/src/core/../misc/lv_style.h ****  * @param meta the meta value to attach to the property in the style
 402:Drivers/lvgl/src/core/../misc/lv_style.h ****  */
 403:Drivers/lvgl/src/core/../misc/lv_style.h **** void lv_style_set_prop_meta(lv_style_t * style, lv_style_prop_t prop, uint16_t meta);
 404:Drivers/lvgl/src/core/../misc/lv_style.h **** 
 405:Drivers/lvgl/src/core/../misc/lv_style.h **** /**
 406:Drivers/lvgl/src/core/../misc/lv_style.h ****  * Get the value of a property
 407:Drivers/lvgl/src/core/../misc/lv_style.h ****  * @param style pointer to a style
 408:Drivers/lvgl/src/core/../misc/lv_style.h ****  * @param prop  the ID of a property
 409:Drivers/lvgl/src/core/../misc/lv_style.h ****  * @param value pointer to a `lv_style_value_t` variable to store the value
 410:Drivers/lvgl/src/core/../misc/lv_style.h ****  * @return LV_RES_INV: the property wasn't found in the style (`value` is unchanged)
 411:Drivers/lvgl/src/core/../misc/lv_style.h ****  *         LV_RES_OK: the property was fond, and `value` is set accordingly
 412:Drivers/lvgl/src/core/../misc/lv_style.h ****  * @note For performance reasons there are no sanity check on `style`
 413:Drivers/lvgl/src/core/../misc/lv_style.h ****  */
 414:Drivers/lvgl/src/core/../misc/lv_style.h **** lv_style_res_t lv_style_get_prop(const lv_style_t * style, lv_style_prop_t prop, lv_style_value_t *
 415:Drivers/lvgl/src/core/../misc/lv_style.h **** 
 416:Drivers/lvgl/src/core/../misc/lv_style.h **** /**
 417:Drivers/lvgl/src/core/../misc/lv_style.h ****  * Initialize a transition descriptor.
 418:Drivers/lvgl/src/core/../misc/lv_style.h ****  * @param tr        pointer to a transition descriptor to initialize
 419:Drivers/lvgl/src/core/../misc/lv_style.h ****  * @param props     an array with the properties to transition. The last element must be zero.
 420:Drivers/lvgl/src/core/../misc/lv_style.h ****  * @param path_cb   an animation path (ease) callback. If `NULL` liner path will be used.
 421:Drivers/lvgl/src/core/../misc/lv_style.h ****  * @param time      duration of the transition in [ms]
 422:Drivers/lvgl/src/core/../misc/lv_style.h ****  * @param delay     delay before the transition in [ms]
 423:Drivers/lvgl/src/core/../misc/lv_style.h ****  * @param user_data any custom data that will be saved in the transition animation and will be avai
 424:Drivers/lvgl/src/core/../misc/lv_style.h ****  * @example
 425:Drivers/lvgl/src/core/../misc/lv_style.h ****  * const static lv_style_prop_t trans_props[] = { LV_STYLE_BG_OPA, LV_STYLE_BG_COLOR, 0 };
 426:Drivers/lvgl/src/core/../misc/lv_style.h ****  *  static lv_style_transition_dsc_t trans1;
 427:Drivers/lvgl/src/core/../misc/lv_style.h ****  *  lv_style_transition_dsc_init(&trans1, trans_props, NULL, 300, 0, NULL);
 428:Drivers/lvgl/src/core/../misc/lv_style.h ****  */
 429:Drivers/lvgl/src/core/../misc/lv_style.h **** void lv_style_transition_dsc_init(lv_style_transition_dsc_t * tr, const lv_style_prop_t props[],
 430:Drivers/lvgl/src/core/../misc/lv_style.h ****                                   lv_anim_path_cb_t path_cb, uint32_t time, uint32_t delay, void * 
 431:Drivers/lvgl/src/core/../misc/lv_style.h **** 
 432:Drivers/lvgl/src/core/../misc/lv_style.h **** /**
 433:Drivers/lvgl/src/core/../misc/lv_style.h ****  * Get the default value of a property
 434:Drivers/lvgl/src/core/../misc/lv_style.h ****  * @param prop the ID of a property
 435:Drivers/lvgl/src/core/../misc/lv_style.h ****  * @return the default value
 436:Drivers/lvgl/src/core/../misc/lv_style.h ****  */
 437:Drivers/lvgl/src/core/../misc/lv_style.h **** lv_style_value_t lv_style_prop_get_default(lv_style_prop_t prop);
 438:Drivers/lvgl/src/core/../misc/lv_style.h **** 
 439:Drivers/lvgl/src/core/../misc/lv_style.h **** /**
 440:Drivers/lvgl/src/core/../misc/lv_style.h ****  * Get the value of a property
 441:Drivers/lvgl/src/core/../misc/lv_style.h ****  * @param style pointer to a style
 442:Drivers/lvgl/src/core/../misc/lv_style.h ****  * @param prop  the ID of a property
 443:Drivers/lvgl/src/core/../misc/lv_style.h ****  * @param value pointer to a `lv_style_value_t` variable to store the value
 444:Drivers/lvgl/src/core/../misc/lv_style.h ****  * @return LV_RES_INV: the property wasn't found in the style (`value` is unchanged)
 445:Drivers/lvgl/src/core/../misc/lv_style.h ****  *         LV_RES_OK: the property was fond, and `value` is set accordingly
 446:Drivers/lvgl/src/core/../misc/lv_style.h ****  * @note For performance reasons there are no sanity check on `style`
 447:Drivers/lvgl/src/core/../misc/lv_style.h ****  * @note This function is the same as ::lv_style_get_prop but inlined. Use it only on performance c
 448:Drivers/lvgl/src/core/../misc/lv_style.h ****  */
ARM GAS  /var/folders/0z/tsy30v1j4xl4_7kw94k978ww0000gn/T//cc8A9NTU.s 			page 70


 449:Drivers/lvgl/src/core/../misc/lv_style.h **** static inline lv_style_res_t lv_style_get_prop_inlined(const lv_style_t * style, lv_style_prop_t pr
 450:Drivers/lvgl/src/core/../misc/lv_style.h ****                                                        lv_style_value_t * value)
 451:Drivers/lvgl/src/core/../misc/lv_style.h **** {
 452:Drivers/lvgl/src/core/../misc/lv_style.h ****     if(style->prop1 == LV_STYLE_PROP_ANY) {
 453:Drivers/lvgl/src/core/../misc/lv_style.h ****         const lv_style_const_prop_t * const_prop;
 454:Drivers/lvgl/src/core/../misc/lv_style.h ****         uint32_t i;
 455:Drivers/lvgl/src/core/../misc/lv_style.h ****         for(i = 0; i < style->prop_cnt; i++) {
 456:Drivers/lvgl/src/core/../misc/lv_style.h ****             const_prop = style->v_p.const_props + i;
 457:Drivers/lvgl/src/core/../misc/lv_style.h ****             lv_style_prop_t prop_id = LV_STYLE_PROP_ID_MASK(const_prop->prop);
 458:Drivers/lvgl/src/core/../misc/lv_style.h ****             if(prop_id == prop) {
 459:Drivers/lvgl/src/core/../misc/lv_style.h ****                 if(const_prop->prop & LV_STYLE_PROP_META_INHERIT)
 460:Drivers/lvgl/src/core/../misc/lv_style.h ****                     return LV_STYLE_RES_INHERIT;
 461:Drivers/lvgl/src/core/../misc/lv_style.h ****                 *value = (const_prop->prop & LV_STYLE_PROP_META_INITIAL) ? lv_style_prop_get_defaul
 462:Drivers/lvgl/src/core/../misc/lv_style.h ****                 return LV_STYLE_RES_FOUND;
 463:Drivers/lvgl/src/core/../misc/lv_style.h ****             }
 464:Drivers/lvgl/src/core/../misc/lv_style.h ****         }
 465:Drivers/lvgl/src/core/../misc/lv_style.h ****         return LV_STYLE_RES_NOT_FOUND;
 466:Drivers/lvgl/src/core/../misc/lv_style.h ****     }
 467:Drivers/lvgl/src/core/../misc/lv_style.h **** 
 468:Drivers/lvgl/src/core/../misc/lv_style.h ****     if(style->prop_cnt == 0) return LV_STYLE_RES_NOT_FOUND;
 469:Drivers/lvgl/src/core/../misc/lv_style.h **** 
 470:Drivers/lvgl/src/core/../misc/lv_style.h ****     if(style->prop_cnt > 1) {
 471:Drivers/lvgl/src/core/../misc/lv_style.h ****         uint8_t * tmp = style->v_p.values_and_props + style->prop_cnt * sizeof(lv_style_value_t);
 472:Drivers/lvgl/src/core/../misc/lv_style.h ****         uint16_t * props = (uint16_t *)tmp;
 473:Drivers/lvgl/src/core/../misc/lv_style.h ****         uint32_t i;
 474:Drivers/lvgl/src/core/../misc/lv_style.h ****         for(i = 0; i < style->prop_cnt; i++) {
 475:Drivers/lvgl/src/core/../misc/lv_style.h ****             lv_style_prop_t prop_id = LV_STYLE_PROP_ID_MASK(props[i]);
 476:Drivers/lvgl/src/core/../misc/lv_style.h ****             if(prop_id == prop) {
 477:Drivers/lvgl/src/core/../misc/lv_style.h ****                 if(props[i] & LV_STYLE_PROP_META_INHERIT)
 478:Drivers/lvgl/src/core/../misc/lv_style.h ****                     return LV_STYLE_RES_INHERIT;
 479:Drivers/lvgl/src/core/../misc/lv_style.h ****                 if(props[i] & LV_STYLE_PROP_META_INITIAL)
 480:Drivers/lvgl/src/core/../misc/lv_style.h ****                     *value = lv_style_prop_get_default(prop_id);
 481:Drivers/lvgl/src/core/../misc/lv_style.h ****                 else {
 482:Drivers/lvgl/src/core/../misc/lv_style.h ****                     lv_style_value_t * values = (lv_style_value_t *)style->v_p.values_and_props;
 483:Drivers/lvgl/src/core/../misc/lv_style.h ****                     *value = values[i];
 484:Drivers/lvgl/src/core/../misc/lv_style.h ****                 }
 485:Drivers/lvgl/src/core/../misc/lv_style.h ****                 return LV_STYLE_RES_FOUND;
 486:Drivers/lvgl/src/core/../misc/lv_style.h ****             }
 487:Drivers/lvgl/src/core/../misc/lv_style.h ****         }
 488:Drivers/lvgl/src/core/../misc/lv_style.h ****     }
 489:Drivers/lvgl/src/core/../misc/lv_style.h ****     else if(LV_STYLE_PROP_ID_MASK(style->prop1) == prop) {
 490:Drivers/lvgl/src/core/../misc/lv_style.h ****         if(style->prop1 & LV_STYLE_PROP_META_INHERIT)
 491:Drivers/lvgl/src/core/../misc/lv_style.h ****             return LV_STYLE_RES_INHERIT;
 492:Drivers/lvgl/src/core/../misc/lv_style.h ****         *value = (style->prop1 & LV_STYLE_PROP_META_INITIAL) ? lv_style_prop_get_default(LV_STYLE_P
 493:Drivers/lvgl/src/core/../misc/lv_style.h ****                                                                                              style-
 494:Drivers/lvgl/src/core/../misc/lv_style.h ****         return LV_STYLE_RES_FOUND;
 495:Drivers/lvgl/src/core/../misc/lv_style.h ****     }
 496:Drivers/lvgl/src/core/../misc/lv_style.h ****     return LV_STYLE_RES_NOT_FOUND;
 497:Drivers/lvgl/src/core/../misc/lv_style.h **** }
 498:Drivers/lvgl/src/core/../misc/lv_style.h **** 
 499:Drivers/lvgl/src/core/../misc/lv_style.h **** /**
 500:Drivers/lvgl/src/core/../misc/lv_style.h ****  * Checks if a style is empty (has no properties)
 501:Drivers/lvgl/src/core/../misc/lv_style.h ****  * @param style pointer to a style
 502:Drivers/lvgl/src/core/../misc/lv_style.h ****  * @return true if the style is empty
 503:Drivers/lvgl/src/core/../misc/lv_style.h ****  */
 504:Drivers/lvgl/src/core/../misc/lv_style.h **** bool lv_style_is_empty(const lv_style_t * style);
 505:Drivers/lvgl/src/core/../misc/lv_style.h **** 
ARM GAS  /var/folders/0z/tsy30v1j4xl4_7kw94k978ww0000gn/T//cc8A9NTU.s 			page 71


 506:Drivers/lvgl/src/core/../misc/lv_style.h **** /**
 507:Drivers/lvgl/src/core/../misc/lv_style.h ****  * Tell the group of a property. If the a property from a group is set in a style the (1 << group) 
 508:Drivers/lvgl/src/core/../misc/lv_style.h ****  * It allows early skipping the style if the property is not exists in the style at all.
 509:Drivers/lvgl/src/core/../misc/lv_style.h ****  * @param prop a style property
 510:Drivers/lvgl/src/core/../misc/lv_style.h ****  * @return the group [0..7] 7 means all the custom properties with index > 112
 511:Drivers/lvgl/src/core/../misc/lv_style.h ****  */
 512:Drivers/lvgl/src/core/../misc/lv_style.h **** uint8_t _lv_style_get_prop_group(lv_style_prop_t prop);
 513:Drivers/lvgl/src/core/../misc/lv_style.h **** 
 514:Drivers/lvgl/src/core/../misc/lv_style.h **** /**
 515:Drivers/lvgl/src/core/../misc/lv_style.h ****  * Get the flags of a built-in or custom property.
 516:Drivers/lvgl/src/core/../misc/lv_style.h ****  *
 517:Drivers/lvgl/src/core/../misc/lv_style.h ****  * @param prop a style property
 518:Drivers/lvgl/src/core/../misc/lv_style.h ****  * @return the flags of the property
 519:Drivers/lvgl/src/core/../misc/lv_style.h ****  */
 520:Drivers/lvgl/src/core/../misc/lv_style.h **** uint8_t _lv_style_prop_lookup_flags(lv_style_prop_t prop);
 521:Drivers/lvgl/src/core/../misc/lv_style.h **** 
 522:Drivers/lvgl/src/core/../misc/lv_style.h **** #include "lv_style_gen.h"
 523:Drivers/lvgl/src/core/../misc/lv_style.h **** 
 524:Drivers/lvgl/src/core/../misc/lv_style.h **** static inline void lv_style_set_size(lv_style_t * style, lv_coord_t value)
 525:Drivers/lvgl/src/core/../misc/lv_style.h **** {
 526:Drivers/lvgl/src/core/../misc/lv_style.h ****     lv_style_set_width(style, value);
 527:Drivers/lvgl/src/core/../misc/lv_style.h ****     lv_style_set_height(style, value);
 528:Drivers/lvgl/src/core/../misc/lv_style.h **** }
 529:Drivers/lvgl/src/core/../misc/lv_style.h **** 
 530:Drivers/lvgl/src/core/../misc/lv_style.h **** static inline void lv_style_set_pad_all(lv_style_t * style, lv_coord_t value)
 531:Drivers/lvgl/src/core/../misc/lv_style.h **** {
 532:Drivers/lvgl/src/core/../misc/lv_style.h ****     lv_style_set_pad_left(style, value);
 533:Drivers/lvgl/src/core/../misc/lv_style.h ****     lv_style_set_pad_right(style, value);
 534:Drivers/lvgl/src/core/../misc/lv_style.h ****     lv_style_set_pad_top(style, value);
 535:Drivers/lvgl/src/core/../misc/lv_style.h ****     lv_style_set_pad_bottom(style, value);
 536:Drivers/lvgl/src/core/../misc/lv_style.h **** }
 537:Drivers/lvgl/src/core/../misc/lv_style.h **** 
 538:Drivers/lvgl/src/core/../misc/lv_style.h **** static inline void lv_style_set_pad_hor(lv_style_t * style, lv_coord_t value)
 539:Drivers/lvgl/src/core/../misc/lv_style.h **** {
 540:Drivers/lvgl/src/core/../misc/lv_style.h ****     lv_style_set_pad_left(style, value);
 541:Drivers/lvgl/src/core/../misc/lv_style.h ****     lv_style_set_pad_right(style, value);
 542:Drivers/lvgl/src/core/../misc/lv_style.h **** }
 543:Drivers/lvgl/src/core/../misc/lv_style.h **** 
 544:Drivers/lvgl/src/core/../misc/lv_style.h **** static inline void lv_style_set_pad_ver(lv_style_t * style, lv_coord_t value)
 545:Drivers/lvgl/src/core/../misc/lv_style.h **** {
 546:Drivers/lvgl/src/core/../misc/lv_style.h ****     lv_style_set_pad_top(style, value);
 547:Drivers/lvgl/src/core/../misc/lv_style.h ****     lv_style_set_pad_bottom(style, value);
 548:Drivers/lvgl/src/core/../misc/lv_style.h **** }
 549:Drivers/lvgl/src/core/../misc/lv_style.h **** 
 550:Drivers/lvgl/src/core/../misc/lv_style.h **** static inline void lv_style_set_pad_gap(lv_style_t * style, lv_coord_t value)
 551:Drivers/lvgl/src/core/../misc/lv_style.h **** {
 552:Drivers/lvgl/src/core/../misc/lv_style.h ****     lv_style_set_pad_row(style, value);
 553:Drivers/lvgl/src/core/../misc/lv_style.h ****     lv_style_set_pad_column(style, value);
 554:Drivers/lvgl/src/core/../misc/lv_style.h **** }
 555:Drivers/lvgl/src/core/../misc/lv_style.h **** 
 556:Drivers/lvgl/src/core/../misc/lv_style.h **** /**
 557:Drivers/lvgl/src/core/../misc/lv_style.h ****  * @brief Check if the style property has a specified behavioral flag.
 558:Drivers/lvgl/src/core/../misc/lv_style.h ****  *
 559:Drivers/lvgl/src/core/../misc/lv_style.h ****  * Do not pass multiple flags to this function as backwards-compatibility is not guaranteed
 560:Drivers/lvgl/src/core/../misc/lv_style.h ****  * for that.
 561:Drivers/lvgl/src/core/../misc/lv_style.h ****  *
 562:Drivers/lvgl/src/core/../misc/lv_style.h ****  * @param prop Property ID
ARM GAS  /var/folders/0z/tsy30v1j4xl4_7kw94k978ww0000gn/T//cc8A9NTU.s 			page 72


 563:Drivers/lvgl/src/core/../misc/lv_style.h ****  * @param flag Flag
 564:Drivers/lvgl/src/core/../misc/lv_style.h ****  * @return true if the flag is set for this property
 565:Drivers/lvgl/src/core/../misc/lv_style.h ****  */
 566:Drivers/lvgl/src/core/../misc/lv_style.h **** static inline bool lv_style_prop_has_flag(lv_style_prop_t prop, uint8_t flag)
 1871              		.loc 3 566 20 view .LVU564
 1872              	.LBB112:
 567:Drivers/lvgl/src/core/../misc/lv_style.h **** {
 568:Drivers/lvgl/src/core/../misc/lv_style.h ****     return _lv_style_prop_lookup_flags(prop) & flag;
 1873              		.loc 3 568 5 view .LVU565
 1874              		.loc 3 568 12 is_stmt 0 view .LVU566
 1875 000c 1046     		mov	r0, r2
 1876              	.LVL202:
 1877              		.loc 3 568 12 view .LVU567
 1878 000e FFF7FEFF 		bl	_lv_style_prop_lookup_flags
 1879              	.LVL203:
 1880              		.loc 3 568 46 view .LVU568
 1881 0012 00F00108 		and	r8, r0, #1
 1882              	.LVL204:
 1883              		.loc 3 568 46 view .LVU569
 1884              	.LBE112:
 1885              	.LBE111:
 227:Drivers/lvgl/src/core/lv_obj_style.c ****     while(obj) {
 1886              		.loc 1 227 5 is_stmt 1 view .LVU570
 228:Drivers/lvgl/src/core/lv_obj_style.c ****         found = get_prop_core(obj, part, prop, &value_act);
 1887              		.loc 1 228 5 view .LVU571
 227:Drivers/lvgl/src/core/lv_obj_style.c ****     while(obj) {
 1888              		.loc 1 227 20 is_stmt 0 view .LVU572
 1889 0016 0024     		movs	r4, #0
 228:Drivers/lvgl/src/core/lv_obj_style.c ****         found = get_prop_core(obj, part, prop, &value_act);
 1890              		.loc 1 228 10 view .LVU573
 1891 0018 03E0     		b	.L127
 1892              	.LVL205:
 1893              	.L129:
 240:Drivers/lvgl/src/core/lv_obj_style.c ****     }
 1894              		.loc 1 240 9 is_stmt 1 view .LVU574
 240:Drivers/lvgl/src/core/lv_obj_style.c ****     }
 1895              		.loc 1 240 15 is_stmt 0 view .LVU575
 1896 001a 2846     		mov	r0, r5
 1897              	.LVL206:
 240:Drivers/lvgl/src/core/lv_obj_style.c ****     }
 1898              		.loc 1 240 15 view .LVU576
 1899 001c FFF7FEFF 		bl	lv_obj_get_parent
 1900              	.LVL207:
 1901 0020 0546     		mov	r5, r0
 1902              	.LVL208:
 1903              	.L127:
 228:Drivers/lvgl/src/core/lv_obj_style.c ****         found = get_prop_core(obj, part, prop, &value_act);
 1904              		.loc 1 228 11 is_stmt 1 view .LVU577
 1905 0022 8DB1     		cbz	r5, .L128
 229:Drivers/lvgl/src/core/lv_obj_style.c ****         if(found == LV_STYLE_RES_FOUND) break;
 1906              		.loc 1 229 9 view .LVU578
 229:Drivers/lvgl/src/core/lv_obj_style.c ****         if(found == LV_STYLE_RES_FOUND) break;
 1907              		.loc 1 229 17 is_stmt 0 view .LVU579
 1908 0024 01AB     		add	r3, sp, #4
 1909 0026 3A46     		mov	r2, r7
 1910 0028 3146     		mov	r1, r6
 1911 002a 2846     		mov	r0, r5
ARM GAS  /var/folders/0z/tsy30v1j4xl4_7kw94k978ww0000gn/T//cc8A9NTU.s 			page 73


 1912 002c FFF7FEFF 		bl	get_prop_core
 1913              	.LVL209:
 1914 0030 0446     		mov	r4, r0
 1915              	.LVL210:
 230:Drivers/lvgl/src/core/lv_obj_style.c ****         if(!inheritable) break;
 1916              		.loc 1 230 9 is_stmt 1 view .LVU580
 230:Drivers/lvgl/src/core/lv_obj_style.c ****         if(!inheritable) break;
 1917              		.loc 1 230 11 is_stmt 0 view .LVU581
 1918 0032 0128     		cmp	r0, #1
 1919 0034 08D0     		beq	.L128
 231:Drivers/lvgl/src/core/lv_obj_style.c **** 
 1920              		.loc 1 231 9 is_stmt 1 view .LVU582
 231:Drivers/lvgl/src/core/lv_obj_style.c **** 
 1921              		.loc 1 231 11 is_stmt 0 view .LVU583
 1922 0036 B8F1000F 		cmp	r8, #0
 1923 003a 05D0     		beq	.L128
 234:Drivers/lvgl/src/core/lv_obj_style.c ****             part = LV_PART_MAIN;
 1924              		.loc 1 234 9 is_stmt 1 view .LVU584
 234:Drivers/lvgl/src/core/lv_obj_style.c ****             part = LV_PART_MAIN;
 1925              		.loc 1 234 11 is_stmt 0 view .LVU585
 1926 003c 0228     		cmp	r0, #2
 1927 003e ECD0     		beq	.L129
 234:Drivers/lvgl/src/core/lv_obj_style.c ****             part = LV_PART_MAIN;
 1928              		.loc 1 234 42 discriminator 1 view .LVU586
 1929 0040 002E     		cmp	r6, #0
 1930 0042 EAD0     		beq	.L129
 235:Drivers/lvgl/src/core/lv_obj_style.c ****             continue;
 1931              		.loc 1 235 18 view .LVU587
 1932 0044 0026     		movs	r6, #0
 1933              	.LVL211:
 235:Drivers/lvgl/src/core/lv_obj_style.c ****             continue;
 1934              		.loc 1 235 18 view .LVU588
 1935 0046 ECE7     		b	.L127
 1936              	.LVL212:
 1937              	.L128:
 243:Drivers/lvgl/src/core/lv_obj_style.c ****         if(part == LV_PART_MAIN && (prop == LV_STYLE_WIDTH || prop == LV_STYLE_HEIGHT)) {
 1938              		.loc 1 243 5 is_stmt 1 view .LVU589
 243:Drivers/lvgl/src/core/lv_obj_style.c ****         if(part == LV_PART_MAIN && (prop == LV_STYLE_WIDTH || prop == LV_STYLE_HEIGHT)) {
 1939              		.loc 1 243 7 is_stmt 0 view .LVU590
 1940 0048 012C     		cmp	r4, #1
 1941 004a 08D0     		beq	.L132
 244:Drivers/lvgl/src/core/lv_obj_style.c ****             const lv_obj_class_t * cls = obj->class_p;
 1942              		.loc 1 244 9 is_stmt 1 view .LVU591
 244:Drivers/lvgl/src/core/lv_obj_style.c ****             const lv_obj_class_t * cls = obj->class_p;
 1943              		.loc 1 244 11 is_stmt 0 view .LVU592
 1944 004c 1EB9     		cbnz	r6, .L133
 244:Drivers/lvgl/src/core/lv_obj_style.c ****             const lv_obj_class_t * cls = obj->class_p;
 1945              		.loc 1 244 33 discriminator 1 view .LVU593
 1946 004e 012F     		cmp	r7, #1
 1947 0050 09D0     		beq	.L134
 244:Drivers/lvgl/src/core/lv_obj_style.c ****             const lv_obj_class_t * cls = obj->class_p;
 1948              		.loc 1 244 60 discriminator 2 view .LVU594
 1949 0052 042F     		cmp	r7, #4
 1950 0054 07D0     		beq	.L134
 1951              	.L133:
 264:Drivers/lvgl/src/core/lv_obj_style.c ****         }
 1952              		.loc 1 264 13 is_stmt 1 view .LVU595
ARM GAS  /var/folders/0z/tsy30v1j4xl4_7kw94k978ww0000gn/T//cc8A9NTU.s 			page 74


 264:Drivers/lvgl/src/core/lv_obj_style.c ****         }
 1953              		.loc 1 264 25 is_stmt 0 view .LVU596
 1954 0056 3846     		mov	r0, r7
 1955 0058 FFF7FEFF 		bl	lv_style_prop_get_default
 1956              	.LVL213:
 1957 005c 0190     		str	r0, [sp, #4]
 1958              	.L132:
 267:Drivers/lvgl/src/core/lv_obj_style.c **** }
 1959              		.loc 1 267 5 is_stmt 1 view .LVU597
 268:Drivers/lvgl/src/core/lv_obj_style.c **** 
 1960              		.loc 1 268 1 is_stmt 0 view .LVU598
 1961 005e 0198     		ldr	r0, [sp, #4]
 1962 0060 02B0     		add	sp, sp, #8
 1963              		.cfi_remember_state
 1964              		.cfi_def_cfa_offset 24
 1965              		@ sp needed
 1966 0062 BDE8F081 		pop	{r4, r5, r6, r7, r8, pc}
 1967              	.LVL214:
 1968              	.L134:
 1969              		.cfi_restore_state
 1970              	.LBB113:
 245:Drivers/lvgl/src/core/lv_obj_style.c ****             while(cls) {
 1971              		.loc 1 245 13 is_stmt 1 view .LVU599
 245:Drivers/lvgl/src/core/lv_obj_style.c ****             while(cls) {
 1972              		.loc 1 245 36 is_stmt 0 view .LVU600
 1973 0066 2B68     		ldr	r3, [r5]
 1974              	.LVL215:
 246:Drivers/lvgl/src/core/lv_obj_style.c ****                 if(prop == LV_STYLE_WIDTH) {
 1975              		.loc 1 246 13 is_stmt 1 view .LVU601
 246:Drivers/lvgl/src/core/lv_obj_style.c ****                 if(prop == LV_STYLE_WIDTH) {
 1976              		.loc 1 246 18 is_stmt 0 view .LVU602
 1977 0068 03E0     		b	.L135
 1978              	.L145:
 248:Drivers/lvgl/src/core/lv_obj_style.c ****                 }
 1979              		.loc 1 248 21 is_stmt 1 view .LVU603
 248:Drivers/lvgl/src/core/lv_obj_style.c ****                 }
 1980              		.loc 1 248 27 is_stmt 0 view .LVU604
 1981 006a B3F91420 		ldrsh	r2, [r3, #20]
 248:Drivers/lvgl/src/core/lv_obj_style.c ****                 }
 1982              		.loc 1 248 23 view .LVU605
 1983 006e 3AB9     		cbnz	r2, .L137
 1984              	.L138:
 253:Drivers/lvgl/src/core/lv_obj_style.c ****             }
 1985              		.loc 1 253 17 is_stmt 1 view .LVU606
 253:Drivers/lvgl/src/core/lv_obj_style.c ****             }
 1986              		.loc 1 253 21 is_stmt 0 view .LVU607
 1987 0070 1B68     		ldr	r3, [r3]
 1988              	.LVL216:
 1989              	.L135:
 246:Drivers/lvgl/src/core/lv_obj_style.c ****                 if(prop == LV_STYLE_WIDTH) {
 1990              		.loc 1 246 19 is_stmt 1 view .LVU608
 1991 0072 2BB1     		cbz	r3, .L137
 247:Drivers/lvgl/src/core/lv_obj_style.c ****                     if(cls->width_def != 0) break;
 1992              		.loc 1 247 17 view .LVU609
 247:Drivers/lvgl/src/core/lv_obj_style.c ****                     if(cls->width_def != 0) break;
 1993              		.loc 1 247 19 is_stmt 0 view .LVU610
 1994 0074 012F     		cmp	r7, #1
ARM GAS  /var/folders/0z/tsy30v1j4xl4_7kw94k978ww0000gn/T//cc8A9NTU.s 			page 75


 1995 0076 F8D0     		beq	.L145
 251:Drivers/lvgl/src/core/lv_obj_style.c ****                 }
 1996              		.loc 1 251 21 is_stmt 1 view .LVU611
 251:Drivers/lvgl/src/core/lv_obj_style.c ****                 }
 1997              		.loc 1 251 27 is_stmt 0 view .LVU612
 1998 0078 B3F91620 		ldrsh	r2, [r3, #22]
 251:Drivers/lvgl/src/core/lv_obj_style.c ****                 }
 1999              		.loc 1 251 23 view .LVU613
 2000 007c 002A     		cmp	r2, #0
 2001 007e F7D0     		beq	.L138
 2002              	.L137:
 256:Drivers/lvgl/src/core/lv_obj_style.c ****                 value_act.num = prop == LV_STYLE_WIDTH ? cls->width_def : cls->height_def;
 2003              		.loc 1 256 13 is_stmt 1 view .LVU614
 256:Drivers/lvgl/src/core/lv_obj_style.c ****                 value_act.num = prop == LV_STYLE_WIDTH ? cls->width_def : cls->height_def;
 2004              		.loc 1 256 15 is_stmt 0 view .LVU615
 2005 0080 43B1     		cbz	r3, .L140
 257:Drivers/lvgl/src/core/lv_obj_style.c ****             }
 2006              		.loc 1 257 17 is_stmt 1 view .LVU616
 257:Drivers/lvgl/src/core/lv_obj_style.c ****             }
 2007              		.loc 1 257 73 is_stmt 0 view .LVU617
 2008 0082 012F     		cmp	r7, #1
 2009 0084 03D0     		beq	.L146
 257:Drivers/lvgl/src/core/lv_obj_style.c ****             }
 2010              		.loc 1 257 78 discriminator 2 view .LVU618
 2011 0086 B3F91630 		ldrsh	r3, [r3, #22]
 2012              	.LVL217:
 2013              	.L142:
 257:Drivers/lvgl/src/core/lv_obj_style.c ****             }
 2014              		.loc 1 257 31 discriminator 4 view .LVU619
 2015 008a 0193     		str	r3, [sp, #4]
 2016 008c E7E7     		b	.L132
 2017              	.LVL218:
 2018              	.L146:
 257:Drivers/lvgl/src/core/lv_obj_style.c ****             }
 2019              		.loc 1 257 61 discriminator 1 view .LVU620
 2020 008e B3F91430 		ldrsh	r3, [r3, #20]
 2021              	.LVL219:
 257:Drivers/lvgl/src/core/lv_obj_style.c ****             }
 2022              		.loc 1 257 61 discriminator 1 view .LVU621
 2023 0092 FAE7     		b	.L142
 2024              	.LVL220:
 2025              	.L140:
 260:Drivers/lvgl/src/core/lv_obj_style.c ****             }
 2026              		.loc 1 260 17 is_stmt 1 view .LVU622
 260:Drivers/lvgl/src/core/lv_obj_style.c ****             }
 2027              		.loc 1 260 31 is_stmt 0 view .LVU623
 2028 0094 0023     		movs	r3, #0
 2029              	.LVL221:
 260:Drivers/lvgl/src/core/lv_obj_style.c ****             }
 2030              		.loc 1 260 31 view .LVU624
 2031 0096 0193     		str	r3, [sp, #4]
 2032 0098 E1E7     		b	.L132
 2033              	.LBE113:
 2034              		.cfi_endproc
 2035              	.LFE173:
 2037              		.section	.text.calculate_layer_type,"ax",%progbits
 2038              		.align	1
ARM GAS  /var/folders/0z/tsy30v1j4xl4_7kw94k978ww0000gn/T//cc8A9NTU.s 			page 76


 2039              		.syntax unified
 2040              		.thumb
 2041              		.thumb_func
 2043              	calculate_layer_type:
 2044              	.LVL222:
 2045              	.LFB196:
 880:Drivers/lvgl/src/core/lv_obj_style.c ****     if(lv_obj_get_style_transform_angle(obj, 0) != 0) return LV_LAYER_TYPE_TRANSFORM;
 2046              		.loc 1 880 1 is_stmt 1 view -0
 2047              		.cfi_startproc
 2048              		@ args = 0, pretend = 0, frame = 0
 2049              		@ frame_needed = 0, uses_anonymous_args = 0
 880:Drivers/lvgl/src/core/lv_obj_style.c ****     if(lv_obj_get_style_transform_angle(obj, 0) != 0) return LV_LAYER_TYPE_TRANSFORM;
 2050              		.loc 1 880 1 is_stmt 0 view .LVU626
 2051 0000 10B5     		push	{r4, lr}
 2052              		.cfi_def_cfa_offset 8
 2053              		.cfi_offset 4, -8
 2054              		.cfi_offset 14, -4
 2055 0002 0446     		mov	r4, r0
 881:Drivers/lvgl/src/core/lv_obj_style.c ****     if(lv_obj_get_style_transform_zoom(obj, 0) != 256) return LV_LAYER_TYPE_TRANSFORM;
 2056              		.loc 1 881 5 is_stmt 1 view .LVU627
 2057              	.LVL223:
 2058              	.LBB114:
 2059              	.LBI114:
 2060              		.file 4 "Drivers/lvgl/src/core/lv_obj_style_gen.h"
   1:Drivers/lvgl/src/core/lv_obj_style_gen.h **** static inline lv_coord_t lv_obj_get_style_width(const struct _lv_obj_t * obj, uint32_t part)
   2:Drivers/lvgl/src/core/lv_obj_style_gen.h **** {
   3:Drivers/lvgl/src/core/lv_obj_style_gen.h ****     lv_style_value_t v = lv_obj_get_style_prop(obj, part, LV_STYLE_WIDTH);
   4:Drivers/lvgl/src/core/lv_obj_style_gen.h ****     return (lv_coord_t)v.num;
   5:Drivers/lvgl/src/core/lv_obj_style_gen.h **** }
   6:Drivers/lvgl/src/core/lv_obj_style_gen.h **** 
   7:Drivers/lvgl/src/core/lv_obj_style_gen.h **** static inline lv_coord_t lv_obj_get_style_min_width(const struct _lv_obj_t * obj, uint32_t part)
   8:Drivers/lvgl/src/core/lv_obj_style_gen.h **** {
   9:Drivers/lvgl/src/core/lv_obj_style_gen.h ****     lv_style_value_t v = lv_obj_get_style_prop(obj, part, LV_STYLE_MIN_WIDTH);
  10:Drivers/lvgl/src/core/lv_obj_style_gen.h ****     return (lv_coord_t)v.num;
  11:Drivers/lvgl/src/core/lv_obj_style_gen.h **** }
  12:Drivers/lvgl/src/core/lv_obj_style_gen.h **** 
  13:Drivers/lvgl/src/core/lv_obj_style_gen.h **** static inline lv_coord_t lv_obj_get_style_max_width(const struct _lv_obj_t * obj, uint32_t part)
  14:Drivers/lvgl/src/core/lv_obj_style_gen.h **** {
  15:Drivers/lvgl/src/core/lv_obj_style_gen.h ****     lv_style_value_t v = lv_obj_get_style_prop(obj, part, LV_STYLE_MAX_WIDTH);
  16:Drivers/lvgl/src/core/lv_obj_style_gen.h ****     return (lv_coord_t)v.num;
  17:Drivers/lvgl/src/core/lv_obj_style_gen.h **** }
  18:Drivers/lvgl/src/core/lv_obj_style_gen.h **** 
  19:Drivers/lvgl/src/core/lv_obj_style_gen.h **** static inline lv_coord_t lv_obj_get_style_height(const struct _lv_obj_t * obj, uint32_t part)
  20:Drivers/lvgl/src/core/lv_obj_style_gen.h **** {
  21:Drivers/lvgl/src/core/lv_obj_style_gen.h ****     lv_style_value_t v = lv_obj_get_style_prop(obj, part, LV_STYLE_HEIGHT);
  22:Drivers/lvgl/src/core/lv_obj_style_gen.h ****     return (lv_coord_t)v.num;
  23:Drivers/lvgl/src/core/lv_obj_style_gen.h **** }
  24:Drivers/lvgl/src/core/lv_obj_style_gen.h **** 
  25:Drivers/lvgl/src/core/lv_obj_style_gen.h **** static inline lv_coord_t lv_obj_get_style_min_height(const struct _lv_obj_t * obj, uint32_t part)
  26:Drivers/lvgl/src/core/lv_obj_style_gen.h **** {
  27:Drivers/lvgl/src/core/lv_obj_style_gen.h ****     lv_style_value_t v = lv_obj_get_style_prop(obj, part, LV_STYLE_MIN_HEIGHT);
  28:Drivers/lvgl/src/core/lv_obj_style_gen.h ****     return (lv_coord_t)v.num;
  29:Drivers/lvgl/src/core/lv_obj_style_gen.h **** }
  30:Drivers/lvgl/src/core/lv_obj_style_gen.h **** 
  31:Drivers/lvgl/src/core/lv_obj_style_gen.h **** static inline lv_coord_t lv_obj_get_style_max_height(const struct _lv_obj_t * obj, uint32_t part)
  32:Drivers/lvgl/src/core/lv_obj_style_gen.h **** {
  33:Drivers/lvgl/src/core/lv_obj_style_gen.h ****     lv_style_value_t v = lv_obj_get_style_prop(obj, part, LV_STYLE_MAX_HEIGHT);
ARM GAS  /var/folders/0z/tsy30v1j4xl4_7kw94k978ww0000gn/T//cc8A9NTU.s 			page 77


  34:Drivers/lvgl/src/core/lv_obj_style_gen.h ****     return (lv_coord_t)v.num;
  35:Drivers/lvgl/src/core/lv_obj_style_gen.h **** }
  36:Drivers/lvgl/src/core/lv_obj_style_gen.h **** 
  37:Drivers/lvgl/src/core/lv_obj_style_gen.h **** static inline lv_coord_t lv_obj_get_style_x(const struct _lv_obj_t * obj, uint32_t part)
  38:Drivers/lvgl/src/core/lv_obj_style_gen.h **** {
  39:Drivers/lvgl/src/core/lv_obj_style_gen.h ****     lv_style_value_t v = lv_obj_get_style_prop(obj, part, LV_STYLE_X);
  40:Drivers/lvgl/src/core/lv_obj_style_gen.h ****     return (lv_coord_t)v.num;
  41:Drivers/lvgl/src/core/lv_obj_style_gen.h **** }
  42:Drivers/lvgl/src/core/lv_obj_style_gen.h **** 
  43:Drivers/lvgl/src/core/lv_obj_style_gen.h **** static inline lv_coord_t lv_obj_get_style_y(const struct _lv_obj_t * obj, uint32_t part)
  44:Drivers/lvgl/src/core/lv_obj_style_gen.h **** {
  45:Drivers/lvgl/src/core/lv_obj_style_gen.h ****     lv_style_value_t v = lv_obj_get_style_prop(obj, part, LV_STYLE_Y);
  46:Drivers/lvgl/src/core/lv_obj_style_gen.h ****     return (lv_coord_t)v.num;
  47:Drivers/lvgl/src/core/lv_obj_style_gen.h **** }
  48:Drivers/lvgl/src/core/lv_obj_style_gen.h **** 
  49:Drivers/lvgl/src/core/lv_obj_style_gen.h **** static inline lv_align_t lv_obj_get_style_align(const struct _lv_obj_t * obj, uint32_t part)
  50:Drivers/lvgl/src/core/lv_obj_style_gen.h **** {
  51:Drivers/lvgl/src/core/lv_obj_style_gen.h ****     lv_style_value_t v = lv_obj_get_style_prop(obj, part, LV_STYLE_ALIGN);
  52:Drivers/lvgl/src/core/lv_obj_style_gen.h ****     return (lv_align_t)v.num;
  53:Drivers/lvgl/src/core/lv_obj_style_gen.h **** }
  54:Drivers/lvgl/src/core/lv_obj_style_gen.h **** 
  55:Drivers/lvgl/src/core/lv_obj_style_gen.h **** static inline lv_coord_t lv_obj_get_style_transform_width(const struct _lv_obj_t * obj, uint32_t pa
  56:Drivers/lvgl/src/core/lv_obj_style_gen.h **** {
  57:Drivers/lvgl/src/core/lv_obj_style_gen.h ****     lv_style_value_t v = lv_obj_get_style_prop(obj, part, LV_STYLE_TRANSFORM_WIDTH);
  58:Drivers/lvgl/src/core/lv_obj_style_gen.h ****     return (lv_coord_t)v.num;
  59:Drivers/lvgl/src/core/lv_obj_style_gen.h **** }
  60:Drivers/lvgl/src/core/lv_obj_style_gen.h **** 
  61:Drivers/lvgl/src/core/lv_obj_style_gen.h **** static inline lv_coord_t lv_obj_get_style_transform_height(const struct _lv_obj_t * obj, uint32_t p
  62:Drivers/lvgl/src/core/lv_obj_style_gen.h **** {
  63:Drivers/lvgl/src/core/lv_obj_style_gen.h ****     lv_style_value_t v = lv_obj_get_style_prop(obj, part, LV_STYLE_TRANSFORM_HEIGHT);
  64:Drivers/lvgl/src/core/lv_obj_style_gen.h ****     return (lv_coord_t)v.num;
  65:Drivers/lvgl/src/core/lv_obj_style_gen.h **** }
  66:Drivers/lvgl/src/core/lv_obj_style_gen.h **** 
  67:Drivers/lvgl/src/core/lv_obj_style_gen.h **** static inline lv_coord_t lv_obj_get_style_translate_x(const struct _lv_obj_t * obj, uint32_t part)
  68:Drivers/lvgl/src/core/lv_obj_style_gen.h **** {
  69:Drivers/lvgl/src/core/lv_obj_style_gen.h ****     lv_style_value_t v = lv_obj_get_style_prop(obj, part, LV_STYLE_TRANSLATE_X);
  70:Drivers/lvgl/src/core/lv_obj_style_gen.h ****     return (lv_coord_t)v.num;
  71:Drivers/lvgl/src/core/lv_obj_style_gen.h **** }
  72:Drivers/lvgl/src/core/lv_obj_style_gen.h **** 
  73:Drivers/lvgl/src/core/lv_obj_style_gen.h **** static inline lv_coord_t lv_obj_get_style_translate_y(const struct _lv_obj_t * obj, uint32_t part)
  74:Drivers/lvgl/src/core/lv_obj_style_gen.h **** {
  75:Drivers/lvgl/src/core/lv_obj_style_gen.h ****     lv_style_value_t v = lv_obj_get_style_prop(obj, part, LV_STYLE_TRANSLATE_Y);
  76:Drivers/lvgl/src/core/lv_obj_style_gen.h ****     return (lv_coord_t)v.num;
  77:Drivers/lvgl/src/core/lv_obj_style_gen.h **** }
  78:Drivers/lvgl/src/core/lv_obj_style_gen.h **** 
  79:Drivers/lvgl/src/core/lv_obj_style_gen.h **** static inline lv_coord_t lv_obj_get_style_transform_zoom(const struct _lv_obj_t * obj, uint32_t par
  80:Drivers/lvgl/src/core/lv_obj_style_gen.h **** {
  81:Drivers/lvgl/src/core/lv_obj_style_gen.h ****     lv_style_value_t v = lv_obj_get_style_prop(obj, part, LV_STYLE_TRANSFORM_ZOOM);
  82:Drivers/lvgl/src/core/lv_obj_style_gen.h ****     return (lv_coord_t)v.num;
  83:Drivers/lvgl/src/core/lv_obj_style_gen.h **** }
  84:Drivers/lvgl/src/core/lv_obj_style_gen.h **** 
  85:Drivers/lvgl/src/core/lv_obj_style_gen.h **** static inline lv_coord_t lv_obj_get_style_transform_angle(const struct _lv_obj_t * obj, uint32_t pa
 2061              		.loc 4 85 26 view .LVU628
 2062              	.LBB115:
  86:Drivers/lvgl/src/core/lv_obj_style_gen.h **** {
  87:Drivers/lvgl/src/core/lv_obj_style_gen.h ****     lv_style_value_t v = lv_obj_get_style_prop(obj, part, LV_STYLE_TRANSFORM_ANGLE);
 2063              		.loc 4 87 5 view .LVU629
ARM GAS  /var/folders/0z/tsy30v1j4xl4_7kw94k978ww0000gn/T//cc8A9NTU.s 			page 78


 2064              		.loc 4 87 26 is_stmt 0 view .LVU630
 2065 0004 6E22     		movs	r2, #110
 2066 0006 0021     		movs	r1, #0
 2067 0008 FFF7FEFF 		bl	lv_obj_get_style_prop
 2068              	.LVL224:
  88:Drivers/lvgl/src/core/lv_obj_style_gen.h ****     return (lv_coord_t)v.num;
 2069              		.loc 4 88 5 is_stmt 1 view .LVU631
 2070              		.loc 4 88 12 is_stmt 0 view .LVU632
 2071 000c 00B2     		sxth	r0, r0
 2072              	.LVL225:
 2073              		.loc 4 88 12 view .LVU633
 2074              	.LBE115:
 2075              	.LBE114:
 881:Drivers/lvgl/src/core/lv_obj_style.c ****     if(lv_obj_get_style_transform_zoom(obj, 0) != 256) return LV_LAYER_TYPE_TRANSFORM;
 2076              		.loc 1 881 7 view .LVU634
 2077 000e F0B9     		cbnz	r0, .L149
 882:Drivers/lvgl/src/core/lv_obj_style.c ****     if(lv_obj_get_style_opa_layered(obj, 0) != LV_OPA_COVER) return LV_LAYER_TYPE_SIMPLE;
 2078              		.loc 1 882 5 is_stmt 1 view .LVU635
 2079              	.LVL226:
 2080              	.LBB116:
 2081              	.LBI116:
  79:Drivers/lvgl/src/core/lv_obj_style_gen.h **** {
 2082              		.loc 4 79 26 view .LVU636
 2083              	.LBB117:
  81:Drivers/lvgl/src/core/lv_obj_style_gen.h ****     return (lv_coord_t)v.num;
 2084              		.loc 4 81 5 view .LVU637
  81:Drivers/lvgl/src/core/lv_obj_style_gen.h ****     return (lv_coord_t)v.num;
 2085              		.loc 4 81 26 is_stmt 0 view .LVU638
 2086 0010 6D22     		movs	r2, #109
 2087 0012 0021     		movs	r1, #0
 2088 0014 2046     		mov	r0, r4
 2089 0016 FFF7FEFF 		bl	lv_obj_get_style_prop
 2090              	.LVL227:
  82:Drivers/lvgl/src/core/lv_obj_style_gen.h **** }
 2091              		.loc 4 82 5 is_stmt 1 view .LVU639
  82:Drivers/lvgl/src/core/lv_obj_style_gen.h **** }
 2092              		.loc 4 82 12 is_stmt 0 view .LVU640
 2093 001a 00B2     		sxth	r0, r0
 2094              	.LVL228:
  82:Drivers/lvgl/src/core/lv_obj_style_gen.h **** }
 2095              		.loc 4 82 12 view .LVU641
 2096              	.LBE117:
 2097              	.LBE116:
 882:Drivers/lvgl/src/core/lv_obj_style.c ****     if(lv_obj_get_style_opa_layered(obj, 0) != LV_OPA_COVER) return LV_LAYER_TYPE_SIMPLE;
 2098              		.loc 1 882 7 view .LVU642
 2099 001c B0F5807F 		cmp	r0, #256
 2100 0020 01D0     		beq	.L154
 882:Drivers/lvgl/src/core/lv_obj_style.c ****     if(lv_obj_get_style_opa_layered(obj, 0) != LV_OPA_COVER) return LV_LAYER_TYPE_SIMPLE;
 2101              		.loc 1 882 63 view .LVU643
 2102 0022 0220     		movs	r0, #2
 2103 0024 14E0     		b	.L148
 2104              	.L154:
 883:Drivers/lvgl/src/core/lv_obj_style.c **** #if LV_DRAW_COMPLEX
 2105              		.loc 1 883 5 is_stmt 1 view .LVU644
 2106              	.LVL229:
 2107              	.LBB118:
 2108              	.LBI118:
ARM GAS  /var/folders/0z/tsy30v1j4xl4_7kw94k978ww0000gn/T//cc8A9NTU.s 			page 79


  89:Drivers/lvgl/src/core/lv_obj_style_gen.h **** }
  90:Drivers/lvgl/src/core/lv_obj_style_gen.h **** 
  91:Drivers/lvgl/src/core/lv_obj_style_gen.h **** static inline lv_coord_t lv_obj_get_style_transform_pivot_x(const struct _lv_obj_t * obj, uint32_t 
  92:Drivers/lvgl/src/core/lv_obj_style_gen.h **** {
  93:Drivers/lvgl/src/core/lv_obj_style_gen.h ****     lv_style_value_t v = lv_obj_get_style_prop(obj, part, LV_STYLE_TRANSFORM_PIVOT_X);
  94:Drivers/lvgl/src/core/lv_obj_style_gen.h ****     return (lv_coord_t)v.num;
  95:Drivers/lvgl/src/core/lv_obj_style_gen.h **** }
  96:Drivers/lvgl/src/core/lv_obj_style_gen.h **** 
  97:Drivers/lvgl/src/core/lv_obj_style_gen.h **** static inline lv_coord_t lv_obj_get_style_transform_pivot_y(const struct _lv_obj_t * obj, uint32_t 
  98:Drivers/lvgl/src/core/lv_obj_style_gen.h **** {
  99:Drivers/lvgl/src/core/lv_obj_style_gen.h ****     lv_style_value_t v = lv_obj_get_style_prop(obj, part, LV_STYLE_TRANSFORM_PIVOT_Y);
 100:Drivers/lvgl/src/core/lv_obj_style_gen.h ****     return (lv_coord_t)v.num;
 101:Drivers/lvgl/src/core/lv_obj_style_gen.h **** }
 102:Drivers/lvgl/src/core/lv_obj_style_gen.h **** 
 103:Drivers/lvgl/src/core/lv_obj_style_gen.h **** static inline lv_coord_t lv_obj_get_style_pad_top(const struct _lv_obj_t * obj, uint32_t part)
 104:Drivers/lvgl/src/core/lv_obj_style_gen.h **** {
 105:Drivers/lvgl/src/core/lv_obj_style_gen.h ****     lv_style_value_t v = lv_obj_get_style_prop(obj, part, LV_STYLE_PAD_TOP);
 106:Drivers/lvgl/src/core/lv_obj_style_gen.h ****     return (lv_coord_t)v.num;
 107:Drivers/lvgl/src/core/lv_obj_style_gen.h **** }
 108:Drivers/lvgl/src/core/lv_obj_style_gen.h **** 
 109:Drivers/lvgl/src/core/lv_obj_style_gen.h **** static inline lv_coord_t lv_obj_get_style_pad_bottom(const struct _lv_obj_t * obj, uint32_t part)
 110:Drivers/lvgl/src/core/lv_obj_style_gen.h **** {
 111:Drivers/lvgl/src/core/lv_obj_style_gen.h ****     lv_style_value_t v = lv_obj_get_style_prop(obj, part, LV_STYLE_PAD_BOTTOM);
 112:Drivers/lvgl/src/core/lv_obj_style_gen.h ****     return (lv_coord_t)v.num;
 113:Drivers/lvgl/src/core/lv_obj_style_gen.h **** }
 114:Drivers/lvgl/src/core/lv_obj_style_gen.h **** 
 115:Drivers/lvgl/src/core/lv_obj_style_gen.h **** static inline lv_coord_t lv_obj_get_style_pad_left(const struct _lv_obj_t * obj, uint32_t part)
 116:Drivers/lvgl/src/core/lv_obj_style_gen.h **** {
 117:Drivers/lvgl/src/core/lv_obj_style_gen.h ****     lv_style_value_t v = lv_obj_get_style_prop(obj, part, LV_STYLE_PAD_LEFT);
 118:Drivers/lvgl/src/core/lv_obj_style_gen.h ****     return (lv_coord_t)v.num;
 119:Drivers/lvgl/src/core/lv_obj_style_gen.h **** }
 120:Drivers/lvgl/src/core/lv_obj_style_gen.h **** 
 121:Drivers/lvgl/src/core/lv_obj_style_gen.h **** static inline lv_coord_t lv_obj_get_style_pad_right(const struct _lv_obj_t * obj, uint32_t part)
 122:Drivers/lvgl/src/core/lv_obj_style_gen.h **** {
 123:Drivers/lvgl/src/core/lv_obj_style_gen.h ****     lv_style_value_t v = lv_obj_get_style_prop(obj, part, LV_STYLE_PAD_RIGHT);
 124:Drivers/lvgl/src/core/lv_obj_style_gen.h ****     return (lv_coord_t)v.num;
 125:Drivers/lvgl/src/core/lv_obj_style_gen.h **** }
 126:Drivers/lvgl/src/core/lv_obj_style_gen.h **** 
 127:Drivers/lvgl/src/core/lv_obj_style_gen.h **** static inline lv_coord_t lv_obj_get_style_pad_row(const struct _lv_obj_t * obj, uint32_t part)
 128:Drivers/lvgl/src/core/lv_obj_style_gen.h **** {
 129:Drivers/lvgl/src/core/lv_obj_style_gen.h ****     lv_style_value_t v = lv_obj_get_style_prop(obj, part, LV_STYLE_PAD_ROW);
 130:Drivers/lvgl/src/core/lv_obj_style_gen.h ****     return (lv_coord_t)v.num;
 131:Drivers/lvgl/src/core/lv_obj_style_gen.h **** }
 132:Drivers/lvgl/src/core/lv_obj_style_gen.h **** 
 133:Drivers/lvgl/src/core/lv_obj_style_gen.h **** static inline lv_coord_t lv_obj_get_style_pad_column(const struct _lv_obj_t * obj, uint32_t part)
 134:Drivers/lvgl/src/core/lv_obj_style_gen.h **** {
 135:Drivers/lvgl/src/core/lv_obj_style_gen.h ****     lv_style_value_t v = lv_obj_get_style_prop(obj, part, LV_STYLE_PAD_COLUMN);
 136:Drivers/lvgl/src/core/lv_obj_style_gen.h ****     return (lv_coord_t)v.num;
 137:Drivers/lvgl/src/core/lv_obj_style_gen.h **** }
 138:Drivers/lvgl/src/core/lv_obj_style_gen.h **** 
 139:Drivers/lvgl/src/core/lv_obj_style_gen.h **** static inline lv_color_t lv_obj_get_style_bg_color(const struct _lv_obj_t * obj, uint32_t part)
 140:Drivers/lvgl/src/core/lv_obj_style_gen.h **** {
 141:Drivers/lvgl/src/core/lv_obj_style_gen.h ****     lv_style_value_t v = lv_obj_get_style_prop(obj, part, LV_STYLE_BG_COLOR);
 142:Drivers/lvgl/src/core/lv_obj_style_gen.h ****     return v.color;
 143:Drivers/lvgl/src/core/lv_obj_style_gen.h **** }
 144:Drivers/lvgl/src/core/lv_obj_style_gen.h **** 
 145:Drivers/lvgl/src/core/lv_obj_style_gen.h **** static inline lv_color_t lv_obj_get_style_bg_color_filtered(const struct _lv_obj_t * obj, uint32_t 
ARM GAS  /var/folders/0z/tsy30v1j4xl4_7kw94k978ww0000gn/T//cc8A9NTU.s 			page 80


 146:Drivers/lvgl/src/core/lv_obj_style_gen.h **** {
 147:Drivers/lvgl/src/core/lv_obj_style_gen.h ****     lv_style_value_t v = _lv_obj_style_apply_color_filter(obj, part, lv_obj_get_style_prop(obj, par
 148:Drivers/lvgl/src/core/lv_obj_style_gen.h ****     return v.color;
 149:Drivers/lvgl/src/core/lv_obj_style_gen.h **** }
 150:Drivers/lvgl/src/core/lv_obj_style_gen.h **** 
 151:Drivers/lvgl/src/core/lv_obj_style_gen.h **** static inline lv_opa_t lv_obj_get_style_bg_opa(const struct _lv_obj_t * obj, uint32_t part)
 152:Drivers/lvgl/src/core/lv_obj_style_gen.h **** {
 153:Drivers/lvgl/src/core/lv_obj_style_gen.h ****     lv_style_value_t v = lv_obj_get_style_prop(obj, part, LV_STYLE_BG_OPA);
 154:Drivers/lvgl/src/core/lv_obj_style_gen.h ****     return (lv_opa_t)v.num;
 155:Drivers/lvgl/src/core/lv_obj_style_gen.h **** }
 156:Drivers/lvgl/src/core/lv_obj_style_gen.h **** 
 157:Drivers/lvgl/src/core/lv_obj_style_gen.h **** static inline lv_color_t lv_obj_get_style_bg_grad_color(const struct _lv_obj_t * obj, uint32_t part
 158:Drivers/lvgl/src/core/lv_obj_style_gen.h **** {
 159:Drivers/lvgl/src/core/lv_obj_style_gen.h ****     lv_style_value_t v = lv_obj_get_style_prop(obj, part, LV_STYLE_BG_GRAD_COLOR);
 160:Drivers/lvgl/src/core/lv_obj_style_gen.h ****     return v.color;
 161:Drivers/lvgl/src/core/lv_obj_style_gen.h **** }
 162:Drivers/lvgl/src/core/lv_obj_style_gen.h **** 
 163:Drivers/lvgl/src/core/lv_obj_style_gen.h **** static inline lv_color_t lv_obj_get_style_bg_grad_color_filtered(const struct _lv_obj_t * obj, uint
 164:Drivers/lvgl/src/core/lv_obj_style_gen.h **** {
 165:Drivers/lvgl/src/core/lv_obj_style_gen.h ****     lv_style_value_t v = _lv_obj_style_apply_color_filter(obj, part, lv_obj_get_style_prop(obj, par
 166:Drivers/lvgl/src/core/lv_obj_style_gen.h ****     return v.color;
 167:Drivers/lvgl/src/core/lv_obj_style_gen.h **** }
 168:Drivers/lvgl/src/core/lv_obj_style_gen.h **** 
 169:Drivers/lvgl/src/core/lv_obj_style_gen.h **** static inline lv_grad_dir_t lv_obj_get_style_bg_grad_dir(const struct _lv_obj_t * obj, uint32_t par
 170:Drivers/lvgl/src/core/lv_obj_style_gen.h **** {
 171:Drivers/lvgl/src/core/lv_obj_style_gen.h ****     lv_style_value_t v = lv_obj_get_style_prop(obj, part, LV_STYLE_BG_GRAD_DIR);
 172:Drivers/lvgl/src/core/lv_obj_style_gen.h ****     return (lv_grad_dir_t)v.num;
 173:Drivers/lvgl/src/core/lv_obj_style_gen.h **** }
 174:Drivers/lvgl/src/core/lv_obj_style_gen.h **** 
 175:Drivers/lvgl/src/core/lv_obj_style_gen.h **** static inline lv_coord_t lv_obj_get_style_bg_main_stop(const struct _lv_obj_t * obj, uint32_t part)
 176:Drivers/lvgl/src/core/lv_obj_style_gen.h **** {
 177:Drivers/lvgl/src/core/lv_obj_style_gen.h ****     lv_style_value_t v = lv_obj_get_style_prop(obj, part, LV_STYLE_BG_MAIN_STOP);
 178:Drivers/lvgl/src/core/lv_obj_style_gen.h ****     return (lv_coord_t)v.num;
 179:Drivers/lvgl/src/core/lv_obj_style_gen.h **** }
 180:Drivers/lvgl/src/core/lv_obj_style_gen.h **** 
 181:Drivers/lvgl/src/core/lv_obj_style_gen.h **** static inline lv_coord_t lv_obj_get_style_bg_grad_stop(const struct _lv_obj_t * obj, uint32_t part)
 182:Drivers/lvgl/src/core/lv_obj_style_gen.h **** {
 183:Drivers/lvgl/src/core/lv_obj_style_gen.h ****     lv_style_value_t v = lv_obj_get_style_prop(obj, part, LV_STYLE_BG_GRAD_STOP);
 184:Drivers/lvgl/src/core/lv_obj_style_gen.h ****     return (lv_coord_t)v.num;
 185:Drivers/lvgl/src/core/lv_obj_style_gen.h **** }
 186:Drivers/lvgl/src/core/lv_obj_style_gen.h **** 
 187:Drivers/lvgl/src/core/lv_obj_style_gen.h **** static inline const lv_grad_dsc_t * lv_obj_get_style_bg_grad(const struct _lv_obj_t * obj, uint32_t
 188:Drivers/lvgl/src/core/lv_obj_style_gen.h **** {
 189:Drivers/lvgl/src/core/lv_obj_style_gen.h ****     lv_style_value_t v = lv_obj_get_style_prop(obj, part, LV_STYLE_BG_GRAD);
 190:Drivers/lvgl/src/core/lv_obj_style_gen.h ****     return (const lv_grad_dsc_t *)v.ptr;
 191:Drivers/lvgl/src/core/lv_obj_style_gen.h **** }
 192:Drivers/lvgl/src/core/lv_obj_style_gen.h **** 
 193:Drivers/lvgl/src/core/lv_obj_style_gen.h **** static inline lv_dither_mode_t lv_obj_get_style_bg_dither_mode(const struct _lv_obj_t * obj, uint32
 194:Drivers/lvgl/src/core/lv_obj_style_gen.h **** {
 195:Drivers/lvgl/src/core/lv_obj_style_gen.h ****     lv_style_value_t v = lv_obj_get_style_prop(obj, part, LV_STYLE_BG_DITHER_MODE);
 196:Drivers/lvgl/src/core/lv_obj_style_gen.h ****     return (lv_dither_mode_t)v.num;
 197:Drivers/lvgl/src/core/lv_obj_style_gen.h **** }
 198:Drivers/lvgl/src/core/lv_obj_style_gen.h **** 
 199:Drivers/lvgl/src/core/lv_obj_style_gen.h **** static inline const void * lv_obj_get_style_bg_img_src(const struct _lv_obj_t * obj, uint32_t part)
 200:Drivers/lvgl/src/core/lv_obj_style_gen.h **** {
 201:Drivers/lvgl/src/core/lv_obj_style_gen.h ****     lv_style_value_t v = lv_obj_get_style_prop(obj, part, LV_STYLE_BG_IMG_SRC);
 202:Drivers/lvgl/src/core/lv_obj_style_gen.h ****     return (const void *)v.ptr;
ARM GAS  /var/folders/0z/tsy30v1j4xl4_7kw94k978ww0000gn/T//cc8A9NTU.s 			page 81


 203:Drivers/lvgl/src/core/lv_obj_style_gen.h **** }
 204:Drivers/lvgl/src/core/lv_obj_style_gen.h **** 
 205:Drivers/lvgl/src/core/lv_obj_style_gen.h **** static inline lv_opa_t lv_obj_get_style_bg_img_opa(const struct _lv_obj_t * obj, uint32_t part)
 206:Drivers/lvgl/src/core/lv_obj_style_gen.h **** {
 207:Drivers/lvgl/src/core/lv_obj_style_gen.h ****     lv_style_value_t v = lv_obj_get_style_prop(obj, part, LV_STYLE_BG_IMG_OPA);
 208:Drivers/lvgl/src/core/lv_obj_style_gen.h ****     return (lv_opa_t)v.num;
 209:Drivers/lvgl/src/core/lv_obj_style_gen.h **** }
 210:Drivers/lvgl/src/core/lv_obj_style_gen.h **** 
 211:Drivers/lvgl/src/core/lv_obj_style_gen.h **** static inline lv_color_t lv_obj_get_style_bg_img_recolor(const struct _lv_obj_t * obj, uint32_t par
 212:Drivers/lvgl/src/core/lv_obj_style_gen.h **** {
 213:Drivers/lvgl/src/core/lv_obj_style_gen.h ****     lv_style_value_t v = lv_obj_get_style_prop(obj, part, LV_STYLE_BG_IMG_RECOLOR);
 214:Drivers/lvgl/src/core/lv_obj_style_gen.h ****     return v.color;
 215:Drivers/lvgl/src/core/lv_obj_style_gen.h **** }
 216:Drivers/lvgl/src/core/lv_obj_style_gen.h **** 
 217:Drivers/lvgl/src/core/lv_obj_style_gen.h **** static inline lv_color_t lv_obj_get_style_bg_img_recolor_filtered(const struct _lv_obj_t * obj, uin
 218:Drivers/lvgl/src/core/lv_obj_style_gen.h **** {
 219:Drivers/lvgl/src/core/lv_obj_style_gen.h ****     lv_style_value_t v = _lv_obj_style_apply_color_filter(obj, part, lv_obj_get_style_prop(obj, par
 220:Drivers/lvgl/src/core/lv_obj_style_gen.h ****     return v.color;
 221:Drivers/lvgl/src/core/lv_obj_style_gen.h **** }
 222:Drivers/lvgl/src/core/lv_obj_style_gen.h **** 
 223:Drivers/lvgl/src/core/lv_obj_style_gen.h **** static inline lv_opa_t lv_obj_get_style_bg_img_recolor_opa(const struct _lv_obj_t * obj, uint32_t p
 224:Drivers/lvgl/src/core/lv_obj_style_gen.h **** {
 225:Drivers/lvgl/src/core/lv_obj_style_gen.h ****     lv_style_value_t v = lv_obj_get_style_prop(obj, part, LV_STYLE_BG_IMG_RECOLOR_OPA);
 226:Drivers/lvgl/src/core/lv_obj_style_gen.h ****     return (lv_opa_t)v.num;
 227:Drivers/lvgl/src/core/lv_obj_style_gen.h **** }
 228:Drivers/lvgl/src/core/lv_obj_style_gen.h **** 
 229:Drivers/lvgl/src/core/lv_obj_style_gen.h **** static inline bool lv_obj_get_style_bg_img_tiled(const struct _lv_obj_t * obj, uint32_t part)
 230:Drivers/lvgl/src/core/lv_obj_style_gen.h **** {
 231:Drivers/lvgl/src/core/lv_obj_style_gen.h ****     lv_style_value_t v = lv_obj_get_style_prop(obj, part, LV_STYLE_BG_IMG_TILED);
 232:Drivers/lvgl/src/core/lv_obj_style_gen.h ****     return (bool)v.num;
 233:Drivers/lvgl/src/core/lv_obj_style_gen.h **** }
 234:Drivers/lvgl/src/core/lv_obj_style_gen.h **** 
 235:Drivers/lvgl/src/core/lv_obj_style_gen.h **** static inline lv_color_t lv_obj_get_style_border_color(const struct _lv_obj_t * obj, uint32_t part)
 236:Drivers/lvgl/src/core/lv_obj_style_gen.h **** {
 237:Drivers/lvgl/src/core/lv_obj_style_gen.h ****     lv_style_value_t v = lv_obj_get_style_prop(obj, part, LV_STYLE_BORDER_COLOR);
 238:Drivers/lvgl/src/core/lv_obj_style_gen.h ****     return v.color;
 239:Drivers/lvgl/src/core/lv_obj_style_gen.h **** }
 240:Drivers/lvgl/src/core/lv_obj_style_gen.h **** 
 241:Drivers/lvgl/src/core/lv_obj_style_gen.h **** static inline lv_color_t lv_obj_get_style_border_color_filtered(const struct _lv_obj_t * obj, uint3
 242:Drivers/lvgl/src/core/lv_obj_style_gen.h **** {
 243:Drivers/lvgl/src/core/lv_obj_style_gen.h ****     lv_style_value_t v = _lv_obj_style_apply_color_filter(obj, part, lv_obj_get_style_prop(obj, par
 244:Drivers/lvgl/src/core/lv_obj_style_gen.h ****     return v.color;
 245:Drivers/lvgl/src/core/lv_obj_style_gen.h **** }
 246:Drivers/lvgl/src/core/lv_obj_style_gen.h **** 
 247:Drivers/lvgl/src/core/lv_obj_style_gen.h **** static inline lv_opa_t lv_obj_get_style_border_opa(const struct _lv_obj_t * obj, uint32_t part)
 248:Drivers/lvgl/src/core/lv_obj_style_gen.h **** {
 249:Drivers/lvgl/src/core/lv_obj_style_gen.h ****     lv_style_value_t v = lv_obj_get_style_prop(obj, part, LV_STYLE_BORDER_OPA);
 250:Drivers/lvgl/src/core/lv_obj_style_gen.h ****     return (lv_opa_t)v.num;
 251:Drivers/lvgl/src/core/lv_obj_style_gen.h **** }
 252:Drivers/lvgl/src/core/lv_obj_style_gen.h **** 
 253:Drivers/lvgl/src/core/lv_obj_style_gen.h **** static inline lv_coord_t lv_obj_get_style_border_width(const struct _lv_obj_t * obj, uint32_t part)
 254:Drivers/lvgl/src/core/lv_obj_style_gen.h **** {
 255:Drivers/lvgl/src/core/lv_obj_style_gen.h ****     lv_style_value_t v = lv_obj_get_style_prop(obj, part, LV_STYLE_BORDER_WIDTH);
 256:Drivers/lvgl/src/core/lv_obj_style_gen.h ****     return (lv_coord_t)v.num;
 257:Drivers/lvgl/src/core/lv_obj_style_gen.h **** }
 258:Drivers/lvgl/src/core/lv_obj_style_gen.h **** 
 259:Drivers/lvgl/src/core/lv_obj_style_gen.h **** static inline lv_border_side_t lv_obj_get_style_border_side(const struct _lv_obj_t * obj, uint32_t 
ARM GAS  /var/folders/0z/tsy30v1j4xl4_7kw94k978ww0000gn/T//cc8A9NTU.s 			page 82


 260:Drivers/lvgl/src/core/lv_obj_style_gen.h **** {
 261:Drivers/lvgl/src/core/lv_obj_style_gen.h ****     lv_style_value_t v = lv_obj_get_style_prop(obj, part, LV_STYLE_BORDER_SIDE);
 262:Drivers/lvgl/src/core/lv_obj_style_gen.h ****     return (lv_border_side_t)v.num;
 263:Drivers/lvgl/src/core/lv_obj_style_gen.h **** }
 264:Drivers/lvgl/src/core/lv_obj_style_gen.h **** 
 265:Drivers/lvgl/src/core/lv_obj_style_gen.h **** static inline bool lv_obj_get_style_border_post(const struct _lv_obj_t * obj, uint32_t part)
 266:Drivers/lvgl/src/core/lv_obj_style_gen.h **** {
 267:Drivers/lvgl/src/core/lv_obj_style_gen.h ****     lv_style_value_t v = lv_obj_get_style_prop(obj, part, LV_STYLE_BORDER_POST);
 268:Drivers/lvgl/src/core/lv_obj_style_gen.h ****     return (bool)v.num;
 269:Drivers/lvgl/src/core/lv_obj_style_gen.h **** }
 270:Drivers/lvgl/src/core/lv_obj_style_gen.h **** 
 271:Drivers/lvgl/src/core/lv_obj_style_gen.h **** static inline lv_coord_t lv_obj_get_style_outline_width(const struct _lv_obj_t * obj, uint32_t part
 272:Drivers/lvgl/src/core/lv_obj_style_gen.h **** {
 273:Drivers/lvgl/src/core/lv_obj_style_gen.h ****     lv_style_value_t v = lv_obj_get_style_prop(obj, part, LV_STYLE_OUTLINE_WIDTH);
 274:Drivers/lvgl/src/core/lv_obj_style_gen.h ****     return (lv_coord_t)v.num;
 275:Drivers/lvgl/src/core/lv_obj_style_gen.h **** }
 276:Drivers/lvgl/src/core/lv_obj_style_gen.h **** 
 277:Drivers/lvgl/src/core/lv_obj_style_gen.h **** static inline lv_color_t lv_obj_get_style_outline_color(const struct _lv_obj_t * obj, uint32_t part
 278:Drivers/lvgl/src/core/lv_obj_style_gen.h **** {
 279:Drivers/lvgl/src/core/lv_obj_style_gen.h ****     lv_style_value_t v = lv_obj_get_style_prop(obj, part, LV_STYLE_OUTLINE_COLOR);
 280:Drivers/lvgl/src/core/lv_obj_style_gen.h ****     return v.color;
 281:Drivers/lvgl/src/core/lv_obj_style_gen.h **** }
 282:Drivers/lvgl/src/core/lv_obj_style_gen.h **** 
 283:Drivers/lvgl/src/core/lv_obj_style_gen.h **** static inline lv_color_t lv_obj_get_style_outline_color_filtered(const struct _lv_obj_t * obj, uint
 284:Drivers/lvgl/src/core/lv_obj_style_gen.h **** {
 285:Drivers/lvgl/src/core/lv_obj_style_gen.h ****     lv_style_value_t v = _lv_obj_style_apply_color_filter(obj, part, lv_obj_get_style_prop(obj, par
 286:Drivers/lvgl/src/core/lv_obj_style_gen.h ****     return v.color;
 287:Drivers/lvgl/src/core/lv_obj_style_gen.h **** }
 288:Drivers/lvgl/src/core/lv_obj_style_gen.h **** 
 289:Drivers/lvgl/src/core/lv_obj_style_gen.h **** static inline lv_opa_t lv_obj_get_style_outline_opa(const struct _lv_obj_t * obj, uint32_t part)
 290:Drivers/lvgl/src/core/lv_obj_style_gen.h **** {
 291:Drivers/lvgl/src/core/lv_obj_style_gen.h ****     lv_style_value_t v = lv_obj_get_style_prop(obj, part, LV_STYLE_OUTLINE_OPA);
 292:Drivers/lvgl/src/core/lv_obj_style_gen.h ****     return (lv_opa_t)v.num;
 293:Drivers/lvgl/src/core/lv_obj_style_gen.h **** }
 294:Drivers/lvgl/src/core/lv_obj_style_gen.h **** 
 295:Drivers/lvgl/src/core/lv_obj_style_gen.h **** static inline lv_coord_t lv_obj_get_style_outline_pad(const struct _lv_obj_t * obj, uint32_t part)
 296:Drivers/lvgl/src/core/lv_obj_style_gen.h **** {
 297:Drivers/lvgl/src/core/lv_obj_style_gen.h ****     lv_style_value_t v = lv_obj_get_style_prop(obj, part, LV_STYLE_OUTLINE_PAD);
 298:Drivers/lvgl/src/core/lv_obj_style_gen.h ****     return (lv_coord_t)v.num;
 299:Drivers/lvgl/src/core/lv_obj_style_gen.h **** }
 300:Drivers/lvgl/src/core/lv_obj_style_gen.h **** 
 301:Drivers/lvgl/src/core/lv_obj_style_gen.h **** static inline lv_coord_t lv_obj_get_style_shadow_width(const struct _lv_obj_t * obj, uint32_t part)
 302:Drivers/lvgl/src/core/lv_obj_style_gen.h **** {
 303:Drivers/lvgl/src/core/lv_obj_style_gen.h ****     lv_style_value_t v = lv_obj_get_style_prop(obj, part, LV_STYLE_SHADOW_WIDTH);
 304:Drivers/lvgl/src/core/lv_obj_style_gen.h ****     return (lv_coord_t)v.num;
 305:Drivers/lvgl/src/core/lv_obj_style_gen.h **** }
 306:Drivers/lvgl/src/core/lv_obj_style_gen.h **** 
 307:Drivers/lvgl/src/core/lv_obj_style_gen.h **** static inline lv_coord_t lv_obj_get_style_shadow_ofs_x(const struct _lv_obj_t * obj, uint32_t part)
 308:Drivers/lvgl/src/core/lv_obj_style_gen.h **** {
 309:Drivers/lvgl/src/core/lv_obj_style_gen.h ****     lv_style_value_t v = lv_obj_get_style_prop(obj, part, LV_STYLE_SHADOW_OFS_X);
 310:Drivers/lvgl/src/core/lv_obj_style_gen.h ****     return (lv_coord_t)v.num;
 311:Drivers/lvgl/src/core/lv_obj_style_gen.h **** }
 312:Drivers/lvgl/src/core/lv_obj_style_gen.h **** 
 313:Drivers/lvgl/src/core/lv_obj_style_gen.h **** static inline lv_coord_t lv_obj_get_style_shadow_ofs_y(const struct _lv_obj_t * obj, uint32_t part)
 314:Drivers/lvgl/src/core/lv_obj_style_gen.h **** {
 315:Drivers/lvgl/src/core/lv_obj_style_gen.h ****     lv_style_value_t v = lv_obj_get_style_prop(obj, part, LV_STYLE_SHADOW_OFS_Y);
 316:Drivers/lvgl/src/core/lv_obj_style_gen.h ****     return (lv_coord_t)v.num;
ARM GAS  /var/folders/0z/tsy30v1j4xl4_7kw94k978ww0000gn/T//cc8A9NTU.s 			page 83


 317:Drivers/lvgl/src/core/lv_obj_style_gen.h **** }
 318:Drivers/lvgl/src/core/lv_obj_style_gen.h **** 
 319:Drivers/lvgl/src/core/lv_obj_style_gen.h **** static inline lv_coord_t lv_obj_get_style_shadow_spread(const struct _lv_obj_t * obj, uint32_t part
 320:Drivers/lvgl/src/core/lv_obj_style_gen.h **** {
 321:Drivers/lvgl/src/core/lv_obj_style_gen.h ****     lv_style_value_t v = lv_obj_get_style_prop(obj, part, LV_STYLE_SHADOW_SPREAD);
 322:Drivers/lvgl/src/core/lv_obj_style_gen.h ****     return (lv_coord_t)v.num;
 323:Drivers/lvgl/src/core/lv_obj_style_gen.h **** }
 324:Drivers/lvgl/src/core/lv_obj_style_gen.h **** 
 325:Drivers/lvgl/src/core/lv_obj_style_gen.h **** static inline lv_color_t lv_obj_get_style_shadow_color(const struct _lv_obj_t * obj, uint32_t part)
 326:Drivers/lvgl/src/core/lv_obj_style_gen.h **** {
 327:Drivers/lvgl/src/core/lv_obj_style_gen.h ****     lv_style_value_t v = lv_obj_get_style_prop(obj, part, LV_STYLE_SHADOW_COLOR);
 328:Drivers/lvgl/src/core/lv_obj_style_gen.h ****     return v.color;
 329:Drivers/lvgl/src/core/lv_obj_style_gen.h **** }
 330:Drivers/lvgl/src/core/lv_obj_style_gen.h **** 
 331:Drivers/lvgl/src/core/lv_obj_style_gen.h **** static inline lv_color_t lv_obj_get_style_shadow_color_filtered(const struct _lv_obj_t * obj, uint3
 332:Drivers/lvgl/src/core/lv_obj_style_gen.h **** {
 333:Drivers/lvgl/src/core/lv_obj_style_gen.h ****     lv_style_value_t v = _lv_obj_style_apply_color_filter(obj, part, lv_obj_get_style_prop(obj, par
 334:Drivers/lvgl/src/core/lv_obj_style_gen.h ****     return v.color;
 335:Drivers/lvgl/src/core/lv_obj_style_gen.h **** }
 336:Drivers/lvgl/src/core/lv_obj_style_gen.h **** 
 337:Drivers/lvgl/src/core/lv_obj_style_gen.h **** static inline lv_opa_t lv_obj_get_style_shadow_opa(const struct _lv_obj_t * obj, uint32_t part)
 338:Drivers/lvgl/src/core/lv_obj_style_gen.h **** {
 339:Drivers/lvgl/src/core/lv_obj_style_gen.h ****     lv_style_value_t v = lv_obj_get_style_prop(obj, part, LV_STYLE_SHADOW_OPA);
 340:Drivers/lvgl/src/core/lv_obj_style_gen.h ****     return (lv_opa_t)v.num;
 341:Drivers/lvgl/src/core/lv_obj_style_gen.h **** }
 342:Drivers/lvgl/src/core/lv_obj_style_gen.h **** 
 343:Drivers/lvgl/src/core/lv_obj_style_gen.h **** static inline lv_opa_t lv_obj_get_style_img_opa(const struct _lv_obj_t * obj, uint32_t part)
 344:Drivers/lvgl/src/core/lv_obj_style_gen.h **** {
 345:Drivers/lvgl/src/core/lv_obj_style_gen.h ****     lv_style_value_t v = lv_obj_get_style_prop(obj, part, LV_STYLE_IMG_OPA);
 346:Drivers/lvgl/src/core/lv_obj_style_gen.h ****     return (lv_opa_t)v.num;
 347:Drivers/lvgl/src/core/lv_obj_style_gen.h **** }
 348:Drivers/lvgl/src/core/lv_obj_style_gen.h **** 
 349:Drivers/lvgl/src/core/lv_obj_style_gen.h **** static inline lv_color_t lv_obj_get_style_img_recolor(const struct _lv_obj_t * obj, uint32_t part)
 350:Drivers/lvgl/src/core/lv_obj_style_gen.h **** {
 351:Drivers/lvgl/src/core/lv_obj_style_gen.h ****     lv_style_value_t v = lv_obj_get_style_prop(obj, part, LV_STYLE_IMG_RECOLOR);
 352:Drivers/lvgl/src/core/lv_obj_style_gen.h ****     return v.color;
 353:Drivers/lvgl/src/core/lv_obj_style_gen.h **** }
 354:Drivers/lvgl/src/core/lv_obj_style_gen.h **** 
 355:Drivers/lvgl/src/core/lv_obj_style_gen.h **** static inline lv_color_t lv_obj_get_style_img_recolor_filtered(const struct _lv_obj_t * obj, uint32
 356:Drivers/lvgl/src/core/lv_obj_style_gen.h **** {
 357:Drivers/lvgl/src/core/lv_obj_style_gen.h ****     lv_style_value_t v = _lv_obj_style_apply_color_filter(obj, part, lv_obj_get_style_prop(obj, par
 358:Drivers/lvgl/src/core/lv_obj_style_gen.h ****     return v.color;
 359:Drivers/lvgl/src/core/lv_obj_style_gen.h **** }
 360:Drivers/lvgl/src/core/lv_obj_style_gen.h **** 
 361:Drivers/lvgl/src/core/lv_obj_style_gen.h **** static inline lv_opa_t lv_obj_get_style_img_recolor_opa(const struct _lv_obj_t * obj, uint32_t part
 362:Drivers/lvgl/src/core/lv_obj_style_gen.h **** {
 363:Drivers/lvgl/src/core/lv_obj_style_gen.h ****     lv_style_value_t v = lv_obj_get_style_prop(obj, part, LV_STYLE_IMG_RECOLOR_OPA);
 364:Drivers/lvgl/src/core/lv_obj_style_gen.h ****     return (lv_opa_t)v.num;
 365:Drivers/lvgl/src/core/lv_obj_style_gen.h **** }
 366:Drivers/lvgl/src/core/lv_obj_style_gen.h **** 
 367:Drivers/lvgl/src/core/lv_obj_style_gen.h **** static inline lv_coord_t lv_obj_get_style_line_width(const struct _lv_obj_t * obj, uint32_t part)
 368:Drivers/lvgl/src/core/lv_obj_style_gen.h **** {
 369:Drivers/lvgl/src/core/lv_obj_style_gen.h ****     lv_style_value_t v = lv_obj_get_style_prop(obj, part, LV_STYLE_LINE_WIDTH);
 370:Drivers/lvgl/src/core/lv_obj_style_gen.h ****     return (lv_coord_t)v.num;
 371:Drivers/lvgl/src/core/lv_obj_style_gen.h **** }
 372:Drivers/lvgl/src/core/lv_obj_style_gen.h **** 
 373:Drivers/lvgl/src/core/lv_obj_style_gen.h **** static inline lv_coord_t lv_obj_get_style_line_dash_width(const struct _lv_obj_t * obj, uint32_t pa
ARM GAS  /var/folders/0z/tsy30v1j4xl4_7kw94k978ww0000gn/T//cc8A9NTU.s 			page 84


 374:Drivers/lvgl/src/core/lv_obj_style_gen.h **** {
 375:Drivers/lvgl/src/core/lv_obj_style_gen.h ****     lv_style_value_t v = lv_obj_get_style_prop(obj, part, LV_STYLE_LINE_DASH_WIDTH);
 376:Drivers/lvgl/src/core/lv_obj_style_gen.h ****     return (lv_coord_t)v.num;
 377:Drivers/lvgl/src/core/lv_obj_style_gen.h **** }
 378:Drivers/lvgl/src/core/lv_obj_style_gen.h **** 
 379:Drivers/lvgl/src/core/lv_obj_style_gen.h **** static inline lv_coord_t lv_obj_get_style_line_dash_gap(const struct _lv_obj_t * obj, uint32_t part
 380:Drivers/lvgl/src/core/lv_obj_style_gen.h **** {
 381:Drivers/lvgl/src/core/lv_obj_style_gen.h ****     lv_style_value_t v = lv_obj_get_style_prop(obj, part, LV_STYLE_LINE_DASH_GAP);
 382:Drivers/lvgl/src/core/lv_obj_style_gen.h ****     return (lv_coord_t)v.num;
 383:Drivers/lvgl/src/core/lv_obj_style_gen.h **** }
 384:Drivers/lvgl/src/core/lv_obj_style_gen.h **** 
 385:Drivers/lvgl/src/core/lv_obj_style_gen.h **** static inline bool lv_obj_get_style_line_rounded(const struct _lv_obj_t * obj, uint32_t part)
 386:Drivers/lvgl/src/core/lv_obj_style_gen.h **** {
 387:Drivers/lvgl/src/core/lv_obj_style_gen.h ****     lv_style_value_t v = lv_obj_get_style_prop(obj, part, LV_STYLE_LINE_ROUNDED);
 388:Drivers/lvgl/src/core/lv_obj_style_gen.h ****     return (bool)v.num;
 389:Drivers/lvgl/src/core/lv_obj_style_gen.h **** }
 390:Drivers/lvgl/src/core/lv_obj_style_gen.h **** 
 391:Drivers/lvgl/src/core/lv_obj_style_gen.h **** static inline lv_color_t lv_obj_get_style_line_color(const struct _lv_obj_t * obj, uint32_t part)
 392:Drivers/lvgl/src/core/lv_obj_style_gen.h **** {
 393:Drivers/lvgl/src/core/lv_obj_style_gen.h ****     lv_style_value_t v = lv_obj_get_style_prop(obj, part, LV_STYLE_LINE_COLOR);
 394:Drivers/lvgl/src/core/lv_obj_style_gen.h ****     return v.color;
 395:Drivers/lvgl/src/core/lv_obj_style_gen.h **** }
 396:Drivers/lvgl/src/core/lv_obj_style_gen.h **** 
 397:Drivers/lvgl/src/core/lv_obj_style_gen.h **** static inline lv_color_t lv_obj_get_style_line_color_filtered(const struct _lv_obj_t * obj, uint32_
 398:Drivers/lvgl/src/core/lv_obj_style_gen.h **** {
 399:Drivers/lvgl/src/core/lv_obj_style_gen.h ****     lv_style_value_t v = _lv_obj_style_apply_color_filter(obj, part, lv_obj_get_style_prop(obj, par
 400:Drivers/lvgl/src/core/lv_obj_style_gen.h ****     return v.color;
 401:Drivers/lvgl/src/core/lv_obj_style_gen.h **** }
 402:Drivers/lvgl/src/core/lv_obj_style_gen.h **** 
 403:Drivers/lvgl/src/core/lv_obj_style_gen.h **** static inline lv_opa_t lv_obj_get_style_line_opa(const struct _lv_obj_t * obj, uint32_t part)
 404:Drivers/lvgl/src/core/lv_obj_style_gen.h **** {
 405:Drivers/lvgl/src/core/lv_obj_style_gen.h ****     lv_style_value_t v = lv_obj_get_style_prop(obj, part, LV_STYLE_LINE_OPA);
 406:Drivers/lvgl/src/core/lv_obj_style_gen.h ****     return (lv_opa_t)v.num;
 407:Drivers/lvgl/src/core/lv_obj_style_gen.h **** }
 408:Drivers/lvgl/src/core/lv_obj_style_gen.h **** 
 409:Drivers/lvgl/src/core/lv_obj_style_gen.h **** static inline lv_coord_t lv_obj_get_style_arc_width(const struct _lv_obj_t * obj, uint32_t part)
 410:Drivers/lvgl/src/core/lv_obj_style_gen.h **** {
 411:Drivers/lvgl/src/core/lv_obj_style_gen.h ****     lv_style_value_t v = lv_obj_get_style_prop(obj, part, LV_STYLE_ARC_WIDTH);
 412:Drivers/lvgl/src/core/lv_obj_style_gen.h ****     return (lv_coord_t)v.num;
 413:Drivers/lvgl/src/core/lv_obj_style_gen.h **** }
 414:Drivers/lvgl/src/core/lv_obj_style_gen.h **** 
 415:Drivers/lvgl/src/core/lv_obj_style_gen.h **** static inline bool lv_obj_get_style_arc_rounded(const struct _lv_obj_t * obj, uint32_t part)
 416:Drivers/lvgl/src/core/lv_obj_style_gen.h **** {
 417:Drivers/lvgl/src/core/lv_obj_style_gen.h ****     lv_style_value_t v = lv_obj_get_style_prop(obj, part, LV_STYLE_ARC_ROUNDED);
 418:Drivers/lvgl/src/core/lv_obj_style_gen.h ****     return (bool)v.num;
 419:Drivers/lvgl/src/core/lv_obj_style_gen.h **** }
 420:Drivers/lvgl/src/core/lv_obj_style_gen.h **** 
 421:Drivers/lvgl/src/core/lv_obj_style_gen.h **** static inline lv_color_t lv_obj_get_style_arc_color(const struct _lv_obj_t * obj, uint32_t part)
 422:Drivers/lvgl/src/core/lv_obj_style_gen.h **** {
 423:Drivers/lvgl/src/core/lv_obj_style_gen.h ****     lv_style_value_t v = lv_obj_get_style_prop(obj, part, LV_STYLE_ARC_COLOR);
 424:Drivers/lvgl/src/core/lv_obj_style_gen.h ****     return v.color;
 425:Drivers/lvgl/src/core/lv_obj_style_gen.h **** }
 426:Drivers/lvgl/src/core/lv_obj_style_gen.h **** 
 427:Drivers/lvgl/src/core/lv_obj_style_gen.h **** static inline lv_color_t lv_obj_get_style_arc_color_filtered(const struct _lv_obj_t * obj, uint32_t
 428:Drivers/lvgl/src/core/lv_obj_style_gen.h **** {
 429:Drivers/lvgl/src/core/lv_obj_style_gen.h ****     lv_style_value_t v = _lv_obj_style_apply_color_filter(obj, part, lv_obj_get_style_prop(obj, par
 430:Drivers/lvgl/src/core/lv_obj_style_gen.h ****     return v.color;
ARM GAS  /var/folders/0z/tsy30v1j4xl4_7kw94k978ww0000gn/T//cc8A9NTU.s 			page 85


 431:Drivers/lvgl/src/core/lv_obj_style_gen.h **** }
 432:Drivers/lvgl/src/core/lv_obj_style_gen.h **** 
 433:Drivers/lvgl/src/core/lv_obj_style_gen.h **** static inline lv_opa_t lv_obj_get_style_arc_opa(const struct _lv_obj_t * obj, uint32_t part)
 434:Drivers/lvgl/src/core/lv_obj_style_gen.h **** {
 435:Drivers/lvgl/src/core/lv_obj_style_gen.h ****     lv_style_value_t v = lv_obj_get_style_prop(obj, part, LV_STYLE_ARC_OPA);
 436:Drivers/lvgl/src/core/lv_obj_style_gen.h ****     return (lv_opa_t)v.num;
 437:Drivers/lvgl/src/core/lv_obj_style_gen.h **** }
 438:Drivers/lvgl/src/core/lv_obj_style_gen.h **** 
 439:Drivers/lvgl/src/core/lv_obj_style_gen.h **** static inline const void * lv_obj_get_style_arc_img_src(const struct _lv_obj_t * obj, uint32_t part
 440:Drivers/lvgl/src/core/lv_obj_style_gen.h **** {
 441:Drivers/lvgl/src/core/lv_obj_style_gen.h ****     lv_style_value_t v = lv_obj_get_style_prop(obj, part, LV_STYLE_ARC_IMG_SRC);
 442:Drivers/lvgl/src/core/lv_obj_style_gen.h ****     return (const void *)v.ptr;
 443:Drivers/lvgl/src/core/lv_obj_style_gen.h **** }
 444:Drivers/lvgl/src/core/lv_obj_style_gen.h **** 
 445:Drivers/lvgl/src/core/lv_obj_style_gen.h **** static inline lv_color_t lv_obj_get_style_text_color(const struct _lv_obj_t * obj, uint32_t part)
 446:Drivers/lvgl/src/core/lv_obj_style_gen.h **** {
 447:Drivers/lvgl/src/core/lv_obj_style_gen.h ****     lv_style_value_t v = lv_obj_get_style_prop(obj, part, LV_STYLE_TEXT_COLOR);
 448:Drivers/lvgl/src/core/lv_obj_style_gen.h ****     return v.color;
 449:Drivers/lvgl/src/core/lv_obj_style_gen.h **** }
 450:Drivers/lvgl/src/core/lv_obj_style_gen.h **** 
 451:Drivers/lvgl/src/core/lv_obj_style_gen.h **** static inline lv_color_t lv_obj_get_style_text_color_filtered(const struct _lv_obj_t * obj, uint32_
 452:Drivers/lvgl/src/core/lv_obj_style_gen.h **** {
 453:Drivers/lvgl/src/core/lv_obj_style_gen.h ****     lv_style_value_t v = _lv_obj_style_apply_color_filter(obj, part, lv_obj_get_style_prop(obj, par
 454:Drivers/lvgl/src/core/lv_obj_style_gen.h ****     return v.color;
 455:Drivers/lvgl/src/core/lv_obj_style_gen.h **** }
 456:Drivers/lvgl/src/core/lv_obj_style_gen.h **** 
 457:Drivers/lvgl/src/core/lv_obj_style_gen.h **** static inline lv_opa_t lv_obj_get_style_text_opa(const struct _lv_obj_t * obj, uint32_t part)
 458:Drivers/lvgl/src/core/lv_obj_style_gen.h **** {
 459:Drivers/lvgl/src/core/lv_obj_style_gen.h ****     lv_style_value_t v = lv_obj_get_style_prop(obj, part, LV_STYLE_TEXT_OPA);
 460:Drivers/lvgl/src/core/lv_obj_style_gen.h ****     return (lv_opa_t)v.num;
 461:Drivers/lvgl/src/core/lv_obj_style_gen.h **** }
 462:Drivers/lvgl/src/core/lv_obj_style_gen.h **** 
 463:Drivers/lvgl/src/core/lv_obj_style_gen.h **** static inline const lv_font_t * lv_obj_get_style_text_font(const struct _lv_obj_t * obj, uint32_t p
 464:Drivers/lvgl/src/core/lv_obj_style_gen.h **** {
 465:Drivers/lvgl/src/core/lv_obj_style_gen.h ****     lv_style_value_t v = lv_obj_get_style_prop(obj, part, LV_STYLE_TEXT_FONT);
 466:Drivers/lvgl/src/core/lv_obj_style_gen.h ****     return (const lv_font_t *)v.ptr;
 467:Drivers/lvgl/src/core/lv_obj_style_gen.h **** }
 468:Drivers/lvgl/src/core/lv_obj_style_gen.h **** 
 469:Drivers/lvgl/src/core/lv_obj_style_gen.h **** static inline lv_coord_t lv_obj_get_style_text_letter_space(const struct _lv_obj_t * obj, uint32_t 
 470:Drivers/lvgl/src/core/lv_obj_style_gen.h **** {
 471:Drivers/lvgl/src/core/lv_obj_style_gen.h ****     lv_style_value_t v = lv_obj_get_style_prop(obj, part, LV_STYLE_TEXT_LETTER_SPACE);
 472:Drivers/lvgl/src/core/lv_obj_style_gen.h ****     return (lv_coord_t)v.num;
 473:Drivers/lvgl/src/core/lv_obj_style_gen.h **** }
 474:Drivers/lvgl/src/core/lv_obj_style_gen.h **** 
 475:Drivers/lvgl/src/core/lv_obj_style_gen.h **** static inline lv_coord_t lv_obj_get_style_text_line_space(const struct _lv_obj_t * obj, uint32_t pa
 476:Drivers/lvgl/src/core/lv_obj_style_gen.h **** {
 477:Drivers/lvgl/src/core/lv_obj_style_gen.h ****     lv_style_value_t v = lv_obj_get_style_prop(obj, part, LV_STYLE_TEXT_LINE_SPACE);
 478:Drivers/lvgl/src/core/lv_obj_style_gen.h ****     return (lv_coord_t)v.num;
 479:Drivers/lvgl/src/core/lv_obj_style_gen.h **** }
 480:Drivers/lvgl/src/core/lv_obj_style_gen.h **** 
 481:Drivers/lvgl/src/core/lv_obj_style_gen.h **** static inline lv_text_decor_t lv_obj_get_style_text_decor(const struct _lv_obj_t * obj, uint32_t pa
 482:Drivers/lvgl/src/core/lv_obj_style_gen.h **** {
 483:Drivers/lvgl/src/core/lv_obj_style_gen.h ****     lv_style_value_t v = lv_obj_get_style_prop(obj, part, LV_STYLE_TEXT_DECOR);
 484:Drivers/lvgl/src/core/lv_obj_style_gen.h ****     return (lv_text_decor_t)v.num;
 485:Drivers/lvgl/src/core/lv_obj_style_gen.h **** }
 486:Drivers/lvgl/src/core/lv_obj_style_gen.h **** 
 487:Drivers/lvgl/src/core/lv_obj_style_gen.h **** static inline lv_text_align_t lv_obj_get_style_text_align(const struct _lv_obj_t * obj, uint32_t pa
ARM GAS  /var/folders/0z/tsy30v1j4xl4_7kw94k978ww0000gn/T//cc8A9NTU.s 			page 86


 488:Drivers/lvgl/src/core/lv_obj_style_gen.h **** {
 489:Drivers/lvgl/src/core/lv_obj_style_gen.h ****     lv_style_value_t v = lv_obj_get_style_prop(obj, part, LV_STYLE_TEXT_ALIGN);
 490:Drivers/lvgl/src/core/lv_obj_style_gen.h ****     return (lv_text_align_t)v.num;
 491:Drivers/lvgl/src/core/lv_obj_style_gen.h **** }
 492:Drivers/lvgl/src/core/lv_obj_style_gen.h **** 
 493:Drivers/lvgl/src/core/lv_obj_style_gen.h **** static inline lv_coord_t lv_obj_get_style_radius(const struct _lv_obj_t * obj, uint32_t part)
 494:Drivers/lvgl/src/core/lv_obj_style_gen.h **** {
 495:Drivers/lvgl/src/core/lv_obj_style_gen.h ****     lv_style_value_t v = lv_obj_get_style_prop(obj, part, LV_STYLE_RADIUS);
 496:Drivers/lvgl/src/core/lv_obj_style_gen.h ****     return (lv_coord_t)v.num;
 497:Drivers/lvgl/src/core/lv_obj_style_gen.h **** }
 498:Drivers/lvgl/src/core/lv_obj_style_gen.h **** 
 499:Drivers/lvgl/src/core/lv_obj_style_gen.h **** static inline bool lv_obj_get_style_clip_corner(const struct _lv_obj_t * obj, uint32_t part)
 500:Drivers/lvgl/src/core/lv_obj_style_gen.h **** {
 501:Drivers/lvgl/src/core/lv_obj_style_gen.h ****     lv_style_value_t v = lv_obj_get_style_prop(obj, part, LV_STYLE_CLIP_CORNER);
 502:Drivers/lvgl/src/core/lv_obj_style_gen.h ****     return (bool)v.num;
 503:Drivers/lvgl/src/core/lv_obj_style_gen.h **** }
 504:Drivers/lvgl/src/core/lv_obj_style_gen.h **** 
 505:Drivers/lvgl/src/core/lv_obj_style_gen.h **** static inline lv_opa_t lv_obj_get_style_opa(const struct _lv_obj_t * obj, uint32_t part)
 506:Drivers/lvgl/src/core/lv_obj_style_gen.h **** {
 507:Drivers/lvgl/src/core/lv_obj_style_gen.h ****     lv_style_value_t v = lv_obj_get_style_prop(obj, part, LV_STYLE_OPA);
 508:Drivers/lvgl/src/core/lv_obj_style_gen.h ****     return (lv_opa_t)v.num;
 509:Drivers/lvgl/src/core/lv_obj_style_gen.h **** }
 510:Drivers/lvgl/src/core/lv_obj_style_gen.h **** 
 511:Drivers/lvgl/src/core/lv_obj_style_gen.h **** static inline lv_opa_t lv_obj_get_style_opa_layered(const struct _lv_obj_t * obj, uint32_t part)
 2109              		.loc 4 511 24 view .LVU645
 2110              	.LBB119:
 512:Drivers/lvgl/src/core/lv_obj_style_gen.h **** {
 513:Drivers/lvgl/src/core/lv_obj_style_gen.h ****     lv_style_value_t v = lv_obj_get_style_prop(obj, part, LV_STYLE_OPA_LAYERED);
 2111              		.loc 4 513 5 view .LVU646
 2112              		.loc 4 513 26 is_stmt 0 view .LVU647
 2113 0026 6122     		movs	r2, #97
 2114 0028 0021     		movs	r1, #0
 2115 002a 2046     		mov	r0, r4
 2116 002c FFF7FEFF 		bl	lv_obj_get_style_prop
 2117              	.LVL230:
 514:Drivers/lvgl/src/core/lv_obj_style_gen.h ****     return (lv_opa_t)v.num;
 2118              		.loc 4 514 5 is_stmt 1 view .LVU648
 2119              		.loc 4 514 12 is_stmt 0 view .LVU649
 2120 0030 C0B2     		uxtb	r0, r0
 2121              	.LVL231:
 2122              		.loc 4 514 12 view .LVU650
 2123              	.LBE119:
 2124              	.LBE118:
 883:Drivers/lvgl/src/core/lv_obj_style.c **** #if LV_DRAW_COMPLEX
 2125              		.loc 1 883 7 view .LVU651
 2126 0032 FF28     		cmp	r0, #255
 2127 0034 01D0     		beq	.L155
 883:Drivers/lvgl/src/core/lv_obj_style.c **** #if LV_DRAW_COMPLEX
 2128              		.loc 1 883 69 view .LVU652
 2129 0036 0120     		movs	r0, #1
 2130 0038 0AE0     		b	.L148
 2131              	.L155:
 885:Drivers/lvgl/src/core/lv_obj_style.c **** #endif
 2132              		.loc 1 885 5 is_stmt 1 view .LVU653
 2133              	.LVL232:
 2134              	.LBB120:
 2135              	.LBI120:
ARM GAS  /var/folders/0z/tsy30v1j4xl4_7kw94k978ww0000gn/T//cc8A9NTU.s 			page 87


 515:Drivers/lvgl/src/core/lv_obj_style_gen.h **** }
 516:Drivers/lvgl/src/core/lv_obj_style_gen.h **** 
 517:Drivers/lvgl/src/core/lv_obj_style_gen.h **** static inline const lv_color_filter_dsc_t * lv_obj_get_style_color_filter_dsc(const struct _lv_obj_
 518:Drivers/lvgl/src/core/lv_obj_style_gen.h **** {
 519:Drivers/lvgl/src/core/lv_obj_style_gen.h ****     lv_style_value_t v = lv_obj_get_style_prop(obj, part, LV_STYLE_COLOR_FILTER_DSC);
 520:Drivers/lvgl/src/core/lv_obj_style_gen.h ****     return (const lv_color_filter_dsc_t *)v.ptr;
 521:Drivers/lvgl/src/core/lv_obj_style_gen.h **** }
 522:Drivers/lvgl/src/core/lv_obj_style_gen.h **** 
 523:Drivers/lvgl/src/core/lv_obj_style_gen.h **** static inline lv_opa_t lv_obj_get_style_color_filter_opa(const struct _lv_obj_t * obj, uint32_t par
 524:Drivers/lvgl/src/core/lv_obj_style_gen.h **** {
 525:Drivers/lvgl/src/core/lv_obj_style_gen.h ****     lv_style_value_t v = lv_obj_get_style_prop(obj, part, LV_STYLE_COLOR_FILTER_OPA);
 526:Drivers/lvgl/src/core/lv_obj_style_gen.h ****     return (lv_opa_t)v.num;
 527:Drivers/lvgl/src/core/lv_obj_style_gen.h **** }
 528:Drivers/lvgl/src/core/lv_obj_style_gen.h **** 
 529:Drivers/lvgl/src/core/lv_obj_style_gen.h **** static inline const lv_anim_t * lv_obj_get_style_anim(const struct _lv_obj_t * obj, uint32_t part)
 530:Drivers/lvgl/src/core/lv_obj_style_gen.h **** {
 531:Drivers/lvgl/src/core/lv_obj_style_gen.h ****     lv_style_value_t v = lv_obj_get_style_prop(obj, part, LV_STYLE_ANIM);
 532:Drivers/lvgl/src/core/lv_obj_style_gen.h ****     return (const lv_anim_t *)v.ptr;
 533:Drivers/lvgl/src/core/lv_obj_style_gen.h **** }
 534:Drivers/lvgl/src/core/lv_obj_style_gen.h **** 
 535:Drivers/lvgl/src/core/lv_obj_style_gen.h **** static inline uint32_t lv_obj_get_style_anim_time(const struct _lv_obj_t * obj, uint32_t part)
 536:Drivers/lvgl/src/core/lv_obj_style_gen.h **** {
 537:Drivers/lvgl/src/core/lv_obj_style_gen.h ****     lv_style_value_t v = lv_obj_get_style_prop(obj, part, LV_STYLE_ANIM_TIME);
 538:Drivers/lvgl/src/core/lv_obj_style_gen.h ****     return (uint32_t)v.num;
 539:Drivers/lvgl/src/core/lv_obj_style_gen.h **** }
 540:Drivers/lvgl/src/core/lv_obj_style_gen.h **** 
 541:Drivers/lvgl/src/core/lv_obj_style_gen.h **** static inline uint32_t lv_obj_get_style_anim_speed(const struct _lv_obj_t * obj, uint32_t part)
 542:Drivers/lvgl/src/core/lv_obj_style_gen.h **** {
 543:Drivers/lvgl/src/core/lv_obj_style_gen.h ****     lv_style_value_t v = lv_obj_get_style_prop(obj, part, LV_STYLE_ANIM_SPEED);
 544:Drivers/lvgl/src/core/lv_obj_style_gen.h ****     return (uint32_t)v.num;
 545:Drivers/lvgl/src/core/lv_obj_style_gen.h **** }
 546:Drivers/lvgl/src/core/lv_obj_style_gen.h **** 
 547:Drivers/lvgl/src/core/lv_obj_style_gen.h **** static inline const lv_style_transition_dsc_t * lv_obj_get_style_transition(const struct _lv_obj_t 
 548:Drivers/lvgl/src/core/lv_obj_style_gen.h **** {
 549:Drivers/lvgl/src/core/lv_obj_style_gen.h ****     lv_style_value_t v = lv_obj_get_style_prop(obj, part, LV_STYLE_TRANSITION);
 550:Drivers/lvgl/src/core/lv_obj_style_gen.h ****     return (const lv_style_transition_dsc_t *)v.ptr;
 551:Drivers/lvgl/src/core/lv_obj_style_gen.h **** }
 552:Drivers/lvgl/src/core/lv_obj_style_gen.h **** 
 553:Drivers/lvgl/src/core/lv_obj_style_gen.h **** static inline lv_blend_mode_t lv_obj_get_style_blend_mode(const struct _lv_obj_t * obj, uint32_t pa
 2136              		.loc 4 553 31 view .LVU654
 2137              	.LBB121:
 554:Drivers/lvgl/src/core/lv_obj_style_gen.h **** {
 555:Drivers/lvgl/src/core/lv_obj_style_gen.h ****     lv_style_value_t v = lv_obj_get_style_prop(obj, part, LV_STYLE_BLEND_MODE);
 2138              		.loc 4 555 5 view .LVU655
 2139              		.loc 4 555 26 is_stmt 0 view .LVU656
 2140 003a 6822     		movs	r2, #104
 2141 003c 0021     		movs	r1, #0
 2142 003e 2046     		mov	r0, r4
 2143 0040 FFF7FEFF 		bl	lv_obj_get_style_prop
 2144              	.LVL233:
 556:Drivers/lvgl/src/core/lv_obj_style_gen.h ****     return (lv_blend_mode_t)v.num;
 2145              		.loc 4 556 5 is_stmt 1 view .LVU657
 2146              		.loc 4 556 5 is_stmt 0 view .LVU658
 2147              	.LBE121:
 2148              	.LBE120:
 885:Drivers/lvgl/src/core/lv_obj_style.c **** #endif
 2149              		.loc 1 885 7 view .LVU659
ARM GAS  /var/folders/0z/tsy30v1j4xl4_7kw94k978ww0000gn/T//cc8A9NTU.s 			page 88


 2150 0044 10F0FF00 		ands	r0, r0, #255
 2151 0048 02D0     		beq	.L148
 885:Drivers/lvgl/src/core/lv_obj_style.c **** #endif
 2152              		.loc 1 885 76 view .LVU660
 2153 004a 0120     		movs	r0, #1
 2154 004c 00E0     		b	.L148
 2155              	.L149:
 881:Drivers/lvgl/src/core/lv_obj_style.c ****     if(lv_obj_get_style_transform_zoom(obj, 0) != 256) return LV_LAYER_TYPE_TRANSFORM;
 2156              		.loc 1 881 62 view .LVU661
 2157 004e 0220     		movs	r0, #2
 2158              	.L148:
 888:Drivers/lvgl/src/core/lv_obj_style.c **** 
 2159              		.loc 1 888 1 view .LVU662
 2160 0050 10BD     		pop	{r4, pc}
 888:Drivers/lvgl/src/core/lv_obj_style.c **** 
 2161              		.loc 1 888 1 view .LVU663
 2162              		.cfi_endproc
 2163              	.LFE196:
 2165              		.section	.text._lv_obj_style_create_transition,"ax",%progbits
 2166              		.align	1
 2167              		.global	_lv_obj_style_create_transition
 2168              		.syntax unified
 2169              		.thumb
 2170              		.thumb_func
 2172              	_lv_obj_style_create_transition:
 2173              	.LVL234:
 2174              	.LFB178:
 327:Drivers/lvgl/src/core/lv_obj_style.c ****     trans_t * tr;
 2175              		.loc 1 327 1 is_stmt 1 view -0
 2176              		.cfi_startproc
 2177              		@ args = 4, pretend = 0, frame = 72
 2178              		@ frame_needed = 0, uses_anonymous_args = 0
 327:Drivers/lvgl/src/core/lv_obj_style.c ****     trans_t * tr;
 2179              		.loc 1 327 1 is_stmt 0 view .LVU665
 2180 0000 2DE9F04F 		push	{r4, r5, r6, r7, r8, r9, r10, fp, lr}
 2181              		.cfi_def_cfa_offset 36
 2182              		.cfi_offset 4, -36
 2183              		.cfi_offset 5, -32
 2184              		.cfi_offset 6, -28
 2185              		.cfi_offset 7, -24
 2186              		.cfi_offset 8, -20
 2187              		.cfi_offset 9, -16
 2188              		.cfi_offset 10, -12
 2189              		.cfi_offset 11, -8
 2190              		.cfi_offset 14, -4
 2191 0004 93B0     		sub	sp, sp, #76
 2192              		.cfi_def_cfa_offset 112
 2193 0006 0446     		mov	r4, r0
 2194 0008 0F46     		mov	r7, r1
 2195 000a 9246     		mov	r10, r2
 2196 000c 9946     		mov	r9, r3
 2197 000e 1C9E     		ldr	r6, [sp, #112]
 328:Drivers/lvgl/src/core/lv_obj_style.c **** 
 2198              		.loc 1 328 5 is_stmt 1 view .LVU666
 331:Drivers/lvgl/src/core/lv_obj_style.c ****     obj->state = prev_state;
 2199              		.loc 1 331 5 view .LVU667
 331:Drivers/lvgl/src/core/lv_obj_style.c ****     obj->state = prev_state;
ARM GAS  /var/folders/0z/tsy30v1j4xl4_7kw94k978ww0000gn/T//cc8A9NTU.s 			page 89


 2200              		.loc 1 331 21 is_stmt 0 view .LVU668
 2201 0010 90F82230 		ldrb	r3, [r0, #34]	@ zero_extendqisi2
 2202              	.LVL235:
 331:Drivers/lvgl/src/core/lv_obj_style.c ****     obj->state = prev_state;
 2203              		.loc 1 331 21 view .LVU669
 2204 0014 43F00803 		orr	r3, r3, #8
 2205 0018 80F82230 		strb	r3, [r0, #34]
 332:Drivers/lvgl/src/core/lv_obj_style.c ****     lv_style_value_t v1 = lv_obj_get_style_prop(obj, part, tr_dsc->prop);
 2206              		.loc 1 332 5 is_stmt 1 view .LVU670
 332:Drivers/lvgl/src/core/lv_obj_style.c ****     lv_style_value_t v1 = lv_obj_get_style_prop(obj, part, tr_dsc->prop);
 2207              		.loc 1 332 16 is_stmt 0 view .LVU671
 2208 001c 0284     		strh	r2, [r0, #32]	@ movhi
 333:Drivers/lvgl/src/core/lv_obj_style.c ****     obj->state = new_state;
 2209              		.loc 1 333 5 is_stmt 1 view .LVU672
 333:Drivers/lvgl/src/core/lv_obj_style.c ****     obj->state = new_state;
 2210              		.loc 1 333 27 is_stmt 0 view .LVU673
 2211 001e 3289     		ldrh	r2, [r6, #8]
 2212              	.LVL236:
 333:Drivers/lvgl/src/core/lv_obj_style.c ****     obj->state = new_state;
 2213              		.loc 1 333 27 view .LVU674
 2214 0020 FFF7FEFF 		bl	lv_obj_get_style_prop
 2215              	.LVL237:
 333:Drivers/lvgl/src/core/lv_obj_style.c ****     obj->state = new_state;
 2216              		.loc 1 333 27 view .LVU675
 2217 0024 0546     		mov	r5, r0
 2218              	.LVL238:
 334:Drivers/lvgl/src/core/lv_obj_style.c ****     lv_style_value_t v2 = lv_obj_get_style_prop(obj, part, tr_dsc->prop);
 2219              		.loc 1 334 5 is_stmt 1 view .LVU676
 334:Drivers/lvgl/src/core/lv_obj_style.c ****     lv_style_value_t v2 = lv_obj_get_style_prop(obj, part, tr_dsc->prop);
 2220              		.loc 1 334 16 is_stmt 0 view .LVU677
 2221 0026 A4F82090 		strh	r9, [r4, #32]	@ movhi
 335:Drivers/lvgl/src/core/lv_obj_style.c ****     obj->skip_trans = 0;
 2222              		.loc 1 335 5 is_stmt 1 view .LVU678
 335:Drivers/lvgl/src/core/lv_obj_style.c ****     obj->skip_trans = 0;
 2223              		.loc 1 335 27 is_stmt 0 view .LVU679
 2224 002a 3289     		ldrh	r2, [r6, #8]
 2225 002c 3946     		mov	r1, r7
 2226 002e 2046     		mov	r0, r4
 2227 0030 FFF7FEFF 		bl	lv_obj_get_style_prop
 2228              	.LVL239:
 2229 0034 8046     		mov	r8, r0
 2230              	.LVL240:
 336:Drivers/lvgl/src/core/lv_obj_style.c **** 
 2231              		.loc 1 336 5 is_stmt 1 view .LVU680
 336:Drivers/lvgl/src/core/lv_obj_style.c **** 
 2232              		.loc 1 336 21 is_stmt 0 view .LVU681
 2233 0036 94F82230 		ldrb	r3, [r4, #34]	@ zero_extendqisi2
 2234 003a 6FF3C303 		bfc	r3, #3, #1
 2235 003e 84F82230 		strb	r3, [r4, #34]
 338:Drivers/lvgl/src/core/lv_obj_style.c ****     obj->state = prev_state;
 2236              		.loc 1 338 5 is_stmt 1 view .LVU682
 2237              	.LVL241:
 338:Drivers/lvgl/src/core/lv_obj_style.c ****     obj->state = prev_state;
 2238              		.loc 1 338 20 is_stmt 0 view .LVU683
 2239 0042 8346     		mov	fp, r0
 2240              	.LVL242:
 338:Drivers/lvgl/src/core/lv_obj_style.c ****     obj->state = prev_state;
ARM GAS  /var/folders/0z/tsy30v1j4xl4_7kw94k978ww0000gn/T//cc8A9NTU.s 			page 90


 2241              		.loc 1 338 7 view .LVU684
 2242 0044 8542     		cmp	r5, r0
 2243 0046 47D0     		beq	.L169
 2244              	.L157:
 339:Drivers/lvgl/src/core/lv_obj_style.c ****     v1 = lv_obj_get_style_prop(obj, part, tr_dsc->prop);
 2245              		.loc 1 339 5 is_stmt 1 view .LVU685
 339:Drivers/lvgl/src/core/lv_obj_style.c ****     v1 = lv_obj_get_style_prop(obj, part, tr_dsc->prop);
 2246              		.loc 1 339 16 is_stmt 0 view .LVU686
 2247 0048 A4F820A0 		strh	r10, [r4, #32]	@ movhi
 340:Drivers/lvgl/src/core/lv_obj_style.c ****     obj->state = new_state;
 2248              		.loc 1 340 5 is_stmt 1 view .LVU687
 340:Drivers/lvgl/src/core/lv_obj_style.c ****     obj->state = new_state;
 2249              		.loc 1 340 10 is_stmt 0 view .LVU688
 2250 004c 3289     		ldrh	r2, [r6, #8]
 2251 004e 3946     		mov	r1, r7
 2252 0050 2046     		mov	r0, r4
 2253              	.LVL243:
 340:Drivers/lvgl/src/core/lv_obj_style.c ****     obj->state = new_state;
 2254              		.loc 1 340 10 view .LVU689
 2255 0052 FFF7FEFF 		bl	lv_obj_get_style_prop
 2256              	.LVL244:
 2257 0056 0546     		mov	r5, r0
 2258              	.LVL245:
 341:Drivers/lvgl/src/core/lv_obj_style.c **** 
 2259              		.loc 1 341 5 is_stmt 1 view .LVU690
 341:Drivers/lvgl/src/core/lv_obj_style.c **** 
 2260              		.loc 1 341 16 is_stmt 0 view .LVU691
 2261 0058 A4F82090 		strh	r9, [r4, #32]	@ movhi
 343:Drivers/lvgl/src/core/lv_obj_style.c ****     lv_style_set_prop(style_trans->style, tr_dsc->prop, v1);   /*Be sure `trans_style` has a valid 
 2262              		.loc 1 343 5 is_stmt 1 view .LVU692
 343:Drivers/lvgl/src/core/lv_obj_style.c ****     lv_style_set_prop(style_trans->style, tr_dsc->prop, v1);   /*Be sure `trans_style` has a valid 
 2263              		.loc 1 343 37 is_stmt 0 view .LVU693
 2264 005c 3946     		mov	r1, r7
 2265 005e 2046     		mov	r0, r4
 2266 0060 FFF7FEFF 		bl	get_trans_style
 2267              	.LVL246:
 344:Drivers/lvgl/src/core/lv_obj_style.c **** 
 2268              		.loc 1 344 5 is_stmt 1 view .LVU694
 344:Drivers/lvgl/src/core/lv_obj_style.c **** 
 2269              		.loc 1 344 5 is_stmt 0 view .LVU695
 2270 0064 2A46     		mov	r2, r5
 2271 0066 3189     		ldrh	r1, [r6, #8]
 2272 0068 0068     		ldr	r0, [r0]
 2273              	.LVL247:
 344:Drivers/lvgl/src/core/lv_obj_style.c **** 
 2274              		.loc 1 344 5 view .LVU696
 2275 006a FFF7FEFF 		bl	lv_style_set_prop
 2276              	.LVL248:
 346:Drivers/lvgl/src/core/lv_obj_style.c ****         if(v1.num == LV_RADIUS_CIRCLE || v2.num == LV_RADIUS_CIRCLE) {
 2277              		.loc 1 346 5 is_stmt 1 view .LVU697
 346:Drivers/lvgl/src/core/lv_obj_style.c ****         if(v1.num == LV_RADIUS_CIRCLE || v2.num == LV_RADIUS_CIRCLE) {
 2278              		.loc 1 346 14 is_stmt 0 view .LVU698
 2279 006e 3389     		ldrh	r3, [r6, #8]
 346:Drivers/lvgl/src/core/lv_obj_style.c ****         if(v1.num == LV_RADIUS_CIRCLE || v2.num == LV_RADIUS_CIRCLE) {
 2280              		.loc 1 346 7 view .LVU699
 2281 0070 0B2B     		cmp	r3, #11
 2282 0072 33D0     		beq	.L170
ARM GAS  /var/folders/0z/tsy30v1j4xl4_7kw94k978ww0000gn/T//cc8A9NTU.s 			page 91


 2283              	.L159:
 355:Drivers/lvgl/src/core/lv_obj_style.c ****     LV_ASSERT_MALLOC(tr);
 2284              		.loc 1 355 5 is_stmt 1 view .LVU700
 355:Drivers/lvgl/src/core/lv_obj_style.c ****     LV_ASSERT_MALLOC(tr);
 2285              		.loc 1 355 10 is_stmt 0 view .LVU701
 2286 0074 3048     		ldr	r0, .L172
 2287 0076 FFF7FEFF 		bl	_lv_ll_ins_head
 2288              	.LVL249:
 356:Drivers/lvgl/src/core/lv_obj_style.c ****     if(tr == NULL) return;
 2289              		.loc 1 356 5 is_stmt 1 view .LVU702
 356:Drivers/lvgl/src/core/lv_obj_style.c ****     if(tr == NULL) return;
 2290              		.loc 1 356 5 view .LVU703
 2291 007a 8146     		mov	r9, r0
 2292 007c 0028     		cmp	r0, #0
 2293 007e 59D0     		beq	.L167
 356:Drivers/lvgl/src/core/lv_obj_style.c ****     if(tr == NULL) return;
 2294              		.loc 1 356 5 view .LVU704
 356:Drivers/lvgl/src/core/lv_obj_style.c ****     if(tr == NULL) return;
 2295              		.loc 1 356 25 view .LVU705
 357:Drivers/lvgl/src/core/lv_obj_style.c ****     tr->start_value = v1;
 2296              		.loc 1 357 5 view .LVU706
 358:Drivers/lvgl/src/core/lv_obj_style.c ****     tr->end_value = v2;
 2297              		.loc 1 358 5 view .LVU707
 358:Drivers/lvgl/src/core/lv_obj_style.c ****     tr->end_value = v2;
 2298              		.loc 1 358 21 is_stmt 0 view .LVU708
 2299 0080 C560     		str	r5, [r0, #12]
 359:Drivers/lvgl/src/core/lv_obj_style.c ****     tr->obj = obj;
 2300              		.loc 1 359 5 is_stmt 1 view .LVU709
 2301              	.LVL250:
 359:Drivers/lvgl/src/core/lv_obj_style.c ****     tr->obj = obj;
 2302              		.loc 1 359 19 is_stmt 0 view .LVU710
 2303 0082 C0F81080 		str	r8, [r0, #16]
 360:Drivers/lvgl/src/core/lv_obj_style.c ****     tr->prop = tr_dsc->prop;
 2304              		.loc 1 360 5 is_stmt 1 view .LVU711
 360:Drivers/lvgl/src/core/lv_obj_style.c ****     tr->prop = tr_dsc->prop;
 2305              		.loc 1 360 13 is_stmt 0 view .LVU712
 2306 0086 0460     		str	r4, [r0]
 361:Drivers/lvgl/src/core/lv_obj_style.c ****     tr->selector = part;
 2307              		.loc 1 361 5 is_stmt 1 view .LVU713
 361:Drivers/lvgl/src/core/lv_obj_style.c ****     tr->selector = part;
 2308              		.loc 1 361 22 is_stmt 0 view .LVU714
 2309 0088 3389     		ldrh	r3, [r6, #8]
 361:Drivers/lvgl/src/core/lv_obj_style.c ****     tr->selector = part;
 2310              		.loc 1 361 14 view .LVU715
 2311 008a 8380     		strh	r3, [r0, #4]	@ movhi
 362:Drivers/lvgl/src/core/lv_obj_style.c **** 
 2312              		.loc 1 362 5 is_stmt 1 view .LVU716
 362:Drivers/lvgl/src/core/lv_obj_style.c **** 
 2313              		.loc 1 362 18 is_stmt 0 view .LVU717
 2314 008c 8760     		str	r7, [r0, #8]
 364:Drivers/lvgl/src/core/lv_obj_style.c ****     lv_anim_init(&a);
 2315              		.loc 1 364 5 is_stmt 1 view .LVU718
 365:Drivers/lvgl/src/core/lv_obj_style.c ****     lv_anim_set_var(&a, tr);
 2316              		.loc 1 365 5 view .LVU719
 2317 008e 01A8     		add	r0, sp, #4
 2318              	.LVL251:
 365:Drivers/lvgl/src/core/lv_obj_style.c ****     lv_anim_set_var(&a, tr);
ARM GAS  /var/folders/0z/tsy30v1j4xl4_7kw94k978ww0000gn/T//cc8A9NTU.s 			page 92


 2319              		.loc 1 365 5 is_stmt 0 view .LVU720
 2320 0090 FFF7FEFF 		bl	lv_anim_init
 2321              	.LVL252:
 366:Drivers/lvgl/src/core/lv_obj_style.c ****     lv_anim_set_exec_cb(&a, trans_anim_cb);
 2322              		.loc 1 366 5 is_stmt 1 view .LVU721
 2323              	.LBB122:
 2324              	.LBI122:
 126:Drivers/lvgl/src/core/../misc/lv_anim.h **** {
 2325              		.loc 2 126 20 view .LVU722
 2326              	.LBB123:
 128:Drivers/lvgl/src/core/../misc/lv_anim.h **** }
 2327              		.loc 2 128 5 view .LVU723
 128:Drivers/lvgl/src/core/../misc/lv_anim.h **** }
 2328              		.loc 2 128 12 is_stmt 0 view .LVU724
 2329 0094 CDF80490 		str	r9, [sp, #4]
 2330              	.LVL253:
 128:Drivers/lvgl/src/core/../misc/lv_anim.h **** }
 2331              		.loc 2 128 12 view .LVU725
 2332              	.LBE123:
 2333              	.LBE122:
 367:Drivers/lvgl/src/core/lv_obj_style.c ****     lv_anim_set_start_cb(&a, trans_anim_start_cb);
 2334              		.loc 1 367 5 is_stmt 1 view .LVU726
 2335              	.LBB124:
 2336              	.LBI124:
 138:Drivers/lvgl/src/core/../misc/lv_anim.h **** {
 2337              		.loc 2 138 20 view .LVU727
 2338              	.LBB125:
 140:Drivers/lvgl/src/core/../misc/lv_anim.h **** }
 2339              		.loc 2 140 5 view .LVU728
 140:Drivers/lvgl/src/core/../misc/lv_anim.h **** }
 2340              		.loc 2 140 16 is_stmt 0 view .LVU729
 2341 0098 284B     		ldr	r3, .L172+4
 2342 009a 0293     		str	r3, [sp, #8]
 2343              	.LVL254:
 140:Drivers/lvgl/src/core/../misc/lv_anim.h **** }
 2344              		.loc 2 140 16 view .LVU730
 2345              	.LBE125:
 2346              	.LBE124:
 368:Drivers/lvgl/src/core/lv_obj_style.c ****     lv_anim_set_ready_cb(&a, trans_anim_ready_cb);
 2347              		.loc 1 368 5 is_stmt 1 view .LVU731
 2348              	.LBB126:
 2349              	.LBI126:
 206:Drivers/lvgl/src/core/../misc/lv_anim.h **** {
 2350              		.loc 2 206 20 view .LVU732
 2351              	.LBB127:
 208:Drivers/lvgl/src/core/../misc/lv_anim.h **** }
 2352              		.loc 2 208 5 view .LVU733
 208:Drivers/lvgl/src/core/../misc/lv_anim.h **** }
 2353              		.loc 2 208 17 is_stmt 0 view .LVU734
 2354 009c 284B     		ldr	r3, .L172+8
 2355 009e 0393     		str	r3, [sp, #12]
 2356              	.LVL255:
 208:Drivers/lvgl/src/core/../misc/lv_anim.h **** }
 2357              		.loc 2 208 17 view .LVU735
 2358              	.LBE127:
 2359              	.LBE126:
 369:Drivers/lvgl/src/core/lv_obj_style.c ****     lv_anim_set_values(&a, 0x00, 0xFF);
ARM GAS  /var/folders/0z/tsy30v1j4xl4_7kw94k978ww0000gn/T//cc8A9NTU.s 			page 93


 2360              		.loc 1 369 5 is_stmt 1 view .LVU736
 2361              	.LBB128:
 2362              	.LBI128:
 227:Drivers/lvgl/src/core/../misc/lv_anim.h **** {
 2363              		.loc 2 227 20 view .LVU737
 2364              	.LBB129:
 2365              		.loc 2 229 5 view .LVU738
 2366              		.loc 2 229 17 is_stmt 0 view .LVU739
 2367 00a0 284B     		ldr	r3, .L172+12
 2368 00a2 0493     		str	r3, [sp, #16]
 2369              	.LVL256:
 2370              		.loc 2 229 17 view .LVU740
 2371              	.LBE129:
 2372              	.LBE128:
 370:Drivers/lvgl/src/core/lv_obj_style.c ****     lv_anim_set_time(&a, tr_dsc->time);
 2373              		.loc 1 370 5 is_stmt 1 view .LVU741
 2374              	.LBB130:
 2375              	.LBI130:
 169:Drivers/lvgl/src/core/../misc/lv_anim.h **** {
 2376              		.loc 2 169 20 view .LVU742
 2377              	.LBB131:
 171:Drivers/lvgl/src/core/../misc/lv_anim.h ****     a->current_value = start;
 2378              		.loc 2 171 5 view .LVU743
 171:Drivers/lvgl/src/core/../misc/lv_anim.h ****     a->current_value = start;
 2379              		.loc 2 171 20 is_stmt 0 view .LVU744
 2380 00a4 0023     		movs	r3, #0
 2381 00a6 0993     		str	r3, [sp, #36]
 172:Drivers/lvgl/src/core/../misc/lv_anim.h ****     a->end_value = end;
 2382              		.loc 2 172 5 is_stmt 1 view .LVU745
 172:Drivers/lvgl/src/core/../misc/lv_anim.h ****     a->end_value = end;
 2383              		.loc 2 172 22 is_stmt 0 view .LVU746
 2384 00a8 0A93     		str	r3, [sp, #40]
 173:Drivers/lvgl/src/core/../misc/lv_anim.h **** }
 2385              		.loc 2 173 5 is_stmt 1 view .LVU747
 173:Drivers/lvgl/src/core/../misc/lv_anim.h **** }
 2386              		.loc 2 173 18 is_stmt 0 view .LVU748
 2387 00aa FF22     		movs	r2, #255
 2388 00ac 0B92     		str	r2, [sp, #44]
 2389              	.LVL257:
 173:Drivers/lvgl/src/core/../misc/lv_anim.h **** }
 2390              		.loc 2 173 18 view .LVU749
 2391              	.LBE131:
 2392              	.LBE130:
 371:Drivers/lvgl/src/core/lv_obj_style.c ****     lv_anim_set_delay(&a, tr_dsc->delay);
 2393              		.loc 1 371 5 is_stmt 1 view .LVU750
 371:Drivers/lvgl/src/core/lv_obj_style.c ****     lv_anim_set_delay(&a, tr_dsc->delay);
 2394              		.loc 1 371 32 is_stmt 0 view .LVU751
 2395 00ae 3288     		ldrh	r2, [r6]
 2396              	.LVL258:
 2397              	.LBB132:
 2398              	.LBI132:
 148:Drivers/lvgl/src/core/../misc/lv_anim.h **** {
 2399              		.loc 2 148 20 is_stmt 1 view .LVU752
 2400              	.LBB133:
 150:Drivers/lvgl/src/core/../misc/lv_anim.h **** }
 2401              		.loc 2 150 5 view .LVU753
 150:Drivers/lvgl/src/core/../misc/lv_anim.h **** }
ARM GAS  /var/folders/0z/tsy30v1j4xl4_7kw94k978ww0000gn/T//cc8A9NTU.s 			page 94


 2402              		.loc 2 150 13 is_stmt 0 view .LVU754
 2403 00b0 0C92     		str	r2, [sp, #48]
 2404              	.LVL259:
 150:Drivers/lvgl/src/core/../misc/lv_anim.h **** }
 2405              		.loc 2 150 13 view .LVU755
 2406              	.LBE133:
 2407              	.LBE132:
 372:Drivers/lvgl/src/core/lv_obj_style.c ****     lv_anim_set_path_cb(&a, tr_dsc->path_cb);
 2408              		.loc 1 372 5 is_stmt 1 view .LVU756
 372:Drivers/lvgl/src/core/lv_obj_style.c ****     lv_anim_set_path_cb(&a, tr_dsc->path_cb);
 2409              		.loc 1 372 33 is_stmt 0 view .LVU757
 2410 00b2 7288     		ldrh	r2, [r6, #2]
 2411              	.LVL260:
 2412              	.LBB134:
 2413              	.LBI134:
 158:Drivers/lvgl/src/core/../misc/lv_anim.h **** {
 2414              		.loc 2 158 20 is_stmt 1 view .LVU758
 2415              	.LBB135:
 160:Drivers/lvgl/src/core/../misc/lv_anim.h **** }
 2416              		.loc 2 160 5 view .LVU759
 160:Drivers/lvgl/src/core/../misc/lv_anim.h **** }
 2417              		.loc 2 160 19 is_stmt 0 view .LVU760
 2418 00b4 5242     		rsbs	r2, r2, #0
 2419              	.LVL261:
 160:Drivers/lvgl/src/core/../misc/lv_anim.h **** }
 2420              		.loc 2 160 17 view .LVU761
 2421 00b6 0D92     		str	r2, [sp, #52]
 2422              	.LVL262:
 160:Drivers/lvgl/src/core/../misc/lv_anim.h **** }
 2423              		.loc 2 160 17 view .LVU762
 2424              	.LBE135:
 2425              	.LBE134:
 373:Drivers/lvgl/src/core/lv_obj_style.c ****     lv_anim_set_early_apply(&a, false);
 2426              		.loc 1 373 5 is_stmt 1 view .LVU763
 373:Drivers/lvgl/src/core/lv_obj_style.c ****     lv_anim_set_early_apply(&a, false);
 2427              		.loc 1 373 35 is_stmt 0 view .LVU764
 2428 00b8 F268     		ldr	r2, [r6, #12]
 2429              	.LVL263:
 2430              	.LBB136:
 2431              	.LBI136:
 196:Drivers/lvgl/src/core/../misc/lv_anim.h **** {
 2432              		.loc 2 196 20 is_stmt 1 view .LVU765
 2433              	.LBB137:
 198:Drivers/lvgl/src/core/../misc/lv_anim.h **** }
 2434              		.loc 2 198 5 view .LVU766
 198:Drivers/lvgl/src/core/../misc/lv_anim.h **** }
 2435              		.loc 2 198 16 is_stmt 0 view .LVU767
 2436 00ba 0892     		str	r2, [sp, #32]
 2437              	.LVL264:
 198:Drivers/lvgl/src/core/../misc/lv_anim.h **** }
 2438              		.loc 2 198 16 view .LVU768
 2439              	.LBE137:
 2440              	.LBE136:
 374:Drivers/lvgl/src/core/lv_obj_style.c **** #if LV_USE_USER_DATA
 2441              		.loc 1 374 5 is_stmt 1 view .LVU769
 2442              	.LBB138:
 2443              	.LBI138:
ARM GAS  /var/folders/0z/tsy30v1j4xl4_7kw94k978ww0000gn/T//cc8A9NTU.s 			page 95


 230:Drivers/lvgl/src/core/../misc/lv_anim.h **** }
 231:Drivers/lvgl/src/core/../misc/lv_anim.h **** 
 232:Drivers/lvgl/src/core/../misc/lv_anim.h **** /**
 233:Drivers/lvgl/src/core/../misc/lv_anim.h ****  * Set a function call when the animation is deleted.
 234:Drivers/lvgl/src/core/../misc/lv_anim.h ****  * @param a         pointer to an initialized `lv_anim_t` variable
 235:Drivers/lvgl/src/core/../misc/lv_anim.h ****  * @param deleted_cb  a function call when the animation is deleted
 236:Drivers/lvgl/src/core/../misc/lv_anim.h ****  */
 237:Drivers/lvgl/src/core/../misc/lv_anim.h **** static inline void lv_anim_set_deleted_cb(lv_anim_t * a, lv_anim_deleted_cb_t deleted_cb)
 238:Drivers/lvgl/src/core/../misc/lv_anim.h **** {
 239:Drivers/lvgl/src/core/../misc/lv_anim.h ****     a->deleted_cb = deleted_cb;
 240:Drivers/lvgl/src/core/../misc/lv_anim.h **** }
 241:Drivers/lvgl/src/core/../misc/lv_anim.h **** 
 242:Drivers/lvgl/src/core/../misc/lv_anim.h **** /**
 243:Drivers/lvgl/src/core/../misc/lv_anim.h ****  * Make the animation to play back to when the forward direction is ready
 244:Drivers/lvgl/src/core/../misc/lv_anim.h ****  * @param a         pointer to an initialized `lv_anim_t` variable
 245:Drivers/lvgl/src/core/../misc/lv_anim.h ****  * @param time      the duration of the playback animation in milliseconds. 0: disable playback
 246:Drivers/lvgl/src/core/../misc/lv_anim.h ****  */
 247:Drivers/lvgl/src/core/../misc/lv_anim.h **** static inline void lv_anim_set_playback_time(lv_anim_t * a, uint32_t time)
 248:Drivers/lvgl/src/core/../misc/lv_anim.h **** {
 249:Drivers/lvgl/src/core/../misc/lv_anim.h ****     a->playback_time = time;
 250:Drivers/lvgl/src/core/../misc/lv_anim.h **** }
 251:Drivers/lvgl/src/core/../misc/lv_anim.h **** 
 252:Drivers/lvgl/src/core/../misc/lv_anim.h **** /**
 253:Drivers/lvgl/src/core/../misc/lv_anim.h ****  * Make the animation to play back to when the forward direction is ready
 254:Drivers/lvgl/src/core/../misc/lv_anim.h ****  * @param a         pointer to an initialized `lv_anim_t` variable
 255:Drivers/lvgl/src/core/../misc/lv_anim.h ****  * @param delay     delay in milliseconds before starting the playback animation.
 256:Drivers/lvgl/src/core/../misc/lv_anim.h ****  */
 257:Drivers/lvgl/src/core/../misc/lv_anim.h **** static inline void lv_anim_set_playback_delay(lv_anim_t * a, uint32_t delay)
 258:Drivers/lvgl/src/core/../misc/lv_anim.h **** {
 259:Drivers/lvgl/src/core/../misc/lv_anim.h ****     a->playback_delay = delay;
 260:Drivers/lvgl/src/core/../misc/lv_anim.h **** }
 261:Drivers/lvgl/src/core/../misc/lv_anim.h **** 
 262:Drivers/lvgl/src/core/../misc/lv_anim.h **** /**
 263:Drivers/lvgl/src/core/../misc/lv_anim.h ****  * Make the animation repeat itself.
 264:Drivers/lvgl/src/core/../misc/lv_anim.h ****  * @param a         pointer to an initialized `lv_anim_t` variable
 265:Drivers/lvgl/src/core/../misc/lv_anim.h ****  * @param cnt       repeat count or `LV_ANIM_REPEAT_INFINITE` for infinite repetition. 0: to disabl
 266:Drivers/lvgl/src/core/../misc/lv_anim.h ****  */
 267:Drivers/lvgl/src/core/../misc/lv_anim.h **** static inline void lv_anim_set_repeat_count(lv_anim_t * a, uint16_t cnt)
 268:Drivers/lvgl/src/core/../misc/lv_anim.h **** {
 269:Drivers/lvgl/src/core/../misc/lv_anim.h ****     a->repeat_cnt = cnt;
 270:Drivers/lvgl/src/core/../misc/lv_anim.h **** }
 271:Drivers/lvgl/src/core/../misc/lv_anim.h **** 
 272:Drivers/lvgl/src/core/../misc/lv_anim.h **** /**
 273:Drivers/lvgl/src/core/../misc/lv_anim.h ****  * Set a delay before repeating the animation.
 274:Drivers/lvgl/src/core/../misc/lv_anim.h ****  * @param a         pointer to an initialized `lv_anim_t` variable
 275:Drivers/lvgl/src/core/../misc/lv_anim.h ****  * @param delay     delay in milliseconds before repeating the animation.
 276:Drivers/lvgl/src/core/../misc/lv_anim.h ****  */
 277:Drivers/lvgl/src/core/../misc/lv_anim.h **** static inline void lv_anim_set_repeat_delay(lv_anim_t * a, uint32_t delay)
 278:Drivers/lvgl/src/core/../misc/lv_anim.h **** {
 279:Drivers/lvgl/src/core/../misc/lv_anim.h ****     a->repeat_delay = delay;
 280:Drivers/lvgl/src/core/../misc/lv_anim.h **** }
 281:Drivers/lvgl/src/core/../misc/lv_anim.h **** 
 282:Drivers/lvgl/src/core/../misc/lv_anim.h **** /**
 283:Drivers/lvgl/src/core/../misc/lv_anim.h ****  * Set a whether the animation's should be applied immediately or only when the delay expired.
 284:Drivers/lvgl/src/core/../misc/lv_anim.h ****  * @param a         pointer to an initialized `lv_anim_t` variable
 285:Drivers/lvgl/src/core/../misc/lv_anim.h ****  * @param en        true: apply the start value immediately in `lv_anim_start`;
 286:Drivers/lvgl/src/core/../misc/lv_anim.h ****  *                  false: apply the start value only when `delay` ms is elapsed and the animations
ARM GAS  /var/folders/0z/tsy30v1j4xl4_7kw94k978ww0000gn/T//cc8A9NTU.s 			page 96


 287:Drivers/lvgl/src/core/../misc/lv_anim.h ****  */
 288:Drivers/lvgl/src/core/../misc/lv_anim.h **** static inline void lv_anim_set_early_apply(lv_anim_t * a, bool en)
 2444              		.loc 2 288 20 view .LVU770
 2445              	.LBB139:
 289:Drivers/lvgl/src/core/../misc/lv_anim.h **** {
 290:Drivers/lvgl/src/core/../misc/lv_anim.h ****     a->early_apply = en;
 2446              		.loc 2 290 5 view .LVU771
 2447              		.loc 2 290 20 is_stmt 0 view .LVU772
 2448 00bc 9DF84620 		ldrb	r2, [sp, #70]	@ zero_extendqisi2
 2449 00c0 63F30002 		bfi	r2, r3, #0, #1
 2450 00c4 8DF84620 		strb	r2, [sp, #70]
 2451              	.LVL265:
 2452              		.loc 2 290 20 view .LVU773
 2453              	.LBE139:
 2454              	.LBE138:
 376:Drivers/lvgl/src/core/lv_obj_style.c **** #endif
 2455              		.loc 1 376 5 is_stmt 1 view .LVU774
 376:Drivers/lvgl/src/core/lv_obj_style.c **** #endif
 2456              		.loc 1 376 25 is_stmt 0 view .LVU775
 2457 00c8 3369     		ldr	r3, [r6, #16]
 376:Drivers/lvgl/src/core/lv_obj_style.c **** #endif
 2458              		.loc 1 376 17 view .LVU776
 2459 00ca 0793     		str	r3, [sp, #28]
 378:Drivers/lvgl/src/core/lv_obj_style.c **** }
 2460              		.loc 1 378 5 is_stmt 1 view .LVU777
 2461 00cc 01A8     		add	r0, sp, #4
 2462 00ce FFF7FEFF 		bl	lv_anim_start
 2463              	.LVL266:
 2464              	.L156:
 379:Drivers/lvgl/src/core/lv_obj_style.c **** 
 2465              		.loc 1 379 1 is_stmt 0 view .LVU778
 2466 00d2 13B0     		add	sp, sp, #76
 2467              		.cfi_remember_state
 2468              		.cfi_def_cfa_offset 36
 2469              		@ sp needed
 2470 00d4 BDE8F08F 		pop	{r4, r5, r6, r7, r8, r9, r10, fp, pc}
 2471              	.LVL267:
 2472              	.L169:
 2473              		.cfi_restore_state
 338:Drivers/lvgl/src/core/lv_obj_style.c ****     obj->state = prev_state;
 2474              		.loc 1 338 45 discriminator 1 view .LVU779
 2475 00d8 B6D1     		bne	.L157
 2476 00da FAE7     		b	.L156
 2477              	.LVL268:
 2478              	.L170:
 347:Drivers/lvgl/src/core/lv_obj_style.c ****             lv_coord_t whalf = lv_obj_get_width(obj) / 2;
 2479              		.loc 1 347 9 is_stmt 1 view .LVU780
 347:Drivers/lvgl/src/core/lv_obj_style.c ****             lv_coord_t whalf = lv_obj_get_width(obj) / 2;
 2480              		.loc 1 347 14 is_stmt 0 view .LVU781
 2481 00dc AA46     		mov	r10, r5
 347:Drivers/lvgl/src/core/lv_obj_style.c ****             lv_coord_t whalf = lv_obj_get_width(obj) / 2;
 2482              		.loc 1 347 11 view .LVU782
 2483 00de 47F6FF73 		movw	r3, #32767
 2484 00e2 9D42     		cmp	r5, r3
 2485 00e4 01D0     		beq	.L160
 347:Drivers/lvgl/src/core/lv_obj_style.c ****             lv_coord_t whalf = lv_obj_get_width(obj) / 2;
 2486              		.loc 1 347 39 discriminator 1 view .LVU783
ARM GAS  /var/folders/0z/tsy30v1j4xl4_7kw94k978ww0000gn/T//cc8A9NTU.s 			page 97


 2487 00e6 9B45     		cmp	fp, r3
 2488 00e8 C4D1     		bne	.L159
 2489              	.L160:
 2490              	.LBB140:
 348:Drivers/lvgl/src/core/lv_obj_style.c ****             lv_coord_t hhalf = lv_obj_get_height(obj) / 2;
 2491              		.loc 1 348 13 is_stmt 1 view .LVU784
 348:Drivers/lvgl/src/core/lv_obj_style.c ****             lv_coord_t hhalf = lv_obj_get_height(obj) / 2;
 2492              		.loc 1 348 32 is_stmt 0 view .LVU785
 2493 00ea 2046     		mov	r0, r4
 2494 00ec FFF7FEFF 		bl	lv_obj_get_width
 2495              	.LVL269:
 348:Drivers/lvgl/src/core/lv_obj_style.c ****             lv_coord_t hhalf = lv_obj_get_height(obj) / 2;
 2496              		.loc 1 348 24 view .LVU786
 2497 00f0 00EBD070 		add	r0, r0, r0, lsr #31
 2498 00f4 40F34F09 		sbfx	r9, r0, #1, #16
 2499              	.LVL270:
 349:Drivers/lvgl/src/core/lv_obj_style.c ****             if(v1.num == LV_RADIUS_CIRCLE) v1.num = LV_MIN(whalf + 1, hhalf + 1);
 2500              		.loc 1 349 13 is_stmt 1 view .LVU787
 349:Drivers/lvgl/src/core/lv_obj_style.c ****             if(v1.num == LV_RADIUS_CIRCLE) v1.num = LV_MIN(whalf + 1, hhalf + 1);
 2501              		.loc 1 349 32 is_stmt 0 view .LVU788
 2502 00f8 2046     		mov	r0, r4
 2503 00fa FFF7FEFF 		bl	lv_obj_get_height
 2504              	.LVL271:
 349:Drivers/lvgl/src/core/lv_obj_style.c ****             if(v1.num == LV_RADIUS_CIRCLE) v1.num = LV_MIN(whalf + 1, hhalf + 1);
 2505              		.loc 1 349 24 view .LVU789
 2506 00fe 00EBD070 		add	r0, r0, r0, lsr #31
 2507 0102 40F34F03 		sbfx	r3, r0, #1, #16
 2508              	.LVL272:
 350:Drivers/lvgl/src/core/lv_obj_style.c ****             if(v2.num == LV_RADIUS_CIRCLE) v2.num = LV_MIN(whalf + 1, hhalf + 1);
 2509              		.loc 1 350 13 is_stmt 1 view .LVU790
 350:Drivers/lvgl/src/core/lv_obj_style.c ****             if(v2.num == LV_RADIUS_CIRCLE) v2.num = LV_MIN(whalf + 1, hhalf + 1);
 2510              		.loc 1 350 15 is_stmt 0 view .LVU791
 2511 0106 47F6FF72 		movw	r2, #32767
 2512 010a 9245     		cmp	r10, r2
 2513 010c 09D0     		beq	.L171
 2514              	.L161:
 351:Drivers/lvgl/src/core/lv_obj_style.c ****         }
 2515              		.loc 1 351 13 is_stmt 1 view .LVU792
 351:Drivers/lvgl/src/core/lv_obj_style.c ****         }
 2516              		.loc 1 351 15 is_stmt 0 view .LVU793
 2517 010e 47F6FF72 		movw	r2, #32767
 2518 0112 9345     		cmp	fp, r2
 2519 0114 AED1     		bne	.L159
 351:Drivers/lvgl/src/core/lv_obj_style.c ****         }
 2520              		.loc 1 351 44 is_stmt 1 discriminator 1 view .LVU794
 351:Drivers/lvgl/src/core/lv_obj_style.c ****         }
 2521              		.loc 1 351 53 is_stmt 0 discriminator 1 view .LVU795
 2522 0116 9945     		cmp	r9, r3
 2523 0118 0ADA     		bge	.L164
 351:Drivers/lvgl/src/core/lv_obj_style.c ****         }
 2524              		.loc 1 351 53 discriminator 2 view .LVU796
 2525 011a 09F10103 		add	r3, r9, #1
 2526              	.LVL273:
 2527              	.L165:
 351:Drivers/lvgl/src/core/lv_obj_style.c ****         }
 2528              		.loc 1 351 51 discriminator 5 view .LVU797
 2529 011e 9846     		mov	r8, r3
ARM GAS  /var/folders/0z/tsy30v1j4xl4_7kw94k978ww0000gn/T//cc8A9NTU.s 			page 98


 351:Drivers/lvgl/src/core/lv_obj_style.c ****         }
 2530              		.loc 1 351 51 discriminator 5 view .LVU798
 2531 0120 A8E7     		b	.L159
 2532              	.LVL274:
 2533              	.L171:
 350:Drivers/lvgl/src/core/lv_obj_style.c ****             if(v2.num == LV_RADIUS_CIRCLE) v2.num = LV_MIN(whalf + 1, hhalf + 1);
 2534              		.loc 1 350 44 is_stmt 1 discriminator 1 view .LVU799
 350:Drivers/lvgl/src/core/lv_obj_style.c ****             if(v2.num == LV_RADIUS_CIRCLE) v2.num = LV_MIN(whalf + 1, hhalf + 1);
 2535              		.loc 1 350 53 is_stmt 0 discriminator 1 view .LVU800
 2536 0122 9945     		cmp	r9, r3
 2537 0124 02DA     		bge	.L162
 350:Drivers/lvgl/src/core/lv_obj_style.c ****             if(v2.num == LV_RADIUS_CIRCLE) v2.num = LV_MIN(whalf + 1, hhalf + 1);
 2538              		.loc 1 350 53 discriminator 2 view .LVU801
 2539 0126 09F10105 		add	r5, r9, #1
 2540              	.LVL275:
 350:Drivers/lvgl/src/core/lv_obj_style.c ****             if(v2.num == LV_RADIUS_CIRCLE) v2.num = LV_MIN(whalf + 1, hhalf + 1);
 2541              		.loc 1 350 53 discriminator 2 view .LVU802
 2542 012a F0E7     		b	.L161
 2543              	.LVL276:
 2544              	.L162:
 350:Drivers/lvgl/src/core/lv_obj_style.c ****             if(v2.num == LV_RADIUS_CIRCLE) v2.num = LV_MIN(whalf + 1, hhalf + 1);
 2545              		.loc 1 350 53 discriminator 3 view .LVU803
 2546 012c 5D1C     		adds	r5, r3, #1
 2547              	.LVL277:
 350:Drivers/lvgl/src/core/lv_obj_style.c ****             if(v2.num == LV_RADIUS_CIRCLE) v2.num = LV_MIN(whalf + 1, hhalf + 1);
 2548              		.loc 1 350 53 discriminator 3 view .LVU804
 2549 012e EEE7     		b	.L161
 2550              	.LVL278:
 2551              	.L164:
 351:Drivers/lvgl/src/core/lv_obj_style.c ****         }
 2552              		.loc 1 351 53 discriminator 3 view .LVU805
 2553 0130 0133     		adds	r3, r3, #1
 2554              	.LVL279:
 351:Drivers/lvgl/src/core/lv_obj_style.c ****         }
 2555              		.loc 1 351 53 discriminator 3 view .LVU806
 2556 0132 F4E7     		b	.L165
 2557              	.LVL280:
 2558              	.L167:
 351:Drivers/lvgl/src/core/lv_obj_style.c ****         }
 2559              		.loc 1 351 53 discriminator 3 view .LVU807
 2560              	.LBE140:
 356:Drivers/lvgl/src/core/lv_obj_style.c ****     if(tr == NULL) return;
 2561              		.loc 1 356 5 is_stmt 1 discriminator 1 view .LVU808
 356:Drivers/lvgl/src/core/lv_obj_style.c ****     if(tr == NULL) return;
 2562              		.loc 1 356 5 discriminator 1 view .LVU809
 356:Drivers/lvgl/src/core/lv_obj_style.c ****     if(tr == NULL) return;
 2563              		.loc 1 356 5 discriminator 1 view .LVU810
 356:Drivers/lvgl/src/core/lv_obj_style.c ****     if(tr == NULL) return;
 2564              		.loc 1 356 5 discriminator 1 view .LVU811
 356:Drivers/lvgl/src/core/lv_obj_style.c ****     if(tr == NULL) return;
 2565              		.loc 1 356 5 discriminator 1 view .LVU812
 2566 0134 FEE7     		b	.L167
 2567              	.L173:
 2568 0136 00BF     		.align	2
 2569              	.L172:
 2570 0138 00000000 		.word	_lv_obj_style_trans_ll
 2571 013c 00000000 		.word	trans_anim_cb
ARM GAS  /var/folders/0z/tsy30v1j4xl4_7kw94k978ww0000gn/T//cc8A9NTU.s 			page 99


 2572 0140 00000000 		.word	trans_anim_start_cb
 2573 0144 00000000 		.word	trans_anim_ready_cb
 2574              		.cfi_endproc
 2575              	.LFE178:
 2577              		.section	.text._lv_obj_style_apply_color_filter,"ax",%progbits
 2578              		.align	1
 2579              		.global	_lv_obj_style_apply_color_filter
 2580              		.syntax unified
 2581              		.thumb
 2582              		.thumb_func
 2584              	_lv_obj_style_apply_color_filter:
 2585              	.LVL281:
 2586              	.LFB179:
 383:Drivers/lvgl/src/core/lv_obj_style.c ****     if(obj == NULL) return v;
 2587              		.loc 1 383 1 view -0
 2588              		.cfi_startproc
 2589              		@ args = 0, pretend = 0, frame = 0
 2590              		@ frame_needed = 0, uses_anonymous_args = 0
 383:Drivers/lvgl/src/core/lv_obj_style.c ****     if(obj == NULL) return v;
 2591              		.loc 1 383 1 is_stmt 0 view .LVU814
 2592 0000 F8B5     		push	{r3, r4, r5, r6, r7, lr}
 2593              		.cfi_def_cfa_offset 24
 2594              		.cfi_offset 3, -24
 2595              		.cfi_offset 4, -20
 2596              		.cfi_offset 5, -16
 2597              		.cfi_offset 6, -12
 2598              		.cfi_offset 7, -8
 2599              		.cfi_offset 14, -4
 2600 0002 1446     		mov	r4, r2
 2601              	.LVL282:
 384:Drivers/lvgl/src/core/lv_obj_style.c ****     const lv_color_filter_dsc_t * f = lv_obj_get_style_color_filter_dsc(obj, part);
 2602              		.loc 1 384 5 is_stmt 1 view .LVU815
 384:Drivers/lvgl/src/core/lv_obj_style.c ****     const lv_color_filter_dsc_t * f = lv_obj_get_style_color_filter_dsc(obj, part);
 2603              		.loc 1 384 7 is_stmt 0 view .LVU816
 2604 0004 C0B1     		cbz	r0, .L179
 2605 0006 0D46     		mov	r5, r1
 2606 0008 0646     		mov	r6, r0
 385:Drivers/lvgl/src/core/lv_obj_style.c ****     if(f && f->filter_cb) {
 2607              		.loc 1 385 5 is_stmt 1 view .LVU817
 2608              	.LVL283:
 2609              	.LBB141:
 2610              	.LBI141:
 517:Drivers/lvgl/src/core/lv_obj_style_gen.h **** {
 2611              		.loc 4 517 45 view .LVU818
 2612              	.LBB142:
 519:Drivers/lvgl/src/core/lv_obj_style_gen.h ****     return (const lv_color_filter_dsc_t *)v.ptr;
 2613              		.loc 4 519 5 view .LVU819
 519:Drivers/lvgl/src/core/lv_obj_style_gen.h ****     return (const lv_color_filter_dsc_t *)v.ptr;
 2614              		.loc 4 519 26 is_stmt 0 view .LVU820
 2615 000a 6222     		movs	r2, #98
 2616 000c FFF7FEFF 		bl	lv_obj_get_style_prop
 2617              	.LVL284:
 520:Drivers/lvgl/src/core/lv_obj_style_gen.h **** }
 2618              		.loc 4 520 5 is_stmt 1 view .LVU821
 520:Drivers/lvgl/src/core/lv_obj_style_gen.h **** }
 2619              		.loc 4 520 5 is_stmt 0 view .LVU822
 2620              	.LBE142:
ARM GAS  /var/folders/0z/tsy30v1j4xl4_7kw94k978ww0000gn/T//cc8A9NTU.s 			page 100


 2621              	.LBE141:
 386:Drivers/lvgl/src/core/lv_obj_style.c ****         lv_opa_t f_opa = lv_obj_get_style_color_filter_opa(obj, part);
 2622              		.loc 1 386 5 is_stmt 1 view .LVU823
 386:Drivers/lvgl/src/core/lv_obj_style.c ****         lv_opa_t f_opa = lv_obj_get_style_color_filter_opa(obj, part);
 2623              		.loc 1 386 7 is_stmt 0 view .LVU824
 2624 0010 0746     		mov	r7, r0
 2625 0012 78B1     		cbz	r0, .L177
 386:Drivers/lvgl/src/core/lv_obj_style.c ****         lv_opa_t f_opa = lv_obj_get_style_color_filter_opa(obj, part);
 2626              		.loc 1 386 14 discriminator 1 view .LVU825
 2627 0014 0368     		ldr	r3, [r0]
 386:Drivers/lvgl/src/core/lv_obj_style.c ****         lv_opa_t f_opa = lv_obj_get_style_color_filter_opa(obj, part);
 2628              		.loc 1 386 10 discriminator 1 view .LVU826
 2629 0016 6BB1     		cbz	r3, .L177
 2630              	.LBB143:
 387:Drivers/lvgl/src/core/lv_obj_style.c ****         if(f_opa != 0) v.color = f->filter_cb(f, v.color, f_opa);
 2631              		.loc 1 387 9 is_stmt 1 view .LVU827
 2632              	.LVL285:
 2633              	.LBB144:
 2634              	.LBI144:
 523:Drivers/lvgl/src/core/lv_obj_style_gen.h **** {
 2635              		.loc 4 523 24 view .LVU828
 2636              	.LBB145:
 525:Drivers/lvgl/src/core/lv_obj_style_gen.h ****     return (lv_opa_t)v.num;
 2637              		.loc 4 525 5 view .LVU829
 525:Drivers/lvgl/src/core/lv_obj_style_gen.h ****     return (lv_opa_t)v.num;
 2638              		.loc 4 525 26 is_stmt 0 view .LVU830
 2639 0018 6322     		movs	r2, #99
 2640 001a 2946     		mov	r1, r5
 2641 001c 3046     		mov	r0, r6
 2642              	.LVL286:
 525:Drivers/lvgl/src/core/lv_obj_style_gen.h ****     return (lv_opa_t)v.num;
 2643              		.loc 4 525 26 view .LVU831
 2644 001e FFF7FEFF 		bl	lv_obj_get_style_prop
 2645              	.LVL287:
 526:Drivers/lvgl/src/core/lv_obj_style_gen.h **** }
 2646              		.loc 4 526 5 is_stmt 1 view .LVU832
 526:Drivers/lvgl/src/core/lv_obj_style_gen.h **** }
 2647              		.loc 4 526 5 is_stmt 0 view .LVU833
 2648              	.LBE145:
 2649              	.LBE144:
 388:Drivers/lvgl/src/core/lv_obj_style.c ****     }
 2650              		.loc 1 388 9 is_stmt 1 view .LVU834
 388:Drivers/lvgl/src/core/lv_obj_style.c ****     }
 2651              		.loc 1 388 11 is_stmt 0 view .LVU835
 2652 0022 10F0FF02 		ands	r2, r0, #255
 2653 0026 05D0     		beq	.L177
 388:Drivers/lvgl/src/core/lv_obj_style.c ****     }
 2654              		.loc 1 388 24 is_stmt 1 discriminator 1 view .LVU836
 388:Drivers/lvgl/src/core/lv_obj_style.c ****     }
 2655              		.loc 1 388 35 is_stmt 0 discriminator 1 view .LVU837
 2656 0028 3B68     		ldr	r3, [r7]
 388:Drivers/lvgl/src/core/lv_obj_style.c ****     }
 2657              		.loc 1 388 34 discriminator 1 view .LVU838
 2658 002a 2146     		mov	r1, r4	@ movhi
 2659 002c 3846     		mov	r0, r7
 2660              	.LVL288:
 388:Drivers/lvgl/src/core/lv_obj_style.c ****     }
ARM GAS  /var/folders/0z/tsy30v1j4xl4_7kw94k978ww0000gn/T//cc8A9NTU.s 			page 101


 2661              		.loc 1 388 34 discriminator 1 view .LVU839
 2662 002e 9847     		blx	r3
 2663              	.LVL289:
 2664 0030 60F30F04 		bfi	r4, r0, #0, #16
 2665              	.LVL290:
 2666              	.L177:
 388:Drivers/lvgl/src/core/lv_obj_style.c ****     }
 2667              		.loc 1 388 34 discriminator 1 view .LVU840
 2668              	.LBE143:
 390:Drivers/lvgl/src/core/lv_obj_style.c **** }
 2669              		.loc 1 390 5 is_stmt 1 view .LVU841
 390:Drivers/lvgl/src/core/lv_obj_style.c **** }
 2670              		.loc 1 390 12 is_stmt 0 view .LVU842
 2671 0034 2046     		mov	r0, r4
 2672              	.LVL291:
 2673              	.L176:
 391:Drivers/lvgl/src/core/lv_obj_style.c **** 
 2674              		.loc 1 391 1 view .LVU843
 2675 0036 F8BD     		pop	{r3, r4, r5, r6, r7, pc}
 2676              	.LVL292:
 2677              	.L179:
 384:Drivers/lvgl/src/core/lv_obj_style.c ****     const lv_color_filter_dsc_t * f = lv_obj_get_style_color_filter_dsc(obj, part);
 2678              		.loc 1 384 21 is_stmt 1 discriminator 1 view .LVU844
 384:Drivers/lvgl/src/core/lv_obj_style.c ****     const lv_color_filter_dsc_t * f = lv_obj_get_style_color_filter_dsc(obj, part);
 2679              		.loc 1 384 28 is_stmt 0 discriminator 1 view .LVU845
 2680 0038 1046     		mov	r0, r2
 2681              	.LVL293:
 384:Drivers/lvgl/src/core/lv_obj_style.c ****     const lv_color_filter_dsc_t * f = lv_obj_get_style_color_filter_dsc(obj, part);
 2682              		.loc 1 384 28 discriminator 1 view .LVU846
 2683 003a FCE7     		b	.L176
 2684              		.cfi_endproc
 2685              	.LFE179:
 2687              		.section	.text.lv_obj_fade_out,"ax",%progbits
 2688              		.align	1
 2689              		.global	lv_obj_fade_out
 2690              		.syntax unified
 2691              		.thumb
 2692              		.thumb_func
 2694              	lv_obj_fade_out:
 2695              	.LVL294:
 2696              	.LFB182:
 469:Drivers/lvgl/src/core/lv_obj_style.c ****     lv_anim_t a;
 2697              		.loc 1 469 1 is_stmt 1 view -0
 2698              		.cfi_startproc
 2699              		@ args = 0, pretend = 0, frame = 72
 2700              		@ frame_needed = 0, uses_anonymous_args = 0
 469:Drivers/lvgl/src/core/lv_obj_style.c ****     lv_anim_t a;
 2701              		.loc 1 469 1 is_stmt 0 view .LVU848
 2702 0000 70B5     		push	{r4, r5, r6, lr}
 2703              		.cfi_def_cfa_offset 16
 2704              		.cfi_offset 4, -16
 2705              		.cfi_offset 5, -12
 2706              		.cfi_offset 6, -8
 2707              		.cfi_offset 14, -4
 2708 0002 92B0     		sub	sp, sp, #72
 2709              		.cfi_def_cfa_offset 88
 2710 0004 0546     		mov	r5, r0
ARM GAS  /var/folders/0z/tsy30v1j4xl4_7kw94k978ww0000gn/T//cc8A9NTU.s 			page 102


 2711 0006 0E46     		mov	r6, r1
 2712 0008 1446     		mov	r4, r2
 470:Drivers/lvgl/src/core/lv_obj_style.c ****     lv_anim_init(&a);
 2713              		.loc 1 470 5 is_stmt 1 view .LVU849
 471:Drivers/lvgl/src/core/lv_obj_style.c ****     lv_anim_set_var(&a, obj);
 2714              		.loc 1 471 5 view .LVU850
 2715 000a 01A8     		add	r0, sp, #4
 2716              	.LVL295:
 471:Drivers/lvgl/src/core/lv_obj_style.c ****     lv_anim_set_var(&a, obj);
 2717              		.loc 1 471 5 is_stmt 0 view .LVU851
 2718 000c FFF7FEFF 		bl	lv_anim_init
 2719              	.LVL296:
 472:Drivers/lvgl/src/core/lv_obj_style.c ****     lv_anim_set_values(&a, lv_obj_get_style_opa(obj, 0), LV_OPA_TRANSP);
 2720              		.loc 1 472 5 is_stmt 1 view .LVU852
 2721              	.LBB146:
 2722              	.LBI146:
 126:Drivers/lvgl/src/core/../misc/lv_anim.h **** {
 2723              		.loc 2 126 20 view .LVU853
 2724              	.LBB147:
 128:Drivers/lvgl/src/core/../misc/lv_anim.h **** }
 2725              		.loc 2 128 5 view .LVU854
 128:Drivers/lvgl/src/core/../misc/lv_anim.h **** }
 2726              		.loc 2 128 12 is_stmt 0 view .LVU855
 2727 0010 0195     		str	r5, [sp, #4]
 2728              	.LVL297:
 128:Drivers/lvgl/src/core/../misc/lv_anim.h **** }
 2729              		.loc 2 128 12 view .LVU856
 2730              	.LBE147:
 2731              	.LBE146:
 473:Drivers/lvgl/src/core/lv_obj_style.c ****     lv_anim_set_exec_cb(&a, fade_anim_cb);
 2732              		.loc 1 473 5 is_stmt 1 view .LVU857
 2733              	.LBB148:
 2734              	.LBI148:
 505:Drivers/lvgl/src/core/lv_obj_style_gen.h **** {
 2735              		.loc 4 505 24 view .LVU858
 2736              	.LBB149:
 507:Drivers/lvgl/src/core/lv_obj_style_gen.h ****     return (lv_opa_t)v.num;
 2737              		.loc 4 507 5 view .LVU859
 507:Drivers/lvgl/src/core/lv_obj_style_gen.h ****     return (lv_opa_t)v.num;
 2738              		.loc 4 507 26 is_stmt 0 view .LVU860
 2739 0012 6022     		movs	r2, #96
 2740 0014 0021     		movs	r1, #0
 2741 0016 2846     		mov	r0, r5
 2742 0018 FFF7FEFF 		bl	lv_obj_get_style_prop
 2743              	.LVL298:
 508:Drivers/lvgl/src/core/lv_obj_style_gen.h **** }
 2744              		.loc 4 508 5 is_stmt 1 view .LVU861
 508:Drivers/lvgl/src/core/lv_obj_style_gen.h **** }
 2745              		.loc 4 508 5 is_stmt 0 view .LVU862
 2746 001c C0B2     		uxtb	r0, r0
 2747              	.LVL299:
 508:Drivers/lvgl/src/core/lv_obj_style_gen.h **** }
 2748              		.loc 4 508 5 view .LVU863
 2749              	.LBE149:
 2750              	.LBE148:
 2751              	.LBB150:
 2752              	.LBI150:
ARM GAS  /var/folders/0z/tsy30v1j4xl4_7kw94k978ww0000gn/T//cc8A9NTU.s 			page 103


 169:Drivers/lvgl/src/core/../misc/lv_anim.h **** {
 2753              		.loc 2 169 20 is_stmt 1 view .LVU864
 2754              	.LBB151:
 171:Drivers/lvgl/src/core/../misc/lv_anim.h ****     a->current_value = start;
 2755              		.loc 2 171 5 view .LVU865
 171:Drivers/lvgl/src/core/../misc/lv_anim.h ****     a->current_value = start;
 2756              		.loc 2 171 20 is_stmt 0 view .LVU866
 2757 001e 0990     		str	r0, [sp, #36]
 172:Drivers/lvgl/src/core/../misc/lv_anim.h ****     a->end_value = end;
 2758              		.loc 2 172 5 is_stmt 1 view .LVU867
 172:Drivers/lvgl/src/core/../misc/lv_anim.h ****     a->end_value = end;
 2759              		.loc 2 172 22 is_stmt 0 view .LVU868
 2760 0020 0A90     		str	r0, [sp, #40]
 173:Drivers/lvgl/src/core/../misc/lv_anim.h **** }
 2761              		.loc 2 173 5 is_stmt 1 view .LVU869
 173:Drivers/lvgl/src/core/../misc/lv_anim.h **** }
 2762              		.loc 2 173 18 is_stmt 0 view .LVU870
 2763 0022 0023     		movs	r3, #0
 2764 0024 0B93     		str	r3, [sp, #44]
 2765              	.LVL300:
 173:Drivers/lvgl/src/core/../misc/lv_anim.h **** }
 2766              		.loc 2 173 18 view .LVU871
 2767              	.LBE151:
 2768              	.LBE150:
 474:Drivers/lvgl/src/core/lv_obj_style.c ****     lv_anim_set_time(&a, time);
 2769              		.loc 1 474 5 is_stmt 1 view .LVU872
 2770              	.LBB152:
 2771              	.LBI152:
 138:Drivers/lvgl/src/core/../misc/lv_anim.h **** {
 2772              		.loc 2 138 20 view .LVU873
 2773              	.LBB153:
 140:Drivers/lvgl/src/core/../misc/lv_anim.h **** }
 2774              		.loc 2 140 5 view .LVU874
 140:Drivers/lvgl/src/core/../misc/lv_anim.h **** }
 2775              		.loc 2 140 16 is_stmt 0 view .LVU875
 2776 0026 054B     		ldr	r3, .L182
 2777 0028 0293     		str	r3, [sp, #8]
 2778              	.LVL301:
 140:Drivers/lvgl/src/core/../misc/lv_anim.h **** }
 2779              		.loc 2 140 16 view .LVU876
 2780              	.LBE153:
 2781              	.LBE152:
 475:Drivers/lvgl/src/core/lv_obj_style.c ****     lv_anim_set_delay(&a, delay);
 2782              		.loc 1 475 5 is_stmt 1 view .LVU877
 2783              	.LBB154:
 2784              	.LBI154:
 148:Drivers/lvgl/src/core/../misc/lv_anim.h **** {
 2785              		.loc 2 148 20 view .LVU878
 2786              	.LBB155:
 150:Drivers/lvgl/src/core/../misc/lv_anim.h **** }
 2787              		.loc 2 150 5 view .LVU879
 150:Drivers/lvgl/src/core/../misc/lv_anim.h **** }
 2788              		.loc 2 150 13 is_stmt 0 view .LVU880
 2789 002a 0C96     		str	r6, [sp, #48]
 2790              	.LVL302:
 150:Drivers/lvgl/src/core/../misc/lv_anim.h **** }
 2791              		.loc 2 150 13 view .LVU881
ARM GAS  /var/folders/0z/tsy30v1j4xl4_7kw94k978ww0000gn/T//cc8A9NTU.s 			page 104


 2792              	.LBE155:
 2793              	.LBE154:
 476:Drivers/lvgl/src/core/lv_obj_style.c ****     lv_anim_start(&a);
 2794              		.loc 1 476 5 is_stmt 1 view .LVU882
 2795              	.LBB156:
 2796              	.LBI156:
 158:Drivers/lvgl/src/core/../misc/lv_anim.h **** {
 2797              		.loc 2 158 20 view .LVU883
 2798              	.LBB157:
 160:Drivers/lvgl/src/core/../misc/lv_anim.h **** }
 2799              		.loc 2 160 5 view .LVU884
 160:Drivers/lvgl/src/core/../misc/lv_anim.h **** }
 2800              		.loc 2 160 19 is_stmt 0 view .LVU885
 2801 002c 6442     		rsbs	r4, r4, #0
 2802              	.LVL303:
 160:Drivers/lvgl/src/core/../misc/lv_anim.h **** }
 2803              		.loc 2 160 17 view .LVU886
 2804 002e 0D94     		str	r4, [sp, #52]
 2805              	.LVL304:
 160:Drivers/lvgl/src/core/../misc/lv_anim.h **** }
 2806              		.loc 2 160 17 view .LVU887
 2807              	.LBE157:
 2808              	.LBE156:
 477:Drivers/lvgl/src/core/lv_obj_style.c **** }
 2809              		.loc 1 477 5 is_stmt 1 view .LVU888
 2810 0030 01A8     		add	r0, sp, #4
 2811 0032 FFF7FEFF 		bl	lv_anim_start
 2812              	.LVL305:
 478:Drivers/lvgl/src/core/lv_obj_style.c **** 
 2813              		.loc 1 478 1 is_stmt 0 view .LVU889
 2814 0036 12B0     		add	sp, sp, #72
 2815              		.cfi_def_cfa_offset 16
 2816              		@ sp needed
 2817 0038 70BD     		pop	{r4, r5, r6, pc}
 2818              	.LVL306:
 2819              	.L183:
 478:Drivers/lvgl/src/core/lv_obj_style.c **** 
 2820              		.loc 1 478 1 view .LVU890
 2821 003a 00BF     		.align	2
 2822              	.L182:
 2823 003c 00000000 		.word	fade_anim_cb
 2824              		.cfi_endproc
 2825              	.LFE182:
 2827              		.section	.text.lv_obj_refresh_style,"ax",%progbits
 2828              		.align	1
 2829              		.global	lv_obj_refresh_style
 2830              		.syntax unified
 2831              		.thumb
 2832              		.thumb_func
 2834              	lv_obj_refresh_style:
 2835              	.LVL307:
 2836              	.LFB171:
 168:Drivers/lvgl/src/core/lv_obj_style.c ****     LV_ASSERT_OBJ(obj, MY_CLASS);
 2837              		.loc 1 168 1 is_stmt 1 view -0
 2838              		.cfi_startproc
 2839              		@ args = 0, pretend = 0, frame = 0
 2840              		@ frame_needed = 0, uses_anonymous_args = 0
ARM GAS  /var/folders/0z/tsy30v1j4xl4_7kw94k978ww0000gn/T//cc8A9NTU.s 			page 105


 169:Drivers/lvgl/src/core/lv_obj_style.c **** 
 2841              		.loc 1 169 5 view .LVU892
 169:Drivers/lvgl/src/core/lv_obj_style.c **** 
 2842              		.loc 1 169 5 view .LVU893
 169:Drivers/lvgl/src/core/lv_obj_style.c **** 
 2843              		.loc 1 169 5 view .LVU894
 171:Drivers/lvgl/src/core/lv_obj_style.c **** 
 2844              		.loc 1 171 5 view .LVU895
 171:Drivers/lvgl/src/core/lv_obj_style.c **** 
 2845              		.loc 1 171 8 is_stmt 0 view .LVU896
 2846 0000 484B     		ldr	r3, .L205
 2847 0002 1B78     		ldrb	r3, [r3]	@ zero_extendqisi2
 171:Drivers/lvgl/src/core/lv_obj_style.c **** 
 2848              		.loc 1 171 7 view .LVU897
 2849 0004 03B9     		cbnz	r3, .L201
 2850 0006 7047     		bx	lr
 2851              	.L201:
 168:Drivers/lvgl/src/core/lv_obj_style.c ****     LV_ASSERT_OBJ(obj, MY_CLASS);
 2852              		.loc 1 168 1 view .LVU898
 2853 0008 2DE9F047 		push	{r4, r5, r6, r7, r8, r9, r10, lr}
 2854              		.cfi_def_cfa_offset 32
 2855              		.cfi_offset 4, -32
 2856              		.cfi_offset 5, -28
 2857              		.cfi_offset 6, -24
 2858              		.cfi_offset 7, -20
 2859              		.cfi_offset 8, -16
 2860              		.cfi_offset 9, -12
 2861              		.cfi_offset 10, -8
 2862              		.cfi_offset 14, -4
 2863 000c 0546     		mov	r5, r0
 2864 000e 0E46     		mov	r6, r1
 2865 0010 1446     		mov	r4, r2
 173:Drivers/lvgl/src/core/lv_obj_style.c **** 
 2866              		.loc 1 173 5 is_stmt 1 view .LVU899
 2867 0012 FFF7FEFF 		bl	lv_obj_invalidate
 2868              	.LVL308:
 175:Drivers/lvgl/src/core/lv_obj_style.c **** 
 2869              		.loc 1 175 5 view .LVU900
 175:Drivers/lvgl/src/core/lv_obj_style.c **** 
 2870              		.loc 1 175 22 is_stmt 0 view .LVU901
 2871 0016 3046     		mov	r0, r6
 2872 0018 FFF7FEFF 		bl	lv_obj_style_get_selector_part
 2873              	.LVL309:
 2874 001c 0646     		mov	r6, r0
 2875              	.LVL310:
 177:Drivers/lvgl/src/core/lv_obj_style.c ****     bool is_ext_draw = lv_style_prop_has_flag(prop, LV_STYLE_PROP_EXT_DRAW);
 2876              		.loc 1 177 5 is_stmt 1 view .LVU902
 2877              	.LBB158:
 2878              	.LBI158:
 566:Drivers/lvgl/src/core/../misc/lv_style.h **** {
 2879              		.loc 3 566 20 view .LVU903
 2880              	.LBB159:
 2881              		.loc 3 568 5 view .LVU904
 2882              		.loc 3 568 12 is_stmt 0 view .LVU905
 2883 001e 2046     		mov	r0, r4
 2884              	.LVL311:
 2885              		.loc 3 568 12 view .LVU906
ARM GAS  /var/folders/0z/tsy30v1j4xl4_7kw94k978ww0000gn/T//cc8A9NTU.s 			page 106


 2886 0020 FFF7FEFF 		bl	_lv_style_prop_lookup_flags
 2887              	.LVL312:
 2888              		.loc 3 568 46 view .LVU907
 2889 0024 00F00407 		and	r7, r0, #4
 2890              	.LVL313:
 2891              		.loc 3 568 46 view .LVU908
 2892              	.LBE159:
 2893              	.LBE158:
 178:Drivers/lvgl/src/core/lv_obj_style.c ****     bool is_inheritable = lv_style_prop_has_flag(prop, LV_STYLE_PROP_INHERIT);
 2894              		.loc 1 178 5 is_stmt 1 view .LVU909
 2895              	.LBB160:
 2896              	.LBI160:
 566:Drivers/lvgl/src/core/../misc/lv_style.h **** {
 2897              		.loc 3 566 20 view .LVU910
 2898              	.LBB161:
 2899              		.loc 3 568 5 view .LVU911
 2900              		.loc 3 568 12 is_stmt 0 view .LVU912
 2901 0028 2046     		mov	r0, r4
 2902 002a FFF7FEFF 		bl	_lv_style_prop_lookup_flags
 2903              	.LVL314:
 2904              		.loc 3 568 46 view .LVU913
 2905 002e 00F00208 		and	r8, r0, #2
 2906              	.LVL315:
 2907              		.loc 3 568 46 view .LVU914
 2908              	.LBE161:
 2909              	.LBE160:
 179:Drivers/lvgl/src/core/lv_obj_style.c ****     bool is_layer_refr = lv_style_prop_has_flag(prop, LV_STYLE_PROP_LAYER_REFR);
 2910              		.loc 1 179 5 is_stmt 1 view .LVU915
 2911              	.LBB162:
 2912              	.LBI162:
 566:Drivers/lvgl/src/core/../misc/lv_style.h **** {
 2913              		.loc 3 566 20 view .LVU916
 2914              	.LBB163:
 2915              		.loc 3 568 5 view .LVU917
 2916              		.loc 3 568 12 is_stmt 0 view .LVU918
 2917 0032 2046     		mov	r0, r4
 2918 0034 FFF7FEFF 		bl	_lv_style_prop_lookup_flags
 2919              	.LVL316:
 2920              		.loc 3 568 46 view .LVU919
 2921 0038 00F00109 		and	r9, r0, #1
 2922              	.LVL317:
 2923              		.loc 3 568 46 view .LVU920
 2924              	.LBE163:
 2925              	.LBE162:
 180:Drivers/lvgl/src/core/lv_obj_style.c **** 
 2926              		.loc 1 180 5 is_stmt 1 view .LVU921
 2927              	.LBB164:
 2928              	.LBI164:
 566:Drivers/lvgl/src/core/../misc/lv_style.h **** {
 2929              		.loc 3 566 20 view .LVU922
 2930              	.LBB165:
 2931              		.loc 3 568 5 view .LVU923
 2932              		.loc 3 568 12 is_stmt 0 view .LVU924
 2933 003c 2046     		mov	r0, r4
 2934 003e FFF7FEFF 		bl	_lv_style_prop_lookup_flags
 2935              	.LVL318:
 2936              		.loc 3 568 46 view .LVU925
ARM GAS  /var/folders/0z/tsy30v1j4xl4_7kw94k978ww0000gn/T//cc8A9NTU.s 			page 107


 2937 0042 00F0100A 		and	r10, r0, #16
 2938              	.LVL319:
 2939              		.loc 3 568 46 view .LVU926
 2940              	.LBE165:
 2941              	.LBE164:
 182:Drivers/lvgl/src/core/lv_obj_style.c ****         if(part == LV_PART_ANY ||
 2942              		.loc 1 182 5 is_stmt 1 view .LVU927
 182:Drivers/lvgl/src/core/lv_obj_style.c ****         if(part == LV_PART_ANY ||
 2943              		.loc 1 182 7 is_stmt 0 view .LVU928
 2944 0046 5FB1     		cbz	r7, .L186
 183:Drivers/lvgl/src/core/lv_obj_style.c ****            part == LV_PART_MAIN ||
 2945              		.loc 1 183 9 is_stmt 1 view .LVU929
 183:Drivers/lvgl/src/core/lv_obj_style.c ****            part == LV_PART_MAIN ||
 2946              		.loc 1 183 11 is_stmt 0 view .LVU930
 2947 0048 B6F5702F 		cmp	r6, #983040
 2948 004c 00D0     		beq	.L187
 183:Drivers/lvgl/src/core/lv_obj_style.c ****            part == LV_PART_MAIN ||
 2949              		.loc 1 183 32 discriminator 1 view .LVU931
 2950 004e D6BB     		cbnz	r6, .L202
 2951              	.L187:
 187:Drivers/lvgl/src/core/lv_obj_style.c ****             lv_obj_mark_layout_as_dirty(obj);
 2952              		.loc 1 187 13 is_stmt 1 view .LVU932
 2953 0050 0022     		movs	r2, #0
 2954 0052 2A21     		movs	r1, #42
 2955 0054 2846     		mov	r0, r5
 2956 0056 FFF7FEFF 		bl	lv_event_send
 2957              	.LVL320:
 188:Drivers/lvgl/src/core/lv_obj_style.c ****         }
 2958              		.loc 1 188 13 view .LVU933
 2959 005a 2846     		mov	r0, r5
 2960 005c FFF7FEFF 		bl	lv_obj_mark_layout_as_dirty
 2961              	.LVL321:
 2962              	.L186:
 191:Drivers/lvgl/src/core/lv_obj_style.c ****         lv_obj_t * parent = lv_obj_get_parent(obj);
 2963              		.loc 1 191 5 view .LVU934
 191:Drivers/lvgl/src/core/lv_obj_style.c ****         lv_obj_t * parent = lv_obj_get_parent(obj);
 2964              		.loc 1 191 7 is_stmt 0 view .LVU935
 2965 0060 B6F5702F 		cmp	r6, #983040
 2966 0064 00D0     		beq	.L188
 191:Drivers/lvgl/src/core/lv_obj_style.c ****         lv_obj_t * parent = lv_obj_get_parent(obj);
 2967              		.loc 1 191 29 discriminator 2 view .LVU936
 2968 0066 56B9     		cbnz	r6, .L189
 2969              	.L188:
 191:Drivers/lvgl/src/core/lv_obj_style.c ****         lv_obj_t * parent = lv_obj_get_parent(obj);
 2970              		.loc 1 191 54 discriminator 3 view .LVU937
 2971 0068 4FF6FF73 		movw	r3, #65535
 2972 006c 9C42     		cmp	r4, r3
 2973 006e 00D0     		beq	.L190
 191:Drivers/lvgl/src/core/lv_obj_style.c ****         lv_obj_t * parent = lv_obj_get_parent(obj);
 2974              		.loc 1 191 84 discriminator 4 view .LVU938
 2975 0070 2FB1     		cbz	r7, .L189
 2976              	.L190:
 2977              	.LBB166:
 192:Drivers/lvgl/src/core/lv_obj_style.c ****         if(parent) lv_obj_mark_layout_as_dirty(parent);
 2978              		.loc 1 192 9 is_stmt 1 view .LVU939
 192:Drivers/lvgl/src/core/lv_obj_style.c ****         if(parent) lv_obj_mark_layout_as_dirty(parent);
 2979              		.loc 1 192 29 is_stmt 0 view .LVU940
ARM GAS  /var/folders/0z/tsy30v1j4xl4_7kw94k978ww0000gn/T//cc8A9NTU.s 			page 108


 2980 0072 2846     		mov	r0, r5
 2981 0074 FFF7FEFF 		bl	lv_obj_get_parent
 2982              	.LVL322:
 193:Drivers/lvgl/src/core/lv_obj_style.c ****     }
 2983              		.loc 1 193 9 is_stmt 1 view .LVU941
 193:Drivers/lvgl/src/core/lv_obj_style.c ****     }
 2984              		.loc 1 193 11 is_stmt 0 view .LVU942
 2985 0078 08B1     		cbz	r0, .L189
 193:Drivers/lvgl/src/core/lv_obj_style.c ****     }
 2986              		.loc 1 193 20 is_stmt 1 discriminator 1 view .LVU943
 2987 007a FFF7FEFF 		bl	lv_obj_mark_layout_as_dirty
 2988              	.LVL323:
 2989              	.L189:
 193:Drivers/lvgl/src/core/lv_obj_style.c ****     }
 2990              		.loc 1 193 20 is_stmt 0 discriminator 1 view .LVU944
 2991              	.LBE166:
 197:Drivers/lvgl/src/core/lv_obj_style.c ****         lv_layer_type_t layer_type = calculate_layer_type(obj);
 2992              		.loc 1 197 5 is_stmt 1 view .LVU945
 197:Drivers/lvgl/src/core/lv_obj_style.c ****         lv_layer_type_t layer_type = calculate_layer_type(obj);
 2993              		.loc 1 197 7 is_stmt 0 view .LVU946
 2994 007e B6F5702F 		cmp	r6, #983040
 2995 0082 00D0     		beq	.L191
 197:Drivers/lvgl/src/core/lv_obj_style.c ****         lv_layer_type_t layer_type = calculate_layer_type(obj);
 2996              		.loc 1 197 29 discriminator 2 view .LVU947
 2997 0084 16B9     		cbnz	r6, .L192
 2998              	.L191:
 197:Drivers/lvgl/src/core/lv_obj_style.c ****         lv_layer_type_t layer_type = calculate_layer_type(obj);
 2999              		.loc 1 197 54 discriminator 3 view .LVU948
 3000 0086 BAF1000F 		cmp	r10, #0
 3001 008a 31D1     		bne	.L203
 3002              	.LVL324:
 3003              	.L192:
 206:Drivers/lvgl/src/core/lv_obj_style.c ****         lv_obj_refresh_ext_draw_size(obj);
 3004              		.loc 1 206 5 is_stmt 1 view .LVU949
 206:Drivers/lvgl/src/core/lv_obj_style.c ****         lv_obj_refresh_ext_draw_size(obj);
 3005              		.loc 1 206 7 is_stmt 0 view .LVU950
 3006 008c 4FF6FF73 		movw	r3, #65535
 3007 0090 9C42     		cmp	r4, r3
 3008 0092 02D0     		beq	.L194
 206:Drivers/lvgl/src/core/lv_obj_style.c ****         lv_obj_refresh_ext_draw_size(obj);
 3009              		.loc 1 206 34 discriminator 1 view .LVU951
 3010 0094 B8F1000F 		cmp	r8, #0
 3011 0098 02D0     		beq	.L195
 3012              	.L194:
 207:Drivers/lvgl/src/core/lv_obj_style.c ****     }
 3013              		.loc 1 207 9 is_stmt 1 view .LVU952
 3014 009a 2846     		mov	r0, r5
 3015 009c FFF7FEFF 		bl	lv_obj_refresh_ext_draw_size
 3016              	.LVL325:
 3017              	.L195:
 209:Drivers/lvgl/src/core/lv_obj_style.c **** 
 3018              		.loc 1 209 5 view .LVU953
 3019 00a0 2846     		mov	r0, r5
 3020 00a2 FFF7FEFF 		bl	lv_obj_invalidate
 3021              	.LVL326:
 211:Drivers/lvgl/src/core/lv_obj_style.c ****         if(part != LV_PART_SCROLLBAR) {
 3022              		.loc 1 211 5 view .LVU954
ARM GAS  /var/folders/0z/tsy30v1j4xl4_7kw94k978ww0000gn/T//cc8A9NTU.s 			page 109


 211:Drivers/lvgl/src/core/lv_obj_style.c ****         if(part != LV_PART_SCROLLBAR) {
 3023              		.loc 1 211 7 is_stmt 0 view .LVU955
 3024 00a6 4FF6FF73 		movw	r3, #65535
 3025 00aa 9C42     		cmp	r4, r3
 3026 00ac 06D0     		beq	.L196
 211:Drivers/lvgl/src/core/lv_obj_style.c ****         if(part != LV_PART_SCROLLBAR) {
 3027              		.loc 1 211 34 discriminator 1 view .LVU956
 3028 00ae B9F1000F 		cmp	r9, #0
 3029 00b2 06D0     		beq	.L184
 211:Drivers/lvgl/src/core/lv_obj_style.c ****         if(part != LV_PART_SCROLLBAR) {
 3030              		.loc 1 211 53 discriminator 2 view .LVU957
 3031 00b4 B8F1000F 		cmp	r8, #0
 3032 00b8 00D1     		bne	.L196
 211:Drivers/lvgl/src/core/lv_obj_style.c ****         if(part != LV_PART_SCROLLBAR) {
 3033              		.loc 1 211 69 discriminator 3 view .LVU958
 3034 00ba 17B1     		cbz	r7, .L184
 3035              	.L196:
 212:Drivers/lvgl/src/core/lv_obj_style.c ****             refresh_children_style(obj);
 3036              		.loc 1 212 9 is_stmt 1 view .LVU959
 212:Drivers/lvgl/src/core/lv_obj_style.c ****             refresh_children_style(obj);
 3037              		.loc 1 212 11 is_stmt 0 view .LVU960
 3038 00bc B6F5803F 		cmp	r6, #65536
 3039 00c0 2CD1     		bne	.L204
 3040              	.L184:
 216:Drivers/lvgl/src/core/lv_obj_style.c **** 
 3041              		.loc 1 216 1 view .LVU961
 3042 00c2 BDE8F087 		pop	{r4, r5, r6, r7, r8, r9, r10, pc}
 3043              	.LVL327:
 3044              	.L202:
 3045              	.LBB167:
 3046              	.LBI167:
  19:Drivers/lvgl/src/core/lv_obj_style_gen.h **** {
 3047              		.loc 4 19 26 is_stmt 1 view .LVU962
 3048              	.LBB168:
  21:Drivers/lvgl/src/core/lv_obj_style_gen.h ****     return (lv_coord_t)v.num;
 3049              		.loc 4 21 5 view .LVU963
  21:Drivers/lvgl/src/core/lv_obj_style_gen.h ****     return (lv_coord_t)v.num;
 3050              		.loc 4 21 26 is_stmt 0 view .LVU964
 3051 00c6 0422     		movs	r2, #4
 3052 00c8 0021     		movs	r1, #0
 3053 00ca 2846     		mov	r0, r5
 3054 00cc FFF7FEFF 		bl	lv_obj_get_style_prop
 3055              	.LVL328:
  22:Drivers/lvgl/src/core/lv_obj_style_gen.h **** }
 3056              		.loc 4 22 5 is_stmt 1 view .LVU965
  22:Drivers/lvgl/src/core/lv_obj_style_gen.h **** }
 3057              		.loc 4 22 12 is_stmt 0 view .LVU966
 3058 00d0 00B2     		sxth	r0, r0
 3059              	.LVL329:
  22:Drivers/lvgl/src/core/lv_obj_style_gen.h **** }
 3060              		.loc 4 22 12 view .LVU967
 3061              	.LBE168:
 3062              	.LBE167:
 184:Drivers/lvgl/src/core/lv_obj_style.c ****            lv_obj_get_style_height(obj, 0) == LV_SIZE_CONTENT ||
 3063              		.loc 1 184 33 view .LVU968
 3064 00d2 42F2D173 		movw	r3, #10193
 3065 00d6 9842     		cmp	r0, r3
ARM GAS  /var/folders/0z/tsy30v1j4xl4_7kw94k978ww0000gn/T//cc8A9NTU.s 			page 110


 3066 00d8 BAD0     		beq	.L187
 3067              	.LVL330:
 3068              	.LBB169:
 3069              	.LBI169:
   1:Drivers/lvgl/src/core/lv_obj_style_gen.h **** {
 3070              		.loc 4 1 26 is_stmt 1 view .LVU969
 3071              	.LBB170:
   3:Drivers/lvgl/src/core/lv_obj_style_gen.h ****     return (lv_coord_t)v.num;
 3072              		.loc 4 3 5 view .LVU970
   3:Drivers/lvgl/src/core/lv_obj_style_gen.h ****     return (lv_coord_t)v.num;
 3073              		.loc 4 3 26 is_stmt 0 view .LVU971
 3074 00da 0122     		movs	r2, #1
 3075 00dc 0021     		movs	r1, #0
 3076 00de 2846     		mov	r0, r5
 3077 00e0 FFF7FEFF 		bl	lv_obj_get_style_prop
 3078              	.LVL331:
   4:Drivers/lvgl/src/core/lv_obj_style_gen.h **** }
 3079              		.loc 4 4 5 is_stmt 1 view .LVU972
   4:Drivers/lvgl/src/core/lv_obj_style_gen.h **** }
 3080              		.loc 4 4 12 is_stmt 0 view .LVU973
 3081 00e4 00B2     		sxth	r0, r0
 3082              	.LVL332:
   4:Drivers/lvgl/src/core/lv_obj_style_gen.h **** }
 3083              		.loc 4 4 12 view .LVU974
 3084              	.LBE170:
 3085              	.LBE169:
 185:Drivers/lvgl/src/core/lv_obj_style.c ****            lv_obj_get_style_width(obj, 0) == LV_SIZE_CONTENT) {
 3086              		.loc 1 185 63 view .LVU975
 3087 00e6 42F2D173 		movw	r3, #10193
 3088 00ea 9842     		cmp	r0, r3
 3089 00ec B8D1     		bne	.L186
 3090 00ee AFE7     		b	.L187
 3091              	.L203:
 3092              	.LBB171:
 198:Drivers/lvgl/src/core/lv_obj_style.c ****         if(obj->spec_attr) obj->spec_attr->layer_type = layer_type;
 3093              		.loc 1 198 9 is_stmt 1 view .LVU976
 198:Drivers/lvgl/src/core/lv_obj_style.c ****         if(obj->spec_attr) obj->spec_attr->layer_type = layer_type;
 3094              		.loc 1 198 38 is_stmt 0 view .LVU977
 3095 00f0 2846     		mov	r0, r5
 3096 00f2 FFF7FEFF 		bl	calculate_layer_type
 3097              	.LVL333:
 3098 00f6 8246     		mov	r10, r0
 3099              	.LVL334:
 199:Drivers/lvgl/src/core/lv_obj_style.c ****         else if(layer_type != LV_LAYER_TYPE_NONE) {
 3100              		.loc 1 199 9 is_stmt 1 view .LVU978
 199:Drivers/lvgl/src/core/lv_obj_style.c ****         else if(layer_type != LV_LAYER_TYPE_NONE) {
 3101              		.loc 1 199 15 is_stmt 0 view .LVU979
 3102 00f8 AB68     		ldr	r3, [r5, #8]
 199:Drivers/lvgl/src/core/lv_obj_style.c ****         else if(layer_type != LV_LAYER_TYPE_NONE) {
 3103              		.loc 1 199 11 view .LVU980
 3104 00fa 23B1     		cbz	r3, .L193
 199:Drivers/lvgl/src/core/lv_obj_style.c ****         else if(layer_type != LV_LAYER_TYPE_NONE) {
 3105              		.loc 1 199 28 is_stmt 1 discriminator 1 view .LVU981
 199:Drivers/lvgl/src/core/lv_obj_style.c ****         else if(layer_type != LV_LAYER_TYPE_NONE) {
 3106              		.loc 1 199 55 is_stmt 0 discriminator 1 view .LVU982
 3107 00fc 9A7E     		ldrb	r2, [r3, #26]	@ zero_extendqisi2
 3108 00fe 60F38712 		bfi	r2, r0, #6, #2
ARM GAS  /var/folders/0z/tsy30v1j4xl4_7kw94k978ww0000gn/T//cc8A9NTU.s 			page 111


 3109              	.LVL335:
 199:Drivers/lvgl/src/core/lv_obj_style.c ****         else if(layer_type != LV_LAYER_TYPE_NONE) {
 3110              		.loc 1 199 55 discriminator 1 view .LVU983
 3111 0102 9A76     		strb	r2, [r3, #26]
 3112 0104 C2E7     		b	.L192
 3113              	.LVL336:
 3114              	.L193:
 200:Drivers/lvgl/src/core/lv_obj_style.c ****             lv_obj_allocate_spec_attr(obj);
 3115              		.loc 1 200 14 is_stmt 1 view .LVU984
 200:Drivers/lvgl/src/core/lv_obj_style.c ****             lv_obj_allocate_spec_attr(obj);
 3116              		.loc 1 200 16 is_stmt 0 view .LVU985
 3117 0106 0028     		cmp	r0, #0
 3118 0108 C0D0     		beq	.L192
 201:Drivers/lvgl/src/core/lv_obj_style.c ****             obj->spec_attr->layer_type = layer_type;
 3119              		.loc 1 201 13 is_stmt 1 view .LVU986
 3120 010a 2846     		mov	r0, r5
 3121              	.LVL337:
 201:Drivers/lvgl/src/core/lv_obj_style.c ****             obj->spec_attr->layer_type = layer_type;
 3122              		.loc 1 201 13 is_stmt 0 view .LVU987
 3123 010c FFF7FEFF 		bl	lv_obj_allocate_spec_attr
 3124              	.LVL338:
 202:Drivers/lvgl/src/core/lv_obj_style.c ****         }
 3125              		.loc 1 202 13 is_stmt 1 view .LVU988
 202:Drivers/lvgl/src/core/lv_obj_style.c ****         }
 3126              		.loc 1 202 16 is_stmt 0 view .LVU989
 3127 0110 AB68     		ldr	r3, [r5, #8]
 202:Drivers/lvgl/src/core/lv_obj_style.c ****         }
 3128              		.loc 1 202 40 view .LVU990
 3129 0112 9A7E     		ldrb	r2, [r3, #26]	@ zero_extendqisi2
 3130 0114 6AF38712 		bfi	r2, r10, #6, #2
 202:Drivers/lvgl/src/core/lv_obj_style.c ****         }
 3131              		.loc 1 202 40 view .LVU991
 3132 0118 9A76     		strb	r2, [r3, #26]
 3133 011a B7E7     		b	.L192
 3134              	.L204:
 202:Drivers/lvgl/src/core/lv_obj_style.c ****         }
 3135              		.loc 1 202 40 view .LVU992
 3136              	.LBE171:
 213:Drivers/lvgl/src/core/lv_obj_style.c ****         }
 3137              		.loc 1 213 13 is_stmt 1 view .LVU993
 3138 011c 2846     		mov	r0, r5
 3139 011e FFF7FEFF 		bl	refresh_children_style
 3140              	.LVL339:
 3141 0122 CEE7     		b	.L184
 3142              	.L206:
 3143              		.align	2
 3144              	.L205:
 3145 0124 00000000 		.word	.LANCHOR0
 3146              		.cfi_endproc
 3147              	.LFE171:
 3149              		.section	.text.lv_obj_add_style,"ax",%progbits
 3150              		.align	1
 3151              		.global	lv_obj_add_style
 3152              		.syntax unified
 3153              		.thumb
 3154              		.thumb_func
 3156              	lv_obj_add_style:
ARM GAS  /var/folders/0z/tsy30v1j4xl4_7kw94k978ww0000gn/T//cc8A9NTU.s 			page 112


 3157              	.LVL340:
 3158              	.LFB168:
  77:Drivers/lvgl/src/core/lv_obj_style.c ****     trans_del(obj, selector, LV_STYLE_PROP_ANY, NULL);
 3159              		.loc 1 77 1 view -0
 3160              		.cfi_startproc
 3161              		@ args = 0, pretend = 0, frame = 0
 3162              		@ frame_needed = 0, uses_anonymous_args = 0
  77:Drivers/lvgl/src/core/lv_obj_style.c ****     trans_del(obj, selector, LV_STYLE_PROP_ANY, NULL);
 3163              		.loc 1 77 1 is_stmt 0 view .LVU995
 3164 0000 2DE9F041 		push	{r4, r5, r6, r7, r8, lr}
 3165              		.cfi_def_cfa_offset 24
 3166              		.cfi_offset 4, -24
 3167              		.cfi_offset 5, -20
 3168              		.cfi_offset 6, -16
 3169              		.cfi_offset 7, -12
 3170              		.cfi_offset 8, -8
 3171              		.cfi_offset 14, -4
 3172 0004 0546     		mov	r5, r0
 3173 0006 8846     		mov	r8, r1
 3174 0008 1746     		mov	r7, r2
  78:Drivers/lvgl/src/core/lv_obj_style.c **** 
 3175              		.loc 1 78 5 is_stmt 1 view .LVU996
 3176 000a 0023     		movs	r3, #0
 3177 000c 4FF6FF72 		movw	r2, #65535
 3178              	.LVL341:
  78:Drivers/lvgl/src/core/lv_obj_style.c **** 
 3179              		.loc 1 78 5 is_stmt 0 view .LVU997
 3180 0010 3946     		mov	r1, r7
 3181              	.LVL342:
  78:Drivers/lvgl/src/core/lv_obj_style.c **** 
 3182              		.loc 1 78 5 view .LVU998
 3183 0012 FFF7FEFF 		bl	trans_del
 3184              	.LVL343:
  80:Drivers/lvgl/src/core/lv_obj_style.c ****     /*Go after the transition and local styles*/
 3185              		.loc 1 80 5 is_stmt 1 view .LVU999
  82:Drivers/lvgl/src/core/lv_obj_style.c ****         if(obj->styles[i].is_trans) continue;
 3186              		.loc 1 82 5 view .LVU1000
  82:Drivers/lvgl/src/core/lv_obj_style.c ****         if(obj->styles[i].is_trans) continue;
 3187              		.loc 1 82 11 is_stmt 0 view .LVU1001
 3188 0016 0026     		movs	r6, #0
  82:Drivers/lvgl/src/core/lv_obj_style.c ****         if(obj->styles[i].is_trans) continue;
 3189              		.loc 1 82 5 view .LVU1002
 3190 0018 00E0     		b	.L208
 3191              	.LVL344:
 3192              	.L209:
  82:Drivers/lvgl/src/core/lv_obj_style.c ****         if(obj->styles[i].is_trans) continue;
 3193              		.loc 1 82 37 is_stmt 1 discriminator 2 view .LVU1003
 3194 001a 0136     		adds	r6, r6, #1
 3195              	.LVL345:
 3196              	.L208:
  82:Drivers/lvgl/src/core/lv_obj_style.c ****         if(obj->styles[i].is_trans) continue;
 3197              		.loc 1 82 18 discriminator 1 view .LVU1004
  82:Drivers/lvgl/src/core/lv_obj_style.c ****         if(obj->styles[i].is_trans) continue;
 3198              		.loc 1 82 23 is_stmt 0 discriminator 1 view .LVU1005
 3199 001c 698C     		ldrh	r1, [r5, #34]
 3200 001e C1F30511 		ubfx	r1, r1, #4, #6
  82:Drivers/lvgl/src/core/lv_obj_style.c ****         if(obj->styles[i].is_trans) continue;
ARM GAS  /var/folders/0z/tsy30v1j4xl4_7kw94k978ww0000gn/T//cc8A9NTU.s 			page 113


 3201              		.loc 1 82 18 discriminator 1 view .LVU1006
 3202 0022 B142     		cmp	r1, r6
 3203 0024 09D9     		bls	.L210
  83:Drivers/lvgl/src/core/lv_obj_style.c ****         if(obj->styles[i].is_local) continue;
 3204              		.loc 1 83 9 is_stmt 1 view .LVU1007
  83:Drivers/lvgl/src/core/lv_obj_style.c ****         if(obj->styles[i].is_local) continue;
 3205              		.loc 1 83 15 is_stmt 0 view .LVU1008
 3206 0026 EB68     		ldr	r3, [r5, #12]
  83:Drivers/lvgl/src/core/lv_obj_style.c ****         if(obj->styles[i].is_local) continue;
 3207              		.loc 1 83 23 view .LVU1009
 3208 0028 03EBC603 		add	r3, r3, r6, lsl #3
  83:Drivers/lvgl/src/core/lv_obj_style.c ****         if(obj->styles[i].is_local) continue;
 3209              		.loc 1 83 12 view .LVU1010
 3210 002c DB79     		ldrb	r3, [r3, #7]	@ zero_extendqisi2
  83:Drivers/lvgl/src/core/lv_obj_style.c ****         if(obj->styles[i].is_local) continue;
 3211              		.loc 1 83 11 view .LVU1011
 3212 002e 13F0020F 		tst	r3, #2
 3213 0032 F2D1     		bne	.L209
  84:Drivers/lvgl/src/core/lv_obj_style.c ****         break;
 3214              		.loc 1 84 9 is_stmt 1 view .LVU1012
  84:Drivers/lvgl/src/core/lv_obj_style.c ****         break;
 3215              		.loc 1 84 11 is_stmt 0 view .LVU1013
 3216 0034 13F0010F 		tst	r3, #1
 3217 0038 EFD1     		bne	.L209
 3218              	.L210:
  91:Drivers/lvgl/src/core/lv_obj_style.c ****     obj->styles = lv_mem_realloc(obj->styles, obj->style_cnt * sizeof(_lv_obj_style_t));
 3219              		.loc 1 91 5 is_stmt 1 view .LVU1014
  91:Drivers/lvgl/src/core/lv_obj_style.c ****     obj->styles = lv_mem_realloc(obj->styles, obj->style_cnt * sizeof(_lv_obj_style_t));
 3220              		.loc 1 91 19 is_stmt 0 view .LVU1015
 3221 003a 0131     		adds	r1, r1, #1
 3222 003c 01F03F01 		and	r1, r1, #63
 3223 0040 6B8C     		ldrh	r3, [r5, #34]
 3224 0042 61F30913 		bfi	r3, r1, #4, #6
 3225 0046 6B84     		strh	r3, [r5, #34]	@ movhi
  92:Drivers/lvgl/src/core/lv_obj_style.c **** 
 3226              		.loc 1 92 5 is_stmt 1 view .LVU1016
  92:Drivers/lvgl/src/core/lv_obj_style.c **** 
 3227              		.loc 1 92 19 is_stmt 0 view .LVU1017
 3228 0048 C900     		lsls	r1, r1, #3
 3229 004a E868     		ldr	r0, [r5, #12]
 3230 004c FFF7FEFF 		bl	lv_mem_realloc
 3231              	.LVL346:
  92:Drivers/lvgl/src/core/lv_obj_style.c **** 
 3232              		.loc 1 92 17 view .LVU1018
 3233 0050 E860     		str	r0, [r5, #12]
  94:Drivers/lvgl/src/core/lv_obj_style.c ****     for(j = obj->style_cnt - 1; j > i ; j--) {
 3234              		.loc 1 94 5 is_stmt 1 view .LVU1019
  95:Drivers/lvgl/src/core/lv_obj_style.c ****         obj->styles[j] = obj->styles[j - 1];
 3235              		.loc 1 95 5 view .LVU1020
  95:Drivers/lvgl/src/core/lv_obj_style.c ****         obj->styles[j] = obj->styles[j - 1];
 3236              		.loc 1 95 16 is_stmt 0 view .LVU1021
 3237 0052 6A8C     		ldrh	r2, [r5, #34]
 3238 0054 C2F30512 		ubfx	r2, r2, #4, #6
  95:Drivers/lvgl/src/core/lv_obj_style.c ****         obj->styles[j] = obj->styles[j - 1];
 3239              		.loc 1 95 28 view .LVU1022
 3240 0058 013A     		subs	r2, r2, #1
 3241              	.LVL347:
ARM GAS  /var/folders/0z/tsy30v1j4xl4_7kw94k978ww0000gn/T//cc8A9NTU.s 			page 114


  95:Drivers/lvgl/src/core/lv_obj_style.c ****         obj->styles[j] = obj->styles[j - 1];
 3242              		.loc 1 95 5 view .LVU1023
 3243 005a 0CE0     		b	.L212
 3244              	.L213:
  96:Drivers/lvgl/src/core/lv_obj_style.c ****     }
 3245              		.loc 1 96 9 is_stmt 1 discriminator 3 view .LVU1024
  96:Drivers/lvgl/src/core/lv_obj_style.c ****     }
 3246              		.loc 1 96 29 is_stmt 0 discriminator 3 view .LVU1025
 3247 005c EC68     		ldr	r4, [r5, #12]
  96:Drivers/lvgl/src/core/lv_obj_style.c ****     }
 3248              		.loc 1 96 37 discriminator 3 view .LVU1026
 3249 005e 02F10053 		add	r3, r2, #536870912
 3250 0062 013B     		subs	r3, r3, #1
 3251 0064 04EBC303 		add	r3, r4, r3, lsl #3
  96:Drivers/lvgl/src/core/lv_obj_style.c ****     }
 3252              		.loc 1 96 20 discriminator 3 view .LVU1027
 3253 0068 04EBC20C 		add	ip, r4, r2, lsl #3
  96:Drivers/lvgl/src/core/lv_obj_style.c ****     }
 3254              		.loc 1 96 24 discriminator 3 view .LVU1028
 3255 006c 93E80300 		ldm	r3, {r0, r1}
 3256 0070 8CE80300 		stm	ip, {r0, r1}
  95:Drivers/lvgl/src/core/lv_obj_style.c ****         obj->styles[j] = obj->styles[j - 1];
 3257              		.loc 1 95 42 is_stmt 1 discriminator 3 view .LVU1029
 3258 0074 013A     		subs	r2, r2, #1
 3259              	.LVL348:
 3260              	.L212:
  95:Drivers/lvgl/src/core/lv_obj_style.c ****         obj->styles[j] = obj->styles[j - 1];
 3261              		.loc 1 95 35 discriminator 1 view .LVU1030
 3262 0076 9642     		cmp	r6, r2
 3263 0078 F0D3     		bcc	.L213
  99:Drivers/lvgl/src/core/lv_obj_style.c ****     obj->styles[i].style = style;
 3264              		.loc 1 99 5 view .LVU1031
  99:Drivers/lvgl/src/core/lv_obj_style.c ****     obj->styles[i].style = style;
 3265              		.loc 1 99 22 is_stmt 0 view .LVU1032
 3266 007a E868     		ldr	r0, [r5, #12]
  99:Drivers/lvgl/src/core/lv_obj_style.c ****     obj->styles[i].style = style;
 3267              		.loc 1 99 30 view .LVU1033
 3268 007c F400     		lsls	r4, r6, #3
  99:Drivers/lvgl/src/core/lv_obj_style.c ****     obj->styles[i].style = style;
 3269              		.loc 1 99 5 view .LVU1034
 3270 007e 0821     		movs	r1, #8
 3271 0080 00EBC600 		add	r0, r0, r6, lsl #3
 3272 0084 FFF7FEFF 		bl	lv_memset_00
 3273              	.LVL349:
 100:Drivers/lvgl/src/core/lv_obj_style.c ****     obj->styles[i].selector = selector;
 3274              		.loc 1 100 5 is_stmt 1 view .LVU1035
 100:Drivers/lvgl/src/core/lv_obj_style.c ****     obj->styles[i].selector = selector;
 3275              		.loc 1 100 8 is_stmt 0 view .LVU1036
 3276 0088 EB68     		ldr	r3, [r5, #12]
 100:Drivers/lvgl/src/core/lv_obj_style.c ****     obj->styles[i].selector = selector;
 3277              		.loc 1 100 26 view .LVU1037
 3278 008a 43F83680 		str	r8, [r3, r6, lsl #3]
 101:Drivers/lvgl/src/core/lv_obj_style.c **** 
 3279              		.loc 1 101 5 is_stmt 1 view .LVU1038
 101:Drivers/lvgl/src/core/lv_obj_style.c **** 
 3280              		.loc 1 101 8 is_stmt 0 view .LVU1039
 3281 008e EB68     		ldr	r3, [r5, #12]
ARM GAS  /var/folders/0z/tsy30v1j4xl4_7kw94k978ww0000gn/T//cc8A9NTU.s 			page 115


 101:Drivers/lvgl/src/core/lv_obj_style.c **** 
 3282              		.loc 1 101 16 view .LVU1040
 3283 0090 2344     		add	r3, r3, r4
 101:Drivers/lvgl/src/core/lv_obj_style.c **** 
 3284              		.loc 1 101 29 view .LVU1041
 3285 0092 5A68     		ldr	r2, [r3, #4]
 3286 0094 67F31702 		bfi	r2, r7, #0, #24
 3287              	.LVL350:
 101:Drivers/lvgl/src/core/lv_obj_style.c **** 
 3288              		.loc 1 101 29 view .LVU1042
 3289 0098 5A60     		str	r2, [r3, #4]
 103:Drivers/lvgl/src/core/lv_obj_style.c **** }
 3290              		.loc 1 103 5 is_stmt 1 view .LVU1043
 3291 009a 4FF6FF72 		movw	r2, #65535
 3292 009e 3946     		mov	r1, r7
 3293 00a0 2846     		mov	r0, r5
 3294 00a2 FFF7FEFF 		bl	lv_obj_refresh_style
 3295              	.LVL351:
 104:Drivers/lvgl/src/core/lv_obj_style.c **** 
 3296              		.loc 1 104 1 is_stmt 0 view .LVU1044
 3297 00a6 BDE8F081 		pop	{r4, r5, r6, r7, r8, pc}
 104:Drivers/lvgl/src/core/lv_obj_style.c **** 
 3298              		.loc 1 104 1 view .LVU1045
 3299              		.cfi_endproc
 3300              	.LFE168:
 3302              		.section	.text.report_style_change_core,"ax",%progbits
 3303              		.align	1
 3304              		.syntax unified
 3305              		.thumb
 3306              		.thumb_func
 3308              	report_style_change_core:
 3309              	.LVL352:
 3310              	.LFB190:
 679:Drivers/lvgl/src/core/lv_obj_style.c ****     uint32_t i;
 3311              		.loc 1 679 1 is_stmt 1 view -0
 3312              		.cfi_startproc
 3313              		@ args = 0, pretend = 0, frame = 0
 3314              		@ frame_needed = 0, uses_anonymous_args = 0
 679:Drivers/lvgl/src/core/lv_obj_style.c ****     uint32_t i;
 3315              		.loc 1 679 1 is_stmt 0 view .LVU1047
 3316 0000 F8B5     		push	{r3, r4, r5, r6, r7, lr}
 3317              		.cfi_def_cfa_offset 24
 3318              		.cfi_offset 3, -24
 3319              		.cfi_offset 4, -20
 3320              		.cfi_offset 5, -16
 3321              		.cfi_offset 6, -12
 3322              		.cfi_offset 7, -8
 3323              		.cfi_offset 14, -4
 3324 0002 0546     		mov	r5, r0
 3325 0004 0C46     		mov	r4, r1
 680:Drivers/lvgl/src/core/lv_obj_style.c ****     for(i = 0; i < obj->style_cnt; i++) {
 3326              		.loc 1 680 5 is_stmt 1 view .LVU1048
 681:Drivers/lvgl/src/core/lv_obj_style.c ****         if(style == NULL || obj->styles[i].style == style) {
 3327              		.loc 1 681 5 view .LVU1049
 3328              	.LVL353:
 681:Drivers/lvgl/src/core/lv_obj_style.c ****         if(style == NULL || obj->styles[i].style == style) {
 3329              		.loc 1 681 11 is_stmt 0 view .LVU1050
ARM GAS  /var/folders/0z/tsy30v1j4xl4_7kw94k978ww0000gn/T//cc8A9NTU.s 			page 116


 3330 0006 0022     		movs	r2, #0
 681:Drivers/lvgl/src/core/lv_obj_style.c ****         if(style == NULL || obj->styles[i].style == style) {
 3331              		.loc 1 681 5 view .LVU1051
 3332 0008 00E0     		b	.L216
 3333              	.LVL354:
 3334              	.L218:
 681:Drivers/lvgl/src/core/lv_obj_style.c ****         if(style == NULL || obj->styles[i].style == style) {
 3335              		.loc 1 681 37 is_stmt 1 discriminator 2 view .LVU1052
 3336 000a 0132     		adds	r2, r2, #1
 3337              	.LVL355:
 3338              	.L216:
 681:Drivers/lvgl/src/core/lv_obj_style.c ****         if(style == NULL || obj->styles[i].style == style) {
 3339              		.loc 1 681 18 discriminator 1 view .LVU1053
 681:Drivers/lvgl/src/core/lv_obj_style.c ****         if(style == NULL || obj->styles[i].style == style) {
 3340              		.loc 1 681 23 is_stmt 0 discriminator 1 view .LVU1054
 3341 000c 638C     		ldrh	r3, [r4, #34]
 3342 000e C3F30513 		ubfx	r3, r3, #4, #6
 681:Drivers/lvgl/src/core/lv_obj_style.c ****         if(style == NULL || obj->styles[i].style == style) {
 3343              		.loc 1 681 18 discriminator 1 view .LVU1055
 3344 0012 9342     		cmp	r3, r2
 3345 0014 0CD9     		bls	.L219
 682:Drivers/lvgl/src/core/lv_obj_style.c ****             lv_obj_refresh_style(obj, LV_PART_ANY, LV_STYLE_PROP_ANY);
 3346              		.loc 1 682 9 is_stmt 1 view .LVU1056
 682:Drivers/lvgl/src/core/lv_obj_style.c ****             lv_obj_refresh_style(obj, LV_PART_ANY, LV_STYLE_PROP_ANY);
 3347              		.loc 1 682 11 is_stmt 0 view .LVU1057
 3348 0016 25B1     		cbz	r5, .L217
 682:Drivers/lvgl/src/core/lv_obj_style.c ****             lv_obj_refresh_style(obj, LV_PART_ANY, LV_STYLE_PROP_ANY);
 3349              		.loc 1 682 32 discriminator 1 view .LVU1058
 3350 0018 E368     		ldr	r3, [r4, #12]
 682:Drivers/lvgl/src/core/lv_obj_style.c ****             lv_obj_refresh_style(obj, LV_PART_ANY, LV_STYLE_PROP_ANY);
 3351              		.loc 1 682 43 discriminator 1 view .LVU1059
 3352 001a 53F83230 		ldr	r3, [r3, r2, lsl #3]
 682:Drivers/lvgl/src/core/lv_obj_style.c ****             lv_obj_refresh_style(obj, LV_PART_ANY, LV_STYLE_PROP_ANY);
 3353              		.loc 1 682 26 discriminator 1 view .LVU1060
 3354 001e AB42     		cmp	r3, r5
 3355 0020 F3D1     		bne	.L218
 3356              	.L217:
 683:Drivers/lvgl/src/core/lv_obj_style.c ****             break;
 3357              		.loc 1 683 13 is_stmt 1 view .LVU1061
 3358 0022 4FF6FF72 		movw	r2, #65535
 3359              	.LVL356:
 683:Drivers/lvgl/src/core/lv_obj_style.c ****             break;
 3360              		.loc 1 683 13 is_stmt 0 view .LVU1062
 3361 0026 4FF47021 		mov	r1, #983040
 3362              	.LVL357:
 683:Drivers/lvgl/src/core/lv_obj_style.c ****             break;
 3363              		.loc 1 683 13 view .LVU1063
 3364 002a 2046     		mov	r0, r4
 3365              	.LVL358:
 683:Drivers/lvgl/src/core/lv_obj_style.c ****             break;
 3366              		.loc 1 683 13 view .LVU1064
 3367 002c FFF7FEFF 		bl	lv_obj_refresh_style
 3368              	.LVL359:
 684:Drivers/lvgl/src/core/lv_obj_style.c ****         }
 3369              		.loc 1 684 13 is_stmt 1 view .LVU1065
 3370              	.L219:
 688:Drivers/lvgl/src/core/lv_obj_style.c ****     for(i = 0; i < child_cnt; i++) {
ARM GAS  /var/folders/0z/tsy30v1j4xl4_7kw94k978ww0000gn/T//cc8A9NTU.s 			page 117


 3371              		.loc 1 688 5 view .LVU1066
 688:Drivers/lvgl/src/core/lv_obj_style.c ****     for(i = 0; i < child_cnt; i++) {
 3372              		.loc 1 688 26 is_stmt 0 view .LVU1067
 3373 0030 2046     		mov	r0, r4
 3374 0032 FFF7FEFF 		bl	lv_obj_get_child_cnt
 3375              	.LVL360:
 3376 0036 0746     		mov	r7, r0
 3377              	.LVL361:
 689:Drivers/lvgl/src/core/lv_obj_style.c ****         report_style_change_core(style, obj->spec_attr->children[i]);
 3378              		.loc 1 689 5 is_stmt 1 view .LVU1068
 689:Drivers/lvgl/src/core/lv_obj_style.c ****         report_style_change_core(style, obj->spec_attr->children[i]);
 3379              		.loc 1 689 11 is_stmt 0 view .LVU1069
 3380 0038 0026     		movs	r6, #0
 3381              	.LVL362:
 3382              	.L221:
 689:Drivers/lvgl/src/core/lv_obj_style.c ****         report_style_change_core(style, obj->spec_attr->children[i]);
 3383              		.loc 1 689 18 is_stmt 1 discriminator 1 view .LVU1070
 3384 003a BE42     		cmp	r6, r7
 3385 003c 08D2     		bcs	.L224
 690:Drivers/lvgl/src/core/lv_obj_style.c ****     }
 3386              		.loc 1 690 9 discriminator 3 view .LVU1071
 690:Drivers/lvgl/src/core/lv_obj_style.c ****     }
 3387              		.loc 1 690 44 is_stmt 0 discriminator 3 view .LVU1072
 3388 003e A368     		ldr	r3, [r4, #8]
 690:Drivers/lvgl/src/core/lv_obj_style.c ****     }
 3389              		.loc 1 690 55 discriminator 3 view .LVU1073
 3390 0040 1B68     		ldr	r3, [r3]
 690:Drivers/lvgl/src/core/lv_obj_style.c ****     }
 3391              		.loc 1 690 9 discriminator 3 view .LVU1074
 3392 0042 53F82610 		ldr	r1, [r3, r6, lsl #2]
 3393 0046 2846     		mov	r0, r5
 3394 0048 FFF7DAFF 		bl	report_style_change_core
 3395              	.LVL363:
 689:Drivers/lvgl/src/core/lv_obj_style.c ****         report_style_change_core(style, obj->spec_attr->children[i]);
 3396              		.loc 1 689 32 is_stmt 1 discriminator 3 view .LVU1075
 3397 004c 0136     		adds	r6, r6, #1
 3398              	.LVL364:
 689:Drivers/lvgl/src/core/lv_obj_style.c ****         report_style_change_core(style, obj->spec_attr->children[i]);
 3399              		.loc 1 689 32 is_stmt 0 discriminator 3 view .LVU1076
 3400 004e F4E7     		b	.L221
 3401              	.L224:
 692:Drivers/lvgl/src/core/lv_obj_style.c **** 
 3402              		.loc 1 692 1 view .LVU1077
 3403 0050 F8BD     		pop	{r3, r4, r5, r6, r7, pc}
 692:Drivers/lvgl/src/core/lv_obj_style.c **** 
 3404              		.loc 1 692 1 view .LVU1078
 3405              		.cfi_endproc
 3406              	.LFE190:
 3408              		.section	.text.lv_obj_report_style_change,"ax",%progbits
 3409              		.align	1
 3410              		.global	lv_obj_report_style_change
 3411              		.syntax unified
 3412              		.thumb
 3413              		.thumb_func
 3415              	lv_obj_report_style_change:
 3416              	.LVL365:
 3417              	.LFB170:
ARM GAS  /var/folders/0z/tsy30v1j4xl4_7kw94k978ww0000gn/T//cc8A9NTU.s 			page 118


 154:Drivers/lvgl/src/core/lv_obj_style.c ****     if(!style_refr) return;
 3418              		.loc 1 154 1 is_stmt 1 view -0
 3419              		.cfi_startproc
 3420              		@ args = 0, pretend = 0, frame = 0
 3421              		@ frame_needed = 0, uses_anonymous_args = 0
 155:Drivers/lvgl/src/core/lv_obj_style.c ****     lv_disp_t * d = lv_disp_get_next(NULL);
 3422              		.loc 1 155 5 view .LVU1080
 155:Drivers/lvgl/src/core/lv_obj_style.c ****     lv_disp_t * d = lv_disp_get_next(NULL);
 3423              		.loc 1 155 8 is_stmt 0 view .LVU1081
 3424 0000 0E4B     		ldr	r3, .L237
 3425 0002 1B78     		ldrb	r3, [r3]	@ zero_extendqisi2
 155:Drivers/lvgl/src/core/lv_obj_style.c ****     lv_disp_t * d = lv_disp_get_next(NULL);
 3426              		.loc 1 155 7 view .LVU1082
 3427 0004 03B9     		cbnz	r3, .L235
 3428 0006 7047     		bx	lr
 3429              	.L235:
 154:Drivers/lvgl/src/core/lv_obj_style.c ****     if(!style_refr) return;
 3430              		.loc 1 154 1 view .LVU1083
 3431 0008 70B5     		push	{r4, r5, r6, lr}
 3432              		.cfi_def_cfa_offset 16
 3433              		.cfi_offset 4, -16
 3434              		.cfi_offset 5, -12
 3435              		.cfi_offset 6, -8
 3436              		.cfi_offset 14, -4
 3437 000a 0646     		mov	r6, r0
 156:Drivers/lvgl/src/core/lv_obj_style.c **** 
 3438              		.loc 1 156 5 is_stmt 1 view .LVU1084
 156:Drivers/lvgl/src/core/lv_obj_style.c **** 
 3439              		.loc 1 156 21 is_stmt 0 view .LVU1085
 3440 000c 0020     		movs	r0, #0
 3441              	.LVL366:
 156:Drivers/lvgl/src/core/lv_obj_style.c **** 
 3442              		.loc 1 156 21 view .LVU1086
 3443 000e FFF7FEFF 		bl	lv_disp_get_next
 3444              	.LVL367:
 3445 0012 0546     		mov	r5, r0
 3446              	.LVL368:
 158:Drivers/lvgl/src/core/lv_obj_style.c ****         uint32_t i;
 3447              		.loc 1 158 5 is_stmt 1 view .LVU1087
 158:Drivers/lvgl/src/core/lv_obj_style.c ****         uint32_t i;
 3448              		.loc 1 158 10 is_stmt 0 view .LVU1088
 3449 0014 0DE0     		b	.L227
 3450              	.LVL369:
 3451              	.L228:
 3452              	.LBB172:
 161:Drivers/lvgl/src/core/lv_obj_style.c ****         }
 3453              		.loc 1 161 13 is_stmt 1 discriminator 3 view .LVU1089
 161:Drivers/lvgl/src/core/lv_obj_style.c ****         }
 3454              		.loc 1 161 46 is_stmt 0 discriminator 3 view .LVU1090
 3455 0016 EB68     		ldr	r3, [r5, #12]
 161:Drivers/lvgl/src/core/lv_obj_style.c ****         }
 3456              		.loc 1 161 13 discriminator 3 view .LVU1091
 3457 0018 53F82410 		ldr	r1, [r3, r4, lsl #2]
 3458 001c 3046     		mov	r0, r6
 3459 001e FFF7FEFF 		bl	report_style_change_core
 3460              	.LVL370:
 160:Drivers/lvgl/src/core/lv_obj_style.c ****             report_style_change_core(style, d->screens[i]);
ARM GAS  /var/folders/0z/tsy30v1j4xl4_7kw94k978ww0000gn/T//cc8A9NTU.s 			page 119


 3461              		.loc 1 160 40 is_stmt 1 discriminator 3 view .LVU1092
 3462 0022 0134     		adds	r4, r4, #1
 3463              	.LVL371:
 3464              	.L229:
 160:Drivers/lvgl/src/core/lv_obj_style.c ****             report_style_change_core(style, d->screens[i]);
 3465              		.loc 1 160 22 discriminator 1 view .LVU1093
 160:Drivers/lvgl/src/core/lv_obj_style.c ****             report_style_change_core(style, d->screens[i]);
 3466              		.loc 1 160 25 is_stmt 0 discriminator 1 view .LVU1094
 3467 0024 6B6A     		ldr	r3, [r5, #36]
 160:Drivers/lvgl/src/core/lv_obj_style.c ****             report_style_change_core(style, d->screens[i]);
 3468              		.loc 1 160 22 discriminator 1 view .LVU1095
 3469 0026 A342     		cmp	r3, r4
 3470 0028 F5D8     		bhi	.L228
 163:Drivers/lvgl/src/core/lv_obj_style.c ****     }
 3471              		.loc 1 163 9 is_stmt 1 view .LVU1096
 163:Drivers/lvgl/src/core/lv_obj_style.c ****     }
 3472              		.loc 1 163 13 is_stmt 0 view .LVU1097
 3473 002a 2846     		mov	r0, r5
 3474 002c FFF7FEFF 		bl	lv_disp_get_next
 3475              	.LVL372:
 3476 0030 0546     		mov	r5, r0
 3477              	.LVL373:
 3478              	.L227:
 163:Drivers/lvgl/src/core/lv_obj_style.c ****     }
 3479              		.loc 1 163 13 view .LVU1098
 3480              	.LBE172:
 158:Drivers/lvgl/src/core/lv_obj_style.c ****         uint32_t i;
 3481              		.loc 1 158 11 is_stmt 1 view .LVU1099
 3482 0032 0DB1     		cbz	r5, .L236
 3483              	.LBB173:
 160:Drivers/lvgl/src/core/lv_obj_style.c ****             report_style_change_core(style, d->screens[i]);
 3484              		.loc 1 160 15 is_stmt 0 view .LVU1100
 3485 0034 0024     		movs	r4, #0
 3486 0036 F5E7     		b	.L229
 3487              	.L236:
 3488              	.LBE173:
 165:Drivers/lvgl/src/core/lv_obj_style.c **** 
 3489              		.loc 1 165 1 view .LVU1101
 3490 0038 70BD     		pop	{r4, r5, r6, pc}
 3491              	.LVL374:
 3492              	.L238:
 165:Drivers/lvgl/src/core/lv_obj_style.c **** 
 3493              		.loc 1 165 1 view .LVU1102
 3494 003a 00BF     		.align	2
 3495              	.L237:
 3496 003c 00000000 		.word	.LANCHOR0
 3497              		.cfi_endproc
 3498              	.LFE170:
 3500              		.section	.text.lv_obj_set_local_style_prop,"ax",%progbits
 3501              		.align	1
 3502              		.global	lv_obj_set_local_style_prop
 3503              		.syntax unified
 3504              		.thumb
 3505              		.thumb_func
 3507              	lv_obj_set_local_style_prop:
 3508              	.LVL375:
 3509              	.LFB174:
ARM GAS  /var/folders/0z/tsy30v1j4xl4_7kw94k978ww0000gn/T//cc8A9NTU.s 			page 120


 272:Drivers/lvgl/src/core/lv_obj_style.c ****     lv_style_t * style = get_local_style(obj, selector);
 3510              		.loc 1 272 1 is_stmt 1 view -0
 3511              		.cfi_startproc
 3512              		@ args = 0, pretend = 0, frame = 0
 3513              		@ frame_needed = 0, uses_anonymous_args = 0
 272:Drivers/lvgl/src/core/lv_obj_style.c ****     lv_style_t * style = get_local_style(obj, selector);
 3514              		.loc 1 272 1 is_stmt 0 view .LVU1104
 3515 0000 F8B5     		push	{r3, r4, r5, r6, r7, lr}
 3516              		.cfi_def_cfa_offset 24
 3517              		.cfi_offset 3, -24
 3518              		.cfi_offset 4, -20
 3519              		.cfi_offset 5, -16
 3520              		.cfi_offset 6, -12
 3521              		.cfi_offset 7, -8
 3522              		.cfi_offset 14, -4
 3523 0002 0646     		mov	r6, r0
 3524 0004 0D46     		mov	r5, r1
 3525 0006 1746     		mov	r7, r2
 3526              	.LVL376:
 272:Drivers/lvgl/src/core/lv_obj_style.c ****     lv_style_t * style = get_local_style(obj, selector);
 3527              		.loc 1 272 1 view .LVU1105
 3528 0008 1C46     		mov	r4, r3
 273:Drivers/lvgl/src/core/lv_obj_style.c ****     lv_style_set_prop(style, prop, value);
 3529              		.loc 1 273 5 is_stmt 1 view .LVU1106
 273:Drivers/lvgl/src/core/lv_obj_style.c ****     lv_style_set_prop(style, prop, value);
 3530              		.loc 1 273 26 is_stmt 0 view .LVU1107
 3531 000a 1946     		mov	r1, r3
 3532              	.LVL377:
 273:Drivers/lvgl/src/core/lv_obj_style.c ****     lv_style_set_prop(style, prop, value);
 3533              		.loc 1 273 26 view .LVU1108
 3534 000c FFF7FEFF 		bl	get_local_style
 3535              	.LVL378:
 274:Drivers/lvgl/src/core/lv_obj_style.c ****     lv_obj_refresh_style(obj, selector, prop);
 3536              		.loc 1 274 5 is_stmt 1 view .LVU1109
 274:Drivers/lvgl/src/core/lv_obj_style.c ****     lv_obj_refresh_style(obj, selector, prop);
 3537              		.loc 1 274 5 is_stmt 0 view .LVU1110
 3538 0010 3A46     		mov	r2, r7
 3539 0012 2946     		mov	r1, r5
 3540 0014 FFF7FEFF 		bl	lv_style_set_prop
 3541              	.LVL379:
 275:Drivers/lvgl/src/core/lv_obj_style.c **** }
 3542              		.loc 1 275 5 is_stmt 1 view .LVU1111
 3543 0018 2A46     		mov	r2, r5
 3544 001a 2146     		mov	r1, r4
 3545 001c 3046     		mov	r0, r6
 3546 001e FFF7FEFF 		bl	lv_obj_refresh_style
 3547              	.LVL380:
 276:Drivers/lvgl/src/core/lv_obj_style.c **** 
 3548              		.loc 1 276 1 is_stmt 0 view .LVU1112
 3549 0022 F8BD     		pop	{r3, r4, r5, r6, r7, pc}
 276:Drivers/lvgl/src/core/lv_obj_style.c **** 
 3550              		.loc 1 276 1 view .LVU1113
 3551              		.cfi_endproc
 3552              	.LFE174:
 3554              		.section	.text.lv_obj_set_local_style_prop_meta,"ax",%progbits
 3555              		.align	1
 3556              		.global	lv_obj_set_local_style_prop_meta
ARM GAS  /var/folders/0z/tsy30v1j4xl4_7kw94k978ww0000gn/T//cc8A9NTU.s 			page 121


 3557              		.syntax unified
 3558              		.thumb
 3559              		.thumb_func
 3561              	lv_obj_set_local_style_prop_meta:
 3562              	.LVL381:
 3563              	.LFB175:
 280:Drivers/lvgl/src/core/lv_obj_style.c ****     lv_style_t * style = get_local_style(obj, selector);
 3564              		.loc 1 280 1 is_stmt 1 view -0
 3565              		.cfi_startproc
 3566              		@ args = 0, pretend = 0, frame = 0
 3567              		@ frame_needed = 0, uses_anonymous_args = 0
 280:Drivers/lvgl/src/core/lv_obj_style.c ****     lv_style_t * style = get_local_style(obj, selector);
 3568              		.loc 1 280 1 is_stmt 0 view .LVU1115
 3569 0000 F8B5     		push	{r3, r4, r5, r6, r7, lr}
 3570              		.cfi_def_cfa_offset 24
 3571              		.cfi_offset 3, -24
 3572              		.cfi_offset 4, -20
 3573              		.cfi_offset 5, -16
 3574              		.cfi_offset 6, -12
 3575              		.cfi_offset 7, -8
 3576              		.cfi_offset 14, -4
 3577 0002 0646     		mov	r6, r0
 3578 0004 0D46     		mov	r5, r1
 3579 0006 1746     		mov	r7, r2
 3580 0008 1C46     		mov	r4, r3
 281:Drivers/lvgl/src/core/lv_obj_style.c ****     lv_style_set_prop_meta(style, prop, meta);
 3581              		.loc 1 281 5 is_stmt 1 view .LVU1116
 281:Drivers/lvgl/src/core/lv_obj_style.c ****     lv_style_set_prop_meta(style, prop, meta);
 3582              		.loc 1 281 26 is_stmt 0 view .LVU1117
 3583 000a 1946     		mov	r1, r3
 3584              	.LVL382:
 281:Drivers/lvgl/src/core/lv_obj_style.c ****     lv_style_set_prop_meta(style, prop, meta);
 3585              		.loc 1 281 26 view .LVU1118
 3586 000c FFF7FEFF 		bl	get_local_style
 3587              	.LVL383:
 282:Drivers/lvgl/src/core/lv_obj_style.c ****     lv_obj_refresh_style(obj, selector, prop);
 3588              		.loc 1 282 5 is_stmt 1 view .LVU1119
 3589 0010 3A46     		mov	r2, r7
 3590 0012 2946     		mov	r1, r5
 3591 0014 FFF7FEFF 		bl	lv_style_set_prop_meta
 3592              	.LVL384:
 283:Drivers/lvgl/src/core/lv_obj_style.c **** }
 3593              		.loc 1 283 5 view .LVU1120
 3594 0018 2A46     		mov	r2, r5
 3595 001a 2146     		mov	r1, r4
 3596 001c 3046     		mov	r0, r6
 3597 001e FFF7FEFF 		bl	lv_obj_refresh_style
 3598              	.LVL385:
 284:Drivers/lvgl/src/core/lv_obj_style.c **** 
 3599              		.loc 1 284 1 is_stmt 0 view .LVU1121
 3600 0022 F8BD     		pop	{r3, r4, r5, r6, r7, pc}
 284:Drivers/lvgl/src/core/lv_obj_style.c **** 
 3601              		.loc 1 284 1 view .LVU1122
 3602              		.cfi_endproc
 3603              	.LFE175:
 3605              		.section	.text.lv_obj_remove_local_style_prop,"ax",%progbits
 3606              		.align	1
ARM GAS  /var/folders/0z/tsy30v1j4xl4_7kw94k978ww0000gn/T//cc8A9NTU.s 			page 122


 3607              		.global	lv_obj_remove_local_style_prop
 3608              		.syntax unified
 3609              		.thumb
 3610              		.thumb_func
 3612              	lv_obj_remove_local_style_prop:
 3613              	.LVL386:
 3614              	.LFB177:
 302:Drivers/lvgl/src/core/lv_obj_style.c ****     LV_ASSERT_OBJ(obj, MY_CLASS);
 3615              		.loc 1 302 1 is_stmt 1 view -0
 3616              		.cfi_startproc
 3617              		@ args = 0, pretend = 0, frame = 0
 3618              		@ frame_needed = 0, uses_anonymous_args = 0
 302:Drivers/lvgl/src/core/lv_obj_style.c ****     LV_ASSERT_OBJ(obj, MY_CLASS);
 3619              		.loc 1 302 1 is_stmt 0 view .LVU1124
 3620 0000 F8B5     		push	{r3, r4, r5, r6, r7, lr}
 3621              		.cfi_def_cfa_offset 24
 3622              		.cfi_offset 3, -24
 3623              		.cfi_offset 4, -20
 3624              		.cfi_offset 5, -16
 3625              		.cfi_offset 6, -12
 3626              		.cfi_offset 7, -8
 3627              		.cfi_offset 14, -4
 3628 0002 0446     		mov	r4, r0
 3629 0004 0E46     		mov	r6, r1
 3630 0006 1546     		mov	r5, r2
 303:Drivers/lvgl/src/core/lv_obj_style.c **** 
 3631              		.loc 1 303 5 is_stmt 1 view .LVU1125
 303:Drivers/lvgl/src/core/lv_obj_style.c **** 
 3632              		.loc 1 303 5 view .LVU1126
 303:Drivers/lvgl/src/core/lv_obj_style.c **** 
 3633              		.loc 1 303 5 view .LVU1127
 305:Drivers/lvgl/src/core/lv_obj_style.c ****     /*Find the style*/
 3634              		.loc 1 305 5 view .LVU1128
 307:Drivers/lvgl/src/core/lv_obj_style.c ****         if(obj->styles[i].is_local &&
 3635              		.loc 1 307 5 view .LVU1129
 3636              	.LVL387:
 307:Drivers/lvgl/src/core/lv_obj_style.c ****         if(obj->styles[i].is_local &&
 3637              		.loc 1 307 11 is_stmt 0 view .LVU1130
 3638 0008 4FF0000E 		mov	lr, #0
 307:Drivers/lvgl/src/core/lv_obj_style.c ****         if(obj->styles[i].is_local &&
 3639              		.loc 1 307 5 view .LVU1131
 3640 000c 01E0     		b	.L244
 3641              	.LVL388:
 3642              	.L245:
 307:Drivers/lvgl/src/core/lv_obj_style.c ****         if(obj->styles[i].is_local &&
 3643              		.loc 1 307 37 is_stmt 1 discriminator 2 view .LVU1132
 3644 000e 0EF1010E 		add	lr, lr, #1
 3645              	.LVL389:
 3646              	.L244:
 307:Drivers/lvgl/src/core/lv_obj_style.c ****         if(obj->styles[i].is_local &&
 3647              		.loc 1 307 18 discriminator 1 view .LVU1133
 307:Drivers/lvgl/src/core/lv_obj_style.c ****         if(obj->styles[i].is_local &&
 3648              		.loc 1 307 23 is_stmt 0 discriminator 1 view .LVU1134
 3649 0012 B4F822C0 		ldrh	ip, [r4, #34]
 3650 0016 CCF3051C 		ubfx	ip, ip, #4, #6
 307:Drivers/lvgl/src/core/lv_obj_style.c ****         if(obj->styles[i].is_local &&
 3651              		.loc 1 307 18 discriminator 1 view .LVU1135
ARM GAS  /var/folders/0z/tsy30v1j4xl4_7kw94k978ww0000gn/T//cc8A9NTU.s 			page 123


 3652 001a F445     		cmp	ip, lr
 3653 001c 0BD9     		bls	.L246
 308:Drivers/lvgl/src/core/lv_obj_style.c ****            obj->styles[i].selector == selector) {
 3654              		.loc 1 308 9 is_stmt 1 view .LVU1136
 308:Drivers/lvgl/src/core/lv_obj_style.c ****            obj->styles[i].selector == selector) {
 3655              		.loc 1 308 15 is_stmt 0 view .LVU1137
 3656 001e E368     		ldr	r3, [r4, #12]
 308:Drivers/lvgl/src/core/lv_obj_style.c ****            obj->styles[i].selector == selector) {
 3657              		.loc 1 308 23 view .LVU1138
 3658 0020 03EBCE03 		add	r3, r3, lr, lsl #3
 308:Drivers/lvgl/src/core/lv_obj_style.c ****            obj->styles[i].selector == selector) {
 3659              		.loc 1 308 12 view .LVU1139
 3660 0024 DA79     		ldrb	r2, [r3, #7]	@ zero_extendqisi2
 308:Drivers/lvgl/src/core/lv_obj_style.c ****            obj->styles[i].selector == selector) {
 3661              		.loc 1 308 11 view .LVU1140
 3662 0026 12F0010F 		tst	r2, #1
 3663 002a F0D0     		beq	.L245
 309:Drivers/lvgl/src/core/lv_obj_style.c ****             break;
 3664              		.loc 1 309 26 discriminator 1 view .LVU1141
 3665 002c 5B68     		ldr	r3, [r3, #4]
 3666 002e C3F31703 		ubfx	r3, r3, #0, #24
 308:Drivers/lvgl/src/core/lv_obj_style.c ****            obj->styles[i].selector == selector) {
 3667              		.loc 1 308 36 discriminator 1 view .LVU1142
 3668 0032 AB42     		cmp	r3, r5
 3669 0034 EBD1     		bne	.L245
 3670              	.L246:
 315:Drivers/lvgl/src/core/lv_obj_style.c **** 
 3671              		.loc 1 315 5 is_stmt 1 view .LVU1143
 315:Drivers/lvgl/src/core/lv_obj_style.c **** 
 3672              		.loc 1 315 7 is_stmt 0 view .LVU1144
 3673 0036 F445     		cmp	ip, lr
 3674 0038 0FD0     		beq	.L249
 317:Drivers/lvgl/src/core/lv_obj_style.c ****     if(res == LV_RES_OK) {
 3675              		.loc 1 317 5 is_stmt 1 view .LVU1145
 317:Drivers/lvgl/src/core/lv_obj_style.c ****     if(res == LV_RES_OK) {
 3676              		.loc 1 317 44 is_stmt 0 view .LVU1146
 3677 003a E368     		ldr	r3, [r4, #12]
 317:Drivers/lvgl/src/core/lv_obj_style.c ****     if(res == LV_RES_OK) {
 3678              		.loc 1 317 20 view .LVU1147
 3679 003c 3146     		mov	r1, r6
 3680              	.LVL390:
 317:Drivers/lvgl/src/core/lv_obj_style.c ****     if(res == LV_RES_OK) {
 3681              		.loc 1 317 20 view .LVU1148
 3682 003e 53F83E00 		ldr	r0, [r3, lr, lsl #3]
 3683              	.LVL391:
 317:Drivers/lvgl/src/core/lv_obj_style.c ****     if(res == LV_RES_OK) {
 3684              		.loc 1 317 20 view .LVU1149
 3685 0042 FFF7FEFF 		bl	lv_style_remove_prop
 3686              	.LVL392:
 318:Drivers/lvgl/src/core/lv_obj_style.c ****         lv_obj_refresh_style(obj, selector, prop);
 3687              		.loc 1 318 5 is_stmt 1 view .LVU1150
 318:Drivers/lvgl/src/core/lv_obj_style.c ****         lv_obj_refresh_style(obj, selector, prop);
 3688              		.loc 1 318 7 is_stmt 0 view .LVU1151
 3689 0046 0746     		mov	r7, r0
 3690 0048 08B9     		cbnz	r0, .L251
 3691              	.LVL393:
 3692              	.L248:
ARM GAS  /var/folders/0z/tsy30v1j4xl4_7kw94k978ww0000gn/T//cc8A9NTU.s 			page 124


 323:Drivers/lvgl/src/core/lv_obj_style.c **** 
 3693              		.loc 1 323 1 view .LVU1152
 3694 004a 3846     		mov	r0, r7
 3695 004c F8BD     		pop	{r3, r4, r5, r6, r7, pc}
 3696              	.LVL394:
 3697              	.L251:
 319:Drivers/lvgl/src/core/lv_obj_style.c ****     }
 3698              		.loc 1 319 9 is_stmt 1 view .LVU1153
 3699 004e 3246     		mov	r2, r6
 3700 0050 2946     		mov	r1, r5
 3701 0052 2046     		mov	r0, r4
 3702              	.LVL395:
 319:Drivers/lvgl/src/core/lv_obj_style.c ****     }
 3703              		.loc 1 319 9 is_stmt 0 view .LVU1154
 3704 0054 FFF7FEFF 		bl	lv_obj_refresh_style
 3705              	.LVL396:
 3706 0058 F7E7     		b	.L248
 3707              	.LVL397:
 3708              	.L249:
 315:Drivers/lvgl/src/core/lv_obj_style.c **** 
 3709              		.loc 1 315 36 view .LVU1155
 3710 005a 0027     		movs	r7, #0
 3711 005c F5E7     		b	.L248
 3712              		.cfi_endproc
 3713              	.LFE177:
 3715              		.section	.text.fade_in_anim_ready,"ax",%progbits
 3716              		.align	1
 3717              		.syntax unified
 3718              		.thumb
 3719              		.thumb_func
 3721              	fade_in_anim_ready:
 3722              	.LVL398:
 3723              	.LFB198:
 894:Drivers/lvgl/src/core/lv_obj_style.c **** 
 895:Drivers/lvgl/src/core/lv_obj_style.c **** static void fade_in_anim_ready(lv_anim_t * a)
 896:Drivers/lvgl/src/core/lv_obj_style.c **** {
 3724              		.loc 1 896 1 is_stmt 1 view -0
 3725              		.cfi_startproc
 3726              		@ args = 0, pretend = 0, frame = 0
 3727              		@ frame_needed = 0, uses_anonymous_args = 0
 3728              		.loc 1 896 1 is_stmt 0 view .LVU1157
 3729 0000 08B5     		push	{r3, lr}
 3730              		.cfi_def_cfa_offset 8
 3731              		.cfi_offset 3, -8
 3732              		.cfi_offset 14, -4
 897:Drivers/lvgl/src/core/lv_obj_style.c ****     lv_obj_remove_local_style_prop(a->var, LV_STYLE_OPA, 0);
 3733              		.loc 1 897 5 is_stmt 1 view .LVU1158
 3734 0002 0022     		movs	r2, #0
 3735 0004 6021     		movs	r1, #96
 3736 0006 0068     		ldr	r0, [r0]
 3737              	.LVL399:
 3738              		.loc 1 897 5 is_stmt 0 view .LVU1159
 3739 0008 FFF7FEFF 		bl	lv_obj_remove_local_style_prop
 3740              	.LVL400:
 898:Drivers/lvgl/src/core/lv_obj_style.c **** }
 3741              		.loc 1 898 1 view .LVU1160
 3742 000c 08BD     		pop	{r3, pc}
ARM GAS  /var/folders/0z/tsy30v1j4xl4_7kw94k978ww0000gn/T//cc8A9NTU.s 			page 125


 3743              		.cfi_endproc
 3744              	.LFE198:
 3746              		.section	.text.trans_anim_cb,"ax",%progbits
 3747              		.align	1
 3748              		.syntax unified
 3749              		.thumb
 3750              		.thumb_func
 3752              	trans_anim_cb:
 3753              	.LVL401:
 3754              	.LFB193:
 757:Drivers/lvgl/src/core/lv_obj_style.c ****     trans_t * tr = _tr;
 3755              		.loc 1 757 1 is_stmt 1 view -0
 3756              		.cfi_startproc
 3757              		@ args = 0, pretend = 0, frame = 8
 3758              		@ frame_needed = 0, uses_anonymous_args = 0
 757:Drivers/lvgl/src/core/lv_obj_style.c ****     trans_t * tr = _tr;
 3759              		.loc 1 757 1 is_stmt 0 view .LVU1162
 3760 0000 2DE9F041 		push	{r4, r5, r6, r7, r8, lr}
 3761              		.cfi_def_cfa_offset 24
 3762              		.cfi_offset 4, -24
 3763              		.cfi_offset 5, -20
 3764              		.cfi_offset 6, -16
 3765              		.cfi_offset 7, -12
 3766              		.cfi_offset 8, -8
 3767              		.cfi_offset 14, -4
 3768 0004 82B0     		sub	sp, sp, #8
 3769              		.cfi_def_cfa_offset 32
 3770 0006 0446     		mov	r4, r0
 3771 0008 0F46     		mov	r7, r1
 758:Drivers/lvgl/src/core/lv_obj_style.c ****     lv_obj_t * obj = tr->obj;
 3772              		.loc 1 758 5 is_stmt 1 view .LVU1163
 3773              	.LVL402:
 759:Drivers/lvgl/src/core/lv_obj_style.c **** 
 3774              		.loc 1 759 5 view .LVU1164
 759:Drivers/lvgl/src/core/lv_obj_style.c **** 
 3775              		.loc 1 759 16 is_stmt 0 view .LVU1165
 3776 000a 0568     		ldr	r5, [r0]
 3777              	.LVL403:
 761:Drivers/lvgl/src/core/lv_obj_style.c ****     for(i = 0; i < obj->style_cnt; i++) {
 3778              		.loc 1 761 5 is_stmt 1 view .LVU1166
 762:Drivers/lvgl/src/core/lv_obj_style.c ****         if(obj->styles[i].is_trans == 0 || obj->styles[i].selector != tr->selector) continue;
 3779              		.loc 1 762 5 view .LVU1167
 762:Drivers/lvgl/src/core/lv_obj_style.c ****         if(obj->styles[i].is_trans == 0 || obj->styles[i].selector != tr->selector) continue;
 3780              		.loc 1 762 11 is_stmt 0 view .LVU1168
 3781 000c 0022     		movs	r2, #0
 762:Drivers/lvgl/src/core/lv_obj_style.c ****         if(obj->styles[i].is_trans == 0 || obj->styles[i].selector != tr->selector) continue;
 3782              		.loc 1 762 5 view .LVU1169
 3783 000e 00E0     		b	.L255
 3784              	.LVL404:
 3785              	.L256:
 3786              	.LBB177:
 763:Drivers/lvgl/src/core/lv_obj_style.c **** 
 3787              		.loc 1 763 85 is_stmt 1 discriminator 3 view .LVU1170
 3788              	.LBE177:
 762:Drivers/lvgl/src/core/lv_obj_style.c ****         if(obj->styles[i].is_trans == 0 || obj->styles[i].selector != tr->selector) continue;
 3789              		.loc 1 762 37 discriminator 3 view .LVU1171
 3790 0010 0132     		adds	r2, r2, #1
ARM GAS  /var/folders/0z/tsy30v1j4xl4_7kw94k978ww0000gn/T//cc8A9NTU.s 			page 126


 3791              	.LVL405:
 3792              	.L255:
 762:Drivers/lvgl/src/core/lv_obj_style.c ****         if(obj->styles[i].is_trans == 0 || obj->styles[i].selector != tr->selector) continue;
 3793              		.loc 1 762 18 discriminator 1 view .LVU1172
 762:Drivers/lvgl/src/core/lv_obj_style.c ****         if(obj->styles[i].is_trans == 0 || obj->styles[i].selector != tr->selector) continue;
 3794              		.loc 1 762 23 is_stmt 0 discriminator 1 view .LVU1173
 3795 0012 6B8C     		ldrh	r3, [r5, #34]
 3796 0014 C3F30513 		ubfx	r3, r3, #4, #6
 762:Drivers/lvgl/src/core/lv_obj_style.c ****         if(obj->styles[i].is_trans == 0 || obj->styles[i].selector != tr->selector) continue;
 3797              		.loc 1 762 18 discriminator 1 view .LVU1174
 3798 0018 9342     		cmp	r3, r2
 3799 001a 40F2BE80 		bls	.L254
 3800              	.LBB180:
 763:Drivers/lvgl/src/core/lv_obj_style.c **** 
 3801              		.loc 1 763 9 is_stmt 1 view .LVU1175
 763:Drivers/lvgl/src/core/lv_obj_style.c **** 
 3802              		.loc 1 763 15 is_stmt 0 view .LVU1176
 3803 001e EB68     		ldr	r3, [r5, #12]
 763:Drivers/lvgl/src/core/lv_obj_style.c **** 
 3804              		.loc 1 763 23 view .LVU1177
 3805 0020 D600     		lsls	r6, r2, #3
 3806 0022 03EBC203 		add	r3, r3, r2, lsl #3
 763:Drivers/lvgl/src/core/lv_obj_style.c **** 
 3807              		.loc 1 763 36 view .LVU1178
 3808 0026 D879     		ldrb	r0, [r3, #7]	@ zero_extendqisi2
 763:Drivers/lvgl/src/core/lv_obj_style.c **** 
 3809              		.loc 1 763 11 view .LVU1179
 3810 0028 10F0020F 		tst	r0, #2
 3811 002c F0D0     		beq	.L256
 763:Drivers/lvgl/src/core/lv_obj_style.c **** 
 3812              		.loc 1 763 58 discriminator 2 view .LVU1180
 3813 002e 5868     		ldr	r0, [r3, #4]
 3814 0030 C0F31700 		ubfx	r0, r0, #0, #24
 763:Drivers/lvgl/src/core/lv_obj_style.c **** 
 3815              		.loc 1 763 73 discriminator 2 view .LVU1181
 3816 0034 A168     		ldr	r1, [r4, #8]
 763:Drivers/lvgl/src/core/lv_obj_style.c **** 
 3817              		.loc 1 763 41 discriminator 2 view .LVU1182
 3818 0036 8842     		cmp	r0, r1
 3819 0038 EAD1     		bne	.L256
 765:Drivers/lvgl/src/core/lv_obj_style.c ****         switch(tr->prop) {
 3820              		.loc 1 765 9 is_stmt 1 view .LVU1183
 766:Drivers/lvgl/src/core/lv_obj_style.c **** 
 3821              		.loc 1 766 9 view .LVU1184
 766:Drivers/lvgl/src/core/lv_obj_style.c **** 
 3822              		.loc 1 766 18 is_stmt 0 view .LVU1185
 3823 003a A188     		ldrh	r1, [r4, #4]
 766:Drivers/lvgl/src/core/lv_obj_style.c **** 
 3824              		.loc 1 766 9 view .LVU1186
 3825 003c 6829     		cmp	r1, #104
 3826 003e 3BD8     		bhi	.L258
 3827 0040 5729     		cmp	r1, #87
 3828 0042 0ED3     		bcc	.L288
 3829 0044 A1F15702 		sub	r2, r1, #87
 3830              	.LVL406:
 766:Drivers/lvgl/src/core/lv_obj_style.c **** 
 3831              		.loc 1 766 9 view .LVU1187
ARM GAS  /var/folders/0z/tsy30v1j4xl4_7kw94k978ww0000gn/T//cc8A9NTU.s 			page 127


 3832 0048 112A     		cmp	r2, #17
 3833 004a 35D8     		bhi	.L258
 3834 004c DFE802F0 		tbb	[pc, r2]
 3835              	.L263:
 3836 0050 3A       		.byte	(.L264-.L263)/2
 3837 0051 34       		.byte	(.L258-.L263)/2
 3838 0052 34       		.byte	(.L258-.L263)/2
 3839 0053 34       		.byte	(.L258-.L263)/2
 3840 0054 34       		.byte	(.L258-.L263)/2
 3841 0055 34       		.byte	(.L258-.L263)/2
 3842 0056 34       		.byte	(.L258-.L263)/2
 3843 0057 34       		.byte	(.L258-.L263)/2
 3844 0058 34       		.byte	(.L258-.L263)/2
 3845 0059 34       		.byte	(.L258-.L263)/2
 3846 005a 34       		.byte	(.L258-.L263)/2
 3847 005b 40       		.byte	(.L265-.L263)/2
 3848 005c 34       		.byte	(.L258-.L263)/2
 3849 005d 34       		.byte	(.L258-.L263)/2
 3850 005e 34       		.byte	(.L258-.L263)/2
 3851 005f 34       		.byte	(.L258-.L263)/2
 3852 0060 3A       		.byte	(.L264-.L263)/2
 3853 0061 19       		.byte	(.L262-.L263)/2
 3854              	.LVL407:
 3855              		.p2align 1
 3856              	.L288:
 766:Drivers/lvgl/src/core/lv_obj_style.c **** 
 3857              		.loc 1 766 9 view .LVU1188
 3858 0062 3629     		cmp	r1, #54
 3859 0064 1CD8     		bhi	.L260
 3860 0066 2029     		cmp	r1, #32
 3861 0068 26D3     		bcc	.L258
 3862 006a A1F12000 		sub	r0, r1, #32
 3863 006e 80B2     		uxth	r0, r0
 3864 0070 0122     		movs	r2, #1
 3865              	.LVL408:
 766:Drivers/lvgl/src/core/lv_obj_style.c **** 
 3866              		.loc 1 766 9 view .LVU1189
 3867 0072 8240     		lsls	r2, r2, r0
 3868 0074 4F48     		ldr	r0, .L295
 3869 0076 1040     		ands	r0, r0, r2
 3870 0078 0028     		cmp	r0, #0
 3871 007a 37D1     		bne	.L266
 3872 007c 12F4C01F 		tst	r2, #1572864
 3873 0080 1AD0     		beq	.L258
 3874              	.L262:
 771:Drivers/lvgl/src/core/lv_obj_style.c ****                 else value_final.num = tr->end_value.num;
 3875              		.loc 1 771 17 is_stmt 1 view .LVU1190
 771:Drivers/lvgl/src/core/lv_obj_style.c ****                 else value_final.num = tr->end_value.num;
 3876              		.loc 1 771 19 is_stmt 0 view .LVU1191
 3877 0082 FE2F     		cmp	r7, #254
 3878 0084 1CDC     		bgt	.L268
 771:Drivers/lvgl/src/core/lv_obj_style.c ****                 else value_final.num = tr->end_value.num;
 3879              		.loc 1 771 29 is_stmt 1 discriminator 1 view .LVU1192
 771:Drivers/lvgl/src/core/lv_obj_style.c ****                 else value_final.num = tr->end_value.num;
 3880              		.loc 1 771 62 is_stmt 0 discriminator 1 view .LVU1193
 3881 0086 E768     		ldr	r7, [r4, #12]
 3882              	.LVL409:
ARM GAS  /var/folders/0z/tsy30v1j4xl4_7kw94k978ww0000gn/T//cc8A9NTU.s 			page 128


 3883              	.L269:
 804:Drivers/lvgl/src/core/lv_obj_style.c ****         bool refr = true;
 3884              		.loc 1 804 9 is_stmt 1 view .LVU1194
 805:Drivers/lvgl/src/core/lv_obj_style.c ****         if(lv_style_get_prop(obj->styles[i].style, tr->prop, &old_value)) {
 3885              		.loc 1 805 9 view .LVU1195
 806:Drivers/lvgl/src/core/lv_obj_style.c ****             if(value_final.ptr == old_value.ptr && value_final.color.full == old_value.color.full &
 3886              		.loc 1 806 9 view .LVU1196
 806:Drivers/lvgl/src/core/lv_obj_style.c ****             if(value_final.ptr == old_value.ptr && value_final.color.full == old_value.color.full &
 3887              		.loc 1 806 12 is_stmt 0 view .LVU1197
 3888 0088 01AA     		add	r2, sp, #4
 3889 008a 1868     		ldr	r0, [r3]
 3890 008c FFF7FEFF 		bl	lv_style_get_prop
 3891              	.LVL410:
 806:Drivers/lvgl/src/core/lv_obj_style.c ****             if(value_final.ptr == old_value.ptr && value_final.color.full == old_value.color.full &
 3892              		.loc 1 806 11 view .LVU1198
 3893 0090 0028     		cmp	r0, #0
 3894 0092 77D0     		beq	.L282
 807:Drivers/lvgl/src/core/lv_obj_style.c ****                value_final.num == old_value.num) {
 3895              		.loc 1 807 13 is_stmt 1 view .LVU1199
 807:Drivers/lvgl/src/core/lv_obj_style.c ****                value_final.num == old_value.num) {
 3896              		.loc 1 807 44 is_stmt 0 view .LVU1200
 3897 0094 019B     		ldr	r3, [sp, #4]
 807:Drivers/lvgl/src/core/lv_obj_style.c ****                value_final.num == old_value.num) {
 3898              		.loc 1 807 15 view .LVU1201
 3899 0096 9F42     		cmp	r7, r3
 3900 0098 70D0     		beq	.L289
 805:Drivers/lvgl/src/core/lv_obj_style.c ****         if(lv_style_get_prop(obj->styles[i].style, tr->prop, &old_value)) {
 3901              		.loc 1 805 14 view .LVU1202
 3902 009a 4FF00108 		mov	r8, #1
 3903 009e 73E0     		b	.L278
 3904              	.LVL411:
 3905              	.L260:
 766:Drivers/lvgl/src/core/lv_obj_style.c **** 
 3906              		.loc 1 766 9 view .LVU1203
 3907 00a0 5529     		cmp	r1, #85
 3908 00a2 09D8     		bhi	.L258
 3909 00a4 4429     		cmp	r1, #68
 3910 00a6 07D3     		bcc	.L258
 3911 00a8 A1F14400 		sub	r0, r1, #68
 3912 00ac 80B2     		uxth	r0, r0
 3913 00ae 424A     		ldr	r2, .L295+4
 3914              	.LVL412:
 766:Drivers/lvgl/src/core/lv_obj_style.c **** 
 3915              		.loc 1 766 9 view .LVU1204
 3916 00b0 C240     		lsrs	r2, r2, r0
 3917 00b2 12F0010F 		tst	r2, #1
 3918 00b6 19D1     		bne	.L266
 3919              	.L258:
 798:Drivers/lvgl/src/core/lv_obj_style.c ****                 else if(v == 255) value_final.num = tr->end_value.num;
 3920              		.loc 1 798 17 is_stmt 1 view .LVU1205
 798:Drivers/lvgl/src/core/lv_obj_style.c ****                 else if(v == 255) value_final.num = tr->end_value.num;
 3921              		.loc 1 798 19 is_stmt 0 view .LVU1206
 3922 00b8 002F     		cmp	r7, #0
 3923 00ba 53D1     		bne	.L276
 798:Drivers/lvgl/src/core/lv_obj_style.c ****                 else if(v == 255) value_final.num = tr->end_value.num;
 3924              		.loc 1 798 28 is_stmt 1 discriminator 1 view .LVU1207
 798:Drivers/lvgl/src/core/lv_obj_style.c ****                 else if(v == 255) value_final.num = tr->end_value.num;
ARM GAS  /var/folders/0z/tsy30v1j4xl4_7kw94k978ww0000gn/T//cc8A9NTU.s 			page 129


 3925              		.loc 1 798 61 is_stmt 0 discriminator 1 view .LVU1208
 3926 00bc E768     		ldr	r7, [r4, #12]
 3927              	.LVL413:
 798:Drivers/lvgl/src/core/lv_obj_style.c ****                 else if(v == 255) value_final.num = tr->end_value.num;
 3928              		.loc 1 798 61 discriminator 1 view .LVU1209
 3929 00be E3E7     		b	.L269
 3930              	.LVL414:
 3931              	.L268:
 772:Drivers/lvgl/src/core/lv_obj_style.c ****                 break;
 3932              		.loc 1 772 22 is_stmt 1 view .LVU1210
 772:Drivers/lvgl/src/core/lv_obj_style.c ****                 break;
 3933              		.loc 1 772 53 is_stmt 0 view .LVU1211
 3934 00c0 2769     		ldr	r7, [r4, #16]
 3935              	.LVL415:
 772:Drivers/lvgl/src/core/lv_obj_style.c ****                 break;
 3936              		.loc 1 772 53 view .LVU1212
 3937 00c2 E1E7     		b	.L269
 3938              	.LVL416:
 3939              	.L264:
 776:Drivers/lvgl/src/core/lv_obj_style.c ****                 else value_final.ptr = tr->end_value.ptr;
 3940              		.loc 1 776 17 is_stmt 1 view .LVU1213
 776:Drivers/lvgl/src/core/lv_obj_style.c ****                 else value_final.ptr = tr->end_value.ptr;
 3941              		.loc 1 776 19 is_stmt 0 view .LVU1214
 3942 00c4 FE2F     		cmp	r7, #254
 3943 00c6 01DC     		bgt	.L270
 776:Drivers/lvgl/src/core/lv_obj_style.c ****                 else value_final.ptr = tr->end_value.ptr;
 3944              		.loc 1 776 29 is_stmt 1 discriminator 1 view .LVU1215
 776:Drivers/lvgl/src/core/lv_obj_style.c ****                 else value_final.ptr = tr->end_value.ptr;
 3945              		.loc 1 776 62 is_stmt 0 discriminator 1 view .LVU1216
 3946 00c8 E768     		ldr	r7, [r4, #12]
 3947              	.LVL417:
 776:Drivers/lvgl/src/core/lv_obj_style.c ****                 else value_final.ptr = tr->end_value.ptr;
 3948              		.loc 1 776 62 discriminator 1 view .LVU1217
 3949 00ca DDE7     		b	.L269
 3950              	.LVL418:
 3951              	.L270:
 777:Drivers/lvgl/src/core/lv_obj_style.c ****                 break;
 3952              		.loc 1 777 22 is_stmt 1 view .LVU1218
 777:Drivers/lvgl/src/core/lv_obj_style.c ****                 break;
 3953              		.loc 1 777 53 is_stmt 0 view .LVU1219
 3954 00cc 2769     		ldr	r7, [r4, #16]
 3955              	.LVL419:
 777:Drivers/lvgl/src/core/lv_obj_style.c ****                 break;
 3956              		.loc 1 777 53 view .LVU1220
 3957 00ce DBE7     		b	.L269
 3958              	.LVL420:
 3959              	.L265:
 780:Drivers/lvgl/src/core/lv_obj_style.c ****                 else if(tr->end_value.ptr == NULL) value_final.ptr = tr->start_value.ptr;
 3960              		.loc 1 780 17 is_stmt 1 view .LVU1221
 780:Drivers/lvgl/src/core/lv_obj_style.c ****                 else if(tr->end_value.ptr == NULL) value_final.ptr = tr->start_value.ptr;
 3961              		.loc 1 780 35 is_stmt 0 view .LVU1222
 3962 00d0 E268     		ldr	r2, [r4, #12]
 780:Drivers/lvgl/src/core/lv_obj_style.c ****                 else if(tr->end_value.ptr == NULL) value_final.ptr = tr->start_value.ptr;
 3963              		.loc 1 780 19 view .LVU1223
 3964 00d2 2AB1     		cbz	r2, .L290
 781:Drivers/lvgl/src/core/lv_obj_style.c ****                 else if(v < 128) value_final.ptr = tr->start_value.ptr;
 3965              		.loc 1 781 22 is_stmt 1 view .LVU1224
ARM GAS  /var/folders/0z/tsy30v1j4xl4_7kw94k978ww0000gn/T//cc8A9NTU.s 			page 130


 781:Drivers/lvgl/src/core/lv_obj_style.c ****                 else if(v < 128) value_final.ptr = tr->start_value.ptr;
 3966              		.loc 1 781 38 is_stmt 0 view .LVU1225
 3967 00d4 2069     		ldr	r0, [r4, #16]
 781:Drivers/lvgl/src/core/lv_obj_style.c ****                 else if(v < 128) value_final.ptr = tr->start_value.ptr;
 3968              		.loc 1 781 24 view .LVU1226
 3969 00d6 28B1     		cbz	r0, .L291
 782:Drivers/lvgl/src/core/lv_obj_style.c ****                 else value_final.ptr = tr->end_value.ptr;
 3970              		.loc 1 782 22 is_stmt 1 view .LVU1227
 782:Drivers/lvgl/src/core/lv_obj_style.c ****                 else value_final.ptr = tr->end_value.ptr;
 3971              		.loc 1 782 24 is_stmt 0 view .LVU1228
 3972 00d8 7F2F     		cmp	r7, #127
 3973 00da 05DC     		bgt	.L273
 782:Drivers/lvgl/src/core/lv_obj_style.c ****                 else value_final.ptr = tr->end_value.ptr;
 3974              		.loc 1 782 34 is_stmt 1 discriminator 1 view .LVU1229
 782:Drivers/lvgl/src/core/lv_obj_style.c ****                 else value_final.ptr = tr->end_value.ptr;
 3975              		.loc 1 782 50 is_stmt 0 discriminator 1 view .LVU1230
 3976 00dc 1746     		mov	r7, r2
 3977              	.LVL421:
 782:Drivers/lvgl/src/core/lv_obj_style.c ****                 else value_final.ptr = tr->end_value.ptr;
 3978              		.loc 1 782 50 discriminator 1 view .LVU1231
 3979 00de D3E7     		b	.L269
 3980              	.LVL422:
 3981              	.L290:
 780:Drivers/lvgl/src/core/lv_obj_style.c ****                 else if(tr->end_value.ptr == NULL) value_final.ptr = tr->start_value.ptr;
 3982              		.loc 1 780 49 is_stmt 1 discriminator 1 view .LVU1232
 780:Drivers/lvgl/src/core/lv_obj_style.c ****                 else if(tr->end_value.ptr == NULL) value_final.ptr = tr->start_value.ptr;
 3983              		.loc 1 780 80 is_stmt 0 discriminator 1 view .LVU1233
 3984 00e0 2769     		ldr	r7, [r4, #16]
 3985              	.LVL423:
 780:Drivers/lvgl/src/core/lv_obj_style.c ****                 else if(tr->end_value.ptr == NULL) value_final.ptr = tr->start_value.ptr;
 3986              		.loc 1 780 80 discriminator 1 view .LVU1234
 3987 00e2 D1E7     		b	.L269
 3988              	.LVL424:
 3989              	.L291:
 781:Drivers/lvgl/src/core/lv_obj_style.c ****                 else if(v < 128) value_final.ptr = tr->start_value.ptr;
 3990              		.loc 1 781 52 is_stmt 1 discriminator 1 view .LVU1235
 781:Drivers/lvgl/src/core/lv_obj_style.c ****                 else if(v < 128) value_final.ptr = tr->start_value.ptr;
 3991              		.loc 1 781 68 is_stmt 0 discriminator 1 view .LVU1236
 3992 00e4 1746     		mov	r7, r2
 3993              	.LVL425:
 781:Drivers/lvgl/src/core/lv_obj_style.c ****                 else if(v < 128) value_final.ptr = tr->start_value.ptr;
 3994              		.loc 1 781 68 discriminator 1 view .LVU1237
 3995 00e6 CFE7     		b	.L269
 3996              	.LVL426:
 3997              	.L273:
 783:Drivers/lvgl/src/core/lv_obj_style.c ****                 break;
 3998              		.loc 1 783 22 is_stmt 1 view .LVU1238
 783:Drivers/lvgl/src/core/lv_obj_style.c ****                 break;
 3999              		.loc 1 783 38 is_stmt 0 view .LVU1239
 4000 00e8 0746     		mov	r7, r0
 4001              	.LVL427:
 783:Drivers/lvgl/src/core/lv_obj_style.c ****                 break;
 4002              		.loc 1 783 38 view .LVU1240
 4003 00ea CDE7     		b	.L269
 4004              	.LVL428:
 4005              	.L266:
 792:Drivers/lvgl/src/core/lv_obj_style.c ****                 else if(v >= 255) value_final.color = tr->end_value.color;
ARM GAS  /var/folders/0z/tsy30v1j4xl4_7kw94k978ww0000gn/T//cc8A9NTU.s 			page 131


 4006              		.loc 1 792 17 is_stmt 1 view .LVU1241
 792:Drivers/lvgl/src/core/lv_obj_style.c ****                 else if(v >= 255) value_final.color = tr->end_value.color;
 4007              		.loc 1 792 19 is_stmt 0 view .LVU1242
 4008 00ec 002F     		cmp	r7, #0
 4009 00ee 06DD     		ble	.L292
 793:Drivers/lvgl/src/core/lv_obj_style.c ****                 else value_final.color = lv_color_mix(tr->end_value.color, tr->start_value.color, v
 4010              		.loc 1 793 22 is_stmt 1 view .LVU1243
 793:Drivers/lvgl/src/core/lv_obj_style.c ****                 else value_final.color = lv_color_mix(tr->end_value.color, tr->start_value.color, v
 4011              		.loc 1 793 24 is_stmt 0 view .LVU1244
 4012 00f0 FE2F     		cmp	r7, #254
 4013 00f2 09DD     		ble	.L275
 793:Drivers/lvgl/src/core/lv_obj_style.c ****                 else value_final.color = lv_color_mix(tr->end_value.color, tr->start_value.color, v
 4014              		.loc 1 793 35 is_stmt 1 discriminator 1 view .LVU1245
 793:Drivers/lvgl/src/core/lv_obj_style.c ****                 else value_final.color = lv_color_mix(tr->end_value.color, tr->start_value.color, v
 4015              		.loc 1 793 53 is_stmt 0 discriminator 1 view .LVU1246
 4016 00f4 228A     		ldrh	r2, [r4, #16]
 4017 00f6 0027     		movs	r7, #0
 4018              	.LVL429:
 793:Drivers/lvgl/src/core/lv_obj_style.c ****                 else value_final.color = lv_color_mix(tr->end_value.color, tr->start_value.color, v
 4019              		.loc 1 793 53 discriminator 1 view .LVU1247
 4020 00f8 62F30F07 		bfi	r7, r2, #0, #16
 4021              	.LVL430:
 793:Drivers/lvgl/src/core/lv_obj_style.c ****                 else value_final.color = lv_color_mix(tr->end_value.color, tr->start_value.color, v
 4022              		.loc 1 793 53 discriminator 1 view .LVU1248
 4023 00fc C4E7     		b	.L269
 4024              	.LVL431:
 4025              	.L292:
 792:Drivers/lvgl/src/core/lv_obj_style.c ****                 else if(v >= 255) value_final.color = tr->end_value.color;
 4026              		.loc 1 792 28 is_stmt 1 discriminator 1 view .LVU1249
 792:Drivers/lvgl/src/core/lv_obj_style.c ****                 else if(v >= 255) value_final.color = tr->end_value.color;
 4027              		.loc 1 792 46 is_stmt 0 discriminator 1 view .LVU1250
 4028 00fe A289     		ldrh	r2, [r4, #12]
 4029 0100 0027     		movs	r7, #0
 4030              	.LVL432:
 792:Drivers/lvgl/src/core/lv_obj_style.c ****                 else if(v >= 255) value_final.color = tr->end_value.color;
 4031              		.loc 1 792 46 discriminator 1 view .LVU1251
 4032 0102 62F30F07 		bfi	r7, r2, #0, #16
 4033              	.LVL433:
 792:Drivers/lvgl/src/core/lv_obj_style.c ****                 else if(v >= 255) value_final.color = tr->end_value.color;
 4034              		.loc 1 792 46 discriminator 1 view .LVU1252
 4035 0106 BFE7     		b	.L269
 4036              	.LVL434:
 4037              	.L275:
 794:Drivers/lvgl/src/core/lv_obj_style.c ****                 break;
 4038              		.loc 1 794 22 is_stmt 1 view .LVU1253
 794:Drivers/lvgl/src/core/lv_obj_style.c ****                 break;
 4039              		.loc 1 794 42 is_stmt 0 view .LVU1254
 4040 0108 FFB2     		uxtb	r7, r7
 4041              	.LVL435:
 4042              	.LBB178:
 4043              	.LBI178:
 4044              		.file 5 "Drivers/lvgl/src/core/../misc/lv_color.h"
   1:Drivers/lvgl/src/core/../misc/lv_color.h **** /**
   2:Drivers/lvgl/src/core/../misc/lv_color.h ****  * @file lv_color.h
   3:Drivers/lvgl/src/core/../misc/lv_color.h ****  *
   4:Drivers/lvgl/src/core/../misc/lv_color.h ****  */
   5:Drivers/lvgl/src/core/../misc/lv_color.h **** 
ARM GAS  /var/folders/0z/tsy30v1j4xl4_7kw94k978ww0000gn/T//cc8A9NTU.s 			page 132


   6:Drivers/lvgl/src/core/../misc/lv_color.h **** #ifndef LV_COLOR_H
   7:Drivers/lvgl/src/core/../misc/lv_color.h **** #define LV_COLOR_H
   8:Drivers/lvgl/src/core/../misc/lv_color.h **** 
   9:Drivers/lvgl/src/core/../misc/lv_color.h **** #ifdef __cplusplus
  10:Drivers/lvgl/src/core/../misc/lv_color.h **** extern "C" {
  11:Drivers/lvgl/src/core/../misc/lv_color.h **** #endif
  12:Drivers/lvgl/src/core/../misc/lv_color.h **** 
  13:Drivers/lvgl/src/core/../misc/lv_color.h **** /*********************
  14:Drivers/lvgl/src/core/../misc/lv_color.h ****  *      INCLUDES
  15:Drivers/lvgl/src/core/../misc/lv_color.h ****  *********************/
  16:Drivers/lvgl/src/core/../misc/lv_color.h **** #include "../lv_conf_internal.h"
  17:Drivers/lvgl/src/core/../misc/lv_color.h **** #include "lv_assert.h"
  18:Drivers/lvgl/src/core/../misc/lv_color.h **** #include "lv_math.h"
  19:Drivers/lvgl/src/core/../misc/lv_color.h **** #include "lv_types.h"
  20:Drivers/lvgl/src/core/../misc/lv_color.h **** 
  21:Drivers/lvgl/src/core/../misc/lv_color.h **** /*Error checking*/
  22:Drivers/lvgl/src/core/../misc/lv_color.h **** #if LV_COLOR_DEPTH == 24
  23:Drivers/lvgl/src/core/../misc/lv_color.h **** #error "LV_COLOR_DEPTH 24 is deprecated. Use LV_COLOR_DEPTH 32 instead (lv_conf.h)"
  24:Drivers/lvgl/src/core/../misc/lv_color.h **** #endif
  25:Drivers/lvgl/src/core/../misc/lv_color.h **** 
  26:Drivers/lvgl/src/core/../misc/lv_color.h **** #if LV_COLOR_DEPTH != 16 && LV_COLOR_16_SWAP != 0
  27:Drivers/lvgl/src/core/../misc/lv_color.h **** #error "LV_COLOR_16_SWAP requires LV_COLOR_DEPTH == 16. Set it in lv_conf.h"
  28:Drivers/lvgl/src/core/../misc/lv_color.h **** #endif
  29:Drivers/lvgl/src/core/../misc/lv_color.h **** 
  30:Drivers/lvgl/src/core/../misc/lv_color.h **** #include <stdint.h>
  31:Drivers/lvgl/src/core/../misc/lv_color.h **** 
  32:Drivers/lvgl/src/core/../misc/lv_color.h **** /*********************
  33:Drivers/lvgl/src/core/../misc/lv_color.h ****  *      DEFINES
  34:Drivers/lvgl/src/core/../misc/lv_color.h ****  *********************/
  35:Drivers/lvgl/src/core/../misc/lv_color.h **** LV_EXPORT_CONST_INT(LV_COLOR_DEPTH);
  36:Drivers/lvgl/src/core/../misc/lv_color.h **** LV_EXPORT_CONST_INT(LV_COLOR_16_SWAP);
  37:Drivers/lvgl/src/core/../misc/lv_color.h **** 
  38:Drivers/lvgl/src/core/../misc/lv_color.h **** /**
  39:Drivers/lvgl/src/core/../misc/lv_color.h ****  * Opacity percentages.
  40:Drivers/lvgl/src/core/../misc/lv_color.h ****  */
  41:Drivers/lvgl/src/core/../misc/lv_color.h **** enum {
  42:Drivers/lvgl/src/core/../misc/lv_color.h ****     LV_OPA_TRANSP = 0,
  43:Drivers/lvgl/src/core/../misc/lv_color.h ****     LV_OPA_0      = 0,
  44:Drivers/lvgl/src/core/../misc/lv_color.h ****     LV_OPA_10     = 25,
  45:Drivers/lvgl/src/core/../misc/lv_color.h ****     LV_OPA_20     = 51,
  46:Drivers/lvgl/src/core/../misc/lv_color.h ****     LV_OPA_30     = 76,
  47:Drivers/lvgl/src/core/../misc/lv_color.h ****     LV_OPA_40     = 102,
  48:Drivers/lvgl/src/core/../misc/lv_color.h ****     LV_OPA_50     = 127,
  49:Drivers/lvgl/src/core/../misc/lv_color.h ****     LV_OPA_60     = 153,
  50:Drivers/lvgl/src/core/../misc/lv_color.h ****     LV_OPA_70     = 178,
  51:Drivers/lvgl/src/core/../misc/lv_color.h ****     LV_OPA_80     = 204,
  52:Drivers/lvgl/src/core/../misc/lv_color.h ****     LV_OPA_90     = 229,
  53:Drivers/lvgl/src/core/../misc/lv_color.h ****     LV_OPA_100    = 255,
  54:Drivers/lvgl/src/core/../misc/lv_color.h ****     LV_OPA_COVER  = 255,
  55:Drivers/lvgl/src/core/../misc/lv_color.h **** };
  56:Drivers/lvgl/src/core/../misc/lv_color.h **** 
  57:Drivers/lvgl/src/core/../misc/lv_color.h **** #define LV_OPA_MIN 2    /*Opacities below this will be transparent*/
  58:Drivers/lvgl/src/core/../misc/lv_color.h **** #define LV_OPA_MAX 253  /*Opacities above this will fully cover*/
  59:Drivers/lvgl/src/core/../misc/lv_color.h **** 
  60:Drivers/lvgl/src/core/../misc/lv_color.h **** #if LV_COLOR_DEPTH == 1
  61:Drivers/lvgl/src/core/../misc/lv_color.h **** #define LV_COLOR_SIZE 8
  62:Drivers/lvgl/src/core/../misc/lv_color.h **** #elif LV_COLOR_DEPTH == 8
ARM GAS  /var/folders/0z/tsy30v1j4xl4_7kw94k978ww0000gn/T//cc8A9NTU.s 			page 133


  63:Drivers/lvgl/src/core/../misc/lv_color.h **** #define LV_COLOR_SIZE 8
  64:Drivers/lvgl/src/core/../misc/lv_color.h **** #elif LV_COLOR_DEPTH == 16
  65:Drivers/lvgl/src/core/../misc/lv_color.h **** #define LV_COLOR_SIZE 16
  66:Drivers/lvgl/src/core/../misc/lv_color.h **** #elif LV_COLOR_DEPTH == 32
  67:Drivers/lvgl/src/core/../misc/lv_color.h **** #define LV_COLOR_SIZE 32
  68:Drivers/lvgl/src/core/../misc/lv_color.h **** #else
  69:Drivers/lvgl/src/core/../misc/lv_color.h **** #error "Invalid LV_COLOR_DEPTH in lv_conf.h! Set it to 1, 8, 16 or 32!"
  70:Drivers/lvgl/src/core/../misc/lv_color.h **** #endif
  71:Drivers/lvgl/src/core/../misc/lv_color.h **** 
  72:Drivers/lvgl/src/core/../misc/lv_color.h **** #if defined(__cplusplus) && !defined(_LV_COLOR_HAS_MODERN_CPP)
  73:Drivers/lvgl/src/core/../misc/lv_color.h **** /**
  74:Drivers/lvgl/src/core/../misc/lv_color.h **** * MSVC compiler's definition of the __cplusplus indicating 199711L regardless to C++ standard versi
  75:Drivers/lvgl/src/core/../misc/lv_color.h **** * see https://devblogs.microsoft.com/cppblog/msvc-now-correctly-reports-cplusplus
  76:Drivers/lvgl/src/core/../misc/lv_color.h **** * so we use _MSC_VER macro instead of __cplusplus
  77:Drivers/lvgl/src/core/../misc/lv_color.h **** */
  78:Drivers/lvgl/src/core/../misc/lv_color.h **** #ifdef _MSC_VER
  79:Drivers/lvgl/src/core/../misc/lv_color.h **** #if _MSC_VER >= 1900 /*Visual Studio 2015*/
  80:Drivers/lvgl/src/core/../misc/lv_color.h **** #define _LV_COLOR_HAS_MODERN_CPP 1
  81:Drivers/lvgl/src/core/../misc/lv_color.h **** #endif
  82:Drivers/lvgl/src/core/../misc/lv_color.h **** #else
  83:Drivers/lvgl/src/core/../misc/lv_color.h **** #if __cplusplus >= 201103L
  84:Drivers/lvgl/src/core/../misc/lv_color.h **** #define _LV_COLOR_HAS_MODERN_CPP 1
  85:Drivers/lvgl/src/core/../misc/lv_color.h **** #endif
  86:Drivers/lvgl/src/core/../misc/lv_color.h **** #endif
  87:Drivers/lvgl/src/core/../misc/lv_color.h **** #endif /*__cplusplus*/
  88:Drivers/lvgl/src/core/../misc/lv_color.h **** 
  89:Drivers/lvgl/src/core/../misc/lv_color.h **** #ifndef _LV_COLOR_HAS_MODERN_CPP
  90:Drivers/lvgl/src/core/../misc/lv_color.h **** #define _LV_COLOR_HAS_MODERN_CPP 0
  91:Drivers/lvgl/src/core/../misc/lv_color.h **** #endif
  92:Drivers/lvgl/src/core/../misc/lv_color.h **** 
  93:Drivers/lvgl/src/core/../misc/lv_color.h **** #if _LV_COLOR_HAS_MODERN_CPP
  94:Drivers/lvgl/src/core/../misc/lv_color.h **** /*Fix msvc compiler error C4576 inside C++ code*/
  95:Drivers/lvgl/src/core/../misc/lv_color.h **** #define _LV_COLOR_MAKE_TYPE_HELPER lv_color_t
  96:Drivers/lvgl/src/core/../misc/lv_color.h **** #else
  97:Drivers/lvgl/src/core/../misc/lv_color.h **** #define _LV_COLOR_MAKE_TYPE_HELPER (lv_color_t)
  98:Drivers/lvgl/src/core/../misc/lv_color.h **** #endif
  99:Drivers/lvgl/src/core/../misc/lv_color.h **** 
 100:Drivers/lvgl/src/core/../misc/lv_color.h **** /*---------------------------------------
 101:Drivers/lvgl/src/core/../misc/lv_color.h ****  * Macros for all existing color depths
 102:Drivers/lvgl/src/core/../misc/lv_color.h ****  * to set/get values of the color channels
 103:Drivers/lvgl/src/core/../misc/lv_color.h ****  *------------------------------------------*/
 104:Drivers/lvgl/src/core/../misc/lv_color.h **** # define LV_COLOR_SET_R1(c, v) (c).ch.red = (uint8_t)((v) & 0x1)
 105:Drivers/lvgl/src/core/../misc/lv_color.h **** # define LV_COLOR_SET_G1(c, v) (c).ch.green = (uint8_t)((v) & 0x1)
 106:Drivers/lvgl/src/core/../misc/lv_color.h **** # define LV_COLOR_SET_B1(c, v) (c).ch.blue = (uint8_t)((v) & 0x1)
 107:Drivers/lvgl/src/core/../misc/lv_color.h **** # define LV_COLOR_SET_A1(c, v) do {} while(0)
 108:Drivers/lvgl/src/core/../misc/lv_color.h **** 
 109:Drivers/lvgl/src/core/../misc/lv_color.h **** # define LV_COLOR_GET_R1(c) (c).ch.red
 110:Drivers/lvgl/src/core/../misc/lv_color.h **** # define LV_COLOR_GET_G1(c) (c).ch.green
 111:Drivers/lvgl/src/core/../misc/lv_color.h **** # define LV_COLOR_GET_B1(c) (c).ch.blue
 112:Drivers/lvgl/src/core/../misc/lv_color.h **** # define LV_COLOR_GET_A1(c) 0xFF
 113:Drivers/lvgl/src/core/../misc/lv_color.h **** 
 114:Drivers/lvgl/src/core/../misc/lv_color.h **** # define _LV_COLOR_ZERO_INITIALIZER1 {0x00}
 115:Drivers/lvgl/src/core/../misc/lv_color.h **** # define LV_COLOR_MAKE1(r8, g8, b8)  {(uint8_t)((b8 >> 7) | (g8 >> 7) | (r8 >> 7))}
 116:Drivers/lvgl/src/core/../misc/lv_color.h **** 
 117:Drivers/lvgl/src/core/../misc/lv_color.h **** # define LV_COLOR_SET_R8(c, v) (c).ch.red = (uint8_t)((v) & 0x7U)
 118:Drivers/lvgl/src/core/../misc/lv_color.h **** # define LV_COLOR_SET_G8(c, v) (c).ch.green = (uint8_t)((v) & 0x7U)
 119:Drivers/lvgl/src/core/../misc/lv_color.h **** # define LV_COLOR_SET_B8(c, v) (c).ch.blue = (uint8_t)((v) & 0x3U)
ARM GAS  /var/folders/0z/tsy30v1j4xl4_7kw94k978ww0000gn/T//cc8A9NTU.s 			page 134


 120:Drivers/lvgl/src/core/../misc/lv_color.h **** # define LV_COLOR_SET_A8(c, v) do {} while(0)
 121:Drivers/lvgl/src/core/../misc/lv_color.h **** 
 122:Drivers/lvgl/src/core/../misc/lv_color.h **** # define LV_COLOR_GET_R8(c) (c).ch.red
 123:Drivers/lvgl/src/core/../misc/lv_color.h **** # define LV_COLOR_GET_G8(c) (c).ch.green
 124:Drivers/lvgl/src/core/../misc/lv_color.h **** # define LV_COLOR_GET_B8(c) (c).ch.blue
 125:Drivers/lvgl/src/core/../misc/lv_color.h **** # define LV_COLOR_GET_A8(c) 0xFF
 126:Drivers/lvgl/src/core/../misc/lv_color.h **** 
 127:Drivers/lvgl/src/core/../misc/lv_color.h **** # define _LV_COLOR_ZERO_INITIALIZER8 {{0x00, 0x00, 0x00}}
 128:Drivers/lvgl/src/core/../misc/lv_color.h **** # define LV_COLOR_MAKE8(r8, g8, b8) {{(uint8_t)((b8 >> 6) & 0x3U), (uint8_t)((g8 >> 5) & 0x7U), (ui
 129:Drivers/lvgl/src/core/../misc/lv_color.h **** 
 130:Drivers/lvgl/src/core/../misc/lv_color.h **** # define LV_COLOR_SET_R16(c, v) (c).ch.red = (uint8_t)((v) & 0x1FU)
 131:Drivers/lvgl/src/core/../misc/lv_color.h **** #if LV_COLOR_16_SWAP == 0
 132:Drivers/lvgl/src/core/../misc/lv_color.h **** # define LV_COLOR_SET_G16(c, v) (c).ch.green = (uint8_t)((v) & 0x3FU)
 133:Drivers/lvgl/src/core/../misc/lv_color.h **** #else
 134:Drivers/lvgl/src/core/../misc/lv_color.h **** # define LV_COLOR_SET_G16(c, v) {(c).ch.green_h = (uint8_t)(((v) >> 3) & 0x7); (c).ch.green_l = (ui
 135:Drivers/lvgl/src/core/../misc/lv_color.h **** #endif
 136:Drivers/lvgl/src/core/../misc/lv_color.h **** # define LV_COLOR_SET_B16(c, v) (c).ch.blue = (uint8_t)((v) & 0x1FU)
 137:Drivers/lvgl/src/core/../misc/lv_color.h **** # define LV_COLOR_SET_A16(c, v) do {} while(0)
 138:Drivers/lvgl/src/core/../misc/lv_color.h **** 
 139:Drivers/lvgl/src/core/../misc/lv_color.h **** # define LV_COLOR_GET_R16(c) (c).ch.red
 140:Drivers/lvgl/src/core/../misc/lv_color.h **** #if LV_COLOR_16_SWAP == 0
 141:Drivers/lvgl/src/core/../misc/lv_color.h **** # define LV_COLOR_GET_G16(c) (c).ch.green
 142:Drivers/lvgl/src/core/../misc/lv_color.h **** #else
 143:Drivers/lvgl/src/core/../misc/lv_color.h **** # define LV_COLOR_GET_G16(c) (((c).ch.green_h << 3) + (c).ch.green_l)
 144:Drivers/lvgl/src/core/../misc/lv_color.h **** #endif
 145:Drivers/lvgl/src/core/../misc/lv_color.h **** # define LV_COLOR_GET_B16(c) (c).ch.blue
 146:Drivers/lvgl/src/core/../misc/lv_color.h **** # define LV_COLOR_GET_A16(c) 0xFF
 147:Drivers/lvgl/src/core/../misc/lv_color.h **** 
 148:Drivers/lvgl/src/core/../misc/lv_color.h **** #if LV_COLOR_16_SWAP == 0
 149:Drivers/lvgl/src/core/../misc/lv_color.h **** # define _LV_COLOR_ZERO_INITIALIZER16  {{0x00, 0x00, 0x00}}
 150:Drivers/lvgl/src/core/../misc/lv_color.h **** # define LV_COLOR_MAKE16(r8, g8, b8) {{(uint8_t)((b8 >> 3) & 0x1FU), (uint8_t)((g8 >> 2) & 0x3FU), 
 151:Drivers/lvgl/src/core/../misc/lv_color.h **** #else
 152:Drivers/lvgl/src/core/../misc/lv_color.h **** # define _LV_COLOR_ZERO_INITIALIZER16 {{0x00, 0x00, 0x00, 0x00}}
 153:Drivers/lvgl/src/core/../misc/lv_color.h **** # define LV_COLOR_MAKE16(r8, g8, b8) {{(uint8_t)((g8 >> 5) & 0x7U), (uint8_t)((r8 >> 3) & 0x1FU), (
 154:Drivers/lvgl/src/core/../misc/lv_color.h **** #endif
 155:Drivers/lvgl/src/core/../misc/lv_color.h **** 
 156:Drivers/lvgl/src/core/../misc/lv_color.h **** # define LV_COLOR_SET_R32(c, v) (c).ch.red = (uint8_t)((v) & 0xFF)
 157:Drivers/lvgl/src/core/../misc/lv_color.h **** # define LV_COLOR_SET_G32(c, v) (c).ch.green = (uint8_t)((v) & 0xFF)
 158:Drivers/lvgl/src/core/../misc/lv_color.h **** # define LV_COLOR_SET_B32(c, v) (c).ch.blue = (uint8_t)((v) & 0xFF)
 159:Drivers/lvgl/src/core/../misc/lv_color.h **** # define LV_COLOR_SET_A32(c, v) (c).ch.alpha = (uint8_t)((v) & 0xFF)
 160:Drivers/lvgl/src/core/../misc/lv_color.h **** 
 161:Drivers/lvgl/src/core/../misc/lv_color.h **** # define LV_COLOR_GET_R32(c) (c).ch.red
 162:Drivers/lvgl/src/core/../misc/lv_color.h **** # define LV_COLOR_GET_G32(c) (c).ch.green
 163:Drivers/lvgl/src/core/../misc/lv_color.h **** # define LV_COLOR_GET_B32(c) (c).ch.blue
 164:Drivers/lvgl/src/core/../misc/lv_color.h **** # define LV_COLOR_GET_A32(c) (c).ch.alpha
 165:Drivers/lvgl/src/core/../misc/lv_color.h **** 
 166:Drivers/lvgl/src/core/../misc/lv_color.h **** # define _LV_COLOR_ZERO_INITIALIZER32  {{0x00, 0x00, 0x00, 0x00}}
 167:Drivers/lvgl/src/core/../misc/lv_color.h **** # define LV_COLOR_MAKE32(r8, g8, b8) {{b8, g8, r8, 0xff}} /*Fix 0xff alpha*/
 168:Drivers/lvgl/src/core/../misc/lv_color.h **** 
 169:Drivers/lvgl/src/core/../misc/lv_color.h **** /*---------------------------------------
 170:Drivers/lvgl/src/core/../misc/lv_color.h ****  * Macros for the current color depth
 171:Drivers/lvgl/src/core/../misc/lv_color.h ****  * to set/get values of the color channels
 172:Drivers/lvgl/src/core/../misc/lv_color.h ****  *------------------------------------------*/
 173:Drivers/lvgl/src/core/../misc/lv_color.h **** #define LV_COLOR_SET_R(c, v) LV_CONCAT(LV_COLOR_SET_R, LV_COLOR_DEPTH)(c, v)
 174:Drivers/lvgl/src/core/../misc/lv_color.h **** #define LV_COLOR_SET_G(c, v) LV_CONCAT(LV_COLOR_SET_G, LV_COLOR_DEPTH)(c, v)
 175:Drivers/lvgl/src/core/../misc/lv_color.h **** #define LV_COLOR_SET_B(c, v) LV_CONCAT(LV_COLOR_SET_B, LV_COLOR_DEPTH)(c, v)
 176:Drivers/lvgl/src/core/../misc/lv_color.h **** #define LV_COLOR_SET_A(c, v) LV_CONCAT(LV_COLOR_SET_A, LV_COLOR_DEPTH)(c, v)
ARM GAS  /var/folders/0z/tsy30v1j4xl4_7kw94k978ww0000gn/T//cc8A9NTU.s 			page 135


 177:Drivers/lvgl/src/core/../misc/lv_color.h **** 
 178:Drivers/lvgl/src/core/../misc/lv_color.h **** #define LV_COLOR_GET_R(c) LV_CONCAT(LV_COLOR_GET_R, LV_COLOR_DEPTH)(c)
 179:Drivers/lvgl/src/core/../misc/lv_color.h **** #define LV_COLOR_GET_G(c) LV_CONCAT(LV_COLOR_GET_G, LV_COLOR_DEPTH)(c)
 180:Drivers/lvgl/src/core/../misc/lv_color.h **** #define LV_COLOR_GET_B(c) LV_CONCAT(LV_COLOR_GET_B, LV_COLOR_DEPTH)(c)
 181:Drivers/lvgl/src/core/../misc/lv_color.h **** #define LV_COLOR_GET_A(c) LV_CONCAT(LV_COLOR_GET_A, LV_COLOR_DEPTH)(c)
 182:Drivers/lvgl/src/core/../misc/lv_color.h **** 
 183:Drivers/lvgl/src/core/../misc/lv_color.h **** #define _LV_COLOR_ZERO_INITIALIZER LV_CONCAT(_LV_COLOR_ZERO_INITIALIZER, LV_COLOR_DEPTH)
 184:Drivers/lvgl/src/core/../misc/lv_color.h **** #define LV_COLOR_MAKE(r8, g8, b8) LV_CONCAT(LV_COLOR_MAKE, LV_COLOR_DEPTH)(r8, g8, b8)
 185:Drivers/lvgl/src/core/../misc/lv_color.h **** 
 186:Drivers/lvgl/src/core/../misc/lv_color.h **** /**********************
 187:Drivers/lvgl/src/core/../misc/lv_color.h ****  *      TYPEDEFS
 188:Drivers/lvgl/src/core/../misc/lv_color.h ****  **********************/
 189:Drivers/lvgl/src/core/../misc/lv_color.h **** 
 190:Drivers/lvgl/src/core/../misc/lv_color.h **** typedef union {
 191:Drivers/lvgl/src/core/../misc/lv_color.h ****     uint8_t full; /*must be declared first to set all bits of byte via initializer list*/
 192:Drivers/lvgl/src/core/../misc/lv_color.h ****     union {
 193:Drivers/lvgl/src/core/../misc/lv_color.h ****         uint8_t blue : 1;
 194:Drivers/lvgl/src/core/../misc/lv_color.h ****         uint8_t green : 1;
 195:Drivers/lvgl/src/core/../misc/lv_color.h ****         uint8_t red : 1;
 196:Drivers/lvgl/src/core/../misc/lv_color.h ****     } ch;
 197:Drivers/lvgl/src/core/../misc/lv_color.h **** } lv_color1_t;
 198:Drivers/lvgl/src/core/../misc/lv_color.h **** 
 199:Drivers/lvgl/src/core/../misc/lv_color.h **** typedef union {
 200:Drivers/lvgl/src/core/../misc/lv_color.h ****     struct {
 201:Drivers/lvgl/src/core/../misc/lv_color.h ****         uint8_t blue : 2;
 202:Drivers/lvgl/src/core/../misc/lv_color.h ****         uint8_t green : 3;
 203:Drivers/lvgl/src/core/../misc/lv_color.h ****         uint8_t red : 3;
 204:Drivers/lvgl/src/core/../misc/lv_color.h ****     } ch;
 205:Drivers/lvgl/src/core/../misc/lv_color.h ****     uint8_t full;
 206:Drivers/lvgl/src/core/../misc/lv_color.h **** } lv_color8_t;
 207:Drivers/lvgl/src/core/../misc/lv_color.h **** 
 208:Drivers/lvgl/src/core/../misc/lv_color.h **** typedef union {
 209:Drivers/lvgl/src/core/../misc/lv_color.h ****     struct {
 210:Drivers/lvgl/src/core/../misc/lv_color.h **** #if LV_COLOR_16_SWAP == 0
 211:Drivers/lvgl/src/core/../misc/lv_color.h ****         uint16_t blue : 5;
 212:Drivers/lvgl/src/core/../misc/lv_color.h ****         uint16_t green : 6;
 213:Drivers/lvgl/src/core/../misc/lv_color.h ****         uint16_t red : 5;
 214:Drivers/lvgl/src/core/../misc/lv_color.h **** #else
 215:Drivers/lvgl/src/core/../misc/lv_color.h ****         uint16_t green_h : 3;
 216:Drivers/lvgl/src/core/../misc/lv_color.h ****         uint16_t red : 5;
 217:Drivers/lvgl/src/core/../misc/lv_color.h ****         uint16_t blue : 5;
 218:Drivers/lvgl/src/core/../misc/lv_color.h ****         uint16_t green_l : 3;
 219:Drivers/lvgl/src/core/../misc/lv_color.h **** #endif
 220:Drivers/lvgl/src/core/../misc/lv_color.h ****     } ch;
 221:Drivers/lvgl/src/core/../misc/lv_color.h ****     uint16_t full;
 222:Drivers/lvgl/src/core/../misc/lv_color.h **** } lv_color16_t;
 223:Drivers/lvgl/src/core/../misc/lv_color.h **** 
 224:Drivers/lvgl/src/core/../misc/lv_color.h **** typedef union {
 225:Drivers/lvgl/src/core/../misc/lv_color.h ****     struct {
 226:Drivers/lvgl/src/core/../misc/lv_color.h ****         uint8_t blue;
 227:Drivers/lvgl/src/core/../misc/lv_color.h ****         uint8_t green;
 228:Drivers/lvgl/src/core/../misc/lv_color.h ****         uint8_t red;
 229:Drivers/lvgl/src/core/../misc/lv_color.h ****         uint8_t alpha;
 230:Drivers/lvgl/src/core/../misc/lv_color.h ****     } ch;
 231:Drivers/lvgl/src/core/../misc/lv_color.h ****     uint32_t full;
 232:Drivers/lvgl/src/core/../misc/lv_color.h **** } lv_color32_t;
 233:Drivers/lvgl/src/core/../misc/lv_color.h **** 
ARM GAS  /var/folders/0z/tsy30v1j4xl4_7kw94k978ww0000gn/T//cc8A9NTU.s 			page 136


 234:Drivers/lvgl/src/core/../misc/lv_color.h **** typedef LV_CONCAT3(uint, LV_COLOR_SIZE, _t) lv_color_int_t;
 235:Drivers/lvgl/src/core/../misc/lv_color.h **** typedef LV_CONCAT3(lv_color, LV_COLOR_DEPTH, _t) lv_color_t;
 236:Drivers/lvgl/src/core/../misc/lv_color.h **** 
 237:Drivers/lvgl/src/core/../misc/lv_color.h **** typedef struct {
 238:Drivers/lvgl/src/core/../misc/lv_color.h ****     uint16_t h;
 239:Drivers/lvgl/src/core/../misc/lv_color.h ****     uint8_t s;
 240:Drivers/lvgl/src/core/../misc/lv_color.h ****     uint8_t v;
 241:Drivers/lvgl/src/core/../misc/lv_color.h **** } lv_color_hsv_t;
 242:Drivers/lvgl/src/core/../misc/lv_color.h **** 
 243:Drivers/lvgl/src/core/../misc/lv_color.h **** //! @cond Doxygen_Suppress
 244:Drivers/lvgl/src/core/../misc/lv_color.h **** /*No idea where the guard is required but else throws warnings in the docs*/
 245:Drivers/lvgl/src/core/../misc/lv_color.h **** typedef uint8_t lv_opa_t;
 246:Drivers/lvgl/src/core/../misc/lv_color.h **** //! @endcond
 247:Drivers/lvgl/src/core/../misc/lv_color.h **** 
 248:Drivers/lvgl/src/core/../misc/lv_color.h **** struct _lv_color_filter_dsc_t;
 249:Drivers/lvgl/src/core/../misc/lv_color.h **** 
 250:Drivers/lvgl/src/core/../misc/lv_color.h **** typedef lv_color_t (*lv_color_filter_cb_t)(const struct _lv_color_filter_dsc_t *, lv_color_t, lv_op
 251:Drivers/lvgl/src/core/../misc/lv_color.h **** 
 252:Drivers/lvgl/src/core/../misc/lv_color.h **** typedef struct _lv_color_filter_dsc_t {
 253:Drivers/lvgl/src/core/../misc/lv_color.h ****     lv_color_filter_cb_t filter_cb;
 254:Drivers/lvgl/src/core/../misc/lv_color.h ****     void * user_data;
 255:Drivers/lvgl/src/core/../misc/lv_color.h **** } lv_color_filter_dsc_t;
 256:Drivers/lvgl/src/core/../misc/lv_color.h **** 
 257:Drivers/lvgl/src/core/../misc/lv_color.h **** 
 258:Drivers/lvgl/src/core/../misc/lv_color.h **** typedef enum {
 259:Drivers/lvgl/src/core/../misc/lv_color.h ****     LV_PALETTE_RED,
 260:Drivers/lvgl/src/core/../misc/lv_color.h ****     LV_PALETTE_PINK,
 261:Drivers/lvgl/src/core/../misc/lv_color.h ****     LV_PALETTE_PURPLE,
 262:Drivers/lvgl/src/core/../misc/lv_color.h ****     LV_PALETTE_DEEP_PURPLE,
 263:Drivers/lvgl/src/core/../misc/lv_color.h ****     LV_PALETTE_INDIGO,
 264:Drivers/lvgl/src/core/../misc/lv_color.h ****     LV_PALETTE_BLUE,
 265:Drivers/lvgl/src/core/../misc/lv_color.h ****     LV_PALETTE_LIGHT_BLUE,
 266:Drivers/lvgl/src/core/../misc/lv_color.h ****     LV_PALETTE_CYAN,
 267:Drivers/lvgl/src/core/../misc/lv_color.h ****     LV_PALETTE_TEAL,
 268:Drivers/lvgl/src/core/../misc/lv_color.h ****     LV_PALETTE_GREEN,
 269:Drivers/lvgl/src/core/../misc/lv_color.h ****     LV_PALETTE_LIGHT_GREEN,
 270:Drivers/lvgl/src/core/../misc/lv_color.h ****     LV_PALETTE_LIME,
 271:Drivers/lvgl/src/core/../misc/lv_color.h ****     LV_PALETTE_YELLOW,
 272:Drivers/lvgl/src/core/../misc/lv_color.h ****     LV_PALETTE_AMBER,
 273:Drivers/lvgl/src/core/../misc/lv_color.h ****     LV_PALETTE_ORANGE,
 274:Drivers/lvgl/src/core/../misc/lv_color.h ****     LV_PALETTE_DEEP_ORANGE,
 275:Drivers/lvgl/src/core/../misc/lv_color.h ****     LV_PALETTE_BROWN,
 276:Drivers/lvgl/src/core/../misc/lv_color.h ****     LV_PALETTE_BLUE_GREY,
 277:Drivers/lvgl/src/core/../misc/lv_color.h ****     LV_PALETTE_GREY,
 278:Drivers/lvgl/src/core/../misc/lv_color.h ****     _LV_PALETTE_LAST,
 279:Drivers/lvgl/src/core/../misc/lv_color.h ****     LV_PALETTE_NONE = 0xff,
 280:Drivers/lvgl/src/core/../misc/lv_color.h **** } lv_palette_t;
 281:Drivers/lvgl/src/core/../misc/lv_color.h **** 
 282:Drivers/lvgl/src/core/../misc/lv_color.h **** /**********************
 283:Drivers/lvgl/src/core/../misc/lv_color.h ****  * GLOBAL PROTOTYPES
 284:Drivers/lvgl/src/core/../misc/lv_color.h ****  **********************/
 285:Drivers/lvgl/src/core/../misc/lv_color.h **** 
 286:Drivers/lvgl/src/core/../misc/lv_color.h **** /*In color conversations:
 287:Drivers/lvgl/src/core/../misc/lv_color.h ****  * - When converting to bigger color type the LSB weight of 1 LSB is calculated
 288:Drivers/lvgl/src/core/../misc/lv_color.h ****  *   E.g. 16 bit Red has 5 bits
 289:Drivers/lvgl/src/core/../misc/lv_color.h ****  *         8 bit Red has 3 bits
 290:Drivers/lvgl/src/core/../misc/lv_color.h ****  *        ----------------------
ARM GAS  /var/folders/0z/tsy30v1j4xl4_7kw94k978ww0000gn/T//cc8A9NTU.s 			page 137


 291:Drivers/lvgl/src/core/../misc/lv_color.h ****  *        8 bit red LSB = (2^5 - 1) / (2^3 - 1) = 31 / 7 = 4
 292:Drivers/lvgl/src/core/../misc/lv_color.h ****  *
 293:Drivers/lvgl/src/core/../misc/lv_color.h ****  * - When calculating to smaller color type simply shift out the LSBs
 294:Drivers/lvgl/src/core/../misc/lv_color.h ****  *   E.g.  8 bit Red has 3 bits
 295:Drivers/lvgl/src/core/../misc/lv_color.h ****  *        16 bit Red has 5 bits
 296:Drivers/lvgl/src/core/../misc/lv_color.h ****  *        ----------------------
 297:Drivers/lvgl/src/core/../misc/lv_color.h ****  *         Shift right with 5 - 3 = 2
 298:Drivers/lvgl/src/core/../misc/lv_color.h ****  */
 299:Drivers/lvgl/src/core/../misc/lv_color.h **** static inline uint8_t lv_color_to1(lv_color_t color)
 300:Drivers/lvgl/src/core/../misc/lv_color.h **** {
 301:Drivers/lvgl/src/core/../misc/lv_color.h **** #if LV_COLOR_DEPTH == 1
 302:Drivers/lvgl/src/core/../misc/lv_color.h ****     return color.full;
 303:Drivers/lvgl/src/core/../misc/lv_color.h **** #elif LV_COLOR_DEPTH == 8
 304:Drivers/lvgl/src/core/../misc/lv_color.h ****     if((LV_COLOR_GET_R(color) & 0x4) || (LV_COLOR_GET_G(color) & 0x4) || (LV_COLOR_GET_B(color) & 0
 305:Drivers/lvgl/src/core/../misc/lv_color.h ****         return 1;
 306:Drivers/lvgl/src/core/../misc/lv_color.h ****     }
 307:Drivers/lvgl/src/core/../misc/lv_color.h ****     else {
 308:Drivers/lvgl/src/core/../misc/lv_color.h ****         return 0;
 309:Drivers/lvgl/src/core/../misc/lv_color.h ****     }
 310:Drivers/lvgl/src/core/../misc/lv_color.h **** #elif LV_COLOR_DEPTH == 16
 311:Drivers/lvgl/src/core/../misc/lv_color.h ****     if((LV_COLOR_GET_R(color) & 0x10) || (LV_COLOR_GET_G(color) & 0x20) || (LV_COLOR_GET_B(color) &
 312:Drivers/lvgl/src/core/../misc/lv_color.h ****         return 1;
 313:Drivers/lvgl/src/core/../misc/lv_color.h ****     }
 314:Drivers/lvgl/src/core/../misc/lv_color.h ****     else {
 315:Drivers/lvgl/src/core/../misc/lv_color.h ****         return 0;
 316:Drivers/lvgl/src/core/../misc/lv_color.h ****     }
 317:Drivers/lvgl/src/core/../misc/lv_color.h **** #elif LV_COLOR_DEPTH == 32
 318:Drivers/lvgl/src/core/../misc/lv_color.h ****     if((LV_COLOR_GET_R(color) & 0x80) || (LV_COLOR_GET_G(color) & 0x80) || (LV_COLOR_GET_B(color) &
 319:Drivers/lvgl/src/core/../misc/lv_color.h ****         return 1;
 320:Drivers/lvgl/src/core/../misc/lv_color.h ****     }
 321:Drivers/lvgl/src/core/../misc/lv_color.h ****     else {
 322:Drivers/lvgl/src/core/../misc/lv_color.h ****         return 0;
 323:Drivers/lvgl/src/core/../misc/lv_color.h ****     }
 324:Drivers/lvgl/src/core/../misc/lv_color.h **** #endif
 325:Drivers/lvgl/src/core/../misc/lv_color.h **** }
 326:Drivers/lvgl/src/core/../misc/lv_color.h **** 
 327:Drivers/lvgl/src/core/../misc/lv_color.h **** static inline uint8_t lv_color_to8(lv_color_t color)
 328:Drivers/lvgl/src/core/../misc/lv_color.h **** {
 329:Drivers/lvgl/src/core/../misc/lv_color.h **** #if LV_COLOR_DEPTH == 1
 330:Drivers/lvgl/src/core/../misc/lv_color.h ****     if(color.full == 0)
 331:Drivers/lvgl/src/core/../misc/lv_color.h ****         return 0;
 332:Drivers/lvgl/src/core/../misc/lv_color.h ****     else
 333:Drivers/lvgl/src/core/../misc/lv_color.h ****         return 0xFF;
 334:Drivers/lvgl/src/core/../misc/lv_color.h **** #elif LV_COLOR_DEPTH == 8
 335:Drivers/lvgl/src/core/../misc/lv_color.h ****     return color.full;
 336:Drivers/lvgl/src/core/../misc/lv_color.h **** #elif LV_COLOR_DEPTH == 16
 337:Drivers/lvgl/src/core/../misc/lv_color.h ****     lv_color8_t ret;
 338:Drivers/lvgl/src/core/../misc/lv_color.h ****     LV_COLOR_SET_R8(ret, LV_COLOR_GET_R(color) >> 2); /*5 - 3  = 2*/
 339:Drivers/lvgl/src/core/../misc/lv_color.h ****     LV_COLOR_SET_G8(ret, LV_COLOR_GET_G(color) >> 3); /*6 - 3  = 3*/
 340:Drivers/lvgl/src/core/../misc/lv_color.h ****     LV_COLOR_SET_B8(ret, LV_COLOR_GET_B(color) >> 3); /*5 - 2  = 3*/
 341:Drivers/lvgl/src/core/../misc/lv_color.h ****     return ret.full;
 342:Drivers/lvgl/src/core/../misc/lv_color.h **** #elif LV_COLOR_DEPTH == 32
 343:Drivers/lvgl/src/core/../misc/lv_color.h ****     lv_color8_t ret;
 344:Drivers/lvgl/src/core/../misc/lv_color.h ****     LV_COLOR_SET_R8(ret, LV_COLOR_GET_R(color) >> 5); /*8 - 3  = 5*/
 345:Drivers/lvgl/src/core/../misc/lv_color.h ****     LV_COLOR_SET_G8(ret, LV_COLOR_GET_G(color) >> 5); /*8 - 3  = 5*/
 346:Drivers/lvgl/src/core/../misc/lv_color.h ****     LV_COLOR_SET_B8(ret, LV_COLOR_GET_B(color) >> 6); /*8 - 2  = 6*/
 347:Drivers/lvgl/src/core/../misc/lv_color.h ****     return ret.full;
ARM GAS  /var/folders/0z/tsy30v1j4xl4_7kw94k978ww0000gn/T//cc8A9NTU.s 			page 138


 348:Drivers/lvgl/src/core/../misc/lv_color.h **** #endif
 349:Drivers/lvgl/src/core/../misc/lv_color.h **** }
 350:Drivers/lvgl/src/core/../misc/lv_color.h **** 
 351:Drivers/lvgl/src/core/../misc/lv_color.h **** static inline uint16_t lv_color_to16(lv_color_t color)
 352:Drivers/lvgl/src/core/../misc/lv_color.h **** {
 353:Drivers/lvgl/src/core/../misc/lv_color.h **** #if LV_COLOR_DEPTH == 1
 354:Drivers/lvgl/src/core/../misc/lv_color.h ****     if(color.full == 0)
 355:Drivers/lvgl/src/core/../misc/lv_color.h ****         return 0;
 356:Drivers/lvgl/src/core/../misc/lv_color.h ****     else
 357:Drivers/lvgl/src/core/../misc/lv_color.h ****         return 0xFFFF;
 358:Drivers/lvgl/src/core/../misc/lv_color.h **** #elif LV_COLOR_DEPTH == 8
 359:Drivers/lvgl/src/core/../misc/lv_color.h ****     lv_color16_t ret;
 360:Drivers/lvgl/src/core/../misc/lv_color.h ****     LV_COLOR_SET_R16(ret, LV_COLOR_GET_R(color) * 4);  /*(2^5 - 1)/(2^3 - 1) = 31/7 = 4*/
 361:Drivers/lvgl/src/core/../misc/lv_color.h ****     LV_COLOR_SET_G16(ret, LV_COLOR_GET_G(color) * 9);  /*(2^6 - 1)/(2^3 - 1) = 63/7 = 9*/
 362:Drivers/lvgl/src/core/../misc/lv_color.h ****     LV_COLOR_SET_B16(ret, LV_COLOR_GET_B(color) * 10); /*(2^5 - 1)/(2^2 - 1) = 31/3 = 10*/
 363:Drivers/lvgl/src/core/../misc/lv_color.h ****     return ret.full;
 364:Drivers/lvgl/src/core/../misc/lv_color.h **** #elif LV_COLOR_DEPTH == 16
 365:Drivers/lvgl/src/core/../misc/lv_color.h ****     return color.full;
 366:Drivers/lvgl/src/core/../misc/lv_color.h **** #elif LV_COLOR_DEPTH == 32
 367:Drivers/lvgl/src/core/../misc/lv_color.h ****     lv_color16_t ret;
 368:Drivers/lvgl/src/core/../misc/lv_color.h ****     LV_COLOR_SET_R16(ret, LV_COLOR_GET_R(color) >> 3); /*8 - 5  = 3*/
 369:Drivers/lvgl/src/core/../misc/lv_color.h ****     LV_COLOR_SET_G16(ret, LV_COLOR_GET_G(color) >> 2); /*8 - 6  = 2*/
 370:Drivers/lvgl/src/core/../misc/lv_color.h ****     LV_COLOR_SET_B16(ret, LV_COLOR_GET_B(color) >> 3); /*8 - 5  = 3*/
 371:Drivers/lvgl/src/core/../misc/lv_color.h ****     return ret.full;
 372:Drivers/lvgl/src/core/../misc/lv_color.h **** #endif
 373:Drivers/lvgl/src/core/../misc/lv_color.h **** }
 374:Drivers/lvgl/src/core/../misc/lv_color.h **** 
 375:Drivers/lvgl/src/core/../misc/lv_color.h **** static inline uint32_t lv_color_to32(lv_color_t color)
 376:Drivers/lvgl/src/core/../misc/lv_color.h **** {
 377:Drivers/lvgl/src/core/../misc/lv_color.h **** #if LV_COLOR_DEPTH == 1
 378:Drivers/lvgl/src/core/../misc/lv_color.h ****     if(color.full == 0)
 379:Drivers/lvgl/src/core/../misc/lv_color.h ****         return 0xFF000000;
 380:Drivers/lvgl/src/core/../misc/lv_color.h ****     else
 381:Drivers/lvgl/src/core/../misc/lv_color.h ****         return 0xFFFFFFFF;
 382:Drivers/lvgl/src/core/../misc/lv_color.h **** #elif LV_COLOR_DEPTH == 8
 383:Drivers/lvgl/src/core/../misc/lv_color.h ****     lv_color32_t ret;
 384:Drivers/lvgl/src/core/../misc/lv_color.h ****     LV_COLOR_SET_R32(ret, LV_COLOR_GET_R(color) * 36); /*(2^8 - 1)/(2^3 - 1) = 255/7 = 36*/
 385:Drivers/lvgl/src/core/../misc/lv_color.h ****     LV_COLOR_SET_G32(ret, LV_COLOR_GET_G(color) * 36); /*(2^8 - 1)/(2^3 - 1) = 255/7 = 36*/
 386:Drivers/lvgl/src/core/../misc/lv_color.h ****     LV_COLOR_SET_B32(ret, LV_COLOR_GET_B(color) * 85); /*(2^8 - 1)/(2^2 - 1) = 255/3 = 85*/
 387:Drivers/lvgl/src/core/../misc/lv_color.h ****     LV_COLOR_SET_A32(ret, 0xFF);
 388:Drivers/lvgl/src/core/../misc/lv_color.h ****     return ret.full;
 389:Drivers/lvgl/src/core/../misc/lv_color.h **** #elif LV_COLOR_DEPTH == 16
 390:Drivers/lvgl/src/core/../misc/lv_color.h ****     /**
 391:Drivers/lvgl/src/core/../misc/lv_color.h ****      * The floating point math for conversion is:
 392:Drivers/lvgl/src/core/../misc/lv_color.h ****      *  valueto = valuefrom * ( (2^bitsto - 1) / (float)(2^bitsfrom - 1) )
 393:Drivers/lvgl/src/core/../misc/lv_color.h ****      * The faster integer math for conversion is:
 394:Drivers/lvgl/src/core/../misc/lv_color.h ****      *  valueto = ( valuefrom * multiplier + adder ) >> divisor
 395:Drivers/lvgl/src/core/../misc/lv_color.h ****      *   multiplier = FLOOR( ( (2^bitsto - 1) << divisor ) / (float)(2^bitsfrom - 1) )
 396:Drivers/lvgl/src/core/../misc/lv_color.h ****      *
 397:Drivers/lvgl/src/core/../misc/lv_color.h ****      * Find the first divisor where ( adder >> divisor ) <= 0
 398:Drivers/lvgl/src/core/../misc/lv_color.h ****      *
 399:Drivers/lvgl/src/core/../misc/lv_color.h ****      * 5-bit to 8-bit: ( 31 * multiplier + adder ) >> divisor = 255
 400:Drivers/lvgl/src/core/../misc/lv_color.h ****      * divisor  multiplier  adder  min (0)  max (31)
 401:Drivers/lvgl/src/core/../misc/lv_color.h ****      *       0           8      7        7       255
 402:Drivers/lvgl/src/core/../misc/lv_color.h ****      *       1          16     14        7       255
 403:Drivers/lvgl/src/core/../misc/lv_color.h ****      *       2          32     28        7       255
 404:Drivers/lvgl/src/core/../misc/lv_color.h ****      *       3          65     25        3       255
ARM GAS  /var/folders/0z/tsy30v1j4xl4_7kw94k978ww0000gn/T//cc8A9NTU.s 			page 139


 405:Drivers/lvgl/src/core/../misc/lv_color.h ****      *       4         131     19        1       255
 406:Drivers/lvgl/src/core/../misc/lv_color.h ****      *       5         263      7        0       255
 407:Drivers/lvgl/src/core/../misc/lv_color.h ****      *
 408:Drivers/lvgl/src/core/../misc/lv_color.h ****      * 6-bit to 8-bit: 255 = ( 63 * multiplier + adder ) >> divisor
 409:Drivers/lvgl/src/core/../misc/lv_color.h ****      * divisor  multiplier  adder  min (0)  max (63)
 410:Drivers/lvgl/src/core/../misc/lv_color.h ****      *       0           4      3        3       255
 411:Drivers/lvgl/src/core/../misc/lv_color.h ****      *       1           8      6        3       255
 412:Drivers/lvgl/src/core/../misc/lv_color.h ****      *       2          16     12        3       255
 413:Drivers/lvgl/src/core/../misc/lv_color.h ****      *       3          32     24        3       255
 414:Drivers/lvgl/src/core/../misc/lv_color.h ****      *       4          64     48        3       255
 415:Drivers/lvgl/src/core/../misc/lv_color.h ****      *       5         129     33        1       255
 416:Drivers/lvgl/src/core/../misc/lv_color.h ****      *       6         259      3        0       255
 417:Drivers/lvgl/src/core/../misc/lv_color.h ****      */
 418:Drivers/lvgl/src/core/../misc/lv_color.h **** 
 419:Drivers/lvgl/src/core/../misc/lv_color.h ****     lv_color32_t ret;
 420:Drivers/lvgl/src/core/../misc/lv_color.h ****     LV_COLOR_SET_R32(ret, (LV_COLOR_GET_R(color) * 263 + 7) >> 5);
 421:Drivers/lvgl/src/core/../misc/lv_color.h ****     LV_COLOR_SET_G32(ret, (LV_COLOR_GET_G(color) * 259 + 3) >> 6);
 422:Drivers/lvgl/src/core/../misc/lv_color.h ****     LV_COLOR_SET_B32(ret, (LV_COLOR_GET_B(color) * 263 + 7) >> 5);
 423:Drivers/lvgl/src/core/../misc/lv_color.h ****     LV_COLOR_SET_A32(ret, 0xFF);
 424:Drivers/lvgl/src/core/../misc/lv_color.h ****     return ret.full;
 425:Drivers/lvgl/src/core/../misc/lv_color.h **** #elif LV_COLOR_DEPTH == 32
 426:Drivers/lvgl/src/core/../misc/lv_color.h ****     return color.full;
 427:Drivers/lvgl/src/core/../misc/lv_color.h **** #endif
 428:Drivers/lvgl/src/core/../misc/lv_color.h **** }
 429:Drivers/lvgl/src/core/../misc/lv_color.h **** 
 430:Drivers/lvgl/src/core/../misc/lv_color.h **** //! @cond Doxygen_Suppress
 431:Drivers/lvgl/src/core/../misc/lv_color.h **** 
 432:Drivers/lvgl/src/core/../misc/lv_color.h **** /**
 433:Drivers/lvgl/src/core/../misc/lv_color.h ****  * Mix two colors with a given ratio.
 434:Drivers/lvgl/src/core/../misc/lv_color.h ****  * @param c1 the first color to mix (usually the foreground)
 435:Drivers/lvgl/src/core/../misc/lv_color.h ****  * @param c2 the second color to mix (usually the background)
 436:Drivers/lvgl/src/core/../misc/lv_color.h ****  * @param mix The ratio of the colors. 0: full `c2`, 255: full `c1`, 127: half `c1` and half`c2`
 437:Drivers/lvgl/src/core/../misc/lv_color.h ****  * @return the mixed color
 438:Drivers/lvgl/src/core/../misc/lv_color.h ****  */
 439:Drivers/lvgl/src/core/../misc/lv_color.h **** static inline lv_color_t LV_ATTRIBUTE_FAST_MEM lv_color_mix(lv_color_t c1, lv_color_t c2, uint8_t m
 4045              		.loc 5 439 48 is_stmt 1 view .LVU1255
 4046              	.LBB179:
 440:Drivers/lvgl/src/core/../misc/lv_color.h **** {
 441:Drivers/lvgl/src/core/../misc/lv_color.h ****     lv_color_t ret;
 4047              		.loc 5 441 5 view .LVU1256
 442:Drivers/lvgl/src/core/../misc/lv_color.h **** 
 443:Drivers/lvgl/src/core/../misc/lv_color.h **** #if LV_COLOR_DEPTH == 16 && LV_COLOR_MIX_ROUND_OFS == 0
 444:Drivers/lvgl/src/core/../misc/lv_color.h **** #if LV_COLOR_16_SWAP == 1
 445:Drivers/lvgl/src/core/../misc/lv_color.h ****     c1.full = c1.full << 8 | c1.full >> 8;
 4048              		.loc 5 445 5 view .LVU1257
 4049              		.loc 5 445 17 is_stmt 0 view .LVU1258
 4050 010a 228A     		ldrh	r2, [r4, #16]
 4051              		.loc 5 445 28 view .LVU1259
 4052 010c 4FEA122E 		lsr	lr, r2, #8
 4053 0110 4EEA022E 		orr	lr, lr, r2, lsl #8
 4054 0114 1FFA8EF0 		uxth	r0, lr
 446:Drivers/lvgl/src/core/../misc/lv_color.h ****     c2.full = c2.full << 8 | c2.full >> 8;
 4055              		.loc 5 446 5 is_stmt 1 view .LVU1260
 4056              		.loc 5 446 17 is_stmt 0 view .LVU1261
 4057 0118 A289     		ldrh	r2, [r4, #12]
 4058              		.loc 5 446 28 view .LVU1262
 4059 011a 4FEA122C 		lsr	ip, r2, #8
ARM GAS  /var/folders/0z/tsy30v1j4xl4_7kw94k978ww0000gn/T//cc8A9NTU.s 			page 140


 4060 011e 4CEA022C 		orr	ip, ip, r2, lsl #8
 4061 0122 1FFA8CF2 		uxth	r2, ip
 447:Drivers/lvgl/src/core/../misc/lv_color.h **** #endif
 448:Drivers/lvgl/src/core/../misc/lv_color.h ****     /*Source: https://stackoverflow.com/a/50012418/1999969*/
 449:Drivers/lvgl/src/core/../misc/lv_color.h ****     mix = (uint32_t)((uint32_t)mix + 4) >> 3;
 4062              		.loc 5 449 5 is_stmt 1 view .LVU1263
 4063              		.loc 5 449 11 is_stmt 0 view .LVU1264
 4064 0126 0437     		adds	r7, r7, #4
 4065              	.LVL436:
 450:Drivers/lvgl/src/core/../misc/lv_color.h ****     uint32_t bg = (uint32_t)((uint32_t)c2.full | ((uint32_t)c2.full << 16)) &
 4066              		.loc 5 450 5 is_stmt 1 view .LVU1265
 4067              		.loc 5 450 19 is_stmt 0 view .LVU1266
 4068 0128 42EA0C42 		orr	r2, r2, ip, lsl #16
 4069              		.loc 5 450 14 view .LVU1267
 4070 012c DFF88CC0 		ldr	ip, .L295+8
 4071 0130 02EA0C02 		and	r2, r2, ip
 4072              	.LVL437:
 451:Drivers/lvgl/src/core/../misc/lv_color.h ****                   0x7E0F81F; /*0b00000111111000001111100000011111*/
 452:Drivers/lvgl/src/core/../misc/lv_color.h ****     uint32_t fg = (uint32_t)((uint32_t)c1.full | ((uint32_t)c1.full << 16)) & 0x7E0F81F;
 4073              		.loc 5 452 5 is_stmt 1 view .LVU1268
 4074              		.loc 5 452 19 is_stmt 0 view .LVU1269
 4075 0134 40EA0E40 		orr	r0, r0, lr, lsl #16
 4076              		.loc 5 452 14 view .LVU1270
 4077 0138 00EA0C00 		and	r0, r0, ip
 4078              	.LVL438:
 453:Drivers/lvgl/src/core/../misc/lv_color.h ****     uint32_t result = ((((fg - bg) * mix) >> 5) + bg) & 0x7E0F81F;
 4079              		.loc 5 453 5 is_stmt 1 view .LVU1271
 4080              		.loc 5 453 30 is_stmt 0 view .LVU1272
 4081 013c 801A     		subs	r0, r0, r2
 4082              	.LVL439:
 4083              		.loc 5 453 36 view .LVU1273
 4084 013e FF08     		lsrs	r7, r7, #3
 4085              	.LVL440:
 4086              		.loc 5 453 36 view .LVU1274
 4087 0140 07FB00F0 		mul	r0, r7, r0
 4088              		.loc 5 453 49 view .LVU1275
 4089 0144 02EB5012 		add	r2, r2, r0, lsr #5
 4090              	.LVL441:
 4091              		.loc 5 453 14 view .LVU1276
 4092 0148 02EA0C02 		and	r2, r2, ip
 4093              	.LVL442:
 454:Drivers/lvgl/src/core/../misc/lv_color.h ****     ret.full = (uint16_t)((result >> 16) | result);
 4094              		.loc 5 454 5 is_stmt 1 view .LVU1277
 4095              		.loc 5 454 16 is_stmt 0 view .LVU1278
 4096 014c 42EA1242 		orr	r2, r2, r2, lsr #16
 4097              	.LVL443:
 4098              		.loc 5 454 16 view .LVU1279
 4099 0150 90B2     		uxth	r0, r2
 4100              	.LVL444:
 455:Drivers/lvgl/src/core/../misc/lv_color.h **** #if LV_COLOR_16_SWAP == 1
 456:Drivers/lvgl/src/core/../misc/lv_color.h ****     ret.full = ret.full << 8 | ret.full >> 8;
 4101              		.loc 5 456 5 is_stmt 1 view .LVU1280
 4102              		.loc 5 456 30 is_stmt 0 view .LVU1281
 4103 0152 C2F30722 		ubfx	r2, r2, #8, #8
 4104 0156 42EA0022 		orr	r2, r2, r0, lsl #8
 4105 015a 92B2     		uxth	r2, r2
 457:Drivers/lvgl/src/core/../misc/lv_color.h **** #endif
ARM GAS  /var/folders/0z/tsy30v1j4xl4_7kw94k978ww0000gn/T//cc8A9NTU.s 			page 141


 458:Drivers/lvgl/src/core/../misc/lv_color.h **** #elif LV_COLOR_DEPTH != 1
 459:Drivers/lvgl/src/core/../misc/lv_color.h ****     /*LV_COLOR_DEPTH == 8, 16 or 32*/
 460:Drivers/lvgl/src/core/../misc/lv_color.h ****     LV_COLOR_SET_R(ret, LV_UDIV255((uint16_t)LV_COLOR_GET_R(c1) * mix + LV_COLOR_GET_R(c2) *
 461:Drivers/lvgl/src/core/../misc/lv_color.h ****                                    (255 - mix) + LV_COLOR_MIX_ROUND_OFS));
 462:Drivers/lvgl/src/core/../misc/lv_color.h ****     LV_COLOR_SET_G(ret, LV_UDIV255((uint16_t)LV_COLOR_GET_G(c1) * mix + LV_COLOR_GET_G(c2) *
 463:Drivers/lvgl/src/core/../misc/lv_color.h ****                                    (255 - mix) + LV_COLOR_MIX_ROUND_OFS));
 464:Drivers/lvgl/src/core/../misc/lv_color.h ****     LV_COLOR_SET_B(ret, LV_UDIV255((uint16_t)LV_COLOR_GET_B(c1) * mix + LV_COLOR_GET_B(c2) *
 465:Drivers/lvgl/src/core/../misc/lv_color.h ****                                    (255 - mix) + LV_COLOR_MIX_ROUND_OFS));
 466:Drivers/lvgl/src/core/../misc/lv_color.h ****     LV_COLOR_SET_A(ret, 0xFF);
 467:Drivers/lvgl/src/core/../misc/lv_color.h **** #else
 468:Drivers/lvgl/src/core/../misc/lv_color.h ****     /*LV_COLOR_DEPTH == 1*/
 469:Drivers/lvgl/src/core/../misc/lv_color.h ****     ret.full = mix > LV_OPA_50 ? c1.full : c2.full;
 470:Drivers/lvgl/src/core/../misc/lv_color.h **** #endif
 471:Drivers/lvgl/src/core/../misc/lv_color.h **** 
 472:Drivers/lvgl/src/core/../misc/lv_color.h ****     return ret;
 4106              		.loc 5 472 5 is_stmt 1 view .LVU1282
 4107 015c 0027     		movs	r7, #0
 4108              	.LVL445:
 4109              		.loc 5 472 5 is_stmt 0 view .LVU1283
 4110 015e 62F30F07 		bfi	r7, r2, #0, #16
 4111              	.LVL446:
 4112              		.loc 5 472 5 view .LVU1284
 4113 0162 91E7     		b	.L269
 4114              	.LVL447:
 4115              	.L276:
 4116              		.loc 5 472 5 view .LVU1285
 4117              	.LBE179:
 4118              	.LBE178:
 799:Drivers/lvgl/src/core/lv_obj_style.c ****                 else value_final.num = tr->start_value.num + ((int32_t)((int32_t)(tr->end_value.num
 4119              		.loc 1 799 22 is_stmt 1 view .LVU1286
 799:Drivers/lvgl/src/core/lv_obj_style.c ****                 else value_final.num = tr->start_value.num + ((int32_t)((int32_t)(tr->end_value.num
 4120              		.loc 1 799 24 is_stmt 0 view .LVU1287
 4121 0164 FF2F     		cmp	r7, #255
 4122 0166 07D0     		beq	.L293
 800:Drivers/lvgl/src/core/lv_obj_style.c ****                 break;
 4123              		.loc 1 800 22 is_stmt 1 view .LVU1288
 800:Drivers/lvgl/src/core/lv_obj_style.c ****                 break;
 4124              		.loc 1 800 55 is_stmt 0 view .LVU1289
 4125 0168 E068     		ldr	r0, [r4, #12]
 800:Drivers/lvgl/src/core/lv_obj_style.c ****                 break;
 4126              		.loc 1 800 96 view .LVU1290
 4127 016a 2269     		ldr	r2, [r4, #16]
 800:Drivers/lvgl/src/core/lv_obj_style.c ****                 break;
 4128              		.loc 1 800 101 view .LVU1291
 4129 016c 121A     		subs	r2, r2, r0
 800:Drivers/lvgl/src/core/lv_obj_style.c ****                 break;
 4130              		.loc 1 800 63 view .LVU1292
 4131 016e 07FB02F2 		mul	r2, r7, r2
 800:Drivers/lvgl/src/core/lv_obj_style.c ****                 break;
 4132              		.loc 1 800 60 view .LVU1293
 4133 0172 00EB2227 		add	r7, r0, r2, asr #8
 4134              	.LVL448:
 800:Drivers/lvgl/src/core/lv_obj_style.c ****                 break;
 4135              		.loc 1 800 60 view .LVU1294
 4136 0176 87E7     		b	.L269
 4137              	.LVL449:
 4138              	.L293:
ARM GAS  /var/folders/0z/tsy30v1j4xl4_7kw94k978ww0000gn/T//cc8A9NTU.s 			page 142


 799:Drivers/lvgl/src/core/lv_obj_style.c ****                 else value_final.num = tr->start_value.num + ((int32_t)((int32_t)(tr->end_value.num
 4139              		.loc 1 799 35 is_stmt 1 discriminator 1 view .LVU1295
 799:Drivers/lvgl/src/core/lv_obj_style.c ****                 else value_final.num = tr->start_value.num + ((int32_t)((int32_t)(tr->end_value.num
 4140              		.loc 1 799 66 is_stmt 0 discriminator 1 view .LVU1296
 4141 0178 2769     		ldr	r7, [r4, #16]
 4142              	.LVL450:
 799:Drivers/lvgl/src/core/lv_obj_style.c ****                 else value_final.num = tr->start_value.num + ((int32_t)((int32_t)(tr->end_value.num
 4143              		.loc 1 799 66 discriminator 1 view .LVU1297
 4144 017a 85E7     		b	.L269
 4145              	.LVL451:
 4146              	.L289:
 807:Drivers/lvgl/src/core/lv_obj_style.c ****                value_final.num == old_value.num) {
 4147              		.loc 1 807 99 discriminator 1 view .LVU1298
 4148 017c 10D0     		beq	.L284
 805:Drivers/lvgl/src/core/lv_obj_style.c ****         if(lv_style_get_prop(obj->styles[i].style, tr->prop, &old_value)) {
 4149              		.loc 1 805 14 view .LVU1299
 4150 017e 4FF00108 		mov	r8, #1
 4151 0182 01E0     		b	.L278
 4152              	.L282:
 4153 0184 4FF00108 		mov	r8, #1
 4154              	.L278:
 4155              	.LVL452:
 812:Drivers/lvgl/src/core/lv_obj_style.c ****         if(refr) lv_obj_refresh_style(tr->obj, tr->selector, tr->prop);
 4156              		.loc 1 812 9 is_stmt 1 view .LVU1300
 812:Drivers/lvgl/src/core/lv_obj_style.c ****         if(refr) lv_obj_refresh_style(tr->obj, tr->selector, tr->prop);
 4157              		.loc 1 812 30 is_stmt 0 view .LVU1301
 4158 0188 EB68     		ldr	r3, [r5, #12]
 812:Drivers/lvgl/src/core/lv_obj_style.c ****         if(refr) lv_obj_refresh_style(tr->obj, tr->selector, tr->prop);
 4159              		.loc 1 812 9 view .LVU1302
 4160 018a 3A46     		mov	r2, r7
 4161 018c A188     		ldrh	r1, [r4, #4]
 4162 018e 9859     		ldr	r0, [r3, r6]
 4163 0190 FFF7FEFF 		bl	lv_style_set_prop
 4164              	.LVL453:
 813:Drivers/lvgl/src/core/lv_obj_style.c ****         break;
 4165              		.loc 1 813 9 is_stmt 1 view .LVU1303
 813:Drivers/lvgl/src/core/lv_obj_style.c ****         break;
 4166              		.loc 1 813 11 is_stmt 0 view .LVU1304
 4167 0194 B8F1000F 		cmp	r8, #0
 4168 0198 05D1     		bne	.L294
 4169              	.LVL454:
 4170              	.L254:
 813:Drivers/lvgl/src/core/lv_obj_style.c ****         break;
 4171              		.loc 1 813 11 view .LVU1305
 4172              	.LBE180:
 818:Drivers/lvgl/src/core/lv_obj_style.c **** 
 4173              		.loc 1 818 1 view .LVU1306
 4174 019a 02B0     		add	sp, sp, #8
 4175              		.cfi_remember_state
 4176              		.cfi_def_cfa_offset 24
 4177              		@ sp needed
 4178 019c BDE8F081 		pop	{r4, r5, r6, r7, r8, pc}
 4179              	.LVL455:
 4180              	.L284:
 4181              		.cfi_restore_state
 4182              	.LBB181:
 809:Drivers/lvgl/src/core/lv_obj_style.c ****             }
ARM GAS  /var/folders/0z/tsy30v1j4xl4_7kw94k978ww0000gn/T//cc8A9NTU.s 			page 143


 4183              		.loc 1 809 22 view .LVU1307
 4184 01a0 4FF00008 		mov	r8, #0
 4185 01a4 F0E7     		b	.L278
 4186              	.LVL456:
 4187              	.L294:
 813:Drivers/lvgl/src/core/lv_obj_style.c ****         break;
 4188              		.loc 1 813 18 is_stmt 1 discriminator 1 view .LVU1308
 4189 01a6 A288     		ldrh	r2, [r4, #4]
 4190 01a8 A168     		ldr	r1, [r4, #8]
 4191 01aa 2068     		ldr	r0, [r4]
 4192 01ac FFF7FEFF 		bl	lv_obj_refresh_style
 4193              	.LVL457:
 814:Drivers/lvgl/src/core/lv_obj_style.c **** 
 4194              		.loc 1 814 9 discriminator 1 view .LVU1309
 4195 01b0 F3E7     		b	.L254
 4196              	.L296:
 4197 01b2 00BF     		.align	2
 4198              	.L295:
 4199 01b4 05004100 		.word	4259845
 4200 01b8 09000200 		.word	131081
 4201 01bc 1FF8E007 		.word	132184095
 4202              	.LBE181:
 4203              		.cfi_endproc
 4204              	.LFE193:
 4206              		.section	.text.lv_obj_remove_style,"ax",%progbits
 4207              		.align	1
 4208              		.global	lv_obj_remove_style
 4209              		.syntax unified
 4210              		.thumb
 4211              		.thumb_func
 4213              	lv_obj_remove_style:
 4214              	.LVL458:
 4215              	.LFB169:
 107:Drivers/lvgl/src/core/lv_obj_style.c ****     lv_state_t state = lv_obj_style_get_selector_state(selector);
 4216              		.loc 1 107 1 view -0
 4217              		.cfi_startproc
 4218              		@ args = 0, pretend = 0, frame = 16
 4219              		@ frame_needed = 0, uses_anonymous_args = 0
 107:Drivers/lvgl/src/core/lv_obj_style.c ****     lv_state_t state = lv_obj_style_get_selector_state(selector);
 4220              		.loc 1 107 1 is_stmt 0 view .LVU1311
 4221 0000 2DE9F04F 		push	{r4, r5, r6, r7, r8, r9, r10, fp, lr}
 4222              		.cfi_def_cfa_offset 36
 4223              		.cfi_offset 4, -36
 4224              		.cfi_offset 5, -32
 4225              		.cfi_offset 6, -28
 4226              		.cfi_offset 7, -24
 4227              		.cfi_offset 8, -20
 4228              		.cfi_offset 9, -16
 4229              		.cfi_offset 10, -12
 4230              		.cfi_offset 11, -8
 4231              		.cfi_offset 14, -4
 4232 0004 85B0     		sub	sp, sp, #20
 4233              		.cfi_def_cfa_offset 56
 4234 0006 0446     		mov	r4, r0
 4235 0008 0E46     		mov	r6, r1
 4236 000a 0191     		str	r1, [sp, #4]
 4237 000c 1546     		mov	r5, r2
ARM GAS  /var/folders/0z/tsy30v1j4xl4_7kw94k978ww0000gn/T//cc8A9NTU.s 			page 144


 108:Drivers/lvgl/src/core/lv_obj_style.c ****     lv_part_t part = lv_obj_style_get_selector_part(selector);
 4238              		.loc 1 108 5 is_stmt 1 view .LVU1312
 108:Drivers/lvgl/src/core/lv_obj_style.c ****     lv_part_t part = lv_obj_style_get_selector_part(selector);
 4239              		.loc 1 108 24 is_stmt 0 view .LVU1313
 4240 000e 1046     		mov	r0, r2
 4241              	.LVL459:
 108:Drivers/lvgl/src/core/lv_obj_style.c ****     lv_part_t part = lv_obj_style_get_selector_part(selector);
 4242              		.loc 1 108 24 view .LVU1314
 4243 0010 FFF7FEFF 		bl	lv_obj_style_get_selector_state
 4244              	.LVL460:
 108:Drivers/lvgl/src/core/lv_obj_style.c ****     lv_part_t part = lv_obj_style_get_selector_part(selector);
 4245              		.loc 1 108 24 view .LVU1315
 4246 0014 8146     		mov	r9, r0
 4247              	.LVL461:
 109:Drivers/lvgl/src/core/lv_obj_style.c ****     lv_style_prop_t prop = LV_STYLE_PROP_ANY;
 4248              		.loc 1 109 5 is_stmt 1 view .LVU1316
 109:Drivers/lvgl/src/core/lv_obj_style.c ****     lv_style_prop_t prop = LV_STYLE_PROP_ANY;
 4249              		.loc 1 109 22 is_stmt 0 view .LVU1317
 4250 0016 2846     		mov	r0, r5
 4251 0018 FFF7FEFF 		bl	lv_obj_style_get_selector_part
 4252              	.LVL462:
 4253 001c 8346     		mov	fp, r0
 4254              	.LVL463:
 110:Drivers/lvgl/src/core/lv_obj_style.c ****     if(style && style->prop_cnt == 0) prop = LV_STYLE_PROP_INV;
 4255              		.loc 1 110 5 is_stmt 1 view .LVU1318
 111:Drivers/lvgl/src/core/lv_obj_style.c **** 
 4256              		.loc 1 111 5 view .LVU1319
 111:Drivers/lvgl/src/core/lv_obj_style.c **** 
 4257              		.loc 1 111 7 is_stmt 0 view .LVU1320
 4258 001e 46B1     		cbz	r6, .L311
 111:Drivers/lvgl/src/core/lv_obj_style.c **** 
 4259              		.loc 1 111 22 discriminator 1 view .LVU1321
 4260 0020 F379     		ldrb	r3, [r6, #7]	@ zero_extendqisi2
 111:Drivers/lvgl/src/core/lv_obj_style.c **** 
 4261              		.loc 1 111 14 discriminator 1 view .LVU1322
 4262 0022 53B1     		cbz	r3, .L312
 110:Drivers/lvgl/src/core/lv_obj_style.c ****     if(style && style->prop_cnt == 0) prop = LV_STYLE_PROP_INV;
 4263              		.loc 1 110 21 view .LVU1323
 4264 0024 4FF6FF73 		movw	r3, #65535
 4265 0028 0393     		str	r3, [sp, #12]
 4266              	.L298:
 4267              	.LVL464:
 113:Drivers/lvgl/src/core/lv_obj_style.c ****     bool deleted = false;
 4268              		.loc 1 113 5 is_stmt 1 view .LVU1324
 114:Drivers/lvgl/src/core/lv_obj_style.c ****     while(i <  obj->style_cnt) {
 4269              		.loc 1 114 5 view .LVU1325
 115:Drivers/lvgl/src/core/lv_obj_style.c ****         lv_state_t state_act = lv_obj_style_get_selector_state(obj->styles[i].selector);
 4270              		.loc 1 115 5 view .LVU1326
 114:Drivers/lvgl/src/core/lv_obj_style.c ****     while(i <  obj->style_cnt) {
 4271              		.loc 1 114 10 is_stmt 0 view .LVU1327
 4272 002a 0023     		movs	r3, #0
 4273 002c 0293     		str	r3, [sp, #8]
 113:Drivers/lvgl/src/core/lv_obj_style.c ****     bool deleted = false;
 4274              		.loc 1 113 14 view .LVU1328
 4275 002e 1D46     		mov	r5, r3
 4276              	.LVL465:
 115:Drivers/lvgl/src/core/lv_obj_style.c ****         lv_state_t state_act = lv_obj_style_get_selector_state(obj->styles[i].selector);
ARM GAS  /var/folders/0z/tsy30v1j4xl4_7kw94k978ww0000gn/T//cc8A9NTU.s 			page 145


 4277              		.loc 1 115 10 view .LVU1329
 4278 0030 0DE0     		b	.L299
 4279              	.LVL466:
 4280              	.L311:
 110:Drivers/lvgl/src/core/lv_obj_style.c ****     if(style && style->prop_cnt == 0) prop = LV_STYLE_PROP_INV;
 4281              		.loc 1 110 21 view .LVU1330
 4282 0032 4FF6FF73 		movw	r3, #65535
 4283 0036 0393     		str	r3, [sp, #12]
 4284 0038 F7E7     		b	.L298
 4285              	.L312:
 111:Drivers/lvgl/src/core/lv_obj_style.c **** 
 4286              		.loc 1 111 44 view .LVU1331
 4287 003a 0023     		movs	r3, #0
 4288 003c 0393     		str	r3, [sp, #12]
 4289 003e F4E7     		b	.L298
 4290              	.LVL467:
 4291              	.L302:
 4292              	.LBB182:
 119:Drivers/lvgl/src/core/lv_obj_style.c ****            (style != NULL && style != obj->styles[i].style)) {
 4293              		.loc 1 119 54 discriminator 1 view .LVU1332
 4294 0040 019A     		ldr	r2, [sp, #4]
 4295 0042 32B3     		cbz	r2, .L303
 120:Drivers/lvgl/src/core/lv_obj_style.c ****             i++;
 4296              		.loc 1 120 53 view .LVU1333
 4297 0044 57F80A30 		ldr	r3, [r7, r10]
 120:Drivers/lvgl/src/core/lv_obj_style.c ****             i++;
 4298              		.loc 1 120 27 view .LVU1334
 4299 0048 9342     		cmp	r3, r2
 4300 004a 22D0     		beq	.L303
 4301              	.L301:
 121:Drivers/lvgl/src/core/lv_obj_style.c ****             continue;
 4302              		.loc 1 121 13 is_stmt 1 discriminator 3 view .LVU1335
 121:Drivers/lvgl/src/core/lv_obj_style.c ****             continue;
 4303              		.loc 1 121 14 is_stmt 0 discriminator 3 view .LVU1336
 4304 004c 0135     		adds	r5, r5, #1
 4305              	.LVL468:
 122:Drivers/lvgl/src/core/lv_obj_style.c ****         }
 4306              		.loc 1 122 13 is_stmt 1 discriminator 3 view .LVU1337
 4307              	.L299:
 122:Drivers/lvgl/src/core/lv_obj_style.c ****         }
 4308              		.loc 1 122 13 is_stmt 0 discriminator 3 view .LVU1338
 4309              	.LBE182:
 115:Drivers/lvgl/src/core/lv_obj_style.c ****         lv_state_t state_act = lv_obj_style_get_selector_state(obj->styles[i].selector);
 4310              		.loc 1 115 13 is_stmt 1 view .LVU1339
 115:Drivers/lvgl/src/core/lv_obj_style.c ****         lv_state_t state_act = lv_obj_style_get_selector_state(obj->styles[i].selector);
 4311              		.loc 1 115 19 is_stmt 0 view .LVU1340
 4312 004e 638C     		ldrh	r3, [r4, #34]
 4313 0050 C3F30513 		ubfx	r3, r3, #4, #6
 115:Drivers/lvgl/src/core/lv_obj_style.c ****         lv_state_t state_act = lv_obj_style_get_selector_state(obj->styles[i].selector);
 4314              		.loc 1 115 13 view .LVU1341
 4315 0054 AB42     		cmp	r3, r5
 4316 0056 5FD9     		bls	.L314
 4317              	.LBB183:
 116:Drivers/lvgl/src/core/lv_obj_style.c ****         lv_part_t part_act = lv_obj_style_get_selector_part(obj->styles[i].selector);
 4318              		.loc 1 116 9 is_stmt 1 view .LVU1342
 116:Drivers/lvgl/src/core/lv_obj_style.c ****         lv_part_t part_act = lv_obj_style_get_selector_part(obj->styles[i].selector);
 4319              		.loc 1 116 67 is_stmt 0 view .LVU1343
ARM GAS  /var/folders/0z/tsy30v1j4xl4_7kw94k978ww0000gn/T//cc8A9NTU.s 			page 146


 4320 0058 E768     		ldr	r7, [r4, #12]
 116:Drivers/lvgl/src/core/lv_obj_style.c ****         lv_part_t part_act = lv_obj_style_get_selector_part(obj->styles[i].selector);
 4321              		.loc 1 116 75 view .LVU1344
 4322 005a 4FEAC50A 		lsl	r10, r5, #3
 4323 005e 07EBC508 		add	r8, r7, r5, lsl #3
 116:Drivers/lvgl/src/core/lv_obj_style.c ****         lv_part_t part_act = lv_obj_style_get_selector_part(obj->styles[i].selector);
 4324              		.loc 1 116 78 view .LVU1345
 4325 0062 D8F80460 		ldr	r6, [r8, #4]
 4326 0066 C6F31706 		ubfx	r6, r6, #0, #24
 116:Drivers/lvgl/src/core/lv_obj_style.c ****         lv_part_t part_act = lv_obj_style_get_selector_part(obj->styles[i].selector);
 4327              		.loc 1 116 32 view .LVU1346
 4328 006a 3046     		mov	r0, r6
 4329 006c FFF7FEFF 		bl	lv_obj_style_get_selector_state
 4330              	.LVL469:
 4331 0070 0090     		str	r0, [sp]
 4332              	.LVL470:
 117:Drivers/lvgl/src/core/lv_obj_style.c ****         if((state != LV_STATE_ANY && state_act != state) ||
 4333              		.loc 1 117 9 is_stmt 1 view .LVU1347
 117:Drivers/lvgl/src/core/lv_obj_style.c ****         if((state != LV_STATE_ANY && state_act != state) ||
 4334              		.loc 1 117 30 is_stmt 0 view .LVU1348
 4335 0072 3046     		mov	r0, r6
 4336 0074 FFF7FEFF 		bl	lv_obj_style_get_selector_part
 4337              	.LVL471:
 118:Drivers/lvgl/src/core/lv_obj_style.c ****            (part != LV_PART_ANY && part_act != part) ||
 4338              		.loc 1 118 9 is_stmt 1 view .LVU1349
 118:Drivers/lvgl/src/core/lv_obj_style.c ****            (part != LV_PART_ANY && part_act != part) ||
 4339              		.loc 1 118 11 is_stmt 0 view .LVU1350
 4340 0078 4FF6FF73 		movw	r3, #65535
 4341 007c 9945     		cmp	r9, r3
 4342 007e 02D0     		beq	.L300
 118:Drivers/lvgl/src/core/lv_obj_style.c ****            (part != LV_PART_ANY && part_act != part) ||
 4343              		.loc 1 118 35 discriminator 1 view .LVU1351
 4344 0080 009B     		ldr	r3, [sp]
 4345 0082 9945     		cmp	r9, r3
 4346 0084 E2D1     		bne	.L301
 4347              	.L300:
 118:Drivers/lvgl/src/core/lv_obj_style.c ****            (part != LV_PART_ANY && part_act != part) ||
 4348              		.loc 1 118 58 discriminator 4 view .LVU1352
 4349 0086 BBF5702F 		cmp	fp, #983040
 4350 008a D9D0     		beq	.L302
 119:Drivers/lvgl/src/core/lv_obj_style.c ****            (style != NULL && style != obj->styles[i].style)) {
 4351              		.loc 1 119 33 view .LVU1353
 4352 008c 8345     		cmp	fp, r0
 4353 008e D7D0     		beq	.L302
 4354 0090 DCE7     		b	.L301
 4355              	.L303:
 125:Drivers/lvgl/src/core/lv_obj_style.c ****             trans_del(obj, part, LV_STYLE_PROP_ANY, NULL);
 4356              		.loc 1 125 9 is_stmt 1 view .LVU1354
 125:Drivers/lvgl/src/core/lv_obj_style.c ****             trans_del(obj, part, LV_STYLE_PROP_ANY, NULL);
 4357              		.loc 1 125 12 is_stmt 0 view .LVU1355
 4358 0092 98F80730 		ldrb	r3, [r8, #7]	@ zero_extendqisi2
 125:Drivers/lvgl/src/core/lv_obj_style.c ****             trans_del(obj, part, LV_STYLE_PROP_ANY, NULL);
 4359              		.loc 1 125 11 view .LVU1356
 4360 0096 13F0020F 		tst	r3, #2
 4361 009a 08D1     		bne	.L315
 4362              	.LVL472:
 4363              	.L305:
ARM GAS  /var/folders/0z/tsy30v1j4xl4_7kw94k978ww0000gn/T//cc8A9NTU.s 			page 147


 129:Drivers/lvgl/src/core/lv_obj_style.c ****             lv_style_reset(obj->styles[i].style);
 4364              		.loc 1 129 9 is_stmt 1 view .LVU1357
 129:Drivers/lvgl/src/core/lv_obj_style.c ****             lv_style_reset(obj->styles[i].style);
 4365              		.loc 1 129 15 is_stmt 0 view .LVU1358
 4366 009c E368     		ldr	r3, [r4, #12]
 129:Drivers/lvgl/src/core/lv_obj_style.c ****             lv_style_reset(obj->styles[i].style);
 4367              		.loc 1 129 23 view .LVU1359
 4368 009e 03EB0A02 		add	r2, r3, r10
 129:Drivers/lvgl/src/core/lv_obj_style.c ****             lv_style_reset(obj->styles[i].style);
 4369              		.loc 1 129 36 view .LVU1360
 4370 00a2 D279     		ldrb	r2, [r2, #7]	@ zero_extendqisi2
 129:Drivers/lvgl/src/core/lv_obj_style.c ****             lv_style_reset(obj->styles[i].style);
 4371              		.loc 1 129 11 view .LVU1361
 4372 00a4 12F0030F 		tst	r2, #3
 4373 00a8 09D1     		bne	.L316
 4374              	.L306:
 4375              	.LBE183:
 111:Drivers/lvgl/src/core/lv_obj_style.c **** 
 4376              		.loc 1 111 44 discriminator 1 view .LVU1362
 4377 00aa 2A46     		mov	r2, r5
 4378 00ac 1FE0     		b	.L307
 4379              	.LVL473:
 4380              	.L315:
 4381              	.LBB184:
 126:Drivers/lvgl/src/core/lv_obj_style.c ****         }
 4382              		.loc 1 126 13 is_stmt 1 view .LVU1363
 4383 00ae 0023     		movs	r3, #0
 4384 00b0 4FF6FF72 		movw	r2, #65535
 4385 00b4 5946     		mov	r1, fp
 4386 00b6 2046     		mov	r0, r4
 4387              	.LVL474:
 126:Drivers/lvgl/src/core/lv_obj_style.c ****         }
 4388              		.loc 1 126 13 is_stmt 0 view .LVU1364
 4389 00b8 FFF7FEFF 		bl	trans_del
 4390              	.LVL475:
 4391 00bc EEE7     		b	.L305
 4392              	.L316:
 130:Drivers/lvgl/src/core/lv_obj_style.c ****             lv_mem_free(obj->styles[i].style);
 4393              		.loc 1 130 13 is_stmt 1 view .LVU1365
 4394 00be 53F80A00 		ldr	r0, [r3, r10]
 4395 00c2 FFF7FEFF 		bl	lv_style_reset
 4396              	.LVL476:
 131:Drivers/lvgl/src/core/lv_obj_style.c ****             obj->styles[i].style = NULL;
 4397              		.loc 1 131 13 view .LVU1366
 131:Drivers/lvgl/src/core/lv_obj_style.c ****             obj->styles[i].style = NULL;
 4398              		.loc 1 131 28 is_stmt 0 view .LVU1367
 4399 00c6 E368     		ldr	r3, [r4, #12]
 131:Drivers/lvgl/src/core/lv_obj_style.c ****             obj->styles[i].style = NULL;
 4400              		.loc 1 131 13 view .LVU1368
 4401 00c8 53F80A00 		ldr	r0, [r3, r10]
 4402 00cc FFF7FEFF 		bl	lv_mem_free
 4403              	.LVL477:
 132:Drivers/lvgl/src/core/lv_obj_style.c ****         }
 4404              		.loc 1 132 13 is_stmt 1 view .LVU1369
 132:Drivers/lvgl/src/core/lv_obj_style.c ****         }
 4405              		.loc 1 132 16 is_stmt 0 view .LVU1370
 4406 00d0 E368     		ldr	r3, [r4, #12]
ARM GAS  /var/folders/0z/tsy30v1j4xl4_7kw94k978ww0000gn/T//cc8A9NTU.s 			page 148


 132:Drivers/lvgl/src/core/lv_obj_style.c ****         }
 4407              		.loc 1 132 34 view .LVU1371
 4408 00d2 0022     		movs	r2, #0
 4409 00d4 43F80A20 		str	r2, [r3, r10]
 4410 00d8 E7E7     		b	.L306
 4411              	.LVL478:
 4412              	.L308:
 138:Drivers/lvgl/src/core/lv_obj_style.c ****         }
 4413              		.loc 1 138 13 is_stmt 1 discriminator 3 view .LVU1372
 138:Drivers/lvgl/src/core/lv_obj_style.c ****         }
 4414              		.loc 1 138 33 is_stmt 0 discriminator 3 view .LVU1373
 4415 00da E368     		ldr	r3, [r4, #12]
 138:Drivers/lvgl/src/core/lv_obj_style.c ****         }
 4416              		.loc 1 138 41 discriminator 3 view .LVU1374
 4417 00dc 561C     		adds	r6, r2, #1
 4418 00de 03EBC601 		add	r1, r3, r6, lsl #3
 138:Drivers/lvgl/src/core/lv_obj_style.c ****         }
 4419              		.loc 1 138 24 discriminator 3 view .LVU1375
 4420 00e2 03EBC203 		add	r3, r3, r2, lsl #3
 138:Drivers/lvgl/src/core/lv_obj_style.c ****         }
 4421              		.loc 1 138 28 discriminator 3 view .LVU1376
 4422 00e6 03C9     		ldm	r1, {r0, r1}
 4423 00e8 83E80300 		stm	r3, {r0, r1}
 137:Drivers/lvgl/src/core/lv_obj_style.c ****             obj->styles[j] = obj->styles[j + 1];
 4424              		.loc 1 137 56 is_stmt 1 discriminator 3 view .LVU1377
 4425              	.LVL479:
 137:Drivers/lvgl/src/core/lv_obj_style.c ****             obj->styles[j] = obj->styles[j + 1];
 4426              		.loc 1 137 56 is_stmt 0 discriminator 3 view .LVU1378
 4427 00ec 3246     		mov	r2, r6
 4428              	.LVL480:
 4429              	.L307:
 137:Drivers/lvgl/src/core/lv_obj_style.c ****             obj->styles[j] = obj->styles[j + 1];
 4430              		.loc 1 137 22 is_stmt 1 discriminator 1 view .LVU1379
 137:Drivers/lvgl/src/core/lv_obj_style.c ****             obj->styles[j] = obj->styles[j + 1];
 4431              		.loc 1 137 37 is_stmt 0 discriminator 1 view .LVU1380
 4432 00ee 618C     		ldrh	r1, [r4, #34]
 4433 00f0 C1F30511 		ubfx	r1, r1, #4, #6
 137:Drivers/lvgl/src/core/lv_obj_style.c ****             obj->styles[j] = obj->styles[j + 1];
 4434              		.loc 1 137 49 discriminator 1 view .LVU1381
 4435 00f4 4B1E     		subs	r3, r1, #1
 137:Drivers/lvgl/src/core/lv_obj_style.c ****             obj->styles[j] = obj->styles[j + 1];
 4436              		.loc 1 137 22 discriminator 1 view .LVU1382
 4437 00f6 9342     		cmp	r3, r2
 4438 00f8 EFD8     		bhi	.L308
 141:Drivers/lvgl/src/core/lv_obj_style.c ****         obj->styles = lv_mem_realloc(obj->styles, obj->style_cnt * sizeof(_lv_obj_style_t));
 4439              		.loc 1 141 9 is_stmt 1 view .LVU1383
 141:Drivers/lvgl/src/core/lv_obj_style.c ****         obj->styles = lv_mem_realloc(obj->styles, obj->style_cnt * sizeof(_lv_obj_style_t));
 4440              		.loc 1 141 23 is_stmt 0 view .LVU1384
 4441 00fa 3F31     		adds	r1, r1, #63
 4442 00fc 01F03F01 		and	r1, r1, #63
 4443 0100 638C     		ldrh	r3, [r4, #34]
 4444 0102 61F30913 		bfi	r3, r1, #4, #6
 4445 0106 6384     		strh	r3, [r4, #34]	@ movhi
 4446              	.LVL481:
 142:Drivers/lvgl/src/core/lv_obj_style.c **** 
 4447              		.loc 1 142 9 is_stmt 1 view .LVU1385
 142:Drivers/lvgl/src/core/lv_obj_style.c **** 
ARM GAS  /var/folders/0z/tsy30v1j4xl4_7kw94k978ww0000gn/T//cc8A9NTU.s 			page 149


 4448              		.loc 1 142 23 is_stmt 0 view .LVU1386
 4449 0108 C900     		lsls	r1, r1, #3
 4450 010a E068     		ldr	r0, [r4, #12]
 4451 010c FFF7FEFF 		bl	lv_mem_realloc
 4452              	.LVL482:
 142:Drivers/lvgl/src/core/lv_obj_style.c **** 
 4453              		.loc 1 142 21 view .LVU1387
 4454 0110 E060     		str	r0, [r4, #12]
 144:Drivers/lvgl/src/core/lv_obj_style.c ****         /*The style from the current `i` index is removed, so `i` points to the next style.
 4455              		.loc 1 144 9 is_stmt 1 view .LVU1388
 4456              	.LVL483:
 144:Drivers/lvgl/src/core/lv_obj_style.c ****         /*The style from the current `i` index is removed, so `i` points to the next style.
 4457              		.loc 1 144 17 is_stmt 0 view .LVU1389
 4458 0112 0123     		movs	r3, #1
 4459 0114 0293     		str	r3, [sp, #8]
 4460 0116 9AE7     		b	.L299
 4461              	.LVL484:
 4462              	.L314:
 144:Drivers/lvgl/src/core/lv_obj_style.c ****         /*The style from the current `i` index is removed, so `i` points to the next style.
 4463              		.loc 1 144 17 view .LVU1390
 4464              	.LBE184:
 148:Drivers/lvgl/src/core/lv_obj_style.c ****         lv_obj_refresh_style(obj, part, prop);
 4465              		.loc 1 148 5 is_stmt 1 view .LVU1391
 148:Drivers/lvgl/src/core/lv_obj_style.c ****         lv_obj_refresh_style(obj, part, prop);
 4466              		.loc 1 148 7 is_stmt 0 view .LVU1392
 4467 0118 029B     		ldr	r3, [sp, #8]
 4468 011a 0BB1     		cbz	r3, .L297
 148:Drivers/lvgl/src/core/lv_obj_style.c ****         lv_obj_refresh_style(obj, part, prop);
 4469              		.loc 1 148 16 discriminator 1 view .LVU1393
 4470 011c 039B     		ldr	r3, [sp, #12]
 4471 011e 13B9     		cbnz	r3, .L317
 4472              	.L297:
 151:Drivers/lvgl/src/core/lv_obj_style.c **** 
 4473              		.loc 1 151 1 view .LVU1394
 4474 0120 05B0     		add	sp, sp, #20
 4475              		.cfi_remember_state
 4476              		.cfi_def_cfa_offset 36
 4477              		@ sp needed
 4478 0122 BDE8F08F 		pop	{r4, r5, r6, r7, r8, r9, r10, fp, pc}
 4479              	.LVL485:
 4480              	.L317:
 4481              		.cfi_restore_state
 149:Drivers/lvgl/src/core/lv_obj_style.c ****     }
 4482              		.loc 1 149 9 is_stmt 1 view .LVU1395
 4483 0126 1A46     		mov	r2, r3
 4484 0128 5946     		mov	r1, fp
 4485 012a 2046     		mov	r0, r4
 4486 012c FFF7FEFF 		bl	lv_obj_refresh_style
 4487              	.LVL486:
 151:Drivers/lvgl/src/core/lv_obj_style.c **** 
 4488              		.loc 1 151 1 is_stmt 0 view .LVU1396
 4489 0130 F6E7     		b	.L297
 4490              		.cfi_endproc
 4491              	.LFE169:
 4493              		.section	.text.trans_anim_ready_cb,"ax",%progbits
 4494              		.align	1
 4495              		.syntax unified
ARM GAS  /var/folders/0z/tsy30v1j4xl4_7kw94k978ww0000gn/T//cc8A9NTU.s 			page 150


 4496              		.thumb
 4497              		.thumb_func
 4499              	trans_anim_ready_cb:
 4500              	.LVL487:
 4501              	.LFB195:
 842:Drivers/lvgl/src/core/lv_obj_style.c ****     trans_t * tr = a->var;
 4502              		.loc 1 842 1 is_stmt 1 view -0
 4503              		.cfi_startproc
 4504              		@ args = 0, pretend = 0, frame = 0
 4505              		@ frame_needed = 0, uses_anonymous_args = 0
 842:Drivers/lvgl/src/core/lv_obj_style.c ****     trans_t * tr = a->var;
 4506              		.loc 1 842 1 is_stmt 0 view .LVU1398
 4507 0000 2DE9F041 		push	{r4, r5, r6, r7, r8, lr}
 4508              		.cfi_def_cfa_offset 24
 4509              		.cfi_offset 4, -24
 4510              		.cfi_offset 5, -20
 4511              		.cfi_offset 6, -16
 4512              		.cfi_offset 7, -12
 4513              		.cfi_offset 8, -8
 4514              		.cfi_offset 14, -4
 843:Drivers/lvgl/src/core/lv_obj_style.c ****     lv_obj_t * obj = tr->obj;
 4515              		.loc 1 843 5 is_stmt 1 view .LVU1399
 843:Drivers/lvgl/src/core/lv_obj_style.c ****     lv_obj_t * obj = tr->obj;
 4516              		.loc 1 843 15 is_stmt 0 view .LVU1400
 4517 0004 0468     		ldr	r4, [r0]
 4518              	.LVL488:
 844:Drivers/lvgl/src/core/lv_obj_style.c ****     lv_style_prop_t prop = tr->prop;
 4519              		.loc 1 844 5 is_stmt 1 view .LVU1401
 844:Drivers/lvgl/src/core/lv_obj_style.c ****     lv_style_prop_t prop = tr->prop;
 4520              		.loc 1 844 16 is_stmt 0 view .LVU1402
 4521 0006 2568     		ldr	r5, [r4]
 4522              	.LVL489:
 845:Drivers/lvgl/src/core/lv_obj_style.c **** 
 4523              		.loc 1 845 5 is_stmt 1 view .LVU1403
 845:Drivers/lvgl/src/core/lv_obj_style.c **** 
 4524              		.loc 1 845 21 is_stmt 0 view .LVU1404
 4525 0008 A688     		ldrh	r6, [r4, #4]
 4526              	.LVL490:
 850:Drivers/lvgl/src/core/lv_obj_style.c ****     trans_t * tr_i;
 4527              		.loc 1 850 5 is_stmt 1 view .LVU1405
 851:Drivers/lvgl/src/core/lv_obj_style.c ****     _LV_LL_READ(&LV_GC_ROOT(_lv_obj_style_trans_ll), tr_i) {
 4528              		.loc 1 851 5 view .LVU1406
 852:Drivers/lvgl/src/core/lv_obj_style.c ****         if(tr_i != tr && tr_i->obj == tr->obj && tr_i->selector == tr->selector && tr_i->prop == tr
 4529              		.loc 1 852 5 view .LVU1407
 4530 000a 2748     		ldr	r0, .L330
 4531              	.LVL491:
 852:Drivers/lvgl/src/core/lv_obj_style.c ****         if(tr_i != tr && tr_i->obj == tr->obj && tr_i->selector == tr->selector && tr_i->prop == tr
 4532              		.loc 1 852 5 is_stmt 0 view .LVU1408
 4533 000c FFF7FEFF 		bl	_lv_ll_get_head
 4534              	.LVL492:
 4535 0010 0146     		mov	r1, r0
 4536              	.LVL493:
 852:Drivers/lvgl/src/core/lv_obj_style.c ****         if(tr_i != tr && tr_i->obj == tr->obj && tr_i->selector == tr->selector && tr_i->prop == tr
 4537              		.loc 1 852 5 view .LVU1409
 4538 0012 03E0     		b	.L319
 4539              	.L320:
 852:Drivers/lvgl/src/core/lv_obj_style.c ****         if(tr_i != tr && tr_i->obj == tr->obj && tr_i->selector == tr->selector && tr_i->prop == tr
ARM GAS  /var/folders/0z/tsy30v1j4xl4_7kw94k978ww0000gn/T//cc8A9NTU.s 			page 151


 4540              		.loc 1 852 5 is_stmt 1 discriminator 2 view .LVU1410
 4541 0014 2448     		ldr	r0, .L330
 4542              	.LVL494:
 852:Drivers/lvgl/src/core/lv_obj_style.c ****         if(tr_i != tr && tr_i->obj == tr->obj && tr_i->selector == tr->selector && tr_i->prop == tr
 4543              		.loc 1 852 5 is_stmt 0 discriminator 2 view .LVU1411
 4544 0016 FFF7FEFF 		bl	_lv_ll_get_next
 4545              	.LVL495:
 852:Drivers/lvgl/src/core/lv_obj_style.c ****         if(tr_i != tr && tr_i->obj == tr->obj && tr_i->selector == tr->selector && tr_i->prop == tr
 4546              		.loc 1 852 5 discriminator 2 view .LVU1412
 4547 001a 0146     		mov	r1, r0
 4548              	.LVL496:
 4549              	.L319:
 852:Drivers/lvgl/src/core/lv_obj_style.c ****         if(tr_i != tr && tr_i->obj == tr->obj && tr_i->selector == tr->selector && tr_i->prop == tr
 4550              		.loc 1 852 5 is_stmt 1 discriminator 1 view .LVU1413
 4551 001c 79B1     		cbz	r1, .L329
 853:Drivers/lvgl/src/core/lv_obj_style.c ****             running = true;
 4552              		.loc 1 853 9 view .LVU1414
 853:Drivers/lvgl/src/core/lv_obj_style.c ****             running = true;
 4553              		.loc 1 853 11 is_stmt 0 view .LVU1415
 4554 001e A142     		cmp	r1, r4
 4555 0020 F8D0     		beq	.L320
 853:Drivers/lvgl/src/core/lv_obj_style.c ****             running = true;
 4556              		.loc 1 853 30 discriminator 1 view .LVU1416
 4557 0022 0A68     		ldr	r2, [r1]
 853:Drivers/lvgl/src/core/lv_obj_style.c ****             running = true;
 4558              		.loc 1 853 41 discriminator 1 view .LVU1417
 4559 0024 2368     		ldr	r3, [r4]
 853:Drivers/lvgl/src/core/lv_obj_style.c ****             running = true;
 4560              		.loc 1 853 23 discriminator 1 view .LVU1418
 4561 0026 9A42     		cmp	r2, r3
 4562 0028 F4D1     		bne	.L320
 853:Drivers/lvgl/src/core/lv_obj_style.c ****             running = true;
 4563              		.loc 1 853 54 discriminator 2 view .LVU1419
 4564 002a 8A68     		ldr	r2, [r1, #8]
 853:Drivers/lvgl/src/core/lv_obj_style.c ****             running = true;
 4565              		.loc 1 853 70 discriminator 2 view .LVU1420
 4566 002c A368     		ldr	r3, [r4, #8]
 853:Drivers/lvgl/src/core/lv_obj_style.c ****             running = true;
 4567              		.loc 1 853 47 discriminator 2 view .LVU1421
 4568 002e 9A42     		cmp	r2, r3
 4569 0030 F0D1     		bne	.L320
 853:Drivers/lvgl/src/core/lv_obj_style.c ****             running = true;
 4570              		.loc 1 853 88 discriminator 3 view .LVU1422
 4571 0032 8A88     		ldrh	r2, [r1, #4]
 853:Drivers/lvgl/src/core/lv_obj_style.c ****             running = true;
 4572              		.loc 1 853 100 discriminator 3 view .LVU1423
 4573 0034 A388     		ldrh	r3, [r4, #4]
 853:Drivers/lvgl/src/core/lv_obj_style.c ****             running = true;
 4574              		.loc 1 853 81 discriminator 3 view .LVU1424
 4575 0036 9A42     		cmp	r2, r3
 4576 0038 ECD1     		bne	.L320
 854:Drivers/lvgl/src/core/lv_obj_style.c ****             break;
 4577              		.loc 1 854 21 view .LVU1425
 4578 003a 0123     		movs	r3, #1
 4579 003c 00E0     		b	.L321
 4580              	.L329:
 850:Drivers/lvgl/src/core/lv_obj_style.c ****     trans_t * tr_i;
ARM GAS  /var/folders/0z/tsy30v1j4xl4_7kw94k978ww0000gn/T//cc8A9NTU.s 			page 152


 4581              		.loc 1 850 10 view .LVU1426
 4582 003e 0023     		movs	r3, #0
 4583              	.L321:
 4584              	.LVL497:
 859:Drivers/lvgl/src/core/lv_obj_style.c ****         uint32_t i;
 4585              		.loc 1 859 5 is_stmt 1 view .LVU1427
 859:Drivers/lvgl/src/core/lv_obj_style.c ****         uint32_t i;
 4586              		.loc 1 859 7 is_stmt 0 view .LVU1428
 4587 0040 13B1     		cbz	r3, .L324
 4588              	.LVL498:
 4589              	.L318:
 877:Drivers/lvgl/src/core/lv_obj_style.c **** 
 4590              		.loc 1 877 1 view .LVU1429
 4591 0042 BDE8F081 		pop	{r4, r5, r6, r7, r8, pc}
 4592              	.LVL499:
 4593              	.L325:
 4594              	.LBB185:
 861:Drivers/lvgl/src/core/lv_obj_style.c ****             if(obj->styles[i].is_trans && obj->styles[i].selector == tr->selector) {
 4595              		.loc 1 861 41 is_stmt 1 discriminator 2 view .LVU1430
 4596 0046 0133     		adds	r3, r3, #1
 4597              	.LVL500:
 4598              	.L324:
 861:Drivers/lvgl/src/core/lv_obj_style.c ****             if(obj->styles[i].is_trans && obj->styles[i].selector == tr->selector) {
 4599              		.loc 1 861 22 discriminator 1 view .LVU1431
 861:Drivers/lvgl/src/core/lv_obj_style.c ****             if(obj->styles[i].is_trans && obj->styles[i].selector == tr->selector) {
 4600              		.loc 1 861 27 is_stmt 0 discriminator 1 view .LVU1432
 4601 0048 6A8C     		ldrh	r2, [r5, #34]
 4602 004a C2F30512 		ubfx	r2, r2, #4, #6
 861:Drivers/lvgl/src/core/lv_obj_style.c ****             if(obj->styles[i].is_trans && obj->styles[i].selector == tr->selector) {
 4603              		.loc 1 861 22 discriminator 1 view .LVU1433
 4604 004e 9A42     		cmp	r2, r3
 4605 0050 F7D9     		bls	.L318
 862:Drivers/lvgl/src/core/lv_obj_style.c ****                 _lv_ll_remove(&LV_GC_ROOT(_lv_obj_style_trans_ll), tr);
 4606              		.loc 1 862 13 is_stmt 1 view .LVU1434
 862:Drivers/lvgl/src/core/lv_obj_style.c ****                 _lv_ll_remove(&LV_GC_ROOT(_lv_obj_style_trans_ll), tr);
 4607              		.loc 1 862 19 is_stmt 0 view .LVU1435
 4608 0052 EA68     		ldr	r2, [r5, #12]
 862:Drivers/lvgl/src/core/lv_obj_style.c ****                 _lv_ll_remove(&LV_GC_ROOT(_lv_obj_style_trans_ll), tr);
 4609              		.loc 1 862 27 view .LVU1436
 4610 0054 DF00     		lsls	r7, r3, #3
 4611 0056 02EBC302 		add	r2, r2, r3, lsl #3
 862:Drivers/lvgl/src/core/lv_obj_style.c ****                 _lv_ll_remove(&LV_GC_ROOT(_lv_obj_style_trans_ll), tr);
 4612              		.loc 1 862 16 view .LVU1437
 4613 005a D179     		ldrb	r1, [r2, #7]	@ zero_extendqisi2
 862:Drivers/lvgl/src/core/lv_obj_style.c ****                 _lv_ll_remove(&LV_GC_ROOT(_lv_obj_style_trans_ll), tr);
 4614              		.loc 1 862 15 view .LVU1438
 4615 005c 11F0020F 		tst	r1, #2
 4616 0060 F1D0     		beq	.L325
 862:Drivers/lvgl/src/core/lv_obj_style.c ****                 _lv_ll_remove(&LV_GC_ROOT(_lv_obj_style_trans_ll), tr);
 4617              		.loc 1 862 57 discriminator 1 view .LVU1439
 4618 0062 5268     		ldr	r2, [r2, #4]
 4619 0064 C2F31702 		ubfx	r2, r2, #0, #24
 862:Drivers/lvgl/src/core/lv_obj_style.c ****                 _lv_ll_remove(&LV_GC_ROOT(_lv_obj_style_trans_ll), tr);
 4620              		.loc 1 862 72 discriminator 1 view .LVU1440
 4621 0068 A168     		ldr	r1, [r4, #8]
 862:Drivers/lvgl/src/core/lv_obj_style.c ****                 _lv_ll_remove(&LV_GC_ROOT(_lv_obj_style_trans_ll), tr);
 4622              		.loc 1 862 40 discriminator 1 view .LVU1441
ARM GAS  /var/folders/0z/tsy30v1j4xl4_7kw94k978ww0000gn/T//cc8A9NTU.s 			page 153


 4623 006a 8A42     		cmp	r2, r1
 4624 006c EBD1     		bne	.L325
 4625              	.LBB186:
 863:Drivers/lvgl/src/core/lv_obj_style.c ****                 lv_mem_free(tr);
 4626              		.loc 1 863 17 is_stmt 1 view .LVU1442
 4627 006e 2146     		mov	r1, r4
 4628 0070 0D48     		ldr	r0, .L330
 4629              	.LVL501:
 863:Drivers/lvgl/src/core/lv_obj_style.c ****                 lv_mem_free(tr);
 4630              		.loc 1 863 17 is_stmt 0 view .LVU1443
 4631 0072 FFF7FEFF 		bl	_lv_ll_remove
 4632              	.LVL502:
 864:Drivers/lvgl/src/core/lv_obj_style.c **** 
 4633              		.loc 1 864 17 is_stmt 1 view .LVU1444
 4634 0076 2046     		mov	r0, r4
 4635 0078 FFF7FEFF 		bl	lv_mem_free
 4636              	.LVL503:
 866:Drivers/lvgl/src/core/lv_obj_style.c ****                 lv_style_remove_prop(obj_style->style, prop);
 4637              		.loc 1 866 17 view .LVU1445
 866:Drivers/lvgl/src/core/lv_obj_style.c ****                 lv_style_remove_prop(obj_style->style, prop);
 4638              		.loc 1 866 51 is_stmt 0 view .LVU1446
 4639 007c EC68     		ldr	r4, [r5, #12]
 4640              	.LVL504:
 866:Drivers/lvgl/src/core/lv_obj_style.c ****                 lv_style_remove_prop(obj_style->style, prop);
 4641              		.loc 1 866 35 view .LVU1447
 4642 007e 04EB0708 		add	r8, r4, r7
 4643              	.LVL505:
 867:Drivers/lvgl/src/core/lv_obj_style.c **** 
 4644              		.loc 1 867 17 is_stmt 1 view .LVU1448
 4645 0082 3146     		mov	r1, r6
 4646 0084 E059     		ldr	r0, [r4, r7]
 4647 0086 FFF7FEFF 		bl	lv_style_remove_prop
 4648              	.LVL506:
 869:Drivers/lvgl/src/core/lv_obj_style.c ****                     lv_obj_remove_style(obj, obj_style->style, obj_style->selector);
 4649              		.loc 1 869 17 view .LVU1449
 869:Drivers/lvgl/src/core/lv_obj_style.c ****                     lv_obj_remove_style(obj, obj_style->style, obj_style->selector);
 4650              		.loc 1 869 41 is_stmt 0 view .LVU1450
 4651 008a EB68     		ldr	r3, [r5, #12]
 869:Drivers/lvgl/src/core/lv_obj_style.c ****                     lv_obj_remove_style(obj, obj_style->style, obj_style->selector);
 4652              		.loc 1 869 20 view .LVU1451
 4653 008c D859     		ldr	r0, [r3, r7]
 4654 008e FFF7FEFF 		bl	lv_style_is_empty
 4655              	.LVL507:
 869:Drivers/lvgl/src/core/lv_obj_style.c ****                     lv_obj_remove_style(obj, obj_style->style, obj_style->selector);
 4656              		.loc 1 869 19 view .LVU1452
 4657 0092 0028     		cmp	r0, #0
 4658 0094 D5D0     		beq	.L318
 870:Drivers/lvgl/src/core/lv_obj_style.c **** 
 4659              		.loc 1 870 21 is_stmt 1 view .LVU1453
 870:Drivers/lvgl/src/core/lv_obj_style.c **** 
 4660              		.loc 1 870 73 is_stmt 0 view .LVU1454
 4661 0096 D8F80420 		ldr	r2, [r8, #4]
 870:Drivers/lvgl/src/core/lv_obj_style.c **** 
 4662              		.loc 1 870 21 view .LVU1455
 4663 009a 22F07F42 		bic	r2, r2, #-16777216
 4664 009e E159     		ldr	r1, [r4, r7]
 4665 00a0 2846     		mov	r0, r5
ARM GAS  /var/folders/0z/tsy30v1j4xl4_7kw94k978ww0000gn/T//cc8A9NTU.s 			page 154


 4666 00a2 FFF7FEFF 		bl	lv_obj_remove_style
 4667              	.LVL508:
 4668 00a6 CCE7     		b	.L318
 4669              	.L331:
 4670              		.align	2
 4671              	.L330:
 4672 00a8 00000000 		.word	_lv_obj_style_trans_ll
 4673              	.LBE186:
 4674              	.LBE185:
 4675              		.cfi_endproc
 4676              	.LFE195:
 4678              		.section	.text.trans_anim_start_cb,"ax",%progbits
 4679              		.align	1
 4680              		.syntax unified
 4681              		.thumb
 4682              		.thumb_func
 4684              	trans_anim_start_cb:
 4685              	.LVL509:
 4686              	.LFB194:
 821:Drivers/lvgl/src/core/lv_obj_style.c ****     trans_t * tr = a->var;
 4687              		.loc 1 821 1 is_stmt 1 view -0
 4688              		.cfi_startproc
 4689              		@ args = 0, pretend = 0, frame = 0
 4690              		@ frame_needed = 0, uses_anonymous_args = 0
 821:Drivers/lvgl/src/core/lv_obj_style.c ****     trans_t * tr = a->var;
 4691              		.loc 1 821 1 is_stmt 0 view .LVU1457
 4692 0000 70B5     		push	{r4, r5, r6, lr}
 4693              		.cfi_def_cfa_offset 16
 4694              		.cfi_offset 4, -16
 4695              		.cfi_offset 5, -12
 4696              		.cfi_offset 6, -8
 4697              		.cfi_offset 14, -4
 822:Drivers/lvgl/src/core/lv_obj_style.c **** 
 4698              		.loc 1 822 5 is_stmt 1 view .LVU1458
 822:Drivers/lvgl/src/core/lv_obj_style.c **** 
 4699              		.loc 1 822 15 is_stmt 0 view .LVU1459
 4700 0002 0468     		ldr	r4, [r0]
 4701              	.LVL510:
 824:Drivers/lvgl/src/core/lv_obj_style.c ****     tr->start_value = lv_obj_get_style_prop(tr->obj, part, tr->prop);
 4702              		.loc 1 824 5 is_stmt 1 view .LVU1460
 824:Drivers/lvgl/src/core/lv_obj_style.c ****     tr->start_value = lv_obj_get_style_prop(tr->obj, part, tr->prop);
 4703              		.loc 1 824 22 is_stmt 0 view .LVU1461
 4704 0004 A068     		ldr	r0, [r4, #8]
 4705              	.LVL511:
 824:Drivers/lvgl/src/core/lv_obj_style.c ****     tr->start_value = lv_obj_get_style_prop(tr->obj, part, tr->prop);
 4706              		.loc 1 824 22 view .LVU1462
 4707 0006 FFF7FEFF 		bl	lv_obj_style_get_selector_part
 4708              	.LVL512:
 4709 000a 0546     		mov	r5, r0
 4710              	.LVL513:
 825:Drivers/lvgl/src/core/lv_obj_style.c **** 
 4711              		.loc 1 825 5 is_stmt 1 view .LVU1463
 825:Drivers/lvgl/src/core/lv_obj_style.c **** 
 4712              		.loc 1 825 23 is_stmt 0 view .LVU1464
 4713 000c A288     		ldrh	r2, [r4, #4]
 4714 000e 0146     		mov	r1, r0
 4715 0010 2068     		ldr	r0, [r4]
ARM GAS  /var/folders/0z/tsy30v1j4xl4_7kw94k978ww0000gn/T//cc8A9NTU.s 			page 155


 4716              	.LVL514:
 825:Drivers/lvgl/src/core/lv_obj_style.c **** 
 4717              		.loc 1 825 23 view .LVU1465
 4718 0012 FFF7FEFF 		bl	lv_obj_get_style_prop
 4719              	.LVL515:
 825:Drivers/lvgl/src/core/lv_obj_style.c **** 
 4720              		.loc 1 825 23 view .LVU1466
 4721 0016 E060     		str	r0, [r4, #12]
 828:Drivers/lvgl/src/core/lv_obj_style.c ****     tr->prop = LV_STYLE_PROP_INV;
 4722              		.loc 1 828 5 is_stmt 1 view .LVU1467
 828:Drivers/lvgl/src/core/lv_obj_style.c ****     tr->prop = LV_STYLE_PROP_INV;
 4723              		.loc 1 828 21 is_stmt 0 view .LVU1468
 4724 0018 A688     		ldrh	r6, [r4, #4]
 4725              	.LVL516:
 829:Drivers/lvgl/src/core/lv_obj_style.c **** 
 4726              		.loc 1 829 5 is_stmt 1 view .LVU1469
 829:Drivers/lvgl/src/core/lv_obj_style.c **** 
 4727              		.loc 1 829 14 is_stmt 0 view .LVU1470
 4728 001a 0023     		movs	r3, #0
 4729 001c A380     		strh	r3, [r4, #4]	@ movhi
 832:Drivers/lvgl/src/core/lv_obj_style.c **** 
 4730              		.loc 1 832 5 is_stmt 1 view .LVU1471
 4731 001e 2346     		mov	r3, r4
 4732 0020 3246     		mov	r2, r6
 4733 0022 2946     		mov	r1, r5
 4734 0024 2068     		ldr	r0, [r4]
 4735 0026 FFF7FEFF 		bl	trans_del
 4736              	.LVL517:
 834:Drivers/lvgl/src/core/lv_obj_style.c **** 
 4737              		.loc 1 834 5 view .LVU1472
 834:Drivers/lvgl/src/core/lv_obj_style.c **** 
 4738              		.loc 1 834 14 is_stmt 0 view .LVU1473
 4739 002a A680     		strh	r6, [r4, #4]	@ movhi
 836:Drivers/lvgl/src/core/lv_obj_style.c ****     lv_style_set_prop(style_trans->style, tr->prop, tr->start_value);   /*Be sure `trans_style` has
 4740              		.loc 1 836 5 is_stmt 1 view .LVU1474
 836:Drivers/lvgl/src/core/lv_obj_style.c ****     lv_style_set_prop(style_trans->style, tr->prop, tr->start_value);   /*Be sure `trans_style` has
 4741              		.loc 1 836 37 is_stmt 0 view .LVU1475
 4742 002c A168     		ldr	r1, [r4, #8]
 4743 002e 2068     		ldr	r0, [r4]
 4744 0030 FFF7FEFF 		bl	get_trans_style
 4745              	.LVL518:
 837:Drivers/lvgl/src/core/lv_obj_style.c **** 
 4746              		.loc 1 837 5 is_stmt 1 view .LVU1476
 4747 0034 E268     		ldr	r2, [r4, #12]
 4748 0036 A188     		ldrh	r1, [r4, #4]
 4749 0038 0068     		ldr	r0, [r0]
 4750              	.LVL519:
 837:Drivers/lvgl/src/core/lv_obj_style.c **** 
 4751              		.loc 1 837 5 is_stmt 0 view .LVU1477
 4752 003a FFF7FEFF 		bl	lv_style_set_prop
 4753              	.LVL520:
 839:Drivers/lvgl/src/core/lv_obj_style.c **** 
 4754              		.loc 1 839 1 view .LVU1478
 4755 003e 70BD     		pop	{r4, r5, r6, pc}
 839:Drivers/lvgl/src/core/lv_obj_style.c **** 
 4756              		.loc 1 839 1 view .LVU1479
 4757              		.cfi_endproc
ARM GAS  /var/folders/0z/tsy30v1j4xl4_7kw94k978ww0000gn/T//cc8A9NTU.s 			page 156


 4758              	.LFE194:
 4760              		.section	.text.lv_obj_calculate_style_text_align,"ax",%progbits
 4761              		.align	1
 4762              		.global	lv_obj_calculate_style_text_align
 4763              		.syntax unified
 4764              		.thumb
 4765              		.thumb_func
 4767              	lv_obj_calculate_style_text_align:
 4768              	.LVL521:
 4769              	.LFB185:
 492:Drivers/lvgl/src/core/lv_obj_style.c ****     lv_text_align_t align = lv_obj_get_style_text_align(obj, part);
 4770              		.loc 1 492 1 is_stmt 1 view -0
 4771              		.cfi_startproc
 4772              		@ args = 0, pretend = 0, frame = 0
 4773              		@ frame_needed = 0, uses_anonymous_args = 0
 492:Drivers/lvgl/src/core/lv_obj_style.c ****     lv_text_align_t align = lv_obj_get_style_text_align(obj, part);
 4774              		.loc 1 492 1 is_stmt 0 view .LVU1481
 4775 0000 70B5     		push	{r4, r5, r6, lr}
 4776              		.cfi_def_cfa_offset 16
 4777              		.cfi_offset 4, -16
 4778              		.cfi_offset 5, -12
 4779              		.cfi_offset 6, -8
 4780              		.cfi_offset 14, -4
 4781 0002 0546     		mov	r5, r0
 4782 0004 0E46     		mov	r6, r1
 493:Drivers/lvgl/src/core/lv_obj_style.c ****     lv_base_dir_t base_dir = lv_obj_get_style_base_dir(obj, part);
 4783              		.loc 1 493 5 is_stmt 1 view .LVU1482
 4784              	.LVL522:
 4785              	.LBB187:
 4786              	.LBI187:
 487:Drivers/lvgl/src/core/lv_obj_style_gen.h **** {
 4787              		.loc 4 487 31 view .LVU1483
 4788              	.LBB188:
 489:Drivers/lvgl/src/core/lv_obj_style_gen.h ****     return (lv_text_align_t)v.num;
 4789              		.loc 4 489 5 view .LVU1484
 489:Drivers/lvgl/src/core/lv_obj_style_gen.h ****     return (lv_text_align_t)v.num;
 4790              		.loc 4 489 26 is_stmt 0 view .LVU1485
 4791 0006 5B22     		movs	r2, #91
 4792              	.LVL523:
 489:Drivers/lvgl/src/core/lv_obj_style_gen.h ****     return (lv_text_align_t)v.num;
 4793              		.loc 4 489 26 view .LVU1486
 4794 0008 FFF7FEFF 		bl	lv_obj_get_style_prop
 4795              	.LVL524:
 490:Drivers/lvgl/src/core/lv_obj_style_gen.h **** }
 4796              		.loc 4 490 5 is_stmt 1 view .LVU1487
 490:Drivers/lvgl/src/core/lv_obj_style_gen.h **** }
 4797              		.loc 4 490 12 is_stmt 0 view .LVU1488
 4798 000c C4B2     		uxtb	r4, r0
 4799              	.LVL525:
 490:Drivers/lvgl/src/core/lv_obj_style_gen.h **** }
 4800              		.loc 4 490 12 view .LVU1489
 4801              	.LBE188:
 4802              	.LBE187:
 494:Drivers/lvgl/src/core/lv_obj_style.c ****     lv_bidi_calculate_align(&align, &base_dir, txt);
 4803              		.loc 1 494 5 is_stmt 1 view .LVU1490
 4804              	.LBB189:
 4805              	.LBI189:
ARM GAS  /var/folders/0z/tsy30v1j4xl4_7kw94k978ww0000gn/T//cc8A9NTU.s 			page 157


 557:Drivers/lvgl/src/core/lv_obj_style_gen.h **** }
 558:Drivers/lvgl/src/core/lv_obj_style_gen.h **** 
 559:Drivers/lvgl/src/core/lv_obj_style_gen.h **** static inline uint16_t lv_obj_get_style_layout(const struct _lv_obj_t * obj, uint32_t part)
 560:Drivers/lvgl/src/core/lv_obj_style_gen.h **** {
 561:Drivers/lvgl/src/core/lv_obj_style_gen.h ****     lv_style_value_t v = lv_obj_get_style_prop(obj, part, LV_STYLE_LAYOUT);
 562:Drivers/lvgl/src/core/lv_obj_style_gen.h ****     return (uint16_t)v.num;
 563:Drivers/lvgl/src/core/lv_obj_style_gen.h **** }
 564:Drivers/lvgl/src/core/lv_obj_style_gen.h **** 
 565:Drivers/lvgl/src/core/lv_obj_style_gen.h **** static inline lv_base_dir_t lv_obj_get_style_base_dir(const struct _lv_obj_t * obj, uint32_t part)
 4806              		.loc 4 565 29 view .LVU1491
 4807              	.LBB190:
 566:Drivers/lvgl/src/core/lv_obj_style_gen.h **** {
 567:Drivers/lvgl/src/core/lv_obj_style_gen.h ****     lv_style_value_t v = lv_obj_get_style_prop(obj, part, LV_STYLE_BASE_DIR);
 4808              		.loc 4 567 5 view .LVU1492
 4809              		.loc 4 567 26 is_stmt 0 view .LVU1493
 4810 000e 1622     		movs	r2, #22
 4811 0010 3146     		mov	r1, r6
 4812 0012 2846     		mov	r0, r5
 4813 0014 FFF7FEFF 		bl	lv_obj_get_style_prop
 4814              	.LVL526:
 568:Drivers/lvgl/src/core/lv_obj_style_gen.h ****     return (lv_base_dir_t)v.num;
 4815              		.loc 4 568 5 is_stmt 1 view .LVU1494
 4816              		.loc 4 568 5 is_stmt 0 view .LVU1495
 4817              	.LBE190:
 4818              	.LBE189:
 495:Drivers/lvgl/src/core/lv_obj_style.c ****     return align;
 4819              		.loc 1 495 5 is_stmt 1 view .LVU1496
 4820              	.LBB191:
 4821              	.LBI191:
 4822              		.file 6 "Drivers/lvgl/src/core/../misc/lv_bidi.h"
   1:Drivers/lvgl/src/core/../misc/lv_bidi.h **** /**
   2:Drivers/lvgl/src/core/../misc/lv_bidi.h ****  * @file lv_bidi.h
   3:Drivers/lvgl/src/core/../misc/lv_bidi.h ****  *
   4:Drivers/lvgl/src/core/../misc/lv_bidi.h ****  */
   5:Drivers/lvgl/src/core/../misc/lv_bidi.h **** 
   6:Drivers/lvgl/src/core/../misc/lv_bidi.h **** #ifndef LV_BIDI_H
   7:Drivers/lvgl/src/core/../misc/lv_bidi.h **** #define LV_BIDI_H
   8:Drivers/lvgl/src/core/../misc/lv_bidi.h **** 
   9:Drivers/lvgl/src/core/../misc/lv_bidi.h **** #ifdef __cplusplus
  10:Drivers/lvgl/src/core/../misc/lv_bidi.h **** extern "C" {
  11:Drivers/lvgl/src/core/../misc/lv_bidi.h **** #endif
  12:Drivers/lvgl/src/core/../misc/lv_bidi.h **** 
  13:Drivers/lvgl/src/core/../misc/lv_bidi.h **** /*********************
  14:Drivers/lvgl/src/core/../misc/lv_bidi.h ****  *      INCLUDES
  15:Drivers/lvgl/src/core/../misc/lv_bidi.h ****  *********************/
  16:Drivers/lvgl/src/core/../misc/lv_bidi.h **** #include "../lv_conf_internal.h"
  17:Drivers/lvgl/src/core/../misc/lv_bidi.h **** 
  18:Drivers/lvgl/src/core/../misc/lv_bidi.h **** #include <stdbool.h>
  19:Drivers/lvgl/src/core/../misc/lv_bidi.h **** #include <stdint.h>
  20:Drivers/lvgl/src/core/../misc/lv_bidi.h **** #include "lv_txt.h"
  21:Drivers/lvgl/src/core/../misc/lv_bidi.h **** 
  22:Drivers/lvgl/src/core/../misc/lv_bidi.h **** /*********************
  23:Drivers/lvgl/src/core/../misc/lv_bidi.h ****  *      DEFINES
  24:Drivers/lvgl/src/core/../misc/lv_bidi.h ****  *********************/
  25:Drivers/lvgl/src/core/../misc/lv_bidi.h **** /*Special non printable strong characters.
  26:Drivers/lvgl/src/core/../misc/lv_bidi.h ****  *They can be inserted to texts to affect the run's direction*/
  27:Drivers/lvgl/src/core/../misc/lv_bidi.h **** #define LV_BIDI_LRO  "\xE2\x80\xAD" /*U+202D*/
ARM GAS  /var/folders/0z/tsy30v1j4xl4_7kw94k978ww0000gn/T//cc8A9NTU.s 			page 158


  28:Drivers/lvgl/src/core/../misc/lv_bidi.h **** #define LV_BIDI_RLO  "\xE2\x80\xAE" /*U+202E*/
  29:Drivers/lvgl/src/core/../misc/lv_bidi.h **** 
  30:Drivers/lvgl/src/core/../misc/lv_bidi.h **** /**********************
  31:Drivers/lvgl/src/core/../misc/lv_bidi.h ****  *      TYPEDEFS
  32:Drivers/lvgl/src/core/../misc/lv_bidi.h ****  **********************/
  33:Drivers/lvgl/src/core/../misc/lv_bidi.h **** enum {
  34:Drivers/lvgl/src/core/../misc/lv_bidi.h ****     LV_BASE_DIR_LTR      = 0x00,
  35:Drivers/lvgl/src/core/../misc/lv_bidi.h ****     LV_BASE_DIR_RTL      = 0x01,
  36:Drivers/lvgl/src/core/../misc/lv_bidi.h ****     LV_BASE_DIR_AUTO     = 0x02,
  37:Drivers/lvgl/src/core/../misc/lv_bidi.h **** 
  38:Drivers/lvgl/src/core/../misc/lv_bidi.h ****     LV_BASE_DIR_NEUTRAL  = 0x20,
  39:Drivers/lvgl/src/core/../misc/lv_bidi.h ****     LV_BASE_DIR_WEAK     = 0x21,
  40:Drivers/lvgl/src/core/../misc/lv_bidi.h **** };
  41:Drivers/lvgl/src/core/../misc/lv_bidi.h **** 
  42:Drivers/lvgl/src/core/../misc/lv_bidi.h **** typedef uint8_t lv_base_dir_t;
  43:Drivers/lvgl/src/core/../misc/lv_bidi.h **** 
  44:Drivers/lvgl/src/core/../misc/lv_bidi.h **** /**********************
  45:Drivers/lvgl/src/core/../misc/lv_bidi.h ****  * GLOBAL PROTOTYPES
  46:Drivers/lvgl/src/core/../misc/lv_bidi.h ****  **********************/
  47:Drivers/lvgl/src/core/../misc/lv_bidi.h **** #if LV_USE_BIDI
  48:Drivers/lvgl/src/core/../misc/lv_bidi.h **** 
  49:Drivers/lvgl/src/core/../misc/lv_bidi.h **** /**
  50:Drivers/lvgl/src/core/../misc/lv_bidi.h ****  * Convert a text to get the characters in the correct visual order according to
  51:Drivers/lvgl/src/core/../misc/lv_bidi.h ****  * Unicode Bidirectional Algorithm
  52:Drivers/lvgl/src/core/../misc/lv_bidi.h ****  * @param str_in the text to process
  53:Drivers/lvgl/src/core/../misc/lv_bidi.h ****  * @param str_out store the result here. Has the be `strlen(str_in)` length
  54:Drivers/lvgl/src/core/../misc/lv_bidi.h ****  * @param base_dir `LV_BASE_DIR_LTR` or `LV_BASE_DIR_RTL`
  55:Drivers/lvgl/src/core/../misc/lv_bidi.h ****  */
  56:Drivers/lvgl/src/core/../misc/lv_bidi.h **** void _lv_bidi_process(const char * str_in, char * str_out, lv_base_dir_t base_dir);
  57:Drivers/lvgl/src/core/../misc/lv_bidi.h **** 
  58:Drivers/lvgl/src/core/../misc/lv_bidi.h **** /**
  59:Drivers/lvgl/src/core/../misc/lv_bidi.h ****  * Auto-detect the direction of a text based on the first strong character
  60:Drivers/lvgl/src/core/../misc/lv_bidi.h ****  * @param txt the text to process
  61:Drivers/lvgl/src/core/../misc/lv_bidi.h ****  * @return `LV_BASE_DIR_LTR` or `LV_BASE_DIR_RTL`
  62:Drivers/lvgl/src/core/../misc/lv_bidi.h ****  */
  63:Drivers/lvgl/src/core/../misc/lv_bidi.h **** lv_base_dir_t _lv_bidi_detect_base_dir(const char * txt);
  64:Drivers/lvgl/src/core/../misc/lv_bidi.h **** 
  65:Drivers/lvgl/src/core/../misc/lv_bidi.h **** /**
  66:Drivers/lvgl/src/core/../misc/lv_bidi.h ****  * Get the logical position of a character in a line
  67:Drivers/lvgl/src/core/../misc/lv_bidi.h ****  * @param str_in the input string. Can be only one line.
  68:Drivers/lvgl/src/core/../misc/lv_bidi.h ****  * @param bidi_txt internally the text is bidi processed which buffer can be get here.
  69:Drivers/lvgl/src/core/../misc/lv_bidi.h ****  * If not required anymore has to freed with `lv_mem_free()`
  70:Drivers/lvgl/src/core/../misc/lv_bidi.h ****  * Can be `NULL` is unused
  71:Drivers/lvgl/src/core/../misc/lv_bidi.h ****  * @param len length of the line in character count
  72:Drivers/lvgl/src/core/../misc/lv_bidi.h ****  * @param base_dir base direction of the text: `LV_BASE_DIR_LTR` or `LV_BASE_DIR_RTL`
  73:Drivers/lvgl/src/core/../misc/lv_bidi.h ****  * @param visual_pos the visual character position which logical position should be get
  74:Drivers/lvgl/src/core/../misc/lv_bidi.h ****  * @param is_rtl tell the char at `visual_pos` is RTL or LTR context
  75:Drivers/lvgl/src/core/../misc/lv_bidi.h ****  * @return the logical character position
  76:Drivers/lvgl/src/core/../misc/lv_bidi.h ****  */
  77:Drivers/lvgl/src/core/../misc/lv_bidi.h **** uint16_t _lv_bidi_get_logical_pos(const char * str_in, char ** bidi_txt, uint32_t len, lv_base_dir_
  78:Drivers/lvgl/src/core/../misc/lv_bidi.h ****                                   uint32_t visual_pos, bool * is_rtl);
  79:Drivers/lvgl/src/core/../misc/lv_bidi.h **** 
  80:Drivers/lvgl/src/core/../misc/lv_bidi.h **** /**
  81:Drivers/lvgl/src/core/../misc/lv_bidi.h ****  * Get the visual position of a character in a line
  82:Drivers/lvgl/src/core/../misc/lv_bidi.h ****  * @param str_in the input string. Can be only one line.
  83:Drivers/lvgl/src/core/../misc/lv_bidi.h ****  * @param bidi_txt internally the text is bidi processed which buffer can be get here.
  84:Drivers/lvgl/src/core/../misc/lv_bidi.h ****  * If not required anymore has to freed with `lv_mem_free()`
ARM GAS  /var/folders/0z/tsy30v1j4xl4_7kw94k978ww0000gn/T//cc8A9NTU.s 			page 159


  85:Drivers/lvgl/src/core/../misc/lv_bidi.h ****  * Can be `NULL` is unused
  86:Drivers/lvgl/src/core/../misc/lv_bidi.h ****  * @param len length of the line in character count
  87:Drivers/lvgl/src/core/../misc/lv_bidi.h ****  * @param base_dir base direction of the text: `LV_BASE_DIR_LTR` or `LV_BASE_DIR_RTL`
  88:Drivers/lvgl/src/core/../misc/lv_bidi.h ****  * @param logical_pos the logical character position which visual position should be get
  89:Drivers/lvgl/src/core/../misc/lv_bidi.h ****  * @param is_rtl tell the char at `logical_pos` is RTL or LTR context
  90:Drivers/lvgl/src/core/../misc/lv_bidi.h ****  * @return the visual character position
  91:Drivers/lvgl/src/core/../misc/lv_bidi.h ****  */
  92:Drivers/lvgl/src/core/../misc/lv_bidi.h **** uint16_t _lv_bidi_get_visual_pos(const char * str_in, char ** bidi_txt, uint16_t len, lv_base_dir_t
  93:Drivers/lvgl/src/core/../misc/lv_bidi.h ****                                  uint32_t logical_pos, bool * is_rtl);
  94:Drivers/lvgl/src/core/../misc/lv_bidi.h **** 
  95:Drivers/lvgl/src/core/../misc/lv_bidi.h **** /**
  96:Drivers/lvgl/src/core/../misc/lv_bidi.h ****  * Bidi process a paragraph of text
  97:Drivers/lvgl/src/core/../misc/lv_bidi.h ****  * @param str_in the string to process
  98:Drivers/lvgl/src/core/../misc/lv_bidi.h ****  * @param str_out store the result here
  99:Drivers/lvgl/src/core/../misc/lv_bidi.h ****  * @param len length of the text
 100:Drivers/lvgl/src/core/../misc/lv_bidi.h ****  * @param base_dir base dir of the text
 101:Drivers/lvgl/src/core/../misc/lv_bidi.h ****  * @param pos_conv_out an `uint16_t` array to store the related logical position of the character.
 102:Drivers/lvgl/src/core/../misc/lv_bidi.h ****  * Can be `NULL` is unused
 103:Drivers/lvgl/src/core/../misc/lv_bidi.h ****  * @param pos_conv_len length of `pos_conv_out` in element count
 104:Drivers/lvgl/src/core/../misc/lv_bidi.h ****  */
 105:Drivers/lvgl/src/core/../misc/lv_bidi.h **** void _lv_bidi_process_paragraph(const char * str_in, char * str_out, uint32_t len, lv_base_dir_t ba
 106:Drivers/lvgl/src/core/../misc/lv_bidi.h ****                                 uint16_t * pos_conv_out, uint16_t pos_conv_len);
 107:Drivers/lvgl/src/core/../misc/lv_bidi.h **** 
 108:Drivers/lvgl/src/core/../misc/lv_bidi.h **** /**
 109:Drivers/lvgl/src/core/../misc/lv_bidi.h ****  * Get the real text alignment from the a text alignment, base direction and a text.
 110:Drivers/lvgl/src/core/../misc/lv_bidi.h ****  * @param align     LV_TEXT_ALIGN_..., write back the calculated align here (LV_TEXT_ALIGN_LEFT/RIG
 111:Drivers/lvgl/src/core/../misc/lv_bidi.h ****  * @param base_dir  LV_BASE_DIR_..., write the calculated base dir here (LV_BASE_DIR_LTR/RTL)
 112:Drivers/lvgl/src/core/../misc/lv_bidi.h ****  * @param txt       a text, used with LV_BASE_DIR_AUTO to determine the base direction
 113:Drivers/lvgl/src/core/../misc/lv_bidi.h ****  */
 114:Drivers/lvgl/src/core/../misc/lv_bidi.h **** void lv_bidi_calculate_align(lv_text_align_t * align, lv_base_dir_t * base_dir, const char * txt);
 115:Drivers/lvgl/src/core/../misc/lv_bidi.h **** 
 116:Drivers/lvgl/src/core/../misc/lv_bidi.h **** 
 117:Drivers/lvgl/src/core/../misc/lv_bidi.h **** /**********************
 118:Drivers/lvgl/src/core/../misc/lv_bidi.h ****  *      MACROS
 119:Drivers/lvgl/src/core/../misc/lv_bidi.h ****  **********************/
 120:Drivers/lvgl/src/core/../misc/lv_bidi.h **** 
 121:Drivers/lvgl/src/core/../misc/lv_bidi.h **** #else /*LV_USE_BIDI*/
 122:Drivers/lvgl/src/core/../misc/lv_bidi.h **** /**
 123:Drivers/lvgl/src/core/../misc/lv_bidi.h ****  * For compatibility if LV_USE_BIDI = 0
 124:Drivers/lvgl/src/core/../misc/lv_bidi.h ****  * Get the real text alignment from the a text alignment, base direction and a text.
 125:Drivers/lvgl/src/core/../misc/lv_bidi.h ****  * @param align     For LV_TEXT_ALIGN_AUTO give LV_TEXT_ALIGN_LEFT else leave unchanged, write back
 126:Drivers/lvgl/src/core/../misc/lv_bidi.h ****  * @param base_dir  Unused
 127:Drivers/lvgl/src/core/../misc/lv_bidi.h ****  * @param txt       Unused
 128:Drivers/lvgl/src/core/../misc/lv_bidi.h ****  */
 129:Drivers/lvgl/src/core/../misc/lv_bidi.h **** static inline void lv_bidi_calculate_align(lv_text_align_t * align, lv_base_dir_t * base_dir, const
 4823              		.loc 6 129 20 view .LVU1497
 4824              	.LBB192:
 130:Drivers/lvgl/src/core/../misc/lv_bidi.h **** {
 131:Drivers/lvgl/src/core/../misc/lv_bidi.h ****     LV_UNUSED(txt);
 4825              		.loc 6 131 5 view .LVU1498
 132:Drivers/lvgl/src/core/../misc/lv_bidi.h ****     LV_UNUSED(base_dir);
 4826              		.loc 6 132 5 view .LVU1499
 133:Drivers/lvgl/src/core/../misc/lv_bidi.h ****     if(*align == LV_TEXT_ALIGN_AUTO) * align = LV_TEXT_ALIGN_LEFT;
 4827              		.loc 6 133 5 view .LVU1500
 4828              		.loc 6 133 7 is_stmt 0 view .LVU1501
 4829 0018 04B9     		cbnz	r4, .L335
 4830              		.loc 6 133 46 view .LVU1502
ARM GAS  /var/folders/0z/tsy30v1j4xl4_7kw94k978ww0000gn/T//cc8A9NTU.s 			page 160


 4831 001a 0124     		movs	r4, #1
 4832              	.LVL527:
 4833              	.L335:
 4834              		.loc 6 133 46 view .LVU1503
 4835              	.LBE192:
 4836              	.LBE191:
 496:Drivers/lvgl/src/core/lv_obj_style.c **** }
 4837              		.loc 1 496 5 is_stmt 1 view .LVU1504
 497:Drivers/lvgl/src/core/lv_obj_style.c **** 
 4838              		.loc 1 497 1 is_stmt 0 view .LVU1505
 4839 001c 2046     		mov	r0, r4
 4840 001e 70BD     		pop	{r4, r5, r6, pc}
 497:Drivers/lvgl/src/core/lv_obj_style.c **** 
 4841              		.loc 1 497 1 view .LVU1506
 4842              		.cfi_endproc
 4843              	.LFE185:
 4845              		.section	.text.lv_obj_get_style_opa_recursive,"ax",%progbits
 4846              		.align	1
 4847              		.global	lv_obj_get_style_opa_recursive
 4848              		.syntax unified
 4849              		.thumb
 4850              		.thumb_func
 4852              	lv_obj_get_style_opa_recursive:
 4853              	.LVL528:
 4854              	.LFB186:
 500:Drivers/lvgl/src/core/lv_obj_style.c **** 
 4855              		.loc 1 500 1 is_stmt 1 view -0
 4856              		.cfi_startproc
 4857              		@ args = 0, pretend = 0, frame = 0
 4858              		@ frame_needed = 0, uses_anonymous_args = 0
 500:Drivers/lvgl/src/core/lv_obj_style.c **** 
 4859              		.loc 1 500 1 is_stmt 0 view .LVU1508
 4860 0000 70B5     		push	{r4, r5, r6, lr}
 4861              		.cfi_def_cfa_offset 16
 4862              		.cfi_offset 4, -16
 4863              		.cfi_offset 5, -12
 4864              		.cfi_offset 6, -8
 4865              		.cfi_offset 14, -4
 4866 0002 0446     		mov	r4, r0
 4867 0004 0E46     		mov	r6, r1
 502:Drivers/lvgl/src/core/lv_obj_style.c ****     if(opa_obj <= LV_OPA_MIN) return LV_OPA_TRANSP;
 4868              		.loc 1 502 5 is_stmt 1 view .LVU1509
 4869              	.LVL529:
 4870              	.LBB193:
 4871              	.LBI193:
 505:Drivers/lvgl/src/core/lv_obj_style_gen.h **** {
 4872              		.loc 4 505 24 view .LVU1510
 4873              	.LBB194:
 507:Drivers/lvgl/src/core/lv_obj_style_gen.h ****     return (lv_opa_t)v.num;
 4874              		.loc 4 507 5 view .LVU1511
 507:Drivers/lvgl/src/core/lv_obj_style_gen.h ****     return (lv_opa_t)v.num;
 4875              		.loc 4 507 26 is_stmt 0 view .LVU1512
 4876 0006 6022     		movs	r2, #96
 4877 0008 FFF7FEFF 		bl	lv_obj_get_style_prop
 4878              	.LVL530:
 508:Drivers/lvgl/src/core/lv_obj_style_gen.h **** }
 4879              		.loc 4 508 5 is_stmt 1 view .LVU1513
ARM GAS  /var/folders/0z/tsy30v1j4xl4_7kw94k978ww0000gn/T//cc8A9NTU.s 			page 161


 508:Drivers/lvgl/src/core/lv_obj_style_gen.h **** }
 4880              		.loc 4 508 12 is_stmt 0 view .LVU1514
 4881 000c C3B2     		uxtb	r3, r0
 4882              	.LVL531:
 508:Drivers/lvgl/src/core/lv_obj_style_gen.h **** }
 4883              		.loc 4 508 12 view .LVU1515
 4884              	.LBE194:
 4885              	.LBE193:
 503:Drivers/lvgl/src/core/lv_obj_style.c **** 
 4886              		.loc 1 503 5 is_stmt 1 view .LVU1516
 503:Drivers/lvgl/src/core/lv_obj_style.c **** 
 4887              		.loc 1 503 7 is_stmt 0 view .LVU1517
 4888 000e 022B     		cmp	r3, #2
 4889 0010 2AD9     		bls	.L345
 505:Drivers/lvgl/src/core/lv_obj_style.c ****     if(opa_obj < LV_OPA_MAX) {
 4890              		.loc 1 505 5 is_stmt 1 view .LVU1518
 4891              	.LVL532:
 506:Drivers/lvgl/src/core/lv_obj_style.c ****         opa_final = ((uint32_t)opa_final * opa_obj) >> 8;
 4892              		.loc 1 506 5 view .LVU1519
 506:Drivers/lvgl/src/core/lv_obj_style.c ****         opa_final = ((uint32_t)opa_final * opa_obj) >> 8;
 4893              		.loc 1 506 7 is_stmt 0 view .LVU1520
 4894 0012 FC2B     		cmp	r3, #252
 4895 0014 06D8     		bhi	.L346
 507:Drivers/lvgl/src/core/lv_obj_style.c ****     }
 4896              		.loc 1 507 9 is_stmt 1 view .LVU1521
 507:Drivers/lvgl/src/core/lv_obj_style.c ****     }
 4897              		.loc 1 507 42 is_stmt 0 view .LVU1522
 4898 0016 C3EB0320 		rsb	r0, r3, r3, lsl #8
 507:Drivers/lvgl/src/core/lv_obj_style.c ****     }
 4899              		.loc 1 507 19 view .LVU1523
 4900 001a C0F30725 		ubfx	r5, r0, #8, #8
 4901              	.LVL533:
 4902              	.L340:
 510:Drivers/lvgl/src/core/lv_obj_style.c ****         part = LV_PART_MAIN;
 4903              		.loc 1 510 5 is_stmt 1 view .LVU1524
 510:Drivers/lvgl/src/core/lv_obj_style.c ****         part = LV_PART_MAIN;
 4904              		.loc 1 510 7 is_stmt 0 view .LVU1525
 4905 001e 1EB1     		cbz	r6, .L352
 511:Drivers/lvgl/src/core/lv_obj_style.c ****     }
 4906              		.loc 1 511 14 view .LVU1526
 4907 0020 0026     		movs	r6, #0
 4908              	.LVL534:
 511:Drivers/lvgl/src/core/lv_obj_style.c ****     }
 4909              		.loc 1 511 14 view .LVU1527
 4910 0022 0AE0     		b	.L343
 4911              	.LVL535:
 4912              	.L346:
 505:Drivers/lvgl/src/core/lv_obj_style.c ****     if(opa_obj < LV_OPA_MAX) {
 4913              		.loc 1 505 14 view .LVU1528
 4914 0024 FF25     		movs	r5, #255
 4915 0026 FAE7     		b	.L340
 4916              	.LVL536:
 4917              	.L352:
 514:Drivers/lvgl/src/core/lv_obj_style.c ****     }
 4918              		.loc 1 514 9 is_stmt 1 view .LVU1529
 514:Drivers/lvgl/src/core/lv_obj_style.c ****     }
 4919              		.loc 1 514 15 is_stmt 0 view .LVU1530
ARM GAS  /var/folders/0z/tsy30v1j4xl4_7kw94k978ww0000gn/T//cc8A9NTU.s 			page 162


 4920 0028 2046     		mov	r0, r4
 4921 002a FFF7FEFF 		bl	lv_obj_get_parent
 4922              	.LVL537:
 514:Drivers/lvgl/src/core/lv_obj_style.c ****     }
 4923              		.loc 1 514 15 view .LVU1531
 4924 002e 0446     		mov	r4, r0
 4925              	.LVL538:
 514:Drivers/lvgl/src/core/lv_obj_style.c ****     }
 4926              		.loc 1 514 15 view .LVU1532
 4927 0030 03E0     		b	.L343
 4928              	.LVL539:
 4929              	.L342:
 524:Drivers/lvgl/src/core/lv_obj_style.c ****     }
 4930              		.loc 1 524 9 is_stmt 1 view .LVU1533
 524:Drivers/lvgl/src/core/lv_obj_style.c ****     }
 4931              		.loc 1 524 15 is_stmt 0 view .LVU1534
 4932 0032 2046     		mov	r0, r4
 4933 0034 FFF7FEFF 		bl	lv_obj_get_parent
 4934              	.LVL540:
 524:Drivers/lvgl/src/core/lv_obj_style.c ****     }
 4935              		.loc 1 524 15 view .LVU1535
 4936 0038 0446     		mov	r4, r0
 4937              	.LVL541:
 4938              	.L343:
 517:Drivers/lvgl/src/core/lv_obj_style.c ****         opa_obj = lv_obj_get_style_opa(obj, part);
 4939              		.loc 1 517 11 is_stmt 1 view .LVU1536
 4940 003a 7CB1     		cbz	r4, .L353
 518:Drivers/lvgl/src/core/lv_obj_style.c ****         if(opa_obj <= LV_OPA_MIN) return LV_OPA_TRANSP;
 4941              		.loc 1 518 9 view .LVU1537
 4942              	.LVL542:
 4943              	.LBB195:
 4944              	.LBI195:
 505:Drivers/lvgl/src/core/lv_obj_style_gen.h **** {
 4945              		.loc 4 505 24 view .LVU1538
 4946              	.LBB196:
 507:Drivers/lvgl/src/core/lv_obj_style_gen.h ****     return (lv_opa_t)v.num;
 4947              		.loc 4 507 5 view .LVU1539
 507:Drivers/lvgl/src/core/lv_obj_style_gen.h ****     return (lv_opa_t)v.num;
 4948              		.loc 4 507 26 is_stmt 0 view .LVU1540
 4949 003c 6022     		movs	r2, #96
 4950 003e 3146     		mov	r1, r6
 4951 0040 2046     		mov	r0, r4
 4952 0042 FFF7FEFF 		bl	lv_obj_get_style_prop
 4953              	.LVL543:
 508:Drivers/lvgl/src/core/lv_obj_style_gen.h **** }
 4954              		.loc 4 508 5 is_stmt 1 view .LVU1541
 508:Drivers/lvgl/src/core/lv_obj_style_gen.h **** }
 4955              		.loc 4 508 12 is_stmt 0 view .LVU1542
 4956 0046 C3B2     		uxtb	r3, r0
 4957              	.LVL544:
 508:Drivers/lvgl/src/core/lv_obj_style_gen.h **** }
 4958              		.loc 4 508 12 view .LVU1543
 4959              	.LBE196:
 4960              	.LBE195:
 519:Drivers/lvgl/src/core/lv_obj_style.c ****         if(opa_obj < LV_OPA_MAX) {
 4961              		.loc 1 519 9 is_stmt 1 view .LVU1544
 519:Drivers/lvgl/src/core/lv_obj_style.c ****         if(opa_obj < LV_OPA_MAX) {
ARM GAS  /var/folders/0z/tsy30v1j4xl4_7kw94k978ww0000gn/T//cc8A9NTU.s 			page 163


 4962              		.loc 1 519 11 is_stmt 0 view .LVU1545
 4963 0048 022B     		cmp	r3, #2
 4964 004a 10D9     		bls	.L348
 520:Drivers/lvgl/src/core/lv_obj_style.c ****             opa_final = ((uint32_t)opa_final * opa_obj) >> 8;
 4965              		.loc 1 520 9 is_stmt 1 view .LVU1546
 520:Drivers/lvgl/src/core/lv_obj_style.c ****             opa_final = ((uint32_t)opa_final * opa_obj) >> 8;
 4966              		.loc 1 520 11 is_stmt 0 view .LVU1547
 4967 004c FC2B     		cmp	r3, #252
 4968 004e F0D8     		bhi	.L342
 521:Drivers/lvgl/src/core/lv_obj_style.c ****         }
 4969              		.loc 1 521 13 is_stmt 1 view .LVU1548
 521:Drivers/lvgl/src/core/lv_obj_style.c ****         }
 4970              		.loc 1 521 46 is_stmt 0 view .LVU1549
 4971 0050 1846     		mov	r0, r3
 4972 0052 05FB00F0 		mul	r0, r5, r0
 521:Drivers/lvgl/src/core/lv_obj_style.c ****         }
 4973              		.loc 1 521 23 view .LVU1550
 4974 0056 C0F30725 		ubfx	r5, r0, #8, #8
 4975              	.LVL545:
 521:Drivers/lvgl/src/core/lv_obj_style.c ****         }
 4976              		.loc 1 521 23 view .LVU1551
 4977 005a EAE7     		b	.L342
 4978              	.LVL546:
 4979              	.L353:
 527:Drivers/lvgl/src/core/lv_obj_style.c ****     if(opa_final >= LV_OPA_MAX) return LV_OPA_COVER;
 4980              		.loc 1 527 5 is_stmt 1 view .LVU1552
 527:Drivers/lvgl/src/core/lv_obj_style.c ****     if(opa_final >= LV_OPA_MAX) return LV_OPA_COVER;
 4981              		.loc 1 527 7 is_stmt 0 view .LVU1553
 4982 005c 022D     		cmp	r5, #2
 4983 005e 08D9     		bls	.L349
 528:Drivers/lvgl/src/core/lv_obj_style.c ****     return opa_final;
 4984              		.loc 1 528 5 is_stmt 1 view .LVU1554
 528:Drivers/lvgl/src/core/lv_obj_style.c ****     return opa_final;
 4985              		.loc 1 528 7 is_stmt 0 view .LVU1555
 4986 0060 FC2D     		cmp	r5, #252
 4987 0062 02D9     		bls	.L339
 528:Drivers/lvgl/src/core/lv_obj_style.c ****     return opa_final;
 4988              		.loc 1 528 40 view .LVU1556
 4989 0064 FF25     		movs	r5, #255
 4990              	.LVL547:
 528:Drivers/lvgl/src/core/lv_obj_style.c ****     return opa_final;
 4991              		.loc 1 528 40 view .LVU1557
 4992 0066 00E0     		b	.L339
 4993              	.LVL548:
 4994              	.L345:
 503:Drivers/lvgl/src/core/lv_obj_style.c **** 
 4995              		.loc 1 503 38 view .LVU1558
 4996 0068 0025     		movs	r5, #0
 4997              	.LVL549:
 4998              	.L339:
 530:Drivers/lvgl/src/core/lv_obj_style.c **** 
 4999              		.loc 1 530 1 view .LVU1559
 5000 006a 2846     		mov	r0, r5
 5001 006c 70BD     		pop	{r4, r5, r6, pc}
 5002              	.LVL550:
 5003              	.L348:
 519:Drivers/lvgl/src/core/lv_obj_style.c ****         if(opa_obj < LV_OPA_MAX) {
ARM GAS  /var/folders/0z/tsy30v1j4xl4_7kw94k978ww0000gn/T//cc8A9NTU.s 			page 164


 5004              		.loc 1 519 42 view .LVU1560
 5005 006e 0025     		movs	r5, #0
 5006              	.LVL551:
 519:Drivers/lvgl/src/core/lv_obj_style.c ****         if(opa_obj < LV_OPA_MAX) {
 5007              		.loc 1 519 42 view .LVU1561
 5008 0070 FBE7     		b	.L339
 5009              	.LVL552:
 5010              	.L349:
 527:Drivers/lvgl/src/core/lv_obj_style.c ****     if(opa_final >= LV_OPA_MAX) return LV_OPA_COVER;
 5011              		.loc 1 527 40 view .LVU1562
 5012 0072 0025     		movs	r5, #0
 5013              	.LVL553:
 527:Drivers/lvgl/src/core/lv_obj_style.c ****     if(opa_final >= LV_OPA_MAX) return LV_OPA_COVER;
 5014              		.loc 1 527 40 view .LVU1563
 5015 0074 F9E7     		b	.L339
 5016              		.cfi_endproc
 5017              	.LFE186:
 5019              		.section	.data.style_refr,"aw"
 5020              		.set	.LANCHOR0,. + 0
 5023              	style_refr:
 5024 0000 01       		.byte	1
 5025              		.text
 5026              	.Letext0:
 5027              		.file 7 "/Users/johannes/Library/Application Support/Code/User/globalStorage/bmd.stm32-for-vscode/
 5028              		.file 8 "/Users/johannes/Library/Application Support/Code/User/globalStorage/bmd.stm32-for-vscode/
 5029              		.file 9 "/Users/johannes/Library/Application Support/Code/User/globalStorage/bmd.stm32-for-vscode/
 5030              		.file 10 "Drivers/lvgl/src/core/../misc/../font/../misc/lv_area.h"
 5031              		.file 11 "Drivers/lvgl/src/core/../misc/../font/lv_font.h"
 5032              		.file 12 "Drivers/lvgl/src/core/../misc/lv_types.h"
 5033              		.file 13 "Drivers/lvgl/src/core/../misc/lv_txt.h"
 5034              		.file 14 "Drivers/lvgl/src/core/../hal/../draw/lv_img_buf.h"
 5035              		.file 15 "Drivers/lvgl/src/core/lv_obj.h"
 5036              		.file 16 "Drivers/lvgl/src/core/../hal/../draw/lv_draw_rect.h"
 5037              		.file 17 "Drivers/lvgl/src/core/../hal/../draw/lv_draw_label.h"
 5038              		.file 18 "Drivers/lvgl/src/core/../hal/../draw/lv_draw_img.h"
 5039              		.file 19 "Drivers/lvgl/src/core/../hal/../draw/lv_draw_line.h"
 5040              		.file 20 "Drivers/lvgl/src/core/../hal/../draw/lv_draw_arc.h"
 5041              		.file 21 "Drivers/lvgl/src/core/../hal/../draw/lv_draw_layer.h"
 5042              		.file 22 "Drivers/lvgl/src/core/../hal/../draw/lv_draw.h"
 5043              		.file 23 "Drivers/lvgl/src/core/../hal/../misc/lv_ll.h"
 5044              		.file 24 "Drivers/lvgl/src/core/../hal/../misc/lv_timer.h"
 5045              		.file 25 "Drivers/lvgl/src/core/../hal/lv_hal_disp.h"
 5046              		.file 26 "Drivers/lvgl/src/core/lv_theme.h"
 5047              		.file 27 "Drivers/lvgl/src/core/lv_group.h"
 5048              		.file 28 "Drivers/lvgl/src/core/lv_obj_scroll.h"
 5049              		.file 29 "Drivers/lvgl/src/core/lv_obj_style.h"
 5050              		.file 30 "Drivers/lvgl/src/core/lv_obj_draw.h"
 5051              		.file 31 "Drivers/lvgl/src/core/lv_obj_class.h"
 5052              		.file 32 "Drivers/lvgl/src/core/lv_event.h"
 5053              		.file 33 "Drivers/lvgl/src/core/../hal/../draw/sw/../../core/lv_obj_pos.h"
 5054              		.file 34 "Drivers/lvgl/src/core/../misc/lv_mem.h"
 5055              		.file 35 "Drivers/lvgl/src/core/lv_obj_tree.h"
 5056              		.file 36 "Drivers/lvgl/src/core/../misc/lv_gc.h"
ARM GAS  /var/folders/0z/tsy30v1j4xl4_7kw94k978ww0000gn/T//cc8A9NTU.s 			page 165


DEFINED SYMBOLS
                            *ABS*:0000000000000000 lv_obj_style.c
/var/folders/0z/tsy30v1j4xl4_7kw94k978ww0000gn/T//cc8A9NTU.s:20     .text.trans_del:0000000000000000 $t
/var/folders/0z/tsy30v1j4xl4_7kw94k978ww0000gn/T//cc8A9NTU.s:25     .text.trans_del:0000000000000000 trans_del
/var/folders/0z/tsy30v1j4xl4_7kw94k978ww0000gn/T//cc8A9NTU.s:210    .text.trans_del:00000000000000ac $d
/var/folders/0z/tsy30v1j4xl4_7kw94k978ww0000gn/T//cc8A9NTU.s:215    .text.refresh_children_style:0000000000000000 $t
/var/folders/0z/tsy30v1j4xl4_7kw94k978ww0000gn/T//cc8A9NTU.s:220    .text.refresh_children_style:0000000000000000 refresh_children_style
/var/folders/0z/tsy30v1j4xl4_7kw94k978ww0000gn/T//cc8A9NTU.s:295    .text.get_local_style:0000000000000000 $t
/var/folders/0z/tsy30v1j4xl4_7kw94k978ww0000gn/T//cc8A9NTU.s:300    .text.get_local_style:0000000000000000 get_local_style
/var/folders/0z/tsy30v1j4xl4_7kw94k978ww0000gn/T//cc8A9NTU.s:489    .text.get_trans_style:0000000000000000 $t
/var/folders/0z/tsy30v1j4xl4_7kw94k978ww0000gn/T//cc8A9NTU.s:494    .text.get_trans_style:0000000000000000 get_trans_style
/var/folders/0z/tsy30v1j4xl4_7kw94k978ww0000gn/T//cc8A9NTU.s:655    .text.fade_anim_cb:0000000000000000 $t
/var/folders/0z/tsy30v1j4xl4_7kw94k978ww0000gn/T//cc8A9NTU.s:660    .text.fade_anim_cb:0000000000000000 fade_anim_cb
/var/folders/0z/tsy30v1j4xl4_7kw94k978ww0000gn/T//cc8A9NTU.s:685    .text._lv_obj_style_init:0000000000000000 $t
/var/folders/0z/tsy30v1j4xl4_7kw94k978ww0000gn/T//cc8A9NTU.s:691    .text._lv_obj_style_init:0000000000000000 _lv_obj_style_init
/var/folders/0z/tsy30v1j4xl4_7kw94k978ww0000gn/T//cc8A9NTU.s:711    .text._lv_obj_style_init:000000000000000c $d
/var/folders/0z/tsy30v1j4xl4_7kw94k978ww0000gn/T//cc8A9NTU.s:716    .text.lv_obj_enable_style_refresh:0000000000000000 $t
/var/folders/0z/tsy30v1j4xl4_7kw94k978ww0000gn/T//cc8A9NTU.s:722    .text.lv_obj_enable_style_refresh:0000000000000000 lv_obj_enable_style_refresh
/var/folders/0z/tsy30v1j4xl4_7kw94k978ww0000gn/T//cc8A9NTU.s:739    .text.lv_obj_enable_style_refresh:0000000000000008 $d
/var/folders/0z/tsy30v1j4xl4_7kw94k978ww0000gn/T//cc8A9NTU.s:744    .text.lv_obj_get_local_style_prop:0000000000000000 $t
/var/folders/0z/tsy30v1j4xl4_7kw94k978ww0000gn/T//cc8A9NTU.s:750    .text.lv_obj_get_local_style_prop:0000000000000000 lv_obj_get_local_style_prop
/var/folders/0z/tsy30v1j4xl4_7kw94k978ww0000gn/T//cc8A9NTU.s:818    .text.lv_obj_fade_in:0000000000000000 $t
/var/folders/0z/tsy30v1j4xl4_7kw94k978ww0000gn/T//cc8A9NTU.s:824    .text.lv_obj_fade_in:0000000000000000 lv_obj_fade_in
/var/folders/0z/tsy30v1j4xl4_7kw94k978ww0000gn/T//cc8A9NTU.s:950    .text.lv_obj_fade_in:0000000000000034 $d
/var/folders/0z/tsy30v1j4xl4_7kw94k978ww0000gn/T//cc8A9NTU.s:3721   .text.fade_in_anim_ready:0000000000000000 fade_in_anim_ready
/var/folders/0z/tsy30v1j4xl4_7kw94k978ww0000gn/T//cc8A9NTU.s:956    .text.lv_obj_style_get_selector_state:0000000000000000 $t
/var/folders/0z/tsy30v1j4xl4_7kw94k978ww0000gn/T//cc8A9NTU.s:962    .text.lv_obj_style_get_selector_state:0000000000000000 lv_obj_style_get_selector_state
/var/folders/0z/tsy30v1j4xl4_7kw94k978ww0000gn/T//cc8A9NTU.s:980    .text._lv_obj_style_state_compare:0000000000000000 $t
/var/folders/0z/tsy30v1j4xl4_7kw94k978ww0000gn/T//cc8A9NTU.s:986    .text._lv_obj_style_state_compare:0000000000000000 _lv_obj_style_state_compare
/var/folders/0z/tsy30v1j4xl4_7kw94k978ww0000gn/T//cc8A9NTU.s:1508   .text.lv_obj_style_get_selector_part:0000000000000000 $t
/var/folders/0z/tsy30v1j4xl4_7kw94k978ww0000gn/T//cc8A9NTU.s:1514   .text.lv_obj_style_get_selector_part:0000000000000000 lv_obj_style_get_selector_part
/var/folders/0z/tsy30v1j4xl4_7kw94k978ww0000gn/T//cc8A9NTU.s:1532   .text.get_prop_core:0000000000000000 $t
/var/folders/0z/tsy30v1j4xl4_7kw94k978ww0000gn/T//cc8A9NTU.s:1537   .text.get_prop_core:0000000000000000 get_prop_core
/var/folders/0z/tsy30v1j4xl4_7kw94k978ww0000gn/T//cc8A9NTU.s:1838   .text.lv_obj_get_style_prop:0000000000000000 $t
/var/folders/0z/tsy30v1j4xl4_7kw94k978ww0000gn/T//cc8A9NTU.s:1844   .text.lv_obj_get_style_prop:0000000000000000 lv_obj_get_style_prop
/var/folders/0z/tsy30v1j4xl4_7kw94k978ww0000gn/T//cc8A9NTU.s:2038   .text.calculate_layer_type:0000000000000000 $t
/var/folders/0z/tsy30v1j4xl4_7kw94k978ww0000gn/T//cc8A9NTU.s:2043   .text.calculate_layer_type:0000000000000000 calculate_layer_type
/var/folders/0z/tsy30v1j4xl4_7kw94k978ww0000gn/T//cc8A9NTU.s:2166   .text._lv_obj_style_create_transition:0000000000000000 $t
/var/folders/0z/tsy30v1j4xl4_7kw94k978ww0000gn/T//cc8A9NTU.s:2172   .text._lv_obj_style_create_transition:0000000000000000 _lv_obj_style_create_transition
/var/folders/0z/tsy30v1j4xl4_7kw94k978ww0000gn/T//cc8A9NTU.s:2570   .text._lv_obj_style_create_transition:0000000000000138 $d
/var/folders/0z/tsy30v1j4xl4_7kw94k978ww0000gn/T//cc8A9NTU.s:3752   .text.trans_anim_cb:0000000000000000 trans_anim_cb
/var/folders/0z/tsy30v1j4xl4_7kw94k978ww0000gn/T//cc8A9NTU.s:4684   .text.trans_anim_start_cb:0000000000000000 trans_anim_start_cb
/var/folders/0z/tsy30v1j4xl4_7kw94k978ww0000gn/T//cc8A9NTU.s:4499   .text.trans_anim_ready_cb:0000000000000000 trans_anim_ready_cb
/var/folders/0z/tsy30v1j4xl4_7kw94k978ww0000gn/T//cc8A9NTU.s:2578   .text._lv_obj_style_apply_color_filter:0000000000000000 $t
/var/folders/0z/tsy30v1j4xl4_7kw94k978ww0000gn/T//cc8A9NTU.s:2584   .text._lv_obj_style_apply_color_filter:0000000000000000 _lv_obj_style_apply_color_filter
/var/folders/0z/tsy30v1j4xl4_7kw94k978ww0000gn/T//cc8A9NTU.s:2688   .text.lv_obj_fade_out:0000000000000000 $t
/var/folders/0z/tsy30v1j4xl4_7kw94k978ww0000gn/T//cc8A9NTU.s:2694   .text.lv_obj_fade_out:0000000000000000 lv_obj_fade_out
/var/folders/0z/tsy30v1j4xl4_7kw94k978ww0000gn/T//cc8A9NTU.s:2823   .text.lv_obj_fade_out:000000000000003c $d
/var/folders/0z/tsy30v1j4xl4_7kw94k978ww0000gn/T//cc8A9NTU.s:2828   .text.lv_obj_refresh_style:0000000000000000 $t
/var/folders/0z/tsy30v1j4xl4_7kw94k978ww0000gn/T//cc8A9NTU.s:2834   .text.lv_obj_refresh_style:0000000000000000 lv_obj_refresh_style
/var/folders/0z/tsy30v1j4xl4_7kw94k978ww0000gn/T//cc8A9NTU.s:3145   .text.lv_obj_refresh_style:0000000000000124 $d
/var/folders/0z/tsy30v1j4xl4_7kw94k978ww0000gn/T//cc8A9NTU.s:3150   .text.lv_obj_add_style:0000000000000000 $t
/var/folders/0z/tsy30v1j4xl4_7kw94k978ww0000gn/T//cc8A9NTU.s:3156   .text.lv_obj_add_style:0000000000000000 lv_obj_add_style
/var/folders/0z/tsy30v1j4xl4_7kw94k978ww0000gn/T//cc8A9NTU.s:3303   .text.report_style_change_core:0000000000000000 $t
/var/folders/0z/tsy30v1j4xl4_7kw94k978ww0000gn/T//cc8A9NTU.s:3308   .text.report_style_change_core:0000000000000000 report_style_change_core
/var/folders/0z/tsy30v1j4xl4_7kw94k978ww0000gn/T//cc8A9NTU.s:3409   .text.lv_obj_report_style_change:0000000000000000 $t
/var/folders/0z/tsy30v1j4xl4_7kw94k978ww0000gn/T//cc8A9NTU.s:3415   .text.lv_obj_report_style_change:0000000000000000 lv_obj_report_style_change
ARM GAS  /var/folders/0z/tsy30v1j4xl4_7kw94k978ww0000gn/T//cc8A9NTU.s 			page 166


/var/folders/0z/tsy30v1j4xl4_7kw94k978ww0000gn/T//cc8A9NTU.s:3496   .text.lv_obj_report_style_change:000000000000003c $d
/var/folders/0z/tsy30v1j4xl4_7kw94k978ww0000gn/T//cc8A9NTU.s:3501   .text.lv_obj_set_local_style_prop:0000000000000000 $t
/var/folders/0z/tsy30v1j4xl4_7kw94k978ww0000gn/T//cc8A9NTU.s:3507   .text.lv_obj_set_local_style_prop:0000000000000000 lv_obj_set_local_style_prop
/var/folders/0z/tsy30v1j4xl4_7kw94k978ww0000gn/T//cc8A9NTU.s:3555   .text.lv_obj_set_local_style_prop_meta:0000000000000000 $t
/var/folders/0z/tsy30v1j4xl4_7kw94k978ww0000gn/T//cc8A9NTU.s:3561   .text.lv_obj_set_local_style_prop_meta:0000000000000000 lv_obj_set_local_style_prop_meta
/var/folders/0z/tsy30v1j4xl4_7kw94k978ww0000gn/T//cc8A9NTU.s:3606   .text.lv_obj_remove_local_style_prop:0000000000000000 $t
/var/folders/0z/tsy30v1j4xl4_7kw94k978ww0000gn/T//cc8A9NTU.s:3612   .text.lv_obj_remove_local_style_prop:0000000000000000 lv_obj_remove_local_style_prop
/var/folders/0z/tsy30v1j4xl4_7kw94k978ww0000gn/T//cc8A9NTU.s:3716   .text.fade_in_anim_ready:0000000000000000 $t
/var/folders/0z/tsy30v1j4xl4_7kw94k978ww0000gn/T//cc8A9NTU.s:3747   .text.trans_anim_cb:0000000000000000 $t
/var/folders/0z/tsy30v1j4xl4_7kw94k978ww0000gn/T//cc8A9NTU.s:3836   .text.trans_anim_cb:0000000000000050 $d
/var/folders/0z/tsy30v1j4xl4_7kw94k978ww0000gn/T//cc8A9NTU.s:3855   .text.trans_anim_cb:0000000000000062 $t
/var/folders/0z/tsy30v1j4xl4_7kw94k978ww0000gn/T//cc8A9NTU.s:4199   .text.trans_anim_cb:00000000000001b4 $d
/var/folders/0z/tsy30v1j4xl4_7kw94k978ww0000gn/T//cc8A9NTU.s:4207   .text.lv_obj_remove_style:0000000000000000 $t
/var/folders/0z/tsy30v1j4xl4_7kw94k978ww0000gn/T//cc8A9NTU.s:4213   .text.lv_obj_remove_style:0000000000000000 lv_obj_remove_style
/var/folders/0z/tsy30v1j4xl4_7kw94k978ww0000gn/T//cc8A9NTU.s:4494   .text.trans_anim_ready_cb:0000000000000000 $t
/var/folders/0z/tsy30v1j4xl4_7kw94k978ww0000gn/T//cc8A9NTU.s:4672   .text.trans_anim_ready_cb:00000000000000a8 $d
/var/folders/0z/tsy30v1j4xl4_7kw94k978ww0000gn/T//cc8A9NTU.s:4679   .text.trans_anim_start_cb:0000000000000000 $t
/var/folders/0z/tsy30v1j4xl4_7kw94k978ww0000gn/T//cc8A9NTU.s:4761   .text.lv_obj_calculate_style_text_align:0000000000000000 $t
/var/folders/0z/tsy30v1j4xl4_7kw94k978ww0000gn/T//cc8A9NTU.s:4767   .text.lv_obj_calculate_style_text_align:0000000000000000 lv_obj_calculate_style_text_align
/var/folders/0z/tsy30v1j4xl4_7kw94k978ww0000gn/T//cc8A9NTU.s:4846   .text.lv_obj_get_style_opa_recursive:0000000000000000 $t
/var/folders/0z/tsy30v1j4xl4_7kw94k978ww0000gn/T//cc8A9NTU.s:4852   .text.lv_obj_get_style_opa_recursive:0000000000000000 lv_obj_get_style_opa_recursive
/var/folders/0z/tsy30v1j4xl4_7kw94k978ww0000gn/T//cc8A9NTU.s:5023   .data.style_refr:0000000000000000 style_refr

UNDEFINED SYMBOLS
_lv_ll_get_tail
_lv_ll_get_prev
lv_style_remove_prop
lv_anim_del
_lv_ll_remove
lv_mem_free
_lv_obj_style_trans_ll
lv_obj_get_child_cnt
lv_obj_invalidate
lv_event_send
lv_mem_realloc
lv_memset_00
lv_mem_alloc
lv_style_init
lv_obj_set_style_opa
_lv_ll_init
lv_style_get_prop
lv_anim_init
lv_anim_start
_lv_style_get_prop_group
_lv_style_prop_lookup_flags
lv_obj_get_parent
lv_style_prop_get_default
lv_style_set_prop
_lv_ll_ins_head
lv_obj_get_width
lv_obj_get_height
lv_obj_mark_layout_as_dirty
lv_obj_refresh_ext_draw_size
lv_obj_allocate_spec_attr
lv_disp_get_next
lv_style_set_prop_meta
lv_style_reset
ARM GAS  /var/folders/0z/tsy30v1j4xl4_7kw94k978ww0000gn/T//cc8A9NTU.s 			page 167


_lv_ll_get_head
_lv_ll_get_next
lv_style_is_empty
