ARM GAS  /var/folders/0z/tsy30v1j4xl4_7kw94k978ww0000gn/T//ccVt8IXl.s 			page 1


   1              		.cpu cortex-m4
   2              		.arch armv7e-m
   3              		.fpu fpv4-sp-d16
   4              		.eabi_attribute 27, 1
   5              		.eabi_attribute 28, 1
   6              		.eabi_attribute 20, 1
   7              		.eabi_attribute 21, 1
   8              		.eabi_attribute 23, 3
   9              		.eabi_attribute 24, 1
  10              		.eabi_attribute 25, 1
  11              		.eabi_attribute 26, 1
  12              		.eabi_attribute 30, 1
  13              		.eabi_attribute 34, 1
  14              		.eabi_attribute 18, 4
  15              		.file	"lv_obj.c"
  16              		.text
  17              	.Ltext0:
  18              		.cfi_sections	.debug_frame
  19              		.section	.text.obj_valid_child,"ax",%progbits
  20              		.align	1
  21              		.syntax unified
  22              		.thumb
  23              		.thumb_func
  25              	obj_valid_child:
  26              	.LVL0:
  27              	.LFB229:
  28              		.file 1 "Drivers/lvgl/src/core/lv_obj.c"
   1:Drivers/lvgl/src/core/lv_obj.c **** /**
   2:Drivers/lvgl/src/core/lv_obj.c ****  * @file lv_obj.c
   3:Drivers/lvgl/src/core/lv_obj.c ****  *
   4:Drivers/lvgl/src/core/lv_obj.c ****  */
   5:Drivers/lvgl/src/core/lv_obj.c **** 
   6:Drivers/lvgl/src/core/lv_obj.c **** /*********************
   7:Drivers/lvgl/src/core/lv_obj.c ****  *      INCLUDES
   8:Drivers/lvgl/src/core/lv_obj.c ****  *********************/
   9:Drivers/lvgl/src/core/lv_obj.c **** #include "lv_obj.h"
  10:Drivers/lvgl/src/core/lv_obj.c **** #include "lv_indev.h"
  11:Drivers/lvgl/src/core/lv_obj.c **** #include "lv_refr.h"
  12:Drivers/lvgl/src/core/lv_obj.c **** #include "lv_group.h"
  13:Drivers/lvgl/src/core/lv_obj.c **** #include "lv_disp.h"
  14:Drivers/lvgl/src/core/lv_obj.c **** #include "lv_theme.h"
  15:Drivers/lvgl/src/core/lv_obj.c **** #include "../misc/lv_assert.h"
  16:Drivers/lvgl/src/core/lv_obj.c **** #include "../draw/lv_draw.h"
  17:Drivers/lvgl/src/core/lv_obj.c **** #include "../misc/lv_anim.h"
  18:Drivers/lvgl/src/core/lv_obj.c **** #include "../misc/lv_timer.h"
  19:Drivers/lvgl/src/core/lv_obj.c **** #include "../misc/lv_async.h"
  20:Drivers/lvgl/src/core/lv_obj.c **** #include "../misc/lv_fs.h"
  21:Drivers/lvgl/src/core/lv_obj.c **** #include "../misc/lv_gc.h"
  22:Drivers/lvgl/src/core/lv_obj.c **** #include "../misc/lv_math.h"
  23:Drivers/lvgl/src/core/lv_obj.c **** #include "../misc/lv_log.h"
  24:Drivers/lvgl/src/core/lv_obj.c **** #include "../hal/lv_hal.h"
  25:Drivers/lvgl/src/core/lv_obj.c **** #include "../extra/lv_extra.h"
  26:Drivers/lvgl/src/core/lv_obj.c **** #include <stdint.h>
  27:Drivers/lvgl/src/core/lv_obj.c **** #include <string.h>
  28:Drivers/lvgl/src/core/lv_obj.c **** 
  29:Drivers/lvgl/src/core/lv_obj.c **** #if LV_USE_GPU_STM32_DMA2D
  30:Drivers/lvgl/src/core/lv_obj.c ****     #include "../draw/stm32_dma2d/lv_gpu_stm32_dma2d.h"
ARM GAS  /var/folders/0z/tsy30v1j4xl4_7kw94k978ww0000gn/T//ccVt8IXl.s 			page 2


  31:Drivers/lvgl/src/core/lv_obj.c **** #endif
  32:Drivers/lvgl/src/core/lv_obj.c **** 
  33:Drivers/lvgl/src/core/lv_obj.c **** #if LV_USE_GPU_RA6M3_G2D
  34:Drivers/lvgl/src/core/lv_obj.c ****     #include "../draw/renesas/lv_gpu_d2_ra6m3.h"
  35:Drivers/lvgl/src/core/lv_obj.c **** #endif
  36:Drivers/lvgl/src/core/lv_obj.c **** 
  37:Drivers/lvgl/src/core/lv_obj.c **** #if LV_USE_GPU_SWM341_DMA2D
  38:Drivers/lvgl/src/core/lv_obj.c ****     #include "../draw/swm341_dma2d/lv_gpu_swm341_dma2d.h"
  39:Drivers/lvgl/src/core/lv_obj.c **** #endif
  40:Drivers/lvgl/src/core/lv_obj.c **** 
  41:Drivers/lvgl/src/core/lv_obj.c **** #if LV_USE_GPU_NXP_PXP && LV_USE_GPU_NXP_PXP_AUTO_INIT
  42:Drivers/lvgl/src/core/lv_obj.c ****     #include "../draw/nxp/pxp/lv_gpu_nxp_pxp.h"
  43:Drivers/lvgl/src/core/lv_obj.c **** #endif
  44:Drivers/lvgl/src/core/lv_obj.c **** 
  45:Drivers/lvgl/src/core/lv_obj.c **** /*********************
  46:Drivers/lvgl/src/core/lv_obj.c ****  *      DEFINES
  47:Drivers/lvgl/src/core/lv_obj.c ****  *********************/
  48:Drivers/lvgl/src/core/lv_obj.c **** #define MY_CLASS &lv_obj_class
  49:Drivers/lvgl/src/core/lv_obj.c **** #define LV_OBJ_DEF_WIDTH    (LV_DPX(100))
  50:Drivers/lvgl/src/core/lv_obj.c **** #define LV_OBJ_DEF_HEIGHT   (LV_DPX(50))
  51:Drivers/lvgl/src/core/lv_obj.c **** #define STYLE_TRANSITION_MAX 32
  52:Drivers/lvgl/src/core/lv_obj.c **** 
  53:Drivers/lvgl/src/core/lv_obj.c **** /**********************
  54:Drivers/lvgl/src/core/lv_obj.c ****  *      TYPEDEFS
  55:Drivers/lvgl/src/core/lv_obj.c ****  **********************/
  56:Drivers/lvgl/src/core/lv_obj.c **** 
  57:Drivers/lvgl/src/core/lv_obj.c **** /**********************
  58:Drivers/lvgl/src/core/lv_obj.c ****  *  STATIC PROTOTYPES
  59:Drivers/lvgl/src/core/lv_obj.c ****  **********************/
  60:Drivers/lvgl/src/core/lv_obj.c **** static void lv_obj_constructor(const lv_obj_class_t * class_p, lv_obj_t * obj);
  61:Drivers/lvgl/src/core/lv_obj.c **** static void lv_obj_destructor(const lv_obj_class_t * class_p, lv_obj_t * obj);
  62:Drivers/lvgl/src/core/lv_obj.c **** static void lv_obj_draw(lv_event_t * e);
  63:Drivers/lvgl/src/core/lv_obj.c **** static void lv_obj_event(const lv_obj_class_t * class_p, lv_event_t * e);
  64:Drivers/lvgl/src/core/lv_obj.c **** static void draw_scrollbar(lv_obj_t * obj, lv_draw_ctx_t * draw_ctx);
  65:Drivers/lvgl/src/core/lv_obj.c **** static lv_res_t scrollbar_init_draw_dsc(lv_obj_t * obj, lv_draw_rect_dsc_t * dsc);
  66:Drivers/lvgl/src/core/lv_obj.c **** static bool obj_valid_child(const lv_obj_t * parent, const lv_obj_t * obj_to_find);
  67:Drivers/lvgl/src/core/lv_obj.c **** static void lv_obj_set_state(lv_obj_t * obj, lv_state_t new_state);
  68:Drivers/lvgl/src/core/lv_obj.c **** 
  69:Drivers/lvgl/src/core/lv_obj.c **** /**********************
  70:Drivers/lvgl/src/core/lv_obj.c ****  *  STATIC VARIABLES
  71:Drivers/lvgl/src/core/lv_obj.c ****  **********************/
  72:Drivers/lvgl/src/core/lv_obj.c **** static bool lv_initialized = false;
  73:Drivers/lvgl/src/core/lv_obj.c **** const lv_obj_class_t lv_obj_class = {
  74:Drivers/lvgl/src/core/lv_obj.c ****     .constructor_cb = lv_obj_constructor,
  75:Drivers/lvgl/src/core/lv_obj.c ****     .destructor_cb = lv_obj_destructor,
  76:Drivers/lvgl/src/core/lv_obj.c ****     .event_cb = lv_obj_event,
  77:Drivers/lvgl/src/core/lv_obj.c ****     .width_def = LV_DPI_DEF,
  78:Drivers/lvgl/src/core/lv_obj.c ****     .height_def = LV_DPI_DEF,
  79:Drivers/lvgl/src/core/lv_obj.c ****     .editable = LV_OBJ_CLASS_EDITABLE_FALSE,
  80:Drivers/lvgl/src/core/lv_obj.c ****     .group_def = LV_OBJ_CLASS_GROUP_DEF_FALSE,
  81:Drivers/lvgl/src/core/lv_obj.c ****     .instance_size = (sizeof(lv_obj_t)),
  82:Drivers/lvgl/src/core/lv_obj.c ****     .base_class = NULL,
  83:Drivers/lvgl/src/core/lv_obj.c **** };
  84:Drivers/lvgl/src/core/lv_obj.c **** 
  85:Drivers/lvgl/src/core/lv_obj.c **** /**********************
  86:Drivers/lvgl/src/core/lv_obj.c ****  *      MACROS
  87:Drivers/lvgl/src/core/lv_obj.c ****  **********************/
ARM GAS  /var/folders/0z/tsy30v1j4xl4_7kw94k978ww0000gn/T//ccVt8IXl.s 			page 3


  88:Drivers/lvgl/src/core/lv_obj.c **** 
  89:Drivers/lvgl/src/core/lv_obj.c **** /**********************
  90:Drivers/lvgl/src/core/lv_obj.c ****  *   GLOBAL FUNCTIONS
  91:Drivers/lvgl/src/core/lv_obj.c ****  **********************/
  92:Drivers/lvgl/src/core/lv_obj.c **** 
  93:Drivers/lvgl/src/core/lv_obj.c **** bool lv_is_initialized(void)
  94:Drivers/lvgl/src/core/lv_obj.c **** {
  95:Drivers/lvgl/src/core/lv_obj.c ****     return lv_initialized;
  96:Drivers/lvgl/src/core/lv_obj.c **** }
  97:Drivers/lvgl/src/core/lv_obj.c **** 
  98:Drivers/lvgl/src/core/lv_obj.c **** void lv_init(void)
  99:Drivers/lvgl/src/core/lv_obj.c **** {
 100:Drivers/lvgl/src/core/lv_obj.c ****     /*Do nothing if already initialized*/
 101:Drivers/lvgl/src/core/lv_obj.c ****     if(lv_initialized) {
 102:Drivers/lvgl/src/core/lv_obj.c ****         LV_LOG_WARN("lv_init: already inited");
 103:Drivers/lvgl/src/core/lv_obj.c ****         return;
 104:Drivers/lvgl/src/core/lv_obj.c ****     }
 105:Drivers/lvgl/src/core/lv_obj.c **** 
 106:Drivers/lvgl/src/core/lv_obj.c ****     LV_LOG_INFO("begin");
 107:Drivers/lvgl/src/core/lv_obj.c **** 
 108:Drivers/lvgl/src/core/lv_obj.c ****     /*Initialize the misc modules*/
 109:Drivers/lvgl/src/core/lv_obj.c ****     lv_mem_init();
 110:Drivers/lvgl/src/core/lv_obj.c **** 
 111:Drivers/lvgl/src/core/lv_obj.c ****     _lv_timer_core_init();
 112:Drivers/lvgl/src/core/lv_obj.c **** 
 113:Drivers/lvgl/src/core/lv_obj.c ****     _lv_fs_init();
 114:Drivers/lvgl/src/core/lv_obj.c **** 
 115:Drivers/lvgl/src/core/lv_obj.c ****     _lv_anim_core_init();
 116:Drivers/lvgl/src/core/lv_obj.c **** 
 117:Drivers/lvgl/src/core/lv_obj.c ****     _lv_group_init();
 118:Drivers/lvgl/src/core/lv_obj.c **** 
 119:Drivers/lvgl/src/core/lv_obj.c ****     lv_draw_init();
 120:Drivers/lvgl/src/core/lv_obj.c **** 
 121:Drivers/lvgl/src/core/lv_obj.c **** #if LV_USE_GPU_STM32_DMA2D
 122:Drivers/lvgl/src/core/lv_obj.c ****     /*Initialize DMA2D GPU*/
 123:Drivers/lvgl/src/core/lv_obj.c ****     lv_draw_stm32_dma2d_init();
 124:Drivers/lvgl/src/core/lv_obj.c **** #endif
 125:Drivers/lvgl/src/core/lv_obj.c **** 
 126:Drivers/lvgl/src/core/lv_obj.c **** #if LV_USE_GPU_RA6M3_G2D
 127:Drivers/lvgl/src/core/lv_obj.c ****     /*Initialize G2D GPU*/
 128:Drivers/lvgl/src/core/lv_obj.c ****     lv_draw_ra6m3_g2d_init();
 129:Drivers/lvgl/src/core/lv_obj.c **** #endif
 130:Drivers/lvgl/src/core/lv_obj.c **** 
 131:Drivers/lvgl/src/core/lv_obj.c **** #if LV_USE_GPU_SWM341_DMA2D
 132:Drivers/lvgl/src/core/lv_obj.c ****     /*Initialize DMA2D GPU*/
 133:Drivers/lvgl/src/core/lv_obj.c ****     lv_draw_swm341_dma2d_init();
 134:Drivers/lvgl/src/core/lv_obj.c **** #endif
 135:Drivers/lvgl/src/core/lv_obj.c **** 
 136:Drivers/lvgl/src/core/lv_obj.c **** #if LV_USE_GPU_NXP_PXP && LV_USE_GPU_NXP_PXP_AUTO_INIT
 137:Drivers/lvgl/src/core/lv_obj.c ****     PXP_COND_STOP(!lv_gpu_nxp_pxp_init(), "PXP init failed.");
 138:Drivers/lvgl/src/core/lv_obj.c **** #endif
 139:Drivers/lvgl/src/core/lv_obj.c **** 
 140:Drivers/lvgl/src/core/lv_obj.c ****     _lv_obj_style_init();
 141:Drivers/lvgl/src/core/lv_obj.c ****     _lv_ll_init(&LV_GC_ROOT(_lv_disp_ll), sizeof(lv_disp_t));
 142:Drivers/lvgl/src/core/lv_obj.c ****     _lv_ll_init(&LV_GC_ROOT(_lv_indev_ll), sizeof(lv_indev_t));
 143:Drivers/lvgl/src/core/lv_obj.c **** 
 144:Drivers/lvgl/src/core/lv_obj.c ****     /*Initialize the screen refresh system*/
ARM GAS  /var/folders/0z/tsy30v1j4xl4_7kw94k978ww0000gn/T//ccVt8IXl.s 			page 4


 145:Drivers/lvgl/src/core/lv_obj.c ****     _lv_refr_init();
 146:Drivers/lvgl/src/core/lv_obj.c **** 
 147:Drivers/lvgl/src/core/lv_obj.c ****     _lv_img_decoder_init();
 148:Drivers/lvgl/src/core/lv_obj.c **** #if LV_IMG_CACHE_DEF_SIZE
 149:Drivers/lvgl/src/core/lv_obj.c ****     lv_img_cache_set_size(LV_IMG_CACHE_DEF_SIZE);
 150:Drivers/lvgl/src/core/lv_obj.c **** #endif
 151:Drivers/lvgl/src/core/lv_obj.c ****     /*Test if the IDE has UTF-8 encoding*/
 152:Drivers/lvgl/src/core/lv_obj.c ****     const char * txt = "Ã";
 153:Drivers/lvgl/src/core/lv_obj.c **** 
 154:Drivers/lvgl/src/core/lv_obj.c ****     const uint8_t * txt_u8 = (uint8_t *)txt;
 155:Drivers/lvgl/src/core/lv_obj.c ****     if(txt_u8[0] != 0xc3 || txt_u8[1] != 0x81 || txt_u8[2] != 0x00) {
 156:Drivers/lvgl/src/core/lv_obj.c ****         LV_LOG_WARN("The strings have no UTF-8 encoding. Non-ASCII characters won't be displayed.")
 157:Drivers/lvgl/src/core/lv_obj.c ****     }
 158:Drivers/lvgl/src/core/lv_obj.c **** 
 159:Drivers/lvgl/src/core/lv_obj.c ****     uint32_t endianess_test = 0x11223344;
 160:Drivers/lvgl/src/core/lv_obj.c ****     uint8_t * endianess_test_p = (uint8_t *) &endianess_test;
 161:Drivers/lvgl/src/core/lv_obj.c ****     bool big_endian = endianess_test_p[0] == 0x11 ? true : false;
 162:Drivers/lvgl/src/core/lv_obj.c **** 
 163:Drivers/lvgl/src/core/lv_obj.c ****     if(big_endian) {
 164:Drivers/lvgl/src/core/lv_obj.c ****         LV_ASSERT_MSG(LV_BIG_ENDIAN_SYSTEM == 1,
 165:Drivers/lvgl/src/core/lv_obj.c ****                       "It's a big endian system but LV_BIG_ENDIAN_SYSTEM is not enabled in lv_conf.
 166:Drivers/lvgl/src/core/lv_obj.c ****     }
 167:Drivers/lvgl/src/core/lv_obj.c ****     else {
 168:Drivers/lvgl/src/core/lv_obj.c ****         LV_ASSERT_MSG(LV_BIG_ENDIAN_SYSTEM == 0,
 169:Drivers/lvgl/src/core/lv_obj.c ****                       "It's a little endian system but LV_BIG_ENDIAN_SYSTEM is enabled in lv_conf.h
 170:Drivers/lvgl/src/core/lv_obj.c ****     }
 171:Drivers/lvgl/src/core/lv_obj.c **** 
 172:Drivers/lvgl/src/core/lv_obj.c **** #if LV_USE_ASSERT_MEM_INTEGRITY
 173:Drivers/lvgl/src/core/lv_obj.c ****     LV_LOG_WARN("Memory integrity checks are enabled via LV_USE_ASSERT_MEM_INTEGRITY which makes LV
 174:Drivers/lvgl/src/core/lv_obj.c **** #endif
 175:Drivers/lvgl/src/core/lv_obj.c **** 
 176:Drivers/lvgl/src/core/lv_obj.c **** #if LV_USE_ASSERT_OBJ
 177:Drivers/lvgl/src/core/lv_obj.c ****     LV_LOG_WARN("Object sanity checks are enabled via LV_USE_ASSERT_OBJ which makes LVGL much slowe
 178:Drivers/lvgl/src/core/lv_obj.c **** #endif
 179:Drivers/lvgl/src/core/lv_obj.c **** 
 180:Drivers/lvgl/src/core/lv_obj.c **** #if LV_USE_ASSERT_STYLE
 181:Drivers/lvgl/src/core/lv_obj.c ****     LV_LOG_WARN("Style sanity checks are enabled that uses more RAM");
 182:Drivers/lvgl/src/core/lv_obj.c **** #endif
 183:Drivers/lvgl/src/core/lv_obj.c **** 
 184:Drivers/lvgl/src/core/lv_obj.c **** #if LV_LOG_LEVEL == LV_LOG_LEVEL_TRACE
 185:Drivers/lvgl/src/core/lv_obj.c ****     LV_LOG_WARN("Log level is set to 'Trace' which makes LVGL much slower");
 186:Drivers/lvgl/src/core/lv_obj.c **** #endif
 187:Drivers/lvgl/src/core/lv_obj.c **** 
 188:Drivers/lvgl/src/core/lv_obj.c ****     lv_extra_init();
 189:Drivers/lvgl/src/core/lv_obj.c **** 
 190:Drivers/lvgl/src/core/lv_obj.c ****     lv_initialized = true;
 191:Drivers/lvgl/src/core/lv_obj.c **** 
 192:Drivers/lvgl/src/core/lv_obj.c ****     LV_LOG_TRACE("finished");
 193:Drivers/lvgl/src/core/lv_obj.c **** }
 194:Drivers/lvgl/src/core/lv_obj.c **** 
 195:Drivers/lvgl/src/core/lv_obj.c **** #if LV_ENABLE_GC || !LV_MEM_CUSTOM
 196:Drivers/lvgl/src/core/lv_obj.c **** 
 197:Drivers/lvgl/src/core/lv_obj.c **** void lv_deinit(void)
 198:Drivers/lvgl/src/core/lv_obj.c **** {
 199:Drivers/lvgl/src/core/lv_obj.c ****     _lv_gc_clear_roots();
 200:Drivers/lvgl/src/core/lv_obj.c **** 
 201:Drivers/lvgl/src/core/lv_obj.c ****     lv_disp_set_default(NULL);
ARM GAS  /var/folders/0z/tsy30v1j4xl4_7kw94k978ww0000gn/T//ccVt8IXl.s 			page 5


 202:Drivers/lvgl/src/core/lv_obj.c ****     lv_mem_deinit();
 203:Drivers/lvgl/src/core/lv_obj.c ****     lv_initialized = false;
 204:Drivers/lvgl/src/core/lv_obj.c **** 
 205:Drivers/lvgl/src/core/lv_obj.c ****     LV_LOG_INFO("lv_deinit done");
 206:Drivers/lvgl/src/core/lv_obj.c **** 
 207:Drivers/lvgl/src/core/lv_obj.c **** #if LV_USE_LOG
 208:Drivers/lvgl/src/core/lv_obj.c ****     lv_log_register_print_cb(NULL);
 209:Drivers/lvgl/src/core/lv_obj.c **** #endif
 210:Drivers/lvgl/src/core/lv_obj.c **** }
 211:Drivers/lvgl/src/core/lv_obj.c **** #endif
 212:Drivers/lvgl/src/core/lv_obj.c **** 
 213:Drivers/lvgl/src/core/lv_obj.c **** lv_obj_t * lv_obj_create(lv_obj_t * parent)
 214:Drivers/lvgl/src/core/lv_obj.c **** {
 215:Drivers/lvgl/src/core/lv_obj.c ****     LV_LOG_INFO("begin");
 216:Drivers/lvgl/src/core/lv_obj.c ****     lv_obj_t * obj = lv_obj_class_create_obj(MY_CLASS, parent);
 217:Drivers/lvgl/src/core/lv_obj.c ****     lv_obj_class_init_obj(obj);
 218:Drivers/lvgl/src/core/lv_obj.c ****     return obj;
 219:Drivers/lvgl/src/core/lv_obj.c **** }
 220:Drivers/lvgl/src/core/lv_obj.c **** 
 221:Drivers/lvgl/src/core/lv_obj.c **** /*=====================
 222:Drivers/lvgl/src/core/lv_obj.c ****  * Setter functions
 223:Drivers/lvgl/src/core/lv_obj.c ****  *====================*/
 224:Drivers/lvgl/src/core/lv_obj.c **** 
 225:Drivers/lvgl/src/core/lv_obj.c **** /*-----------------
 226:Drivers/lvgl/src/core/lv_obj.c ****  * Attribute set
 227:Drivers/lvgl/src/core/lv_obj.c ****  *----------------*/
 228:Drivers/lvgl/src/core/lv_obj.c **** 
 229:Drivers/lvgl/src/core/lv_obj.c **** void lv_obj_add_flag(lv_obj_t * obj, lv_obj_flag_t f)
 230:Drivers/lvgl/src/core/lv_obj.c **** {
 231:Drivers/lvgl/src/core/lv_obj.c ****     LV_ASSERT_OBJ(obj, MY_CLASS);
 232:Drivers/lvgl/src/core/lv_obj.c **** 
 233:Drivers/lvgl/src/core/lv_obj.c ****     bool was_on_layout = lv_obj_is_layout_positioned(obj);
 234:Drivers/lvgl/src/core/lv_obj.c **** 
 235:Drivers/lvgl/src/core/lv_obj.c ****     /* We must invalidate the area occupied by the object before we hide it as calls to invalidate 
 236:Drivers/lvgl/src/core/lv_obj.c ****     if(f & LV_OBJ_FLAG_HIDDEN) lv_obj_invalidate(obj);
 237:Drivers/lvgl/src/core/lv_obj.c **** 
 238:Drivers/lvgl/src/core/lv_obj.c ****     obj->flags |= f;
 239:Drivers/lvgl/src/core/lv_obj.c **** 
 240:Drivers/lvgl/src/core/lv_obj.c ****     if(f & LV_OBJ_FLAG_HIDDEN) {
 241:Drivers/lvgl/src/core/lv_obj.c ****         if(lv_obj_has_state(obj, LV_STATE_FOCUSED)) {
 242:Drivers/lvgl/src/core/lv_obj.c ****             lv_group_t * group = lv_obj_get_group(obj);
 243:Drivers/lvgl/src/core/lv_obj.c ****             if(group != NULL) {
 244:Drivers/lvgl/src/core/lv_obj.c ****                 lv_group_focus_next(group);
 245:Drivers/lvgl/src/core/lv_obj.c ****                 lv_obj_t * next_obj = lv_group_get_focused(group);
 246:Drivers/lvgl/src/core/lv_obj.c ****                 if(next_obj != NULL) {
 247:Drivers/lvgl/src/core/lv_obj.c ****                     lv_obj_invalidate(next_obj);
 248:Drivers/lvgl/src/core/lv_obj.c ****                 }
 249:Drivers/lvgl/src/core/lv_obj.c ****             }
 250:Drivers/lvgl/src/core/lv_obj.c ****         }
 251:Drivers/lvgl/src/core/lv_obj.c ****     }
 252:Drivers/lvgl/src/core/lv_obj.c **** 
 253:Drivers/lvgl/src/core/lv_obj.c ****     if((was_on_layout != lv_obj_is_layout_positioned(obj)) || (f & (LV_OBJ_FLAG_LAYOUT_1 |  LV_OBJ_
 254:Drivers/lvgl/src/core/lv_obj.c ****         lv_obj_mark_layout_as_dirty(lv_obj_get_parent(obj));
 255:Drivers/lvgl/src/core/lv_obj.c ****         lv_obj_mark_layout_as_dirty(obj);
 256:Drivers/lvgl/src/core/lv_obj.c ****     }
 257:Drivers/lvgl/src/core/lv_obj.c **** 
 258:Drivers/lvgl/src/core/lv_obj.c ****     if(f & LV_OBJ_FLAG_SCROLLABLE) {
ARM GAS  /var/folders/0z/tsy30v1j4xl4_7kw94k978ww0000gn/T//ccVt8IXl.s 			page 6


 259:Drivers/lvgl/src/core/lv_obj.c ****         lv_area_t hor_area, ver_area;
 260:Drivers/lvgl/src/core/lv_obj.c ****         lv_obj_get_scrollbar_area(obj, &hor_area, &ver_area);
 261:Drivers/lvgl/src/core/lv_obj.c ****         lv_obj_invalidate_area(obj, &hor_area);
 262:Drivers/lvgl/src/core/lv_obj.c ****         lv_obj_invalidate_area(obj, &ver_area);
 263:Drivers/lvgl/src/core/lv_obj.c ****     }
 264:Drivers/lvgl/src/core/lv_obj.c **** }
 265:Drivers/lvgl/src/core/lv_obj.c **** 
 266:Drivers/lvgl/src/core/lv_obj.c **** void lv_obj_clear_flag(lv_obj_t * obj, lv_obj_flag_t f)
 267:Drivers/lvgl/src/core/lv_obj.c **** {
 268:Drivers/lvgl/src/core/lv_obj.c ****     LV_ASSERT_OBJ(obj, MY_CLASS);
 269:Drivers/lvgl/src/core/lv_obj.c **** 
 270:Drivers/lvgl/src/core/lv_obj.c ****     bool was_on_layout = lv_obj_is_layout_positioned(obj);
 271:Drivers/lvgl/src/core/lv_obj.c ****     if(f & LV_OBJ_FLAG_SCROLLABLE) {
 272:Drivers/lvgl/src/core/lv_obj.c ****         lv_area_t hor_area, ver_area;
 273:Drivers/lvgl/src/core/lv_obj.c ****         lv_obj_get_scrollbar_area(obj, &hor_area, &ver_area);
 274:Drivers/lvgl/src/core/lv_obj.c ****         lv_obj_invalidate_area(obj, &hor_area);
 275:Drivers/lvgl/src/core/lv_obj.c ****         lv_obj_invalidate_area(obj, &ver_area);
 276:Drivers/lvgl/src/core/lv_obj.c ****     }
 277:Drivers/lvgl/src/core/lv_obj.c **** 
 278:Drivers/lvgl/src/core/lv_obj.c ****     obj->flags &= (~f);
 279:Drivers/lvgl/src/core/lv_obj.c **** 
 280:Drivers/lvgl/src/core/lv_obj.c ****     if(f & LV_OBJ_FLAG_HIDDEN) {
 281:Drivers/lvgl/src/core/lv_obj.c ****         lv_obj_invalidate(obj);
 282:Drivers/lvgl/src/core/lv_obj.c ****         if(lv_obj_is_layout_positioned(obj)) {
 283:Drivers/lvgl/src/core/lv_obj.c ****             lv_obj_mark_layout_as_dirty(lv_obj_get_parent(obj));
 284:Drivers/lvgl/src/core/lv_obj.c ****             lv_obj_mark_layout_as_dirty(obj);
 285:Drivers/lvgl/src/core/lv_obj.c ****         }
 286:Drivers/lvgl/src/core/lv_obj.c ****     }
 287:Drivers/lvgl/src/core/lv_obj.c **** 
 288:Drivers/lvgl/src/core/lv_obj.c ****     if((was_on_layout != lv_obj_is_layout_positioned(obj)) || (f & (LV_OBJ_FLAG_LAYOUT_1 |  LV_OBJ_
 289:Drivers/lvgl/src/core/lv_obj.c ****         lv_obj_mark_layout_as_dirty(lv_obj_get_parent(obj));
 290:Drivers/lvgl/src/core/lv_obj.c ****     }
 291:Drivers/lvgl/src/core/lv_obj.c **** 
 292:Drivers/lvgl/src/core/lv_obj.c **** }
 293:Drivers/lvgl/src/core/lv_obj.c **** 
 294:Drivers/lvgl/src/core/lv_obj.c **** void lv_obj_add_state(lv_obj_t * obj, lv_state_t state)
 295:Drivers/lvgl/src/core/lv_obj.c **** {
 296:Drivers/lvgl/src/core/lv_obj.c ****     LV_ASSERT_OBJ(obj, MY_CLASS);
 297:Drivers/lvgl/src/core/lv_obj.c **** 
 298:Drivers/lvgl/src/core/lv_obj.c ****     lv_state_t new_state = obj->state | state;
 299:Drivers/lvgl/src/core/lv_obj.c ****     if(obj->state != new_state) {
 300:Drivers/lvgl/src/core/lv_obj.c ****         lv_obj_set_state(obj, new_state);
 301:Drivers/lvgl/src/core/lv_obj.c ****     }
 302:Drivers/lvgl/src/core/lv_obj.c **** }
 303:Drivers/lvgl/src/core/lv_obj.c **** 
 304:Drivers/lvgl/src/core/lv_obj.c **** void lv_obj_clear_state(lv_obj_t * obj, lv_state_t state)
 305:Drivers/lvgl/src/core/lv_obj.c **** {
 306:Drivers/lvgl/src/core/lv_obj.c ****     LV_ASSERT_OBJ(obj, MY_CLASS);
 307:Drivers/lvgl/src/core/lv_obj.c **** 
 308:Drivers/lvgl/src/core/lv_obj.c ****     lv_state_t new_state = obj->state & (~state);
 309:Drivers/lvgl/src/core/lv_obj.c ****     if(obj->state != new_state) {
 310:Drivers/lvgl/src/core/lv_obj.c ****         lv_obj_set_state(obj, new_state);
 311:Drivers/lvgl/src/core/lv_obj.c ****     }
 312:Drivers/lvgl/src/core/lv_obj.c **** }
 313:Drivers/lvgl/src/core/lv_obj.c **** 
 314:Drivers/lvgl/src/core/lv_obj.c **** /*=======================
 315:Drivers/lvgl/src/core/lv_obj.c ****  * Getter functions
ARM GAS  /var/folders/0z/tsy30v1j4xl4_7kw94k978ww0000gn/T//ccVt8IXl.s 			page 7


 316:Drivers/lvgl/src/core/lv_obj.c ****  *======================*/
 317:Drivers/lvgl/src/core/lv_obj.c **** 
 318:Drivers/lvgl/src/core/lv_obj.c **** bool lv_obj_has_flag(const lv_obj_t * obj, lv_obj_flag_t f)
 319:Drivers/lvgl/src/core/lv_obj.c **** {
 320:Drivers/lvgl/src/core/lv_obj.c ****     LV_ASSERT_OBJ(obj, MY_CLASS);
 321:Drivers/lvgl/src/core/lv_obj.c **** 
 322:Drivers/lvgl/src/core/lv_obj.c ****     return (obj->flags & f)  == f ? true : false;
 323:Drivers/lvgl/src/core/lv_obj.c **** }
 324:Drivers/lvgl/src/core/lv_obj.c **** 
 325:Drivers/lvgl/src/core/lv_obj.c **** bool lv_obj_has_flag_any(const lv_obj_t * obj, lv_obj_flag_t f)
 326:Drivers/lvgl/src/core/lv_obj.c **** {
 327:Drivers/lvgl/src/core/lv_obj.c ****     LV_ASSERT_OBJ(obj, MY_CLASS);
 328:Drivers/lvgl/src/core/lv_obj.c **** 
 329:Drivers/lvgl/src/core/lv_obj.c ****     return (obj->flags & f) ? true : false;
 330:Drivers/lvgl/src/core/lv_obj.c **** }
 331:Drivers/lvgl/src/core/lv_obj.c **** 
 332:Drivers/lvgl/src/core/lv_obj.c **** lv_state_t lv_obj_get_state(const lv_obj_t * obj)
 333:Drivers/lvgl/src/core/lv_obj.c **** {
 334:Drivers/lvgl/src/core/lv_obj.c ****     LV_ASSERT_OBJ(obj, MY_CLASS);
 335:Drivers/lvgl/src/core/lv_obj.c **** 
 336:Drivers/lvgl/src/core/lv_obj.c ****     return obj->state;
 337:Drivers/lvgl/src/core/lv_obj.c **** }
 338:Drivers/lvgl/src/core/lv_obj.c **** 
 339:Drivers/lvgl/src/core/lv_obj.c **** bool lv_obj_has_state(const lv_obj_t * obj, lv_state_t state)
 340:Drivers/lvgl/src/core/lv_obj.c **** {
 341:Drivers/lvgl/src/core/lv_obj.c ****     LV_ASSERT_OBJ(obj, MY_CLASS);
 342:Drivers/lvgl/src/core/lv_obj.c **** 
 343:Drivers/lvgl/src/core/lv_obj.c ****     return obj->state & state ? true : false;
 344:Drivers/lvgl/src/core/lv_obj.c **** }
 345:Drivers/lvgl/src/core/lv_obj.c **** 
 346:Drivers/lvgl/src/core/lv_obj.c **** void * lv_obj_get_group(const lv_obj_t * obj)
 347:Drivers/lvgl/src/core/lv_obj.c **** {
 348:Drivers/lvgl/src/core/lv_obj.c ****     LV_ASSERT_OBJ(obj, MY_CLASS);
 349:Drivers/lvgl/src/core/lv_obj.c **** 
 350:Drivers/lvgl/src/core/lv_obj.c ****     if(obj->spec_attr) return obj->spec_attr->group_p;
 351:Drivers/lvgl/src/core/lv_obj.c ****     else return NULL;
 352:Drivers/lvgl/src/core/lv_obj.c **** }
 353:Drivers/lvgl/src/core/lv_obj.c **** 
 354:Drivers/lvgl/src/core/lv_obj.c **** /*-------------------
 355:Drivers/lvgl/src/core/lv_obj.c ****  * OTHER FUNCTIONS
 356:Drivers/lvgl/src/core/lv_obj.c ****  *------------------*/
 357:Drivers/lvgl/src/core/lv_obj.c **** 
 358:Drivers/lvgl/src/core/lv_obj.c **** void lv_obj_allocate_spec_attr(lv_obj_t * obj)
 359:Drivers/lvgl/src/core/lv_obj.c **** {
 360:Drivers/lvgl/src/core/lv_obj.c ****     LV_ASSERT_OBJ(obj, MY_CLASS);
 361:Drivers/lvgl/src/core/lv_obj.c **** 
 362:Drivers/lvgl/src/core/lv_obj.c ****     if(obj->spec_attr == NULL) {
 363:Drivers/lvgl/src/core/lv_obj.c ****         static uint32_t x = 0;
 364:Drivers/lvgl/src/core/lv_obj.c ****         x++;
 365:Drivers/lvgl/src/core/lv_obj.c ****         obj->spec_attr = lv_mem_alloc(sizeof(_lv_obj_spec_attr_t));
 366:Drivers/lvgl/src/core/lv_obj.c ****         LV_ASSERT_MALLOC(obj->spec_attr);
 367:Drivers/lvgl/src/core/lv_obj.c ****         if(obj->spec_attr == NULL) return;
 368:Drivers/lvgl/src/core/lv_obj.c **** 
 369:Drivers/lvgl/src/core/lv_obj.c ****         lv_memset_00(obj->spec_attr, sizeof(_lv_obj_spec_attr_t));
 370:Drivers/lvgl/src/core/lv_obj.c **** 
 371:Drivers/lvgl/src/core/lv_obj.c ****         obj->spec_attr->scroll_dir = LV_DIR_ALL;
 372:Drivers/lvgl/src/core/lv_obj.c ****         obj->spec_attr->scrollbar_mode = LV_SCROLLBAR_MODE_AUTO;
ARM GAS  /var/folders/0z/tsy30v1j4xl4_7kw94k978ww0000gn/T//ccVt8IXl.s 			page 8


 373:Drivers/lvgl/src/core/lv_obj.c ****     }
 374:Drivers/lvgl/src/core/lv_obj.c **** }
 375:Drivers/lvgl/src/core/lv_obj.c **** 
 376:Drivers/lvgl/src/core/lv_obj.c **** bool lv_obj_check_type(const lv_obj_t * obj, const lv_obj_class_t * class_p)
 377:Drivers/lvgl/src/core/lv_obj.c **** {
 378:Drivers/lvgl/src/core/lv_obj.c ****     if(obj == NULL) return false;
 379:Drivers/lvgl/src/core/lv_obj.c ****     return obj->class_p == class_p ? true : false;
 380:Drivers/lvgl/src/core/lv_obj.c **** }
 381:Drivers/lvgl/src/core/lv_obj.c **** 
 382:Drivers/lvgl/src/core/lv_obj.c **** bool lv_obj_has_class(const lv_obj_t * obj, const lv_obj_class_t * class_p)
 383:Drivers/lvgl/src/core/lv_obj.c **** {
 384:Drivers/lvgl/src/core/lv_obj.c ****     const lv_obj_class_t * obj_class = obj->class_p;
 385:Drivers/lvgl/src/core/lv_obj.c ****     while(obj_class) {
 386:Drivers/lvgl/src/core/lv_obj.c ****         if(obj_class == class_p) return true;
 387:Drivers/lvgl/src/core/lv_obj.c ****         obj_class = obj_class->base_class;
 388:Drivers/lvgl/src/core/lv_obj.c ****     }
 389:Drivers/lvgl/src/core/lv_obj.c **** 
 390:Drivers/lvgl/src/core/lv_obj.c ****     return false;
 391:Drivers/lvgl/src/core/lv_obj.c **** }
 392:Drivers/lvgl/src/core/lv_obj.c **** 
 393:Drivers/lvgl/src/core/lv_obj.c **** const lv_obj_class_t * lv_obj_get_class(const lv_obj_t * obj)
 394:Drivers/lvgl/src/core/lv_obj.c **** {
 395:Drivers/lvgl/src/core/lv_obj.c ****     return obj->class_p;
 396:Drivers/lvgl/src/core/lv_obj.c **** }
 397:Drivers/lvgl/src/core/lv_obj.c **** 
 398:Drivers/lvgl/src/core/lv_obj.c **** bool lv_obj_is_valid(const lv_obj_t * obj)
 399:Drivers/lvgl/src/core/lv_obj.c **** {
 400:Drivers/lvgl/src/core/lv_obj.c ****     lv_disp_t * disp = lv_disp_get_next(NULL);
 401:Drivers/lvgl/src/core/lv_obj.c ****     while(disp) {
 402:Drivers/lvgl/src/core/lv_obj.c ****         uint32_t i;
 403:Drivers/lvgl/src/core/lv_obj.c ****         for(i = 0; i < disp->screen_cnt; i++) {
 404:Drivers/lvgl/src/core/lv_obj.c ****             if(disp->screens[i] == obj) return true;
 405:Drivers/lvgl/src/core/lv_obj.c ****             bool found = obj_valid_child(disp->screens[i], obj);
 406:Drivers/lvgl/src/core/lv_obj.c ****             if(found) return true;
 407:Drivers/lvgl/src/core/lv_obj.c ****         }
 408:Drivers/lvgl/src/core/lv_obj.c **** 
 409:Drivers/lvgl/src/core/lv_obj.c ****         disp = lv_disp_get_next(disp);
 410:Drivers/lvgl/src/core/lv_obj.c ****     }
 411:Drivers/lvgl/src/core/lv_obj.c **** 
 412:Drivers/lvgl/src/core/lv_obj.c ****     return false;
 413:Drivers/lvgl/src/core/lv_obj.c **** }
 414:Drivers/lvgl/src/core/lv_obj.c **** 
 415:Drivers/lvgl/src/core/lv_obj.c **** /**********************
 416:Drivers/lvgl/src/core/lv_obj.c ****  *   STATIC FUNCTIONS
 417:Drivers/lvgl/src/core/lv_obj.c ****  **********************/
 418:Drivers/lvgl/src/core/lv_obj.c **** 
 419:Drivers/lvgl/src/core/lv_obj.c **** static void lv_obj_constructor(const lv_obj_class_t * class_p, lv_obj_t * obj)
 420:Drivers/lvgl/src/core/lv_obj.c **** {
 421:Drivers/lvgl/src/core/lv_obj.c ****     LV_UNUSED(class_p);
 422:Drivers/lvgl/src/core/lv_obj.c ****     LV_TRACE_OBJ_CREATE("begin");
 423:Drivers/lvgl/src/core/lv_obj.c **** 
 424:Drivers/lvgl/src/core/lv_obj.c ****     lv_obj_t * parent = obj->parent;
 425:Drivers/lvgl/src/core/lv_obj.c ****     if(parent) {
 426:Drivers/lvgl/src/core/lv_obj.c ****         lv_coord_t sl = lv_obj_get_scroll_left(parent);
 427:Drivers/lvgl/src/core/lv_obj.c ****         lv_coord_t st = lv_obj_get_scroll_top(parent);
 428:Drivers/lvgl/src/core/lv_obj.c **** 
 429:Drivers/lvgl/src/core/lv_obj.c ****         obj->coords.y1 = parent->coords.y1 + lv_obj_get_style_pad_top(parent, LV_PART_MAIN) - st;
ARM GAS  /var/folders/0z/tsy30v1j4xl4_7kw94k978ww0000gn/T//ccVt8IXl.s 			page 9


 430:Drivers/lvgl/src/core/lv_obj.c ****         obj->coords.y2 = obj->coords.y1 - 1;
 431:Drivers/lvgl/src/core/lv_obj.c ****         obj->coords.x1  = parent->coords.x1 + lv_obj_get_style_pad_left(parent, LV_PART_MAIN) - sl;
 432:Drivers/lvgl/src/core/lv_obj.c ****         obj->coords.x2  = obj->coords.x1 - 1;
 433:Drivers/lvgl/src/core/lv_obj.c ****     }
 434:Drivers/lvgl/src/core/lv_obj.c **** 
 435:Drivers/lvgl/src/core/lv_obj.c ****     /*Set attributes*/
 436:Drivers/lvgl/src/core/lv_obj.c ****     obj->flags = LV_OBJ_FLAG_CLICKABLE;
 437:Drivers/lvgl/src/core/lv_obj.c ****     obj->flags |= LV_OBJ_FLAG_SNAPPABLE;
 438:Drivers/lvgl/src/core/lv_obj.c ****     if(parent) obj->flags |= LV_OBJ_FLAG_PRESS_LOCK;
 439:Drivers/lvgl/src/core/lv_obj.c ****     if(parent) obj->flags |= LV_OBJ_FLAG_SCROLL_CHAIN;
 440:Drivers/lvgl/src/core/lv_obj.c ****     obj->flags |= LV_OBJ_FLAG_CLICK_FOCUSABLE;
 441:Drivers/lvgl/src/core/lv_obj.c ****     obj->flags |= LV_OBJ_FLAG_SCROLLABLE;
 442:Drivers/lvgl/src/core/lv_obj.c ****     obj->flags |= LV_OBJ_FLAG_SCROLL_ELASTIC;
 443:Drivers/lvgl/src/core/lv_obj.c ****     obj->flags |= LV_OBJ_FLAG_SCROLL_MOMENTUM;
 444:Drivers/lvgl/src/core/lv_obj.c ****     obj->flags |= LV_OBJ_FLAG_SCROLL_WITH_ARROW;
 445:Drivers/lvgl/src/core/lv_obj.c ****     if(parent) obj->flags |= LV_OBJ_FLAG_GESTURE_BUBBLE;
 446:Drivers/lvgl/src/core/lv_obj.c **** 
 447:Drivers/lvgl/src/core/lv_obj.c ****     LV_TRACE_OBJ_CREATE("finished");
 448:Drivers/lvgl/src/core/lv_obj.c **** }
 449:Drivers/lvgl/src/core/lv_obj.c **** 
 450:Drivers/lvgl/src/core/lv_obj.c **** static void lv_obj_destructor(const lv_obj_class_t * class_p, lv_obj_t * obj)
 451:Drivers/lvgl/src/core/lv_obj.c **** {
 452:Drivers/lvgl/src/core/lv_obj.c ****     LV_UNUSED(class_p);
 453:Drivers/lvgl/src/core/lv_obj.c **** 
 454:Drivers/lvgl/src/core/lv_obj.c ****     _lv_event_mark_deleted(obj);
 455:Drivers/lvgl/src/core/lv_obj.c **** 
 456:Drivers/lvgl/src/core/lv_obj.c ****     /*Remove all style*/
 457:Drivers/lvgl/src/core/lv_obj.c ****     lv_obj_enable_style_refresh(false); /*No need to refresh the style because the object will be d
 458:Drivers/lvgl/src/core/lv_obj.c ****     lv_obj_remove_style_all(obj);
 459:Drivers/lvgl/src/core/lv_obj.c ****     lv_obj_enable_style_refresh(true);
 460:Drivers/lvgl/src/core/lv_obj.c **** 
 461:Drivers/lvgl/src/core/lv_obj.c ****     /*Remove the animations from this object*/
 462:Drivers/lvgl/src/core/lv_obj.c ****     lv_anim_del(obj, NULL);
 463:Drivers/lvgl/src/core/lv_obj.c **** 
 464:Drivers/lvgl/src/core/lv_obj.c ****     /*Delete from the group*/
 465:Drivers/lvgl/src/core/lv_obj.c ****     lv_group_t * group = lv_obj_get_group(obj);
 466:Drivers/lvgl/src/core/lv_obj.c ****     if(group) lv_group_remove_obj(obj);
 467:Drivers/lvgl/src/core/lv_obj.c **** 
 468:Drivers/lvgl/src/core/lv_obj.c ****     if(obj->spec_attr) {
 469:Drivers/lvgl/src/core/lv_obj.c ****         if(obj->spec_attr->children) {
 470:Drivers/lvgl/src/core/lv_obj.c ****             lv_mem_free(obj->spec_attr->children);
 471:Drivers/lvgl/src/core/lv_obj.c ****             obj->spec_attr->children = NULL;
 472:Drivers/lvgl/src/core/lv_obj.c ****         }
 473:Drivers/lvgl/src/core/lv_obj.c ****         if(obj->spec_attr->event_dsc) {
 474:Drivers/lvgl/src/core/lv_obj.c ****             lv_mem_free(obj->spec_attr->event_dsc);
 475:Drivers/lvgl/src/core/lv_obj.c ****             obj->spec_attr->event_dsc = NULL;
 476:Drivers/lvgl/src/core/lv_obj.c ****         }
 477:Drivers/lvgl/src/core/lv_obj.c **** 
 478:Drivers/lvgl/src/core/lv_obj.c ****         lv_mem_free(obj->spec_attr);
 479:Drivers/lvgl/src/core/lv_obj.c ****         obj->spec_attr = NULL;
 480:Drivers/lvgl/src/core/lv_obj.c ****     }
 481:Drivers/lvgl/src/core/lv_obj.c **** }
 482:Drivers/lvgl/src/core/lv_obj.c **** 
 483:Drivers/lvgl/src/core/lv_obj.c **** static void lv_obj_draw(lv_event_t * e)
 484:Drivers/lvgl/src/core/lv_obj.c **** {
 485:Drivers/lvgl/src/core/lv_obj.c ****     lv_event_code_t code = lv_event_get_code(e);
 486:Drivers/lvgl/src/core/lv_obj.c ****     lv_obj_t * obj = lv_event_get_target(e);
ARM GAS  /var/folders/0z/tsy30v1j4xl4_7kw94k978ww0000gn/T//ccVt8IXl.s 			page 10


 487:Drivers/lvgl/src/core/lv_obj.c ****     if(code == LV_EVENT_COVER_CHECK) {
 488:Drivers/lvgl/src/core/lv_obj.c ****         lv_cover_check_info_t * info = lv_event_get_param(e);
 489:Drivers/lvgl/src/core/lv_obj.c ****         if(info->res == LV_COVER_RES_MASKED) return;
 490:Drivers/lvgl/src/core/lv_obj.c ****         if(lv_obj_get_style_clip_corner(obj, LV_PART_MAIN)) {
 491:Drivers/lvgl/src/core/lv_obj.c ****             info->res = LV_COVER_RES_MASKED;
 492:Drivers/lvgl/src/core/lv_obj.c ****             return;
 493:Drivers/lvgl/src/core/lv_obj.c ****         }
 494:Drivers/lvgl/src/core/lv_obj.c **** 
 495:Drivers/lvgl/src/core/lv_obj.c ****         /*Most trivial test. Is the mask fully IN the object? If no it surely doesn't cover it*/
 496:Drivers/lvgl/src/core/lv_obj.c ****         lv_coord_t r = lv_obj_get_style_radius(obj, LV_PART_MAIN);
 497:Drivers/lvgl/src/core/lv_obj.c ****         lv_coord_t w = lv_obj_get_style_transform_width(obj, LV_PART_MAIN);
 498:Drivers/lvgl/src/core/lv_obj.c ****         lv_coord_t h = lv_obj_get_style_transform_height(obj, LV_PART_MAIN);
 499:Drivers/lvgl/src/core/lv_obj.c ****         lv_area_t coords;
 500:Drivers/lvgl/src/core/lv_obj.c ****         lv_area_copy(&coords, &obj->coords);
 501:Drivers/lvgl/src/core/lv_obj.c ****         coords.x1 -= w;
 502:Drivers/lvgl/src/core/lv_obj.c ****         coords.x2 += w;
 503:Drivers/lvgl/src/core/lv_obj.c ****         coords.y1 -= h;
 504:Drivers/lvgl/src/core/lv_obj.c ****         coords.y2 += h;
 505:Drivers/lvgl/src/core/lv_obj.c **** 
 506:Drivers/lvgl/src/core/lv_obj.c ****         if(_lv_area_is_in(info->area, &coords, r) == false) {
 507:Drivers/lvgl/src/core/lv_obj.c ****             info->res = LV_COVER_RES_NOT_COVER;
 508:Drivers/lvgl/src/core/lv_obj.c ****             return;
 509:Drivers/lvgl/src/core/lv_obj.c ****         }
 510:Drivers/lvgl/src/core/lv_obj.c **** 
 511:Drivers/lvgl/src/core/lv_obj.c ****         if(lv_obj_get_style_bg_opa(obj, LV_PART_MAIN) < LV_OPA_MAX) {
 512:Drivers/lvgl/src/core/lv_obj.c ****             info->res = LV_COVER_RES_NOT_COVER;
 513:Drivers/lvgl/src/core/lv_obj.c ****             return;
 514:Drivers/lvgl/src/core/lv_obj.c ****         }
 515:Drivers/lvgl/src/core/lv_obj.c **** 
 516:Drivers/lvgl/src/core/lv_obj.c ****         if(lv_obj_get_style_opa(obj, LV_PART_MAIN) < LV_OPA_MAX) {
 517:Drivers/lvgl/src/core/lv_obj.c ****             info->res = LV_COVER_RES_NOT_COVER;
 518:Drivers/lvgl/src/core/lv_obj.c ****             return;
 519:Drivers/lvgl/src/core/lv_obj.c ****         }
 520:Drivers/lvgl/src/core/lv_obj.c **** 
 521:Drivers/lvgl/src/core/lv_obj.c ****         info->res = LV_COVER_RES_COVER;
 522:Drivers/lvgl/src/core/lv_obj.c **** 
 523:Drivers/lvgl/src/core/lv_obj.c ****     }
 524:Drivers/lvgl/src/core/lv_obj.c ****     else if(code == LV_EVENT_DRAW_MAIN) {
 525:Drivers/lvgl/src/core/lv_obj.c ****         lv_draw_ctx_t * draw_ctx = lv_event_get_draw_ctx(e);
 526:Drivers/lvgl/src/core/lv_obj.c ****         lv_draw_rect_dsc_t draw_dsc;
 527:Drivers/lvgl/src/core/lv_obj.c ****         lv_draw_rect_dsc_init(&draw_dsc);
 528:Drivers/lvgl/src/core/lv_obj.c ****         /*If the border is drawn later disable loading its properties*/
 529:Drivers/lvgl/src/core/lv_obj.c ****         if(lv_obj_get_style_border_post(obj, LV_PART_MAIN)) {
 530:Drivers/lvgl/src/core/lv_obj.c ****             draw_dsc.border_post = 1;
 531:Drivers/lvgl/src/core/lv_obj.c ****         }
 532:Drivers/lvgl/src/core/lv_obj.c **** 
 533:Drivers/lvgl/src/core/lv_obj.c ****         lv_obj_init_draw_rect_dsc(obj, LV_PART_MAIN, &draw_dsc);
 534:Drivers/lvgl/src/core/lv_obj.c ****         lv_coord_t w = lv_obj_get_style_transform_width(obj, LV_PART_MAIN);
 535:Drivers/lvgl/src/core/lv_obj.c ****         lv_coord_t h = lv_obj_get_style_transform_height(obj, LV_PART_MAIN);
 536:Drivers/lvgl/src/core/lv_obj.c ****         lv_area_t coords;
 537:Drivers/lvgl/src/core/lv_obj.c ****         lv_area_copy(&coords, &obj->coords);
 538:Drivers/lvgl/src/core/lv_obj.c ****         coords.x1 -= w;
 539:Drivers/lvgl/src/core/lv_obj.c ****         coords.x2 += w;
 540:Drivers/lvgl/src/core/lv_obj.c ****         coords.y1 -= h;
 541:Drivers/lvgl/src/core/lv_obj.c ****         coords.y2 += h;
 542:Drivers/lvgl/src/core/lv_obj.c **** 
 543:Drivers/lvgl/src/core/lv_obj.c ****         lv_obj_draw_part_dsc_t part_dsc;
ARM GAS  /var/folders/0z/tsy30v1j4xl4_7kw94k978ww0000gn/T//ccVt8IXl.s 			page 11


 544:Drivers/lvgl/src/core/lv_obj.c ****         lv_obj_draw_dsc_init(&part_dsc, draw_ctx);
 545:Drivers/lvgl/src/core/lv_obj.c ****         part_dsc.class_p = MY_CLASS;
 546:Drivers/lvgl/src/core/lv_obj.c ****         part_dsc.type = LV_OBJ_DRAW_PART_RECTANGLE;
 547:Drivers/lvgl/src/core/lv_obj.c ****         part_dsc.rect_dsc = &draw_dsc;
 548:Drivers/lvgl/src/core/lv_obj.c ****         part_dsc.draw_area = &coords;
 549:Drivers/lvgl/src/core/lv_obj.c ****         part_dsc.part = LV_PART_MAIN;
 550:Drivers/lvgl/src/core/lv_obj.c ****         lv_event_send(obj, LV_EVENT_DRAW_PART_BEGIN, &part_dsc);
 551:Drivers/lvgl/src/core/lv_obj.c **** 
 552:Drivers/lvgl/src/core/lv_obj.c **** #if LV_DRAW_COMPLEX
 553:Drivers/lvgl/src/core/lv_obj.c ****         /*With clip corner enabled draw the bg img separately to make it clipped*/
 554:Drivers/lvgl/src/core/lv_obj.c ****         bool clip_corner = (lv_obj_get_style_clip_corner(obj, LV_PART_MAIN) && draw_dsc.radius != 0
 555:Drivers/lvgl/src/core/lv_obj.c ****         const void * bg_img_src = draw_dsc.bg_img_src;
 556:Drivers/lvgl/src/core/lv_obj.c ****         if(clip_corner) {
 557:Drivers/lvgl/src/core/lv_obj.c ****             draw_dsc.bg_img_src = NULL;
 558:Drivers/lvgl/src/core/lv_obj.c ****         }
 559:Drivers/lvgl/src/core/lv_obj.c **** #endif
 560:Drivers/lvgl/src/core/lv_obj.c **** 
 561:Drivers/lvgl/src/core/lv_obj.c ****         lv_draw_rect(draw_ctx, &draw_dsc, &coords);
 562:Drivers/lvgl/src/core/lv_obj.c **** 
 563:Drivers/lvgl/src/core/lv_obj.c **** 
 564:Drivers/lvgl/src/core/lv_obj.c **** #if LV_DRAW_COMPLEX
 565:Drivers/lvgl/src/core/lv_obj.c ****         if(clip_corner) {
 566:Drivers/lvgl/src/core/lv_obj.c ****             lv_draw_mask_radius_param_t * mp = lv_mem_buf_get(sizeof(lv_draw_mask_radius_param_t));
 567:Drivers/lvgl/src/core/lv_obj.c ****             lv_draw_mask_radius_init(mp, &obj->coords, draw_dsc.radius, false);
 568:Drivers/lvgl/src/core/lv_obj.c ****             /*Add the mask and use `obj+8` as custom id. Don't use `obj` directly because it might 
 569:Drivers/lvgl/src/core/lv_obj.c ****             lv_draw_mask_add(mp, obj + 8);
 570:Drivers/lvgl/src/core/lv_obj.c **** 
 571:Drivers/lvgl/src/core/lv_obj.c ****             if(bg_img_src) {
 572:Drivers/lvgl/src/core/lv_obj.c ****                 draw_dsc.bg_opa = LV_OPA_TRANSP;
 573:Drivers/lvgl/src/core/lv_obj.c ****                 draw_dsc.border_opa = LV_OPA_TRANSP;
 574:Drivers/lvgl/src/core/lv_obj.c ****                 draw_dsc.outline_opa = LV_OPA_TRANSP;
 575:Drivers/lvgl/src/core/lv_obj.c ****                 draw_dsc.shadow_opa = LV_OPA_TRANSP;
 576:Drivers/lvgl/src/core/lv_obj.c ****                 draw_dsc.bg_img_src = bg_img_src;
 577:Drivers/lvgl/src/core/lv_obj.c ****                 lv_draw_rect(draw_ctx, &draw_dsc, &coords);
 578:Drivers/lvgl/src/core/lv_obj.c ****             }
 579:Drivers/lvgl/src/core/lv_obj.c **** 
 580:Drivers/lvgl/src/core/lv_obj.c ****         }
 581:Drivers/lvgl/src/core/lv_obj.c **** #endif
 582:Drivers/lvgl/src/core/lv_obj.c ****         lv_event_send(obj, LV_EVENT_DRAW_PART_END, &part_dsc);
 583:Drivers/lvgl/src/core/lv_obj.c ****     }
 584:Drivers/lvgl/src/core/lv_obj.c ****     else if(code == LV_EVENT_DRAW_POST) {
 585:Drivers/lvgl/src/core/lv_obj.c ****         lv_draw_ctx_t * draw_ctx = lv_event_get_draw_ctx(e);
 586:Drivers/lvgl/src/core/lv_obj.c ****         draw_scrollbar(obj, draw_ctx);
 587:Drivers/lvgl/src/core/lv_obj.c **** 
 588:Drivers/lvgl/src/core/lv_obj.c **** #if LV_DRAW_COMPLEX
 589:Drivers/lvgl/src/core/lv_obj.c ****         if(lv_obj_get_style_clip_corner(obj, LV_PART_MAIN)) {
 590:Drivers/lvgl/src/core/lv_obj.c ****             lv_draw_mask_radius_param_t * param = lv_draw_mask_remove_custom(obj + 8);
 591:Drivers/lvgl/src/core/lv_obj.c ****             if(param) {
 592:Drivers/lvgl/src/core/lv_obj.c ****                 lv_draw_mask_free_param(param);
 593:Drivers/lvgl/src/core/lv_obj.c ****                 lv_mem_buf_release(param);
 594:Drivers/lvgl/src/core/lv_obj.c ****             }
 595:Drivers/lvgl/src/core/lv_obj.c ****         }
 596:Drivers/lvgl/src/core/lv_obj.c **** #endif
 597:Drivers/lvgl/src/core/lv_obj.c **** 
 598:Drivers/lvgl/src/core/lv_obj.c ****         /*If the border is drawn later disable loading other properties*/
 599:Drivers/lvgl/src/core/lv_obj.c ****         if(lv_obj_get_style_border_post(obj, LV_PART_MAIN)) {
 600:Drivers/lvgl/src/core/lv_obj.c ****             lv_draw_rect_dsc_t draw_dsc;
ARM GAS  /var/folders/0z/tsy30v1j4xl4_7kw94k978ww0000gn/T//ccVt8IXl.s 			page 12


 601:Drivers/lvgl/src/core/lv_obj.c ****             lv_draw_rect_dsc_init(&draw_dsc);
 602:Drivers/lvgl/src/core/lv_obj.c ****             draw_dsc.bg_opa = LV_OPA_TRANSP;
 603:Drivers/lvgl/src/core/lv_obj.c ****             draw_dsc.bg_img_opa = LV_OPA_TRANSP;
 604:Drivers/lvgl/src/core/lv_obj.c ****             draw_dsc.outline_opa = LV_OPA_TRANSP;
 605:Drivers/lvgl/src/core/lv_obj.c ****             draw_dsc.shadow_opa = LV_OPA_TRANSP;
 606:Drivers/lvgl/src/core/lv_obj.c ****             lv_obj_init_draw_rect_dsc(obj, LV_PART_MAIN, &draw_dsc);
 607:Drivers/lvgl/src/core/lv_obj.c **** 
 608:Drivers/lvgl/src/core/lv_obj.c ****             lv_coord_t w = lv_obj_get_style_transform_width(obj, LV_PART_MAIN);
 609:Drivers/lvgl/src/core/lv_obj.c ****             lv_coord_t h = lv_obj_get_style_transform_height(obj, LV_PART_MAIN);
 610:Drivers/lvgl/src/core/lv_obj.c ****             lv_area_t coords;
 611:Drivers/lvgl/src/core/lv_obj.c ****             lv_area_copy(&coords, &obj->coords);
 612:Drivers/lvgl/src/core/lv_obj.c ****             coords.x1 -= w;
 613:Drivers/lvgl/src/core/lv_obj.c ****             coords.x2 += w;
 614:Drivers/lvgl/src/core/lv_obj.c ****             coords.y1 -= h;
 615:Drivers/lvgl/src/core/lv_obj.c ****             coords.y2 += h;
 616:Drivers/lvgl/src/core/lv_obj.c **** 
 617:Drivers/lvgl/src/core/lv_obj.c ****             lv_obj_draw_part_dsc_t part_dsc;
 618:Drivers/lvgl/src/core/lv_obj.c ****             lv_obj_draw_dsc_init(&part_dsc, draw_ctx);
 619:Drivers/lvgl/src/core/lv_obj.c ****             part_dsc.class_p = MY_CLASS;
 620:Drivers/lvgl/src/core/lv_obj.c ****             part_dsc.type = LV_OBJ_DRAW_PART_BORDER_POST;
 621:Drivers/lvgl/src/core/lv_obj.c ****             part_dsc.rect_dsc = &draw_dsc;
 622:Drivers/lvgl/src/core/lv_obj.c ****             part_dsc.draw_area = &coords;
 623:Drivers/lvgl/src/core/lv_obj.c ****             part_dsc.part = LV_PART_MAIN;
 624:Drivers/lvgl/src/core/lv_obj.c ****             lv_event_send(obj, LV_EVENT_DRAW_PART_BEGIN, &part_dsc);
 625:Drivers/lvgl/src/core/lv_obj.c **** 
 626:Drivers/lvgl/src/core/lv_obj.c ****             lv_draw_rect(draw_ctx, &draw_dsc, &coords);
 627:Drivers/lvgl/src/core/lv_obj.c ****             lv_event_send(obj, LV_EVENT_DRAW_PART_END, &part_dsc);
 628:Drivers/lvgl/src/core/lv_obj.c ****         }
 629:Drivers/lvgl/src/core/lv_obj.c ****     }
 630:Drivers/lvgl/src/core/lv_obj.c **** }
 631:Drivers/lvgl/src/core/lv_obj.c **** 
 632:Drivers/lvgl/src/core/lv_obj.c **** static void draw_scrollbar(lv_obj_t * obj, lv_draw_ctx_t * draw_ctx)
 633:Drivers/lvgl/src/core/lv_obj.c **** {
 634:Drivers/lvgl/src/core/lv_obj.c **** 
 635:Drivers/lvgl/src/core/lv_obj.c ****     lv_area_t hor_area;
 636:Drivers/lvgl/src/core/lv_obj.c ****     lv_area_t ver_area;
 637:Drivers/lvgl/src/core/lv_obj.c ****     lv_obj_get_scrollbar_area(obj, &hor_area, &ver_area);
 638:Drivers/lvgl/src/core/lv_obj.c **** 
 639:Drivers/lvgl/src/core/lv_obj.c ****     if(lv_area_get_size(&hor_area) <= 0 && lv_area_get_size(&ver_area) <= 0) return;
 640:Drivers/lvgl/src/core/lv_obj.c **** 
 641:Drivers/lvgl/src/core/lv_obj.c ****     lv_draw_rect_dsc_t draw_dsc;
 642:Drivers/lvgl/src/core/lv_obj.c ****     lv_res_t sb_res = scrollbar_init_draw_dsc(obj, &draw_dsc);
 643:Drivers/lvgl/src/core/lv_obj.c ****     if(sb_res != LV_RES_OK) return;
 644:Drivers/lvgl/src/core/lv_obj.c **** 
 645:Drivers/lvgl/src/core/lv_obj.c ****     lv_obj_draw_part_dsc_t part_dsc;
 646:Drivers/lvgl/src/core/lv_obj.c ****     lv_obj_draw_dsc_init(&part_dsc, draw_ctx);
 647:Drivers/lvgl/src/core/lv_obj.c ****     part_dsc.class_p = MY_CLASS;
 648:Drivers/lvgl/src/core/lv_obj.c ****     part_dsc.type = LV_OBJ_DRAW_PART_SCROLLBAR;
 649:Drivers/lvgl/src/core/lv_obj.c ****     part_dsc.rect_dsc = &draw_dsc;
 650:Drivers/lvgl/src/core/lv_obj.c ****     part_dsc.part = LV_PART_SCROLLBAR;
 651:Drivers/lvgl/src/core/lv_obj.c **** 
 652:Drivers/lvgl/src/core/lv_obj.c ****     if(lv_area_get_size(&hor_area) > 0) {
 653:Drivers/lvgl/src/core/lv_obj.c ****         part_dsc.draw_area = &hor_area;
 654:Drivers/lvgl/src/core/lv_obj.c ****         lv_event_send(obj, LV_EVENT_DRAW_PART_BEGIN, &part_dsc);
 655:Drivers/lvgl/src/core/lv_obj.c ****         lv_draw_rect(draw_ctx, &draw_dsc, &hor_area);
 656:Drivers/lvgl/src/core/lv_obj.c ****         lv_event_send(obj, LV_EVENT_DRAW_PART_END, &part_dsc);
 657:Drivers/lvgl/src/core/lv_obj.c ****     }
ARM GAS  /var/folders/0z/tsy30v1j4xl4_7kw94k978ww0000gn/T//ccVt8IXl.s 			page 13


 658:Drivers/lvgl/src/core/lv_obj.c ****     if(lv_area_get_size(&ver_area) > 0) {
 659:Drivers/lvgl/src/core/lv_obj.c ****         part_dsc.draw_area = &ver_area;
 660:Drivers/lvgl/src/core/lv_obj.c ****         lv_event_send(obj, LV_EVENT_DRAW_PART_BEGIN, &part_dsc);
 661:Drivers/lvgl/src/core/lv_obj.c ****         part_dsc.draw_area = &ver_area;
 662:Drivers/lvgl/src/core/lv_obj.c ****         lv_draw_rect(draw_ctx, &draw_dsc, &ver_area);
 663:Drivers/lvgl/src/core/lv_obj.c ****         lv_event_send(obj, LV_EVENT_DRAW_PART_END, &part_dsc);
 664:Drivers/lvgl/src/core/lv_obj.c ****     }
 665:Drivers/lvgl/src/core/lv_obj.c **** }
 666:Drivers/lvgl/src/core/lv_obj.c **** 
 667:Drivers/lvgl/src/core/lv_obj.c **** /**
 668:Drivers/lvgl/src/core/lv_obj.c ****  * Initialize the draw descriptor for the scrollbar
 669:Drivers/lvgl/src/core/lv_obj.c ****  * @param obj pointer to an object
 670:Drivers/lvgl/src/core/lv_obj.c ****  * @param dsc the draw descriptor to initialize
 671:Drivers/lvgl/src/core/lv_obj.c ****  * @return LV_RES_OK: the scrollbar is visible; LV_RES_INV: the scrollbar is not visible
 672:Drivers/lvgl/src/core/lv_obj.c ****  */
 673:Drivers/lvgl/src/core/lv_obj.c **** static lv_res_t scrollbar_init_draw_dsc(lv_obj_t * obj, lv_draw_rect_dsc_t * dsc)
 674:Drivers/lvgl/src/core/lv_obj.c **** {
 675:Drivers/lvgl/src/core/lv_obj.c ****     lv_draw_rect_dsc_init(dsc);
 676:Drivers/lvgl/src/core/lv_obj.c ****     dsc->bg_opa = lv_obj_get_style_bg_opa(obj, LV_PART_SCROLLBAR);
 677:Drivers/lvgl/src/core/lv_obj.c ****     if(dsc->bg_opa > LV_OPA_MIN) {
 678:Drivers/lvgl/src/core/lv_obj.c ****         dsc->bg_color = lv_obj_get_style_bg_color(obj, LV_PART_SCROLLBAR);
 679:Drivers/lvgl/src/core/lv_obj.c ****     }
 680:Drivers/lvgl/src/core/lv_obj.c **** 
 681:Drivers/lvgl/src/core/lv_obj.c ****     dsc->border_opa = lv_obj_get_style_border_opa(obj, LV_PART_SCROLLBAR);
 682:Drivers/lvgl/src/core/lv_obj.c ****     if(dsc->border_opa > LV_OPA_MIN) {
 683:Drivers/lvgl/src/core/lv_obj.c ****         dsc->border_width = lv_obj_get_style_border_width(obj, LV_PART_SCROLLBAR);
 684:Drivers/lvgl/src/core/lv_obj.c ****         if(dsc->border_width > 0) {
 685:Drivers/lvgl/src/core/lv_obj.c ****             dsc->border_color = lv_obj_get_style_border_color(obj, LV_PART_SCROLLBAR);
 686:Drivers/lvgl/src/core/lv_obj.c ****         }
 687:Drivers/lvgl/src/core/lv_obj.c ****         else {
 688:Drivers/lvgl/src/core/lv_obj.c ****             dsc->border_opa = LV_OPA_TRANSP;
 689:Drivers/lvgl/src/core/lv_obj.c ****         }
 690:Drivers/lvgl/src/core/lv_obj.c ****     }
 691:Drivers/lvgl/src/core/lv_obj.c **** 
 692:Drivers/lvgl/src/core/lv_obj.c **** #if LV_DRAW_COMPLEX
 693:Drivers/lvgl/src/core/lv_obj.c ****     dsc->shadow_opa = lv_obj_get_style_shadow_opa(obj, LV_PART_SCROLLBAR);
 694:Drivers/lvgl/src/core/lv_obj.c ****     if(dsc->shadow_opa > LV_OPA_MIN) {
 695:Drivers/lvgl/src/core/lv_obj.c ****         dsc->shadow_width = lv_obj_get_style_shadow_width(obj, LV_PART_SCROLLBAR);
 696:Drivers/lvgl/src/core/lv_obj.c ****         if(dsc->shadow_width > 0) {
 697:Drivers/lvgl/src/core/lv_obj.c ****             dsc->shadow_spread = lv_obj_get_style_shadow_spread(obj, LV_PART_SCROLLBAR);
 698:Drivers/lvgl/src/core/lv_obj.c ****             dsc->shadow_color = lv_obj_get_style_shadow_color(obj, LV_PART_SCROLLBAR);
 699:Drivers/lvgl/src/core/lv_obj.c ****         }
 700:Drivers/lvgl/src/core/lv_obj.c ****         else {
 701:Drivers/lvgl/src/core/lv_obj.c ****             dsc->shadow_opa = LV_OPA_TRANSP;
 702:Drivers/lvgl/src/core/lv_obj.c ****         }
 703:Drivers/lvgl/src/core/lv_obj.c ****     }
 704:Drivers/lvgl/src/core/lv_obj.c **** 
 705:Drivers/lvgl/src/core/lv_obj.c ****     lv_opa_t opa = lv_obj_get_style_opa_recursive(obj, LV_PART_SCROLLBAR);
 706:Drivers/lvgl/src/core/lv_obj.c ****     if(opa < LV_OPA_MAX) {
 707:Drivers/lvgl/src/core/lv_obj.c ****         dsc->bg_opa = (dsc->bg_opa * opa) >> 8;
 708:Drivers/lvgl/src/core/lv_obj.c ****         dsc->border_opa = (dsc->bg_opa * opa) >> 8;
 709:Drivers/lvgl/src/core/lv_obj.c ****         dsc->shadow_opa = (dsc->bg_opa * opa) >> 8;
 710:Drivers/lvgl/src/core/lv_obj.c ****     }
 711:Drivers/lvgl/src/core/lv_obj.c **** 
 712:Drivers/lvgl/src/core/lv_obj.c ****     if(dsc->bg_opa != LV_OPA_TRANSP || dsc->border_opa != LV_OPA_TRANSP || dsc->shadow_opa != LV_OP
 713:Drivers/lvgl/src/core/lv_obj.c ****         dsc->radius = lv_obj_get_style_radius(obj, LV_PART_SCROLLBAR);
 714:Drivers/lvgl/src/core/lv_obj.c ****         return LV_RES_OK;
ARM GAS  /var/folders/0z/tsy30v1j4xl4_7kw94k978ww0000gn/T//ccVt8IXl.s 			page 14


 715:Drivers/lvgl/src/core/lv_obj.c ****     }
 716:Drivers/lvgl/src/core/lv_obj.c ****     else {
 717:Drivers/lvgl/src/core/lv_obj.c ****         return LV_RES_INV;
 718:Drivers/lvgl/src/core/lv_obj.c ****     }
 719:Drivers/lvgl/src/core/lv_obj.c **** #else
 720:Drivers/lvgl/src/core/lv_obj.c ****     if(dsc->bg_opa != LV_OPA_TRANSP || dsc->border_opa != LV_OPA_TRANSP) return LV_RES_OK;
 721:Drivers/lvgl/src/core/lv_obj.c ****     else return LV_RES_INV;
 722:Drivers/lvgl/src/core/lv_obj.c **** #endif
 723:Drivers/lvgl/src/core/lv_obj.c **** }
 724:Drivers/lvgl/src/core/lv_obj.c **** 
 725:Drivers/lvgl/src/core/lv_obj.c **** static void lv_obj_event(const lv_obj_class_t * class_p, lv_event_t * e)
 726:Drivers/lvgl/src/core/lv_obj.c **** {
 727:Drivers/lvgl/src/core/lv_obj.c ****     LV_UNUSED(class_p);
 728:Drivers/lvgl/src/core/lv_obj.c **** 
 729:Drivers/lvgl/src/core/lv_obj.c ****     lv_event_code_t code = lv_event_get_code(e);
 730:Drivers/lvgl/src/core/lv_obj.c ****     lv_obj_t * obj = lv_event_get_current_target(e);
 731:Drivers/lvgl/src/core/lv_obj.c ****     if(code == LV_EVENT_PRESSED) {
 732:Drivers/lvgl/src/core/lv_obj.c ****         lv_obj_add_state(obj, LV_STATE_PRESSED);
 733:Drivers/lvgl/src/core/lv_obj.c ****     }
 734:Drivers/lvgl/src/core/lv_obj.c ****     else if(code == LV_EVENT_RELEASED) {
 735:Drivers/lvgl/src/core/lv_obj.c ****         lv_obj_clear_state(obj, LV_STATE_PRESSED);
 736:Drivers/lvgl/src/core/lv_obj.c ****         lv_indev_t * indev = lv_event_get_indev(e);
 737:Drivers/lvgl/src/core/lv_obj.c ****         /*Go the checked state if enabled*/
 738:Drivers/lvgl/src/core/lv_obj.c ****         if(lv_indev_get_scroll_obj(indev) == NULL && lv_obj_has_flag(obj, LV_OBJ_FLAG_CHECKABLE)) {
 739:Drivers/lvgl/src/core/lv_obj.c ****             if(!(lv_obj_get_state(obj) & LV_STATE_CHECKED)) lv_obj_add_state(obj, LV_STATE_CHECKED)
 740:Drivers/lvgl/src/core/lv_obj.c ****             else lv_obj_clear_state(obj, LV_STATE_CHECKED);
 741:Drivers/lvgl/src/core/lv_obj.c **** 
 742:Drivers/lvgl/src/core/lv_obj.c ****             lv_res_t res = lv_event_send(obj, LV_EVENT_VALUE_CHANGED, NULL);
 743:Drivers/lvgl/src/core/lv_obj.c ****             if(res != LV_RES_OK) return;
 744:Drivers/lvgl/src/core/lv_obj.c ****         }
 745:Drivers/lvgl/src/core/lv_obj.c ****     }
 746:Drivers/lvgl/src/core/lv_obj.c ****     else if(code == LV_EVENT_PRESS_LOST) {
 747:Drivers/lvgl/src/core/lv_obj.c ****         lv_obj_clear_state(obj, LV_STATE_PRESSED);
 748:Drivers/lvgl/src/core/lv_obj.c ****     }
 749:Drivers/lvgl/src/core/lv_obj.c ****     else if(code == LV_EVENT_STYLE_CHANGED) {
 750:Drivers/lvgl/src/core/lv_obj.c ****         uint32_t child_cnt = lv_obj_get_child_cnt(obj);
 751:Drivers/lvgl/src/core/lv_obj.c ****         for(uint32_t i = 0; i < child_cnt; i++) {
 752:Drivers/lvgl/src/core/lv_obj.c ****             lv_obj_t * child = obj->spec_attr->children[i];
 753:Drivers/lvgl/src/core/lv_obj.c ****             lv_obj_mark_layout_as_dirty(child);
 754:Drivers/lvgl/src/core/lv_obj.c ****         }
 755:Drivers/lvgl/src/core/lv_obj.c ****     }
 756:Drivers/lvgl/src/core/lv_obj.c ****     else if(code == LV_EVENT_KEY) {
 757:Drivers/lvgl/src/core/lv_obj.c ****         if(lv_obj_has_flag(obj, LV_OBJ_FLAG_CHECKABLE)) {
 758:Drivers/lvgl/src/core/lv_obj.c ****             char c = *((char *)lv_event_get_param(e));
 759:Drivers/lvgl/src/core/lv_obj.c ****             if(c == LV_KEY_RIGHT || c == LV_KEY_UP) {
 760:Drivers/lvgl/src/core/lv_obj.c ****                 lv_obj_add_state(obj, LV_STATE_CHECKED);
 761:Drivers/lvgl/src/core/lv_obj.c ****             }
 762:Drivers/lvgl/src/core/lv_obj.c ****             else if(c == LV_KEY_LEFT || c == LV_KEY_DOWN) {
 763:Drivers/lvgl/src/core/lv_obj.c ****                 lv_obj_clear_state(obj, LV_STATE_CHECKED);
 764:Drivers/lvgl/src/core/lv_obj.c ****             }
 765:Drivers/lvgl/src/core/lv_obj.c **** 
 766:Drivers/lvgl/src/core/lv_obj.c ****             /*With Enter LV_EVENT_RELEASED will send VALUE_CHANGE event*/
 767:Drivers/lvgl/src/core/lv_obj.c ****             if(c != LV_KEY_ENTER) {
 768:Drivers/lvgl/src/core/lv_obj.c ****                 lv_res_t res = lv_event_send(obj, LV_EVENT_VALUE_CHANGED, NULL);
 769:Drivers/lvgl/src/core/lv_obj.c ****                 if(res != LV_RES_OK) return;
 770:Drivers/lvgl/src/core/lv_obj.c ****             }
 771:Drivers/lvgl/src/core/lv_obj.c ****         }
ARM GAS  /var/folders/0z/tsy30v1j4xl4_7kw94k978ww0000gn/T//ccVt8IXl.s 			page 15


 772:Drivers/lvgl/src/core/lv_obj.c ****         else if(lv_obj_has_flag(obj, LV_OBJ_FLAG_SCROLLABLE | LV_OBJ_FLAG_SCROLL_WITH_ARROW) && !lv
 773:Drivers/lvgl/src/core/lv_obj.c ****             /*scroll by keypad or encoder*/
 774:Drivers/lvgl/src/core/lv_obj.c ****             lv_anim_enable_t anim_enable = LV_ANIM_OFF;
 775:Drivers/lvgl/src/core/lv_obj.c ****             lv_coord_t sl = lv_obj_get_scroll_left(obj);
 776:Drivers/lvgl/src/core/lv_obj.c ****             lv_coord_t sr = lv_obj_get_scroll_right(obj);
 777:Drivers/lvgl/src/core/lv_obj.c ****             char c = *((char *)lv_event_get_param(e));
 778:Drivers/lvgl/src/core/lv_obj.c ****             if(c == LV_KEY_DOWN) {
 779:Drivers/lvgl/src/core/lv_obj.c ****                 /*use scroll_to_x/y functions to enforce scroll limits*/
 780:Drivers/lvgl/src/core/lv_obj.c ****                 lv_obj_scroll_to_y(obj, lv_obj_get_scroll_y(obj) + lv_obj_get_height(obj) / 4, anim
 781:Drivers/lvgl/src/core/lv_obj.c ****             }
 782:Drivers/lvgl/src/core/lv_obj.c ****             else if(c == LV_KEY_UP) {
 783:Drivers/lvgl/src/core/lv_obj.c ****                 lv_obj_scroll_to_y(obj, lv_obj_get_scroll_y(obj) - lv_obj_get_height(obj) / 4, anim
 784:Drivers/lvgl/src/core/lv_obj.c ****             }
 785:Drivers/lvgl/src/core/lv_obj.c ****             else if(c == LV_KEY_RIGHT) {
 786:Drivers/lvgl/src/core/lv_obj.c ****                 /*If the object can't be scrolled horizontally then scroll it vertically*/
 787:Drivers/lvgl/src/core/lv_obj.c ****                 if(!((lv_obj_get_scroll_dir(obj) & LV_DIR_HOR) && (sl > 0 || sr > 0)))
 788:Drivers/lvgl/src/core/lv_obj.c ****                     lv_obj_scroll_to_y(obj, lv_obj_get_scroll_y(obj) + lv_obj_get_height(obj) / 4, 
 789:Drivers/lvgl/src/core/lv_obj.c ****                 else
 790:Drivers/lvgl/src/core/lv_obj.c ****                     lv_obj_scroll_to_x(obj, lv_obj_get_scroll_x(obj) + lv_obj_get_width(obj) / 4, a
 791:Drivers/lvgl/src/core/lv_obj.c ****             }
 792:Drivers/lvgl/src/core/lv_obj.c ****             else if(c == LV_KEY_LEFT) {
 793:Drivers/lvgl/src/core/lv_obj.c ****                 /*If the object can't be scrolled horizontally then scroll it vertically*/
 794:Drivers/lvgl/src/core/lv_obj.c ****                 if(!((lv_obj_get_scroll_dir(obj) & LV_DIR_HOR) && (sl > 0 || sr > 0)))
 795:Drivers/lvgl/src/core/lv_obj.c ****                     lv_obj_scroll_to_y(obj, lv_obj_get_scroll_y(obj) - lv_obj_get_height(obj) / 4, 
 796:Drivers/lvgl/src/core/lv_obj.c ****                 else
 797:Drivers/lvgl/src/core/lv_obj.c ****                     lv_obj_scroll_to_x(obj, lv_obj_get_scroll_x(obj) - lv_obj_get_width(obj) / 4, a
 798:Drivers/lvgl/src/core/lv_obj.c ****             }
 799:Drivers/lvgl/src/core/lv_obj.c ****         }
 800:Drivers/lvgl/src/core/lv_obj.c ****     }
 801:Drivers/lvgl/src/core/lv_obj.c ****     else if(code == LV_EVENT_FOCUSED) {
 802:Drivers/lvgl/src/core/lv_obj.c ****         if(lv_obj_has_flag(obj, LV_OBJ_FLAG_SCROLL_ON_FOCUS)) {
 803:Drivers/lvgl/src/core/lv_obj.c ****             lv_obj_scroll_to_view_recursive(obj, LV_ANIM_ON);
 804:Drivers/lvgl/src/core/lv_obj.c ****         }
 805:Drivers/lvgl/src/core/lv_obj.c **** 
 806:Drivers/lvgl/src/core/lv_obj.c ****         bool editing = false;
 807:Drivers/lvgl/src/core/lv_obj.c ****         editing = lv_group_get_editing(lv_obj_get_group(obj));
 808:Drivers/lvgl/src/core/lv_obj.c ****         lv_state_t state = LV_STATE_FOCUSED;
 809:Drivers/lvgl/src/core/lv_obj.c **** 
 810:Drivers/lvgl/src/core/lv_obj.c ****         /* Use the indev for then indev handler.
 811:Drivers/lvgl/src/core/lv_obj.c ****          * But if the obj was focused manually it returns NULL so try to
 812:Drivers/lvgl/src/core/lv_obj.c ****          * use the indev from the event*/
 813:Drivers/lvgl/src/core/lv_obj.c ****         lv_indev_t * indev = lv_indev_get_act();
 814:Drivers/lvgl/src/core/lv_obj.c ****         if(indev == NULL) indev = lv_event_get_indev(e);
 815:Drivers/lvgl/src/core/lv_obj.c **** 
 816:Drivers/lvgl/src/core/lv_obj.c ****         lv_indev_type_t indev_type = lv_indev_get_type(indev);
 817:Drivers/lvgl/src/core/lv_obj.c ****         if(indev_type == LV_INDEV_TYPE_KEYPAD || indev_type == LV_INDEV_TYPE_ENCODER) state |= LV_S
 818:Drivers/lvgl/src/core/lv_obj.c ****         if(editing) {
 819:Drivers/lvgl/src/core/lv_obj.c ****             state |= LV_STATE_EDITED;
 820:Drivers/lvgl/src/core/lv_obj.c ****             lv_obj_add_state(obj, state);
 821:Drivers/lvgl/src/core/lv_obj.c ****         }
 822:Drivers/lvgl/src/core/lv_obj.c ****         else {
 823:Drivers/lvgl/src/core/lv_obj.c ****             lv_obj_add_state(obj, state);
 824:Drivers/lvgl/src/core/lv_obj.c ****             lv_obj_clear_state(obj, LV_STATE_EDITED);
 825:Drivers/lvgl/src/core/lv_obj.c ****         }
 826:Drivers/lvgl/src/core/lv_obj.c ****     }
 827:Drivers/lvgl/src/core/lv_obj.c ****     else if(code == LV_EVENT_SCROLL_BEGIN) {
 828:Drivers/lvgl/src/core/lv_obj.c ****         lv_obj_add_state(obj, LV_STATE_SCROLLED);
ARM GAS  /var/folders/0z/tsy30v1j4xl4_7kw94k978ww0000gn/T//ccVt8IXl.s 			page 16


 829:Drivers/lvgl/src/core/lv_obj.c ****     }
 830:Drivers/lvgl/src/core/lv_obj.c ****     else if(code == LV_EVENT_SCROLL_END) {
 831:Drivers/lvgl/src/core/lv_obj.c ****         lv_obj_clear_state(obj, LV_STATE_SCROLLED);
 832:Drivers/lvgl/src/core/lv_obj.c ****         if(lv_obj_get_scrollbar_mode(obj) == LV_SCROLLBAR_MODE_ACTIVE) {
 833:Drivers/lvgl/src/core/lv_obj.c ****             lv_area_t hor_area, ver_area;
 834:Drivers/lvgl/src/core/lv_obj.c ****             lv_obj_get_scrollbar_area(obj, &hor_area, &ver_area);
 835:Drivers/lvgl/src/core/lv_obj.c ****             lv_obj_invalidate_area(obj, &hor_area);
 836:Drivers/lvgl/src/core/lv_obj.c ****             lv_obj_invalidate_area(obj, &ver_area);
 837:Drivers/lvgl/src/core/lv_obj.c ****         }
 838:Drivers/lvgl/src/core/lv_obj.c ****     }
 839:Drivers/lvgl/src/core/lv_obj.c ****     else if(code == LV_EVENT_DEFOCUSED) {
 840:Drivers/lvgl/src/core/lv_obj.c ****         lv_obj_clear_state(obj, LV_STATE_FOCUSED | LV_STATE_EDITED | LV_STATE_FOCUS_KEY);
 841:Drivers/lvgl/src/core/lv_obj.c ****     }
 842:Drivers/lvgl/src/core/lv_obj.c ****     else if(code == LV_EVENT_SIZE_CHANGED) {
 843:Drivers/lvgl/src/core/lv_obj.c ****         lv_coord_t align = lv_obj_get_style_align(obj, LV_PART_MAIN);
 844:Drivers/lvgl/src/core/lv_obj.c ****         uint16_t layout = lv_obj_get_style_layout(obj, LV_PART_MAIN);
 845:Drivers/lvgl/src/core/lv_obj.c ****         if(layout || align) {
 846:Drivers/lvgl/src/core/lv_obj.c ****             lv_obj_mark_layout_as_dirty(obj);
 847:Drivers/lvgl/src/core/lv_obj.c ****         }
 848:Drivers/lvgl/src/core/lv_obj.c **** 
 849:Drivers/lvgl/src/core/lv_obj.c ****         uint32_t i;
 850:Drivers/lvgl/src/core/lv_obj.c ****         uint32_t child_cnt = lv_obj_get_child_cnt(obj);
 851:Drivers/lvgl/src/core/lv_obj.c ****         for(i = 0; i < child_cnt; i++) {
 852:Drivers/lvgl/src/core/lv_obj.c ****             lv_obj_t * child = obj->spec_attr->children[i];
 853:Drivers/lvgl/src/core/lv_obj.c ****             lv_obj_mark_layout_as_dirty(child);
 854:Drivers/lvgl/src/core/lv_obj.c ****         }
 855:Drivers/lvgl/src/core/lv_obj.c ****     }
 856:Drivers/lvgl/src/core/lv_obj.c ****     else if(code == LV_EVENT_CHILD_CHANGED) {
 857:Drivers/lvgl/src/core/lv_obj.c ****         lv_coord_t w = lv_obj_get_style_width(obj, LV_PART_MAIN);
 858:Drivers/lvgl/src/core/lv_obj.c ****         lv_coord_t h = lv_obj_get_style_height(obj, LV_PART_MAIN);
 859:Drivers/lvgl/src/core/lv_obj.c ****         lv_coord_t align = lv_obj_get_style_align(obj, LV_PART_MAIN);
 860:Drivers/lvgl/src/core/lv_obj.c ****         uint16_t layout = lv_obj_get_style_layout(obj, LV_PART_MAIN);
 861:Drivers/lvgl/src/core/lv_obj.c ****         if(layout || align || w == LV_SIZE_CONTENT || h == LV_SIZE_CONTENT) {
 862:Drivers/lvgl/src/core/lv_obj.c ****             lv_obj_mark_layout_as_dirty(obj);
 863:Drivers/lvgl/src/core/lv_obj.c ****         }
 864:Drivers/lvgl/src/core/lv_obj.c ****     }
 865:Drivers/lvgl/src/core/lv_obj.c ****     else if(code == LV_EVENT_CHILD_DELETED) {
 866:Drivers/lvgl/src/core/lv_obj.c ****         obj->readjust_scroll_after_layout = 1;
 867:Drivers/lvgl/src/core/lv_obj.c ****         lv_obj_mark_layout_as_dirty(obj);
 868:Drivers/lvgl/src/core/lv_obj.c ****     }
 869:Drivers/lvgl/src/core/lv_obj.c ****     else if(code == LV_EVENT_REFR_EXT_DRAW_SIZE) {
 870:Drivers/lvgl/src/core/lv_obj.c ****         lv_coord_t d = lv_obj_calculate_ext_draw_size(obj, LV_PART_MAIN);
 871:Drivers/lvgl/src/core/lv_obj.c ****         lv_event_set_ext_draw_size(e, d);
 872:Drivers/lvgl/src/core/lv_obj.c ****     }
 873:Drivers/lvgl/src/core/lv_obj.c ****     else if(code == LV_EVENT_DRAW_MAIN || code == LV_EVENT_DRAW_POST || code == LV_EVENT_COVER_CHEC
 874:Drivers/lvgl/src/core/lv_obj.c ****         lv_obj_draw(e);
 875:Drivers/lvgl/src/core/lv_obj.c ****     }
 876:Drivers/lvgl/src/core/lv_obj.c **** }
 877:Drivers/lvgl/src/core/lv_obj.c **** 
 878:Drivers/lvgl/src/core/lv_obj.c **** /**
 879:Drivers/lvgl/src/core/lv_obj.c ****  * Set the state (fully overwrite) of an object.
 880:Drivers/lvgl/src/core/lv_obj.c ****  * If specified in the styles, transition animations will be started from the previous state to the
 881:Drivers/lvgl/src/core/lv_obj.c ****  * @param obj       pointer to an object
 882:Drivers/lvgl/src/core/lv_obj.c ****  * @param state     the new state
 883:Drivers/lvgl/src/core/lv_obj.c ****  */
 884:Drivers/lvgl/src/core/lv_obj.c **** static void lv_obj_set_state(lv_obj_t * obj, lv_state_t new_state)
 885:Drivers/lvgl/src/core/lv_obj.c **** {
ARM GAS  /var/folders/0z/tsy30v1j4xl4_7kw94k978ww0000gn/T//ccVt8IXl.s 			page 17


 886:Drivers/lvgl/src/core/lv_obj.c ****     if(obj->state == new_state) return;
 887:Drivers/lvgl/src/core/lv_obj.c **** 
 888:Drivers/lvgl/src/core/lv_obj.c ****     LV_ASSERT_OBJ(obj, MY_CLASS);
 889:Drivers/lvgl/src/core/lv_obj.c **** 
 890:Drivers/lvgl/src/core/lv_obj.c ****     lv_state_t prev_state = obj->state;
 891:Drivers/lvgl/src/core/lv_obj.c ****     obj->state = new_state;
 892:Drivers/lvgl/src/core/lv_obj.c **** 
 893:Drivers/lvgl/src/core/lv_obj.c ****     _lv_style_state_cmp_t cmp_res = _lv_obj_style_state_compare(obj, prev_state, new_state);
 894:Drivers/lvgl/src/core/lv_obj.c ****     /*If there is no difference in styles there is nothing else to do*/
 895:Drivers/lvgl/src/core/lv_obj.c ****     if(cmp_res == _LV_STYLE_STATE_CMP_SAME) return;
 896:Drivers/lvgl/src/core/lv_obj.c **** 
 897:Drivers/lvgl/src/core/lv_obj.c ****     _lv_obj_style_transition_dsc_t * ts = lv_mem_buf_get(sizeof(_lv_obj_style_transition_dsc_t) * S
 898:Drivers/lvgl/src/core/lv_obj.c ****     lv_memset_00(ts, sizeof(_lv_obj_style_transition_dsc_t) * STYLE_TRANSITION_MAX);
 899:Drivers/lvgl/src/core/lv_obj.c ****     uint32_t tsi = 0;
 900:Drivers/lvgl/src/core/lv_obj.c ****     uint32_t i;
 901:Drivers/lvgl/src/core/lv_obj.c ****     for(i = 0; i < obj->style_cnt && tsi < STYLE_TRANSITION_MAX; i++) {
 902:Drivers/lvgl/src/core/lv_obj.c ****         _lv_obj_style_t * obj_style = &obj->styles[i];
 903:Drivers/lvgl/src/core/lv_obj.c ****         lv_state_t state_act = lv_obj_style_get_selector_state(obj->styles[i].selector);
 904:Drivers/lvgl/src/core/lv_obj.c ****         lv_part_t part_act = lv_obj_style_get_selector_part(obj->styles[i].selector);
 905:Drivers/lvgl/src/core/lv_obj.c ****         if(state_act & (~new_state)) continue; /*Skip unrelated styles*/
 906:Drivers/lvgl/src/core/lv_obj.c ****         if(obj_style->is_trans) continue;
 907:Drivers/lvgl/src/core/lv_obj.c **** 
 908:Drivers/lvgl/src/core/lv_obj.c ****         lv_style_value_t v;
 909:Drivers/lvgl/src/core/lv_obj.c ****         if(lv_style_get_prop_inlined(obj_style->style, LV_STYLE_TRANSITION, &v) != LV_STYLE_RES_FOU
 910:Drivers/lvgl/src/core/lv_obj.c ****         const lv_style_transition_dsc_t * tr = v.ptr;
 911:Drivers/lvgl/src/core/lv_obj.c **** 
 912:Drivers/lvgl/src/core/lv_obj.c ****         /*Add the props to the set if not added yet or added but with smaller weight*/
 913:Drivers/lvgl/src/core/lv_obj.c ****         uint32_t j;
 914:Drivers/lvgl/src/core/lv_obj.c ****         for(j = 0; tr->props[j] != 0 && tsi < STYLE_TRANSITION_MAX; j++) {
 915:Drivers/lvgl/src/core/lv_obj.c ****             uint32_t t;
 916:Drivers/lvgl/src/core/lv_obj.c ****             for(t = 0; t < tsi; t++) {
 917:Drivers/lvgl/src/core/lv_obj.c ****                 lv_style_selector_t selector = ts[t].selector;
 918:Drivers/lvgl/src/core/lv_obj.c ****                 lv_state_t state_ts = lv_obj_style_get_selector_state(selector);
 919:Drivers/lvgl/src/core/lv_obj.c ****                 lv_part_t part_ts = lv_obj_style_get_selector_part(selector);
 920:Drivers/lvgl/src/core/lv_obj.c ****                 if(ts[t].prop == tr->props[j] && part_ts == part_act && state_ts >= state_act) brea
 921:Drivers/lvgl/src/core/lv_obj.c ****             }
 922:Drivers/lvgl/src/core/lv_obj.c **** 
 923:Drivers/lvgl/src/core/lv_obj.c ****             /*If not found  add it*/
 924:Drivers/lvgl/src/core/lv_obj.c ****             if(t == tsi) {
 925:Drivers/lvgl/src/core/lv_obj.c ****                 ts[tsi].time = tr->time;
 926:Drivers/lvgl/src/core/lv_obj.c ****                 ts[tsi].delay = tr->delay;
 927:Drivers/lvgl/src/core/lv_obj.c ****                 ts[tsi].path_cb = tr->path_xcb;
 928:Drivers/lvgl/src/core/lv_obj.c ****                 ts[tsi].prop = tr->props[j];
 929:Drivers/lvgl/src/core/lv_obj.c **** #if LV_USE_USER_DATA
 930:Drivers/lvgl/src/core/lv_obj.c ****                 ts[tsi].user_data = tr->user_data;
 931:Drivers/lvgl/src/core/lv_obj.c **** #endif
 932:Drivers/lvgl/src/core/lv_obj.c ****                 ts[tsi].selector = obj_style->selector;
 933:Drivers/lvgl/src/core/lv_obj.c ****                 tsi++;
 934:Drivers/lvgl/src/core/lv_obj.c ****             }
 935:Drivers/lvgl/src/core/lv_obj.c ****         }
 936:Drivers/lvgl/src/core/lv_obj.c ****     }
 937:Drivers/lvgl/src/core/lv_obj.c **** 
 938:Drivers/lvgl/src/core/lv_obj.c ****     for(i = 0; i < tsi; i++) {
 939:Drivers/lvgl/src/core/lv_obj.c ****         lv_part_t part_act = lv_obj_style_get_selector_part(ts[i].selector);
 940:Drivers/lvgl/src/core/lv_obj.c ****         _lv_obj_style_create_transition(obj, part_act, prev_state, new_state, &ts[i]);
 941:Drivers/lvgl/src/core/lv_obj.c ****     }
 942:Drivers/lvgl/src/core/lv_obj.c **** 
ARM GAS  /var/folders/0z/tsy30v1j4xl4_7kw94k978ww0000gn/T//ccVt8IXl.s 			page 18


 943:Drivers/lvgl/src/core/lv_obj.c ****     lv_mem_buf_release(ts);
 944:Drivers/lvgl/src/core/lv_obj.c **** 
 945:Drivers/lvgl/src/core/lv_obj.c ****     if(cmp_res == _LV_STYLE_STATE_CMP_DIFF_REDRAW) {
 946:Drivers/lvgl/src/core/lv_obj.c ****         lv_obj_invalidate(obj);
 947:Drivers/lvgl/src/core/lv_obj.c ****     }
 948:Drivers/lvgl/src/core/lv_obj.c ****     else if(cmp_res == _LV_STYLE_STATE_CMP_DIFF_LAYOUT) {
 949:Drivers/lvgl/src/core/lv_obj.c ****         lv_obj_refresh_style(obj, LV_PART_ANY, LV_STYLE_PROP_ANY);
 950:Drivers/lvgl/src/core/lv_obj.c ****     }
 951:Drivers/lvgl/src/core/lv_obj.c ****     else if(cmp_res == _LV_STYLE_STATE_CMP_DIFF_DRAW_PAD) {
 952:Drivers/lvgl/src/core/lv_obj.c ****         lv_obj_invalidate(obj);
 953:Drivers/lvgl/src/core/lv_obj.c ****         lv_obj_refresh_ext_draw_size(obj);
 954:Drivers/lvgl/src/core/lv_obj.c ****     }
 955:Drivers/lvgl/src/core/lv_obj.c **** }
 956:Drivers/lvgl/src/core/lv_obj.c **** 
 957:Drivers/lvgl/src/core/lv_obj.c **** static bool obj_valid_child(const lv_obj_t * parent, const lv_obj_t * obj_to_find)
 958:Drivers/lvgl/src/core/lv_obj.c **** {
  29              		.loc 1 958 1 view -0
  30              		.cfi_startproc
  31              		@ args = 0, pretend = 0, frame = 0
  32              		@ frame_needed = 0, uses_anonymous_args = 0
  33              		.loc 1 958 1 is_stmt 0 view .LVU1
  34 0000 F8B5     		push	{r3, r4, r5, r6, r7, lr}
  35              		.cfi_def_cfa_offset 24
  36              		.cfi_offset 3, -24
  37              		.cfi_offset 4, -20
  38              		.cfi_offset 5, -16
  39              		.cfi_offset 6, -12
  40              		.cfi_offset 7, -8
  41              		.cfi_offset 14, -4
  42 0002 0546     		mov	r5, r0
  43 0004 0E46     		mov	r6, r1
 959:Drivers/lvgl/src/core/lv_obj.c ****     /*Check all children of `parent`*/
 960:Drivers/lvgl/src/core/lv_obj.c ****     uint32_t child_cnt = 0;
  44              		.loc 1 960 5 is_stmt 1 view .LVU2
  45              	.LVL1:
 961:Drivers/lvgl/src/core/lv_obj.c ****     if(parent->spec_attr) child_cnt = parent->spec_attr->child_cnt;
  46              		.loc 1 961 5 view .LVU3
  47              		.loc 1 961 14 is_stmt 0 view .LVU4
  48 0006 8368     		ldr	r3, [r0, #8]
  49              		.loc 1 961 7 view .LVU5
  50 0008 13B1     		cbz	r3, .L6
  51              		.loc 1 961 27 is_stmt 1 discriminator 1 view .LVU6
  52              		.loc 1 961 37 is_stmt 0 discriminator 1 view .LVU7
  53 000a 5F68     		ldr	r7, [r3, #4]
  54              	.LVL2:
  55              	.L2:
 962:Drivers/lvgl/src/core/lv_obj.c ****     uint32_t i;
  56              		.loc 1 962 5 is_stmt 1 view .LVU8
 963:Drivers/lvgl/src/core/lv_obj.c ****     for(i = 0; i < child_cnt; i++) {
  57              		.loc 1 963 5 view .LVU9
  58              		.loc 1 963 11 is_stmt 0 view .LVU10
  59 000c 0024     		movs	r4, #0
  60              		.loc 1 963 5 view .LVU11
  61 000e 02E0     		b	.L3
  62              	.LVL3:
  63              	.L6:
 960:Drivers/lvgl/src/core/lv_obj.c ****     if(parent->spec_attr) child_cnt = parent->spec_attr->child_cnt;
ARM GAS  /var/folders/0z/tsy30v1j4xl4_7kw94k978ww0000gn/T//ccVt8IXl.s 			page 19


  64              		.loc 1 960 14 view .LVU12
  65 0010 0027     		movs	r7, #0
  66 0012 FBE7     		b	.L2
  67              	.LVL4:
  68              	.L10:
  69              		.loc 1 963 32 is_stmt 1 discriminator 2 view .LVU13
  70 0014 0134     		adds	r4, r4, #1
  71              	.LVL5:
  72              	.L3:
  73              		.loc 1 963 18 discriminator 1 view .LVU14
  74 0016 A742     		cmp	r7, r4
  75 0018 0BD9     		bls	.L9
  76              	.LBB95:
 964:Drivers/lvgl/src/core/lv_obj.c ****         lv_obj_t * child = parent->spec_attr->children[i];
  77              		.loc 1 964 9 view .LVU15
  78              		.loc 1 964 34 is_stmt 0 view .LVU16
  79 001a AB68     		ldr	r3, [r5, #8]
  80              		.loc 1 964 45 view .LVU17
  81 001c 1B68     		ldr	r3, [r3]
  82              		.loc 1 964 20 view .LVU18
  83 001e 53F82400 		ldr	r0, [r3, r4, lsl #2]
  84              	.LVL6:
 965:Drivers/lvgl/src/core/lv_obj.c ****         if(child == obj_to_find) {
  85              		.loc 1 965 9 is_stmt 1 view .LVU19
  86              		.loc 1 965 11 is_stmt 0 view .LVU20
  87 0022 B042     		cmp	r0, r6
  88 0024 07D0     		beq	.L7
 966:Drivers/lvgl/src/core/lv_obj.c ****             return true;
 967:Drivers/lvgl/src/core/lv_obj.c ****         }
 968:Drivers/lvgl/src/core/lv_obj.c **** 
 969:Drivers/lvgl/src/core/lv_obj.c ****         /*Check the children*/
 970:Drivers/lvgl/src/core/lv_obj.c ****         bool found = obj_valid_child(child, obj_to_find);
  89              		.loc 1 970 9 is_stmt 1 view .LVU21
  90              		.loc 1 970 22 is_stmt 0 view .LVU22
  91 0026 3146     		mov	r1, r6
  92 0028 FFF7EAFF 		bl	obj_valid_child
  93              	.LVL7:
 971:Drivers/lvgl/src/core/lv_obj.c ****         if(found) {
  94              		.loc 1 971 9 is_stmt 1 view .LVU23
  95              		.loc 1 971 11 is_stmt 0 view .LVU24
  96 002c 0028     		cmp	r0, #0
  97 002e F1D0     		beq	.L10
  98 0030 00E0     		b	.L4
  99              	.LVL8:
 100              	.L9:
 101              		.loc 1 971 11 view .LVU25
 102              	.LBE95:
 972:Drivers/lvgl/src/core/lv_obj.c ****             return true;
 973:Drivers/lvgl/src/core/lv_obj.c ****         }
 974:Drivers/lvgl/src/core/lv_obj.c ****     }
 975:Drivers/lvgl/src/core/lv_obj.c ****     return false;
 103              		.loc 1 975 12 view .LVU26
 104 0032 0020     		movs	r0, #0
 105              	.L4:
 976:Drivers/lvgl/src/core/lv_obj.c **** }
 106              		.loc 1 976 1 view .LVU27
 107 0034 F8BD     		pop	{r3, r4, r5, r6, r7, pc}
ARM GAS  /var/folders/0z/tsy30v1j4xl4_7kw94k978ww0000gn/T//ccVt8IXl.s 			page 20


 108              	.LVL9:
 109              	.L7:
 110              	.LBB96:
 966:Drivers/lvgl/src/core/lv_obj.c ****         }
 111              		.loc 1 966 20 view .LVU28
 112 0036 0120     		movs	r0, #1
 113              	.LVL10:
 966:Drivers/lvgl/src/core/lv_obj.c ****         }
 114              		.loc 1 966 20 view .LVU29
 115 0038 FCE7     		b	.L4
 116              	.LBE96:
 117              		.cfi_endproc
 118              	.LFE229:
 120              		.section	.text.scrollbar_init_draw_dsc,"ax",%progbits
 121              		.align	1
 122              		.syntax unified
 123              		.thumb
 124              		.thumb_func
 126              	scrollbar_init_draw_dsc:
 127              	.LVL11:
 128              	.LFB226:
 674:Drivers/lvgl/src/core/lv_obj.c ****     lv_draw_rect_dsc_init(dsc);
 129              		.loc 1 674 1 is_stmt 1 view -0
 130              		.cfi_startproc
 131              		@ args = 0, pretend = 0, frame = 0
 132              		@ frame_needed = 0, uses_anonymous_args = 0
 674:Drivers/lvgl/src/core/lv_obj.c ****     lv_draw_rect_dsc_init(dsc);
 133              		.loc 1 674 1 is_stmt 0 view .LVU31
 134 0000 38B5     		push	{r3, r4, r5, lr}
 135              		.cfi_def_cfa_offset 16
 136              		.cfi_offset 3, -16
 137              		.cfi_offset 4, -12
 138              		.cfi_offset 5, -8
 139              		.cfi_offset 14, -4
 140 0002 0546     		mov	r5, r0
 141 0004 0C46     		mov	r4, r1
 675:Drivers/lvgl/src/core/lv_obj.c ****     dsc->bg_opa = lv_obj_get_style_bg_opa(obj, LV_PART_SCROLLBAR);
 142              		.loc 1 675 5 is_stmt 1 view .LVU32
 143 0006 0846     		mov	r0, r1
 144              	.LVL12:
 675:Drivers/lvgl/src/core/lv_obj.c ****     dsc->bg_opa = lv_obj_get_style_bg_opa(obj, LV_PART_SCROLLBAR);
 145              		.loc 1 675 5 is_stmt 0 view .LVU33
 146 0008 FFF7FEFF 		bl	lv_draw_rect_dsc_init
 147              	.LVL13:
 676:Drivers/lvgl/src/core/lv_obj.c ****     if(dsc->bg_opa > LV_OPA_MIN) {
 148              		.loc 1 676 5 is_stmt 1 view .LVU34
 149              	.LBB97:
 150              	.LBI97:
 151              		.file 2 "Drivers/lvgl/src/core/lv_obj_style_gen.h"
   1:Drivers/lvgl/src/core/lv_obj_style_gen.h **** static inline lv_coord_t lv_obj_get_style_width(const struct _lv_obj_t * obj, uint32_t part)
   2:Drivers/lvgl/src/core/lv_obj_style_gen.h **** {
   3:Drivers/lvgl/src/core/lv_obj_style_gen.h ****     lv_style_value_t v = lv_obj_get_style_prop(obj, part, LV_STYLE_WIDTH);
   4:Drivers/lvgl/src/core/lv_obj_style_gen.h ****     return (lv_coord_t)v.num;
   5:Drivers/lvgl/src/core/lv_obj_style_gen.h **** }
   6:Drivers/lvgl/src/core/lv_obj_style_gen.h **** 
   7:Drivers/lvgl/src/core/lv_obj_style_gen.h **** static inline lv_coord_t lv_obj_get_style_min_width(const struct _lv_obj_t * obj, uint32_t part)
   8:Drivers/lvgl/src/core/lv_obj_style_gen.h **** {
ARM GAS  /var/folders/0z/tsy30v1j4xl4_7kw94k978ww0000gn/T//ccVt8IXl.s 			page 21


   9:Drivers/lvgl/src/core/lv_obj_style_gen.h ****     lv_style_value_t v = lv_obj_get_style_prop(obj, part, LV_STYLE_MIN_WIDTH);
  10:Drivers/lvgl/src/core/lv_obj_style_gen.h ****     return (lv_coord_t)v.num;
  11:Drivers/lvgl/src/core/lv_obj_style_gen.h **** }
  12:Drivers/lvgl/src/core/lv_obj_style_gen.h **** 
  13:Drivers/lvgl/src/core/lv_obj_style_gen.h **** static inline lv_coord_t lv_obj_get_style_max_width(const struct _lv_obj_t * obj, uint32_t part)
  14:Drivers/lvgl/src/core/lv_obj_style_gen.h **** {
  15:Drivers/lvgl/src/core/lv_obj_style_gen.h ****     lv_style_value_t v = lv_obj_get_style_prop(obj, part, LV_STYLE_MAX_WIDTH);
  16:Drivers/lvgl/src/core/lv_obj_style_gen.h ****     return (lv_coord_t)v.num;
  17:Drivers/lvgl/src/core/lv_obj_style_gen.h **** }
  18:Drivers/lvgl/src/core/lv_obj_style_gen.h **** 
  19:Drivers/lvgl/src/core/lv_obj_style_gen.h **** static inline lv_coord_t lv_obj_get_style_height(const struct _lv_obj_t * obj, uint32_t part)
  20:Drivers/lvgl/src/core/lv_obj_style_gen.h **** {
  21:Drivers/lvgl/src/core/lv_obj_style_gen.h ****     lv_style_value_t v = lv_obj_get_style_prop(obj, part, LV_STYLE_HEIGHT);
  22:Drivers/lvgl/src/core/lv_obj_style_gen.h ****     return (lv_coord_t)v.num;
  23:Drivers/lvgl/src/core/lv_obj_style_gen.h **** }
  24:Drivers/lvgl/src/core/lv_obj_style_gen.h **** 
  25:Drivers/lvgl/src/core/lv_obj_style_gen.h **** static inline lv_coord_t lv_obj_get_style_min_height(const struct _lv_obj_t * obj, uint32_t part)
  26:Drivers/lvgl/src/core/lv_obj_style_gen.h **** {
  27:Drivers/lvgl/src/core/lv_obj_style_gen.h ****     lv_style_value_t v = lv_obj_get_style_prop(obj, part, LV_STYLE_MIN_HEIGHT);
  28:Drivers/lvgl/src/core/lv_obj_style_gen.h ****     return (lv_coord_t)v.num;
  29:Drivers/lvgl/src/core/lv_obj_style_gen.h **** }
  30:Drivers/lvgl/src/core/lv_obj_style_gen.h **** 
  31:Drivers/lvgl/src/core/lv_obj_style_gen.h **** static inline lv_coord_t lv_obj_get_style_max_height(const struct _lv_obj_t * obj, uint32_t part)
  32:Drivers/lvgl/src/core/lv_obj_style_gen.h **** {
  33:Drivers/lvgl/src/core/lv_obj_style_gen.h ****     lv_style_value_t v = lv_obj_get_style_prop(obj, part, LV_STYLE_MAX_HEIGHT);
  34:Drivers/lvgl/src/core/lv_obj_style_gen.h ****     return (lv_coord_t)v.num;
  35:Drivers/lvgl/src/core/lv_obj_style_gen.h **** }
  36:Drivers/lvgl/src/core/lv_obj_style_gen.h **** 
  37:Drivers/lvgl/src/core/lv_obj_style_gen.h **** static inline lv_coord_t lv_obj_get_style_x(const struct _lv_obj_t * obj, uint32_t part)
  38:Drivers/lvgl/src/core/lv_obj_style_gen.h **** {
  39:Drivers/lvgl/src/core/lv_obj_style_gen.h ****     lv_style_value_t v = lv_obj_get_style_prop(obj, part, LV_STYLE_X);
  40:Drivers/lvgl/src/core/lv_obj_style_gen.h ****     return (lv_coord_t)v.num;
  41:Drivers/lvgl/src/core/lv_obj_style_gen.h **** }
  42:Drivers/lvgl/src/core/lv_obj_style_gen.h **** 
  43:Drivers/lvgl/src/core/lv_obj_style_gen.h **** static inline lv_coord_t lv_obj_get_style_y(const struct _lv_obj_t * obj, uint32_t part)
  44:Drivers/lvgl/src/core/lv_obj_style_gen.h **** {
  45:Drivers/lvgl/src/core/lv_obj_style_gen.h ****     lv_style_value_t v = lv_obj_get_style_prop(obj, part, LV_STYLE_Y);
  46:Drivers/lvgl/src/core/lv_obj_style_gen.h ****     return (lv_coord_t)v.num;
  47:Drivers/lvgl/src/core/lv_obj_style_gen.h **** }
  48:Drivers/lvgl/src/core/lv_obj_style_gen.h **** 
  49:Drivers/lvgl/src/core/lv_obj_style_gen.h **** static inline lv_align_t lv_obj_get_style_align(const struct _lv_obj_t * obj, uint32_t part)
  50:Drivers/lvgl/src/core/lv_obj_style_gen.h **** {
  51:Drivers/lvgl/src/core/lv_obj_style_gen.h ****     lv_style_value_t v = lv_obj_get_style_prop(obj, part, LV_STYLE_ALIGN);
  52:Drivers/lvgl/src/core/lv_obj_style_gen.h ****     return (lv_align_t)v.num;
  53:Drivers/lvgl/src/core/lv_obj_style_gen.h **** }
  54:Drivers/lvgl/src/core/lv_obj_style_gen.h **** 
  55:Drivers/lvgl/src/core/lv_obj_style_gen.h **** static inline lv_coord_t lv_obj_get_style_transform_width(const struct _lv_obj_t * obj, uint32_t pa
  56:Drivers/lvgl/src/core/lv_obj_style_gen.h **** {
  57:Drivers/lvgl/src/core/lv_obj_style_gen.h ****     lv_style_value_t v = lv_obj_get_style_prop(obj, part, LV_STYLE_TRANSFORM_WIDTH);
  58:Drivers/lvgl/src/core/lv_obj_style_gen.h ****     return (lv_coord_t)v.num;
  59:Drivers/lvgl/src/core/lv_obj_style_gen.h **** }
  60:Drivers/lvgl/src/core/lv_obj_style_gen.h **** 
  61:Drivers/lvgl/src/core/lv_obj_style_gen.h **** static inline lv_coord_t lv_obj_get_style_transform_height(const struct _lv_obj_t * obj, uint32_t p
  62:Drivers/lvgl/src/core/lv_obj_style_gen.h **** {
  63:Drivers/lvgl/src/core/lv_obj_style_gen.h ****     lv_style_value_t v = lv_obj_get_style_prop(obj, part, LV_STYLE_TRANSFORM_HEIGHT);
  64:Drivers/lvgl/src/core/lv_obj_style_gen.h ****     return (lv_coord_t)v.num;
  65:Drivers/lvgl/src/core/lv_obj_style_gen.h **** }
ARM GAS  /var/folders/0z/tsy30v1j4xl4_7kw94k978ww0000gn/T//ccVt8IXl.s 			page 22


  66:Drivers/lvgl/src/core/lv_obj_style_gen.h **** 
  67:Drivers/lvgl/src/core/lv_obj_style_gen.h **** static inline lv_coord_t lv_obj_get_style_translate_x(const struct _lv_obj_t * obj, uint32_t part)
  68:Drivers/lvgl/src/core/lv_obj_style_gen.h **** {
  69:Drivers/lvgl/src/core/lv_obj_style_gen.h ****     lv_style_value_t v = lv_obj_get_style_prop(obj, part, LV_STYLE_TRANSLATE_X);
  70:Drivers/lvgl/src/core/lv_obj_style_gen.h ****     return (lv_coord_t)v.num;
  71:Drivers/lvgl/src/core/lv_obj_style_gen.h **** }
  72:Drivers/lvgl/src/core/lv_obj_style_gen.h **** 
  73:Drivers/lvgl/src/core/lv_obj_style_gen.h **** static inline lv_coord_t lv_obj_get_style_translate_y(const struct _lv_obj_t * obj, uint32_t part)
  74:Drivers/lvgl/src/core/lv_obj_style_gen.h **** {
  75:Drivers/lvgl/src/core/lv_obj_style_gen.h ****     lv_style_value_t v = lv_obj_get_style_prop(obj, part, LV_STYLE_TRANSLATE_Y);
  76:Drivers/lvgl/src/core/lv_obj_style_gen.h ****     return (lv_coord_t)v.num;
  77:Drivers/lvgl/src/core/lv_obj_style_gen.h **** }
  78:Drivers/lvgl/src/core/lv_obj_style_gen.h **** 
  79:Drivers/lvgl/src/core/lv_obj_style_gen.h **** static inline lv_coord_t lv_obj_get_style_transform_zoom(const struct _lv_obj_t * obj, uint32_t par
  80:Drivers/lvgl/src/core/lv_obj_style_gen.h **** {
  81:Drivers/lvgl/src/core/lv_obj_style_gen.h ****     lv_style_value_t v = lv_obj_get_style_prop(obj, part, LV_STYLE_TRANSFORM_ZOOM);
  82:Drivers/lvgl/src/core/lv_obj_style_gen.h ****     return (lv_coord_t)v.num;
  83:Drivers/lvgl/src/core/lv_obj_style_gen.h **** }
  84:Drivers/lvgl/src/core/lv_obj_style_gen.h **** 
  85:Drivers/lvgl/src/core/lv_obj_style_gen.h **** static inline lv_coord_t lv_obj_get_style_transform_angle(const struct _lv_obj_t * obj, uint32_t pa
  86:Drivers/lvgl/src/core/lv_obj_style_gen.h **** {
  87:Drivers/lvgl/src/core/lv_obj_style_gen.h ****     lv_style_value_t v = lv_obj_get_style_prop(obj, part, LV_STYLE_TRANSFORM_ANGLE);
  88:Drivers/lvgl/src/core/lv_obj_style_gen.h ****     return (lv_coord_t)v.num;
  89:Drivers/lvgl/src/core/lv_obj_style_gen.h **** }
  90:Drivers/lvgl/src/core/lv_obj_style_gen.h **** 
  91:Drivers/lvgl/src/core/lv_obj_style_gen.h **** static inline lv_coord_t lv_obj_get_style_transform_pivot_x(const struct _lv_obj_t * obj, uint32_t 
  92:Drivers/lvgl/src/core/lv_obj_style_gen.h **** {
  93:Drivers/lvgl/src/core/lv_obj_style_gen.h ****     lv_style_value_t v = lv_obj_get_style_prop(obj, part, LV_STYLE_TRANSFORM_PIVOT_X);
  94:Drivers/lvgl/src/core/lv_obj_style_gen.h ****     return (lv_coord_t)v.num;
  95:Drivers/lvgl/src/core/lv_obj_style_gen.h **** }
  96:Drivers/lvgl/src/core/lv_obj_style_gen.h **** 
  97:Drivers/lvgl/src/core/lv_obj_style_gen.h **** static inline lv_coord_t lv_obj_get_style_transform_pivot_y(const struct _lv_obj_t * obj, uint32_t 
  98:Drivers/lvgl/src/core/lv_obj_style_gen.h **** {
  99:Drivers/lvgl/src/core/lv_obj_style_gen.h ****     lv_style_value_t v = lv_obj_get_style_prop(obj, part, LV_STYLE_TRANSFORM_PIVOT_Y);
 100:Drivers/lvgl/src/core/lv_obj_style_gen.h ****     return (lv_coord_t)v.num;
 101:Drivers/lvgl/src/core/lv_obj_style_gen.h **** }
 102:Drivers/lvgl/src/core/lv_obj_style_gen.h **** 
 103:Drivers/lvgl/src/core/lv_obj_style_gen.h **** static inline lv_coord_t lv_obj_get_style_pad_top(const struct _lv_obj_t * obj, uint32_t part)
 104:Drivers/lvgl/src/core/lv_obj_style_gen.h **** {
 105:Drivers/lvgl/src/core/lv_obj_style_gen.h ****     lv_style_value_t v = lv_obj_get_style_prop(obj, part, LV_STYLE_PAD_TOP);
 106:Drivers/lvgl/src/core/lv_obj_style_gen.h ****     return (lv_coord_t)v.num;
 107:Drivers/lvgl/src/core/lv_obj_style_gen.h **** }
 108:Drivers/lvgl/src/core/lv_obj_style_gen.h **** 
 109:Drivers/lvgl/src/core/lv_obj_style_gen.h **** static inline lv_coord_t lv_obj_get_style_pad_bottom(const struct _lv_obj_t * obj, uint32_t part)
 110:Drivers/lvgl/src/core/lv_obj_style_gen.h **** {
 111:Drivers/lvgl/src/core/lv_obj_style_gen.h ****     lv_style_value_t v = lv_obj_get_style_prop(obj, part, LV_STYLE_PAD_BOTTOM);
 112:Drivers/lvgl/src/core/lv_obj_style_gen.h ****     return (lv_coord_t)v.num;
 113:Drivers/lvgl/src/core/lv_obj_style_gen.h **** }
 114:Drivers/lvgl/src/core/lv_obj_style_gen.h **** 
 115:Drivers/lvgl/src/core/lv_obj_style_gen.h **** static inline lv_coord_t lv_obj_get_style_pad_left(const struct _lv_obj_t * obj, uint32_t part)
 116:Drivers/lvgl/src/core/lv_obj_style_gen.h **** {
 117:Drivers/lvgl/src/core/lv_obj_style_gen.h ****     lv_style_value_t v = lv_obj_get_style_prop(obj, part, LV_STYLE_PAD_LEFT);
 118:Drivers/lvgl/src/core/lv_obj_style_gen.h ****     return (lv_coord_t)v.num;
 119:Drivers/lvgl/src/core/lv_obj_style_gen.h **** }
 120:Drivers/lvgl/src/core/lv_obj_style_gen.h **** 
 121:Drivers/lvgl/src/core/lv_obj_style_gen.h **** static inline lv_coord_t lv_obj_get_style_pad_right(const struct _lv_obj_t * obj, uint32_t part)
 122:Drivers/lvgl/src/core/lv_obj_style_gen.h **** {
ARM GAS  /var/folders/0z/tsy30v1j4xl4_7kw94k978ww0000gn/T//ccVt8IXl.s 			page 23


 123:Drivers/lvgl/src/core/lv_obj_style_gen.h ****     lv_style_value_t v = lv_obj_get_style_prop(obj, part, LV_STYLE_PAD_RIGHT);
 124:Drivers/lvgl/src/core/lv_obj_style_gen.h ****     return (lv_coord_t)v.num;
 125:Drivers/lvgl/src/core/lv_obj_style_gen.h **** }
 126:Drivers/lvgl/src/core/lv_obj_style_gen.h **** 
 127:Drivers/lvgl/src/core/lv_obj_style_gen.h **** static inline lv_coord_t lv_obj_get_style_pad_row(const struct _lv_obj_t * obj, uint32_t part)
 128:Drivers/lvgl/src/core/lv_obj_style_gen.h **** {
 129:Drivers/lvgl/src/core/lv_obj_style_gen.h ****     lv_style_value_t v = lv_obj_get_style_prop(obj, part, LV_STYLE_PAD_ROW);
 130:Drivers/lvgl/src/core/lv_obj_style_gen.h ****     return (lv_coord_t)v.num;
 131:Drivers/lvgl/src/core/lv_obj_style_gen.h **** }
 132:Drivers/lvgl/src/core/lv_obj_style_gen.h **** 
 133:Drivers/lvgl/src/core/lv_obj_style_gen.h **** static inline lv_coord_t lv_obj_get_style_pad_column(const struct _lv_obj_t * obj, uint32_t part)
 134:Drivers/lvgl/src/core/lv_obj_style_gen.h **** {
 135:Drivers/lvgl/src/core/lv_obj_style_gen.h ****     lv_style_value_t v = lv_obj_get_style_prop(obj, part, LV_STYLE_PAD_COLUMN);
 136:Drivers/lvgl/src/core/lv_obj_style_gen.h ****     return (lv_coord_t)v.num;
 137:Drivers/lvgl/src/core/lv_obj_style_gen.h **** }
 138:Drivers/lvgl/src/core/lv_obj_style_gen.h **** 
 139:Drivers/lvgl/src/core/lv_obj_style_gen.h **** static inline lv_color_t lv_obj_get_style_bg_color(const struct _lv_obj_t * obj, uint32_t part)
 140:Drivers/lvgl/src/core/lv_obj_style_gen.h **** {
 141:Drivers/lvgl/src/core/lv_obj_style_gen.h ****     lv_style_value_t v = lv_obj_get_style_prop(obj, part, LV_STYLE_BG_COLOR);
 142:Drivers/lvgl/src/core/lv_obj_style_gen.h ****     return v.color;
 143:Drivers/lvgl/src/core/lv_obj_style_gen.h **** }
 144:Drivers/lvgl/src/core/lv_obj_style_gen.h **** 
 145:Drivers/lvgl/src/core/lv_obj_style_gen.h **** static inline lv_color_t lv_obj_get_style_bg_color_filtered(const struct _lv_obj_t * obj, uint32_t 
 146:Drivers/lvgl/src/core/lv_obj_style_gen.h **** {
 147:Drivers/lvgl/src/core/lv_obj_style_gen.h ****     lv_style_value_t v = _lv_obj_style_apply_color_filter(obj, part, lv_obj_get_style_prop(obj, par
 148:Drivers/lvgl/src/core/lv_obj_style_gen.h ****     return v.color;
 149:Drivers/lvgl/src/core/lv_obj_style_gen.h **** }
 150:Drivers/lvgl/src/core/lv_obj_style_gen.h **** 
 151:Drivers/lvgl/src/core/lv_obj_style_gen.h **** static inline lv_opa_t lv_obj_get_style_bg_opa(const struct _lv_obj_t * obj, uint32_t part)
 152              		.loc 2 151 24 view .LVU35
 153              	.LBB98:
 152:Drivers/lvgl/src/core/lv_obj_style_gen.h **** {
 153:Drivers/lvgl/src/core/lv_obj_style_gen.h ****     lv_style_value_t v = lv_obj_get_style_prop(obj, part, LV_STYLE_BG_OPA);
 154              		.loc 2 153 5 view .LVU36
 155              		.loc 2 153 26 is_stmt 0 view .LVU37
 156 000c 2122     		movs	r2, #33
 157 000e 4FF48031 		mov	r1, #65536
 158 0012 2846     		mov	r0, r5
 159 0014 FFF7FEFF 		bl	lv_obj_get_style_prop
 160              	.LVL14:
 154:Drivers/lvgl/src/core/lv_obj_style_gen.h ****     return (lv_opa_t)v.num;
 161              		.loc 2 154 5 is_stmt 1 view .LVU38
 162              		.loc 2 154 12 is_stmt 0 view .LVU39
 163 0018 C0B2     		uxtb	r0, r0
 164              	.LVL15:
 165              		.loc 2 154 12 view .LVU40
 166              	.LBE98:
 167              	.LBE97:
 676:Drivers/lvgl/src/core/lv_obj.c ****     if(dsc->bg_opa > LV_OPA_MIN) {
 168              		.loc 1 676 17 view .LVU41
 169 001a E070     		strb	r0, [r4, #3]
 677:Drivers/lvgl/src/core/lv_obj.c ****         dsc->bg_color = lv_obj_get_style_bg_color(obj, LV_PART_SCROLLBAR);
 170              		.loc 1 677 5 is_stmt 1 view .LVU42
 677:Drivers/lvgl/src/core/lv_obj.c ****         dsc->bg_color = lv_obj_get_style_bg_color(obj, LV_PART_SCROLLBAR);
 171              		.loc 1 677 7 is_stmt 0 view .LVU43
 172 001c 0228     		cmp	r0, #2
 173 001e 3BD8     		bhi	.L21
ARM GAS  /var/folders/0z/tsy30v1j4xl4_7kw94k978ww0000gn/T//ccVt8IXl.s 			page 24


 174              	.L12:
 681:Drivers/lvgl/src/core/lv_obj.c ****     if(dsc->border_opa > LV_OPA_MIN) {
 175              		.loc 1 681 5 is_stmt 1 view .LVU44
 176              	.LVL16:
 177              	.LBB99:
 178              	.LBI99:
 155:Drivers/lvgl/src/core/lv_obj_style_gen.h **** }
 156:Drivers/lvgl/src/core/lv_obj_style_gen.h **** 
 157:Drivers/lvgl/src/core/lv_obj_style_gen.h **** static inline lv_color_t lv_obj_get_style_bg_grad_color(const struct _lv_obj_t * obj, uint32_t part
 158:Drivers/lvgl/src/core/lv_obj_style_gen.h **** {
 159:Drivers/lvgl/src/core/lv_obj_style_gen.h ****     lv_style_value_t v = lv_obj_get_style_prop(obj, part, LV_STYLE_BG_GRAD_COLOR);
 160:Drivers/lvgl/src/core/lv_obj_style_gen.h ****     return v.color;
 161:Drivers/lvgl/src/core/lv_obj_style_gen.h **** }
 162:Drivers/lvgl/src/core/lv_obj_style_gen.h **** 
 163:Drivers/lvgl/src/core/lv_obj_style_gen.h **** static inline lv_color_t lv_obj_get_style_bg_grad_color_filtered(const struct _lv_obj_t * obj, uint
 164:Drivers/lvgl/src/core/lv_obj_style_gen.h **** {
 165:Drivers/lvgl/src/core/lv_obj_style_gen.h ****     lv_style_value_t v = _lv_obj_style_apply_color_filter(obj, part, lv_obj_get_style_prop(obj, par
 166:Drivers/lvgl/src/core/lv_obj_style_gen.h ****     return v.color;
 167:Drivers/lvgl/src/core/lv_obj_style_gen.h **** }
 168:Drivers/lvgl/src/core/lv_obj_style_gen.h **** 
 169:Drivers/lvgl/src/core/lv_obj_style_gen.h **** static inline lv_grad_dir_t lv_obj_get_style_bg_grad_dir(const struct _lv_obj_t * obj, uint32_t par
 170:Drivers/lvgl/src/core/lv_obj_style_gen.h **** {
 171:Drivers/lvgl/src/core/lv_obj_style_gen.h ****     lv_style_value_t v = lv_obj_get_style_prop(obj, part, LV_STYLE_BG_GRAD_DIR);
 172:Drivers/lvgl/src/core/lv_obj_style_gen.h ****     return (lv_grad_dir_t)v.num;
 173:Drivers/lvgl/src/core/lv_obj_style_gen.h **** }
 174:Drivers/lvgl/src/core/lv_obj_style_gen.h **** 
 175:Drivers/lvgl/src/core/lv_obj_style_gen.h **** static inline lv_coord_t lv_obj_get_style_bg_main_stop(const struct _lv_obj_t * obj, uint32_t part)
 176:Drivers/lvgl/src/core/lv_obj_style_gen.h **** {
 177:Drivers/lvgl/src/core/lv_obj_style_gen.h ****     lv_style_value_t v = lv_obj_get_style_prop(obj, part, LV_STYLE_BG_MAIN_STOP);
 178:Drivers/lvgl/src/core/lv_obj_style_gen.h ****     return (lv_coord_t)v.num;
 179:Drivers/lvgl/src/core/lv_obj_style_gen.h **** }
 180:Drivers/lvgl/src/core/lv_obj_style_gen.h **** 
 181:Drivers/lvgl/src/core/lv_obj_style_gen.h **** static inline lv_coord_t lv_obj_get_style_bg_grad_stop(const struct _lv_obj_t * obj, uint32_t part)
 182:Drivers/lvgl/src/core/lv_obj_style_gen.h **** {
 183:Drivers/lvgl/src/core/lv_obj_style_gen.h ****     lv_style_value_t v = lv_obj_get_style_prop(obj, part, LV_STYLE_BG_GRAD_STOP);
 184:Drivers/lvgl/src/core/lv_obj_style_gen.h ****     return (lv_coord_t)v.num;
 185:Drivers/lvgl/src/core/lv_obj_style_gen.h **** }
 186:Drivers/lvgl/src/core/lv_obj_style_gen.h **** 
 187:Drivers/lvgl/src/core/lv_obj_style_gen.h **** static inline const lv_grad_dsc_t * lv_obj_get_style_bg_grad(const struct _lv_obj_t * obj, uint32_t
 188:Drivers/lvgl/src/core/lv_obj_style_gen.h **** {
 189:Drivers/lvgl/src/core/lv_obj_style_gen.h ****     lv_style_value_t v = lv_obj_get_style_prop(obj, part, LV_STYLE_BG_GRAD);
 190:Drivers/lvgl/src/core/lv_obj_style_gen.h ****     return (const lv_grad_dsc_t *)v.ptr;
 191:Drivers/lvgl/src/core/lv_obj_style_gen.h **** }
 192:Drivers/lvgl/src/core/lv_obj_style_gen.h **** 
 193:Drivers/lvgl/src/core/lv_obj_style_gen.h **** static inline lv_dither_mode_t lv_obj_get_style_bg_dither_mode(const struct _lv_obj_t * obj, uint32
 194:Drivers/lvgl/src/core/lv_obj_style_gen.h **** {
 195:Drivers/lvgl/src/core/lv_obj_style_gen.h ****     lv_style_value_t v = lv_obj_get_style_prop(obj, part, LV_STYLE_BG_DITHER_MODE);
 196:Drivers/lvgl/src/core/lv_obj_style_gen.h ****     return (lv_dither_mode_t)v.num;
 197:Drivers/lvgl/src/core/lv_obj_style_gen.h **** }
 198:Drivers/lvgl/src/core/lv_obj_style_gen.h **** 
 199:Drivers/lvgl/src/core/lv_obj_style_gen.h **** static inline const void * lv_obj_get_style_bg_img_src(const struct _lv_obj_t * obj, uint32_t part)
 200:Drivers/lvgl/src/core/lv_obj_style_gen.h **** {
 201:Drivers/lvgl/src/core/lv_obj_style_gen.h ****     lv_style_value_t v = lv_obj_get_style_prop(obj, part, LV_STYLE_BG_IMG_SRC);
 202:Drivers/lvgl/src/core/lv_obj_style_gen.h ****     return (const void *)v.ptr;
 203:Drivers/lvgl/src/core/lv_obj_style_gen.h **** }
 204:Drivers/lvgl/src/core/lv_obj_style_gen.h **** 
 205:Drivers/lvgl/src/core/lv_obj_style_gen.h **** static inline lv_opa_t lv_obj_get_style_bg_img_opa(const struct _lv_obj_t * obj, uint32_t part)
ARM GAS  /var/folders/0z/tsy30v1j4xl4_7kw94k978ww0000gn/T//ccVt8IXl.s 			page 25


 206:Drivers/lvgl/src/core/lv_obj_style_gen.h **** {
 207:Drivers/lvgl/src/core/lv_obj_style_gen.h ****     lv_style_value_t v = lv_obj_get_style_prop(obj, part, LV_STYLE_BG_IMG_OPA);
 208:Drivers/lvgl/src/core/lv_obj_style_gen.h ****     return (lv_opa_t)v.num;
 209:Drivers/lvgl/src/core/lv_obj_style_gen.h **** }
 210:Drivers/lvgl/src/core/lv_obj_style_gen.h **** 
 211:Drivers/lvgl/src/core/lv_obj_style_gen.h **** static inline lv_color_t lv_obj_get_style_bg_img_recolor(const struct _lv_obj_t * obj, uint32_t par
 212:Drivers/lvgl/src/core/lv_obj_style_gen.h **** {
 213:Drivers/lvgl/src/core/lv_obj_style_gen.h ****     lv_style_value_t v = lv_obj_get_style_prop(obj, part, LV_STYLE_BG_IMG_RECOLOR);
 214:Drivers/lvgl/src/core/lv_obj_style_gen.h ****     return v.color;
 215:Drivers/lvgl/src/core/lv_obj_style_gen.h **** }
 216:Drivers/lvgl/src/core/lv_obj_style_gen.h **** 
 217:Drivers/lvgl/src/core/lv_obj_style_gen.h **** static inline lv_color_t lv_obj_get_style_bg_img_recolor_filtered(const struct _lv_obj_t * obj, uin
 218:Drivers/lvgl/src/core/lv_obj_style_gen.h **** {
 219:Drivers/lvgl/src/core/lv_obj_style_gen.h ****     lv_style_value_t v = _lv_obj_style_apply_color_filter(obj, part, lv_obj_get_style_prop(obj, par
 220:Drivers/lvgl/src/core/lv_obj_style_gen.h ****     return v.color;
 221:Drivers/lvgl/src/core/lv_obj_style_gen.h **** }
 222:Drivers/lvgl/src/core/lv_obj_style_gen.h **** 
 223:Drivers/lvgl/src/core/lv_obj_style_gen.h **** static inline lv_opa_t lv_obj_get_style_bg_img_recolor_opa(const struct _lv_obj_t * obj, uint32_t p
 224:Drivers/lvgl/src/core/lv_obj_style_gen.h **** {
 225:Drivers/lvgl/src/core/lv_obj_style_gen.h ****     lv_style_value_t v = lv_obj_get_style_prop(obj, part, LV_STYLE_BG_IMG_RECOLOR_OPA);
 226:Drivers/lvgl/src/core/lv_obj_style_gen.h ****     return (lv_opa_t)v.num;
 227:Drivers/lvgl/src/core/lv_obj_style_gen.h **** }
 228:Drivers/lvgl/src/core/lv_obj_style_gen.h **** 
 229:Drivers/lvgl/src/core/lv_obj_style_gen.h **** static inline bool lv_obj_get_style_bg_img_tiled(const struct _lv_obj_t * obj, uint32_t part)
 230:Drivers/lvgl/src/core/lv_obj_style_gen.h **** {
 231:Drivers/lvgl/src/core/lv_obj_style_gen.h ****     lv_style_value_t v = lv_obj_get_style_prop(obj, part, LV_STYLE_BG_IMG_TILED);
 232:Drivers/lvgl/src/core/lv_obj_style_gen.h ****     return (bool)v.num;
 233:Drivers/lvgl/src/core/lv_obj_style_gen.h **** }
 234:Drivers/lvgl/src/core/lv_obj_style_gen.h **** 
 235:Drivers/lvgl/src/core/lv_obj_style_gen.h **** static inline lv_color_t lv_obj_get_style_border_color(const struct _lv_obj_t * obj, uint32_t part)
 236:Drivers/lvgl/src/core/lv_obj_style_gen.h **** {
 237:Drivers/lvgl/src/core/lv_obj_style_gen.h ****     lv_style_value_t v = lv_obj_get_style_prop(obj, part, LV_STYLE_BORDER_COLOR);
 238:Drivers/lvgl/src/core/lv_obj_style_gen.h ****     return v.color;
 239:Drivers/lvgl/src/core/lv_obj_style_gen.h **** }
 240:Drivers/lvgl/src/core/lv_obj_style_gen.h **** 
 241:Drivers/lvgl/src/core/lv_obj_style_gen.h **** static inline lv_color_t lv_obj_get_style_border_color_filtered(const struct _lv_obj_t * obj, uint3
 242:Drivers/lvgl/src/core/lv_obj_style_gen.h **** {
 243:Drivers/lvgl/src/core/lv_obj_style_gen.h ****     lv_style_value_t v = _lv_obj_style_apply_color_filter(obj, part, lv_obj_get_style_prop(obj, par
 244:Drivers/lvgl/src/core/lv_obj_style_gen.h ****     return v.color;
 245:Drivers/lvgl/src/core/lv_obj_style_gen.h **** }
 246:Drivers/lvgl/src/core/lv_obj_style_gen.h **** 
 247:Drivers/lvgl/src/core/lv_obj_style_gen.h **** static inline lv_opa_t lv_obj_get_style_border_opa(const struct _lv_obj_t * obj, uint32_t part)
 179              		.loc 2 247 24 view .LVU45
 180              	.LBB100:
 248:Drivers/lvgl/src/core/lv_obj_style_gen.h **** {
 249:Drivers/lvgl/src/core/lv_obj_style_gen.h ****     lv_style_value_t v = lv_obj_get_style_prop(obj, part, LV_STYLE_BORDER_OPA);
 181              		.loc 2 249 5 view .LVU46
 182              		.loc 2 249 26 is_stmt 0 view .LVU47
 183 0020 3122     		movs	r2, #49
 184 0022 4FF48031 		mov	r1, #65536
 185 0026 2846     		mov	r0, r5
 186 0028 FFF7FEFF 		bl	lv_obj_get_style_prop
 187              	.LVL17:
 250:Drivers/lvgl/src/core/lv_obj_style_gen.h ****     return (lv_opa_t)v.num;
 188              		.loc 2 250 5 is_stmt 1 view .LVU48
 189              		.loc 2 250 12 is_stmt 0 view .LVU49
 190 002c C0B2     		uxtb	r0, r0
ARM GAS  /var/folders/0z/tsy30v1j4xl4_7kw94k978ww0000gn/T//ccVt8IXl.s 			page 26


 191              	.LVL18:
 192              		.loc 2 250 12 view .LVU50
 193              	.LBE100:
 194              	.LBE99:
 681:Drivers/lvgl/src/core/lv_obj.c ****     if(dsc->border_opa > LV_OPA_MIN) {
 195              		.loc 1 681 21 view .LVU51
 196 002e 84F82200 		strb	r0, [r4, #34]
 682:Drivers/lvgl/src/core/lv_obj.c ****         dsc->border_width = lv_obj_get_style_border_width(obj, LV_PART_SCROLLBAR);
 197              		.loc 1 682 5 is_stmt 1 view .LVU52
 682:Drivers/lvgl/src/core/lv_obj.c ****         dsc->border_width = lv_obj_get_style_border_width(obj, LV_PART_SCROLLBAR);
 198              		.loc 1 682 7 is_stmt 0 view .LVU53
 199 0032 0228     		cmp	r0, #2
 200 0034 38D8     		bhi	.L22
 201              	.L13:
 693:Drivers/lvgl/src/core/lv_obj.c ****     if(dsc->shadow_opa > LV_OPA_MIN) {
 202              		.loc 1 693 5 is_stmt 1 view .LVU54
 203              	.LVL19:
 204              	.LBB101:
 205              	.LBI101:
 251:Drivers/lvgl/src/core/lv_obj_style_gen.h **** }
 252:Drivers/lvgl/src/core/lv_obj_style_gen.h **** 
 253:Drivers/lvgl/src/core/lv_obj_style_gen.h **** static inline lv_coord_t lv_obj_get_style_border_width(const struct _lv_obj_t * obj, uint32_t part)
 254:Drivers/lvgl/src/core/lv_obj_style_gen.h **** {
 255:Drivers/lvgl/src/core/lv_obj_style_gen.h ****     lv_style_value_t v = lv_obj_get_style_prop(obj, part, LV_STYLE_BORDER_WIDTH);
 256:Drivers/lvgl/src/core/lv_obj_style_gen.h ****     return (lv_coord_t)v.num;
 257:Drivers/lvgl/src/core/lv_obj_style_gen.h **** }
 258:Drivers/lvgl/src/core/lv_obj_style_gen.h **** 
 259:Drivers/lvgl/src/core/lv_obj_style_gen.h **** static inline lv_border_side_t lv_obj_get_style_border_side(const struct _lv_obj_t * obj, uint32_t 
 260:Drivers/lvgl/src/core/lv_obj_style_gen.h **** {
 261:Drivers/lvgl/src/core/lv_obj_style_gen.h ****     lv_style_value_t v = lv_obj_get_style_prop(obj, part, LV_STYLE_BORDER_SIDE);
 262:Drivers/lvgl/src/core/lv_obj_style_gen.h ****     return (lv_border_side_t)v.num;
 263:Drivers/lvgl/src/core/lv_obj_style_gen.h **** }
 264:Drivers/lvgl/src/core/lv_obj_style_gen.h **** 
 265:Drivers/lvgl/src/core/lv_obj_style_gen.h **** static inline bool lv_obj_get_style_border_post(const struct _lv_obj_t * obj, uint32_t part)
 266:Drivers/lvgl/src/core/lv_obj_style_gen.h **** {
 267:Drivers/lvgl/src/core/lv_obj_style_gen.h ****     lv_style_value_t v = lv_obj_get_style_prop(obj, part, LV_STYLE_BORDER_POST);
 268:Drivers/lvgl/src/core/lv_obj_style_gen.h ****     return (bool)v.num;
 269:Drivers/lvgl/src/core/lv_obj_style_gen.h **** }
 270:Drivers/lvgl/src/core/lv_obj_style_gen.h **** 
 271:Drivers/lvgl/src/core/lv_obj_style_gen.h **** static inline lv_coord_t lv_obj_get_style_outline_width(const struct _lv_obj_t * obj, uint32_t part
 272:Drivers/lvgl/src/core/lv_obj_style_gen.h **** {
 273:Drivers/lvgl/src/core/lv_obj_style_gen.h ****     lv_style_value_t v = lv_obj_get_style_prop(obj, part, LV_STYLE_OUTLINE_WIDTH);
 274:Drivers/lvgl/src/core/lv_obj_style_gen.h ****     return (lv_coord_t)v.num;
 275:Drivers/lvgl/src/core/lv_obj_style_gen.h **** }
 276:Drivers/lvgl/src/core/lv_obj_style_gen.h **** 
 277:Drivers/lvgl/src/core/lv_obj_style_gen.h **** static inline lv_color_t lv_obj_get_style_outline_color(const struct _lv_obj_t * obj, uint32_t part
 278:Drivers/lvgl/src/core/lv_obj_style_gen.h **** {
 279:Drivers/lvgl/src/core/lv_obj_style_gen.h ****     lv_style_value_t v = lv_obj_get_style_prop(obj, part, LV_STYLE_OUTLINE_COLOR);
 280:Drivers/lvgl/src/core/lv_obj_style_gen.h ****     return v.color;
 281:Drivers/lvgl/src/core/lv_obj_style_gen.h **** }
 282:Drivers/lvgl/src/core/lv_obj_style_gen.h **** 
 283:Drivers/lvgl/src/core/lv_obj_style_gen.h **** static inline lv_color_t lv_obj_get_style_outline_color_filtered(const struct _lv_obj_t * obj, uint
 284:Drivers/lvgl/src/core/lv_obj_style_gen.h **** {
 285:Drivers/lvgl/src/core/lv_obj_style_gen.h ****     lv_style_value_t v = _lv_obj_style_apply_color_filter(obj, part, lv_obj_get_style_prop(obj, par
 286:Drivers/lvgl/src/core/lv_obj_style_gen.h ****     return v.color;
 287:Drivers/lvgl/src/core/lv_obj_style_gen.h **** }
 288:Drivers/lvgl/src/core/lv_obj_style_gen.h **** 
ARM GAS  /var/folders/0z/tsy30v1j4xl4_7kw94k978ww0000gn/T//ccVt8IXl.s 			page 27


 289:Drivers/lvgl/src/core/lv_obj_style_gen.h **** static inline lv_opa_t lv_obj_get_style_outline_opa(const struct _lv_obj_t * obj, uint32_t part)
 290:Drivers/lvgl/src/core/lv_obj_style_gen.h **** {
 291:Drivers/lvgl/src/core/lv_obj_style_gen.h ****     lv_style_value_t v = lv_obj_get_style_prop(obj, part, LV_STYLE_OUTLINE_OPA);
 292:Drivers/lvgl/src/core/lv_obj_style_gen.h ****     return (lv_opa_t)v.num;
 293:Drivers/lvgl/src/core/lv_obj_style_gen.h **** }
 294:Drivers/lvgl/src/core/lv_obj_style_gen.h **** 
 295:Drivers/lvgl/src/core/lv_obj_style_gen.h **** static inline lv_coord_t lv_obj_get_style_outline_pad(const struct _lv_obj_t * obj, uint32_t part)
 296:Drivers/lvgl/src/core/lv_obj_style_gen.h **** {
 297:Drivers/lvgl/src/core/lv_obj_style_gen.h ****     lv_style_value_t v = lv_obj_get_style_prop(obj, part, LV_STYLE_OUTLINE_PAD);
 298:Drivers/lvgl/src/core/lv_obj_style_gen.h ****     return (lv_coord_t)v.num;
 299:Drivers/lvgl/src/core/lv_obj_style_gen.h **** }
 300:Drivers/lvgl/src/core/lv_obj_style_gen.h **** 
 301:Drivers/lvgl/src/core/lv_obj_style_gen.h **** static inline lv_coord_t lv_obj_get_style_shadow_width(const struct _lv_obj_t * obj, uint32_t part)
 302:Drivers/lvgl/src/core/lv_obj_style_gen.h **** {
 303:Drivers/lvgl/src/core/lv_obj_style_gen.h ****     lv_style_value_t v = lv_obj_get_style_prop(obj, part, LV_STYLE_SHADOW_WIDTH);
 304:Drivers/lvgl/src/core/lv_obj_style_gen.h ****     return (lv_coord_t)v.num;
 305:Drivers/lvgl/src/core/lv_obj_style_gen.h **** }
 306:Drivers/lvgl/src/core/lv_obj_style_gen.h **** 
 307:Drivers/lvgl/src/core/lv_obj_style_gen.h **** static inline lv_coord_t lv_obj_get_style_shadow_ofs_x(const struct _lv_obj_t * obj, uint32_t part)
 308:Drivers/lvgl/src/core/lv_obj_style_gen.h **** {
 309:Drivers/lvgl/src/core/lv_obj_style_gen.h ****     lv_style_value_t v = lv_obj_get_style_prop(obj, part, LV_STYLE_SHADOW_OFS_X);
 310:Drivers/lvgl/src/core/lv_obj_style_gen.h ****     return (lv_coord_t)v.num;
 311:Drivers/lvgl/src/core/lv_obj_style_gen.h **** }
 312:Drivers/lvgl/src/core/lv_obj_style_gen.h **** 
 313:Drivers/lvgl/src/core/lv_obj_style_gen.h **** static inline lv_coord_t lv_obj_get_style_shadow_ofs_y(const struct _lv_obj_t * obj, uint32_t part)
 314:Drivers/lvgl/src/core/lv_obj_style_gen.h **** {
 315:Drivers/lvgl/src/core/lv_obj_style_gen.h ****     lv_style_value_t v = lv_obj_get_style_prop(obj, part, LV_STYLE_SHADOW_OFS_Y);
 316:Drivers/lvgl/src/core/lv_obj_style_gen.h ****     return (lv_coord_t)v.num;
 317:Drivers/lvgl/src/core/lv_obj_style_gen.h **** }
 318:Drivers/lvgl/src/core/lv_obj_style_gen.h **** 
 319:Drivers/lvgl/src/core/lv_obj_style_gen.h **** static inline lv_coord_t lv_obj_get_style_shadow_spread(const struct _lv_obj_t * obj, uint32_t part
 320:Drivers/lvgl/src/core/lv_obj_style_gen.h **** {
 321:Drivers/lvgl/src/core/lv_obj_style_gen.h ****     lv_style_value_t v = lv_obj_get_style_prop(obj, part, LV_STYLE_SHADOW_SPREAD);
 322:Drivers/lvgl/src/core/lv_obj_style_gen.h ****     return (lv_coord_t)v.num;
 323:Drivers/lvgl/src/core/lv_obj_style_gen.h **** }
 324:Drivers/lvgl/src/core/lv_obj_style_gen.h **** 
 325:Drivers/lvgl/src/core/lv_obj_style_gen.h **** static inline lv_color_t lv_obj_get_style_shadow_color(const struct _lv_obj_t * obj, uint32_t part)
 326:Drivers/lvgl/src/core/lv_obj_style_gen.h **** {
 327:Drivers/lvgl/src/core/lv_obj_style_gen.h ****     lv_style_value_t v = lv_obj_get_style_prop(obj, part, LV_STYLE_SHADOW_COLOR);
 328:Drivers/lvgl/src/core/lv_obj_style_gen.h ****     return v.color;
 329:Drivers/lvgl/src/core/lv_obj_style_gen.h **** }
 330:Drivers/lvgl/src/core/lv_obj_style_gen.h **** 
 331:Drivers/lvgl/src/core/lv_obj_style_gen.h **** static inline lv_color_t lv_obj_get_style_shadow_color_filtered(const struct _lv_obj_t * obj, uint3
 332:Drivers/lvgl/src/core/lv_obj_style_gen.h **** {
 333:Drivers/lvgl/src/core/lv_obj_style_gen.h ****     lv_style_value_t v = _lv_obj_style_apply_color_filter(obj, part, lv_obj_get_style_prop(obj, par
 334:Drivers/lvgl/src/core/lv_obj_style_gen.h ****     return v.color;
 335:Drivers/lvgl/src/core/lv_obj_style_gen.h **** }
 336:Drivers/lvgl/src/core/lv_obj_style_gen.h **** 
 337:Drivers/lvgl/src/core/lv_obj_style_gen.h **** static inline lv_opa_t lv_obj_get_style_shadow_opa(const struct _lv_obj_t * obj, uint32_t part)
 206              		.loc 2 337 24 view .LVU55
 207              	.LBB102:
 338:Drivers/lvgl/src/core/lv_obj_style_gen.h **** {
 339:Drivers/lvgl/src/core/lv_obj_style_gen.h ****     lv_style_value_t v = lv_obj_get_style_prop(obj, part, LV_STYLE_SHADOW_OPA);
 208              		.loc 2 339 5 view .LVU56
 209              		.loc 2 339 26 is_stmt 0 view .LVU57
 210 0036 4522     		movs	r2, #69
 211 0038 4FF48031 		mov	r1, #65536
ARM GAS  /var/folders/0z/tsy30v1j4xl4_7kw94k978ww0000gn/T//ccVt8IXl.s 			page 28


 212 003c 2846     		mov	r0, r5
 213 003e FFF7FEFF 		bl	lv_obj_get_style_prop
 214              	.LVL20:
 340:Drivers/lvgl/src/core/lv_obj_style_gen.h ****     return (lv_opa_t)v.num;
 215              		.loc 2 340 5 is_stmt 1 view .LVU58
 216              		.loc 2 340 12 is_stmt 0 view .LVU59
 217 0042 C0B2     		uxtb	r0, r0
 218              	.LVL21:
 219              		.loc 2 340 12 view .LVU60
 220              	.LBE102:
 221              	.LBE101:
 693:Drivers/lvgl/src/core/lv_obj.c ****     if(dsc->shadow_opa > LV_OPA_MIN) {
 222              		.loc 1 693 21 view .LVU61
 223 0044 84F83600 		strb	r0, [r4, #54]
 694:Drivers/lvgl/src/core/lv_obj.c ****         dsc->shadow_width = lv_obj_get_style_shadow_width(obj, LV_PART_SCROLLBAR);
 224              		.loc 1 694 5 is_stmt 1 view .LVU62
 694:Drivers/lvgl/src/core/lv_obj.c ****         dsc->shadow_width = lv_obj_get_style_shadow_width(obj, LV_PART_SCROLLBAR);
 225              		.loc 1 694 7 is_stmt 0 view .LVU63
 226 0048 0228     		cmp	r0, #2
 227 004a 43D8     		bhi	.L23
 228              	.L15:
 705:Drivers/lvgl/src/core/lv_obj.c ****     if(opa < LV_OPA_MAX) {
 229              		.loc 1 705 5 is_stmt 1 view .LVU64
 705:Drivers/lvgl/src/core/lv_obj.c ****     if(opa < LV_OPA_MAX) {
 230              		.loc 1 705 20 is_stmt 0 view .LVU65
 231 004c 4FF48031 		mov	r1, #65536
 232 0050 2846     		mov	r0, r5
 233 0052 FFF7FEFF 		bl	lv_obj_get_style_opa_recursive
 234              	.LVL22:
 706:Drivers/lvgl/src/core/lv_obj.c ****         dsc->bg_opa = (dsc->bg_opa * opa) >> 8;
 235              		.loc 1 706 5 is_stmt 1 view .LVU66
 706:Drivers/lvgl/src/core/lv_obj.c ****         dsc->bg_opa = (dsc->bg_opa * opa) >> 8;
 236              		.loc 1 706 7 is_stmt 0 view .LVU67
 237 0056 FC28     		cmp	r0, #252
 238 0058 0DD8     		bhi	.L17
 707:Drivers/lvgl/src/core/lv_obj.c ****         dsc->border_opa = (dsc->bg_opa * opa) >> 8;
 239              		.loc 1 707 9 is_stmt 1 view .LVU68
 707:Drivers/lvgl/src/core/lv_obj.c ****         dsc->border_opa = (dsc->bg_opa * opa) >> 8;
 240              		.loc 1 707 27 is_stmt 0 view .LVU69
 241 005a E378     		ldrb	r3, [r4, #3]	@ zero_extendqisi2
 707:Drivers/lvgl/src/core/lv_obj.c ****         dsc->border_opa = (dsc->bg_opa * opa) >> 8;
 242              		.loc 1 707 36 view .LVU70
 243 005c 00FB03F3 		mul	r3, r0, r3
 707:Drivers/lvgl/src/core/lv_obj.c ****         dsc->border_opa = (dsc->bg_opa * opa) >> 8;
 244              		.loc 1 707 21 view .LVU71
 245 0060 C3F30723 		ubfx	r3, r3, #8, #8
 246 0064 E370     		strb	r3, [r4, #3]
 708:Drivers/lvgl/src/core/lv_obj.c ****         dsc->shadow_opa = (dsc->bg_opa * opa) >> 8;
 247              		.loc 1 708 9 is_stmt 1 view .LVU72
 708:Drivers/lvgl/src/core/lv_obj.c ****         dsc->shadow_opa = (dsc->bg_opa * opa) >> 8;
 248              		.loc 1 708 40 is_stmt 0 view .LVU73
 249 0066 03FB00F0 		mul	r0, r3, r0
 250              	.LVL23:
 708:Drivers/lvgl/src/core/lv_obj.c ****         dsc->shadow_opa = (dsc->bg_opa * opa) >> 8;
 251              		.loc 1 708 25 view .LVU74
 252 006a C0F30720 		ubfx	r0, r0, #8, #8
 253 006e 84F82200 		strb	r0, [r4, #34]
ARM GAS  /var/folders/0z/tsy30v1j4xl4_7kw94k978ww0000gn/T//ccVt8IXl.s 			page 29


 709:Drivers/lvgl/src/core/lv_obj.c ****     }
 254              		.loc 1 709 9 is_stmt 1 view .LVU75
 709:Drivers/lvgl/src/core/lv_obj.c ****     }
 255              		.loc 1 709 25 is_stmt 0 view .LVU76
 256 0072 84F83600 		strb	r0, [r4, #54]
 257              	.L17:
 712:Drivers/lvgl/src/core/lv_obj.c ****         dsc->radius = lv_obj_get_style_radius(obj, LV_PART_SCROLLBAR);
 258              		.loc 1 712 5 is_stmt 1 view .LVU77
 712:Drivers/lvgl/src/core/lv_obj.c ****         dsc->radius = lv_obj_get_style_radius(obj, LV_PART_SCROLLBAR);
 259              		.loc 1 712 11 is_stmt 0 view .LVU78
 260 0076 E378     		ldrb	r3, [r4, #3]	@ zero_extendqisi2
 712:Drivers/lvgl/src/core/lv_obj.c ****         dsc->radius = lv_obj_get_style_radius(obj, LV_PART_SCROLLBAR);
 261              		.loc 1 712 7 view .LVU79
 262 0078 2BB9     		cbnz	r3, .L18
 712:Drivers/lvgl/src/core/lv_obj.c ****         dsc->radius = lv_obj_get_style_radius(obj, LV_PART_SCROLLBAR);
 263              		.loc 1 712 43 discriminator 1 view .LVU80
 264 007a 94F82230 		ldrb	r3, [r4, #34]	@ zero_extendqisi2
 712:Drivers/lvgl/src/core/lv_obj.c ****         dsc->radius = lv_obj_get_style_radius(obj, LV_PART_SCROLLBAR);
 265              		.loc 1 712 37 discriminator 1 view .LVU81
 266 007e 13B9     		cbnz	r3, .L18
 712:Drivers/lvgl/src/core/lv_obj.c ****         dsc->radius = lv_obj_get_style_radius(obj, LV_PART_SCROLLBAR);
 267              		.loc 1 712 79 discriminator 2 view .LVU82
 268 0080 94F83600 		ldrb	r0, [r4, #54]	@ zero_extendqisi2
 712:Drivers/lvgl/src/core/lv_obj.c ****         dsc->radius = lv_obj_get_style_radius(obj, LV_PART_SCROLLBAR);
 269              		.loc 1 712 73 discriminator 2 view .LVU83
 270 0084 38B1     		cbz	r0, .L19
 271              	.L18:
 713:Drivers/lvgl/src/core/lv_obj.c ****         return LV_RES_OK;
 272              		.loc 1 713 9 is_stmt 1 view .LVU84
 273              	.LVL24:
 274              	.LBB103:
 275              	.LBI103:
 341:Drivers/lvgl/src/core/lv_obj_style_gen.h **** }
 342:Drivers/lvgl/src/core/lv_obj_style_gen.h **** 
 343:Drivers/lvgl/src/core/lv_obj_style_gen.h **** static inline lv_opa_t lv_obj_get_style_img_opa(const struct _lv_obj_t * obj, uint32_t part)
 344:Drivers/lvgl/src/core/lv_obj_style_gen.h **** {
 345:Drivers/lvgl/src/core/lv_obj_style_gen.h ****     lv_style_value_t v = lv_obj_get_style_prop(obj, part, LV_STYLE_IMG_OPA);
 346:Drivers/lvgl/src/core/lv_obj_style_gen.h ****     return (lv_opa_t)v.num;
 347:Drivers/lvgl/src/core/lv_obj_style_gen.h **** }
 348:Drivers/lvgl/src/core/lv_obj_style_gen.h **** 
 349:Drivers/lvgl/src/core/lv_obj_style_gen.h **** static inline lv_color_t lv_obj_get_style_img_recolor(const struct _lv_obj_t * obj, uint32_t part)
 350:Drivers/lvgl/src/core/lv_obj_style_gen.h **** {
 351:Drivers/lvgl/src/core/lv_obj_style_gen.h ****     lv_style_value_t v = lv_obj_get_style_prop(obj, part, LV_STYLE_IMG_RECOLOR);
 352:Drivers/lvgl/src/core/lv_obj_style_gen.h ****     return v.color;
 353:Drivers/lvgl/src/core/lv_obj_style_gen.h **** }
 354:Drivers/lvgl/src/core/lv_obj_style_gen.h **** 
 355:Drivers/lvgl/src/core/lv_obj_style_gen.h **** static inline lv_color_t lv_obj_get_style_img_recolor_filtered(const struct _lv_obj_t * obj, uint32
 356:Drivers/lvgl/src/core/lv_obj_style_gen.h **** {
 357:Drivers/lvgl/src/core/lv_obj_style_gen.h ****     lv_style_value_t v = _lv_obj_style_apply_color_filter(obj, part, lv_obj_get_style_prop(obj, par
 358:Drivers/lvgl/src/core/lv_obj_style_gen.h ****     return v.color;
 359:Drivers/lvgl/src/core/lv_obj_style_gen.h **** }
 360:Drivers/lvgl/src/core/lv_obj_style_gen.h **** 
 361:Drivers/lvgl/src/core/lv_obj_style_gen.h **** static inline lv_opa_t lv_obj_get_style_img_recolor_opa(const struct _lv_obj_t * obj, uint32_t part
 362:Drivers/lvgl/src/core/lv_obj_style_gen.h **** {
 363:Drivers/lvgl/src/core/lv_obj_style_gen.h ****     lv_style_value_t v = lv_obj_get_style_prop(obj, part, LV_STYLE_IMG_RECOLOR_OPA);
 364:Drivers/lvgl/src/core/lv_obj_style_gen.h ****     return (lv_opa_t)v.num;
 365:Drivers/lvgl/src/core/lv_obj_style_gen.h **** }
ARM GAS  /var/folders/0z/tsy30v1j4xl4_7kw94k978ww0000gn/T//ccVt8IXl.s 			page 30


 366:Drivers/lvgl/src/core/lv_obj_style_gen.h **** 
 367:Drivers/lvgl/src/core/lv_obj_style_gen.h **** static inline lv_coord_t lv_obj_get_style_line_width(const struct _lv_obj_t * obj, uint32_t part)
 368:Drivers/lvgl/src/core/lv_obj_style_gen.h **** {
 369:Drivers/lvgl/src/core/lv_obj_style_gen.h ****     lv_style_value_t v = lv_obj_get_style_prop(obj, part, LV_STYLE_LINE_WIDTH);
 370:Drivers/lvgl/src/core/lv_obj_style_gen.h ****     return (lv_coord_t)v.num;
 371:Drivers/lvgl/src/core/lv_obj_style_gen.h **** }
 372:Drivers/lvgl/src/core/lv_obj_style_gen.h **** 
 373:Drivers/lvgl/src/core/lv_obj_style_gen.h **** static inline lv_coord_t lv_obj_get_style_line_dash_width(const struct _lv_obj_t * obj, uint32_t pa
 374:Drivers/lvgl/src/core/lv_obj_style_gen.h **** {
 375:Drivers/lvgl/src/core/lv_obj_style_gen.h ****     lv_style_value_t v = lv_obj_get_style_prop(obj, part, LV_STYLE_LINE_DASH_WIDTH);
 376:Drivers/lvgl/src/core/lv_obj_style_gen.h ****     return (lv_coord_t)v.num;
 377:Drivers/lvgl/src/core/lv_obj_style_gen.h **** }
 378:Drivers/lvgl/src/core/lv_obj_style_gen.h **** 
 379:Drivers/lvgl/src/core/lv_obj_style_gen.h **** static inline lv_coord_t lv_obj_get_style_line_dash_gap(const struct _lv_obj_t * obj, uint32_t part
 380:Drivers/lvgl/src/core/lv_obj_style_gen.h **** {
 381:Drivers/lvgl/src/core/lv_obj_style_gen.h ****     lv_style_value_t v = lv_obj_get_style_prop(obj, part, LV_STYLE_LINE_DASH_GAP);
 382:Drivers/lvgl/src/core/lv_obj_style_gen.h ****     return (lv_coord_t)v.num;
 383:Drivers/lvgl/src/core/lv_obj_style_gen.h **** }
 384:Drivers/lvgl/src/core/lv_obj_style_gen.h **** 
 385:Drivers/lvgl/src/core/lv_obj_style_gen.h **** static inline bool lv_obj_get_style_line_rounded(const struct _lv_obj_t * obj, uint32_t part)
 386:Drivers/lvgl/src/core/lv_obj_style_gen.h **** {
 387:Drivers/lvgl/src/core/lv_obj_style_gen.h ****     lv_style_value_t v = lv_obj_get_style_prop(obj, part, LV_STYLE_LINE_ROUNDED);
 388:Drivers/lvgl/src/core/lv_obj_style_gen.h ****     return (bool)v.num;
 389:Drivers/lvgl/src/core/lv_obj_style_gen.h **** }
 390:Drivers/lvgl/src/core/lv_obj_style_gen.h **** 
 391:Drivers/lvgl/src/core/lv_obj_style_gen.h **** static inline lv_color_t lv_obj_get_style_line_color(const struct _lv_obj_t * obj, uint32_t part)
 392:Drivers/lvgl/src/core/lv_obj_style_gen.h **** {
 393:Drivers/lvgl/src/core/lv_obj_style_gen.h ****     lv_style_value_t v = lv_obj_get_style_prop(obj, part, LV_STYLE_LINE_COLOR);
 394:Drivers/lvgl/src/core/lv_obj_style_gen.h ****     return v.color;
 395:Drivers/lvgl/src/core/lv_obj_style_gen.h **** }
 396:Drivers/lvgl/src/core/lv_obj_style_gen.h **** 
 397:Drivers/lvgl/src/core/lv_obj_style_gen.h **** static inline lv_color_t lv_obj_get_style_line_color_filtered(const struct _lv_obj_t * obj, uint32_
 398:Drivers/lvgl/src/core/lv_obj_style_gen.h **** {
 399:Drivers/lvgl/src/core/lv_obj_style_gen.h ****     lv_style_value_t v = _lv_obj_style_apply_color_filter(obj, part, lv_obj_get_style_prop(obj, par
 400:Drivers/lvgl/src/core/lv_obj_style_gen.h ****     return v.color;
 401:Drivers/lvgl/src/core/lv_obj_style_gen.h **** }
 402:Drivers/lvgl/src/core/lv_obj_style_gen.h **** 
 403:Drivers/lvgl/src/core/lv_obj_style_gen.h **** static inline lv_opa_t lv_obj_get_style_line_opa(const struct _lv_obj_t * obj, uint32_t part)
 404:Drivers/lvgl/src/core/lv_obj_style_gen.h **** {
 405:Drivers/lvgl/src/core/lv_obj_style_gen.h ****     lv_style_value_t v = lv_obj_get_style_prop(obj, part, LV_STYLE_LINE_OPA);
 406:Drivers/lvgl/src/core/lv_obj_style_gen.h ****     return (lv_opa_t)v.num;
 407:Drivers/lvgl/src/core/lv_obj_style_gen.h **** }
 408:Drivers/lvgl/src/core/lv_obj_style_gen.h **** 
 409:Drivers/lvgl/src/core/lv_obj_style_gen.h **** static inline lv_coord_t lv_obj_get_style_arc_width(const struct _lv_obj_t * obj, uint32_t part)
 410:Drivers/lvgl/src/core/lv_obj_style_gen.h **** {
 411:Drivers/lvgl/src/core/lv_obj_style_gen.h ****     lv_style_value_t v = lv_obj_get_style_prop(obj, part, LV_STYLE_ARC_WIDTH);
 412:Drivers/lvgl/src/core/lv_obj_style_gen.h ****     return (lv_coord_t)v.num;
 413:Drivers/lvgl/src/core/lv_obj_style_gen.h **** }
 414:Drivers/lvgl/src/core/lv_obj_style_gen.h **** 
 415:Drivers/lvgl/src/core/lv_obj_style_gen.h **** static inline bool lv_obj_get_style_arc_rounded(const struct _lv_obj_t * obj, uint32_t part)
 416:Drivers/lvgl/src/core/lv_obj_style_gen.h **** {
 417:Drivers/lvgl/src/core/lv_obj_style_gen.h ****     lv_style_value_t v = lv_obj_get_style_prop(obj, part, LV_STYLE_ARC_ROUNDED);
 418:Drivers/lvgl/src/core/lv_obj_style_gen.h ****     return (bool)v.num;
 419:Drivers/lvgl/src/core/lv_obj_style_gen.h **** }
 420:Drivers/lvgl/src/core/lv_obj_style_gen.h **** 
 421:Drivers/lvgl/src/core/lv_obj_style_gen.h **** static inline lv_color_t lv_obj_get_style_arc_color(const struct _lv_obj_t * obj, uint32_t part)
 422:Drivers/lvgl/src/core/lv_obj_style_gen.h **** {
ARM GAS  /var/folders/0z/tsy30v1j4xl4_7kw94k978ww0000gn/T//ccVt8IXl.s 			page 31


 423:Drivers/lvgl/src/core/lv_obj_style_gen.h ****     lv_style_value_t v = lv_obj_get_style_prop(obj, part, LV_STYLE_ARC_COLOR);
 424:Drivers/lvgl/src/core/lv_obj_style_gen.h ****     return v.color;
 425:Drivers/lvgl/src/core/lv_obj_style_gen.h **** }
 426:Drivers/lvgl/src/core/lv_obj_style_gen.h **** 
 427:Drivers/lvgl/src/core/lv_obj_style_gen.h **** static inline lv_color_t lv_obj_get_style_arc_color_filtered(const struct _lv_obj_t * obj, uint32_t
 428:Drivers/lvgl/src/core/lv_obj_style_gen.h **** {
 429:Drivers/lvgl/src/core/lv_obj_style_gen.h ****     lv_style_value_t v = _lv_obj_style_apply_color_filter(obj, part, lv_obj_get_style_prop(obj, par
 430:Drivers/lvgl/src/core/lv_obj_style_gen.h ****     return v.color;
 431:Drivers/lvgl/src/core/lv_obj_style_gen.h **** }
 432:Drivers/lvgl/src/core/lv_obj_style_gen.h **** 
 433:Drivers/lvgl/src/core/lv_obj_style_gen.h **** static inline lv_opa_t lv_obj_get_style_arc_opa(const struct _lv_obj_t * obj, uint32_t part)
 434:Drivers/lvgl/src/core/lv_obj_style_gen.h **** {
 435:Drivers/lvgl/src/core/lv_obj_style_gen.h ****     lv_style_value_t v = lv_obj_get_style_prop(obj, part, LV_STYLE_ARC_OPA);
 436:Drivers/lvgl/src/core/lv_obj_style_gen.h ****     return (lv_opa_t)v.num;
 437:Drivers/lvgl/src/core/lv_obj_style_gen.h **** }
 438:Drivers/lvgl/src/core/lv_obj_style_gen.h **** 
 439:Drivers/lvgl/src/core/lv_obj_style_gen.h **** static inline const void * lv_obj_get_style_arc_img_src(const struct _lv_obj_t * obj, uint32_t part
 440:Drivers/lvgl/src/core/lv_obj_style_gen.h **** {
 441:Drivers/lvgl/src/core/lv_obj_style_gen.h ****     lv_style_value_t v = lv_obj_get_style_prop(obj, part, LV_STYLE_ARC_IMG_SRC);
 442:Drivers/lvgl/src/core/lv_obj_style_gen.h ****     return (const void *)v.ptr;
 443:Drivers/lvgl/src/core/lv_obj_style_gen.h **** }
 444:Drivers/lvgl/src/core/lv_obj_style_gen.h **** 
 445:Drivers/lvgl/src/core/lv_obj_style_gen.h **** static inline lv_color_t lv_obj_get_style_text_color(const struct _lv_obj_t * obj, uint32_t part)
 446:Drivers/lvgl/src/core/lv_obj_style_gen.h **** {
 447:Drivers/lvgl/src/core/lv_obj_style_gen.h ****     lv_style_value_t v = lv_obj_get_style_prop(obj, part, LV_STYLE_TEXT_COLOR);
 448:Drivers/lvgl/src/core/lv_obj_style_gen.h ****     return v.color;
 449:Drivers/lvgl/src/core/lv_obj_style_gen.h **** }
 450:Drivers/lvgl/src/core/lv_obj_style_gen.h **** 
 451:Drivers/lvgl/src/core/lv_obj_style_gen.h **** static inline lv_color_t lv_obj_get_style_text_color_filtered(const struct _lv_obj_t * obj, uint32_
 452:Drivers/lvgl/src/core/lv_obj_style_gen.h **** {
 453:Drivers/lvgl/src/core/lv_obj_style_gen.h ****     lv_style_value_t v = _lv_obj_style_apply_color_filter(obj, part, lv_obj_get_style_prop(obj, par
 454:Drivers/lvgl/src/core/lv_obj_style_gen.h ****     return v.color;
 455:Drivers/lvgl/src/core/lv_obj_style_gen.h **** }
 456:Drivers/lvgl/src/core/lv_obj_style_gen.h **** 
 457:Drivers/lvgl/src/core/lv_obj_style_gen.h **** static inline lv_opa_t lv_obj_get_style_text_opa(const struct _lv_obj_t * obj, uint32_t part)
 458:Drivers/lvgl/src/core/lv_obj_style_gen.h **** {
 459:Drivers/lvgl/src/core/lv_obj_style_gen.h ****     lv_style_value_t v = lv_obj_get_style_prop(obj, part, LV_STYLE_TEXT_OPA);
 460:Drivers/lvgl/src/core/lv_obj_style_gen.h ****     return (lv_opa_t)v.num;
 461:Drivers/lvgl/src/core/lv_obj_style_gen.h **** }
 462:Drivers/lvgl/src/core/lv_obj_style_gen.h **** 
 463:Drivers/lvgl/src/core/lv_obj_style_gen.h **** static inline const lv_font_t * lv_obj_get_style_text_font(const struct _lv_obj_t * obj, uint32_t p
 464:Drivers/lvgl/src/core/lv_obj_style_gen.h **** {
 465:Drivers/lvgl/src/core/lv_obj_style_gen.h ****     lv_style_value_t v = lv_obj_get_style_prop(obj, part, LV_STYLE_TEXT_FONT);
 466:Drivers/lvgl/src/core/lv_obj_style_gen.h ****     return (const lv_font_t *)v.ptr;
 467:Drivers/lvgl/src/core/lv_obj_style_gen.h **** }
 468:Drivers/lvgl/src/core/lv_obj_style_gen.h **** 
 469:Drivers/lvgl/src/core/lv_obj_style_gen.h **** static inline lv_coord_t lv_obj_get_style_text_letter_space(const struct _lv_obj_t * obj, uint32_t 
 470:Drivers/lvgl/src/core/lv_obj_style_gen.h **** {
 471:Drivers/lvgl/src/core/lv_obj_style_gen.h ****     lv_style_value_t v = lv_obj_get_style_prop(obj, part, LV_STYLE_TEXT_LETTER_SPACE);
 472:Drivers/lvgl/src/core/lv_obj_style_gen.h ****     return (lv_coord_t)v.num;
 473:Drivers/lvgl/src/core/lv_obj_style_gen.h **** }
 474:Drivers/lvgl/src/core/lv_obj_style_gen.h **** 
 475:Drivers/lvgl/src/core/lv_obj_style_gen.h **** static inline lv_coord_t lv_obj_get_style_text_line_space(const struct _lv_obj_t * obj, uint32_t pa
 476:Drivers/lvgl/src/core/lv_obj_style_gen.h **** {
 477:Drivers/lvgl/src/core/lv_obj_style_gen.h ****     lv_style_value_t v = lv_obj_get_style_prop(obj, part, LV_STYLE_TEXT_LINE_SPACE);
 478:Drivers/lvgl/src/core/lv_obj_style_gen.h ****     return (lv_coord_t)v.num;
 479:Drivers/lvgl/src/core/lv_obj_style_gen.h **** }
ARM GAS  /var/folders/0z/tsy30v1j4xl4_7kw94k978ww0000gn/T//ccVt8IXl.s 			page 32


 480:Drivers/lvgl/src/core/lv_obj_style_gen.h **** 
 481:Drivers/lvgl/src/core/lv_obj_style_gen.h **** static inline lv_text_decor_t lv_obj_get_style_text_decor(const struct _lv_obj_t * obj, uint32_t pa
 482:Drivers/lvgl/src/core/lv_obj_style_gen.h **** {
 483:Drivers/lvgl/src/core/lv_obj_style_gen.h ****     lv_style_value_t v = lv_obj_get_style_prop(obj, part, LV_STYLE_TEXT_DECOR);
 484:Drivers/lvgl/src/core/lv_obj_style_gen.h ****     return (lv_text_decor_t)v.num;
 485:Drivers/lvgl/src/core/lv_obj_style_gen.h **** }
 486:Drivers/lvgl/src/core/lv_obj_style_gen.h **** 
 487:Drivers/lvgl/src/core/lv_obj_style_gen.h **** static inline lv_text_align_t lv_obj_get_style_text_align(const struct _lv_obj_t * obj, uint32_t pa
 488:Drivers/lvgl/src/core/lv_obj_style_gen.h **** {
 489:Drivers/lvgl/src/core/lv_obj_style_gen.h ****     lv_style_value_t v = lv_obj_get_style_prop(obj, part, LV_STYLE_TEXT_ALIGN);
 490:Drivers/lvgl/src/core/lv_obj_style_gen.h ****     return (lv_text_align_t)v.num;
 491:Drivers/lvgl/src/core/lv_obj_style_gen.h **** }
 492:Drivers/lvgl/src/core/lv_obj_style_gen.h **** 
 493:Drivers/lvgl/src/core/lv_obj_style_gen.h **** static inline lv_coord_t lv_obj_get_style_radius(const struct _lv_obj_t * obj, uint32_t part)
 276              		.loc 2 493 26 view .LVU85
 277              	.LBB104:
 494:Drivers/lvgl/src/core/lv_obj_style_gen.h **** {
 495:Drivers/lvgl/src/core/lv_obj_style_gen.h ****     lv_style_value_t v = lv_obj_get_style_prop(obj, part, LV_STYLE_RADIUS);
 278              		.loc 2 495 5 view .LVU86
 279              		.loc 2 495 26 is_stmt 0 view .LVU87
 280 0086 0B22     		movs	r2, #11
 281 0088 4FF48031 		mov	r1, #65536
 282 008c 2846     		mov	r0, r5
 283 008e FFF7FEFF 		bl	lv_obj_get_style_prop
 284              	.LVL25:
 496:Drivers/lvgl/src/core/lv_obj_style_gen.h ****     return (lv_coord_t)v.num;
 285              		.loc 2 496 5 is_stmt 1 view .LVU88
 286              		.loc 2 496 5 is_stmt 0 view .LVU89
 287              	.LBE104:
 288              	.LBE103:
 713:Drivers/lvgl/src/core/lv_obj.c ****         return LV_RES_OK;
 289              		.loc 1 713 21 view .LVU90
 290 0092 2080     		strh	r0, [r4]	@ movhi
 714:Drivers/lvgl/src/core/lv_obj.c ****     }
 291              		.loc 1 714 9 is_stmt 1 view .LVU91
 714:Drivers/lvgl/src/core/lv_obj.c ****     }
 292              		.loc 1 714 16 is_stmt 0 view .LVU92
 293 0094 0120     		movs	r0, #1
 294              	.L19:
 723:Drivers/lvgl/src/core/lv_obj.c **** 
 295              		.loc 1 723 1 view .LVU93
 296 0096 38BD     		pop	{r3, r4, r5, pc}
 297              	.LVL26:
 298              	.L21:
 678:Drivers/lvgl/src/core/lv_obj.c ****     }
 299              		.loc 1 678 9 is_stmt 1 view .LVU94
 300              	.LBB105:
 301              	.LBI105:
 139:Drivers/lvgl/src/core/lv_obj_style_gen.h **** {
 302              		.loc 2 139 26 view .LVU95
 303              	.LBB106:
 141:Drivers/lvgl/src/core/lv_obj_style_gen.h ****     return v.color;
 304              		.loc 2 141 5 view .LVU96
 141:Drivers/lvgl/src/core/lv_obj_style_gen.h ****     return v.color;
 305              		.loc 2 141 26 is_stmt 0 view .LVU97
 306 0098 2022     		movs	r2, #32
 307 009a 4FF48031 		mov	r1, #65536
ARM GAS  /var/folders/0z/tsy30v1j4xl4_7kw94k978ww0000gn/T//ccVt8IXl.s 			page 33


 308 009e 2846     		mov	r0, r5
 309 00a0 FFF7FEFF 		bl	lv_obj_get_style_prop
 310              	.LVL27:
 142:Drivers/lvgl/src/core/lv_obj_style_gen.h **** }
 311              		.loc 2 142 5 is_stmt 1 view .LVU98
 142:Drivers/lvgl/src/core/lv_obj_style_gen.h **** }
 312              		.loc 2 142 5 is_stmt 0 view .LVU99
 313              	.LBE106:
 314              	.LBE105:
 678:Drivers/lvgl/src/core/lv_obj.c ****     }
 315              		.loc 1 678 25 view .LVU100
 316 00a4 A080     		strh	r0, [r4, #4]	@ movhi
 317 00a6 BBE7     		b	.L12
 318              	.L22:
 683:Drivers/lvgl/src/core/lv_obj.c ****         if(dsc->border_width > 0) {
 319              		.loc 1 683 9 is_stmt 1 view .LVU101
 320              	.LVL28:
 321              	.LBB107:
 322              	.LBI107:
 253:Drivers/lvgl/src/core/lv_obj_style_gen.h **** {
 323              		.loc 2 253 26 view .LVU102
 324              	.LBB108:
 255:Drivers/lvgl/src/core/lv_obj_style_gen.h ****     return (lv_coord_t)v.num;
 325              		.loc 2 255 5 view .LVU103
 255:Drivers/lvgl/src/core/lv_obj_style_gen.h ****     return (lv_coord_t)v.num;
 326              		.loc 2 255 26 is_stmt 0 view .LVU104
 327 00a8 3222     		movs	r2, #50
 328 00aa 4FF48031 		mov	r1, #65536
 329 00ae 2846     		mov	r0, r5
 330 00b0 FFF7FEFF 		bl	lv_obj_get_style_prop
 331              	.LVL29:
 256:Drivers/lvgl/src/core/lv_obj_style_gen.h **** }
 332              		.loc 2 256 5 is_stmt 1 view .LVU105
 256:Drivers/lvgl/src/core/lv_obj_style_gen.h **** }
 333              		.loc 2 256 12 is_stmt 0 view .LVU106
 334 00b4 00B2     		sxth	r0, r0
 335              	.LVL30:
 256:Drivers/lvgl/src/core/lv_obj_style_gen.h **** }
 336              		.loc 2 256 12 view .LVU107
 337              	.LBE108:
 338              	.LBE107:
 683:Drivers/lvgl/src/core/lv_obj.c ****         if(dsc->border_width > 0) {
 339              		.loc 1 683 27 view .LVU108
 340 00b6 2084     		strh	r0, [r4, #32]	@ movhi
 684:Drivers/lvgl/src/core/lv_obj.c ****             dsc->border_color = lv_obj_get_style_border_color(obj, LV_PART_SCROLLBAR);
 341              		.loc 1 684 9 is_stmt 1 view .LVU109
 684:Drivers/lvgl/src/core/lv_obj.c ****             dsc->border_color = lv_obj_get_style_border_color(obj, LV_PART_SCROLLBAR);
 342              		.loc 1 684 11 is_stmt 0 view .LVU110
 343 00b8 0028     		cmp	r0, #0
 344 00ba 03DC     		bgt	.L24
 688:Drivers/lvgl/src/core/lv_obj.c ****         }
 345              		.loc 1 688 13 is_stmt 1 view .LVU111
 688:Drivers/lvgl/src/core/lv_obj.c ****         }
 346              		.loc 1 688 29 is_stmt 0 view .LVU112
 347 00bc 0023     		movs	r3, #0
 348 00be 84F82230 		strb	r3, [r4, #34]
 349 00c2 B8E7     		b	.L13
ARM GAS  /var/folders/0z/tsy30v1j4xl4_7kw94k978ww0000gn/T//ccVt8IXl.s 			page 34


 350              	.L24:
 685:Drivers/lvgl/src/core/lv_obj.c ****         }
 351              		.loc 1 685 13 is_stmt 1 view .LVU113
 352              	.LVL31:
 353              	.LBB109:
 354              	.LBI109:
 235:Drivers/lvgl/src/core/lv_obj_style_gen.h **** {
 355              		.loc 2 235 26 view .LVU114
 356              	.LBB110:
 237:Drivers/lvgl/src/core/lv_obj_style_gen.h ****     return v.color;
 357              		.loc 2 237 5 view .LVU115
 237:Drivers/lvgl/src/core/lv_obj_style_gen.h ****     return v.color;
 358              		.loc 2 237 26 is_stmt 0 view .LVU116
 359 00c4 3022     		movs	r2, #48
 360 00c6 4FF48031 		mov	r1, #65536
 361 00ca 2846     		mov	r0, r5
 362 00cc FFF7FEFF 		bl	lv_obj_get_style_prop
 363              	.LVL32:
 238:Drivers/lvgl/src/core/lv_obj_style_gen.h **** }
 364              		.loc 2 238 5 is_stmt 1 view .LVU117
 238:Drivers/lvgl/src/core/lv_obj_style_gen.h **** }
 365              		.loc 2 238 5 is_stmt 0 view .LVU118
 366              	.LBE110:
 367              	.LBE109:
 685:Drivers/lvgl/src/core/lv_obj.c ****         }
 368              		.loc 1 685 33 view .LVU119
 369 00d0 E083     		strh	r0, [r4, #30]	@ movhi
 370 00d2 B0E7     		b	.L13
 371              	.L23:
 695:Drivers/lvgl/src/core/lv_obj.c ****         if(dsc->shadow_width > 0) {
 372              		.loc 1 695 9 is_stmt 1 view .LVU120
 373              	.LVL33:
 374              	.LBB111:
 375              	.LBI111:
 301:Drivers/lvgl/src/core/lv_obj_style_gen.h **** {
 376              		.loc 2 301 26 view .LVU121
 377              	.LBB112:
 303:Drivers/lvgl/src/core/lv_obj_style_gen.h ****     return (lv_coord_t)v.num;
 378              		.loc 2 303 5 view .LVU122
 303:Drivers/lvgl/src/core/lv_obj_style_gen.h ****     return (lv_coord_t)v.num;
 379              		.loc 2 303 26 is_stmt 0 view .LVU123
 380 00d4 4022     		movs	r2, #64
 381 00d6 4FF48031 		mov	r1, #65536
 382 00da 2846     		mov	r0, r5
 383 00dc FFF7FEFF 		bl	lv_obj_get_style_prop
 384              	.LVL34:
 304:Drivers/lvgl/src/core/lv_obj_style_gen.h **** }
 385              		.loc 2 304 5 is_stmt 1 view .LVU124
 304:Drivers/lvgl/src/core/lv_obj_style_gen.h **** }
 386              		.loc 2 304 12 is_stmt 0 view .LVU125
 387 00e0 00B2     		sxth	r0, r0
 388              	.LVL35:
 304:Drivers/lvgl/src/core/lv_obj_style_gen.h **** }
 389              		.loc 2 304 12 view .LVU126
 390              	.LBE112:
 391              	.LBE111:
 695:Drivers/lvgl/src/core/lv_obj.c ****         if(dsc->shadow_width > 0) {
ARM GAS  /var/folders/0z/tsy30v1j4xl4_7kw94k978ww0000gn/T//ccVt8IXl.s 			page 35


 392              		.loc 1 695 27 view .LVU127
 393 00e2 E085     		strh	r0, [r4, #46]	@ movhi
 696:Drivers/lvgl/src/core/lv_obj.c ****             dsc->shadow_spread = lv_obj_get_style_shadow_spread(obj, LV_PART_SCROLLBAR);
 394              		.loc 1 696 9 is_stmt 1 view .LVU128
 696:Drivers/lvgl/src/core/lv_obj.c ****             dsc->shadow_spread = lv_obj_get_style_shadow_spread(obj, LV_PART_SCROLLBAR);
 395              		.loc 1 696 11 is_stmt 0 view .LVU129
 396 00e4 0028     		cmp	r0, #0
 397 00e6 03DC     		bgt	.L25
 701:Drivers/lvgl/src/core/lv_obj.c ****         }
 398              		.loc 1 701 13 is_stmt 1 view .LVU130
 701:Drivers/lvgl/src/core/lv_obj.c ****         }
 399              		.loc 1 701 29 is_stmt 0 view .LVU131
 400 00e8 0023     		movs	r3, #0
 401 00ea 84F83630 		strb	r3, [r4, #54]
 402 00ee ADE7     		b	.L15
 403              	.L25:
 697:Drivers/lvgl/src/core/lv_obj.c ****             dsc->shadow_color = lv_obj_get_style_shadow_color(obj, LV_PART_SCROLLBAR);
 404              		.loc 1 697 13 is_stmt 1 view .LVU132
 405              	.LVL36:
 406              	.LBB113:
 407              	.LBI113:
 319:Drivers/lvgl/src/core/lv_obj_style_gen.h **** {
 408              		.loc 2 319 26 view .LVU133
 409              	.LBB114:
 321:Drivers/lvgl/src/core/lv_obj_style_gen.h ****     return (lv_coord_t)v.num;
 410              		.loc 2 321 5 view .LVU134
 321:Drivers/lvgl/src/core/lv_obj_style_gen.h ****     return (lv_coord_t)v.num;
 411              		.loc 2 321 26 is_stmt 0 view .LVU135
 412 00f0 4322     		movs	r2, #67
 413 00f2 4FF48031 		mov	r1, #65536
 414 00f6 2846     		mov	r0, r5
 415 00f8 FFF7FEFF 		bl	lv_obj_get_style_prop
 416              	.LVL37:
 322:Drivers/lvgl/src/core/lv_obj_style_gen.h **** }
 417              		.loc 2 322 5 is_stmt 1 view .LVU136
 322:Drivers/lvgl/src/core/lv_obj_style_gen.h **** }
 418              		.loc 2 322 5 is_stmt 0 view .LVU137
 419              	.LBE114:
 420              	.LBE113:
 697:Drivers/lvgl/src/core/lv_obj.c ****             dsc->shadow_color = lv_obj_get_style_shadow_color(obj, LV_PART_SCROLLBAR);
 421              		.loc 1 697 32 view .LVU138
 422 00fc A086     		strh	r0, [r4, #52]	@ movhi
 698:Drivers/lvgl/src/core/lv_obj.c ****         }
 423              		.loc 1 698 13 is_stmt 1 view .LVU139
 424              	.LVL38:
 425              	.LBB115:
 426              	.LBI115:
 325:Drivers/lvgl/src/core/lv_obj_style_gen.h **** {
 427              		.loc 2 325 26 view .LVU140
 428              	.LBB116:
 327:Drivers/lvgl/src/core/lv_obj_style_gen.h ****     return v.color;
 429              		.loc 2 327 5 view .LVU141
 327:Drivers/lvgl/src/core/lv_obj_style_gen.h ****     return v.color;
 430              		.loc 2 327 26 is_stmt 0 view .LVU142
 431 00fe 4422     		movs	r2, #68
 432 0100 4FF48031 		mov	r1, #65536
 433 0104 2846     		mov	r0, r5
ARM GAS  /var/folders/0z/tsy30v1j4xl4_7kw94k978ww0000gn/T//ccVt8IXl.s 			page 36


 434 0106 FFF7FEFF 		bl	lv_obj_get_style_prop
 435              	.LVL39:
 328:Drivers/lvgl/src/core/lv_obj_style_gen.h **** }
 436              		.loc 2 328 5 is_stmt 1 view .LVU143
 328:Drivers/lvgl/src/core/lv_obj_style_gen.h **** }
 437              		.loc 2 328 5 is_stmt 0 view .LVU144
 438              	.LBE116:
 439              	.LBE115:
 698:Drivers/lvgl/src/core/lv_obj.c ****         }
 440              		.loc 1 698 33 view .LVU145
 441 010a A085     		strh	r0, [r4, #44]	@ movhi
 442 010c 9EE7     		b	.L15
 443              		.cfi_endproc
 444              	.LFE226:
 446              		.section	.text.draw_scrollbar,"ax",%progbits
 447              		.align	1
 448              		.syntax unified
 449              		.thumb
 450              		.thumb_func
 452              	draw_scrollbar:
 453              	.LVL40:
 454              	.LFB225:
 633:Drivers/lvgl/src/core/lv_obj.c **** 
 455              		.loc 1 633 1 is_stmt 1 view -0
 456              		.cfi_startproc
 457              		@ args = 0, pretend = 0, frame = 144
 458              		@ frame_needed = 0, uses_anonymous_args = 0
 633:Drivers/lvgl/src/core/lv_obj.c **** 
 459              		.loc 1 633 1 is_stmt 0 view .LVU147
 460 0000 70B5     		push	{r4, r5, r6, lr}
 461              		.cfi_def_cfa_offset 16
 462              		.cfi_offset 4, -16
 463              		.cfi_offset 5, -12
 464              		.cfi_offset 6, -8
 465              		.cfi_offset 14, -4
 466 0002 A4B0     		sub	sp, sp, #144
 467              		.cfi_def_cfa_offset 160
 468 0004 0446     		mov	r4, r0
 469 0006 0D46     		mov	r5, r1
 635:Drivers/lvgl/src/core/lv_obj.c ****     lv_area_t ver_area;
 470              		.loc 1 635 5 is_stmt 1 view .LVU148
 636:Drivers/lvgl/src/core/lv_obj.c ****     lv_obj_get_scrollbar_area(obj, &hor_area, &ver_area);
 471              		.loc 1 636 5 view .LVU149
 637:Drivers/lvgl/src/core/lv_obj.c **** 
 472              		.loc 1 637 5 view .LVU150
 473 0008 20AA     		add	r2, sp, #128
 474 000a 22A9     		add	r1, sp, #136
 475              	.LVL41:
 637:Drivers/lvgl/src/core/lv_obj.c **** 
 476              		.loc 1 637 5 is_stmt 0 view .LVU151
 477 000c FFF7FEFF 		bl	lv_obj_get_scrollbar_area
 478              	.LVL42:
 639:Drivers/lvgl/src/core/lv_obj.c **** 
 479              		.loc 1 639 5 is_stmt 1 view .LVU152
 639:Drivers/lvgl/src/core/lv_obj.c **** 
 480              		.loc 1 639 8 is_stmt 0 view .LVU153
 481 0010 22A8     		add	r0, sp, #136
ARM GAS  /var/folders/0z/tsy30v1j4xl4_7kw94k978ww0000gn/T//ccVt8IXl.s 			page 37


 482 0012 FFF7FEFF 		bl	lv_area_get_size
 483              	.LVL43:
 639:Drivers/lvgl/src/core/lv_obj.c **** 
 484              		.loc 1 639 7 view .LVU154
 485 0016 18B9     		cbnz	r0, .L27
 639:Drivers/lvgl/src/core/lv_obj.c **** 
 486              		.loc 1 639 44 discriminator 1 view .LVU155
 487 0018 20A8     		add	r0, sp, #128
 488 001a FFF7FEFF 		bl	lv_area_get_size
 489              	.LVL44:
 639:Drivers/lvgl/src/core/lv_obj.c **** 
 490              		.loc 1 639 41 discriminator 1 view .LVU156
 491 001e 28B1     		cbz	r0, .L26
 492              	.L27:
 641:Drivers/lvgl/src/core/lv_obj.c ****     lv_res_t sb_res = scrollbar_init_draw_dsc(obj, &draw_dsc);
 493              		.loc 1 641 5 is_stmt 1 view .LVU157
 642:Drivers/lvgl/src/core/lv_obj.c ****     if(sb_res != LV_RES_OK) return;
 494              		.loc 1 642 5 view .LVU158
 642:Drivers/lvgl/src/core/lv_obj.c ****     if(sb_res != LV_RES_OK) return;
 495              		.loc 1 642 23 is_stmt 0 view .LVU159
 496 0020 12A9     		add	r1, sp, #72
 497 0022 2046     		mov	r0, r4
 498 0024 FFF7FEFF 		bl	scrollbar_init_draw_dsc
 499              	.LVL45:
 643:Drivers/lvgl/src/core/lv_obj.c **** 
 500              		.loc 1 643 5 is_stmt 1 view .LVU160
 643:Drivers/lvgl/src/core/lv_obj.c **** 
 501              		.loc 1 643 7 is_stmt 0 view .LVU161
 502 0028 0128     		cmp	r0, #1
 503 002a 01D0     		beq	.L33
 504              	.LVL46:
 505              	.L26:
 665:Drivers/lvgl/src/core/lv_obj.c **** 
 506              		.loc 1 665 1 view .LVU162
 507 002c 24B0     		add	sp, sp, #144
 508              		.cfi_remember_state
 509              		.cfi_def_cfa_offset 16
 510              		@ sp needed
 511 002e 70BD     		pop	{r4, r5, r6, pc}
 512              	.LVL47:
 513              	.L33:
 514              		.cfi_restore_state
 645:Drivers/lvgl/src/core/lv_obj.c ****     lv_obj_draw_dsc_init(&part_dsc, draw_ctx);
 515              		.loc 1 645 5 is_stmt 1 view .LVU163
 646:Drivers/lvgl/src/core/lv_obj.c ****     part_dsc.class_p = MY_CLASS;
 516              		.loc 1 646 5 view .LVU164
 517 0030 2946     		mov	r1, r5
 518 0032 6846     		mov	r0, sp
 519              	.LVL48:
 646:Drivers/lvgl/src/core/lv_obj.c ****     part_dsc.class_p = MY_CLASS;
 520              		.loc 1 646 5 is_stmt 0 view .LVU165
 521 0034 FFF7FEFF 		bl	lv_obj_draw_dsc_init
 522              	.LVL49:
 647:Drivers/lvgl/src/core/lv_obj.c ****     part_dsc.type = LV_OBJ_DRAW_PART_SCROLLBAR;
 523              		.loc 1 647 5 is_stmt 1 view .LVU166
 647:Drivers/lvgl/src/core/lv_obj.c ****     part_dsc.type = LV_OBJ_DRAW_PART_SCROLLBAR;
 524              		.loc 1 647 22 is_stmt 0 view .LVU167
ARM GAS  /var/folders/0z/tsy30v1j4xl4_7kw94k978ww0000gn/T//ccVt8IXl.s 			page 38


 525 0038 1B4B     		ldr	r3, .L35
 526 003a 0193     		str	r3, [sp, #4]
 648:Drivers/lvgl/src/core/lv_obj.c ****     part_dsc.rect_dsc = &draw_dsc;
 527              		.loc 1 648 5 is_stmt 1 view .LVU168
 648:Drivers/lvgl/src/core/lv_obj.c ****     part_dsc.rect_dsc = &draw_dsc;
 528              		.loc 1 648 19 is_stmt 0 view .LVU169
 529 003c 0223     		movs	r3, #2
 530 003e 0293     		str	r3, [sp, #8]
 649:Drivers/lvgl/src/core/lv_obj.c ****     part_dsc.part = LV_PART_SCROLLBAR;
 531              		.loc 1 649 5 is_stmt 1 view .LVU170
 649:Drivers/lvgl/src/core/lv_obj.c ****     part_dsc.part = LV_PART_SCROLLBAR;
 532              		.loc 1 649 23 is_stmt 0 view .LVU171
 533 0040 12AB     		add	r3, sp, #72
 534 0042 0493     		str	r3, [sp, #16]
 650:Drivers/lvgl/src/core/lv_obj.c **** 
 535              		.loc 1 650 5 is_stmt 1 view .LVU172
 650:Drivers/lvgl/src/core/lv_obj.c **** 
 536              		.loc 1 650 19 is_stmt 0 view .LVU173
 537 0044 4FF48033 		mov	r3, #65536
 538 0048 0D93     		str	r3, [sp, #52]
 652:Drivers/lvgl/src/core/lv_obj.c ****         part_dsc.draw_area = &hor_area;
 539              		.loc 1 652 5 is_stmt 1 view .LVU174
 652:Drivers/lvgl/src/core/lv_obj.c ****         part_dsc.draw_area = &hor_area;
 540              		.loc 1 652 8 is_stmt 0 view .LVU175
 541 004a 22A8     		add	r0, sp, #136
 542 004c FFF7FEFF 		bl	lv_area_get_size
 543              	.LVL50:
 652:Drivers/lvgl/src/core/lv_obj.c ****         part_dsc.draw_area = &hor_area;
 544              		.loc 1 652 7 view .LVU176
 545 0050 B8B9     		cbnz	r0, .L34
 546              	.L29:
 658:Drivers/lvgl/src/core/lv_obj.c ****         part_dsc.draw_area = &ver_area;
 547              		.loc 1 658 5 is_stmt 1 view .LVU177
 658:Drivers/lvgl/src/core/lv_obj.c ****         part_dsc.draw_area = &ver_area;
 548              		.loc 1 658 8 is_stmt 0 view .LVU178
 549 0052 20A8     		add	r0, sp, #128
 550 0054 FFF7FEFF 		bl	lv_area_get_size
 551              	.LVL51:
 658:Drivers/lvgl/src/core/lv_obj.c ****         part_dsc.draw_area = &ver_area;
 552              		.loc 1 658 7 view .LVU179
 553 0058 0028     		cmp	r0, #0
 554 005a E7D0     		beq	.L26
 659:Drivers/lvgl/src/core/lv_obj.c ****         lv_event_send(obj, LV_EVENT_DRAW_PART_BEGIN, &part_dsc);
 555              		.loc 1 659 9 is_stmt 1 view .LVU180
 659:Drivers/lvgl/src/core/lv_obj.c ****         lv_event_send(obj, LV_EVENT_DRAW_PART_BEGIN, &part_dsc);
 556              		.loc 1 659 28 is_stmt 0 view .LVU181
 557 005c 20AE     		add	r6, sp, #128
 558 005e 0396     		str	r6, [sp, #12]
 660:Drivers/lvgl/src/core/lv_obj.c ****         part_dsc.draw_area = &ver_area;
 559              		.loc 1 660 9 is_stmt 1 view .LVU182
 560 0060 6A46     		mov	r2, sp
 561 0062 1A21     		movs	r1, #26
 562 0064 2046     		mov	r0, r4
 563 0066 FFF7FEFF 		bl	lv_event_send
 564              	.LVL52:
 661:Drivers/lvgl/src/core/lv_obj.c ****         lv_draw_rect(draw_ctx, &draw_dsc, &ver_area);
 565              		.loc 1 661 9 view .LVU183
ARM GAS  /var/folders/0z/tsy30v1j4xl4_7kw94k978ww0000gn/T//ccVt8IXl.s 			page 39


 661:Drivers/lvgl/src/core/lv_obj.c ****         lv_draw_rect(draw_ctx, &draw_dsc, &ver_area);
 566              		.loc 1 661 28 is_stmt 0 view .LVU184
 567 006a 0396     		str	r6, [sp, #12]
 662:Drivers/lvgl/src/core/lv_obj.c ****         lv_event_send(obj, LV_EVENT_DRAW_PART_END, &part_dsc);
 568              		.loc 1 662 9 is_stmt 1 view .LVU185
 569 006c 3246     		mov	r2, r6
 570 006e 12A9     		add	r1, sp, #72
 571 0070 2846     		mov	r0, r5
 572 0072 FFF7FEFF 		bl	lv_draw_rect
 573              	.LVL53:
 663:Drivers/lvgl/src/core/lv_obj.c ****     }
 574              		.loc 1 663 9 view .LVU186
 575 0076 6A46     		mov	r2, sp
 576 0078 1B21     		movs	r1, #27
 577 007a 2046     		mov	r0, r4
 578 007c FFF7FEFF 		bl	lv_event_send
 579              	.LVL54:
 580 0080 D4E7     		b	.L26
 581              	.L34:
 653:Drivers/lvgl/src/core/lv_obj.c ****         lv_event_send(obj, LV_EVENT_DRAW_PART_BEGIN, &part_dsc);
 582              		.loc 1 653 9 view .LVU187
 653:Drivers/lvgl/src/core/lv_obj.c ****         lv_event_send(obj, LV_EVENT_DRAW_PART_BEGIN, &part_dsc);
 583              		.loc 1 653 28 is_stmt 0 view .LVU188
 584 0082 22AE     		add	r6, sp, #136
 585 0084 0396     		str	r6, [sp, #12]
 654:Drivers/lvgl/src/core/lv_obj.c ****         lv_draw_rect(draw_ctx, &draw_dsc, &hor_area);
 586              		.loc 1 654 9 is_stmt 1 view .LVU189
 587 0086 6A46     		mov	r2, sp
 588 0088 1A21     		movs	r1, #26
 589 008a 2046     		mov	r0, r4
 590 008c FFF7FEFF 		bl	lv_event_send
 591              	.LVL55:
 655:Drivers/lvgl/src/core/lv_obj.c ****         lv_event_send(obj, LV_EVENT_DRAW_PART_END, &part_dsc);
 592              		.loc 1 655 9 view .LVU190
 593 0090 3246     		mov	r2, r6
 594 0092 12A9     		add	r1, sp, #72
 595 0094 2846     		mov	r0, r5
 596 0096 FFF7FEFF 		bl	lv_draw_rect
 597              	.LVL56:
 656:Drivers/lvgl/src/core/lv_obj.c ****     }
 598              		.loc 1 656 9 view .LVU191
 599 009a 6A46     		mov	r2, sp
 600 009c 1B21     		movs	r1, #27
 601 009e 2046     		mov	r0, r4
 602 00a0 FFF7FEFF 		bl	lv_event_send
 603              	.LVL57:
 604 00a4 D5E7     		b	.L29
 605              	.L36:
 606 00a6 00BF     		.align	2
 607              	.L35:
 608 00a8 00000000 		.word	.LANCHOR0
 609              		.cfi_endproc
 610              	.LFE225:
 612              		.section	.text.lv_obj_draw,"ax",%progbits
 613              		.align	1
 614              		.syntax unified
 615              		.thumb
ARM GAS  /var/folders/0z/tsy30v1j4xl4_7kw94k978ww0000gn/T//ccVt8IXl.s 			page 40


 616              		.thumb_func
 618              	lv_obj_draw:
 619              	.LVL58:
 620              	.LFB224:
 484:Drivers/lvgl/src/core/lv_obj.c ****     lv_event_code_t code = lv_event_get_code(e);
 621              		.loc 1 484 1 view -0
 622              		.cfi_startproc
 623              		@ args = 0, pretend = 0, frame = 136
 624              		@ frame_needed = 0, uses_anonymous_args = 0
 484:Drivers/lvgl/src/core/lv_obj.c ****     lv_event_code_t code = lv_event_get_code(e);
 625              		.loc 1 484 1 is_stmt 0 view .LVU193
 626 0000 2DE9F041 		push	{r4, r5, r6, r7, r8, lr}
 627              		.cfi_def_cfa_offset 24
 628              		.cfi_offset 4, -24
 629              		.cfi_offset 5, -20
 630              		.cfi_offset 6, -16
 631              		.cfi_offset 7, -12
 632              		.cfi_offset 8, -8
 633              		.cfi_offset 14, -4
 634 0004 A2B0     		sub	sp, sp, #136
 635              		.cfi_def_cfa_offset 160
 636 0006 0646     		mov	r6, r0
 485:Drivers/lvgl/src/core/lv_obj.c ****     lv_obj_t * obj = lv_event_get_target(e);
 637              		.loc 1 485 5 is_stmt 1 view .LVU194
 485:Drivers/lvgl/src/core/lv_obj.c ****     lv_obj_t * obj = lv_event_get_target(e);
 638              		.loc 1 485 28 is_stmt 0 view .LVU195
 639 0008 FFF7FEFF 		bl	lv_event_get_code
 640              	.LVL59:
 485:Drivers/lvgl/src/core/lv_obj.c ****     lv_obj_t * obj = lv_event_get_target(e);
 641              		.loc 1 485 28 view .LVU196
 642 000c 0546     		mov	r5, r0
 643              	.LVL60:
 486:Drivers/lvgl/src/core/lv_obj.c ****     if(code == LV_EVENT_COVER_CHECK) {
 644              		.loc 1 486 5 is_stmt 1 view .LVU197
 486:Drivers/lvgl/src/core/lv_obj.c ****     if(code == LV_EVENT_COVER_CHECK) {
 645              		.loc 1 486 22 is_stmt 0 view .LVU198
 646 000e 3046     		mov	r0, r6
 647 0010 FFF7FEFF 		bl	lv_event_get_target
 648              	.LVL61:
 649 0014 0446     		mov	r4, r0
 650              	.LVL62:
 487:Drivers/lvgl/src/core/lv_obj.c ****         lv_cover_check_info_t * info = lv_event_get_param(e);
 651              		.loc 1 487 5 is_stmt 1 view .LVU199
 487:Drivers/lvgl/src/core/lv_obj.c ****         lv_cover_check_info_t * info = lv_event_get_param(e);
 652              		.loc 1 487 7 is_stmt 0 view .LVU200
 653 0016 122D     		cmp	r5, #18
 654 0018 07D0     		beq	.L54
 524:Drivers/lvgl/src/core/lv_obj.c ****         lv_draw_ctx_t * draw_ctx = lv_event_get_draw_ctx(e);
 655              		.loc 1 524 10 is_stmt 1 view .LVU201
 524:Drivers/lvgl/src/core/lv_obj.c ****         lv_draw_ctx_t * draw_ctx = lv_event_get_draw_ctx(e);
 656              		.loc 1 524 12 is_stmt 0 view .LVU202
 657 001a 152D     		cmp	r5, #21
 658 001c 66D0     		beq	.L55
 584:Drivers/lvgl/src/core/lv_obj.c ****         lv_draw_ctx_t * draw_ctx = lv_event_get_draw_ctx(e);
 659              		.loc 1 584 10 is_stmt 1 view .LVU203
 584:Drivers/lvgl/src/core/lv_obj.c ****         lv_draw_ctx_t * draw_ctx = lv_event_get_draw_ctx(e);
 660              		.loc 1 584 12 is_stmt 0 view .LVU204
ARM GAS  /var/folders/0z/tsy30v1j4xl4_7kw94k978ww0000gn/T//ccVt8IXl.s 			page 41


 661 001e 182D     		cmp	r5, #24
 662 0020 00F0F880 		beq	.L56
 663              	.LVL63:
 664              	.L37:
 630:Drivers/lvgl/src/core/lv_obj.c **** 
 665              		.loc 1 630 1 view .LVU205
 666 0024 22B0     		add	sp, sp, #136
 667              		.cfi_remember_state
 668              		.cfi_def_cfa_offset 24
 669              		@ sp needed
 670 0026 BDE8F081 		pop	{r4, r5, r6, r7, r8, pc}
 671              	.LVL64:
 672              	.L54:
 673              		.cfi_restore_state
 674              	.LBB117:
 488:Drivers/lvgl/src/core/lv_obj.c ****         if(info->res == LV_COVER_RES_MASKED) return;
 675              		.loc 1 488 9 is_stmt 1 view .LVU206
 488:Drivers/lvgl/src/core/lv_obj.c ****         if(info->res == LV_COVER_RES_MASKED) return;
 676              		.loc 1 488 40 is_stmt 0 view .LVU207
 677 002a 3046     		mov	r0, r6
 678              	.LVL65:
 488:Drivers/lvgl/src/core/lv_obj.c ****         if(info->res == LV_COVER_RES_MASKED) return;
 679              		.loc 1 488 40 view .LVU208
 680 002c FFF7FEFF 		bl	lv_event_get_param
 681              	.LVL66:
 682 0030 0546     		mov	r5, r0
 683              	.LVL67:
 489:Drivers/lvgl/src/core/lv_obj.c ****         if(lv_obj_get_style_clip_corner(obj, LV_PART_MAIN)) {
 684              		.loc 1 489 9 is_stmt 1 view .LVU209
 489:Drivers/lvgl/src/core/lv_obj.c ****         if(lv_obj_get_style_clip_corner(obj, LV_PART_MAIN)) {
 685              		.loc 1 489 16 is_stmt 0 view .LVU210
 686 0032 0378     		ldrb	r3, [r0]	@ zero_extendqisi2
 489:Drivers/lvgl/src/core/lv_obj.c ****         if(lv_obj_get_style_clip_corner(obj, LV_PART_MAIN)) {
 687              		.loc 1 489 11 view .LVU211
 688 0034 022B     		cmp	r3, #2
 689 0036 F5D0     		beq	.L37
 490:Drivers/lvgl/src/core/lv_obj.c ****             info->res = LV_COVER_RES_MASKED;
 690              		.loc 1 490 9 is_stmt 1 view .LVU212
 691              	.LVL68:
 692              	.LBB118:
 693              	.LBI118:
 497:Drivers/lvgl/src/core/lv_obj_style_gen.h **** }
 498:Drivers/lvgl/src/core/lv_obj_style_gen.h **** 
 499:Drivers/lvgl/src/core/lv_obj_style_gen.h **** static inline bool lv_obj_get_style_clip_corner(const struct _lv_obj_t * obj, uint32_t part)
 694              		.loc 2 499 20 view .LVU213
 695              	.LBB119:
 500:Drivers/lvgl/src/core/lv_obj_style_gen.h **** {
 501:Drivers/lvgl/src/core/lv_obj_style_gen.h ****     lv_style_value_t v = lv_obj_get_style_prop(obj, part, LV_STYLE_CLIP_CORNER);
 696              		.loc 2 501 5 view .LVU214
 697              		.loc 2 501 26 is_stmt 0 view .LVU215
 698 0038 1722     		movs	r2, #23
 699 003a 0021     		movs	r1, #0
 700 003c 2046     		mov	r0, r4
 701              	.LVL69:
 702              		.loc 2 501 26 view .LVU216
 703 003e FFF7FEFF 		bl	lv_obj_get_style_prop
 704              	.LVL70:
ARM GAS  /var/folders/0z/tsy30v1j4xl4_7kw94k978ww0000gn/T//ccVt8IXl.s 			page 42


 502:Drivers/lvgl/src/core/lv_obj_style_gen.h ****     return (bool)v.num;
 705              		.loc 2 502 5 is_stmt 1 view .LVU217
 706              		.loc 2 502 5 is_stmt 0 view .LVU218
 707              	.LBE119:
 708              	.LBE118:
 490:Drivers/lvgl/src/core/lv_obj.c ****             info->res = LV_COVER_RES_MASKED;
 709              		.loc 1 490 11 view .LVU219
 710 0042 10B1     		cbz	r0, .L40
 491:Drivers/lvgl/src/core/lv_obj.c ****             return;
 711              		.loc 1 491 13 is_stmt 1 view .LVU220
 491:Drivers/lvgl/src/core/lv_obj.c ****             return;
 712              		.loc 1 491 23 is_stmt 0 view .LVU221
 713 0044 0223     		movs	r3, #2
 714 0046 2B70     		strb	r3, [r5]
 492:Drivers/lvgl/src/core/lv_obj.c ****         }
 715              		.loc 1 492 13 is_stmt 1 view .LVU222
 716 0048 ECE7     		b	.L37
 717              	.L40:
 496:Drivers/lvgl/src/core/lv_obj.c ****         lv_coord_t w = lv_obj_get_style_transform_width(obj, LV_PART_MAIN);
 718              		.loc 1 496 9 view .LVU223
 719              	.LVL71:
 720              	.LBB120:
 721              	.LBI120:
 493:Drivers/lvgl/src/core/lv_obj_style_gen.h **** {
 722              		.loc 2 493 26 view .LVU224
 723              	.LBB121:
 495:Drivers/lvgl/src/core/lv_obj_style_gen.h ****     return (lv_coord_t)v.num;
 724              		.loc 2 495 5 view .LVU225
 495:Drivers/lvgl/src/core/lv_obj_style_gen.h ****     return (lv_coord_t)v.num;
 725              		.loc 2 495 26 is_stmt 0 view .LVU226
 726 004a 0B22     		movs	r2, #11
 727 004c 0021     		movs	r1, #0
 728 004e 2046     		mov	r0, r4
 729 0050 FFF7FEFF 		bl	lv_obj_get_style_prop
 730              	.LVL72:
 496:Drivers/lvgl/src/core/lv_obj_style_gen.h **** }
 731              		.loc 2 496 5 is_stmt 1 view .LVU227
 496:Drivers/lvgl/src/core/lv_obj_style_gen.h **** }
 732              		.loc 2 496 12 is_stmt 0 view .LVU228
 733 0054 07B2     		sxth	r7, r0
 734              	.LVL73:
 496:Drivers/lvgl/src/core/lv_obj_style_gen.h **** }
 735              		.loc 2 496 12 view .LVU229
 736              	.LBE121:
 737              	.LBE120:
 497:Drivers/lvgl/src/core/lv_obj.c ****         lv_coord_t h = lv_obj_get_style_transform_height(obj, LV_PART_MAIN);
 738              		.loc 1 497 9 is_stmt 1 view .LVU230
 739              	.LBB122:
 740              	.LBI122:
  55:Drivers/lvgl/src/core/lv_obj_style_gen.h **** {
 741              		.loc 2 55 26 view .LVU231
 742              	.LBB123:
  57:Drivers/lvgl/src/core/lv_obj_style_gen.h ****     return (lv_coord_t)v.num;
 743              		.loc 2 57 5 view .LVU232
  57:Drivers/lvgl/src/core/lv_obj_style_gen.h ****     return (lv_coord_t)v.num;
 744              		.loc 2 57 26 is_stmt 0 view .LVU233
 745 0056 6922     		movs	r2, #105
ARM GAS  /var/folders/0z/tsy30v1j4xl4_7kw94k978ww0000gn/T//ccVt8IXl.s 			page 43


 746 0058 0021     		movs	r1, #0
 747 005a 2046     		mov	r0, r4
 748 005c FFF7FEFF 		bl	lv_obj_get_style_prop
 749              	.LVL74:
 750 0060 0646     		mov	r6, r0
 751              	.LVL75:
  58:Drivers/lvgl/src/core/lv_obj_style_gen.h **** }
 752              		.loc 2 58 5 is_stmt 1 view .LVU234
  58:Drivers/lvgl/src/core/lv_obj_style_gen.h **** }
 753              		.loc 2 58 5 is_stmt 0 view .LVU235
 754              	.LBE123:
 755              	.LBE122:
 498:Drivers/lvgl/src/core/lv_obj.c ****         lv_area_t coords;
 756              		.loc 1 498 9 is_stmt 1 view .LVU236
 757              	.LBB124:
 758              	.LBI124:
  61:Drivers/lvgl/src/core/lv_obj_style_gen.h **** {
 759              		.loc 2 61 26 view .LVU237
 760              	.LBB125:
  63:Drivers/lvgl/src/core/lv_obj_style_gen.h ****     return (lv_coord_t)v.num;
 761              		.loc 2 63 5 view .LVU238
  63:Drivers/lvgl/src/core/lv_obj_style_gen.h ****     return (lv_coord_t)v.num;
 762              		.loc 2 63 26 is_stmt 0 view .LVU239
 763 0062 6A22     		movs	r2, #106
 764 0064 0021     		movs	r1, #0
 765 0066 2046     		mov	r0, r4
 766 0068 FFF7FEFF 		bl	lv_obj_get_style_prop
 767              	.LVL76:
  64:Drivers/lvgl/src/core/lv_obj_style_gen.h **** }
 768              		.loc 2 64 5 is_stmt 1 view .LVU240
  64:Drivers/lvgl/src/core/lv_obj_style_gen.h **** }
 769              		.loc 2 64 5 is_stmt 0 view .LVU241
 770              	.LBE125:
 771              	.LBE124:
 499:Drivers/lvgl/src/core/lv_obj.c ****         lv_area_copy(&coords, &obj->coords);
 772              		.loc 1 499 9 is_stmt 1 view .LVU242
 500:Drivers/lvgl/src/core/lv_obj.c ****         coords.x1 -= w;
 773              		.loc 1 500 9 view .LVU243
 774              	.LBB126:
 775              	.LBI126:
 776              		.file 3 "Drivers/lvgl/src/core/../misc/../font/../misc/lv_area.h"
   1:Drivers/lvgl/src/core/../misc/../font/../misc/lv_area.h **** /**
   2:Drivers/lvgl/src/core/../misc/../font/../misc/lv_area.h ****  * @file lv_area.h
   3:Drivers/lvgl/src/core/../misc/../font/../misc/lv_area.h ****  *
   4:Drivers/lvgl/src/core/../misc/../font/../misc/lv_area.h ****  */
   5:Drivers/lvgl/src/core/../misc/../font/../misc/lv_area.h **** 
   6:Drivers/lvgl/src/core/../misc/../font/../misc/lv_area.h **** #ifndef LV_AREA_H
   7:Drivers/lvgl/src/core/../misc/../font/../misc/lv_area.h **** #define LV_AREA_H
   8:Drivers/lvgl/src/core/../misc/../font/../misc/lv_area.h **** 
   9:Drivers/lvgl/src/core/../misc/../font/../misc/lv_area.h **** #ifdef __cplusplus
  10:Drivers/lvgl/src/core/../misc/../font/../misc/lv_area.h **** extern "C" {
  11:Drivers/lvgl/src/core/../misc/../font/../misc/lv_area.h **** #endif
  12:Drivers/lvgl/src/core/../misc/../font/../misc/lv_area.h **** 
  13:Drivers/lvgl/src/core/../misc/../font/../misc/lv_area.h **** /*********************
  14:Drivers/lvgl/src/core/../misc/../font/../misc/lv_area.h ****  *      INCLUDES
  15:Drivers/lvgl/src/core/../misc/../font/../misc/lv_area.h ****  *********************/
  16:Drivers/lvgl/src/core/../misc/../font/../misc/lv_area.h **** #include "../lv_conf_internal.h"
ARM GAS  /var/folders/0z/tsy30v1j4xl4_7kw94k978ww0000gn/T//ccVt8IXl.s 			page 44


  17:Drivers/lvgl/src/core/../misc/../font/../misc/lv_area.h **** #include <stdbool.h>
  18:Drivers/lvgl/src/core/../misc/../font/../misc/lv_area.h **** #include <stdint.h>
  19:Drivers/lvgl/src/core/../misc/../font/../misc/lv_area.h **** 
  20:Drivers/lvgl/src/core/../misc/../font/../misc/lv_area.h **** /*********************
  21:Drivers/lvgl/src/core/../misc/../font/../misc/lv_area.h ****  *      DEFINES
  22:Drivers/lvgl/src/core/../misc/../font/../misc/lv_area.h ****  *********************/
  23:Drivers/lvgl/src/core/../misc/../font/../misc/lv_area.h **** 
  24:Drivers/lvgl/src/core/../misc/../font/../misc/lv_area.h **** #if LV_USE_LARGE_COORD
  25:Drivers/lvgl/src/core/../misc/../font/../misc/lv_area.h **** typedef int32_t lv_coord_t;
  26:Drivers/lvgl/src/core/../misc/../font/../misc/lv_area.h **** #else
  27:Drivers/lvgl/src/core/../misc/../font/../misc/lv_area.h **** typedef int16_t lv_coord_t;
  28:Drivers/lvgl/src/core/../misc/../font/../misc/lv_area.h **** #endif
  29:Drivers/lvgl/src/core/../misc/../font/../misc/lv_area.h **** 
  30:Drivers/lvgl/src/core/../misc/../font/../misc/lv_area.h **** /**********************
  31:Drivers/lvgl/src/core/../misc/../font/../misc/lv_area.h ****  *      TYPEDEFS
  32:Drivers/lvgl/src/core/../misc/../font/../misc/lv_area.h ****  **********************/
  33:Drivers/lvgl/src/core/../misc/../font/../misc/lv_area.h **** 
  34:Drivers/lvgl/src/core/../misc/../font/../misc/lv_area.h **** /**
  35:Drivers/lvgl/src/core/../misc/../font/../misc/lv_area.h ****  * Represents a point on the screen.
  36:Drivers/lvgl/src/core/../misc/../font/../misc/lv_area.h ****  */
  37:Drivers/lvgl/src/core/../misc/../font/../misc/lv_area.h **** typedef struct {
  38:Drivers/lvgl/src/core/../misc/../font/../misc/lv_area.h ****     lv_coord_t x;
  39:Drivers/lvgl/src/core/../misc/../font/../misc/lv_area.h ****     lv_coord_t y;
  40:Drivers/lvgl/src/core/../misc/../font/../misc/lv_area.h **** } lv_point_t;
  41:Drivers/lvgl/src/core/../misc/../font/../misc/lv_area.h **** 
  42:Drivers/lvgl/src/core/../misc/../font/../misc/lv_area.h **** /** Represents an area of the screen.*/
  43:Drivers/lvgl/src/core/../misc/../font/../misc/lv_area.h **** typedef struct {
  44:Drivers/lvgl/src/core/../misc/../font/../misc/lv_area.h ****     lv_coord_t x1;
  45:Drivers/lvgl/src/core/../misc/../font/../misc/lv_area.h ****     lv_coord_t y1;
  46:Drivers/lvgl/src/core/../misc/../font/../misc/lv_area.h ****     lv_coord_t x2;
  47:Drivers/lvgl/src/core/../misc/../font/../misc/lv_area.h ****     lv_coord_t y2;
  48:Drivers/lvgl/src/core/../misc/../font/../misc/lv_area.h **** } lv_area_t;
  49:Drivers/lvgl/src/core/../misc/../font/../misc/lv_area.h **** 
  50:Drivers/lvgl/src/core/../misc/../font/../misc/lv_area.h **** /** Alignments*/
  51:Drivers/lvgl/src/core/../misc/../font/../misc/lv_area.h **** enum {
  52:Drivers/lvgl/src/core/../misc/../font/../misc/lv_area.h ****     LV_ALIGN_DEFAULT = 0,
  53:Drivers/lvgl/src/core/../misc/../font/../misc/lv_area.h ****     LV_ALIGN_TOP_LEFT,
  54:Drivers/lvgl/src/core/../misc/../font/../misc/lv_area.h ****     LV_ALIGN_TOP_MID,
  55:Drivers/lvgl/src/core/../misc/../font/../misc/lv_area.h ****     LV_ALIGN_TOP_RIGHT,
  56:Drivers/lvgl/src/core/../misc/../font/../misc/lv_area.h ****     LV_ALIGN_BOTTOM_LEFT,
  57:Drivers/lvgl/src/core/../misc/../font/../misc/lv_area.h ****     LV_ALIGN_BOTTOM_MID,
  58:Drivers/lvgl/src/core/../misc/../font/../misc/lv_area.h ****     LV_ALIGN_BOTTOM_RIGHT,
  59:Drivers/lvgl/src/core/../misc/../font/../misc/lv_area.h ****     LV_ALIGN_LEFT_MID,
  60:Drivers/lvgl/src/core/../misc/../font/../misc/lv_area.h ****     LV_ALIGN_RIGHT_MID,
  61:Drivers/lvgl/src/core/../misc/../font/../misc/lv_area.h ****     LV_ALIGN_CENTER,
  62:Drivers/lvgl/src/core/../misc/../font/../misc/lv_area.h **** 
  63:Drivers/lvgl/src/core/../misc/../font/../misc/lv_area.h ****     LV_ALIGN_OUT_TOP_LEFT,
  64:Drivers/lvgl/src/core/../misc/../font/../misc/lv_area.h ****     LV_ALIGN_OUT_TOP_MID,
  65:Drivers/lvgl/src/core/../misc/../font/../misc/lv_area.h ****     LV_ALIGN_OUT_TOP_RIGHT,
  66:Drivers/lvgl/src/core/../misc/../font/../misc/lv_area.h ****     LV_ALIGN_OUT_BOTTOM_LEFT,
  67:Drivers/lvgl/src/core/../misc/../font/../misc/lv_area.h ****     LV_ALIGN_OUT_BOTTOM_MID,
  68:Drivers/lvgl/src/core/../misc/../font/../misc/lv_area.h ****     LV_ALIGN_OUT_BOTTOM_RIGHT,
  69:Drivers/lvgl/src/core/../misc/../font/../misc/lv_area.h ****     LV_ALIGN_OUT_LEFT_TOP,
  70:Drivers/lvgl/src/core/../misc/../font/../misc/lv_area.h ****     LV_ALIGN_OUT_LEFT_MID,
  71:Drivers/lvgl/src/core/../misc/../font/../misc/lv_area.h ****     LV_ALIGN_OUT_LEFT_BOTTOM,
  72:Drivers/lvgl/src/core/../misc/../font/../misc/lv_area.h ****     LV_ALIGN_OUT_RIGHT_TOP,
  73:Drivers/lvgl/src/core/../misc/../font/../misc/lv_area.h ****     LV_ALIGN_OUT_RIGHT_MID,
ARM GAS  /var/folders/0z/tsy30v1j4xl4_7kw94k978ww0000gn/T//ccVt8IXl.s 			page 45


  74:Drivers/lvgl/src/core/../misc/../font/../misc/lv_area.h ****     LV_ALIGN_OUT_RIGHT_BOTTOM,
  75:Drivers/lvgl/src/core/../misc/../font/../misc/lv_area.h **** };
  76:Drivers/lvgl/src/core/../misc/../font/../misc/lv_area.h **** typedef uint8_t lv_align_t;
  77:Drivers/lvgl/src/core/../misc/../font/../misc/lv_area.h **** 
  78:Drivers/lvgl/src/core/../misc/../font/../misc/lv_area.h **** enum {
  79:Drivers/lvgl/src/core/../misc/../font/../misc/lv_area.h ****     LV_DIR_NONE     = 0x00,
  80:Drivers/lvgl/src/core/../misc/../font/../misc/lv_area.h ****     LV_DIR_LEFT     = (1 << 0),
  81:Drivers/lvgl/src/core/../misc/../font/../misc/lv_area.h ****     LV_DIR_RIGHT    = (1 << 1),
  82:Drivers/lvgl/src/core/../misc/../font/../misc/lv_area.h ****     LV_DIR_TOP      = (1 << 2),
  83:Drivers/lvgl/src/core/../misc/../font/../misc/lv_area.h ****     LV_DIR_BOTTOM   = (1 << 3),
  84:Drivers/lvgl/src/core/../misc/../font/../misc/lv_area.h ****     LV_DIR_HOR      = LV_DIR_LEFT | LV_DIR_RIGHT,
  85:Drivers/lvgl/src/core/../misc/../font/../misc/lv_area.h ****     LV_DIR_VER      = LV_DIR_TOP | LV_DIR_BOTTOM,
  86:Drivers/lvgl/src/core/../misc/../font/../misc/lv_area.h ****     LV_DIR_ALL      = LV_DIR_HOR | LV_DIR_VER,
  87:Drivers/lvgl/src/core/../misc/../font/../misc/lv_area.h **** };
  88:Drivers/lvgl/src/core/../misc/../font/../misc/lv_area.h **** 
  89:Drivers/lvgl/src/core/../misc/../font/../misc/lv_area.h **** typedef uint8_t lv_dir_t;
  90:Drivers/lvgl/src/core/../misc/../font/../misc/lv_area.h **** 
  91:Drivers/lvgl/src/core/../misc/../font/../misc/lv_area.h **** /**********************
  92:Drivers/lvgl/src/core/../misc/../font/../misc/lv_area.h ****  * GLOBAL PROTOTYPES
  93:Drivers/lvgl/src/core/../misc/../font/../misc/lv_area.h ****  **********************/
  94:Drivers/lvgl/src/core/../misc/../font/../misc/lv_area.h **** 
  95:Drivers/lvgl/src/core/../misc/../font/../misc/lv_area.h **** /**
  96:Drivers/lvgl/src/core/../misc/../font/../misc/lv_area.h ****  * Initialize an area
  97:Drivers/lvgl/src/core/../misc/../font/../misc/lv_area.h ****  * @param area_p pointer to an area
  98:Drivers/lvgl/src/core/../misc/../font/../misc/lv_area.h ****  * @param x1 left coordinate of the area
  99:Drivers/lvgl/src/core/../misc/../font/../misc/lv_area.h ****  * @param y1 top coordinate of the area
 100:Drivers/lvgl/src/core/../misc/../font/../misc/lv_area.h ****  * @param x2 right coordinate of the area
 101:Drivers/lvgl/src/core/../misc/../font/../misc/lv_area.h ****  * @param y2 bottom coordinate of the area
 102:Drivers/lvgl/src/core/../misc/../font/../misc/lv_area.h ****  */
 103:Drivers/lvgl/src/core/../misc/../font/../misc/lv_area.h **** void lv_area_set(lv_area_t * area_p, lv_coord_t x1, lv_coord_t y1, lv_coord_t x2, lv_coord_t y2);
 104:Drivers/lvgl/src/core/../misc/../font/../misc/lv_area.h **** 
 105:Drivers/lvgl/src/core/../misc/../font/../misc/lv_area.h **** /**
 106:Drivers/lvgl/src/core/../misc/../font/../misc/lv_area.h ****  * Copy an area
 107:Drivers/lvgl/src/core/../misc/../font/../misc/lv_area.h ****  * @param dest pointer to the destination area
 108:Drivers/lvgl/src/core/../misc/../font/../misc/lv_area.h ****  * @param src pointer to the source area
 109:Drivers/lvgl/src/core/../misc/../font/../misc/lv_area.h ****  */
 110:Drivers/lvgl/src/core/../misc/../font/../misc/lv_area.h **** inline static void lv_area_copy(lv_area_t * dest, const lv_area_t * src)
 777              		.loc 3 110 20 view .LVU244
 778              	.LBB127:
 111:Drivers/lvgl/src/core/../misc/../font/../misc/lv_area.h **** {
 112:Drivers/lvgl/src/core/../misc/../font/../misc/lv_area.h ****     dest->x1 = src->x1;
 779              		.loc 3 112 5 view .LVU245
 780              		.loc 3 112 19 is_stmt 0 view .LVU246
 781 006c B4F91410 		ldrsh	r1, [r4, #20]
 782              		.loc 3 112 14 view .LVU247
 783 0070 ADF84010 		strh	r1, [sp, #64]	@ movhi
 113:Drivers/lvgl/src/core/../misc/../font/../misc/lv_area.h ****     dest->y1 = src->y1;
 784              		.loc 3 113 5 is_stmt 1 view .LVU248
 785              		.loc 3 113 19 is_stmt 0 view .LVU249
 786 0074 B4F91620 		ldrsh	r2, [r4, #22]
 787              		.loc 3 113 14 view .LVU250
 788 0078 ADF84220 		strh	r2, [sp, #66]	@ movhi
 114:Drivers/lvgl/src/core/../misc/../font/../misc/lv_area.h ****     dest->x2 = src->x2;
 789              		.loc 3 114 5 is_stmt 1 view .LVU251
 790              		.loc 3 114 19 is_stmt 0 view .LVU252
 791 007c B4F918E0 		ldrsh	lr, [r4, #24]
 792              		.loc 3 114 14 view .LVU253
ARM GAS  /var/folders/0z/tsy30v1j4xl4_7kw94k978ww0000gn/T//ccVt8IXl.s 			page 46


 793 0080 ADF844E0 		strh	lr, [sp, #68]	@ movhi
 115:Drivers/lvgl/src/core/../misc/../font/../misc/lv_area.h ****     dest->y2 = src->y2;
 794              		.loc 3 115 5 is_stmt 1 view .LVU254
 795              		.loc 3 115 19 is_stmt 0 view .LVU255
 796 0084 B4F91AC0 		ldrsh	ip, [r4, #26]
 797              		.loc 3 115 14 view .LVU256
 798 0088 ADF846C0 		strh	ip, [sp, #70]	@ movhi
 799              	.LVL77:
 800              		.loc 3 115 14 view .LVU257
 801              	.LBE127:
 802              	.LBE126:
 501:Drivers/lvgl/src/core/lv_obj.c ****         coords.x2 += w;
 803              		.loc 1 501 9 is_stmt 1 view .LVU258
 501:Drivers/lvgl/src/core/lv_obj.c ****         coords.x2 += w;
 804              		.loc 1 501 19 is_stmt 0 view .LVU259
 805 008c B3B2     		uxth	r3, r6
 806 008e C91A     		subs	r1, r1, r3
 807 0090 ADF84010 		strh	r1, [sp, #64]	@ movhi
 502:Drivers/lvgl/src/core/lv_obj.c ****         coords.y1 -= h;
 808              		.loc 1 502 9 is_stmt 1 view .LVU260
 502:Drivers/lvgl/src/core/lv_obj.c ****         coords.y1 -= h;
 809              		.loc 1 502 19 is_stmt 0 view .LVU261
 810 0094 7344     		add	r3, r3, lr
 811 0096 ADF84430 		strh	r3, [sp, #68]	@ movhi
 503:Drivers/lvgl/src/core/lv_obj.c ****         coords.y2 += h;
 812              		.loc 1 503 9 is_stmt 1 view .LVU262
 503:Drivers/lvgl/src/core/lv_obj.c ****         coords.y2 += h;
 813              		.loc 1 503 19 is_stmt 0 view .LVU263
 814 009a 80B2     		uxth	r0, r0
 503:Drivers/lvgl/src/core/lv_obj.c ****         coords.y2 += h;
 815              		.loc 1 503 19 view .LVU264
 816 009c 121A     		subs	r2, r2, r0
 817 009e ADF84220 		strh	r2, [sp, #66]	@ movhi
 504:Drivers/lvgl/src/core/lv_obj.c **** 
 818              		.loc 1 504 9 is_stmt 1 view .LVU265
 504:Drivers/lvgl/src/core/lv_obj.c **** 
 819              		.loc 1 504 19 is_stmt 0 view .LVU266
 820 00a2 6044     		add	r0, r0, ip
 821              	.LVL78:
 504:Drivers/lvgl/src/core/lv_obj.c **** 
 822              		.loc 1 504 19 view .LVU267
 823 00a4 ADF84600 		strh	r0, [sp, #70]	@ movhi
 506:Drivers/lvgl/src/core/lv_obj.c ****             info->res = LV_COVER_RES_NOT_COVER;
 824              		.loc 1 506 9 is_stmt 1 view .LVU268
 506:Drivers/lvgl/src/core/lv_obj.c ****             info->res = LV_COVER_RES_NOT_COVER;
 825              		.loc 1 506 12 is_stmt 0 view .LVU269
 826 00a8 3A46     		mov	r2, r7
 827 00aa 10A9     		add	r1, sp, #64
 828 00ac 6868     		ldr	r0, [r5, #4]
 829 00ae FFF7FEFF 		bl	_lv_area_is_in
 830              	.LVL79:
 506:Drivers/lvgl/src/core/lv_obj.c ****             info->res = LV_COVER_RES_NOT_COVER;
 831              		.loc 1 506 11 view .LVU270
 832 00b2 10B9     		cbnz	r0, .L41
 507:Drivers/lvgl/src/core/lv_obj.c ****             return;
 833              		.loc 1 507 13 is_stmt 1 view .LVU271
 507:Drivers/lvgl/src/core/lv_obj.c ****             return;
ARM GAS  /var/folders/0z/tsy30v1j4xl4_7kw94k978ww0000gn/T//ccVt8IXl.s 			page 47


 834              		.loc 1 507 23 is_stmt 0 view .LVU272
 835 00b4 0123     		movs	r3, #1
 836 00b6 2B70     		strb	r3, [r5]
 508:Drivers/lvgl/src/core/lv_obj.c ****         }
 837              		.loc 1 508 13 is_stmt 1 view .LVU273
 838 00b8 B4E7     		b	.L37
 839              	.L41:
 511:Drivers/lvgl/src/core/lv_obj.c ****             info->res = LV_COVER_RES_NOT_COVER;
 840              		.loc 1 511 9 view .LVU274
 841              	.LVL80:
 842              	.LBB128:
 843              	.LBI128:
 151:Drivers/lvgl/src/core/lv_obj_style_gen.h **** {
 844              		.loc 2 151 24 view .LVU275
 845              	.LBB129:
 153:Drivers/lvgl/src/core/lv_obj_style_gen.h ****     return (lv_opa_t)v.num;
 846              		.loc 2 153 5 view .LVU276
 153:Drivers/lvgl/src/core/lv_obj_style_gen.h ****     return (lv_opa_t)v.num;
 847              		.loc 2 153 26 is_stmt 0 view .LVU277
 848 00ba 2122     		movs	r2, #33
 849 00bc 0021     		movs	r1, #0
 850 00be 2046     		mov	r0, r4
 851 00c0 FFF7FEFF 		bl	lv_obj_get_style_prop
 852              	.LVL81:
 154:Drivers/lvgl/src/core/lv_obj_style_gen.h **** }
 853              		.loc 2 154 5 is_stmt 1 view .LVU278
 154:Drivers/lvgl/src/core/lv_obj_style_gen.h **** }
 854              		.loc 2 154 12 is_stmt 0 view .LVU279
 855 00c4 C0B2     		uxtb	r0, r0
 856              	.LVL82:
 154:Drivers/lvgl/src/core/lv_obj_style_gen.h **** }
 857              		.loc 2 154 12 view .LVU280
 858              	.LBE129:
 859              	.LBE128:
 511:Drivers/lvgl/src/core/lv_obj.c ****             info->res = LV_COVER_RES_NOT_COVER;
 860              		.loc 1 511 11 view .LVU281
 861 00c6 FC28     		cmp	r0, #252
 862 00c8 02D8     		bhi	.L42
 512:Drivers/lvgl/src/core/lv_obj.c ****             return;
 863              		.loc 1 512 13 is_stmt 1 view .LVU282
 512:Drivers/lvgl/src/core/lv_obj.c ****             return;
 864              		.loc 1 512 23 is_stmt 0 view .LVU283
 865 00ca 0123     		movs	r3, #1
 866 00cc 2B70     		strb	r3, [r5]
 513:Drivers/lvgl/src/core/lv_obj.c ****         }
 867              		.loc 1 513 13 is_stmt 1 view .LVU284
 868 00ce A9E7     		b	.L37
 869              	.L42:
 516:Drivers/lvgl/src/core/lv_obj.c ****             info->res = LV_COVER_RES_NOT_COVER;
 870              		.loc 1 516 9 view .LVU285
 871              	.LVL83:
 872              	.LBB130:
 873              	.LBI130:
 503:Drivers/lvgl/src/core/lv_obj_style_gen.h **** }
 504:Drivers/lvgl/src/core/lv_obj_style_gen.h **** 
 505:Drivers/lvgl/src/core/lv_obj_style_gen.h **** static inline lv_opa_t lv_obj_get_style_opa(const struct _lv_obj_t * obj, uint32_t part)
 874              		.loc 2 505 24 view .LVU286
ARM GAS  /var/folders/0z/tsy30v1j4xl4_7kw94k978ww0000gn/T//ccVt8IXl.s 			page 48


 875              	.LBB131:
 506:Drivers/lvgl/src/core/lv_obj_style_gen.h **** {
 507:Drivers/lvgl/src/core/lv_obj_style_gen.h ****     lv_style_value_t v = lv_obj_get_style_prop(obj, part, LV_STYLE_OPA);
 876              		.loc 2 507 5 view .LVU287
 877              		.loc 2 507 26 is_stmt 0 view .LVU288
 878 00d0 6022     		movs	r2, #96
 879 00d2 0021     		movs	r1, #0
 880 00d4 2046     		mov	r0, r4
 881 00d6 FFF7FEFF 		bl	lv_obj_get_style_prop
 882              	.LVL84:
 508:Drivers/lvgl/src/core/lv_obj_style_gen.h ****     return (lv_opa_t)v.num;
 883              		.loc 2 508 5 is_stmt 1 view .LVU289
 884              		.loc 2 508 12 is_stmt 0 view .LVU290
 885 00da C3B2     		uxtb	r3, r0
 886              	.LVL85:
 887              		.loc 2 508 12 view .LVU291
 888              	.LBE131:
 889              	.LBE130:
 516:Drivers/lvgl/src/core/lv_obj.c ****             info->res = LV_COVER_RES_NOT_COVER;
 890              		.loc 1 516 11 view .LVU292
 891 00dc FC2B     		cmp	r3, #252
 892 00de 02D9     		bls	.L57
 521:Drivers/lvgl/src/core/lv_obj.c **** 
 893              		.loc 1 521 9 is_stmt 1 view .LVU293
 521:Drivers/lvgl/src/core/lv_obj.c **** 
 894              		.loc 1 521 19 is_stmt 0 view .LVU294
 895 00e0 0023     		movs	r3, #0
 896 00e2 2B70     		strb	r3, [r5]
 897              	.LBE117:
 898 00e4 9EE7     		b	.L37
 899              	.L57:
 900              	.LBB132:
 517:Drivers/lvgl/src/core/lv_obj.c ****             return;
 901              		.loc 1 517 13 is_stmt 1 view .LVU295
 517:Drivers/lvgl/src/core/lv_obj.c ****             return;
 902              		.loc 1 517 23 is_stmt 0 view .LVU296
 903 00e6 0123     		movs	r3, #1
 904 00e8 2B70     		strb	r3, [r5]
 518:Drivers/lvgl/src/core/lv_obj.c ****         }
 905              		.loc 1 518 13 is_stmt 1 view .LVU297
 906 00ea 9BE7     		b	.L37
 907              	.LVL86:
 908              	.L55:
 518:Drivers/lvgl/src/core/lv_obj.c ****         }
 909              		.loc 1 518 13 is_stmt 0 view .LVU298
 910              	.LBE132:
 911              	.LBB133:
 525:Drivers/lvgl/src/core/lv_obj.c ****         lv_draw_rect_dsc_t draw_dsc;
 912              		.loc 1 525 9 is_stmt 1 view .LVU299
 525:Drivers/lvgl/src/core/lv_obj.c ****         lv_draw_rect_dsc_t draw_dsc;
 913              		.loc 1 525 36 is_stmt 0 view .LVU300
 914 00ec 3046     		mov	r0, r6
 915              	.LVL87:
 525:Drivers/lvgl/src/core/lv_obj.c ****         lv_draw_rect_dsc_t draw_dsc;
 916              		.loc 1 525 36 view .LVU301
 917 00ee FFF7FEFF 		bl	lv_event_get_draw_ctx
 918              	.LVL88:
ARM GAS  /var/folders/0z/tsy30v1j4xl4_7kw94k978ww0000gn/T//ccVt8IXl.s 			page 49


 919 00f2 0646     		mov	r6, r0
 920              	.LVL89:
 526:Drivers/lvgl/src/core/lv_obj.c ****         lv_draw_rect_dsc_init(&draw_dsc);
 921              		.loc 1 526 9 is_stmt 1 view .LVU302
 527:Drivers/lvgl/src/core/lv_obj.c ****         /*If the border is drawn later disable loading its properties*/
 922              		.loc 1 527 9 view .LVU303
 923 00f4 02A8     		add	r0, sp, #8
 924              	.LVL90:
 527:Drivers/lvgl/src/core/lv_obj.c ****         /*If the border is drawn later disable loading its properties*/
 925              		.loc 1 527 9 is_stmt 0 view .LVU304
 926 00f6 FFF7FEFF 		bl	lv_draw_rect_dsc_init
 927              	.LVL91:
 529:Drivers/lvgl/src/core/lv_obj.c ****             draw_dsc.border_post = 1;
 928              		.loc 1 529 9 is_stmt 1 view .LVU305
 929              	.LBB134:
 930              	.LBI134:
 265:Drivers/lvgl/src/core/lv_obj_style_gen.h **** {
 931              		.loc 2 265 20 view .LVU306
 932              	.LBB135:
 267:Drivers/lvgl/src/core/lv_obj_style_gen.h ****     return (bool)v.num;
 933              		.loc 2 267 5 view .LVU307
 267:Drivers/lvgl/src/core/lv_obj_style_gen.h ****     return (bool)v.num;
 934              		.loc 2 267 26 is_stmt 0 view .LVU308
 935 00fa 3422     		movs	r2, #52
 936 00fc 0021     		movs	r1, #0
 937 00fe 2046     		mov	r0, r4
 938 0100 FFF7FEFF 		bl	lv_obj_get_style_prop
 939              	.LVL92:
 268:Drivers/lvgl/src/core/lv_obj_style_gen.h **** }
 940              		.loc 2 268 5 is_stmt 1 view .LVU309
 268:Drivers/lvgl/src/core/lv_obj_style_gen.h **** }
 941              		.loc 2 268 5 is_stmt 0 view .LVU310
 942              	.LBE135:
 943              	.LBE134:
 529:Drivers/lvgl/src/core/lv_obj.c ****             draw_dsc.border_post = 1;
 944              		.loc 1 529 11 view .LVU311
 945 0104 28B1     		cbz	r0, .L46
 530:Drivers/lvgl/src/core/lv_obj.c ****         }
 946              		.loc 1 530 13 is_stmt 1 view .LVU312
 530:Drivers/lvgl/src/core/lv_obj.c ****         }
 947              		.loc 1 530 34 is_stmt 0 view .LVU313
 948 0106 9DF82B30 		ldrb	r3, [sp, #43]	@ zero_extendqisi2
 949 010a 43F00103 		orr	r3, r3, #1
 950 010e 8DF82B30 		strb	r3, [sp, #43]
 951              	.L46:
 533:Drivers/lvgl/src/core/lv_obj.c ****         lv_coord_t w = lv_obj_get_style_transform_width(obj, LV_PART_MAIN);
 952              		.loc 1 533 9 is_stmt 1 view .LVU314
 953 0112 02AF     		add	r7, sp, #8
 954 0114 3A46     		mov	r2, r7
 955 0116 0021     		movs	r1, #0
 956 0118 2046     		mov	r0, r4
 957 011a FFF7FEFF 		bl	lv_obj_init_draw_rect_dsc
 958              	.LVL93:
 534:Drivers/lvgl/src/core/lv_obj.c ****         lv_coord_t h = lv_obj_get_style_transform_height(obj, LV_PART_MAIN);
 959              		.loc 1 534 9 view .LVU315
 960              	.LBB136:
 961              	.LBI136:
ARM GAS  /var/folders/0z/tsy30v1j4xl4_7kw94k978ww0000gn/T//ccVt8IXl.s 			page 50


  55:Drivers/lvgl/src/core/lv_obj_style_gen.h **** {
 962              		.loc 2 55 26 view .LVU316
 963              	.LBB137:
  57:Drivers/lvgl/src/core/lv_obj_style_gen.h ****     return (lv_coord_t)v.num;
 964              		.loc 2 57 5 view .LVU317
  57:Drivers/lvgl/src/core/lv_obj_style_gen.h ****     return (lv_coord_t)v.num;
 965              		.loc 2 57 26 is_stmt 0 view .LVU318
 966 011e 6922     		movs	r2, #105
 967 0120 0021     		movs	r1, #0
 968 0122 2046     		mov	r0, r4
 969 0124 FFF7FEFF 		bl	lv_obj_get_style_prop
 970              	.LVL94:
 971 0128 0546     		mov	r5, r0
 972              	.LVL95:
  58:Drivers/lvgl/src/core/lv_obj_style_gen.h **** }
 973              		.loc 2 58 5 is_stmt 1 view .LVU319
  58:Drivers/lvgl/src/core/lv_obj_style_gen.h **** }
 974              		.loc 2 58 5 is_stmt 0 view .LVU320
 975              	.LBE137:
 976              	.LBE136:
 535:Drivers/lvgl/src/core/lv_obj.c ****         lv_area_t coords;
 977              		.loc 1 535 9 is_stmt 1 view .LVU321
 978              	.LBB138:
 979              	.LBI138:
  61:Drivers/lvgl/src/core/lv_obj_style_gen.h **** {
 980              		.loc 2 61 26 view .LVU322
 981              	.LBB139:
  63:Drivers/lvgl/src/core/lv_obj_style_gen.h ****     return (lv_coord_t)v.num;
 982              		.loc 2 63 5 view .LVU323
  63:Drivers/lvgl/src/core/lv_obj_style_gen.h ****     return (lv_coord_t)v.num;
 983              		.loc 2 63 26 is_stmt 0 view .LVU324
 984 012a 6A22     		movs	r2, #106
 985 012c 0021     		movs	r1, #0
 986 012e 2046     		mov	r0, r4
 987 0130 FFF7FEFF 		bl	lv_obj_get_style_prop
 988              	.LVL96:
  64:Drivers/lvgl/src/core/lv_obj_style_gen.h **** }
 989              		.loc 2 64 5 is_stmt 1 view .LVU325
  64:Drivers/lvgl/src/core/lv_obj_style_gen.h **** }
 990              		.loc 2 64 5 is_stmt 0 view .LVU326
 991              	.LBE139:
 992              	.LBE138:
 536:Drivers/lvgl/src/core/lv_obj.c ****         lv_area_copy(&coords, &obj->coords);
 993              		.loc 1 536 9 is_stmt 1 view .LVU327
 537:Drivers/lvgl/src/core/lv_obj.c ****         coords.x1 -= w;
 994              		.loc 1 537 9 view .LVU328
 995              	.LBB140:
 996              	.LBI140:
 110:Drivers/lvgl/src/core/../misc/../font/../misc/lv_area.h **** {
 997              		.loc 3 110 20 view .LVU329
 998              	.LBB141:
 112:Drivers/lvgl/src/core/../misc/../font/../misc/lv_area.h ****     dest->y1 = src->y1;
 999              		.loc 3 112 5 view .LVU330
 112:Drivers/lvgl/src/core/../misc/../font/../misc/lv_area.h ****     dest->y1 = src->y1;
 1000              		.loc 3 112 19 is_stmt 0 view .LVU331
 1001 0134 B4F91410 		ldrsh	r1, [r4, #20]
 112:Drivers/lvgl/src/core/../misc/../font/../misc/lv_area.h ****     dest->y1 = src->y1;
ARM GAS  /var/folders/0z/tsy30v1j4xl4_7kw94k978ww0000gn/T//ccVt8IXl.s 			page 51


 1002              		.loc 3 112 14 view .LVU332
 1003 0138 ADF80010 		strh	r1, [sp]	@ movhi
 113:Drivers/lvgl/src/core/../misc/../font/../misc/lv_area.h ****     dest->x2 = src->x2;
 1004              		.loc 3 113 5 is_stmt 1 view .LVU333
 113:Drivers/lvgl/src/core/../misc/../font/../misc/lv_area.h ****     dest->x2 = src->x2;
 1005              		.loc 3 113 19 is_stmt 0 view .LVU334
 1006 013c B4F91620 		ldrsh	r2, [r4, #22]
 113:Drivers/lvgl/src/core/../misc/../font/../misc/lv_area.h ****     dest->x2 = src->x2;
 1007              		.loc 3 113 14 view .LVU335
 1008 0140 ADF80220 		strh	r2, [sp, #2]	@ movhi
 114:Drivers/lvgl/src/core/../misc/../font/../misc/lv_area.h ****     dest->y2 = src->y2;
 1009              		.loc 3 114 5 is_stmt 1 view .LVU336
 114:Drivers/lvgl/src/core/../misc/../font/../misc/lv_area.h ****     dest->y2 = src->y2;
 1010              		.loc 3 114 19 is_stmt 0 view .LVU337
 1011 0144 B4F918E0 		ldrsh	lr, [r4, #24]
 114:Drivers/lvgl/src/core/../misc/../font/../misc/lv_area.h ****     dest->y2 = src->y2;
 1012              		.loc 3 114 14 view .LVU338
 1013 0148 ADF804E0 		strh	lr, [sp, #4]	@ movhi
 1014              		.loc 3 115 5 is_stmt 1 view .LVU339
 1015              		.loc 3 115 19 is_stmt 0 view .LVU340
 1016 014c B4F91AC0 		ldrsh	ip, [r4, #26]
 1017              		.loc 3 115 14 view .LVU341
 1018 0150 ADF806C0 		strh	ip, [sp, #6]	@ movhi
 1019              	.LVL97:
 1020              		.loc 3 115 14 view .LVU342
 1021              	.LBE141:
 1022              	.LBE140:
 538:Drivers/lvgl/src/core/lv_obj.c ****         coords.x2 += w;
 1023              		.loc 1 538 9 is_stmt 1 view .LVU343
 538:Drivers/lvgl/src/core/lv_obj.c ****         coords.x2 += w;
 1024              		.loc 1 538 19 is_stmt 0 view .LVU344
 1025 0154 ABB2     		uxth	r3, r5
 1026 0156 C91A     		subs	r1, r1, r3
 1027 0158 ADF80010 		strh	r1, [sp]	@ movhi
 539:Drivers/lvgl/src/core/lv_obj.c ****         coords.y1 -= h;
 1028              		.loc 1 539 9 is_stmt 1 view .LVU345
 539:Drivers/lvgl/src/core/lv_obj.c ****         coords.y1 -= h;
 1029              		.loc 1 539 19 is_stmt 0 view .LVU346
 1030 015c 7344     		add	r3, r3, lr
 1031 015e ADF80430 		strh	r3, [sp, #4]	@ movhi
 540:Drivers/lvgl/src/core/lv_obj.c ****         coords.y2 += h;
 1032              		.loc 1 540 9 is_stmt 1 view .LVU347
 540:Drivers/lvgl/src/core/lv_obj.c ****         coords.y2 += h;
 1033              		.loc 1 540 19 is_stmt 0 view .LVU348
 1034 0162 83B2     		uxth	r3, r0
 1035 0164 D21A     		subs	r2, r2, r3
 1036 0166 ADF80220 		strh	r2, [sp, #2]	@ movhi
 541:Drivers/lvgl/src/core/lv_obj.c **** 
 1037              		.loc 1 541 9 is_stmt 1 view .LVU349
 541:Drivers/lvgl/src/core/lv_obj.c **** 
 1038              		.loc 1 541 19 is_stmt 0 view .LVU350
 1039 016a 6344     		add	r3, r3, ip
 1040 016c ADF80630 		strh	r3, [sp, #6]	@ movhi
 543:Drivers/lvgl/src/core/lv_obj.c ****         lv_obj_draw_dsc_init(&part_dsc, draw_ctx);
 1041              		.loc 1 543 9 is_stmt 1 view .LVU351
 544:Drivers/lvgl/src/core/lv_obj.c ****         part_dsc.class_p = MY_CLASS;
 1042              		.loc 1 544 9 view .LVU352
ARM GAS  /var/folders/0z/tsy30v1j4xl4_7kw94k978ww0000gn/T//ccVt8IXl.s 			page 52


 1043 0170 3146     		mov	r1, r6
 1044 0172 10A8     		add	r0, sp, #64
 1045              	.LVL98:
 544:Drivers/lvgl/src/core/lv_obj.c ****         part_dsc.class_p = MY_CLASS;
 1046              		.loc 1 544 9 is_stmt 0 view .LVU353
 1047 0174 FFF7FEFF 		bl	lv_obj_draw_dsc_init
 1048              	.LVL99:
 545:Drivers/lvgl/src/core/lv_obj.c ****         part_dsc.type = LV_OBJ_DRAW_PART_RECTANGLE;
 1049              		.loc 1 545 9 is_stmt 1 view .LVU354
 545:Drivers/lvgl/src/core/lv_obj.c ****         part_dsc.type = LV_OBJ_DRAW_PART_RECTANGLE;
 1050              		.loc 1 545 26 is_stmt 0 view .LVU355
 1051 0178 644B     		ldr	r3, .L60
 1052 017a 1193     		str	r3, [sp, #68]
 546:Drivers/lvgl/src/core/lv_obj.c ****         part_dsc.rect_dsc = &draw_dsc;
 1053              		.loc 1 546 9 is_stmt 1 view .LVU356
 546:Drivers/lvgl/src/core/lv_obj.c ****         part_dsc.rect_dsc = &draw_dsc;
 1054              		.loc 1 546 23 is_stmt 0 view .LVU357
 1055 017c 0025     		movs	r5, #0
 1056              	.LVL100:
 546:Drivers/lvgl/src/core/lv_obj.c ****         part_dsc.rect_dsc = &draw_dsc;
 1057              		.loc 1 546 23 view .LVU358
 1058 017e 1295     		str	r5, [sp, #72]
 547:Drivers/lvgl/src/core/lv_obj.c ****         part_dsc.draw_area = &coords;
 1059              		.loc 1 547 9 is_stmt 1 view .LVU359
 547:Drivers/lvgl/src/core/lv_obj.c ****         part_dsc.draw_area = &coords;
 1060              		.loc 1 547 27 is_stmt 0 view .LVU360
 1061 0180 1497     		str	r7, [sp, #80]
 548:Drivers/lvgl/src/core/lv_obj.c ****         part_dsc.part = LV_PART_MAIN;
 1062              		.loc 1 548 9 is_stmt 1 view .LVU361
 548:Drivers/lvgl/src/core/lv_obj.c ****         part_dsc.part = LV_PART_MAIN;
 1063              		.loc 1 548 28 is_stmt 0 view .LVU362
 1064 0182 CDF84CD0 		str	sp, [sp, #76]
 549:Drivers/lvgl/src/core/lv_obj.c ****         lv_event_send(obj, LV_EVENT_DRAW_PART_BEGIN, &part_dsc);
 1065              		.loc 1 549 9 is_stmt 1 view .LVU363
 549:Drivers/lvgl/src/core/lv_obj.c ****         lv_event_send(obj, LV_EVENT_DRAW_PART_BEGIN, &part_dsc);
 1066              		.loc 1 549 23 is_stmt 0 view .LVU364
 1067 0186 1D95     		str	r5, [sp, #116]
 550:Drivers/lvgl/src/core/lv_obj.c **** 
 1068              		.loc 1 550 9 is_stmt 1 view .LVU365
 1069 0188 10AA     		add	r2, sp, #64
 1070 018a 1A21     		movs	r1, #26
 1071 018c 2046     		mov	r0, r4
 1072 018e FFF7FEFF 		bl	lv_event_send
 1073              	.LVL101:
 554:Drivers/lvgl/src/core/lv_obj.c ****         const void * bg_img_src = draw_dsc.bg_img_src;
 1074              		.loc 1 554 9 view .LVU366
 1075              	.LBB142:
 1076              	.LBI142:
 499:Drivers/lvgl/src/core/lv_obj_style_gen.h **** {
 1077              		.loc 2 499 20 view .LVU367
 1078              	.LBB143:
 501:Drivers/lvgl/src/core/lv_obj_style_gen.h ****     return (bool)v.num;
 1079              		.loc 2 501 5 view .LVU368
 501:Drivers/lvgl/src/core/lv_obj_style_gen.h ****     return (bool)v.num;
 1080              		.loc 2 501 26 is_stmt 0 view .LVU369
 1081 0192 1722     		movs	r2, #23
 1082 0194 2946     		mov	r1, r5
ARM GAS  /var/folders/0z/tsy30v1j4xl4_7kw94k978ww0000gn/T//ccVt8IXl.s 			page 53


 1083 0196 2046     		mov	r0, r4
 1084 0198 FFF7FEFF 		bl	lv_obj_get_style_prop
 1085              	.LVL102:
 502:Drivers/lvgl/src/core/lv_obj_style_gen.h **** }
 1086              		.loc 2 502 5 is_stmt 1 view .LVU370
 502:Drivers/lvgl/src/core/lv_obj_style_gen.h **** }
 1087              		.loc 2 502 5 is_stmt 0 view .LVU371
 1088              	.LBE143:
 1089              	.LBE142:
 554:Drivers/lvgl/src/core/lv_obj.c ****         const void * bg_img_src = draw_dsc.bg_img_src;
 1090              		.loc 1 554 109 view .LVU372
 1091 019c 20B1     		cbz	r0, .L51
 554:Drivers/lvgl/src/core/lv_obj.c ****         const void * bg_img_src = draw_dsc.bg_img_src;
 1092              		.loc 1 554 88 discriminator 1 view .LVU373
 1093 019e BDF90830 		ldrsh	r3, [sp, #8]
 554:Drivers/lvgl/src/core/lv_obj.c ****         const void * bg_img_src = draw_dsc.bg_img_src;
 1094              		.loc 1 554 109 discriminator 1 view .LVU374
 1095 01a2 9BB9     		cbnz	r3, .L52
 554:Drivers/lvgl/src/core/lv_obj.c ****         const void * bg_img_src = draw_dsc.bg_img_src;
 1096              		.loc 1 554 109 view .LVU375
 1097 01a4 2B46     		mov	r3, r5
 1098 01a6 00E0     		b	.L47
 1099              	.L51:
 1100 01a8 0023     		movs	r3, #0
 1101              	.L47:
 1102              	.LVL103:
 555:Drivers/lvgl/src/core/lv_obj.c ****         if(clip_corner) {
 1103              		.loc 1 555 9 is_stmt 1 discriminator 6 view .LVU376
 555:Drivers/lvgl/src/core/lv_obj.c ****         if(clip_corner) {
 1104              		.loc 1 555 22 is_stmt 0 discriminator 6 view .LVU377
 1105 01aa 069F     		ldr	r7, [sp, #24]
 1106              	.LVL104:
 556:Drivers/lvgl/src/core/lv_obj.c ****             draw_dsc.bg_img_src = NULL;
 1107              		.loc 1 556 9 is_stmt 1 discriminator 6 view .LVU378
 556:Drivers/lvgl/src/core/lv_obj.c ****             draw_dsc.bg_img_src = NULL;
 1108              		.loc 1 556 11 is_stmt 0 discriminator 6 view .LVU379
 1109 01ac 1D46     		mov	r5, r3
 1110 01ae 0BB1     		cbz	r3, .L48
 557:Drivers/lvgl/src/core/lv_obj.c ****         }
 1111              		.loc 1 557 13 is_stmt 1 view .LVU380
 557:Drivers/lvgl/src/core/lv_obj.c ****         }
 1112              		.loc 1 557 33 is_stmt 0 view .LVU381
 1113 01b0 0023     		movs	r3, #0
 1114              	.LVL105:
 557:Drivers/lvgl/src/core/lv_obj.c ****         }
 1115              		.loc 1 557 33 view .LVU382
 1116 01b2 0693     		str	r3, [sp, #24]
 1117              	.L48:
 561:Drivers/lvgl/src/core/lv_obj.c **** 
 1118              		.loc 1 561 9 is_stmt 1 view .LVU383
 1119 01b4 6A46     		mov	r2, sp
 1120 01b6 02A9     		add	r1, sp, #8
 1121 01b8 3046     		mov	r0, r6
 1122 01ba FFF7FEFF 		bl	lv_draw_rect
 1123              	.LVL106:
 565:Drivers/lvgl/src/core/lv_obj.c ****             lv_draw_mask_radius_param_t * mp = lv_mem_buf_get(sizeof(lv_draw_mask_radius_param_t));
 1124              		.loc 1 565 9 view .LVU384
ARM GAS  /var/folders/0z/tsy30v1j4xl4_7kw94k978ww0000gn/T//ccVt8IXl.s 			page 54


 565:Drivers/lvgl/src/core/lv_obj.c ****             lv_draw_mask_radius_param_t * mp = lv_mem_buf_get(sizeof(lv_draw_mask_radius_param_t));
 1125              		.loc 1 565 11 is_stmt 0 view .LVU385
 1126 01be 3DB9     		cbnz	r5, .L58
 1127              	.L49:
 582:Drivers/lvgl/src/core/lv_obj.c ****     }
 1128              		.loc 1 582 9 is_stmt 1 view .LVU386
 1129 01c0 10AA     		add	r2, sp, #64
 1130 01c2 1B21     		movs	r1, #27
 1131 01c4 2046     		mov	r0, r4
 1132 01c6 FFF7FEFF 		bl	lv_event_send
 1133              	.LVL107:
 1134              	.LBE133:
 1135 01ca 2BE7     		b	.L37
 1136              	.LVL108:
 1137              	.L52:
 1138              	.LBB145:
 554:Drivers/lvgl/src/core/lv_obj.c ****         const void * bg_img_src = draw_dsc.bg_img_src;
 1139              		.loc 1 554 109 is_stmt 0 view .LVU387
 1140 01cc 0123     		movs	r3, #1
 1141 01ce ECE7     		b	.L47
 1142              	.LVL109:
 1143              	.L58:
 1144              	.LBB144:
 566:Drivers/lvgl/src/core/lv_obj.c ****             lv_draw_mask_radius_init(mp, &obj->coords, draw_dsc.radius, false);
 1145              		.loc 1 566 13 is_stmt 1 view .LVU388
 566:Drivers/lvgl/src/core/lv_obj.c ****             lv_draw_mask_radius_init(mp, &obj->coords, draw_dsc.radius, false);
 1146              		.loc 1 566 48 is_stmt 0 view .LVU389
 1147 01d0 1820     		movs	r0, #24
 1148 01d2 FFF7FEFF 		bl	lv_mem_buf_get
 1149              	.LVL110:
 1150 01d6 0546     		mov	r5, r0
 1151              	.LVL111:
 567:Drivers/lvgl/src/core/lv_obj.c ****             /*Add the mask and use `obj+8` as custom id. Don't use `obj` directly because it might 
 1152              		.loc 1 567 13 is_stmt 1 view .LVU390
 1153 01d8 0023     		movs	r3, #0
 1154 01da BDF90820 		ldrsh	r2, [sp, #8]
 1155 01de 04F11401 		add	r1, r4, #20
 1156 01e2 FFF7FEFF 		bl	lv_draw_mask_radius_init
 1157              	.LVL112:
 569:Drivers/lvgl/src/core/lv_obj.c **** 
 1158              		.loc 1 569 13 view .LVU391
 1159 01e6 04F59071 		add	r1, r4, #288
 1160 01ea 2846     		mov	r0, r5
 1161 01ec FFF7FEFF 		bl	lv_draw_mask_add
 1162              	.LVL113:
 571:Drivers/lvgl/src/core/lv_obj.c ****                 draw_dsc.bg_opa = LV_OPA_TRANSP;
 1163              		.loc 1 571 13 view .LVU392
 571:Drivers/lvgl/src/core/lv_obj.c ****                 draw_dsc.bg_opa = LV_OPA_TRANSP;
 1164              		.loc 1 571 15 is_stmt 0 view .LVU393
 1165 01f0 002F     		cmp	r7, #0
 1166 01f2 E5D0     		beq	.L49
 572:Drivers/lvgl/src/core/lv_obj.c ****                 draw_dsc.border_opa = LV_OPA_TRANSP;
 1167              		.loc 1 572 17 is_stmt 1 view .LVU394
 572:Drivers/lvgl/src/core/lv_obj.c ****                 draw_dsc.border_opa = LV_OPA_TRANSP;
 1168              		.loc 1 572 33 is_stmt 0 view .LVU395
 1169 01f4 0023     		movs	r3, #0
 1170 01f6 8DF80B30 		strb	r3, [sp, #11]
ARM GAS  /var/folders/0z/tsy30v1j4xl4_7kw94k978ww0000gn/T//ccVt8IXl.s 			page 55


 573:Drivers/lvgl/src/core/lv_obj.c ****                 draw_dsc.outline_opa = LV_OPA_TRANSP;
 1171              		.loc 1 573 17 is_stmt 1 view .LVU396
 573:Drivers/lvgl/src/core/lv_obj.c ****                 draw_dsc.outline_opa = LV_OPA_TRANSP;
 1172              		.loc 1 573 37 is_stmt 0 view .LVU397
 1173 01fa 8DF82A30 		strb	r3, [sp, #42]
 574:Drivers/lvgl/src/core/lv_obj.c ****                 draw_dsc.shadow_opa = LV_OPA_TRANSP;
 1174              		.loc 1 574 17 is_stmt 1 view .LVU398
 574:Drivers/lvgl/src/core/lv_obj.c ****                 draw_dsc.shadow_opa = LV_OPA_TRANSP;
 1175              		.loc 1 574 38 is_stmt 0 view .LVU399
 1176 01fe 8DF83230 		strb	r3, [sp, #50]
 575:Drivers/lvgl/src/core/lv_obj.c ****                 draw_dsc.bg_img_src = bg_img_src;
 1177              		.loc 1 575 17 is_stmt 1 view .LVU400
 575:Drivers/lvgl/src/core/lv_obj.c ****                 draw_dsc.bg_img_src = bg_img_src;
 1178              		.loc 1 575 37 is_stmt 0 view .LVU401
 1179 0202 8DF83E30 		strb	r3, [sp, #62]
 576:Drivers/lvgl/src/core/lv_obj.c ****                 lv_draw_rect(draw_ctx, &draw_dsc, &coords);
 1180              		.loc 1 576 17 is_stmt 1 view .LVU402
 576:Drivers/lvgl/src/core/lv_obj.c ****                 lv_draw_rect(draw_ctx, &draw_dsc, &coords);
 1181              		.loc 1 576 37 is_stmt 0 view .LVU403
 1182 0206 0697     		str	r7, [sp, #24]
 577:Drivers/lvgl/src/core/lv_obj.c ****             }
 1183              		.loc 1 577 17 is_stmt 1 view .LVU404
 1184 0208 6A46     		mov	r2, sp
 1185 020a 02A9     		add	r1, sp, #8
 1186 020c 3046     		mov	r0, r6
 1187 020e FFF7FEFF 		bl	lv_draw_rect
 1188              	.LVL114:
 1189 0212 D5E7     		b	.L49
 1190              	.LVL115:
 1191              	.L56:
 577:Drivers/lvgl/src/core/lv_obj.c ****             }
 1192              		.loc 1 577 17 is_stmt 0 view .LVU405
 1193              	.LBE144:
 1194              	.LBE145:
 1195              	.LBB146:
 585:Drivers/lvgl/src/core/lv_obj.c ****         draw_scrollbar(obj, draw_ctx);
 1196              		.loc 1 585 9 is_stmt 1 view .LVU406
 585:Drivers/lvgl/src/core/lv_obj.c ****         draw_scrollbar(obj, draw_ctx);
 1197              		.loc 1 585 36 is_stmt 0 view .LVU407
 1198 0214 3046     		mov	r0, r6
 1199              	.LVL116:
 585:Drivers/lvgl/src/core/lv_obj.c ****         draw_scrollbar(obj, draw_ctx);
 1200              		.loc 1 585 36 view .LVU408
 1201 0216 FFF7FEFF 		bl	lv_event_get_draw_ctx
 1202              	.LVL117:
 1203 021a 0546     		mov	r5, r0
 1204              	.LVL118:
 586:Drivers/lvgl/src/core/lv_obj.c **** 
 1205              		.loc 1 586 9 is_stmt 1 view .LVU409
 1206 021c 0146     		mov	r1, r0
 1207 021e 2046     		mov	r0, r4
 1208              	.LVL119:
 586:Drivers/lvgl/src/core/lv_obj.c **** 
 1209              		.loc 1 586 9 is_stmt 0 view .LVU410
 1210 0220 FFF7FEFF 		bl	draw_scrollbar
 1211              	.LVL120:
 589:Drivers/lvgl/src/core/lv_obj.c ****             lv_draw_mask_radius_param_t * param = lv_draw_mask_remove_custom(obj + 8);
ARM GAS  /var/folders/0z/tsy30v1j4xl4_7kw94k978ww0000gn/T//ccVt8IXl.s 			page 56


 1212              		.loc 1 589 9 is_stmt 1 view .LVU411
 1213              	.LBB147:
 1214              	.LBI147:
 499:Drivers/lvgl/src/core/lv_obj_style_gen.h **** {
 1215              		.loc 2 499 20 view .LVU412
 1216              	.LBB148:
 501:Drivers/lvgl/src/core/lv_obj_style_gen.h ****     return (bool)v.num;
 1217              		.loc 2 501 5 view .LVU413
 501:Drivers/lvgl/src/core/lv_obj_style_gen.h ****     return (bool)v.num;
 1218              		.loc 2 501 26 is_stmt 0 view .LVU414
 1219 0224 1722     		movs	r2, #23
 1220 0226 0021     		movs	r1, #0
 1221 0228 2046     		mov	r0, r4
 1222 022a FFF7FEFF 		bl	lv_obj_get_style_prop
 1223              	.LVL121:
 502:Drivers/lvgl/src/core/lv_obj_style_gen.h **** }
 1224              		.loc 2 502 5 is_stmt 1 view .LVU415
 502:Drivers/lvgl/src/core/lv_obj_style_gen.h **** }
 1225              		.loc 2 502 5 is_stmt 0 view .LVU416
 1226              	.LBE148:
 1227              	.LBE147:
 589:Drivers/lvgl/src/core/lv_obj.c ****             lv_draw_mask_radius_param_t * param = lv_draw_mask_remove_custom(obj + 8);
 1228              		.loc 1 589 11 view .LVU417
 1229 022e 0028     		cmp	r0, #0
 1230 0230 5FD1     		bne	.L59
 1231              	.LVL122:
 1232              	.L50:
 599:Drivers/lvgl/src/core/lv_obj.c ****             lv_draw_rect_dsc_t draw_dsc;
 1233              		.loc 1 599 9 is_stmt 1 view .LVU418
 1234              	.LBB149:
 1235              	.LBI149:
 265:Drivers/lvgl/src/core/lv_obj_style_gen.h **** {
 1236              		.loc 2 265 20 view .LVU419
 1237              	.LBB150:
 267:Drivers/lvgl/src/core/lv_obj_style_gen.h ****     return (bool)v.num;
 1238              		.loc 2 267 5 view .LVU420
 267:Drivers/lvgl/src/core/lv_obj_style_gen.h ****     return (bool)v.num;
 1239              		.loc 2 267 26 is_stmt 0 view .LVU421
 1240 0232 3422     		movs	r2, #52
 1241 0234 0021     		movs	r1, #0
 1242 0236 2046     		mov	r0, r4
 1243 0238 FFF7FEFF 		bl	lv_obj_get_style_prop
 1244              	.LVL123:
 268:Drivers/lvgl/src/core/lv_obj_style_gen.h **** }
 1245              		.loc 2 268 5 is_stmt 1 view .LVU422
 268:Drivers/lvgl/src/core/lv_obj_style_gen.h **** }
 1246              		.loc 2 268 5 is_stmt 0 view .LVU423
 1247              	.LBE150:
 1248              	.LBE149:
 599:Drivers/lvgl/src/core/lv_obj.c ****             lv_draw_rect_dsc_t draw_dsc;
 1249              		.loc 1 599 11 view .LVU424
 1250 023c 0028     		cmp	r0, #0
 1251 023e 3FF4F1AE 		beq	.L37
 1252              	.LBB151:
 600:Drivers/lvgl/src/core/lv_obj.c ****             lv_draw_rect_dsc_init(&draw_dsc);
 1253              		.loc 1 600 13 is_stmt 1 discriminator 3 view .LVU425
 601:Drivers/lvgl/src/core/lv_obj.c ****             draw_dsc.bg_opa = LV_OPA_TRANSP;
ARM GAS  /var/folders/0z/tsy30v1j4xl4_7kw94k978ww0000gn/T//ccVt8IXl.s 			page 57


 1254              		.loc 1 601 13 discriminator 3 view .LVU426
 1255 0242 02AF     		add	r7, sp, #8
 1256 0244 3846     		mov	r0, r7
 1257 0246 FFF7FEFF 		bl	lv_draw_rect_dsc_init
 1258              	.LVL124:
 602:Drivers/lvgl/src/core/lv_obj.c ****             draw_dsc.bg_img_opa = LV_OPA_TRANSP;
 1259              		.loc 1 602 13 discriminator 3 view .LVU427
 602:Drivers/lvgl/src/core/lv_obj.c ****             draw_dsc.bg_img_opa = LV_OPA_TRANSP;
 1260              		.loc 1 602 29 is_stmt 0 discriminator 3 view .LVU428
 1261 024a 0026     		movs	r6, #0
 1262 024c 8DF80B60 		strb	r6, [sp, #11]
 603:Drivers/lvgl/src/core/lv_obj.c ****             draw_dsc.outline_opa = LV_OPA_TRANSP;
 1263              		.loc 1 603 13 is_stmt 1 discriminator 3 view .LVU429
 603:Drivers/lvgl/src/core/lv_obj.c ****             draw_dsc.outline_opa = LV_OPA_TRANSP;
 1264              		.loc 1 603 33 is_stmt 0 discriminator 3 view .LVU430
 1265 0250 8DF82260 		strb	r6, [sp, #34]
 604:Drivers/lvgl/src/core/lv_obj.c ****             draw_dsc.shadow_opa = LV_OPA_TRANSP;
 1266              		.loc 1 604 13 is_stmt 1 discriminator 3 view .LVU431
 604:Drivers/lvgl/src/core/lv_obj.c ****             draw_dsc.shadow_opa = LV_OPA_TRANSP;
 1267              		.loc 1 604 34 is_stmt 0 discriminator 3 view .LVU432
 1268 0254 8DF83260 		strb	r6, [sp, #50]
 605:Drivers/lvgl/src/core/lv_obj.c ****             lv_obj_init_draw_rect_dsc(obj, LV_PART_MAIN, &draw_dsc);
 1269              		.loc 1 605 13 is_stmt 1 discriminator 3 view .LVU433
 605:Drivers/lvgl/src/core/lv_obj.c ****             lv_obj_init_draw_rect_dsc(obj, LV_PART_MAIN, &draw_dsc);
 1270              		.loc 1 605 33 is_stmt 0 discriminator 3 view .LVU434
 1271 0258 8DF83E60 		strb	r6, [sp, #62]
 606:Drivers/lvgl/src/core/lv_obj.c **** 
 1272              		.loc 1 606 13 is_stmt 1 discriminator 3 view .LVU435
 1273 025c 3A46     		mov	r2, r7
 1274 025e 3146     		mov	r1, r6
 1275 0260 2046     		mov	r0, r4
 1276 0262 FFF7FEFF 		bl	lv_obj_init_draw_rect_dsc
 1277              	.LVL125:
 608:Drivers/lvgl/src/core/lv_obj.c ****             lv_coord_t h = lv_obj_get_style_transform_height(obj, LV_PART_MAIN);
 1278              		.loc 1 608 13 discriminator 3 view .LVU436
 1279              	.LBB152:
 1280              	.LBI152:
  55:Drivers/lvgl/src/core/lv_obj_style_gen.h **** {
 1281              		.loc 2 55 26 discriminator 3 view .LVU437
 1282              	.LBB153:
  57:Drivers/lvgl/src/core/lv_obj_style_gen.h ****     return (lv_coord_t)v.num;
 1283              		.loc 2 57 5 discriminator 3 view .LVU438
  57:Drivers/lvgl/src/core/lv_obj_style_gen.h ****     return (lv_coord_t)v.num;
 1284              		.loc 2 57 26 is_stmt 0 discriminator 3 view .LVU439
 1285 0266 6922     		movs	r2, #105
 1286 0268 3146     		mov	r1, r6
 1287 026a 2046     		mov	r0, r4
 1288 026c FFF7FEFF 		bl	lv_obj_get_style_prop
 1289              	.LVL126:
 1290 0270 8046     		mov	r8, r0
  58:Drivers/lvgl/src/core/lv_obj_style_gen.h **** }
 1291              		.loc 2 58 5 is_stmt 1 discriminator 3 view .LVU440
 1292              	.LVL127:
  58:Drivers/lvgl/src/core/lv_obj_style_gen.h **** }
 1293              		.loc 2 58 5 is_stmt 0 discriminator 3 view .LVU441
 1294              	.LBE153:
 1295              	.LBE152:
ARM GAS  /var/folders/0z/tsy30v1j4xl4_7kw94k978ww0000gn/T//ccVt8IXl.s 			page 58


 609:Drivers/lvgl/src/core/lv_obj.c ****             lv_area_t coords;
 1296              		.loc 1 609 13 is_stmt 1 discriminator 3 view .LVU442
 1297              	.LBB154:
 1298              	.LBI154:
  61:Drivers/lvgl/src/core/lv_obj_style_gen.h **** {
 1299              		.loc 2 61 26 discriminator 3 view .LVU443
 1300              	.LBB155:
  63:Drivers/lvgl/src/core/lv_obj_style_gen.h ****     return (lv_coord_t)v.num;
 1301              		.loc 2 63 5 discriminator 3 view .LVU444
  63:Drivers/lvgl/src/core/lv_obj_style_gen.h ****     return (lv_coord_t)v.num;
 1302              		.loc 2 63 26 is_stmt 0 discriminator 3 view .LVU445
 1303 0272 6A22     		movs	r2, #106
 1304 0274 3146     		mov	r1, r6
 1305 0276 2046     		mov	r0, r4
 1306 0278 FFF7FEFF 		bl	lv_obj_get_style_prop
 1307              	.LVL128:
  64:Drivers/lvgl/src/core/lv_obj_style_gen.h **** }
 1308              		.loc 2 64 5 is_stmt 1 discriminator 3 view .LVU446
  64:Drivers/lvgl/src/core/lv_obj_style_gen.h **** }
 1309              		.loc 2 64 5 is_stmt 0 discriminator 3 view .LVU447
 1310              	.LBE155:
 1311              	.LBE154:
 610:Drivers/lvgl/src/core/lv_obj.c ****             lv_area_copy(&coords, &obj->coords);
 1312              		.loc 1 610 13 is_stmt 1 discriminator 3 view .LVU448
 611:Drivers/lvgl/src/core/lv_obj.c ****             coords.x1 -= w;
 1313              		.loc 1 611 13 discriminator 3 view .LVU449
 1314              	.LBB156:
 1315              	.LBI156:
 110:Drivers/lvgl/src/core/../misc/../font/../misc/lv_area.h **** {
 1316              		.loc 3 110 20 discriminator 3 view .LVU450
 1317              	.LBB157:
 112:Drivers/lvgl/src/core/../misc/../font/../misc/lv_area.h ****     dest->y1 = src->y1;
 1318              		.loc 3 112 5 discriminator 3 view .LVU451
 112:Drivers/lvgl/src/core/../misc/../font/../misc/lv_area.h ****     dest->y1 = src->y1;
 1319              		.loc 3 112 19 is_stmt 0 discriminator 3 view .LVU452
 1320 027c B4F91410 		ldrsh	r1, [r4, #20]
 112:Drivers/lvgl/src/core/../misc/../font/../misc/lv_area.h ****     dest->y1 = src->y1;
 1321              		.loc 3 112 14 discriminator 3 view .LVU453
 1322 0280 ADF80010 		strh	r1, [sp]	@ movhi
 113:Drivers/lvgl/src/core/../misc/../font/../misc/lv_area.h ****     dest->x2 = src->x2;
 1323              		.loc 3 113 5 is_stmt 1 discriminator 3 view .LVU454
 113:Drivers/lvgl/src/core/../misc/../font/../misc/lv_area.h ****     dest->x2 = src->x2;
 1324              		.loc 3 113 19 is_stmt 0 discriminator 3 view .LVU455
 1325 0284 B4F91620 		ldrsh	r2, [r4, #22]
 113:Drivers/lvgl/src/core/../misc/../font/../misc/lv_area.h ****     dest->x2 = src->x2;
 1326              		.loc 3 113 14 discriminator 3 view .LVU456
 1327 0288 ADF80220 		strh	r2, [sp, #2]	@ movhi
 114:Drivers/lvgl/src/core/../misc/../font/../misc/lv_area.h ****     dest->y2 = src->y2;
 1328              		.loc 3 114 5 is_stmt 1 discriminator 3 view .LVU457
 114:Drivers/lvgl/src/core/../misc/../font/../misc/lv_area.h ****     dest->y2 = src->y2;
 1329              		.loc 3 114 19 is_stmt 0 discriminator 3 view .LVU458
 1330 028c B4F918E0 		ldrsh	lr, [r4, #24]
 114:Drivers/lvgl/src/core/../misc/../font/../misc/lv_area.h ****     dest->y2 = src->y2;
 1331              		.loc 3 114 14 discriminator 3 view .LVU459
 1332 0290 ADF804E0 		strh	lr, [sp, #4]	@ movhi
 1333              		.loc 3 115 5 is_stmt 1 discriminator 3 view .LVU460
 1334              		.loc 3 115 19 is_stmt 0 discriminator 3 view .LVU461
ARM GAS  /var/folders/0z/tsy30v1j4xl4_7kw94k978ww0000gn/T//ccVt8IXl.s 			page 59


 1335 0294 B4F91AC0 		ldrsh	ip, [r4, #26]
 1336              		.loc 3 115 14 discriminator 3 view .LVU462
 1337 0298 ADF806C0 		strh	ip, [sp, #6]	@ movhi
 1338              	.LVL129:
 1339              		.loc 3 115 14 discriminator 3 view .LVU463
 1340              	.LBE157:
 1341              	.LBE156:
 612:Drivers/lvgl/src/core/lv_obj.c ****             coords.x2 += w;
 1342              		.loc 1 612 13 is_stmt 1 discriminator 3 view .LVU464
 612:Drivers/lvgl/src/core/lv_obj.c ****             coords.x2 += w;
 1343              		.loc 1 612 23 is_stmt 0 discriminator 3 view .LVU465
 1344 029c 1FFA88F3 		uxth	r3, r8
 1345 02a0 C91A     		subs	r1, r1, r3
 1346 02a2 ADF80010 		strh	r1, [sp]	@ movhi
 613:Drivers/lvgl/src/core/lv_obj.c ****             coords.y1 -= h;
 1347              		.loc 1 613 13 is_stmt 1 discriminator 3 view .LVU466
 613:Drivers/lvgl/src/core/lv_obj.c ****             coords.y1 -= h;
 1348              		.loc 1 613 23 is_stmt 0 discriminator 3 view .LVU467
 1349 02a6 7344     		add	r3, r3, lr
 1350 02a8 ADF80430 		strh	r3, [sp, #4]	@ movhi
 614:Drivers/lvgl/src/core/lv_obj.c ****             coords.y2 += h;
 1351              		.loc 1 614 13 is_stmt 1 discriminator 3 view .LVU468
 614:Drivers/lvgl/src/core/lv_obj.c ****             coords.y2 += h;
 1352              		.loc 1 614 23 is_stmt 0 discriminator 3 view .LVU469
 1353 02ac 80B2     		uxth	r0, r0
 614:Drivers/lvgl/src/core/lv_obj.c ****             coords.y2 += h;
 1354              		.loc 1 614 23 discriminator 3 view .LVU470
 1355 02ae 121A     		subs	r2, r2, r0
 1356 02b0 ADF80220 		strh	r2, [sp, #2]	@ movhi
 615:Drivers/lvgl/src/core/lv_obj.c **** 
 1357              		.loc 1 615 13 is_stmt 1 discriminator 3 view .LVU471
 615:Drivers/lvgl/src/core/lv_obj.c **** 
 1358              		.loc 1 615 23 is_stmt 0 discriminator 3 view .LVU472
 1359 02b4 6044     		add	r0, r0, ip
 1360              	.LVL130:
 615:Drivers/lvgl/src/core/lv_obj.c **** 
 1361              		.loc 1 615 23 discriminator 3 view .LVU473
 1362 02b6 ADF80600 		strh	r0, [sp, #6]	@ movhi
 617:Drivers/lvgl/src/core/lv_obj.c ****             lv_obj_draw_dsc_init(&part_dsc, draw_ctx);
 1363              		.loc 1 617 13 is_stmt 1 discriminator 3 view .LVU474
 618:Drivers/lvgl/src/core/lv_obj.c ****             part_dsc.class_p = MY_CLASS;
 1364              		.loc 1 618 13 discriminator 3 view .LVU475
 1365 02ba 2946     		mov	r1, r5
 1366 02bc 10A8     		add	r0, sp, #64
 1367 02be FFF7FEFF 		bl	lv_obj_draw_dsc_init
 1368              	.LVL131:
 619:Drivers/lvgl/src/core/lv_obj.c ****             part_dsc.type = LV_OBJ_DRAW_PART_BORDER_POST;
 1369              		.loc 1 619 13 discriminator 3 view .LVU476
 619:Drivers/lvgl/src/core/lv_obj.c ****             part_dsc.type = LV_OBJ_DRAW_PART_BORDER_POST;
 1370              		.loc 1 619 30 is_stmt 0 discriminator 3 view .LVU477
 1371 02c2 124B     		ldr	r3, .L60
 1372 02c4 1193     		str	r3, [sp, #68]
 620:Drivers/lvgl/src/core/lv_obj.c ****             part_dsc.rect_dsc = &draw_dsc;
 1373              		.loc 1 620 13 is_stmt 1 discriminator 3 view .LVU478
 620:Drivers/lvgl/src/core/lv_obj.c ****             part_dsc.rect_dsc = &draw_dsc;
 1374              		.loc 1 620 27 is_stmt 0 discriminator 3 view .LVU479
 1375 02c6 0123     		movs	r3, #1
ARM GAS  /var/folders/0z/tsy30v1j4xl4_7kw94k978ww0000gn/T//ccVt8IXl.s 			page 60


 1376 02c8 1293     		str	r3, [sp, #72]
 621:Drivers/lvgl/src/core/lv_obj.c ****             part_dsc.draw_area = &coords;
 1377              		.loc 1 621 13 is_stmt 1 discriminator 3 view .LVU480
 621:Drivers/lvgl/src/core/lv_obj.c ****             part_dsc.draw_area = &coords;
 1378              		.loc 1 621 31 is_stmt 0 discriminator 3 view .LVU481
 1379 02ca 1497     		str	r7, [sp, #80]
 622:Drivers/lvgl/src/core/lv_obj.c ****             part_dsc.part = LV_PART_MAIN;
 1380              		.loc 1 622 13 is_stmt 1 discriminator 3 view .LVU482
 622:Drivers/lvgl/src/core/lv_obj.c ****             part_dsc.part = LV_PART_MAIN;
 1381              		.loc 1 622 32 is_stmt 0 discriminator 3 view .LVU483
 1382 02cc CDF84CD0 		str	sp, [sp, #76]
 623:Drivers/lvgl/src/core/lv_obj.c ****             lv_event_send(obj, LV_EVENT_DRAW_PART_BEGIN, &part_dsc);
 1383              		.loc 1 623 13 is_stmt 1 discriminator 3 view .LVU484
 623:Drivers/lvgl/src/core/lv_obj.c ****             lv_event_send(obj, LV_EVENT_DRAW_PART_BEGIN, &part_dsc);
 1384              		.loc 1 623 27 is_stmt 0 discriminator 3 view .LVU485
 1385 02d0 1D96     		str	r6, [sp, #116]
 624:Drivers/lvgl/src/core/lv_obj.c **** 
 1386              		.loc 1 624 13 is_stmt 1 discriminator 3 view .LVU486
 1387 02d2 10AA     		add	r2, sp, #64
 1388 02d4 1A21     		movs	r1, #26
 1389 02d6 2046     		mov	r0, r4
 1390 02d8 FFF7FEFF 		bl	lv_event_send
 1391              	.LVL132:
 626:Drivers/lvgl/src/core/lv_obj.c ****             lv_event_send(obj, LV_EVENT_DRAW_PART_END, &part_dsc);
 1392              		.loc 1 626 13 discriminator 3 view .LVU487
 1393 02dc 6A46     		mov	r2, sp
 1394 02de 3946     		mov	r1, r7
 1395 02e0 2846     		mov	r0, r5
 1396 02e2 FFF7FEFF 		bl	lv_draw_rect
 1397              	.LVL133:
 627:Drivers/lvgl/src/core/lv_obj.c ****         }
 1398              		.loc 1 627 13 discriminator 3 view .LVU488
 1399 02e6 10AA     		add	r2, sp, #64
 1400 02e8 1B21     		movs	r1, #27
 1401 02ea 2046     		mov	r0, r4
 1402 02ec FFF7FEFF 		bl	lv_event_send
 1403              	.LVL134:
 1404 02f0 98E6     		b	.L37
 1405              	.LVL135:
 1406              	.L59:
 627:Drivers/lvgl/src/core/lv_obj.c ****         }
 1407              		.loc 1 627 13 is_stmt 0 discriminator 3 view .LVU489
 1408              	.LBE151:
 1409              	.LBB158:
 590:Drivers/lvgl/src/core/lv_obj.c ****             if(param) {
 1410              		.loc 1 590 13 is_stmt 1 view .LVU490
 590:Drivers/lvgl/src/core/lv_obj.c ****             if(param) {
 1411              		.loc 1 590 51 is_stmt 0 view .LVU491
 1412 02f2 04F59070 		add	r0, r4, #288
 1413 02f6 FFF7FEFF 		bl	lv_draw_mask_remove_custom
 1414              	.LVL136:
 591:Drivers/lvgl/src/core/lv_obj.c ****                 lv_draw_mask_free_param(param);
 1415              		.loc 1 591 13 is_stmt 1 view .LVU492
 591:Drivers/lvgl/src/core/lv_obj.c ****                 lv_draw_mask_free_param(param);
 1416              		.loc 1 591 15 is_stmt 0 view .LVU493
 1417 02fa 0646     		mov	r6, r0
 1418              	.LVL137:
ARM GAS  /var/folders/0z/tsy30v1j4xl4_7kw94k978ww0000gn/T//ccVt8IXl.s 			page 61


 591:Drivers/lvgl/src/core/lv_obj.c ****                 lv_draw_mask_free_param(param);
 1419              		.loc 1 591 15 view .LVU494
 1420 02fc 0028     		cmp	r0, #0
 1421 02fe 98D0     		beq	.L50
 592:Drivers/lvgl/src/core/lv_obj.c ****                 lv_mem_buf_release(param);
 1422              		.loc 1 592 17 is_stmt 1 view .LVU495
 1423 0300 FFF7FEFF 		bl	lv_draw_mask_free_param
 1424              	.LVL138:
 593:Drivers/lvgl/src/core/lv_obj.c ****             }
 1425              		.loc 1 593 17 view .LVU496
 1426 0304 3046     		mov	r0, r6
 1427 0306 FFF7FEFF 		bl	lv_mem_buf_release
 1428              	.LVL139:
 1429 030a 92E7     		b	.L50
 1430              	.L61:
 1431              		.align	2
 1432              	.L60:
 1433 030c 00000000 		.word	.LANCHOR0
 1434              	.LBE158:
 1435              	.LBE146:
 1436              		.cfi_endproc
 1437              	.LFE224:
 1439              		.section	.text.lv_obj_constructor,"ax",%progbits
 1440              		.align	1
 1441              		.syntax unified
 1442              		.thumb
 1443              		.thumb_func
 1445              	lv_obj_constructor:
 1446              	.LVL140:
 1447              	.LFB222:
 420:Drivers/lvgl/src/core/lv_obj.c ****     LV_UNUSED(class_p);
 1448              		.loc 1 420 1 view -0
 1449              		.cfi_startproc
 1450              		@ args = 0, pretend = 0, frame = 0
 1451              		@ frame_needed = 0, uses_anonymous_args = 0
 420:Drivers/lvgl/src/core/lv_obj.c ****     LV_UNUSED(class_p);
 1452              		.loc 1 420 1 is_stmt 0 view .LVU498
 1453 0000 2DE9F041 		push	{r4, r5, r6, r7, r8, lr}
 1454              		.cfi_def_cfa_offset 24
 1455              		.cfi_offset 4, -24
 1456              		.cfi_offset 5, -20
 1457              		.cfi_offset 6, -16
 1458              		.cfi_offset 7, -12
 1459              		.cfi_offset 8, -8
 1460              		.cfi_offset 14, -4
 1461 0004 0C46     		mov	r4, r1
 421:Drivers/lvgl/src/core/lv_obj.c ****     LV_TRACE_OBJ_CREATE("begin");
 1462              		.loc 1 421 5 is_stmt 1 view .LVU499
 422:Drivers/lvgl/src/core/lv_obj.c **** 
 1463              		.loc 1 422 33 view .LVU500
 424:Drivers/lvgl/src/core/lv_obj.c ****     if(parent) {
 1464              		.loc 1 424 5 view .LVU501
 424:Drivers/lvgl/src/core/lv_obj.c ****     if(parent) {
 1465              		.loc 1 424 16 is_stmt 0 view .LVU502
 1466 0006 4D68     		ldr	r5, [r1, #4]
 1467              	.LVL141:
 425:Drivers/lvgl/src/core/lv_obj.c ****         lv_coord_t sl = lv_obj_get_scroll_left(parent);
ARM GAS  /var/folders/0z/tsy30v1j4xl4_7kw94k978ww0000gn/T//ccVt8IXl.s 			page 62


 1468              		.loc 1 425 5 is_stmt 1 view .LVU503
 425:Drivers/lvgl/src/core/lv_obj.c ****         lv_coord_t sl = lv_obj_get_scroll_left(parent);
 1469              		.loc 1 425 7 is_stmt 0 view .LVU504
 1470 0008 25B3     		cbz	r5, .L63
 1471              	.LBB159:
 426:Drivers/lvgl/src/core/lv_obj.c ****         lv_coord_t st = lv_obj_get_scroll_top(parent);
 1472              		.loc 1 426 9 is_stmt 1 view .LVU505
 426:Drivers/lvgl/src/core/lv_obj.c ****         lv_coord_t st = lv_obj_get_scroll_top(parent);
 1473              		.loc 1 426 25 is_stmt 0 view .LVU506
 1474 000a 2846     		mov	r0, r5
 1475              	.LVL142:
 426:Drivers/lvgl/src/core/lv_obj.c ****         lv_coord_t st = lv_obj_get_scroll_top(parent);
 1476              		.loc 1 426 25 view .LVU507
 1477 000c FFF7FEFF 		bl	lv_obj_get_scroll_left
 1478              	.LVL143:
 426:Drivers/lvgl/src/core/lv_obj.c ****         lv_coord_t st = lv_obj_get_scroll_top(parent);
 1479              		.loc 1 426 25 view .LVU508
 1480 0010 0646     		mov	r6, r0
 1481              	.LVL144:
 427:Drivers/lvgl/src/core/lv_obj.c **** 
 1482              		.loc 1 427 9 is_stmt 1 view .LVU509
 427:Drivers/lvgl/src/core/lv_obj.c **** 
 1483              		.loc 1 427 25 is_stmt 0 view .LVU510
 1484 0012 2846     		mov	r0, r5
 1485 0014 FFF7FEFF 		bl	lv_obj_get_scroll_top
 1486              	.LVL145:
 1487 0018 0746     		mov	r7, r0
 1488              	.LVL146:
 429:Drivers/lvgl/src/core/lv_obj.c ****         obj->coords.y2 = obj->coords.y1 - 1;
 1489              		.loc 1 429 9 is_stmt 1 view .LVU511
 429:Drivers/lvgl/src/core/lv_obj.c ****         obj->coords.y2 = obj->coords.y1 - 1;
 1490              		.loc 1 429 40 is_stmt 0 view .LVU512
 1491 001a B5F81680 		ldrh	r8, [r5, #22]
 1492              	.LVL147:
 1493              	.LBB160:
 1494              	.LBI160:
 103:Drivers/lvgl/src/core/lv_obj_style_gen.h **** {
 1495              		.loc 2 103 26 is_stmt 1 view .LVU513
 1496              	.LBB161:
 105:Drivers/lvgl/src/core/lv_obj_style_gen.h ****     return (lv_coord_t)v.num;
 1497              		.loc 2 105 5 view .LVU514
 105:Drivers/lvgl/src/core/lv_obj_style_gen.h ****     return (lv_coord_t)v.num;
 1498              		.loc 2 105 26 is_stmt 0 view .LVU515
 1499 001e 1022     		movs	r2, #16
 1500 0020 0021     		movs	r1, #0
 1501 0022 2846     		mov	r0, r5
 1502 0024 FFF7FEFF 		bl	lv_obj_get_style_prop
 1503              	.LVL148:
 106:Drivers/lvgl/src/core/lv_obj_style_gen.h **** }
 1504              		.loc 2 106 5 is_stmt 1 view .LVU516
 106:Drivers/lvgl/src/core/lv_obj_style_gen.h **** }
 1505              		.loc 2 106 5 is_stmt 0 view .LVU517
 1506              	.LBE161:
 1507              	.LBE160:
 429:Drivers/lvgl/src/core/lv_obj.c ****         obj->coords.y2 = obj->coords.y1 - 1;
 1508              		.loc 1 429 44 view .LVU518
 1509 0028 18FA80F3 		uxtah	r3, r8, r0
ARM GAS  /var/folders/0z/tsy30v1j4xl4_7kw94k978ww0000gn/T//ccVt8IXl.s 			page 63


 1510 002c 9BB2     		uxth	r3, r3
 429:Drivers/lvgl/src/core/lv_obj.c ****         obj->coords.y2 = obj->coords.y1 - 1;
 1511              		.loc 1 429 93 view .LVU519
 1512 002e DB1B     		subs	r3, r3, r7
 1513 0030 9AB2     		uxth	r2, r3
 429:Drivers/lvgl/src/core/lv_obj.c ****         obj->coords.y2 = obj->coords.y1 - 1;
 1514              		.loc 1 429 24 view .LVU520
 1515 0032 E382     		strh	r3, [r4, #22]	@ movhi
 430:Drivers/lvgl/src/core/lv_obj.c ****         obj->coords.x1  = parent->coords.x1 + lv_obj_get_style_pad_left(parent, LV_PART_MAIN) - sl;
 1516              		.loc 1 430 9 is_stmt 1 view .LVU521
 430:Drivers/lvgl/src/core/lv_obj.c ****         obj->coords.x1  = parent->coords.x1 + lv_obj_get_style_pad_left(parent, LV_PART_MAIN) - sl;
 1517              		.loc 1 430 41 is_stmt 0 view .LVU522
 1518 0034 531E     		subs	r3, r2, #1
 430:Drivers/lvgl/src/core/lv_obj.c ****         obj->coords.x1  = parent->coords.x1 + lv_obj_get_style_pad_left(parent, LV_PART_MAIN) - sl;
 1519              		.loc 1 430 24 view .LVU523
 1520 0036 6383     		strh	r3, [r4, #26]	@ movhi
 431:Drivers/lvgl/src/core/lv_obj.c ****         obj->coords.x2  = obj->coords.x1 - 1;
 1521              		.loc 1 431 9 is_stmt 1 view .LVU524
 431:Drivers/lvgl/src/core/lv_obj.c ****         obj->coords.x2  = obj->coords.x1 - 1;
 1522              		.loc 1 431 41 is_stmt 0 view .LVU525
 1523 0038 AF8A     		ldrh	r7, [r5, #20]
 1524              	.LVL149:
 1525              	.LBB162:
 1526              	.LBI162:
 115:Drivers/lvgl/src/core/lv_obj_style_gen.h **** {
 1527              		.loc 2 115 26 is_stmt 1 view .LVU526
 1528              	.LBB163:
 117:Drivers/lvgl/src/core/lv_obj_style_gen.h ****     return (lv_coord_t)v.num;
 1529              		.loc 2 117 5 view .LVU527
 117:Drivers/lvgl/src/core/lv_obj_style_gen.h ****     return (lv_coord_t)v.num;
 1530              		.loc 2 117 26 is_stmt 0 view .LVU528
 1531 003a 1222     		movs	r2, #18
 1532 003c 0021     		movs	r1, #0
 1533 003e 2846     		mov	r0, r5
 1534 0040 FFF7FEFF 		bl	lv_obj_get_style_prop
 1535              	.LVL150:
 118:Drivers/lvgl/src/core/lv_obj_style_gen.h **** }
 1536              		.loc 2 118 5 is_stmt 1 view .LVU529
 118:Drivers/lvgl/src/core/lv_obj_style_gen.h **** }
 1537              		.loc 2 118 5 is_stmt 0 view .LVU530
 1538              	.LBE163:
 1539              	.LBE162:
 431:Drivers/lvgl/src/core/lv_obj.c ****         obj->coords.x2  = obj->coords.x1 - 1;
 1540              		.loc 1 431 45 view .LVU531
 1541 0044 17FA80F3 		uxtah	r3, r7, r0
 1542 0048 9BB2     		uxth	r3, r3
 431:Drivers/lvgl/src/core/lv_obj.c ****         obj->coords.x2  = obj->coords.x1 - 1;
 1543              		.loc 1 431 95 view .LVU532
 1544 004a 981B     		subs	r0, r3, r6
 1545 004c 83B2     		uxth	r3, r0
 431:Drivers/lvgl/src/core/lv_obj.c ****         obj->coords.x2  = obj->coords.x1 - 1;
 1546              		.loc 1 431 25 view .LVU533
 1547 004e A082     		strh	r0, [r4, #20]	@ movhi
 432:Drivers/lvgl/src/core/lv_obj.c ****     }
 1548              		.loc 1 432 9 is_stmt 1 view .LVU534
 432:Drivers/lvgl/src/core/lv_obj.c ****     }
 1549              		.loc 1 432 42 is_stmt 0 view .LVU535
ARM GAS  /var/folders/0z/tsy30v1j4xl4_7kw94k978ww0000gn/T//ccVt8IXl.s 			page 64


 1550 0050 013B     		subs	r3, r3, #1
 432:Drivers/lvgl/src/core/lv_obj.c ****     }
 1551              		.loc 1 432 25 view .LVU536
 1552 0052 2383     		strh	r3, [r4, #24]	@ movhi
 1553              	.LVL151:
 1554              	.L63:
 432:Drivers/lvgl/src/core/lv_obj.c ****     }
 1555              		.loc 1 432 25 view .LVU537
 1556              	.LBE159:
 436:Drivers/lvgl/src/core/lv_obj.c ****     obj->flags |= LV_OBJ_FLAG_SNAPPABLE;
 1557              		.loc 1 436 5 is_stmt 1 view .LVU538
 436:Drivers/lvgl/src/core/lv_obj.c ****     obj->flags |= LV_OBJ_FLAG_SNAPPABLE;
 1558              		.loc 1 436 16 is_stmt 0 view .LVU539
 1559 0054 0223     		movs	r3, #2
 1560 0056 E361     		str	r3, [r4, #28]
 437:Drivers/lvgl/src/core/lv_obj.c ****     if(parent) obj->flags |= LV_OBJ_FLAG_PRESS_LOCK;
 1561              		.loc 1 437 5 is_stmt 1 view .LVU540
 437:Drivers/lvgl/src/core/lv_obj.c ****     if(parent) obj->flags |= LV_OBJ_FLAG_PRESS_LOCK;
 1562              		.loc 1 437 16 is_stmt 0 view .LVU541
 1563 0058 41F20203 		movw	r3, #4098
 1564 005c E361     		str	r3, [r4, #28]
 438:Drivers/lvgl/src/core/lv_obj.c ****     if(parent) obj->flags |= LV_OBJ_FLAG_SCROLL_CHAIN;
 1565              		.loc 1 438 5 is_stmt 1 view .LVU542
 438:Drivers/lvgl/src/core/lv_obj.c ****     if(parent) obj->flags |= LV_OBJ_FLAG_SCROLL_CHAIN;
 1566              		.loc 1 438 7 is_stmt 0 view .LVU543
 1567 005e 15B1     		cbz	r5, .L64
 438:Drivers/lvgl/src/core/lv_obj.c ****     if(parent) obj->flags |= LV_OBJ_FLAG_SCROLL_CHAIN;
 1568              		.loc 1 438 16 is_stmt 1 discriminator 1 view .LVU544
 438:Drivers/lvgl/src/core/lv_obj.c ****     if(parent) obj->flags |= LV_OBJ_FLAG_SCROLL_CHAIN;
 1569              		.loc 1 438 27 is_stmt 0 discriminator 1 view .LVU545
 1570 0060 43F20203 		movw	r3, #12290
 1571 0064 E361     		str	r3, [r4, #28]
 1572              	.L64:
 439:Drivers/lvgl/src/core/lv_obj.c ****     obj->flags |= LV_OBJ_FLAG_CLICK_FOCUSABLE;
 1573              		.loc 1 439 5 is_stmt 1 view .LVU546
 439:Drivers/lvgl/src/core/lv_obj.c ****     obj->flags |= LV_OBJ_FLAG_CLICK_FOCUSABLE;
 1574              		.loc 1 439 7 is_stmt 0 view .LVU547
 1575 0066 1DB1     		cbz	r5, .L65
 439:Drivers/lvgl/src/core/lv_obj.c ****     obj->flags |= LV_OBJ_FLAG_CLICK_FOCUSABLE;
 1576              		.loc 1 439 16 is_stmt 1 discriminator 1 view .LVU548
 439:Drivers/lvgl/src/core/lv_obj.c ****     obj->flags |= LV_OBJ_FLAG_CLICK_FOCUSABLE;
 1577              		.loc 1 439 27 is_stmt 0 discriminator 1 view .LVU549
 1578 0068 E369     		ldr	r3, [r4, #28]
 1579 006a 43F44073 		orr	r3, r3, #768
 1580 006e E361     		str	r3, [r4, #28]
 1581              	.L65:
 440:Drivers/lvgl/src/core/lv_obj.c ****     obj->flags |= LV_OBJ_FLAG_SCROLLABLE;
 1582              		.loc 1 440 5 is_stmt 1 view .LVU550
 440:Drivers/lvgl/src/core/lv_obj.c ****     obj->flags |= LV_OBJ_FLAG_SCROLLABLE;
 1583              		.loc 1 440 16 is_stmt 0 view .LVU551
 1584 0070 E369     		ldr	r3, [r4, #28]
 1585 0072 43F00402 		orr	r2, r3, #4
 1586 0076 E261     		str	r2, [r4, #28]
 441:Drivers/lvgl/src/core/lv_obj.c ****     obj->flags |= LV_OBJ_FLAG_SCROLL_ELASTIC;
 1587              		.loc 1 441 5 is_stmt 1 view .LVU552
 441:Drivers/lvgl/src/core/lv_obj.c ****     obj->flags |= LV_OBJ_FLAG_SCROLL_ELASTIC;
 1588              		.loc 1 441 16 is_stmt 0 view .LVU553
ARM GAS  /var/folders/0z/tsy30v1j4xl4_7kw94k978ww0000gn/T//ccVt8IXl.s 			page 65


 1589 0078 43F01402 		orr	r2, r3, #20
 1590 007c E261     		str	r2, [r4, #28]
 442:Drivers/lvgl/src/core/lv_obj.c ****     obj->flags |= LV_OBJ_FLAG_SCROLL_MOMENTUM;
 1591              		.loc 1 442 5 is_stmt 1 view .LVU554
 442:Drivers/lvgl/src/core/lv_obj.c ****     obj->flags |= LV_OBJ_FLAG_SCROLL_MOMENTUM;
 1592              		.loc 1 442 16 is_stmt 0 view .LVU555
 1593 007e 43F03402 		orr	r2, r3, #52
 1594 0082 E261     		str	r2, [r4, #28]
 443:Drivers/lvgl/src/core/lv_obj.c ****     obj->flags |= LV_OBJ_FLAG_SCROLL_WITH_ARROW;
 1595              		.loc 1 443 5 is_stmt 1 view .LVU556
 443:Drivers/lvgl/src/core/lv_obj.c ****     obj->flags |= LV_OBJ_FLAG_SCROLL_WITH_ARROW;
 1596              		.loc 1 443 16 is_stmt 0 view .LVU557
 1597 0084 43F07403 		orr	r3, r3, #116
 1598 0088 E361     		str	r3, [r4, #28]
 444:Drivers/lvgl/src/core/lv_obj.c ****     if(parent) obj->flags |= LV_OBJ_FLAG_GESTURE_BUBBLE;
 1599              		.loc 1 444 5 is_stmt 1 view .LVU558
 444:Drivers/lvgl/src/core/lv_obj.c ****     if(parent) obj->flags |= LV_OBJ_FLAG_GESTURE_BUBBLE;
 1600              		.loc 1 444 16 is_stmt 0 view .LVU559
 1601 008a 43F40063 		orr	r3, r3, #2048
 1602 008e E361     		str	r3, [r4, #28]
 445:Drivers/lvgl/src/core/lv_obj.c **** 
 1603              		.loc 1 445 5 is_stmt 1 view .LVU560
 445:Drivers/lvgl/src/core/lv_obj.c **** 
 1604              		.loc 1 445 7 is_stmt 0 view .LVU561
 1605 0090 15B1     		cbz	r5, .L62
 445:Drivers/lvgl/src/core/lv_obj.c **** 
 1606              		.loc 1 445 16 is_stmt 1 discriminator 1 view .LVU562
 445:Drivers/lvgl/src/core/lv_obj.c **** 
 1607              		.loc 1 445 27 is_stmt 0 discriminator 1 view .LVU563
 1608 0092 43F40043 		orr	r3, r3, #32768
 1609 0096 E361     		str	r3, [r4, #28]
 447:Drivers/lvgl/src/core/lv_obj.c **** }
 1610              		.loc 1 447 36 is_stmt 1 discriminator 1 view .LVU564
 1611              	.L62:
 448:Drivers/lvgl/src/core/lv_obj.c **** 
 1612              		.loc 1 448 1 is_stmt 0 view .LVU565
 1613 0098 BDE8F081 		pop	{r4, r5, r6, r7, r8, pc}
 448:Drivers/lvgl/src/core/lv_obj.c **** 
 1614              		.loc 1 448 1 view .LVU566
 1615              		.cfi_endproc
 1616              	.LFE222:
 1618              		.section	.text.lv_obj_set_state,"ax",%progbits
 1619              		.align	1
 1620              		.syntax unified
 1621              		.thumb
 1622              		.thumb_func
 1624              	lv_obj_set_state:
 1625              	.LVL152:
 1626              	.LFB228:
 885:Drivers/lvgl/src/core/lv_obj.c ****     if(obj->state == new_state) return;
 1627              		.loc 1 885 1 is_stmt 1 view -0
 1628              		.cfi_startproc
 1629              		@ args = 0, pretend = 0, frame = 40
 1630              		@ frame_needed = 0, uses_anonymous_args = 0
 885:Drivers/lvgl/src/core/lv_obj.c ****     if(obj->state == new_state) return;
 1631              		.loc 1 885 1 is_stmt 0 view .LVU568
 1632 0000 2DE9F04F 		push	{r4, r5, r6, r7, r8, r9, r10, fp, lr}
ARM GAS  /var/folders/0z/tsy30v1j4xl4_7kw94k978ww0000gn/T//ccVt8IXl.s 			page 66


 1633              		.cfi_def_cfa_offset 36
 1634              		.cfi_offset 4, -36
 1635              		.cfi_offset 5, -32
 1636              		.cfi_offset 6, -28
 1637              		.cfi_offset 7, -24
 1638              		.cfi_offset 8, -20
 1639              		.cfi_offset 9, -16
 1640              		.cfi_offset 10, -12
 1641              		.cfi_offset 11, -8
 1642              		.cfi_offset 14, -4
 1643 0004 8DB0     		sub	sp, sp, #52
 1644              		.cfi_def_cfa_offset 88
 1645 0006 0691     		str	r1, [sp, #24]
 886:Drivers/lvgl/src/core/lv_obj.c **** 
 1646              		.loc 1 886 5 is_stmt 1 view .LVU569
 886:Drivers/lvgl/src/core/lv_obj.c **** 
 1647              		.loc 1 886 11 is_stmt 0 view .LVU570
 1648 0008 038C     		ldrh	r3, [r0, #32]
 1649 000a 0993     		str	r3, [sp, #36]
 886:Drivers/lvgl/src/core/lv_obj.c **** 
 1650              		.loc 1 886 7 view .LVU571
 1651 000c 8B42     		cmp	r3, r1
 1652 000e 07D0     		beq	.L68
 1653 0010 8246     		mov	r10, r0
 1654 0012 0A46     		mov	r2, r1
 888:Drivers/lvgl/src/core/lv_obj.c **** 
 1655              		.loc 1 888 5 is_stmt 1 view .LVU572
 888:Drivers/lvgl/src/core/lv_obj.c **** 
 1656              		.loc 1 888 5 view .LVU573
 888:Drivers/lvgl/src/core/lv_obj.c **** 
 1657              		.loc 1 888 5 view .LVU574
 890:Drivers/lvgl/src/core/lv_obj.c ****     obj->state = new_state;
 1658              		.loc 1 890 5 view .LVU575
 1659              	.LVL153:
 891:Drivers/lvgl/src/core/lv_obj.c **** 
 1660              		.loc 1 891 5 view .LVU576
 891:Drivers/lvgl/src/core/lv_obj.c **** 
 1661              		.loc 1 891 16 is_stmt 0 view .LVU577
 1662 0014 0184     		strh	r1, [r0, #32]	@ movhi
 893:Drivers/lvgl/src/core/lv_obj.c ****     /*If there is no difference in styles there is nothing else to do*/
 1663              		.loc 1 893 5 is_stmt 1 view .LVU578
 893:Drivers/lvgl/src/core/lv_obj.c ****     /*If there is no difference in styles there is nothing else to do*/
 1664              		.loc 1 893 37 is_stmt 0 view .LVU579
 1665 0016 1946     		mov	r1, r3
 1666              	.LVL154:
 893:Drivers/lvgl/src/core/lv_obj.c ****     /*If there is no difference in styles there is nothing else to do*/
 1667              		.loc 1 893 37 view .LVU580
 1668 0018 FFF7FEFF 		bl	_lv_obj_style_state_compare
 1669              	.LVL155:
 895:Drivers/lvgl/src/core/lv_obj.c **** 
 1670              		.loc 1 895 5 is_stmt 1 view .LVU581
 895:Drivers/lvgl/src/core/lv_obj.c **** 
 1671              		.loc 1 895 7 is_stmt 0 view .LVU582
 1672 001c 0890     		str	r0, [sp, #32]
 1673 001e 10B9     		cbnz	r0, .L111
 1674              	.LVL156:
 1675              	.L68:
ARM GAS  /var/folders/0z/tsy30v1j4xl4_7kw94k978ww0000gn/T//ccVt8IXl.s 			page 67


 955:Drivers/lvgl/src/core/lv_obj.c **** 
 1676              		.loc 1 955 1 view .LVU583
 1677 0020 0DB0     		add	sp, sp, #52
 1678              		.cfi_remember_state
 1679              		.cfi_def_cfa_offset 36
 1680              		@ sp needed
 1681 0022 BDE8F08F 		pop	{r4, r5, r6, r7, r8, r9, r10, fp, pc}
 1682              	.LVL157:
 1683              	.L111:
 1684              		.cfi_restore_state
 897:Drivers/lvgl/src/core/lv_obj.c ****     lv_memset_00(ts, sizeof(_lv_obj_style_transition_dsc_t) * STYLE_TRANSITION_MAX);
 1685              		.loc 1 897 5 is_stmt 1 view .LVU584
 897:Drivers/lvgl/src/core/lv_obj.c ****     lv_memset_00(ts, sizeof(_lv_obj_style_transition_dsc_t) * STYLE_TRANSITION_MAX);
 1686              		.loc 1 897 43 is_stmt 0 view .LVU585
 1687 0026 4FF42070 		mov	r0, #640
 1688              	.LVL158:
 897:Drivers/lvgl/src/core/lv_obj.c ****     lv_memset_00(ts, sizeof(_lv_obj_style_transition_dsc_t) * STYLE_TRANSITION_MAX);
 1689              		.loc 1 897 43 view .LVU586
 1690 002a FFF7FEFF 		bl	lv_mem_buf_get
 1691              	.LVL159:
 1692 002e 8346     		mov	fp, r0
 1693              	.LVL160:
 898:Drivers/lvgl/src/core/lv_obj.c ****     uint32_t tsi = 0;
 1694              		.loc 1 898 5 is_stmt 1 view .LVU587
 1695 0030 4FF42071 		mov	r1, #640
 1696 0034 FFF7FEFF 		bl	lv_memset_00
 1697              	.LVL161:
 899:Drivers/lvgl/src/core/lv_obj.c ****     uint32_t i;
 1698              		.loc 1 899 5 view .LVU588
 900:Drivers/lvgl/src/core/lv_obj.c ****     for(i = 0; i < obj->style_cnt && tsi < STYLE_TRANSITION_MAX; i++) {
 1699              		.loc 1 900 5 view .LVU589
 901:Drivers/lvgl/src/core/lv_obj.c ****         _lv_obj_style_t * obj_style = &obj->styles[i];
 1700              		.loc 1 901 5 view .LVU590
 901:Drivers/lvgl/src/core/lv_obj.c ****         _lv_obj_style_t * obj_style = &obj->styles[i];
 1701              		.loc 1 901 11 is_stmt 0 view .LVU591
 1702 0038 0023     		movs	r3, #0
 1703 003a 1E46     		mov	r6, r3
 899:Drivers/lvgl/src/core/lv_obj.c ****     uint32_t i;
 1704              		.loc 1 899 14 view .LVU592
 1705 003c 9946     		mov	r9, r3
 1706 003e CDF80CA0 		str	r10, [sp, #12]
 901:Drivers/lvgl/src/core/lv_obj.c ****         _lv_obj_style_t * obj_style = &obj->styles[i];
 1707              		.loc 1 901 5 view .LVU593
 1708 0042 43E0     		b	.L70
 1709              	.LVL162:
 1710              	.L113:
 1711              	.LBB175:
 1712              	.LBB176:
 1713              	.LBB177:
 1714              	.LBB178:
 1715              	.LBB179:
 1716              		.file 4 "Drivers/lvgl/src/core/../misc/lv_style.h"
   1:Drivers/lvgl/src/core/../misc/lv_style.h **** /**
   2:Drivers/lvgl/src/core/../misc/lv_style.h ****  * @file lv_style.h
   3:Drivers/lvgl/src/core/../misc/lv_style.h ****  *
   4:Drivers/lvgl/src/core/../misc/lv_style.h ****  */
   5:Drivers/lvgl/src/core/../misc/lv_style.h **** 
ARM GAS  /var/folders/0z/tsy30v1j4xl4_7kw94k978ww0000gn/T//ccVt8IXl.s 			page 68


   6:Drivers/lvgl/src/core/../misc/lv_style.h **** #ifndef LV_STYLE_H
   7:Drivers/lvgl/src/core/../misc/lv_style.h **** #define LV_STYLE_H
   8:Drivers/lvgl/src/core/../misc/lv_style.h **** 
   9:Drivers/lvgl/src/core/../misc/lv_style.h **** #ifdef __cplusplus
  10:Drivers/lvgl/src/core/../misc/lv_style.h **** extern "C" {
  11:Drivers/lvgl/src/core/../misc/lv_style.h **** #endif
  12:Drivers/lvgl/src/core/../misc/lv_style.h **** 
  13:Drivers/lvgl/src/core/../misc/lv_style.h **** /*********************
  14:Drivers/lvgl/src/core/../misc/lv_style.h ****  *      INCLUDES
  15:Drivers/lvgl/src/core/../misc/lv_style.h ****  *********************/
  16:Drivers/lvgl/src/core/../misc/lv_style.h **** #include <stdbool.h>
  17:Drivers/lvgl/src/core/../misc/lv_style.h **** #include <stdint.h>
  18:Drivers/lvgl/src/core/../misc/lv_style.h **** #include "../font/lv_font.h"
  19:Drivers/lvgl/src/core/../misc/lv_style.h **** #include "lv_color.h"
  20:Drivers/lvgl/src/core/../misc/lv_style.h **** #include "lv_area.h"
  21:Drivers/lvgl/src/core/../misc/lv_style.h **** #include "lv_anim.h"
  22:Drivers/lvgl/src/core/../misc/lv_style.h **** #include "lv_txt.h"
  23:Drivers/lvgl/src/core/../misc/lv_style.h **** #include "lv_types.h"
  24:Drivers/lvgl/src/core/../misc/lv_style.h **** #include "lv_assert.h"
  25:Drivers/lvgl/src/core/../misc/lv_style.h **** #include "lv_bidi.h"
  26:Drivers/lvgl/src/core/../misc/lv_style.h **** 
  27:Drivers/lvgl/src/core/../misc/lv_style.h **** /*********************
  28:Drivers/lvgl/src/core/../misc/lv_style.h ****  *      DEFINES
  29:Drivers/lvgl/src/core/../misc/lv_style.h ****  *********************/
  30:Drivers/lvgl/src/core/../misc/lv_style.h **** 
  31:Drivers/lvgl/src/core/../misc/lv_style.h **** #define LV_STYLE_SENTINEL_VALUE     0xAABBCCDD
  32:Drivers/lvgl/src/core/../misc/lv_style.h **** 
  33:Drivers/lvgl/src/core/../misc/lv_style.h **** /**
  34:Drivers/lvgl/src/core/../misc/lv_style.h ****  * Flags for style behavior
  35:Drivers/lvgl/src/core/../misc/lv_style.h ****  *
  36:Drivers/lvgl/src/core/../misc/lv_style.h ****  * The rest of the flags will have _FLAG added to their name in v9.
  37:Drivers/lvgl/src/core/../misc/lv_style.h ****  */
  38:Drivers/lvgl/src/core/../misc/lv_style.h **** #define LV_STYLE_PROP_FLAG_NONE             (0)
  39:Drivers/lvgl/src/core/../misc/lv_style.h **** #define LV_STYLE_PROP_INHERIT               (1 << 0)  /*Inherited*/
  40:Drivers/lvgl/src/core/../misc/lv_style.h **** #define LV_STYLE_PROP_EXT_DRAW              (1 << 1)  /*Requires ext. draw size update when changed
  41:Drivers/lvgl/src/core/../misc/lv_style.h **** #define LV_STYLE_PROP_LAYOUT_REFR           (1 << 2)  /*Requires layout update when changed*/
  42:Drivers/lvgl/src/core/../misc/lv_style.h **** #define LV_STYLE_PROP_PARENT_LAYOUT_REFR    (1 << 3)  /*Requires layout update on parent when chang
  43:Drivers/lvgl/src/core/../misc/lv_style.h **** #define LV_STYLE_PROP_LAYER_REFR            (1 << 4)  /*Affects layer handling*/
  44:Drivers/lvgl/src/core/../misc/lv_style.h **** #define LV_STYLE_PROP_ALL                   (0x1F)     /*Indicating all flags*/
  45:Drivers/lvgl/src/core/../misc/lv_style.h **** 
  46:Drivers/lvgl/src/core/../misc/lv_style.h **** /**
  47:Drivers/lvgl/src/core/../misc/lv_style.h ****  * Other constants
  48:Drivers/lvgl/src/core/../misc/lv_style.h ****  */
  49:Drivers/lvgl/src/core/../misc/lv_style.h **** #define LV_IMG_ZOOM_NONE            256        /*Value for not zooming the image*/
  50:Drivers/lvgl/src/core/../misc/lv_style.h **** LV_EXPORT_CONST_INT(LV_IMG_ZOOM_NONE);
  51:Drivers/lvgl/src/core/../misc/lv_style.h **** 
  52:Drivers/lvgl/src/core/../misc/lv_style.h **** // *INDENT-OFF*
  53:Drivers/lvgl/src/core/../misc/lv_style.h **** #if LV_USE_ASSERT_STYLE
  54:Drivers/lvgl/src/core/../misc/lv_style.h **** #define LV_STYLE_CONST_INIT(var_name, prop_array)                       \
  55:Drivers/lvgl/src/core/../misc/lv_style.h ****     const lv_style_t var_name = {                                       \
  56:Drivers/lvgl/src/core/../misc/lv_style.h ****         .sentinel = LV_STYLE_SENTINEL_VALUE,                            \
  57:Drivers/lvgl/src/core/../misc/lv_style.h ****         .v_p = { .const_props = prop_array },                           \
  58:Drivers/lvgl/src/core/../misc/lv_style.h ****         .has_group = 0xFF,                                              \
  59:Drivers/lvgl/src/core/../misc/lv_style.h ****         .prop1 = LV_STYLE_PROP_ANY,                                     \
  60:Drivers/lvgl/src/core/../misc/lv_style.h ****         .prop_cnt = (sizeof(prop_array) / sizeof((prop_array)[0])),     \
  61:Drivers/lvgl/src/core/../misc/lv_style.h ****     }
  62:Drivers/lvgl/src/core/../misc/lv_style.h **** #else
ARM GAS  /var/folders/0z/tsy30v1j4xl4_7kw94k978ww0000gn/T//ccVt8IXl.s 			page 69


  63:Drivers/lvgl/src/core/../misc/lv_style.h **** #define LV_STYLE_CONST_INIT(var_name, prop_array)                       \
  64:Drivers/lvgl/src/core/../misc/lv_style.h ****     const lv_style_t var_name = {                                       \
  65:Drivers/lvgl/src/core/../misc/lv_style.h ****         .v_p = { .const_props = prop_array },                           \
  66:Drivers/lvgl/src/core/../misc/lv_style.h ****         .has_group = 0xFF,                                              \
  67:Drivers/lvgl/src/core/../misc/lv_style.h ****         .prop1 = LV_STYLE_PROP_ANY,                                     \
  68:Drivers/lvgl/src/core/../misc/lv_style.h ****         .prop_cnt = (sizeof(prop_array) / sizeof((prop_array)[0])),     \
  69:Drivers/lvgl/src/core/../misc/lv_style.h ****     }
  70:Drivers/lvgl/src/core/../misc/lv_style.h **** #endif
  71:Drivers/lvgl/src/core/../misc/lv_style.h **** // *INDENT-ON*
  72:Drivers/lvgl/src/core/../misc/lv_style.h **** 
  73:Drivers/lvgl/src/core/../misc/lv_style.h **** #define LV_STYLE_PROP_META_INHERIT 0x8000
  74:Drivers/lvgl/src/core/../misc/lv_style.h **** #define LV_STYLE_PROP_META_INITIAL 0x4000
  75:Drivers/lvgl/src/core/../misc/lv_style.h **** #define LV_STYLE_PROP_META_MASK (LV_STYLE_PROP_META_INHERIT | LV_STYLE_PROP_META_INITIAL)
  76:Drivers/lvgl/src/core/../misc/lv_style.h **** 
  77:Drivers/lvgl/src/core/../misc/lv_style.h **** #define LV_STYLE_PROP_ID_MASK(prop) ((lv_style_prop_t)((prop) & ~LV_STYLE_PROP_META_MASK))
  78:Drivers/lvgl/src/core/../misc/lv_style.h **** 
  79:Drivers/lvgl/src/core/../misc/lv_style.h **** /**********************
  80:Drivers/lvgl/src/core/../misc/lv_style.h ****  *      TYPEDEFS
  81:Drivers/lvgl/src/core/../misc/lv_style.h ****  **********************/
  82:Drivers/lvgl/src/core/../misc/lv_style.h **** 
  83:Drivers/lvgl/src/core/../misc/lv_style.h **** /**
  84:Drivers/lvgl/src/core/../misc/lv_style.h ****  * Possible options how to blend opaque drawings
  85:Drivers/lvgl/src/core/../misc/lv_style.h ****  */
  86:Drivers/lvgl/src/core/../misc/lv_style.h **** enum {
  87:Drivers/lvgl/src/core/../misc/lv_style.h ****     LV_BLEND_MODE_NORMAL,     /**< Simply mix according to the opacity value*/
  88:Drivers/lvgl/src/core/../misc/lv_style.h ****     LV_BLEND_MODE_ADDITIVE,   /**< Add the respective color channels*/
  89:Drivers/lvgl/src/core/../misc/lv_style.h ****     LV_BLEND_MODE_SUBTRACTIVE,/**< Subtract the foreground from the background*/
  90:Drivers/lvgl/src/core/../misc/lv_style.h ****     LV_BLEND_MODE_MULTIPLY,   /**< Multiply the foreground and background*/
  91:Drivers/lvgl/src/core/../misc/lv_style.h ****     LV_BLEND_MODE_REPLACE,    /**< Replace background with foreground in the area*/
  92:Drivers/lvgl/src/core/../misc/lv_style.h **** };
  93:Drivers/lvgl/src/core/../misc/lv_style.h **** 
  94:Drivers/lvgl/src/core/../misc/lv_style.h **** typedef uint8_t lv_blend_mode_t;
  95:Drivers/lvgl/src/core/../misc/lv_style.h **** 
  96:Drivers/lvgl/src/core/../misc/lv_style.h **** /**
