ARM GAS  /var/folders/0z/tsy30v1j4xl4_7kw94k978ww0000gn/T//ccVt8IXl.s 			page 1


   1              		.cpu cortex-m4
   2              		.arch armv7e-m
   3              		.fpu fpv4-sp-d16
   4              		.eabi_attribute 27, 1
   5              		.eabi_attribute 28, 1
   6              		.eabi_attribute 20, 1
   7              		.eabi_attribute 21, 1
   8              		.eabi_attribute 23, 3
   9              		.eabi_attribute 24, 1
  10              		.eabi_attribute 25, 1
  11              		.eabi_attribute 26, 1
  12              		.eabi_attribute 30, 1
  13              		.eabi_attribute 34, 1
  14              		.eabi_attribute 18, 4
  15              		.file	"lv_obj.c"
  16              		.text
  17              	.Ltext0:
  18              		.cfi_sections	.debug_frame
  19              		.section	.text.obj_valid_child,"ax",%progbits
  20              		.align	1
  21              		.syntax unified
  22              		.thumb
  23              		.thumb_func
  25              	obj_valid_child:
  26              	.LVL0:
  27              	.LFB229:
  28              		.file 1 "Drivers/lvgl/src/core/lv_obj.c"
   1:Drivers/lvgl/src/core/lv_obj.c **** /**
   2:Drivers/lvgl/src/core/lv_obj.c ****  * @file lv_obj.c
   3:Drivers/lvgl/src/core/lv_obj.c ****  *
   4:Drivers/lvgl/src/core/lv_obj.c ****  */
   5:Drivers/lvgl/src/core/lv_obj.c **** 
   6:Drivers/lvgl/src/core/lv_obj.c **** /*********************
   7:Drivers/lvgl/src/core/lv_obj.c ****  *      INCLUDES
   8:Drivers/lvgl/src/core/lv_obj.c ****  *********************/
   9:Drivers/lvgl/src/core/lv_obj.c **** #include "lv_obj.h"
  10:Drivers/lvgl/src/core/lv_obj.c **** #include "lv_indev.h"
  11:Drivers/lvgl/src/core/lv_obj.c **** #include "lv_refr.h"
  12:Drivers/lvgl/src/core/lv_obj.c **** #include "lv_group.h"
  13:Drivers/lvgl/src/core/lv_obj.c **** #include "lv_disp.h"
  14:Drivers/lvgl/src/core/lv_obj.c **** #include "lv_theme.h"
  15:Drivers/lvgl/src/core/lv_obj.c **** #include "../misc/lv_assert.h"
  16:Drivers/lvgl/src/core/lv_obj.c **** #include "../draw/lv_draw.h"
  17:Drivers/lvgl/src/core/lv_obj.c **** #include "../misc/lv_anim.h"
  18:Drivers/lvgl/src/core/lv_obj.c **** #include "../misc/lv_timer.h"
  19:Drivers/lvgl/src/core/lv_obj.c **** #include "../misc/lv_async.h"
  20:Drivers/lvgl/src/core/lv_obj.c **** #include "../misc/lv_fs.h"
  21:Drivers/lvgl/src/core/lv_obj.c **** #include "../misc/lv_gc.h"
  22:Drivers/lvgl/src/core/lv_obj.c **** #include "../misc/lv_math.h"
  23:Drivers/lvgl/src/core/lv_obj.c **** #include "../misc/lv_log.h"
  24:Drivers/lvgl/src/core/lv_obj.c **** #include "../hal/lv_hal.h"
  25:Drivers/lvgl/src/core/lv_obj.c **** #include "../extra/lv_extra.h"
  26:Drivers/lvgl/src/core/lv_obj.c **** #include <stdint.h>
  27:Drivers/lvgl/src/core/lv_obj.c **** #include <string.h>
  28:Drivers/lvgl/src/core/lv_obj.c **** 
  29:Drivers/lvgl/src/core/lv_obj.c **** #if LV_USE_GPU_STM32_DMA2D
  30:Drivers/lvgl/src/core/lv_obj.c ****     #include "../draw/stm32_dma2d/lv_gpu_stm32_dma2d.h"
ARM GAS  /var/folders/0z/tsy30v1j4xl4_7kw94k978ww0000gn/T//ccVt8IXl.s 			page 2


  31:Drivers/lvgl/src/core/lv_obj.c **** #endif
  32:Drivers/lvgl/src/core/lv_obj.c **** 
  33:Drivers/lvgl/src/core/lv_obj.c **** #if LV_USE_GPU_RA6M3_G2D
  34:Drivers/lvgl/src/core/lv_obj.c ****     #include "../draw/renesas/lv_gpu_d2_ra6m3.h"
  35:Drivers/lvgl/src/core/lv_obj.c **** #endif
  36:Drivers/lvgl/src/core/lv_obj.c **** 
  37:Drivers/lvgl/src/core/lv_obj.c **** #if LV_USE_GPU_SWM341_DMA2D
  38:Drivers/lvgl/src/core/lv_obj.c ****     #include "../draw/swm341_dma2d/lv_gpu_swm341_dma2d.h"
  39:Drivers/lvgl/src/core/lv_obj.c **** #endif
  40:Drivers/lvgl/src/core/lv_obj.c **** 
  41:Drivers/lvgl/src/core/lv_obj.c **** #if LV_USE_GPU_NXP_PXP && LV_USE_GPU_NXP_PXP_AUTO_INIT
  42:Drivers/lvgl/src/core/lv_obj.c ****     #include "../draw/nxp/pxp/lv_gpu_nxp_pxp.h"
  43:Drivers/lvgl/src/core/lv_obj.c **** #endif
  44:Drivers/lvgl/src/core/lv_obj.c **** 
  45:Drivers/lvgl/src/core/lv_obj.c **** /*********************
  46:Drivers/lvgl/src/core/lv_obj.c ****  *      DEFINES
  47:Drivers/lvgl/src/core/lv_obj.c ****  *********************/
  48:Drivers/lvgl/src/core/lv_obj.c **** #define MY_CLASS &lv_obj_class
  49:Drivers/lvgl/src/core/lv_obj.c **** #define LV_OBJ_DEF_WIDTH    (LV_DPX(100))
  50:Drivers/lvgl/src/core/lv_obj.c **** #define LV_OBJ_DEF_HEIGHT   (LV_DPX(50))
  51:Drivers/lvgl/src/core/lv_obj.c **** #define STYLE_TRANSITION_MAX 32
  52:Drivers/lvgl/src/core/lv_obj.c **** 
  53:Drivers/lvgl/src/core/lv_obj.c **** /**********************
  54:Drivers/lvgl/src/core/lv_obj.c ****  *      TYPEDEFS
  55:Drivers/lvgl/src/core/lv_obj.c ****  **********************/
  56:Drivers/lvgl/src/core/lv_obj.c **** 
  57:Drivers/lvgl/src/core/lv_obj.c **** /**********************
  58:Drivers/lvgl/src/core/lv_obj.c ****  *  STATIC PROTOTYPES
  59:Drivers/lvgl/src/core/lv_obj.c ****  **********************/
  60:Drivers/lvgl/src/core/lv_obj.c **** static void lv_obj_constructor(const lv_obj_class_t * class_p, lv_obj_t * obj);
  61:Drivers/lvgl/src/core/lv_obj.c **** static void lv_obj_destructor(const lv_obj_class_t * class_p, lv_obj_t * obj);
  62:Drivers/lvgl/src/core/lv_obj.c **** static void lv_obj_draw(lv_event_t * e);
  63:Drivers/lvgl/src/core/lv_obj.c **** static void lv_obj_event(const lv_obj_class_t * class_p, lv_event_t * e);
  64:Drivers/lvgl/src/core/lv_obj.c **** static void draw_scrollbar(lv_obj_t * obj, lv_draw_ctx_t * draw_ctx);
  65:Drivers/lvgl/src/core/lv_obj.c **** static lv_res_t scrollbar_init_draw_dsc(lv_obj_t * obj, lv_draw_rect_dsc_t * dsc);
  66:Drivers/lvgl/src/core/lv_obj.c **** static bool obj_valid_child(const lv_obj_t * parent, const lv_obj_t * obj_to_find);
  67:Drivers/lvgl/src/core/lv_obj.c **** static void lv_obj_set_state(lv_obj_t * obj, lv_state_t new_state);
  68:Drivers/lvgl/src/core/lv_obj.c **** 
  69:Drivers/lvgl/src/core/lv_obj.c **** /**********************
  70:Drivers/lvgl/src/core/lv_obj.c ****  *  STATIC VARIABLES
  71:Drivers/lvgl/src/core/lv_obj.c ****  **********************/
  72:Drivers/lvgl/src/core/lv_obj.c **** static bool lv_initialized = false;
  73:Drivers/lvgl/src/core/lv_obj.c **** const lv_obj_class_t lv_obj_class = {
  74:Drivers/lvgl/src/core/lv_obj.c ****     .constructor_cb = lv_obj_constructor,
  75:Drivers/lvgl/src/core/lv_obj.c ****     .destructor_cb = lv_obj_destructor,
  76:Drivers/lvgl/src/core/lv_obj.c ****     .event_cb = lv_obj_event,
  77:Drivers/lvgl/src/core/lv_obj.c ****     .width_def = LV_DPI_DEF,
  78:Drivers/lvgl/src/core/lv_obj.c ****     .height_def = LV_DPI_DEF,
  79:Drivers/lvgl/src/core/lv_obj.c ****     .editable = LV_OBJ_CLASS_EDITABLE_FALSE,
  80:Drivers/lvgl/src/core/lv_obj.c ****     .group_def = LV_OBJ_CLASS_GROUP_DEF_FALSE,
  81:Drivers/lvgl/src/core/lv_obj.c ****     .instance_size = (sizeof(lv_obj_t)),
  82:Drivers/lvgl/src/core/lv_obj.c ****     .base_class = NULL,
  83:Drivers/lvgl/src/core/lv_obj.c **** };
  84:Drivers/lvgl/src/core/lv_obj.c **** 
  85:Drivers/lvgl/src/core/lv_obj.c **** /**********************
  86:Drivers/lvgl/src/core/lv_obj.c ****  *      MACROS
  87:Drivers/lvgl/src/core/lv_obj.c ****  **********************/
ARM GAS  /var/folders/0z/tsy30v1j4xl4_7kw94k978ww0000gn/T//ccVt8IXl.s 			page 3


  88:Drivers/lvgl/src/core/lv_obj.c **** 
  89:Drivers/lvgl/src/core/lv_obj.c **** /**********************
  90:Drivers/lvgl/src/core/lv_obj.c ****  *   GLOBAL FUNCTIONS
  91:Drivers/lvgl/src/core/lv_obj.c ****  **********************/
  92:Drivers/lvgl/src/core/lv_obj.c **** 
  93:Drivers/lvgl/src/core/lv_obj.c **** bool lv_is_initialized(void)
  94:Drivers/lvgl/src/core/lv_obj.c **** {
  95:Drivers/lvgl/src/core/lv_obj.c ****     return lv_initialized;
  96:Drivers/lvgl/src/core/lv_obj.c **** }
  97:Drivers/lvgl/src/core/lv_obj.c **** 
  98:Drivers/lvgl/src/core/lv_obj.c **** void lv_init(void)
  99:Drivers/lvgl/src/core/lv_obj.c **** {
 100:Drivers/lvgl/src/core/lv_obj.c ****     /*Do nothing if already initialized*/
 101:Drivers/lvgl/src/core/lv_obj.c ****     if(lv_initialized) {
 102:Drivers/lvgl/src/core/lv_obj.c ****         LV_LOG_WARN("lv_init: already inited");
 103:Drivers/lvgl/src/core/lv_obj.c ****         return;
 104:Drivers/lvgl/src/core/lv_obj.c ****     }
 105:Drivers/lvgl/src/core/lv_obj.c **** 
 106:Drivers/lvgl/src/core/lv_obj.c ****     LV_LOG_INFO("begin");
 107:Drivers/lvgl/src/core/lv_obj.c **** 
 108:Drivers/lvgl/src/core/lv_obj.c ****     /*Initialize the misc modules*/
 109:Drivers/lvgl/src/core/lv_obj.c ****     lv_mem_init();
 110:Drivers/lvgl/src/core/lv_obj.c **** 
 111:Drivers/lvgl/src/core/lv_obj.c ****     _lv_timer_core_init();
 112:Drivers/lvgl/src/core/lv_obj.c **** 
 113:Drivers/lvgl/src/core/lv_obj.c ****     _lv_fs_init();
 114:Drivers/lvgl/src/core/lv_obj.c **** 
 115:Drivers/lvgl/src/core/lv_obj.c ****     _lv_anim_core_init();
 116:Drivers/lvgl/src/core/lv_obj.c **** 
 117:Drivers/lvgl/src/core/lv_obj.c ****     _lv_group_init();
 118:Drivers/lvgl/src/core/lv_obj.c **** 
 119:Drivers/lvgl/src/core/lv_obj.c ****     lv_draw_init();
 120:Drivers/lvgl/src/core/lv_obj.c **** 
 121:Drivers/lvgl/src/core/lv_obj.c **** #if LV_USE_GPU_STM32_DMA2D
 122:Drivers/lvgl/src/core/lv_obj.c ****     /*Initialize DMA2D GPU*/
 123:Drivers/lvgl/src/core/lv_obj.c ****     lv_draw_stm32_dma2d_init();
 124:Drivers/lvgl/src/core/lv_obj.c **** #endif
 125:Drivers/lvgl/src/core/lv_obj.c **** 
 126:Drivers/lvgl/src/core/lv_obj.c **** #if LV_USE_GPU_RA6M3_G2D
 127:Drivers/lvgl/src/core/lv_obj.c ****     /*Initialize G2D GPU*/
 128:Drivers/lvgl/src/core/lv_obj.c ****     lv_draw_ra6m3_g2d_init();
 129:Drivers/lvgl/src/core/lv_obj.c **** #endif
 130:Drivers/lvgl/src/core/lv_obj.c **** 
 131:Drivers/lvgl/src/core/lv_obj.c **** #if LV_USE_GPU_SWM341_DMA2D
 132:Drivers/lvgl/src/core/lv_obj.c ****     /*Initialize DMA2D GPU*/
 133:Drivers/lvgl/src/core/lv_obj.c ****     lv_draw_swm341_dma2d_init();
 134:Drivers/lvgl/src/core/lv_obj.c **** #endif
 135:Drivers/lvgl/src/core/lv_obj.c **** 
 136:Drivers/lvgl/src/core/lv_obj.c **** #if LV_USE_GPU_NXP_PXP && LV_USE_GPU_NXP_PXP_AUTO_INIT
 137:Drivers/lvgl/src/core/lv_obj.c ****     PXP_COND_STOP(!lv_gpu_nxp_pxp_init(), "PXP init failed.");
 138:Drivers/lvgl/src/core/lv_obj.c **** #endif
 139:Drivers/lvgl/src/core/lv_obj.c **** 
 140:Drivers/lvgl/src/core/lv_obj.c ****     _lv_obj_style_init();
 141:Drivers/lvgl/src/core/lv_obj.c ****     _lv_ll_init(&LV_GC_ROOT(_lv_disp_ll), sizeof(lv_disp_t));
 142:Drivers/lvgl/src/core/lv_obj.c ****     _lv_ll_init(&LV_GC_ROOT(_lv_indev_ll), sizeof(lv_indev_t));
 143:Drivers/lvgl/src/core/lv_obj.c **** 
 144:Drivers/lvgl/src/core/lv_obj.c ****     /*Initialize the screen refresh system*/
ARM GAS  /var/folders/0z/tsy30v1j4xl4_7kw94k978ww0000gn/T//ccVt8IXl.s 			page 4


 145:Drivers/lvgl/src/core/lv_obj.c ****     _lv_refr_init();
 146:Drivers/lvgl/src/core/lv_obj.c **** 
 147:Drivers/lvgl/src/core/lv_obj.c ****     _lv_img_decoder_init();
 148:Drivers/lvgl/src/core/lv_obj.c **** #if LV_IMG_CACHE_DEF_SIZE
 149:Drivers/lvgl/src/core/lv_obj.c ****     lv_img_cache_set_size(LV_IMG_CACHE_DEF_SIZE);
 150:Drivers/lvgl/src/core/lv_obj.c **** #endif
 151:Drivers/lvgl/src/core/lv_obj.c ****     /*Test if the IDE has UTF-8 encoding*/
 152:Drivers/lvgl/src/core/lv_obj.c ****     const char * txt = "Ã";
 153:Drivers/lvgl/src/core/lv_obj.c **** 
 154:Drivers/lvgl/src/core/lv_obj.c ****     const uint8_t * txt_u8 = (uint8_t *)txt;
 155:Drivers/lvgl/src/core/lv_obj.c ****     if(txt_u8[0] != 0xc3 || txt_u8[1] != 0x81 || txt_u8[2] != 0x00) {
 156:Drivers/lvgl/src/core/lv_obj.c ****         LV_LOG_WARN("The strings have no UTF-8 encoding. Non-ASCII characters won't be displayed.")
 157:Drivers/lvgl/src/core/lv_obj.c ****     }
 158:Drivers/lvgl/src/core/lv_obj.c **** 
 159:Drivers/lvgl/src/core/lv_obj.c ****     uint32_t endianess_test = 0x11223344;
 160:Drivers/lvgl/src/core/lv_obj.c ****     uint8_t * endianess_test_p = (uint8_t *) &endianess_test;
 161:Drivers/lvgl/src/core/lv_obj.c ****     bool big_endian = endianess_test_p[0] == 0x11 ? true : false;
 162:Drivers/lvgl/src/core/lv_obj.c **** 
 163:Drivers/lvgl/src/core/lv_obj.c ****     if(big_endian) {
 164:Drivers/lvgl/src/core/lv_obj.c ****         LV_ASSERT_MSG(LV_BIG_ENDIAN_SYSTEM == 1,
 165:Drivers/lvgl/src/core/lv_obj.c ****                       "It's a big endian system but LV_BIG_ENDIAN_SYSTEM is not enabled in lv_conf.
 166:Drivers/lvgl/src/core/lv_obj.c ****     }
 167:Drivers/lvgl/src/core/lv_obj.c ****     else {
 168:Drivers/lvgl/src/core/lv_obj.c ****         LV_ASSERT_MSG(LV_BIG_ENDIAN_SYSTEM == 0,
 169:Drivers/lvgl/src/core/lv_obj.c ****                       "It's a little endian system but LV_BIG_ENDIAN_SYSTEM is enabled in lv_conf.h
 170:Drivers/lvgl/src/core/lv_obj.c ****     }
 171:Drivers/lvgl/src/core/lv_obj.c **** 
 172:Drivers/lvgl/src/core/lv_obj.c **** #if LV_USE_ASSERT_MEM_INTEGRITY
 173:Drivers/lvgl/src/core/lv_obj.c ****     LV_LOG_WARN("Memory integrity checks are enabled via LV_USE_ASSERT_MEM_INTEGRITY which makes LV
 174:Drivers/lvgl/src/core/lv_obj.c **** #endif
 175:Drivers/lvgl/src/core/lv_obj.c **** 
 176:Drivers/lvgl/src/core/lv_obj.c **** #if LV_USE_ASSERT_OBJ
 177:Drivers/lvgl/src/core/lv_obj.c ****     LV_LOG_WARN("Object sanity checks are enabled via LV_USE_ASSERT_OBJ which makes LVGL much slowe
 178:Drivers/lvgl/src/core/lv_obj.c **** #endif
 179:Drivers/lvgl/src/core/lv_obj.c **** 
 180:Drivers/lvgl/src/core/lv_obj.c **** #if LV_USE_ASSERT_STYLE
 181:Drivers/lvgl/src/core/lv_obj.c ****     LV_LOG_WARN("Style sanity checks are enabled that uses more RAM");
 182:Drivers/lvgl/src/core/lv_obj.c **** #endif
 183:Drivers/lvgl/src/core/lv_obj.c **** 
 184:Drivers/lvgl/src/core/lv_obj.c **** #if LV_LOG_LEVEL == LV_LOG_LEVEL_TRACE
 185:Drivers/lvgl/src/core/lv_obj.c ****     LV_LOG_WARN("Log level is set to 'Trace' which makes LVGL much slower");
 186:Drivers/lvgl/src/core/lv_obj.c **** #endif
 187:Drivers/lvgl/src/core/lv_obj.c **** 
 188:Drivers/lvgl/src/core/lv_obj.c ****     lv_extra_init();
 189:Drivers/lvgl/src/core/lv_obj.c **** 
 190:Drivers/lvgl/src/core/lv_obj.c ****     lv_initialized = true;
 191:Drivers/lvgl/src/core/lv_obj.c **** 
 192:Drivers/lvgl/src/core/lv_obj.c ****     LV_LOG_TRACE("finished");
 193:Drivers/lvgl/src/core/lv_obj.c **** }
 194:Drivers/lvgl/src/core/lv_obj.c **** 
 195:Drivers/lvgl/src/core/lv_obj.c **** #if LV_ENABLE_GC || !LV_MEM_CUSTOM
 196:Drivers/lvgl/src/core/lv_obj.c **** 
 197:Drivers/lvgl/src/core/lv_obj.c **** void lv_deinit(void)
 198:Drivers/lvgl/src/core/lv_obj.c **** {
 199:Drivers/lvgl/src/core/lv_obj.c ****     _lv_gc_clear_roots();
 200:Drivers/lvgl/src/core/lv_obj.c **** 
 201:Drivers/lvgl/src/core/lv_obj.c ****     lv_disp_set_default(NULL);
ARM GAS  /var/folders/0z/tsy30v1j4xl4_7kw94k978ww0000gn/T//ccVt8IXl.s 			page 5


 202:Drivers/lvgl/src/core/lv_obj.c ****     lv_mem_deinit();
 203:Drivers/lvgl/src/core/lv_obj.c ****     lv_initialized = false;
 204:Drivers/lvgl/src/core/lv_obj.c **** 
 205:Drivers/lvgl/src/core/lv_obj.c ****     LV_LOG_INFO("lv_deinit done");
 206:Drivers/lvgl/src/core/lv_obj.c **** 
 207:Drivers/lvgl/src/core/lv_obj.c **** #if LV_USE_LOG
 208:Drivers/lvgl/src/core/lv_obj.c ****     lv_log_register_print_cb(NULL);
 209:Drivers/lvgl/src/core/lv_obj.c **** #endif
 210:Drivers/lvgl/src/core/lv_obj.c **** }
 211:Drivers/lvgl/src/core/lv_obj.c **** #endif
 212:Drivers/lvgl/src/core/lv_obj.c **** 
 213:Drivers/lvgl/src/core/lv_obj.c **** lv_obj_t * lv_obj_create(lv_obj_t * parent)
 214:Drivers/lvgl/src/core/lv_obj.c **** {
 215:Drivers/lvgl/src/core/lv_obj.c ****     LV_LOG_INFO("begin");
 216:Drivers/lvgl/src/core/lv_obj.c ****     lv_obj_t * obj = lv_obj_class_create_obj(MY_CLASS, parent);
 217:Drivers/lvgl/src/core/lv_obj.c ****     lv_obj_class_init_obj(obj);
 218:Drivers/lvgl/src/core/lv_obj.c ****     return obj;
 219:Drivers/lvgl/src/core/lv_obj.c **** }
 220:Drivers/lvgl/src/core/lv_obj.c **** 
 221:Drivers/lvgl/src/core/lv_obj.c **** /*=====================
 222:Drivers/lvgl/src/core/lv_obj.c ****  * Setter functions
 223:Drivers/lvgl/src/core/lv_obj.c ****  *====================*/
 224:Drivers/lvgl/src/core/lv_obj.c **** 
 225:Drivers/lvgl/src/core/lv_obj.c **** /*-----------------
 226:Drivers/lvgl/src/core/lv_obj.c ****  * Attribute set
 227:Drivers/lvgl/src/core/lv_obj.c ****  *----------------*/
 228:Drivers/lvgl/src/core/lv_obj.c **** 
 229:Drivers/lvgl/src/core/lv_obj.c **** void lv_obj_add_flag(lv_obj_t * obj, lv_obj_flag_t f)
 230:Drivers/lvgl/src/core/lv_obj.c **** {
 231:Drivers/lvgl/src/core/lv_obj.c ****     LV_ASSERT_OBJ(obj, MY_CLASS);
 232:Drivers/lvgl/src/core/lv_obj.c **** 
 233:Drivers/lvgl/src/core/lv_obj.c ****     bool was_on_layout = lv_obj_is_layout_positioned(obj);
 234:Drivers/lvgl/src/core/lv_obj.c **** 
 235:Drivers/lvgl/src/core/lv_obj.c ****     /* We must invalidate the area occupied by the object before we hide it as calls to invalidate 
 236:Drivers/lvgl/src/core/lv_obj.c ****     if(f & LV_OBJ_FLAG_HIDDEN) lv_obj_invalidate(obj);
 237:Drivers/lvgl/src/core/lv_obj.c **** 
 238:Drivers/lvgl/src/core/lv_obj.c ****     obj->flags |= f;
 239:Drivers/lvgl/src/core/lv_obj.c **** 
 240:Drivers/lvgl/src/core/lv_obj.c ****     if(f & LV_OBJ_FLAG_HIDDEN) {
 241:Drivers/lvgl/src/core/lv_obj.c ****         if(lv_obj_has_state(obj, LV_STATE_FOCUSED)) {
 242:Drivers/lvgl/src/core/lv_obj.c ****             lv_group_t * group = lv_obj_get_group(obj);
 243:Drivers/lvgl/src/core/lv_obj.c ****             if(group != NULL) {
 244:Drivers/lvgl/src/core/lv_obj.c ****                 lv_group_focus_next(group);
 245:Drivers/lvgl/src/core/lv_obj.c ****                 lv_obj_t * next_obj = lv_group_get_focused(group);
 246:Drivers/lvgl/src/core/lv_obj.c ****                 if(next_obj != NULL) {
 247:Drivers/lvgl/src/core/lv_obj.c ****                     lv_obj_invalidate(next_obj);
 248:Drivers/lvgl/src/core/lv_obj.c ****                 }
 249:Drivers/lvgl/src/core/lv_obj.c ****             }
 250:Drivers/lvgl/src/core/lv_obj.c ****         }
 251:Drivers/lvgl/src/core/lv_obj.c ****     }
 252:Drivers/lvgl/src/core/lv_obj.c **** 
 253:Drivers/lvgl/src/core/lv_obj.c ****     if((was_on_layout != lv_obj_is_layout_positioned(obj)) || (f & (LV_OBJ_FLAG_LAYOUT_1 |  LV_OBJ_
 254:Drivers/lvgl/src/core/lv_obj.c ****         lv_obj_mark_layout_as_dirty(lv_obj_get_parent(obj));
 255:Drivers/lvgl/src/core/lv_obj.c ****         lv_obj_mark_layout_as_dirty(obj);
 256:Drivers/lvgl/src/core/lv_obj.c ****     }
 257:Drivers/lvgl/src/core/lv_obj.c **** 
 258:Drivers/lvgl/src/core/lv_obj.c ****     if(f & LV_OBJ_FLAG_SCROLLABLE) {
ARM GAS  /var/folders/0z/tsy30v1j4xl4_7kw94k978ww0000gn/T//ccVt8IXl.s 			page 6


 259:Drivers/lvgl/src/core/lv_obj.c ****         lv_area_t hor_area, ver_area;
 260:Drivers/lvgl/src/core/lv_obj.c ****         lv_obj_get_scrollbar_area(obj, &hor_area, &ver_area);
 261:Drivers/lvgl/src/core/lv_obj.c ****         lv_obj_invalidate_area(obj, &hor_area);
 262:Drivers/lvgl/src/core/lv_obj.c ****         lv_obj_invalidate_area(obj, &ver_area);
 263:Drivers/lvgl/src/core/lv_obj.c ****     }
 264:Drivers/lvgl/src/core/lv_obj.c **** }
 265:Drivers/lvgl/src/core/lv_obj.c **** 
 266:Drivers/lvgl/src/core/lv_obj.c **** void lv_obj_clear_flag(lv_obj_t * obj, lv_obj_flag_t f)
 267:Drivers/lvgl/src/core/lv_obj.c **** {
 268:Drivers/lvgl/src/core/lv_obj.c ****     LV_ASSERT_OBJ(obj, MY_CLASS);
 269:Drivers/lvgl/src/core/lv_obj.c **** 
 270:Drivers/lvgl/src/core/lv_obj.c ****     bool was_on_layout = lv_obj_is_layout_positioned(obj);
 271:Drivers/lvgl/src/core/lv_obj.c ****     if(f & LV_OBJ_FLAG_SCROLLABLE) {
 272:Drivers/lvgl/src/core/lv_obj.c ****         lv_area_t hor_area, ver_area;
 273:Drivers/lvgl/src/core/lv_obj.c ****         lv_obj_get_scrollbar_area(obj, &hor_area, &ver_area);
 274:Drivers/lvgl/src/core/lv_obj.c ****         lv_obj_invalidate_area(obj, &hor_area);
 275:Drivers/lvgl/src/core/lv_obj.c ****         lv_obj_invalidate_area(obj, &ver_area);
 276:Drivers/lvgl/src/core/lv_obj.c ****     }
 277:Drivers/lvgl/src/core/lv_obj.c **** 
 278:Drivers/lvgl/src/core/lv_obj.c ****     obj->flags &= (~f);
 279:Drivers/lvgl/src/core/lv_obj.c **** 
 280:Drivers/lvgl/src/core/lv_obj.c ****     if(f & LV_OBJ_FLAG_HIDDEN) {
 281:Drivers/lvgl/src/core/lv_obj.c ****         lv_obj_invalidate(obj);
 282:Drivers/lvgl/src/core/lv_obj.c ****         if(lv_obj_is_layout_positioned(obj)) {
 283:Drivers/lvgl/src/core/lv_obj.c ****             lv_obj_mark_layout_as_dirty(lv_obj_get_parent(obj));
 284:Drivers/lvgl/src/core/lv_obj.c ****             lv_obj_mark_layout_as_dirty(obj);
 285:Drivers/lvgl/src/core/lv_obj.c ****         }
 286:Drivers/lvgl/src/core/lv_obj.c ****     }
 287:Drivers/lvgl/src/core/lv_obj.c **** 
 288:Drivers/lvgl/src/core/lv_obj.c ****     if((was_on_layout != lv_obj_is_layout_positioned(obj)) || (f & (LV_OBJ_FLAG_LAYOUT_1 |  LV_OBJ_
 289:Drivers/lvgl/src/core/lv_obj.c ****         lv_obj_mark_layout_as_dirty(lv_obj_get_parent(obj));
 290:Drivers/lvgl/src/core/lv_obj.c ****     }
 291:Drivers/lvgl/src/core/lv_obj.c **** 
 292:Drivers/lvgl/src/core/lv_obj.c **** }
 293:Drivers/lvgl/src/core/lv_obj.c **** 
 294:Drivers/lvgl/src/core/lv_obj.c **** void lv_obj_add_state(lv_obj_t * obj, lv_state_t state)
 295:Drivers/lvgl/src/core/lv_obj.c **** {
 296:Drivers/lvgl/src/core/lv_obj.c ****     LV_ASSERT_OBJ(obj, MY_CLASS);
 297:Drivers/lvgl/src/core/lv_obj.c **** 
 298:Drivers/lvgl/src/core/lv_obj.c ****     lv_state_t new_state = obj->state | state;
 299:Drivers/lvgl/src/core/lv_obj.c ****     if(obj->state != new_state) {
 300:Drivers/lvgl/src/core/lv_obj.c ****         lv_obj_set_state(obj, new_state);
 301:Drivers/lvgl/src/core/lv_obj.c ****     }
 302:Drivers/lvgl/src/core/lv_obj.c **** }
 303:Drivers/lvgl/src/core/lv_obj.c **** 
 304:Drivers/lvgl/src/core/lv_obj.c **** void lv_obj_clear_state(lv_obj_t * obj, lv_state_t state)
 305:Drivers/lvgl/src/core/lv_obj.c **** {
 306:Drivers/lvgl/src/core/lv_obj.c ****     LV_ASSERT_OBJ(obj, MY_CLASS);
 307:Drivers/lvgl/src/core/lv_obj.c **** 
 308:Drivers/lvgl/src/core/lv_obj.c ****     lv_state_t new_state = obj->state & (~state);
 309:Drivers/lvgl/src/core/lv_obj.c ****     if(obj->state != new_state) {
 310:Drivers/lvgl/src/core/lv_obj.c ****         lv_obj_set_state(obj, new_state);
 311:Drivers/lvgl/src/core/lv_obj.c ****     }
 312:Drivers/lvgl/src/core/lv_obj.c **** }
 313:Drivers/lvgl/src/core/lv_obj.c **** 
 314:Drivers/lvgl/src/core/lv_obj.c **** /*=======================
 315:Drivers/lvgl/src/core/lv_obj.c ****  * Getter functions
ARM GAS  /var/folders/0z/tsy30v1j4xl4_7kw94k978ww0000gn/T//ccVt8IXl.s 			page 7


 316:Drivers/lvgl/src/core/lv_obj.c ****  *======================*/
 317:Drivers/lvgl/src/core/lv_obj.c **** 
 318:Drivers/lvgl/src/core/lv_obj.c **** bool lv_obj_has_flag(const lv_obj_t * obj, lv_obj_flag_t f)
 319:Drivers/lvgl/src/core/lv_obj.c **** {
 320:Drivers/lvgl/src/core/lv_obj.c ****     LV_ASSERT_OBJ(obj, MY_CLASS);
 321:Drivers/lvgl/src/core/lv_obj.c **** 
 322:Drivers/lvgl/src/core/lv_obj.c ****     return (obj->flags & f)  == f ? true : false;
 323:Drivers/lvgl/src/core/lv_obj.c **** }
 324:Drivers/lvgl/src/core/lv_obj.c **** 
 325:Drivers/lvgl/src/core/lv_obj.c **** bool lv_obj_has_flag_any(const lv_obj_t * obj, lv_obj_flag_t f)
 326:Drivers/lvgl/src/core/lv_obj.c **** {
 327:Drivers/lvgl/src/core/lv_obj.c ****     LV_ASSERT_OBJ(obj, MY_CLASS);
 328:Drivers/lvgl/src/core/lv_obj.c **** 
 329:Drivers/lvgl/src/core/lv_obj.c ****     return (obj->flags & f) ? true : false;
 330:Drivers/lvgl/src/core/lv_obj.c **** }
 331:Drivers/lvgl/src/core/lv_obj.c **** 
 332:Drivers/lvgl/src/core/lv_obj.c **** lv_state_t lv_obj_get_state(const lv_obj_t * obj)
 333:Drivers/lvgl/src/core/lv_obj.c **** {
 334:Drivers/lvgl/src/core/lv_obj.c ****     LV_ASSERT_OBJ(obj, MY_CLASS);
 335:Drivers/lvgl/src/core/lv_obj.c **** 
 336:Drivers/lvgl/src/core/lv_obj.c ****     return obj->state;
 337:Drivers/lvgl/src/core/lv_obj.c **** }
 338:Drivers/lvgl/src/core/lv_obj.c **** 
 339:Drivers/lvgl/src/core/lv_obj.c **** bool lv_obj_has_state(const lv_obj_t * obj, lv_state_t state)
 340:Drivers/lvgl/src/core/lv_obj.c **** {
 341:Drivers/lvgl/src/core/lv_obj.c ****     LV_ASSERT_OBJ(obj, MY_CLASS);
 342:Drivers/lvgl/src/core/lv_obj.c **** 
 343:Drivers/lvgl/src/core/lv_obj.c ****     return obj->state & state ? true : false;
 344:Drivers/lvgl/src/core/lv_obj.c **** }
 345:Drivers/lvgl/src/core/lv_obj.c **** 
 346:Drivers/lvgl/src/core/lv_obj.c **** void * lv_obj_get_group(const lv_obj_t * obj)
 347:Drivers/lvgl/src/core/lv_obj.c **** {
 348:Drivers/lvgl/src/core/lv_obj.c ****     LV_ASSERT_OBJ(obj, MY_CLASS);
 349:Drivers/lvgl/src/core/lv_obj.c **** 
 350:Drivers/lvgl/src/core/lv_obj.c ****     if(obj->spec_attr) return obj->spec_attr->group_p;
 351:Drivers/lvgl/src/core/lv_obj.c ****     else return NULL;
 352:Drivers/lvgl/src/core/lv_obj.c **** }
 353:Drivers/lvgl/src/core/lv_obj.c **** 
 354:Drivers/lvgl/src/core/lv_obj.c **** /*-------------------
 355:Drivers/lvgl/src/core/lv_obj.c ****  * OTHER FUNCTIONS
 356:Drivers/lvgl/src/core/lv_obj.c ****  *------------------*/
 357:Drivers/lvgl/src/core/lv_obj.c **** 
 358:Drivers/lvgl/src/core/lv_obj.c **** void lv_obj_allocate_spec_attr(lv_obj_t * obj)
 359:Drivers/lvgl/src/core/lv_obj.c **** {
 360:Drivers/lvgl/src/core/lv_obj.c ****     LV_ASSERT_OBJ(obj, MY_CLASS);
 361:Drivers/lvgl/src/core/lv_obj.c **** 
 362:Drivers/lvgl/src/core/lv_obj.c ****     if(obj->spec_attr == NULL) {
 363:Drivers/lvgl/src/core/lv_obj.c ****         static uint32_t x = 0;
 364:Drivers/lvgl/src/core/lv_obj.c ****         x++;
 365:Drivers/lvgl/src/core/lv_obj.c ****         obj->spec_attr = lv_mem_alloc(sizeof(_lv_obj_spec_attr_t));
 366:Drivers/lvgl/src/core/lv_obj.c ****         LV_ASSERT_MALLOC(obj->spec_attr);
 367:Drivers/lvgl/src/core/lv_obj.c ****         if(obj->spec_attr == NULL) return;
 368:Drivers/lvgl/src/core/lv_obj.c **** 
 369:Drivers/lvgl/src/core/lv_obj.c ****         lv_memset_00(obj->spec_attr, sizeof(_lv_obj_spec_attr_t));
 370:Drivers/lvgl/src/core/lv_obj.c **** 
 371:Drivers/lvgl/src/core/lv_obj.c ****         obj->spec_attr->scroll_dir = LV_DIR_ALL;
 372:Drivers/lvgl/src/core/lv_obj.c ****         obj->spec_attr->scrollbar_mode = LV_SCROLLBAR_MODE_AUTO;
ARM GAS  /var/folders/0z/tsy30v1j4xl4_7kw94k978ww0000gn/T//ccVt8IXl.s 			page 8


 373:Drivers/lvgl/src/core/lv_obj.c ****     }
 374:Drivers/lvgl/src/core/lv_obj.c **** }
 375:Drivers/lvgl/src/core/lv_obj.c **** 
 376:Drivers/lvgl/src/core/lv_obj.c **** bool lv_obj_check_type(const lv_obj_t * obj, const lv_obj_class_t * class_p)
 377:Drivers/lvgl/src/core/lv_obj.c **** {
 378:Drivers/lvgl/src/core/lv_obj.c ****     if(obj == NULL) return false;
 379:Drivers/lvgl/src/core/lv_obj.c ****     return obj->class_p == class_p ? true : false;
 380:Drivers/lvgl/src/core/lv_obj.c **** }
 381:Drivers/lvgl/src/core/lv_obj.c **** 
 382:Drivers/lvgl/src/core/lv_obj.c **** bool lv_obj_has_class(const lv_obj_t * obj, const lv_obj_class_t * class_p)
 383:Drivers/lvgl/src/core/lv_obj.c **** {
 384:Drivers/lvgl/src/core/lv_obj.c ****     const lv_obj_class_t * obj_class = obj->class_p;
 385:Drivers/lvgl/src/core/lv_obj.c ****     while(obj_class) {
 386:Drivers/lvgl/src/core/lv_obj.c ****         if(obj_class == class_p) return true;
 387:Drivers/lvgl/src/core/lv_obj.c ****         obj_class = obj_class->base_class;
 388:Drivers/lvgl/src/core/lv_obj.c ****     }
 389:Drivers/lvgl/src/core/lv_obj.c **** 
 390:Drivers/lvgl/src/core/lv_obj.c ****     return false;
 391:Drivers/lvgl/src/core/lv_obj.c **** }
 392:Drivers/lvgl/src/core/lv_obj.c **** 
 393:Drivers/lvgl/src/core/lv_obj.c **** const lv_obj_class_t * lv_obj_get_class(const lv_obj_t * obj)
 394:Drivers/lvgl/src/core/lv_obj.c **** {
 395:Drivers/lvgl/src/core/lv_obj.c ****     return obj->class_p;
 396:Drivers/lvgl/src/core/lv_obj.c **** }
 397:Drivers/lvgl/src/core/lv_obj.c **** 
 398:Drivers/lvgl/src/core/lv_obj.c **** bool lv_obj_is_valid(const lv_obj_t * obj)
 399:Drivers/lvgl/src/core/lv_obj.c **** {
 400:Drivers/lvgl/src/core/lv_obj.c ****     lv_disp_t * disp = lv_disp_get_next(NULL);
 401:Drivers/lvgl/src/core/lv_obj.c ****     while(disp) {
 402:Drivers/lvgl/src/core/lv_obj.c ****         uint32_t i;
 403:Drivers/lvgl/src/core/lv_obj.c ****         for(i = 0; i < disp->screen_cnt; i++) {
 404:Drivers/lvgl/src/core/lv_obj.c ****             if(disp->screens[i] == obj) return true;
 405:Drivers/lvgl/src/core/lv_obj.c ****             bool found = obj_valid_child(disp->screens[i], obj);
 406:Drivers/lvgl/src/core/lv_obj.c ****             if(found) return true;
 407:Drivers/lvgl/src/core/lv_obj.c ****         }
 408:Drivers/lvgl/src/core/lv_obj.c **** 
 409:Drivers/lvgl/src/core/lv_obj.c ****         disp = lv_disp_get_next(disp);
 410:Drivers/lvgl/src/core/lv_obj.c ****     }
 411:Drivers/lvgl/src/core/lv_obj.c **** 
 412:Drivers/lvgl/src/core/lv_obj.c ****     return false;
 413:Drivers/lvgl/src/core/lv_obj.c **** }
 414:Drivers/lvgl/src/core/lv_obj.c **** 
 415:Drivers/lvgl/src/core/lv_obj.c **** /**********************
 416:Drivers/lvgl/src/core/lv_obj.c ****  *   STATIC FUNCTIONS
 417:Drivers/lvgl/src/core/lv_obj.c ****  **********************/
 418:Drivers/lvgl/src/core/lv_obj.c **** 
 419:Drivers/lvgl/src/core/lv_obj.c **** static void lv_obj_constructor(const lv_obj_class_t * class_p, lv_obj_t * obj)
 420:Drivers/lvgl/src/core/lv_obj.c **** {
 421:Drivers/lvgl/src/core/lv_obj.c ****     LV_UNUSED(class_p);
 422:Drivers/lvgl/src/core/lv_obj.c ****     LV_TRACE_OBJ_CREATE("begin");
 423:Drivers/lvgl/src/core/lv_obj.c **** 
 424:Drivers/lvgl/src/core/lv_obj.c ****     lv_obj_t * parent = obj->parent;
 425:Drivers/lvgl/src/core/lv_obj.c ****     if(parent) {
 426:Drivers/lvgl/src/core/lv_obj.c ****         lv_coord_t sl = lv_obj_get_scroll_left(parent);
 427:Drivers/lvgl/src/core/lv_obj.c ****         lv_coord_t st = lv_obj_get_scroll_top(parent);
 428:Drivers/lvgl/src/core/lv_obj.c **** 
 429:Drivers/lvgl/src/core/lv_obj.c ****         obj->coords.y1 = parent->coords.y1 + lv_obj_get_style_pad_top(parent, LV_PART_MAIN) - st;
ARM GAS  /var/folders/0z/tsy30v1j4xl4_7kw94k978ww0000gn/T//ccVt8IXl.s 			page 9


 430:Drivers/lvgl/src/core/lv_obj.c ****         obj->coords.y2 = obj->coords.y1 - 1;
 431:Drivers/lvgl/src/core/lv_obj.c ****         obj->coords.x1  = parent->coords.x1 + lv_obj_get_style_pad_left(parent, LV_PART_MAIN) - sl;
 432:Drivers/lvgl/src/core/lv_obj.c ****         obj->coords.x2  = obj->coords.x1 - 1;
 433:Drivers/lvgl/src/core/lv_obj.c ****     }
 434:Drivers/lvgl/src/core/lv_obj.c **** 
 435:Drivers/lvgl/src/core/lv_obj.c ****     /*Set attributes*/
 436:Drivers/lvgl/src/core/lv_obj.c ****     obj->flags = LV_OBJ_FLAG_CLICKABLE;
 437:Drivers/lvgl/src/core/lv_obj.c ****     obj->flags |= LV_OBJ_FLAG_SNAPPABLE;
 438:Drivers/lvgl/src/core/lv_obj.c ****     if(parent) obj->flags |= LV_OBJ_FLAG_PRESS_LOCK;
 439:Drivers/lvgl/src/core/lv_obj.c ****     if(parent) obj->flags |= LV_OBJ_FLAG_SCROLL_CHAIN;
 440:Drivers/lvgl/src/core/lv_obj.c ****     obj->flags |= LV_OBJ_FLAG_CLICK_FOCUSABLE;
 441:Drivers/lvgl/src/core/lv_obj.c ****     obj->flags |= LV_OBJ_FLAG_SCROLLABLE;
 442:Drivers/lvgl/src/core/lv_obj.c ****     obj->flags |= LV_OBJ_FLAG_SCROLL_ELASTIC;
 443:Drivers/lvgl/src/core/lv_obj.c ****     obj->flags |= LV_OBJ_FLAG_SCROLL_MOMENTUM;
 444:Drivers/lvgl/src/core/lv_obj.c ****     obj->flags |= LV_OBJ_FLAG_SCROLL_WITH_ARROW;
 445:Drivers/lvgl/src/core/lv_obj.c ****     if(parent) obj->flags |= LV_OBJ_FLAG_GESTURE_BUBBLE;
 446:Drivers/lvgl/src/core/lv_obj.c **** 
 447:Drivers/lvgl/src/core/lv_obj.c ****     LV_TRACE_OBJ_CREATE("finished");
 448:Drivers/lvgl/src/core/lv_obj.c **** }
 449:Drivers/lvgl/src/core/lv_obj.c **** 
 450:Drivers/lvgl/src/core/lv_obj.c **** static void lv_obj_destructor(const lv_obj_class_t * class_p, lv_obj_t * obj)
 451:Drivers/lvgl/src/core/lv_obj.c **** {
 452:Drivers/lvgl/src/core/lv_obj.c ****     LV_UNUSED(class_p);
 453:Drivers/lvgl/src/core/lv_obj.c **** 
 454:Drivers/lvgl/src/core/lv_obj.c ****     _lv_event_mark_deleted(obj);
 455:Drivers/lvgl/src/core/lv_obj.c **** 
 456:Drivers/lvgl/src/core/lv_obj.c ****     /*Remove all style*/
 457:Drivers/lvgl/src/core/lv_obj.c ****     lv_obj_enable_style_refresh(false); /*No need to refresh the style because the object will be d
 458:Drivers/lvgl/src/core/lv_obj.c ****     lv_obj_remove_style_all(obj);
 459:Drivers/lvgl/src/core/lv_obj.c ****     lv_obj_enable_style_refresh(true);
 460:Drivers/lvgl/src/core/lv_obj.c **** 
 461:Drivers/lvgl/src/core/lv_obj.c ****     /*Remove the animations from this object*/
 462:Drivers/lvgl/src/core/lv_obj.c ****     lv_anim_del(obj, NULL);
 463:Drivers/lvgl/src/core/lv_obj.c **** 
 464:Drivers/lvgl/src/core/lv_obj.c ****     /*Delete from the group*/
 465:Drivers/lvgl/src/core/lv_obj.c ****     lv_group_t * group = lv_obj_get_group(obj);
 466:Drivers/lvgl/src/core/lv_obj.c ****     if(group) lv_group_remove_obj(obj);
 467:Drivers/lvgl/src/core/lv_obj.c **** 
 468:Drivers/lvgl/src/core/lv_obj.c ****     if(obj->spec_attr) {
 469:Drivers/lvgl/src/core/lv_obj.c ****         if(obj->spec_attr->children) {
 470:Drivers/lvgl/src/core/lv_obj.c ****             lv_mem_free(obj->spec_attr->children);
 471:Drivers/lvgl/src/core/lv_obj.c ****             obj->spec_attr->children = NULL;
 472:Drivers/lvgl/src/core/lv_obj.c ****         }
 473:Drivers/lvgl/src/core/lv_obj.c ****         if(obj->spec_attr->event_dsc) {
 474:Drivers/lvgl/src/core/lv_obj.c ****             lv_mem_free(obj->spec_attr->event_dsc);
 475:Drivers/lvgl/src/core/lv_obj.c ****             obj->spec_attr->event_dsc = NULL;
 476:Drivers/lvgl/src/core/lv_obj.c ****         }
 477:Drivers/lvgl/src/core/lv_obj.c **** 
 478:Drivers/lvgl/src/core/lv_obj.c ****         lv_mem_free(obj->spec_attr);
 479:Drivers/lvgl/src/core/lv_obj.c ****         obj->spec_attr = NULL;
 480:Drivers/lvgl/src/core/lv_obj.c ****     }
 481:Drivers/lvgl/src/core/lv_obj.c **** }
 482:Drivers/lvgl/src/core/lv_obj.c **** 
 483:Drivers/lvgl/src/core/lv_obj.c **** static void lv_obj_draw(lv_event_t * e)
 484:Drivers/lvgl/src/core/lv_obj.c **** {
 485:Drivers/lvgl/src/core/lv_obj.c ****     lv_event_code_t code = lv_event_get_code(e);
 486:Drivers/lvgl/src/core/lv_obj.c ****     lv_obj_t * obj = lv_event_get_target(e);
ARM GAS  /var/folders/0z/tsy30v1j4xl4_7kw94k978ww0000gn/T//ccVt8IXl.s 			page 10


 487:Drivers/lvgl/src/core/lv_obj.c ****     if(code == LV_EVENT_COVER_CHECK) {
 488:Drivers/lvgl/src/core/lv_obj.c ****         lv_cover_check_info_t * info = lv_event_get_param(e);
 489:Drivers/lvgl/src/core/lv_obj.c ****         if(info->res == LV_COVER_RES_MASKED) return;
 490:Drivers/lvgl/src/core/lv_obj.c ****         if(lv_obj_get_style_clip_corner(obj, LV_PART_MAIN)) {
 491:Drivers/lvgl/src/core/lv_obj.c ****             info->res = LV_COVER_RES_MASKED;
 492:Drivers/lvgl/src/core/lv_obj.c ****             return;
 493:Drivers/lvgl/src/core/lv_obj.c ****         }
 494:Drivers/lvgl/src/core/lv_obj.c **** 
 495:Drivers/lvgl/src/core/lv_obj.c ****         /*Most trivial test. Is the mask fully IN the object? If no it surely doesn't cover it*/
 496:Drivers/lvgl/src/core/lv_obj.c ****         lv_coord_t r = lv_obj_get_style_radius(obj, LV_PART_MAIN);
 497:Drivers/lvgl/src/core/lv_obj.c ****         lv_coord_t w = lv_obj_get_style_transform_width(obj, LV_PART_MAIN);
 498:Drivers/lvgl/src/core/lv_obj.c ****         lv_coord_t h = lv_obj_get_style_transform_height(obj, LV_PART_MAIN);
 499:Drivers/lvgl/src/core/lv_obj.c ****         lv_area_t coords;
 500:Drivers/lvgl/src/core/lv_obj.c ****         lv_area_copy(&coords, &obj->coords);
 501:Drivers/lvgl/src/core/lv_obj.c ****         coords.x1 -= w;
 502:Drivers/lvgl/src/core/lv_obj.c ****         coords.x2 += w;
 503:Drivers/lvgl/src/core/lv_obj.c ****         coords.y1 -= h;
 504:Drivers/lvgl/src/core/lv_obj.c ****         coords.y2 += h;
 505:Drivers/lvgl/src/core/lv_obj.c **** 
 506:Drivers/lvgl/src/core/lv_obj.c ****         if(_lv_area_is_in(info->area, &coords, r) == false) {
 507:Drivers/lvgl/src/core/lv_obj.c ****             info->res = LV_COVER_RES_NOT_COVER;
 508:Drivers/lvgl/src/core/lv_obj.c ****             return;
 509:Drivers/lvgl/src/core/lv_obj.c ****         }
 510:Drivers/lvgl/src/core/lv_obj.c **** 
 511:Drivers/lvgl/src/core/lv_obj.c ****         if(lv_obj_get_style_bg_opa(obj, LV_PART_MAIN) < LV_OPA_MAX) {
 512:Drivers/lvgl/src/core/lv_obj.c ****             info->res = LV_COVER_RES_NOT_COVER;
 513:Drivers/lvgl/src/core/lv_obj.c ****             return;
 514:Drivers/lvgl/src/core/lv_obj.c ****         }
 515:Drivers/lvgl/src/core/lv_obj.c **** 
 516:Drivers/lvgl/src/core/lv_obj.c ****         if(lv_obj_get_style_opa(obj, LV_PART_MAIN) < LV_OPA_MAX) {
 517:Drivers/lvgl/src/core/lv_obj.c ****             info->res = LV_COVER_RES_NOT_COVER;
 518:Drivers/lvgl/src/core/lv_obj.c ****             return;
 519:Drivers/lvgl/src/core/lv_obj.c ****         }
 520:Drivers/lvgl/src/core/lv_obj.c **** 
 521:Drivers/lvgl/src/core/lv_obj.c ****         info->res = LV_COVER_RES_COVER;
 522:Drivers/lvgl/src/core/lv_obj.c **** 
 523:Drivers/lvgl/src/core/lv_obj.c ****     }
 524:Drivers/lvgl/src/core/lv_obj.c ****     else if(code == LV_EVENT_DRAW_MAIN) {
 525:Drivers/lvgl/src/core/lv_obj.c ****         lv_draw_ctx_t * draw_ctx = lv_event_get_draw_ctx(e);
 526:Drivers/lvgl/src/core/lv_obj.c ****         lv_draw_rect_dsc_t draw_dsc;
 527:Drivers/lvgl/src/core/lv_obj.c ****         lv_draw_rect_dsc_init(&draw_dsc);
 528:Drivers/lvgl/src/core/lv_obj.c ****         /*If the border is drawn later disable loading its properties*/
 529:Drivers/lvgl/src/core/lv_obj.c ****         if(lv_obj_get_style_border_post(obj, LV_PART_MAIN)) {
 530:Drivers/lvgl/src/core/lv_obj.c ****             draw_dsc.border_post = 1;
 531:Drivers/lvgl/src/core/lv_obj.c ****         }
 532:Drivers/lvgl/src/core/lv_obj.c **** 
 533:Drivers/lvgl/src/core/lv_obj.c ****         lv_obj_init_draw_rect_dsc(obj, LV_PART_MAIN, &draw_dsc);
 534:Drivers/lvgl/src/core/lv_obj.c ****         lv_coord_t w = lv_obj_get_style_transform_width(obj, LV_PART_MAIN);
 535:Drivers/lvgl/src/core/lv_obj.c ****         lv_coord_t h = lv_obj_get_style_transform_height(obj, LV_PART_MAIN);
 536:Drivers/lvgl/src/core/lv_obj.c ****         lv_area_t coords;
 537:Drivers/lvgl/src/core/lv_obj.c ****         lv_area_copy(&coords, &obj->coords);
 538:Drivers/lvgl/src/core/lv_obj.c ****         coords.x1 -= w;
 539:Drivers/lvgl/src/core/lv_obj.c ****         coords.x2 += w;
 540:Drivers/lvgl/src/core/lv_obj.c ****         coords.y1 -= h;
 541:Drivers/lvgl/src/core/lv_obj.c ****         coords.y2 += h;
 542:Drivers/lvgl/src/core/lv_obj.c **** 
 543:Drivers/lvgl/src/core/lv_obj.c ****         lv_obj_draw_part_dsc_t part_dsc;
ARM GAS  /var/folders/0z/tsy30v1j4xl4_7kw94k978ww0000gn/T//ccVt8IXl.s 			page 11


 544:Drivers/lvgl/src/core/lv_obj.c ****         lv_obj_draw_dsc_init(&part_dsc, draw_ctx);
 545:Drivers/lvgl/src/core/lv_obj.c ****         part_dsc.class_p = MY_CLASS;
 546:Drivers/lvgl/src/core/lv_obj.c ****         part_dsc.type = LV_OBJ_DRAW_PART_RECTANGLE;
 547:Drivers/lvgl/src/core/lv_obj.c ****         part_dsc.rect_dsc = &draw_dsc;
 548:Drivers/lvgl/src/core/lv_obj.c ****         part_dsc.draw_area = &coords;
 549:Drivers/lvgl/src/core/lv_obj.c ****         part_dsc.part = LV_PART_MAIN;
 550:Drivers/lvgl/src/core/lv_obj.c ****         lv_event_send(obj, LV_EVENT_DRAW_PART_BEGIN, &part_dsc);
 551:Drivers/lvgl/src/core/lv_obj.c **** 
 552:Drivers/lvgl/src/core/lv_obj.c **** #if LV_DRAW_COMPLEX
 553:Drivers/lvgl/src/core/lv_obj.c ****         /*With clip corner enabled draw the bg img separately to make it clipped*/
 554:Drivers/lvgl/src/core/lv_obj.c ****         bool clip_corner = (lv_obj_get_style_clip_corner(obj, LV_PART_MAIN) && draw_dsc.radius != 0
 555:Drivers/lvgl/src/core/lv_obj.c ****         const void * bg_img_src = draw_dsc.bg_img_src;
 556:Drivers/lvgl/src/core/lv_obj.c ****         if(clip_corner) {
 557:Drivers/lvgl/src/core/lv_obj.c ****             draw_dsc.bg_img_src = NULL;
 558:Drivers/lvgl/src/core/lv_obj.c ****         }
 559:Drivers/lvgl/src/core/lv_obj.c **** #endif
 560:Drivers/lvgl/src/core/lv_obj.c **** 
 561:Drivers/lvgl/src/core/lv_obj.c ****         lv_draw_rect(draw_ctx, &draw_dsc, &coords);
 562:Drivers/lvgl/src/core/lv_obj.c **** 
 563:Drivers/lvgl/src/core/lv_obj.c **** 
 564:Drivers/lvgl/src/core/lv_obj.c **** #if LV_DRAW_COMPLEX
 565:Drivers/lvgl/src/core/lv_obj.c ****         if(clip_corner) {
 566:Drivers/lvgl/src/core/lv_obj.c ****             lv_draw_mask_radius_param_t * mp = lv_mem_buf_get(sizeof(lv_draw_mask_radius_param_t));
 567:Drivers/lvgl/src/core/lv_obj.c ****             lv_draw_mask_radius_init(mp, &obj->coords, draw_dsc.radius, false);
 568:Drivers/lvgl/src/core/lv_obj.c ****             /*Add the mask and use `obj+8` as custom id. Don't use `obj` directly because it might 
 569:Drivers/lvgl/src/core/lv_obj.c ****             lv_draw_mask_add(mp, obj + 8);
 570:Drivers/lvgl/src/core/lv_obj.c **** 
 571:Drivers/lvgl/src/core/lv_obj.c ****             if(bg_img_src) {
 572:Drivers/lvgl/src/core/lv_obj.c ****                 draw_dsc.bg_opa = LV_OPA_TRANSP;
 573:Drivers/lvgl/src/core/lv_obj.c ****                 draw_dsc.border_opa = LV_OPA_TRANSP;
 574:Drivers/lvgl/src/core/lv_obj.c ****                 draw_dsc.outline_opa = LV_OPA_TRANSP;
 575:Drivers/lvgl/src/core/lv_obj.c ****                 draw_dsc.shadow_opa = LV_OPA_TRANSP;
 576:Drivers/lvgl/src/core/lv_obj.c ****                 draw_dsc.bg_img_src = bg_img_src;
 577:Drivers/lvgl/src/core/lv_obj.c ****                 lv_draw_rect(draw_ctx, &draw_dsc, &coords);
 578:Drivers/lvgl/src/core/lv_obj.c ****             }
 579:Drivers/lvgl/src/core/lv_obj.c **** 
 580:Drivers/lvgl/src/core/lv_obj.c ****         }
 581:Drivers/lvgl/src/core/lv_obj.c **** #endif
 582:Drivers/lvgl/src/core/lv_obj.c ****         lv_event_send(obj, LV_EVENT_DRAW_PART_END, &part_dsc);
 583:Drivers/lvgl/src/core/lv_obj.c ****     }
 584:Drivers/lvgl/src/core/lv_obj.c ****     else if(code == LV_EVENT_DRAW_POST) {
 585:Drivers/lvgl/src/core/lv_obj.c ****         lv_draw_ctx_t * draw_ctx = lv_event_get_draw_ctx(e);
 586:Drivers/lvgl/src/core/lv_obj.c ****         draw_scrollbar(obj, draw_ctx);
 587:Drivers/lvgl/src/core/lv_obj.c **** 
 588:Drivers/lvgl/src/core/lv_obj.c **** #if LV_DRAW_COMPLEX
 589:Drivers/lvgl/src/core/lv_obj.c ****         if(lv_obj_get_style_clip_corner(obj, LV_PART_MAIN)) {
 590:Drivers/lvgl/src/core/lv_obj.c ****             lv_draw_mask_radius_param_t * param = lv_draw_mask_remove_custom(obj + 8);
 591:Drivers/lvgl/src/core/lv_obj.c ****             if(param) {
 592:Drivers/lvgl/src/core/lv_obj.c ****                 lv_draw_mask_free_param(param);
 593:Drivers/lvgl/src/core/lv_obj.c ****                 lv_mem_buf_release(param);
 594:Drivers/lvgl/src/core/lv_obj.c ****             }
 595:Drivers/lvgl/src/core/lv_obj.c ****         }
 596:Drivers/lvgl/src/core/lv_obj.c **** #endif
 597:Drivers/lvgl/src/core/lv_obj.c **** 
 598:Drivers/lvgl/src/core/lv_obj.c ****         /*If the border is drawn later disable loading other properties*/
 599:Drivers/lvgl/src/core/lv_obj.c ****         if(lv_obj_get_style_border_post(obj, LV_PART_MAIN)) {
 600:Drivers/lvgl/src/core/lv_obj.c ****             lv_draw_rect_dsc_t draw_dsc;
ARM GAS  /var/folders/0z/tsy30v1j4xl4_7kw94k978ww0000gn/T//ccVt8IXl.s 			page 12


 601:Drivers/lvgl/src/core/lv_obj.c ****             lv_draw_rect_dsc_init(&draw_dsc);
 602:Drivers/lvgl/src/core/lv_obj.c ****             draw_dsc.bg_opa = LV_OPA_TRANSP;
 603:Drivers/lvgl/src/core/lv_obj.c ****             draw_dsc.bg_img_opa = LV_OPA_TRANSP;
 604:Drivers/lvgl/src/core/lv_obj.c ****             draw_dsc.outline_opa = LV_OPA_TRANSP;
 605:Drivers/lvgl/src/core/lv_obj.c ****             draw_dsc.shadow_opa = LV_OPA_TRANSP;
 606:Drivers/lvgl/src/core/lv_obj.c ****             lv_obj_init_draw_rect_dsc(obj, LV_PART_MAIN, &draw_dsc);
 607:Drivers/lvgl/src/core/lv_obj.c **** 
 608:Drivers/lvgl/src/core/lv_obj.c ****             lv_coord_t w = lv_obj_get_style_transform_width(obj, LV_PART_MAIN);
 609:Drivers/lvgl/src/core/lv_obj.c ****             lv_coord_t h = lv_obj_get_style_transform_height(obj, LV_PART_MAIN);
 610:Drivers/lvgl/src/core/lv_obj.c ****             lv_area_t coords;
 611:Drivers/lvgl/src/core/lv_obj.c ****             lv_area_copy(&coords, &obj->coords);
 612:Drivers/lvgl/src/core/lv_obj.c ****             coords.x1 -= w;
 613:Drivers/lvgl/src/core/lv_obj.c ****             coords.x2 += w;
 614:Drivers/lvgl/src/core/lv_obj.c ****             coords.y1 -= h;
 615:Drivers/lvgl/src/core/lv_obj.c ****             coords.y2 += h;
 616:Drivers/lvgl/src/core/lv_obj.c **** 
 617:Drivers/lvgl/src/core/lv_obj.c ****             lv_obj_draw_part_dsc_t part_dsc;
 618:Drivers/lvgl/src/core/lv_obj.c ****             lv_obj_draw_dsc_init(&part_dsc, draw_ctx);
 619:Drivers/lvgl/src/core/lv_obj.c ****             part_dsc.class_p = MY_CLASS;
 620:Drivers/lvgl/src/core/lv_obj.c ****             part_dsc.type = LV_OBJ_DRAW_PART_BORDER_POST;
 621:Drivers/lvgl/src/core/lv_obj.c ****             part_dsc.rect_dsc = &draw_dsc;
 622:Drivers/lvgl/src/core/lv_obj.c ****             part_dsc.draw_area = &coords;
 623:Drivers/lvgl/src/core/lv_obj.c ****             part_dsc.part = LV_PART_MAIN;
 624:Drivers/lvgl/src/core/lv_obj.c ****             lv_event_send(obj, LV_EVENT_DRAW_PART_BEGIN, &part_dsc);
 625:Drivers/lvgl/src/core/lv_obj.c **** 
 626:Drivers/lvgl/src/core/lv_obj.c ****             lv_draw_rect(draw_ctx, &draw_dsc, &coords);
 627:Drivers/lvgl/src/core/lv_obj.c ****             lv_event_send(obj, LV_EVENT_DRAW_PART_END, &part_dsc);
 628:Drivers/lvgl/src/core/lv_obj.c ****         }
 629:Drivers/lvgl/src/core/lv_obj.c ****     }
 630:Drivers/lvgl/src/core/lv_obj.c **** }
 631:Drivers/lvgl/src/core/lv_obj.c **** 
 632:Drivers/lvgl/src/core/lv_obj.c **** static void draw_scrollbar(lv_obj_t * obj, lv_draw_ctx_t * draw_ctx)
 633:Drivers/lvgl/src/core/lv_obj.c **** {
 634:Drivers/lvgl/src/core/lv_obj.c **** 
 635:Drivers/lvgl/src/core/lv_obj.c ****     lv_area_t hor_area;
 636:Drivers/lvgl/src/core/lv_obj.c ****     lv_area_t ver_area;
 637:Drivers/lvgl/src/core/lv_obj.c ****     lv_obj_get_scrollbar_area(obj, &hor_area, &ver_area);
 638:Drivers/lvgl/src/core/lv_obj.c **** 
 639:Drivers/lvgl/src/core/lv_obj.c ****     if(lv_area_get_size(&hor_area) <= 0 && lv_area_get_size(&ver_area) <= 0) return;
 640:Drivers/lvgl/src/core/lv_obj.c **** 
 641:Drivers/lvgl/src/core/lv_obj.c ****     lv_draw_rect_dsc_t draw_dsc;
 642:Drivers/lvgl/src/core/lv_obj.c ****     lv_res_t sb_res = scrollbar_init_draw_dsc(obj, &draw_dsc);
 643:Drivers/lvgl/src/core/lv_obj.c ****     if(sb_res != LV_RES_OK) return;
 644:Drivers/lvgl/src/core/lv_obj.c **** 
 645:Drivers/lvgl/src/core/lv_obj.c ****     lv_obj_draw_part_dsc_t part_dsc;
 646:Drivers/lvgl/src/core/lv_obj.c ****     lv_obj_draw_dsc_init(&part_dsc, draw_ctx);
 647:Drivers/lvgl/src/core/lv_obj.c ****     part_dsc.class_p = MY_CLASS;
 648:Drivers/lvgl/src/core/lv_obj.c ****     part_dsc.type = LV_OBJ_DRAW_PART_SCROLLBAR;
 649:Drivers/lvgl/src/core/lv_obj.c ****     part_dsc.rect_dsc = &draw_dsc;
 650:Drivers/lvgl/src/core/lv_obj.c ****     part_dsc.part = LV_PART_SCROLLBAR;
 651:Drivers/lvgl/src/core/lv_obj.c **** 
 652:Drivers/lvgl/src/core/lv_obj.c ****     if(lv_area_get_size(&hor_area) > 0) {
 653:Drivers/lvgl/src/core/lv_obj.c ****         part_dsc.draw_area = &hor_area;
 654:Drivers/lvgl/src/core/lv_obj.c ****         lv_event_send(obj, LV_EVENT_DRAW_PART_BEGIN, &part_dsc);
 655:Drivers/lvgl/src/core/lv_obj.c ****         lv_draw_rect(draw_ctx, &draw_dsc, &hor_area);
 656:Drivers/lvgl/src/core/lv_obj.c ****         lv_event_send(obj, LV_EVENT_DRAW_PART_END, &part_dsc);
 657:Drivers/lvgl/src/core/lv_obj.c ****     }
ARM GAS  /var/folders/0z/tsy30v1j4xl4_7kw94k978ww0000gn/T//ccVt8IXl.s 			page 13


 658:Drivers/lvgl/src/core/lv_obj.c ****     if(lv_area_get_size(&ver_area) > 0) {
 659:Drivers/lvgl/src/core/lv_obj.c ****         part_dsc.draw_area = &ver_area;
 660:Drivers/lvgl/src/core/lv_obj.c ****         lv_event_send(obj, LV_EVENT_DRAW_PART_BEGIN, &part_dsc);
 661:Drivers/lvgl/src/core/lv_obj.c ****         part_dsc.draw_area = &ver_area;
 662:Drivers/lvgl/src/core/lv_obj.c ****         lv_draw_rect(draw_ctx, &draw_dsc, &ver_area);
 663:Drivers/lvgl/src/core/lv_obj.c ****         lv_event_send(obj, LV_EVENT_DRAW_PART_END, &part_dsc);
 664:Drivers/lvgl/src/core/lv_obj.c ****     }
 665:Drivers/lvgl/src/core/lv_obj.c **** }
 666:Drivers/lvgl/src/core/lv_obj.c **** 
 667:Drivers/lvgl/src/core/lv_obj.c **** /**
 668:Drivers/lvgl/src/core/lv_obj.c ****  * Initialize the draw descriptor for the scrollbar
 669:Drivers/lvgl/src/core/lv_obj.c ****  * @param obj pointer to an object
 670:Drivers/lvgl/src/core/lv_obj.c ****  * @param dsc the draw descriptor to initialize
 671:Drivers/lvgl/src/core/lv_obj.c ****  * @return LV_RES_OK: the scrollbar is visible; LV_RES_INV: the scrollbar is not visible
 672:Drivers/lvgl/src/core/lv_obj.c ****  */
 673:Drivers/lvgl/src/core/lv_obj.c **** static lv_res_t scrollbar_init_draw_dsc(lv_obj_t * obj, lv_draw_rect_dsc_t * dsc)
 674:Drivers/lvgl/src/core/lv_obj.c **** {
 675:Drivers/lvgl/src/core/lv_obj.c ****     lv_draw_rect_dsc_init(dsc);
 676:Drivers/lvgl/src/core/lv_obj.c ****     dsc->bg_opa = lv_obj_get_style_bg_opa(obj, LV_PART_SCROLLBAR);
 677:Drivers/lvgl/src/core/lv_obj.c ****     if(dsc->bg_opa > LV_OPA_MIN) {
 678:Drivers/lvgl/src/core/lv_obj.c ****         dsc->bg_color = lv_obj_get_style_bg_color(obj, LV_PART_SCROLLBAR);
 679:Drivers/lvgl/src/core/lv_obj.c ****     }
 680:Drivers/lvgl/src/core/lv_obj.c **** 
 681:Drivers/lvgl/src/core/lv_obj.c ****     dsc->border_opa = lv_obj_get_style_border_opa(obj, LV_PART_SCROLLBAR);
 682:Drivers/lvgl/src/core/lv_obj.c ****     if(dsc->border_opa > LV_OPA_MIN) {
 683:Drivers/lvgl/src/core/lv_obj.c ****         dsc->border_width = lv_obj_get_style_border_width(obj, LV_PART_SCROLLBAR);
 684:Drivers/lvgl/src/core/lv_obj.c ****         if(dsc->border_width > 0) {
 685:Drivers/lvgl/src/core/lv_obj.c ****             dsc->border_color = lv_obj_get_style_border_color(obj, LV_PART_SCROLLBAR);
 686:Drivers/lvgl/src/core/lv_obj.c ****         }
 687:Drivers/lvgl/src/core/lv_obj.c ****         else {
 688:Drivers/lvgl/src/core/lv_obj.c ****             dsc->border_opa = LV_OPA_TRANSP;
 689:Drivers/lvgl/src/core/lv_obj.c ****         }
 690:Drivers/lvgl/src/core/lv_obj.c ****     }
 691:Drivers/lvgl/src/core/lv_obj.c **** 
 692:Drivers/lvgl/src/core/lv_obj.c **** #if LV_DRAW_COMPLEX
 693:Drivers/lvgl/src/core/lv_obj.c ****     dsc->shadow_opa = lv_obj_get_style_shadow_opa(obj, LV_PART_SCROLLBAR);
 694:Drivers/lvgl/src/core/lv_obj.c ****     if(dsc->shadow_opa > LV_OPA_MIN) {
 695:Drivers/lvgl/src/core/lv_obj.c ****         dsc->shadow_width = lv_obj_get_style_shadow_width(obj, LV_PART_SCROLLBAR);
 696:Drivers/lvgl/src/core/lv_obj.c ****         if(dsc->shadow_width > 0) {
 697:Drivers/lvgl/src/core/lv_obj.c ****             dsc->shadow_spread = lv_obj_get_style_shadow_spread(obj, LV_PART_SCROLLBAR);
 698:Drivers/lvgl/src/core/lv_obj.c ****             dsc->shadow_color = lv_obj_get_style_shadow_color(obj, LV_PART_SCROLLBAR);
 699:Drivers/lvgl/src/core/lv_obj.c ****         }
 700:Drivers/lvgl/src/core/lv_obj.c ****         else {
 701:Drivers/lvgl/src/core/lv_obj.c ****             dsc->shadow_opa = LV_OPA_TRANSP;
 702:Drivers/lvgl/src/core/lv_obj.c ****         }
 703:Drivers/lvgl/src/core/lv_obj.c ****     }
 704:Drivers/lvgl/src/core/lv_obj.c **** 
 705:Drivers/lvgl/src/core/lv_obj.c ****     lv_opa_t opa = lv_obj_get_style_opa_recursive(obj, LV_PART_SCROLLBAR);
 706:Drivers/lvgl/src/core/lv_obj.c ****     if(opa < LV_OPA_MAX) {
 707:Drivers/lvgl/src/core/lv_obj.c ****         dsc->bg_opa = (dsc->bg_opa * opa) >> 8;
 708:Drivers/lvgl/src/core/lv_obj.c ****         dsc->border_opa = (dsc->bg_opa * opa) >> 8;
 709:Drivers/lvgl/src/core/lv_obj.c ****         dsc->shadow_opa = (dsc->bg_opa * opa) >> 8;
 710:Drivers/lvgl/src/core/lv_obj.c ****     }
 711:Drivers/lvgl/src/core/lv_obj.c **** 
 712:Drivers/lvgl/src/core/lv_obj.c ****     if(dsc->bg_opa != LV_OPA_TRANSP || dsc->border_opa != LV_OPA_TRANSP || dsc->shadow_opa != LV_OP
 713:Drivers/lvgl/src/core/lv_obj.c ****         dsc->radius = lv_obj_get_style_radius(obj, LV_PART_SCROLLBAR);
 714:Drivers/lvgl/src/core/lv_obj.c ****         return LV_RES_OK;
ARM GAS  /var/folders/0z/tsy30v1j4xl4_7kw94k978ww0000gn/T//ccVt8IXl.s 			page 14


 715:Drivers/lvgl/src/core/lv_obj.c ****     }
 716:Drivers/lvgl/src/core/lv_obj.c ****     else {
 717:Drivers/lvgl/src/core/lv_obj.c ****         return LV_RES_INV;
 718:Drivers/lvgl/src/core/lv_obj.c ****     }
 719:Drivers/lvgl/src/core/lv_obj.c **** #else
 720:Drivers/lvgl/src/core/lv_obj.c ****     if(dsc->bg_opa != LV_OPA_TRANSP || dsc->border_opa != LV_OPA_TRANSP) return LV_RES_OK;
 721:Drivers/lvgl/src/core/lv_obj.c ****     else return LV_RES_INV;
 722:Drivers/lvgl/src/core/lv_obj.c **** #endif
 723:Drivers/lvgl/src/core/lv_obj.c **** }
 724:Drivers/lvgl/src/core/lv_obj.c **** 
 725:Drivers/lvgl/src/core/lv_obj.c **** static void lv_obj_event(const lv_obj_class_t * class_p, lv_event_t * e)
 726:Drivers/lvgl/src/core/lv_obj.c **** {
 727:Drivers/lvgl/src/core/lv_obj.c ****     LV_UNUSED(class_p);
 728:Drivers/lvgl/src/core/lv_obj.c **** 
 729:Drivers/lvgl/src/core/lv_obj.c ****     lv_event_code_t code = lv_event_get_code(e);
 730:Drivers/lvgl/src/core/lv_obj.c ****     lv_obj_t * obj = lv_event_get_current_target(e);
 731:Drivers/lvgl/src/core/lv_obj.c ****     if(code == LV_EVENT_PRESSED) {
 732:Drivers/lvgl/src/core/lv_obj.c ****         lv_obj_add_state(obj, LV_STATE_PRESSED);
 733:Drivers/lvgl/src/core/lv_obj.c ****     }
 734:Drivers/lvgl/src/core/lv_obj.c ****     else if(code == LV_EVENT_RELEASED) {
 735:Drivers/lvgl/src/core/lv_obj.c ****         lv_obj_clear_state(obj, LV_STATE_PRESSED);
 736:Drivers/lvgl/src/core/lv_obj.c ****         lv_indev_t * indev = lv_event_get_indev(e);
 737:Drivers/lvgl/src/core/lv_obj.c ****         /*Go the checked state if enabled*/
 738:Drivers/lvgl/src/core/lv_obj.c ****         if(lv_indev_get_scroll_obj(indev) == NULL && lv_obj_has_flag(obj, LV_OBJ_FLAG_CHECKABLE)) {
 739:Drivers/lvgl/src/core/lv_obj.c ****             if(!(lv_obj_get_state(obj) & LV_STATE_CHECKED)) lv_obj_add_state(obj, LV_STATE_CHECKED)
 740:Drivers/lvgl/src/core/lv_obj.c ****             else lv_obj_clear_state(obj, LV_STATE_CHECKED);
 741:Drivers/lvgl/src/core/lv_obj.c **** 
 742:Drivers/lvgl/src/core/lv_obj.c ****             lv_res_t res = lv_event_send(obj, LV_EVENT_VALUE_CHANGED, NULL);
 743:Drivers/lvgl/src/core/lv_obj.c ****             if(res != LV_RES_OK) return;
 744:Drivers/lvgl/src/core/lv_obj.c ****         }
 745:Drivers/lvgl/src/core/lv_obj.c ****     }
 746:Drivers/lvgl/src/core/lv_obj.c ****     else if(code == LV_EVENT_PRESS_LOST) {
 747:Drivers/lvgl/src/core/lv_obj.c ****         lv_obj_clear_state(obj, LV_STATE_PRESSED);
 748:Drivers/lvgl/src/core/lv_obj.c ****     }
 749:Drivers/lvgl/src/core/lv_obj.c ****     else if(code == LV_EVENT_STYLE_CHANGED) {
 750:Drivers/lvgl/src/core/lv_obj.c ****         uint32_t child_cnt = lv_obj_get_child_cnt(obj);
 751:Drivers/lvgl/src/core/lv_obj.c ****         for(uint32_t i = 0; i < child_cnt; i++) {
 752:Drivers/lvgl/src/core/lv_obj.c ****             lv_obj_t * child = obj->spec_attr->children[i];
 753:Drivers/lvgl/src/core/lv_obj.c ****             lv_obj_mark_layout_as_dirty(child);
 754:Drivers/lvgl/src/core/lv_obj.c ****         }
 755:Drivers/lvgl/src/core/lv_obj.c ****     }
 756:Drivers/lvgl/src/core/lv_obj.c ****     else if(code == LV_EVENT_KEY) {
 757:Drivers/lvgl/src/core/lv_obj.c ****         if(lv_obj_has_flag(obj, LV_OBJ_FLAG_CHECKABLE)) {
 758:Drivers/lvgl/src/core/lv_obj.c ****             char c = *((char *)lv_event_get_param(e));
 759:Drivers/lvgl/src/core/lv_obj.c ****             if(c == LV_KEY_RIGHT || c == LV_KEY_UP) {
 760:Drivers/lvgl/src/core/lv_obj.c ****                 lv_obj_add_state(obj, LV_STATE_CHECKED);
 761:Drivers/lvgl/src/core/lv_obj.c ****             }
 762:Drivers/lvgl/src/core/lv_obj.c ****             else if(c == LV_KEY_LEFT || c == LV_KEY_DOWN) {
 763:Drivers/lvgl/src/core/lv_obj.c ****                 lv_obj_clear_state(obj, LV_STATE_CHECKED);
 764:Drivers/lvgl/src/core/lv_obj.c ****             }
 765:Drivers/lvgl/src/core/lv_obj.c **** 
 766:Drivers/lvgl/src/core/lv_obj.c ****             /*With Enter LV_EVENT_RELEASED will send VALUE_CHANGE event*/
 767:Drivers/lvgl/src/core/lv_obj.c ****             if(c != LV_KEY_ENTER) {
 768:Drivers/lvgl/src/core/lv_obj.c ****                 lv_res_t res = lv_event_send(obj, LV_EVENT_VALUE_CHANGED, NULL);
 769:Drivers/lvgl/src/core/lv_obj.c ****                 if(res != LV_RES_OK) return;
 770:Drivers/lvgl/src/core/lv_obj.c ****             }
 771:Drivers/lvgl/src/core/lv_obj.c ****         }
ARM GAS  /var/folders/0z/tsy30v1j4xl4_7kw94k978ww0000gn/T//ccVt8IXl.s 			page 15


 772:Drivers/lvgl/src/core/lv_obj.c ****         else if(lv_obj_has_flag(obj, LV_OBJ_FLAG_SCROLLABLE | LV_OBJ_FLAG_SCROLL_WITH_ARROW) && !lv
 773:Drivers/lvgl/src/core/lv_obj.c ****             /*scroll by keypad or encoder*/
 774:Drivers/lvgl/src/core/lv_obj.c ****             lv_anim_enable_t anim_enable = LV_ANIM_OFF;
 775:Drivers/lvgl/src/core/lv_obj.c ****             lv_coord_t sl = lv_obj_get_scroll_left(obj);
 776:Drivers/lvgl/src/core/lv_obj.c ****             lv_coord_t sr = lv_obj_get_scroll_right(obj);
 777:Drivers/lvgl/src/core/lv_obj.c ****             char c = *((char *)lv_event_get_param(e));
 778:Drivers/lvgl/src/core/lv_obj.c ****             if(c == LV_KEY_DOWN) {
 779:Drivers/lvgl/src/core/lv_obj.c ****                 /*use scroll_to_x/y functions to enforce scroll limits*/
 780:Drivers/lvgl/src/core/lv_obj.c ****                 lv_obj_scroll_to_y(obj, lv_obj_get_scroll_y(obj) + lv_obj_get_height(obj) / 4, anim
 781:Drivers/lvgl/src/core/lv_obj.c ****             }
 782:Drivers/lvgl/src/core/lv_obj.c ****             else if(c == LV_KEY_UP) {
 783:Drivers/lvgl/src/core/lv_obj.c ****                 lv_obj_scroll_to_y(obj, lv_obj_get_scroll_y(obj) - lv_obj_get_height(obj) / 4, anim
 784:Drivers/lvgl/src/core/lv_obj.c ****             }
 785:Drivers/lvgl/src/core/lv_obj.c ****             else if(c == LV_KEY_RIGHT) {
 786:Drivers/lvgl/src/core/lv_obj.c ****                 /*If the object can't be scrolled horizontally then scroll it vertically*/
 787:Drivers/lvgl/src/core/lv_obj.c ****                 if(!((lv_obj_get_scroll_dir(obj) & LV_DIR_HOR) && (sl > 0 || sr > 0)))
 788:Drivers/lvgl/src/core/lv_obj.c ****                     lv_obj_scroll_to_y(obj, lv_obj_get_scroll_y(obj) + lv_obj_get_height(obj) / 4, 
 789:Drivers/lvgl/src/core/lv_obj.c ****                 else
 790:Drivers/lvgl/src/core/lv_obj.c ****                     lv_obj_scroll_to_x(obj, lv_obj_get_scroll_x(obj) + lv_obj_get_width(obj) / 4, a
 791:Drivers/lvgl/src/core/lv_obj.c ****             }
 792:Drivers/lvgl/src/core/lv_obj.c ****             else if(c == LV_KEY_LEFT) {
 793:Drivers/lvgl/src/core/lv_obj.c ****                 /*If the object can't be scrolled horizontally then scroll it vertically*/
 794:Drivers/lvgl/src/core/lv_obj.c ****                 if(!((lv_obj_get_scroll_dir(obj) & LV_DIR_HOR) && (sl > 0 || sr > 0)))
 795:Drivers/lvgl/src/core/lv_obj.c ****                     lv_obj_scroll_to_y(obj, lv_obj_get_scroll_y(obj) - lv_obj_get_height(obj) / 4, 
 796:Drivers/lvgl/src/core/lv_obj.c ****                 else
 797:Drivers/lvgl/src/core/lv_obj.c ****                     lv_obj_scroll_to_x(obj, lv_obj_get_scroll_x(obj) - lv_obj_get_width(obj) / 4, a
 798:Drivers/lvgl/src/core/lv_obj.c ****             }
 799:Drivers/lvgl/src/core/lv_obj.c ****         }
 800:Drivers/lvgl/src/core/lv_obj.c ****     }
 801:Drivers/lvgl/src/core/lv_obj.c ****     else if(code == LV_EVENT_FOCUSED) {
 802:Drivers/lvgl/src/core/lv_obj.c ****         if(lv_obj_has_flag(obj, LV_OBJ_FLAG_SCROLL_ON_FOCUS)) {
 803:Drivers/lvgl/src/core/lv_obj.c ****             lv_obj_scroll_to_view_recursive(obj, LV_ANIM_ON);
 804:Drivers/lvgl/src/core/lv_obj.c ****         }
 805:Drivers/lvgl/src/core/lv_obj.c **** 
 806:Drivers/lvgl/src/core/lv_obj.c ****         bool editing = false;
 807:Drivers/lvgl/src/core/lv_obj.c ****         editing = lv_group_get_editing(lv_obj_get_group(obj));
 808:Drivers/lvgl/src/core/lv_obj.c ****         lv_state_t state = LV_STATE_FOCUSED;
 809:Drivers/lvgl/src/core/lv_obj.c **** 
 810:Drivers/lvgl/src/core/lv_obj.c ****         /* Use the indev for then indev handler.
 811:Drivers/lvgl/src/core/lv_obj.c ****          * But if the obj was focused manually it returns NULL so try to
 812:Drivers/lvgl/src/core/lv_obj.c ****          * use the indev from the event*/
 813:Drivers/lvgl/src/core/lv_obj.c ****         lv_indev_t * indev = lv_indev_get_act();
 814:Drivers/lvgl/src/core/lv_obj.c ****         if(indev == NULL) indev = lv_event_get_indev(e);
 815:Drivers/lvgl/src/core/lv_obj.c **** 
 816:Drivers/lvgl/src/core/lv_obj.c ****         lv_indev_type_t indev_type = lv_indev_get_type(indev);
 817:Drivers/lvgl/src/core/lv_obj.c ****         if(indev_type == LV_INDEV_TYPE_KEYPAD || indev_type == LV_INDEV_TYPE_ENCODER) state |= LV_S
 818:Drivers/lvgl/src/core/lv_obj.c ****         if(editing) {
 819:Drivers/lvgl/src/core/lv_obj.c ****             state |= LV_STATE_EDITED;
 820:Drivers/lvgl/src/core/lv_obj.c ****             lv_obj_add_state(obj, state);
 821:Drivers/lvgl/src/core/lv_obj.c ****         }
 822:Drivers/lvgl/src/core/lv_obj.c ****         else {
 823:Drivers/lvgl/src/core/lv_obj.c ****             lv_obj_add_state(obj, state);
 824:Drivers/lvgl/src/core/lv_obj.c ****             lv_obj_clear_state(obj, LV_STATE_EDITED);
 825:Drivers/lvgl/src/core/lv_obj.c ****         }
 826:Drivers/lvgl/src/core/lv_obj.c ****     }
 827:Drivers/lvgl/src/core/lv_obj.c ****     else if(code == LV_EVENT_SCROLL_BEGIN) {
 828:Drivers/lvgl/src/core/lv_obj.c ****         lv_obj_add_state(obj, LV_STATE_SCROLLED);
ARM GAS  /var/folders/0z/tsy30v1j4xl4_7kw94k978ww0000gn/T//ccVt8IXl.s 			page 16


 829:Drivers/lvgl/src/core/lv_obj.c ****     }
 830:Drivers/lvgl/src/core/lv_obj.c ****     else if(code == LV_EVENT_SCROLL_END) {
 831:Drivers/lvgl/src/core/lv_obj.c ****         lv_obj_clear_state(obj, LV_STATE_SCROLLED);
 832:Drivers/lvgl/src/core/lv_obj.c ****         if(lv_obj_get_scrollbar_mode(obj) == LV_SCROLLBAR_MODE_ACTIVE) {
 833:Drivers/lvgl/src/core/lv_obj.c ****             lv_area_t hor_area, ver_area;
 834:Drivers/lvgl/src/core/lv_obj.c ****             lv_obj_get_scrollbar_area(obj, &hor_area, &ver_area);
 835:Drivers/lvgl/src/core/lv_obj.c ****             lv_obj_invalidate_area(obj, &hor_area);
 836:Drivers/lvgl/src/core/lv_obj.c ****             lv_obj_invalidate_area(obj, &ver_area);
 837:Drivers/lvgl/src/core/lv_obj.c ****         }
 838:Drivers/lvgl/src/core/lv_obj.c ****     }
 839:Drivers/lvgl/src/core/lv_obj.c ****     else if(code == LV_EVENT_DEFOCUSED) {
 840:Drivers/lvgl/src/core/lv_obj.c ****         lv_obj_clear_state(obj, LV_STATE_FOCUSED | LV_STATE_EDITED | LV_STATE_FOCUS_KEY);
 841:Drivers/lvgl/src/core/lv_obj.c ****     }
 842:Drivers/lvgl/src/core/lv_obj.c ****     else if(code == LV_EVENT_SIZE_CHANGED) {
 843:Drivers/lvgl/src/core/lv_obj.c ****         lv_coord_t align = lv_obj_get_style_align(obj, LV_PART_MAIN);
 844:Drivers/lvgl/src/core/lv_obj.c ****         uint16_t layout = lv_obj_get_style_layout(obj, LV_PART_MAIN);
 845:Drivers/lvgl/src/core/lv_obj.c ****         if(layout || align) {
 846:Drivers/lvgl/src/core/lv_obj.c ****             lv_obj_mark_layout_as_dirty(obj);
 847:Drivers/lvgl/src/core/lv_obj.c ****         }
 848:Drivers/lvgl/src/core/lv_obj.c **** 
 849:Drivers/lvgl/src/core/lv_obj.c ****         uint32_t i;
 850:Drivers/lvgl/src/core/lv_obj.c ****         uint32_t child_cnt = lv_obj_get_child_cnt(obj);
 851:Drivers/lvgl/src/core/lv_obj.c ****         for(i = 0; i < child_cnt; i++) {
 852:Drivers/lvgl/src/core/lv_obj.c ****             lv_obj_t * child = obj->spec_attr->children[i];
 853:Drivers/lvgl/src/core/lv_obj.c ****             lv_obj_mark_layout_as_dirty(child);
 854:Drivers/lvgl/src/core/lv_obj.c ****         }
 855:Drivers/lvgl/src/core/lv_obj.c ****     }
 856:Drivers/lvgl/src/core/lv_obj.c ****     else if(code == LV_EVENT_CHILD_CHANGED) {
 857:Drivers/lvgl/src/core/lv_obj.c ****         lv_coord_t w = lv_obj_get_style_width(obj, LV_PART_MAIN);
 858:Drivers/lvgl/src/core/lv_obj.c ****         lv_coord_t h = lv_obj_get_style_height(obj, LV_PART_MAIN);
 859:Drivers/lvgl/src/core/lv_obj.c ****         lv_coord_t align = lv_obj_get_style_align(obj, LV_PART_MAIN);
 860:Drivers/lvgl/src/core/lv_obj.c ****         uint16_t layout = lv_obj_get_style_layout(obj, LV_PART_MAIN);
 861:Drivers/lvgl/src/core/lv_obj.c ****         if(layout || align || w == LV_SIZE_CONTENT || h == LV_SIZE_CONTENT) {
 862:Drivers/lvgl/src/core/lv_obj.c ****             lv_obj_mark_layout_as_dirty(obj);
 863:Drivers/lvgl/src/core/lv_obj.c ****         }
 864:Drivers/lvgl/src/core/lv_obj.c ****     }
 865:Drivers/lvgl/src/core/lv_obj.c ****     else if(code == LV_EVENT_CHILD_DELETED) {
 866:Drivers/lvgl/src/core/lv_obj.c ****         obj->readjust_scroll_after_layout = 1;
 867:Drivers/lvgl/src/core/lv_obj.c ****         lv_obj_mark_layout_as_dirty(obj);
 868:Drivers/lvgl/src/core/lv_obj.c ****     }
 869:Drivers/lvgl/src/core/lv_obj.c ****     else if(code == LV_EVENT_REFR_EXT_DRAW_SIZE) {
 870:Drivers/lvgl/src/core/lv_obj.c ****         lv_coord_t d = lv_obj_calculate_ext_draw_size(obj, LV_PART_MAIN);
 871:Drivers/lvgl/src/core/lv_obj.c ****         lv_event_set_ext_draw_size(e, d);
 872:Drivers/lvgl/src/core/lv_obj.c ****     }
 873:Drivers/lvgl/src/core/lv_obj.c ****     else if(code == LV_EVENT_DRAW_MAIN || code == LV_EVENT_DRAW_POST || code == LV_EVENT_COVER_CHEC
 874:Drivers/lvgl/src/core/lv_obj.c ****         lv_obj_draw(e);
 875:Drivers/lvgl/src/core/lv_obj.c ****     }
 876:Drivers/lvgl/src/core/lv_obj.c **** }
 877:Drivers/lvgl/src/core/lv_obj.c **** 
 878:Drivers/lvgl/src/core/lv_obj.c **** /**
 879:Drivers/lvgl/src/core/lv_obj.c ****  * Set the state (fully overwrite) of an object.
 880:Drivers/lvgl/src/core/lv_obj.c ****  * If specified in the styles, transition animations will be started from the previous state to the
 881:Drivers/lvgl/src/core/lv_obj.c ****  * @param obj       pointer to an object
 882:Drivers/lvgl/src/core/lv_obj.c ****  * @param state     the new state
 883:Drivers/lvgl/src/core/lv_obj.c ****  */
 884:Drivers/lvgl/src/core/lv_obj.c **** static void lv_obj_set_state(lv_obj_t * obj, lv_state_t new_state)
 885:Drivers/lvgl/src/core/lv_obj.c **** {
ARM GAS  /var/folders/0z/tsy30v1j4xl4_7kw94k978ww0000gn/T//ccVt8IXl.s 			page 17


 886:Drivers/lvgl/src/core/lv_obj.c ****     if(obj->state == new_state) return;
 887:Drivers/lvgl/src/core/lv_obj.c **** 
 888:Drivers/lvgl/src/core/lv_obj.c ****     LV_ASSERT_OBJ(obj, MY_CLASS);
 889:Drivers/lvgl/src/core/lv_obj.c **** 
 890:Drivers/lvgl/src/core/lv_obj.c ****     lv_state_t prev_state = obj->state;
 891:Drivers/lvgl/src/core/lv_obj.c ****     obj->state = new_state;
 892:Drivers/lvgl/src/core/lv_obj.c **** 
 893:Drivers/lvgl/src/core/lv_obj.c ****     _lv_style_state_cmp_t cmp_res = _lv_obj_style_state_compare(obj, prev_state, new_state);
 894:Drivers/lvgl/src/core/lv_obj.c ****     /*If there is no difference in styles there is nothing else to do*/
 895:Drivers/lvgl/src/core/lv_obj.c ****     if(cmp_res == _LV_STYLE_STATE_CMP_SAME) return;
 896:Drivers/lvgl/src/core/lv_obj.c **** 
 897:Drivers/lvgl/src/core/lv_obj.c ****     _lv_obj_style_transition_dsc_t * ts = lv_mem_buf_get(sizeof(_lv_obj_style_transition_dsc_t) * S
 898:Drivers/lvgl/src/core/lv_obj.c ****     lv_memset_00(ts, sizeof(_lv_obj_style_transition_dsc_t) * STYLE_TRANSITION_MAX);
 899:Drivers/lvgl/src/core/lv_obj.c ****     uint32_t tsi = 0;
 900:Drivers/lvgl/src/core/lv_obj.c ****     uint32_t i;
 901:Drivers/lvgl/src/core/lv_obj.c ****     for(i = 0; i < obj->style_cnt && tsi < STYLE_TRANSITION_MAX; i++) {
 902:Drivers/lvgl/src/core/lv_obj.c ****         _lv_obj_style_t * obj_style = &obj->styles[i];
 903:Drivers/lvgl/src/core/lv_obj.c ****         lv_state_t state_act = lv_obj_style_get_selector_state(obj->styles[i].selector);
 904:Drivers/lvgl/src/core/lv_obj.c ****         lv_part_t part_act = lv_obj_style_get_selector_part(obj->styles[i].selector);
 905:Drivers/lvgl/src/core/lv_obj.c ****         if(state_act & (~new_state)) continue; /*Skip unrelated styles*/
 906:Drivers/lvgl/src/core/lv_obj.c ****         if(obj_style->is_trans) continue;
 907:Drivers/lvgl/src/core/lv_obj.c **** 
 908:Drivers/lvgl/src/core/lv_obj.c ****         lv_style_value_t v;
 909:Drivers/lvgl/src/core/lv_obj.c ****         if(lv_style_get_prop_inlined(obj_style->style, LV_STYLE_TRANSITION, &v) != LV_STYLE_RES_FOU
 910:Drivers/lvgl/src/core/lv_obj.c ****         const lv_style_transition_dsc_t * tr = v.ptr;
 911:Drivers/lvgl/src/core/lv_obj.c **** 
 912:Drivers/lvgl/src/core/lv_obj.c ****         /*Add the props to the set if not added yet or added but with smaller weight*/
 913:Drivers/lvgl/src/core/lv_obj.c ****         uint32_t j;
 914:Drivers/lvgl/src/core/lv_obj.c ****         for(j = 0; tr->props[j] != 0 && tsi < STYLE_TRANSITION_MAX; j++) {
 915:Drivers/lvgl/src/core/lv_obj.c ****             uint32_t t;
 916:Drivers/lvgl/src/core/lv_obj.c ****             for(t = 0; t < tsi; t++) {
 917:Drivers/lvgl/src/core/lv_obj.c ****                 lv_style_selector_t selector = ts[t].selector;
 918:Drivers/lvgl/src/core/lv_obj.c ****                 lv_state_t state_ts = lv_obj_style_get_selector_state(selector);
 919:Drivers/lvgl/src/core/lv_obj.c ****                 lv_part_t part_ts = lv_obj_style_get_selector_part(selector);
 920:Drivers/lvgl/src/core/lv_obj.c ****                 if(ts[t].prop == tr->props[j] && part_ts == part_act && state_ts >= state_act) brea
 921:Drivers/lvgl/src/core/lv_obj.c ****             }
 922:Drivers/lvgl/src/core/lv_obj.c **** 
 923:Drivers/lvgl/src/core/lv_obj.c ****             /*If not found  add it*/
 924:Drivers/lvgl/src/core/lv_obj.c ****             if(t == tsi) {
 925:Drivers/lvgl/src/core/lv_obj.c ****                 ts[tsi].time = tr->time;
 926:Drivers/lvgl/src/core/lv_obj.c ****                 ts[tsi].delay = tr->delay;
 927:Drivers/lvgl/src/core/lv_obj.c ****                 ts[tsi].path_cb = tr->path_xcb;
 928:Drivers/lvgl/src/core/lv_obj.c ****                 ts[tsi].prop = tr->props[j];
 929:Drivers/lvgl/src/core/lv_obj.c **** #if LV_USE_USER_DATA
 930:Drivers/lvgl/src/core/lv_obj.c ****                 ts[tsi].user_data = tr->user_data;
 931:Drivers/lvgl/src/core/lv_obj.c **** #endif
 932:Drivers/lvgl/src/core/lv_obj.c ****                 ts[tsi].selector = obj_style->selector;
 933:Drivers/lvgl/src/core/lv_obj.c ****                 tsi++;
 934:Drivers/lvgl/src/core/lv_obj.c ****             }
 935:Drivers/lvgl/src/core/lv_obj.c ****         }
 936:Drivers/lvgl/src/core/lv_obj.c ****     }
 937:Drivers/lvgl/src/core/lv_obj.c **** 
 938:Drivers/lvgl/src/core/lv_obj.c ****     for(i = 0; i < tsi; i++) {
 939:Drivers/lvgl/src/core/lv_obj.c ****         lv_part_t part_act = lv_obj_style_get_selector_part(ts[i].selector);
 940:Drivers/lvgl/src/core/lv_obj.c ****         _lv_obj_style_create_transition(obj, part_act, prev_state, new_state, &ts[i]);
 941:Drivers/lvgl/src/core/lv_obj.c ****     }
 942:Drivers/lvgl/src/core/lv_obj.c **** 
ARM GAS  /var/folders/0z/tsy30v1j4xl4_7kw94k978ww0000gn/T//ccVt8IXl.s 			page 18


 943:Drivers/lvgl/src/core/lv_obj.c ****     lv_mem_buf_release(ts);
 944:Drivers/lvgl/src/core/lv_obj.c **** 
 945:Drivers/lvgl/src/core/lv_obj.c ****     if(cmp_res == _LV_STYLE_STATE_CMP_DIFF_REDRAW) {
 946:Drivers/lvgl/src/core/lv_obj.c ****         lv_obj_invalidate(obj);
 947:Drivers/lvgl/src/core/lv_obj.c ****     }
 948:Drivers/lvgl/src/core/lv_obj.c ****     else if(cmp_res == _LV_STYLE_STATE_CMP_DIFF_LAYOUT) {
 949:Drivers/lvgl/src/core/lv_obj.c ****         lv_obj_refresh_style(obj, LV_PART_ANY, LV_STYLE_PROP_ANY);
 950:Drivers/lvgl/src/core/lv_obj.c ****     }
 951:Drivers/lvgl/src/core/lv_obj.c ****     else if(cmp_res == _LV_STYLE_STATE_CMP_DIFF_DRAW_PAD) {
 952:Drivers/lvgl/src/core/lv_obj.c ****         lv_obj_invalidate(obj);
 953:Drivers/lvgl/src/core/lv_obj.c ****         lv_obj_refresh_ext_draw_size(obj);
 954:Drivers/lvgl/src/core/lv_obj.c ****     }
 955:Drivers/lvgl/src/core/lv_obj.c **** }
 956:Drivers/lvgl/src/core/lv_obj.c **** 
 957:Drivers/lvgl/src/core/lv_obj.c **** static bool obj_valid_child(const lv_obj_t * parent, const lv_obj_t * obj_to_find)
 958:Drivers/lvgl/src/core/lv_obj.c **** {
  29              		.loc 1 958 1 view -0
  30              		.cfi_startproc
  31              		@ args = 0, pretend = 0, frame = 0
  32              		@ frame_needed = 0, uses_anonymous_args = 0
  33              		.loc 1 958 1 is_stmt 0 view .LVU1
  34 0000 F8B5     		push	{r3, r4, r5, r6, r7, lr}
  35              		.cfi_def_cfa_offset 24
  36              		.cfi_offset 3, -24
  37              		.cfi_offset 4, -20
  38              		.cfi_offset 5, -16
  39              		.cfi_offset 6, -12
  40              		.cfi_offset 7, -8
  41              		.cfi_offset 14, -4
  42 0002 0546     		mov	r5, r0
  43 0004 0E46     		mov	r6, r1
 959:Drivers/lvgl/src/core/lv_obj.c ****     /*Check all children of `parent`*/
 960:Drivers/lvgl/src/core/lv_obj.c ****     uint32_t child_cnt = 0;
  44              		.loc 1 960 5 is_stmt 1 view .LVU2
  45              	.LVL1:
 961:Drivers/lvgl/src/core/lv_obj.c ****     if(parent->spec_attr) child_cnt = parent->spec_attr->child_cnt;
  46              		.loc 1 961 5 view .LVU3
  47              		.loc 1 961 14 is_stmt 0 view .LVU4
  48 0006 8368     		ldr	r3, [r0, #8]
  49              		.loc 1 961 7 view .LVU5
  50 0008 13B1     		cbz	r3, .L6
  51              		.loc 1 961 27 is_stmt 1 discriminator 1 view .LVU6
  52              		.loc 1 961 37 is_stmt 0 discriminator 1 view .LVU7
  53 000a 5F68     		ldr	r7, [r3, #4]
  54              	.LVL2:
  55              	.L2:
 962:Drivers/lvgl/src/core/lv_obj.c ****     uint32_t i;
  56              		.loc 1 962 5 is_stmt 1 view .LVU8
 963:Drivers/lvgl/src/core/lv_obj.c ****     for(i = 0; i < child_cnt; i++) {
  57              		.loc 1 963 5 view .LVU9
  58              		.loc 1 963 11 is_stmt 0 view .LVU10
  59 000c 0024     		movs	r4, #0
  60              		.loc 1 963 5 view .LVU11
  61 000e 02E0     		b	.L3
  62              	.LVL3:
  63              	.L6:
 960:Drivers/lvgl/src/core/lv_obj.c ****     if(parent->spec_attr) child_cnt = parent->spec_attr->child_cnt;
ARM GAS  /var/folders/0z/tsy30v1j4xl4_7kw94k978ww0000gn/T//ccVt8IXl.s 			page 19


  64              		.loc 1 960 14 view .LVU12
  65 0010 0027     		movs	r7, #0
  66 0012 FBE7     		b	.L2
  67              	.LVL4:
  68              	.L10:
  69              		.loc 1 963 32 is_stmt 1 discriminator 2 view .LVU13
  70 0014 0134     		adds	r4, r4, #1
  71              	.LVL5:
  72              	.L3:
  73              		.loc 1 963 18 discriminator 1 view .LVU14
  74 0016 A742     		cmp	r7, r4
  75 0018 0BD9     		bls	.L9
  76              	.LBB95:
 964:Drivers/lvgl/src/core/lv_obj.c ****         lv_obj_t * child = parent->spec_attr->children[i];
  77              		.loc 1 964 9 view .LVU15
  78              		.loc 1 964 34 is_stmt 0 view .LVU16
  79 001a AB68     		ldr	r3, [r5, #8]
  80              		.loc 1 964 45 view .LVU17
  81 001c 1B68     		ldr	r3, [r3]
  82              		.loc 1 964 20 view .LVU18
  83 001e 53F82400 		ldr	r0, [r3, r4, lsl #2]
  84              	.LVL6:
 965:Drivers/lvgl/src/core/lv_obj.c ****         if(child == obj_to_find) {
  85              		.loc 1 965 9 is_stmt 1 view .LVU19
  86              		.loc 1 965 11 is_stmt 0 view .LVU20
  87 0022 B042     		cmp	r0, r6
  88 0024 07D0     		beq	.L7
 966:Drivers/lvgl/src/core/lv_obj.c ****             return true;
 967:Drivers/lvgl/src/core/lv_obj.c ****         }
 968:Drivers/lvgl/src/core/lv_obj.c **** 
 969:Drivers/lvgl/src/core/lv_obj.c ****         /*Check the children*/
 970:Drivers/lvgl/src/core/lv_obj.c ****         bool found = obj_valid_child(child, obj_to_find);
  89              		.loc 1 970 9 is_stmt 1 view .LVU21
  90              		.loc 1 970 22 is_stmt 0 view .LVU22
  91 0026 3146     		mov	r1, r6
  92 0028 FFF7EAFF 		bl	obj_valid_child
  93              	.LVL7:
 971:Drivers/lvgl/src/core/lv_obj.c ****         if(found) {
  94              		.loc 1 971 9 is_stmt 1 view .LVU23
  95              		.loc 1 971 11 is_stmt 0 view .LVU24
  96 002c 0028     		cmp	r0, #0
  97 002e F1D0     		beq	.L10
  98 0030 00E0     		b	.L4
  99              	.LVL8:
 100              	.L9:
 101              		.loc 1 971 11 view .LVU25
 102              	.LBE95:
 972:Drivers/lvgl/src/core/lv_obj.c ****             return true;
 973:Drivers/lvgl/src/core/lv_obj.c ****         }
 974:Drivers/lvgl/src/core/lv_obj.c ****     }
 975:Drivers/lvgl/src/core/lv_obj.c ****     return false;
 103              		.loc 1 975 12 view .LVU26
 104 0032 0020     		movs	r0, #0
 105              	.L4:
 976:Drivers/lvgl/src/core/lv_obj.c **** }
 106              		.loc 1 976 1 view .LVU27
 107 0034 F8BD     		pop	{r3, r4, r5, r6, r7, pc}
ARM GAS  /var/folders/0z/tsy30v1j4xl4_7kw94k978ww0000gn/T//ccVt8IXl.s 			page 20


 108              	.LVL9:
 109              	.L7:
 110              	.LBB96:
 966:Drivers/lvgl/src/core/lv_obj.c ****         }
 111              		.loc 1 966 20 view .LVU28
 112 0036 0120     		movs	r0, #1
 113              	.LVL10:
 966:Drivers/lvgl/src/core/lv_obj.c ****         }
 114              		.loc 1 966 20 view .LVU29
 115 0038 FCE7     		b	.L4
 116              	.LBE96:
 117              		.cfi_endproc
 118              	.LFE229:
 120              		.section	.text.scrollbar_init_draw_dsc,"ax",%progbits
 121              		.align	1
 122              		.syntax unified
 123              		.thumb
 124              		.thumb_func
 126              	scrollbar_init_draw_dsc:
 127              	.LVL11:
 128              	.LFB226:
 674:Drivers/lvgl/src/core/lv_obj.c ****     lv_draw_rect_dsc_init(dsc);
 129              		.loc 1 674 1 is_stmt 1 view -0
 130              		.cfi_startproc
 131              		@ args = 0, pretend = 0, frame = 0
 132              		@ frame_needed = 0, uses_anonymous_args = 0
 674:Drivers/lvgl/src/core/lv_obj.c ****     lv_draw_rect_dsc_init(dsc);
 133              		.loc 1 674 1 is_stmt 0 view .LVU31
 134 0000 38B5     		push	{r3, r4, r5, lr}
 135              		.cfi_def_cfa_offset 16
 136              		.cfi_offset 3, -16
 137              		.cfi_offset 4, -12
 138              		.cfi_offset 5, -8
 139              		.cfi_offset 14, -4
 140 0002 0546     		mov	r5, r0
 141 0004 0C46     		mov	r4, r1
 675:Drivers/lvgl/src/core/lv_obj.c ****     dsc->bg_opa = lv_obj_get_style_bg_opa(obj, LV_PART_SCROLLBAR);
 142              		.loc 1 675 5 is_stmt 1 view .LVU32
 143 0006 0846     		mov	r0, r1
 144              	.LVL12:
 675:Drivers/lvgl/src/core/lv_obj.c ****     dsc->bg_opa = lv_obj_get_style_bg_opa(obj, LV_PART_SCROLLBAR);
 145              		.loc 1 675 5 is_stmt 0 view .LVU33
 146 0008 FFF7FEFF 		bl	lv_draw_rect_dsc_init
 147              	.LVL13:
 676:Drivers/lvgl/src/core/lv_obj.c ****     if(dsc->bg_opa > LV_OPA_MIN) {
 148              		.loc 1 676 5 is_stmt 1 view .LVU34
 149              	.LBB97:
 150              	.LBI97:
 151              		.file 2 "Drivers/lvgl/src/core/lv_obj_style_gen.h"
   1:Drivers/lvgl/src/core/lv_obj_style_gen.h **** static inline lv_coord_t lv_obj_get_style_width(const struct _lv_obj_t * obj, uint32_t part)
   2:Drivers/lvgl/src/core/lv_obj_style_gen.h **** {
   3:Drivers/lvgl/src/core/lv_obj_style_gen.h ****     lv_style_value_t v = lv_obj_get_style_prop(obj, part, LV_STYLE_WIDTH);
   4:Drivers/lvgl/src/core/lv_obj_style_gen.h ****     return (lv_coord_t)v.num;
   5:Drivers/lvgl/src/core/lv_obj_style_gen.h **** }
   6:Drivers/lvgl/src/core/lv_obj_style_gen.h **** 
   7:Drivers/lvgl/src/core/lv_obj_style_gen.h **** static inline lv_coord_t lv_obj_get_style_min_width(const struct _lv_obj_t * obj, uint32_t part)
   8:Drivers/lvgl/src/core/lv_obj_style_gen.h **** {
ARM GAS  /var/folders/0z/tsy30v1j4xl4_7kw94k978ww0000gn/T//ccVt8IXl.s 			page 21


   9:Drivers/lvgl/src/core/lv_obj_style_gen.h ****     lv_style_value_t v = lv_obj_get_style_prop(obj, part, LV_STYLE_MIN_WIDTH);
  10:Drivers/lvgl/src/core/lv_obj_style_gen.h ****     return (lv_coord_t)v.num;
  11:Drivers/lvgl/src/core/lv_obj_style_gen.h **** }
  12:Drivers/lvgl/src/core/lv_obj_style_gen.h **** 
  13:Drivers/lvgl/src/core/lv_obj_style_gen.h **** static inline lv_coord_t lv_obj_get_style_max_width(const struct _lv_obj_t * obj, uint32_t part)
  14:Drivers/lvgl/src/core/lv_obj_style_gen.h **** {
  15:Drivers/lvgl/src/core/lv_obj_style_gen.h ****     lv_style_value_t v = lv_obj_get_style_prop(obj, part, LV_STYLE_MAX_WIDTH);
  16:Drivers/lvgl/src/core/lv_obj_style_gen.h ****     return (lv_coord_t)v.num;
  17:Drivers/lvgl/src/core/lv_obj_style_gen.h **** }
  18:Drivers/lvgl/src/core/lv_obj_style_gen.h **** 
  19:Drivers/lvgl/src/core/lv_obj_style_gen.h **** static inline lv_coord_t lv_obj_get_style_height(const struct _lv_obj_t * obj, uint32_t part)
  20:Drivers/lvgl/src/core/lv_obj_style_gen.h **** {
  21:Drivers/lvgl/src/core/lv_obj_style_gen.h ****     lv_style_value_t v = lv_obj_get_style_prop(obj, part, LV_STYLE_HEIGHT);
  22:Drivers/lvgl/src/core/lv_obj_style_gen.h ****     return (lv_coord_t)v.num;
  23:Drivers/lvgl/src/core/lv_obj_style_gen.h **** }
  24:Drivers/lvgl/src/core/lv_obj_style_gen.h **** 
  25:Drivers/lvgl/src/core/lv_obj_style_gen.h **** static inline lv_coord_t lv_obj_get_style_min_height(const struct _lv_obj_t * obj, uint32_t part)
  26:Drivers/lvgl/src/core/lv_obj_style_gen.h **** {
  27:Drivers/lvgl/src/core/lv_obj_style_gen.h ****     lv_style_value_t v = lv_obj_get_style_prop(obj, part, LV_STYLE_MIN_HEIGHT);
  28:Drivers/lvgl/src/core/lv_obj_style_gen.h ****     return (lv_coord_t)v.num;
  29:Drivers/lvgl/src/core/lv_obj_style_gen.h **** }
  30:Drivers/lvgl/src/core/lv_obj_style_gen.h **** 
  31:Drivers/lvgl/src/core/lv_obj_style_gen.h **** static inline lv_coord_t lv_obj_get_style_max_height(const struct _lv_obj_t * obj, uint32_t part)
  32:Drivers/lvgl/src/core/lv_obj_style_gen.h **** {
  33:Drivers/lvgl/src/core/lv_obj_style_gen.h ****     lv_style_value_t v = lv_obj_get_style_prop(obj, part, LV_STYLE_MAX_HEIGHT);
  34:Drivers/lvgl/src/core/lv_obj_style_gen.h ****     return (lv_coord_t)v.num;
  35:Drivers/lvgl/src/core/lv_obj_style_gen.h **** }
  36:Drivers/lvgl/src/core/lv_obj_style_gen.h **** 
  37:Drivers/lvgl/src/core/lv_obj_style_gen.h **** static inline lv_coord_t lv_obj_get_style_x(const struct _lv_obj_t * obj, uint32_t part)
  38:Drivers/lvgl/src/core/lv_obj_style_gen.h **** {
  39:Drivers/lvgl/src/core/lv_obj_style_gen.h ****     lv_style_value_t v = lv_obj_get_style_prop(obj, part, LV_STYLE_X);
  40:Drivers/lvgl/src/core/lv_obj_style_gen.h ****     return (lv_coord_t)v.num;
  41:Drivers/lvgl/src/core/lv_obj_style_gen.h **** }
  42:Drivers/lvgl/src/core/lv_obj_style_gen.h **** 
  43:Drivers/lvgl/src/core/lv_obj_style_gen.h **** static inline lv_coord_t lv_obj_get_style_y(const struct _lv_obj_t * obj, uint32_t part)
  44:Drivers/lvgl/src/core/lv_obj_style_gen.h **** {
  45:Drivers/lvgl/src/core/lv_obj_style_gen.h ****     lv_style_value_t v = lv_obj_get_style_prop(obj, part, LV_STYLE_Y);
  46:Drivers/lvgl/src/core/lv_obj_style_gen.h ****     return (lv_coord_t)v.num;
  47:Drivers/lvgl/src/core/lv_obj_style_gen.h **** }
  48:Drivers/lvgl/src/core/lv_obj_style_gen.h **** 
  49:Drivers/lvgl/src/core/lv_obj_style_gen.h **** static inline lv_align_t lv_obj_get_style_align(const struct _lv_obj_t * obj, uint32_t part)
  50:Drivers/lvgl/src/core/lv_obj_style_gen.h **** {
  51:Drivers/lvgl/src/core/lv_obj_style_gen.h ****     lv_style_value_t v = lv_obj_get_style_prop(obj, part, LV_STYLE_ALIGN);
  52:Drivers/lvgl/src/core/lv_obj_style_gen.h ****     return (lv_align_t)v.num;
  53:Drivers/lvgl/src/core/lv_obj_style_gen.h **** }
  54:Drivers/lvgl/src/core/lv_obj_style_gen.h **** 
  55:Drivers/lvgl/src/core/lv_obj_style_gen.h **** static inline lv_coord_t lv_obj_get_style_transform_width(const struct _lv_obj_t * obj, uint32_t pa
  56:Drivers/lvgl/src/core/lv_obj_style_gen.h **** {
  57:Drivers/lvgl/src/core/lv_obj_style_gen.h ****     lv_style_value_t v = lv_obj_get_style_prop(obj, part, LV_STYLE_TRANSFORM_WIDTH);
  58:Drivers/lvgl/src/core/lv_obj_style_gen.h ****     return (lv_coord_t)v.num;
  59:Drivers/lvgl/src/core/lv_obj_style_gen.h **** }
  60:Drivers/lvgl/src/core/lv_obj_style_gen.h **** 
  61:Drivers/lvgl/src/core/lv_obj_style_gen.h **** static inline lv_coord_t lv_obj_get_style_transform_height(const struct _lv_obj_t * obj, uint32_t p
  62:Drivers/lvgl/src/core/lv_obj_style_gen.h **** {
  63:Drivers/lvgl/src/core/lv_obj_style_gen.h ****     lv_style_value_t v = lv_obj_get_style_prop(obj, part, LV_STYLE_TRANSFORM_HEIGHT);
  64:Drivers/lvgl/src/core/lv_obj_style_gen.h ****     return (lv_coord_t)v.num;
  65:Drivers/lvgl/src/core/lv_obj_style_gen.h **** }
ARM GAS  /var/folders/0z/tsy30v1j4xl4_7kw94k978ww0000gn/T//ccVt8IXl.s 			page 22


  66:Drivers/lvgl/src/core/lv_obj_style_gen.h **** 
  67:Drivers/lvgl/src/core/lv_obj_style_gen.h **** static inline lv_coord_t lv_obj_get_style_translate_x(const struct _lv_obj_t * obj, uint32_t part)
  68:Drivers/lvgl/src/core/lv_obj_style_gen.h **** {
  69:Drivers/lvgl/src/core/lv_obj_style_gen.h ****     lv_style_value_t v = lv_obj_get_style_prop(obj, part, LV_STYLE_TRANSLATE_X);
  70:Drivers/lvgl/src/core/lv_obj_style_gen.h ****     return (lv_coord_t)v.num;
  71:Drivers/lvgl/src/core/lv_obj_style_gen.h **** }
  72:Drivers/lvgl/src/core/lv_obj_style_gen.h **** 
  73:Drivers/lvgl/src/core/lv_obj_style_gen.h **** static inline lv_coord_t lv_obj_get_style_translate_y(const struct _lv_obj_t * obj, uint32_t part)
  74:Drivers/lvgl/src/core/lv_obj_style_gen.h **** {
  75:Drivers/lvgl/src/core/lv_obj_style_gen.h ****     lv_style_value_t v = lv_obj_get_style_prop(obj, part, LV_STYLE_TRANSLATE_Y);
  76:Drivers/lvgl/src/core/lv_obj_style_gen.h ****     return (lv_coord_t)v.num;
  77:Drivers/lvgl/src/core/lv_obj_style_gen.h **** }
  78:Drivers/lvgl/src/core/lv_obj_style_gen.h **** 
  79:Drivers/lvgl/src/core/lv_obj_style_gen.h **** static inline lv_coord_t lv_obj_get_style_transform_zoom(const struct _lv_obj_t * obj, uint32_t par
  80:Drivers/lvgl/src/core/lv_obj_style_gen.h **** {
  81:Drivers/lvgl/src/core/lv_obj_style_gen.h ****     lv_style_value_t v = lv_obj_get_style_prop(obj, part, LV_STYLE_TRANSFORM_ZOOM);
  82:Drivers/lvgl/src/core/lv_obj_style_gen.h ****     return (lv_coord_t)v.num;
  83:Drivers/lvgl/src/core/lv_obj_style_gen.h **** }
  84:Drivers/lvgl/src/core/lv_obj_style_gen.h **** 
  85:Drivers/lvgl/src/core/lv_obj_style_gen.h **** static inline lv_coord_t lv_obj_get_style_transform_angle(const struct _lv_obj_t * obj, uint32_t pa
  86:Drivers/lvgl/src/core/lv_obj_style_gen.h **** {
  87:Drivers/lvgl/src/core/lv_obj_style_gen.h ****     lv_style_value_t v = lv_obj_get_style_prop(obj, part, LV_STYLE_TRANSFORM_ANGLE);
  88:Drivers/lvgl/src/core/lv_obj_style_gen.h ****     return (lv_coord_t)v.num;
  89:Drivers/lvgl/src/core/lv_obj_style_gen.h **** }
  90:Drivers/lvgl/src/core/lv_obj_style_gen.h **** 
  91:Drivers/lvgl/src/core/lv_obj_style_gen.h **** static inline lv_coord_t lv_obj_get_style_transform_pivot_x(const struct _lv_obj_t * obj, uint32_t 
  92:Drivers/lvgl/src/core/lv_obj_style_gen.h **** {
  93:Drivers/lvgl/src/core/lv_obj_style_gen.h ****     lv_style_value_t v = lv_obj_get_style_prop(obj, part, LV_STYLE_TRANSFORM_PIVOT_X);
  94:Drivers/lvgl/src/core/lv_obj_style_gen.h ****     return (lv_coord_t)v.num;
  95:Drivers/lvgl/src/core/lv_obj_style_gen.h **** }
  96:Drivers/lvgl/src/core/lv_obj_style_gen.h **** 
  97:Drivers/lvgl/src/core/lv_obj_style_gen.h **** static inline lv_coord_t lv_obj_get_style_transform_pivot_y(const struct _lv_obj_t * obj, uint32_t 
  98:Drivers/lvgl/src/core/lv_obj_style_gen.h **** {
  99:Drivers/lvgl/src/core/lv_obj_style_gen.h ****     lv_style_value_t v = lv_obj_get_style_prop(obj, part, LV_STYLE_TRANSFORM_PIVOT_Y);
 100:Drivers/lvgl/src/core/lv_obj_style_gen.h ****     return (lv_coord_t)v.num;
 101:Drivers/lvgl/src/core/lv_obj_style_gen.h **** }
 102:Drivers/lvgl/src/core/lv_obj_style_gen.h **** 
 103:Drivers/lvgl/src/core/lv_obj_style_gen.h **** static inline lv_coord_t lv_obj_get_style_pad_top(const struct _lv_obj_t * obj, uint32_t part)
 104:Drivers/lvgl/src/core/lv_obj_style_gen.h **** {
 105:Drivers/lvgl/src/core/lv_obj_style_gen.h ****     lv_style_value_t v = lv_obj_get_style_prop(obj, part, LV_STYLE_PAD_TOP);
 106:Drivers/lvgl/src/core/lv_obj_style_gen.h ****     return (lv_coord_t)v.num;
 107:Drivers/lvgl/src/core/lv_obj_style_gen.h **** }
 108:Drivers/lvgl/src/core/lv_obj_style_gen.h **** 
 109:Drivers/lvgl/src/core/lv_obj_style_gen.h **** static inline lv_coord_t lv_obj_get_style_pad_bottom(const struct _lv_obj_t * obj, uint32_t part)
 110:Drivers/lvgl/src/core/lv_obj_style_gen.h **** {
 111:Drivers/lvgl/src/core/lv_obj_style_gen.h ****     lv_style_value_t v = lv_obj_get_style_prop(obj, part, LV_STYLE_PAD_BOTTOM);
 112:Drivers/lvgl/src/core/lv_obj_style_gen.h ****     return (lv_coord_t)v.num;
 113:Drivers/lvgl/src/core/lv_obj_style_gen.h **** }
 114:Drivers/lvgl/src/core/lv_obj_style_gen.h **** 
 115:Drivers/lvgl/src/core/lv_obj_style_gen.h **** static inline lv_coord_t lv_obj_get_style_pad_left(const struct _lv_obj_t * obj, uint32_t part)
 116:Drivers/lvgl/src/core/lv_obj_style_gen.h **** {
 117:Drivers/lvgl/src/core/lv_obj_style_gen.h ****     lv_style_value_t v = lv_obj_get_style_prop(obj, part, LV_STYLE_PAD_LEFT);
 118:Drivers/lvgl/src/core/lv_obj_style_gen.h ****     return (lv_coord_t)v.num;
 119:Drivers/lvgl/src/core/lv_obj_style_gen.h **** }
 120:Drivers/lvgl/src/core/lv_obj_style_gen.h **** 
 121:Drivers/lvgl/src/core/lv_obj_style_gen.h **** static inline lv_coord_t lv_obj_get_style_pad_right(const struct _lv_obj_t * obj, uint32_t part)
 122:Drivers/lvgl/src/core/lv_obj_style_gen.h **** {
ARM GAS  /var/folders/0z/tsy30v1j4xl4_7kw94k978ww0000gn/T//ccVt8IXl.s 			page 23


 123:Drivers/lvgl/src/core/lv_obj_style_gen.h ****     lv_style_value_t v = lv_obj_get_style_prop(obj, part, LV_STYLE_PAD_RIGHT);
 124:Drivers/lvgl/src/core/lv_obj_style_gen.h ****     return (lv_coord_t)v.num;
 125:Drivers/lvgl/src/core/lv_obj_style_gen.h **** }
 126:Drivers/lvgl/src/core/lv_obj_style_gen.h **** 
 127:Drivers/lvgl/src/core/lv_obj_style_gen.h **** static inline lv_coord_t lv_obj_get_style_pad_row(const struct _lv_obj_t * obj, uint32_t part)
 128:Drivers/lvgl/src/core/lv_obj_style_gen.h **** {
 129:Drivers/lvgl/src/core/lv_obj_style_gen.h ****     lv_style_value_t v = lv_obj_get_style_prop(obj, part, LV_STYLE_PAD_ROW);
 130:Drivers/lvgl/src/core/lv_obj_style_gen.h ****     return (lv_coord_t)v.num;
 131:Drivers/lvgl/src/core/lv_obj_style_gen.h **** }
 132:Drivers/lvgl/src/core/lv_obj_style_gen.h **** 
 133:Drivers/lvgl/src/core/lv_obj_style_gen.h **** static inline lv_coord_t lv_obj_get_style_pad_column(const struct _lv_obj_t * obj, uint32_t part)
 134:Drivers/lvgl/src/core/lv_obj_style_gen.h **** {
 135:Drivers/lvgl/src/core/lv_obj_style_gen.h ****     lv_style_value_t v = lv_obj_get_style_prop(obj, part, LV_STYLE_PAD_COLUMN);
 136:Drivers/lvgl/src/core/lv_obj_style_gen.h ****     return (lv_coord_t)v.num;
 137:Drivers/lvgl/src/core/lv_obj_style_gen.h **** }
 138:Drivers/lvgl/src/core/lv_obj_style_gen.h **** 
 139:Drivers/lvgl/src/core/lv_obj_style_gen.h **** static inline lv_color_t lv_obj_get_style_bg_color(const struct _lv_obj_t * obj, uint32_t part)
 140:Drivers/lvgl/src/core/lv_obj_style_gen.h **** {
 141:Drivers/lvgl/src/core/lv_obj_style_gen.h ****     lv_style_value_t v = lv_obj_get_style_prop(obj, part, LV_STYLE_BG_COLOR);
 142:Drivers/lvgl/src/core/lv_obj_style_gen.h ****     return v.color;
 143:Drivers/lvgl/src/core/lv_obj_style_gen.h **** }
 144:Drivers/lvgl/src/core/lv_obj_style_gen.h **** 
 145:Drivers/lvgl/src/core/lv_obj_style_gen.h **** static inline lv_color_t lv_obj_get_style_bg_color_filtered(const struct _lv_obj_t * obj, uint32_t 
 146:Drivers/lvgl/src/core/lv_obj_style_gen.h **** {
 147:Drivers/lvgl/src/core/lv_obj_style_gen.h ****     lv_style_value_t v = _lv_obj_style_apply_color_filter(obj, part, lv_obj_get_style_prop(obj, par
 148:Drivers/lvgl/src/core/lv_obj_style_gen.h ****     return v.color;
 149:Drivers/lvgl/src/core/lv_obj_style_gen.h **** }
 150:Drivers/lvgl/src/core/lv_obj_style_gen.h **** 
 151:Drivers/lvgl/src/core/lv_obj_style_gen.h **** static inline lv_opa_t lv_obj_get_style_bg_opa(const struct _lv_obj_t * obj, uint32_t part)
 152              		.loc 2 151 24 view .LVU35
 153              	.LBB98:
 152:Drivers/lvgl/src/core/lv_obj_style_gen.h **** {
 153:Drivers/lvgl/src/core/lv_obj_style_gen.h ****     lv_style_value_t v = lv_obj_get_style_prop(obj, part, LV_STYLE_BG_OPA);
 154              		.loc 2 153 5 view .LVU36
 155              		.loc 2 153 26 is_stmt 0 view .LVU37
 156 000c 2122     		movs	r2, #33
 157 000e 4FF48031 		mov	r1, #65536
 158 0012 2846     		mov	r0, r5
 159 0014 FFF7FEFF 		bl	lv_obj_get_style_prop
 160              	.LVL14:
 154:Drivers/lvgl/src/core/lv_obj_style_gen.h ****     return (lv_opa_t)v.num;
 161              		.loc 2 154 5 is_stmt 1 view .LVU38
 162              		.loc 2 154 12 is_stmt 0 view .LVU39
 163 0018 C0B2     		uxtb	r0, r0
 164              	.LVL15:
 165              		.loc 2 154 12 view .LVU40
 166              	.LBE98:
 167              	.LBE97:
 676:Drivers/lvgl/src/core/lv_obj.c ****     if(dsc->bg_opa > LV_OPA_MIN) {
 168              		.loc 1 676 17 view .LVU41
 169 001a E070     		strb	r0, [r4, #3]
 677:Drivers/lvgl/src/core/lv_obj.c ****         dsc->bg_color = lv_obj_get_style_bg_color(obj, LV_PART_SCROLLBAR);
 170              		.loc 1 677 5 is_stmt 1 view .LVU42
 677:Drivers/lvgl/src/core/lv_obj.c ****         dsc->bg_color = lv_obj_get_style_bg_color(obj, LV_PART_SCROLLBAR);
 171              		.loc 1 677 7 is_stmt 0 view .LVU43
 172 001c 0228     		cmp	r0, #2
 173 001e 3BD8     		bhi	.L21
ARM GAS  /var/folders/0z/tsy30v1j4xl4_7kw94k978ww0000gn/T//ccVt8IXl.s 			page 24


 174              	.L12:
 681:Drivers/lvgl/src/core/lv_obj.c ****     if(dsc->border_opa > LV_OPA_MIN) {
 175              		.loc 1 681 5 is_stmt 1 view .LVU44
 176              	.LVL16:
 177              	.LBB99:
 178              	.LBI99:
 155:Drivers/lvgl/src/core/lv_obj_style_gen.h **** }
 156:Drivers/lvgl/src/core/lv_obj_style_gen.h **** 
 157:Drivers/lvgl/src/core/lv_obj_style_gen.h **** static inline lv_color_t lv_obj_get_style_bg_grad_color(const struct _lv_obj_t * obj, uint32_t part
 158:Drivers/lvgl/src/core/lv_obj_style_gen.h **** {
 159:Drivers/lvgl/src/core/lv_obj_style_gen.h ****     lv_style_value_t v = lv_obj_get_style_prop(obj, part, LV_STYLE_BG_GRAD_COLOR);
 160:Drivers/lvgl/src/core/lv_obj_style_gen.h ****     return v.color;
 161:Drivers/lvgl/src/core/lv_obj_style_gen.h **** }
 162:Drivers/lvgl/src/core/lv_obj_style_gen.h **** 
 163:Drivers/lvgl/src/core/lv_obj_style_gen.h **** static inline lv_color_t lv_obj_get_style_bg_grad_color_filtered(const struct _lv_obj_t * obj, uint
 164:Drivers/lvgl/src/core/lv_obj_style_gen.h **** {
 165:Drivers/lvgl/src/core/lv_obj_style_gen.h ****     lv_style_value_t v = _lv_obj_style_apply_color_filter(obj, part, lv_obj_get_style_prop(obj, par
 166:Drivers/lvgl/src/core/lv_obj_style_gen.h ****     return v.color;
 167:Drivers/lvgl/src/core/lv_obj_style_gen.h **** }
 168:Drivers/lvgl/src/core/lv_obj_style_gen.h **** 
 169:Drivers/lvgl/src/core/lv_obj_style_gen.h **** static inline lv_grad_dir_t lv_obj_get_style_bg_grad_dir(const struct _lv_obj_t * obj, uint32_t par
 170:Drivers/lvgl/src/core/lv_obj_style_gen.h **** {
 171:Drivers/lvgl/src/core/lv_obj_style_gen.h ****     lv_style_value_t v = lv_obj_get_style_prop(obj, part, LV_STYLE_BG_GRAD_DIR);
 172:Drivers/lvgl/src/core/lv_obj_style_gen.h ****     return (lv_grad_dir_t)v.num;
 173:Drivers/lvgl/src/core/lv_obj_style_gen.h **** }
 174:Drivers/lvgl/src/core/lv_obj_style_gen.h **** 
 175:Drivers/lvgl/src/core/lv_obj_style_gen.h **** static inline lv_coord_t lv_obj_get_style_bg_main_stop(const struct _lv_obj_t * obj, uint32_t part)
 176:Drivers/lvgl/src/core/lv_obj_style_gen.h **** {
 177:Drivers/lvgl/src/core/lv_obj_style_gen.h ****     lv_style_value_t v = lv_obj_get_style_prop(obj, part, LV_STYLE_BG_MAIN_STOP);
 178:Drivers/lvgl/src/core/lv_obj_style_gen.h ****     return (lv_coord_t)v.num;
 179:Drivers/lvgl/src/core/lv_obj_style_gen.h **** }
 180:Drivers/lvgl/src/core/lv_obj_style_gen.h **** 
 181:Drivers/lvgl/src/core/lv_obj_style_gen.h **** static inline lv_coord_t lv_obj_get_style_bg_grad_stop(const struct _lv_obj_t * obj, uint32_t part)
 182:Drivers/lvgl/src/core/lv_obj_style_gen.h **** {
 183:Drivers/lvgl/src/core/lv_obj_style_gen.h ****     lv_style_value_t v = lv_obj_get_style_prop(obj, part, LV_STYLE_BG_GRAD_STOP);
 184:Drivers/lvgl/src/core/lv_obj_style_gen.h ****     return (lv_coord_t)v.num;
 185:Drivers/lvgl/src/core/lv_obj_style_gen.h **** }
 186:Drivers/lvgl/src/core/lv_obj_style_gen.h **** 
 187:Drivers/lvgl/src/core/lv_obj_style_gen.h **** static inline const lv_grad_dsc_t * lv_obj_get_style_bg_grad(const struct _lv_obj_t * obj, uint32_t
 188:Drivers/lvgl/src/core/lv_obj_style_gen.h **** {
 189:Drivers/lvgl/src/core/lv_obj_style_gen.h ****     lv_style_value_t v = lv_obj_get_style_prop(obj, part, LV_STYLE_BG_GRAD);
 190:Drivers/lvgl/src/core/lv_obj_style_gen.h ****     return (const lv_grad_dsc_t *)v.ptr;
 191:Drivers/lvgl/src/core/lv_obj_style_gen.h **** }
 192:Drivers/lvgl/src/core/lv_obj_style_gen.h **** 
 193:Drivers/lvgl/src/core/lv_obj_style_gen.h **** static inline lv_dither_mode_t lv_obj_get_style_bg_dither_mode(const struct _lv_obj_t * obj, uint32
 194:Drivers/lvgl/src/core/lv_obj_style_gen.h **** {
 195:Drivers/lvgl/src/core/lv_obj_style_gen.h ****     lv_style_value_t v = lv_obj_get_style_prop(obj, part, LV_STYLE_BG_DITHER_MODE);
 196:Drivers/lvgl/src/core/lv_obj_style_gen.h ****     return (lv_dither_mode_t)v.num;
 197:Drivers/lvgl/src/core/lv_obj_style_gen.h **** }
 198:Drivers/lvgl/src/core/lv_obj_style_gen.h **** 
 199:Drivers/lvgl/src/core/lv_obj_style_gen.h **** static inline const void * lv_obj_get_style_bg_img_src(const struct _lv_obj_t * obj, uint32_t part)
 200:Drivers/lvgl/src/core/lv_obj_style_gen.h **** {
 201:Drivers/lvgl/src/core/lv_obj_style_gen.h ****     lv_style_value_t v = lv_obj_get_style_prop(obj, part, LV_STYLE_BG_IMG_SRC);
 202:Drivers/lvgl/src/core/lv_obj_style_gen.h ****     return (const void *)v.ptr;
 203:Drivers/lvgl/src/core/lv_obj_style_gen.h **** }
 204:Drivers/lvgl/src/core/lv_obj_style_gen.h **** 
 205:Drivers/lvgl/src/core/lv_obj_style_gen.h **** static inline lv_opa_t lv_obj_get_style_bg_img_opa(const struct _lv_obj_t * obj, uint32_t part)
ARM GAS  /var/folders/0z/tsy30v1j4xl4_7kw94k978ww0000gn/T//ccVt8IXl.s 			page 25


 206:Drivers/lvgl/src/core/lv_obj_style_gen.h **** {
 207:Drivers/lvgl/src/core/lv_obj_style_gen.h ****     lv_style_value_t v = lv_obj_get_style_prop(obj, part, LV_STYLE_BG_IMG_OPA);
 208:Drivers/lvgl/src/core/lv_obj_style_gen.h ****     return (lv_opa_t)v.num;
 209:Drivers/lvgl/src/core/lv_obj_style_gen.h **** }
 210:Drivers/lvgl/src/core/lv_obj_style_gen.h **** 
 211:Drivers/lvgl/src/core/lv_obj_style_gen.h **** static inline lv_color_t lv_obj_get_style_bg_img_recolor(const struct _lv_obj_t * obj, uint32_t par
 212:Drivers/lvgl/src/core/lv_obj_style_gen.h **** {
 213:Drivers/lvgl/src/core/lv_obj_style_gen.h ****     lv_style_value_t v = lv_obj_get_style_prop(obj, part, LV_STYLE_BG_IMG_RECOLOR);
 214:Drivers/lvgl/src/core/lv_obj_style_gen.h ****     return v.color;
 215:Drivers/lvgl/src/core/lv_obj_style_gen.h **** }
 216:Drivers/lvgl/src/core/lv_obj_style_gen.h **** 
 217:Drivers/lvgl/src/core/lv_obj_style_gen.h **** static inline lv_color_t lv_obj_get_style_bg_img_recolor_filtered(const struct _lv_obj_t * obj, uin
 218:Drivers/lvgl/src/core/lv_obj_style_gen.h **** {
 219:Drivers/lvgl/src/core/lv_obj_style_gen.h ****     lv_style_value_t v = _lv_obj_style_apply_color_filter(obj, part, lv_obj_get_style_prop(obj, par
 220:Drivers/lvgl/src/core/lv_obj_style_gen.h ****     return v.color;
 221:Drivers/lvgl/src/core/lv_obj_style_gen.h **** }
 222:Drivers/lvgl/src/core/lv_obj_style_gen.h **** 
 223:Drivers/lvgl/src/core/lv_obj_style_gen.h **** static inline lv_opa_t lv_obj_get_style_bg_img_recolor_opa(const struct _lv_obj_t * obj, uint32_t p
 224:Drivers/lvgl/src/core/lv_obj_style_gen.h **** {
 225:Drivers/lvgl/src/core/lv_obj_style_gen.h ****     lv_style_value_t v = lv_obj_get_style_prop(obj, part, LV_STYLE_BG_IMG_RECOLOR_OPA);
 226:Drivers/lvgl/src/core/lv_obj_style_gen.h ****     return (lv_opa_t)v.num;
 227:Drivers/lvgl/src/core/lv_obj_style_gen.h **** }
 228:Drivers/lvgl/src/core/lv_obj_style_gen.h **** 
 229:Drivers/lvgl/src/core/lv_obj_style_gen.h **** static inline bool lv_obj_get_style_bg_img_tiled(const struct _lv_obj_t * obj, uint32_t part)
 230:Drivers/lvgl/src/core/lv_obj_style_gen.h **** {
 231:Drivers/lvgl/src/core/lv_obj_style_gen.h ****     lv_style_value_t v = lv_obj_get_style_prop(obj, part, LV_STYLE_BG_IMG_TILED);
 232:Drivers/lvgl/src/core/lv_obj_style_gen.h ****     return (bool)v.num;
 233:Drivers/lvgl/src/core/lv_obj_style_gen.h **** }
 234:Drivers/lvgl/src/core/lv_obj_style_gen.h **** 
 235:Drivers/lvgl/src/core/lv_obj_style_gen.h **** static inline lv_color_t lv_obj_get_style_border_color(const struct _lv_obj_t * obj, uint32_t part)
 236:Drivers/lvgl/src/core/lv_obj_style_gen.h **** {
 237:Drivers/lvgl/src/core/lv_obj_style_gen.h ****     lv_style_value_t v = lv_obj_get_style_prop(obj, part, LV_STYLE_BORDER_COLOR);
 238:Drivers/lvgl/src/core/lv_obj_style_gen.h ****     return v.color;
 239:Drivers/lvgl/src/core/lv_obj_style_gen.h **** }
 240:Drivers/lvgl/src/core/lv_obj_style_gen.h **** 
 241:Drivers/lvgl/src/core/lv_obj_style_gen.h **** static inline lv_color_t lv_obj_get_style_border_color_filtered(const struct _lv_obj_t * obj, uint3
 242:Drivers/lvgl/src/core/lv_obj_style_gen.h **** {
 243:Drivers/lvgl/src/core/lv_obj_style_gen.h ****     lv_style_value_t v = _lv_obj_style_apply_color_filter(obj, part, lv_obj_get_style_prop(obj, par
 244:Drivers/lvgl/src/core/lv_obj_style_gen.h ****     return v.color;
 245:Drivers/lvgl/src/core/lv_obj_style_gen.h **** }
 246:Drivers/lvgl/src/core/lv_obj_style_gen.h **** 
 247:Drivers/lvgl/src/core/lv_obj_style_gen.h **** static inline lv_opa_t lv_obj_get_style_border_opa(const struct _lv_obj_t * obj, uint32_t part)
 179              		.loc 2 247 24 view .LVU45
 180              	.LBB100:
 248:Drivers/lvgl/src/core/lv_obj_style_gen.h **** {
 249:Drivers/lvgl/src/core/lv_obj_style_gen.h ****     lv_style_value_t v = lv_obj_get_style_prop(obj, part, LV_STYLE_BORDER_OPA);
 181              		.loc 2 249 5 view .LVU46
 182              		.loc 2 249 26 is_stmt 0 view .LVU47
 183 0020 3122     		movs	r2, #49
 184 0022 4FF48031 		mov	r1, #65536
 185 0026 2846     		mov	r0, r5
 186 0028 FFF7FEFF 		bl	lv_obj_get_style_prop
 187              	.LVL17:
 250:Drivers/lvgl/src/core/lv_obj_style_gen.h ****     return (lv_opa_t)v.num;
 188              		.loc 2 250 5 is_stmt 1 view .LVU48
 189              		.loc 2 250 12 is_stmt 0 view .LVU49
 190 002c C0B2     		uxtb	r0, r0
ARM GAS  /var/folders/0z/tsy30v1j4xl4_7kw94k978ww0000gn/T//ccVt8IXl.s 			page 26


 191              	.LVL18:
 192              		.loc 2 250 12 view .LVU50
 193              	.LBE100:
 194              	.LBE99:
 681:Drivers/lvgl/src/core/lv_obj.c ****     if(dsc->border_opa > LV_OPA_MIN) {
 195              		.loc 1 681 21 view .LVU51
 196 002e 84F82200 		strb	r0, [r4, #34]
 682:Drivers/lvgl/src/core/lv_obj.c ****         dsc->border_width = lv_obj_get_style_border_width(obj, LV_PART_SCROLLBAR);
 197              		.loc 1 682 5 is_stmt 1 view .LVU52
 682:Drivers/lvgl/src/core/lv_obj.c ****         dsc->border_width = lv_obj_get_style_border_width(obj, LV_PART_SCROLLBAR);
 198              		.loc 1 682 7 is_stmt 0 view .LVU53
 199 0032 0228     		cmp	r0, #2
 200 0034 38D8     		bhi	.L22
 201              	.L13:
 693:Drivers/lvgl/src/core/lv_obj.c ****     if(dsc->shadow_opa > LV_OPA_MIN) {
 202              		.loc 1 693 5 is_stmt 1 view .LVU54
 203              	.LVL19:
 204              	.LBB101:
 205              	.LBI101:
 251:Drivers/lvgl/src/core/lv_obj_style_gen.h **** }
 252:Drivers/lvgl/src/core/lv_obj_style_gen.h **** 
 253:Drivers/lvgl/src/core/lv_obj_style_gen.h **** static inline lv_coord_t lv_obj_get_style_border_width(const struct _lv_obj_t * obj, uint32_t part)
 254:Drivers/lvgl/src/core/lv_obj_style_gen.h **** {
 255:Drivers/lvgl/src/core/lv_obj_style_gen.h ****     lv_style_value_t v = lv_obj_get_style_prop(obj, part, LV_STYLE_BORDER_WIDTH);
 256:Drivers/lvgl/src/core/lv_obj_style_gen.h ****     return (lv_coord_t)v.num;
 257:Drivers/lvgl/src/core/lv_obj_style_gen.h **** }
 258:Drivers/lvgl/src/core/lv_obj_style_gen.h **** 
 259:Drivers/lvgl/src/core/lv_obj_style_gen.h **** static inline lv_border_side_t lv_obj_get_style_border_side(const struct _lv_obj_t * obj, uint32_t 
 260:Drivers/lvgl/src/core/lv_obj_style_gen.h **** {
 261:Drivers/lvgl/src/core/lv_obj_style_gen.h ****     lv_style_value_t v = lv_obj_get_style_prop(obj, part, LV_STYLE_BORDER_SIDE);
 262:Drivers/lvgl/src/core/lv_obj_style_gen.h ****     return (lv_border_side_t)v.num;
 263:Drivers/lvgl/src/core/lv_obj_style_gen.h **** }
 264:Drivers/lvgl/src/core/lv_obj_style_gen.h **** 
 265:Drivers/lvgl/src/core/lv_obj_style_gen.h **** static inline bool lv_obj_get_style_border_post(const struct _lv_obj_t * obj, uint32_t part)
 266:Drivers/lvgl/src/core/lv_obj_style_gen.h **** {
 267:Drivers/lvgl/src/core/lv_obj_style_gen.h ****     lv_style_value_t v = lv_obj_get_style_prop(obj, part, LV_STYLE_BORDER_POST);
 268:Drivers/lvgl/src/core/lv_obj_style_gen.h ****     return (bool)v.num;
 269:Drivers/lvgl/src/core/lv_obj_style_gen.h **** }
 270:Drivers/lvgl/src/core/lv_obj_style_gen.h **** 
 271:Drivers/lvgl/src/core/lv_obj_style_gen.h **** static inline lv_coord_t lv_obj_get_style_outline_width(const struct _lv_obj_t * obj, uint32_t part
 272:Drivers/lvgl/src/core/lv_obj_style_gen.h **** {
 273:Drivers/lvgl/src/core/lv_obj_style_gen.h ****     lv_style_value_t v = lv_obj_get_style_prop(obj, part, LV_STYLE_OUTLINE_WIDTH);
 274:Drivers/lvgl/src/core/lv_obj_style_gen.h ****     return (lv_coord_t)v.num;
 275:Drivers/lvgl/src/core/lv_obj_style_gen.h **** }
 276:Drivers/lvgl/src/core/lv_obj_style_gen.h **** 
 277:Drivers/lvgl/src/core/lv_obj_style_gen.h **** static inline lv_color_t lv_obj_get_style_outline_color(const struct _lv_obj_t * obj, uint32_t part
 278:Drivers/lvgl/src/core/lv_obj_style_gen.h **** {
 279:Drivers/lvgl/src/core/lv_obj_style_gen.h ****     lv_style_value_t v = lv_obj_get_style_prop(obj, part, LV_STYLE_OUTLINE_COLOR);
 280:Drivers/lvgl/src/core/lv_obj_style_gen.h ****     return v.color;
 281:Drivers/lvgl/src/core/lv_obj_style_gen.h **** }
 282:Drivers/lvgl/src/core/lv_obj_style_gen.h **** 
 283:Drivers/lvgl/src/core/lv_obj_style_gen.h **** static inline lv_color_t lv_obj_get_style_outline_color_filtered(const struct _lv_obj_t * obj, uint
 284:Drivers/lvgl/src/core/lv_obj_style_gen.h **** {
 285:Drivers/lvgl/src/core/lv_obj_style_gen.h ****     lv_style_value_t v = _lv_obj_style_apply_color_filter(obj, part, lv_obj_get_style_prop(obj, par
 286:Drivers/lvgl/src/core/lv_obj_style_gen.h ****     return v.color;
 287:Drivers/lvgl/src/core/lv_obj_style_gen.h **** }
 288:Drivers/lvgl/src/core/lv_obj_style_gen.h **** 
ARM GAS  /var/folders/0z/tsy30v1j4xl4_7kw94k978ww0000gn/T//ccVt8IXl.s 			page 27


 289:Drivers/lvgl/src/core/lv_obj_style_gen.h **** static inline lv_opa_t lv_obj_get_style_outline_opa(const struct _lv_obj_t * obj, uint32_t part)
 290:Drivers/lvgl/src/core/lv_obj_style_gen.h **** {
 291:Drivers/lvgl/src/core/lv_obj_style_gen.h ****     lv_style_value_t v = lv_obj_get_style_prop(obj, part, LV_STYLE_OUTLINE_OPA);
 292:Drivers/lvgl/src/core/lv_obj_style_gen.h ****     return (lv_opa_t)v.num;
 293:Drivers/lvgl/src/core/lv_obj_style_gen.h **** }
 294:Drivers/lvgl/src/core/lv_obj_style_gen.h **** 
 295:Drivers/lvgl/src/core/lv_obj_style_gen.h **** static inline lv_coord_t lv_obj_get_style_outline_pad(const struct _lv_obj_t * obj, uint32_t part)
 296:Drivers/lvgl/src/core/lv_obj_style_gen.h **** {
 297:Drivers/lvgl/src/core/lv_obj_style_gen.h ****     lv_style_value_t v = lv_obj_get_style_prop(obj, part, LV_STYLE_OUTLINE_PAD);
 298:Drivers/lvgl/src/core/lv_obj_style_gen.h ****     return (lv_coord_t)v.num;
 299:Drivers/lvgl/src/core/lv_obj_style_gen.h **** }
 300:Drivers/lvgl/src/core/lv_obj_style_gen.h **** 
 301:Drivers/lvgl/src/core/lv_obj_style_gen.h **** static inline lv_coord_t lv_obj_get_style_shadow_width(const struct _lv_obj_t * obj, uint32_t part)
 302:Drivers/lvgl/src/core/lv_obj_style_gen.h **** {
 303:Drivers/lvgl/src/core/lv_obj_style_gen.h ****     lv_style_value_t v = lv_obj_get_style_prop(obj, part, LV_STYLE_SHADOW_WIDTH);
 304:Drivers/lvgl/src/core/lv_obj_style_gen.h ****     return (lv_coord_t)v.num;
 305:Drivers/lvgl/src/core/lv_obj_style_gen.h **** }
 306:Drivers/lvgl/src/core/lv_obj_style_gen.h **** 
 307:Drivers/lvgl/src/core/lv_obj_style_gen.h **** static inline lv_coord_t lv_obj_get_style_shadow_ofs_x(const struct _lv_obj_t * obj, uint32_t part)
 308:Drivers/lvgl/src/core/lv_obj_style_gen.h **** {
 309:Drivers/lvgl/src/core/lv_obj_style_gen.h ****     lv_style_value_t v = lv_obj_get_style_prop(obj, part, LV_STYLE_SHADOW_OFS_X);
 310:Drivers/lvgl/src/core/lv_obj_style_gen.h ****     return (lv_coord_t)v.num;
 311:Drivers/lvgl/src/core/lv_obj_style_gen.h **** }
 312:Drivers/lvgl/src/core/lv_obj_style_gen.h **** 
 313:Drivers/lvgl/src/core/lv_obj_style_gen.h **** static inline lv_coord_t lv_obj_get_style_shadow_ofs_y(const struct _lv_obj_t * obj, uint32_t part)
 314:Drivers/lvgl/src/core/lv_obj_style_gen.h **** {
 315:Drivers/lvgl/src/core/lv_obj_style_gen.h ****     lv_style_value_t v = lv_obj_get_style_prop(obj, part, LV_STYLE_SHADOW_OFS_Y);
 316:Drivers/lvgl/src/core/lv_obj_style_gen.h ****     return (lv_coord_t)v.num;
 317:Drivers/lvgl/src/core/lv_obj_style_gen.h **** }
 318:Drivers/lvgl/src/core/lv_obj_style_gen.h **** 
 319:Drivers/lvgl/src/core/lv_obj_style_gen.h **** static inline lv_coord_t lv_obj_get_style_shadow_spread(const struct _lv_obj_t * obj, uint32_t part
 320:Drivers/lvgl/src/core/lv_obj_style_gen.h **** {
 321:Drivers/lvgl/src/core/lv_obj_style_gen.h ****     lv_style_value_t v = lv_obj_get_style_prop(obj, part, LV_STYLE_SHADOW_SPREAD);
 322:Drivers/lvgl/src/core/lv_obj_style_gen.h ****     return (lv_coord_t)v.num;
 323:Drivers/lvgl/src/core/lv_obj_style_gen.h **** }
 324:Drivers/lvgl/src/core/lv_obj_style_gen.h **** 
 325:Drivers/lvgl/src/core/lv_obj_style_gen.h **** static inline lv_color_t lv_obj_get_style_shadow_color(const struct _lv_obj_t * obj, uint32_t part)
 326:Drivers/lvgl/src/core/lv_obj_style_gen.h **** {
 327:Drivers/lvgl/src/core/lv_obj_style_gen.h ****     lv_style_value_t v = lv_obj_get_style_prop(obj, part, LV_STYLE_SHADOW_COLOR);
 328:Drivers/lvgl/src/core/lv_obj_style_gen.h ****     return v.color;
 329:Drivers/lvgl/src/core/lv_obj_style_gen.h **** }
 330:Drivers/lvgl/src/core/lv_obj_style_gen.h **** 
 331:Drivers/lvgl/src/core/lv_obj_style_gen.h **** static inline lv_color_t lv_obj_get_style_shadow_color_filtered(const struct _lv_obj_t * obj, uint3
 332:Drivers/lvgl/src/core/lv_obj_style_gen.h **** {
 333:Drivers/lvgl/src/core/lv_obj_style_gen.h ****     lv_style_value_t v = _lv_obj_style_apply_color_filter(obj, part, lv_obj_get_style_prop(obj, par
 334:Drivers/lvgl/src/core/lv_obj_style_gen.h ****     return v.color;
 335:Drivers/lvgl/src/core/lv_obj_style_gen.h **** }
 336:Drivers/lvgl/src/core/lv_obj_style_gen.h **** 
 337:Drivers/lvgl/src/core/lv_obj_style_gen.h **** static inline lv_opa_t lv_obj_get_style_shadow_opa(const struct _lv_obj_t * obj, uint32_t part)
 206              		.loc 2 337 24 view .LVU55
 207              	.LBB102:
 338:Drivers/lvgl/src/core/lv_obj_style_gen.h **** {
 339:Drivers/lvgl/src/core/lv_obj_style_gen.h ****     lv_style_value_t v = lv_obj_get_style_prop(obj, part, LV_STYLE_SHADOW_OPA);
 208              		.loc 2 339 5 view .LVU56
 209              		.loc 2 339 26 is_stmt 0 view .LVU57
 210 0036 4522     		movs	r2, #69
 211 0038 4FF48031 		mov	r1, #65536
ARM GAS  /var/folders/0z/tsy30v1j4xl4_7kw94k978ww0000gn/T//ccVt8IXl.s 			page 28


 212 003c 2846     		mov	r0, r5
 213 003e FFF7FEFF 		bl	lv_obj_get_style_prop
 214              	.LVL20:
 340:Drivers/lvgl/src/core/lv_obj_style_gen.h ****     return (lv_opa_t)v.num;
 215              		.loc 2 340 5 is_stmt 1 view .LVU58
 216              		.loc 2 340 12 is_stmt 0 view .LVU59
 217 0042 C0B2     		uxtb	r0, r0
 218              	.LVL21:
 219              		.loc 2 340 12 view .LVU60
 220              	.LBE102:
 221              	.LBE101:
 693:Drivers/lvgl/src/core/lv_obj.c ****     if(dsc->shadow_opa > LV_OPA_MIN) {
 222              		.loc 1 693 21 view .LVU61
 223 0044 84F83600 		strb	r0, [r4, #54]
 694:Drivers/lvgl/src/core/lv_obj.c ****         dsc->shadow_width = lv_obj_get_style_shadow_width(obj, LV_PART_SCROLLBAR);
 224              		.loc 1 694 5 is_stmt 1 view .LVU62
 694:Drivers/lvgl/src/core/lv_obj.c ****         dsc->shadow_width = lv_obj_get_style_shadow_width(obj, LV_PART_SCROLLBAR);
 225              		.loc 1 694 7 is_stmt 0 view .LVU63
 226 0048 0228     		cmp	r0, #2
 227 004a 43D8     		bhi	.L23
 228              	.L15:
 705:Drivers/lvgl/src/core/lv_obj.c ****     if(opa < LV_OPA_MAX) {
 229              		.loc 1 705 5 is_stmt 1 view .LVU64
 705:Drivers/lvgl/src/core/lv_obj.c ****     if(opa < LV_OPA_MAX) {
 230              		.loc 1 705 20 is_stmt 0 view .LVU65
 231 004c 4FF48031 		mov	r1, #65536
 232 0050 2846     		mov	r0, r5
 233 0052 FFF7FEFF 		bl	lv_obj_get_style_opa_recursive
 234              	.LVL22:
 706:Drivers/lvgl/src/core/lv_obj.c ****         dsc->bg_opa = (dsc->bg_opa * opa) >> 8;
 235              		.loc 1 706 5 is_stmt 1 view .LVU66
 706:Drivers/lvgl/src/core/lv_obj.c ****         dsc->bg_opa = (dsc->bg_opa * opa) >> 8;
 236              		.loc 1 706 7 is_stmt 0 view .LVU67
 237 0056 FC28     		cmp	r0, #252
 238 0058 0DD8     		bhi	.L17
 707:Drivers/lvgl/src/core/lv_obj.c ****         dsc->border_opa = (dsc->bg_opa * opa) >> 8;
 239              		.loc 1 707 9 is_stmt 1 view .LVU68
 707:Drivers/lvgl/src/core/lv_obj.c ****         dsc->border_opa = (dsc->bg_opa * opa) >> 8;
 240              		.loc 1 707 27 is_stmt 0 view .LVU69
 241 005a E378     		ldrb	r3, [r4, #3]	@ zero_extendqisi2
 707:Drivers/lvgl/src/core/lv_obj.c ****         dsc->border_opa = (dsc->bg_opa * opa) >> 8;
 242              		.loc 1 707 36 view .LVU70
 243 005c 00FB03F3 		mul	r3, r0, r3
 707:Drivers/lvgl/src/core/lv_obj.c ****         dsc->border_opa = (dsc->bg_opa * opa) >> 8;
 244              		.loc 1 707 21 view .LVU71
 245 0060 C3F30723 		ubfx	r3, r3, #8, #8
 246 0064 E370     		strb	r3, [r4, #3]
 708:Drivers/lvgl/src/core/lv_obj.c ****         dsc->shadow_opa = (dsc->bg_opa * opa) >> 8;
 247              		.loc 1 708 9 is_stmt 1 view .LVU72
 708:Drivers/lvgl/src/core/lv_obj.c ****         dsc->shadow_opa = (dsc->bg_opa * opa) >> 8;
 248              		.loc 1 708 40 is_stmt 0 view .LVU73
 249 0066 03FB00F0 		mul	r0, r3, r0
 250              	.LVL23:
 708:Drivers/lvgl/src/core/lv_obj.c ****         dsc->shadow_opa = (dsc->bg_opa * opa) >> 8;
 251              		.loc 1 708 25 view .LVU74
 252 006a C0F30720 		ubfx	r0, r0, #8, #8
 253 006e 84F82200 		strb	r0, [r4, #34]
ARM GAS  /var/folders/0z/tsy30v1j4xl4_7kw94k978ww0000gn/T//ccVt8IXl.s 			page 29


 709:Drivers/lvgl/src/core/lv_obj.c ****     }
 254              		.loc 1 709 9 is_stmt 1 view .LVU75
 709:Drivers/lvgl/src/core/lv_obj.c ****     }
 255              		.loc 1 709 25 is_stmt 0 view .LVU76
 256 0072 84F83600 		strb	r0, [r4, #54]
 257              	.L17:
 712:Drivers/lvgl/src/core/lv_obj.c ****         dsc->radius = lv_obj_get_style_radius(obj, LV_PART_SCROLLBAR);
 258              		.loc 1 712 5 is_stmt 1 view .LVU77
 712:Drivers/lvgl/src/core/lv_obj.c ****         dsc->radius = lv_obj_get_style_radius(obj, LV_PART_SCROLLBAR);
 259              		.loc 1 712 11 is_stmt 0 view .LVU78
 260 0076 E378     		ldrb	r3, [r4, #3]	@ zero_extendqisi2
 712:Drivers/lvgl/src/core/lv_obj.c ****         dsc->radius = lv_obj_get_style_radius(obj, LV_PART_SCROLLBAR);
 261              		.loc 1 712 7 view .LVU79
 262 0078 2BB9     		cbnz	r3, .L18
 712:Drivers/lvgl/src/core/lv_obj.c ****         dsc->radius = lv_obj_get_style_radius(obj, LV_PART_SCROLLBAR);
 263              		.loc 1 712 43 discriminator 1 view .LVU80
 264 007a 94F82230 		ldrb	r3, [r4, #34]	@ zero_extendqisi2
 712:Drivers/lvgl/src/core/lv_obj.c ****         dsc->radius = lv_obj_get_style_radius(obj, LV_PART_SCROLLBAR);
 265              		.loc 1 712 37 discriminator 1 view .LVU81
 266 007e 13B9     		cbnz	r3, .L18
 712:Drivers/lvgl/src/core/lv_obj.c ****         dsc->radius = lv_obj_get_style_radius(obj, LV_PART_SCROLLBAR);
 267              		.loc 1 712 79 discriminator 2 view .LVU82
 268 0080 94F83600 		ldrb	r0, [r4, #54]	@ zero_extendqisi2
 712:Drivers/lvgl/src/core/lv_obj.c ****         dsc->radius = lv_obj_get_style_radius(obj, LV_PART_SCROLLBAR);
 269              		.loc 1 712 73 discriminator 2 view .LVU83
 270 0084 38B1     		cbz	r0, .L19
 271              	.L18:
 713:Drivers/lvgl/src/core/lv_obj.c ****         return LV_RES_OK;
 272              		.loc 1 713 9 is_stmt 1 view .LVU84
 273              	.LVL24:
 274              	.LBB103:
 275              	.LBI103:
 341:Drivers/lvgl/src/core/lv_obj_style_gen.h **** }
 342:Drivers/lvgl/src/core/lv_obj_style_gen.h **** 
 343:Drivers/lvgl/src/core/lv_obj_style_gen.h **** static inline lv_opa_t lv_obj_get_style_img_opa(const struct _lv_obj_t * obj, uint32_t part)
 344:Drivers/lvgl/src/core/lv_obj_style_gen.h **** {
 345:Drivers/lvgl/src/core/lv_obj_style_gen.h ****     lv_style_value_t v = lv_obj_get_style_prop(obj, part, LV_STYLE_IMG_OPA);
 346:Drivers/lvgl/src/core/lv_obj_style_gen.h ****     return (lv_opa_t)v.num;
 347:Drivers/lvgl/src/core/lv_obj_style_gen.h **** }
 348:Drivers/lvgl/src/core/lv_obj_style_gen.h **** 
 349:Drivers/lvgl/src/core/lv_obj_style_gen.h **** static inline lv_color_t lv_obj_get_style_img_recolor(const struct _lv_obj_t * obj, uint32_t part)
 350:Drivers/lvgl/src/core/lv_obj_style_gen.h **** {
 351:Drivers/lvgl/src/core/lv_obj_style_gen.h ****     lv_style_value_t v = lv_obj_get_style_prop(obj, part, LV_STYLE_IMG_RECOLOR);
 352:Drivers/lvgl/src/core/lv_obj_style_gen.h ****     return v.color;
 353:Drivers/lvgl/src/core/lv_obj_style_gen.h **** }
 354:Drivers/lvgl/src/core/lv_obj_style_gen.h **** 
 355:Drivers/lvgl/src/core/lv_obj_style_gen.h **** static inline lv_color_t lv_obj_get_style_img_recolor_filtered(const struct _lv_obj_t * obj, uint32
 356:Drivers/lvgl/src/core/lv_obj_style_gen.h **** {
 357:Drivers/lvgl/src/core/lv_obj_style_gen.h ****     lv_style_value_t v = _lv_obj_style_apply_color_filter(obj, part, lv_obj_get_style_prop(obj, par
 358:Drivers/lvgl/src/core/lv_obj_style_gen.h ****     return v.color;
 359:Drivers/lvgl/src/core/lv_obj_style_gen.h **** }
 360:Drivers/lvgl/src/core/lv_obj_style_gen.h **** 
 361:Drivers/lvgl/src/core/lv_obj_style_gen.h **** static inline lv_opa_t lv_obj_get_style_img_recolor_opa(const struct _lv_obj_t * obj, uint32_t part
 362:Drivers/lvgl/src/core/lv_obj_style_gen.h **** {
 363:Drivers/lvgl/src/core/lv_obj_style_gen.h ****     lv_style_value_t v = lv_obj_get_style_prop(obj, part, LV_STYLE_IMG_RECOLOR_OPA);
 364:Drivers/lvgl/src/core/lv_obj_style_gen.h ****     return (lv_opa_t)v.num;
 365:Drivers/lvgl/src/core/lv_obj_style_gen.h **** }
ARM GAS  /var/folders/0z/tsy30v1j4xl4_7kw94k978ww0000gn/T//ccVt8IXl.s 			page 30


 366:Drivers/lvgl/src/core/lv_obj_style_gen.h **** 
 367:Drivers/lvgl/src/core/lv_obj_style_gen.h **** static inline lv_coord_t lv_obj_get_style_line_width(const struct _lv_obj_t * obj, uint32_t part)
 368:Drivers/lvgl/src/core/lv_obj_style_gen.h **** {
 369:Drivers/lvgl/src/core/lv_obj_style_gen.h ****     lv_style_value_t v = lv_obj_get_style_prop(obj, part, LV_STYLE_LINE_WIDTH);
 370:Drivers/lvgl/src/core/lv_obj_style_gen.h ****     return (lv_coord_t)v.num;
 371:Drivers/lvgl/src/core/lv_obj_style_gen.h **** }
 372:Drivers/lvgl/src/core/lv_obj_style_gen.h **** 
 373:Drivers/lvgl/src/core/lv_obj_style_gen.h **** static inline lv_coord_t lv_obj_get_style_line_dash_width(const struct _lv_obj_t * obj, uint32_t pa
 374:Drivers/lvgl/src/core/lv_obj_style_gen.h **** {
 375:Drivers/lvgl/src/core/lv_obj_style_gen.h ****     lv_style_value_t v = lv_obj_get_style_prop(obj, part, LV_STYLE_LINE_DASH_WIDTH);
 376:Drivers/lvgl/src/core/lv_obj_style_gen.h ****     return (lv_coord_t)v.num;
 377:Drivers/lvgl/src/core/lv_obj_style_gen.h **** }
 378:Drivers/lvgl/src/core/lv_obj_style_gen.h **** 
 379:Drivers/lvgl/src/core/lv_obj_style_gen.h **** static inline lv_coord_t lv_obj_get_style_line_dash_gap(const struct _lv_obj_t * obj, uint32_t part
 380:Drivers/lvgl/src/core/lv_obj_style_gen.h **** {
 381:Drivers/lvgl/src/core/lv_obj_style_gen.h ****     lv_style_value_t v = lv_obj_get_style_prop(obj, part, LV_STYLE_LINE_DASH_GAP);
 382:Drivers/lvgl/src/core/lv_obj_style_gen.h ****     return (lv_coord_t)v.num;
 383:Drivers/lvgl/src/core/lv_obj_style_gen.h **** }
 384:Drivers/lvgl/src/core/lv_obj_style_gen.h **** 
 385:Drivers/lvgl/src/core/lv_obj_style_gen.h **** static inline bool lv_obj_get_style_line_rounded(const struct _lv_obj_t * obj, uint32_t part)
 386:Drivers/lvgl/src/core/lv_obj_style_gen.h **** {
 387:Drivers/lvgl/src/core/lv_obj_style_gen.h ****     lv_style_value_t v = lv_obj_get_style_prop(obj, part, LV_STYLE_LINE_ROUNDED);
 388:Drivers/lvgl/src/core/lv_obj_style_gen.h ****     return (bool)v.num;
 389:Drivers/lvgl/src/core/lv_obj_style_gen.h **** }
 390:Drivers/lvgl/src/core/lv_obj_style_gen.h **** 
 391:Drivers/lvgl/src/core/lv_obj_style_gen.h **** static inline lv_color_t lv_obj_get_style_line_color(const struct _lv_obj_t * obj, uint32_t part)
 392:Drivers/lvgl/src/core/lv_obj_style_gen.h **** {
 393:Drivers/lvgl/src/core/lv_obj_style_gen.h ****     lv_style_value_t v = lv_obj_get_style_prop(obj, part, LV_STYLE_LINE_COLOR);
 394:Drivers/lvgl/src/core/lv_obj_style_gen.h ****     return v.color;
 395:Drivers/lvgl/src/core/lv_obj_style_gen.h **** }
 396:Drivers/lvgl/src/core/lv_obj_style_gen.h **** 
 397:Drivers/lvgl/src/core/lv_obj_style_gen.h **** static inline lv_color_t lv_obj_get_style_line_color_filtered(const struct _lv_obj_t * obj, uint32_
 398:Drivers/lvgl/src/core/lv_obj_style_gen.h **** {
 399:Drivers/lvgl/src/core/lv_obj_style_gen.h ****     lv_style_value_t v = _lv_obj_style_apply_color_filter(obj, part, lv_obj_get_style_prop(obj, par
 400:Drivers/lvgl/src/core/lv_obj_style_gen.h ****     return v.color;
 401:Drivers/lvgl/src/core/lv_obj_style_gen.h **** }
 402:Drivers/lvgl/src/core/lv_obj_style_gen.h **** 
 403:Drivers/lvgl/src/core/lv_obj_style_gen.h **** static inline lv_opa_t lv_obj_get_style_line_opa(const struct _lv_obj_t * obj, uint32_t part)
 404:Drivers/lvgl/src/core/lv_obj_style_gen.h **** {
 405:Drivers/lvgl/src/core/lv_obj_style_gen.h ****     lv_style_value_t v = lv_obj_get_style_prop(obj, part, LV_STYLE_LINE_OPA);
 406:Drivers/lvgl/src/core/lv_obj_style_gen.h ****     return (lv_opa_t)v.num;
 407:Drivers/lvgl/src/core/lv_obj_style_gen.h **** }
 408:Drivers/lvgl/src/core/lv_obj_style_gen.h **** 
 409:Drivers/lvgl/src/core/lv_obj_style_gen.h **** static inline lv_coord_t lv_obj_get_style_arc_width(const struct _lv_obj_t * obj, uint32_t part)
 410:Drivers/lvgl/src/core/lv_obj_style_gen.h **** {
 411:Drivers/lvgl/src/core/lv_obj_style_gen.h ****     lv_style_value_t v = lv_obj_get_style_prop(obj, part, LV_STYLE_ARC_WIDTH);
 412:Drivers/lvgl/src/core/lv_obj_style_gen.h ****     return (lv_coord_t)v.num;
 413:Drivers/lvgl/src/core/lv_obj_style_gen.h **** }
 414:Drivers/lvgl/src/core/lv_obj_style_gen.h **** 
 415:Drivers/lvgl/src/core/lv_obj_style_gen.h **** static inline bool lv_obj_get_style_arc_rounded(const struct _lv_obj_t * obj, uint32_t part)
 416:Drivers/lvgl/src/core/lv_obj_style_gen.h **** {
 417:Drivers/lvgl/src/core/lv_obj_style_gen.h ****     lv_style_value_t v = lv_obj_get_style_prop(obj, part, LV_STYLE_ARC_ROUNDED);
 418:Drivers/lvgl/src/core/lv_obj_style_gen.h ****     return (bool)v.num;
 419:Drivers/lvgl/src/core/lv_obj_style_gen.h **** }
 420:Drivers/lvgl/src/core/lv_obj_style_gen.h **** 
 421:Drivers/lvgl/src/core/lv_obj_style_gen.h **** static inline lv_color_t lv_obj_get_style_arc_color(const struct _lv_obj_t * obj, uint32_t part)
 422:Drivers/lvgl/src/core/lv_obj_style_gen.h **** {
ARM GAS  /var/folders/0z/tsy30v1j4xl4_7kw94k978ww0000gn/T//ccVt8IXl.s 			page 31


 423:Drivers/lvgl/src/core/lv_obj_style_gen.h ****     lv_style_value_t v = lv_obj_get_style_prop(obj, part, LV_STYLE_ARC_COLOR);
 424:Drivers/lvgl/src/core/lv_obj_style_gen.h ****     return v.color;
 425:Drivers/lvgl/src/core/lv_obj_style_gen.h **** }
 426:Drivers/lvgl/src/core/lv_obj_style_gen.h **** 
 427:Drivers/lvgl/src/core/lv_obj_style_gen.h **** static inline lv_color_t lv_obj_get_style_arc_color_filtered(const struct _lv_obj_t * obj, uint32_t
 428:Drivers/lvgl/src/core/lv_obj_style_gen.h **** {
 429:Drivers/lvgl/src/core/lv_obj_style_gen.h ****     lv_style_value_t v = _lv_obj_style_apply_color_filter(obj, part, lv_obj_get_style_prop(obj, par
 430:Drivers/lvgl/src/core/lv_obj_style_gen.h ****     return v.color;
 431:Drivers/lvgl/src/core/lv_obj_style_gen.h **** }
 432:Drivers/lvgl/src/core/lv_obj_style_gen.h **** 
 433:Drivers/lvgl/src/core/lv_obj_style_gen.h **** static inline lv_opa_t lv_obj_get_style_arc_opa(const struct _lv_obj_t * obj, uint32_t part)
 434:Drivers/lvgl/src/core/lv_obj_style_gen.h **** {
 435:Drivers/lvgl/src/core/lv_obj_style_gen.h ****     lv_style_value_t v = lv_obj_get_style_prop(obj, part, LV_STYLE_ARC_OPA);
 436:Drivers/lvgl/src/core/lv_obj_style_gen.h ****     return (lv_opa_t)v.num;
 437:Drivers/lvgl/src/core/lv_obj_style_gen.h **** }
 438:Drivers/lvgl/src/core/lv_obj_style_gen.h **** 
 439:Drivers/lvgl/src/core/lv_obj_style_gen.h **** static inline const void * lv_obj_get_style_arc_img_src(const struct _lv_obj_t * obj, uint32_t part
 440:Drivers/lvgl/src/core/lv_obj_style_gen.h **** {
 441:Drivers/lvgl/src/core/lv_obj_style_gen.h ****     lv_style_value_t v = lv_obj_get_style_prop(obj, part, LV_STYLE_ARC_IMG_SRC);
 442:Drivers/lvgl/src/core/lv_obj_style_gen.h ****     return (const void *)v.ptr;
 443:Drivers/lvgl/src/core/lv_obj_style_gen.h **** }
 444:Drivers/lvgl/src/core/lv_obj_style_gen.h **** 
 445:Drivers/lvgl/src/core/lv_obj_style_gen.h **** static inline lv_color_t lv_obj_get_style_text_color(const struct _lv_obj_t * obj, uint32_t part)
 446:Drivers/lvgl/src/core/lv_obj_style_gen.h **** {
 447:Drivers/lvgl/src/core/lv_obj_style_gen.h ****     lv_style_value_t v = lv_obj_get_style_prop(obj, part, LV_STYLE_TEXT_COLOR);
 448:Drivers/lvgl/src/core/lv_obj_style_gen.h ****     return v.color;
 449:Drivers/lvgl/src/core/lv_obj_style_gen.h **** }
 450:Drivers/lvgl/src/core/lv_obj_style_gen.h **** 
 451:Drivers/lvgl/src/core/lv_obj_style_gen.h **** static inline lv_color_t lv_obj_get_style_text_color_filtered(const struct _lv_obj_t * obj, uint32_
 452:Drivers/lvgl/src/core/lv_obj_style_gen.h **** {
 453:Drivers/lvgl/src/core/lv_obj_style_gen.h ****     lv_style_value_t v = _lv_obj_style_apply_color_filter(obj, part, lv_obj_get_style_prop(obj, par
 454:Drivers/lvgl/src/core/lv_obj_style_gen.h ****     return v.color;
 455:Drivers/lvgl/src/core/lv_obj_style_gen.h **** }
 456:Drivers/lvgl/src/core/lv_obj_style_gen.h **** 
 457:Drivers/lvgl/src/core/lv_obj_style_gen.h **** static inline lv_opa_t lv_obj_get_style_text_opa(const struct _lv_obj_t * obj, uint32_t part)
 458:Drivers/lvgl/src/core/lv_obj_style_gen.h **** {
 459:Drivers/lvgl/src/core/lv_obj_style_gen.h ****     lv_style_value_t v = lv_obj_get_style_prop(obj, part, LV_STYLE_TEXT_OPA);
 460:Drivers/lvgl/src/core/lv_obj_style_gen.h ****     return (lv_opa_t)v.num;
 461:Drivers/lvgl/src/core/lv_obj_style_gen.h **** }
 462:Drivers/lvgl/src/core/lv_obj_style_gen.h **** 
 463:Drivers/lvgl/src/core/lv_obj_style_gen.h **** static inline const lv_font_t * lv_obj_get_style_text_font(const struct _lv_obj_t * obj, uint32_t p
 464:Drivers/lvgl/src/core/lv_obj_style_gen.h **** {
 465:Drivers/lvgl/src/core/lv_obj_style_gen.h ****     lv_style_value_t v = lv_obj_get_style_prop(obj, part, LV_STYLE_TEXT_FONT);
 466:Drivers/lvgl/src/core/lv_obj_style_gen.h ****     return (const lv_font_t *)v.ptr;
 467:Drivers/lvgl/src/core/lv_obj_style_gen.h **** }
 468:Drivers/lvgl/src/core/lv_obj_style_gen.h **** 
 469:Drivers/lvgl/src/core/lv_obj_style_gen.h **** static inline lv_coord_t lv_obj_get_style_text_letter_space(const struct _lv_obj_t * obj, uint32_t 
 470:Drivers/lvgl/src/core/lv_obj_style_gen.h **** {
 471:Drivers/lvgl/src/core/lv_obj_style_gen.h ****     lv_style_value_t v = lv_obj_get_style_prop(obj, part, LV_STYLE_TEXT_LETTER_SPACE);
 472:Drivers/lvgl/src/core/lv_obj_style_gen.h ****     return (lv_coord_t)v.num;
 473:Drivers/lvgl/src/core/lv_obj_style_gen.h **** }
 474:Drivers/lvgl/src/core/lv_obj_style_gen.h **** 
 475:Drivers/lvgl/src/core/lv_obj_style_gen.h **** static inline lv_coord_t lv_obj_get_style_text_line_space(const struct _lv_obj_t * obj, uint32_t pa
 476:Drivers/lvgl/src/core/lv_obj_style_gen.h **** {
 477:Drivers/lvgl/src/core/lv_obj_style_gen.h ****     lv_style_value_t v = lv_obj_get_style_prop(obj, part, LV_STYLE_TEXT_LINE_SPACE);
 478:Drivers/lvgl/src/core/lv_obj_style_gen.h ****     return (lv_coord_t)v.num;
 479:Drivers/lvgl/src/core/lv_obj_style_gen.h **** }
ARM GAS  /var/folders/0z/tsy30v1j4xl4_7kw94k978ww0000gn/T//ccVt8IXl.s 			page 32


 480:Drivers/lvgl/src/core/lv_obj_style_gen.h **** 
 481:Drivers/lvgl/src/core/lv_obj_style_gen.h **** static inline lv_text_decor_t lv_obj_get_style_text_decor(const struct _lv_obj_t * obj, uint32_t pa
 482:Drivers/lvgl/src/core/lv_obj_style_gen.h **** {
 483:Drivers/lvgl/src/core/lv_obj_style_gen.h ****     lv_style_value_t v = lv_obj_get_style_prop(obj, part, LV_STYLE_TEXT_DECOR);
 484:Drivers/lvgl/src/core/lv_obj_style_gen.h ****     return (lv_text_decor_t)v.num;
 485:Drivers/lvgl/src/core/lv_obj_style_gen.h **** }
 486:Drivers/lvgl/src/core/lv_obj_style_gen.h **** 
 487:Drivers/lvgl/src/core/lv_obj_style_gen.h **** static inline lv_text_align_t lv_obj_get_style_text_align(const struct _lv_obj_t * obj, uint32_t pa
 488:Drivers/lvgl/src/core/lv_obj_style_gen.h **** {
 489:Drivers/lvgl/src/core/lv_obj_style_gen.h ****     lv_style_value_t v = lv_obj_get_style_prop(obj, part, LV_STYLE_TEXT_ALIGN);
 490:Drivers/lvgl/src/core/lv_obj_style_gen.h ****     return (lv_text_align_t)v.num;
 491:Drivers/lvgl/src/core/lv_obj_style_gen.h **** }
 492:Drivers/lvgl/src/core/lv_obj_style_gen.h **** 
 493:Drivers/lvgl/src/core/lv_obj_style_gen.h **** static inline lv_coord_t lv_obj_get_style_radius(const struct _lv_obj_t * obj, uint32_t part)
 276              		.loc 2 493 26 view .LVU85
 277              	.LBB104:
 494:Drivers/lvgl/src/core/lv_obj_style_gen.h **** {
 495:Drivers/lvgl/src/core/lv_obj_style_gen.h ****     lv_style_value_t v = lv_obj_get_style_prop(obj, part, LV_STYLE_RADIUS);
 278              		.loc 2 495 5 view .LVU86
 279              		.loc 2 495 26 is_stmt 0 view .LVU87
 280 0086 0B22     		movs	r2, #11
 281 0088 4FF48031 		mov	r1, #65536
 282 008c 2846     		mov	r0, r5
 283 008e FFF7FEFF 		bl	lv_obj_get_style_prop
 284              	.LVL25:
 496:Drivers/lvgl/src/core/lv_obj_style_gen.h ****     return (lv_coord_t)v.num;
 285              		.loc 2 496 5 is_stmt 1 view .LVU88
 286              		.loc 2 496 5 is_stmt 0 view .LVU89
 287              	.LBE104:
 288              	.LBE103:
 713:Drivers/lvgl/src/core/lv_obj.c ****         return LV_RES_OK;
 289              		.loc 1 713 21 view .LVU90
 290 0092 2080     		strh	r0, [r4]	@ movhi
 714:Drivers/lvgl/src/core/lv_obj.c ****     }
 291              		.loc 1 714 9 is_stmt 1 view .LVU91
 714:Drivers/lvgl/src/core/lv_obj.c ****     }
 292              		.loc 1 714 16 is_stmt 0 view .LVU92
 293 0094 0120     		movs	r0, #1
 294              	.L19:
 723:Drivers/lvgl/src/core/lv_obj.c **** 
 295              		.loc 1 723 1 view .LVU93
 296 0096 38BD     		pop	{r3, r4, r5, pc}
 297              	.LVL26:
 298              	.L21:
 678:Drivers/lvgl/src/core/lv_obj.c ****     }
 299              		.loc 1 678 9 is_stmt 1 view .LVU94
 300              	.LBB105:
 301              	.LBI105:
 139:Drivers/lvgl/src/core/lv_obj_style_gen.h **** {
 302              		.loc 2 139 26 view .LVU95
 303              	.LBB106:
 141:Drivers/lvgl/src/core/lv_obj_style_gen.h ****     return v.color;
 304              		.loc 2 141 5 view .LVU96
 141:Drivers/lvgl/src/core/lv_obj_style_gen.h ****     return v.color;
 305              		.loc 2 141 26 is_stmt 0 view .LVU97
 306 0098 2022     		movs	r2, #32
 307 009a 4FF48031 		mov	r1, #65536
ARM GAS  /var/folders/0z/tsy30v1j4xl4_7kw94k978ww0000gn/T//ccVt8IXl.s 			page 33


 308 009e 2846     		mov	r0, r5
 309 00a0 FFF7FEFF 		bl	lv_obj_get_style_prop
 310              	.LVL27:
 142:Drivers/lvgl/src/core/lv_obj_style_gen.h **** }
 311              		.loc 2 142 5 is_stmt 1 view .LVU98
 142:Drivers/lvgl/src/core/lv_obj_style_gen.h **** }
 312              		.loc 2 142 5 is_stmt 0 view .LVU99
 313              	.LBE106:
 314              	.LBE105:
 678:Drivers/lvgl/src/core/lv_obj.c ****     }
 315              		.loc 1 678 25 view .LVU100
 316 00a4 A080     		strh	r0, [r4, #4]	@ movhi
 317 00a6 BBE7     		b	.L12
 318              	.L22:
 683:Drivers/lvgl/src/core/lv_obj.c ****         if(dsc->border_width > 0) {
 319              		.loc 1 683 9 is_stmt 1 view .LVU101
 320              	.LVL28:
 321              	.LBB107:
 322              	.LBI107:
 253:Drivers/lvgl/src/core/lv_obj_style_gen.h **** {
 323              		.loc 2 253 26 view .LVU102
 324              	.LBB108:
 255:Drivers/lvgl/src/core/lv_obj_style_gen.h ****     return (lv_coord_t)v.num;
 325              		.loc 2 255 5 view .LVU103
 255:Drivers/lvgl/src/core/lv_obj_style_gen.h ****     return (lv_coord_t)v.num;
 326              		.loc 2 255 26 is_stmt 0 view .LVU104
 327 00a8 3222     		movs	r2, #50
 328 00aa 4FF48031 		mov	r1, #65536
 329 00ae 2846     		mov	r0, r5
 330 00b0 FFF7FEFF 		bl	lv_obj_get_style_prop
 331              	.LVL29:
 256:Drivers/lvgl/src/core/lv_obj_style_gen.h **** }
 332              		.loc 2 256 5 is_stmt 1 view .LVU105
 256:Drivers/lvgl/src/core/lv_obj_style_gen.h **** }
 333              		.loc 2 256 12 is_stmt 0 view .LVU106
 334 00b4 00B2     		sxth	r0, r0
 335              	.LVL30:
 256:Drivers/lvgl/src/core/lv_obj_style_gen.h **** }
 336              		.loc 2 256 12 view .LVU107
 337              	.LBE108:
 338              	.LBE107:
 683:Drivers/lvgl/src/core/lv_obj.c ****         if(dsc->border_width > 0) {
 339              		.loc 1 683 27 view .LVU108
 340 00b6 2084     		strh	r0, [r4, #32]	@ movhi
 684:Drivers/lvgl/src/core/lv_obj.c ****             dsc->border_color = lv_obj_get_style_border_color(obj, LV_PART_SCROLLBAR);
 341              		.loc 1 684 9 is_stmt 1 view .LVU109
 684:Drivers/lvgl/src/core/lv_obj.c ****             dsc->border_color = lv_obj_get_style_border_color(obj, LV_PART_SCROLLBAR);
 342              		.loc 1 684 11 is_stmt 0 view .LVU110
 343 00b8 0028     		cmp	r0, #0
 344 00ba 03DC     		bgt	.L24
 688:Drivers/lvgl/src/core/lv_obj.c ****         }
 345              		.loc 1 688 13 is_stmt 1 view .LVU111
 688:Drivers/lvgl/src/core/lv_obj.c ****         }
 346              		.loc 1 688 29 is_stmt 0 view .LVU112
 347 00bc 0023     		movs	r3, #0
 348 00be 84F82230 		strb	r3, [r4, #34]
 349 00c2 B8E7     		b	.L13
ARM GAS  /var/folders/0z/tsy30v1j4xl4_7kw94k978ww0000gn/T//ccVt8IXl.s 			page 34


 350              	.L24:
 685:Drivers/lvgl/src/core/lv_obj.c ****         }
 351              		.loc 1 685 13 is_stmt 1 view .LVU113
 352              	.LVL31:
 353              	.LBB109:
 354              	.LBI109:
 235:Drivers/lvgl/src/core/lv_obj_style_gen.h **** {
 355              		.loc 2 235 26 view .LVU114
 356              	.LBB110:
 237:Drivers/lvgl/src/core/lv_obj_style_gen.h ****     return v.color;
 357              		.loc 2 237 5 view .LVU115
 237:Drivers/lvgl/src/core/lv_obj_style_gen.h ****     return v.color;
 358              		.loc 2 237 26 is_stmt 0 view .LVU116
 359 00c4 3022     		movs	r2, #48
 360 00c6 4FF48031 		mov	r1, #65536
 361 00ca 2846     		mov	r0, r5
 362 00cc FFF7FEFF 		bl	lv_obj_get_style_prop
 363              	.LVL32:
 238:Drivers/lvgl/src/core/lv_obj_style_gen.h **** }
 364              		.loc 2 238 5 is_stmt 1 view .LVU117
 238:Drivers/lvgl/src/core/lv_obj_style_gen.h **** }
 365              		.loc 2 238 5 is_stmt 0 view .LVU118
 366              	.LBE110:
 367              	.LBE109:
 685:Drivers/lvgl/src/core/lv_obj.c ****         }
 368              		.loc 1 685 33 view .LVU119
 369 00d0 E083     		strh	r0, [r4, #30]	@ movhi
 370 00d2 B0E7     		b	.L13
 371              	.L23:
 695:Drivers/lvgl/src/core/lv_obj.c ****         if(dsc->shadow_width > 0) {
 372              		.loc 1 695 9 is_stmt 1 view .LVU120
 373              	.LVL33:
 374              	.LBB111:
 375              	.LBI111:
 301:Drivers/lvgl/src/core/lv_obj_style_gen.h **** {
 376              		.loc 2 301 26 view .LVU121
 377              	.LBB112:
 303:Drivers/lvgl/src/core/lv_obj_style_gen.h ****     return (lv_coord_t)v.num;
 378              		.loc 2 303 5 view .LVU122
 303:Drivers/lvgl/src/core/lv_obj_style_gen.h ****     return (lv_coord_t)v.num;
 379              		.loc 2 303 26 is_stmt 0 view .LVU123
 380 00d4 4022     		movs	r2, #64
 381 00d6 4FF48031 		mov	r1, #65536
 382 00da 2846     		mov	r0, r5
 383 00dc FFF7FEFF 		bl	lv_obj_get_style_prop
 384              	.LVL34:
 304:Drivers/lvgl/src/core/lv_obj_style_gen.h **** }
 385              		.loc 2 304 5 is_stmt 1 view .LVU124
 304:Drivers/lvgl/src/core/lv_obj_style_gen.h **** }
 386              		.loc 2 304 12 is_stmt 0 view .LVU125
 387 00e0 00B2     		sxth	r0, r0
 388              	.LVL35:
 304:Drivers/lvgl/src/core/lv_obj_style_gen.h **** }
 389              		.loc 2 304 12 view .LVU126
 390              	.LBE112:
 391              	.LBE111:
 695:Drivers/lvgl/src/core/lv_obj.c ****         if(dsc->shadow_width > 0) {
ARM GAS  /var/folders/0z/tsy30v1j4xl4_7kw94k978ww0000gn/T//ccVt8IXl.s 			page 35


 392              		.loc 1 695 27 view .LVU127
 393 00e2 E085     		strh	r0, [r4, #46]	@ movhi
 696:Drivers/lvgl/src/core/lv_obj.c ****             dsc->shadow_spread = lv_obj_get_style_shadow_spread(obj, LV_PART_SCROLLBAR);
 394              		.loc 1 696 9 is_stmt 1 view .LVU128
 696:Drivers/lvgl/src/core/lv_obj.c ****             dsc->shadow_spread = lv_obj_get_style_shadow_spread(obj, LV_PART_SCROLLBAR);
 395              		.loc 1 696 11 is_stmt 0 view .LVU129
 396 00e4 0028     		cmp	r0, #0
 397 00e6 03DC     		bgt	.L25
 701:Drivers/lvgl/src/core/lv_obj.c ****         }
 398              		.loc 1 701 13 is_stmt 1 view .LVU130
 701:Drivers/lvgl/src/core/lv_obj.c ****         }
 399              		.loc 1 701 29 is_stmt 0 view .LVU131
 400 00e8 0023     		movs	r3, #0
 401 00ea 84F83630 		strb	r3, [r4, #54]
 402 00ee ADE7     		b	.L15
 403              	.L25:
 697:Drivers/lvgl/src/core/lv_obj.c ****             dsc->shadow_color = lv_obj_get_style_shadow_color(obj, LV_PART_SCROLLBAR);
 404              		.loc 1 697 13 is_stmt 1 view .LVU132
 405              	.LVL36:
 406              	.LBB113:
 407              	.LBI113:
 319:Drivers/lvgl/src/core/lv_obj_style_gen.h **** {
 408              		.loc 2 319 26 view .LVU133
 409              	.LBB114:
 321:Drivers/lvgl/src/core/lv_obj_style_gen.h ****     return (lv_coord_t)v.num;
 410              		.loc 2 321 5 view .LVU134
 321:Drivers/lvgl/src/core/lv_obj_style_gen.h ****     return (lv_coord_t)v.num;
 411              		.loc 2 321 26 is_stmt 0 view .LVU135
 412 00f0 4322     		movs	r2, #67
 413 00f2 4FF48031 		mov	r1, #65536
 414 00f6 2846     		mov	r0, r5
 415 00f8 FFF7FEFF 		bl	lv_obj_get_style_prop
 416              	.LVL37:
 322:Drivers/lvgl/src/core/lv_obj_style_gen.h **** }
 417              		.loc 2 322 5 is_stmt 1 view .LVU136
 322:Drivers/lvgl/src/core/lv_obj_style_gen.h **** }
 418              		.loc 2 322 5 is_stmt 0 view .LVU137
 419              	.LBE114:
 420              	.LBE113:
 697:Drivers/lvgl/src/core/lv_obj.c ****             dsc->shadow_color = lv_obj_get_style_shadow_color(obj, LV_PART_SCROLLBAR);
 421              		.loc 1 697 32 view .LVU138
 422 00fc A086     		strh	r0, [r4, #52]	@ movhi
 698:Drivers/lvgl/src/core/lv_obj.c ****         }
 423              		.loc 1 698 13 is_stmt 1 view .LVU139
 424              	.LVL38:
 425              	.LBB115:
 426              	.LBI115:
 325:Drivers/lvgl/src/core/lv_obj_style_gen.h **** {
 427              		.loc 2 325 26 view .LVU140
 428              	.LBB116:
 327:Drivers/lvgl/src/core/lv_obj_style_gen.h ****     return v.color;
 429              		.loc 2 327 5 view .LVU141
 327:Drivers/lvgl/src/core/lv_obj_style_gen.h ****     return v.color;
 430              		.loc 2 327 26 is_stmt 0 view .LVU142
 431 00fe 4422     		movs	r2, #68
 432 0100 4FF48031 		mov	r1, #65536
 433 0104 2846     		mov	r0, r5
ARM GAS  /var/folders/0z/tsy30v1j4xl4_7kw94k978ww0000gn/T//ccVt8IXl.s 			page 36


 434 0106 FFF7FEFF 		bl	lv_obj_get_style_prop
 435              	.LVL39:
 328:Drivers/lvgl/src/core/lv_obj_style_gen.h **** }
 436              		.loc 2 328 5 is_stmt 1 view .LVU143
 328:Drivers/lvgl/src/core/lv_obj_style_gen.h **** }
 437              		.loc 2 328 5 is_stmt 0 view .LVU144
 438              	.LBE116:
 439              	.LBE115:
 698:Drivers/lvgl/src/core/lv_obj.c ****         }
 440              		.loc 1 698 33 view .LVU145
 441 010a A085     		strh	r0, [r4, #44]	@ movhi
 442 010c 9EE7     		b	.L15
 443              		.cfi_endproc
 444              	.LFE226:
 446              		.section	.text.draw_scrollbar,"ax",%progbits
 447              		.align	1
 448              		.syntax unified
 449              		.thumb
 450              		.thumb_func
 452              	draw_scrollbar:
 453              	.LVL40:
 454              	.LFB225:
 633:Drivers/lvgl/src/core/lv_obj.c **** 
 455              		.loc 1 633 1 is_stmt 1 view -0
 456              		.cfi_startproc
 457              		@ args = 0, pretend = 0, frame = 144
 458              		@ frame_needed = 0, uses_anonymous_args = 0
 633:Drivers/lvgl/src/core/lv_obj.c **** 
 459              		.loc 1 633 1 is_stmt 0 view .LVU147
 460 0000 70B5     		push	{r4, r5, r6, lr}
 461              		.cfi_def_cfa_offset 16
 462              		.cfi_offset 4, -16
 463              		.cfi_offset 5, -12
 464              		.cfi_offset 6, -8
 465              		.cfi_offset 14, -4
 466 0002 A4B0     		sub	sp, sp, #144
 467              		.cfi_def_cfa_offset 160
 468 0004 0446     		mov	r4, r0
 469 0006 0D46     		mov	r5, r1
 635:Drivers/lvgl/src/core/lv_obj.c ****     lv_area_t ver_area;
 470              		.loc 1 635 5 is_stmt 1 view .LVU148
 636:Drivers/lvgl/src/core/lv_obj.c ****     lv_obj_get_scrollbar_area(obj, &hor_area, &ver_area);
 471              		.loc 1 636 5 view .LVU149
 637:Drivers/lvgl/src/core/lv_obj.c **** 
 472              		.loc 1 637 5 view .LVU150
 473 0008 20AA     		add	r2, sp, #128
 474 000a 22A9     		add	r1, sp, #136
 475              	.LVL41:
 637:Drivers/lvgl/src/core/lv_obj.c **** 
 476              		.loc 1 637 5 is_stmt 0 view .LVU151
 477 000c FFF7FEFF 		bl	lv_obj_get_scrollbar_area
 478              	.LVL42:
 639:Drivers/lvgl/src/core/lv_obj.c **** 
 479              		.loc 1 639 5 is_stmt 1 view .LVU152
 639:Drivers/lvgl/src/core/lv_obj.c **** 
 480              		.loc 1 639 8 is_stmt 0 view .LVU153
 481 0010 22A8     		add	r0, sp, #136
ARM GAS  /var/folders/0z/tsy30v1j4xl4_7kw94k978ww0000gn/T//ccVt8IXl.s 			page 37


 482 0012 FFF7FEFF 		bl	lv_area_get_size
 483              	.LVL43:
 639:Drivers/lvgl/src/core/lv_obj.c **** 
 484              		.loc 1 639 7 view .LVU154
 485 0016 18B9     		cbnz	r0, .L27
 639:Drivers/lvgl/src/core/lv_obj.c **** 
 486              		.loc 1 639 44 discriminator 1 view .LVU155
 487 0018 20A8     		add	r0, sp, #128
 488 001a FFF7FEFF 		bl	lv_area_get_size
 489              	.LVL44:
 639:Drivers/lvgl/src/core/lv_obj.c **** 
 490              		.loc 1 639 41 discriminator 1 view .LVU156
 491 001e 28B1     		cbz	r0, .L26
 492              	.L27:
 641:Drivers/lvgl/src/core/lv_obj.c ****     lv_res_t sb_res = scrollbar_init_draw_dsc(obj, &draw_dsc);
 493              		.loc 1 641 5 is_stmt 1 view .LVU157
 642:Drivers/lvgl/src/core/lv_obj.c ****     if(sb_res != LV_RES_OK) return;
 494              		.loc 1 642 5 view .LVU158
 642:Drivers/lvgl/src/core/lv_obj.c ****     if(sb_res != LV_RES_OK) return;
 495              		.loc 1 642 23 is_stmt 0 view .LVU159
 496 0020 12A9     		add	r1, sp, #72
 497 0022 2046     		mov	r0, r4
 498 0024 FFF7FEFF 		bl	scrollbar_init_draw_dsc
 499              	.LVL45:
 643:Drivers/lvgl/src/core/lv_obj.c **** 
 500              		.loc 1 643 5 is_stmt 1 view .LVU160
 643:Drivers/lvgl/src/core/lv_obj.c **** 
 501              		.loc 1 643 7 is_stmt 0 view .LVU161
 502 0028 0128     		cmp	r0, #1
 503 002a 01D0     		beq	.L33
 504              	.LVL46:
 505              	.L26:
 665:Drivers/lvgl/src/core/lv_obj.c **** 
 506              		.loc 1 665 1 view .LVU162
 507 002c 24B0     		add	sp, sp, #144
 508              		.cfi_remember_state
 509              		.cfi_def_cfa_offset 16
 510              		@ sp needed
 511 002e 70BD     		pop	{r4, r5, r6, pc}
 512              	.LVL47:
 513              	.L33:
 514              		.cfi_restore_state
 645:Drivers/lvgl/src/core/lv_obj.c ****     lv_obj_draw_dsc_init(&part_dsc, draw_ctx);
 515              		.loc 1 645 5 is_stmt 1 view .LVU163
 646:Drivers/lvgl/src/core/lv_obj.c ****     part_dsc.class_p = MY_CLASS;
 516              		.loc 1 646 5 view .LVU164
 517 0030 2946     		mov	r1, r5
 518 0032 6846     		mov	r0, sp
 519              	.LVL48:
 646:Drivers/lvgl/src/core/lv_obj.c ****     part_dsc.class_p = MY_CLASS;
 520              		.loc 1 646 5 is_stmt 0 view .LVU165
 521 0034 FFF7FEFF 		bl	lv_obj_draw_dsc_init
 522              	.LVL49:
 647:Drivers/lvgl/src/core/lv_obj.c ****     part_dsc.type = LV_OBJ_DRAW_PART_SCROLLBAR;
 523              		.loc 1 647 5 is_stmt 1 view .LVU166
 647:Drivers/lvgl/src/core/lv_obj.c ****     part_dsc.type = LV_OBJ_DRAW_PART_SCROLLBAR;
 524              		.loc 1 647 22 is_stmt 0 view .LVU167
ARM GAS  /var/folders/0z/tsy30v1j4xl4_7kw94k978ww0000gn/T//ccVt8IXl.s 			page 38


 525 0038 1B4B     		ldr	r3, .L35
 526 003a 0193     		str	r3, [sp, #4]
 648:Drivers/lvgl/src/core/lv_obj.c ****     part_dsc.rect_dsc = &draw_dsc;
 527              		.loc 1 648 5 is_stmt 1 view .LVU168
 648:Drivers/lvgl/src/core/lv_obj.c ****     part_dsc.rect_dsc = &draw_dsc;
 528              		.loc 1 648 19 is_stmt 0 view .LVU169
 529 003c 0223     		movs	r3, #2
 530 003e 0293     		str	r3, [sp, #8]
 649:Drivers/lvgl/src/core/lv_obj.c ****     part_dsc.part = LV_PART_SCROLLBAR;
 531              		.loc 1 649 5 is_stmt 1 view .LVU170
 649:Drivers/lvgl/src/core/lv_obj.c ****     part_dsc.part = LV_PART_SCROLLBAR;
 532              		.loc 1 649 23 is_stmt 0 view .LVU171
 533 0040 12AB     		add	r3, sp, #72
 534 0042 0493     		str	r3, [sp, #16]
 650:Drivers/lvgl/src/core/lv_obj.c **** 
 535              		.loc 1 650 5 is_stmt 1 view .LVU172
 650:Drivers/lvgl/src/core/lv_obj.c **** 
 536              		.loc 1 650 19 is_stmt 0 view .LVU173
 537 0044 4FF48033 		mov	r3, #65536
 538 0048 0D93     		str	r3, [sp, #52]
 652:Drivers/lvgl/src/core/lv_obj.c ****         part_dsc.draw_area = &hor_area;
 539              		.loc 1 652 5 is_stmt 1 view .LVU174
 652:Drivers/lvgl/src/core/lv_obj.c ****         part_dsc.draw_area = &hor_area;
 540              		.loc 1 652 8 is_stmt 0 view .LVU175
 541 004a 22A8     		add	r0, sp, #136
 542 004c FFF7FEFF 		bl	lv_area_get_size
 543              	.LVL50:
 652:Drivers/lvgl/src/core/lv_obj.c ****         part_dsc.draw_area = &hor_area;
 544              		.loc 1 652 7 view .LVU176
 545 0050 B8B9     		cbnz	r0, .L34
 546              	.L29:
 658:Drivers/lvgl/src/core/lv_obj.c ****         part_dsc.draw_area = &ver_area;
 547              		.loc 1 658 5 is_stmt 1 view .LVU177
 658:Drivers/lvgl/src/core/lv_obj.c ****         part_dsc.draw_area = &ver_area;
 548              		.loc 1 658 8 is_stmt 0 view .LVU178
 549 0052 20A8     		add	r0, sp, #128
 550 0054 FFF7FEFF 		bl	lv_area_get_size
 551              	.LVL51:
 658:Drivers/lvgl/src/core/lv_obj.c ****         part_dsc.draw_area = &ver_area;
 552              		.loc 1 658 7 view .LVU179
 553 0058 0028     		cmp	r0, #0
 554 005a E7D0     		beq	.L26
 659:Drivers/lvgl/src/core/lv_obj.c ****         lv_event_send(obj, LV_EVENT_DRAW_PART_BEGIN, &part_dsc);
 555              		.loc 1 659 9 is_stmt 1 view .LVU180
 659:Drivers/lvgl/src/core/lv_obj.c ****         lv_event_send(obj, LV_EVENT_DRAW_PART_BEGIN, &part_dsc);
 556              		.loc 1 659 28 is_stmt 0 view .LVU181
 557 005c 20AE     		add	r6, sp, #128
 558 005e 0396     		str	r6, [sp, #12]
 660:Drivers/lvgl/src/core/lv_obj.c ****         part_dsc.draw_area = &ver_area;
 559              		.loc 1 660 9 is_stmt 1 view .LVU182
 560 0060 6A46     		mov	r2, sp
 561 0062 1A21     		movs	r1, #26
 562 0064 2046     		mov	r0, r4
 563 0066 FFF7FEFF 		bl	lv_event_send
 564              	.LVL52:
 661:Drivers/lvgl/src/core/lv_obj.c ****         lv_draw_rect(draw_ctx, &draw_dsc, &ver_area);
 565              		.loc 1 661 9 view .LVU183
ARM GAS  /var/folders/0z/tsy30v1j4xl4_7kw94k978ww0000gn/T//ccVt8IXl.s 			page 39


 661:Drivers/lvgl/src/core/lv_obj.c ****         lv_draw_rect(draw_ctx, &draw_dsc, &ver_area);
 566              		.loc 1 661 28 is_stmt 0 view .LVU184
 567 006a 0396     		str	r6, [sp, #12]
 662:Drivers/lvgl/src/core/lv_obj.c ****         lv_event_send(obj, LV_EVENT_DRAW_PART_END, &part_dsc);
 568              		.loc 1 662 9 is_stmt 1 view .LVU185
 569 006c 3246     		mov	r2, r6
 570 006e 12A9     		add	r1, sp, #72
 571 0070 2846     		mov	r0, r5
 572 0072 FFF7FEFF 		bl	lv_draw_rect
 573              	.LVL53:
 663:Drivers/lvgl/src/core/lv_obj.c ****     }
 574              		.loc 1 663 9 view .LVU186
 575 0076 6A46     		mov	r2, sp
 576 0078 1B21     		movs	r1, #27
 577 007a 2046     		mov	r0, r4
 578 007c FFF7FEFF 		bl	lv_event_send
 579              	.LVL54:
 580 0080 D4E7     		b	.L26
 581              	.L34:
 653:Drivers/lvgl/src/core/lv_obj.c ****         lv_event_send(obj, LV_EVENT_DRAW_PART_BEGIN, &part_dsc);
 582              		.loc 1 653 9 view .LVU187
 653:Drivers/lvgl/src/core/lv_obj.c ****         lv_event_send(obj, LV_EVENT_DRAW_PART_BEGIN, &part_dsc);
 583              		.loc 1 653 28 is_stmt 0 view .LVU188
 584 0082 22AE     		add	r6, sp, #136
 585 0084 0396     		str	r6, [sp, #12]
 654:Drivers/lvgl/src/core/lv_obj.c ****         lv_draw_rect(draw_ctx, &draw_dsc, &hor_area);
 586              		.loc 1 654 9 is_stmt 1 view .LVU189
 587 0086 6A46     		mov	r2, sp
 588 0088 1A21     		movs	r1, #26
 589 008a 2046     		mov	r0, r4
 590 008c FFF7FEFF 		bl	lv_event_send
 591              	.LVL55:
 655:Drivers/lvgl/src/core/lv_obj.c ****         lv_event_send(obj, LV_EVENT_DRAW_PART_END, &part_dsc);
 592              		.loc 1 655 9 view .LVU190
 593 0090 3246     		mov	r2, r6
 594 0092 12A9     		add	r1, sp, #72
 595 0094 2846     		mov	r0, r5
 596 0096 FFF7FEFF 		bl	lv_draw_rect
 597              	.LVL56:
 656:Drivers/lvgl/src/core/lv_obj.c ****     }
 598              		.loc 1 656 9 view .LVU191
 599 009a 6A46     		mov	r2, sp
 600 009c 1B21     		movs	r1, #27
 601 009e 2046     		mov	r0, r4
 602 00a0 FFF7FEFF 		bl	lv_event_send
 603              	.LVL57:
 604 00a4 D5E7     		b	.L29
 605              	.L36:
 606 00a6 00BF     		.align	2
 607              	.L35:
 608 00a8 00000000 		.word	.LANCHOR0
 609              		.cfi_endproc
 610              	.LFE225:
 612              		.section	.text.lv_obj_draw,"ax",%progbits
 613              		.align	1
 614              		.syntax unified
 615              		.thumb
ARM GAS  /var/folders/0z/tsy30v1j4xl4_7kw94k978ww0000gn/T//ccVt8IXl.s 			page 40


 616              		.thumb_func
 618              	lv_obj_draw:
 619              	.LVL58:
 620              	.LFB224:
 484:Drivers/lvgl/src/core/lv_obj.c ****     lv_event_code_t code = lv_event_get_code(e);
 621              		.loc 1 484 1 view -0
 622              		.cfi_startproc
 623              		@ args = 0, pretend = 0, frame = 136
 624              		@ frame_needed = 0, uses_anonymous_args = 0
 484:Drivers/lvgl/src/core/lv_obj.c ****     lv_event_code_t code = lv_event_get_code(e);
 625              		.loc 1 484 1 is_stmt 0 view .LVU193
 626 0000 2DE9F041 		push	{r4, r5, r6, r7, r8, lr}
 627              		.cfi_def_cfa_offset 24
 628              		.cfi_offset 4, -24
 629              		.cfi_offset 5, -20
 630              		.cfi_offset 6, -16
 631              		.cfi_offset 7, -12
 632              		.cfi_offset 8, -8
 633              		.cfi_offset 14, -4
 634 0004 A2B0     		sub	sp, sp, #136
 635              		.cfi_def_cfa_offset 160
 636 0006 0646     		mov	r6, r0
 485:Drivers/lvgl/src/core/lv_obj.c ****     lv_obj_t * obj = lv_event_get_target(e);
 637              		.loc 1 485 5 is_stmt 1 view .LVU194
 485:Drivers/lvgl/src/core/lv_obj.c ****     lv_obj_t * obj = lv_event_get_target(e);
 638              		.loc 1 485 28 is_stmt 0 view .LVU195
 639 0008 FFF7FEFF 		bl	lv_event_get_code
 640              	.LVL59:
 485:Drivers/lvgl/src/core/lv_obj.c ****     lv_obj_t * obj = lv_event_get_target(e);
 641              		.loc 1 485 28 view .LVU196
 642 000c 0546     		mov	r5, r0
 643              	.LVL60:
 486:Drivers/lvgl/src/core/lv_obj.c ****     if(code == LV_EVENT_COVER_CHECK) {
 644              		.loc 1 486 5 is_stmt 1 view .LVU197
 486:Drivers/lvgl/src/core/lv_obj.c ****     if(code == LV_EVENT_COVER_CHECK) {
 645              		.loc 1 486 22 is_stmt 0 view .LVU198
 646 000e 3046     		mov	r0, r6
 647 0010 FFF7FEFF 		bl	lv_event_get_target
 648              	.LVL61:
 649 0014 0446     		mov	r4, r0
 650              	.LVL62:
 487:Drivers/lvgl/src/core/lv_obj.c ****         lv_cover_check_info_t * info = lv_event_get_param(e);
 651              		.loc 1 487 5 is_stmt 1 view .LVU199
 487:Drivers/lvgl/src/core/lv_obj.c ****         lv_cover_check_info_t * info = lv_event_get_param(e);
 652              		.loc 1 487 7 is_stmt 0 view .LVU200
 653 0016 122D     		cmp	r5, #18
 654 0018 07D0     		beq	.L54
 524:Drivers/lvgl/src/core/lv_obj.c ****         lv_draw_ctx_t * draw_ctx = lv_event_get_draw_ctx(e);
 655              		.loc 1 524 10 is_stmt 1 view .LVU201
 524:Drivers/lvgl/src/core/lv_obj.c ****         lv_draw_ctx_t * draw_ctx = lv_event_get_draw_ctx(e);
 656              		.loc 1 524 12 is_stmt 0 view .LVU202
 657 001a 152D     		cmp	r5, #21
 658 001c 66D0     		beq	.L55
 584:Drivers/lvgl/src/core/lv_obj.c ****         lv_draw_ctx_t * draw_ctx = lv_event_get_draw_ctx(e);
 659              		.loc 1 584 10 is_stmt 1 view .LVU203
 584:Drivers/lvgl/src/core/lv_obj.c ****         lv_draw_ctx_t * draw_ctx = lv_event_get_draw_ctx(e);
 660              		.loc 1 584 12 is_stmt 0 view .LVU204
ARM GAS  /var/folders/0z/tsy30v1j4xl4_7kw94k978ww0000gn/T//ccVt8IXl.s 			page 41


 661 001e 182D     		cmp	r5, #24
 662 0020 00F0F880 		beq	.L56
 663              	.LVL63:
 664              	.L37:
 630:Drivers/lvgl/src/core/lv_obj.c **** 
 665              		.loc 1 630 1 view .LVU205
 666 0024 22B0     		add	sp, sp, #136
 667              		.cfi_remember_state
 668              		.cfi_def_cfa_offset 24
 669              		@ sp needed
 670 0026 BDE8F081 		pop	{r4, r5, r6, r7, r8, pc}
 671              	.LVL64:
 672              	.L54:
 673              		.cfi_restore_state
 674              	.LBB117:
 488:Drivers/lvgl/src/core/lv_obj.c ****         if(info->res == LV_COVER_RES_MASKED) return;
 675              		.loc 1 488 9 is_stmt 1 view .LVU206
 488:Drivers/lvgl/src/core/lv_obj.c ****         if(info->res == LV_COVER_RES_MASKED) return;
 676              		.loc 1 488 40 is_stmt 0 view .LVU207
 677 002a 3046     		mov	r0, r6
 678              	.LVL65:
 488:Drivers/lvgl/src/core/lv_obj.c ****         if(info->res == LV_COVER_RES_MASKED) return;
 679              		.loc 1 488 40 view .LVU208
 680 002c FFF7FEFF 		bl	lv_event_get_param
 681              	.LVL66:
 682 0030 0546     		mov	r5, r0
 683              	.LVL67:
 489:Drivers/lvgl/src/core/lv_obj.c ****         if(lv_obj_get_style_clip_corner(obj, LV_PART_MAIN)) {
 684              		.loc 1 489 9 is_stmt 1 view .LVU209
 489:Drivers/lvgl/src/core/lv_obj.c ****         if(lv_obj_get_style_clip_corner(obj, LV_PART_MAIN)) {
 685              		.loc 1 489 16 is_stmt 0 view .LVU210
 686 0032 0378     		ldrb	r3, [r0]	@ zero_extendqisi2
 489:Drivers/lvgl/src/core/lv_obj.c ****         if(lv_obj_get_style_clip_corner(obj, LV_PART_MAIN)) {
 687              		.loc 1 489 11 view .LVU211
 688 0034 022B     		cmp	r3, #2
 689 0036 F5D0     		beq	.L37
 490:Drivers/lvgl/src/core/lv_obj.c ****             info->res = LV_COVER_RES_MASKED;
 690              		.loc 1 490 9 is_stmt 1 view .LVU212
 691              	.LVL68:
 692              	.LBB118:
 693              	.LBI118:
 497:Drivers/lvgl/src/core/lv_obj_style_gen.h **** }
 498:Drivers/lvgl/src/core/lv_obj_style_gen.h **** 
 499:Drivers/lvgl/src/core/lv_obj_style_gen.h **** static inline bool lv_obj_get_style_clip_corner(const struct _lv_obj_t * obj, uint32_t part)
 694              		.loc 2 499 20 view .LVU213
 695              	.LBB119:
 500:Drivers/lvgl/src/core/lv_obj_style_gen.h **** {
 501:Drivers/lvgl/src/core/lv_obj_style_gen.h ****     lv_style_value_t v = lv_obj_get_style_prop(obj, part, LV_STYLE_CLIP_CORNER);
 696              		.loc 2 501 5 view .LVU214
 697              		.loc 2 501 26 is_stmt 0 view .LVU215
 698 0038 1722     		movs	r2, #23
 699 003a 0021     		movs	r1, #0
 700 003c 2046     		mov	r0, r4
 701              	.LVL69:
 702              		.loc 2 501 26 view .LVU216
 703 003e FFF7FEFF 		bl	lv_obj_get_style_prop
 704              	.LVL70:
ARM GAS  /var/folders/0z/tsy30v1j4xl4_7kw94k978ww0000gn/T//ccVt8IXl.s 			page 42


 502:Drivers/lvgl/src/core/lv_obj_style_gen.h ****     return (bool)v.num;
 705              		.loc 2 502 5 is_stmt 1 view .LVU217
 706              		.loc 2 502 5 is_stmt 0 view .LVU218
 707              	.LBE119:
 708              	.LBE118:
 490:Drivers/lvgl/src/core/lv_obj.c ****             info->res = LV_COVER_RES_MASKED;
 709              		.loc 1 490 11 view .LVU219
 710 0042 10B1     		cbz	r0, .L40
 491:Drivers/lvgl/src/core/lv_obj.c ****             return;
 711              		.loc 1 491 13 is_stmt 1 view .LVU220
 491:Drivers/lvgl/src/core/lv_obj.c ****             return;
 712              		.loc 1 491 23 is_stmt 0 view .LVU221
 713 0044 0223     		movs	r3, #2
 714 0046 2B70     		strb	r3, [r5]
 492:Drivers/lvgl/src/core/lv_obj.c ****         }
 715              		.loc 1 492 13 is_stmt 1 view .LVU222
 716 0048 ECE7     		b	.L37
 717              	.L40:
 496:Drivers/lvgl/src/core/lv_obj.c ****         lv_coord_t w = lv_obj_get_style_transform_width(obj, LV_PART_MAIN);
 718              		.loc 1 496 9 view .LVU223
 719              	.LVL71:
 720              	.LBB120:
 721              	.LBI120:
 493:Drivers/lvgl/src/core/lv_obj_style_gen.h **** {
 722              		.loc 2 493 26 view .LVU224
 723              	.LBB121:
 495:Drivers/lvgl/src/core/lv_obj_style_gen.h ****     return (lv_coord_t)v.num;
 724              		.loc 2 495 5 view .LVU225
 495:Drivers/lvgl/src/core/lv_obj_style_gen.h ****     return (lv_coord_t)v.num;
 725              		.loc 2 495 26 is_stmt 0 view .LVU226
 726 004a 0B22     		movs	r2, #11
 727 004c 0021     		movs	r1, #0
 728 004e 2046     		mov	r0, r4
 729 0050 FFF7FEFF 		bl	lv_obj_get_style_prop
 730              	.LVL72:
 496:Drivers/lvgl/src/core/lv_obj_style_gen.h **** }
 731              		.loc 2 496 5 is_stmt 1 view .LVU227
 496:Drivers/lvgl/src/core/lv_obj_style_gen.h **** }
 732              		.loc 2 496 12 is_stmt 0 view .LVU228
 733 0054 07B2     		sxth	r7, r0
 734              	.LVL73:
 496:Drivers/lvgl/src/core/lv_obj_style_gen.h **** }
 735              		.loc 2 496 12 view .LVU229
 736              	.LBE121:
 737              	.LBE120:
 497:Drivers/lvgl/src/core/lv_obj.c ****         lv_coord_t h = lv_obj_get_style_transform_height(obj, LV_PART_MAIN);
 738              		.loc 1 497 9 is_stmt 1 view .LVU230
 739              	.LBB122:
 740              	.LBI122:
  55:Drivers/lvgl/src/core/lv_obj_style_gen.h **** {
 741              		.loc 2 55 26 view .LVU231
 742              	.LBB123:
  57:Drivers/lvgl/src/core/lv_obj_style_gen.h ****     return (lv_coord_t)v.num;
 743              		.loc 2 57 5 view .LVU232
  57:Drivers/lvgl/src/core/lv_obj_style_gen.h ****     return (lv_coord_t)v.num;
 744              		.loc 2 57 26 is_stmt 0 view .LVU233
 745 0056 6922     		movs	r2, #105
ARM GAS  /var/folders/0z/tsy30v1j4xl4_7kw94k978ww0000gn/T//ccVt8IXl.s 			page 43


 746 0058 0021     		movs	r1, #0
 747 005a 2046     		mov	r0, r4
 748 005c FFF7FEFF 		bl	lv_obj_get_style_prop
 749              	.LVL74:
 750 0060 0646     		mov	r6, r0
 751              	.LVL75:
  58:Drivers/lvgl/src/core/lv_obj_style_gen.h **** }
 752              		.loc 2 58 5 is_stmt 1 view .LVU234
  58:Drivers/lvgl/src/core/lv_obj_style_gen.h **** }
 753              		.loc 2 58 5 is_stmt 0 view .LVU235
 754              	.LBE123:
 755              	.LBE122:
 498:Drivers/lvgl/src/core/lv_obj.c ****         lv_area_t coords;
 756              		.loc 1 498 9 is_stmt 1 view .LVU236
 757              	.LBB124:
 758              	.LBI124:
  61:Drivers/lvgl/src/core/lv_obj_style_gen.h **** {
 759              		.loc 2 61 26 view .LVU237
 760              	.LBB125:
  63:Drivers/lvgl/src/core/lv_obj_style_gen.h ****     return (lv_coord_t)v.num;
 761              		.loc 2 63 5 view .LVU238
  63:Drivers/lvgl/src/core/lv_obj_style_gen.h ****     return (lv_coord_t)v.num;
 762              		.loc 2 63 26 is_stmt 0 view .LVU239
 763 0062 6A22     		movs	r2, #106
 764 0064 0021     		movs	r1, #0
 765 0066 2046     		mov	r0, r4
 766 0068 FFF7FEFF 		bl	lv_obj_get_style_prop
 767              	.LVL76:
  64:Drivers/lvgl/src/core/lv_obj_style_gen.h **** }
 768              		.loc 2 64 5 is_stmt 1 view .LVU240
  64:Drivers/lvgl/src/core/lv_obj_style_gen.h **** }
 769              		.loc 2 64 5 is_stmt 0 view .LVU241
 770              	.LBE125:
 771              	.LBE124:
 499:Drivers/lvgl/src/core/lv_obj.c ****         lv_area_copy(&coords, &obj->coords);
 772              		.loc 1 499 9 is_stmt 1 view .LVU242
 500:Drivers/lvgl/src/core/lv_obj.c ****         coords.x1 -= w;
 773              		.loc 1 500 9 view .LVU243
 774              	.LBB126:
 775              	.LBI126:
 776              		.file 3 "Drivers/lvgl/src/core/../misc/../font/../misc/lv_area.h"
   1:Drivers/lvgl/src/core/../misc/../font/../misc/lv_area.h **** /**
   2:Drivers/lvgl/src/core/../misc/../font/../misc/lv_area.h ****  * @file lv_area.h
   3:Drivers/lvgl/src/core/../misc/../font/../misc/lv_area.h ****  *
   4:Drivers/lvgl/src/core/../misc/../font/../misc/lv_area.h ****  */
   5:Drivers/lvgl/src/core/../misc/../font/../misc/lv_area.h **** 
   6:Drivers/lvgl/src/core/../misc/../font/../misc/lv_area.h **** #ifndef LV_AREA_H
   7:Drivers/lvgl/src/core/../misc/../font/../misc/lv_area.h **** #define LV_AREA_H
   8:Drivers/lvgl/src/core/../misc/../font/../misc/lv_area.h **** 
   9:Drivers/lvgl/src/core/../misc/../font/../misc/lv_area.h **** #ifdef __cplusplus
  10:Drivers/lvgl/src/core/../misc/../font/../misc/lv_area.h **** extern "C" {
  11:Drivers/lvgl/src/core/../misc/../font/../misc/lv_area.h **** #endif
  12:Drivers/lvgl/src/core/../misc/../font/../misc/lv_area.h **** 
  13:Drivers/lvgl/src/core/../misc/../font/../misc/lv_area.h **** /*********************
  14:Drivers/lvgl/src/core/../misc/../font/../misc/lv_area.h ****  *      INCLUDES
  15:Drivers/lvgl/src/core/../misc/../font/../misc/lv_area.h ****  *********************/
  16:Drivers/lvgl/src/core/../misc/../font/../misc/lv_area.h **** #include "../lv_conf_internal.h"
ARM GAS  /var/folders/0z/tsy30v1j4xl4_7kw94k978ww0000gn/T//ccVt8IXl.s 			page 44


  17:Drivers/lvgl/src/core/../misc/../font/../misc/lv_area.h **** #include <stdbool.h>
  18:Drivers/lvgl/src/core/../misc/../font/../misc/lv_area.h **** #include <stdint.h>
  19:Drivers/lvgl/src/core/../misc/../font/../misc/lv_area.h **** 
  20:Drivers/lvgl/src/core/../misc/../font/../misc/lv_area.h **** /*********************
  21:Drivers/lvgl/src/core/../misc/../font/../misc/lv_area.h ****  *      DEFINES
  22:Drivers/lvgl/src/core/../misc/../font/../misc/lv_area.h ****  *********************/
  23:Drivers/lvgl/src/core/../misc/../font/../misc/lv_area.h **** 
  24:Drivers/lvgl/src/core/../misc/../font/../misc/lv_area.h **** #if LV_USE_LARGE_COORD
  25:Drivers/lvgl/src/core/../misc/../font/../misc/lv_area.h **** typedef int32_t lv_coord_t;
  26:Drivers/lvgl/src/core/../misc/../font/../misc/lv_area.h **** #else
  27:Drivers/lvgl/src/core/../misc/../font/../misc/lv_area.h **** typedef int16_t lv_coord_t;
  28:Drivers/lvgl/src/core/../misc/../font/../misc/lv_area.h **** #endif
  29:Drivers/lvgl/src/core/../misc/../font/../misc/lv_area.h **** 
  30:Drivers/lvgl/src/core/../misc/../font/../misc/lv_area.h **** /**********************
  31:Drivers/lvgl/src/core/../misc/../font/../misc/lv_area.h ****  *      TYPEDEFS
  32:Drivers/lvgl/src/core/../misc/../font/../misc/lv_area.h ****  **********************/
  33:Drivers/lvgl/src/core/../misc/../font/../misc/lv_area.h **** 
  34:Drivers/lvgl/src/core/../misc/../font/../misc/lv_area.h **** /**
  35:Drivers/lvgl/src/core/../misc/../font/../misc/lv_area.h ****  * Represents a point on the screen.
  36:Drivers/lvgl/src/core/../misc/../font/../misc/lv_area.h ****  */
  37:Drivers/lvgl/src/core/../misc/../font/../misc/lv_area.h **** typedef struct {
  38:Drivers/lvgl/src/core/../misc/../font/../misc/lv_area.h ****     lv_coord_t x;
  39:Drivers/lvgl/src/core/../misc/../font/../misc/lv_area.h ****     lv_coord_t y;
  40:Drivers/lvgl/src/core/../misc/../font/../misc/lv_area.h **** } lv_point_t;
  41:Drivers/lvgl/src/core/../misc/../font/../misc/lv_area.h **** 
  42:Drivers/lvgl/src/core/../misc/../font/../misc/lv_area.h **** /** Represents an area of the screen.*/
  43:Drivers/lvgl/src/core/../misc/../font/../misc/lv_area.h **** typedef struct {
  44:Drivers/lvgl/src/core/../misc/../font/../misc/lv_area.h ****     lv_coord_t x1;
  45:Drivers/lvgl/src/core/../misc/../font/../misc/lv_area.h ****     lv_coord_t y1;
  46:Drivers/lvgl/src/core/../misc/../font/../misc/lv_area.h ****     lv_coord_t x2;
  47:Drivers/lvgl/src/core/../misc/../font/../misc/lv_area.h ****     lv_coord_t y2;
  48:Drivers/lvgl/src/core/../misc/../font/../misc/lv_area.h **** } lv_area_t;
  49:Drivers/lvgl/src/core/../misc/../font/../misc/lv_area.h **** 
  50:Drivers/lvgl/src/core/../misc/../font/../misc/lv_area.h **** /** Alignments*/
  51:Drivers/lvgl/src/core/../misc/../font/../misc/lv_area.h **** enum {
  52:Drivers/lvgl/src/core/../misc/../font/../misc/lv_area.h ****     LV_ALIGN_DEFAULT = 0,
  53:Drivers/lvgl/src/core/../misc/../font/../misc/lv_area.h ****     LV_ALIGN_TOP_LEFT,
  54:Drivers/lvgl/src/core/../misc/../font/../misc/lv_area.h ****     LV_ALIGN_TOP_MID,
  55:Drivers/lvgl/src/core/../misc/../font/../misc/lv_area.h ****     LV_ALIGN_TOP_RIGHT,
  56:Drivers/lvgl/src/core/../misc/../font/../misc/lv_area.h ****     LV_ALIGN_BOTTOM_LEFT,
  57:Drivers/lvgl/src/core/../misc/../font/../misc/lv_area.h ****     LV_ALIGN_BOTTOM_MID,
  58:Drivers/lvgl/src/core/../misc/../font/../misc/lv_area.h ****     LV_ALIGN_BOTTOM_RIGHT,
  59:Drivers/lvgl/src/core/../misc/../font/../misc/lv_area.h ****     LV_ALIGN_LEFT_MID,
  60:Drivers/lvgl/src/core/../misc/../font/../misc/lv_area.h ****     LV_ALIGN_RIGHT_MID,
  61:Drivers/lvgl/src/core/../misc/../font/../misc/lv_area.h ****     LV_ALIGN_CENTER,
  62:Drivers/lvgl/src/core/../misc/../font/../misc/lv_area.h **** 
  63:Drivers/lvgl/src/core/../misc/../font/../misc/lv_area.h ****     LV_ALIGN_OUT_TOP_LEFT,
  64:Drivers/lvgl/src/core/../misc/../font/../misc/lv_area.h ****     LV_ALIGN_OUT_TOP_MID,
  65:Drivers/lvgl/src/core/../misc/../font/../misc/lv_area.h ****     LV_ALIGN_OUT_TOP_RIGHT,
  66:Drivers/lvgl/src/core/../misc/../font/../misc/lv_area.h ****     LV_ALIGN_OUT_BOTTOM_LEFT,
  67:Drivers/lvgl/src/core/../misc/../font/../misc/lv_area.h ****     LV_ALIGN_OUT_BOTTOM_MID,
  68:Drivers/lvgl/src/core/../misc/../font/../misc/lv_area.h ****     LV_ALIGN_OUT_BOTTOM_RIGHT,
  69:Drivers/lvgl/src/core/../misc/../font/../misc/lv_area.h ****     LV_ALIGN_OUT_LEFT_TOP,
  70:Drivers/lvgl/src/core/../misc/../font/../misc/lv_area.h ****     LV_ALIGN_OUT_LEFT_MID,
  71:Drivers/lvgl/src/core/../misc/../font/../misc/lv_area.h ****     LV_ALIGN_OUT_LEFT_BOTTOM,
  72:Drivers/lvgl/src/core/../misc/../font/../misc/lv_area.h ****     LV_ALIGN_OUT_RIGHT_TOP,
  73:Drivers/lvgl/src/core/../misc/../font/../misc/lv_area.h ****     LV_ALIGN_OUT_RIGHT_MID,
ARM GAS  /var/folders/0z/tsy30v1j4xl4_7kw94k978ww0000gn/T//ccVt8IXl.s 			page 45


  74:Drivers/lvgl/src/core/../misc/../font/../misc/lv_area.h ****     LV_ALIGN_OUT_RIGHT_BOTTOM,
  75:Drivers/lvgl/src/core/../misc/../font/../misc/lv_area.h **** };
  76:Drivers/lvgl/src/core/../misc/../font/../misc/lv_area.h **** typedef uint8_t lv_align_t;
  77:Drivers/lvgl/src/core/../misc/../font/../misc/lv_area.h **** 
  78:Drivers/lvgl/src/core/../misc/../font/../misc/lv_area.h **** enum {
  79:Drivers/lvgl/src/core/../misc/../font/../misc/lv_area.h ****     LV_DIR_NONE     = 0x00,
  80:Drivers/lvgl/src/core/../misc/../font/../misc/lv_area.h ****     LV_DIR_LEFT     = (1 << 0),
  81:Drivers/lvgl/src/core/../misc/../font/../misc/lv_area.h ****     LV_DIR_RIGHT    = (1 << 1),
  82:Drivers/lvgl/src/core/../misc/../font/../misc/lv_area.h ****     LV_DIR_TOP      = (1 << 2),
  83:Drivers/lvgl/src/core/../misc/../font/../misc/lv_area.h ****     LV_DIR_BOTTOM   = (1 << 3),
  84:Drivers/lvgl/src/core/../misc/../font/../misc/lv_area.h ****     LV_DIR_HOR      = LV_DIR_LEFT | LV_DIR_RIGHT,
  85:Drivers/lvgl/src/core/../misc/../font/../misc/lv_area.h ****     LV_DIR_VER      = LV_DIR_TOP | LV_DIR_BOTTOM,
  86:Drivers/lvgl/src/core/../misc/../font/../misc/lv_area.h ****     LV_DIR_ALL      = LV_DIR_HOR | LV_DIR_VER,
  87:Drivers/lvgl/src/core/../misc/../font/../misc/lv_area.h **** };
  88:Drivers/lvgl/src/core/../misc/../font/../misc/lv_area.h **** 
  89:Drivers/lvgl/src/core/../misc/../font/../misc/lv_area.h **** typedef uint8_t lv_dir_t;
  90:Drivers/lvgl/src/core/../misc/../font/../misc/lv_area.h **** 
  91:Drivers/lvgl/src/core/../misc/../font/../misc/lv_area.h **** /**********************
  92:Drivers/lvgl/src/core/../misc/../font/../misc/lv_area.h ****  * GLOBAL PROTOTYPES
  93:Drivers/lvgl/src/core/../misc/../font/../misc/lv_area.h ****  **********************/
  94:Drivers/lvgl/src/core/../misc/../font/../misc/lv_area.h **** 
  95:Drivers/lvgl/src/core/../misc/../font/../misc/lv_area.h **** /**
  96:Drivers/lvgl/src/core/../misc/../font/../misc/lv_area.h ****  * Initialize an area
  97:Drivers/lvgl/src/core/../misc/../font/../misc/lv_area.h ****  * @param area_p pointer to an area
  98:Drivers/lvgl/src/core/../misc/../font/../misc/lv_area.h ****  * @param x1 left coordinate of the area
  99:Drivers/lvgl/src/core/../misc/../font/../misc/lv_area.h ****  * @param y1 top coordinate of the area
 100:Drivers/lvgl/src/core/../misc/../font/../misc/lv_area.h ****  * @param x2 right coordinate of the area
 101:Drivers/lvgl/src/core/../misc/../font/../misc/lv_area.h ****  * @param y2 bottom coordinate of the area
 102:Drivers/lvgl/src/core/../misc/../font/../misc/lv_area.h ****  */
 103:Drivers/lvgl/src/core/../misc/../font/../misc/lv_area.h **** void lv_area_set(lv_area_t * area_p, lv_coord_t x1, lv_coord_t y1, lv_coord_t x2, lv_coord_t y2);
 104:Drivers/lvgl/src/core/../misc/../font/../misc/lv_area.h **** 
 105:Drivers/lvgl/src/core/../misc/../font/../misc/lv_area.h **** /**
 106:Drivers/lvgl/src/core/../misc/../font/../misc/lv_area.h ****  * Copy an area
 107:Drivers/lvgl/src/core/../misc/../font/../misc/lv_area.h ****  * @param dest pointer to the destination area
 108:Drivers/lvgl/src/core/../misc/../font/../misc/lv_area.h ****  * @param src pointer to the source area
 109:Drivers/lvgl/src/core/../misc/../font/../misc/lv_area.h ****  */
 110:Drivers/lvgl/src/core/../misc/../font/../misc/lv_area.h **** inline static void lv_area_copy(lv_area_t * dest, const lv_area_t * src)
 777              		.loc 3 110 20 view .LVU244
 778              	.LBB127:
 111:Drivers/lvgl/src/core/../misc/../font/../misc/lv_area.h **** {
 112:Drivers/lvgl/src/core/../misc/../font/../misc/lv_area.h ****     dest->x1 = src->x1;
 779              		.loc 3 112 5 view .LVU245
 780              		.loc 3 112 19 is_stmt 0 view .LVU246
 781 006c B4F91410 		ldrsh	r1, [r4, #20]
 782              		.loc 3 112 14 view .LVU247
 783 0070 ADF84010 		strh	r1, [sp, #64]	@ movhi
 113:Drivers/lvgl/src/core/../misc/../font/../misc/lv_area.h ****     dest->y1 = src->y1;
 784              		.loc 3 113 5 is_stmt 1 view .LVU248
 785              		.loc 3 113 19 is_stmt 0 view .LVU249
 786 0074 B4F91620 		ldrsh	r2, [r4, #22]
 787              		.loc 3 113 14 view .LVU250
 788 0078 ADF84220 		strh	r2, [sp, #66]	@ movhi
 114:Drivers/lvgl/src/core/../misc/../font/../misc/lv_area.h ****     dest->x2 = src->x2;
 789              		.loc 3 114 5 is_stmt 1 view .LVU251
 790              		.loc 3 114 19 is_stmt 0 view .LVU252
 791 007c B4F918E0 		ldrsh	lr, [r4, #24]
 792              		.loc 3 114 14 view .LVU253
ARM GAS  /var/folders/0z/tsy30v1j4xl4_7kw94k978ww0000gn/T//ccVt8IXl.s 			page 46


 793 0080 ADF844E0 		strh	lr, [sp, #68]	@ movhi
 115:Drivers/lvgl/src/core/../misc/../font/../misc/lv_area.h ****     dest->y2 = src->y2;
 794              		.loc 3 115 5 is_stmt 1 view .LVU254
 795              		.loc 3 115 19 is_stmt 0 view .LVU255
 796 0084 B4F91AC0 		ldrsh	ip, [r4, #26]
 797              		.loc 3 115 14 view .LVU256
 798 0088 ADF846C0 		strh	ip, [sp, #70]	@ movhi
 799              	.LVL77:
 800              		.loc 3 115 14 view .LVU257
 801              	.LBE127:
 802              	.LBE126:
 501:Drivers/lvgl/src/core/lv_obj.c ****         coords.x2 += w;
 803              		.loc 1 501 9 is_stmt 1 view .LVU258
 501:Drivers/lvgl/src/core/lv_obj.c ****         coords.x2 += w;
 804              		.loc 1 501 19 is_stmt 0 view .LVU259
 805 008c B3B2     		uxth	r3, r6
 806 008e C91A     		subs	r1, r1, r3
 807 0090 ADF84010 		strh	r1, [sp, #64]	@ movhi
 502:Drivers/lvgl/src/core/lv_obj.c ****         coords.y1 -= h;
 808              		.loc 1 502 9 is_stmt 1 view .LVU260
 502:Drivers/lvgl/src/core/lv_obj.c ****         coords.y1 -= h;
 809              		.loc 1 502 19 is_stmt 0 view .LVU261
 810 0094 7344     		add	r3, r3, lr
 811 0096 ADF84430 		strh	r3, [sp, #68]	@ movhi
 503:Drivers/lvgl/src/core/lv_obj.c ****         coords.y2 += h;
 812              		.loc 1 503 9 is_stmt 1 view .LVU262
 503:Drivers/lvgl/src/core/lv_obj.c ****         coords.y2 += h;
 813              		.loc 1 503 19 is_stmt 0 view .LVU263
 814 009a 80B2     		uxth	r0, r0
 503:Drivers/lvgl/src/core/lv_obj.c ****         coords.y2 += h;
 815              		.loc 1 503 19 view .LVU264
 816 009c 121A     		subs	r2, r2, r0
 817 009e ADF84220 		strh	r2, [sp, #66]	@ movhi
 504:Drivers/lvgl/src/core/lv_obj.c **** 
 818              		.loc 1 504 9 is_stmt 1 view .LVU265
 504:Drivers/lvgl/src/core/lv_obj.c **** 
 819              		.loc 1 504 19 is_stmt 0 view .LVU266
 820 00a2 6044     		add	r0, r0, ip
 821              	.LVL78:
 504:Drivers/lvgl/src/core/lv_obj.c **** 
 822              		.loc 1 504 19 view .LVU267
 823 00a4 ADF84600 		strh	r0, [sp, #70]	@ movhi
 506:Drivers/lvgl/src/core/lv_obj.c ****             info->res = LV_COVER_RES_NOT_COVER;
 824              		.loc 1 506 9 is_stmt 1 view .LVU268
 506:Drivers/lvgl/src/core/lv_obj.c ****             info->res = LV_COVER_RES_NOT_COVER;
 825              		.loc 1 506 12 is_stmt 0 view .LVU269
 826 00a8 3A46     		mov	r2, r7
 827 00aa 10A9     		add	r1, sp, #64
 828 00ac 6868     		ldr	r0, [r5, #4]
 829 00ae FFF7FEFF 		bl	_lv_area_is_in
 830              	.LVL79:
 506:Drivers/lvgl/src/core/lv_obj.c ****             info->res = LV_COVER_RES_NOT_COVER;
 831              		.loc 1 506 11 view .LVU270
 832 00b2 10B9     		cbnz	r0, .L41
 507:Drivers/lvgl/src/core/lv_obj.c ****             return;
 833              		.loc 1 507 13 is_stmt 1 view .LVU271
 507:Drivers/lvgl/src/core/lv_obj.c ****             return;
ARM GAS  /var/folders/0z/tsy30v1j4xl4_7kw94k978ww0000gn/T//ccVt8IXl.s 			page 47


 834              		.loc 1 507 23 is_stmt 0 view .LVU272
 835 00b4 0123     		movs	r3, #1
 836 00b6 2B70     		strb	r3, [r5]
 508:Drivers/lvgl/src/core/lv_obj.c ****         }
 837              		.loc 1 508 13 is_stmt 1 view .LVU273
 838 00b8 B4E7     		b	.L37
 839              	.L41:
 511:Drivers/lvgl/src/core/lv_obj.c ****             info->res = LV_COVER_RES_NOT_COVER;
 840              		.loc 1 511 9 view .LVU274
 841              	.LVL80:
 842              	.LBB128:
 843              	.LBI128:
 151:Drivers/lvgl/src/core/lv_obj_style_gen.h **** {
 844              		.loc 2 151 24 view .LVU275
 845              	.LBB129:
 153:Drivers/lvgl/src/core/lv_obj_style_gen.h ****     return (lv_opa_t)v.num;
 846              		.loc 2 153 5 view .LVU276
 153:Drivers/lvgl/src/core/lv_obj_style_gen.h ****     return (lv_opa_t)v.num;
 847              		.loc 2 153 26 is_stmt 0 view .LVU277
 848 00ba 2122     		movs	r2, #33
 849 00bc 0021     		movs	r1, #0
 850 00be 2046     		mov	r0, r4
 851 00c0 FFF7FEFF 		bl	lv_obj_get_style_prop
 852              	.LVL81:
 154:Drivers/lvgl/src/core/lv_obj_style_gen.h **** }
 853              		.loc 2 154 5 is_stmt 1 view .LVU278
 154:Drivers/lvgl/src/core/lv_obj_style_gen.h **** }
 854              		.loc 2 154 12 is_stmt 0 view .LVU279
 855 00c4 C0B2     		uxtb	r0, r0
 856              	.LVL82:
 154:Drivers/lvgl/src/core/lv_obj_style_gen.h **** }
 857              		.loc 2 154 12 view .LVU280
 858              	.LBE129:
 859              	.LBE128:
 511:Drivers/lvgl/src/core/lv_obj.c ****             info->res = LV_COVER_RES_NOT_COVER;
 860              		.loc 1 511 11 view .LVU281
 861 00c6 FC28     		cmp	r0, #252
 862 00c8 02D8     		bhi	.L42
 512:Drivers/lvgl/src/core/lv_obj.c ****             return;
 863              		.loc 1 512 13 is_stmt 1 view .LVU282
 512:Drivers/lvgl/src/core/lv_obj.c ****             return;
 864              		.loc 1 512 23 is_stmt 0 view .LVU283
 865 00ca 0123     		movs	r3, #1
 866 00cc 2B70     		strb	r3, [r5]
 513:Drivers/lvgl/src/core/lv_obj.c ****         }
 867              		.loc 1 513 13 is_stmt 1 view .LVU284
 868 00ce A9E7     		b	.L37
 869              	.L42:
 516:Drivers/lvgl/src/core/lv_obj.c ****             info->res = LV_COVER_RES_NOT_COVER;
 870              		.loc 1 516 9 view .LVU285
 871              	.LVL83:
 872              	.LBB130:
 873              	.LBI130:
 503:Drivers/lvgl/src/core/lv_obj_style_gen.h **** }
 504:Drivers/lvgl/src/core/lv_obj_style_gen.h **** 
 505:Drivers/lvgl/src/core/lv_obj_style_gen.h **** static inline lv_opa_t lv_obj_get_style_opa(const struct _lv_obj_t * obj, uint32_t part)
 874              		.loc 2 505 24 view .LVU286
ARM GAS  /var/folders/0z/tsy30v1j4xl4_7kw94k978ww0000gn/T//ccVt8IXl.s 			page 48


 875              	.LBB131:
 506:Drivers/lvgl/src/core/lv_obj_style_gen.h **** {
 507:Drivers/lvgl/src/core/lv_obj_style_gen.h ****     lv_style_value_t v = lv_obj_get_style_prop(obj, part, LV_STYLE_OPA);
 876              		.loc 2 507 5 view .LVU287
 877              		.loc 2 507 26 is_stmt 0 view .LVU288
 878 00d0 6022     		movs	r2, #96
 879 00d2 0021     		movs	r1, #0
 880 00d4 2046     		mov	r0, r4
 881 00d6 FFF7FEFF 		bl	lv_obj_get_style_prop
 882              	.LVL84:
 508:Drivers/lvgl/src/core/lv_obj_style_gen.h ****     return (lv_opa_t)v.num;
 883              		.loc 2 508 5 is_stmt 1 view .LVU289
 884              		.loc 2 508 12 is_stmt 0 view .LVU290
 885 00da C3B2     		uxtb	r3, r0
 886              	.LVL85:
 887              		.loc 2 508 12 view .LVU291
 888              	.LBE131:
 889              	.LBE130:
 516:Drivers/lvgl/src/core/lv_obj.c ****             info->res = LV_COVER_RES_NOT_COVER;
 890              		.loc 1 516 11 view .LVU292
 891 00dc FC2B     		cmp	r3, #252
 892 00de 02D9     		bls	.L57
 521:Drivers/lvgl/src/core/lv_obj.c **** 
 893              		.loc 1 521 9 is_stmt 1 view .LVU293
 521:Drivers/lvgl/src/core/lv_obj.c **** 
 894              		.loc 1 521 19 is_stmt 0 view .LVU294
 895 00e0 0023     		movs	r3, #0
 896 00e2 2B70     		strb	r3, [r5]
 897              	.LBE117:
 898 00e4 9EE7     		b	.L37
 899              	.L57:
 900              	.LBB132:
 517:Drivers/lvgl/src/core/lv_obj.c ****             return;
 901              		.loc 1 517 13 is_stmt 1 view .LVU295
 517:Drivers/lvgl/src/core/lv_obj.c ****             return;
 902              		.loc 1 517 23 is_stmt 0 view .LVU296
 903 00e6 0123     		movs	r3, #1
 904 00e8 2B70     		strb	r3, [r5]
 518:Drivers/lvgl/src/core/lv_obj.c ****         }
 905              		.loc 1 518 13 is_stmt 1 view .LVU297
 906 00ea 9BE7     		b	.L37
 907              	.LVL86:
 908              	.L55:
 518:Drivers/lvgl/src/core/lv_obj.c ****         }
 909              		.loc 1 518 13 is_stmt 0 view .LVU298
 910              	.LBE132:
 911              	.LBB133:
 525:Drivers/lvgl/src/core/lv_obj.c ****         lv_draw_rect_dsc_t draw_dsc;
 912              		.loc 1 525 9 is_stmt 1 view .LVU299
 525:Drivers/lvgl/src/core/lv_obj.c ****         lv_draw_rect_dsc_t draw_dsc;
 913              		.loc 1 525 36 is_stmt 0 view .LVU300
 914 00ec 3046     		mov	r0, r6
 915              	.LVL87:
 525:Drivers/lvgl/src/core/lv_obj.c ****         lv_draw_rect_dsc_t draw_dsc;
 916              		.loc 1 525 36 view .LVU301
 917 00ee FFF7FEFF 		bl	lv_event_get_draw_ctx
 918              	.LVL88:
ARM GAS  /var/folders/0z/tsy30v1j4xl4_7kw94k978ww0000gn/T//ccVt8IXl.s 			page 49


 919 00f2 0646     		mov	r6, r0
 920              	.LVL89:
 526:Drivers/lvgl/src/core/lv_obj.c ****         lv_draw_rect_dsc_init(&draw_dsc);
 921              		.loc 1 526 9 is_stmt 1 view .LVU302
 527:Drivers/lvgl/src/core/lv_obj.c ****         /*If the border is drawn later disable loading its properties*/
 922              		.loc 1 527 9 view .LVU303
 923 00f4 02A8     		add	r0, sp, #8
 924              	.LVL90:
 527:Drivers/lvgl/src/core/lv_obj.c ****         /*If the border is drawn later disable loading its properties*/
 925              		.loc 1 527 9 is_stmt 0 view .LVU304
 926 00f6 FFF7FEFF 		bl	lv_draw_rect_dsc_init
 927              	.LVL91:
 529:Drivers/lvgl/src/core/lv_obj.c ****             draw_dsc.border_post = 1;
 928              		.loc 1 529 9 is_stmt 1 view .LVU305
 929              	.LBB134:
 930              	.LBI134:
 265:Drivers/lvgl/src/core/lv_obj_style_gen.h **** {
 931              		.loc 2 265 20 view .LVU306
 932              	.LBB135:
 267:Drivers/lvgl/src/core/lv_obj_style_gen.h ****     return (bool)v.num;
 933              		.loc 2 267 5 view .LVU307
 267:Drivers/lvgl/src/core/lv_obj_style_gen.h ****     return (bool)v.num;
 934              		.loc 2 267 26 is_stmt 0 view .LVU308
 935 00fa 3422     		movs	r2, #52
 936 00fc 0021     		movs	r1, #0
 937 00fe 2046     		mov	r0, r4
 938 0100 FFF7FEFF 		bl	lv_obj_get_style_prop
 939              	.LVL92:
 268:Drivers/lvgl/src/core/lv_obj_style_gen.h **** }
 940              		.loc 2 268 5 is_stmt 1 view .LVU309
 268:Drivers/lvgl/src/core/lv_obj_style_gen.h **** }
 941              		.loc 2 268 5 is_stmt 0 view .LVU310
 942              	.LBE135:
 943              	.LBE134:
 529:Drivers/lvgl/src/core/lv_obj.c ****             draw_dsc.border_post = 1;
 944              		.loc 1 529 11 view .LVU311
 945 0104 28B1     		cbz	r0, .L46
 530:Drivers/lvgl/src/core/lv_obj.c ****         }
 946              		.loc 1 530 13 is_stmt 1 view .LVU312
 530:Drivers/lvgl/src/core/lv_obj.c ****         }
 947              		.loc 1 530 34 is_stmt 0 view .LVU313
 948 0106 9DF82B30 		ldrb	r3, [sp, #43]	@ zero_extendqisi2
 949 010a 43F00103 		orr	r3, r3, #1
 950 010e 8DF82B30 		strb	r3, [sp, #43]
 951              	.L46:
 533:Drivers/lvgl/src/core/lv_obj.c ****         lv_coord_t w = lv_obj_get_style_transform_width(obj, LV_PART_MAIN);
 952              		.loc 1 533 9 is_stmt 1 view .LVU314
 953 0112 02AF     		add	r7, sp, #8
 954 0114 3A46     		mov	r2, r7
 955 0116 0021     		movs	r1, #0
 956 0118 2046     		mov	r0, r4
 957 011a FFF7FEFF 		bl	lv_obj_init_draw_rect_dsc
 958              	.LVL93:
 534:Drivers/lvgl/src/core/lv_obj.c ****         lv_coord_t h = lv_obj_get_style_transform_height(obj, LV_PART_MAIN);
 959              		.loc 1 534 9 view .LVU315
 960              	.LBB136:
 961              	.LBI136:
ARM GAS  /var/folders/0z/tsy30v1j4xl4_7kw94k978ww0000gn/T//ccVt8IXl.s 			page 50


  55:Drivers/lvgl/src/core/lv_obj_style_gen.h **** {
 962              		.loc 2 55 26 view .LVU316
 963              	.LBB137:
  57:Drivers/lvgl/src/core/lv_obj_style_gen.h ****     return (lv_coord_t)v.num;
 964              		.loc 2 57 5 view .LVU317
  57:Drivers/lvgl/src/core/lv_obj_style_gen.h ****     return (lv_coord_t)v.num;
 965              		.loc 2 57 26 is_stmt 0 view .LVU318
 966 011e 6922     		movs	r2, #105
 967 0120 0021     		movs	r1, #0
 968 0122 2046     		mov	r0, r4
 969 0124 FFF7FEFF 		bl	lv_obj_get_style_prop
 970              	.LVL94:
 971 0128 0546     		mov	r5, r0
 972              	.LVL95:
  58:Drivers/lvgl/src/core/lv_obj_style_gen.h **** }
 973              		.loc 2 58 5 is_stmt 1 view .LVU319
  58:Drivers/lvgl/src/core/lv_obj_style_gen.h **** }
 974              		.loc 2 58 5 is_stmt 0 view .LVU320
 975              	.LBE137:
 976              	.LBE136:
 535:Drivers/lvgl/src/core/lv_obj.c ****         lv_area_t coords;
 977              		.loc 1 535 9 is_stmt 1 view .LVU321
 978              	.LBB138:
 979              	.LBI138:
  61:Drivers/lvgl/src/core/lv_obj_style_gen.h **** {
 980              		.loc 2 61 26 view .LVU322
 981              	.LBB139:
  63:Drivers/lvgl/src/core/lv_obj_style_gen.h ****     return (lv_coord_t)v.num;
 982              		.loc 2 63 5 view .LVU323
  63:Drivers/lvgl/src/core/lv_obj_style_gen.h ****     return (lv_coord_t)v.num;
 983              		.loc 2 63 26 is_stmt 0 view .LVU324
 984 012a 6A22     		movs	r2, #106
 985 012c 0021     		movs	r1, #0
 986 012e 2046     		mov	r0, r4
 987 0130 FFF7FEFF 		bl	lv_obj_get_style_prop
 988              	.LVL96:
  64:Drivers/lvgl/src/core/lv_obj_style_gen.h **** }
 989              		.loc 2 64 5 is_stmt 1 view .LVU325
  64:Drivers/lvgl/src/core/lv_obj_style_gen.h **** }
 990              		.loc 2 64 5 is_stmt 0 view .LVU326
 991              	.LBE139:
 992              	.LBE138:
 536:Drivers/lvgl/src/core/lv_obj.c ****         lv_area_copy(&coords, &obj->coords);
 993              		.loc 1 536 9 is_stmt 1 view .LVU327
 537:Drivers/lvgl/src/core/lv_obj.c ****         coords.x1 -= w;
 994              		.loc 1 537 9 view .LVU328
 995              	.LBB140:
 996              	.LBI140:
 110:Drivers/lvgl/src/core/../misc/../font/../misc/lv_area.h **** {
 997              		.loc 3 110 20 view .LVU329
 998              	.LBB141:
 112:Drivers/lvgl/src/core/../misc/../font/../misc/lv_area.h ****     dest->y1 = src->y1;
 999              		.loc 3 112 5 view .LVU330
 112:Drivers/lvgl/src/core/../misc/../font/../misc/lv_area.h ****     dest->y1 = src->y1;
 1000              		.loc 3 112 19 is_stmt 0 view .LVU331
 1001 0134 B4F91410 		ldrsh	r1, [r4, #20]
 112:Drivers/lvgl/src/core/../misc/../font/../misc/lv_area.h ****     dest->y1 = src->y1;
ARM GAS  /var/folders/0z/tsy30v1j4xl4_7kw94k978ww0000gn/T//ccVt8IXl.s 			page 51


 1002              		.loc 3 112 14 view .LVU332
 1003 0138 ADF80010 		strh	r1, [sp]	@ movhi
 113:Drivers/lvgl/src/core/../misc/../font/../misc/lv_area.h ****     dest->x2 = src->x2;
 1004              		.loc 3 113 5 is_stmt 1 view .LVU333
 113:Drivers/lvgl/src/core/../misc/../font/../misc/lv_area.h ****     dest->x2 = src->x2;
 1005              		.loc 3 113 19 is_stmt 0 view .LVU334
 1006 013c B4F91620 		ldrsh	r2, [r4, #22]
 113:Drivers/lvgl/src/core/../misc/../font/../misc/lv_area.h ****     dest->x2 = src->x2;
 1007              		.loc 3 113 14 view .LVU335
 1008 0140 ADF80220 		strh	r2, [sp, #2]	@ movhi
 114:Drivers/lvgl/src/core/../misc/../font/../misc/lv_area.h ****     dest->y2 = src->y2;
 1009              		.loc 3 114 5 is_stmt 1 view .LVU336
 114:Drivers/lvgl/src/core/../misc/../font/../misc/lv_area.h ****     dest->y2 = src->y2;
 1010              		.loc 3 114 19 is_stmt 0 view .LVU337
 1011 0144 B4F918E0 		ldrsh	lr, [r4, #24]
 114:Drivers/lvgl/src/core/../misc/../font/../misc/lv_area.h ****     dest->y2 = src->y2;
 1012              		.loc 3 114 14 view .LVU338
 1013 0148 ADF804E0 		strh	lr, [sp, #4]	@ movhi
 1014              		.loc 3 115 5 is_stmt 1 view .LVU339
 1015              		.loc 3 115 19 is_stmt 0 view .LVU340
 1016 014c B4F91AC0 		ldrsh	ip, [r4, #26]
 1017              		.loc 3 115 14 view .LVU341
 1018 0150 ADF806C0 		strh	ip, [sp, #6]	@ movhi
 1019              	.LVL97:
 1020              		.loc 3 115 14 view .LVU342
 1021              	.LBE141:
 1022              	.LBE140:
 538:Drivers/lvgl/src/core/lv_obj.c ****         coords.x2 += w;
 1023              		.loc 1 538 9 is_stmt 1 view .LVU343
 538:Drivers/lvgl/src/core/lv_obj.c ****         coords.x2 += w;
 1024              		.loc 1 538 19 is_stmt 0 view .LVU344
 1025 0154 ABB2     		uxth	r3, r5
 1026 0156 C91A     		subs	r1, r1, r3
 1027 0158 ADF80010 		strh	r1, [sp]	@ movhi
 539:Drivers/lvgl/src/core/lv_obj.c ****         coords.y1 -= h;
 1028              		.loc 1 539 9 is_stmt 1 view .LVU345
 539:Drivers/lvgl/src/core/lv_obj.c ****         coords.y1 -= h;
 1029              		.loc 1 539 19 is_stmt 0 view .LVU346
 1030 015c 7344     		add	r3, r3, lr
 1031 015e ADF80430 		strh	r3, [sp, #4]	@ movhi
 540:Drivers/lvgl/src/core/lv_obj.c ****         coords.y2 += h;
 1032              		.loc 1 540 9 is_stmt 1 view .LVU347
 540:Drivers/lvgl/src/core/lv_obj.c ****         coords.y2 += h;
 1033              		.loc 1 540 19 is_stmt 0 view .LVU348
 1034 0162 83B2     		uxth	r3, r0
 1035 0164 D21A     		subs	r2, r2, r3
 1036 0166 ADF80220 		strh	r2, [sp, #2]	@ movhi
 541:Drivers/lvgl/src/core/lv_obj.c **** 
 1037              		.loc 1 541 9 is_stmt 1 view .LVU349
 541:Drivers/lvgl/src/core/lv_obj.c **** 
 1038              		.loc 1 541 19 is_stmt 0 view .LVU350
 1039 016a 6344     		add	r3, r3, ip
 1040 016c ADF80630 		strh	r3, [sp, #6]	@ movhi
 543:Drivers/lvgl/src/core/lv_obj.c ****         lv_obj_draw_dsc_init(&part_dsc, draw_ctx);
 1041              		.loc 1 543 9 is_stmt 1 view .LVU351
 544:Drivers/lvgl/src/core/lv_obj.c ****         part_dsc.class_p = MY_CLASS;
 1042              		.loc 1 544 9 view .LVU352
ARM GAS  /var/folders/0z/tsy30v1j4xl4_7kw94k978ww0000gn/T//ccVt8IXl.s 			page 52


 1043 0170 3146     		mov	r1, r6
 1044 0172 10A8     		add	r0, sp, #64
 1045              	.LVL98:
 544:Drivers/lvgl/src/core/lv_obj.c ****         part_dsc.class_p = MY_CLASS;
 1046              		.loc 1 544 9 is_stmt 0 view .LVU353
 1047 0174 FFF7FEFF 		bl	lv_obj_draw_dsc_init
 1048              	.LVL99:
 545:Drivers/lvgl/src/core/lv_obj.c ****         part_dsc.type = LV_OBJ_DRAW_PART_RECTANGLE;
 1049              		.loc 1 545 9 is_stmt 1 view .LVU354
 545:Drivers/lvgl/src/core/lv_obj.c ****         part_dsc.type = LV_OBJ_DRAW_PART_RECTANGLE;
 1050              		.loc 1 545 26 is_stmt 0 view .LVU355
 1051 0178 644B     		ldr	r3, .L60
 1052 017a 1193     		str	r3, [sp, #68]
 546:Drivers/lvgl/src/core/lv_obj.c ****         part_dsc.rect_dsc = &draw_dsc;
 1053              		.loc 1 546 9 is_stmt 1 view .LVU356
 546:Drivers/lvgl/src/core/lv_obj.c ****         part_dsc.rect_dsc = &draw_dsc;
 1054              		.loc 1 546 23 is_stmt 0 view .LVU357
 1055 017c 0025     		movs	r5, #0
 1056              	.LVL100:
 546:Drivers/lvgl/src/core/lv_obj.c ****         part_dsc.rect_dsc = &draw_dsc;
 1057              		.loc 1 546 23 view .LVU358
 1058 017e 1295     		str	r5, [sp, #72]
 547:Drivers/lvgl/src/core/lv_obj.c ****         part_dsc.draw_area = &coords;
 1059              		.loc 1 547 9 is_stmt 1 view .LVU359
 547:Drivers/lvgl/src/core/lv_obj.c ****         part_dsc.draw_area = &coords;
 1060              		.loc 1 547 27 is_stmt 0 view .LVU360
 1061 0180 1497     		str	r7, [sp, #80]
 548:Drivers/lvgl/src/core/lv_obj.c ****         part_dsc.part = LV_PART_MAIN;
 1062              		.loc 1 548 9 is_stmt 1 view .LVU361
 548:Drivers/lvgl/src/core/lv_obj.c ****         part_dsc.part = LV_PART_MAIN;
 1063              		.loc 1 548 28 is_stmt 0 view .LVU362
 1064 0182 CDF84CD0 		str	sp, [sp, #76]
 549:Drivers/lvgl/src/core/lv_obj.c ****         lv_event_send(obj, LV_EVENT_DRAW_PART_BEGIN, &part_dsc);
 1065              		.loc 1 549 9 is_stmt 1 view .LVU363
 549:Drivers/lvgl/src/core/lv_obj.c ****         lv_event_send(obj, LV_EVENT_DRAW_PART_BEGIN, &part_dsc);
 1066              		.loc 1 549 23 is_stmt 0 view .LVU364
 1067 0186 1D95     		str	r5, [sp, #116]
 550:Drivers/lvgl/src/core/lv_obj.c **** 
 1068              		.loc 1 550 9 is_stmt 1 view .LVU365
 1069 0188 10AA     		add	r2, sp, #64
 1070 018a 1A21     		movs	r1, #26
 1071 018c 2046     		mov	r0, r4
 1072 018e FFF7FEFF 		bl	lv_event_send
 1073              	.LVL101:
 554:Drivers/lvgl/src/core/lv_obj.c ****         const void * bg_img_src = draw_dsc.bg_img_src;
 1074              		.loc 1 554 9 view .LVU366
 1075              	.LBB142:
 1076              	.LBI142:
 499:Drivers/lvgl/src/core/lv_obj_style_gen.h **** {
 1077              		.loc 2 499 20 view .LVU367
 1078              	.LBB143:
 501:Drivers/lvgl/src/core/lv_obj_style_gen.h ****     return (bool)v.num;
 1079              		.loc 2 501 5 view .LVU368
 501:Drivers/lvgl/src/core/lv_obj_style_gen.h ****     return (bool)v.num;
 1080              		.loc 2 501 26 is_stmt 0 view .LVU369
 1081 0192 1722     		movs	r2, #23
 1082 0194 2946     		mov	r1, r5
ARM GAS  /var/folders/0z/tsy30v1j4xl4_7kw94k978ww0000gn/T//ccVt8IXl.s 			page 53


 1083 0196 2046     		mov	r0, r4
 1084 0198 FFF7FEFF 		bl	lv_obj_get_style_prop
 1085              	.LVL102:
 502:Drivers/lvgl/src/core/lv_obj_style_gen.h **** }
 1086              		.loc 2 502 5 is_stmt 1 view .LVU370
 502:Drivers/lvgl/src/core/lv_obj_style_gen.h **** }
 1087              		.loc 2 502 5 is_stmt 0 view .LVU371
 1088              	.LBE143:
 1089              	.LBE142:
 554:Drivers/lvgl/src/core/lv_obj.c ****         const void * bg_img_src = draw_dsc.bg_img_src;
 1090              		.loc 1 554 109 view .LVU372
 1091 019c 20B1     		cbz	r0, .L51
 554:Drivers/lvgl/src/core/lv_obj.c ****         const void * bg_img_src = draw_dsc.bg_img_src;
 1092              		.loc 1 554 88 discriminator 1 view .LVU373
 1093 019e BDF90830 		ldrsh	r3, [sp, #8]
 554:Drivers/lvgl/src/core/lv_obj.c ****         const void * bg_img_src = draw_dsc.bg_img_src;
 1094              		.loc 1 554 109 discriminator 1 view .LVU374
 1095 01a2 9BB9     		cbnz	r3, .L52
 554:Drivers/lvgl/src/core/lv_obj.c ****         const void * bg_img_src = draw_dsc.bg_img_src;
 1096              		.loc 1 554 109 view .LVU375
 1097 01a4 2B46     		mov	r3, r5
 1098 01a6 00E0     		b	.L47
 1099              	.L51:
 1100 01a8 0023     		movs	r3, #0
 1101              	.L47:
 1102              	.LVL103:
 555:Drivers/lvgl/src/core/lv_obj.c ****         if(clip_corner) {
 1103              		.loc 1 555 9 is_stmt 1 discriminator 6 view .LVU376
 555:Drivers/lvgl/src/core/lv_obj.c ****         if(clip_corner) {
 1104              		.loc 1 555 22 is_stmt 0 discriminator 6 view .LVU377
 1105 01aa 069F     		ldr	r7, [sp, #24]
 1106              	.LVL104:
 556:Drivers/lvgl/src/core/lv_obj.c ****             draw_dsc.bg_img_src = NULL;
 1107              		.loc 1 556 9 is_stmt 1 discriminator 6 view .LVU378
 556:Drivers/lvgl/src/core/lv_obj.c ****             draw_dsc.bg_img_src = NULL;
 1108              		.loc 1 556 11 is_stmt 0 discriminator 6 view .LVU379
 1109 01ac 1D46     		mov	r5, r3
 1110 01ae 0BB1     		cbz	r3, .L48
 557:Drivers/lvgl/src/core/lv_obj.c ****         }
 1111              		.loc 1 557 13 is_stmt 1 view .LVU380
 557:Drivers/lvgl/src/core/lv_obj.c ****         }
 1112              		.loc 1 557 33 is_stmt 0 view .LVU381
 1113 01b0 0023     		movs	r3, #0
 1114              	.LVL105:
 557:Drivers/lvgl/src/core/lv_obj.c ****         }
 1115              		.loc 1 557 33 view .LVU382
 1116 01b2 0693     		str	r3, [sp, #24]
 1117              	.L48:
 561:Drivers/lvgl/src/core/lv_obj.c **** 
 1118              		.loc 1 561 9 is_stmt 1 view .LVU383
 1119 01b4 6A46     		mov	r2, sp
 1120 01b6 02A9     		add	r1, sp, #8
 1121 01b8 3046     		mov	r0, r6
 1122 01ba FFF7FEFF 		bl	lv_draw_rect
 1123              	.LVL106:
 565:Drivers/lvgl/src/core/lv_obj.c ****             lv_draw_mask_radius_param_t * mp = lv_mem_buf_get(sizeof(lv_draw_mask_radius_param_t));
 1124              		.loc 1 565 9 view .LVU384
ARM GAS  /var/folders/0z/tsy30v1j4xl4_7kw94k978ww0000gn/T//ccVt8IXl.s 			page 54


 565:Drivers/lvgl/src/core/lv_obj.c ****             lv_draw_mask_radius_param_t * mp = lv_mem_buf_get(sizeof(lv_draw_mask_radius_param_t));
 1125              		.loc 1 565 11 is_stmt 0 view .LVU385
 1126 01be 3DB9     		cbnz	r5, .L58
 1127              	.L49:
 582:Drivers/lvgl/src/core/lv_obj.c ****     }
 1128              		.loc 1 582 9 is_stmt 1 view .LVU386
 1129 01c0 10AA     		add	r2, sp, #64
 1130 01c2 1B21     		movs	r1, #27
 1131 01c4 2046     		mov	r0, r4
 1132 01c6 FFF7FEFF 		bl	lv_event_send
 1133              	.LVL107:
 1134              	.LBE133:
 1135 01ca 2BE7     		b	.L37
 1136              	.LVL108:
 1137              	.L52:
 1138              	.LBB145:
 554:Drivers/lvgl/src/core/lv_obj.c ****         const void * bg_img_src = draw_dsc.bg_img_src;
 1139              		.loc 1 554 109 is_stmt 0 view .LVU387
 1140 01cc 0123     		movs	r3, #1
 1141 01ce ECE7     		b	.L47
 1142              	.LVL109:
 1143              	.L58:
 1144              	.LBB144:
 566:Drivers/lvgl/src/core/lv_obj.c ****             lv_draw_mask_radius_init(mp, &obj->coords, draw_dsc.radius, false);
 1145              		.loc 1 566 13 is_stmt 1 view .LVU388
 566:Drivers/lvgl/src/core/lv_obj.c ****             lv_draw_mask_radius_init(mp, &obj->coords, draw_dsc.radius, false);
 1146              		.loc 1 566 48 is_stmt 0 view .LVU389
 1147 01d0 1820     		movs	r0, #24
 1148 01d2 FFF7FEFF 		bl	lv_mem_buf_get
 1149              	.LVL110:
 1150 01d6 0546     		mov	r5, r0
 1151              	.LVL111:
 567:Drivers/lvgl/src/core/lv_obj.c ****             /*Add the mask and use `obj+8` as custom id. Don't use `obj` directly because it might 
 1152              		.loc 1 567 13 is_stmt 1 view .LVU390
 1153 01d8 0023     		movs	r3, #0
 1154 01da BDF90820 		ldrsh	r2, [sp, #8]
 1155 01de 04F11401 		add	r1, r4, #20
 1156 01e2 FFF7FEFF 		bl	lv_draw_mask_radius_init
 1157              	.LVL112:
 569:Drivers/lvgl/src/core/lv_obj.c **** 
 1158              		.loc 1 569 13 view .LVU391
 1159 01e6 04F59071 		add	r1, r4, #288
 1160 01ea 2846     		mov	r0, r5
 1161 01ec FFF7FEFF 		bl	lv_draw_mask_add
 1162              	.LVL113:
 571:Drivers/lvgl/src/core/lv_obj.c ****                 draw_dsc.bg_opa = LV_OPA_TRANSP;
 1163              		.loc 1 571 13 view .LVU392
 571:Drivers/lvgl/src/core/lv_obj.c ****                 draw_dsc.bg_opa = LV_OPA_TRANSP;
 1164              		.loc 1 571 15 is_stmt 0 view .LVU393
 1165 01f0 002F     		cmp	r7, #0
 1166 01f2 E5D0     		beq	.L49
 572:Drivers/lvgl/src/core/lv_obj.c ****                 draw_dsc.border_opa = LV_OPA_TRANSP;
 1167              		.loc 1 572 17 is_stmt 1 view .LVU394
 572:Drivers/lvgl/src/core/lv_obj.c ****                 draw_dsc.border_opa = LV_OPA_TRANSP;
 1168              		.loc 1 572 33 is_stmt 0 view .LVU395
 1169 01f4 0023     		movs	r3, #0
 1170 01f6 8DF80B30 		strb	r3, [sp, #11]
ARM GAS  /var/folders/0z/tsy30v1j4xl4_7kw94k978ww0000gn/T//ccVt8IXl.s 			page 55


 573:Drivers/lvgl/src/core/lv_obj.c ****                 draw_dsc.outline_opa = LV_OPA_TRANSP;
 1171              		.loc 1 573 17 is_stmt 1 view .LVU396
 573:Drivers/lvgl/src/core/lv_obj.c ****                 draw_dsc.outline_opa = LV_OPA_TRANSP;
 1172              		.loc 1 573 37 is_stmt 0 view .LVU397
 1173 01fa 8DF82A30 		strb	r3, [sp, #42]
 574:Drivers/lvgl/src/core/lv_obj.c ****                 draw_dsc.shadow_opa = LV_OPA_TRANSP;
 1174              		.loc 1 574 17 is_stmt 1 view .LVU398
 574:Drivers/lvgl/src/core/lv_obj.c ****                 draw_dsc.shadow_opa = LV_OPA_TRANSP;
 1175              		.loc 1 574 38 is_stmt 0 view .LVU399
 1176 01fe 8DF83230 		strb	r3, [sp, #50]
 575:Drivers/lvgl/src/core/lv_obj.c ****                 draw_dsc.bg_img_src = bg_img_src;
 1177              		.loc 1 575 17 is_stmt 1 view .LVU400
 575:Drivers/lvgl/src/core/lv_obj.c ****                 draw_dsc.bg_img_src = bg_img_src;
 1178              		.loc 1 575 37 is_stmt 0 view .LVU401
 1179 0202 8DF83E30 		strb	r3, [sp, #62]
 576:Drivers/lvgl/src/core/lv_obj.c ****                 lv_draw_rect(draw_ctx, &draw_dsc, &coords);
 1180              		.loc 1 576 17 is_stmt 1 view .LVU402
 576:Drivers/lvgl/src/core/lv_obj.c ****                 lv_draw_rect(draw_ctx, &draw_dsc, &coords);
 1181              		.loc 1 576 37 is_stmt 0 view .LVU403
 1182 0206 0697     		str	r7, [sp, #24]
 577:Drivers/lvgl/src/core/lv_obj.c ****             }
 1183              		.loc 1 577 17 is_stmt 1 view .LVU404
 1184 0208 6A46     		mov	r2, sp
 1185 020a 02A9     		add	r1, sp, #8
 1186 020c 3046     		mov	r0, r6
 1187 020e FFF7FEFF 		bl	lv_draw_rect
 1188              	.LVL114:
 1189 0212 D5E7     		b	.L49
 1190              	.LVL115:
 1191              	.L56:
 577:Drivers/lvgl/src/core/lv_obj.c ****             }
 1192              		.loc 1 577 17 is_stmt 0 view .LVU405
 1193              	.LBE144:
 1194              	.LBE145:
 1195              	.LBB146:
 585:Drivers/lvgl/src/core/lv_obj.c ****         draw_scrollbar(obj, draw_ctx);
 1196              		.loc 1 585 9 is_stmt 1 view .LVU406
 585:Drivers/lvgl/src/core/lv_obj.c ****         draw_scrollbar(obj, draw_ctx);
 1197              		.loc 1 585 36 is_stmt 0 view .LVU407
 1198 0214 3046     		mov	r0, r6
 1199              	.LVL116:
 585:Drivers/lvgl/src/core/lv_obj.c ****         draw_scrollbar(obj, draw_ctx);
 1200              		.loc 1 585 36 view .LVU408
 1201 0216 FFF7FEFF 		bl	lv_event_get_draw_ctx
 1202              	.LVL117:
 1203 021a 0546     		mov	r5, r0
 1204              	.LVL118:
 586:Drivers/lvgl/src/core/lv_obj.c **** 
 1205              		.loc 1 586 9 is_stmt 1 view .LVU409
 1206 021c 0146     		mov	r1, r0
 1207 021e 2046     		mov	r0, r4
 1208              	.LVL119:
 586:Drivers/lvgl/src/core/lv_obj.c **** 
 1209              		.loc 1 586 9 is_stmt 0 view .LVU410
 1210 0220 FFF7FEFF 		bl	draw_scrollbar
 1211              	.LVL120:
 589:Drivers/lvgl/src/core/lv_obj.c ****             lv_draw_mask_radius_param_t * param = lv_draw_mask_remove_custom(obj + 8);
ARM GAS  /var/folders/0z/tsy30v1j4xl4_7kw94k978ww0000gn/T//ccVt8IXl.s 			page 56


 1212              		.loc 1 589 9 is_stmt 1 view .LVU411
 1213              	.LBB147:
 1214              	.LBI147:
 499:Drivers/lvgl/src/core/lv_obj_style_gen.h **** {
 1215              		.loc 2 499 20 view .LVU412
 1216              	.LBB148:
 501:Drivers/lvgl/src/core/lv_obj_style_gen.h ****     return (bool)v.num;
 1217              		.loc 2 501 5 view .LVU413
 501:Drivers/lvgl/src/core/lv_obj_style_gen.h ****     return (bool)v.num;
 1218              		.loc 2 501 26 is_stmt 0 view .LVU414
 1219 0224 1722     		movs	r2, #23
 1220 0226 0021     		movs	r1, #0
 1221 0228 2046     		mov	r0, r4
 1222 022a FFF7FEFF 		bl	lv_obj_get_style_prop
 1223              	.LVL121:
 502:Drivers/lvgl/src/core/lv_obj_style_gen.h **** }
 1224              		.loc 2 502 5 is_stmt 1 view .LVU415
 502:Drivers/lvgl/src/core/lv_obj_style_gen.h **** }
 1225              		.loc 2 502 5 is_stmt 0 view .LVU416
 1226              	.LBE148:
 1227              	.LBE147:
 589:Drivers/lvgl/src/core/lv_obj.c ****             lv_draw_mask_radius_param_t * param = lv_draw_mask_remove_custom(obj + 8);
 1228              		.loc 1 589 11 view .LVU417
 1229 022e 0028     		cmp	r0, #0
 1230 0230 5FD1     		bne	.L59
 1231              	.LVL122:
 1232              	.L50:
 599:Drivers/lvgl/src/core/lv_obj.c ****             lv_draw_rect_dsc_t draw_dsc;
 1233              		.loc 1 599 9 is_stmt 1 view .LVU418
 1234              	.LBB149:
 1235              	.LBI149:
 265:Drivers/lvgl/src/core/lv_obj_style_gen.h **** {
 1236              		.loc 2 265 20 view .LVU419
 1237              	.LBB150:
 267:Drivers/lvgl/src/core/lv_obj_style_gen.h ****     return (bool)v.num;
 1238              		.loc 2 267 5 view .LVU420
 267:Drivers/lvgl/src/core/lv_obj_style_gen.h ****     return (bool)v.num;
 1239              		.loc 2 267 26 is_stmt 0 view .LVU421
 1240 0232 3422     		movs	r2, #52
 1241 0234 0021     		movs	r1, #0
 1242 0236 2046     		mov	r0, r4
 1243 0238 FFF7FEFF 		bl	lv_obj_get_style_prop
 1244              	.LVL123:
 268:Drivers/lvgl/src/core/lv_obj_style_gen.h **** }
 1245              		.loc 2 268 5 is_stmt 1 view .LVU422
 268:Drivers/lvgl/src/core/lv_obj_style_gen.h **** }
 1246              		.loc 2 268 5 is_stmt 0 view .LVU423
 1247              	.LBE150:
 1248              	.LBE149:
 599:Drivers/lvgl/src/core/lv_obj.c ****             lv_draw_rect_dsc_t draw_dsc;
 1249              		.loc 1 599 11 view .LVU424
 1250 023c 0028     		cmp	r0, #0
 1251 023e 3FF4F1AE 		beq	.L37
 1252              	.LBB151:
 600:Drivers/lvgl/src/core/lv_obj.c ****             lv_draw_rect_dsc_init(&draw_dsc);
 1253              		.loc 1 600 13 is_stmt 1 discriminator 3 view .LVU425
 601:Drivers/lvgl/src/core/lv_obj.c ****             draw_dsc.bg_opa = LV_OPA_TRANSP;
ARM GAS  /var/folders/0z/tsy30v1j4xl4_7kw94k978ww0000gn/T//ccVt8IXl.s 			page 57


 1254              		.loc 1 601 13 discriminator 3 view .LVU426
 1255 0242 02AF     		add	r7, sp, #8
 1256 0244 3846     		mov	r0, r7
 1257 0246 FFF7FEFF 		bl	lv_draw_rect_dsc_init
 1258              	.LVL124:
 602:Drivers/lvgl/src/core/lv_obj.c ****             draw_dsc.bg_img_opa = LV_OPA_TRANSP;
 1259              		.loc 1 602 13 discriminator 3 view .LVU427
 602:Drivers/lvgl/src/core/lv_obj.c ****             draw_dsc.bg_img_opa = LV_OPA_TRANSP;
 1260              		.loc 1 602 29 is_stmt 0 discriminator 3 view .LVU428
 1261 024a 0026     		movs	r6, #0
 1262 024c 8DF80B60 		strb	r6, [sp, #11]
 603:Drivers/lvgl/src/core/lv_obj.c ****             draw_dsc.outline_opa = LV_OPA_TRANSP;
 1263              		.loc 1 603 13 is_stmt 1 discriminator 3 view .LVU429
 603:Drivers/lvgl/src/core/lv_obj.c ****             draw_dsc.outline_opa = LV_OPA_TRANSP;
 1264              		.loc 1 603 33 is_stmt 0 discriminator 3 view .LVU430
 1265 0250 8DF82260 		strb	r6, [sp, #34]
 604:Drivers/lvgl/src/core/lv_obj.c ****             draw_dsc.shadow_opa = LV_OPA_TRANSP;
 1266              		.loc 1 604 13 is_stmt 1 discriminator 3 view .LVU431
 604:Drivers/lvgl/src/core/lv_obj.c ****             draw_dsc.shadow_opa = LV_OPA_TRANSP;
 1267              		.loc 1 604 34 is_stmt 0 discriminator 3 view .LVU432
 1268 0254 8DF83260 		strb	r6, [sp, #50]
 605:Drivers/lvgl/src/core/lv_obj.c ****             lv_obj_init_draw_rect_dsc(obj, LV_PART_MAIN, &draw_dsc);
 1269              		.loc 1 605 13 is_stmt 1 discriminator 3 view .LVU433
 605:Drivers/lvgl/src/core/lv_obj.c ****             lv_obj_init_draw_rect_dsc(obj, LV_PART_MAIN, &draw_dsc);
 1270              		.loc 1 605 33 is_stmt 0 discriminator 3 view .LVU434
 1271 0258 8DF83E60 		strb	r6, [sp, #62]
 606:Drivers/lvgl/src/core/lv_obj.c **** 
 1272              		.loc 1 606 13 is_stmt 1 discriminator 3 view .LVU435
 1273 025c 3A46     		mov	r2, r7
 1274 025e 3146     		mov	r1, r6
 1275 0260 2046     		mov	r0, r4
 1276 0262 FFF7FEFF 		bl	lv_obj_init_draw_rect_dsc
 1277              	.LVL125:
 608:Drivers/lvgl/src/core/lv_obj.c ****             lv_coord_t h = lv_obj_get_style_transform_height(obj, LV_PART_MAIN);
 1278              		.loc 1 608 13 discriminator 3 view .LVU436
 1279              	.LBB152:
 1280              	.LBI152:
  55:Drivers/lvgl/src/core/lv_obj_style_gen.h **** {
 1281              		.loc 2 55 26 discriminator 3 view .LVU437
 1282              	.LBB153:
  57:Drivers/lvgl/src/core/lv_obj_style_gen.h ****     return (lv_coord_t)v.num;
 1283              		.loc 2 57 5 discriminator 3 view .LVU438
  57:Drivers/lvgl/src/core/lv_obj_style_gen.h ****     return (lv_coord_t)v.num;
 1284              		.loc 2 57 26 is_stmt 0 discriminator 3 view .LVU439
 1285 0266 6922     		movs	r2, #105
 1286 0268 3146     		mov	r1, r6
 1287 026a 2046     		mov	r0, r4
 1288 026c FFF7FEFF 		bl	lv_obj_get_style_prop
 1289              	.LVL126:
 1290 0270 8046     		mov	r8, r0
  58:Drivers/lvgl/src/core/lv_obj_style_gen.h **** }
 1291              		.loc 2 58 5 is_stmt 1 discriminator 3 view .LVU440
 1292              	.LVL127:
  58:Drivers/lvgl/src/core/lv_obj_style_gen.h **** }
 1293              		.loc 2 58 5 is_stmt 0 discriminator 3 view .LVU441
 1294              	.LBE153:
 1295              	.LBE152:
ARM GAS  /var/folders/0z/tsy30v1j4xl4_7kw94k978ww0000gn/T//ccVt8IXl.s 			page 58


 609:Drivers/lvgl/src/core/lv_obj.c ****             lv_area_t coords;
 1296              		.loc 1 609 13 is_stmt 1 discriminator 3 view .LVU442
 1297              	.LBB154:
 1298              	.LBI154:
  61:Drivers/lvgl/src/core/lv_obj_style_gen.h **** {
 1299              		.loc 2 61 26 discriminator 3 view .LVU443
 1300              	.LBB155:
  63:Drivers/lvgl/src/core/lv_obj_style_gen.h ****     return (lv_coord_t)v.num;
 1301              		.loc 2 63 5 discriminator 3 view .LVU444
  63:Drivers/lvgl/src/core/lv_obj_style_gen.h ****     return (lv_coord_t)v.num;
 1302              		.loc 2 63 26 is_stmt 0 discriminator 3 view .LVU445
 1303 0272 6A22     		movs	r2, #106
 1304 0274 3146     		mov	r1, r6
 1305 0276 2046     		mov	r0, r4
 1306 0278 FFF7FEFF 		bl	lv_obj_get_style_prop
 1307              	.LVL128:
  64:Drivers/lvgl/src/core/lv_obj_style_gen.h **** }
 1308              		.loc 2 64 5 is_stmt 1 discriminator 3 view .LVU446
  64:Drivers/lvgl/src/core/lv_obj_style_gen.h **** }
 1309              		.loc 2 64 5 is_stmt 0 discriminator 3 view .LVU447
 1310              	.LBE155:
 1311              	.LBE154:
 610:Drivers/lvgl/src/core/lv_obj.c ****             lv_area_copy(&coords, &obj->coords);
 1312              		.loc 1 610 13 is_stmt 1 discriminator 3 view .LVU448
 611:Drivers/lvgl/src/core/lv_obj.c ****             coords.x1 -= w;
 1313              		.loc 1 611 13 discriminator 3 view .LVU449
 1314              	.LBB156:
 1315              	.LBI156:
 110:Drivers/lvgl/src/core/../misc/../font/../misc/lv_area.h **** {
 1316              		.loc 3 110 20 discriminator 3 view .LVU450
 1317              	.LBB157:
 112:Drivers/lvgl/src/core/../misc/../font/../misc/lv_area.h ****     dest->y1 = src->y1;
 1318              		.loc 3 112 5 discriminator 3 view .LVU451
 112:Drivers/lvgl/src/core/../misc/../font/../misc/lv_area.h ****     dest->y1 = src->y1;
 1319              		.loc 3 112 19 is_stmt 0 discriminator 3 view .LVU452
 1320 027c B4F91410 		ldrsh	r1, [r4, #20]
 112:Drivers/lvgl/src/core/../misc/../font/../misc/lv_area.h ****     dest->y1 = src->y1;
 1321              		.loc 3 112 14 discriminator 3 view .LVU453
 1322 0280 ADF80010 		strh	r1, [sp]	@ movhi
 113:Drivers/lvgl/src/core/../misc/../font/../misc/lv_area.h ****     dest->x2 = src->x2;
 1323              		.loc 3 113 5 is_stmt 1 discriminator 3 view .LVU454
 113:Drivers/lvgl/src/core/../misc/../font/../misc/lv_area.h ****     dest->x2 = src->x2;
 1324              		.loc 3 113 19 is_stmt 0 discriminator 3 view .LVU455
 1325 0284 B4F91620 		ldrsh	r2, [r4, #22]
 113:Drivers/lvgl/src/core/../misc/../font/../misc/lv_area.h ****     dest->x2 = src->x2;
 1326              		.loc 3 113 14 discriminator 3 view .LVU456
 1327 0288 ADF80220 		strh	r2, [sp, #2]	@ movhi
 114:Drivers/lvgl/src/core/../misc/../font/../misc/lv_area.h ****     dest->y2 = src->y2;
 1328              		.loc 3 114 5 is_stmt 1 discriminator 3 view .LVU457
 114:Drivers/lvgl/src/core/../misc/../font/../misc/lv_area.h ****     dest->y2 = src->y2;
 1329              		.loc 3 114 19 is_stmt 0 discriminator 3 view .LVU458
 1330 028c B4F918E0 		ldrsh	lr, [r4, #24]
 114:Drivers/lvgl/src/core/../misc/../font/../misc/lv_area.h ****     dest->y2 = src->y2;
 1331              		.loc 3 114 14 discriminator 3 view .LVU459
 1332 0290 ADF804E0 		strh	lr, [sp, #4]	@ movhi
 1333              		.loc 3 115 5 is_stmt 1 discriminator 3 view .LVU460
 1334              		.loc 3 115 19 is_stmt 0 discriminator 3 view .LVU461
ARM GAS  /var/folders/0z/tsy30v1j4xl4_7kw94k978ww0000gn/T//ccVt8IXl.s 			page 59


 1335 0294 B4F91AC0 		ldrsh	ip, [r4, #26]
 1336              		.loc 3 115 14 discriminator 3 view .LVU462
 1337 0298 ADF806C0 		strh	ip, [sp, #6]	@ movhi
 1338              	.LVL129:
 1339              		.loc 3 115 14 discriminator 3 view .LVU463
 1340              	.LBE157:
 1341              	.LBE156:
 612:Drivers/lvgl/src/core/lv_obj.c ****             coords.x2 += w;
 1342              		.loc 1 612 13 is_stmt 1 discriminator 3 view .LVU464
 612:Drivers/lvgl/src/core/lv_obj.c ****             coords.x2 += w;
 1343              		.loc 1 612 23 is_stmt 0 discriminator 3 view .LVU465
 1344 029c 1FFA88F3 		uxth	r3, r8
 1345 02a0 C91A     		subs	r1, r1, r3
 1346 02a2 ADF80010 		strh	r1, [sp]	@ movhi
 613:Drivers/lvgl/src/core/lv_obj.c ****             coords.y1 -= h;
 1347              		.loc 1 613 13 is_stmt 1 discriminator 3 view .LVU466
 613:Drivers/lvgl/src/core/lv_obj.c ****             coords.y1 -= h;
 1348              		.loc 1 613 23 is_stmt 0 discriminator 3 view .LVU467
 1349 02a6 7344     		add	r3, r3, lr
 1350 02a8 ADF80430 		strh	r3, [sp, #4]	@ movhi
 614:Drivers/lvgl/src/core/lv_obj.c ****             coords.y2 += h;
 1351              		.loc 1 614 13 is_stmt 1 discriminator 3 view .LVU468
 614:Drivers/lvgl/src/core/lv_obj.c ****             coords.y2 += h;
 1352              		.loc 1 614 23 is_stmt 0 discriminator 3 view .LVU469
 1353 02ac 80B2     		uxth	r0, r0
 614:Drivers/lvgl/src/core/lv_obj.c ****             coords.y2 += h;
 1354              		.loc 1 614 23 discriminator 3 view .LVU470
 1355 02ae 121A     		subs	r2, r2, r0
 1356 02b0 ADF80220 		strh	r2, [sp, #2]	@ movhi
 615:Drivers/lvgl/src/core/lv_obj.c **** 
 1357              		.loc 1 615 13 is_stmt 1 discriminator 3 view .LVU471
 615:Drivers/lvgl/src/core/lv_obj.c **** 
 1358              		.loc 1 615 23 is_stmt 0 discriminator 3 view .LVU472
 1359 02b4 6044     		add	r0, r0, ip
 1360              	.LVL130:
 615:Drivers/lvgl/src/core/lv_obj.c **** 
 1361              		.loc 1 615 23 discriminator 3 view .LVU473
 1362 02b6 ADF80600 		strh	r0, [sp, #6]	@ movhi
 617:Drivers/lvgl/src/core/lv_obj.c ****             lv_obj_draw_dsc_init(&part_dsc, draw_ctx);
 1363              		.loc 1 617 13 is_stmt 1 discriminator 3 view .LVU474
 618:Drivers/lvgl/src/core/lv_obj.c ****             part_dsc.class_p = MY_CLASS;
 1364              		.loc 1 618 13 discriminator 3 view .LVU475
 1365 02ba 2946     		mov	r1, r5
 1366 02bc 10A8     		add	r0, sp, #64
 1367 02be FFF7FEFF 		bl	lv_obj_draw_dsc_init
 1368              	.LVL131:
 619:Drivers/lvgl/src/core/lv_obj.c ****             part_dsc.type = LV_OBJ_DRAW_PART_BORDER_POST;
 1369              		.loc 1 619 13 discriminator 3 view .LVU476
 619:Drivers/lvgl/src/core/lv_obj.c ****             part_dsc.type = LV_OBJ_DRAW_PART_BORDER_POST;
 1370              		.loc 1 619 30 is_stmt 0 discriminator 3 view .LVU477
 1371 02c2 124B     		ldr	r3, .L60
 1372 02c4 1193     		str	r3, [sp, #68]
 620:Drivers/lvgl/src/core/lv_obj.c ****             part_dsc.rect_dsc = &draw_dsc;
 1373              		.loc 1 620 13 is_stmt 1 discriminator 3 view .LVU478
 620:Drivers/lvgl/src/core/lv_obj.c ****             part_dsc.rect_dsc = &draw_dsc;
 1374              		.loc 1 620 27 is_stmt 0 discriminator 3 view .LVU479
 1375 02c6 0123     		movs	r3, #1
ARM GAS  /var/folders/0z/tsy30v1j4xl4_7kw94k978ww0000gn/T//ccVt8IXl.s 			page 60


 1376 02c8 1293     		str	r3, [sp, #72]
 621:Drivers/lvgl/src/core/lv_obj.c ****             part_dsc.draw_area = &coords;
 1377              		.loc 1 621 13 is_stmt 1 discriminator 3 view .LVU480
 621:Drivers/lvgl/src/core/lv_obj.c ****             part_dsc.draw_area = &coords;
 1378              		.loc 1 621 31 is_stmt 0 discriminator 3 view .LVU481
 1379 02ca 1497     		str	r7, [sp, #80]
 622:Drivers/lvgl/src/core/lv_obj.c ****             part_dsc.part = LV_PART_MAIN;
 1380              		.loc 1 622 13 is_stmt 1 discriminator 3 view .LVU482
 622:Drivers/lvgl/src/core/lv_obj.c ****             part_dsc.part = LV_PART_MAIN;
 1381              		.loc 1 622 32 is_stmt 0 discriminator 3 view .LVU483
 1382 02cc CDF84CD0 		str	sp, [sp, #76]
 623:Drivers/lvgl/src/core/lv_obj.c ****             lv_event_send(obj, LV_EVENT_DRAW_PART_BEGIN, &part_dsc);
 1383              		.loc 1 623 13 is_stmt 1 discriminator 3 view .LVU484
 623:Drivers/lvgl/src/core/lv_obj.c ****             lv_event_send(obj, LV_EVENT_DRAW_PART_BEGIN, &part_dsc);
 1384              		.loc 1 623 27 is_stmt 0 discriminator 3 view .LVU485
 1385 02d0 1D96     		str	r6, [sp, #116]
 624:Drivers/lvgl/src/core/lv_obj.c **** 
 1386              		.loc 1 624 13 is_stmt 1 discriminator 3 view .LVU486
 1387 02d2 10AA     		add	r2, sp, #64
 1388 02d4 1A21     		movs	r1, #26
 1389 02d6 2046     		mov	r0, r4
 1390 02d8 FFF7FEFF 		bl	lv_event_send
 1391              	.LVL132:
 626:Drivers/lvgl/src/core/lv_obj.c ****             lv_event_send(obj, LV_EVENT_DRAW_PART_END, &part_dsc);
 1392              		.loc 1 626 13 discriminator 3 view .LVU487
 1393 02dc 6A46     		mov	r2, sp
 1394 02de 3946     		mov	r1, r7
 1395 02e0 2846     		mov	r0, r5
 1396 02e2 FFF7FEFF 		bl	lv_draw_rect
 1397              	.LVL133:
 627:Drivers/lvgl/src/core/lv_obj.c ****         }
 1398              		.loc 1 627 13 discriminator 3 view .LVU488
 1399 02e6 10AA     		add	r2, sp, #64
 1400 02e8 1B21     		movs	r1, #27
 1401 02ea 2046     		mov	r0, r4
 1402 02ec FFF7FEFF 		bl	lv_event_send
 1403              	.LVL134:
 1404 02f0 98E6     		b	.L37
 1405              	.LVL135:
 1406              	.L59:
 627:Drivers/lvgl/src/core/lv_obj.c ****         }
 1407              		.loc 1 627 13 is_stmt 0 discriminator 3 view .LVU489
 1408              	.LBE151:
 1409              	.LBB158:
 590:Drivers/lvgl/src/core/lv_obj.c ****             if(param) {
 1410              		.loc 1 590 13 is_stmt 1 view .LVU490
 590:Drivers/lvgl/src/core/lv_obj.c ****             if(param) {
 1411              		.loc 1 590 51 is_stmt 0 view .LVU491
 1412 02f2 04F59070 		add	r0, r4, #288
 1413 02f6 FFF7FEFF 		bl	lv_draw_mask_remove_custom
 1414              	.LVL136:
 591:Drivers/lvgl/src/core/lv_obj.c ****                 lv_draw_mask_free_param(param);
 1415              		.loc 1 591 13 is_stmt 1 view .LVU492
 591:Drivers/lvgl/src/core/lv_obj.c ****                 lv_draw_mask_free_param(param);
 1416              		.loc 1 591 15 is_stmt 0 view .LVU493
 1417 02fa 0646     		mov	r6, r0
 1418              	.LVL137:
ARM GAS  /var/folders/0z/tsy30v1j4xl4_7kw94k978ww0000gn/T//ccVt8IXl.s 			page 61


 591:Drivers/lvgl/src/core/lv_obj.c ****                 lv_draw_mask_free_param(param);
 1419              		.loc 1 591 15 view .LVU494
 1420 02fc 0028     		cmp	r0, #0
 1421 02fe 98D0     		beq	.L50
 592:Drivers/lvgl/src/core/lv_obj.c ****                 lv_mem_buf_release(param);
 1422              		.loc 1 592 17 is_stmt 1 view .LVU495
 1423 0300 FFF7FEFF 		bl	lv_draw_mask_free_param
 1424              	.LVL138:
 593:Drivers/lvgl/src/core/lv_obj.c ****             }
 1425              		.loc 1 593 17 view .LVU496
 1426 0304 3046     		mov	r0, r6
 1427 0306 FFF7FEFF 		bl	lv_mem_buf_release
 1428              	.LVL139:
 1429 030a 92E7     		b	.L50
 1430              	.L61:
 1431              		.align	2
 1432              	.L60:
 1433 030c 00000000 		.word	.LANCHOR0
 1434              	.LBE158:
 1435              	.LBE146:
 1436              		.cfi_endproc
 1437              	.LFE224:
 1439              		.section	.text.lv_obj_constructor,"ax",%progbits
 1440              		.align	1
 1441              		.syntax unified
 1442              		.thumb
 1443              		.thumb_func
 1445              	lv_obj_constructor:
 1446              	.LVL140:
 1447              	.LFB222:
 420:Drivers/lvgl/src/core/lv_obj.c ****     LV_UNUSED(class_p);
 1448              		.loc 1 420 1 view -0
 1449              		.cfi_startproc
 1450              		@ args = 0, pretend = 0, frame = 0
 1451              		@ frame_needed = 0, uses_anonymous_args = 0
 420:Drivers/lvgl/src/core/lv_obj.c ****     LV_UNUSED(class_p);
 1452              		.loc 1 420 1 is_stmt 0 view .LVU498
 1453 0000 2DE9F041 		push	{r4, r5, r6, r7, r8, lr}
 1454              		.cfi_def_cfa_offset 24
 1455              		.cfi_offset 4, -24
 1456              		.cfi_offset 5, -20
 1457              		.cfi_offset 6, -16
 1458              		.cfi_offset 7, -12
 1459              		.cfi_offset 8, -8
 1460              		.cfi_offset 14, -4
 1461 0004 0C46     		mov	r4, r1
 421:Drivers/lvgl/src/core/lv_obj.c ****     LV_TRACE_OBJ_CREATE("begin");
 1462              		.loc 1 421 5 is_stmt 1 view .LVU499
 422:Drivers/lvgl/src/core/lv_obj.c **** 
 1463              		.loc 1 422 33 view .LVU500
 424:Drivers/lvgl/src/core/lv_obj.c ****     if(parent) {
 1464              		.loc 1 424 5 view .LVU501
 424:Drivers/lvgl/src/core/lv_obj.c ****     if(parent) {
 1465              		.loc 1 424 16 is_stmt 0 view .LVU502
 1466 0006 4D68     		ldr	r5, [r1, #4]
 1467              	.LVL141:
 425:Drivers/lvgl/src/core/lv_obj.c ****         lv_coord_t sl = lv_obj_get_scroll_left(parent);
ARM GAS  /var/folders/0z/tsy30v1j4xl4_7kw94k978ww0000gn/T//ccVt8IXl.s 			page 62


 1468              		.loc 1 425 5 is_stmt 1 view .LVU503
 425:Drivers/lvgl/src/core/lv_obj.c ****         lv_coord_t sl = lv_obj_get_scroll_left(parent);
 1469              		.loc 1 425 7 is_stmt 0 view .LVU504
 1470 0008 25B3     		cbz	r5, .L63
 1471              	.LBB159:
 426:Drivers/lvgl/src/core/lv_obj.c ****         lv_coord_t st = lv_obj_get_scroll_top(parent);
 1472              		.loc 1 426 9 is_stmt 1 view .LVU505
 426:Drivers/lvgl/src/core/lv_obj.c ****         lv_coord_t st = lv_obj_get_scroll_top(parent);
 1473              		.loc 1 426 25 is_stmt 0 view .LVU506
 1474 000a 2846     		mov	r0, r5
 1475              	.LVL142:
 426:Drivers/lvgl/src/core/lv_obj.c ****         lv_coord_t st = lv_obj_get_scroll_top(parent);
 1476              		.loc 1 426 25 view .LVU507
 1477 000c FFF7FEFF 		bl	lv_obj_get_scroll_left
 1478              	.LVL143:
 426:Drivers/lvgl/src/core/lv_obj.c ****         lv_coord_t st = lv_obj_get_scroll_top(parent);
 1479              		.loc 1 426 25 view .LVU508
 1480 0010 0646     		mov	r6, r0
 1481              	.LVL144:
 427:Drivers/lvgl/src/core/lv_obj.c **** 
 1482              		.loc 1 427 9 is_stmt 1 view .LVU509
 427:Drivers/lvgl/src/core/lv_obj.c **** 
 1483              		.loc 1 427 25 is_stmt 0 view .LVU510
 1484 0012 2846     		mov	r0, r5
 1485 0014 FFF7FEFF 		bl	lv_obj_get_scroll_top
 1486              	.LVL145:
 1487 0018 0746     		mov	r7, r0
 1488              	.LVL146:
 429:Drivers/lvgl/src/core/lv_obj.c ****         obj->coords.y2 = obj->coords.y1 - 1;
 1489              		.loc 1 429 9 is_stmt 1 view .LVU511
 429:Drivers/lvgl/src/core/lv_obj.c ****         obj->coords.y2 = obj->coords.y1 - 1;
 1490              		.loc 1 429 40 is_stmt 0 view .LVU512
 1491 001a B5F81680 		ldrh	r8, [r5, #22]
 1492              	.LVL147:
 1493              	.LBB160:
 1494              	.LBI160:
 103:Drivers/lvgl/src/core/lv_obj_style_gen.h **** {
 1495              		.loc 2 103 26 is_stmt 1 view .LVU513
 1496              	.LBB161:
 105:Drivers/lvgl/src/core/lv_obj_style_gen.h ****     return (lv_coord_t)v.num;
 1497              		.loc 2 105 5 view .LVU514
 105:Drivers/lvgl/src/core/lv_obj_style_gen.h ****     return (lv_coord_t)v.num;
 1498              		.loc 2 105 26 is_stmt 0 view .LVU515
 1499 001e 1022     		movs	r2, #16
 1500 0020 0021     		movs	r1, #0
 1501 0022 2846     		mov	r0, r5
 1502 0024 FFF7FEFF 		bl	lv_obj_get_style_prop
 1503              	.LVL148:
 106:Drivers/lvgl/src/core/lv_obj_style_gen.h **** }
 1504              		.loc 2 106 5 is_stmt 1 view .LVU516
 106:Drivers/lvgl/src/core/lv_obj_style_gen.h **** }
 1505              		.loc 2 106 5 is_stmt 0 view .LVU517
 1506              	.LBE161:
 1507              	.LBE160:
 429:Drivers/lvgl/src/core/lv_obj.c ****         obj->coords.y2 = obj->coords.y1 - 1;
 1508              		.loc 1 429 44 view .LVU518
 1509 0028 18FA80F3 		uxtah	r3, r8, r0
ARM GAS  /var/folders/0z/tsy30v1j4xl4_7kw94k978ww0000gn/T//ccVt8IXl.s 			page 63


 1510 002c 9BB2     		uxth	r3, r3
 429:Drivers/lvgl/src/core/lv_obj.c ****         obj->coords.y2 = obj->coords.y1 - 1;
 1511              		.loc 1 429 93 view .LVU519
 1512 002e DB1B     		subs	r3, r3, r7
 1513 0030 9AB2     		uxth	r2, r3
 429:Drivers/lvgl/src/core/lv_obj.c ****         obj->coords.y2 = obj->coords.y1 - 1;
 1514              		.loc 1 429 24 view .LVU520
 1515 0032 E382     		strh	r3, [r4, #22]	@ movhi
 430:Drivers/lvgl/src/core/lv_obj.c ****         obj->coords.x1  = parent->coords.x1 + lv_obj_get_style_pad_left(parent, LV_PART_MAIN) - sl;
 1516              		.loc 1 430 9 is_stmt 1 view .LVU521
 430:Drivers/lvgl/src/core/lv_obj.c ****         obj->coords.x1  = parent->coords.x1 + lv_obj_get_style_pad_left(parent, LV_PART_MAIN) - sl;
 1517              		.loc 1 430 41 is_stmt 0 view .LVU522
 1518 0034 531E     		subs	r3, r2, #1
 430:Drivers/lvgl/src/core/lv_obj.c ****         obj->coords.x1  = parent->coords.x1 + lv_obj_get_style_pad_left(parent, LV_PART_MAIN) - sl;
 1519              		.loc 1 430 24 view .LVU523
 1520 0036 6383     		strh	r3, [r4, #26]	@ movhi
 431:Drivers/lvgl/src/core/lv_obj.c ****         obj->coords.x2  = obj->coords.x1 - 1;
 1521              		.loc 1 431 9 is_stmt 1 view .LVU524
 431:Drivers/lvgl/src/core/lv_obj.c ****         obj->coords.x2  = obj->coords.x1 - 1;
 1522              		.loc 1 431 41 is_stmt 0 view .LVU525
 1523 0038 AF8A     		ldrh	r7, [r5, #20]
 1524              	.LVL149:
 1525              	.LBB162:
 1526              	.LBI162:
 115:Drivers/lvgl/src/core/lv_obj_style_gen.h **** {
 1527              		.loc 2 115 26 is_stmt 1 view .LVU526
 1528              	.LBB163:
 117:Drivers/lvgl/src/core/lv_obj_style_gen.h ****     return (lv_coord_t)v.num;
 1529              		.loc 2 117 5 view .LVU527
 117:Drivers/lvgl/src/core/lv_obj_style_gen.h ****     return (lv_coord_t)v.num;
 1530              		.loc 2 117 26 is_stmt 0 view .LVU528
 1531 003a 1222     		movs	r2, #18
 1532 003c 0021     		movs	r1, #0
 1533 003e 2846     		mov	r0, r5
 1534 0040 FFF7FEFF 		bl	lv_obj_get_style_prop
 1535              	.LVL150:
 118:Drivers/lvgl/src/core/lv_obj_style_gen.h **** }
 1536              		.loc 2 118 5 is_stmt 1 view .LVU529
 118:Drivers/lvgl/src/core/lv_obj_style_gen.h **** }
 1537              		.loc 2 118 5 is_stmt 0 view .LVU530
 1538              	.LBE163:
 1539              	.LBE162:
 431:Drivers/lvgl/src/core/lv_obj.c ****         obj->coords.x2  = obj->coords.x1 - 1;
 1540              		.loc 1 431 45 view .LVU531
 1541 0044 17FA80F3 		uxtah	r3, r7, r0
 1542 0048 9BB2     		uxth	r3, r3
 431:Drivers/lvgl/src/core/lv_obj.c ****         obj->coords.x2  = obj->coords.x1 - 1;
 1543              		.loc 1 431 95 view .LVU532
 1544 004a 981B     		subs	r0, r3, r6
 1545 004c 83B2     		uxth	r3, r0
 431:Drivers/lvgl/src/core/lv_obj.c ****         obj->coords.x2  = obj->coords.x1 - 1;
 1546              		.loc 1 431 25 view .LVU533
 1547 004e A082     		strh	r0, [r4, #20]	@ movhi
 432:Drivers/lvgl/src/core/lv_obj.c ****     }
 1548              		.loc 1 432 9 is_stmt 1 view .LVU534
 432:Drivers/lvgl/src/core/lv_obj.c ****     }
 1549              		.loc 1 432 42 is_stmt 0 view .LVU535
ARM GAS  /var/folders/0z/tsy30v1j4xl4_7kw94k978ww0000gn/T//ccVt8IXl.s 			page 64


 1550 0050 013B     		subs	r3, r3, #1
 432:Drivers/lvgl/src/core/lv_obj.c ****     }
 1551              		.loc 1 432 25 view .LVU536
 1552 0052 2383     		strh	r3, [r4, #24]	@ movhi
 1553              	.LVL151:
 1554              	.L63:
 432:Drivers/lvgl/src/core/lv_obj.c ****     }
 1555              		.loc 1 432 25 view .LVU537
 1556              	.LBE159:
 436:Drivers/lvgl/src/core/lv_obj.c ****     obj->flags |= LV_OBJ_FLAG_SNAPPABLE;
 1557              		.loc 1 436 5 is_stmt 1 view .LVU538
 436:Drivers/lvgl/src/core/lv_obj.c ****     obj->flags |= LV_OBJ_FLAG_SNAPPABLE;
 1558              		.loc 1 436 16 is_stmt 0 view .LVU539
 1559 0054 0223     		movs	r3, #2
 1560 0056 E361     		str	r3, [r4, #28]
 437:Drivers/lvgl/src/core/lv_obj.c ****     if(parent) obj->flags |= LV_OBJ_FLAG_PRESS_LOCK;
 1561              		.loc 1 437 5 is_stmt 1 view .LVU540
 437:Drivers/lvgl/src/core/lv_obj.c ****     if(parent) obj->flags |= LV_OBJ_FLAG_PRESS_LOCK;
 1562              		.loc 1 437 16 is_stmt 0 view .LVU541
 1563 0058 41F20203 		movw	r3, #4098
 1564 005c E361     		str	r3, [r4, #28]
 438:Drivers/lvgl/src/core/lv_obj.c ****     if(parent) obj->flags |= LV_OBJ_FLAG_SCROLL_CHAIN;
 1565              		.loc 1 438 5 is_stmt 1 view .LVU542
 438:Drivers/lvgl/src/core/lv_obj.c ****     if(parent) obj->flags |= LV_OBJ_FLAG_SCROLL_CHAIN;
 1566              		.loc 1 438 7 is_stmt 0 view .LVU543
 1567 005e 15B1     		cbz	r5, .L64
 438:Drivers/lvgl/src/core/lv_obj.c ****     if(parent) obj->flags |= LV_OBJ_FLAG_SCROLL_CHAIN;
 1568              		.loc 1 438 16 is_stmt 1 discriminator 1 view .LVU544
 438:Drivers/lvgl/src/core/lv_obj.c ****     if(parent) obj->flags |= LV_OBJ_FLAG_SCROLL_CHAIN;
 1569              		.loc 1 438 27 is_stmt 0 discriminator 1 view .LVU545
 1570 0060 43F20203 		movw	r3, #12290
 1571 0064 E361     		str	r3, [r4, #28]
 1572              	.L64:
 439:Drivers/lvgl/src/core/lv_obj.c ****     obj->flags |= LV_OBJ_FLAG_CLICK_FOCUSABLE;
 1573              		.loc 1 439 5 is_stmt 1 view .LVU546
 439:Drivers/lvgl/src/core/lv_obj.c ****     obj->flags |= LV_OBJ_FLAG_CLICK_FOCUSABLE;
 1574              		.loc 1 439 7 is_stmt 0 view .LVU547
 1575 0066 1DB1     		cbz	r5, .L65
 439:Drivers/lvgl/src/core/lv_obj.c ****     obj->flags |= LV_OBJ_FLAG_CLICK_FOCUSABLE;
 1576              		.loc 1 439 16 is_stmt 1 discriminator 1 view .LVU548
 439:Drivers/lvgl/src/core/lv_obj.c ****     obj->flags |= LV_OBJ_FLAG_CLICK_FOCUSABLE;
 1577              		.loc 1 439 27 is_stmt 0 discriminator 1 view .LVU549
 1578 0068 E369     		ldr	r3, [r4, #28]
 1579 006a 43F44073 		orr	r3, r3, #768
 1580 006e E361     		str	r3, [r4, #28]
 1581              	.L65:
 440:Drivers/lvgl/src/core/lv_obj.c ****     obj->flags |= LV_OBJ_FLAG_SCROLLABLE;
 1582              		.loc 1 440 5 is_stmt 1 view .LVU550
 440:Drivers/lvgl/src/core/lv_obj.c ****     obj->flags |= LV_OBJ_FLAG_SCROLLABLE;
 1583              		.loc 1 440 16 is_stmt 0 view .LVU551
 1584 0070 E369     		ldr	r3, [r4, #28]
 1585 0072 43F00402 		orr	r2, r3, #4
 1586 0076 E261     		str	r2, [r4, #28]
 441:Drivers/lvgl/src/core/lv_obj.c ****     obj->flags |= LV_OBJ_FLAG_SCROLL_ELASTIC;
 1587              		.loc 1 441 5 is_stmt 1 view .LVU552
 441:Drivers/lvgl/src/core/lv_obj.c ****     obj->flags |= LV_OBJ_FLAG_SCROLL_ELASTIC;
 1588              		.loc 1 441 16 is_stmt 0 view .LVU553
ARM GAS  /var/folders/0z/tsy30v1j4xl4_7kw94k978ww0000gn/T//ccVt8IXl.s 			page 65


 1589 0078 43F01402 		orr	r2, r3, #20
 1590 007c E261     		str	r2, [r4, #28]
 442:Drivers/lvgl/src/core/lv_obj.c ****     obj->flags |= LV_OBJ_FLAG_SCROLL_MOMENTUM;
 1591              		.loc 1 442 5 is_stmt 1 view .LVU554
 442:Drivers/lvgl/src/core/lv_obj.c ****     obj->flags |= LV_OBJ_FLAG_SCROLL_MOMENTUM;
 1592              		.loc 1 442 16 is_stmt 0 view .LVU555
 1593 007e 43F03402 		orr	r2, r3, #52
 1594 0082 E261     		str	r2, [r4, #28]
 443:Drivers/lvgl/src/core/lv_obj.c ****     obj->flags |= LV_OBJ_FLAG_SCROLL_WITH_ARROW;
 1595              		.loc 1 443 5 is_stmt 1 view .LVU556
 443:Drivers/lvgl/src/core/lv_obj.c ****     obj->flags |= LV_OBJ_FLAG_SCROLL_WITH_ARROW;
 1596              		.loc 1 443 16 is_stmt 0 view .LVU557
 1597 0084 43F07403 		orr	r3, r3, #116
 1598 0088 E361     		str	r3, [r4, #28]
 444:Drivers/lvgl/src/core/lv_obj.c ****     if(parent) obj->flags |= LV_OBJ_FLAG_GESTURE_BUBBLE;
 1599              		.loc 1 444 5 is_stmt 1 view .LVU558
 444:Drivers/lvgl/src/core/lv_obj.c ****     if(parent) obj->flags |= LV_OBJ_FLAG_GESTURE_BUBBLE;
 1600              		.loc 1 444 16 is_stmt 0 view .LVU559
 1601 008a 43F40063 		orr	r3, r3, #2048
 1602 008e E361     		str	r3, [r4, #28]
 445:Drivers/lvgl/src/core/lv_obj.c **** 
 1603              		.loc 1 445 5 is_stmt 1 view .LVU560
 445:Drivers/lvgl/src/core/lv_obj.c **** 
 1604              		.loc 1 445 7 is_stmt 0 view .LVU561
 1605 0090 15B1     		cbz	r5, .L62
 445:Drivers/lvgl/src/core/lv_obj.c **** 
 1606              		.loc 1 445 16 is_stmt 1 discriminator 1 view .LVU562
 445:Drivers/lvgl/src/core/lv_obj.c **** 
 1607              		.loc 1 445 27 is_stmt 0 discriminator 1 view .LVU563
 1608 0092 43F40043 		orr	r3, r3, #32768
 1609 0096 E361     		str	r3, [r4, #28]
 447:Drivers/lvgl/src/core/lv_obj.c **** }
 1610              		.loc 1 447 36 is_stmt 1 discriminator 1 view .LVU564
 1611              	.L62:
 448:Drivers/lvgl/src/core/lv_obj.c **** 
 1612              		.loc 1 448 1 is_stmt 0 view .LVU565
 1613 0098 BDE8F081 		pop	{r4, r5, r6, r7, r8, pc}
 448:Drivers/lvgl/src/core/lv_obj.c **** 
 1614              		.loc 1 448 1 view .LVU566
 1615              		.cfi_endproc
 1616              	.LFE222:
 1618              		.section	.text.lv_obj_set_state,"ax",%progbits
 1619              		.align	1
 1620              		.syntax unified
 1621              		.thumb
 1622              		.thumb_func
 1624              	lv_obj_set_state:
 1625              	.LVL152:
 1626              	.LFB228:
 885:Drivers/lvgl/src/core/lv_obj.c ****     if(obj->state == new_state) return;
 1627              		.loc 1 885 1 is_stmt 1 view -0
 1628              		.cfi_startproc
 1629              		@ args = 0, pretend = 0, frame = 40
 1630              		@ frame_needed = 0, uses_anonymous_args = 0
 885:Drivers/lvgl/src/core/lv_obj.c ****     if(obj->state == new_state) return;
 1631              		.loc 1 885 1 is_stmt 0 view .LVU568
 1632 0000 2DE9F04F 		push	{r4, r5, r6, r7, r8, r9, r10, fp, lr}
ARM GAS  /var/folders/0z/tsy30v1j4xl4_7kw94k978ww0000gn/T//ccVt8IXl.s 			page 66


 1633              		.cfi_def_cfa_offset 36
 1634              		.cfi_offset 4, -36
 1635              		.cfi_offset 5, -32
 1636              		.cfi_offset 6, -28
 1637              		.cfi_offset 7, -24
 1638              		.cfi_offset 8, -20
 1639              		.cfi_offset 9, -16
 1640              		.cfi_offset 10, -12
 1641              		.cfi_offset 11, -8
 1642              		.cfi_offset 14, -4
 1643 0004 8DB0     		sub	sp, sp, #52
 1644              		.cfi_def_cfa_offset 88
 1645 0006 0691     		str	r1, [sp, #24]
 886:Drivers/lvgl/src/core/lv_obj.c **** 
 1646              		.loc 1 886 5 is_stmt 1 view .LVU569
 886:Drivers/lvgl/src/core/lv_obj.c **** 
 1647              		.loc 1 886 11 is_stmt 0 view .LVU570
 1648 0008 038C     		ldrh	r3, [r0, #32]
 1649 000a 0993     		str	r3, [sp, #36]
 886:Drivers/lvgl/src/core/lv_obj.c **** 
 1650              		.loc 1 886 7 view .LVU571
 1651 000c 8B42     		cmp	r3, r1
 1652 000e 07D0     		beq	.L68
 1653 0010 8246     		mov	r10, r0
 1654 0012 0A46     		mov	r2, r1
 888:Drivers/lvgl/src/core/lv_obj.c **** 
 1655              		.loc 1 888 5 is_stmt 1 view .LVU572
 888:Drivers/lvgl/src/core/lv_obj.c **** 
 1656              		.loc 1 888 5 view .LVU573
 888:Drivers/lvgl/src/core/lv_obj.c **** 
 1657              		.loc 1 888 5 view .LVU574
 890:Drivers/lvgl/src/core/lv_obj.c ****     obj->state = new_state;
 1658              		.loc 1 890 5 view .LVU575
 1659              	.LVL153:
 891:Drivers/lvgl/src/core/lv_obj.c **** 
 1660              		.loc 1 891 5 view .LVU576
 891:Drivers/lvgl/src/core/lv_obj.c **** 
 1661              		.loc 1 891 16 is_stmt 0 view .LVU577
 1662 0014 0184     		strh	r1, [r0, #32]	@ movhi
 893:Drivers/lvgl/src/core/lv_obj.c ****     /*If there is no difference in styles there is nothing else to do*/
 1663              		.loc 1 893 5 is_stmt 1 view .LVU578
 893:Drivers/lvgl/src/core/lv_obj.c ****     /*If there is no difference in styles there is nothing else to do*/
 1664              		.loc 1 893 37 is_stmt 0 view .LVU579
 1665 0016 1946     		mov	r1, r3
 1666              	.LVL154:
 893:Drivers/lvgl/src/core/lv_obj.c ****     /*If there is no difference in styles there is nothing else to do*/
 1667              		.loc 1 893 37 view .LVU580
 1668 0018 FFF7FEFF 		bl	_lv_obj_style_state_compare
 1669              	.LVL155:
 895:Drivers/lvgl/src/core/lv_obj.c **** 
 1670              		.loc 1 895 5 is_stmt 1 view .LVU581
 895:Drivers/lvgl/src/core/lv_obj.c **** 
 1671              		.loc 1 895 7 is_stmt 0 view .LVU582
 1672 001c 0890     		str	r0, [sp, #32]
 1673 001e 10B9     		cbnz	r0, .L111
 1674              	.LVL156:
 1675              	.L68:
ARM GAS  /var/folders/0z/tsy30v1j4xl4_7kw94k978ww0000gn/T//ccVt8IXl.s 			page 67


 955:Drivers/lvgl/src/core/lv_obj.c **** 
 1676              		.loc 1 955 1 view .LVU583
 1677 0020 0DB0     		add	sp, sp, #52
 1678              		.cfi_remember_state
 1679              		.cfi_def_cfa_offset 36
 1680              		@ sp needed
 1681 0022 BDE8F08F 		pop	{r4, r5, r6, r7, r8, r9, r10, fp, pc}
 1682              	.LVL157:
 1683              	.L111:
 1684              		.cfi_restore_state
 897:Drivers/lvgl/src/core/lv_obj.c ****     lv_memset_00(ts, sizeof(_lv_obj_style_transition_dsc_t) * STYLE_TRANSITION_MAX);
 1685              		.loc 1 897 5 is_stmt 1 view .LVU584
 897:Drivers/lvgl/src/core/lv_obj.c ****     lv_memset_00(ts, sizeof(_lv_obj_style_transition_dsc_t) * STYLE_TRANSITION_MAX);
 1686              		.loc 1 897 43 is_stmt 0 view .LVU585
 1687 0026 4FF42070 		mov	r0, #640
 1688              	.LVL158:
 897:Drivers/lvgl/src/core/lv_obj.c ****     lv_memset_00(ts, sizeof(_lv_obj_style_transition_dsc_t) * STYLE_TRANSITION_MAX);
 1689              		.loc 1 897 43 view .LVU586
 1690 002a FFF7FEFF 		bl	lv_mem_buf_get
 1691              	.LVL159:
 1692 002e 8346     		mov	fp, r0
 1693              	.LVL160:
 898:Drivers/lvgl/src/core/lv_obj.c ****     uint32_t tsi = 0;
 1694              		.loc 1 898 5 is_stmt 1 view .LVU587
 1695 0030 4FF42071 		mov	r1, #640
 1696 0034 FFF7FEFF 		bl	lv_memset_00
 1697              	.LVL161:
 899:Drivers/lvgl/src/core/lv_obj.c ****     uint32_t i;
 1698              		.loc 1 899 5 view .LVU588
 900:Drivers/lvgl/src/core/lv_obj.c ****     for(i = 0; i < obj->style_cnt && tsi < STYLE_TRANSITION_MAX; i++) {
 1699              		.loc 1 900 5 view .LVU589
 901:Drivers/lvgl/src/core/lv_obj.c ****         _lv_obj_style_t * obj_style = &obj->styles[i];
 1700              		.loc 1 901 5 view .LVU590
 901:Drivers/lvgl/src/core/lv_obj.c ****         _lv_obj_style_t * obj_style = &obj->styles[i];
 1701              		.loc 1 901 11 is_stmt 0 view .LVU591
 1702 0038 0023     		movs	r3, #0
 1703 003a 1E46     		mov	r6, r3
 899:Drivers/lvgl/src/core/lv_obj.c ****     uint32_t i;
 1704              		.loc 1 899 14 view .LVU592
 1705 003c 9946     		mov	r9, r3
 1706 003e CDF80CA0 		str	r10, [sp, #12]
 901:Drivers/lvgl/src/core/lv_obj.c ****         _lv_obj_style_t * obj_style = &obj->styles[i];
 1707              		.loc 1 901 5 view .LVU593
 1708 0042 43E0     		b	.L70
 1709              	.LVL162:
 1710              	.L113:
 1711              	.LBB175:
 1712              	.LBB176:
 1713              	.LBB177:
 1714              	.LBB178:
 1715              	.LBB179:
 1716              		.file 4 "Drivers/lvgl/src/core/../misc/lv_style.h"
   1:Drivers/lvgl/src/core/../misc/lv_style.h **** /**
   2:Drivers/lvgl/src/core/../misc/lv_style.h ****  * @file lv_style.h
   3:Drivers/lvgl/src/core/../misc/lv_style.h ****  *
   4:Drivers/lvgl/src/core/../misc/lv_style.h ****  */
   5:Drivers/lvgl/src/core/../misc/lv_style.h **** 
ARM GAS  /var/folders/0z/tsy30v1j4xl4_7kw94k978ww0000gn/T//ccVt8IXl.s 			page 68


   6:Drivers/lvgl/src/core/../misc/lv_style.h **** #ifndef LV_STYLE_H
   7:Drivers/lvgl/src/core/../misc/lv_style.h **** #define LV_STYLE_H
   8:Drivers/lvgl/src/core/../misc/lv_style.h **** 
   9:Drivers/lvgl/src/core/../misc/lv_style.h **** #ifdef __cplusplus
  10:Drivers/lvgl/src/core/../misc/lv_style.h **** extern "C" {
  11:Drivers/lvgl/src/core/../misc/lv_style.h **** #endif
  12:Drivers/lvgl/src/core/../misc/lv_style.h **** 
  13:Drivers/lvgl/src/core/../misc/lv_style.h **** /*********************
  14:Drivers/lvgl/src/core/../misc/lv_style.h ****  *      INCLUDES
  15:Drivers/lvgl/src/core/../misc/lv_style.h ****  *********************/
  16:Drivers/lvgl/src/core/../misc/lv_style.h **** #include <stdbool.h>
  17:Drivers/lvgl/src/core/../misc/lv_style.h **** #include <stdint.h>
  18:Drivers/lvgl/src/core/../misc/lv_style.h **** #include "../font/lv_font.h"
  19:Drivers/lvgl/src/core/../misc/lv_style.h **** #include "lv_color.h"
  20:Drivers/lvgl/src/core/../misc/lv_style.h **** #include "lv_area.h"
  21:Drivers/lvgl/src/core/../misc/lv_style.h **** #include "lv_anim.h"
  22:Drivers/lvgl/src/core/../misc/lv_style.h **** #include "lv_txt.h"
  23:Drivers/lvgl/src/core/../misc/lv_style.h **** #include "lv_types.h"
  24:Drivers/lvgl/src/core/../misc/lv_style.h **** #include "lv_assert.h"
  25:Drivers/lvgl/src/core/../misc/lv_style.h **** #include "lv_bidi.h"
  26:Drivers/lvgl/src/core/../misc/lv_style.h **** 
  27:Drivers/lvgl/src/core/../misc/lv_style.h **** /*********************
  28:Drivers/lvgl/src/core/../misc/lv_style.h ****  *      DEFINES
  29:Drivers/lvgl/src/core/../misc/lv_style.h ****  *********************/
  30:Drivers/lvgl/src/core/../misc/lv_style.h **** 
  31:Drivers/lvgl/src/core/../misc/lv_style.h **** #define LV_STYLE_SENTINEL_VALUE     0xAABBCCDD
  32:Drivers/lvgl/src/core/../misc/lv_style.h **** 
  33:Drivers/lvgl/src/core/../misc/lv_style.h **** /**
  34:Drivers/lvgl/src/core/../misc/lv_style.h ****  * Flags for style behavior
  35:Drivers/lvgl/src/core/../misc/lv_style.h ****  *
  36:Drivers/lvgl/src/core/../misc/lv_style.h ****  * The rest of the flags will have _FLAG added to their name in v9.
  37:Drivers/lvgl/src/core/../misc/lv_style.h ****  */
  38:Drivers/lvgl/src/core/../misc/lv_style.h **** #define LV_STYLE_PROP_FLAG_NONE             (0)
  39:Drivers/lvgl/src/core/../misc/lv_style.h **** #define LV_STYLE_PROP_INHERIT               (1 << 0)  /*Inherited*/
  40:Drivers/lvgl/src/core/../misc/lv_style.h **** #define LV_STYLE_PROP_EXT_DRAW              (1 << 1)  /*Requires ext. draw size update when changed
  41:Drivers/lvgl/src/core/../misc/lv_style.h **** #define LV_STYLE_PROP_LAYOUT_REFR           (1 << 2)  /*Requires layout update when changed*/
  42:Drivers/lvgl/src/core/../misc/lv_style.h **** #define LV_STYLE_PROP_PARENT_LAYOUT_REFR    (1 << 3)  /*Requires layout update on parent when chang
  43:Drivers/lvgl/src/core/../misc/lv_style.h **** #define LV_STYLE_PROP_LAYER_REFR            (1 << 4)  /*Affects layer handling*/
  44:Drivers/lvgl/src/core/../misc/lv_style.h **** #define LV_STYLE_PROP_ALL                   (0x1F)     /*Indicating all flags*/
  45:Drivers/lvgl/src/core/../misc/lv_style.h **** 
  46:Drivers/lvgl/src/core/../misc/lv_style.h **** /**
  47:Drivers/lvgl/src/core/../misc/lv_style.h ****  * Other constants
  48:Drivers/lvgl/src/core/../misc/lv_style.h ****  */
  49:Drivers/lvgl/src/core/../misc/lv_style.h **** #define LV_IMG_ZOOM_NONE            256        /*Value for not zooming the image*/
  50:Drivers/lvgl/src/core/../misc/lv_style.h **** LV_EXPORT_CONST_INT(LV_IMG_ZOOM_NONE);
  51:Drivers/lvgl/src/core/../misc/lv_style.h **** 
  52:Drivers/lvgl/src/core/../misc/lv_style.h **** // *INDENT-OFF*
  53:Drivers/lvgl/src/core/../misc/lv_style.h **** #if LV_USE_ASSERT_STYLE
  54:Drivers/lvgl/src/core/../misc/lv_style.h **** #define LV_STYLE_CONST_INIT(var_name, prop_array)                       \
  55:Drivers/lvgl/src/core/../misc/lv_style.h ****     const lv_style_t var_name = {                                       \
  56:Drivers/lvgl/src/core/../misc/lv_style.h ****         .sentinel = LV_STYLE_SENTINEL_VALUE,                            \
  57:Drivers/lvgl/src/core/../misc/lv_style.h ****         .v_p = { .const_props = prop_array },                           \
  58:Drivers/lvgl/src/core/../misc/lv_style.h ****         .has_group = 0xFF,                                              \
  59:Drivers/lvgl/src/core/../misc/lv_style.h ****         .prop1 = LV_STYLE_PROP_ANY,                                     \
  60:Drivers/lvgl/src/core/../misc/lv_style.h ****         .prop_cnt = (sizeof(prop_array) / sizeof((prop_array)[0])),     \
  61:Drivers/lvgl/src/core/../misc/lv_style.h ****     }
  62:Drivers/lvgl/src/core/../misc/lv_style.h **** #else
ARM GAS  /var/folders/0z/tsy30v1j4xl4_7kw94k978ww0000gn/T//ccVt8IXl.s 			page 69


  63:Drivers/lvgl/src/core/../misc/lv_style.h **** #define LV_STYLE_CONST_INIT(var_name, prop_array)                       \
  64:Drivers/lvgl/src/core/../misc/lv_style.h ****     const lv_style_t var_name = {                                       \
  65:Drivers/lvgl/src/core/../misc/lv_style.h ****         .v_p = { .const_props = prop_array },                           \
  66:Drivers/lvgl/src/core/../misc/lv_style.h ****         .has_group = 0xFF,                                              \
  67:Drivers/lvgl/src/core/../misc/lv_style.h ****         .prop1 = LV_STYLE_PROP_ANY,                                     \
  68:Drivers/lvgl/src/core/../misc/lv_style.h ****         .prop_cnt = (sizeof(prop_array) / sizeof((prop_array)[0])),     \
  69:Drivers/lvgl/src/core/../misc/lv_style.h ****     }
  70:Drivers/lvgl/src/core/../misc/lv_style.h **** #endif
  71:Drivers/lvgl/src/core/../misc/lv_style.h **** // *INDENT-ON*
  72:Drivers/lvgl/src/core/../misc/lv_style.h **** 
  73:Drivers/lvgl/src/core/../misc/lv_style.h **** #define LV_STYLE_PROP_META_INHERIT 0x8000
  74:Drivers/lvgl/src/core/../misc/lv_style.h **** #define LV_STYLE_PROP_META_INITIAL 0x4000
  75:Drivers/lvgl/src/core/../misc/lv_style.h **** #define LV_STYLE_PROP_META_MASK (LV_STYLE_PROP_META_INHERIT | LV_STYLE_PROP_META_INITIAL)
  76:Drivers/lvgl/src/core/../misc/lv_style.h **** 
  77:Drivers/lvgl/src/core/../misc/lv_style.h **** #define LV_STYLE_PROP_ID_MASK(prop) ((lv_style_prop_t)((prop) & ~LV_STYLE_PROP_META_MASK))
  78:Drivers/lvgl/src/core/../misc/lv_style.h **** 
  79:Drivers/lvgl/src/core/../misc/lv_style.h **** /**********************
  80:Drivers/lvgl/src/core/../misc/lv_style.h ****  *      TYPEDEFS
  81:Drivers/lvgl/src/core/../misc/lv_style.h ****  **********************/
  82:Drivers/lvgl/src/core/../misc/lv_style.h **** 
  83:Drivers/lvgl/src/core/../misc/lv_style.h **** /**
  84:Drivers/lvgl/src/core/../misc/lv_style.h ****  * Possible options how to blend opaque drawings
  85:Drivers/lvgl/src/core/../misc/lv_style.h ****  */
  86:Drivers/lvgl/src/core/../misc/lv_style.h **** enum {
  87:Drivers/lvgl/src/core/../misc/lv_style.h ****     LV_BLEND_MODE_NORMAL,     /**< Simply mix according to the opacity value*/
  88:Drivers/lvgl/src/core/../misc/lv_style.h ****     LV_BLEND_MODE_ADDITIVE,   /**< Add the respective color channels*/
  89:Drivers/lvgl/src/core/../misc/lv_style.h ****     LV_BLEND_MODE_SUBTRACTIVE,/**< Subtract the foreground from the background*/
  90:Drivers/lvgl/src/core/../misc/lv_style.h ****     LV_BLEND_MODE_MULTIPLY,   /**< Multiply the foreground and background*/
  91:Drivers/lvgl/src/core/../misc/lv_style.h ****     LV_BLEND_MODE_REPLACE,    /**< Replace background with foreground in the area*/
  92:Drivers/lvgl/src/core/../misc/lv_style.h **** };
  93:Drivers/lvgl/src/core/../misc/lv_style.h **** 
  94:Drivers/lvgl/src/core/../misc/lv_style.h **** typedef uint8_t lv_blend_mode_t;
  95:Drivers/lvgl/src/core/../misc/lv_style.h **** 
  96:Drivers/lvgl/src/core/../misc/lv_style.h **** /**
  97:Drivers/lvgl/src/core/../misc/lv_style.h ****  * Some options to apply decorations on texts.
  98:Drivers/lvgl/src/core/../misc/lv_style.h ****  * 'OR'ed values can be used.
  99:Drivers/lvgl/src/core/../misc/lv_style.h ****  */
 100:Drivers/lvgl/src/core/../misc/lv_style.h **** enum {
 101:Drivers/lvgl/src/core/../misc/lv_style.h ****     LV_TEXT_DECOR_NONE          = 0x00,
 102:Drivers/lvgl/src/core/../misc/lv_style.h ****     LV_TEXT_DECOR_UNDERLINE     = 0x01,
 103:Drivers/lvgl/src/core/../misc/lv_style.h ****     LV_TEXT_DECOR_STRIKETHROUGH = 0x02,
 104:Drivers/lvgl/src/core/../misc/lv_style.h **** };
 105:Drivers/lvgl/src/core/../misc/lv_style.h **** 
 106:Drivers/lvgl/src/core/../misc/lv_style.h **** typedef uint8_t lv_text_decor_t;
 107:Drivers/lvgl/src/core/../misc/lv_style.h **** 
 108:Drivers/lvgl/src/core/../misc/lv_style.h **** /**
 109:Drivers/lvgl/src/core/../misc/lv_style.h ****  * Selects on which sides border should be drawn
 110:Drivers/lvgl/src/core/../misc/lv_style.h ****  * 'OR'ed values can be used.
 111:Drivers/lvgl/src/core/../misc/lv_style.h ****  */
 112:Drivers/lvgl/src/core/../misc/lv_style.h **** enum {
 113:Drivers/lvgl/src/core/../misc/lv_style.h ****     LV_BORDER_SIDE_NONE     = 0x00,
 114:Drivers/lvgl/src/core/../misc/lv_style.h ****     LV_BORDER_SIDE_BOTTOM   = 0x01,
 115:Drivers/lvgl/src/core/../misc/lv_style.h ****     LV_BORDER_SIDE_TOP      = 0x02,
 116:Drivers/lvgl/src/core/../misc/lv_style.h ****     LV_BORDER_SIDE_LEFT     = 0x04,
 117:Drivers/lvgl/src/core/../misc/lv_style.h ****     LV_BORDER_SIDE_RIGHT    = 0x08,
 118:Drivers/lvgl/src/core/../misc/lv_style.h ****     LV_BORDER_SIDE_FULL     = 0x0F,
 119:Drivers/lvgl/src/core/../misc/lv_style.h ****     LV_BORDER_SIDE_INTERNAL = 0x10, /**< FOR matrix-like objects (e.g. Button matrix)*/
ARM GAS  /var/folders/0z/tsy30v1j4xl4_7kw94k978ww0000gn/T//ccVt8IXl.s 			page 70


 120:Drivers/lvgl/src/core/../misc/lv_style.h **** };
 121:Drivers/lvgl/src/core/../misc/lv_style.h **** typedef uint8_t lv_border_side_t;
 122:Drivers/lvgl/src/core/../misc/lv_style.h **** 
 123:Drivers/lvgl/src/core/../misc/lv_style.h **** /**
 124:Drivers/lvgl/src/core/../misc/lv_style.h ****  * The direction of the gradient.
 125:Drivers/lvgl/src/core/../misc/lv_style.h ****  */
 126:Drivers/lvgl/src/core/../misc/lv_style.h **** enum {
 127:Drivers/lvgl/src/core/../misc/lv_style.h ****     LV_GRAD_DIR_NONE, /**< No gradient (the `grad_color` property is ignored)*/
 128:Drivers/lvgl/src/core/../misc/lv_style.h ****     LV_GRAD_DIR_VER,  /**< Vertical (top to bottom) gradient*/
 129:Drivers/lvgl/src/core/../misc/lv_style.h ****     LV_GRAD_DIR_HOR,  /**< Horizontal (left to right) gradient*/
 130:Drivers/lvgl/src/core/../misc/lv_style.h **** };
 131:Drivers/lvgl/src/core/../misc/lv_style.h **** 
 132:Drivers/lvgl/src/core/../misc/lv_style.h **** typedef uint8_t lv_grad_dir_t;
 133:Drivers/lvgl/src/core/../misc/lv_style.h **** 
 134:Drivers/lvgl/src/core/../misc/lv_style.h **** /**
 135:Drivers/lvgl/src/core/../misc/lv_style.h ****  * The dithering algorithm for the gradient
 136:Drivers/lvgl/src/core/../misc/lv_style.h ****  * Depends on LV_DITHER_GRADIENT
 137:Drivers/lvgl/src/core/../misc/lv_style.h ****  */
 138:Drivers/lvgl/src/core/../misc/lv_style.h **** enum {
 139:Drivers/lvgl/src/core/../misc/lv_style.h ****     LV_DITHER_NONE,     /**< No dithering, colors are just quantized to the output resolution*/
 140:Drivers/lvgl/src/core/../misc/lv_style.h ****     LV_DITHER_ORDERED,  /**< Ordered dithering. Faster to compute and use less memory but lower qua
 141:Drivers/lvgl/src/core/../misc/lv_style.h ****     LV_DITHER_ERR_DIFF, /**< Error diffusion mode. Slower to compute and use more memory but give h
 142:Drivers/lvgl/src/core/../misc/lv_style.h **** };
 143:Drivers/lvgl/src/core/../misc/lv_style.h **** 
 144:Drivers/lvgl/src/core/../misc/lv_style.h **** typedef uint8_t lv_dither_mode_t;
 145:Drivers/lvgl/src/core/../misc/lv_style.h **** 
 146:Drivers/lvgl/src/core/../misc/lv_style.h **** /** A gradient stop definition.
 147:Drivers/lvgl/src/core/../misc/lv_style.h ****  *  This matches a color and a position in a virtual 0-255 scale.
 148:Drivers/lvgl/src/core/../misc/lv_style.h ****  */
 149:Drivers/lvgl/src/core/../misc/lv_style.h **** typedef struct {
 150:Drivers/lvgl/src/core/../misc/lv_style.h ****     lv_color_t color;   /**< The stop color */
 151:Drivers/lvgl/src/core/../misc/lv_style.h ****     uint8_t    frac;    /**< The stop position in 1/255 unit */
 152:Drivers/lvgl/src/core/../misc/lv_style.h **** } lv_gradient_stop_t;
 153:Drivers/lvgl/src/core/../misc/lv_style.h **** 
 154:Drivers/lvgl/src/core/../misc/lv_style.h **** /** A descriptor of a gradient. */
 155:Drivers/lvgl/src/core/../misc/lv_style.h **** typedef struct {
 156:Drivers/lvgl/src/core/../misc/lv_style.h ****     lv_gradient_stop_t   stops[LV_GRADIENT_MAX_STOPS]; /**< A gradient stop array */
 157:Drivers/lvgl/src/core/../misc/lv_style.h ****     uint8_t              stops_count;                  /**< The number of used stops in the array *
 158:Drivers/lvgl/src/core/../misc/lv_style.h ****     lv_grad_dir_t        dir : 3;                      /**< The gradient direction.
 159:Drivers/lvgl/src/core/../misc/lv_style.h ****                                                         * Any of LV_GRAD_DIR_HOR, LV_GRAD_DIR_VER, 
 160:Drivers/lvgl/src/core/../misc/lv_style.h ****     lv_dither_mode_t     dither : 3;                   /**< Whether to dither the gradient or not.
 161:Drivers/lvgl/src/core/../misc/lv_style.h ****                                                         * Any of LV_DITHER_NONE, LV_DITHER_ORDERED,
 162:Drivers/lvgl/src/core/../misc/lv_style.h **** } lv_grad_dsc_t;
 163:Drivers/lvgl/src/core/../misc/lv_style.h **** 
 164:Drivers/lvgl/src/core/../misc/lv_style.h **** /**
 165:Drivers/lvgl/src/core/../misc/lv_style.h ****  * A common type to handle all the property types in the same way.
 166:Drivers/lvgl/src/core/../misc/lv_style.h ****  */
 167:Drivers/lvgl/src/core/../misc/lv_style.h **** typedef union {
 168:Drivers/lvgl/src/core/../misc/lv_style.h ****     int32_t num;         /**< Number integer number (opacity, enums, booleans or "normal" numbers)*
 169:Drivers/lvgl/src/core/../misc/lv_style.h ****     const void * ptr;    /**< Constant pointers  (font, cone text, etc)*/
 170:Drivers/lvgl/src/core/../misc/lv_style.h ****     lv_color_t color;    /**< Colors*/
 171:Drivers/lvgl/src/core/../misc/lv_style.h **** } lv_style_value_t;
 172:Drivers/lvgl/src/core/../misc/lv_style.h **** 
 173:Drivers/lvgl/src/core/../misc/lv_style.h **** /**
 174:Drivers/lvgl/src/core/../misc/lv_style.h ****  * Enumeration of all built in style properties
 175:Drivers/lvgl/src/core/../misc/lv_style.h ****  *
 176:Drivers/lvgl/src/core/../misc/lv_style.h ****  * Props are split into groups of 16. When adding a new prop to a group, ensure it does not overflo
ARM GAS  /var/folders/0z/tsy30v1j4xl4_7kw94k978ww0000gn/T//ccVt8IXl.s 			page 71


 177:Drivers/lvgl/src/core/../misc/lv_style.h ****  */
 178:Drivers/lvgl/src/core/../misc/lv_style.h **** typedef enum {
 179:Drivers/lvgl/src/core/../misc/lv_style.h ****     LV_STYLE_PROP_INV               = 0,
 180:Drivers/lvgl/src/core/../misc/lv_style.h **** 
 181:Drivers/lvgl/src/core/../misc/lv_style.h ****     /*Group 0*/
 182:Drivers/lvgl/src/core/../misc/lv_style.h ****     LV_STYLE_WIDTH                  = 1,
 183:Drivers/lvgl/src/core/../misc/lv_style.h ****     LV_STYLE_MIN_WIDTH              = 2,
 184:Drivers/lvgl/src/core/../misc/lv_style.h ****     LV_STYLE_MAX_WIDTH              = 3,
 185:Drivers/lvgl/src/core/../misc/lv_style.h ****     LV_STYLE_HEIGHT                 = 4,
 186:Drivers/lvgl/src/core/../misc/lv_style.h ****     LV_STYLE_MIN_HEIGHT             = 5,
 187:Drivers/lvgl/src/core/../misc/lv_style.h ****     LV_STYLE_MAX_HEIGHT             = 6,
 188:Drivers/lvgl/src/core/../misc/lv_style.h ****     LV_STYLE_X                      = 7,
 189:Drivers/lvgl/src/core/../misc/lv_style.h ****     LV_STYLE_Y                      = 8,
 190:Drivers/lvgl/src/core/../misc/lv_style.h ****     LV_STYLE_ALIGN                  = 9,
 191:Drivers/lvgl/src/core/../misc/lv_style.h ****     LV_STYLE_LAYOUT                 = 10,
 192:Drivers/lvgl/src/core/../misc/lv_style.h ****     LV_STYLE_RADIUS                 = 11,
 193:Drivers/lvgl/src/core/../misc/lv_style.h **** 
 194:Drivers/lvgl/src/core/../misc/lv_style.h ****     /*Group 1*/
 195:Drivers/lvgl/src/core/../misc/lv_style.h ****     LV_STYLE_PAD_TOP                = 16,
 196:Drivers/lvgl/src/core/../misc/lv_style.h ****     LV_STYLE_PAD_BOTTOM             = 17,
 197:Drivers/lvgl/src/core/../misc/lv_style.h ****     LV_STYLE_PAD_LEFT               = 18,
 198:Drivers/lvgl/src/core/../misc/lv_style.h ****     LV_STYLE_PAD_RIGHT              = 19,
 199:Drivers/lvgl/src/core/../misc/lv_style.h ****     LV_STYLE_PAD_ROW                = 20,
 200:Drivers/lvgl/src/core/../misc/lv_style.h ****     LV_STYLE_PAD_COLUMN             = 21,
 201:Drivers/lvgl/src/core/../misc/lv_style.h ****     LV_STYLE_BASE_DIR               = 22,
 202:Drivers/lvgl/src/core/../misc/lv_style.h ****     LV_STYLE_CLIP_CORNER            = 23,
 203:Drivers/lvgl/src/core/../misc/lv_style.h **** 
 204:Drivers/lvgl/src/core/../misc/lv_style.h ****     /*Group 2*/
 205:Drivers/lvgl/src/core/../misc/lv_style.h ****     LV_STYLE_BG_COLOR               = 32,
 206:Drivers/lvgl/src/core/../misc/lv_style.h ****     LV_STYLE_BG_OPA                 = 33,
 207:Drivers/lvgl/src/core/../misc/lv_style.h ****     LV_STYLE_BG_GRAD_COLOR          = 34,
 208:Drivers/lvgl/src/core/../misc/lv_style.h ****     LV_STYLE_BG_GRAD_DIR            = 35,
 209:Drivers/lvgl/src/core/../misc/lv_style.h ****     LV_STYLE_BG_MAIN_STOP           = 36,
 210:Drivers/lvgl/src/core/../misc/lv_style.h ****     LV_STYLE_BG_GRAD_STOP           = 37,
 211:Drivers/lvgl/src/core/../misc/lv_style.h ****     LV_STYLE_BG_GRAD                = 38,
 212:Drivers/lvgl/src/core/../misc/lv_style.h ****     LV_STYLE_BG_DITHER_MODE         = 39,
 213:Drivers/lvgl/src/core/../misc/lv_style.h ****     LV_STYLE_BG_IMG_SRC             = 40,
 214:Drivers/lvgl/src/core/../misc/lv_style.h ****     LV_STYLE_BG_IMG_OPA             = 41,
 215:Drivers/lvgl/src/core/../misc/lv_style.h ****     LV_STYLE_BG_IMG_RECOLOR         = 42,
 216:Drivers/lvgl/src/core/../misc/lv_style.h ****     LV_STYLE_BG_IMG_RECOLOR_OPA     = 43,
 217:Drivers/lvgl/src/core/../misc/lv_style.h ****     LV_STYLE_BG_IMG_TILED           = 44,
 218:Drivers/lvgl/src/core/../misc/lv_style.h **** 
 219:Drivers/lvgl/src/core/../misc/lv_style.h ****     /*Group 3*/
 220:Drivers/lvgl/src/core/../misc/lv_style.h ****     LV_STYLE_BORDER_COLOR           = 48,
 221:Drivers/lvgl/src/core/../misc/lv_style.h ****     LV_STYLE_BORDER_OPA             = 49,
 222:Drivers/lvgl/src/core/../misc/lv_style.h ****     LV_STYLE_BORDER_WIDTH           = 50,
 223:Drivers/lvgl/src/core/../misc/lv_style.h ****     LV_STYLE_BORDER_SIDE            = 51,
 224:Drivers/lvgl/src/core/../misc/lv_style.h ****     LV_STYLE_BORDER_POST            = 52,
 225:Drivers/lvgl/src/core/../misc/lv_style.h ****     LV_STYLE_OUTLINE_WIDTH          = 53,
 226:Drivers/lvgl/src/core/../misc/lv_style.h ****     LV_STYLE_OUTLINE_COLOR          = 54,
 227:Drivers/lvgl/src/core/../misc/lv_style.h ****     LV_STYLE_OUTLINE_OPA            = 55,
 228:Drivers/lvgl/src/core/../misc/lv_style.h ****     LV_STYLE_OUTLINE_PAD            = 56,
 229:Drivers/lvgl/src/core/../misc/lv_style.h **** 
 230:Drivers/lvgl/src/core/../misc/lv_style.h ****     /*Group 4*/
 231:Drivers/lvgl/src/core/../misc/lv_style.h ****     LV_STYLE_SHADOW_WIDTH           = 64,
 232:Drivers/lvgl/src/core/../misc/lv_style.h ****     LV_STYLE_SHADOW_OFS_X           = 65,
 233:Drivers/lvgl/src/core/../misc/lv_style.h ****     LV_STYLE_SHADOW_OFS_Y           = 66,
ARM GAS  /var/folders/0z/tsy30v1j4xl4_7kw94k978ww0000gn/T//ccVt8IXl.s 			page 72


 234:Drivers/lvgl/src/core/../misc/lv_style.h ****     LV_STYLE_SHADOW_SPREAD          = 67,
 235:Drivers/lvgl/src/core/../misc/lv_style.h ****     LV_STYLE_SHADOW_COLOR           = 68,
 236:Drivers/lvgl/src/core/../misc/lv_style.h ****     LV_STYLE_SHADOW_OPA             = 69,
 237:Drivers/lvgl/src/core/../misc/lv_style.h ****     LV_STYLE_IMG_OPA                = 70,
 238:Drivers/lvgl/src/core/../misc/lv_style.h ****     LV_STYLE_IMG_RECOLOR            = 71,
 239:Drivers/lvgl/src/core/../misc/lv_style.h ****     LV_STYLE_IMG_RECOLOR_OPA        = 72,
 240:Drivers/lvgl/src/core/../misc/lv_style.h ****     LV_STYLE_LINE_WIDTH             = 73,
 241:Drivers/lvgl/src/core/../misc/lv_style.h ****     LV_STYLE_LINE_DASH_WIDTH        = 74,
 242:Drivers/lvgl/src/core/../misc/lv_style.h ****     LV_STYLE_LINE_DASH_GAP          = 75,
 243:Drivers/lvgl/src/core/../misc/lv_style.h ****     LV_STYLE_LINE_ROUNDED           = 76,
 244:Drivers/lvgl/src/core/../misc/lv_style.h ****     LV_STYLE_LINE_COLOR             = 77,
 245:Drivers/lvgl/src/core/../misc/lv_style.h ****     LV_STYLE_LINE_OPA               = 78,
 246:Drivers/lvgl/src/core/../misc/lv_style.h **** 
 247:Drivers/lvgl/src/core/../misc/lv_style.h ****     /*Group 5*/
 248:Drivers/lvgl/src/core/../misc/lv_style.h ****     LV_STYLE_ARC_WIDTH              = 80,
 249:Drivers/lvgl/src/core/../misc/lv_style.h ****     LV_STYLE_ARC_ROUNDED            = 81,
 250:Drivers/lvgl/src/core/../misc/lv_style.h ****     LV_STYLE_ARC_COLOR              = 82,
 251:Drivers/lvgl/src/core/../misc/lv_style.h ****     LV_STYLE_ARC_OPA                = 83,
 252:Drivers/lvgl/src/core/../misc/lv_style.h ****     LV_STYLE_ARC_IMG_SRC            = 84,
 253:Drivers/lvgl/src/core/../misc/lv_style.h ****     LV_STYLE_TEXT_COLOR             = 85,
 254:Drivers/lvgl/src/core/../misc/lv_style.h ****     LV_STYLE_TEXT_OPA               = 86,
 255:Drivers/lvgl/src/core/../misc/lv_style.h ****     LV_STYLE_TEXT_FONT              = 87,
 256:Drivers/lvgl/src/core/../misc/lv_style.h ****     LV_STYLE_TEXT_LETTER_SPACE      = 88,
 257:Drivers/lvgl/src/core/../misc/lv_style.h ****     LV_STYLE_TEXT_LINE_SPACE        = 89,
 258:Drivers/lvgl/src/core/../misc/lv_style.h ****     LV_STYLE_TEXT_DECOR             = 90,
 259:Drivers/lvgl/src/core/../misc/lv_style.h ****     LV_STYLE_TEXT_ALIGN             = 91,
 260:Drivers/lvgl/src/core/../misc/lv_style.h **** 
 261:Drivers/lvgl/src/core/../misc/lv_style.h ****     /*Group 6*/
 262:Drivers/lvgl/src/core/../misc/lv_style.h ****     LV_STYLE_OPA                    = 96,
 263:Drivers/lvgl/src/core/../misc/lv_style.h ****     LV_STYLE_OPA_LAYERED            = 97,
 264:Drivers/lvgl/src/core/../misc/lv_style.h ****     LV_STYLE_COLOR_FILTER_DSC       = 98,
 265:Drivers/lvgl/src/core/../misc/lv_style.h ****     LV_STYLE_COLOR_FILTER_OPA       = 99,
 266:Drivers/lvgl/src/core/../misc/lv_style.h ****     LV_STYLE_ANIM                   = 100,
 267:Drivers/lvgl/src/core/../misc/lv_style.h ****     LV_STYLE_ANIM_TIME              = 101,
 268:Drivers/lvgl/src/core/../misc/lv_style.h ****     LV_STYLE_ANIM_SPEED             = 102,
 269:Drivers/lvgl/src/core/../misc/lv_style.h ****     LV_STYLE_TRANSITION             = 103,
 270:Drivers/lvgl/src/core/../misc/lv_style.h ****     LV_STYLE_BLEND_MODE             = 104,
 271:Drivers/lvgl/src/core/../misc/lv_style.h ****     LV_STYLE_TRANSFORM_WIDTH        = 105,
 272:Drivers/lvgl/src/core/../misc/lv_style.h ****     LV_STYLE_TRANSFORM_HEIGHT       = 106,
 273:Drivers/lvgl/src/core/../misc/lv_style.h ****     LV_STYLE_TRANSLATE_X            = 107,
 274:Drivers/lvgl/src/core/../misc/lv_style.h ****     LV_STYLE_TRANSLATE_Y            = 108,
 275:Drivers/lvgl/src/core/../misc/lv_style.h ****     LV_STYLE_TRANSFORM_ZOOM         = 109,
 276:Drivers/lvgl/src/core/../misc/lv_style.h ****     LV_STYLE_TRANSFORM_ANGLE        = 110,
 277:Drivers/lvgl/src/core/../misc/lv_style.h ****     LV_STYLE_TRANSFORM_PIVOT_X      = 111,
 278:Drivers/lvgl/src/core/../misc/lv_style.h ****     LV_STYLE_TRANSFORM_PIVOT_Y      = 112,
 279:Drivers/lvgl/src/core/../misc/lv_style.h **** 
 280:Drivers/lvgl/src/core/../misc/lv_style.h ****     _LV_STYLE_LAST_BUILT_IN_PROP     = 112,
 281:Drivers/lvgl/src/core/../misc/lv_style.h ****     _LV_STYLE_NUM_BUILT_IN_PROPS     = _LV_STYLE_LAST_BUILT_IN_PROP + 1,
 282:Drivers/lvgl/src/core/../misc/lv_style.h **** 
 283:Drivers/lvgl/src/core/../misc/lv_style.h ****     LV_STYLE_PROP_ANY                = 0xFFFF,
 284:Drivers/lvgl/src/core/../misc/lv_style.h ****     _LV_STYLE_PROP_CONST             = 0xFFFF /* magic value for const styles */
 285:Drivers/lvgl/src/core/../misc/lv_style.h **** } lv_style_prop_t;
 286:Drivers/lvgl/src/core/../misc/lv_style.h **** 
 287:Drivers/lvgl/src/core/../misc/lv_style.h **** enum {
 288:Drivers/lvgl/src/core/../misc/lv_style.h ****     LV_STYLE_RES_NOT_FOUND,
 289:Drivers/lvgl/src/core/../misc/lv_style.h ****     LV_STYLE_RES_FOUND,
 290:Drivers/lvgl/src/core/../misc/lv_style.h ****     LV_STYLE_RES_INHERIT
ARM GAS  /var/folders/0z/tsy30v1j4xl4_7kw94k978ww0000gn/T//ccVt8IXl.s 			page 73


 291:Drivers/lvgl/src/core/../misc/lv_style.h **** };
 292:Drivers/lvgl/src/core/../misc/lv_style.h **** 
 293:Drivers/lvgl/src/core/../misc/lv_style.h **** typedef uint8_t lv_style_res_t;
 294:Drivers/lvgl/src/core/../misc/lv_style.h **** 
 295:Drivers/lvgl/src/core/../misc/lv_style.h **** /**
 296:Drivers/lvgl/src/core/../misc/lv_style.h ****  * Descriptor for style transitions
 297:Drivers/lvgl/src/core/../misc/lv_style.h ****  */
 298:Drivers/lvgl/src/core/../misc/lv_style.h **** typedef struct {
 299:Drivers/lvgl/src/core/../misc/lv_style.h ****     const lv_style_prop_t * props; /**< An array with the properties to animate.*/
 300:Drivers/lvgl/src/core/../misc/lv_style.h **** #if LV_USE_USER_DATA
 301:Drivers/lvgl/src/core/../misc/lv_style.h ****     void * user_data;              /**< A custom user data that will be passed to the animation's u
 302:Drivers/lvgl/src/core/../misc/lv_style.h **** #endif
 303:Drivers/lvgl/src/core/../misc/lv_style.h ****     lv_anim_path_cb_t path_xcb;     /**< A path for the animation.*/
 304:Drivers/lvgl/src/core/../misc/lv_style.h ****     uint32_t time;                 /**< Duration of the transition in [ms]*/
 305:Drivers/lvgl/src/core/../misc/lv_style.h ****     uint32_t delay;                /**< Delay before the transition in [ms]*/
 306:Drivers/lvgl/src/core/../misc/lv_style.h **** } lv_style_transition_dsc_t;
 307:Drivers/lvgl/src/core/../misc/lv_style.h **** 
 308:Drivers/lvgl/src/core/../misc/lv_style.h **** /**
 309:Drivers/lvgl/src/core/../misc/lv_style.h ****  * Descriptor of a constant style property.
 310:Drivers/lvgl/src/core/../misc/lv_style.h ****  */
 311:Drivers/lvgl/src/core/../misc/lv_style.h **** typedef struct {
 312:Drivers/lvgl/src/core/../misc/lv_style.h ****     lv_style_prop_t prop;
 313:Drivers/lvgl/src/core/../misc/lv_style.h ****     lv_style_value_t value;
 314:Drivers/lvgl/src/core/../misc/lv_style.h **** } lv_style_const_prop_t;
 315:Drivers/lvgl/src/core/../misc/lv_style.h **** 
 316:Drivers/lvgl/src/core/../misc/lv_style.h **** /**
 317:Drivers/lvgl/src/core/../misc/lv_style.h ****  * Descriptor of a style (a collection of properties and values).
 318:Drivers/lvgl/src/core/../misc/lv_style.h ****  */
 319:Drivers/lvgl/src/core/../misc/lv_style.h **** typedef struct {
 320:Drivers/lvgl/src/core/../misc/lv_style.h **** 
 321:Drivers/lvgl/src/core/../misc/lv_style.h **** #if LV_USE_ASSERT_STYLE
 322:Drivers/lvgl/src/core/../misc/lv_style.h ****     uint32_t sentinel;
 323:Drivers/lvgl/src/core/../misc/lv_style.h **** #endif
 324:Drivers/lvgl/src/core/../misc/lv_style.h **** 
 325:Drivers/lvgl/src/core/../misc/lv_style.h ****     /*If there is only one property store it directly.
 326:Drivers/lvgl/src/core/../misc/lv_style.h ****      *For more properties allocate an array*/
 327:Drivers/lvgl/src/core/../misc/lv_style.h ****     union {
 328:Drivers/lvgl/src/core/../misc/lv_style.h ****         lv_style_value_t value1;
 329:Drivers/lvgl/src/core/../misc/lv_style.h ****         uint8_t * values_and_props;
 330:Drivers/lvgl/src/core/../misc/lv_style.h ****         const lv_style_const_prop_t * const_props;
 331:Drivers/lvgl/src/core/../misc/lv_style.h ****     } v_p;
 332:Drivers/lvgl/src/core/../misc/lv_style.h **** 
 333:Drivers/lvgl/src/core/../misc/lv_style.h ****     uint16_t prop1;
 334:Drivers/lvgl/src/core/../misc/lv_style.h ****     uint8_t has_group;
 335:Drivers/lvgl/src/core/../misc/lv_style.h ****     uint8_t prop_cnt;
 336:Drivers/lvgl/src/core/../misc/lv_style.h **** } lv_style_t;
 337:Drivers/lvgl/src/core/../misc/lv_style.h **** 
 338:Drivers/lvgl/src/core/../misc/lv_style.h **** /**********************
 339:Drivers/lvgl/src/core/../misc/lv_style.h ****  * GLOBAL PROTOTYPES
 340:Drivers/lvgl/src/core/../misc/lv_style.h ****  **********************/
 341:Drivers/lvgl/src/core/../misc/lv_style.h **** 
 342:Drivers/lvgl/src/core/../misc/lv_style.h **** 
 343:Drivers/lvgl/src/core/../misc/lv_style.h **** /**
 344:Drivers/lvgl/src/core/../misc/lv_style.h ****  * Initialize a style
 345:Drivers/lvgl/src/core/../misc/lv_style.h ****  * @param style pointer to a style to initialize
 346:Drivers/lvgl/src/core/../misc/lv_style.h ****  * @note Do not call `lv_style_init` on styles that already have some properties
 347:Drivers/lvgl/src/core/../misc/lv_style.h ****  *       because this function won't free the used memory, just sets a default state for the style.
ARM GAS  /var/folders/0z/tsy30v1j4xl4_7kw94k978ww0000gn/T//ccVt8IXl.s 			page 74


 348:Drivers/lvgl/src/core/../misc/lv_style.h ****  *       In other words be sure to initialize styles only once!
 349:Drivers/lvgl/src/core/../misc/lv_style.h ****  */
 350:Drivers/lvgl/src/core/../misc/lv_style.h **** void lv_style_init(lv_style_t * style);
 351:Drivers/lvgl/src/core/../misc/lv_style.h **** 
 352:Drivers/lvgl/src/core/../misc/lv_style.h **** /**
 353:Drivers/lvgl/src/core/../misc/lv_style.h ****  * Clear all properties from a style and free all allocated memories.
 354:Drivers/lvgl/src/core/../misc/lv_style.h ****  * @param style pointer to a style
 355:Drivers/lvgl/src/core/../misc/lv_style.h ****  */
 356:Drivers/lvgl/src/core/../misc/lv_style.h **** void lv_style_reset(lv_style_t * style);
 357:Drivers/lvgl/src/core/../misc/lv_style.h **** 
 358:Drivers/lvgl/src/core/../misc/lv_style.h **** /**
 359:Drivers/lvgl/src/core/../misc/lv_style.h ****  * Register a new style property for custom usage
 360:Drivers/lvgl/src/core/../misc/lv_style.h ****  * @return a new property ID, or LV_STYLE_PROP_INV if there are no more available.
 361:Drivers/lvgl/src/core/../misc/lv_style.h ****  * @example
 362:Drivers/lvgl/src/core/../misc/lv_style.h ****  * lv_style_prop_t MY_PROP;
 363:Drivers/lvgl/src/core/../misc/lv_style.h ****  * static inline void lv_style_set_my_prop(lv_style_t * style, lv_color_t value) {
 364:Drivers/lvgl/src/core/../misc/lv_style.h ****  * lv_style_value_t v = {.color = value}; lv_style_set_prop(style, MY_PROP, v); }
 365:Drivers/lvgl/src/core/../misc/lv_style.h ****  *
 366:Drivers/lvgl/src/core/../misc/lv_style.h ****  * ...
 367:Drivers/lvgl/src/core/../misc/lv_style.h ****  * MY_PROP = lv_style_register_prop();
 368:Drivers/lvgl/src/core/../misc/lv_style.h ****  * ...
 369:Drivers/lvgl/src/core/../misc/lv_style.h ****  * lv_style_set_my_prop(&style1, lv_palette_main(LV_PALETTE_RED));
 370:Drivers/lvgl/src/core/../misc/lv_style.h ****  */
 371:Drivers/lvgl/src/core/../misc/lv_style.h **** lv_style_prop_t lv_style_register_prop(uint8_t flag);
 372:Drivers/lvgl/src/core/../misc/lv_style.h **** 
 373:Drivers/lvgl/src/core/../misc/lv_style.h **** /**
 374:Drivers/lvgl/src/core/../misc/lv_style.h ****  * Get the number of custom properties that have been registered thus far.
 375:Drivers/lvgl/src/core/../misc/lv_style.h ****  */
 376:Drivers/lvgl/src/core/../misc/lv_style.h **** lv_style_prop_t lv_style_get_num_custom_props(void);
 377:Drivers/lvgl/src/core/../misc/lv_style.h **** 
 378:Drivers/lvgl/src/core/../misc/lv_style.h **** /**
 379:Drivers/lvgl/src/core/../misc/lv_style.h ****  * Remove a property from a style
 380:Drivers/lvgl/src/core/../misc/lv_style.h ****  * @param style pointer to a style
 381:Drivers/lvgl/src/core/../misc/lv_style.h ****  * @param prop  a style property ORed with a state.
 382:Drivers/lvgl/src/core/../misc/lv_style.h ****  * @return true: the property was found and removed; false: the property wasn't found
 383:Drivers/lvgl/src/core/../misc/lv_style.h ****  */
 384:Drivers/lvgl/src/core/../misc/lv_style.h **** bool lv_style_remove_prop(lv_style_t * style, lv_style_prop_t prop);
 385:Drivers/lvgl/src/core/../misc/lv_style.h **** 
 386:Drivers/lvgl/src/core/../misc/lv_style.h **** /**
 387:Drivers/lvgl/src/core/../misc/lv_style.h ****  * Set the value of property in a style.
 388:Drivers/lvgl/src/core/../misc/lv_style.h ****  * This function shouldn't be used directly by the user.
 389:Drivers/lvgl/src/core/../misc/lv_style.h ****  * Instead use `lv_style_set_<prop_name>()`. E.g. `lv_style_set_bg_color()`
 390:Drivers/lvgl/src/core/../misc/lv_style.h ****  * @param style pointer to style
 391:Drivers/lvgl/src/core/../misc/lv_style.h ****  * @param prop the ID of a property (e.g. `LV_STYLE_BG_COLOR`)
 392:Drivers/lvgl/src/core/../misc/lv_style.h ****  * @param value `lv_style_value_t` variable in which a field is set according to the type of `prop`
 393:Drivers/lvgl/src/core/../misc/lv_style.h ****  */
 394:Drivers/lvgl/src/core/../misc/lv_style.h **** void lv_style_set_prop(lv_style_t * style, lv_style_prop_t prop, lv_style_value_t value);
 395:Drivers/lvgl/src/core/../misc/lv_style.h **** 
 396:Drivers/lvgl/src/core/../misc/lv_style.h **** /**
 397:Drivers/lvgl/src/core/../misc/lv_style.h ****  * Set a special meta state for a property in a style.
 398:Drivers/lvgl/src/core/../misc/lv_style.h ****  * This function shouldn't be used directly by the user.
 399:Drivers/lvgl/src/core/../misc/lv_style.h ****  * @param style pointer to style
 400:Drivers/lvgl/src/core/../misc/lv_style.h ****  * @param prop the ID of a property (e.g. `LV_STYLE_BG_COLOR`)
 401:Drivers/lvgl/src/core/../misc/lv_style.h ****  * @param meta the meta value to attach to the property in the style
 402:Drivers/lvgl/src/core/../misc/lv_style.h ****  */
 403:Drivers/lvgl/src/core/../misc/lv_style.h **** void lv_style_set_prop_meta(lv_style_t * style, lv_style_prop_t prop, uint16_t meta);
 404:Drivers/lvgl/src/core/../misc/lv_style.h **** 
ARM GAS  /var/folders/0z/tsy30v1j4xl4_7kw94k978ww0000gn/T//ccVt8IXl.s 			page 75


 405:Drivers/lvgl/src/core/../misc/lv_style.h **** /**
 406:Drivers/lvgl/src/core/../misc/lv_style.h ****  * Get the value of a property
 407:Drivers/lvgl/src/core/../misc/lv_style.h ****  * @param style pointer to a style
 408:Drivers/lvgl/src/core/../misc/lv_style.h ****  * @param prop  the ID of a property
 409:Drivers/lvgl/src/core/../misc/lv_style.h ****  * @param value pointer to a `lv_style_value_t` variable to store the value
 410:Drivers/lvgl/src/core/../misc/lv_style.h ****  * @return LV_RES_INV: the property wasn't found in the style (`value` is unchanged)
 411:Drivers/lvgl/src/core/../misc/lv_style.h ****  *         LV_RES_OK: the property was fond, and `value` is set accordingly
 412:Drivers/lvgl/src/core/../misc/lv_style.h ****  * @note For performance reasons there are no sanity check on `style`
 413:Drivers/lvgl/src/core/../misc/lv_style.h ****  */
 414:Drivers/lvgl/src/core/../misc/lv_style.h **** lv_style_res_t lv_style_get_prop(const lv_style_t * style, lv_style_prop_t prop, lv_style_value_t *
 415:Drivers/lvgl/src/core/../misc/lv_style.h **** 
 416:Drivers/lvgl/src/core/../misc/lv_style.h **** /**
 417:Drivers/lvgl/src/core/../misc/lv_style.h ****  * Initialize a transition descriptor.
 418:Drivers/lvgl/src/core/../misc/lv_style.h ****  * @param tr        pointer to a transition descriptor to initialize
 419:Drivers/lvgl/src/core/../misc/lv_style.h ****  * @param props     an array with the properties to transition. The last element must be zero.
 420:Drivers/lvgl/src/core/../misc/lv_style.h ****  * @param path_cb   an animation path (ease) callback. If `NULL` liner path will be used.
 421:Drivers/lvgl/src/core/../misc/lv_style.h ****  * @param time      duration of the transition in [ms]
 422:Drivers/lvgl/src/core/../misc/lv_style.h ****  * @param delay     delay before the transition in [ms]
 423:Drivers/lvgl/src/core/../misc/lv_style.h ****  * @param user_data any custom data that will be saved in the transition animation and will be avai
 424:Drivers/lvgl/src/core/../misc/lv_style.h ****  * @example
 425:Drivers/lvgl/src/core/../misc/lv_style.h ****  * const static lv_style_prop_t trans_props[] = { LV_STYLE_BG_OPA, LV_STYLE_BG_COLOR, 0 };
 426:Drivers/lvgl/src/core/../misc/lv_style.h ****  *  static lv_style_transition_dsc_t trans1;
 427:Drivers/lvgl/src/core/../misc/lv_style.h ****  *  lv_style_transition_dsc_init(&trans1, trans_props, NULL, 300, 0, NULL);
 428:Drivers/lvgl/src/core/../misc/lv_style.h ****  */
 429:Drivers/lvgl/src/core/../misc/lv_style.h **** void lv_style_transition_dsc_init(lv_style_transition_dsc_t * tr, const lv_style_prop_t props[],
 430:Drivers/lvgl/src/core/../misc/lv_style.h ****                                   lv_anim_path_cb_t path_cb, uint32_t time, uint32_t delay, void * 
 431:Drivers/lvgl/src/core/../misc/lv_style.h **** 
 432:Drivers/lvgl/src/core/../misc/lv_style.h **** /**
 433:Drivers/lvgl/src/core/../misc/lv_style.h ****  * Get the default value of a property
 434:Drivers/lvgl/src/core/../misc/lv_style.h ****  * @param prop the ID of a property
 435:Drivers/lvgl/src/core/../misc/lv_style.h ****  * @return the default value
 436:Drivers/lvgl/src/core/../misc/lv_style.h ****  */
 437:Drivers/lvgl/src/core/../misc/lv_style.h **** lv_style_value_t lv_style_prop_get_default(lv_style_prop_t prop);
 438:Drivers/lvgl/src/core/../misc/lv_style.h **** 
 439:Drivers/lvgl/src/core/../misc/lv_style.h **** /**
 440:Drivers/lvgl/src/core/../misc/lv_style.h ****  * Get the value of a property
 441:Drivers/lvgl/src/core/../misc/lv_style.h ****  * @param style pointer to a style
 442:Drivers/lvgl/src/core/../misc/lv_style.h ****  * @param prop  the ID of a property
 443:Drivers/lvgl/src/core/../misc/lv_style.h ****  * @param value pointer to a `lv_style_value_t` variable to store the value
 444:Drivers/lvgl/src/core/../misc/lv_style.h ****  * @return LV_RES_INV: the property wasn't found in the style (`value` is unchanged)
 445:Drivers/lvgl/src/core/../misc/lv_style.h ****  *         LV_RES_OK: the property was fond, and `value` is set accordingly
 446:Drivers/lvgl/src/core/../misc/lv_style.h ****  * @note For performance reasons there are no sanity check on `style`
 447:Drivers/lvgl/src/core/../misc/lv_style.h ****  * @note This function is the same as ::lv_style_get_prop but inlined. Use it only on performance c
 448:Drivers/lvgl/src/core/../misc/lv_style.h ****  */
 449:Drivers/lvgl/src/core/../misc/lv_style.h **** static inline lv_style_res_t lv_style_get_prop_inlined(const lv_style_t * style, lv_style_prop_t pr
 450:Drivers/lvgl/src/core/../misc/lv_style.h ****                                                        lv_style_value_t * value)
 451:Drivers/lvgl/src/core/../misc/lv_style.h **** {
 452:Drivers/lvgl/src/core/../misc/lv_style.h ****     if(style->prop1 == LV_STYLE_PROP_ANY) {
 453:Drivers/lvgl/src/core/../misc/lv_style.h ****         const lv_style_const_prop_t * const_prop;
 454:Drivers/lvgl/src/core/../misc/lv_style.h ****         uint32_t i;
 455:Drivers/lvgl/src/core/../misc/lv_style.h ****         for(i = 0; i < style->prop_cnt; i++) {
 456:Drivers/lvgl/src/core/../misc/lv_style.h ****             const_prop = style->v_p.const_props + i;
 457:Drivers/lvgl/src/core/../misc/lv_style.h ****             lv_style_prop_t prop_id = LV_STYLE_PROP_ID_MASK(const_prop->prop);
 458:Drivers/lvgl/src/core/../misc/lv_style.h ****             if(prop_id == prop) {
 459:Drivers/lvgl/src/core/../misc/lv_style.h ****                 if(const_prop->prop & LV_STYLE_PROP_META_INHERIT)
 1717              		.loc 4 459 17 is_stmt 1 view .LVU594
 1718              		.loc 4 459 19 is_stmt 0 view .LVU595
ARM GAS  /var/folders/0z/tsy30v1j4xl4_7kw94k978ww0000gn/T//ccVt8IXl.s 			page 76


 1719 0044 14F4004F 		tst	r4, #32768
 1720 0048 3AD1     		bne	.L102
 460:Drivers/lvgl/src/core/../misc/lv_style.h ****                     return LV_STYLE_RES_INHERIT;
 461:Drivers/lvgl/src/core/../misc/lv_style.h ****                 *value = (const_prop->prop & LV_STYLE_PROP_META_INITIAL) ? lv_style_prop_get_defaul
 1721              		.loc 4 461 17 is_stmt 1 view .LVU596
 1722              		.loc 4 461 24 is_stmt 0 view .LVU597
 1723 004a 14F4804F 		tst	r4, #16384
 1724 004e 03D1     		bne	.L112
 1725 0050 6B68     		ldr	r3, [r5, #4]
 1726              	.LVL163:
 1727              		.loc 4 461 24 view .LVU598
 1728 0052 0A93     		str	r3, [sp, #40]
 1729              	.LVL164:
 1730              	.L77:
 462:Drivers/lvgl/src/core/../misc/lv_style.h ****                 return LV_STYLE_RES_FOUND;
 1731              		.loc 4 462 17 is_stmt 1 view .LVU599
 1732              		.loc 4 462 24 is_stmt 0 view .LVU600
 1733 0054 0123     		movs	r3, #1
 1734              	.LVL165:
 1735              		.loc 4 462 24 view .LVU601
 1736 0056 36E0     		b	.L75
 1737              	.LVL166:
 1738              	.L112:
 461:Drivers/lvgl/src/core/../misc/lv_style.h ****                 return LV_STYLE_RES_FOUND;
 1739              		.loc 4 461 76 view .LVU602
 1740 0058 FFF7FEFF 		bl	lv_style_prop_get_default
 1741              	.LVL167:
 461:Drivers/lvgl/src/core/../misc/lv_style.h ****                 return LV_STYLE_RES_FOUND;
 1742              		.loc 4 461 76 view .LVU603
 1743 005c 0A90     		str	r0, [sp, #40]
 1744 005e F9E7     		b	.L77
 1745              	.LVL168:
 1746              	.L118:
 461:Drivers/lvgl/src/core/../misc/lv_style.h ****                 return LV_STYLE_RES_FOUND;
 1747              		.loc 4 461 76 view .LVU604
 1748              	.LBE179:
 455:Drivers/lvgl/src/core/../misc/lv_style.h ****             const_prop = style->v_p.const_props + i;
 1749              		.loc 4 455 15 view .LVU605
 1750 0060 0022     		movs	r2, #0
 1751              	.L72:
 1752              	.LVL169:
 455:Drivers/lvgl/src/core/../misc/lv_style.h ****             const_prop = style->v_p.const_props + i;
 1753              		.loc 4 455 22 is_stmt 1 view .LVU606
 455:Drivers/lvgl/src/core/../misc/lv_style.h ****             const_prop = style->v_p.const_props + i;
 1754              		.loc 4 455 29 is_stmt 0 view .LVU607
 1755 0062 C879     		ldrb	r0, [r1, #7]	@ zero_extendqisi2
 455:Drivers/lvgl/src/core/../misc/lv_style.h ****             const_prop = style->v_p.const_props + i;
 1756              		.loc 4 455 22 view .LVU608
 1757 0064 8242     		cmp	r2, r0
 1758 0066 2ED2     		bcs	.L75
 1759              	.LBB180:
 456:Drivers/lvgl/src/core/../misc/lv_style.h ****             lv_style_prop_t prop_id = LV_STYLE_PROP_ID_MASK(const_prop->prop);
 1760              		.loc 4 456 13 is_stmt 1 view .LVU609
 456:Drivers/lvgl/src/core/../misc/lv_style.h ****             lv_style_prop_t prop_id = LV_STYLE_PROP_ID_MASK(const_prop->prop);
 1761              		.loc 4 456 36 is_stmt 0 view .LVU610
 1762 0068 0868     		ldr	r0, [r1]
 456:Drivers/lvgl/src/core/../misc/lv_style.h ****             lv_style_prop_t prop_id = LV_STYLE_PROP_ID_MASK(const_prop->prop);
ARM GAS  /var/folders/0z/tsy30v1j4xl4_7kw94k978ww0000gn/T//ccVt8IXl.s 			page 77


 1763              		.loc 4 456 24 view .LVU611
 1764 006a 00EBC205 		add	r5, r0, r2, lsl #3
 1765              	.LVL170:
 457:Drivers/lvgl/src/core/../misc/lv_style.h ****             if(prop_id == prop) {
 1766              		.loc 4 457 13 is_stmt 1 view .LVU612
 457:Drivers/lvgl/src/core/../misc/lv_style.h ****             if(prop_id == prop) {
 1767              		.loc 4 457 39 is_stmt 0 view .LVU613
 1768 006e 30F83240 		ldrh	r4, [r0, r2, lsl #3]
 457:Drivers/lvgl/src/core/../misc/lv_style.h ****             if(prop_id == prop) {
 1769              		.loc 4 457 29 view .LVU614
 1770 0072 C4F30D00 		ubfx	r0, r4, #0, #14
 1771              	.LVL171:
 458:Drivers/lvgl/src/core/../misc/lv_style.h ****                 if(const_prop->prop & LV_STYLE_PROP_META_INHERIT)
 1772              		.loc 4 458 13 is_stmt 1 view .LVU615
 458:Drivers/lvgl/src/core/../misc/lv_style.h ****                 if(const_prop->prop & LV_STYLE_PROP_META_INHERIT)
 1773              		.loc 4 458 15 is_stmt 0 view .LVU616
 1774 0076 6728     		cmp	r0, #103
 1775 0078 E4D0     		beq	.L113
 1776              	.LBE180:
 455:Drivers/lvgl/src/core/../misc/lv_style.h ****             const_prop = style->v_p.const_props + i;
 1777              		.loc 4 455 42 is_stmt 1 view .LVU617
 1778 007a 0132     		adds	r2, r2, #1
 1779              	.LVL172:
 455:Drivers/lvgl/src/core/../misc/lv_style.h ****             const_prop = style->v_p.const_props + i;
 1780              		.loc 4 455 42 is_stmt 0 view .LVU618
 1781 007c F1E7     		b	.L72
 1782              	.LVL173:
 1783              	.L119:
 455:Drivers/lvgl/src/core/../misc/lv_style.h ****             const_prop = style->v_p.const_props + i;
 1784              		.loc 4 455 42 view .LVU619
 1785              	.LBE178:
 1786              	.LBB182:
 1787              	.LBB183:
 463:Drivers/lvgl/src/core/../misc/lv_style.h ****             }
 464:Drivers/lvgl/src/core/../misc/lv_style.h ****         }
 465:Drivers/lvgl/src/core/../misc/lv_style.h ****         return LV_STYLE_RES_NOT_FOUND;
 466:Drivers/lvgl/src/core/../misc/lv_style.h ****     }
 467:Drivers/lvgl/src/core/../misc/lv_style.h **** 
 468:Drivers/lvgl/src/core/../misc/lv_style.h ****     if(style->prop_cnt == 0) return LV_STYLE_RES_NOT_FOUND;
 469:Drivers/lvgl/src/core/../misc/lv_style.h **** 
 470:Drivers/lvgl/src/core/../misc/lv_style.h ****     if(style->prop_cnt > 1) {
 471:Drivers/lvgl/src/core/../misc/lv_style.h ****         uint8_t * tmp = style->v_p.values_and_props + style->prop_cnt * sizeof(lv_style_value_t);
 472:Drivers/lvgl/src/core/../misc/lv_style.h ****         uint16_t * props = (uint16_t *)tmp;
 473:Drivers/lvgl/src/core/../misc/lv_style.h ****         uint32_t i;
 474:Drivers/lvgl/src/core/../misc/lv_style.h ****         for(i = 0; i < style->prop_cnt; i++) {
 475:Drivers/lvgl/src/core/../misc/lv_style.h ****             lv_style_prop_t prop_id = LV_STYLE_PROP_ID_MASK(props[i]);
 476:Drivers/lvgl/src/core/../misc/lv_style.h ****             if(prop_id == prop) {
 477:Drivers/lvgl/src/core/../misc/lv_style.h ****                 if(props[i] & LV_STYLE_PROP_META_INHERIT)
 1788              		.loc 4 477 17 is_stmt 1 view .LVU620
 1789              		.loc 4 477 19 is_stmt 0 view .LVU621
 1790 007e 11F4004F 		tst	r1, #32768
 1791 0082 65D1     		bne	.L104
 478:Drivers/lvgl/src/core/../misc/lv_style.h ****                     return LV_STYLE_RES_INHERIT;
 479:Drivers/lvgl/src/core/../misc/lv_style.h ****                 if(props[i] & LV_STYLE_PROP_META_INITIAL)
 1792              		.loc 4 479 17 is_stmt 1 view .LVU622
 1793              		.loc 4 479 19 is_stmt 0 view .LVU623
 1794 0084 11F4804F 		tst	r1, #16384
ARM GAS  /var/folders/0z/tsy30v1j4xl4_7kw94k978ww0000gn/T//ccVt8IXl.s 			page 78


 1795 0088 04D1     		bne	.L114
 1796              	.LBB184:
 480:Drivers/lvgl/src/core/../misc/lv_style.h ****                     *value = lv_style_prop_get_default(prop_id);
 481:Drivers/lvgl/src/core/../misc/lv_style.h ****                 else {
 482:Drivers/lvgl/src/core/../misc/lv_style.h ****                     lv_style_value_t * values = (lv_style_value_t *)style->v_p.values_and_props;
 1797              		.loc 4 482 21 is_stmt 1 view .LVU624
 1798              	.LVL174:
 483:Drivers/lvgl/src/core/../misc/lv_style.h ****                     *value = values[i];
 1799              		.loc 4 483 21 view .LVU625
 1800              		.loc 4 483 28 is_stmt 0 view .LVU626
 1801 008a 57F82230 		ldr	r3, [r7, r2, lsl #2]
 1802              	.LVL175:
 1803              		.loc 4 483 28 view .LVU627
 1804 008e 0A93     		str	r3, [sp, #40]
 1805              	.LVL176:
 1806              	.L83:
 1807              		.loc 4 483 28 view .LVU628
 1808              	.LBE184:
 484:Drivers/lvgl/src/core/../misc/lv_style.h ****                 }
 485:Drivers/lvgl/src/core/../misc/lv_style.h ****                 return LV_STYLE_RES_FOUND;
 1809              		.loc 4 485 17 is_stmt 1 view .LVU629
 1810              		.loc 4 485 24 is_stmt 0 view .LVU630
 1811 0090 0123     		movs	r3, #1
 1812              	.LVL177:
 1813              		.loc 4 485 24 view .LVU631
 1814 0092 18E0     		b	.L75
 1815              	.LVL178:
 1816              	.L114:
 480:Drivers/lvgl/src/core/../misc/lv_style.h ****                 else {
 1817              		.loc 4 480 21 is_stmt 1 view .LVU632
 480:Drivers/lvgl/src/core/../misc/lv_style.h ****                 else {
 1818              		.loc 4 480 30 is_stmt 0 view .LVU633
 1819 0094 FFF7FEFF 		bl	lv_style_prop_get_default
 1820              	.LVL179:
 480:Drivers/lvgl/src/core/../misc/lv_style.h ****                 else {
 1821              		.loc 4 480 30 view .LVU634
 1822 0098 0A90     		str	r0, [sp, #40]
 1823 009a F9E7     		b	.L83
 1824              	.LVL180:
 1825              	.L79:
 480:Drivers/lvgl/src/core/../misc/lv_style.h ****                 else {
 1826              		.loc 4 480 30 view .LVU635
 1827              	.LBE183:
 1828              	.LBE182:
 486:Drivers/lvgl/src/core/../misc/lv_style.h ****             }
 487:Drivers/lvgl/src/core/../misc/lv_style.h ****         }
 488:Drivers/lvgl/src/core/../misc/lv_style.h ****     }
 489:Drivers/lvgl/src/core/../misc/lv_style.h ****     else if(LV_STYLE_PROP_ID_MASK(style->prop1) == prop) {
 1829              		.loc 4 489 10 is_stmt 1 view .LVU636
 1830 009c C2F30D00 		ubfx	r0, r2, #0, #14
 1831              		.loc 4 489 12 is_stmt 0 view .LVU637
 1832 00a0 6728     		cmp	r0, #103
 1833 00a2 10D1     		bne	.L75
 490:Drivers/lvgl/src/core/../misc/lv_style.h ****         if(style->prop1 & LV_STYLE_PROP_META_INHERIT)
 1834              		.loc 4 490 9 is_stmt 1 view .LVU638
 1835              		.loc 4 490 11 is_stmt 0 view .LVU639
 1836 00a4 12F4004F 		tst	r2, #32768
ARM GAS  /var/folders/0z/tsy30v1j4xl4_7kw94k978ww0000gn/T//ccVt8IXl.s 			page 79


 1837 00a8 54D1     		bne	.L105
 491:Drivers/lvgl/src/core/../misc/lv_style.h ****             return LV_STYLE_RES_INHERIT;
 492:Drivers/lvgl/src/core/../misc/lv_style.h ****         *value = (style->prop1 & LV_STYLE_PROP_META_INITIAL) ? lv_style_prop_get_default(LV_STYLE_P
 1838              		.loc 4 492 9 is_stmt 1 view .LVU640
 1839              		.loc 4 492 16 is_stmt 0 view .LVU641
 1840 00aa 12F4804F 		tst	r2, #16384
 1841 00ae 03D1     		bne	.L115
 1842 00b0 0B68     		ldr	r3, [r1]
 1843              	.LVL181:
 1844              		.loc 4 492 16 view .LVU642
 1845 00b2 0A93     		str	r3, [sp, #40]
 1846              	.LVL182:
 1847              	.L86:
 493:Drivers/lvgl/src/core/../misc/lv_style.h ****                                                                                              style-
 494:Drivers/lvgl/src/core/../misc/lv_style.h ****         return LV_STYLE_RES_FOUND;
 1848              		.loc 4 494 9 is_stmt 1 view .LVU643
 1849              		.loc 4 494 16 is_stmt 0 view .LVU644
 1850 00b4 0123     		movs	r3, #1
 1851              	.LVL183:
 1852              		.loc 4 494 16 view .LVU645
 1853 00b6 06E0     		b	.L75
 1854              	.LVL184:
 1855              	.L115:
 492:Drivers/lvgl/src/core/../misc/lv_style.h ****                                                                                              style-
 1856              		.loc 4 492 64 view .LVU646
 1857 00b8 FFF7FEFF 		bl	lv_style_prop_get_default
 1858              	.LVL185:
 492:Drivers/lvgl/src/core/../misc/lv_style.h ****                                                                                              style-
 1859              		.loc 4 492 64 view .LVU647
 1860 00bc 0A90     		str	r0, [sp, #40]
 1861 00be F9E7     		b	.L86
 1862              	.LVL186:
 1863              	.L102:
 1864              	.LBB187:
 1865              	.LBB181:
 460:Drivers/lvgl/src/core/../misc/lv_style.h ****                 *value = (const_prop->prop & LV_STYLE_PROP_META_INITIAL) ? lv_style_prop_get_defaul
 1866              		.loc 4 460 28 view .LVU648
 1867 00c0 0223     		movs	r3, #2
 1868 00c2 00E0     		b	.L75
 1869              	.LVL187:
 1870              	.L103:
 460:Drivers/lvgl/src/core/../misc/lv_style.h ****                 *value = (const_prop->prop & LV_STYLE_PROP_META_INITIAL) ? lv_style_prop_get_defaul
 1871              		.loc 4 460 28 view .LVU649
 1872              	.LBE181:
 1873              	.LBE187:
 468:Drivers/lvgl/src/core/../misc/lv_style.h **** 
 1874              		.loc 4 468 37 view .LVU650
 1875 00c4 2346     		mov	r3, r4
 1876              	.LVL188:
 1877              	.L75:
 468:Drivers/lvgl/src/core/../misc/lv_style.h **** 
 1878              		.loc 4 468 37 view .LVU651
 1879              	.LBE177:
 1880              	.LBE176:
 909:Drivers/lvgl/src/core/lv_obj.c ****         const lv_style_transition_dsc_t * tr = v.ptr;
 1881              		.loc 1 909 11 view .LVU652
 1882 00c6 012B     		cmp	r3, #1
ARM GAS  /var/folders/0z/tsy30v1j4xl4_7kw94k978ww0000gn/T//ccVt8IXl.s 			page 80


 1883 00c8 46D0     		beq	.L116
 1884              	.LVL189:
 1885              	.L94:
 909:Drivers/lvgl/src/core/lv_obj.c ****         const lv_style_transition_dsc_t * tr = v.ptr;
 1886              		.loc 1 909 11 view .LVU653
 1887              	.LBE175:
 901:Drivers/lvgl/src/core/lv_obj.c ****         _lv_obj_style_t * obj_style = &obj->styles[i];
 1888              		.loc 1 901 67 is_stmt 1 discriminator 2 view .LVU654
 1889 00ca 0136     		adds	r6, r6, #1
 1890              	.LVL190:
 1891              	.L70:
 901:Drivers/lvgl/src/core/lv_obj.c ****         _lv_obj_style_t * obj_style = &obj->styles[i];
 1892              		.loc 1 901 35 discriminator 1 view .LVU655
 901:Drivers/lvgl/src/core/lv_obj.c ****         _lv_obj_style_t * obj_style = &obj->styles[i];
 1893              		.loc 1 901 23 is_stmt 0 discriminator 1 view .LVU656
 1894 00cc 039B     		ldr	r3, [sp, #12]
 1895 00ce 5B8C     		ldrh	r3, [r3, #34]
 1896 00d0 C3F30513 		ubfx	r3, r3, #4, #6
 901:Drivers/lvgl/src/core/lv_obj.c ****         _lv_obj_style_t * obj_style = &obj->styles[i];
 1897              		.loc 1 901 35 discriminator 1 view .LVU657
 1898 00d4 B342     		cmp	r3, r6
 1899 00d6 40F2C180 		bls	.L107
 901:Drivers/lvgl/src/core/lv_obj.c ****         _lv_obj_style_t * obj_style = &obj->styles[i];
 1900              		.loc 1 901 35 discriminator 3 view .LVU658
 1901 00da B9F11F0F 		cmp	r9, #31
 1902 00de 00F29280 		bhi	.L117
 1903              	.LBB194:
 902:Drivers/lvgl/src/core/lv_obj.c ****         lv_state_t state_act = lv_obj_style_get_selector_state(obj->styles[i].selector);
 1904              		.loc 1 902 9 is_stmt 1 view .LVU659
 902:Drivers/lvgl/src/core/lv_obj.c ****         lv_state_t state_act = lv_obj_style_get_selector_state(obj->styles[i].selector);
 1905              		.loc 1 902 43 is_stmt 0 view .LVU660
 1906 00e2 039B     		ldr	r3, [sp, #12]
 1907 00e4 DD68     		ldr	r5, [r3, #12]
 902:Drivers/lvgl/src/core/lv_obj.c ****         lv_state_t state_act = lv_obj_style_get_selector_state(obj->styles[i].selector);
 1908              		.loc 1 902 51 view .LVU661
 1909 00e6 F400     		lsls	r4, r6, #3
 902:Drivers/lvgl/src/core/lv_obj.c ****         lv_state_t state_act = lv_obj_style_get_selector_state(obj->styles[i].selector);
 1910              		.loc 1 902 27 view .LVU662
 1911 00e8 05EBC607 		add	r7, r5, r6, lsl #3
 1912 00ec 0797     		str	r7, [sp, #28]
 1913              	.LVL191:
 903:Drivers/lvgl/src/core/lv_obj.c ****         lv_part_t part_act = lv_obj_style_get_selector_part(obj->styles[i].selector);
 1914              		.loc 1 903 9 is_stmt 1 view .LVU663
 903:Drivers/lvgl/src/core/lv_obj.c ****         lv_part_t part_act = lv_obj_style_get_selector_part(obj->styles[i].selector);
 1915              		.loc 1 903 78 is_stmt 0 view .LVU664
 1916 00ee 7868     		ldr	r0, [r7, #4]
 903:Drivers/lvgl/src/core/lv_obj.c ****         lv_part_t part_act = lv_obj_style_get_selector_part(obj->styles[i].selector);
 1917              		.loc 1 903 32 view .LVU665
 1918 00f0 20F07F40 		bic	r0, r0, #-16777216
 1919 00f4 FFF7FEFF 		bl	lv_obj_style_get_selector_state
 1920              	.LVL192:
 1921 00f8 8046     		mov	r8, r0
 1922 00fa 0590     		str	r0, [sp, #20]
 1923              	.LVL193:
 904:Drivers/lvgl/src/core/lv_obj.c ****         if(state_act & (~new_state)) continue; /*Skip unrelated styles*/
 1924              		.loc 1 904 9 is_stmt 1 view .LVU666
 904:Drivers/lvgl/src/core/lv_obj.c ****         if(state_act & (~new_state)) continue; /*Skip unrelated styles*/
ARM GAS  /var/folders/0z/tsy30v1j4xl4_7kw94k978ww0000gn/T//ccVt8IXl.s 			page 81


 1925              		.loc 1 904 64 is_stmt 0 view .LVU667
 1926 00fc 039B     		ldr	r3, [sp, #12]
 1927 00fe DB68     		ldr	r3, [r3, #12]
 904:Drivers/lvgl/src/core/lv_obj.c ****         if(state_act & (~new_state)) continue; /*Skip unrelated styles*/
 1928              		.loc 1 904 72 view .LVU668
 1929 0100 2344     		add	r3, r3, r4
 904:Drivers/lvgl/src/core/lv_obj.c ****         if(state_act & (~new_state)) continue; /*Skip unrelated styles*/
 1930              		.loc 1 904 75 view .LVU669
 1931 0102 5868     		ldr	r0, [r3, #4]
 904:Drivers/lvgl/src/core/lv_obj.c ****         if(state_act & (~new_state)) continue; /*Skip unrelated styles*/
 1932              		.loc 1 904 30 view .LVU670
 1933 0104 20F07F40 		bic	r0, r0, #-16777216
 1934 0108 FFF7FEFF 		bl	lv_obj_style_get_selector_part
 1935              	.LVL194:
 1936 010c 8246     		mov	r10, r0
 1937              	.LVL195:
 905:Drivers/lvgl/src/core/lv_obj.c ****         if(obj_style->is_trans) continue;
 1938              		.loc 1 905 9 is_stmt 1 view .LVU671
 905:Drivers/lvgl/src/core/lv_obj.c ****         if(obj_style->is_trans) continue;
 1939              		.loc 1 905 11 is_stmt 0 view .LVU672
 1940 010e 4346     		mov	r3, r8
 1941 0110 069A     		ldr	r2, [sp, #24]
 1942 0112 9343     		bics	r3, r3, r2
 1943 0114 D9D1     		bne	.L94
 906:Drivers/lvgl/src/core/lv_obj.c **** 
 1944              		.loc 1 906 9 is_stmt 1 view .LVU673
 906:Drivers/lvgl/src/core/lv_obj.c **** 
 1945              		.loc 1 906 12 is_stmt 0 view .LVU674
 1946 0116 FB79     		ldrb	r3, [r7, #7]	@ zero_extendqisi2
 906:Drivers/lvgl/src/core/lv_obj.c **** 
 1947              		.loc 1 906 11 view .LVU675
 1948 0118 13F00203 		ands	r3, r3, #2
 1949 011c D5D1     		bne	.L94
 908:Drivers/lvgl/src/core/lv_obj.c ****         if(lv_style_get_prop_inlined(obj_style->style, LV_STYLE_TRANSITION, &v) != LV_STYLE_RES_FOU
 1950              		.loc 1 908 9 is_stmt 1 view .LVU676
 909:Drivers/lvgl/src/core/lv_obj.c ****         const lv_style_transition_dsc_t * tr = v.ptr;
 1951              		.loc 1 909 9 view .LVU677
 909:Drivers/lvgl/src/core/lv_obj.c ****         const lv_style_transition_dsc_t * tr = v.ptr;
 1952              		.loc 1 909 47 is_stmt 0 view .LVU678
 1953 011e 2959     		ldr	r1, [r5, r4]
 1954              	.LVL196:
 1955              	.LBB190:
 1956              	.LBI176:
 449:Drivers/lvgl/src/core/../misc/lv_style.h ****                                                        lv_style_value_t * value)
 1957              		.loc 4 449 30 is_stmt 1 view .LVU679
 1958              	.LBB189:
 452:Drivers/lvgl/src/core/../misc/lv_style.h ****         const lv_style_const_prop_t * const_prop;
 1959              		.loc 4 452 5 view .LVU680
 452:Drivers/lvgl/src/core/../misc/lv_style.h ****         const lv_style_const_prop_t * const_prop;
 1960              		.loc 4 452 13 is_stmt 0 view .LVU681
 1961 0120 8A88     		ldrh	r2, [r1, #4]
 452:Drivers/lvgl/src/core/../misc/lv_style.h ****         const lv_style_const_prop_t * const_prop;
 1962              		.loc 4 452 7 view .LVU682
 1963 0122 4FF6FF70 		movw	r0, #65535
 1964              	.LVL197:
 452:Drivers/lvgl/src/core/../misc/lv_style.h ****         const lv_style_const_prop_t * const_prop;
 1965              		.loc 4 452 7 view .LVU683
ARM GAS  /var/folders/0z/tsy30v1j4xl4_7kw94k978ww0000gn/T//ccVt8IXl.s 			page 82


 1966 0126 8242     		cmp	r2, r0
 1967 0128 9AD0     		beq	.L118
 468:Drivers/lvgl/src/core/../misc/lv_style.h **** 
 1968              		.loc 4 468 5 is_stmt 1 view .LVU684
 468:Drivers/lvgl/src/core/../misc/lv_style.h **** 
 1969              		.loc 4 468 13 is_stmt 0 view .LVU685
 1970 012a CC79     		ldrb	r4, [r1, #7]	@ zero_extendqisi2
 468:Drivers/lvgl/src/core/../misc/lv_style.h **** 
 1971              		.loc 4 468 7 view .LVU686
 1972 012c 002C     		cmp	r4, #0
 1973 012e C9D0     		beq	.L103
 470:Drivers/lvgl/src/core/../misc/lv_style.h ****         uint8_t * tmp = style->v_p.values_and_props + style->prop_cnt * sizeof(lv_style_value_t);
 1974              		.loc 4 470 5 is_stmt 1 view .LVU687
 470:Drivers/lvgl/src/core/../misc/lv_style.h ****         uint8_t * tmp = style->v_p.values_and_props + style->prop_cnt * sizeof(lv_style_value_t);
 1975              		.loc 4 470 7 is_stmt 0 view .LVU688
 1976 0130 012C     		cmp	r4, #1
 1977 0132 B3D9     		bls	.L79
 1978              	.LBB188:
 471:Drivers/lvgl/src/core/../misc/lv_style.h ****         uint16_t * props = (uint16_t *)tmp;
 1979              		.loc 4 471 9 is_stmt 1 view .LVU689
 471:Drivers/lvgl/src/core/../misc/lv_style.h ****         uint16_t * props = (uint16_t *)tmp;
 1980              		.loc 4 471 35 is_stmt 0 view .LVU690
 1981 0134 0F68     		ldr	r7, [r1]
 1982              	.LVL198:
 471:Drivers/lvgl/src/core/../misc/lv_style.h ****         uint16_t * props = (uint16_t *)tmp;
 1983              		.loc 4 471 19 view .LVU691
 1984 0136 07EB8405 		add	r5, r7, r4, lsl #2
 1985              	.LVL199:
 472:Drivers/lvgl/src/core/../misc/lv_style.h ****         uint32_t i;
 1986              		.loc 4 472 9 is_stmt 1 view .LVU692
 473:Drivers/lvgl/src/core/../misc/lv_style.h ****         for(i = 0; i < style->prop_cnt; i++) {
 1987              		.loc 4 473 9 view .LVU693
 474:Drivers/lvgl/src/core/../misc/lv_style.h ****             lv_style_prop_t prop_id = LV_STYLE_PROP_ID_MASK(props[i]);
 1988              		.loc 4 474 9 view .LVU694
 474:Drivers/lvgl/src/core/../misc/lv_style.h ****             lv_style_prop_t prop_id = LV_STYLE_PROP_ID_MASK(props[i]);
 1989              		.loc 4 474 15 is_stmt 0 view .LVU695
 1990 013a 0022     		movs	r2, #0
 1991              	.LVL200:
 1992              	.L80:
 474:Drivers/lvgl/src/core/../misc/lv_style.h ****             lv_style_prop_t prop_id = LV_STYLE_PROP_ID_MASK(props[i]);
 1993              		.loc 4 474 22 is_stmt 1 view .LVU696
 1994 013c 9442     		cmp	r4, r2
 1995 013e C2D9     		bls	.L75
 1996              	.LBB185:
 475:Drivers/lvgl/src/core/../misc/lv_style.h ****             if(prop_id == prop) {
 1997              		.loc 4 475 13 view .LVU697
 475:Drivers/lvgl/src/core/../misc/lv_style.h ****             if(prop_id == prop) {
 1998              		.loc 4 475 39 is_stmt 0 view .LVU698
 1999 0140 35F81210 		ldrh	r1, [r5, r2, lsl #1]
 475:Drivers/lvgl/src/core/../misc/lv_style.h ****             if(prop_id == prop) {
 2000              		.loc 4 475 29 view .LVU699
 2001 0144 C1F30D00 		ubfx	r0, r1, #0, #14
 2002              	.LVL201:
 476:Drivers/lvgl/src/core/../misc/lv_style.h ****                 if(props[i] & LV_STYLE_PROP_META_INHERIT)
 2003              		.loc 4 476 13 is_stmt 1 view .LVU700
 476:Drivers/lvgl/src/core/../misc/lv_style.h ****                 if(props[i] & LV_STYLE_PROP_META_INHERIT)
 2004              		.loc 4 476 15 is_stmt 0 view .LVU701
ARM GAS  /var/folders/0z/tsy30v1j4xl4_7kw94k978ww0000gn/T//ccVt8IXl.s 			page 83


 2005 0148 6728     		cmp	r0, #103
 2006 014a 98D0     		beq	.L119
 2007              	.LBE185:
 474:Drivers/lvgl/src/core/../misc/lv_style.h ****             lv_style_prop_t prop_id = LV_STYLE_PROP_ID_MASK(props[i]);
 2008              		.loc 4 474 42 is_stmt 1 view .LVU702
 2009 014c 0132     		adds	r2, r2, #1
 2010              	.LVL202:
 474:Drivers/lvgl/src/core/../misc/lv_style.h ****             lv_style_prop_t prop_id = LV_STYLE_PROP_ID_MASK(props[i]);
 2011              		.loc 4 474 42 is_stmt 0 view .LVU703
 2012 014e F5E7     		b	.L80
 2013              	.L104:
 2014              	.LBB186:
 478:Drivers/lvgl/src/core/../misc/lv_style.h ****                 if(props[i] & LV_STYLE_PROP_META_INITIAL)
 2015              		.loc 4 478 28 view .LVU704
 2016 0150 0223     		movs	r3, #2
 2017 0152 B8E7     		b	.L75
 2018              	.LVL203:
 2019              	.L105:
 478:Drivers/lvgl/src/core/../misc/lv_style.h ****                 if(props[i] & LV_STYLE_PROP_META_INITIAL)
 2020              		.loc 4 478 28 view .LVU705
 2021              	.LBE186:
 2022              	.LBE188:
 491:Drivers/lvgl/src/core/../misc/lv_style.h ****         *value = (style->prop1 & LV_STYLE_PROP_META_INITIAL) ? lv_style_prop_get_default(LV_STYLE_P
 2023              		.loc 4 491 20 view .LVU706
 2024 0154 0223     		movs	r3, #2
 2025 0156 B6E7     		b	.L75
 2026              	.LVL204:
 2027              	.L116:
 491:Drivers/lvgl/src/core/../misc/lv_style.h ****         *value = (style->prop1 & LV_STYLE_PROP_META_INITIAL) ? lv_style_prop_get_default(LV_STYLE_P
 2028              		.loc 4 491 20 view .LVU707
 2029              	.LBE189:
 2030              	.LBE190:
 910:Drivers/lvgl/src/core/lv_obj.c **** 
 2031              		.loc 1 910 9 is_stmt 1 view .LVU708
 910:Drivers/lvgl/src/core/lv_obj.c **** 
 2032              		.loc 1 910 43 is_stmt 0 view .LVU709
 2033 0158 DDF82880 		ldr	r8, [sp, #40]
 2034              	.LVL205:
 913:Drivers/lvgl/src/core/lv_obj.c ****         for(j = 0; tr->props[j] != 0 && tsi < STYLE_TRANSITION_MAX; j++) {
 2035              		.loc 1 913 9 is_stmt 1 view .LVU710
 914:Drivers/lvgl/src/core/lv_obj.c ****             uint32_t t;
 2036              		.loc 1 914 9 view .LVU711
 914:Drivers/lvgl/src/core/lv_obj.c ****             uint32_t t;
 2037              		.loc 1 914 15 is_stmt 0 view .LVU712
 2038 015c 0023     		movs	r3, #0
 2039 015e 0493     		str	r3, [sp, #16]
 2040 0160 0B96     		str	r6, [sp, #44]
 2041 0162 5646     		mov	r6, r10
 2042              	.LVL206:
 914:Drivers/lvgl/src/core/lv_obj.c ****             uint32_t t;
 2043              		.loc 1 914 9 view .LVU713
 2044 0164 20E0     		b	.L87
 2045              	.LVL207:
 2046              	.L88:
 2047              	.LBB191:
 916:Drivers/lvgl/src/core/lv_obj.c ****                 lv_style_selector_t selector = ts[t].selector;
 2048              		.loc 1 916 34 is_stmt 1 discriminator 2 view .LVU714
ARM GAS  /var/folders/0z/tsy30v1j4xl4_7kw94k978ww0000gn/T//ccVt8IXl.s 			page 84


 2049 0166 0134     		adds	r4, r4, #1
 2050              	.LVL208:
 2051              	.L93:
 916:Drivers/lvgl/src/core/lv_obj.c ****                 lv_style_selector_t selector = ts[t].selector;
 2052              		.loc 1 916 26 discriminator 1 view .LVU715
 2053 0168 A145     		cmp	r9, r4
 2054 016a 18D9     		bls	.L89
 2055              	.LBB192:
 917:Drivers/lvgl/src/core/lv_obj.c ****                 lv_state_t state_ts = lv_obj_style_get_selector_state(selector);
 2056              		.loc 1 917 17 view .LVU716
 917:Drivers/lvgl/src/core/lv_obj.c ****                 lv_state_t state_ts = lv_obj_style_get_selector_state(selector);
 2057              		.loc 1 917 50 is_stmt 0 view .LVU717
 2058 016c 04EB8405 		add	r5, r4, r4, lsl #2
 2059 0170 0BEB8505 		add	r5, fp, r5, lsl #2
 917:Drivers/lvgl/src/core/lv_obj.c ****                 lv_state_t state_ts = lv_obj_style_get_selector_state(selector);
 2060              		.loc 1 917 37 view .LVU718
 2061 0174 6F68     		ldr	r7, [r5, #4]
 2062              	.LVL209:
 918:Drivers/lvgl/src/core/lv_obj.c ****                 lv_part_t part_ts = lv_obj_style_get_selector_part(selector);
 2063              		.loc 1 918 17 is_stmt 1 view .LVU719
 918:Drivers/lvgl/src/core/lv_obj.c ****                 lv_part_t part_ts = lv_obj_style_get_selector_part(selector);
 2064              		.loc 1 918 39 is_stmt 0 view .LVU720
 2065 0176 3846     		mov	r0, r7
 2066 0178 FFF7FEFF 		bl	lv_obj_style_get_selector_state
 2067              	.LVL210:
 2068 017c 0290     		str	r0, [sp, #8]
 2069              	.LVL211:
 919:Drivers/lvgl/src/core/lv_obj.c ****                 if(ts[t].prop == tr->props[j] && part_ts == part_act && state_ts >= state_act) brea
 2070              		.loc 1 919 17 is_stmt 1 view .LVU721
 919:Drivers/lvgl/src/core/lv_obj.c ****                 if(ts[t].prop == tr->props[j] && part_ts == part_act && state_ts >= state_act) brea
 2071              		.loc 1 919 37 is_stmt 0 view .LVU722
 2072 017e 3846     		mov	r0, r7
 2073 0180 FFF7FEFF 		bl	lv_obj_style_get_selector_part
 2074              	.LVL212:
 920:Drivers/lvgl/src/core/lv_obj.c ****             }
 2075              		.loc 1 920 17 is_stmt 1 view .LVU723
 920:Drivers/lvgl/src/core/lv_obj.c ****             }
 2076              		.loc 1 920 25 is_stmt 0 view .LVU724
 2077 0184 2A89     		ldrh	r2, [r5, #8]
 920:Drivers/lvgl/src/core/lv_obj.c ****             }
 2078              		.loc 1 920 36 view .LVU725
 2079 0186 D8F80030 		ldr	r3, [r8]
 920:Drivers/lvgl/src/core/lv_obj.c ****             }
 2080              		.loc 1 920 31 view .LVU726
 2081 018a 33F80A30 		ldrh	r3, [r3, r10]
 920:Drivers/lvgl/src/core/lv_obj.c ****             }
 2082              		.loc 1 920 19 view .LVU727
 2083 018e 9A42     		cmp	r2, r3
 2084 0190 E9D1     		bne	.L88
 920:Drivers/lvgl/src/core/lv_obj.c ****             }
 2085              		.loc 1 920 47 discriminator 1 view .LVU728
 2086 0192 8642     		cmp	r6, r0
 2087 0194 E7D1     		bne	.L88
 920:Drivers/lvgl/src/core/lv_obj.c ****             }
 2088              		.loc 1 920 70 discriminator 2 view .LVU729
 2089 0196 059B     		ldr	r3, [sp, #20]
 2090 0198 029A     		ldr	r2, [sp, #8]
ARM GAS  /var/folders/0z/tsy30v1j4xl4_7kw94k978ww0000gn/T//ccVt8IXl.s 			page 85


 2091 019a 9342     		cmp	r3, r2
 2092 019c E3D8     		bhi	.L88
 2093              	.LVL213:
 2094              	.L89:
 920:Drivers/lvgl/src/core/lv_obj.c ****             }
 2095              		.loc 1 920 70 discriminator 2 view .LVU730
 2096              	.LBE192:
 924:Drivers/lvgl/src/core/lv_obj.c ****                 ts[tsi].time = tr->time;
 2097              		.loc 1 924 13 is_stmt 1 view .LVU731
 924:Drivers/lvgl/src/core/lv_obj.c ****                 ts[tsi].time = tr->time;
 2098              		.loc 1 924 15 is_stmt 0 view .LVU732
 2099 019e A145     		cmp	r9, r4
 2100 01a0 0FD0     		beq	.L120
 2101              	.L91:
 924:Drivers/lvgl/src/core/lv_obj.c ****                 ts[tsi].time = tr->time;
 2102              		.loc 1 924 15 view .LVU733
 2103              	.LBE191:
 914:Drivers/lvgl/src/core/lv_obj.c ****             uint32_t t;
 2104              		.loc 1 914 70 is_stmt 1 discriminator 2 view .LVU734
 2105 01a2 049B     		ldr	r3, [sp, #16]
 2106 01a4 0133     		adds	r3, r3, #1
 2107 01a6 0493     		str	r3, [sp, #16]
 2108              	.LVL214:
 2109              	.L87:
 914:Drivers/lvgl/src/core/lv_obj.c ****             uint32_t t;
 2110              		.loc 1 914 38 discriminator 1 view .LVU735
 914:Drivers/lvgl/src/core/lv_obj.c ****             uint32_t t;
 2111              		.loc 1 914 22 is_stmt 0 discriminator 1 view .LVU736
 2112 01a8 D8F80030 		ldr	r3, [r8]
 914:Drivers/lvgl/src/core/lv_obj.c ****             uint32_t t;
 2113              		.loc 1 914 29 discriminator 1 view .LVU737
 2114 01ac 049A     		ldr	r2, [sp, #16]
 2115 01ae 4FEA420A 		lsl	r10, r2, #1
 2116 01b2 33F81230 		ldrh	r3, [r3, r2, lsl #1]
 914:Drivers/lvgl/src/core/lv_obj.c ****             uint32_t t;
 2117              		.loc 1 914 38 discriminator 1 view .LVU738
 2118 01b6 23B3     		cbz	r3, .L109
 914:Drivers/lvgl/src/core/lv_obj.c ****             uint32_t t;
 2119              		.loc 1 914 38 discriminator 3 view .LVU739
 2120 01b8 B9F11F0F 		cmp	r9, #31
 2121 01bc 1FD8     		bhi	.L121
 2122              	.LBB193:
 916:Drivers/lvgl/src/core/lv_obj.c ****                 lv_style_selector_t selector = ts[t].selector;
 2123              		.loc 1 916 19 view .LVU740
 2124 01be 0024     		movs	r4, #0
 2125 01c0 D2E7     		b	.L93
 2126              	.LVL215:
 2127              	.L120:
 925:Drivers/lvgl/src/core/lv_obj.c ****                 ts[tsi].delay = tr->delay;
 2128              		.loc 1 925 17 is_stmt 1 view .LVU741
 925:Drivers/lvgl/src/core/lv_obj.c ****                 ts[tsi].delay = tr->delay;
 2129              		.loc 1 925 34 is_stmt 0 view .LVU742
 2130 01c2 D8F80C10 		ldr	r1, [r8, #12]
 925:Drivers/lvgl/src/core/lv_obj.c ****                 ts[tsi].delay = tr->delay;
 2131              		.loc 1 925 19 view .LVU743
 2132 01c6 09EB8902 		add	r2, r9, r9, lsl #2
 2133 01ca 0BEB8203 		add	r3, fp, r2, lsl #2
ARM GAS  /var/folders/0z/tsy30v1j4xl4_7kw94k978ww0000gn/T//ccVt8IXl.s 			page 86


 925:Drivers/lvgl/src/core/lv_obj.c ****                 ts[tsi].delay = tr->delay;
 2134              		.loc 1 925 30 view .LVU744
 2135 01ce 2BF82210 		strh	r1, [fp, r2, lsl #2]	@ movhi
 926:Drivers/lvgl/src/core/lv_obj.c ****                 ts[tsi].path_cb = tr->path_xcb;
 2136              		.loc 1 926 17 is_stmt 1 view .LVU745
 926:Drivers/lvgl/src/core/lv_obj.c ****                 ts[tsi].path_cb = tr->path_xcb;
 2137              		.loc 1 926 35 is_stmt 0 view .LVU746
 2138 01d2 D8F81020 		ldr	r2, [r8, #16]
 926:Drivers/lvgl/src/core/lv_obj.c ****                 ts[tsi].path_cb = tr->path_xcb;
 2139              		.loc 1 926 31 view .LVU747
 2140 01d6 5A80     		strh	r2, [r3, #2]	@ movhi
 927:Drivers/lvgl/src/core/lv_obj.c ****                 ts[tsi].prop = tr->props[j];
 2141              		.loc 1 927 17 is_stmt 1 view .LVU748
 927:Drivers/lvgl/src/core/lv_obj.c ****                 ts[tsi].prop = tr->props[j];
 2142              		.loc 1 927 37 is_stmt 0 view .LVU749
 2143 01d8 D8F80820 		ldr	r2, [r8, #8]
 927:Drivers/lvgl/src/core/lv_obj.c ****                 ts[tsi].prop = tr->props[j];
 2144              		.loc 1 927 33 view .LVU750
 2145 01dc DA60     		str	r2, [r3, #12]
 928:Drivers/lvgl/src/core/lv_obj.c **** #if LV_USE_USER_DATA
 2146              		.loc 1 928 17 is_stmt 1 view .LVU751
 928:Drivers/lvgl/src/core/lv_obj.c **** #if LV_USE_USER_DATA
 2147              		.loc 1 928 34 is_stmt 0 view .LVU752
 2148 01de D8F80020 		ldr	r2, [r8]
 928:Drivers/lvgl/src/core/lv_obj.c **** #if LV_USE_USER_DATA
 2149              		.loc 1 928 41 view .LVU753
 2150 01e2 32F80A20 		ldrh	r2, [r2, r10]
 928:Drivers/lvgl/src/core/lv_obj.c **** #if LV_USE_USER_DATA
 2151              		.loc 1 928 30 view .LVU754
 2152 01e6 1A81     		strh	r2, [r3, #8]	@ movhi
 930:Drivers/lvgl/src/core/lv_obj.c **** #endif
 2153              		.loc 1 930 17 is_stmt 1 view .LVU755
 930:Drivers/lvgl/src/core/lv_obj.c **** #endif
 2154              		.loc 1 930 39 is_stmt 0 view .LVU756
 2155 01e8 D8F80420 		ldr	r2, [r8, #4]
 930:Drivers/lvgl/src/core/lv_obj.c **** #endif
 2156              		.loc 1 930 35 view .LVU757
 2157 01ec 1A61     		str	r2, [r3, #16]
 932:Drivers/lvgl/src/core/lv_obj.c ****                 tsi++;
 2158              		.loc 1 932 17 is_stmt 1 view .LVU758
 932:Drivers/lvgl/src/core/lv_obj.c ****                 tsi++;
 2159              		.loc 1 932 45 is_stmt 0 view .LVU759
 2160 01ee 079A     		ldr	r2, [sp, #28]
 2161 01f0 5268     		ldr	r2, [r2, #4]
 2162 01f2 C2F31702 		ubfx	r2, r2, #0, #24
 932:Drivers/lvgl/src/core/lv_obj.c ****                 tsi++;
 2163              		.loc 1 932 34 view .LVU760
 2164 01f6 5A60     		str	r2, [r3, #4]
 933:Drivers/lvgl/src/core/lv_obj.c ****             }
 2165              		.loc 1 933 17 is_stmt 1 view .LVU761
 933:Drivers/lvgl/src/core/lv_obj.c ****             }
 2166              		.loc 1 933 20 is_stmt 0 view .LVU762
 2167 01f8 09F10109 		add	r9, r9, #1
 2168              	.LVL216:
 933:Drivers/lvgl/src/core/lv_obj.c ****             }
 2169              		.loc 1 933 20 view .LVU763
 2170 01fc D1E7     		b	.L91
ARM GAS  /var/folders/0z/tsy30v1j4xl4_7kw94k978ww0000gn/T//ccVt8IXl.s 			page 87


 2171              	.LVL217:
 2172              	.L121:
 933:Drivers/lvgl/src/core/lv_obj.c ****             }
 2173              		.loc 1 933 20 view .LVU764
 2174 01fe 0B9E     		ldr	r6, [sp, #44]
 2175              	.LVL218:
 933:Drivers/lvgl/src/core/lv_obj.c ****             }
 2176              		.loc 1 933 20 view .LVU765
 2177              	.LBE193:
 2178 0200 63E7     		b	.L94
 2179              	.LVL219:
 2180              	.L109:
 933:Drivers/lvgl/src/core/lv_obj.c ****             }
 2181              		.loc 1 933 20 view .LVU766
 2182 0202 0B9E     		ldr	r6, [sp, #44]
 2183              	.LVL220:
 933:Drivers/lvgl/src/core/lv_obj.c ****             }
 2184              		.loc 1 933 20 view .LVU767
 2185 0204 61E7     		b	.L94
 2186              	.LVL221:
 2187              	.L117:
 933:Drivers/lvgl/src/core/lv_obj.c ****             }
 2188              		.loc 1 933 20 view .LVU768
 2189              	.LBE194:
 2190 0206 DDF80CA0 		ldr	r10, [sp, #12]
 2191 020a 0024     		movs	r4, #0
 2192 020c 099E     		ldr	r6, [sp, #36]
 2193              	.LVL222:
 933:Drivers/lvgl/src/core/lv_obj.c ****             }
 2194              		.loc 1 933 20 view .LVU769
 2195 020e 069F     		ldr	r7, [sp, #24]
 2196 0210 0EE0     		b	.L97
 2197              	.LVL223:
 2198              	.L98:
 2199              	.LBB195:
 939:Drivers/lvgl/src/core/lv_obj.c ****         _lv_obj_style_create_transition(obj, part_act, prev_state, new_state, &ts[i]);
 2200              		.loc 1 939 9 is_stmt 1 discriminator 3 view .LVU770
 939:Drivers/lvgl/src/core/lv_obj.c ****         _lv_obj_style_create_transition(obj, part_act, prev_state, new_state, &ts[i]);
 2201              		.loc 1 939 63 is_stmt 0 discriminator 3 view .LVU771
 2202 0212 04EB8405 		add	r5, r4, r4, lsl #2
 2203 0216 0BEB8505 		add	r5, fp, r5, lsl #2
 939:Drivers/lvgl/src/core/lv_obj.c ****         _lv_obj_style_create_transition(obj, part_act, prev_state, new_state, &ts[i]);
 2204              		.loc 1 939 30 discriminator 3 view .LVU772
 2205 021a 6868     		ldr	r0, [r5, #4]
 2206 021c FFF7FEFF 		bl	lv_obj_style_get_selector_part
 2207              	.LVL224:
 2208 0220 0146     		mov	r1, r0
 2209              	.LVL225:
 940:Drivers/lvgl/src/core/lv_obj.c ****     }
 2210              		.loc 1 940 9 is_stmt 1 discriminator 3 view .LVU773
 2211 0222 0095     		str	r5, [sp]
 2212 0224 3B46     		mov	r3, r7
 2213 0226 3246     		mov	r2, r6
 2214 0228 5046     		mov	r0, r10
 2215              	.LVL226:
 940:Drivers/lvgl/src/core/lv_obj.c ****     }
 2216              		.loc 1 940 9 is_stmt 0 discriminator 3 view .LVU774
ARM GAS  /var/folders/0z/tsy30v1j4xl4_7kw94k978ww0000gn/T//ccVt8IXl.s 			page 88


 2217 022a FFF7FEFF 		bl	_lv_obj_style_create_transition
 2218              	.LVL227:
 940:Drivers/lvgl/src/core/lv_obj.c ****     }
 2219              		.loc 1 940 9 discriminator 3 view .LVU775
 2220              	.LBE195:
 938:Drivers/lvgl/src/core/lv_obj.c ****         lv_part_t part_act = lv_obj_style_get_selector_part(ts[i].selector);
 2221              		.loc 1 938 26 is_stmt 1 discriminator 3 view .LVU776
 2222 022e 0134     		adds	r4, r4, #1
 2223              	.LVL228:
 2224              	.L97:
 938:Drivers/lvgl/src/core/lv_obj.c ****         lv_part_t part_act = lv_obj_style_get_selector_part(ts[i].selector);
 2225              		.loc 1 938 18 discriminator 1 view .LVU777
 2226 0230 A145     		cmp	r9, r4
 2227 0232 EED8     		bhi	.L98
 943:Drivers/lvgl/src/core/lv_obj.c **** 
 2228              		.loc 1 943 5 view .LVU778
 2229 0234 5846     		mov	r0, fp
 2230 0236 FFF7FEFF 		bl	lv_mem_buf_release
 2231              	.LVL229:
 945:Drivers/lvgl/src/core/lv_obj.c ****         lv_obj_invalidate(obj);
 2232              		.loc 1 945 5 view .LVU779
 945:Drivers/lvgl/src/core/lv_obj.c ****         lv_obj_invalidate(obj);
 2233              		.loc 1 945 7 is_stmt 0 view .LVU780
 2234 023a 089B     		ldr	r3, [sp, #32]
 2235 023c 012B     		cmp	r3, #1
 2236 023e 13D0     		beq	.L122
 948:Drivers/lvgl/src/core/lv_obj.c ****         lv_obj_refresh_style(obj, LV_PART_ANY, LV_STYLE_PROP_ANY);
 2237              		.loc 1 948 10 is_stmt 1 view .LVU781
 948:Drivers/lvgl/src/core/lv_obj.c ****         lv_obj_refresh_style(obj, LV_PART_ANY, LV_STYLE_PROP_ANY);
 2238              		.loc 1 948 12 is_stmt 0 view .LVU782
 2239 0240 089B     		ldr	r3, [sp, #32]
 2240 0242 032B     		cmp	r3, #3
 2241 0244 14D0     		beq	.L123
 951:Drivers/lvgl/src/core/lv_obj.c ****         lv_obj_invalidate(obj);
 2242              		.loc 1 951 10 is_stmt 1 view .LVU783
 951:Drivers/lvgl/src/core/lv_obj.c ****         lv_obj_invalidate(obj);
 2243              		.loc 1 951 12 is_stmt 0 view .LVU784
 2244 0246 089B     		ldr	r3, [sp, #32]
 2245 0248 022B     		cmp	r3, #2
 2246 024a 7FF4E9AE 		bne	.L68
 952:Drivers/lvgl/src/core/lv_obj.c ****         lv_obj_refresh_ext_draw_size(obj);
 2247              		.loc 1 952 9 is_stmt 1 view .LVU785
 2248 024e 5046     		mov	r0, r10
 2249 0250 FFF7FEFF 		bl	lv_obj_invalidate
 2250              	.LVL230:
 953:Drivers/lvgl/src/core/lv_obj.c ****     }
 2251              		.loc 1 953 9 view .LVU786
 2252 0254 5046     		mov	r0, r10
 2253 0256 FFF7FEFF 		bl	lv_obj_refresh_ext_draw_size
 2254              	.LVL231:
 2255 025a E1E6     		b	.L68
 2256              	.LVL232:
 2257              	.L107:
 953:Drivers/lvgl/src/core/lv_obj.c ****     }
 2258              		.loc 1 953 9 is_stmt 0 view .LVU787
 2259 025c DDF80CA0 		ldr	r10, [sp, #12]
 2260 0260 0024     		movs	r4, #0
ARM GAS  /var/folders/0z/tsy30v1j4xl4_7kw94k978ww0000gn/T//ccVt8IXl.s 			page 89


 2261 0262 099E     		ldr	r6, [sp, #36]
 2262              	.LVL233:
 953:Drivers/lvgl/src/core/lv_obj.c ****     }
 2263              		.loc 1 953 9 view .LVU788
 2264 0264 069F     		ldr	r7, [sp, #24]
 2265 0266 E3E7     		b	.L97
 2266              	.LVL234:
 2267              	.L122:
 946:Drivers/lvgl/src/core/lv_obj.c ****     }
 2268              		.loc 1 946 9 is_stmt 1 view .LVU789
 2269 0268 5046     		mov	r0, r10
 2270 026a FFF7FEFF 		bl	lv_obj_invalidate
 2271              	.LVL235:
 2272 026e D7E6     		b	.L68
 2273              	.L123:
 949:Drivers/lvgl/src/core/lv_obj.c ****     }
 2274              		.loc 1 949 9 view .LVU790
 2275 0270 4FF6FF72 		movw	r2, #65535
 2276 0274 4FF47021 		mov	r1, #983040
 2277 0278 5046     		mov	r0, r10
 2278 027a FFF7FEFF 		bl	lv_obj_refresh_style
 2279              	.LVL236:
 2280 027e CFE6     		b	.L68
 2281              		.cfi_endproc
 2282              	.LFE228:
 2284              		.section	.text.lv_is_initialized,"ax",%progbits
 2285              		.align	1
 2286              		.global	lv_is_initialized
 2287              		.syntax unified
 2288              		.thumb
 2289              		.thumb_func
 2291              	lv_is_initialized:
 2292              	.LFB204:
  94:Drivers/lvgl/src/core/lv_obj.c ****     return lv_initialized;
 2293              		.loc 1 94 1 view -0
 2294              		.cfi_startproc
 2295              		@ args = 0, pretend = 0, frame = 0
 2296              		@ frame_needed = 0, uses_anonymous_args = 0
 2297              		@ link register save eliminated.
  95:Drivers/lvgl/src/core/lv_obj.c **** }
 2298              		.loc 1 95 5 view .LVU792
  96:Drivers/lvgl/src/core/lv_obj.c **** 
 2299              		.loc 1 96 1 is_stmt 0 view .LVU793
 2300 0000 014B     		ldr	r3, .L125
 2301 0002 1878     		ldrb	r0, [r3]	@ zero_extendqisi2
 2302 0004 7047     		bx	lr
 2303              	.L126:
 2304 0006 00BF     		.align	2
 2305              	.L125:
 2306 0008 00000000 		.word	.LANCHOR1
 2307              		.cfi_endproc
 2308              	.LFE204:
 2310              		.section	.text.lv_init,"ax",%progbits
 2311              		.align	1
 2312              		.global	lv_init
 2313              		.syntax unified
 2314              		.thumb
ARM GAS  /var/folders/0z/tsy30v1j4xl4_7kw94k978ww0000gn/T//ccVt8IXl.s 			page 90


 2315              		.thumb_func
 2317              	lv_init:
 2318              	.LFB205:
  99:Drivers/lvgl/src/core/lv_obj.c ****     /*Do nothing if already initialized*/
 2319              		.loc 1 99 1 is_stmt 1 view -0
 2320              		.cfi_startproc
 2321              		@ args = 0, pretend = 0, frame = 0
 2322              		@ frame_needed = 0, uses_anonymous_args = 0
 2323 0000 08B5     		push	{r3, lr}
 2324              		.cfi_def_cfa_offset 8
 2325              		.cfi_offset 3, -8
 2326              		.cfi_offset 14, -4
 101:Drivers/lvgl/src/core/lv_obj.c ****         LV_LOG_WARN("lv_init: already inited");
 2327              		.loc 1 101 5 view .LVU795
 101:Drivers/lvgl/src/core/lv_obj.c ****         LV_LOG_WARN("lv_init: already inited");
 2328              		.loc 1 101 8 is_stmt 0 view .LVU796
 2329 0002 124B     		ldr	r3, .L131
 2330 0004 1B78     		ldrb	r3, [r3]	@ zero_extendqisi2
 101:Drivers/lvgl/src/core/lv_obj.c ****         LV_LOG_WARN("lv_init: already inited");
 2331              		.loc 1 101 7 view .LVU797
 2332 0006 03B1     		cbz	r3, .L130
 2333              	.L127:
 193:Drivers/lvgl/src/core/lv_obj.c **** 
 2334              		.loc 1 193 1 view .LVU798
 2335 0008 08BD     		pop	{r3, pc}
 2336              	.L130:
 106:Drivers/lvgl/src/core/lv_obj.c **** 
 2337              		.loc 1 106 5 is_stmt 1 view .LVU799
 106:Drivers/lvgl/src/core/lv_obj.c **** 
 2338              		.loc 1 106 5 view .LVU800
 106:Drivers/lvgl/src/core/lv_obj.c **** 
 2339              		.loc 1 106 5 view .LVU801
 109:Drivers/lvgl/src/core/lv_obj.c **** 
 2340              		.loc 1 109 5 view .LVU802
 2341 000a FFF7FEFF 		bl	lv_mem_init
 2342              	.LVL237:
 111:Drivers/lvgl/src/core/lv_obj.c **** 
 2343              		.loc 1 111 5 view .LVU803
 2344 000e FFF7FEFF 		bl	_lv_timer_core_init
 2345              	.LVL238:
 113:Drivers/lvgl/src/core/lv_obj.c **** 
 2346              		.loc 1 113 5 view .LVU804
 2347 0012 FFF7FEFF 		bl	_lv_fs_init
 2348              	.LVL239:
 115:Drivers/lvgl/src/core/lv_obj.c **** 
 2349              		.loc 1 115 5 view .LVU805
 2350 0016 FFF7FEFF 		bl	_lv_anim_core_init
 2351              	.LVL240:
 117:Drivers/lvgl/src/core/lv_obj.c **** 
 2352              		.loc 1 117 5 view .LVU806
 2353 001a FFF7FEFF 		bl	_lv_group_init
 2354              	.LVL241:
 119:Drivers/lvgl/src/core/lv_obj.c **** 
 2355              		.loc 1 119 5 view .LVU807
 2356 001e FFF7FEFF 		bl	lv_draw_init
 2357              	.LVL242:
 140:Drivers/lvgl/src/core/lv_obj.c ****     _lv_ll_init(&LV_GC_ROOT(_lv_disp_ll), sizeof(lv_disp_t));
ARM GAS  /var/folders/0z/tsy30v1j4xl4_7kw94k978ww0000gn/T//ccVt8IXl.s 			page 91


 2358              		.loc 1 140 5 view .LVU808
 2359 0022 FFF7FEFF 		bl	_lv_obj_style_init
 2360              	.LVL243:
 141:Drivers/lvgl/src/core/lv_obj.c ****     _lv_ll_init(&LV_GC_ROOT(_lv_indev_ll), sizeof(lv_indev_t));
 2361              		.loc 1 141 5 view .LVU809
 2362 0026 4FF4B471 		mov	r1, #360
 2363 002a 0948     		ldr	r0, .L131+4
 2364 002c FFF7FEFF 		bl	_lv_ll_init
 2365              	.LVL244:
 142:Drivers/lvgl/src/core/lv_obj.c **** 
 2366              		.loc 1 142 5 view .LVU810
 2367 0030 5C21     		movs	r1, #92
 2368 0032 0848     		ldr	r0, .L131+8
 2369 0034 FFF7FEFF 		bl	_lv_ll_init
 2370              	.LVL245:
 145:Drivers/lvgl/src/core/lv_obj.c **** 
 2371              		.loc 1 145 5 view .LVU811
 2372 0038 FFF7FEFF 		bl	_lv_refr_init
 2373              	.LVL246:
 147:Drivers/lvgl/src/core/lv_obj.c **** #if LV_IMG_CACHE_DEF_SIZE
 2374              		.loc 1 147 5 view .LVU812
 2375 003c FFF7FEFF 		bl	_lv_img_decoder_init
 2376              	.LVL247:
 152:Drivers/lvgl/src/core/lv_obj.c **** 
 2377              		.loc 1 152 5 view .LVU813
 154:Drivers/lvgl/src/core/lv_obj.c ****     if(txt_u8[0] != 0xc3 || txt_u8[1] != 0x81 || txt_u8[2] != 0x00) {
 2378              		.loc 1 154 5 view .LVU814
 155:Drivers/lvgl/src/core/lv_obj.c ****         LV_LOG_WARN("The strings have no UTF-8 encoding. Non-ASCII characters won't be displayed.")
 2379              		.loc 1 155 5 view .LVU815
 156:Drivers/lvgl/src/core/lv_obj.c ****     }
 2380              		.loc 1 156 9 view .LVU816
 156:Drivers/lvgl/src/core/lv_obj.c ****     }
 2381              		.loc 1 156 9 view .LVU817
 156:Drivers/lvgl/src/core/lv_obj.c ****     }
 2382              		.loc 1 156 9 view .LVU818
 159:Drivers/lvgl/src/core/lv_obj.c ****     uint8_t * endianess_test_p = (uint8_t *) &endianess_test;
 2383              		.loc 1 159 5 view .LVU819
 160:Drivers/lvgl/src/core/lv_obj.c ****     bool big_endian = endianess_test_p[0] == 0x11 ? true : false;
 2384              		.loc 1 160 5 view .LVU820
 161:Drivers/lvgl/src/core/lv_obj.c **** 
 2385              		.loc 1 161 5 view .LVU821
 163:Drivers/lvgl/src/core/lv_obj.c ****         LV_ASSERT_MSG(LV_BIG_ENDIAN_SYSTEM == 1,
 2386              		.loc 1 163 5 view .LVU822
 168:Drivers/lvgl/src/core/lv_obj.c ****                       "It's a little endian system but LV_BIG_ENDIAN_SYSTEM is enabled in lv_conf.h
 2387              		.loc 1 168 9 view .LVU823
 168:Drivers/lvgl/src/core/lv_obj.c ****                       "It's a little endian system but LV_BIG_ENDIAN_SYSTEM is enabled in lv_conf.h
 2388              		.loc 1 168 9 view .LVU824
 168:Drivers/lvgl/src/core/lv_obj.c ****                       "It's a little endian system but LV_BIG_ENDIAN_SYSTEM is enabled in lv_conf.h
 2389              		.loc 1 168 9 view .LVU825
 188:Drivers/lvgl/src/core/lv_obj.c **** 
 2390              		.loc 1 188 5 view .LVU826
 2391 0040 FFF7FEFF 		bl	lv_extra_init
 2392              	.LVL248:
 190:Drivers/lvgl/src/core/lv_obj.c **** 
 2393              		.loc 1 190 5 view .LVU827
 190:Drivers/lvgl/src/core/lv_obj.c **** 
 2394              		.loc 1 190 20 is_stmt 0 view .LVU828
ARM GAS  /var/folders/0z/tsy30v1j4xl4_7kw94k978ww0000gn/T//ccVt8IXl.s 			page 92


 2395 0044 014B     		ldr	r3, .L131
 2396 0046 0122     		movs	r2, #1
 2397 0048 1A70     		strb	r2, [r3]
 192:Drivers/lvgl/src/core/lv_obj.c **** }
 2398              		.loc 1 192 5 is_stmt 1 view .LVU829
 192:Drivers/lvgl/src/core/lv_obj.c **** }
 2399              		.loc 1 192 5 view .LVU830
 192:Drivers/lvgl/src/core/lv_obj.c **** }
 2400              		.loc 1 192 5 view .LVU831
 2401              	.LVL249:
 192:Drivers/lvgl/src/core/lv_obj.c **** }
 2402              		.loc 1 192 5 is_stmt 0 view .LVU832
 2403 004a DDE7     		b	.L127
 2404              	.L132:
 2405              		.align	2
 2406              	.L131:
 2407 004c 00000000 		.word	.LANCHOR1
 2408 0050 00000000 		.word	_lv_disp_ll
 2409 0054 00000000 		.word	_lv_indev_ll
 2410              		.cfi_endproc
 2411              	.LFE205:
 2413              		.section	.text.lv_deinit,"ax",%progbits
 2414              		.align	1
 2415              		.global	lv_deinit
 2416              		.syntax unified
 2417              		.thumb
 2418              		.thumb_func
 2420              	lv_deinit:
 2421              	.LFB206:
 198:Drivers/lvgl/src/core/lv_obj.c ****     _lv_gc_clear_roots();
 2422              		.loc 1 198 1 is_stmt 1 view -0
 2423              		.cfi_startproc
 2424              		@ args = 0, pretend = 0, frame = 0
 2425              		@ frame_needed = 0, uses_anonymous_args = 0
 2426 0000 08B5     		push	{r3, lr}
 2427              		.cfi_def_cfa_offset 8
 2428              		.cfi_offset 3, -8
 2429              		.cfi_offset 14, -4
 199:Drivers/lvgl/src/core/lv_obj.c **** 
 2430              		.loc 1 199 5 view .LVU834
 2431 0002 FFF7FEFF 		bl	_lv_gc_clear_roots
 2432              	.LVL250:
 201:Drivers/lvgl/src/core/lv_obj.c ****     lv_mem_deinit();
 2433              		.loc 1 201 5 view .LVU835
 2434 0006 0020     		movs	r0, #0
 2435 0008 FFF7FEFF 		bl	lv_disp_set_default
 2436              	.LVL251:
 202:Drivers/lvgl/src/core/lv_obj.c ****     lv_initialized = false;
 2437              		.loc 1 202 5 view .LVU836
 2438 000c FFF7FEFF 		bl	lv_mem_deinit
 2439              	.LVL252:
 203:Drivers/lvgl/src/core/lv_obj.c **** 
 2440              		.loc 1 203 5 view .LVU837
 203:Drivers/lvgl/src/core/lv_obj.c **** 
 2441              		.loc 1 203 20 is_stmt 0 view .LVU838
 2442 0010 014B     		ldr	r3, .L135
 2443 0012 0022     		movs	r2, #0
ARM GAS  /var/folders/0z/tsy30v1j4xl4_7kw94k978ww0000gn/T//ccVt8IXl.s 			page 93


 2444 0014 1A70     		strb	r2, [r3]
 205:Drivers/lvgl/src/core/lv_obj.c **** 
 2445              		.loc 1 205 5 is_stmt 1 view .LVU839
 205:Drivers/lvgl/src/core/lv_obj.c **** 
 2446              		.loc 1 205 5 view .LVU840
 205:Drivers/lvgl/src/core/lv_obj.c **** 
 2447              		.loc 1 205 5 view .LVU841
 210:Drivers/lvgl/src/core/lv_obj.c **** #endif
 2448              		.loc 1 210 1 is_stmt 0 view .LVU842
 2449 0016 08BD     		pop	{r3, pc}
 2450              	.L136:
 2451              		.align	2
 2452              	.L135:
 2453 0018 00000000 		.word	.LANCHOR1
 2454              		.cfi_endproc
 2455              	.LFE206:
 2457              		.section	.text.lv_obj_create,"ax",%progbits
 2458              		.align	1
 2459              		.global	lv_obj_create
 2460              		.syntax unified
 2461              		.thumb
 2462              		.thumb_func
 2464              	lv_obj_create:
 2465              	.LVL253:
 2466              	.LFB207:
 214:Drivers/lvgl/src/core/lv_obj.c ****     LV_LOG_INFO("begin");
 2467              		.loc 1 214 1 is_stmt 1 view -0
 2468              		.cfi_startproc
 2469              		@ args = 0, pretend = 0, frame = 0
 2470              		@ frame_needed = 0, uses_anonymous_args = 0
 214:Drivers/lvgl/src/core/lv_obj.c ****     LV_LOG_INFO("begin");
 2471              		.loc 1 214 1 is_stmt 0 view .LVU844
 2472 0000 10B5     		push	{r4, lr}
 2473              		.cfi_def_cfa_offset 8
 2474              		.cfi_offset 4, -8
 2475              		.cfi_offset 14, -4
 2476 0002 0146     		mov	r1, r0
 215:Drivers/lvgl/src/core/lv_obj.c ****     lv_obj_t * obj = lv_obj_class_create_obj(MY_CLASS, parent);
 2477              		.loc 1 215 5 is_stmt 1 view .LVU845
 215:Drivers/lvgl/src/core/lv_obj.c ****     lv_obj_t * obj = lv_obj_class_create_obj(MY_CLASS, parent);
 2478              		.loc 1 215 5 view .LVU846
 215:Drivers/lvgl/src/core/lv_obj.c ****     lv_obj_t * obj = lv_obj_class_create_obj(MY_CLASS, parent);
 2479              		.loc 1 215 5 view .LVU847
 216:Drivers/lvgl/src/core/lv_obj.c ****     lv_obj_class_init_obj(obj);
 2480              		.loc 1 216 5 view .LVU848
 216:Drivers/lvgl/src/core/lv_obj.c ****     lv_obj_class_init_obj(obj);
 2481              		.loc 1 216 22 is_stmt 0 view .LVU849
 2482 0004 0348     		ldr	r0, .L139
 2483              	.LVL254:
 216:Drivers/lvgl/src/core/lv_obj.c ****     lv_obj_class_init_obj(obj);
 2484              		.loc 1 216 22 view .LVU850
 2485 0006 FFF7FEFF 		bl	lv_obj_class_create_obj
 2486              	.LVL255:
 216:Drivers/lvgl/src/core/lv_obj.c ****     lv_obj_class_init_obj(obj);
 2487              		.loc 1 216 22 view .LVU851
 2488 000a 0446     		mov	r4, r0
 2489              	.LVL256:
ARM GAS  /var/folders/0z/tsy30v1j4xl4_7kw94k978ww0000gn/T//ccVt8IXl.s 			page 94


 217:Drivers/lvgl/src/core/lv_obj.c ****     return obj;
 2490              		.loc 1 217 5 is_stmt 1 view .LVU852
 2491 000c FFF7FEFF 		bl	lv_obj_class_init_obj
 2492              	.LVL257:
 218:Drivers/lvgl/src/core/lv_obj.c **** }
 2493              		.loc 1 218 5 view .LVU853
 219:Drivers/lvgl/src/core/lv_obj.c **** 
 2494              		.loc 1 219 1 is_stmt 0 view .LVU854
 2495 0010 2046     		mov	r0, r4
 2496 0012 10BD     		pop	{r4, pc}
 2497              	.LVL258:
 2498              	.L140:
 219:Drivers/lvgl/src/core/lv_obj.c **** 
 2499              		.loc 1 219 1 view .LVU855
 2500              		.align	2
 2501              	.L139:
 2502 0014 00000000 		.word	.LANCHOR0
 2503              		.cfi_endproc
 2504              	.LFE207:
 2506              		.section	.text.lv_obj_clear_flag,"ax",%progbits
 2507              		.align	1
 2508              		.global	lv_obj_clear_flag
 2509              		.syntax unified
 2510              		.thumb
 2511              		.thumb_func
 2513              	lv_obj_clear_flag:
 2514              	.LVL259:
 2515              	.LFB209:
 267:Drivers/lvgl/src/core/lv_obj.c ****     LV_ASSERT_OBJ(obj, MY_CLASS);
 2516              		.loc 1 267 1 is_stmt 1 view -0
 2517              		.cfi_startproc
 2518              		@ args = 0, pretend = 0, frame = 16
 2519              		@ frame_needed = 0, uses_anonymous_args = 0
 267:Drivers/lvgl/src/core/lv_obj.c ****     LV_ASSERT_OBJ(obj, MY_CLASS);
 2520              		.loc 1 267 1 is_stmt 0 view .LVU857
 2521 0000 70B5     		push	{r4, r5, r6, lr}
 2522              		.cfi_def_cfa_offset 16
 2523              		.cfi_offset 4, -16
 2524              		.cfi_offset 5, -12
 2525              		.cfi_offset 6, -8
 2526              		.cfi_offset 14, -4
 2527 0002 84B0     		sub	sp, sp, #16
 2528              		.cfi_def_cfa_offset 32
 2529 0004 0446     		mov	r4, r0
 2530 0006 0D46     		mov	r5, r1
 268:Drivers/lvgl/src/core/lv_obj.c **** 
 2531              		.loc 1 268 5 is_stmt 1 view .LVU858
 268:Drivers/lvgl/src/core/lv_obj.c **** 
 2532              		.loc 1 268 5 view .LVU859
 268:Drivers/lvgl/src/core/lv_obj.c **** 
 2533              		.loc 1 268 5 view .LVU860
 270:Drivers/lvgl/src/core/lv_obj.c ****     if(f & LV_OBJ_FLAG_SCROLLABLE) {
 2534              		.loc 1 270 5 view .LVU861
 270:Drivers/lvgl/src/core/lv_obj.c ****     if(f & LV_OBJ_FLAG_SCROLLABLE) {
 2535              		.loc 1 270 26 is_stmt 0 view .LVU862
 2536 0008 FFF7FEFF 		bl	lv_obj_is_layout_positioned
 2537              	.LVL260:
ARM GAS  /var/folders/0z/tsy30v1j4xl4_7kw94k978ww0000gn/T//ccVt8IXl.s 			page 95


 270:Drivers/lvgl/src/core/lv_obj.c ****     if(f & LV_OBJ_FLAG_SCROLLABLE) {
 2538              		.loc 1 270 26 view .LVU863
 2539 000c 0646     		mov	r6, r0
 2540              	.LVL261:
 271:Drivers/lvgl/src/core/lv_obj.c ****         lv_area_t hor_area, ver_area;
 2541              		.loc 1 271 5 is_stmt 1 view .LVU864
 271:Drivers/lvgl/src/core/lv_obj.c ****         lv_area_t hor_area, ver_area;
 2542              		.loc 1 271 7 is_stmt 0 view .LVU865
 2543 000e 15F0100F 		tst	r5, #16
 2544 0012 15D1     		bne	.L147
 2545              	.L142:
 278:Drivers/lvgl/src/core/lv_obj.c **** 
 2546              		.loc 1 278 5 is_stmt 1 view .LVU866
 278:Drivers/lvgl/src/core/lv_obj.c **** 
 2547              		.loc 1 278 16 is_stmt 0 view .LVU867
 2548 0014 E369     		ldr	r3, [r4, #28]
 2549 0016 23EA0503 		bic	r3, r3, r5
 2550 001a E361     		str	r3, [r4, #28]
 280:Drivers/lvgl/src/core/lv_obj.c ****         lv_obj_invalidate(obj);
 2551              		.loc 1 280 5 is_stmt 1 view .LVU868
 280:Drivers/lvgl/src/core/lv_obj.c ****         lv_obj_invalidate(obj);
 2552              		.loc 1 280 7 is_stmt 0 view .LVU869
 2553 001c 15F0010F 		tst	r5, #1
 2554 0020 1CD1     		bne	.L148
 2555              	.L143:
 288:Drivers/lvgl/src/core/lv_obj.c ****         lv_obj_mark_layout_as_dirty(lv_obj_get_parent(obj));
 2556              		.loc 1 288 5 is_stmt 1 view .LVU870
 288:Drivers/lvgl/src/core/lv_obj.c ****         lv_obj_mark_layout_as_dirty(lv_obj_get_parent(obj));
 2557              		.loc 1 288 26 is_stmt 0 view .LVU871
 2558 0022 2046     		mov	r0, r4
 2559 0024 FFF7FEFF 		bl	lv_obj_is_layout_positioned
 2560              	.LVL262:
 288:Drivers/lvgl/src/core/lv_obj.c ****         lv_obj_mark_layout_as_dirty(lv_obj_get_parent(obj));
 2561              		.loc 1 288 7 view .LVU872
 2562 0028 B042     		cmp	r0, r6
 2563 002a 02D1     		bne	.L144
 288:Drivers/lvgl/src/core/lv_obj.c ****         lv_obj_mark_layout_as_dirty(lv_obj_get_parent(obj));
 2564              		.loc 1 288 60 discriminator 1 view .LVU873
 2565 002c 15F0C07F 		tst	r5, #25165824
 2566 0030 04D0     		beq	.L141
 2567              	.L144:
 289:Drivers/lvgl/src/core/lv_obj.c ****     }
 2568              		.loc 1 289 9 is_stmt 1 view .LVU874
 2569 0032 2046     		mov	r0, r4
 2570 0034 FFF7FEFF 		bl	lv_obj_get_parent
 2571              	.LVL263:
 2572 0038 FFF7FEFF 		bl	lv_obj_mark_layout_as_dirty
 2573              	.LVL264:
 2574              	.L141:
 292:Drivers/lvgl/src/core/lv_obj.c **** 
 2575              		.loc 1 292 1 is_stmt 0 view .LVU875
 2576 003c 04B0     		add	sp, sp, #16
 2577              		.cfi_remember_state
 2578              		.cfi_def_cfa_offset 16
 2579              		@ sp needed
 2580 003e 70BD     		pop	{r4, r5, r6, pc}
 2581              	.LVL265:
ARM GAS  /var/folders/0z/tsy30v1j4xl4_7kw94k978ww0000gn/T//ccVt8IXl.s 			page 96


 2582              	.L147:
 2583              		.cfi_restore_state
 2584              	.LBB196:
 272:Drivers/lvgl/src/core/lv_obj.c ****         lv_obj_get_scrollbar_area(obj, &hor_area, &ver_area);
 2585              		.loc 1 272 9 is_stmt 1 view .LVU876
 273:Drivers/lvgl/src/core/lv_obj.c ****         lv_obj_invalidate_area(obj, &hor_area);
 2586              		.loc 1 273 9 view .LVU877
 2587 0040 02AA     		add	r2, sp, #8
 2588 0042 6946     		mov	r1, sp
 2589 0044 2046     		mov	r0, r4
 2590 0046 FFF7FEFF 		bl	lv_obj_get_scrollbar_area
 2591              	.LVL266:
 274:Drivers/lvgl/src/core/lv_obj.c ****         lv_obj_invalidate_area(obj, &ver_area);
 2592              		.loc 1 274 9 view .LVU878
 2593 004a 6946     		mov	r1, sp
 2594 004c 2046     		mov	r0, r4
 2595 004e FFF7FEFF 		bl	lv_obj_invalidate_area
 2596              	.LVL267:
 275:Drivers/lvgl/src/core/lv_obj.c ****     }
 2597              		.loc 1 275 9 view .LVU879
 2598 0052 02A9     		add	r1, sp, #8
 2599 0054 2046     		mov	r0, r4
 2600 0056 FFF7FEFF 		bl	lv_obj_invalidate_area
 2601              	.LVL268:
 2602 005a DBE7     		b	.L142
 2603              	.L148:
 275:Drivers/lvgl/src/core/lv_obj.c ****     }
 2604              		.loc 1 275 9 is_stmt 0 view .LVU880
 2605              	.LBE196:
 281:Drivers/lvgl/src/core/lv_obj.c ****         if(lv_obj_is_layout_positioned(obj)) {
 2606              		.loc 1 281 9 is_stmt 1 view .LVU881
 2607 005c 2046     		mov	r0, r4
 2608 005e FFF7FEFF 		bl	lv_obj_invalidate
 2609              	.LVL269:
 282:Drivers/lvgl/src/core/lv_obj.c ****             lv_obj_mark_layout_as_dirty(lv_obj_get_parent(obj));
 2610              		.loc 1 282 9 view .LVU882
 282:Drivers/lvgl/src/core/lv_obj.c ****             lv_obj_mark_layout_as_dirty(lv_obj_get_parent(obj));
 2611              		.loc 1 282 12 is_stmt 0 view .LVU883
 2612 0062 2046     		mov	r0, r4
 2613 0064 FFF7FEFF 		bl	lv_obj_is_layout_positioned
 2614              	.LVL270:
 282:Drivers/lvgl/src/core/lv_obj.c ****             lv_obj_mark_layout_as_dirty(lv_obj_get_parent(obj));
 2615              		.loc 1 282 11 view .LVU884
 2616 0068 0028     		cmp	r0, #0
 2617 006a DAD0     		beq	.L143
 283:Drivers/lvgl/src/core/lv_obj.c ****             lv_obj_mark_layout_as_dirty(obj);
 2618              		.loc 1 283 13 is_stmt 1 view .LVU885
 2619 006c 2046     		mov	r0, r4
 2620 006e FFF7FEFF 		bl	lv_obj_get_parent
 2621              	.LVL271:
 2622 0072 FFF7FEFF 		bl	lv_obj_mark_layout_as_dirty
 2623              	.LVL272:
 284:Drivers/lvgl/src/core/lv_obj.c ****         }
 2624              		.loc 1 284 13 view .LVU886
 2625 0076 2046     		mov	r0, r4
 2626 0078 FFF7FEFF 		bl	lv_obj_mark_layout_as_dirty
 2627              	.LVL273:
ARM GAS  /var/folders/0z/tsy30v1j4xl4_7kw94k978ww0000gn/T//ccVt8IXl.s 			page 97


 2628 007c D1E7     		b	.L143
 2629              		.cfi_endproc
 2630              	.LFE209:
 2632              		.section	.text.lv_obj_add_state,"ax",%progbits
 2633              		.align	1
 2634              		.global	lv_obj_add_state
 2635              		.syntax unified
 2636              		.thumb
 2637              		.thumb_func
 2639              	lv_obj_add_state:
 2640              	.LVL274:
 2641              	.LFB210:
 295:Drivers/lvgl/src/core/lv_obj.c ****     LV_ASSERT_OBJ(obj, MY_CLASS);
 2642              		.loc 1 295 1 view -0
 2643              		.cfi_startproc
 2644              		@ args = 0, pretend = 0, frame = 0
 2645              		@ frame_needed = 0, uses_anonymous_args = 0
 295:Drivers/lvgl/src/core/lv_obj.c ****     LV_ASSERT_OBJ(obj, MY_CLASS);
 2646              		.loc 1 295 1 is_stmt 0 view .LVU888
 2647 0000 08B5     		push	{r3, lr}
 2648              		.cfi_def_cfa_offset 8
 2649              		.cfi_offset 3, -8
 2650              		.cfi_offset 14, -4
 296:Drivers/lvgl/src/core/lv_obj.c **** 
 2651              		.loc 1 296 5 is_stmt 1 view .LVU889
 296:Drivers/lvgl/src/core/lv_obj.c **** 
 2652              		.loc 1 296 5 view .LVU890
 296:Drivers/lvgl/src/core/lv_obj.c **** 
 2653              		.loc 1 296 5 view .LVU891
 298:Drivers/lvgl/src/core/lv_obj.c ****     if(obj->state != new_state) {
 2654              		.loc 1 298 5 view .LVU892
 298:Drivers/lvgl/src/core/lv_obj.c ****     if(obj->state != new_state) {
 2655              		.loc 1 298 31 is_stmt 0 view .LVU893
 2656 0002 038C     		ldrh	r3, [r0, #32]
 298:Drivers/lvgl/src/core/lv_obj.c ****     if(obj->state != new_state) {
 2657              		.loc 1 298 16 view .LVU894
 2658 0004 43EA0102 		orr	r2, r3, r1
 2659              	.LVL275:
 299:Drivers/lvgl/src/core/lv_obj.c ****         lv_obj_set_state(obj, new_state);
 2660              		.loc 1 299 5 is_stmt 1 view .LVU895
 299:Drivers/lvgl/src/core/lv_obj.c ****         lv_obj_set_state(obj, new_state);
 2661              		.loc 1 299 7 is_stmt 0 view .LVU896
 2662 0008 31EA0303 		bics	r3, r1, r3
 2663 000c 00D1     		bne	.L152
 2664              	.LVL276:
 2665              	.L149:
 302:Drivers/lvgl/src/core/lv_obj.c **** 
 2666              		.loc 1 302 1 view .LVU897
 2667 000e 08BD     		pop	{r3, pc}
 2668              	.LVL277:
 2669              	.L152:
 300:Drivers/lvgl/src/core/lv_obj.c ****     }
 2670              		.loc 1 300 9 is_stmt 1 view .LVU898
 2671 0010 1146     		mov	r1, r2
 2672              	.LVL278:
 300:Drivers/lvgl/src/core/lv_obj.c ****     }
 2673              		.loc 1 300 9 is_stmt 0 view .LVU899
ARM GAS  /var/folders/0z/tsy30v1j4xl4_7kw94k978ww0000gn/T//ccVt8IXl.s 			page 98


 2674 0012 FFF7FEFF 		bl	lv_obj_set_state
 2675              	.LVL279:
 302:Drivers/lvgl/src/core/lv_obj.c **** 
 2676              		.loc 1 302 1 view .LVU900
 2677 0016 FAE7     		b	.L149
 2678              		.cfi_endproc
 2679              	.LFE210:
 2681              		.section	.text.lv_obj_clear_state,"ax",%progbits
 2682              		.align	1
 2683              		.global	lv_obj_clear_state
 2684              		.syntax unified
 2685              		.thumb
 2686              		.thumb_func
 2688              	lv_obj_clear_state:
 2689              	.LVL280:
 2690              	.LFB211:
 305:Drivers/lvgl/src/core/lv_obj.c ****     LV_ASSERT_OBJ(obj, MY_CLASS);
 2691              		.loc 1 305 1 is_stmt 1 view -0
 2692              		.cfi_startproc
 2693              		@ args = 0, pretend = 0, frame = 0
 2694              		@ frame_needed = 0, uses_anonymous_args = 0
 305:Drivers/lvgl/src/core/lv_obj.c ****     LV_ASSERT_OBJ(obj, MY_CLASS);
 2695              		.loc 1 305 1 is_stmt 0 view .LVU902
 2696 0000 08B5     		push	{r3, lr}
 2697              		.cfi_def_cfa_offset 8
 2698              		.cfi_offset 3, -8
 2699              		.cfi_offset 14, -4
 306:Drivers/lvgl/src/core/lv_obj.c **** 
 2700              		.loc 1 306 5 is_stmt 1 view .LVU903
 306:Drivers/lvgl/src/core/lv_obj.c **** 
 2701              		.loc 1 306 5 view .LVU904
 306:Drivers/lvgl/src/core/lv_obj.c **** 
 2702              		.loc 1 306 5 view .LVU905
 308:Drivers/lvgl/src/core/lv_obj.c ****     if(obj->state != new_state) {
 2703              		.loc 1 308 5 view .LVU906
 308:Drivers/lvgl/src/core/lv_obj.c ****     if(obj->state != new_state) {
 2704              		.loc 1 308 31 is_stmt 0 view .LVU907
 2705 0002 028C     		ldrh	r2, [r0, #32]
 308:Drivers/lvgl/src/core/lv_obj.c ****     if(obj->state != new_state) {
 2706              		.loc 1 308 39 view .LVU908
 2707 0004 CB43     		mvns	r3, r1
 2708 0006 1BB2     		sxth	r3, r3
 308:Drivers/lvgl/src/core/lv_obj.c ****     if(obj->state != new_state) {
 2709              		.loc 1 308 16 view .LVU909
 2710 0008 02EA0301 		and	r1, r2, r3
 2711              	.LVL281:
 309:Drivers/lvgl/src/core/lv_obj.c ****         lv_obj_set_state(obj, new_state);
 2712              		.loc 1 309 5 is_stmt 1 view .LVU910
 309:Drivers/lvgl/src/core/lv_obj.c ****         lv_obj_set_state(obj, new_state);
 2713              		.loc 1 309 7 is_stmt 0 view .LVU911
 2714 000c 9A43     		bics	r2, r2, r3
 2715 000e 00D1     		bne	.L156
 2716              	.LVL282:
 2717              	.L153:
 312:Drivers/lvgl/src/core/lv_obj.c **** 
 2718              		.loc 1 312 1 view .LVU912
 2719 0010 08BD     		pop	{r3, pc}
ARM GAS  /var/folders/0z/tsy30v1j4xl4_7kw94k978ww0000gn/T//ccVt8IXl.s 			page 99


 2720              	.LVL283:
 2721              	.L156:
 310:Drivers/lvgl/src/core/lv_obj.c ****     }
 2722              		.loc 1 310 9 is_stmt 1 view .LVU913
 2723 0012 FFF7FEFF 		bl	lv_obj_set_state
 2724              	.LVL284:
 312:Drivers/lvgl/src/core/lv_obj.c **** 
 2725              		.loc 1 312 1 is_stmt 0 view .LVU914
 2726 0016 FBE7     		b	.L153
 2727              		.cfi_endproc
 2728              	.LFE211:
 2730              		.section	.text.lv_obj_has_flag,"ax",%progbits
 2731              		.align	1
 2732              		.global	lv_obj_has_flag
 2733              		.syntax unified
 2734              		.thumb
 2735              		.thumb_func
 2737              	lv_obj_has_flag:
 2738              	.LVL285:
 2739              	.LFB212:
 319:Drivers/lvgl/src/core/lv_obj.c ****     LV_ASSERT_OBJ(obj, MY_CLASS);
 2740              		.loc 1 319 1 is_stmt 1 view -0
 2741              		.cfi_startproc
 2742              		@ args = 0, pretend = 0, frame = 0
 2743              		@ frame_needed = 0, uses_anonymous_args = 0
 2744              		@ link register save eliminated.
 320:Drivers/lvgl/src/core/lv_obj.c **** 
 2745              		.loc 1 320 5 view .LVU916
 320:Drivers/lvgl/src/core/lv_obj.c **** 
 2746              		.loc 1 320 5 view .LVU917
 320:Drivers/lvgl/src/core/lv_obj.c **** 
 2747              		.loc 1 320 5 view .LVU918
 322:Drivers/lvgl/src/core/lv_obj.c **** }
 2748              		.loc 1 322 5 view .LVU919
 322:Drivers/lvgl/src/core/lv_obj.c **** }
 2749              		.loc 1 322 16 is_stmt 0 view .LVU920
 2750 0000 C369     		ldr	r3, [r0, #28]
 322:Drivers/lvgl/src/core/lv_obj.c **** }
 2751              		.loc 1 322 42 view .LVU921
 2752 0002 9943     		bics	r1, r1, r3
 2753              	.LVL286:
 323:Drivers/lvgl/src/core/lv_obj.c **** 
 2754              		.loc 1 323 1 view .LVU922
 2755 0004 0CBF     		ite	eq
 2756 0006 0120     		moveq	r0, #1
 2757              	.LVL287:
 323:Drivers/lvgl/src/core/lv_obj.c **** 
 2758              		.loc 1 323 1 view .LVU923
 2759 0008 0020     		movne	r0, #0
 2760 000a 7047     		bx	lr
 2761              		.cfi_endproc
 2762              	.LFE212:
 2764              		.section	.text.lv_obj_has_flag_any,"ax",%progbits
 2765              		.align	1
 2766              		.global	lv_obj_has_flag_any
 2767              		.syntax unified
 2768              		.thumb
ARM GAS  /var/folders/0z/tsy30v1j4xl4_7kw94k978ww0000gn/T//ccVt8IXl.s 			page 100


 2769              		.thumb_func
 2771              	lv_obj_has_flag_any:
 2772              	.LVL288:
 2773              	.LFB213:
 326:Drivers/lvgl/src/core/lv_obj.c ****     LV_ASSERT_OBJ(obj, MY_CLASS);
 2774              		.loc 1 326 1 is_stmt 1 view -0
 2775              		.cfi_startproc
 2776              		@ args = 0, pretend = 0, frame = 0
 2777              		@ frame_needed = 0, uses_anonymous_args = 0
 2778              		@ link register save eliminated.
 327:Drivers/lvgl/src/core/lv_obj.c **** 
 2779              		.loc 1 327 5 view .LVU925
 327:Drivers/lvgl/src/core/lv_obj.c **** 
 2780              		.loc 1 327 5 view .LVU926
 327:Drivers/lvgl/src/core/lv_obj.c **** 
 2781              		.loc 1 327 5 view .LVU927
 329:Drivers/lvgl/src/core/lv_obj.c **** }
 2782              		.loc 1 329 5 view .LVU928
 329:Drivers/lvgl/src/core/lv_obj.c **** }
 2783              		.loc 1 329 16 is_stmt 0 view .LVU929
 2784 0000 C369     		ldr	r3, [r0, #28]
 329:Drivers/lvgl/src/core/lv_obj.c **** }
 2785              		.loc 1 329 36 view .LVU930
 2786 0002 0B42     		tst	r3, r1
 330:Drivers/lvgl/src/core/lv_obj.c **** 
 2787              		.loc 1 330 1 view .LVU931
 2788 0004 14BF     		ite	ne
 2789 0006 0120     		movne	r0, #1
 2790              	.LVL289:
 330:Drivers/lvgl/src/core/lv_obj.c **** 
 2791              		.loc 1 330 1 view .LVU932
 2792 0008 0020     		moveq	r0, #0
 2793 000a 7047     		bx	lr
 2794              		.cfi_endproc
 2795              	.LFE213:
 2797              		.section	.text.lv_obj_get_state,"ax",%progbits
 2798              		.align	1
 2799              		.global	lv_obj_get_state
 2800              		.syntax unified
 2801              		.thumb
 2802              		.thumb_func
 2804              	lv_obj_get_state:
 2805              	.LVL290:
 2806              	.LFB214:
 333:Drivers/lvgl/src/core/lv_obj.c ****     LV_ASSERT_OBJ(obj, MY_CLASS);
 2807              		.loc 1 333 1 is_stmt 1 view -0
 2808              		.cfi_startproc
 2809              		@ args = 0, pretend = 0, frame = 0
 2810              		@ frame_needed = 0, uses_anonymous_args = 0
 2811              		@ link register save eliminated.
 334:Drivers/lvgl/src/core/lv_obj.c **** 
 2812              		.loc 1 334 5 view .LVU934
 334:Drivers/lvgl/src/core/lv_obj.c **** 
 2813              		.loc 1 334 5 view .LVU935
 334:Drivers/lvgl/src/core/lv_obj.c **** 
 2814              		.loc 1 334 5 view .LVU936
 336:Drivers/lvgl/src/core/lv_obj.c **** }
ARM GAS  /var/folders/0z/tsy30v1j4xl4_7kw94k978ww0000gn/T//ccVt8IXl.s 			page 101


 2815              		.loc 1 336 5 view .LVU937
 337:Drivers/lvgl/src/core/lv_obj.c **** 
 2816              		.loc 1 337 1 is_stmt 0 view .LVU938
 2817 0000 008C     		ldrh	r0, [r0, #32]
 2818              	.LVL291:
 337:Drivers/lvgl/src/core/lv_obj.c **** 
 2819              		.loc 1 337 1 view .LVU939
 2820 0002 7047     		bx	lr
 2821              		.cfi_endproc
 2822              	.LFE214:
 2824              		.section	.text.lv_obj_has_state,"ax",%progbits
 2825              		.align	1
 2826              		.global	lv_obj_has_state
 2827              		.syntax unified
 2828              		.thumb
 2829              		.thumb_func
 2831              	lv_obj_has_state:
 2832              	.LVL292:
 2833              	.LFB215:
 340:Drivers/lvgl/src/core/lv_obj.c ****     LV_ASSERT_OBJ(obj, MY_CLASS);
 2834              		.loc 1 340 1 is_stmt 1 view -0
 2835              		.cfi_startproc
 2836              		@ args = 0, pretend = 0, frame = 0
 2837              		@ frame_needed = 0, uses_anonymous_args = 0
 2838              		@ link register save eliminated.
 341:Drivers/lvgl/src/core/lv_obj.c **** 
 2839              		.loc 1 341 5 view .LVU941
 341:Drivers/lvgl/src/core/lv_obj.c **** 
 2840              		.loc 1 341 5 view .LVU942
 341:Drivers/lvgl/src/core/lv_obj.c **** 
 2841              		.loc 1 341 5 view .LVU943
 343:Drivers/lvgl/src/core/lv_obj.c **** }
 2842              		.loc 1 343 5 view .LVU944
 343:Drivers/lvgl/src/core/lv_obj.c **** }
 2843              		.loc 1 343 15 is_stmt 0 view .LVU945
 2844 0000 038C     		ldrh	r3, [r0, #32]
 343:Drivers/lvgl/src/core/lv_obj.c **** }
 2845              		.loc 1 343 38 view .LVU946
 2846 0002 0B42     		tst	r3, r1
 344:Drivers/lvgl/src/core/lv_obj.c **** 
 2847              		.loc 1 344 1 view .LVU947
 2848 0004 14BF     		ite	ne
 2849 0006 0120     		movne	r0, #1
 2850              	.LVL293:
 344:Drivers/lvgl/src/core/lv_obj.c **** 
 2851              		.loc 1 344 1 view .LVU948
 2852 0008 0020     		moveq	r0, #0
 2853 000a 7047     		bx	lr
 2854              		.cfi_endproc
 2855              	.LFE215:
 2857              		.section	.text.lv_obj_get_group,"ax",%progbits
 2858              		.align	1
 2859              		.global	lv_obj_get_group
 2860              		.syntax unified
 2861              		.thumb
 2862              		.thumb_func
 2864              	lv_obj_get_group:
ARM GAS  /var/folders/0z/tsy30v1j4xl4_7kw94k978ww0000gn/T//ccVt8IXl.s 			page 102


 2865              	.LVL294:
 2866              	.LFB216:
 347:Drivers/lvgl/src/core/lv_obj.c ****     LV_ASSERT_OBJ(obj, MY_CLASS);
 2867              		.loc 1 347 1 is_stmt 1 view -0
 2868              		.cfi_startproc
 2869              		@ args = 0, pretend = 0, frame = 0
 2870              		@ frame_needed = 0, uses_anonymous_args = 0
 2871              		@ link register save eliminated.
 348:Drivers/lvgl/src/core/lv_obj.c **** 
 2872              		.loc 1 348 5 view .LVU950
 348:Drivers/lvgl/src/core/lv_obj.c **** 
 2873              		.loc 1 348 5 view .LVU951
 348:Drivers/lvgl/src/core/lv_obj.c **** 
 2874              		.loc 1 348 5 view .LVU952
 350:Drivers/lvgl/src/core/lv_obj.c ****     else return NULL;
 2875              		.loc 1 350 5 view .LVU953
 350:Drivers/lvgl/src/core/lv_obj.c ****     else return NULL;
 2876              		.loc 1 350 11 is_stmt 0 view .LVU954
 2877 0000 8068     		ldr	r0, [r0, #8]
 2878              	.LVL295:
 350:Drivers/lvgl/src/core/lv_obj.c ****     else return NULL;
 2879              		.loc 1 350 7 view .LVU955
 2880 0002 00B1     		cbz	r0, .L161
 350:Drivers/lvgl/src/core/lv_obj.c ****     else return NULL;
 2881              		.loc 1 350 24 is_stmt 1 discriminator 1 view .LVU956
 350:Drivers/lvgl/src/core/lv_obj.c ****     else return NULL;
 2882              		.loc 1 350 45 is_stmt 0 discriminator 1 view .LVU957
 2883 0004 8068     		ldr	r0, [r0, #8]
 2884              	.L161:
 352:Drivers/lvgl/src/core/lv_obj.c **** 
 2885              		.loc 1 352 1 view .LVU958
 2886 0006 7047     		bx	lr
 2887              		.cfi_endproc
 2888              	.LFE216:
 2890              		.section	.text.lv_obj_event,"ax",%progbits
 2891              		.align	1
 2892              		.syntax unified
 2893              		.thumb
 2894              		.thumb_func
 2896              	lv_obj_event:
 2897              	.LVL296:
 2898              	.LFB227:
 726:Drivers/lvgl/src/core/lv_obj.c ****     LV_UNUSED(class_p);
 2899              		.loc 1 726 1 is_stmt 1 view -0
 2900              		.cfi_startproc
 2901              		@ args = 0, pretend = 0, frame = 16
 2902              		@ frame_needed = 0, uses_anonymous_args = 0
 726:Drivers/lvgl/src/core/lv_obj.c ****     LV_UNUSED(class_p);
 2903              		.loc 1 726 1 is_stmt 0 view .LVU960
 2904 0000 F0B5     		push	{r4, r5, r6, r7, lr}
 2905              		.cfi_def_cfa_offset 20
 2906              		.cfi_offset 4, -20
 2907              		.cfi_offset 5, -16
 2908              		.cfi_offset 6, -12
 2909              		.cfi_offset 7, -8
 2910              		.cfi_offset 14, -4
 2911 0002 85B0     		sub	sp, sp, #20
ARM GAS  /var/folders/0z/tsy30v1j4xl4_7kw94k978ww0000gn/T//ccVt8IXl.s 			page 103


 2912              		.cfi_def_cfa_offset 40
 2913 0004 0E46     		mov	r6, r1
 727:Drivers/lvgl/src/core/lv_obj.c **** 
 2914              		.loc 1 727 5 is_stmt 1 view .LVU961
 729:Drivers/lvgl/src/core/lv_obj.c ****     lv_obj_t * obj = lv_event_get_current_target(e);
 2915              		.loc 1 729 5 view .LVU962
 729:Drivers/lvgl/src/core/lv_obj.c ****     lv_obj_t * obj = lv_event_get_current_target(e);
 2916              		.loc 1 729 28 is_stmt 0 view .LVU963
 2917 0006 0846     		mov	r0, r1
 2918              	.LVL297:
 729:Drivers/lvgl/src/core/lv_obj.c ****     lv_obj_t * obj = lv_event_get_current_target(e);
 2919              		.loc 1 729 28 view .LVU964
 2920 0008 FFF7FEFF 		bl	lv_event_get_code
 2921              	.LVL298:
 729:Drivers/lvgl/src/core/lv_obj.c ****     lv_obj_t * obj = lv_event_get_current_target(e);
 2922              		.loc 1 729 28 view .LVU965
 2923 000c 0446     		mov	r4, r0
 2924              	.LVL299:
 730:Drivers/lvgl/src/core/lv_obj.c ****     if(code == LV_EVENT_PRESSED) {
 2925              		.loc 1 730 5 is_stmt 1 view .LVU966
 730:Drivers/lvgl/src/core/lv_obj.c ****     if(code == LV_EVENT_PRESSED) {
 2926              		.loc 1 730 22 is_stmt 0 view .LVU967
 2927 000e 3046     		mov	r0, r6
 2928 0010 FFF7FEFF 		bl	lv_event_get_current_target
 2929              	.LVL300:
 2930 0014 0546     		mov	r5, r0
 2931              	.LVL301:
 731:Drivers/lvgl/src/core/lv_obj.c ****         lv_obj_add_state(obj, LV_STATE_PRESSED);
 2932              		.loc 1 731 5 is_stmt 1 view .LVU968
 731:Drivers/lvgl/src/core/lv_obj.c ****         lv_obj_add_state(obj, LV_STATE_PRESSED);
 2933              		.loc 1 731 7 is_stmt 0 view .LVU969
 2934 0016 012C     		cmp	r4, #1
 2935 0018 2CD0     		beq	.L215
 734:Drivers/lvgl/src/core/lv_obj.c ****         lv_obj_clear_state(obj, LV_STATE_PRESSED);
 2936              		.loc 1 734 10 is_stmt 1 view .LVU970
 2937 001a 033C     		subs	r4, r4, #3
 2938              	.LVL302:
 734:Drivers/lvgl/src/core/lv_obj.c ****         lv_obj_clear_state(obj, LV_STATE_PRESSED);
 2939              		.loc 1 734 10 is_stmt 0 view .LVU971
 2940 001c 272C     		cmp	r4, #39
 2941 001e 2CD8     		bhi	.L163
 2942 0020 DFE814F0 		tbh	[pc, r4, lsl #1]
 2943              	.L167:
 2944 0024 5200     		.2byte	(.L179-.L167)/2
 2945 0026 2B00     		.2byte	(.L163-.L167)/2
 2946 0028 2B00     		.2byte	(.L163-.L167)/2
 2947 002a 2B00     		.2byte	(.L163-.L167)/2
 2948 002c 2B00     		.2byte	(.L163-.L167)/2
 2949 002e 2D00     		.2byte	(.L178-.L167)/2
 2950 0030 6701     		.2byte	(.L177-.L167)/2
 2951 0032 6B01     		.2byte	(.L176-.L167)/2
 2952 0034 2B00     		.2byte	(.L163-.L167)/2
 2953 0036 2B00     		.2byte	(.L163-.L167)/2
 2954 0038 6400     		.2byte	(.L175-.L167)/2
 2955 003a 3601     		.2byte	(.L174-.L167)/2
 2956 003c 8201     		.2byte	(.L173-.L167)/2
 2957 003e 2B00     		.2byte	(.L163-.L167)/2
ARM GAS  /var/folders/0z/tsy30v1j4xl4_7kw94k978ww0000gn/T//ccVt8IXl.s 			page 104


 2958 0040 2B00     		.2byte	(.L163-.L167)/2
 2959 0042 DB01     		.2byte	(.L171-.L167)/2
 2960 0044 D301     		.2byte	(.L172-.L167)/2
 2961 0046 2B00     		.2byte	(.L163-.L167)/2
 2962 0048 DB01     		.2byte	(.L171-.L167)/2
 2963 004a 2B00     		.2byte	(.L163-.L167)/2
 2964 004c 2B00     		.2byte	(.L163-.L167)/2
 2965 004e DB01     		.2byte	(.L171-.L167)/2
 2966 0050 2B00     		.2byte	(.L163-.L167)/2
 2967 0052 2B00     		.2byte	(.L163-.L167)/2
 2968 0054 2B00     		.2byte	(.L163-.L167)/2
 2969 0056 2B00     		.2byte	(.L163-.L167)/2
 2970 0058 2B00     		.2byte	(.L163-.L167)/2
 2971 005a 2B00     		.2byte	(.L163-.L167)/2
 2972 005c 2B00     		.2byte	(.L163-.L167)/2
 2973 005e 2B00     		.2byte	(.L163-.L167)/2
 2974 0060 2B00     		.2byte	(.L163-.L167)/2
 2975 0062 A601     		.2byte	(.L170-.L167)/2
 2976 0064 2B00     		.2byte	(.L163-.L167)/2
 2977 0066 CA01     		.2byte	(.L169-.L167)/2
 2978 0068 2B00     		.2byte	(.L163-.L167)/2
 2979 006a 2B00     		.2byte	(.L163-.L167)/2
 2980 006c 2B00     		.2byte	(.L163-.L167)/2
 2981 006e 2B00     		.2byte	(.L163-.L167)/2
 2982 0070 8601     		.2byte	(.L168-.L167)/2
 2983 0072 5600     		.2byte	(.L166-.L167)/2
 2984              	.LVL303:
 2985              		.p2align 1
 2986              	.L215:
 732:Drivers/lvgl/src/core/lv_obj.c ****     }
 2987              		.loc 1 732 9 is_stmt 1 view .LVU972
 2988 0074 2021     		movs	r1, #32
 2989 0076 FFF7FEFF 		bl	lv_obj_add_state
 2990              	.LVL304:
 2991              	.L163:
 876:Drivers/lvgl/src/core/lv_obj.c **** 
 2992              		.loc 1 876 1 is_stmt 0 view .LVU973
 2993 007a 05B0     		add	sp, sp, #20
 2994              		.cfi_remember_state
 2995              		.cfi_def_cfa_offset 20
 2996              		@ sp needed
 2997 007c F0BD     		pop	{r4, r5, r6, r7, pc}
 2998              	.LVL305:
 2999              	.L178:
 3000              		.cfi_restore_state
 3001              	.LBB197:
 735:Drivers/lvgl/src/core/lv_obj.c ****         lv_indev_t * indev = lv_event_get_indev(e);
 3002              		.loc 1 735 9 is_stmt 1 view .LVU974
 3003 007e 2021     		movs	r1, #32
 3004 0080 FFF7FEFF 		bl	lv_obj_clear_state
 3005              	.LVL306:
 736:Drivers/lvgl/src/core/lv_obj.c ****         /*Go the checked state if enabled*/
 3006              		.loc 1 736 9 view .LVU975
 736:Drivers/lvgl/src/core/lv_obj.c ****         /*Go the checked state if enabled*/
 3007              		.loc 1 736 30 is_stmt 0 view .LVU976
 3008 0084 3046     		mov	r0, r6
 3009 0086 FFF7FEFF 		bl	lv_event_get_indev
ARM GAS  /var/folders/0z/tsy30v1j4xl4_7kw94k978ww0000gn/T//ccVt8IXl.s 			page 105


 3010              	.LVL307:
 738:Drivers/lvgl/src/core/lv_obj.c ****             if(!(lv_obj_get_state(obj) & LV_STATE_CHECKED)) lv_obj_add_state(obj, LV_STATE_CHECKED)
 3011              		.loc 1 738 9 is_stmt 1 view .LVU977
 738:Drivers/lvgl/src/core/lv_obj.c ****             if(!(lv_obj_get_state(obj) & LV_STATE_CHECKED)) lv_obj_add_state(obj, LV_STATE_CHECKED)
 3012              		.loc 1 738 12 is_stmt 0 view .LVU978
 3013 008a FFF7FEFF 		bl	lv_indev_get_scroll_obj
 3014              	.LVL308:
 738:Drivers/lvgl/src/core/lv_obj.c ****             if(!(lv_obj_get_state(obj) & LV_STATE_CHECKED)) lv_obj_add_state(obj, LV_STATE_CHECKED)
 3015              		.loc 1 738 11 view .LVU979
 3016 008e 0028     		cmp	r0, #0
 3017 0090 F3D1     		bne	.L163
 738:Drivers/lvgl/src/core/lv_obj.c ****             if(!(lv_obj_get_state(obj) & LV_STATE_CHECKED)) lv_obj_add_state(obj, LV_STATE_CHECKED)
 3018              		.loc 1 738 54 discriminator 1 view .LVU980
 3019 0092 0821     		movs	r1, #8
 3020 0094 2846     		mov	r0, r5
 3021 0096 FFF7FEFF 		bl	lv_obj_has_flag
 3022              	.LVL309:
 738:Drivers/lvgl/src/core/lv_obj.c ****             if(!(lv_obj_get_state(obj) & LV_STATE_CHECKED)) lv_obj_add_state(obj, LV_STATE_CHECKED)
 3023              		.loc 1 738 51 discriminator 1 view .LVU981
 3024 009a 0028     		cmp	r0, #0
 3025 009c EDD0     		beq	.L163
 3026              	.LBB198:
 739:Drivers/lvgl/src/core/lv_obj.c ****             else lv_obj_clear_state(obj, LV_STATE_CHECKED);
 3027              		.loc 1 739 13 is_stmt 1 view .LVU982
 739:Drivers/lvgl/src/core/lv_obj.c ****             else lv_obj_clear_state(obj, LV_STATE_CHECKED);
 3028              		.loc 1 739 18 is_stmt 0 view .LVU983
 3029 009e 2846     		mov	r0, r5
 3030 00a0 FFF7FEFF 		bl	lv_obj_get_state
 3031              	.LVL310:
 739:Drivers/lvgl/src/core/lv_obj.c ****             else lv_obj_clear_state(obj, LV_STATE_CHECKED);
 3032              		.loc 1 739 15 view .LVU984
 3033 00a4 10F0010F 		tst	r0, #1
 3034 00a8 09D1     		bne	.L180
 739:Drivers/lvgl/src/core/lv_obj.c ****             else lv_obj_clear_state(obj, LV_STATE_CHECKED);
 3035              		.loc 1 739 61 is_stmt 1 discriminator 1 view .LVU985
 3036 00aa 0121     		movs	r1, #1
 3037 00ac 2846     		mov	r0, r5
 3038 00ae FFF7FEFF 		bl	lv_obj_add_state
 3039              	.LVL311:
 3040              	.L181:
 742:Drivers/lvgl/src/core/lv_obj.c ****             if(res != LV_RES_OK) return;
 3041              		.loc 1 742 13 view .LVU986
 742:Drivers/lvgl/src/core/lv_obj.c ****             if(res != LV_RES_OK) return;
 3042              		.loc 1 742 28 is_stmt 0 view .LVU987
 3043 00b2 0022     		movs	r2, #0
 3044 00b4 1C21     		movs	r1, #28
 3045 00b6 2846     		mov	r0, r5
 3046 00b8 FFF7FEFF 		bl	lv_event_send
 3047              	.LVL312:
 743:Drivers/lvgl/src/core/lv_obj.c ****         }
 3048              		.loc 1 743 13 is_stmt 1 view .LVU988
 3049 00bc DDE7     		b	.L163
 3050              	.L180:
 740:Drivers/lvgl/src/core/lv_obj.c **** 
 3051              		.loc 1 740 18 view .LVU989
 3052 00be 0121     		movs	r1, #1
 3053 00c0 2846     		mov	r0, r5
ARM GAS  /var/folders/0z/tsy30v1j4xl4_7kw94k978ww0000gn/T//ccVt8IXl.s 			page 106


 3054 00c2 FFF7FEFF 		bl	lv_obj_clear_state
 3055              	.LVL313:
 3056 00c6 F4E7     		b	.L181
 3057              	.LVL314:
 3058              	.L179:
 740:Drivers/lvgl/src/core/lv_obj.c **** 
 3059              		.loc 1 740 18 is_stmt 0 view .LVU990
 3060              	.LBE198:
 3061              	.LBE197:
 747:Drivers/lvgl/src/core/lv_obj.c ****     }
 3062              		.loc 1 747 9 is_stmt 1 view .LVU991
 3063 00c8 2021     		movs	r1, #32
 3064 00ca FFF7FEFF 		bl	lv_obj_clear_state
 3065              	.LVL315:
 747:Drivers/lvgl/src/core/lv_obj.c ****     }
 3066              		.loc 1 747 9 is_stmt 0 view .LVU992
 3067 00ce D4E7     		b	.L163
 3068              	.LVL316:
 3069              	.L166:
 3070              	.LBB199:
 750:Drivers/lvgl/src/core/lv_obj.c ****         for(uint32_t i = 0; i < child_cnt; i++) {
 3071              		.loc 1 750 9 is_stmt 1 view .LVU993
 750:Drivers/lvgl/src/core/lv_obj.c ****         for(uint32_t i = 0; i < child_cnt; i++) {
 3072              		.loc 1 750 30 is_stmt 0 view .LVU994
 3073 00d0 FFF7FEFF 		bl	lv_obj_get_child_cnt
 3074              	.LVL317:
 750:Drivers/lvgl/src/core/lv_obj.c ****         for(uint32_t i = 0; i < child_cnt; i++) {
 3075              		.loc 1 750 30 view .LVU995
 3076 00d4 0646     		mov	r6, r0
 3077              	.LVL318:
 751:Drivers/lvgl/src/core/lv_obj.c ****             lv_obj_t * child = obj->spec_attr->children[i];
 3078              		.loc 1 751 9 is_stmt 1 view .LVU996
 3079              	.LBB200:
 751:Drivers/lvgl/src/core/lv_obj.c ****             lv_obj_t * child = obj->spec_attr->children[i];
 3080              		.loc 1 751 13 view .LVU997
 751:Drivers/lvgl/src/core/lv_obj.c ****             lv_obj_t * child = obj->spec_attr->children[i];
 3081              		.loc 1 751 22 is_stmt 0 view .LVU998
 3082 00d6 0024     		movs	r4, #0
 3083              	.LVL319:
 3084              	.L182:
 751:Drivers/lvgl/src/core/lv_obj.c ****             lv_obj_t * child = obj->spec_attr->children[i];
 3085              		.loc 1 751 31 is_stmt 1 discriminator 1 view .LVU999
 3086 00d8 B442     		cmp	r4, r6
 3087 00da CED2     		bcs	.L163
 3088              	.LBB201:
 752:Drivers/lvgl/src/core/lv_obj.c ****             lv_obj_mark_layout_as_dirty(child);
 3089              		.loc 1 752 13 discriminator 3 view .LVU1000
 752:Drivers/lvgl/src/core/lv_obj.c ****             lv_obj_mark_layout_as_dirty(child);
 3090              		.loc 1 752 35 is_stmt 0 discriminator 3 view .LVU1001
 3091 00dc AB68     		ldr	r3, [r5, #8]
 752:Drivers/lvgl/src/core/lv_obj.c ****             lv_obj_mark_layout_as_dirty(child);
 3092              		.loc 1 752 46 discriminator 3 view .LVU1002
 3093 00de 1B68     		ldr	r3, [r3]
 3094              	.LVL320:
 753:Drivers/lvgl/src/core/lv_obj.c ****         }
 3095              		.loc 1 753 13 is_stmt 1 discriminator 3 view .LVU1003
 3096 00e0 53F82400 		ldr	r0, [r3, r4, lsl #2]
ARM GAS  /var/folders/0z/tsy30v1j4xl4_7kw94k978ww0000gn/T//ccVt8IXl.s 			page 107


 3097 00e4 FFF7FEFF 		bl	lv_obj_mark_layout_as_dirty
 3098              	.LVL321:
 753:Drivers/lvgl/src/core/lv_obj.c ****         }
 3099              		.loc 1 753 13 is_stmt 0 discriminator 3 view .LVU1004
 3100              	.LBE201:
 751:Drivers/lvgl/src/core/lv_obj.c ****             lv_obj_t * child = obj->spec_attr->children[i];
 3101              		.loc 1 751 45 is_stmt 1 discriminator 3 view .LVU1005
 3102 00e8 0134     		adds	r4, r4, #1
 3103              	.LVL322:
 751:Drivers/lvgl/src/core/lv_obj.c ****             lv_obj_t * child = obj->spec_attr->children[i];
 3104              		.loc 1 751 45 is_stmt 0 discriminator 3 view .LVU1006
 3105 00ea F5E7     		b	.L182
 3106              	.LVL323:
 3107              	.L175:
 751:Drivers/lvgl/src/core/lv_obj.c ****             lv_obj_t * child = obj->spec_attr->children[i];
 3108              		.loc 1 751 45 discriminator 3 view .LVU1007
 3109              	.LBE200:
 3110              	.LBE199:
 757:Drivers/lvgl/src/core/lv_obj.c ****             char c = *((char *)lv_event_get_param(e));
 3111              		.loc 1 757 9 is_stmt 1 view .LVU1008
 757:Drivers/lvgl/src/core/lv_obj.c ****             char c = *((char *)lv_event_get_param(e));
 3112              		.loc 1 757 12 is_stmt 0 view .LVU1009
 3113 00ec 0821     		movs	r1, #8
 3114 00ee FFF7FEFF 		bl	lv_obj_has_flag
 3115              	.LVL324:
 757:Drivers/lvgl/src/core/lv_obj.c ****             char c = *((char *)lv_event_get_param(e));
 3116              		.loc 1 757 11 view .LVU1010
 3117 00f2 0028     		cmp	r0, #0
 3118 00f4 3ED1     		bne	.L216
 772:Drivers/lvgl/src/core/lv_obj.c ****             /*scroll by keypad or encoder*/
 3119              		.loc 1 772 14 is_stmt 1 view .LVU1011
 772:Drivers/lvgl/src/core/lv_obj.c ****             /*scroll by keypad or encoder*/
 3120              		.loc 1 772 17 is_stmt 0 view .LVU1012
 3121 00f6 4FF40161 		mov	r1, #2064
 3122 00fa 2846     		mov	r0, r5
 3123 00fc FFF7FEFF 		bl	lv_obj_has_flag
 3124              	.LVL325:
 772:Drivers/lvgl/src/core/lv_obj.c ****             /*scroll by keypad or encoder*/
 3125              		.loc 1 772 16 view .LVU1013
 3126 0100 0028     		cmp	r0, #0
 3127 0102 BAD0     		beq	.L163
 772:Drivers/lvgl/src/core/lv_obj.c ****             /*scroll by keypad or encoder*/
 3128              		.loc 1 772 98 discriminator 1 view .LVU1014
 3129 0104 2846     		mov	r0, r5
 3130 0106 FFF7FEFF 		bl	lv_obj_is_editable
 3131              	.LVL326:
 772:Drivers/lvgl/src/core/lv_obj.c ****             /*scroll by keypad or encoder*/
 3132              		.loc 1 772 94 discriminator 1 view .LVU1015
 3133 010a 0028     		cmp	r0, #0
 3134 010c B5D1     		bne	.L163
 3135              	.LBB202:
 774:Drivers/lvgl/src/core/lv_obj.c ****             lv_coord_t sl = lv_obj_get_scroll_left(obj);
 3136              		.loc 1 774 13 is_stmt 1 view .LVU1016
 3137              	.LVL327:
 775:Drivers/lvgl/src/core/lv_obj.c ****             lv_coord_t sr = lv_obj_get_scroll_right(obj);
 3138              		.loc 1 775 13 view .LVU1017
 775:Drivers/lvgl/src/core/lv_obj.c ****             lv_coord_t sr = lv_obj_get_scroll_right(obj);
ARM GAS  /var/folders/0z/tsy30v1j4xl4_7kw94k978ww0000gn/T//ccVt8IXl.s 			page 108


 3139              		.loc 1 775 29 is_stmt 0 view .LVU1018
 3140 010e 2846     		mov	r0, r5
 3141 0110 FFF7FEFF 		bl	lv_obj_get_scroll_left
 3142              	.LVL328:
 3143 0114 0746     		mov	r7, r0
 3144              	.LVL329:
 776:Drivers/lvgl/src/core/lv_obj.c ****             char c = *((char *)lv_event_get_param(e));
 3145              		.loc 1 776 13 is_stmt 1 view .LVU1019
 776:Drivers/lvgl/src/core/lv_obj.c ****             char c = *((char *)lv_event_get_param(e));
 3146              		.loc 1 776 29 is_stmt 0 view .LVU1020
 3147 0116 2846     		mov	r0, r5
 3148 0118 FFF7FEFF 		bl	lv_obj_get_scroll_right
 3149              	.LVL330:
 3150 011c 0446     		mov	r4, r0
 3151              	.LVL331:
 777:Drivers/lvgl/src/core/lv_obj.c ****             if(c == LV_KEY_DOWN) {
 3152              		.loc 1 777 13 is_stmt 1 view .LVU1021
 777:Drivers/lvgl/src/core/lv_obj.c ****             if(c == LV_KEY_DOWN) {
 3153              		.loc 1 777 32 is_stmt 0 view .LVU1022
 3154 011e 3046     		mov	r0, r6
 3155 0120 FFF7FEFF 		bl	lv_event_get_param
 3156              	.LVL332:
 777:Drivers/lvgl/src/core/lv_obj.c ****             if(c == LV_KEY_DOWN) {
 3157              		.loc 1 777 18 view .LVU1023
 3158 0124 0378     		ldrb	r3, [r0]	@ zero_extendqisi2
 3159              	.LVL333:
 778:Drivers/lvgl/src/core/lv_obj.c ****                 /*use scroll_to_x/y functions to enforce scroll limits*/
 3160              		.loc 1 778 13 is_stmt 1 view .LVU1024
 778:Drivers/lvgl/src/core/lv_obj.c ****                 /*use scroll_to_x/y functions to enforce scroll limits*/
 3161              		.loc 1 778 15 is_stmt 0 view .LVU1025
 3162 0126 122B     		cmp	r3, #18
 3163 0128 42D0     		beq	.L217
 782:Drivers/lvgl/src/core/lv_obj.c ****                 lv_obj_scroll_to_y(obj, lv_obj_get_scroll_y(obj) - lv_obj_get_height(obj) / 4, anim
 3164              		.loc 1 782 18 is_stmt 1 view .LVU1026
 782:Drivers/lvgl/src/core/lv_obj.c ****                 lv_obj_scroll_to_y(obj, lv_obj_get_scroll_y(obj) - lv_obj_get_height(obj) / 4, anim
 3165              		.loc 1 782 20 is_stmt 0 view .LVU1027
 3166 012a 112B     		cmp	r3, #17
 3167 012c 54D0     		beq	.L218
 785:Drivers/lvgl/src/core/lv_obj.c ****                 /*If the object can't be scrolled horizontally then scroll it vertically*/
 3168              		.loc 1 785 18 is_stmt 1 view .LVU1028
 785:Drivers/lvgl/src/core/lv_obj.c ****                 /*If the object can't be scrolled horizontally then scroll it vertically*/
 3169              		.loc 1 785 20 is_stmt 0 view .LVU1029
 3170 012e 132B     		cmp	r3, #19
 3171 0130 66D0     		beq	.L219
 792:Drivers/lvgl/src/core/lv_obj.c ****                 /*If the object can't be scrolled horizontally then scroll it vertically*/
 3172              		.loc 1 792 18 is_stmt 1 view .LVU1030
 792:Drivers/lvgl/src/core/lv_obj.c ****                 /*If the object can't be scrolled horizontally then scroll it vertically*/
 3173              		.loc 1 792 20 is_stmt 0 view .LVU1031
 3174 0132 142B     		cmp	r3, #20
 3175 0134 A1D1     		bne	.L163
 794:Drivers/lvgl/src/core/lv_obj.c ****                     lv_obj_scroll_to_y(obj, lv_obj_get_scroll_y(obj) - lv_obj_get_height(obj) / 4, 
 3176              		.loc 1 794 17 is_stmt 1 view .LVU1032
 794:Drivers/lvgl/src/core/lv_obj.c ****                     lv_obj_scroll_to_y(obj, lv_obj_get_scroll_y(obj) - lv_obj_get_height(obj) / 4, 
 3177              		.loc 1 794 23 is_stmt 0 view .LVU1033
 3178 0136 2846     		mov	r0, r5
 3179 0138 FFF7FEFF 		bl	lv_obj_get_scroll_dir
 3180              	.LVL334:
ARM GAS  /var/folders/0z/tsy30v1j4xl4_7kw94k978ww0000gn/T//ccVt8IXl.s 			page 109


 794:Drivers/lvgl/src/core/lv_obj.c ****                     lv_obj_scroll_to_y(obj, lv_obj_get_scroll_y(obj) - lv_obj_get_height(obj) / 4, 
 3181              		.loc 1 794 19 view .LVU1034
 3182 013c 10F0030F 		tst	r0, #3
 3183 0140 00F09080 		beq	.L198
 794:Drivers/lvgl/src/core/lv_obj.c ****                     lv_obj_scroll_to_y(obj, lv_obj_get_scroll_y(obj) - lv_obj_get_height(obj) / 4, 
 3184              		.loc 1 794 20 discriminator 1 view .LVU1035
 3185 0144 002F     		cmp	r7, #0
 3186 0146 02DC     		bgt	.L199
 794:Drivers/lvgl/src/core/lv_obj.c ****                     lv_obj_scroll_to_y(obj, lv_obj_get_scroll_y(obj) - lv_obj_get_height(obj) / 4, 
 3187              		.loc 1 794 75 discriminator 2 view .LVU1036
 3188 0148 002C     		cmp	r4, #0
 3189 014a 40F38B80 		ble	.L198
 3190              	.L199:
 797:Drivers/lvgl/src/core/lv_obj.c ****             }
 3191              		.loc 1 797 21 is_stmt 1 view .LVU1037
 797:Drivers/lvgl/src/core/lv_obj.c ****             }
 3192              		.loc 1 797 45 is_stmt 0 view .LVU1038
 3193 014e 2846     		mov	r0, r5
 3194 0150 FFF7FEFF 		bl	lv_obj_get_scroll_x
 3195              	.LVL335:
 3196 0154 84B2     		uxth	r4, r0
 3197              	.LVL336:
 797:Drivers/lvgl/src/core/lv_obj.c ****             }
 3198              		.loc 1 797 72 view .LVU1039
 3199 0156 2846     		mov	r0, r5
 3200 0158 FFF7FEFF 		bl	lv_obj_get_width
 3201              	.LVL337:
 797:Drivers/lvgl/src/core/lv_obj.c ****             }
 3202              		.loc 1 797 70 view .LVU1040
 3203 015c 0246     		mov	r2, r0
 3204 015e 0028     		cmp	r0, #0
 3205 0160 C0F29480 		blt	.L220
 3206              	.L201:
 3207 0164 A4EBA201 		sub	r1, r4, r2, asr #2
 797:Drivers/lvgl/src/core/lv_obj.c ****             }
 3208              		.loc 1 797 21 view .LVU1041
 3209 0168 0022     		movs	r2, #0
 3210 016a 09B2     		sxth	r1, r1
 3211 016c 2846     		mov	r0, r5
 3212 016e FFF7FEFF 		bl	lv_obj_scroll_to_x
 3213              	.LVL338:
 3214 0172 82E7     		b	.L163
 3215              	.LVL339:
 3216              	.L216:
 797:Drivers/lvgl/src/core/lv_obj.c ****             }
 3217              		.loc 1 797 21 view .LVU1042
 3218              	.LBE202:
 3219              	.LBB203:
 758:Drivers/lvgl/src/core/lv_obj.c ****             if(c == LV_KEY_RIGHT || c == LV_KEY_UP) {
 3220              		.loc 1 758 13 is_stmt 1 view .LVU1043
 758:Drivers/lvgl/src/core/lv_obj.c ****             if(c == LV_KEY_RIGHT || c == LV_KEY_UP) {
 3221              		.loc 1 758 32 is_stmt 0 view .LVU1044
 3222 0174 3046     		mov	r0, r6
 3223 0176 FFF7FEFF 		bl	lv_event_get_param
 3224              	.LVL340:
 758:Drivers/lvgl/src/core/lv_obj.c ****             if(c == LV_KEY_RIGHT || c == LV_KEY_UP) {
 3225              		.loc 1 758 18 view .LVU1045
ARM GAS  /var/folders/0z/tsy30v1j4xl4_7kw94k978ww0000gn/T//ccVt8IXl.s 			page 110


 3226 017a 0478     		ldrb	r4, [r0]	@ zero_extendqisi2
 3227              	.LVL341:
 759:Drivers/lvgl/src/core/lv_obj.c ****                 lv_obj_add_state(obj, LV_STATE_CHECKED);
 3228              		.loc 1 759 13 is_stmt 1 view .LVU1046
 759:Drivers/lvgl/src/core/lv_obj.c ****                 lv_obj_add_state(obj, LV_STATE_CHECKED);
 3229              		.loc 1 759 15 is_stmt 0 view .LVU1047
 3230 017c 132C     		cmp	r4, #19
 3231 017e 0AD0     		beq	.L185
 759:Drivers/lvgl/src/core/lv_obj.c ****                 lv_obj_add_state(obj, LV_STATE_CHECKED);
 3232              		.loc 1 759 34 discriminator 1 view .LVU1048
 3233 0180 112C     		cmp	r4, #17
 3234 0182 08D0     		beq	.L185
 762:Drivers/lvgl/src/core/lv_obj.c ****                 lv_obj_clear_state(obj, LV_STATE_CHECKED);
 3235              		.loc 1 762 18 is_stmt 1 view .LVU1049
 762:Drivers/lvgl/src/core/lv_obj.c ****                 lv_obj_clear_state(obj, LV_STATE_CHECKED);
 3236              		.loc 1 762 20 is_stmt 0 view .LVU1050
 3237 0184 142C     		cmp	r4, #20
 3238 0186 01D0     		beq	.L188
 762:Drivers/lvgl/src/core/lv_obj.c ****                 lv_obj_clear_state(obj, LV_STATE_CHECKED);
 3239              		.loc 1 762 38 discriminator 1 view .LVU1051
 3240 0188 122C     		cmp	r4, #18
 3241 018a 08D1     		bne	.L187
 3242              	.L188:
 763:Drivers/lvgl/src/core/lv_obj.c ****             }
 3243              		.loc 1 763 17 is_stmt 1 view .LVU1052
 3244 018c 0121     		movs	r1, #1
 3245 018e 2846     		mov	r0, r5
 3246 0190 FFF7FEFF 		bl	lv_obj_clear_state
 3247              	.LVL342:
 3248 0194 03E0     		b	.L187
 3249              	.L185:
 760:Drivers/lvgl/src/core/lv_obj.c ****             }
 3250              		.loc 1 760 17 view .LVU1053
 3251 0196 0121     		movs	r1, #1
 3252 0198 2846     		mov	r0, r5
 3253 019a FFF7FEFF 		bl	lv_obj_add_state
 3254              	.LVL343:
 3255              	.L187:
 767:Drivers/lvgl/src/core/lv_obj.c ****                 lv_res_t res = lv_event_send(obj, LV_EVENT_VALUE_CHANGED, NULL);
 3256              		.loc 1 767 13 view .LVU1054
 767:Drivers/lvgl/src/core/lv_obj.c ****                 lv_res_t res = lv_event_send(obj, LV_EVENT_VALUE_CHANGED, NULL);
 3257              		.loc 1 767 15 is_stmt 0 view .LVU1055
 3258 019e 0A2C     		cmp	r4, #10
 3259 01a0 3FF46BAF 		beq	.L163
 3260              	.LBB204:
 768:Drivers/lvgl/src/core/lv_obj.c ****                 if(res != LV_RES_OK) return;
 3261              		.loc 1 768 17 is_stmt 1 view .LVU1056
 768:Drivers/lvgl/src/core/lv_obj.c ****                 if(res != LV_RES_OK) return;
 3262              		.loc 1 768 32 is_stmt 0 view .LVU1057
 3263 01a4 0022     		movs	r2, #0
 3264 01a6 1C21     		movs	r1, #28
 3265 01a8 2846     		mov	r0, r5
 3266 01aa FFF7FEFF 		bl	lv_event_send
 3267              	.LVL344:
 769:Drivers/lvgl/src/core/lv_obj.c ****             }
 3268              		.loc 1 769 17 is_stmt 1 view .LVU1058
 3269 01ae 64E7     		b	.L163
ARM GAS  /var/folders/0z/tsy30v1j4xl4_7kw94k978ww0000gn/T//ccVt8IXl.s 			page 111


 3270              	.LVL345:
 3271              	.L217:
 769:Drivers/lvgl/src/core/lv_obj.c ****             }
 3272              		.loc 1 769 17 is_stmt 0 view .LVU1059
 3273              	.LBE204:
 3274              	.LBE203:
 3275              	.LBB205:
 780:Drivers/lvgl/src/core/lv_obj.c ****             }
 3276              		.loc 1 780 17 is_stmt 1 view .LVU1060
 780:Drivers/lvgl/src/core/lv_obj.c ****             }
 3277              		.loc 1 780 41 is_stmt 0 view .LVU1061
 3278 01b0 2846     		mov	r0, r5
 3279 01b2 FFF7FEFF 		bl	lv_obj_get_scroll_y
 3280              	.LVL346:
 780:Drivers/lvgl/src/core/lv_obj.c ****             }
 3281              		.loc 1 780 41 view .LVU1062
 3282 01b6 84B2     		uxth	r4, r0
 3283              	.LVL347:
 780:Drivers/lvgl/src/core/lv_obj.c ****             }
 3284              		.loc 1 780 68 view .LVU1063
 3285 01b8 2846     		mov	r0, r5
 3286 01ba FFF7FEFF 		bl	lv_obj_get_height
 3287              	.LVL348:
 780:Drivers/lvgl/src/core/lv_obj.c ****             }
 3288              		.loc 1 780 66 view .LVU1064
 3289 01be 0246     		mov	r2, r0
 3290 01c0 0028     		cmp	r0, #0
 3291 01c2 07DB     		blt	.L221
 3292              	.L190:
 3293 01c4 04EBA201 		add	r1, r4, r2, asr #2
 780:Drivers/lvgl/src/core/lv_obj.c ****             }
 3294              		.loc 1 780 17 view .LVU1065
 3295 01c8 0022     		movs	r2, #0
 3296 01ca 09B2     		sxth	r1, r1
 3297 01cc 2846     		mov	r0, r5
 3298 01ce FFF7FEFF 		bl	lv_obj_scroll_to_y
 3299              	.LVL349:
 3300 01d2 52E7     		b	.L163
 3301              	.L221:
 780:Drivers/lvgl/src/core/lv_obj.c ****             }
 3302              		.loc 1 780 66 view .LVU1066
 3303 01d4 C21C     		adds	r2, r0, #3
 3304 01d6 F5E7     		b	.L190
 3305              	.LVL350:
 3306              	.L218:
 783:Drivers/lvgl/src/core/lv_obj.c ****             }
 3307              		.loc 1 783 17 is_stmt 1 view .LVU1067
 783:Drivers/lvgl/src/core/lv_obj.c ****             }
 3308              		.loc 1 783 41 is_stmt 0 view .LVU1068
 3309 01d8 2846     		mov	r0, r5
 3310 01da FFF7FEFF 		bl	lv_obj_get_scroll_y
 3311              	.LVL351:
 783:Drivers/lvgl/src/core/lv_obj.c ****             }
 3312              		.loc 1 783 41 view .LVU1069
 3313 01de 84B2     		uxth	r4, r0
 3314              	.LVL352:
 783:Drivers/lvgl/src/core/lv_obj.c ****             }
ARM GAS  /var/folders/0z/tsy30v1j4xl4_7kw94k978ww0000gn/T//ccVt8IXl.s 			page 112


 3315              		.loc 1 783 68 view .LVU1070
 3316 01e0 2846     		mov	r0, r5
 3317 01e2 FFF7FEFF 		bl	lv_obj_get_height
 3318              	.LVL353:
 783:Drivers/lvgl/src/core/lv_obj.c ****             }
 3319              		.loc 1 783 66 view .LVU1071
 3320 01e6 0246     		mov	r2, r0
 3321 01e8 0028     		cmp	r0, #0
 3322 01ea 07DB     		blt	.L222
 3323              	.L192:
 3324 01ec A4EBA201 		sub	r1, r4, r2, asr #2
 783:Drivers/lvgl/src/core/lv_obj.c ****             }
 3325              		.loc 1 783 17 view .LVU1072
 3326 01f0 0022     		movs	r2, #0
 3327 01f2 09B2     		sxth	r1, r1
 3328 01f4 2846     		mov	r0, r5
 3329 01f6 FFF7FEFF 		bl	lv_obj_scroll_to_y
 3330              	.LVL354:
 3331 01fa 3EE7     		b	.L163
 3332              	.L222:
 783:Drivers/lvgl/src/core/lv_obj.c ****             }
 3333              		.loc 1 783 66 view .LVU1073
 3334 01fc C21C     		adds	r2, r0, #3
 3335 01fe F5E7     		b	.L192
 3336              	.LVL355:
 3337              	.L219:
 787:Drivers/lvgl/src/core/lv_obj.c ****                     lv_obj_scroll_to_y(obj, lv_obj_get_scroll_y(obj) + lv_obj_get_height(obj) / 4, 
 3338              		.loc 1 787 17 is_stmt 1 view .LVU1074
 787:Drivers/lvgl/src/core/lv_obj.c ****                     lv_obj_scroll_to_y(obj, lv_obj_get_scroll_y(obj) + lv_obj_get_height(obj) / 4, 
 3339              		.loc 1 787 23 is_stmt 0 view .LVU1075
 3340 0200 2846     		mov	r0, r5
 3341 0202 FFF7FEFF 		bl	lv_obj_get_scroll_dir
 3342              	.LVL356:
 787:Drivers/lvgl/src/core/lv_obj.c ****                     lv_obj_scroll_to_y(obj, lv_obj_get_scroll_y(obj) + lv_obj_get_height(obj) / 4, 
 3343              		.loc 1 787 19 view .LVU1076
 3344 0206 10F0030F 		tst	r0, #3
 3345 020a 15D0     		beq	.L194
 787:Drivers/lvgl/src/core/lv_obj.c ****                     lv_obj_scroll_to_y(obj, lv_obj_get_scroll_y(obj) + lv_obj_get_height(obj) / 4, 
 3346              		.loc 1 787 20 discriminator 1 view .LVU1077
 3347 020c 002F     		cmp	r7, #0
 3348 020e 01DC     		bgt	.L195
 787:Drivers/lvgl/src/core/lv_obj.c ****                     lv_obj_scroll_to_y(obj, lv_obj_get_scroll_y(obj) + lv_obj_get_height(obj) / 4, 
 3349              		.loc 1 787 75 discriminator 2 view .LVU1078
 3350 0210 002C     		cmp	r4, #0
 3351 0212 11DD     		ble	.L194
 3352              	.L195:
 790:Drivers/lvgl/src/core/lv_obj.c ****             }
 3353              		.loc 1 790 21 is_stmt 1 view .LVU1079
 790:Drivers/lvgl/src/core/lv_obj.c ****             }
 3354              		.loc 1 790 45 is_stmt 0 view .LVU1080
 3355 0214 2846     		mov	r0, r5
 3356 0216 FFF7FEFF 		bl	lv_obj_get_scroll_x
 3357              	.LVL357:
 3358 021a 84B2     		uxth	r4, r0
 3359              	.LVL358:
 790:Drivers/lvgl/src/core/lv_obj.c ****             }
 3360              		.loc 1 790 72 view .LVU1081
ARM GAS  /var/folders/0z/tsy30v1j4xl4_7kw94k978ww0000gn/T//ccVt8IXl.s 			page 113


 3361 021c 2846     		mov	r0, r5
 3362 021e FFF7FEFF 		bl	lv_obj_get_width
 3363              	.LVL359:
 790:Drivers/lvgl/src/core/lv_obj.c ****             }
 3364              		.loc 1 790 70 view .LVU1082
 3365 0222 0246     		mov	r2, r0
 3366 0224 0028     		cmp	r0, #0
 3367 0226 1BDB     		blt	.L223
 3368              	.L197:
 3369 0228 04EBA201 		add	r1, r4, r2, asr #2
 790:Drivers/lvgl/src/core/lv_obj.c ****             }
 3370              		.loc 1 790 21 view .LVU1083
 3371 022c 0022     		movs	r2, #0
 3372 022e 09B2     		sxth	r1, r1
 3373 0230 2846     		mov	r0, r5
 3374 0232 FFF7FEFF 		bl	lv_obj_scroll_to_x
 3375              	.LVL360:
 3376 0236 20E7     		b	.L163
 3377              	.LVL361:
 3378              	.L194:
 788:Drivers/lvgl/src/core/lv_obj.c ****                 else
 3379              		.loc 1 788 21 is_stmt 1 view .LVU1084
 788:Drivers/lvgl/src/core/lv_obj.c ****                 else
 3380              		.loc 1 788 45 is_stmt 0 view .LVU1085
 3381 0238 2846     		mov	r0, r5
 3382 023a FFF7FEFF 		bl	lv_obj_get_scroll_y
 3383              	.LVL362:
 3384 023e 84B2     		uxth	r4, r0
 3385              	.LVL363:
 788:Drivers/lvgl/src/core/lv_obj.c ****                 else
 3386              		.loc 1 788 72 view .LVU1086
 3387 0240 2846     		mov	r0, r5
 3388 0242 FFF7FEFF 		bl	lv_obj_get_height
 3389              	.LVL364:
 788:Drivers/lvgl/src/core/lv_obj.c ****                 else
 3390              		.loc 1 788 70 view .LVU1087
 3391 0246 0246     		mov	r2, r0
 3392 0248 0028     		cmp	r0, #0
 3393 024a 07DB     		blt	.L224
 3394              	.L196:
 3395 024c 04EBA201 		add	r1, r4, r2, asr #2
 788:Drivers/lvgl/src/core/lv_obj.c ****                 else
 3396              		.loc 1 788 21 view .LVU1088
 3397 0250 0022     		movs	r2, #0
 3398 0252 09B2     		sxth	r1, r1
 3399 0254 2846     		mov	r0, r5
 3400 0256 FFF7FEFF 		bl	lv_obj_scroll_to_y
 3401              	.LVL365:
 3402 025a 0EE7     		b	.L163
 3403              	.L224:
 788:Drivers/lvgl/src/core/lv_obj.c ****                 else
 3404              		.loc 1 788 70 view .LVU1089
 3405 025c C21C     		adds	r2, r0, #3
 3406 025e F5E7     		b	.L196
 3407              	.L223:
 790:Drivers/lvgl/src/core/lv_obj.c ****             }
 3408              		.loc 1 790 70 view .LVU1090
ARM GAS  /var/folders/0z/tsy30v1j4xl4_7kw94k978ww0000gn/T//ccVt8IXl.s 			page 114


 3409 0260 C21C     		adds	r2, r0, #3
 3410 0262 E1E7     		b	.L197
 3411              	.LVL366:
 3412              	.L198:
 795:Drivers/lvgl/src/core/lv_obj.c ****                 else
 3413              		.loc 1 795 21 is_stmt 1 view .LVU1091
 795:Drivers/lvgl/src/core/lv_obj.c ****                 else
 3414              		.loc 1 795 45 is_stmt 0 view .LVU1092
 3415 0264 2846     		mov	r0, r5
 3416 0266 FFF7FEFF 		bl	lv_obj_get_scroll_y
 3417              	.LVL367:
 3418 026a 84B2     		uxth	r4, r0
 3419              	.LVL368:
 795:Drivers/lvgl/src/core/lv_obj.c ****                 else
 3420              		.loc 1 795 72 view .LVU1093
 3421 026c 2846     		mov	r0, r5
 3422 026e FFF7FEFF 		bl	lv_obj_get_height
 3423              	.LVL369:
 795:Drivers/lvgl/src/core/lv_obj.c ****                 else
 3424              		.loc 1 795 70 view .LVU1094
 3425 0272 0246     		mov	r2, r0
 3426 0274 0028     		cmp	r0, #0
 3427 0276 07DB     		blt	.L225
 3428              	.L200:
 3429 0278 A4EBA201 		sub	r1, r4, r2, asr #2
 795:Drivers/lvgl/src/core/lv_obj.c ****                 else
 3430              		.loc 1 795 21 view .LVU1095
 3431 027c 0022     		movs	r2, #0
 3432 027e 09B2     		sxth	r1, r1
 3433 0280 2846     		mov	r0, r5
 3434 0282 FFF7FEFF 		bl	lv_obj_scroll_to_y
 3435              	.LVL370:
 3436 0286 F8E6     		b	.L163
 3437              	.L225:
 795:Drivers/lvgl/src/core/lv_obj.c ****                 else
 3438              		.loc 1 795 70 view .LVU1096
 3439 0288 C21C     		adds	r2, r0, #3
 3440 028a F5E7     		b	.L200
 3441              	.L220:
 797:Drivers/lvgl/src/core/lv_obj.c ****             }
 3442              		.loc 1 797 70 view .LVU1097
 3443 028c C21C     		adds	r2, r0, #3
 3444 028e 69E7     		b	.L201
 3445              	.LVL371:
 3446              	.L174:
 797:Drivers/lvgl/src/core/lv_obj.c ****             }
 3447              		.loc 1 797 70 view .LVU1098
 3448              	.LBE205:
 3449              	.LBB206:
 802:Drivers/lvgl/src/core/lv_obj.c ****             lv_obj_scroll_to_view_recursive(obj, LV_ANIM_ON);
 3450              		.loc 1 802 9 is_stmt 1 view .LVU1099
 802:Drivers/lvgl/src/core/lv_obj.c ****             lv_obj_scroll_to_view_recursive(obj, LV_ANIM_ON);
 3451              		.loc 1 802 12 is_stmt 0 view .LVU1100
 3452 0290 4FF48061 		mov	r1, #1024
 3453 0294 FFF7FEFF 		bl	lv_obj_has_flag
 3454              	.LVL372:
 802:Drivers/lvgl/src/core/lv_obj.c ****             lv_obj_scroll_to_view_recursive(obj, LV_ANIM_ON);
ARM GAS  /var/folders/0z/tsy30v1j4xl4_7kw94k978ww0000gn/T//ccVt8IXl.s 			page 115


 3455              		.loc 1 802 11 view .LVU1101
 3456 0298 B0B9     		cbnz	r0, .L226
 3457              	.L202:
 806:Drivers/lvgl/src/core/lv_obj.c ****         editing = lv_group_get_editing(lv_obj_get_group(obj));
 3458              		.loc 1 806 9 is_stmt 1 view .LVU1102
 3459              	.LVL373:
 807:Drivers/lvgl/src/core/lv_obj.c ****         lv_state_t state = LV_STATE_FOCUSED;
 3460              		.loc 1 807 9 view .LVU1103
 807:Drivers/lvgl/src/core/lv_obj.c ****         lv_state_t state = LV_STATE_FOCUSED;
 3461              		.loc 1 807 40 is_stmt 0 view .LVU1104
 3462 029a 2846     		mov	r0, r5
 3463 029c FFF7FEFF 		bl	lv_obj_get_group
 3464              	.LVL374:
 807:Drivers/lvgl/src/core/lv_obj.c ****         lv_state_t state = LV_STATE_FOCUSED;
 3465              		.loc 1 807 19 view .LVU1105
 3466 02a0 FFF7FEFF 		bl	lv_group_get_editing
 3467              	.LVL375:
 3468 02a4 0446     		mov	r4, r0
 3469              	.LVL376:
 808:Drivers/lvgl/src/core/lv_obj.c **** 
 3470              		.loc 1 808 9 is_stmt 1 view .LVU1106
 813:Drivers/lvgl/src/core/lv_obj.c ****         if(indev == NULL) indev = lv_event_get_indev(e);
 3471              		.loc 1 813 9 view .LVU1107
 813:Drivers/lvgl/src/core/lv_obj.c ****         if(indev == NULL) indev = lv_event_get_indev(e);
 3472              		.loc 1 813 30 is_stmt 0 view .LVU1108
 3473 02a6 FFF7FEFF 		bl	lv_indev_get_act
 3474              	.LVL377:
 814:Drivers/lvgl/src/core/lv_obj.c **** 
 3475              		.loc 1 814 9 is_stmt 1 view .LVU1109
 814:Drivers/lvgl/src/core/lv_obj.c **** 
 3476              		.loc 1 814 11 is_stmt 0 view .LVU1110
 3477 02aa 90B1     		cbz	r0, .L227
 3478              	.L203:
 816:Drivers/lvgl/src/core/lv_obj.c ****         if(indev_type == LV_INDEV_TYPE_KEYPAD || indev_type == LV_INDEV_TYPE_ENCODER) state |= LV_S
 3479              		.loc 1 816 9 is_stmt 1 view .LVU1111
 816:Drivers/lvgl/src/core/lv_obj.c ****         if(indev_type == LV_INDEV_TYPE_KEYPAD || indev_type == LV_INDEV_TYPE_ENCODER) state |= LV_S
 3480              		.loc 1 816 38 is_stmt 0 view .LVU1112
 3481 02ac FFF7FEFF 		bl	lv_indev_get_type
 3482              	.LVL378:
 817:Drivers/lvgl/src/core/lv_obj.c ****         if(editing) {
 3483              		.loc 1 817 9 is_stmt 1 view .LVU1113
 817:Drivers/lvgl/src/core/lv_obj.c ****         if(editing) {
 3484              		.loc 1 817 11 is_stmt 0 view .LVU1114
 3485 02b0 0228     		cmp	r0, #2
 3486 02b2 12D0     		beq	.L211
 817:Drivers/lvgl/src/core/lv_obj.c ****         if(editing) {
 3487              		.loc 1 817 47 discriminator 2 view .LVU1115
 3488 02b4 0428     		cmp	r0, #4
 3489 02b6 12D0     		beq	.L212
 808:Drivers/lvgl/src/core/lv_obj.c **** 
 3490              		.loc 1 808 20 view .LVU1116
 3491 02b8 0221     		movs	r1, #2
 3492              	.L204:
 3493              	.LVL379:
 818:Drivers/lvgl/src/core/lv_obj.c ****             state |= LV_STATE_EDITED;
 3494              		.loc 1 818 9 is_stmt 1 view .LVU1117
 818:Drivers/lvgl/src/core/lv_obj.c ****             state |= LV_STATE_EDITED;
ARM GAS  /var/folders/0z/tsy30v1j4xl4_7kw94k978ww0000gn/T//ccVt8IXl.s 			page 116


 3495              		.loc 1 818 11 is_stmt 0 view .LVU1118
 3496 02ba 94B1     		cbz	r4, .L205
 819:Drivers/lvgl/src/core/lv_obj.c ****             lv_obj_add_state(obj, state);
 3497              		.loc 1 819 13 is_stmt 1 view .LVU1119
 3498              	.LVL380:
 820:Drivers/lvgl/src/core/lv_obj.c ****         }
 3499              		.loc 1 820 13 view .LVU1120
 3500 02bc 41F00801 		orr	r1, r1, #8
 3501              	.LVL381:
 820:Drivers/lvgl/src/core/lv_obj.c ****         }
 3502              		.loc 1 820 13 is_stmt 0 view .LVU1121
 3503 02c0 2846     		mov	r0, r5
 3504              	.LVL382:
 820:Drivers/lvgl/src/core/lv_obj.c ****         }
 3505              		.loc 1 820 13 view .LVU1122
 3506 02c2 FFF7FEFF 		bl	lv_obj_add_state
 3507              	.LVL383:
 3508 02c6 D8E6     		b	.L163
 3509              	.LVL384:
 3510              	.L226:
 803:Drivers/lvgl/src/core/lv_obj.c ****         }
 3511              		.loc 1 803 13 is_stmt 1 view .LVU1123
 3512 02c8 0121     		movs	r1, #1
 3513 02ca 2846     		mov	r0, r5
 3514 02cc FFF7FEFF 		bl	lv_obj_scroll_to_view_recursive
 3515              	.LVL385:
 3516 02d0 E3E7     		b	.L202
 3517              	.LVL386:
 3518              	.L227:
 814:Drivers/lvgl/src/core/lv_obj.c **** 
 3519              		.loc 1 814 27 discriminator 1 view .LVU1124
 814:Drivers/lvgl/src/core/lv_obj.c **** 
 3520              		.loc 1 814 35 is_stmt 0 discriminator 1 view .LVU1125
 3521 02d2 3046     		mov	r0, r6
 3522              	.LVL387:
 814:Drivers/lvgl/src/core/lv_obj.c **** 
 3523              		.loc 1 814 35 discriminator 1 view .LVU1126
 3524 02d4 FFF7FEFF 		bl	lv_event_get_indev
 3525              	.LVL388:
 814:Drivers/lvgl/src/core/lv_obj.c **** 
 3526              		.loc 1 814 35 discriminator 1 view .LVU1127
 3527 02d8 E8E7     		b	.L203
 3528              	.LVL389:
 3529              	.L211:
 817:Drivers/lvgl/src/core/lv_obj.c ****         if(editing) {
 3530              		.loc 1 817 93 view .LVU1128
 3531 02da 0621     		movs	r1, #6
 3532 02dc EDE7     		b	.L204
 3533              	.L212:
 3534 02de 0621     		movs	r1, #6
 3535 02e0 EBE7     		b	.L204
 3536              	.LVL390:
 3537              	.L205:
 823:Drivers/lvgl/src/core/lv_obj.c ****             lv_obj_clear_state(obj, LV_STATE_EDITED);
 3538              		.loc 1 823 13 is_stmt 1 view .LVU1129
 3539 02e2 2846     		mov	r0, r5
 3540              	.LVL391:
ARM GAS  /var/folders/0z/tsy30v1j4xl4_7kw94k978ww0000gn/T//ccVt8IXl.s 			page 117


 823:Drivers/lvgl/src/core/lv_obj.c ****             lv_obj_clear_state(obj, LV_STATE_EDITED);
 3541              		.loc 1 823 13 is_stmt 0 view .LVU1130
 3542 02e4 FFF7FEFF 		bl	lv_obj_add_state
 3543              	.LVL392:
 824:Drivers/lvgl/src/core/lv_obj.c ****         }
 3544              		.loc 1 824 13 is_stmt 1 view .LVU1131
 3545 02e8 0821     		movs	r1, #8
 3546 02ea 2846     		mov	r0, r5
 3547 02ec FFF7FEFF 		bl	lv_obj_clear_state
 3548              	.LVL393:
 3549 02f0 C3E6     		b	.L163
 3550              	.LVL394:
 3551              	.L177:
 824:Drivers/lvgl/src/core/lv_obj.c ****         }
 3552              		.loc 1 824 13 is_stmt 0 view .LVU1132
 3553              	.LBE206:
 828:Drivers/lvgl/src/core/lv_obj.c ****     }
 3554              		.loc 1 828 9 is_stmt 1 view .LVU1133
 3555 02f2 4021     		movs	r1, #64
 3556 02f4 FFF7FEFF 		bl	lv_obj_add_state
 3557              	.LVL395:
 828:Drivers/lvgl/src/core/lv_obj.c ****     }
 3558              		.loc 1 828 9 is_stmt 0 view .LVU1134
 3559 02f8 BFE6     		b	.L163
 3560              	.LVL396:
 3561              	.L176:
 831:Drivers/lvgl/src/core/lv_obj.c ****         if(lv_obj_get_scrollbar_mode(obj) == LV_SCROLLBAR_MODE_ACTIVE) {
 3562              		.loc 1 831 9 is_stmt 1 view .LVU1135
 3563 02fa 4021     		movs	r1, #64
 3564 02fc FFF7FEFF 		bl	lv_obj_clear_state
 3565              	.LVL397:
 832:Drivers/lvgl/src/core/lv_obj.c ****             lv_area_t hor_area, ver_area;
 3566              		.loc 1 832 9 view .LVU1136
 832:Drivers/lvgl/src/core/lv_obj.c ****             lv_area_t hor_area, ver_area;
 3567              		.loc 1 832 12 is_stmt 0 view .LVU1137
 3568 0300 2846     		mov	r0, r5
 3569 0302 FFF7FEFF 		bl	lv_obj_get_scrollbar_mode
 3570              	.LVL398:
 832:Drivers/lvgl/src/core/lv_obj.c ****             lv_area_t hor_area, ver_area;
 3571              		.loc 1 832 11 view .LVU1138
 3572 0306 0228     		cmp	r0, #2
 3573 0308 7FF4B7AE 		bne	.L163
 3574              	.LBB207:
 833:Drivers/lvgl/src/core/lv_obj.c ****             lv_obj_get_scrollbar_area(obj, &hor_area, &ver_area);
 3575              		.loc 1 833 13 is_stmt 1 view .LVU1139
 834:Drivers/lvgl/src/core/lv_obj.c ****             lv_obj_invalidate_area(obj, &hor_area);
 3576              		.loc 1 834 13 view .LVU1140
 3577 030c 02AA     		add	r2, sp, #8
 3578 030e 6946     		mov	r1, sp
 3579 0310 2846     		mov	r0, r5
 3580 0312 FFF7FEFF 		bl	lv_obj_get_scrollbar_area
 3581              	.LVL399:
 835:Drivers/lvgl/src/core/lv_obj.c ****             lv_obj_invalidate_area(obj, &ver_area);
 3582              		.loc 1 835 13 view .LVU1141
 3583 0316 6946     		mov	r1, sp
 3584 0318 2846     		mov	r0, r5
 3585 031a FFF7FEFF 		bl	lv_obj_invalidate_area
ARM GAS  /var/folders/0z/tsy30v1j4xl4_7kw94k978ww0000gn/T//ccVt8IXl.s 			page 118


 3586              	.LVL400:
 836:Drivers/lvgl/src/core/lv_obj.c ****         }
 3587              		.loc 1 836 13 view .LVU1142
 3588 031e 02A9     		add	r1, sp, #8
 3589 0320 2846     		mov	r0, r5
 3590 0322 FFF7FEFF 		bl	lv_obj_invalidate_area
 3591              	.LVL401:
 3592 0326 A8E6     		b	.L163
 3593              	.LVL402:
 3594              	.L173:
 836:Drivers/lvgl/src/core/lv_obj.c ****         }
 3595              		.loc 1 836 13 is_stmt 0 view .LVU1143
 3596              	.LBE207:
 840:Drivers/lvgl/src/core/lv_obj.c ****     }
 3597              		.loc 1 840 9 is_stmt 1 view .LVU1144
 3598 0328 0E21     		movs	r1, #14
 3599 032a FFF7FEFF 		bl	lv_obj_clear_state
 3600              	.LVL403:
 840:Drivers/lvgl/src/core/lv_obj.c ****     }
 3601              		.loc 1 840 9 is_stmt 0 view .LVU1145
 3602 032e A4E6     		b	.L163
 3603              	.LVL404:
 3604              	.L168:
 3605              	.LBB208:
 843:Drivers/lvgl/src/core/lv_obj.c ****         uint16_t layout = lv_obj_get_style_layout(obj, LV_PART_MAIN);
 3606              		.loc 1 843 9 is_stmt 1 view .LVU1146
 3607              	.LBB209:
 3608              	.LBI209:
  49:Drivers/lvgl/src/core/lv_obj_style_gen.h **** {
 3609              		.loc 2 49 26 view .LVU1147
 3610              	.LBB210:
  51:Drivers/lvgl/src/core/lv_obj_style_gen.h ****     return (lv_align_t)v.num;
 3611              		.loc 2 51 5 view .LVU1148
  51:Drivers/lvgl/src/core/lv_obj_style_gen.h ****     return (lv_align_t)v.num;
 3612              		.loc 2 51 26 is_stmt 0 view .LVU1149
 3613 0330 0922     		movs	r2, #9
 3614 0332 0021     		movs	r1, #0
 3615 0334 FFF7FEFF 		bl	lv_obj_get_style_prop
 3616              	.LVL405:
  52:Drivers/lvgl/src/core/lv_obj_style_gen.h **** }
 3617              		.loc 2 52 5 is_stmt 1 view .LVU1150
  52:Drivers/lvgl/src/core/lv_obj_style_gen.h **** }
 3618              		.loc 2 52 12 is_stmt 0 view .LVU1151
 3619 0338 C4B2     		uxtb	r4, r0
 3620              	.LVL406:
  52:Drivers/lvgl/src/core/lv_obj_style_gen.h **** }
 3621              		.loc 2 52 12 view .LVU1152
 3622              	.LBE210:
 3623              	.LBE209:
 844:Drivers/lvgl/src/core/lv_obj.c ****         if(layout || align) {
 3624              		.loc 1 844 9 is_stmt 1 view .LVU1153
 3625              	.LBB211:
 3626              	.LBI211:
 509:Drivers/lvgl/src/core/lv_obj_style_gen.h **** }
 510:Drivers/lvgl/src/core/lv_obj_style_gen.h **** 
 511:Drivers/lvgl/src/core/lv_obj_style_gen.h **** static inline lv_opa_t lv_obj_get_style_opa_layered(const struct _lv_obj_t * obj, uint32_t part)
 512:Drivers/lvgl/src/core/lv_obj_style_gen.h **** {
ARM GAS  /var/folders/0z/tsy30v1j4xl4_7kw94k978ww0000gn/T//ccVt8IXl.s 			page 119


 513:Drivers/lvgl/src/core/lv_obj_style_gen.h ****     lv_style_value_t v = lv_obj_get_style_prop(obj, part, LV_STYLE_OPA_LAYERED);
 514:Drivers/lvgl/src/core/lv_obj_style_gen.h ****     return (lv_opa_t)v.num;
 515:Drivers/lvgl/src/core/lv_obj_style_gen.h **** }
 516:Drivers/lvgl/src/core/lv_obj_style_gen.h **** 
 517:Drivers/lvgl/src/core/lv_obj_style_gen.h **** static inline const lv_color_filter_dsc_t * lv_obj_get_style_color_filter_dsc(const struct _lv_obj_
 518:Drivers/lvgl/src/core/lv_obj_style_gen.h **** {
 519:Drivers/lvgl/src/core/lv_obj_style_gen.h ****     lv_style_value_t v = lv_obj_get_style_prop(obj, part, LV_STYLE_COLOR_FILTER_DSC);
 520:Drivers/lvgl/src/core/lv_obj_style_gen.h ****     return (const lv_color_filter_dsc_t *)v.ptr;
 521:Drivers/lvgl/src/core/lv_obj_style_gen.h **** }
 522:Drivers/lvgl/src/core/lv_obj_style_gen.h **** 
 523:Drivers/lvgl/src/core/lv_obj_style_gen.h **** static inline lv_opa_t lv_obj_get_style_color_filter_opa(const struct _lv_obj_t * obj, uint32_t par
 524:Drivers/lvgl/src/core/lv_obj_style_gen.h **** {
 525:Drivers/lvgl/src/core/lv_obj_style_gen.h ****     lv_style_value_t v = lv_obj_get_style_prop(obj, part, LV_STYLE_COLOR_FILTER_OPA);
 526:Drivers/lvgl/src/core/lv_obj_style_gen.h ****     return (lv_opa_t)v.num;
 527:Drivers/lvgl/src/core/lv_obj_style_gen.h **** }
 528:Drivers/lvgl/src/core/lv_obj_style_gen.h **** 
 529:Drivers/lvgl/src/core/lv_obj_style_gen.h **** static inline const lv_anim_t * lv_obj_get_style_anim(const struct _lv_obj_t * obj, uint32_t part)
 530:Drivers/lvgl/src/core/lv_obj_style_gen.h **** {
 531:Drivers/lvgl/src/core/lv_obj_style_gen.h ****     lv_style_value_t v = lv_obj_get_style_prop(obj, part, LV_STYLE_ANIM);
 532:Drivers/lvgl/src/core/lv_obj_style_gen.h ****     return (const lv_anim_t *)v.ptr;
 533:Drivers/lvgl/src/core/lv_obj_style_gen.h **** }
 534:Drivers/lvgl/src/core/lv_obj_style_gen.h **** 
 535:Drivers/lvgl/src/core/lv_obj_style_gen.h **** static inline uint32_t lv_obj_get_style_anim_time(const struct _lv_obj_t * obj, uint32_t part)
 536:Drivers/lvgl/src/core/lv_obj_style_gen.h **** {
 537:Drivers/lvgl/src/core/lv_obj_style_gen.h ****     lv_style_value_t v = lv_obj_get_style_prop(obj, part, LV_STYLE_ANIM_TIME);
 538:Drivers/lvgl/src/core/lv_obj_style_gen.h ****     return (uint32_t)v.num;
 539:Drivers/lvgl/src/core/lv_obj_style_gen.h **** }
 540:Drivers/lvgl/src/core/lv_obj_style_gen.h **** 
 541:Drivers/lvgl/src/core/lv_obj_style_gen.h **** static inline uint32_t lv_obj_get_style_anim_speed(const struct _lv_obj_t * obj, uint32_t part)
 542:Drivers/lvgl/src/core/lv_obj_style_gen.h **** {
 543:Drivers/lvgl/src/core/lv_obj_style_gen.h ****     lv_style_value_t v = lv_obj_get_style_prop(obj, part, LV_STYLE_ANIM_SPEED);
 544:Drivers/lvgl/src/core/lv_obj_style_gen.h ****     return (uint32_t)v.num;
 545:Drivers/lvgl/src/core/lv_obj_style_gen.h **** }
 546:Drivers/lvgl/src/core/lv_obj_style_gen.h **** 
 547:Drivers/lvgl/src/core/lv_obj_style_gen.h **** static inline const lv_style_transition_dsc_t * lv_obj_get_style_transition(const struct _lv_obj_t 
 548:Drivers/lvgl/src/core/lv_obj_style_gen.h **** {
 549:Drivers/lvgl/src/core/lv_obj_style_gen.h ****     lv_style_value_t v = lv_obj_get_style_prop(obj, part, LV_STYLE_TRANSITION);
 550:Drivers/lvgl/src/core/lv_obj_style_gen.h ****     return (const lv_style_transition_dsc_t *)v.ptr;
 551:Drivers/lvgl/src/core/lv_obj_style_gen.h **** }
 552:Drivers/lvgl/src/core/lv_obj_style_gen.h **** 
 553:Drivers/lvgl/src/core/lv_obj_style_gen.h **** static inline lv_blend_mode_t lv_obj_get_style_blend_mode(const struct _lv_obj_t * obj, uint32_t pa
 554:Drivers/lvgl/src/core/lv_obj_style_gen.h **** {
 555:Drivers/lvgl/src/core/lv_obj_style_gen.h ****     lv_style_value_t v = lv_obj_get_style_prop(obj, part, LV_STYLE_BLEND_MODE);
 556:Drivers/lvgl/src/core/lv_obj_style_gen.h ****     return (lv_blend_mode_t)v.num;
 557:Drivers/lvgl/src/core/lv_obj_style_gen.h **** }
 558:Drivers/lvgl/src/core/lv_obj_style_gen.h **** 
 559:Drivers/lvgl/src/core/lv_obj_style_gen.h **** static inline uint16_t lv_obj_get_style_layout(const struct _lv_obj_t * obj, uint32_t part)
 3627              		.loc 2 559 24 view .LVU1154
 3628              	.LBB212:
 560:Drivers/lvgl/src/core/lv_obj_style_gen.h **** {
 561:Drivers/lvgl/src/core/lv_obj_style_gen.h ****     lv_style_value_t v = lv_obj_get_style_prop(obj, part, LV_STYLE_LAYOUT);
 3629              		.loc 2 561 5 view .LVU1155
 3630              		.loc 2 561 26 is_stmt 0 view .LVU1156
 3631 033a 0A22     		movs	r2, #10
 3632 033c 0021     		movs	r1, #0
 3633 033e 2846     		mov	r0, r5
 3634 0340 FFF7FEFF 		bl	lv_obj_get_style_prop
ARM GAS  /var/folders/0z/tsy30v1j4xl4_7kw94k978ww0000gn/T//ccVt8IXl.s 			page 120


 3635              	.LVL407:
 562:Drivers/lvgl/src/core/lv_obj_style_gen.h ****     return (uint16_t)v.num;
 3636              		.loc 2 562 5 is_stmt 1 view .LVU1157
 3637              		.loc 2 562 12 is_stmt 0 view .LVU1158
 3638 0344 80B2     		uxth	r0, r0
 3639              	.LVL408:
 3640              		.loc 2 562 12 view .LVU1159
 3641              	.LBE212:
 3642              	.LBE211:
 845:Drivers/lvgl/src/core/lv_obj.c ****             lv_obj_mark_layout_as_dirty(obj);
 3643              		.loc 1 845 9 is_stmt 1 view .LVU1160
 845:Drivers/lvgl/src/core/lv_obj.c ****             lv_obj_mark_layout_as_dirty(obj);
 3644              		.loc 1 845 11 is_stmt 0 view .LVU1161
 3645 0346 00B9     		cbnz	r0, .L206
 845:Drivers/lvgl/src/core/lv_obj.c ****             lv_obj_mark_layout_as_dirty(obj);
 3646              		.loc 1 845 19 discriminator 1 view .LVU1162
 3647 0348 14B1     		cbz	r4, .L207
 3648              	.L206:
 846:Drivers/lvgl/src/core/lv_obj.c ****         }
 3649              		.loc 1 846 13 is_stmt 1 view .LVU1163
 3650 034a 2846     		mov	r0, r5
 3651              	.LVL409:
 846:Drivers/lvgl/src/core/lv_obj.c ****         }
 3652              		.loc 1 846 13 is_stmt 0 view .LVU1164
 3653 034c FFF7FEFF 		bl	lv_obj_mark_layout_as_dirty
 3654              	.LVL410:
 3655              	.L207:
 849:Drivers/lvgl/src/core/lv_obj.c ****         uint32_t child_cnt = lv_obj_get_child_cnt(obj);
 3656              		.loc 1 849 9 is_stmt 1 view .LVU1165
 850:Drivers/lvgl/src/core/lv_obj.c ****         for(i = 0; i < child_cnt; i++) {
 3657              		.loc 1 850 9 view .LVU1166
 850:Drivers/lvgl/src/core/lv_obj.c ****         for(i = 0; i < child_cnt; i++) {
 3658              		.loc 1 850 30 is_stmt 0 view .LVU1167
 3659 0350 2846     		mov	r0, r5
 3660 0352 FFF7FEFF 		bl	lv_obj_get_child_cnt
 3661              	.LVL411:
 3662 0356 0646     		mov	r6, r0
 3663              	.LVL412:
 851:Drivers/lvgl/src/core/lv_obj.c ****             lv_obj_t * child = obj->spec_attr->children[i];
 3664              		.loc 1 851 9 is_stmt 1 view .LVU1168
 851:Drivers/lvgl/src/core/lv_obj.c ****             lv_obj_t * child = obj->spec_attr->children[i];
 3665              		.loc 1 851 15 is_stmt 0 view .LVU1169
 3666 0358 0024     		movs	r4, #0
 3667              	.LVL413:
 3668              	.L208:
 851:Drivers/lvgl/src/core/lv_obj.c ****             lv_obj_t * child = obj->spec_attr->children[i];
 3669              		.loc 1 851 22 is_stmt 1 discriminator 1 view .LVU1170
 3670 035a B442     		cmp	r4, r6
 3671 035c BFF48DAE 		bcs	.L163
 3672              	.LBB213:
 852:Drivers/lvgl/src/core/lv_obj.c ****             lv_obj_mark_layout_as_dirty(child);
 3673              		.loc 1 852 13 discriminator 3 view .LVU1171
 852:Drivers/lvgl/src/core/lv_obj.c ****             lv_obj_mark_layout_as_dirty(child);
 3674              		.loc 1 852 35 is_stmt 0 discriminator 3 view .LVU1172
 3675 0360 AB68     		ldr	r3, [r5, #8]
 852:Drivers/lvgl/src/core/lv_obj.c ****             lv_obj_mark_layout_as_dirty(child);
 3676              		.loc 1 852 46 discriminator 3 view .LVU1173
ARM GAS  /var/folders/0z/tsy30v1j4xl4_7kw94k978ww0000gn/T//ccVt8IXl.s 			page 121


 3677 0362 1B68     		ldr	r3, [r3]
 3678              	.LVL414:
 853:Drivers/lvgl/src/core/lv_obj.c ****         }
 3679              		.loc 1 853 13 is_stmt 1 discriminator 3 view .LVU1174
 3680 0364 53F82400 		ldr	r0, [r3, r4, lsl #2]
 3681 0368 FFF7FEFF 		bl	lv_obj_mark_layout_as_dirty
 3682              	.LVL415:
 853:Drivers/lvgl/src/core/lv_obj.c ****         }
 3683              		.loc 1 853 13 is_stmt 0 discriminator 3 view .LVU1175
 3684              	.LBE213:
 851:Drivers/lvgl/src/core/lv_obj.c ****             lv_obj_t * child = obj->spec_attr->children[i];
 3685              		.loc 1 851 36 is_stmt 1 discriminator 3 view .LVU1176
 3686 036c 0134     		adds	r4, r4, #1
 3687              	.LVL416:
 851:Drivers/lvgl/src/core/lv_obj.c ****             lv_obj_t * child = obj->spec_attr->children[i];
 3688              		.loc 1 851 36 is_stmt 0 discriminator 3 view .LVU1177
 3689 036e F4E7     		b	.L208
 3690              	.LVL417:
 3691              	.L170:
 851:Drivers/lvgl/src/core/lv_obj.c ****             lv_obj_t * child = obj->spec_attr->children[i];
 3692              		.loc 1 851 36 discriminator 3 view .LVU1178
 3693              	.LBE208:
 3694              	.LBB214:
 857:Drivers/lvgl/src/core/lv_obj.c ****         lv_coord_t h = lv_obj_get_style_height(obj, LV_PART_MAIN);
 3695              		.loc 1 857 9 is_stmt 1 view .LVU1179
 3696              	.LBB215:
 3697              	.LBI215:
   1:Drivers/lvgl/src/core/lv_obj_style_gen.h **** {
 3698              		.loc 2 1 26 view .LVU1180
 3699              	.LBB216:
   3:Drivers/lvgl/src/core/lv_obj_style_gen.h ****     return (lv_coord_t)v.num;
 3700              		.loc 2 3 5 view .LVU1181
   3:Drivers/lvgl/src/core/lv_obj_style_gen.h ****     return (lv_coord_t)v.num;
 3701              		.loc 2 3 26 is_stmt 0 view .LVU1182
 3702 0370 0122     		movs	r2, #1
 3703 0372 0021     		movs	r1, #0
 3704 0374 FFF7FEFF 		bl	lv_obj_get_style_prop
 3705              	.LVL418:
   4:Drivers/lvgl/src/core/lv_obj_style_gen.h **** }
 3706              		.loc 2 4 5 is_stmt 1 view .LVU1183
   4:Drivers/lvgl/src/core/lv_obj_style_gen.h **** }
 3707              		.loc 2 4 12 is_stmt 0 view .LVU1184
 3708 0378 07B2     		sxth	r7, r0
 3709              	.LVL419:
   4:Drivers/lvgl/src/core/lv_obj_style_gen.h **** }
 3710              		.loc 2 4 12 view .LVU1185
 3711              	.LBE216:
 3712              	.LBE215:
 858:Drivers/lvgl/src/core/lv_obj.c ****         lv_coord_t align = lv_obj_get_style_align(obj, LV_PART_MAIN);
 3713              		.loc 1 858 9 is_stmt 1 view .LVU1186
 3714              	.LBB217:
 3715              	.LBI217:
  19:Drivers/lvgl/src/core/lv_obj_style_gen.h **** {
 3716              		.loc 2 19 26 view .LVU1187
 3717              	.LBB218:
  21:Drivers/lvgl/src/core/lv_obj_style_gen.h ****     return (lv_coord_t)v.num;
 3718              		.loc 2 21 5 view .LVU1188
ARM GAS  /var/folders/0z/tsy30v1j4xl4_7kw94k978ww0000gn/T//ccVt8IXl.s 			page 122


  21:Drivers/lvgl/src/core/lv_obj_style_gen.h ****     return (lv_coord_t)v.num;
 3719              		.loc 2 21 26 is_stmt 0 view .LVU1189
 3720 037a 0422     		movs	r2, #4
 3721 037c 0021     		movs	r1, #0
 3722 037e 2846     		mov	r0, r5
 3723 0380 FFF7FEFF 		bl	lv_obj_get_style_prop
 3724              	.LVL420:
  22:Drivers/lvgl/src/core/lv_obj_style_gen.h **** }
 3725              		.loc 2 22 5 is_stmt 1 view .LVU1190
  22:Drivers/lvgl/src/core/lv_obj_style_gen.h **** }
 3726              		.loc 2 22 12 is_stmt 0 view .LVU1191
 3727 0384 06B2     		sxth	r6, r0
 3728              	.LVL421:
  22:Drivers/lvgl/src/core/lv_obj_style_gen.h **** }
 3729              		.loc 2 22 12 view .LVU1192
 3730              	.LBE218:
 3731              	.LBE217:
 859:Drivers/lvgl/src/core/lv_obj.c ****         uint16_t layout = lv_obj_get_style_layout(obj, LV_PART_MAIN);
 3732              		.loc 1 859 9 is_stmt 1 view .LVU1193
 3733              	.LBB219:
 3734              	.LBI219:
  49:Drivers/lvgl/src/core/lv_obj_style_gen.h **** {
 3735              		.loc 2 49 26 view .LVU1194
 3736              	.LBB220:
  51:Drivers/lvgl/src/core/lv_obj_style_gen.h ****     return (lv_align_t)v.num;
 3737              		.loc 2 51 5 view .LVU1195
  51:Drivers/lvgl/src/core/lv_obj_style_gen.h ****     return (lv_align_t)v.num;
 3738              		.loc 2 51 26 is_stmt 0 view .LVU1196
 3739 0386 0922     		movs	r2, #9
 3740 0388 0021     		movs	r1, #0
 3741 038a 2846     		mov	r0, r5
 3742 038c FFF7FEFF 		bl	lv_obj_get_style_prop
 3743              	.LVL422:
  52:Drivers/lvgl/src/core/lv_obj_style_gen.h **** }
 3744              		.loc 2 52 5 is_stmt 1 view .LVU1197
  52:Drivers/lvgl/src/core/lv_obj_style_gen.h **** }
 3745              		.loc 2 52 12 is_stmt 0 view .LVU1198
 3746 0390 C4B2     		uxtb	r4, r0
 3747              	.LVL423:
  52:Drivers/lvgl/src/core/lv_obj_style_gen.h **** }
 3748              		.loc 2 52 12 view .LVU1199
 3749              	.LBE220:
 3750              	.LBE219:
 860:Drivers/lvgl/src/core/lv_obj.c ****         if(layout || align || w == LV_SIZE_CONTENT || h == LV_SIZE_CONTENT) {
 3751              		.loc 1 860 9 is_stmt 1 view .LVU1200
 3752              	.LBB221:
 3753              	.LBI221:
 559:Drivers/lvgl/src/core/lv_obj_style_gen.h **** {
 3754              		.loc 2 559 24 view .LVU1201
 3755              	.LBB222:
 561:Drivers/lvgl/src/core/lv_obj_style_gen.h ****     return (uint16_t)v.num;
 3756              		.loc 2 561 5 view .LVU1202
 561:Drivers/lvgl/src/core/lv_obj_style_gen.h ****     return (uint16_t)v.num;
 3757              		.loc 2 561 26 is_stmt 0 view .LVU1203
 3758 0392 0A22     		movs	r2, #10
 3759 0394 0021     		movs	r1, #0
 3760 0396 2846     		mov	r0, r5
ARM GAS  /var/folders/0z/tsy30v1j4xl4_7kw94k978ww0000gn/T//ccVt8IXl.s 			page 123


 3761 0398 FFF7FEFF 		bl	lv_obj_get_style_prop
 3762              	.LVL424:
 3763              		.loc 2 562 5 is_stmt 1 view .LVU1204
 3764              		.loc 2 562 12 is_stmt 0 view .LVU1205
 3765 039c 80B2     		uxth	r0, r0
 3766              	.LVL425:
 3767              		.loc 2 562 12 view .LVU1206
 3768              	.LBE222:
 3769              	.LBE221:
 861:Drivers/lvgl/src/core/lv_obj.c ****             lv_obj_mark_layout_as_dirty(obj);
 3770              		.loc 1 861 9 is_stmt 1 view .LVU1207
 861:Drivers/lvgl/src/core/lv_obj.c ****             lv_obj_mark_layout_as_dirty(obj);
 3771              		.loc 1 861 11 is_stmt 0 view .LVU1208
 3772 039e 38B9     		cbnz	r0, .L210
 861:Drivers/lvgl/src/core/lv_obj.c ****             lv_obj_mark_layout_as_dirty(obj);
 3773              		.loc 1 861 19 discriminator 1 view .LVU1209
 3774 03a0 34B9     		cbnz	r4, .L210
 861:Drivers/lvgl/src/core/lv_obj.c ****             lv_obj_mark_layout_as_dirty(obj);
 3775              		.loc 1 861 28 discriminator 2 view .LVU1210
 3776 03a2 42F2D173 		movw	r3, #10193
 3777 03a6 9F42     		cmp	r7, r3
 3778 03a8 02D0     		beq	.L210
 861:Drivers/lvgl/src/core/lv_obj.c ****             lv_obj_mark_layout_as_dirty(obj);
 3779              		.loc 1 861 52 discriminator 3 view .LVU1211
 3780 03aa 9E42     		cmp	r6, r3
 3781 03ac 7FF465AE 		bne	.L163
 3782              	.L210:
 862:Drivers/lvgl/src/core/lv_obj.c ****         }
 3783              		.loc 1 862 13 is_stmt 1 view .LVU1212
 3784 03b0 2846     		mov	r0, r5
 3785              	.LVL426:
 862:Drivers/lvgl/src/core/lv_obj.c ****         }
 3786              		.loc 1 862 13 is_stmt 0 view .LVU1213
 3787 03b2 FFF7FEFF 		bl	lv_obj_mark_layout_as_dirty
 3788              	.LVL427:
 3789 03b6 60E6     		b	.L163
 3790              	.LVL428:
 3791              	.L169:
 862:Drivers/lvgl/src/core/lv_obj.c ****         }
 3792              		.loc 1 862 13 view .LVU1214
 3793              	.LBE214:
 866:Drivers/lvgl/src/core/lv_obj.c ****         lv_obj_mark_layout_as_dirty(obj);
 3794              		.loc 1 866 9 is_stmt 1 view .LVU1215
 866:Drivers/lvgl/src/core/lv_obj.c ****         lv_obj_mark_layout_as_dirty(obj);
 3795              		.loc 1 866 43 is_stmt 0 view .LVU1216
 3796 03b8 90F82230 		ldrb	r3, [r0, #34]	@ zero_extendqisi2
 3797 03bc 43F00203 		orr	r3, r3, #2
 3798 03c0 80F82230 		strb	r3, [r0, #34]
 867:Drivers/lvgl/src/core/lv_obj.c ****     }
 3799              		.loc 1 867 9 is_stmt 1 view .LVU1217
 3800 03c4 FFF7FEFF 		bl	lv_obj_mark_layout_as_dirty
 3801              	.LVL429:
 867:Drivers/lvgl/src/core/lv_obj.c ****     }
 3802              		.loc 1 867 9 is_stmt 0 view .LVU1218
 3803 03c8 57E6     		b	.L163
 3804              	.LVL430:
 3805              	.L172:
ARM GAS  /var/folders/0z/tsy30v1j4xl4_7kw94k978ww0000gn/T//ccVt8IXl.s 			page 124


 3806              	.LBB223:
 870:Drivers/lvgl/src/core/lv_obj.c ****         lv_event_set_ext_draw_size(e, d);
 3807              		.loc 1 870 9 is_stmt 1 view .LVU1219
 870:Drivers/lvgl/src/core/lv_obj.c ****         lv_event_set_ext_draw_size(e, d);
 3808              		.loc 1 870 24 is_stmt 0 view .LVU1220
 3809 03ca 0021     		movs	r1, #0
 3810 03cc FFF7FEFF 		bl	lv_obj_calculate_ext_draw_size
 3811              	.LVL431:
 870:Drivers/lvgl/src/core/lv_obj.c ****         lv_event_set_ext_draw_size(e, d);
 3812              		.loc 1 870 24 view .LVU1221
 3813 03d0 0146     		mov	r1, r0
 3814              	.LVL432:
 871:Drivers/lvgl/src/core/lv_obj.c ****     }
 3815              		.loc 1 871 9 is_stmt 1 view .LVU1222
 3816 03d2 3046     		mov	r0, r6
 3817 03d4 FFF7FEFF 		bl	lv_event_set_ext_draw_size
 3818              	.LVL433:
 871:Drivers/lvgl/src/core/lv_obj.c ****     }
 3819              		.loc 1 871 9 is_stmt 0 view .LVU1223
 3820              	.LBE223:
 3821 03d8 4FE6     		b	.L163
 3822              	.LVL434:
 3823              	.L171:
 874:Drivers/lvgl/src/core/lv_obj.c ****     }
 3824              		.loc 1 874 9 is_stmt 1 view .LVU1224
 3825 03da 3046     		mov	r0, r6
 3826              	.LVL435:
 874:Drivers/lvgl/src/core/lv_obj.c ****     }
 3827              		.loc 1 874 9 is_stmt 0 view .LVU1225
 3828 03dc FFF7FEFF 		bl	lv_obj_draw
 3829              	.LVL436:
 3830 03e0 4BE6     		b	.L163
 3831              		.cfi_endproc
 3832              	.LFE227:
 3834              		.section	.text.lv_obj_destructor,"ax",%progbits
 3835              		.align	1
 3836              		.syntax unified
 3837              		.thumb
 3838              		.thumb_func
 3840              	lv_obj_destructor:
 3841              	.LVL437:
 3842              	.LFB223:
 451:Drivers/lvgl/src/core/lv_obj.c ****     LV_UNUSED(class_p);
 3843              		.loc 1 451 1 is_stmt 1 view -0
 3844              		.cfi_startproc
 3845              		@ args = 0, pretend = 0, frame = 0
 3846              		@ frame_needed = 0, uses_anonymous_args = 0
 451:Drivers/lvgl/src/core/lv_obj.c ****     LV_UNUSED(class_p);
 3847              		.loc 1 451 1 is_stmt 0 view .LVU1227
 3848 0000 10B5     		push	{r4, lr}
 3849              		.cfi_def_cfa_offset 8
 3850              		.cfi_offset 4, -8
 3851              		.cfi_offset 14, -4
 3852 0002 0C46     		mov	r4, r1
 452:Drivers/lvgl/src/core/lv_obj.c **** 
 3853              		.loc 1 452 5 is_stmt 1 view .LVU1228
 454:Drivers/lvgl/src/core/lv_obj.c **** 
ARM GAS  /var/folders/0z/tsy30v1j4xl4_7kw94k978ww0000gn/T//ccVt8IXl.s 			page 125


 3854              		.loc 1 454 5 view .LVU1229
 3855 0004 0846     		mov	r0, r1
 3856              	.LVL438:
 454:Drivers/lvgl/src/core/lv_obj.c **** 
 3857              		.loc 1 454 5 is_stmt 0 view .LVU1230
 3858 0006 FFF7FEFF 		bl	_lv_event_mark_deleted
 3859              	.LVL439:
 457:Drivers/lvgl/src/core/lv_obj.c ****     lv_obj_remove_style_all(obj);
 3860              		.loc 1 457 5 is_stmt 1 view .LVU1231
 3861 000a 0020     		movs	r0, #0
 3862 000c FFF7FEFF 		bl	lv_obj_enable_style_refresh
 3863              	.LVL440:
 458:Drivers/lvgl/src/core/lv_obj.c ****     lv_obj_enable_style_refresh(true);
 3864              		.loc 1 458 5 view .LVU1232
 3865              	.LBB224:
 3866              	.LBI224:
 3867              		.file 5 "Drivers/lvgl/src/core/lv_obj_style.h"
   1:Drivers/lvgl/src/core/lv_obj_style.h **** /**
   2:Drivers/lvgl/src/core/lv_obj_style.h ****  * @file lv_obj_style.h
   3:Drivers/lvgl/src/core/lv_obj_style.h ****  *
   4:Drivers/lvgl/src/core/lv_obj_style.h ****  */
   5:Drivers/lvgl/src/core/lv_obj_style.h **** 
   6:Drivers/lvgl/src/core/lv_obj_style.h **** #ifndef LV_OBJ_STYLE_H
   7:Drivers/lvgl/src/core/lv_obj_style.h **** #define LV_OBJ_STYLE_H
   8:Drivers/lvgl/src/core/lv_obj_style.h **** 
   9:Drivers/lvgl/src/core/lv_obj_style.h **** #ifdef __cplusplus
  10:Drivers/lvgl/src/core/lv_obj_style.h **** extern "C" {
  11:Drivers/lvgl/src/core/lv_obj_style.h **** #endif
  12:Drivers/lvgl/src/core/lv_obj_style.h **** 
  13:Drivers/lvgl/src/core/lv_obj_style.h **** /*********************
  14:Drivers/lvgl/src/core/lv_obj_style.h ****  *      INCLUDES
  15:Drivers/lvgl/src/core/lv_obj_style.h ****  *********************/
  16:Drivers/lvgl/src/core/lv_obj_style.h **** #include <stdint.h>
  17:Drivers/lvgl/src/core/lv_obj_style.h **** #include <stdbool.h>
  18:Drivers/lvgl/src/core/lv_obj_style.h **** #include "../misc/lv_bidi.h"
  19:Drivers/lvgl/src/core/lv_obj_style.h **** 
  20:Drivers/lvgl/src/core/lv_obj_style.h **** /*********************
  21:Drivers/lvgl/src/core/lv_obj_style.h ****  *      DEFINES
  22:Drivers/lvgl/src/core/lv_obj_style.h ****  *********************/
  23:Drivers/lvgl/src/core/lv_obj_style.h **** 
  24:Drivers/lvgl/src/core/lv_obj_style.h **** /**********************
  25:Drivers/lvgl/src/core/lv_obj_style.h ****  *      TYPEDEFS
  26:Drivers/lvgl/src/core/lv_obj_style.h ****  **********************/
  27:Drivers/lvgl/src/core/lv_obj_style.h **** /*Can't include lv_obj.h because it includes this header file*/
  28:Drivers/lvgl/src/core/lv_obj_style.h **** struct _lv_obj_t;
  29:Drivers/lvgl/src/core/lv_obj_style.h **** 
  30:Drivers/lvgl/src/core/lv_obj_style.h **** typedef enum {
  31:Drivers/lvgl/src/core/lv_obj_style.h ****     _LV_STYLE_STATE_CMP_SAME,           /*The style properties in the 2 states are identical*/
  32:Drivers/lvgl/src/core/lv_obj_style.h ****     _LV_STYLE_STATE_CMP_DIFF_REDRAW,    /*The differences can be shown with a simple redraw*/
  33:Drivers/lvgl/src/core/lv_obj_style.h ****     _LV_STYLE_STATE_CMP_DIFF_DRAW_PAD,  /*The differences can be shown with a simple redraw*/
  34:Drivers/lvgl/src/core/lv_obj_style.h ****     _LV_STYLE_STATE_CMP_DIFF_LAYOUT,    /*The differences can be shown with a simple redraw*/
  35:Drivers/lvgl/src/core/lv_obj_style.h **** } _lv_style_state_cmp_t;
  36:Drivers/lvgl/src/core/lv_obj_style.h **** 
  37:Drivers/lvgl/src/core/lv_obj_style.h **** typedef uint32_t lv_style_selector_t;
  38:Drivers/lvgl/src/core/lv_obj_style.h **** 
  39:Drivers/lvgl/src/core/lv_obj_style.h **** typedef struct {
  40:Drivers/lvgl/src/core/lv_obj_style.h ****     lv_style_t * style;
ARM GAS  /var/folders/0z/tsy30v1j4xl4_7kw94k978ww0000gn/T//ccVt8IXl.s 			page 126


  41:Drivers/lvgl/src/core/lv_obj_style.h ****     uint32_t selector : 24;
  42:Drivers/lvgl/src/core/lv_obj_style.h ****     uint32_t is_local : 1;
  43:Drivers/lvgl/src/core/lv_obj_style.h ****     uint32_t is_trans : 1;
  44:Drivers/lvgl/src/core/lv_obj_style.h **** } _lv_obj_style_t;
  45:Drivers/lvgl/src/core/lv_obj_style.h **** 
  46:Drivers/lvgl/src/core/lv_obj_style.h **** typedef struct {
  47:Drivers/lvgl/src/core/lv_obj_style.h ****     uint16_t time;
  48:Drivers/lvgl/src/core/lv_obj_style.h ****     uint16_t delay;
  49:Drivers/lvgl/src/core/lv_obj_style.h ****     lv_style_selector_t selector;
  50:Drivers/lvgl/src/core/lv_obj_style.h ****     lv_style_prop_t prop;
  51:Drivers/lvgl/src/core/lv_obj_style.h ****     lv_anim_path_cb_t path_cb;
  52:Drivers/lvgl/src/core/lv_obj_style.h **** #if LV_USE_USER_DATA
  53:Drivers/lvgl/src/core/lv_obj_style.h ****     void * user_data;
  54:Drivers/lvgl/src/core/lv_obj_style.h **** #endif
  55:Drivers/lvgl/src/core/lv_obj_style.h **** } _lv_obj_style_transition_dsc_t;
  56:Drivers/lvgl/src/core/lv_obj_style.h **** 
  57:Drivers/lvgl/src/core/lv_obj_style.h **** /**********************
  58:Drivers/lvgl/src/core/lv_obj_style.h ****  * GLOBAL PROTOTYPES
  59:Drivers/lvgl/src/core/lv_obj_style.h ****  **********************/
  60:Drivers/lvgl/src/core/lv_obj_style.h **** 
  61:Drivers/lvgl/src/core/lv_obj_style.h **** /**
  62:Drivers/lvgl/src/core/lv_obj_style.h ****  * Initialize the object related style manager module.
  63:Drivers/lvgl/src/core/lv_obj_style.h ****  * Called by LVGL in `lv_init()`
  64:Drivers/lvgl/src/core/lv_obj_style.h ****  */
  65:Drivers/lvgl/src/core/lv_obj_style.h **** void _lv_obj_style_init(void);
  66:Drivers/lvgl/src/core/lv_obj_style.h **** 
  67:Drivers/lvgl/src/core/lv_obj_style.h **** /**
  68:Drivers/lvgl/src/core/lv_obj_style.h ****  * Add a style to an object.
  69:Drivers/lvgl/src/core/lv_obj_style.h ****  * @param obj       pointer to an object
  70:Drivers/lvgl/src/core/lv_obj_style.h ****  * @param style     pointer to a style to add
  71:Drivers/lvgl/src/core/lv_obj_style.h ****  * @param selector  OR-ed value of parts and state to which the style should be added
  72:Drivers/lvgl/src/core/lv_obj_style.h ****  * @example         lv_obj_add_style(btn, &style_btn, 0); //Default button style
  73:Drivers/lvgl/src/core/lv_obj_style.h ****  * @example         lv_obj_add_style(btn, &btn_red, LV_STATE_PRESSED); //Overwrite only some colors
  74:Drivers/lvgl/src/core/lv_obj_style.h ****  */
  75:Drivers/lvgl/src/core/lv_obj_style.h **** void lv_obj_add_style(struct _lv_obj_t * obj, lv_style_t * style, lv_style_selector_t selector);
  76:Drivers/lvgl/src/core/lv_obj_style.h **** 
  77:Drivers/lvgl/src/core/lv_obj_style.h **** /**
  78:Drivers/lvgl/src/core/lv_obj_style.h ****  * Add a style to an object.
  79:Drivers/lvgl/src/core/lv_obj_style.h ****  * @param obj       pointer to an object
  80:Drivers/lvgl/src/core/lv_obj_style.h ****  * @param style     pointer to a style to remove. Can be NULL to check only the selector
  81:Drivers/lvgl/src/core/lv_obj_style.h ****  * @param selector  OR-ed values of states and a part to remove only styles with matching selectors
  82:Drivers/lvgl/src/core/lv_obj_style.h ****  * @example lv_obj_remove_style(obj, &style, LV_PART_ANY | LV_STATE_ANY); //Remove a specific style
  83:Drivers/lvgl/src/core/lv_obj_style.h ****  * @example lv_obj_remove_style(obj, NULL, LV_PART_MAIN | LV_STATE_ANY); //Remove all styles from t
  84:Drivers/lvgl/src/core/lv_obj_style.h ****  * @example lv_obj_remove_style(obj, NULL, LV_PART_ANY | LV_STATE_ANY); //Remove all styles
  85:Drivers/lvgl/src/core/lv_obj_style.h ****  */
  86:Drivers/lvgl/src/core/lv_obj_style.h **** void lv_obj_remove_style(struct _lv_obj_t * obj, lv_style_t * style, lv_style_selector_t selector);
  87:Drivers/lvgl/src/core/lv_obj_style.h **** 
  88:Drivers/lvgl/src/core/lv_obj_style.h **** /**
  89:Drivers/lvgl/src/core/lv_obj_style.h ****  * Remove all styles from an object
  90:Drivers/lvgl/src/core/lv_obj_style.h ****  * @param obj       pointer to an object
  91:Drivers/lvgl/src/core/lv_obj_style.h ****  */
  92:Drivers/lvgl/src/core/lv_obj_style.h **** static inline void lv_obj_remove_style_all(struct _lv_obj_t * obj)
 3868              		.loc 5 92 20 view .LVU1233
 3869              	.LBB225:
  93:Drivers/lvgl/src/core/lv_obj_style.h **** {
  94:Drivers/lvgl/src/core/lv_obj_style.h ****     lv_obj_remove_style(obj, NULL, LV_PART_ANY | LV_STATE_ANY);
 3870              		.loc 5 94 5 view .LVU1234
ARM GAS  /var/folders/0z/tsy30v1j4xl4_7kw94k978ww0000gn/T//ccVt8IXl.s 			page 127


 3871 0010 144A     		ldr	r2, .L234
 3872 0012 0021     		movs	r1, #0
 3873 0014 2046     		mov	r0, r4
 3874 0016 FFF7FEFF 		bl	lv_obj_remove_style
 3875              	.LVL441:
 3876              		.loc 5 94 5 is_stmt 0 view .LVU1235
 3877              	.LBE225:
 3878              	.LBE224:
 459:Drivers/lvgl/src/core/lv_obj.c **** 
 3879              		.loc 1 459 5 is_stmt 1 view .LVU1236
 3880 001a 0120     		movs	r0, #1
 3881 001c FFF7FEFF 		bl	lv_obj_enable_style_refresh
 3882              	.LVL442:
 462:Drivers/lvgl/src/core/lv_obj.c **** 
 3883              		.loc 1 462 5 view .LVU1237
 3884 0020 0021     		movs	r1, #0
 3885 0022 2046     		mov	r0, r4
 3886 0024 FFF7FEFF 		bl	lv_anim_del
 3887              	.LVL443:
 465:Drivers/lvgl/src/core/lv_obj.c ****     if(group) lv_group_remove_obj(obj);
 3888              		.loc 1 465 5 view .LVU1238
 465:Drivers/lvgl/src/core/lv_obj.c ****     if(group) lv_group_remove_obj(obj);
 3889              		.loc 1 465 26 is_stmt 0 view .LVU1239
 3890 0028 2046     		mov	r0, r4
 3891 002a FFF7FEFF 		bl	lv_obj_get_group
 3892              	.LVL444:
 466:Drivers/lvgl/src/core/lv_obj.c **** 
 3893              		.loc 1 466 5 is_stmt 1 view .LVU1240
 466:Drivers/lvgl/src/core/lv_obj.c **** 
 3894              		.loc 1 466 7 is_stmt 0 view .LVU1241
 3895 002e 10B1     		cbz	r0, .L229
 466:Drivers/lvgl/src/core/lv_obj.c **** 
 3896              		.loc 1 466 15 is_stmt 1 discriminator 1 view .LVU1242
 3897 0030 2046     		mov	r0, r4
 3898              	.LVL445:
 466:Drivers/lvgl/src/core/lv_obj.c **** 
 3899              		.loc 1 466 15 is_stmt 0 discriminator 1 view .LVU1243
 3900 0032 FFF7FEFF 		bl	lv_group_remove_obj
 3901              	.LVL446:
 3902              	.L229:
 468:Drivers/lvgl/src/core/lv_obj.c ****         if(obj->spec_attr->children) {
 3903              		.loc 1 468 5 is_stmt 1 view .LVU1244
 468:Drivers/lvgl/src/core/lv_obj.c ****         if(obj->spec_attr->children) {
 3904              		.loc 1 468 11 is_stmt 0 view .LVU1245
 3905 0036 A368     		ldr	r3, [r4, #8]
 468:Drivers/lvgl/src/core/lv_obj.c ****         if(obj->spec_attr->children) {
 3906              		.loc 1 468 7 view .LVU1246
 3907 0038 9BB1     		cbz	r3, .L228
 469:Drivers/lvgl/src/core/lv_obj.c ****             lv_mem_free(obj->spec_attr->children);
 3908              		.loc 1 469 9 is_stmt 1 view .LVU1247
 469:Drivers/lvgl/src/core/lv_obj.c ****             lv_mem_free(obj->spec_attr->children);
 3909              		.loc 1 469 26 is_stmt 0 view .LVU1248
 3910 003a 1868     		ldr	r0, [r3]
 469:Drivers/lvgl/src/core/lv_obj.c ****             lv_mem_free(obj->spec_attr->children);
 3911              		.loc 1 469 11 view .LVU1249
 3912 003c 20B1     		cbz	r0, .L231
 470:Drivers/lvgl/src/core/lv_obj.c ****             obj->spec_attr->children = NULL;
ARM GAS  /var/folders/0z/tsy30v1j4xl4_7kw94k978ww0000gn/T//ccVt8IXl.s 			page 128


 3913              		.loc 1 470 13 is_stmt 1 view .LVU1250
 3914 003e FFF7FEFF 		bl	lv_mem_free
 3915              	.LVL447:
 471:Drivers/lvgl/src/core/lv_obj.c ****         }
 3916              		.loc 1 471 13 view .LVU1251
 471:Drivers/lvgl/src/core/lv_obj.c ****         }
 3917              		.loc 1 471 16 is_stmt 0 view .LVU1252
 3918 0042 A368     		ldr	r3, [r4, #8]
 471:Drivers/lvgl/src/core/lv_obj.c ****         }
 3919              		.loc 1 471 38 view .LVU1253
 3920 0044 0022     		movs	r2, #0
 3921 0046 1A60     		str	r2, [r3]
 3922              	.L231:
 473:Drivers/lvgl/src/core/lv_obj.c ****             lv_mem_free(obj->spec_attr->event_dsc);
 3923              		.loc 1 473 9 is_stmt 1 view .LVU1254
 473:Drivers/lvgl/src/core/lv_obj.c ****             lv_mem_free(obj->spec_attr->event_dsc);
 3924              		.loc 1 473 15 is_stmt 0 view .LVU1255
 3925 0048 A368     		ldr	r3, [r4, #8]
 473:Drivers/lvgl/src/core/lv_obj.c ****             lv_mem_free(obj->spec_attr->event_dsc);
 3926              		.loc 1 473 26 view .LVU1256
 3927 004a D868     		ldr	r0, [r3, #12]
 473:Drivers/lvgl/src/core/lv_obj.c ****             lv_mem_free(obj->spec_attr->event_dsc);
 3928              		.loc 1 473 11 view .LVU1257
 3929 004c 20B1     		cbz	r0, .L232
 474:Drivers/lvgl/src/core/lv_obj.c ****             obj->spec_attr->event_dsc = NULL;
 3930              		.loc 1 474 13 is_stmt 1 view .LVU1258
 3931 004e FFF7FEFF 		bl	lv_mem_free
 3932              	.LVL448:
 475:Drivers/lvgl/src/core/lv_obj.c ****         }
 3933              		.loc 1 475 13 view .LVU1259
 475:Drivers/lvgl/src/core/lv_obj.c ****         }
 3934              		.loc 1 475 16 is_stmt 0 view .LVU1260
 3935 0052 A368     		ldr	r3, [r4, #8]
 475:Drivers/lvgl/src/core/lv_obj.c ****         }
 3936              		.loc 1 475 39 view .LVU1261
 3937 0054 0022     		movs	r2, #0
 3938 0056 DA60     		str	r2, [r3, #12]
 3939              	.L232:
 478:Drivers/lvgl/src/core/lv_obj.c ****         obj->spec_attr = NULL;
 3940              		.loc 1 478 9 is_stmt 1 view .LVU1262
 3941 0058 A068     		ldr	r0, [r4, #8]
 3942 005a FFF7FEFF 		bl	lv_mem_free
 3943              	.LVL449:
 479:Drivers/lvgl/src/core/lv_obj.c ****     }
 3944              		.loc 1 479 9 view .LVU1263
 479:Drivers/lvgl/src/core/lv_obj.c ****     }
 3945              		.loc 1 479 24 is_stmt 0 view .LVU1264
 3946 005e 0023     		movs	r3, #0
 3947 0060 A360     		str	r3, [r4, #8]
 3948              	.L228:
 481:Drivers/lvgl/src/core/lv_obj.c **** 
 3949              		.loc 1 481 1 view .LVU1265
 3950 0062 10BD     		pop	{r4, pc}
 3951              	.LVL450:
 3952              	.L235:
 481:Drivers/lvgl/src/core/lv_obj.c **** 
 3953              		.loc 1 481 1 view .LVU1266
ARM GAS  /var/folders/0z/tsy30v1j4xl4_7kw94k978ww0000gn/T//ccVt8IXl.s 			page 129


 3954              		.align	2
 3955              	.L234:
 3956 0064 FFFF0F00 		.word	1048575
 3957              		.cfi_endproc
 3958              	.LFE223:
 3960              		.section	.text.lv_obj_add_flag,"ax",%progbits
 3961              		.align	1
 3962              		.global	lv_obj_add_flag
 3963              		.syntax unified
 3964              		.thumb
 3965              		.thumb_func
 3967              	lv_obj_add_flag:
 3968              	.LVL451:
 3969              	.LFB208:
 230:Drivers/lvgl/src/core/lv_obj.c ****     LV_ASSERT_OBJ(obj, MY_CLASS);
 3970              		.loc 1 230 1 is_stmt 1 view -0
 3971              		.cfi_startproc
 3972              		@ args = 0, pretend = 0, frame = 16
 3973              		@ frame_needed = 0, uses_anonymous_args = 0
 230:Drivers/lvgl/src/core/lv_obj.c ****     LV_ASSERT_OBJ(obj, MY_CLASS);
 3974              		.loc 1 230 1 is_stmt 0 view .LVU1268
 3975 0000 F0B5     		push	{r4, r5, r6, r7, lr}
 3976              		.cfi_def_cfa_offset 20
 3977              		.cfi_offset 4, -20
 3978              		.cfi_offset 5, -16
 3979              		.cfi_offset 6, -12
 3980              		.cfi_offset 7, -8
 3981              		.cfi_offset 14, -4
 3982 0002 85B0     		sub	sp, sp, #20
 3983              		.cfi_def_cfa_offset 40
 3984 0004 0446     		mov	r4, r0
 3985 0006 0D46     		mov	r5, r1
 231:Drivers/lvgl/src/core/lv_obj.c **** 
 3986              		.loc 1 231 5 is_stmt 1 view .LVU1269
 231:Drivers/lvgl/src/core/lv_obj.c **** 
 3987              		.loc 1 231 5 view .LVU1270
 231:Drivers/lvgl/src/core/lv_obj.c **** 
 3988              		.loc 1 231 5 view .LVU1271
 233:Drivers/lvgl/src/core/lv_obj.c **** 
 3989              		.loc 1 233 5 view .LVU1272
 233:Drivers/lvgl/src/core/lv_obj.c **** 
 3990              		.loc 1 233 26 is_stmt 0 view .LVU1273
 3991 0008 FFF7FEFF 		bl	lv_obj_is_layout_positioned
 3992              	.LVL452:
 233:Drivers/lvgl/src/core/lv_obj.c **** 
 3993              		.loc 1 233 26 view .LVU1274
 3994 000c 0646     		mov	r6, r0
 3995              	.LVL453:
 236:Drivers/lvgl/src/core/lv_obj.c **** 
 3996              		.loc 1 236 5 is_stmt 1 view .LVU1275
 236:Drivers/lvgl/src/core/lv_obj.c **** 
 3997              		.loc 1 236 7 is_stmt 0 view .LVU1276
 3998 000e 15F00107 		ands	r7, r5, #1
 3999 0012 2AD1     		bne	.L243
 4000              	.L237:
 238:Drivers/lvgl/src/core/lv_obj.c **** 
 4001              		.loc 1 238 5 is_stmt 1 view .LVU1277
ARM GAS  /var/folders/0z/tsy30v1j4xl4_7kw94k978ww0000gn/T//ccVt8IXl.s 			page 130


 238:Drivers/lvgl/src/core/lv_obj.c **** 
 4002              		.loc 1 238 16 is_stmt 0 view .LVU1278
 4003 0014 E369     		ldr	r3, [r4, #28]
 4004 0016 2B43     		orrs	r3, r3, r5
 4005 0018 E361     		str	r3, [r4, #28]
 240:Drivers/lvgl/src/core/lv_obj.c ****         if(lv_obj_has_state(obj, LV_STATE_FOCUSED)) {
 4006              		.loc 1 240 5 is_stmt 1 view .LVU1279
 240:Drivers/lvgl/src/core/lv_obj.c ****         if(lv_obj_has_state(obj, LV_STATE_FOCUSED)) {
 4007              		.loc 1 240 7 is_stmt 0 view .LVU1280
 4008 001a 8FB1     		cbz	r7, .L238
 241:Drivers/lvgl/src/core/lv_obj.c ****             lv_group_t * group = lv_obj_get_group(obj);
 4009              		.loc 1 241 9 is_stmt 1 view .LVU1281
 241:Drivers/lvgl/src/core/lv_obj.c ****             lv_group_t * group = lv_obj_get_group(obj);
 4010              		.loc 1 241 12 is_stmt 0 view .LVU1282
 4011 001c 0221     		movs	r1, #2
 4012 001e 2046     		mov	r0, r4
 4013 0020 FFF7FEFF 		bl	lv_obj_has_state
 4014              	.LVL454:
 241:Drivers/lvgl/src/core/lv_obj.c ****             lv_group_t * group = lv_obj_get_group(obj);
 4015              		.loc 1 241 11 view .LVU1283
 4016 0024 60B1     		cbz	r0, .L238
 4017              	.LBB226:
 242:Drivers/lvgl/src/core/lv_obj.c ****             if(group != NULL) {
 4018              		.loc 1 242 13 is_stmt 1 view .LVU1284
 242:Drivers/lvgl/src/core/lv_obj.c ****             if(group != NULL) {
 4019              		.loc 1 242 34 is_stmt 0 view .LVU1285
 4020 0026 2046     		mov	r0, r4
 4021 0028 FFF7FEFF 		bl	lv_obj_get_group
 4022              	.LVL455:
 243:Drivers/lvgl/src/core/lv_obj.c ****                 lv_group_focus_next(group);
 4023              		.loc 1 243 13 is_stmt 1 view .LVU1286
 243:Drivers/lvgl/src/core/lv_obj.c ****                 lv_group_focus_next(group);
 4024              		.loc 1 243 15 is_stmt 0 view .LVU1287
 4025 002c 0746     		mov	r7, r0
 4026 002e 38B1     		cbz	r0, .L238
 4027              	.LBB227:
 244:Drivers/lvgl/src/core/lv_obj.c ****                 lv_obj_t * next_obj = lv_group_get_focused(group);
 4028              		.loc 1 244 17 is_stmt 1 view .LVU1288
 4029 0030 FFF7FEFF 		bl	lv_group_focus_next
 4030              	.LVL456:
 245:Drivers/lvgl/src/core/lv_obj.c ****                 if(next_obj != NULL) {
 4031              		.loc 1 245 17 view .LVU1289
 245:Drivers/lvgl/src/core/lv_obj.c ****                 if(next_obj != NULL) {
 4032              		.loc 1 245 39 is_stmt 0 view .LVU1290
 4033 0034 3846     		mov	r0, r7
 4034 0036 FFF7FEFF 		bl	lv_group_get_focused
 4035              	.LVL457:
 246:Drivers/lvgl/src/core/lv_obj.c ****                     lv_obj_invalidate(next_obj);
 4036              		.loc 1 246 17 is_stmt 1 view .LVU1291
 246:Drivers/lvgl/src/core/lv_obj.c ****                     lv_obj_invalidate(next_obj);
 4037              		.loc 1 246 19 is_stmt 0 view .LVU1292
 4038 003a 08B1     		cbz	r0, .L238
 247:Drivers/lvgl/src/core/lv_obj.c ****                 }
 4039              		.loc 1 247 21 is_stmt 1 view .LVU1293
 4040 003c FFF7FEFF 		bl	lv_obj_invalidate
 4041              	.LVL458:
 4042              	.L238:
ARM GAS  /var/folders/0z/tsy30v1j4xl4_7kw94k978ww0000gn/T//ccVt8IXl.s 			page 131


 247:Drivers/lvgl/src/core/lv_obj.c ****                 }
 4043              		.loc 1 247 21 is_stmt 0 view .LVU1294
 4044              	.LBE227:
 4045              	.LBE226:
 253:Drivers/lvgl/src/core/lv_obj.c ****         lv_obj_mark_layout_as_dirty(lv_obj_get_parent(obj));
 4046              		.loc 1 253 5 is_stmt 1 view .LVU1295
 253:Drivers/lvgl/src/core/lv_obj.c ****         lv_obj_mark_layout_as_dirty(lv_obj_get_parent(obj));
 4047              		.loc 1 253 26 is_stmt 0 view .LVU1296
 4048 0040 2046     		mov	r0, r4
 4049 0042 FFF7FEFF 		bl	lv_obj_is_layout_positioned
 4050              	.LVL459:
 253:Drivers/lvgl/src/core/lv_obj.c ****         lv_obj_mark_layout_as_dirty(lv_obj_get_parent(obj));
 4051              		.loc 1 253 7 view .LVU1297
 4052 0046 B042     		cmp	r0, r6
 4053 0048 02D1     		bne	.L239
 253:Drivers/lvgl/src/core/lv_obj.c ****         lv_obj_mark_layout_as_dirty(lv_obj_get_parent(obj));
 4054              		.loc 1 253 60 discriminator 1 view .LVU1298
 4055 004a 15F0C07F 		tst	r5, #25165824
 4056 004e 07D0     		beq	.L240
 4057              	.L239:
 254:Drivers/lvgl/src/core/lv_obj.c ****         lv_obj_mark_layout_as_dirty(obj);
 4058              		.loc 1 254 9 is_stmt 1 view .LVU1299
 4059 0050 2046     		mov	r0, r4
 4060 0052 FFF7FEFF 		bl	lv_obj_get_parent
 4061              	.LVL460:
 4062 0056 FFF7FEFF 		bl	lv_obj_mark_layout_as_dirty
 4063              	.LVL461:
 255:Drivers/lvgl/src/core/lv_obj.c ****     }
 4064              		.loc 1 255 9 view .LVU1300
 4065 005a 2046     		mov	r0, r4
 4066 005c FFF7FEFF 		bl	lv_obj_mark_layout_as_dirty
 4067              	.LVL462:
 4068              	.L240:
 258:Drivers/lvgl/src/core/lv_obj.c ****         lv_area_t hor_area, ver_area;
 4069              		.loc 1 258 5 view .LVU1301
 258:Drivers/lvgl/src/core/lv_obj.c ****         lv_area_t hor_area, ver_area;
 4070              		.loc 1 258 7 is_stmt 0 view .LVU1302
 4071 0060 15F0100F 		tst	r5, #16
 4072 0064 05D1     		bne	.L244
 4073              	.L236:
 264:Drivers/lvgl/src/core/lv_obj.c **** 
 4074              		.loc 1 264 1 view .LVU1303
 4075 0066 05B0     		add	sp, sp, #20
 4076              		.cfi_remember_state
 4077              		.cfi_def_cfa_offset 20
 4078              		@ sp needed
 4079 0068 F0BD     		pop	{r4, r5, r6, r7, pc}
 4080              	.LVL463:
 4081              	.L243:
 4082              		.cfi_restore_state
 236:Drivers/lvgl/src/core/lv_obj.c **** 
 4083              		.loc 1 236 32 is_stmt 1 discriminator 1 view .LVU1304
 4084 006a 2046     		mov	r0, r4
 4085 006c FFF7FEFF 		bl	lv_obj_invalidate
 4086              	.LVL464:
 4087 0070 D0E7     		b	.L237
 4088              	.L244:
ARM GAS  /var/folders/0z/tsy30v1j4xl4_7kw94k978ww0000gn/T//ccVt8IXl.s 			page 132


 4089              	.LBB228:
 259:Drivers/lvgl/src/core/lv_obj.c ****         lv_obj_get_scrollbar_area(obj, &hor_area, &ver_area);
 4090              		.loc 1 259 9 view .LVU1305
 260:Drivers/lvgl/src/core/lv_obj.c ****         lv_obj_invalidate_area(obj, &hor_area);
 4091              		.loc 1 260 9 view .LVU1306
 4092 0072 02AA     		add	r2, sp, #8
 4093 0074 6946     		mov	r1, sp
 4094 0076 2046     		mov	r0, r4
 4095 0078 FFF7FEFF 		bl	lv_obj_get_scrollbar_area
 4096              	.LVL465:
 261:Drivers/lvgl/src/core/lv_obj.c ****         lv_obj_invalidate_area(obj, &ver_area);
 4097              		.loc 1 261 9 view .LVU1307
 4098 007c 6946     		mov	r1, sp
 4099 007e 2046     		mov	r0, r4
 4100 0080 FFF7FEFF 		bl	lv_obj_invalidate_area
 4101              	.LVL466:
 262:Drivers/lvgl/src/core/lv_obj.c ****     }
 4102              		.loc 1 262 9 view .LVU1308
 4103 0084 02A9     		add	r1, sp, #8
 4104 0086 2046     		mov	r0, r4
 4105 0088 FFF7FEFF 		bl	lv_obj_invalidate_area
 4106              	.LVL467:
 4107              	.LBE228:
 264:Drivers/lvgl/src/core/lv_obj.c **** 
 4108              		.loc 1 264 1 is_stmt 0 view .LVU1309
 4109 008c EBE7     		b	.L236
 4110              		.cfi_endproc
 4111              	.LFE208:
 4113              		.section	.text.lv_obj_allocate_spec_attr,"ax",%progbits
 4114              		.align	1
 4115              		.global	lv_obj_allocate_spec_attr
 4116              		.syntax unified
 4117              		.thumb
 4118              		.thumb_func
 4120              	lv_obj_allocate_spec_attr:
 4121              	.LVL468:
 4122              	.LFB217:
 359:Drivers/lvgl/src/core/lv_obj.c ****     LV_ASSERT_OBJ(obj, MY_CLASS);
 4123              		.loc 1 359 1 is_stmt 1 view -0
 4124              		.cfi_startproc
 4125              		@ args = 0, pretend = 0, frame = 0
 4126              		@ frame_needed = 0, uses_anonymous_args = 0
 360:Drivers/lvgl/src/core/lv_obj.c **** 
 4127              		.loc 1 360 5 view .LVU1311
 360:Drivers/lvgl/src/core/lv_obj.c **** 
 4128              		.loc 1 360 5 view .LVU1312
 360:Drivers/lvgl/src/core/lv_obj.c **** 
 4129              		.loc 1 360 5 view .LVU1313
 362:Drivers/lvgl/src/core/lv_obj.c ****         static uint32_t x = 0;
 4130              		.loc 1 362 5 view .LVU1314
 362:Drivers/lvgl/src/core/lv_obj.c ****         static uint32_t x = 0;
 4131              		.loc 1 362 11 is_stmt 0 view .LVU1315
 4132 0000 8368     		ldr	r3, [r0, #8]
 362:Drivers/lvgl/src/core/lv_obj.c ****         static uint32_t x = 0;
 4133              		.loc 1 362 7 view .LVU1316
 4134 0002 03B1     		cbz	r3, .L253
 4135 0004 7047     		bx	lr
ARM GAS  /var/folders/0z/tsy30v1j4xl4_7kw94k978ww0000gn/T//ccVt8IXl.s 			page 133


 4136              	.L253:
 359:Drivers/lvgl/src/core/lv_obj.c ****     LV_ASSERT_OBJ(obj, MY_CLASS);
 4137              		.loc 1 359 1 view .LVU1317
 4138 0006 10B5     		push	{r4, lr}
 4139              		.cfi_def_cfa_offset 8
 4140              		.cfi_offset 4, -8
 4141              		.cfi_offset 14, -4
 4142 0008 0446     		mov	r4, r0
 4143              	.LBB229:
 363:Drivers/lvgl/src/core/lv_obj.c ****         x++;
 4144              		.loc 1 363 9 is_stmt 1 view .LVU1318
 364:Drivers/lvgl/src/core/lv_obj.c ****         obj->spec_attr = lv_mem_alloc(sizeof(_lv_obj_spec_attr_t));
 4145              		.loc 1 364 9 view .LVU1319
 364:Drivers/lvgl/src/core/lv_obj.c ****         obj->spec_attr = lv_mem_alloc(sizeof(_lv_obj_spec_attr_t));
 4146              		.loc 1 364 10 is_stmt 0 view .LVU1320
 4147 000a 0C4A     		ldr	r2, .L254
 4148 000c 1368     		ldr	r3, [r2]
 4149 000e 0133     		adds	r3, r3, #1
 4150 0010 1360     		str	r3, [r2]
 365:Drivers/lvgl/src/core/lv_obj.c ****         LV_ASSERT_MALLOC(obj->spec_attr);
 4151              		.loc 1 365 9 is_stmt 1 view .LVU1321
 365:Drivers/lvgl/src/core/lv_obj.c ****         LV_ASSERT_MALLOC(obj->spec_attr);
 4152              		.loc 1 365 26 is_stmt 0 view .LVU1322
 4153 0012 1C20     		movs	r0, #28
 4154              	.LVL469:
 365:Drivers/lvgl/src/core/lv_obj.c ****         LV_ASSERT_MALLOC(obj->spec_attr);
 4155              		.loc 1 365 26 view .LVU1323
 4156 0014 FFF7FEFF 		bl	lv_mem_alloc
 4157              	.LVL470:
 365:Drivers/lvgl/src/core/lv_obj.c ****         LV_ASSERT_MALLOC(obj->spec_attr);
 4158              		.loc 1 365 24 view .LVU1324
 4159 0018 A060     		str	r0, [r4, #8]
 366:Drivers/lvgl/src/core/lv_obj.c ****         if(obj->spec_attr == NULL) return;
 4160              		.loc 1 366 9 is_stmt 1 view .LVU1325
 366:Drivers/lvgl/src/core/lv_obj.c ****         if(obj->spec_attr == NULL) return;
 4161              		.loc 1 366 9 view .LVU1326
 4162 001a 68B1     		cbz	r0, .L248
 366:Drivers/lvgl/src/core/lv_obj.c ****         if(obj->spec_attr == NULL) return;
 4163              		.loc 1 366 9 view .LVU1327
 366:Drivers/lvgl/src/core/lv_obj.c ****         if(obj->spec_attr == NULL) return;
 4164              		.loc 1 366 41 view .LVU1328
 367:Drivers/lvgl/src/core/lv_obj.c **** 
 4165              		.loc 1 367 9 view .LVU1329
 369:Drivers/lvgl/src/core/lv_obj.c **** 
 4166              		.loc 1 369 9 view .LVU1330
 4167 001c 1C21     		movs	r1, #28
 4168 001e FFF7FEFF 		bl	lv_memset_00
 4169              	.LVL471:
 371:Drivers/lvgl/src/core/lv_obj.c ****         obj->spec_attr->scrollbar_mode = LV_SCROLLBAR_MODE_AUTO;
 4170              		.loc 1 371 9 view .LVU1331
 371:Drivers/lvgl/src/core/lv_obj.c ****         obj->spec_attr->scrollbar_mode = LV_SCROLLBAR_MODE_AUTO;
 4171              		.loc 1 371 12 is_stmt 0 view .LVU1332
 4172 0022 A268     		ldr	r2, [r4, #8]
 371:Drivers/lvgl/src/core/lv_obj.c ****         obj->spec_attr->scrollbar_mode = LV_SCROLLBAR_MODE_AUTO;
 4173              		.loc 1 371 36 view .LVU1333
 4174 0024 537E     		ldrb	r3, [r2, #25]	@ zero_extendqisi2
 4175 0026 43F00F03 		orr	r3, r3, #15
ARM GAS  /var/folders/0z/tsy30v1j4xl4_7kw94k978ww0000gn/T//ccVt8IXl.s 			page 134


 4176 002a 5376     		strb	r3, [r2, #25]
 372:Drivers/lvgl/src/core/lv_obj.c ****     }
 4177              		.loc 1 372 9 is_stmt 1 view .LVU1334
 372:Drivers/lvgl/src/core/lv_obj.c ****     }
 4178              		.loc 1 372 12 is_stmt 0 view .LVU1335
 4179 002c A268     		ldr	r2, [r4, #8]
 372:Drivers/lvgl/src/core/lv_obj.c ****     }
 4180              		.loc 1 372 40 view .LVU1336
 4181 002e 137E     		ldrb	r3, [r2, #24]	@ zero_extendqisi2
 4182 0030 43F00303 		orr	r3, r3, #3
 4183 0034 1376     		strb	r3, [r2, #24]
 4184              	.LBE229:
 374:Drivers/lvgl/src/core/lv_obj.c **** 
 4185              		.loc 1 374 1 view .LVU1337
 4186 0036 10BD     		pop	{r4, pc}
 4187              	.LVL472:
 4188              	.L248:
 4189              	.LBB230:
 366:Drivers/lvgl/src/core/lv_obj.c ****         if(obj->spec_attr == NULL) return;
 4190              		.loc 1 366 9 is_stmt 1 discriminator 1 view .LVU1338
 366:Drivers/lvgl/src/core/lv_obj.c ****         if(obj->spec_attr == NULL) return;
 4191              		.loc 1 366 9 discriminator 1 view .LVU1339
 366:Drivers/lvgl/src/core/lv_obj.c ****         if(obj->spec_attr == NULL) return;
 4192              		.loc 1 366 9 discriminator 1 view .LVU1340
 366:Drivers/lvgl/src/core/lv_obj.c ****         if(obj->spec_attr == NULL) return;
 4193              		.loc 1 366 9 discriminator 1 view .LVU1341
 366:Drivers/lvgl/src/core/lv_obj.c ****         if(obj->spec_attr == NULL) return;
 4194              		.loc 1 366 9 discriminator 1 view .LVU1342
 4195 0038 FEE7     		b	.L248
 4196              	.L255:
 4197 003a 00BF     		.align	2
 4198              	.L254:
 4199 003c 00000000 		.word	.LANCHOR2
 4200              	.LBE230:
 4201              		.cfi_endproc
 4202              	.LFE217:
 4204              		.section	.text.lv_obj_check_type,"ax",%progbits
 4205              		.align	1
 4206              		.global	lv_obj_check_type
 4207              		.syntax unified
 4208              		.thumb
 4209              		.thumb_func
 4211              	lv_obj_check_type:
 4212              	.LVL473:
 4213              	.LFB218:
 377:Drivers/lvgl/src/core/lv_obj.c ****     if(obj == NULL) return false;
 4214              		.loc 1 377 1 view -0
 4215              		.cfi_startproc
 4216              		@ args = 0, pretend = 0, frame = 0
 4217              		@ frame_needed = 0, uses_anonymous_args = 0
 4218              		@ link register save eliminated.
 378:Drivers/lvgl/src/core/lv_obj.c ****     return obj->class_p == class_p ? true : false;
 4219              		.loc 1 378 5 view .LVU1344
 378:Drivers/lvgl/src/core/lv_obj.c ****     return obj->class_p == class_p ? true : false;
 4220              		.loc 1 378 7 is_stmt 0 view .LVU1345
 4221 0000 28B1     		cbz	r0, .L258
 379:Drivers/lvgl/src/core/lv_obj.c **** }
ARM GAS  /var/folders/0z/tsy30v1j4xl4_7kw94k978ww0000gn/T//ccVt8IXl.s 			page 135


 4222              		.loc 1 379 5 is_stmt 1 view .LVU1346
 379:Drivers/lvgl/src/core/lv_obj.c **** }
 4223              		.loc 1 379 15 is_stmt 0 view .LVU1347
 4224 0002 0068     		ldr	r0, [r0]
 4225              	.LVL474:
 379:Drivers/lvgl/src/core/lv_obj.c **** }
 4226              		.loc 1 379 43 view .LVU1348
 4227 0004 8842     		cmp	r0, r1
 4228 0006 14BF     		ite	ne
 4229 0008 0020     		movne	r0, #0
 4230 000a 0120     		moveq	r0, #1
 4231 000c 7047     		bx	lr
 4232              	.LVL475:
 4233              	.L258:
 378:Drivers/lvgl/src/core/lv_obj.c ****     return obj->class_p == class_p ? true : false;
 4234              		.loc 1 378 28 view .LVU1349
 4235 000e 0020     		movs	r0, #0
 4236              	.LVL476:
 380:Drivers/lvgl/src/core/lv_obj.c **** 
 4237              		.loc 1 380 1 view .LVU1350
 4238 0010 7047     		bx	lr
 4239              		.cfi_endproc
 4240              	.LFE218:
 4242              		.section	.text.lv_obj_has_class,"ax",%progbits
 4243              		.align	1
 4244              		.global	lv_obj_has_class
 4245              		.syntax unified
 4246              		.thumb
 4247              		.thumb_func
 4249              	lv_obj_has_class:
 4250              	.LVL477:
 4251              	.LFB219:
 383:Drivers/lvgl/src/core/lv_obj.c ****     const lv_obj_class_t * obj_class = obj->class_p;
 4252              		.loc 1 383 1 is_stmt 1 view -0
 4253              		.cfi_startproc
 4254              		@ args = 0, pretend = 0, frame = 0
 4255              		@ frame_needed = 0, uses_anonymous_args = 0
 4256              		@ link register save eliminated.
 384:Drivers/lvgl/src/core/lv_obj.c ****     while(obj_class) {
 4257              		.loc 1 384 5 view .LVU1352
 384:Drivers/lvgl/src/core/lv_obj.c ****     while(obj_class) {
 4258              		.loc 1 384 28 is_stmt 0 view .LVU1353
 4259 0000 0368     		ldr	r3, [r0]
 4260              	.LVL478:
 385:Drivers/lvgl/src/core/lv_obj.c ****         if(obj_class == class_p) return true;
 4261              		.loc 1 385 5 is_stmt 1 view .LVU1354
 385:Drivers/lvgl/src/core/lv_obj.c ****         if(obj_class == class_p) return true;
 4262              		.loc 1 385 10 is_stmt 0 view .LVU1355
 4263 0002 00E0     		b	.L260
 4264              	.L265:
 387:Drivers/lvgl/src/core/lv_obj.c ****     }
 4265              		.loc 1 387 9 is_stmt 1 view .LVU1356
 387:Drivers/lvgl/src/core/lv_obj.c ****     }
 4266              		.loc 1 387 19 is_stmt 0 view .LVU1357
 4267 0004 1B68     		ldr	r3, [r3]
 4268              	.LVL479:
 4269              	.L260:
ARM GAS  /var/folders/0z/tsy30v1j4xl4_7kw94k978ww0000gn/T//ccVt8IXl.s 			page 136


 385:Drivers/lvgl/src/core/lv_obj.c ****         if(obj_class == class_p) return true;
 4270              		.loc 1 385 11 is_stmt 1 view .LVU1358
 4271 0006 1BB1     		cbz	r3, .L264
 386:Drivers/lvgl/src/core/lv_obj.c ****         obj_class = obj_class->base_class;
 4272              		.loc 1 386 9 view .LVU1359
 386:Drivers/lvgl/src/core/lv_obj.c ****         obj_class = obj_class->base_class;
 4273              		.loc 1 386 11 is_stmt 0 view .LVU1360
 4274 0008 8B42     		cmp	r3, r1
 4275 000a FBD1     		bne	.L265
 386:Drivers/lvgl/src/core/lv_obj.c ****         obj_class = obj_class->base_class;
 4276              		.loc 1 386 41 view .LVU1361
 4277 000c 0120     		movs	r0, #1
 4278              	.LVL480:
 391:Drivers/lvgl/src/core/lv_obj.c **** 
 4279              		.loc 1 391 1 view .LVU1362
 4280 000e 7047     		bx	lr
 4281              	.LVL481:
 4282              	.L264:
 390:Drivers/lvgl/src/core/lv_obj.c **** }
 4283              		.loc 1 390 12 view .LVU1363
 4284 0010 0020     		movs	r0, #0
 4285              	.LVL482:
 390:Drivers/lvgl/src/core/lv_obj.c **** }
 4286              		.loc 1 390 12 view .LVU1364
 4287 0012 7047     		bx	lr
 4288              		.cfi_endproc
 4289              	.LFE219:
 4291              		.section	.text.lv_obj_get_class,"ax",%progbits
 4292              		.align	1
 4293              		.global	lv_obj_get_class
 4294              		.syntax unified
 4295              		.thumb
 4296              		.thumb_func
 4298              	lv_obj_get_class:
 4299              	.LVL483:
 4300              	.LFB220:
 394:Drivers/lvgl/src/core/lv_obj.c ****     return obj->class_p;
 4301              		.loc 1 394 1 is_stmt 1 view -0
 4302              		.cfi_startproc
 4303              		@ args = 0, pretend = 0, frame = 0
 4304              		@ frame_needed = 0, uses_anonymous_args = 0
 4305              		@ link register save eliminated.
 395:Drivers/lvgl/src/core/lv_obj.c **** }
 4306              		.loc 1 395 5 view .LVU1366
 396:Drivers/lvgl/src/core/lv_obj.c **** 
 4307              		.loc 1 396 1 is_stmt 0 view .LVU1367
 4308 0000 0068     		ldr	r0, [r0]
 4309              	.LVL484:
 396:Drivers/lvgl/src/core/lv_obj.c **** 
 4310              		.loc 1 396 1 view .LVU1368
 4311 0002 7047     		bx	lr
 4312              		.cfi_endproc
 4313              	.LFE220:
 4315              		.section	.text.lv_obj_is_valid,"ax",%progbits
 4316              		.align	1
 4317              		.global	lv_obj_is_valid
 4318              		.syntax unified
ARM GAS  /var/folders/0z/tsy30v1j4xl4_7kw94k978ww0000gn/T//ccVt8IXl.s 			page 137


 4319              		.thumb
 4320              		.thumb_func
 4322              	lv_obj_is_valid:
 4323              	.LVL485:
 4324              	.LFB221:
 399:Drivers/lvgl/src/core/lv_obj.c ****     lv_disp_t * disp = lv_disp_get_next(NULL);
 4325              		.loc 1 399 1 is_stmt 1 view -0
 4326              		.cfi_startproc
 4327              		@ args = 0, pretend = 0, frame = 0
 4328              		@ frame_needed = 0, uses_anonymous_args = 0
 399:Drivers/lvgl/src/core/lv_obj.c ****     lv_disp_t * disp = lv_disp_get_next(NULL);
 4329              		.loc 1 399 1 is_stmt 0 view .LVU1370
 4330 0000 70B5     		push	{r4, r5, r6, lr}
 4331              		.cfi_def_cfa_offset 16
 4332              		.cfi_offset 4, -16
 4333              		.cfi_offset 5, -12
 4334              		.cfi_offset 6, -8
 4335              		.cfi_offset 14, -4
 4336 0002 0646     		mov	r6, r0
 400:Drivers/lvgl/src/core/lv_obj.c ****     while(disp) {
 4337              		.loc 1 400 5 is_stmt 1 view .LVU1371
 400:Drivers/lvgl/src/core/lv_obj.c ****     while(disp) {
 4338              		.loc 1 400 24 is_stmt 0 view .LVU1372
 4339 0004 0020     		movs	r0, #0
 4340              	.LVL486:
 400:Drivers/lvgl/src/core/lv_obj.c ****     while(disp) {
 4341              		.loc 1 400 24 view .LVU1373
 4342 0006 FFF7FEFF 		bl	lv_disp_get_next
 4343              	.LVL487:
 4344 000a 0546     		mov	r5, r0
 4345              	.LVL488:
 401:Drivers/lvgl/src/core/lv_obj.c ****         uint32_t i;
 4346              		.loc 1 401 5 is_stmt 1 view .LVU1374
 4347              	.L268:
 401:Drivers/lvgl/src/core/lv_obj.c ****         uint32_t i;
 4348              		.loc 1 401 11 view .LVU1375
 4349 000c B5B1     		cbz	r5, .L275
 4350              	.LBB231:
 403:Drivers/lvgl/src/core/lv_obj.c ****             if(disp->screens[i] == obj) return true;
 4351              		.loc 1 403 15 is_stmt 0 view .LVU1376
 4352 000e 0024     		movs	r4, #0
 4353 0010 00E0     		b	.L271
 4354              	.LVL489:
 4355              	.L277:
 403:Drivers/lvgl/src/core/lv_obj.c ****             if(disp->screens[i] == obj) return true;
 4356              		.loc 1 403 43 is_stmt 1 discriminator 2 view .LVU1377
 4357 0012 0134     		adds	r4, r4, #1
 4358              	.LVL490:
 4359              	.L271:
 403:Drivers/lvgl/src/core/lv_obj.c ****             if(disp->screens[i] == obj) return true;
 4360              		.loc 1 403 22 discriminator 1 view .LVU1378
 403:Drivers/lvgl/src/core/lv_obj.c ****             if(disp->screens[i] == obj) return true;
 4361              		.loc 1 403 28 is_stmt 0 discriminator 1 view .LVU1379
 4362 0014 6B6A     		ldr	r3, [r5, #36]
 403:Drivers/lvgl/src/core/lv_obj.c ****             if(disp->screens[i] == obj) return true;
 4363              		.loc 1 403 22 discriminator 1 view .LVU1380
 4364 0016 A342     		cmp	r3, r4
ARM GAS  /var/folders/0z/tsy30v1j4xl4_7kw94k978ww0000gn/T//ccVt8IXl.s 			page 138


 4365 0018 0BD9     		bls	.L276
 4366              	.LBB232:
 404:Drivers/lvgl/src/core/lv_obj.c ****             bool found = obj_valid_child(disp->screens[i], obj);
 4367              		.loc 1 404 13 is_stmt 1 view .LVU1381
 404:Drivers/lvgl/src/core/lv_obj.c ****             bool found = obj_valid_child(disp->screens[i], obj);
 4368              		.loc 1 404 20 is_stmt 0 view .LVU1382
 4369 001a EB68     		ldr	r3, [r5, #12]
 404:Drivers/lvgl/src/core/lv_obj.c ****             bool found = obj_valid_child(disp->screens[i], obj);
 4370              		.loc 1 404 29 view .LVU1383
 4371 001c 53F82400 		ldr	r0, [r3, r4, lsl #2]
 404:Drivers/lvgl/src/core/lv_obj.c ****             bool found = obj_valid_child(disp->screens[i], obj);
 4372              		.loc 1 404 15 view .LVU1384
 4373 0020 B042     		cmp	r0, r6
 4374 0022 0DD0     		beq	.L272
 405:Drivers/lvgl/src/core/lv_obj.c ****             if(found) return true;
 4375              		.loc 1 405 13 is_stmt 1 view .LVU1385
 405:Drivers/lvgl/src/core/lv_obj.c ****             if(found) return true;
 4376              		.loc 1 405 26 is_stmt 0 view .LVU1386
 4377 0024 3146     		mov	r1, r6
 4378 0026 FFF7FEFF 		bl	obj_valid_child
 4379              	.LVL491:
 406:Drivers/lvgl/src/core/lv_obj.c ****         }
 4380              		.loc 1 406 13 is_stmt 1 view .LVU1387
 406:Drivers/lvgl/src/core/lv_obj.c ****         }
 4381              		.loc 1 406 15 is_stmt 0 view .LVU1388
 4382 002a 0346     		mov	r3, r0
 4383 002c 0028     		cmp	r0, #0
 4384 002e F0D0     		beq	.L277
 4385 0030 07E0     		b	.L269
 4386              	.LVL492:
 4387              	.L276:
 406:Drivers/lvgl/src/core/lv_obj.c ****         }
 4388              		.loc 1 406 15 view .LVU1389
 4389              	.LBE232:
 409:Drivers/lvgl/src/core/lv_obj.c ****     }
 4390              		.loc 1 409 9 is_stmt 1 view .LVU1390
 409:Drivers/lvgl/src/core/lv_obj.c ****     }
 4391              		.loc 1 409 16 is_stmt 0 view .LVU1391
 4392 0032 2846     		mov	r0, r5
 4393 0034 FFF7FEFF 		bl	lv_disp_get_next
 4394              	.LVL493:
 4395 0038 0546     		mov	r5, r0
 4396              	.LVL494:
 409:Drivers/lvgl/src/core/lv_obj.c ****     }
 4397              		.loc 1 409 16 view .LVU1392
 4398 003a E7E7     		b	.L268
 4399              	.LVL495:
 4400              	.L275:
 409:Drivers/lvgl/src/core/lv_obj.c ****     }
 4401              		.loc 1 409 16 view .LVU1393
 4402              	.LBE231:
 412:Drivers/lvgl/src/core/lv_obj.c **** }
 4403              		.loc 1 412 12 view .LVU1394
 4404 003c 0023     		movs	r3, #0
 4405 003e 00E0     		b	.L269
 4406              	.LVL496:
 4407              	.L272:
ARM GAS  /var/folders/0z/tsy30v1j4xl4_7kw94k978ww0000gn/T//ccVt8IXl.s 			page 139


 4408              	.LBB234:
 4409              	.LBB233:
 404:Drivers/lvgl/src/core/lv_obj.c ****             bool found = obj_valid_child(disp->screens[i], obj);
 4410              		.loc 1 404 48 view .LVU1395
 4411 0040 0123     		movs	r3, #1
 4412              	.LVL497:
 4413              	.L269:
 404:Drivers/lvgl/src/core/lv_obj.c ****             bool found = obj_valid_child(disp->screens[i], obj);
 4414              		.loc 1 404 48 view .LVU1396
 4415              	.LBE233:
 4416              	.LBE234:
 413:Drivers/lvgl/src/core/lv_obj.c **** 
 4417              		.loc 1 413 1 view .LVU1397
 4418 0042 1846     		mov	r0, r3
 4419 0044 70BD     		pop	{r4, r5, r6, pc}
 413:Drivers/lvgl/src/core/lv_obj.c **** 
 4420              		.loc 1 413 1 view .LVU1398
 4421              		.cfi_endproc
 4422              	.LFE221:
 4424              		.global	lv_obj_class
 4425              		.section	.bss.lv_initialized,"aw",%nobits
 4426              		.set	.LANCHOR1,. + 0
 4429              	lv_initialized:
 4430 0000 00       		.space	1
 4431              		.section	.bss.x.0,"aw",%nobits
 4432              		.align	2
 4433              		.set	.LANCHOR2,. + 0
 4436              	x.0:
 4437 0000 00000000 		.space	4
 4438              		.section	.rodata.lv_obj_class,"a"
 4439              		.align	2
 4440              		.set	.LANCHOR0,. + 0
 4443              	lv_obj_class:
 4444 0000 00000000 		.word	0
 4445 0004 00000000 		.word	lv_obj_constructor
 4446 0008 00000000 		.word	lv_obj_destructor
 4447 000c 00000000 		.space	4
 4448 0010 00000000 		.word	lv_obj_event
 4449 0014 8200     		.short	130
 4450 0016 8200     		.short	130
 4451 0018 4A       		.byte	74
 4452 0019 02       		.byte	2
 4453 001a 00       		.byte	0
 4454 001b 00       		.space	1
 4455              		.text
 4456              	.Letext0:
 4457              		.file 6 "/Users/johannes/Library/Application Support/Code/User/globalStorage/bmd.stm32-for-vscode/
 4458              		.file 7 "/Users/johannes/Library/Application Support/Code/User/globalStorage/bmd.stm32-for-vscode/
 4459              		.file 8 "/Users/johannes/Library/Application Support/Code/User/globalStorage/bmd.stm32-for-vscode/
 4460              		.file 9 "Drivers/lvgl/src/core/../misc/../font/lv_font.h"
 4461              		.file 10 "Drivers/lvgl/src/core/../misc/lv_types.h"
 4462              		.file 11 "Drivers/lvgl/src/core/../misc/lv_color.h"
 4463              		.file 12 "Drivers/lvgl/src/core/../misc/lv_anim.h"
 4464              		.file 13 "Drivers/lvgl/src/core/../misc/lv_txt.h"
 4465              		.file 14 "Drivers/lvgl/src/core/../misc/lv_bidi.h"
 4466              		.file 15 "Drivers/lvgl/src/core/../hal/../draw/lv_img_buf.h"
 4467              		.file 16 "Drivers/lvgl/src/core/lv_obj.h"
ARM GAS  /var/folders/0z/tsy30v1j4xl4_7kw94k978ww0000gn/T//ccVt8IXl.s 			page 140


 4468              		.file 17 "Drivers/lvgl/src/core/../hal/../draw/lv_draw_rect.h"
 4469              		.file 18 "Drivers/lvgl/src/core/../hal/../draw/lv_draw_label.h"
 4470              		.file 19 "Drivers/lvgl/src/core/../hal/../draw/lv_draw_img.h"
 4471              		.file 20 "Drivers/lvgl/src/core/../hal/../draw/lv_draw_line.h"
 4472              		.file 21 "Drivers/lvgl/src/core/../hal/../draw/lv_draw_arc.h"
 4473              		.file 22 "Drivers/lvgl/src/core/../hal/../draw/lv_draw_mask.h"
 4474              		.file 23 "Drivers/lvgl/src/core/../hal/../draw/lv_draw_layer.h"
 4475              		.file 24 "Drivers/lvgl/src/core/../hal/../draw/lv_draw.h"
 4476              		.file 25 "Drivers/lvgl/src/core/../hal/../misc/lv_ll.h"
 4477              		.file 26 "Drivers/lvgl/src/core/../hal/../misc/lv_timer.h"
 4478              		.file 27 "Drivers/lvgl/src/core/../hal/lv_hal_disp.h"
 4479              		.file 28 "Drivers/lvgl/src/core/lv_theme.h"
 4480              		.file 29 "Drivers/lvgl/src/core/../hal/lv_hal_indev.h"
 4481              		.file 30 "Drivers/lvgl/src/core/lv_group.h"
 4482              		.file 31 "Drivers/lvgl/src/core/lv_obj_scroll.h"
 4483              		.file 32 "Drivers/lvgl/src/core/lv_obj_draw.h"
 4484              		.file 33 "Drivers/lvgl/src/core/lv_obj_class.h"
 4485              		.file 34 "Drivers/lvgl/src/core/lv_event.h"
 4486              		.file 35 "Drivers/lvgl/src/core/../misc/lv_gc.h"
 4487              		.file 36 "Drivers/lvgl/src/core/../extra/libs/gif/../../../../src/widgets/lv_bar.h"
 4488              		.file 37 "Drivers/lvgl/src/core/../extra/widgets/imgbtn/lv_imgbtn.h"
 4489              		.file 38 "Drivers/lvgl/src/core/../misc/lv_mem.h"
 4490              		.file 39 "Drivers/lvgl/src/core/lv_obj_tree.h"
 4491              		.file 40 "Drivers/lvgl/src/core/../hal/../draw/sw/../../core/lv_obj_pos.h"
 4492              		.file 41 "Drivers/lvgl/src/core/../extra/lv_extra.h"
 4493              		.file 42 "Drivers/lvgl/src/core/../hal/../draw/lv_img_decoder.h"
 4494              		.file 43 "Drivers/lvgl/src/core/lv_refr.h"
 4495              		.file 44 "Drivers/lvgl/src/core/../hal/../draw/../misc/lv_fs.h"
 4496              		.file 45 "Drivers/lvgl/src/core/lv_indev.h"
ARM GAS  /var/folders/0z/tsy30v1j4xl4_7kw94k978ww0000gn/T//ccVt8IXl.s 			page 141


DEFINED SYMBOLS
                            *ABS*:0000000000000000 lv_obj.c
/var/folders/0z/tsy30v1j4xl4_7kw94k978ww0000gn/T//ccVt8IXl.s:20     .text.obj_valid_child:0000000000000000 $t
/var/folders/0z/tsy30v1j4xl4_7kw94k978ww0000gn/T//ccVt8IXl.s:25     .text.obj_valid_child:0000000000000000 obj_valid_child
/var/folders/0z/tsy30v1j4xl4_7kw94k978ww0000gn/T//ccVt8IXl.s:121    .text.scrollbar_init_draw_dsc:0000000000000000 $t
/var/folders/0z/tsy30v1j4xl4_7kw94k978ww0000gn/T//ccVt8IXl.s:126    .text.scrollbar_init_draw_dsc:0000000000000000 scrollbar_init_draw_dsc
/var/folders/0z/tsy30v1j4xl4_7kw94k978ww0000gn/T//ccVt8IXl.s:447    .text.draw_scrollbar:0000000000000000 $t
/var/folders/0z/tsy30v1j4xl4_7kw94k978ww0000gn/T//ccVt8IXl.s:452    .text.draw_scrollbar:0000000000000000 draw_scrollbar
/var/folders/0z/tsy30v1j4xl4_7kw94k978ww0000gn/T//ccVt8IXl.s:608    .text.draw_scrollbar:00000000000000a8 $d
/var/folders/0z/tsy30v1j4xl4_7kw94k978ww0000gn/T//ccVt8IXl.s:613    .text.lv_obj_draw:0000000000000000 $t
/var/folders/0z/tsy30v1j4xl4_7kw94k978ww0000gn/T//ccVt8IXl.s:618    .text.lv_obj_draw:0000000000000000 lv_obj_draw
/var/folders/0z/tsy30v1j4xl4_7kw94k978ww0000gn/T//ccVt8IXl.s:1433   .text.lv_obj_draw:000000000000030c $d
/var/folders/0z/tsy30v1j4xl4_7kw94k978ww0000gn/T//ccVt8IXl.s:1440   .text.lv_obj_constructor:0000000000000000 $t
/var/folders/0z/tsy30v1j4xl4_7kw94k978ww0000gn/T//ccVt8IXl.s:1445   .text.lv_obj_constructor:0000000000000000 lv_obj_constructor
/var/folders/0z/tsy30v1j4xl4_7kw94k978ww0000gn/T//ccVt8IXl.s:1619   .text.lv_obj_set_state:0000000000000000 $t
/var/folders/0z/tsy30v1j4xl4_7kw94k978ww0000gn/T//ccVt8IXl.s:1624   .text.lv_obj_set_state:0000000000000000 lv_obj_set_state
/var/folders/0z/tsy30v1j4xl4_7kw94k978ww0000gn/T//ccVt8IXl.s:2285   .text.lv_is_initialized:0000000000000000 $t
/var/folders/0z/tsy30v1j4xl4_7kw94k978ww0000gn/T//ccVt8IXl.s:2291   .text.lv_is_initialized:0000000000000000 lv_is_initialized
/var/folders/0z/tsy30v1j4xl4_7kw94k978ww0000gn/T//ccVt8IXl.s:2306   .text.lv_is_initialized:0000000000000008 $d
/var/folders/0z/tsy30v1j4xl4_7kw94k978ww0000gn/T//ccVt8IXl.s:2311   .text.lv_init:0000000000000000 $t
/var/folders/0z/tsy30v1j4xl4_7kw94k978ww0000gn/T//ccVt8IXl.s:2317   .text.lv_init:0000000000000000 lv_init
/var/folders/0z/tsy30v1j4xl4_7kw94k978ww0000gn/T//ccVt8IXl.s:2407   .text.lv_init:000000000000004c $d
/var/folders/0z/tsy30v1j4xl4_7kw94k978ww0000gn/T//ccVt8IXl.s:2414   .text.lv_deinit:0000000000000000 $t
/var/folders/0z/tsy30v1j4xl4_7kw94k978ww0000gn/T//ccVt8IXl.s:2420   .text.lv_deinit:0000000000000000 lv_deinit
/var/folders/0z/tsy30v1j4xl4_7kw94k978ww0000gn/T//ccVt8IXl.s:2453   .text.lv_deinit:0000000000000018 $d
/var/folders/0z/tsy30v1j4xl4_7kw94k978ww0000gn/T//ccVt8IXl.s:2458   .text.lv_obj_create:0000000000000000 $t
/var/folders/0z/tsy30v1j4xl4_7kw94k978ww0000gn/T//ccVt8IXl.s:2464   .text.lv_obj_create:0000000000000000 lv_obj_create
/var/folders/0z/tsy30v1j4xl4_7kw94k978ww0000gn/T//ccVt8IXl.s:2502   .text.lv_obj_create:0000000000000014 $d
/var/folders/0z/tsy30v1j4xl4_7kw94k978ww0000gn/T//ccVt8IXl.s:2507   .text.lv_obj_clear_flag:0000000000000000 $t
/var/folders/0z/tsy30v1j4xl4_7kw94k978ww0000gn/T//ccVt8IXl.s:2513   .text.lv_obj_clear_flag:0000000000000000 lv_obj_clear_flag
/var/folders/0z/tsy30v1j4xl4_7kw94k978ww0000gn/T//ccVt8IXl.s:2633   .text.lv_obj_add_state:0000000000000000 $t
/var/folders/0z/tsy30v1j4xl4_7kw94k978ww0000gn/T//ccVt8IXl.s:2639   .text.lv_obj_add_state:0000000000000000 lv_obj_add_state
/var/folders/0z/tsy30v1j4xl4_7kw94k978ww0000gn/T//ccVt8IXl.s:2682   .text.lv_obj_clear_state:0000000000000000 $t
/var/folders/0z/tsy30v1j4xl4_7kw94k978ww0000gn/T//ccVt8IXl.s:2688   .text.lv_obj_clear_state:0000000000000000 lv_obj_clear_state
/var/folders/0z/tsy30v1j4xl4_7kw94k978ww0000gn/T//ccVt8IXl.s:2731   .text.lv_obj_has_flag:0000000000000000 $t
/var/folders/0z/tsy30v1j4xl4_7kw94k978ww0000gn/T//ccVt8IXl.s:2737   .text.lv_obj_has_flag:0000000000000000 lv_obj_has_flag
/var/folders/0z/tsy30v1j4xl4_7kw94k978ww0000gn/T//ccVt8IXl.s:2765   .text.lv_obj_has_flag_any:0000000000000000 $t
/var/folders/0z/tsy30v1j4xl4_7kw94k978ww0000gn/T//ccVt8IXl.s:2771   .text.lv_obj_has_flag_any:0000000000000000 lv_obj_has_flag_any
/var/folders/0z/tsy30v1j4xl4_7kw94k978ww0000gn/T//ccVt8IXl.s:2798   .text.lv_obj_get_state:0000000000000000 $t
/var/folders/0z/tsy30v1j4xl4_7kw94k978ww0000gn/T//ccVt8IXl.s:2804   .text.lv_obj_get_state:0000000000000000 lv_obj_get_state
/var/folders/0z/tsy30v1j4xl4_7kw94k978ww0000gn/T//ccVt8IXl.s:2825   .text.lv_obj_has_state:0000000000000000 $t
/var/folders/0z/tsy30v1j4xl4_7kw94k978ww0000gn/T//ccVt8IXl.s:2831   .text.lv_obj_has_state:0000000000000000 lv_obj_has_state
/var/folders/0z/tsy30v1j4xl4_7kw94k978ww0000gn/T//ccVt8IXl.s:2858   .text.lv_obj_get_group:0000000000000000 $t
/var/folders/0z/tsy30v1j4xl4_7kw94k978ww0000gn/T//ccVt8IXl.s:2864   .text.lv_obj_get_group:0000000000000000 lv_obj_get_group
/var/folders/0z/tsy30v1j4xl4_7kw94k978ww0000gn/T//ccVt8IXl.s:2891   .text.lv_obj_event:0000000000000000 $t
/var/folders/0z/tsy30v1j4xl4_7kw94k978ww0000gn/T//ccVt8IXl.s:2896   .text.lv_obj_event:0000000000000000 lv_obj_event
/var/folders/0z/tsy30v1j4xl4_7kw94k978ww0000gn/T//ccVt8IXl.s:2944   .text.lv_obj_event:0000000000000024 $d
/var/folders/0z/tsy30v1j4xl4_7kw94k978ww0000gn/T//ccVt8IXl.s:2985   .text.lv_obj_event:0000000000000074 $t
/var/folders/0z/tsy30v1j4xl4_7kw94k978ww0000gn/T//ccVt8IXl.s:3835   .text.lv_obj_destructor:0000000000000000 $t
/var/folders/0z/tsy30v1j4xl4_7kw94k978ww0000gn/T//ccVt8IXl.s:3840   .text.lv_obj_destructor:0000000000000000 lv_obj_destructor
/var/folders/0z/tsy30v1j4xl4_7kw94k978ww0000gn/T//ccVt8IXl.s:3956   .text.lv_obj_destructor:0000000000000064 $d
/var/folders/0z/tsy30v1j4xl4_7kw94k978ww0000gn/T//ccVt8IXl.s:3961   .text.lv_obj_add_flag:0000000000000000 $t
/var/folders/0z/tsy30v1j4xl4_7kw94k978ww0000gn/T//ccVt8IXl.s:3967   .text.lv_obj_add_flag:0000000000000000 lv_obj_add_flag
/var/folders/0z/tsy30v1j4xl4_7kw94k978ww0000gn/T//ccVt8IXl.s:4114   .text.lv_obj_allocate_spec_attr:0000000000000000 $t
/var/folders/0z/tsy30v1j4xl4_7kw94k978ww0000gn/T//ccVt8IXl.s:4120   .text.lv_obj_allocate_spec_attr:0000000000000000 lv_obj_allocate_spec_attr
/var/folders/0z/tsy30v1j4xl4_7kw94k978ww0000gn/T//ccVt8IXl.s:4199   .text.lv_obj_allocate_spec_attr:000000000000003c $d
/var/folders/0z/tsy30v1j4xl4_7kw94k978ww0000gn/T//ccVt8IXl.s:4205   .text.lv_obj_check_type:0000000000000000 $t
ARM GAS  /var/folders/0z/tsy30v1j4xl4_7kw94k978ww0000gn/T//ccVt8IXl.s 			page 142


/var/folders/0z/tsy30v1j4xl4_7kw94k978ww0000gn/T//ccVt8IXl.s:4211   .text.lv_obj_check_type:0000000000000000 lv_obj_check_type
/var/folders/0z/tsy30v1j4xl4_7kw94k978ww0000gn/T//ccVt8IXl.s:4243   .text.lv_obj_has_class:0000000000000000 $t
/var/folders/0z/tsy30v1j4xl4_7kw94k978ww0000gn/T//ccVt8IXl.s:4249   .text.lv_obj_has_class:0000000000000000 lv_obj_has_class
/var/folders/0z/tsy30v1j4xl4_7kw94k978ww0000gn/T//ccVt8IXl.s:4292   .text.lv_obj_get_class:0000000000000000 $t
/var/folders/0z/tsy30v1j4xl4_7kw94k978ww0000gn/T//ccVt8IXl.s:4298   .text.lv_obj_get_class:0000000000000000 lv_obj_get_class
/var/folders/0z/tsy30v1j4xl4_7kw94k978ww0000gn/T//ccVt8IXl.s:4316   .text.lv_obj_is_valid:0000000000000000 $t
/var/folders/0z/tsy30v1j4xl4_7kw94k978ww0000gn/T//ccVt8IXl.s:4322   .text.lv_obj_is_valid:0000000000000000 lv_obj_is_valid
/var/folders/0z/tsy30v1j4xl4_7kw94k978ww0000gn/T//ccVt8IXl.s:4443   .rodata.lv_obj_class:0000000000000000 lv_obj_class
/var/folders/0z/tsy30v1j4xl4_7kw94k978ww0000gn/T//ccVt8IXl.s:4429   .bss.lv_initialized:0000000000000000 lv_initialized
/var/folders/0z/tsy30v1j4xl4_7kw94k978ww0000gn/T//ccVt8IXl.s:4430   .bss.lv_initialized:0000000000000000 $d
/var/folders/0z/tsy30v1j4xl4_7kw94k978ww0000gn/T//ccVt8IXl.s:4432   .bss.x.0:0000000000000000 $d
/var/folders/0z/tsy30v1j4xl4_7kw94k978ww0000gn/T//ccVt8IXl.s:4436   .bss.x.0:0000000000000000 x.0
/var/folders/0z/tsy30v1j4xl4_7kw94k978ww0000gn/T//ccVt8IXl.s:4439   .rodata.lv_obj_class:0000000000000000 $d

UNDEFINED SYMBOLS
lv_draw_rect_dsc_init
lv_obj_get_style_prop
lv_obj_get_style_opa_recursive
lv_obj_get_scrollbar_area
lv_area_get_size
lv_obj_draw_dsc_init
lv_event_send
lv_draw_rect
lv_event_get_code
lv_event_get_target
lv_event_get_param
_lv_area_is_in
lv_event_get_draw_ctx
lv_obj_init_draw_rect_dsc
lv_mem_buf_get
lv_draw_mask_radius_init
lv_draw_mask_add
lv_draw_mask_remove_custom
lv_draw_mask_free_param
lv_mem_buf_release
lv_obj_get_scroll_left
lv_obj_get_scroll_top
_lv_obj_style_state_compare
lv_memset_00
lv_style_prop_get_default
lv_obj_style_get_selector_state
lv_obj_style_get_selector_part
_lv_obj_style_create_transition
lv_obj_invalidate
lv_obj_refresh_ext_draw_size
lv_obj_refresh_style
lv_mem_init
_lv_timer_core_init
_lv_fs_init
_lv_anim_core_init
_lv_group_init
lv_draw_init
_lv_obj_style_init
_lv_ll_init
_lv_refr_init
_lv_img_decoder_init
lv_extra_init
ARM GAS  /var/folders/0z/tsy30v1j4xl4_7kw94k978ww0000gn/T//ccVt8IXl.s 			page 143


_lv_disp_ll
_lv_indev_ll
_lv_gc_clear_roots
lv_disp_set_default
lv_mem_deinit
lv_obj_class_create_obj
lv_obj_class_init_obj
lv_obj_is_layout_positioned
lv_obj_get_parent
lv_obj_mark_layout_as_dirty
lv_obj_invalidate_area
lv_event_get_current_target
lv_event_get_indev
lv_indev_get_scroll_obj
lv_obj_get_child_cnt
lv_obj_is_editable
lv_obj_get_scroll_right
lv_obj_get_scroll_dir
lv_obj_get_scroll_x
lv_obj_get_width
lv_obj_scroll_to_x
lv_obj_get_scroll_y
lv_obj_get_height
lv_obj_scroll_to_y
lv_group_get_editing
lv_indev_get_act
lv_indev_get_type
lv_obj_scroll_to_view_recursive
lv_obj_get_scrollbar_mode
lv_obj_calculate_ext_draw_size
lv_event_set_ext_draw_size
_lv_event_mark_deleted
lv_obj_enable_style_refresh
lv_obj_remove_style
lv_anim_del
lv_group_remove_obj
lv_mem_free
lv_group_focus_next
lv_group_get_focused
lv_mem_alloc
lv_disp_get_next
