ARM GAS  /var/folders/0z/tsy30v1j4xl4_7kw94k978ww0000gn/T//cc8A9NTU.s 			page 1


   1              		.cpu cortex-m4
   2              		.arch armv7e-m
   3              		.fpu fpv4-sp-d16
   4              		.eabi_attribute 27, 1
   5              		.eabi_attribute 28, 1
   6              		.eabi_attribute 20, 1
   7              		.eabi_attribute 21, 1
   8              		.eabi_attribute 23, 3
   9              		.eabi_attribute 24, 1
  10              		.eabi_attribute 25, 1
  11              		.eabi_attribute 26, 1
  12              		.eabi_attribute 30, 1
  13              		.eabi_attribute 34, 1
  14              		.eabi_attribute 18, 4
  15              		.file	"lv_obj_style.c"
  16              		.text
  17              	.Ltext0:
  18              		.cfi_sections	.debug_frame
  19              		.section	.text.trans_del,"ax",%progbits
  20              		.align	1
  21              		.syntax unified
  22              		.thumb
  23              		.thumb_func
  25              	trans_del:
  26              	.LVL0:
  27              	.LFB192:
  28              		.file 1 "Drivers/lvgl/src/core/lv_obj_style.c"
   1:Drivers/lvgl/src/core/lv_obj_style.c **** /**
   2:Drivers/lvgl/src/core/lv_obj_style.c ****  * @file lv_obj_style.c
   3:Drivers/lvgl/src/core/lv_obj_style.c ****  *
   4:Drivers/lvgl/src/core/lv_obj_style.c ****  */
   5:Drivers/lvgl/src/core/lv_obj_style.c **** 
   6:Drivers/lvgl/src/core/lv_obj_style.c **** /*********************
   7:Drivers/lvgl/src/core/lv_obj_style.c ****  *      INCLUDES
   8:Drivers/lvgl/src/core/lv_obj_style.c ****  *********************/
   9:Drivers/lvgl/src/core/lv_obj_style.c **** #include "lv_obj.h"
  10:Drivers/lvgl/src/core/lv_obj_style.c **** #include "lv_disp.h"
  11:Drivers/lvgl/src/core/lv_obj_style.c **** #include "../misc/lv_gc.h"
  12:Drivers/lvgl/src/core/lv_obj_style.c **** 
  13:Drivers/lvgl/src/core/lv_obj_style.c **** /*********************
  14:Drivers/lvgl/src/core/lv_obj_style.c ****  *      DEFINES
  15:Drivers/lvgl/src/core/lv_obj_style.c ****  *********************/
  16:Drivers/lvgl/src/core/lv_obj_style.c **** #define MY_CLASS &lv_obj_class
  17:Drivers/lvgl/src/core/lv_obj_style.c **** 
  18:Drivers/lvgl/src/core/lv_obj_style.c **** /**********************
  19:Drivers/lvgl/src/core/lv_obj_style.c ****  *      TYPEDEFS
  20:Drivers/lvgl/src/core/lv_obj_style.c ****  **********************/
  21:Drivers/lvgl/src/core/lv_obj_style.c **** 
  22:Drivers/lvgl/src/core/lv_obj_style.c **** typedef struct {
  23:Drivers/lvgl/src/core/lv_obj_style.c ****     lv_obj_t * obj;
  24:Drivers/lvgl/src/core/lv_obj_style.c ****     lv_style_prop_t prop;
  25:Drivers/lvgl/src/core/lv_obj_style.c ****     lv_style_selector_t selector;
  26:Drivers/lvgl/src/core/lv_obj_style.c ****     lv_style_value_t start_value;
  27:Drivers/lvgl/src/core/lv_obj_style.c ****     lv_style_value_t end_value;
  28:Drivers/lvgl/src/core/lv_obj_style.c **** } trans_t;
  29:Drivers/lvgl/src/core/lv_obj_style.c **** 
  30:Drivers/lvgl/src/core/lv_obj_style.c **** typedef enum {
ARM GAS  /var/folders/0z/tsy30v1j4xl4_7kw94k978ww0000gn/T//cc8A9NTU.s 			page 2


  31:Drivers/lvgl/src/core/lv_obj_style.c ****     CACHE_ZERO = 0,
  32:Drivers/lvgl/src/core/lv_obj_style.c ****     CACHE_TRUE = 1,
  33:Drivers/lvgl/src/core/lv_obj_style.c ****     CACHE_UNSET = 2,
  34:Drivers/lvgl/src/core/lv_obj_style.c ****     CACHE_255 = 3,
  35:Drivers/lvgl/src/core/lv_obj_style.c ****     CACHE_NEED_CHECK = 4,
  36:Drivers/lvgl/src/core/lv_obj_style.c **** } cache_t;
  37:Drivers/lvgl/src/core/lv_obj_style.c **** 
  38:Drivers/lvgl/src/core/lv_obj_style.c **** /**********************
  39:Drivers/lvgl/src/core/lv_obj_style.c ****  *  GLOBAL PROTOTYPES
  40:Drivers/lvgl/src/core/lv_obj_style.c ****  **********************/
  41:Drivers/lvgl/src/core/lv_obj_style.c **** 
  42:Drivers/lvgl/src/core/lv_obj_style.c **** /**********************
  43:Drivers/lvgl/src/core/lv_obj_style.c ****  *  STATIC PROTOTYPES
  44:Drivers/lvgl/src/core/lv_obj_style.c ****  **********************/
  45:Drivers/lvgl/src/core/lv_obj_style.c **** static lv_style_t * get_local_style(lv_obj_t * obj, lv_style_selector_t selector);
  46:Drivers/lvgl/src/core/lv_obj_style.c **** static _lv_obj_style_t * get_trans_style(lv_obj_t * obj, uint32_t part);
  47:Drivers/lvgl/src/core/lv_obj_style.c **** static lv_style_res_t get_prop_core(const lv_obj_t * obj, lv_part_t part, lv_style_prop_t prop, lv_
  48:Drivers/lvgl/src/core/lv_obj_style.c **** static void report_style_change_core(void * style, lv_obj_t * obj);
  49:Drivers/lvgl/src/core/lv_obj_style.c **** static void refresh_children_style(lv_obj_t * obj);
  50:Drivers/lvgl/src/core/lv_obj_style.c **** static bool trans_del(lv_obj_t * obj, lv_part_t part, lv_style_prop_t prop, trans_t * tr_limit);
  51:Drivers/lvgl/src/core/lv_obj_style.c **** static void trans_anim_cb(void * _tr, int32_t v);
  52:Drivers/lvgl/src/core/lv_obj_style.c **** static void trans_anim_start_cb(lv_anim_t * a);
  53:Drivers/lvgl/src/core/lv_obj_style.c **** static void trans_anim_ready_cb(lv_anim_t * a);
  54:Drivers/lvgl/src/core/lv_obj_style.c **** static lv_layer_type_t calculate_layer_type(lv_obj_t * obj);
  55:Drivers/lvgl/src/core/lv_obj_style.c **** static void fade_anim_cb(void * obj, int32_t v);
  56:Drivers/lvgl/src/core/lv_obj_style.c **** static void fade_in_anim_ready(lv_anim_t * a);
  57:Drivers/lvgl/src/core/lv_obj_style.c **** 
  58:Drivers/lvgl/src/core/lv_obj_style.c **** /**********************
  59:Drivers/lvgl/src/core/lv_obj_style.c ****  *  STATIC VARIABLES
  60:Drivers/lvgl/src/core/lv_obj_style.c ****  **********************/
  61:Drivers/lvgl/src/core/lv_obj_style.c **** static bool style_refr = true;
  62:Drivers/lvgl/src/core/lv_obj_style.c **** 
  63:Drivers/lvgl/src/core/lv_obj_style.c **** /**********************
  64:Drivers/lvgl/src/core/lv_obj_style.c ****  *      MACROS
  65:Drivers/lvgl/src/core/lv_obj_style.c ****  **********************/
  66:Drivers/lvgl/src/core/lv_obj_style.c **** 
  67:Drivers/lvgl/src/core/lv_obj_style.c **** /**********************
  68:Drivers/lvgl/src/core/lv_obj_style.c ****  *   GLOBAL FUNCTIONS
  69:Drivers/lvgl/src/core/lv_obj_style.c ****  **********************/
  70:Drivers/lvgl/src/core/lv_obj_style.c **** 
  71:Drivers/lvgl/src/core/lv_obj_style.c **** void _lv_obj_style_init(void)
  72:Drivers/lvgl/src/core/lv_obj_style.c **** {
  73:Drivers/lvgl/src/core/lv_obj_style.c ****     _lv_ll_init(&LV_GC_ROOT(_lv_obj_style_trans_ll), sizeof(trans_t));
  74:Drivers/lvgl/src/core/lv_obj_style.c **** }
  75:Drivers/lvgl/src/core/lv_obj_style.c **** 
  76:Drivers/lvgl/src/core/lv_obj_style.c **** void lv_obj_add_style(lv_obj_t * obj, lv_style_t * style, lv_style_selector_t selector)
  77:Drivers/lvgl/src/core/lv_obj_style.c **** {
  78:Drivers/lvgl/src/core/lv_obj_style.c ****     trans_del(obj, selector, LV_STYLE_PROP_ANY, NULL);
  79:Drivers/lvgl/src/core/lv_obj_style.c **** 
  80:Drivers/lvgl/src/core/lv_obj_style.c ****     uint32_t i;
  81:Drivers/lvgl/src/core/lv_obj_style.c ****     /*Go after the transition and local styles*/
  82:Drivers/lvgl/src/core/lv_obj_style.c ****     for(i = 0; i < obj->style_cnt; i++) {
  83:Drivers/lvgl/src/core/lv_obj_style.c ****         if(obj->styles[i].is_trans) continue;
  84:Drivers/lvgl/src/core/lv_obj_style.c ****         if(obj->styles[i].is_local) continue;
  85:Drivers/lvgl/src/core/lv_obj_style.c ****         break;
  86:Drivers/lvgl/src/core/lv_obj_style.c ****     }
  87:Drivers/lvgl/src/core/lv_obj_style.c **** 
ARM GAS  /var/folders/0z/tsy30v1j4xl4_7kw94k978ww0000gn/T//cc8A9NTU.s 			page 3


  88:Drivers/lvgl/src/core/lv_obj_style.c ****     /*Now `i` is at the first normal style. Insert the new style before this*/
  89:Drivers/lvgl/src/core/lv_obj_style.c **** 
  90:Drivers/lvgl/src/core/lv_obj_style.c ****     /*Allocate space for the new style and shift the rest of the style to the end*/
  91:Drivers/lvgl/src/core/lv_obj_style.c ****     obj->style_cnt++;
  92:Drivers/lvgl/src/core/lv_obj_style.c ****     obj->styles = lv_mem_realloc(obj->styles, obj->style_cnt * sizeof(_lv_obj_style_t));
  93:Drivers/lvgl/src/core/lv_obj_style.c **** 
  94:Drivers/lvgl/src/core/lv_obj_style.c ****     uint32_t j;
  95:Drivers/lvgl/src/core/lv_obj_style.c ****     for(j = obj->style_cnt - 1; j > i ; j--) {
  96:Drivers/lvgl/src/core/lv_obj_style.c ****         obj->styles[j] = obj->styles[j - 1];
  97:Drivers/lvgl/src/core/lv_obj_style.c ****     }
  98:Drivers/lvgl/src/core/lv_obj_style.c **** 
  99:Drivers/lvgl/src/core/lv_obj_style.c ****     lv_memset_00(&obj->styles[i], sizeof(_lv_obj_style_t));
 100:Drivers/lvgl/src/core/lv_obj_style.c ****     obj->styles[i].style = style;
 101:Drivers/lvgl/src/core/lv_obj_style.c ****     obj->styles[i].selector = selector;
 102:Drivers/lvgl/src/core/lv_obj_style.c **** 
 103:Drivers/lvgl/src/core/lv_obj_style.c ****     lv_obj_refresh_style(obj, selector, LV_STYLE_PROP_ANY);
 104:Drivers/lvgl/src/core/lv_obj_style.c **** }
 105:Drivers/lvgl/src/core/lv_obj_style.c **** 
 106:Drivers/lvgl/src/core/lv_obj_style.c **** void lv_obj_remove_style(lv_obj_t * obj, lv_style_t * style, lv_style_selector_t selector)
 107:Drivers/lvgl/src/core/lv_obj_style.c **** {
 108:Drivers/lvgl/src/core/lv_obj_style.c ****     lv_state_t state = lv_obj_style_get_selector_state(selector);
 109:Drivers/lvgl/src/core/lv_obj_style.c ****     lv_part_t part = lv_obj_style_get_selector_part(selector);
 110:Drivers/lvgl/src/core/lv_obj_style.c ****     lv_style_prop_t prop = LV_STYLE_PROP_ANY;
 111:Drivers/lvgl/src/core/lv_obj_style.c ****     if(style && style->prop_cnt == 0) prop = LV_STYLE_PROP_INV;
 112:Drivers/lvgl/src/core/lv_obj_style.c **** 
 113:Drivers/lvgl/src/core/lv_obj_style.c ****     uint32_t i = 0;
 114:Drivers/lvgl/src/core/lv_obj_style.c ****     bool deleted = false;
 115:Drivers/lvgl/src/core/lv_obj_style.c ****     while(i <  obj->style_cnt) {
 116:Drivers/lvgl/src/core/lv_obj_style.c ****         lv_state_t state_act = lv_obj_style_get_selector_state(obj->styles[i].selector);
 117:Drivers/lvgl/src/core/lv_obj_style.c ****         lv_part_t part_act = lv_obj_style_get_selector_part(obj->styles[i].selector);
 118:Drivers/lvgl/src/core/lv_obj_style.c ****         if((state != LV_STATE_ANY && state_act != state) ||
 119:Drivers/lvgl/src/core/lv_obj_style.c ****            (part != LV_PART_ANY && part_act != part) ||
 120:Drivers/lvgl/src/core/lv_obj_style.c ****            (style != NULL && style != obj->styles[i].style)) {
 121:Drivers/lvgl/src/core/lv_obj_style.c ****             i++;
 122:Drivers/lvgl/src/core/lv_obj_style.c ****             continue;
 123:Drivers/lvgl/src/core/lv_obj_style.c ****         }
 124:Drivers/lvgl/src/core/lv_obj_style.c **** 
 125:Drivers/lvgl/src/core/lv_obj_style.c ****         if(obj->styles[i].is_trans) {
 126:Drivers/lvgl/src/core/lv_obj_style.c ****             trans_del(obj, part, LV_STYLE_PROP_ANY, NULL);
 127:Drivers/lvgl/src/core/lv_obj_style.c ****         }
 128:Drivers/lvgl/src/core/lv_obj_style.c **** 
 129:Drivers/lvgl/src/core/lv_obj_style.c ****         if(obj->styles[i].is_local || obj->styles[i].is_trans) {
 130:Drivers/lvgl/src/core/lv_obj_style.c ****             lv_style_reset(obj->styles[i].style);
 131:Drivers/lvgl/src/core/lv_obj_style.c ****             lv_mem_free(obj->styles[i].style);
 132:Drivers/lvgl/src/core/lv_obj_style.c ****             obj->styles[i].style = NULL;
 133:Drivers/lvgl/src/core/lv_obj_style.c ****         }
 134:Drivers/lvgl/src/core/lv_obj_style.c **** 
 135:Drivers/lvgl/src/core/lv_obj_style.c ****         /*Shift the styles after `i` by one*/
 136:Drivers/lvgl/src/core/lv_obj_style.c ****         uint32_t j;
 137:Drivers/lvgl/src/core/lv_obj_style.c ****         for(j = i; j < (uint32_t)obj->style_cnt - 1 ; j++) {
 138:Drivers/lvgl/src/core/lv_obj_style.c ****             obj->styles[j] = obj->styles[j + 1];
 139:Drivers/lvgl/src/core/lv_obj_style.c ****         }
 140:Drivers/lvgl/src/core/lv_obj_style.c **** 
 141:Drivers/lvgl/src/core/lv_obj_style.c ****         obj->style_cnt--;
 142:Drivers/lvgl/src/core/lv_obj_style.c ****         obj->styles = lv_mem_realloc(obj->styles, obj->style_cnt * sizeof(_lv_obj_style_t));
 143:Drivers/lvgl/src/core/lv_obj_style.c **** 
 144:Drivers/lvgl/src/core/lv_obj_style.c ****         deleted = true;
ARM GAS  /var/folders/0z/tsy30v1j4xl4_7kw94k978ww0000gn/T//cc8A9NTU.s 			page 4


 145:Drivers/lvgl/src/core/lv_obj_style.c ****         /*The style from the current `i` index is removed, so `i` points to the next style.
 146:Drivers/lvgl/src/core/lv_obj_style.c ****          *Therefore it doesn't needs to be incremented*/
 147:Drivers/lvgl/src/core/lv_obj_style.c ****     }
 148:Drivers/lvgl/src/core/lv_obj_style.c ****     if(deleted && prop != LV_STYLE_PROP_INV) {
 149:Drivers/lvgl/src/core/lv_obj_style.c ****         lv_obj_refresh_style(obj, part, prop);
 150:Drivers/lvgl/src/core/lv_obj_style.c ****     }
 151:Drivers/lvgl/src/core/lv_obj_style.c **** }
 152:Drivers/lvgl/src/core/lv_obj_style.c **** 
 153:Drivers/lvgl/src/core/lv_obj_style.c **** void lv_obj_report_style_change(lv_style_t * style)
 154:Drivers/lvgl/src/core/lv_obj_style.c **** {
 155:Drivers/lvgl/src/core/lv_obj_style.c ****     if(!style_refr) return;
 156:Drivers/lvgl/src/core/lv_obj_style.c ****     lv_disp_t * d = lv_disp_get_next(NULL);
 157:Drivers/lvgl/src/core/lv_obj_style.c **** 
 158:Drivers/lvgl/src/core/lv_obj_style.c ****     while(d) {
 159:Drivers/lvgl/src/core/lv_obj_style.c ****         uint32_t i;
 160:Drivers/lvgl/src/core/lv_obj_style.c ****         for(i = 0; i < d->screen_cnt; i++) {
 161:Drivers/lvgl/src/core/lv_obj_style.c ****             report_style_change_core(style, d->screens[i]);
 162:Drivers/lvgl/src/core/lv_obj_style.c ****         }
 163:Drivers/lvgl/src/core/lv_obj_style.c ****         d = lv_disp_get_next(d);
 164:Drivers/lvgl/src/core/lv_obj_style.c ****     }
 165:Drivers/lvgl/src/core/lv_obj_style.c **** }
 166:Drivers/lvgl/src/core/lv_obj_style.c **** 
 167:Drivers/lvgl/src/core/lv_obj_style.c **** void lv_obj_refresh_style(lv_obj_t * obj, lv_style_selector_t selector, lv_style_prop_t prop)
 168:Drivers/lvgl/src/core/lv_obj_style.c **** {
 169:Drivers/lvgl/src/core/lv_obj_style.c ****     LV_ASSERT_OBJ(obj, MY_CLASS);
 170:Drivers/lvgl/src/core/lv_obj_style.c **** 
 171:Drivers/lvgl/src/core/lv_obj_style.c ****     if(!style_refr) return;
 172:Drivers/lvgl/src/core/lv_obj_style.c **** 
 173:Drivers/lvgl/src/core/lv_obj_style.c ****     lv_obj_invalidate(obj);
 174:Drivers/lvgl/src/core/lv_obj_style.c **** 
 175:Drivers/lvgl/src/core/lv_obj_style.c ****     lv_part_t part = lv_obj_style_get_selector_part(selector);
 176:Drivers/lvgl/src/core/lv_obj_style.c **** 
 177:Drivers/lvgl/src/core/lv_obj_style.c ****     bool is_layout_refr = lv_style_prop_has_flag(prop, LV_STYLE_PROP_LAYOUT_REFR);
 178:Drivers/lvgl/src/core/lv_obj_style.c ****     bool is_ext_draw = lv_style_prop_has_flag(prop, LV_STYLE_PROP_EXT_DRAW);
 179:Drivers/lvgl/src/core/lv_obj_style.c ****     bool is_inheritable = lv_style_prop_has_flag(prop, LV_STYLE_PROP_INHERIT);
 180:Drivers/lvgl/src/core/lv_obj_style.c ****     bool is_layer_refr = lv_style_prop_has_flag(prop, LV_STYLE_PROP_LAYER_REFR);
 181:Drivers/lvgl/src/core/lv_obj_style.c **** 
 182:Drivers/lvgl/src/core/lv_obj_style.c ****     if(is_layout_refr) {
 183:Drivers/lvgl/src/core/lv_obj_style.c ****         if(part == LV_PART_ANY ||
 184:Drivers/lvgl/src/core/lv_obj_style.c ****            part == LV_PART_MAIN ||
 185:Drivers/lvgl/src/core/lv_obj_style.c ****            lv_obj_get_style_height(obj, 0) == LV_SIZE_CONTENT ||
 186:Drivers/lvgl/src/core/lv_obj_style.c ****            lv_obj_get_style_width(obj, 0) == LV_SIZE_CONTENT) {
 187:Drivers/lvgl/src/core/lv_obj_style.c ****             lv_event_send(obj, LV_EVENT_STYLE_CHANGED, NULL);
 188:Drivers/lvgl/src/core/lv_obj_style.c ****             lv_obj_mark_layout_as_dirty(obj);
 189:Drivers/lvgl/src/core/lv_obj_style.c ****         }
 190:Drivers/lvgl/src/core/lv_obj_style.c ****     }
 191:Drivers/lvgl/src/core/lv_obj_style.c ****     if((part == LV_PART_ANY || part == LV_PART_MAIN) && (prop == LV_STYLE_PROP_ANY || is_layout_ref
 192:Drivers/lvgl/src/core/lv_obj_style.c ****         lv_obj_t * parent = lv_obj_get_parent(obj);
 193:Drivers/lvgl/src/core/lv_obj_style.c ****         if(parent) lv_obj_mark_layout_as_dirty(parent);
 194:Drivers/lvgl/src/core/lv_obj_style.c ****     }
 195:Drivers/lvgl/src/core/lv_obj_style.c **** 
 196:Drivers/lvgl/src/core/lv_obj_style.c ****     /*Cache the layer type*/
 197:Drivers/lvgl/src/core/lv_obj_style.c ****     if((part == LV_PART_ANY || part == LV_PART_MAIN) && is_layer_refr) {
 198:Drivers/lvgl/src/core/lv_obj_style.c ****         lv_layer_type_t layer_type = calculate_layer_type(obj);
 199:Drivers/lvgl/src/core/lv_obj_style.c ****         if(obj->spec_attr) obj->spec_attr->layer_type = layer_type;
 200:Drivers/lvgl/src/core/lv_obj_style.c ****         else if(layer_type != LV_LAYER_TYPE_NONE) {
 201:Drivers/lvgl/src/core/lv_obj_style.c ****             lv_obj_allocate_spec_attr(obj);
ARM GAS  /var/folders/0z/tsy30v1j4xl4_7kw94k978ww0000gn/T//cc8A9NTU.s 			page 5


 202:Drivers/lvgl/src/core/lv_obj_style.c ****             obj->spec_attr->layer_type = layer_type;
 203:Drivers/lvgl/src/core/lv_obj_style.c ****         }
 204:Drivers/lvgl/src/core/lv_obj_style.c ****     }
 205:Drivers/lvgl/src/core/lv_obj_style.c **** 
 206:Drivers/lvgl/src/core/lv_obj_style.c ****     if(prop == LV_STYLE_PROP_ANY || is_ext_draw) {
 207:Drivers/lvgl/src/core/lv_obj_style.c ****         lv_obj_refresh_ext_draw_size(obj);
 208:Drivers/lvgl/src/core/lv_obj_style.c ****     }
 209:Drivers/lvgl/src/core/lv_obj_style.c ****     lv_obj_invalidate(obj);
 210:Drivers/lvgl/src/core/lv_obj_style.c **** 
 211:Drivers/lvgl/src/core/lv_obj_style.c ****     if(prop == LV_STYLE_PROP_ANY || (is_inheritable && (is_ext_draw || is_layout_refr))) {
 212:Drivers/lvgl/src/core/lv_obj_style.c ****         if(part != LV_PART_SCROLLBAR) {
 213:Drivers/lvgl/src/core/lv_obj_style.c ****             refresh_children_style(obj);
 214:Drivers/lvgl/src/core/lv_obj_style.c ****         }
 215:Drivers/lvgl/src/core/lv_obj_style.c ****     }
 216:Drivers/lvgl/src/core/lv_obj_style.c **** }
 217:Drivers/lvgl/src/core/lv_obj_style.c **** 
 218:Drivers/lvgl/src/core/lv_obj_style.c **** void lv_obj_enable_style_refresh(bool en)
 219:Drivers/lvgl/src/core/lv_obj_style.c **** {
 220:Drivers/lvgl/src/core/lv_obj_style.c ****     style_refr = en;
 221:Drivers/lvgl/src/core/lv_obj_style.c **** }
 222:Drivers/lvgl/src/core/lv_obj_style.c **** 
 223:Drivers/lvgl/src/core/lv_obj_style.c **** lv_style_value_t lv_obj_get_style_prop(const lv_obj_t * obj, lv_part_t part, lv_style_prop_t prop)
 224:Drivers/lvgl/src/core/lv_obj_style.c **** {
 225:Drivers/lvgl/src/core/lv_obj_style.c ****     lv_style_value_t value_act;
 226:Drivers/lvgl/src/core/lv_obj_style.c ****     bool inheritable = lv_style_prop_has_flag(prop, LV_STYLE_PROP_INHERIT);
 227:Drivers/lvgl/src/core/lv_obj_style.c ****     lv_style_res_t found = LV_STYLE_RES_NOT_FOUND;
 228:Drivers/lvgl/src/core/lv_obj_style.c ****     while(obj) {
 229:Drivers/lvgl/src/core/lv_obj_style.c ****         found = get_prop_core(obj, part, prop, &value_act);
 230:Drivers/lvgl/src/core/lv_obj_style.c ****         if(found == LV_STYLE_RES_FOUND) break;
 231:Drivers/lvgl/src/core/lv_obj_style.c ****         if(!inheritable) break;
 232:Drivers/lvgl/src/core/lv_obj_style.c **** 
 233:Drivers/lvgl/src/core/lv_obj_style.c ****         /*If not found, check the `MAIN` style first*/
 234:Drivers/lvgl/src/core/lv_obj_style.c ****         if(found != LV_STYLE_RES_INHERIT && part != LV_PART_MAIN) {
 235:Drivers/lvgl/src/core/lv_obj_style.c ****             part = LV_PART_MAIN;
 236:Drivers/lvgl/src/core/lv_obj_style.c ****             continue;
 237:Drivers/lvgl/src/core/lv_obj_style.c ****         }
 238:Drivers/lvgl/src/core/lv_obj_style.c **** 
 239:Drivers/lvgl/src/core/lv_obj_style.c ****         /*Check the parent too.*/
 240:Drivers/lvgl/src/core/lv_obj_style.c ****         obj = lv_obj_get_parent(obj);
 241:Drivers/lvgl/src/core/lv_obj_style.c ****     }
 242:Drivers/lvgl/src/core/lv_obj_style.c **** 
 243:Drivers/lvgl/src/core/lv_obj_style.c ****     if(found != LV_STYLE_RES_FOUND) {
 244:Drivers/lvgl/src/core/lv_obj_style.c ****         if(part == LV_PART_MAIN && (prop == LV_STYLE_WIDTH || prop == LV_STYLE_HEIGHT)) {
 245:Drivers/lvgl/src/core/lv_obj_style.c ****             const lv_obj_class_t * cls = obj->class_p;
 246:Drivers/lvgl/src/core/lv_obj_style.c ****             while(cls) {
 247:Drivers/lvgl/src/core/lv_obj_style.c ****                 if(prop == LV_STYLE_WIDTH) {
 248:Drivers/lvgl/src/core/lv_obj_style.c ****                     if(cls->width_def != 0) break;
 249:Drivers/lvgl/src/core/lv_obj_style.c ****                 }
 250:Drivers/lvgl/src/core/lv_obj_style.c ****                 else {
 251:Drivers/lvgl/src/core/lv_obj_style.c ****                     if(cls->height_def != 0) break;
 252:Drivers/lvgl/src/core/lv_obj_style.c ****                 }
 253:Drivers/lvgl/src/core/lv_obj_style.c ****                 cls = cls->base_class;
 254:Drivers/lvgl/src/core/lv_obj_style.c ****             }
 255:Drivers/lvgl/src/core/lv_obj_style.c **** 
 256:Drivers/lvgl/src/core/lv_obj_style.c ****             if(cls) {
 257:Drivers/lvgl/src/core/lv_obj_style.c ****                 value_act.num = prop == LV_STYLE_WIDTH ? cls->width_def : cls->height_def;
 258:Drivers/lvgl/src/core/lv_obj_style.c ****             }
ARM GAS  /var/folders/0z/tsy30v1j4xl4_7kw94k978ww0000gn/T//cc8A9NTU.s 			page 6


 259:Drivers/lvgl/src/core/lv_obj_style.c ****             else {
 260:Drivers/lvgl/src/core/lv_obj_style.c ****                 value_act.num = 0;
 261:Drivers/lvgl/src/core/lv_obj_style.c ****             }
 262:Drivers/lvgl/src/core/lv_obj_style.c ****         }
 263:Drivers/lvgl/src/core/lv_obj_style.c ****         else {
 264:Drivers/lvgl/src/core/lv_obj_style.c ****             value_act = lv_style_prop_get_default(prop);
 265:Drivers/lvgl/src/core/lv_obj_style.c ****         }
 266:Drivers/lvgl/src/core/lv_obj_style.c ****     }
 267:Drivers/lvgl/src/core/lv_obj_style.c ****     return value_act;
 268:Drivers/lvgl/src/core/lv_obj_style.c **** }
 269:Drivers/lvgl/src/core/lv_obj_style.c **** 
 270:Drivers/lvgl/src/core/lv_obj_style.c **** void lv_obj_set_local_style_prop(lv_obj_t * obj, lv_style_prop_t prop, lv_style_value_t value,
 271:Drivers/lvgl/src/core/lv_obj_style.c ****                                  lv_style_selector_t selector)
 272:Drivers/lvgl/src/core/lv_obj_style.c **** {
 273:Drivers/lvgl/src/core/lv_obj_style.c ****     lv_style_t * style = get_local_style(obj, selector);
 274:Drivers/lvgl/src/core/lv_obj_style.c ****     lv_style_set_prop(style, prop, value);
 275:Drivers/lvgl/src/core/lv_obj_style.c ****     lv_obj_refresh_style(obj, selector, prop);
 276:Drivers/lvgl/src/core/lv_obj_style.c **** }
 277:Drivers/lvgl/src/core/lv_obj_style.c **** 
 278:Drivers/lvgl/src/core/lv_obj_style.c **** void lv_obj_set_local_style_prop_meta(lv_obj_t * obj, lv_style_prop_t prop, uint16_t meta,
 279:Drivers/lvgl/src/core/lv_obj_style.c ****                                       lv_style_selector_t selector)
 280:Drivers/lvgl/src/core/lv_obj_style.c **** {
 281:Drivers/lvgl/src/core/lv_obj_style.c ****     lv_style_t * style = get_local_style(obj, selector);
 282:Drivers/lvgl/src/core/lv_obj_style.c ****     lv_style_set_prop_meta(style, prop, meta);
 283:Drivers/lvgl/src/core/lv_obj_style.c ****     lv_obj_refresh_style(obj, selector, prop);
 284:Drivers/lvgl/src/core/lv_obj_style.c **** }
 285:Drivers/lvgl/src/core/lv_obj_style.c **** 
 286:Drivers/lvgl/src/core/lv_obj_style.c **** 
 287:Drivers/lvgl/src/core/lv_obj_style.c **** lv_style_res_t lv_obj_get_local_style_prop(lv_obj_t * obj, lv_style_prop_t prop, lv_style_value_t *
 288:Drivers/lvgl/src/core/lv_obj_style.c ****                                            lv_style_selector_t selector)
 289:Drivers/lvgl/src/core/lv_obj_style.c **** {
 290:Drivers/lvgl/src/core/lv_obj_style.c ****     uint32_t i;
 291:Drivers/lvgl/src/core/lv_obj_style.c ****     for(i = 0; i < obj->style_cnt; i++) {
 292:Drivers/lvgl/src/core/lv_obj_style.c ****         if(obj->styles[i].is_local &&
 293:Drivers/lvgl/src/core/lv_obj_style.c ****            obj->styles[i].selector == selector) {
 294:Drivers/lvgl/src/core/lv_obj_style.c ****             return lv_style_get_prop(obj->styles[i].style, prop, value);
 295:Drivers/lvgl/src/core/lv_obj_style.c ****         }
 296:Drivers/lvgl/src/core/lv_obj_style.c ****     }
 297:Drivers/lvgl/src/core/lv_obj_style.c **** 
 298:Drivers/lvgl/src/core/lv_obj_style.c ****     return LV_STYLE_RES_NOT_FOUND;
 299:Drivers/lvgl/src/core/lv_obj_style.c **** }
 300:Drivers/lvgl/src/core/lv_obj_style.c **** 
 301:Drivers/lvgl/src/core/lv_obj_style.c **** bool lv_obj_remove_local_style_prop(lv_obj_t * obj, lv_style_prop_t prop, lv_style_selector_t selec
 302:Drivers/lvgl/src/core/lv_obj_style.c **** {
 303:Drivers/lvgl/src/core/lv_obj_style.c ****     LV_ASSERT_OBJ(obj, MY_CLASS);
 304:Drivers/lvgl/src/core/lv_obj_style.c **** 
 305:Drivers/lvgl/src/core/lv_obj_style.c ****     uint32_t i;
 306:Drivers/lvgl/src/core/lv_obj_style.c ****     /*Find the style*/
 307:Drivers/lvgl/src/core/lv_obj_style.c ****     for(i = 0; i < obj->style_cnt; i++) {
 308:Drivers/lvgl/src/core/lv_obj_style.c ****         if(obj->styles[i].is_local &&
 309:Drivers/lvgl/src/core/lv_obj_style.c ****            obj->styles[i].selector == selector) {
 310:Drivers/lvgl/src/core/lv_obj_style.c ****             break;
 311:Drivers/lvgl/src/core/lv_obj_style.c ****         }
 312:Drivers/lvgl/src/core/lv_obj_style.c ****     }
 313:Drivers/lvgl/src/core/lv_obj_style.c **** 
 314:Drivers/lvgl/src/core/lv_obj_style.c ****     /*The style is not found*/
 315:Drivers/lvgl/src/core/lv_obj_style.c ****     if(i == obj->style_cnt) return false;
ARM GAS  /var/folders/0z/tsy30v1j4xl4_7kw94k978ww0000gn/T//cc8A9NTU.s 			page 7


 316:Drivers/lvgl/src/core/lv_obj_style.c **** 
 317:Drivers/lvgl/src/core/lv_obj_style.c ****     lv_res_t res = lv_style_remove_prop(obj->styles[i].style, prop);
 318:Drivers/lvgl/src/core/lv_obj_style.c ****     if(res == LV_RES_OK) {
 319:Drivers/lvgl/src/core/lv_obj_style.c ****         lv_obj_refresh_style(obj, selector, prop);
 320:Drivers/lvgl/src/core/lv_obj_style.c ****     }
 321:Drivers/lvgl/src/core/lv_obj_style.c **** 
 322:Drivers/lvgl/src/core/lv_obj_style.c ****     return res;
 323:Drivers/lvgl/src/core/lv_obj_style.c **** }
 324:Drivers/lvgl/src/core/lv_obj_style.c **** 
 325:Drivers/lvgl/src/core/lv_obj_style.c **** void _lv_obj_style_create_transition(lv_obj_t * obj, lv_part_t part, lv_state_t prev_state, lv_stat
 326:Drivers/lvgl/src/core/lv_obj_style.c ****                                      const _lv_obj_style_transition_dsc_t * tr_dsc)
 327:Drivers/lvgl/src/core/lv_obj_style.c **** {
 328:Drivers/lvgl/src/core/lv_obj_style.c ****     trans_t * tr;
 329:Drivers/lvgl/src/core/lv_obj_style.c **** 
 330:Drivers/lvgl/src/core/lv_obj_style.c ****     /*Get the previous and current values*/
 331:Drivers/lvgl/src/core/lv_obj_style.c ****     obj->skip_trans = 1;
 332:Drivers/lvgl/src/core/lv_obj_style.c ****     obj->state = prev_state;
 333:Drivers/lvgl/src/core/lv_obj_style.c ****     lv_style_value_t v1 = lv_obj_get_style_prop(obj, part, tr_dsc->prop);
 334:Drivers/lvgl/src/core/lv_obj_style.c ****     obj->state = new_state;
 335:Drivers/lvgl/src/core/lv_obj_style.c ****     lv_style_value_t v2 = lv_obj_get_style_prop(obj, part, tr_dsc->prop);
 336:Drivers/lvgl/src/core/lv_obj_style.c ****     obj->skip_trans = 0;
 337:Drivers/lvgl/src/core/lv_obj_style.c **** 
 338:Drivers/lvgl/src/core/lv_obj_style.c ****     if(v1.ptr == v2.ptr && v1.num == v2.num && v1.color.full == v2.color.full)  return;
 339:Drivers/lvgl/src/core/lv_obj_style.c ****     obj->state = prev_state;
 340:Drivers/lvgl/src/core/lv_obj_style.c ****     v1 = lv_obj_get_style_prop(obj, part, tr_dsc->prop);
 341:Drivers/lvgl/src/core/lv_obj_style.c ****     obj->state = new_state;
 342:Drivers/lvgl/src/core/lv_obj_style.c **** 
 343:Drivers/lvgl/src/core/lv_obj_style.c ****     _lv_obj_style_t * style_trans = get_trans_style(obj, part);
 344:Drivers/lvgl/src/core/lv_obj_style.c ****     lv_style_set_prop(style_trans->style, tr_dsc->prop, v1);   /*Be sure `trans_style` has a valid 
 345:Drivers/lvgl/src/core/lv_obj_style.c **** 
 346:Drivers/lvgl/src/core/lv_obj_style.c ****     if(tr_dsc->prop == LV_STYLE_RADIUS) {
 347:Drivers/lvgl/src/core/lv_obj_style.c ****         if(v1.num == LV_RADIUS_CIRCLE || v2.num == LV_RADIUS_CIRCLE) {
 348:Drivers/lvgl/src/core/lv_obj_style.c ****             lv_coord_t whalf = lv_obj_get_width(obj) / 2;
 349:Drivers/lvgl/src/core/lv_obj_style.c ****             lv_coord_t hhalf = lv_obj_get_height(obj) / 2;
 350:Drivers/lvgl/src/core/lv_obj_style.c ****             if(v1.num == LV_RADIUS_CIRCLE) v1.num = LV_MIN(whalf + 1, hhalf + 1);
 351:Drivers/lvgl/src/core/lv_obj_style.c ****             if(v2.num == LV_RADIUS_CIRCLE) v2.num = LV_MIN(whalf + 1, hhalf + 1);
 352:Drivers/lvgl/src/core/lv_obj_style.c ****         }
 353:Drivers/lvgl/src/core/lv_obj_style.c ****     }
 354:Drivers/lvgl/src/core/lv_obj_style.c **** 
 355:Drivers/lvgl/src/core/lv_obj_style.c ****     tr = _lv_ll_ins_head(&LV_GC_ROOT(_lv_obj_style_trans_ll));
 356:Drivers/lvgl/src/core/lv_obj_style.c ****     LV_ASSERT_MALLOC(tr);
 357:Drivers/lvgl/src/core/lv_obj_style.c ****     if(tr == NULL) return;
 358:Drivers/lvgl/src/core/lv_obj_style.c ****     tr->start_value = v1;
 359:Drivers/lvgl/src/core/lv_obj_style.c ****     tr->end_value = v2;
 360:Drivers/lvgl/src/core/lv_obj_style.c ****     tr->obj = obj;
 361:Drivers/lvgl/src/core/lv_obj_style.c ****     tr->prop = tr_dsc->prop;
 362:Drivers/lvgl/src/core/lv_obj_style.c ****     tr->selector = part;
 363:Drivers/lvgl/src/core/lv_obj_style.c **** 
 364:Drivers/lvgl/src/core/lv_obj_style.c ****     lv_anim_t a;
 365:Drivers/lvgl/src/core/lv_obj_style.c ****     lv_anim_init(&a);
 366:Drivers/lvgl/src/core/lv_obj_style.c ****     lv_anim_set_var(&a, tr);
 367:Drivers/lvgl/src/core/lv_obj_style.c ****     lv_anim_set_exec_cb(&a, trans_anim_cb);
 368:Drivers/lvgl/src/core/lv_obj_style.c ****     lv_anim_set_start_cb(&a, trans_anim_start_cb);
 369:Drivers/lvgl/src/core/lv_obj_style.c ****     lv_anim_set_ready_cb(&a, trans_anim_ready_cb);
 370:Drivers/lvgl/src/core/lv_obj_style.c ****     lv_anim_set_values(&a, 0x00, 0xFF);
 371:Drivers/lvgl/src/core/lv_obj_style.c ****     lv_anim_set_time(&a, tr_dsc->time);
 372:Drivers/lvgl/src/core/lv_obj_style.c ****     lv_anim_set_delay(&a, tr_dsc->delay);
ARM GAS  /var/folders/0z/tsy30v1j4xl4_7kw94k978ww0000gn/T//cc8A9NTU.s 			page 8


 373:Drivers/lvgl/src/core/lv_obj_style.c ****     lv_anim_set_path_cb(&a, tr_dsc->path_cb);
 374:Drivers/lvgl/src/core/lv_obj_style.c ****     lv_anim_set_early_apply(&a, false);
 375:Drivers/lvgl/src/core/lv_obj_style.c **** #if LV_USE_USER_DATA
 376:Drivers/lvgl/src/core/lv_obj_style.c ****     a.user_data = tr_dsc->user_data;
 377:Drivers/lvgl/src/core/lv_obj_style.c **** #endif
 378:Drivers/lvgl/src/core/lv_obj_style.c ****     lv_anim_start(&a);
 379:Drivers/lvgl/src/core/lv_obj_style.c **** }
 380:Drivers/lvgl/src/core/lv_obj_style.c **** 
 381:Drivers/lvgl/src/core/lv_obj_style.c **** 
 382:Drivers/lvgl/src/core/lv_obj_style.c **** lv_style_value_t _lv_obj_style_apply_color_filter(const lv_obj_t * obj, uint32_t part, lv_style_val
 383:Drivers/lvgl/src/core/lv_obj_style.c **** {
 384:Drivers/lvgl/src/core/lv_obj_style.c ****     if(obj == NULL) return v;
 385:Drivers/lvgl/src/core/lv_obj_style.c ****     const lv_color_filter_dsc_t * f = lv_obj_get_style_color_filter_dsc(obj, part);
 386:Drivers/lvgl/src/core/lv_obj_style.c ****     if(f && f->filter_cb) {
 387:Drivers/lvgl/src/core/lv_obj_style.c ****         lv_opa_t f_opa = lv_obj_get_style_color_filter_opa(obj, part);
 388:Drivers/lvgl/src/core/lv_obj_style.c ****         if(f_opa != 0) v.color = f->filter_cb(f, v.color, f_opa);
 389:Drivers/lvgl/src/core/lv_obj_style.c ****     }
 390:Drivers/lvgl/src/core/lv_obj_style.c ****     return v;
 391:Drivers/lvgl/src/core/lv_obj_style.c **** }
 392:Drivers/lvgl/src/core/lv_obj_style.c **** 
 393:Drivers/lvgl/src/core/lv_obj_style.c **** _lv_style_state_cmp_t _lv_obj_style_state_compare(lv_obj_t * obj, lv_state_t state1, lv_state_t sta
 394:Drivers/lvgl/src/core/lv_obj_style.c **** {
 395:Drivers/lvgl/src/core/lv_obj_style.c ****     _lv_style_state_cmp_t res = _LV_STYLE_STATE_CMP_SAME;
 396:Drivers/lvgl/src/core/lv_obj_style.c **** 
 397:Drivers/lvgl/src/core/lv_obj_style.c ****     /*Are there any new styles for the new state?*/
 398:Drivers/lvgl/src/core/lv_obj_style.c ****     uint32_t i;
 399:Drivers/lvgl/src/core/lv_obj_style.c ****     for(i = 0; i < obj->style_cnt; i++) {
 400:Drivers/lvgl/src/core/lv_obj_style.c ****         if(obj->styles[i].is_trans) continue;
 401:Drivers/lvgl/src/core/lv_obj_style.c **** 
 402:Drivers/lvgl/src/core/lv_obj_style.c ****         lv_state_t state_act = lv_obj_style_get_selector_state(obj->styles[i].selector);
 403:Drivers/lvgl/src/core/lv_obj_style.c ****         /*The style is valid for a state but not the other*/
 404:Drivers/lvgl/src/core/lv_obj_style.c ****         bool valid1 = state_act & (~state1) ? false : true;
 405:Drivers/lvgl/src/core/lv_obj_style.c ****         bool valid2 = state_act & (~state2) ? false : true;
 406:Drivers/lvgl/src/core/lv_obj_style.c ****         if(valid1 != valid2) {
 407:Drivers/lvgl/src/core/lv_obj_style.c ****             lv_style_t * style = obj->styles[i].style;
 408:Drivers/lvgl/src/core/lv_obj_style.c ****             lv_style_value_t v;
 409:Drivers/lvgl/src/core/lv_obj_style.c ****             /*If there is layout difference on the main part, return immediately. There is no more 
 410:Drivers/lvgl/src/core/lv_obj_style.c ****             bool layout_diff = false;
 411:Drivers/lvgl/src/core/lv_obj_style.c ****             if(lv_style_get_prop(style, LV_STYLE_PAD_TOP, &v))layout_diff = true;
 412:Drivers/lvgl/src/core/lv_obj_style.c ****             else if(lv_style_get_prop(style, LV_STYLE_PAD_BOTTOM, &v)) layout_diff = true;
 413:Drivers/lvgl/src/core/lv_obj_style.c ****             else if(lv_style_get_prop(style, LV_STYLE_PAD_LEFT, &v)) layout_diff = true;
 414:Drivers/lvgl/src/core/lv_obj_style.c ****             else if(lv_style_get_prop(style, LV_STYLE_PAD_RIGHT, &v)) layout_diff = true;
 415:Drivers/lvgl/src/core/lv_obj_style.c ****             else if(lv_style_get_prop(style, LV_STYLE_PAD_COLUMN, &v)) layout_diff = true;
 416:Drivers/lvgl/src/core/lv_obj_style.c ****             else if(lv_style_get_prop(style, LV_STYLE_PAD_ROW, &v)) layout_diff = true;
 417:Drivers/lvgl/src/core/lv_obj_style.c ****             else if(lv_style_get_prop(style, LV_STYLE_LAYOUT, &v)) layout_diff = true;
 418:Drivers/lvgl/src/core/lv_obj_style.c ****             else if(lv_style_get_prop(style, LV_STYLE_TRANSLATE_X, &v)) layout_diff = true;
 419:Drivers/lvgl/src/core/lv_obj_style.c ****             else if(lv_style_get_prop(style, LV_STYLE_TRANSLATE_Y, &v)) layout_diff = true;
 420:Drivers/lvgl/src/core/lv_obj_style.c ****             else if(lv_style_get_prop(style, LV_STYLE_WIDTH, &v)) layout_diff = true;
 421:Drivers/lvgl/src/core/lv_obj_style.c ****             else if(lv_style_get_prop(style, LV_STYLE_HEIGHT, &v)) layout_diff = true;
 422:Drivers/lvgl/src/core/lv_obj_style.c ****             else if(lv_style_get_prop(style, LV_STYLE_MIN_WIDTH, &v)) layout_diff = true;
 423:Drivers/lvgl/src/core/lv_obj_style.c ****             else if(lv_style_get_prop(style, LV_STYLE_MAX_WIDTH, &v)) layout_diff = true;
 424:Drivers/lvgl/src/core/lv_obj_style.c ****             else if(lv_style_get_prop(style, LV_STYLE_MIN_HEIGHT, &v)) layout_diff = true;
 425:Drivers/lvgl/src/core/lv_obj_style.c ****             else if(lv_style_get_prop(style, LV_STYLE_MAX_HEIGHT, &v)) layout_diff = true;
 426:Drivers/lvgl/src/core/lv_obj_style.c ****             else if(lv_style_get_prop(style, LV_STYLE_BORDER_WIDTH, &v)) layout_diff = true;
 427:Drivers/lvgl/src/core/lv_obj_style.c ****             else if(lv_style_get_prop(style, LV_STYLE_TRANSFORM_ANGLE, &v)) layout_diff = true;
 428:Drivers/lvgl/src/core/lv_obj_style.c ****             else if(lv_style_get_prop(style, LV_STYLE_TRANSFORM_ZOOM, &v)) layout_diff = true;
 429:Drivers/lvgl/src/core/lv_obj_style.c **** 
ARM GAS  /var/folders/0z/tsy30v1j4xl4_7kw94k978ww0000gn/T//cc8A9NTU.s 			page 9


 430:Drivers/lvgl/src/core/lv_obj_style.c ****             if(layout_diff) {
 431:Drivers/lvgl/src/core/lv_obj_style.c ****                 return _LV_STYLE_STATE_CMP_DIFF_LAYOUT;
 432:Drivers/lvgl/src/core/lv_obj_style.c ****             }
 433:Drivers/lvgl/src/core/lv_obj_style.c **** 
 434:Drivers/lvgl/src/core/lv_obj_style.c ****             /*Check for draw pad changes*/
 435:Drivers/lvgl/src/core/lv_obj_style.c ****             if(lv_style_get_prop(style, LV_STYLE_TRANSFORM_WIDTH, &v)) res = _LV_STYLE_STATE_CMP_DI
 436:Drivers/lvgl/src/core/lv_obj_style.c ****             else if(lv_style_get_prop(style, LV_STYLE_TRANSFORM_HEIGHT, &v)) res = _LV_STYLE_STATE_
 437:Drivers/lvgl/src/core/lv_obj_style.c ****             else if(lv_style_get_prop(style, LV_STYLE_TRANSFORM_ANGLE, &v)) res = _LV_STYLE_STATE_C
 438:Drivers/lvgl/src/core/lv_obj_style.c ****             else if(lv_style_get_prop(style, LV_STYLE_TRANSFORM_ZOOM, &v)) res = _LV_STYLE_STATE_CM
 439:Drivers/lvgl/src/core/lv_obj_style.c ****             else if(lv_style_get_prop(style, LV_STYLE_OUTLINE_OPA, &v)) res = _LV_STYLE_STATE_CMP_D
 440:Drivers/lvgl/src/core/lv_obj_style.c ****             else if(lv_style_get_prop(style, LV_STYLE_OUTLINE_PAD, &v)) res = _LV_STYLE_STATE_CMP_D
 441:Drivers/lvgl/src/core/lv_obj_style.c ****             else if(lv_style_get_prop(style, LV_STYLE_OUTLINE_WIDTH, &v)) res = _LV_STYLE_STATE_CMP
 442:Drivers/lvgl/src/core/lv_obj_style.c ****             else if(lv_style_get_prop(style, LV_STYLE_SHADOW_WIDTH, &v)) res = _LV_STYLE_STATE_CMP_
 443:Drivers/lvgl/src/core/lv_obj_style.c ****             else if(lv_style_get_prop(style, LV_STYLE_SHADOW_OPA, &v)) res = _LV_STYLE_STATE_CMP_DI
 444:Drivers/lvgl/src/core/lv_obj_style.c ****             else if(lv_style_get_prop(style, LV_STYLE_SHADOW_OFS_X, &v)) res = _LV_STYLE_STATE_CMP_
 445:Drivers/lvgl/src/core/lv_obj_style.c ****             else if(lv_style_get_prop(style, LV_STYLE_SHADOW_OFS_Y, &v)) res = _LV_STYLE_STATE_CMP_
 446:Drivers/lvgl/src/core/lv_obj_style.c ****             else if(lv_style_get_prop(style, LV_STYLE_SHADOW_SPREAD, &v)) res = _LV_STYLE_STATE_CMP
 447:Drivers/lvgl/src/core/lv_obj_style.c ****             else if(lv_style_get_prop(style, LV_STYLE_LINE_WIDTH, &v)) res = _LV_STYLE_STATE_CMP_DI
 448:Drivers/lvgl/src/core/lv_obj_style.c ****             else if(res == _LV_STYLE_STATE_CMP_SAME) res = _LV_STYLE_STATE_CMP_DIFF_REDRAW;
 449:Drivers/lvgl/src/core/lv_obj_style.c ****         }
 450:Drivers/lvgl/src/core/lv_obj_style.c ****     }
 451:Drivers/lvgl/src/core/lv_obj_style.c **** 
 452:Drivers/lvgl/src/core/lv_obj_style.c ****     return res;
 453:Drivers/lvgl/src/core/lv_obj_style.c **** }
 454:Drivers/lvgl/src/core/lv_obj_style.c **** 
 455:Drivers/lvgl/src/core/lv_obj_style.c **** void lv_obj_fade_in(lv_obj_t * obj, uint32_t time, uint32_t delay)
 456:Drivers/lvgl/src/core/lv_obj_style.c **** {
 457:Drivers/lvgl/src/core/lv_obj_style.c ****     lv_anim_t a;
 458:Drivers/lvgl/src/core/lv_obj_style.c ****     lv_anim_init(&a);
 459:Drivers/lvgl/src/core/lv_obj_style.c ****     lv_anim_set_var(&a, obj);
 460:Drivers/lvgl/src/core/lv_obj_style.c ****     lv_anim_set_values(&a, 0, LV_OPA_COVER);
 461:Drivers/lvgl/src/core/lv_obj_style.c ****     lv_anim_set_exec_cb(&a, fade_anim_cb);
 462:Drivers/lvgl/src/core/lv_obj_style.c ****     lv_anim_set_ready_cb(&a, fade_in_anim_ready);
 463:Drivers/lvgl/src/core/lv_obj_style.c ****     lv_anim_set_time(&a, time);
 464:Drivers/lvgl/src/core/lv_obj_style.c ****     lv_anim_set_delay(&a, delay);
 465:Drivers/lvgl/src/core/lv_obj_style.c ****     lv_anim_start(&a);
 466:Drivers/lvgl/src/core/lv_obj_style.c **** }
 467:Drivers/lvgl/src/core/lv_obj_style.c **** 
 468:Drivers/lvgl/src/core/lv_obj_style.c **** void lv_obj_fade_out(lv_obj_t * obj, uint32_t time, uint32_t delay)
 469:Drivers/lvgl/src/core/lv_obj_style.c **** {
 470:Drivers/lvgl/src/core/lv_obj_style.c ****     lv_anim_t a;
 471:Drivers/lvgl/src/core/lv_obj_style.c ****     lv_anim_init(&a);
 472:Drivers/lvgl/src/core/lv_obj_style.c ****     lv_anim_set_var(&a, obj);
 473:Drivers/lvgl/src/core/lv_obj_style.c ****     lv_anim_set_values(&a, lv_obj_get_style_opa(obj, 0), LV_OPA_TRANSP);
 474:Drivers/lvgl/src/core/lv_obj_style.c ****     lv_anim_set_exec_cb(&a, fade_anim_cb);
 475:Drivers/lvgl/src/core/lv_obj_style.c ****     lv_anim_set_time(&a, time);
 476:Drivers/lvgl/src/core/lv_obj_style.c ****     lv_anim_set_delay(&a, delay);
 477:Drivers/lvgl/src/core/lv_obj_style.c ****     lv_anim_start(&a);
 478:Drivers/lvgl/src/core/lv_obj_style.c **** }
 479:Drivers/lvgl/src/core/lv_obj_style.c **** 
 480:Drivers/lvgl/src/core/lv_obj_style.c **** lv_state_t lv_obj_style_get_selector_state(lv_style_selector_t selector)
 481:Drivers/lvgl/src/core/lv_obj_style.c **** {
 482:Drivers/lvgl/src/core/lv_obj_style.c ****     return selector & 0xFFFF;
 483:Drivers/lvgl/src/core/lv_obj_style.c **** }
 484:Drivers/lvgl/src/core/lv_obj_style.c **** 
 485:Drivers/lvgl/src/core/lv_obj_style.c **** lv_part_t lv_obj_style_get_selector_part(lv_style_selector_t selector)
 486:Drivers/lvgl/src/core/lv_obj_style.c **** {
ARM GAS  /var/folders/0z/tsy30v1j4xl4_7kw94k978ww0000gn/T//cc8A9NTU.s 			page 10


 487:Drivers/lvgl/src/core/lv_obj_style.c ****     return selector & 0xFF0000;
 488:Drivers/lvgl/src/core/lv_obj_style.c **** }
 489:Drivers/lvgl/src/core/lv_obj_style.c **** 
 490:Drivers/lvgl/src/core/lv_obj_style.c **** 
 491:Drivers/lvgl/src/core/lv_obj_style.c **** lv_text_align_t lv_obj_calculate_style_text_align(const struct _lv_obj_t * obj, lv_part_t part, con
 492:Drivers/lvgl/src/core/lv_obj_style.c **** {
 493:Drivers/lvgl/src/core/lv_obj_style.c ****     lv_text_align_t align = lv_obj_get_style_text_align(obj, part);
 494:Drivers/lvgl/src/core/lv_obj_style.c ****     lv_base_dir_t base_dir = lv_obj_get_style_base_dir(obj, part);
 495:Drivers/lvgl/src/core/lv_obj_style.c ****     lv_bidi_calculate_align(&align, &base_dir, txt);
 496:Drivers/lvgl/src/core/lv_obj_style.c ****     return align;
 497:Drivers/lvgl/src/core/lv_obj_style.c **** }
 498:Drivers/lvgl/src/core/lv_obj_style.c **** 
 499:Drivers/lvgl/src/core/lv_obj_style.c **** lv_opa_t lv_obj_get_style_opa_recursive(const lv_obj_t * obj, lv_part_t part)
 500:Drivers/lvgl/src/core/lv_obj_style.c **** {
 501:Drivers/lvgl/src/core/lv_obj_style.c **** 
 502:Drivers/lvgl/src/core/lv_obj_style.c ****     lv_opa_t opa_obj = lv_obj_get_style_opa(obj, part);
 503:Drivers/lvgl/src/core/lv_obj_style.c ****     if(opa_obj <= LV_OPA_MIN) return LV_OPA_TRANSP;
 504:Drivers/lvgl/src/core/lv_obj_style.c **** 
 505:Drivers/lvgl/src/core/lv_obj_style.c ****     lv_opa_t opa_final = LV_OPA_COVER;
 506:Drivers/lvgl/src/core/lv_obj_style.c ****     if(opa_obj < LV_OPA_MAX) {
 507:Drivers/lvgl/src/core/lv_obj_style.c ****         opa_final = ((uint32_t)opa_final * opa_obj) >> 8;
 508:Drivers/lvgl/src/core/lv_obj_style.c ****     }
 509:Drivers/lvgl/src/core/lv_obj_style.c **** 
 510:Drivers/lvgl/src/core/lv_obj_style.c ****     if(part != LV_PART_MAIN) {
 511:Drivers/lvgl/src/core/lv_obj_style.c ****         part = LV_PART_MAIN;
 512:Drivers/lvgl/src/core/lv_obj_style.c ****     }
 513:Drivers/lvgl/src/core/lv_obj_style.c ****     else {
 514:Drivers/lvgl/src/core/lv_obj_style.c ****         obj = lv_obj_get_parent(obj);
 515:Drivers/lvgl/src/core/lv_obj_style.c ****     }
 516:Drivers/lvgl/src/core/lv_obj_style.c **** 
 517:Drivers/lvgl/src/core/lv_obj_style.c ****     while(obj) {
 518:Drivers/lvgl/src/core/lv_obj_style.c ****         opa_obj = lv_obj_get_style_opa(obj, part);
 519:Drivers/lvgl/src/core/lv_obj_style.c ****         if(opa_obj <= LV_OPA_MIN) return LV_OPA_TRANSP;
 520:Drivers/lvgl/src/core/lv_obj_style.c ****         if(opa_obj < LV_OPA_MAX) {
 521:Drivers/lvgl/src/core/lv_obj_style.c ****             opa_final = ((uint32_t)opa_final * opa_obj) >> 8;
 522:Drivers/lvgl/src/core/lv_obj_style.c ****         }
 523:Drivers/lvgl/src/core/lv_obj_style.c **** 
 524:Drivers/lvgl/src/core/lv_obj_style.c ****         obj = lv_obj_get_parent(obj);
 525:Drivers/lvgl/src/core/lv_obj_style.c ****     }
 526:Drivers/lvgl/src/core/lv_obj_style.c **** 
 527:Drivers/lvgl/src/core/lv_obj_style.c ****     if(opa_final <= LV_OPA_MIN) return LV_OPA_TRANSP;
 528:Drivers/lvgl/src/core/lv_obj_style.c ****     if(opa_final >= LV_OPA_MAX) return LV_OPA_COVER;
 529:Drivers/lvgl/src/core/lv_obj_style.c ****     return opa_final;
 530:Drivers/lvgl/src/core/lv_obj_style.c **** }
 531:Drivers/lvgl/src/core/lv_obj_style.c **** 
 532:Drivers/lvgl/src/core/lv_obj_style.c **** 
 533:Drivers/lvgl/src/core/lv_obj_style.c **** /**********************
 534:Drivers/lvgl/src/core/lv_obj_style.c ****  *   STATIC FUNCTIONS
 535:Drivers/lvgl/src/core/lv_obj_style.c ****  **********************/
 536:Drivers/lvgl/src/core/lv_obj_style.c **** 
 537:Drivers/lvgl/src/core/lv_obj_style.c **** /**
 538:Drivers/lvgl/src/core/lv_obj_style.c ****  * Get the local style of an object for a given part and for a given state.
 539:Drivers/lvgl/src/core/lv_obj_style.c ****  * If the local style for the part-state pair doesn't exist allocate and return it.
 540:Drivers/lvgl/src/core/lv_obj_style.c ****  * @param obj pointer to an object
 541:Drivers/lvgl/src/core/lv_obj_style.c ****  * @param selector OR-ed value of parts and state for which the style should be get
 542:Drivers/lvgl/src/core/lv_obj_style.c ****  * @return pointer to the local style
 543:Drivers/lvgl/src/core/lv_obj_style.c ****  */
ARM GAS  /var/folders/0z/tsy30v1j4xl4_7kw94k978ww0000gn/T//cc8A9NTU.s 			page 11


 544:Drivers/lvgl/src/core/lv_obj_style.c **** static lv_style_t * get_local_style(lv_obj_t * obj, lv_style_selector_t selector)
 545:Drivers/lvgl/src/core/lv_obj_style.c **** {
 546:Drivers/lvgl/src/core/lv_obj_style.c ****     uint32_t i;
 547:Drivers/lvgl/src/core/lv_obj_style.c ****     for(i = 0; i < obj->style_cnt; i++) {
 548:Drivers/lvgl/src/core/lv_obj_style.c ****         if(obj->styles[i].is_local &&
 549:Drivers/lvgl/src/core/lv_obj_style.c ****            obj->styles[i].selector == selector) {
 550:Drivers/lvgl/src/core/lv_obj_style.c ****             return obj->styles[i].style;
 551:Drivers/lvgl/src/core/lv_obj_style.c ****         }
 552:Drivers/lvgl/src/core/lv_obj_style.c ****     }
 553:Drivers/lvgl/src/core/lv_obj_style.c **** 
 554:Drivers/lvgl/src/core/lv_obj_style.c ****     obj->style_cnt++;
 555:Drivers/lvgl/src/core/lv_obj_style.c ****     obj->styles = lv_mem_realloc(obj->styles, obj->style_cnt * sizeof(_lv_obj_style_t));
 556:Drivers/lvgl/src/core/lv_obj_style.c ****     LV_ASSERT_MALLOC(obj->styles);
 557:Drivers/lvgl/src/core/lv_obj_style.c **** 
 558:Drivers/lvgl/src/core/lv_obj_style.c ****     for(i = obj->style_cnt - 1; i > 0 ; i--) {
 559:Drivers/lvgl/src/core/lv_obj_style.c ****         /*Copy only normal styles (not local and transition).
 560:Drivers/lvgl/src/core/lv_obj_style.c ****          *The new local style will be added as the last local style*/
 561:Drivers/lvgl/src/core/lv_obj_style.c ****         if(obj->styles[i - 1].is_local || obj->styles[i - 1].is_trans) break;
 562:Drivers/lvgl/src/core/lv_obj_style.c ****         obj->styles[i] = obj->styles[i - 1];
 563:Drivers/lvgl/src/core/lv_obj_style.c ****     }
 564:Drivers/lvgl/src/core/lv_obj_style.c **** 
 565:Drivers/lvgl/src/core/lv_obj_style.c ****     lv_memset_00(&obj->styles[i], sizeof(_lv_obj_style_t));
 566:Drivers/lvgl/src/core/lv_obj_style.c ****     obj->styles[i].style = lv_mem_alloc(sizeof(lv_style_t));
 567:Drivers/lvgl/src/core/lv_obj_style.c ****     lv_style_init(obj->styles[i].style);
 568:Drivers/lvgl/src/core/lv_obj_style.c ****     obj->styles[i].is_local = 1;
 569:Drivers/lvgl/src/core/lv_obj_style.c ****     obj->styles[i].selector = selector;
 570:Drivers/lvgl/src/core/lv_obj_style.c ****     return obj->styles[i].style;
 571:Drivers/lvgl/src/core/lv_obj_style.c **** }
 572:Drivers/lvgl/src/core/lv_obj_style.c **** 
 573:Drivers/lvgl/src/core/lv_obj_style.c **** /**
 574:Drivers/lvgl/src/core/lv_obj_style.c ****  * Get the transition style of an object for a given part and for a given state.
 575:Drivers/lvgl/src/core/lv_obj_style.c ****  * If the transition style for the part-state pair doesn't exist allocate and return it.
 576:Drivers/lvgl/src/core/lv_obj_style.c ****  * @param obj   pointer to an object
 577:Drivers/lvgl/src/core/lv_obj_style.c ****  * @param selector OR-ed value of parts and state for which the style should be get
 578:Drivers/lvgl/src/core/lv_obj_style.c ****  * @return pointer to the transition style
 579:Drivers/lvgl/src/core/lv_obj_style.c ****  */
 580:Drivers/lvgl/src/core/lv_obj_style.c **** static _lv_obj_style_t * get_trans_style(lv_obj_t * obj,  lv_style_selector_t selector)
 581:Drivers/lvgl/src/core/lv_obj_style.c **** {
 582:Drivers/lvgl/src/core/lv_obj_style.c ****     uint32_t i;
 583:Drivers/lvgl/src/core/lv_obj_style.c ****     for(i = 0; i < obj->style_cnt; i++) {
 584:Drivers/lvgl/src/core/lv_obj_style.c ****         if(obj->styles[i].is_trans && obj->styles[i].selector == selector) break;
 585:Drivers/lvgl/src/core/lv_obj_style.c ****     }
 586:Drivers/lvgl/src/core/lv_obj_style.c **** 
 587:Drivers/lvgl/src/core/lv_obj_style.c ****     /*Already have a transition style for it*/
 588:Drivers/lvgl/src/core/lv_obj_style.c ****     if(i != obj->style_cnt) return &obj->styles[i];
 589:Drivers/lvgl/src/core/lv_obj_style.c **** 
 590:Drivers/lvgl/src/core/lv_obj_style.c ****     obj->style_cnt++;
 591:Drivers/lvgl/src/core/lv_obj_style.c ****     obj->styles = lv_mem_realloc(obj->styles, obj->style_cnt * sizeof(_lv_obj_style_t));
 592:Drivers/lvgl/src/core/lv_obj_style.c **** 
 593:Drivers/lvgl/src/core/lv_obj_style.c ****     for(i = obj->style_cnt - 1; i > 0 ; i--) {
 594:Drivers/lvgl/src/core/lv_obj_style.c ****         obj->styles[i] = obj->styles[i - 1];
 595:Drivers/lvgl/src/core/lv_obj_style.c ****     }
 596:Drivers/lvgl/src/core/lv_obj_style.c **** 
 597:Drivers/lvgl/src/core/lv_obj_style.c ****     lv_memset_00(&obj->styles[0], sizeof(_lv_obj_style_t));
 598:Drivers/lvgl/src/core/lv_obj_style.c ****     obj->styles[0].style = lv_mem_alloc(sizeof(lv_style_t));
 599:Drivers/lvgl/src/core/lv_obj_style.c ****     lv_style_init(obj->styles[0].style);
 600:Drivers/lvgl/src/core/lv_obj_style.c ****     obj->styles[0].is_trans = 1;
ARM GAS  /var/folders/0z/tsy30v1j4xl4_7kw94k978ww0000gn/T//cc8A9NTU.s 			page 12


 601:Drivers/lvgl/src/core/lv_obj_style.c ****     obj->styles[0].selector = selector;
 602:Drivers/lvgl/src/core/lv_obj_style.c ****     return &obj->styles[0];
 603:Drivers/lvgl/src/core/lv_obj_style.c **** }
 604:Drivers/lvgl/src/core/lv_obj_style.c **** 
 605:Drivers/lvgl/src/core/lv_obj_style.c **** 
 606:Drivers/lvgl/src/core/lv_obj_style.c **** static lv_style_res_t get_prop_core(const lv_obj_t * obj, lv_part_t part, lv_style_prop_t prop, lv_
 607:Drivers/lvgl/src/core/lv_obj_style.c **** {
 608:Drivers/lvgl/src/core/lv_obj_style.c ****     uint8_t group = 1 << _lv_style_get_prop_group(prop);
 609:Drivers/lvgl/src/core/lv_obj_style.c ****     int32_t weight = -1;
 610:Drivers/lvgl/src/core/lv_obj_style.c ****     lv_state_t state = obj->state;
 611:Drivers/lvgl/src/core/lv_obj_style.c ****     lv_state_t state_inv = ~state;
 612:Drivers/lvgl/src/core/lv_obj_style.c ****     lv_style_value_t value_tmp;
 613:Drivers/lvgl/src/core/lv_obj_style.c ****     bool skip_trans = obj->skip_trans;
 614:Drivers/lvgl/src/core/lv_obj_style.c ****     uint32_t i;
 615:Drivers/lvgl/src/core/lv_obj_style.c ****     lv_style_res_t found;
 616:Drivers/lvgl/src/core/lv_obj_style.c ****     for(i = 0; i < obj->style_cnt; i++) {
 617:Drivers/lvgl/src/core/lv_obj_style.c ****         _lv_obj_style_t * obj_style = &obj->styles[i];
 618:Drivers/lvgl/src/core/lv_obj_style.c ****         if(obj_style->is_trans == false) break;
 619:Drivers/lvgl/src/core/lv_obj_style.c ****         if(skip_trans) continue;
 620:Drivers/lvgl/src/core/lv_obj_style.c **** 
 621:Drivers/lvgl/src/core/lv_obj_style.c ****         lv_part_t part_act = lv_obj_style_get_selector_part(obj->styles[i].selector);
 622:Drivers/lvgl/src/core/lv_obj_style.c **** 
 623:Drivers/lvgl/src/core/lv_obj_style.c ****         if(part_act != part) continue;
 624:Drivers/lvgl/src/core/lv_obj_style.c ****         if((obj_style->style->has_group & group) == 0) continue;
 625:Drivers/lvgl/src/core/lv_obj_style.c ****         found = lv_style_get_prop(obj_style->style, prop, &value_tmp);
 626:Drivers/lvgl/src/core/lv_obj_style.c ****         if(found == LV_STYLE_RES_FOUND) {
 627:Drivers/lvgl/src/core/lv_obj_style.c ****             *v = value_tmp;
 628:Drivers/lvgl/src/core/lv_obj_style.c ****             return LV_STYLE_RES_FOUND;
 629:Drivers/lvgl/src/core/lv_obj_style.c ****         }
 630:Drivers/lvgl/src/core/lv_obj_style.c ****         else if(found == LV_STYLE_RES_INHERIT) {
 631:Drivers/lvgl/src/core/lv_obj_style.c ****             return LV_STYLE_RES_INHERIT;
 632:Drivers/lvgl/src/core/lv_obj_style.c ****         }
 633:Drivers/lvgl/src/core/lv_obj_style.c ****     }
 634:Drivers/lvgl/src/core/lv_obj_style.c **** 
 635:Drivers/lvgl/src/core/lv_obj_style.c ****     for(; i < obj->style_cnt; i++) {
 636:Drivers/lvgl/src/core/lv_obj_style.c ****         if((obj->styles[i].style->has_group & group) == 0) continue;
 637:Drivers/lvgl/src/core/lv_obj_style.c ****         _lv_obj_style_t * obj_style = &obj->styles[i];
 638:Drivers/lvgl/src/core/lv_obj_style.c ****         lv_part_t part_act = lv_obj_style_get_selector_part(obj->styles[i].selector);
 639:Drivers/lvgl/src/core/lv_obj_style.c ****         lv_state_t state_act = lv_obj_style_get_selector_state(obj->styles[i].selector);
 640:Drivers/lvgl/src/core/lv_obj_style.c ****         if(part_act != part) continue;
 641:Drivers/lvgl/src/core/lv_obj_style.c **** 
 642:Drivers/lvgl/src/core/lv_obj_style.c ****         /*Be sure the style not specifies other state than the requested.
 643:Drivers/lvgl/src/core/lv_obj_style.c ****          *E.g. For HOVER+PRESS object state, HOVER style only is OK, but HOVER+FOCUS style is not*/
 644:Drivers/lvgl/src/core/lv_obj_style.c ****         if((state_act & state_inv)) continue;
 645:Drivers/lvgl/src/core/lv_obj_style.c **** 
 646:Drivers/lvgl/src/core/lv_obj_style.c ****         /*Check only better candidates*/
 647:Drivers/lvgl/src/core/lv_obj_style.c ****         if(state_act <= weight) continue;
 648:Drivers/lvgl/src/core/lv_obj_style.c **** 
 649:Drivers/lvgl/src/core/lv_obj_style.c ****         found = lv_style_get_prop(obj_style->style, prop, &value_tmp);
 650:Drivers/lvgl/src/core/lv_obj_style.c **** 
 651:Drivers/lvgl/src/core/lv_obj_style.c ****         if(found == LV_STYLE_RES_FOUND) {
 652:Drivers/lvgl/src/core/lv_obj_style.c ****             if(state_act == state) {
 653:Drivers/lvgl/src/core/lv_obj_style.c ****                 *v = value_tmp;
 654:Drivers/lvgl/src/core/lv_obj_style.c ****                 return LV_STYLE_RES_FOUND;
 655:Drivers/lvgl/src/core/lv_obj_style.c ****             }
 656:Drivers/lvgl/src/core/lv_obj_style.c ****             if(weight < state_act) {
 657:Drivers/lvgl/src/core/lv_obj_style.c ****                 weight = state_act;
ARM GAS  /var/folders/0z/tsy30v1j4xl4_7kw94k978ww0000gn/T//cc8A9NTU.s 			page 13


 658:Drivers/lvgl/src/core/lv_obj_style.c ****                 *v = value_tmp;
 659:Drivers/lvgl/src/core/lv_obj_style.c ****             }
 660:Drivers/lvgl/src/core/lv_obj_style.c ****         }
 661:Drivers/lvgl/src/core/lv_obj_style.c ****         else if(found == LV_STYLE_RES_INHERIT) {
 662:Drivers/lvgl/src/core/lv_obj_style.c ****             return LV_STYLE_RES_INHERIT;
 663:Drivers/lvgl/src/core/lv_obj_style.c ****         }
 664:Drivers/lvgl/src/core/lv_obj_style.c ****     }
 665:Drivers/lvgl/src/core/lv_obj_style.c **** 
 666:Drivers/lvgl/src/core/lv_obj_style.c ****     if(weight >= 0) {
 667:Drivers/lvgl/src/core/lv_obj_style.c ****         *v = value_tmp;
 668:Drivers/lvgl/src/core/lv_obj_style.c ****         return LV_STYLE_RES_FOUND;
 669:Drivers/lvgl/src/core/lv_obj_style.c ****     }
 670:Drivers/lvgl/src/core/lv_obj_style.c ****     else return LV_STYLE_RES_NOT_FOUND;
 671:Drivers/lvgl/src/core/lv_obj_style.c **** }
 672:Drivers/lvgl/src/core/lv_obj_style.c **** 
 673:Drivers/lvgl/src/core/lv_obj_style.c **** /**
 674:Drivers/lvgl/src/core/lv_obj_style.c ****  * Refresh the style of all children of an object. (Called recursively)
 675:Drivers/lvgl/src/core/lv_obj_style.c ****  * @param style refresh objects only with this
 676:Drivers/lvgl/src/core/lv_obj_style.c ****  * @param obj pointer to an object
 677:Drivers/lvgl/src/core/lv_obj_style.c ****  */
 678:Drivers/lvgl/src/core/lv_obj_style.c **** static void report_style_change_core(void * style, lv_obj_t * obj)
 679:Drivers/lvgl/src/core/lv_obj_style.c **** {
 680:Drivers/lvgl/src/core/lv_obj_style.c ****     uint32_t i;
 681:Drivers/lvgl/src/core/lv_obj_style.c ****     for(i = 0; i < obj->style_cnt; i++) {
 682:Drivers/lvgl/src/core/lv_obj_style.c ****         if(style == NULL || obj->styles[i].style == style) {
 683:Drivers/lvgl/src/core/lv_obj_style.c ****             lv_obj_refresh_style(obj, LV_PART_ANY, LV_STYLE_PROP_ANY);
 684:Drivers/lvgl/src/core/lv_obj_style.c ****             break;
 685:Drivers/lvgl/src/core/lv_obj_style.c ****         }
 686:Drivers/lvgl/src/core/lv_obj_style.c ****     }
 687:Drivers/lvgl/src/core/lv_obj_style.c **** 
 688:Drivers/lvgl/src/core/lv_obj_style.c ****     uint32_t child_cnt = lv_obj_get_child_cnt(obj);
 689:Drivers/lvgl/src/core/lv_obj_style.c ****     for(i = 0; i < child_cnt; i++) {
 690:Drivers/lvgl/src/core/lv_obj_style.c ****         report_style_change_core(style, obj->spec_attr->children[i]);
 691:Drivers/lvgl/src/core/lv_obj_style.c ****     }
 692:Drivers/lvgl/src/core/lv_obj_style.c **** }
 693:Drivers/lvgl/src/core/lv_obj_style.c **** 
 694:Drivers/lvgl/src/core/lv_obj_style.c **** /**
 695:Drivers/lvgl/src/core/lv_obj_style.c ****  * Recursively refresh the style of the children. Go deeper until a not NULL style is found
 696:Drivers/lvgl/src/core/lv_obj_style.c ****  * because the NULL styles are inherited from the parent
 697:Drivers/lvgl/src/core/lv_obj_style.c ****  * @param obj pointer to an object
 698:Drivers/lvgl/src/core/lv_obj_style.c ****  */
 699:Drivers/lvgl/src/core/lv_obj_style.c **** static void refresh_children_style(lv_obj_t * obj)
 700:Drivers/lvgl/src/core/lv_obj_style.c **** {
 701:Drivers/lvgl/src/core/lv_obj_style.c ****     uint32_t i;
 702:Drivers/lvgl/src/core/lv_obj_style.c ****     uint32_t child_cnt = lv_obj_get_child_cnt(obj);
 703:Drivers/lvgl/src/core/lv_obj_style.c ****     for(i = 0; i < child_cnt; i++) {
 704:Drivers/lvgl/src/core/lv_obj_style.c ****         lv_obj_t * child = obj->spec_attr->children[i];
 705:Drivers/lvgl/src/core/lv_obj_style.c ****         lv_obj_invalidate(child);
 706:Drivers/lvgl/src/core/lv_obj_style.c ****         lv_event_send(child, LV_EVENT_STYLE_CHANGED, NULL);
 707:Drivers/lvgl/src/core/lv_obj_style.c ****         lv_obj_invalidate(child);
 708:Drivers/lvgl/src/core/lv_obj_style.c **** 
 709:Drivers/lvgl/src/core/lv_obj_style.c ****         refresh_children_style(child); /*Check children too*/
 710:Drivers/lvgl/src/core/lv_obj_style.c ****     }
 711:Drivers/lvgl/src/core/lv_obj_style.c **** }
 712:Drivers/lvgl/src/core/lv_obj_style.c **** 
 713:Drivers/lvgl/src/core/lv_obj_style.c **** /**
 714:Drivers/lvgl/src/core/lv_obj_style.c ****  * Remove the transition from object's part's property.
ARM GAS  /var/folders/0z/tsy30v1j4xl4_7kw94k978ww0000gn/T//cc8A9NTU.s 			page 14


 715:Drivers/lvgl/src/core/lv_obj_style.c ****  * - Remove the transition from `_lv_obj_style_trans_ll` and free it
 716:Drivers/lvgl/src/core/lv_obj_style.c ****  * - Delete pending transitions
 717:Drivers/lvgl/src/core/lv_obj_style.c ****  * @param obj pointer to an object which transition(s) should be removed
 718:Drivers/lvgl/src/core/lv_obj_style.c ****  * @param part a part of object or 0xFF to remove from all parts
 719:Drivers/lvgl/src/core/lv_obj_style.c ****  * @param prop a property or 0xFF to remove all properties
 720:Drivers/lvgl/src/core/lv_obj_style.c ****  * @param tr_limit delete transitions only "older" than this. `NULL` if not used
 721:Drivers/lvgl/src/core/lv_obj_style.c ****  */
 722:Drivers/lvgl/src/core/lv_obj_style.c **** static bool trans_del(lv_obj_t * obj, lv_part_t part, lv_style_prop_t prop, trans_t * tr_limit)
 723:Drivers/lvgl/src/core/lv_obj_style.c **** {
  29              		.loc 1 723 1 view -0
  30              		.cfi_startproc
  31              		@ args = 0, pretend = 0, frame = 0
  32              		@ frame_needed = 0, uses_anonymous_args = 0
  33              		.loc 1 723 1 is_stmt 0 view .LVU1
  34 0000 2DE9F047 		push	{r4, r5, r6, r7, r8, r9, r10, lr}
  35              		.cfi_def_cfa_offset 32
  36              		.cfi_offset 4, -32
  37              		.cfi_offset 5, -28
  38              		.cfi_offset 6, -24
  39              		.cfi_offset 7, -20
  40              		.cfi_offset 8, -16
  41              		.cfi_offset 9, -12
  42              		.cfi_offset 10, -8
  43              		.cfi_offset 14, -4
  44 0004 0646     		mov	r6, r0
  45 0006 8946     		mov	r9, r1
  46 0008 9246     		mov	r10, r2
  47 000a 9846     		mov	r8, r3
 724:Drivers/lvgl/src/core/lv_obj_style.c ****     trans_t * tr;
  48              		.loc 1 724 5 is_stmt 1 view .LVU2
 725:Drivers/lvgl/src/core/lv_obj_style.c ****     trans_t * tr_prev;
  49              		.loc 1 725 5 view .LVU3
 726:Drivers/lvgl/src/core/lv_obj_style.c ****     bool removed = false;
  50              		.loc 1 726 5 view .LVU4
  51              	.LVL1:
 727:Drivers/lvgl/src/core/lv_obj_style.c ****     tr = _lv_ll_get_tail(&LV_GC_ROOT(_lv_obj_style_trans_ll));
  52              		.loc 1 727 5 view .LVU5
  53              		.loc 1 727 10 is_stmt 0 view .LVU6
  54 000c 2748     		ldr	r0, .L17
  55              	.LVL2:
  56              		.loc 1 727 10 view .LVU7
  57 000e FFF7FEFF 		bl	_lv_ll_get_tail
  58              	.LVL3:
  59              		.loc 1 727 10 view .LVU8
  60 0012 0446     		mov	r4, r0
  61              	.LVL4:
 728:Drivers/lvgl/src/core/lv_obj_style.c ****     while(tr != NULL) {
  62              		.loc 1 728 5 is_stmt 1 view .LVU9
 726:Drivers/lvgl/src/core/lv_obj_style.c ****     bool removed = false;
  63              		.loc 1 726 10 is_stmt 0 view .LVU10
  64 0014 0027     		movs	r7, #0
  65              		.loc 1 728 10 view .LVU11
  66 0016 07E0     		b	.L2
  67              	.LVL5:
  68              	.L5:
 729:Drivers/lvgl/src/core/lv_obj_style.c ****         if(tr == tr_limit) break;
 730:Drivers/lvgl/src/core/lv_obj_style.c **** 
ARM GAS  /var/folders/0z/tsy30v1j4xl4_7kw94k978ww0000gn/T//cc8A9NTU.s 			page 15


 731:Drivers/lvgl/src/core/lv_obj_style.c ****         /*'tr' might be deleted, so get the next object while 'tr' is valid*/
 732:Drivers/lvgl/src/core/lv_obj_style.c ****         tr_prev = _lv_ll_get_prev(&LV_GC_ROOT(_lv_obj_style_trans_ll), tr);
 733:Drivers/lvgl/src/core/lv_obj_style.c **** 
 734:Drivers/lvgl/src/core/lv_obj_style.c ****         if(tr->obj == obj && (part == tr->selector || part == LV_PART_ANY) && (prop == tr->prop || 
  69              		.loc 1 734 90 discriminator 4 view .LVU12
  70 0018 A388     		ldrh	r3, [r4, #4]
  71              		.loc 1 734 76 discriminator 4 view .LVU13
  72 001a 5345     		cmp	r3, r10
  73 001c 32D0     		beq	.L12
  74              		.loc 1 734 97 discriminator 5 view .LVU14
  75 001e 4FF6FF73 		movw	r3, #65535
  76 0022 9A45     		cmp	r10, r3
  77 0024 30D0     		beq	.L15
  78              	.LVL6:
  79              	.L4:
  80              	.LBB85:
 735:Drivers/lvgl/src/core/lv_obj_style.c ****             /*Remove any transitioned properties from the trans. style
 736:Drivers/lvgl/src/core/lv_obj_style.c ****              *to allow changing it by normal styles*/
 737:Drivers/lvgl/src/core/lv_obj_style.c ****             uint32_t i;
 738:Drivers/lvgl/src/core/lv_obj_style.c ****             for(i = 0; i < obj->style_cnt; i++) {
 739:Drivers/lvgl/src/core/lv_obj_style.c ****                 if(obj->styles[i].is_trans && (part == LV_PART_ANY || obj->styles[i].selector == pa
 740:Drivers/lvgl/src/core/lv_obj_style.c ****                     lv_style_remove_prop(obj->styles[i].style, tr->prop);
 741:Drivers/lvgl/src/core/lv_obj_style.c ****                 }
 742:Drivers/lvgl/src/core/lv_obj_style.c ****             }
 743:Drivers/lvgl/src/core/lv_obj_style.c **** 
 744:Drivers/lvgl/src/core/lv_obj_style.c ****             /*Free the transition descriptor too*/
 745:Drivers/lvgl/src/core/lv_obj_style.c ****             lv_anim_del(tr, NULL);
 746:Drivers/lvgl/src/core/lv_obj_style.c ****             _lv_ll_remove(&LV_GC_ROOT(_lv_obj_style_trans_ll), tr);
 747:Drivers/lvgl/src/core/lv_obj_style.c ****             lv_mem_free(tr);
 748:Drivers/lvgl/src/core/lv_obj_style.c ****             removed = true;
  81              		.loc 1 748 21 view .LVU15
  82 0026 2C46     		mov	r4, r5
  83              	.LVL7:
  84              	.L2:
  85              		.loc 1 748 21 view .LVU16
  86              	.LBE85:
 728:Drivers/lvgl/src/core/lv_obj_style.c ****         if(tr == tr_limit) break;
  87              		.loc 1 728 14 is_stmt 1 view .LVU17
  88 0028 002C     		cmp	r4, #0
  89 002a 3CD0     		beq	.L3
 729:Drivers/lvgl/src/core/lv_obj_style.c ****         if(tr == tr_limit) break;
  90              		.loc 1 729 9 view .LVU18
 729:Drivers/lvgl/src/core/lv_obj_style.c ****         if(tr == tr_limit) break;
  91              		.loc 1 729 11 is_stmt 0 view .LVU19
  92 002c 4445     		cmp	r4, r8
  93 002e 3AD0     		beq	.L3
 732:Drivers/lvgl/src/core/lv_obj_style.c **** 
  94              		.loc 1 732 9 is_stmt 1 view .LVU20
 732:Drivers/lvgl/src/core/lv_obj_style.c **** 
  95              		.loc 1 732 19 is_stmt 0 view .LVU21
  96 0030 2146     		mov	r1, r4
  97 0032 1E48     		ldr	r0, .L17
  98 0034 FFF7FEFF 		bl	_lv_ll_get_prev
  99              	.LVL8:
 100 0038 0546     		mov	r5, r0
 101              	.LVL9:
 734:Drivers/lvgl/src/core/lv_obj_style.c ****             /*Remove any transitioned properties from the trans. style
ARM GAS  /var/folders/0z/tsy30v1j4xl4_7kw94k978ww0000gn/T//cc8A9NTU.s 			page 16


 102              		.loc 1 734 9 is_stmt 1 view .LVU22
 734:Drivers/lvgl/src/core/lv_obj_style.c ****             /*Remove any transitioned properties from the trans. style
 103              		.loc 1 734 14 is_stmt 0 view .LVU23
 104 003a 2068     		ldr	r0, [r4]
 105              	.LVL10:
 734:Drivers/lvgl/src/core/lv_obj_style.c ****             /*Remove any transitioned properties from the trans. style
 106              		.loc 1 734 11 view .LVU24
 107 003c B042     		cmp	r0, r6
 108 003e F2D1     		bne	.L4
 734:Drivers/lvgl/src/core/lv_obj_style.c ****             /*Remove any transitioned properties from the trans. style
 109              		.loc 1 734 41 discriminator 1 view .LVU25
 110 0040 A368     		ldr	r3, [r4, #8]
 734:Drivers/lvgl/src/core/lv_obj_style.c ****             /*Remove any transitioned properties from the trans. style
 111              		.loc 1 734 27 discriminator 1 view .LVU26
 112 0042 4B45     		cmp	r3, r9
 113 0044 E8D0     		beq	.L5
 734:Drivers/lvgl/src/core/lv_obj_style.c ****             /*Remove any transitioned properties from the trans. style
 114              		.loc 1 734 52 discriminator 3 view .LVU27
 115 0046 B9F5702F 		cmp	r9, #983040
 116 004a ECD1     		bne	.L4
 117 004c E4E7     		b	.L5
 118              	.LVL11:
 119              	.L8:
 120              	.LBB86:
 740:Drivers/lvgl/src/core/lv_obj_style.c ****                 }
 121              		.loc 1 740 21 is_stmt 1 view .LVU28
 122 004e A188     		ldrh	r1, [r4, #4]
 123 0050 1058     		ldr	r0, [r2, r0]
 124 0052 FFF7FEFF 		bl	lv_style_remove_prop
 125              	.LVL12:
 126              	.L7:
 738:Drivers/lvgl/src/core/lv_obj_style.c ****                 if(obj->styles[i].is_trans && (part == LV_PART_ANY || obj->styles[i].selector == pa
 127              		.loc 1 738 45 discriminator 2 view .LVU29
 128 0056 0137     		adds	r7, r7, #1
 129              	.LVL13:
 130              	.L9:
 738:Drivers/lvgl/src/core/lv_obj_style.c ****                 if(obj->styles[i].is_trans && (part == LV_PART_ANY || obj->styles[i].selector == pa
 131              		.loc 1 738 26 discriminator 1 view .LVU30
 738:Drivers/lvgl/src/core/lv_obj_style.c ****                 if(obj->styles[i].is_trans && (part == LV_PART_ANY || obj->styles[i].selector == pa
 132              		.loc 1 738 31 is_stmt 0 discriminator 1 view .LVU31
 133 0058 738C     		ldrh	r3, [r6, #34]
 134 005a C3F30513 		ubfx	r3, r3, #4, #6
 738:Drivers/lvgl/src/core/lv_obj_style.c ****                 if(obj->styles[i].is_trans && (part == LV_PART_ANY || obj->styles[i].selector == pa
 135              		.loc 1 738 26 discriminator 1 view .LVU32
 136 005e BB42     		cmp	r3, r7
 137 0060 14D9     		bls	.L16
 739:Drivers/lvgl/src/core/lv_obj_style.c ****                     lv_style_remove_prop(obj->styles[i].style, tr->prop);
 138              		.loc 1 739 17 is_stmt 1 view .LVU33
 739:Drivers/lvgl/src/core/lv_obj_style.c ****                     lv_style_remove_prop(obj->styles[i].style, tr->prop);
 139              		.loc 1 739 23 is_stmt 0 view .LVU34
 140 0062 F268     		ldr	r2, [r6, #12]
 739:Drivers/lvgl/src/core/lv_obj_style.c ****                     lv_style_remove_prop(obj->styles[i].style, tr->prop);
 141              		.loc 1 739 31 view .LVU35
 142 0064 F800     		lsls	r0, r7, #3
 143 0066 02EBC703 		add	r3, r2, r7, lsl #3
 739:Drivers/lvgl/src/core/lv_obj_style.c ****                     lv_style_remove_prop(obj->styles[i].style, tr->prop);
 144              		.loc 1 739 20 view .LVU36
ARM GAS  /var/folders/0z/tsy30v1j4xl4_7kw94k978ww0000gn/T//cc8A9NTU.s 			page 17


 145 006a D979     		ldrb	r1, [r3, #7]	@ zero_extendqisi2
 739:Drivers/lvgl/src/core/lv_obj_style.c ****                     lv_style_remove_prop(obj->styles[i].style, tr->prop);
 146              		.loc 1 739 19 view .LVU37
 147 006c 11F0020F 		tst	r1, #2
 148 0070 F1D0     		beq	.L7
 739:Drivers/lvgl/src/core/lv_obj_style.c ****                     lv_style_remove_prop(obj->styles[i].style, tr->prop);
 149              		.loc 1 739 44 discriminator 1 view .LVU38
 150 0072 B9F5702F 		cmp	r9, #983040
 151 0076 EAD0     		beq	.L8
 739:Drivers/lvgl/src/core/lv_obj_style.c ****                     lv_style_remove_prop(obj->styles[i].style, tr->prop);
 152              		.loc 1 739 85 discriminator 2 view .LVU39
 153 0078 5B68     		ldr	r3, [r3, #4]
 154 007a C3F31703 		ubfx	r3, r3, #0, #24
 739:Drivers/lvgl/src/core/lv_obj_style.c ****                     lv_style_remove_prop(obj->styles[i].style, tr->prop);
 155              		.loc 1 739 68 discriminator 2 view .LVU40
 156 007e 4B45     		cmp	r3, r9
 157 0080 E9D1     		bne	.L7
 158 0082 E4E7     		b	.L8
 159              	.LVL14:
 160              	.L12:
 739:Drivers/lvgl/src/core/lv_obj_style.c ****                     lv_style_remove_prop(obj->styles[i].style, tr->prop);
 161              		.loc 1 739 68 discriminator 2 view .LVU41
 162              	.LBE86:
 163 0084 0027     		movs	r7, #0
 164              	.LVL15:
 739:Drivers/lvgl/src/core/lv_obj_style.c ****                     lv_style_remove_prop(obj->styles[i].style, tr->prop);
 165              		.loc 1 739 68 discriminator 2 view .LVU42
 166 0086 E7E7     		b	.L9
 167              	.LVL16:
 168              	.L15:
 739:Drivers/lvgl/src/core/lv_obj_style.c ****                     lv_style_remove_prop(obj->styles[i].style, tr->prop);
 169              		.loc 1 739 68 discriminator 2 view .LVU43
 170 0088 0027     		movs	r7, #0
 171              	.LVL17:
 739:Drivers/lvgl/src/core/lv_obj_style.c ****                     lv_style_remove_prop(obj->styles[i].style, tr->prop);
 172              		.loc 1 739 68 discriminator 2 view .LVU44
 173 008a E5E7     		b	.L9
 174              	.LVL18:
 175              	.L16:
 176              	.LBB87:
 745:Drivers/lvgl/src/core/lv_obj_style.c ****             _lv_ll_remove(&LV_GC_ROOT(_lv_obj_style_trans_ll), tr);
 177              		.loc 1 745 13 is_stmt 1 view .LVU45
 178 008c 0021     		movs	r1, #0
 179 008e 2046     		mov	r0, r4
 180 0090 FFF7FEFF 		bl	lv_anim_del
 181              	.LVL19:
 746:Drivers/lvgl/src/core/lv_obj_style.c ****             lv_mem_free(tr);
 182              		.loc 1 746 13 view .LVU46
 183 0094 2146     		mov	r1, r4
 184 0096 0548     		ldr	r0, .L17
 185 0098 FFF7FEFF 		bl	_lv_ll_remove
 186              	.LVL20:
 747:Drivers/lvgl/src/core/lv_obj_style.c ****             removed = true;
 187              		.loc 1 747 13 view .LVU47
 188 009c 2046     		mov	r0, r4
 189 009e FFF7FEFF 		bl	lv_mem_free
 190              	.LVL21:
ARM GAS  /var/folders/0z/tsy30v1j4xl4_7kw94k978ww0000gn/T//cc8A9NTU.s 			page 18


 191              		.loc 1 748 13 view .LVU48
 192              		.loc 1 748 21 is_stmt 0 view .LVU49
 193 00a2 0127     		movs	r7, #1
 194              	.LVL22:
 195              		.loc 1 748 21 view .LVU50
 196 00a4 BFE7     		b	.L4
 197              	.LVL23:
 198              	.L3:
 199              		.loc 1 748 21 view .LVU51
 200              	.LBE87:
 749:Drivers/lvgl/src/core/lv_obj_style.c **** 
 750:Drivers/lvgl/src/core/lv_obj_style.c ****         }
 751:Drivers/lvgl/src/core/lv_obj_style.c ****         tr = tr_prev;
 752:Drivers/lvgl/src/core/lv_obj_style.c ****     }
 753:Drivers/lvgl/src/core/lv_obj_style.c ****     return removed;
 201              		.loc 1 753 5 is_stmt 1 view .LVU52
 754:Drivers/lvgl/src/core/lv_obj_style.c **** }
 202              		.loc 1 754 1 is_stmt 0 view .LVU53
 203 00a6 3846     		mov	r0, r7
 204 00a8 BDE8F087 		pop	{r4, r5, r6, r7, r8, r9, r10, pc}
 205              	.LVL24:
 206              	.L18:
 207              		.loc 1 754 1 view .LVU54
 208              		.align	2
 209              	.L17:
 210 00ac 00000000 		.word	_lv_obj_style_trans_ll
 211              		.cfi_endproc
 212              	.LFE192:
 214              		.section	.text.refresh_children_style,"ax",%progbits
 215              		.align	1
 216              		.syntax unified
 217              		.thumb
 218              		.thumb_func
 220              	refresh_children_style:
 221              	.LVL25:
 222              	.LFB191:
 700:Drivers/lvgl/src/core/lv_obj_style.c ****     uint32_t i;
 223              		.loc 1 700 1 is_stmt 1 view -0
 224              		.cfi_startproc
 225              		@ args = 0, pretend = 0, frame = 0
 226              		@ frame_needed = 0, uses_anonymous_args = 0
 700:Drivers/lvgl/src/core/lv_obj_style.c ****     uint32_t i;
 227              		.loc 1 700 1 is_stmt 0 view .LVU56
 228 0000 F8B5     		push	{r3, r4, r5, r6, r7, lr}
 229              		.cfi_def_cfa_offset 24
 230              		.cfi_offset 3, -24
 231              		.cfi_offset 4, -20
 232              		.cfi_offset 5, -16
 233              		.cfi_offset 6, -12
 234              		.cfi_offset 7, -8
 235              		.cfi_offset 14, -4
 236 0002 0746     		mov	r7, r0
 701:Drivers/lvgl/src/core/lv_obj_style.c ****     uint32_t child_cnt = lv_obj_get_child_cnt(obj);
 237              		.loc 1 701 5 is_stmt 1 view .LVU57
 702:Drivers/lvgl/src/core/lv_obj_style.c ****     for(i = 0; i < child_cnt; i++) {
 238              		.loc 1 702 5 view .LVU58
 702:Drivers/lvgl/src/core/lv_obj_style.c ****     for(i = 0; i < child_cnt; i++) {
ARM GAS  /var/folders/0z/tsy30v1j4xl4_7kw94k978ww0000gn/T//cc8A9NTU.s 			page 19


 239              		.loc 1 702 26 is_stmt 0 view .LVU59
 240 0004 FFF7FEFF 		bl	lv_obj_get_child_cnt
 241              	.LVL26:
 702:Drivers/lvgl/src/core/lv_obj_style.c ****     for(i = 0; i < child_cnt; i++) {
 242              		.loc 1 702 26 view .LVU60
 243 0008 0546     		mov	r5, r0
 244              	.LVL27:
 703:Drivers/lvgl/src/core/lv_obj_style.c ****         lv_obj_t * child = obj->spec_attr->children[i];
 245              		.loc 1 703 5 is_stmt 1 view .LVU61
 703:Drivers/lvgl/src/core/lv_obj_style.c ****         lv_obj_t * child = obj->spec_attr->children[i];
 246              		.loc 1 703 11 is_stmt 0 view .LVU62
 247 000a 0024     		movs	r4, #0
 248              	.LVL28:
 249              	.L20:
 703:Drivers/lvgl/src/core/lv_obj_style.c ****         lv_obj_t * child = obj->spec_attr->children[i];
 250              		.loc 1 703 18 is_stmt 1 discriminator 1 view .LVU63
 251 000c AC42     		cmp	r4, r5
 252 000e 13D2     		bcs	.L23
 253              	.LBB88:
 704:Drivers/lvgl/src/core/lv_obj_style.c ****         lv_obj_invalidate(child);
 254              		.loc 1 704 9 discriminator 3 view .LVU64
 704:Drivers/lvgl/src/core/lv_obj_style.c ****         lv_obj_invalidate(child);
 255              		.loc 1 704 31 is_stmt 0 discriminator 3 view .LVU65
 256 0010 BB68     		ldr	r3, [r7, #8]
 704:Drivers/lvgl/src/core/lv_obj_style.c ****         lv_obj_invalidate(child);
 257              		.loc 1 704 42 discriminator 3 view .LVU66
 258 0012 1B68     		ldr	r3, [r3]
 704:Drivers/lvgl/src/core/lv_obj_style.c ****         lv_obj_invalidate(child);
 259              		.loc 1 704 20 discriminator 3 view .LVU67
 260 0014 53F82460 		ldr	r6, [r3, r4, lsl #2]
 261              	.LVL29:
 705:Drivers/lvgl/src/core/lv_obj_style.c ****         lv_event_send(child, LV_EVENT_STYLE_CHANGED, NULL);
 262              		.loc 1 705 9 is_stmt 1 discriminator 3 view .LVU68
 263 0018 3046     		mov	r0, r6
 264 001a FFF7FEFF 		bl	lv_obj_invalidate
 265              	.LVL30:
 706:Drivers/lvgl/src/core/lv_obj_style.c ****         lv_obj_invalidate(child);
 266              		.loc 1 706 9 discriminator 3 view .LVU69
 267 001e 0022     		movs	r2, #0
 268 0020 2A21     		movs	r1, #42
 269 0022 3046     		mov	r0, r6
 270 0024 FFF7FEFF 		bl	lv_event_send
 271              	.LVL31:
 707:Drivers/lvgl/src/core/lv_obj_style.c **** 
 272              		.loc 1 707 9 discriminator 3 view .LVU70
 273 0028 3046     		mov	r0, r6
 274 002a FFF7FEFF 		bl	lv_obj_invalidate
 275              	.LVL32:
 709:Drivers/lvgl/src/core/lv_obj_style.c ****     }
 276              		.loc 1 709 9 discriminator 3 view .LVU71
 277 002e 3046     		mov	r0, r6
 278 0030 FFF7E6FF 		bl	refresh_children_style
 279              	.LVL33:
 280              	.LBE88:
 703:Drivers/lvgl/src/core/lv_obj_style.c ****         lv_obj_t * child = obj->spec_attr->children[i];
 281              		.loc 1 703 32 discriminator 3 view .LVU72
 282 0034 0134     		adds	r4, r4, #1
ARM GAS  /var/folders/0z/tsy30v1j4xl4_7kw94k978ww0000gn/T//cc8A9NTU.s 			page 20


 283              	.LVL34:
 703:Drivers/lvgl/src/core/lv_obj_style.c ****         lv_obj_t * child = obj->spec_attr->children[i];
 284              		.loc 1 703 32 is_stmt 0 discriminator 3 view .LVU73
 285 0036 E9E7     		b	.L20
 286              	.LVL35:
 287              	.L23:
 711:Drivers/lvgl/src/core/lv_obj_style.c **** 
 288              		.loc 1 711 1 view .LVU74
 289 0038 F8BD     		pop	{r3, r4, r5, r6, r7, pc}
 711:Drivers/lvgl/src/core/lv_obj_style.c **** 
 290              		.loc 1 711 1 view .LVU75
 291              		.cfi_endproc
 292              	.LFE191:
 294              		.section	.text.get_local_style,"ax",%progbits
 295              		.align	1
 296              		.syntax unified
 297              		.thumb
 298              		.thumb_func
 300              	get_local_style:
 301              	.LVL36:
 302              	.LFB187:
 545:Drivers/lvgl/src/core/lv_obj_style.c ****     uint32_t i;
 303              		.loc 1 545 1 is_stmt 1 view -0
 304              		.cfi_startproc
 305              		@ args = 0, pretend = 0, frame = 0
 306              		@ frame_needed = 0, uses_anonymous_args = 0
 545:Drivers/lvgl/src/core/lv_obj_style.c ****     uint32_t i;
 307              		.loc 1 545 1 is_stmt 0 view .LVU77
 308 0000 2DE9F041 		push	{r4, r5, r6, r7, r8, lr}
 309              		.cfi_def_cfa_offset 24
 310              		.cfi_offset 4, -24
 311              		.cfi_offset 5, -20
 312              		.cfi_offset 6, -16
 313              		.cfi_offset 7, -12
 314              		.cfi_offset 8, -8
 315              		.cfi_offset 14, -4
 316 0004 0446     		mov	r4, r0
 317 0006 0D46     		mov	r5, r1
 546:Drivers/lvgl/src/core/lv_obj_style.c ****     for(i = 0; i < obj->style_cnt; i++) {
 318              		.loc 1 546 5 is_stmt 1 view .LVU78
 547:Drivers/lvgl/src/core/lv_obj_style.c ****         if(obj->styles[i].is_local &&
 319              		.loc 1 547 5 view .LVU79
 320              	.LVL37:
 547:Drivers/lvgl/src/core/lv_obj_style.c ****         if(obj->styles[i].is_local &&
 321              		.loc 1 547 11 is_stmt 0 view .LVU80
 322 0008 0022     		movs	r2, #0
 547:Drivers/lvgl/src/core/lv_obj_style.c ****         if(obj->styles[i].is_local &&
 323              		.loc 1 547 5 view .LVU81
 324 000a 00E0     		b	.L25
 325              	.LVL38:
 326              	.L26:
 547:Drivers/lvgl/src/core/lv_obj_style.c ****         if(obj->styles[i].is_local &&
 327              		.loc 1 547 37 is_stmt 1 discriminator 2 view .LVU82
 328 000c 0132     		adds	r2, r2, #1
 329              	.LVL39:
 330              	.L25:
 547:Drivers/lvgl/src/core/lv_obj_style.c ****         if(obj->styles[i].is_local &&
ARM GAS  /var/folders/0z/tsy30v1j4xl4_7kw94k978ww0000gn/T//cc8A9NTU.s 			page 21


 331              		.loc 1 547 18 discriminator 1 view .LVU83
 547:Drivers/lvgl/src/core/lv_obj_style.c ****         if(obj->styles[i].is_local &&
 332              		.loc 1 547 23 is_stmt 0 discriminator 1 view .LVU84
 333 000e 638C     		ldrh	r3, [r4, #34]
 334 0010 C3F30513 		ubfx	r3, r3, #4, #6
 547:Drivers/lvgl/src/core/lv_obj_style.c ****         if(obj->styles[i].is_local &&
 335              		.loc 1 547 18 discriminator 1 view .LVU85
 336 0014 9342     		cmp	r3, r2
 337 0016 0DD9     		bls	.L35
 548:Drivers/lvgl/src/core/lv_obj_style.c ****            obj->styles[i].selector == selector) {
 338              		.loc 1 548 9 is_stmt 1 view .LVU86
 548:Drivers/lvgl/src/core/lv_obj_style.c ****            obj->styles[i].selector == selector) {
 339              		.loc 1 548 15 is_stmt 0 view .LVU87
 340 0018 E368     		ldr	r3, [r4, #12]
 548:Drivers/lvgl/src/core/lv_obj_style.c ****            obj->styles[i].selector == selector) {
 341              		.loc 1 548 23 view .LVU88
 342 001a 03EBC203 		add	r3, r3, r2, lsl #3
 548:Drivers/lvgl/src/core/lv_obj_style.c ****            obj->styles[i].selector == selector) {
 343              		.loc 1 548 12 view .LVU89
 344 001e D979     		ldrb	r1, [r3, #7]	@ zero_extendqisi2
 548:Drivers/lvgl/src/core/lv_obj_style.c ****            obj->styles[i].selector == selector) {
 345              		.loc 1 548 11 view .LVU90
 346 0020 11F0010F 		tst	r1, #1
 347 0024 F2D0     		beq	.L26
 549:Drivers/lvgl/src/core/lv_obj_style.c ****             return obj->styles[i].style;
 348              		.loc 1 549 26 discriminator 1 view .LVU91
 349 0026 5968     		ldr	r1, [r3, #4]
 350 0028 C1F31701 		ubfx	r1, r1, #0, #24
 548:Drivers/lvgl/src/core/lv_obj_style.c ****            obj->styles[i].selector == selector) {
 351              		.loc 1 548 36 discriminator 1 view .LVU92
 352 002c A942     		cmp	r1, r5
 353 002e EDD1     		bne	.L26
 550:Drivers/lvgl/src/core/lv_obj_style.c ****         }
 354              		.loc 1 550 13 is_stmt 1 view .LVU93
 550:Drivers/lvgl/src/core/lv_obj_style.c ****         }
 355              		.loc 1 550 34 is_stmt 0 view .LVU94
 356 0030 1868     		ldr	r0, [r3]
 357              	.LVL40:
 550:Drivers/lvgl/src/core/lv_obj_style.c ****         }
 358              		.loc 1 550 34 view .LVU95
 359 0032 46E0     		b	.L24
 360              	.LVL41:
 361              	.L35:
 554:Drivers/lvgl/src/core/lv_obj_style.c ****     obj->styles = lv_mem_realloc(obj->styles, obj->style_cnt * sizeof(_lv_obj_style_t));
 362              		.loc 1 554 5 is_stmt 1 view .LVU96
 554:Drivers/lvgl/src/core/lv_obj_style.c ****     obj->styles = lv_mem_realloc(obj->styles, obj->style_cnt * sizeof(_lv_obj_style_t));
 363              		.loc 1 554 19 is_stmt 0 view .LVU97
 364 0034 0133     		adds	r3, r3, #1
 365 0036 03F03F03 		and	r3, r3, #63
 366 003a 628C     		ldrh	r2, [r4, #34]
 367              	.LVL42:
 554:Drivers/lvgl/src/core/lv_obj_style.c ****     obj->styles = lv_mem_realloc(obj->styles, obj->style_cnt * sizeof(_lv_obj_style_t));
 368              		.loc 1 554 19 view .LVU98
 369 003c 63F30912 		bfi	r2, r3, #4, #6
 370 0040 6284     		strh	r2, [r4, #34]	@ movhi
 555:Drivers/lvgl/src/core/lv_obj_style.c ****     LV_ASSERT_MALLOC(obj->styles);
 371              		.loc 1 555 5 is_stmt 1 view .LVU99
ARM GAS  /var/folders/0z/tsy30v1j4xl4_7kw94k978ww0000gn/T//cc8A9NTU.s 			page 22


 555:Drivers/lvgl/src/core/lv_obj_style.c ****     LV_ASSERT_MALLOC(obj->styles);
 372              		.loc 1 555 19 is_stmt 0 view .LVU100
 373 0042 D900     		lsls	r1, r3, #3
 374 0044 E068     		ldr	r0, [r4, #12]
 375              	.LVL43:
 555:Drivers/lvgl/src/core/lv_obj_style.c ****     LV_ASSERT_MALLOC(obj->styles);
 376              		.loc 1 555 19 view .LVU101
 377 0046 FFF7FEFF 		bl	lv_mem_realloc
 378              	.LVL44:
 555:Drivers/lvgl/src/core/lv_obj_style.c ****     LV_ASSERT_MALLOC(obj->styles);
 379              		.loc 1 555 17 view .LVU102
 380 004a E060     		str	r0, [r4, #12]
 556:Drivers/lvgl/src/core/lv_obj_style.c **** 
 381              		.loc 1 556 5 is_stmt 1 view .LVU103
 556:Drivers/lvgl/src/core/lv_obj_style.c **** 
 382              		.loc 1 556 5 view .LVU104
 383 004c B0B1     		cbz	r0, .L30
 556:Drivers/lvgl/src/core/lv_obj_style.c **** 
 384              		.loc 1 556 5 discriminator 2 view .LVU105
 556:Drivers/lvgl/src/core/lv_obj_style.c **** 
 385              		.loc 1 556 34 discriminator 2 view .LVU106
 558:Drivers/lvgl/src/core/lv_obj_style.c ****         /*Copy only normal styles (not local and transition).
 386              		.loc 1 558 5 discriminator 2 view .LVU107
 558:Drivers/lvgl/src/core/lv_obj_style.c ****         /*Copy only normal styles (not local and transition).
 387              		.loc 1 558 16 is_stmt 0 discriminator 2 view .LVU108
 388 004e 668C     		ldrh	r6, [r4, #34]
 389 0050 C6F30516 		ubfx	r6, r6, #4, #6
 558:Drivers/lvgl/src/core/lv_obj_style.c ****         /*Copy only normal styles (not local and transition).
 390              		.loc 1 558 28 discriminator 2 view .LVU109
 391 0054 013E     		subs	r6, r6, #1
 392              	.LVL45:
 393              	.L31:
 558:Drivers/lvgl/src/core/lv_obj_style.c ****         /*Copy only normal styles (not local and transition).
 394              		.loc 1 558 35 is_stmt 1 discriminator 1 view .LVU110
 395 0056 96B1     		cbz	r6, .L32
 561:Drivers/lvgl/src/core/lv_obj_style.c ****         obj->styles[i] = obj->styles[i - 1];
 396              		.loc 1 561 9 view .LVU111
 561:Drivers/lvgl/src/core/lv_obj_style.c ****         obj->styles[i] = obj->styles[i - 1];
 397              		.loc 1 561 15 is_stmt 0 view .LVU112
 398 0058 E268     		ldr	r2, [r4, #12]
 561:Drivers/lvgl/src/core/lv_obj_style.c ****         obj->styles[i] = obj->styles[i - 1];
 399              		.loc 1 561 23 view .LVU113
 400 005a 06F10053 		add	r3, r6, #536870912
 401 005e 013B     		subs	r3, r3, #1
 402 0060 02EBC303 		add	r3, r2, r3, lsl #3
 561:Drivers/lvgl/src/core/lv_obj_style.c ****         obj->styles[i] = obj->styles[i - 1];
 403              		.loc 1 561 40 view .LVU114
 404 0064 D979     		ldrb	r1, [r3, #7]	@ zero_extendqisi2
 561:Drivers/lvgl/src/core/lv_obj_style.c ****         obj->styles[i] = obj->styles[i - 1];
 405              		.loc 1 561 11 view .LVU115
 406 0066 11F0030F 		tst	r1, #3
 407 006a 08D1     		bne	.L32
 562:Drivers/lvgl/src/core/lv_obj_style.c ****     }
 408              		.loc 1 562 9 is_stmt 1 discriminator 2 view .LVU116
 562:Drivers/lvgl/src/core/lv_obj_style.c ****     }
 409              		.loc 1 562 20 is_stmt 0 discriminator 2 view .LVU117
 410 006c 02EBC602 		add	r2, r2, r6, lsl #3
ARM GAS  /var/folders/0z/tsy30v1j4xl4_7kw94k978ww0000gn/T//cc8A9NTU.s 			page 23


 562:Drivers/lvgl/src/core/lv_obj_style.c ****     }
 411              		.loc 1 562 24 discriminator 2 view .LVU118
 412 0070 93E80300 		ldm	r3, {r0, r1}
 413 0074 82E80300 		stm	r2, {r0, r1}
 558:Drivers/lvgl/src/core/lv_obj_style.c ****         /*Copy only normal styles (not local and transition).
 414              		.loc 1 558 42 is_stmt 1 discriminator 2 view .LVU119
 415 0078 013E     		subs	r6, r6, #1
 416              	.LVL46:
 558:Drivers/lvgl/src/core/lv_obj_style.c ****         /*Copy only normal styles (not local and transition).
 417              		.loc 1 558 42 is_stmt 0 discriminator 2 view .LVU120
 418 007a ECE7     		b	.L31
 419              	.LVL47:
 420              	.L30:
 556:Drivers/lvgl/src/core/lv_obj_style.c **** 
 421              		.loc 1 556 5 is_stmt 1 discriminator 1 view .LVU121
 556:Drivers/lvgl/src/core/lv_obj_style.c **** 
 422              		.loc 1 556 5 discriminator 1 view .LVU122
 556:Drivers/lvgl/src/core/lv_obj_style.c **** 
 423              		.loc 1 556 5 discriminator 1 view .LVU123
 556:Drivers/lvgl/src/core/lv_obj_style.c **** 
 424              		.loc 1 556 5 discriminator 1 view .LVU124
 556:Drivers/lvgl/src/core/lv_obj_style.c **** 
 425              		.loc 1 556 5 discriminator 1 view .LVU125
 426 007c FEE7     		b	.L30
 427              	.LVL48:
 428              	.L32:
 565:Drivers/lvgl/src/core/lv_obj_style.c ****     obj->styles[i].style = lv_mem_alloc(sizeof(lv_style_t));
 429              		.loc 1 565 5 view .LVU126
 565:Drivers/lvgl/src/core/lv_obj_style.c ****     obj->styles[i].style = lv_mem_alloc(sizeof(lv_style_t));
 430              		.loc 1 565 22 is_stmt 0 view .LVU127
 431 007e E068     		ldr	r0, [r4, #12]
 565:Drivers/lvgl/src/core/lv_obj_style.c ****     obj->styles[i].style = lv_mem_alloc(sizeof(lv_style_t));
 432              		.loc 1 565 30 view .LVU128
 433 0080 F700     		lsls	r7, r6, #3
 565:Drivers/lvgl/src/core/lv_obj_style.c ****     obj->styles[i].style = lv_mem_alloc(sizeof(lv_style_t));
 434              		.loc 1 565 5 view .LVU129
 435 0082 0821     		movs	r1, #8
 436 0084 00EBC600 		add	r0, r0, r6, lsl #3
 437 0088 FFF7FEFF 		bl	lv_memset_00
 438              	.LVL49:
 566:Drivers/lvgl/src/core/lv_obj_style.c ****     lv_style_init(obj->styles[i].style);
 439              		.loc 1 566 5 is_stmt 1 view .LVU130
 566:Drivers/lvgl/src/core/lv_obj_style.c ****     lv_style_init(obj->styles[i].style);
 440              		.loc 1 566 8 is_stmt 0 view .LVU131
 441 008c D4F80C80 		ldr	r8, [r4, #12]
 566:Drivers/lvgl/src/core/lv_obj_style.c ****     lv_style_init(obj->styles[i].style);
 442              		.loc 1 566 28 view .LVU132
 443 0090 0820     		movs	r0, #8
 444 0092 FFF7FEFF 		bl	lv_mem_alloc
 445              	.LVL50:
 566:Drivers/lvgl/src/core/lv_obj_style.c ****     lv_style_init(obj->styles[i].style);
 446              		.loc 1 566 26 view .LVU133
 447 0096 48F83600 		str	r0, [r8, r6, lsl #3]
 567:Drivers/lvgl/src/core/lv_obj_style.c ****     obj->styles[i].is_local = 1;
 448              		.loc 1 567 5 is_stmt 1 view .LVU134
 567:Drivers/lvgl/src/core/lv_obj_style.c ****     obj->styles[i].is_local = 1;
 449              		.loc 1 567 22 is_stmt 0 view .LVU135
ARM GAS  /var/folders/0z/tsy30v1j4xl4_7kw94k978ww0000gn/T//cc8A9NTU.s 			page 24


 450 009a E368     		ldr	r3, [r4, #12]
 567:Drivers/lvgl/src/core/lv_obj_style.c ****     obj->styles[i].is_local = 1;
 451              		.loc 1 567 5 view .LVU136
 452 009c 53F83600 		ldr	r0, [r3, r6, lsl #3]
 453 00a0 FFF7FEFF 		bl	lv_style_init
 454              	.LVL51:
 568:Drivers/lvgl/src/core/lv_obj_style.c ****     obj->styles[i].selector = selector;
 455              		.loc 1 568 5 is_stmt 1 view .LVU137
 568:Drivers/lvgl/src/core/lv_obj_style.c ****     obj->styles[i].selector = selector;
 456              		.loc 1 568 8 is_stmt 0 view .LVU138
 457 00a4 E368     		ldr	r3, [r4, #12]
 568:Drivers/lvgl/src/core/lv_obj_style.c ****     obj->styles[i].selector = selector;
 458              		.loc 1 568 16 view .LVU139
 459 00a6 3B44     		add	r3, r3, r7
 568:Drivers/lvgl/src/core/lv_obj_style.c ****     obj->styles[i].selector = selector;
 460              		.loc 1 568 29 view .LVU140
 461 00a8 DA79     		ldrb	r2, [r3, #7]	@ zero_extendqisi2
 462 00aa 42F00102 		orr	r2, r2, #1
 463 00ae DA71     		strb	r2, [r3, #7]
 569:Drivers/lvgl/src/core/lv_obj_style.c ****     return obj->styles[i].style;
 464              		.loc 1 569 5 is_stmt 1 view .LVU141
 569:Drivers/lvgl/src/core/lv_obj_style.c ****     return obj->styles[i].style;
 465              		.loc 1 569 8 is_stmt 0 view .LVU142
 466 00b0 E368     		ldr	r3, [r4, #12]
 569:Drivers/lvgl/src/core/lv_obj_style.c ****     return obj->styles[i].style;
 467              		.loc 1 569 16 view .LVU143
 468 00b2 3B44     		add	r3, r3, r7
 569:Drivers/lvgl/src/core/lv_obj_style.c ****     return obj->styles[i].style;
 469              		.loc 1 569 29 view .LVU144
 470 00b4 5A68     		ldr	r2, [r3, #4]
 471 00b6 65F31702 		bfi	r2, r5, #0, #24
 472              	.LVL52:
 569:Drivers/lvgl/src/core/lv_obj_style.c ****     return obj->styles[i].style;
 473              		.loc 1 569 29 view .LVU145
 474 00ba 5A60     		str	r2, [r3, #4]
 570:Drivers/lvgl/src/core/lv_obj_style.c **** }
 475              		.loc 1 570 5 is_stmt 1 view .LVU146
 570:Drivers/lvgl/src/core/lv_obj_style.c **** }
 476              		.loc 1 570 15 is_stmt 0 view .LVU147
 477 00bc E368     		ldr	r3, [r4, #12]
 570:Drivers/lvgl/src/core/lv_obj_style.c **** }
 478              		.loc 1 570 26 view .LVU148
 479 00be 53F83600 		ldr	r0, [r3, r6, lsl #3]
 480              	.LVL53:
 481              	.L24:
 571:Drivers/lvgl/src/core/lv_obj_style.c **** 
 482              		.loc 1 571 1 view .LVU149
 483 00c2 BDE8F081 		pop	{r4, r5, r6, r7, r8, pc}
 571:Drivers/lvgl/src/core/lv_obj_style.c **** 
 484              		.loc 1 571 1 view .LVU150
 485              		.cfi_endproc
 486              	.LFE187:
 488              		.section	.text.get_trans_style,"ax",%progbits
 489              		.align	1
 490              		.syntax unified
 491              		.thumb
 492              		.thumb_func
ARM GAS  /var/folders/0z/tsy30v1j4xl4_7kw94k978ww0000gn/T//cc8A9NTU.s 			page 25


 494              	get_trans_style:
 495              	.LVL54:
 496              	.LFB188:
 581:Drivers/lvgl/src/core/lv_obj_style.c ****     uint32_t i;
 497              		.loc 1 581 1 is_stmt 1 view -0
 498              		.cfi_startproc
 499              		@ args = 0, pretend = 0, frame = 0
 500              		@ frame_needed = 0, uses_anonymous_args = 0
 581:Drivers/lvgl/src/core/lv_obj_style.c ****     uint32_t i;
 501              		.loc 1 581 1 is_stmt 0 view .LVU152
 502 0000 70B5     		push	{r4, r5, r6, lr}
 503              		.cfi_def_cfa_offset 16
 504              		.cfi_offset 4, -16
 505              		.cfi_offset 5, -12
 506              		.cfi_offset 6, -8
 507              		.cfi_offset 14, -4
 508 0002 0446     		mov	r4, r0
 509 0004 0D46     		mov	r5, r1
 582:Drivers/lvgl/src/core/lv_obj_style.c ****     for(i = 0; i < obj->style_cnt; i++) {
 510              		.loc 1 582 5 is_stmt 1 view .LVU153
 583:Drivers/lvgl/src/core/lv_obj_style.c ****         if(obj->styles[i].is_trans && obj->styles[i].selector == selector) break;
 511              		.loc 1 583 5 view .LVU154
 512              	.LVL55:
 583:Drivers/lvgl/src/core/lv_obj_style.c ****         if(obj->styles[i].is_trans && obj->styles[i].selector == selector) break;
 513              		.loc 1 583 11 is_stmt 0 view .LVU155
 514 0006 0021     		movs	r1, #0
 515              	.LVL56:
 583:Drivers/lvgl/src/core/lv_obj_style.c ****         if(obj->styles[i].is_trans && obj->styles[i].selector == selector) break;
 516              		.loc 1 583 5 view .LVU156
 517 0008 00E0     		b	.L37
 518              	.LVL57:
 519              	.L38:
 583:Drivers/lvgl/src/core/lv_obj_style.c ****         if(obj->styles[i].is_trans && obj->styles[i].selector == selector) break;
 520              		.loc 1 583 37 is_stmt 1 discriminator 2 view .LVU157
 521 000a 0131     		adds	r1, r1, #1
 522              	.LVL58:
 523              	.L37:
 583:Drivers/lvgl/src/core/lv_obj_style.c ****         if(obj->styles[i].is_trans && obj->styles[i].selector == selector) break;
 524              		.loc 1 583 18 discriminator 1 view .LVU158
 583:Drivers/lvgl/src/core/lv_obj_style.c ****         if(obj->styles[i].is_trans && obj->styles[i].selector == selector) break;
 525              		.loc 1 583 23 is_stmt 0 discriminator 1 view .LVU159
 526 000c 628C     		ldrh	r2, [r4, #34]
 527 000e C2F30512 		ubfx	r2, r2, #4, #6
 583:Drivers/lvgl/src/core/lv_obj_style.c ****         if(obj->styles[i].is_trans && obj->styles[i].selector == selector) break;
 528              		.loc 1 583 18 discriminator 1 view .LVU160
 529 0012 8A42     		cmp	r2, r1
 530 0014 0BD9     		bls	.L39
 584:Drivers/lvgl/src/core/lv_obj_style.c ****     }
 531              		.loc 1 584 9 is_stmt 1 view .LVU161
 584:Drivers/lvgl/src/core/lv_obj_style.c ****     }
 532              		.loc 1 584 15 is_stmt 0 view .LVU162
 533 0016 E368     		ldr	r3, [r4, #12]
 584:Drivers/lvgl/src/core/lv_obj_style.c ****     }
 534              		.loc 1 584 23 view .LVU163
 535 0018 03EBC103 		add	r3, r3, r1, lsl #3
 584:Drivers/lvgl/src/core/lv_obj_style.c ****     }
 536              		.loc 1 584 12 view .LVU164
ARM GAS  /var/folders/0z/tsy30v1j4xl4_7kw94k978ww0000gn/T//cc8A9NTU.s 			page 26


 537 001c D879     		ldrb	r0, [r3, #7]	@ zero_extendqisi2
 584:Drivers/lvgl/src/core/lv_obj_style.c ****     }
 538              		.loc 1 584 11 view .LVU165
 539 001e 10F0020F 		tst	r0, #2
 540 0022 F2D0     		beq	.L38
 584:Drivers/lvgl/src/core/lv_obj_style.c ****     }
 541              		.loc 1 584 53 discriminator 1 view .LVU166
 542 0024 5B68     		ldr	r3, [r3, #4]
 543 0026 C3F31703 		ubfx	r3, r3, #0, #24
 584:Drivers/lvgl/src/core/lv_obj_style.c ****     }
 544              		.loc 1 584 36 discriminator 1 view .LVU167
 545 002a AB42     		cmp	r3, r5
 546 002c EDD1     		bne	.L38
 547              	.L39:
 588:Drivers/lvgl/src/core/lv_obj_style.c **** 
 548              		.loc 1 588 5 is_stmt 1 view .LVU168
 588:Drivers/lvgl/src/core/lv_obj_style.c **** 
 549              		.loc 1 588 7 is_stmt 0 view .LVU169
 550 002e 8A42     		cmp	r2, r1
 551 0030 03D0     		beq	.L41
 588:Drivers/lvgl/src/core/lv_obj_style.c **** 
 552              		.loc 1 588 29 is_stmt 1 discriminator 1 view .LVU170
 588:Drivers/lvgl/src/core/lv_obj_style.c **** 
 553              		.loc 1 588 40 is_stmt 0 discriminator 1 view .LVU171
 554 0032 E068     		ldr	r0, [r4, #12]
 588:Drivers/lvgl/src/core/lv_obj_style.c **** 
 555              		.loc 1 588 36 discriminator 1 view .LVU172
 556 0034 00EBC100 		add	r0, r0, r1, lsl #3
 557              	.LVL59:
 558              	.L36:
 603:Drivers/lvgl/src/core/lv_obj_style.c **** 
 559              		.loc 1 603 1 view .LVU173
 560 0038 70BD     		pop	{r4, r5, r6, pc}
 561              	.LVL60:
 562              	.L41:
 590:Drivers/lvgl/src/core/lv_obj_style.c ****     obj->styles = lv_mem_realloc(obj->styles, obj->style_cnt * sizeof(_lv_obj_style_t));
 563              		.loc 1 590 5 is_stmt 1 view .LVU174
 590:Drivers/lvgl/src/core/lv_obj_style.c ****     obj->styles = lv_mem_realloc(obj->styles, obj->style_cnt * sizeof(_lv_obj_style_t));
 564              		.loc 1 590 19 is_stmt 0 view .LVU175
 565 003a 0132     		adds	r2, r2, #1
 566 003c 02F03F02 		and	r2, r2, #63
 567 0040 638C     		ldrh	r3, [r4, #34]
 568 0042 62F30913 		bfi	r3, r2, #4, #6
 569 0046 6384     		strh	r3, [r4, #34]	@ movhi
 591:Drivers/lvgl/src/core/lv_obj_style.c **** 
 570              		.loc 1 591 5 is_stmt 1 view .LVU176
 591:Drivers/lvgl/src/core/lv_obj_style.c **** 
 571              		.loc 1 591 19 is_stmt 0 view .LVU177
 572 0048 D100     		lsls	r1, r2, #3
 573              	.LVL61:
 591:Drivers/lvgl/src/core/lv_obj_style.c **** 
 574              		.loc 1 591 19 view .LVU178
 575 004a E068     		ldr	r0, [r4, #12]
 576 004c FFF7FEFF 		bl	lv_mem_realloc
 577              	.LVL62:
 591:Drivers/lvgl/src/core/lv_obj_style.c **** 
 578              		.loc 1 591 17 view .LVU179
ARM GAS  /var/folders/0z/tsy30v1j4xl4_7kw94k978ww0000gn/T//cc8A9NTU.s 			page 27


 579 0050 E060     		str	r0, [r4, #12]
 593:Drivers/lvgl/src/core/lv_obj_style.c ****         obj->styles[i] = obj->styles[i - 1];
 580              		.loc 1 593 5 is_stmt 1 view .LVU180
 593:Drivers/lvgl/src/core/lv_obj_style.c ****         obj->styles[i] = obj->styles[i - 1];
 581              		.loc 1 593 16 is_stmt 0 view .LVU181
 582 0052 668C     		ldrh	r6, [r4, #34]
 583 0054 C6F30516 		ubfx	r6, r6, #4, #6
 593:Drivers/lvgl/src/core/lv_obj_style.c ****         obj->styles[i] = obj->styles[i - 1];
 584              		.loc 1 593 28 view .LVU182
 585 0058 013E     		subs	r6, r6, #1
 586              	.LVL63:
 593:Drivers/lvgl/src/core/lv_obj_style.c ****         obj->styles[i] = obj->styles[i - 1];
 587              		.loc 1 593 5 view .LVU183
 588 005a 0CE0     		b	.L43
 589              	.L44:
 594:Drivers/lvgl/src/core/lv_obj_style.c ****     }
 590              		.loc 1 594 9 is_stmt 1 discriminator 3 view .LVU184
 594:Drivers/lvgl/src/core/lv_obj_style.c ****     }
 591              		.loc 1 594 29 is_stmt 0 discriminator 3 view .LVU185
 592 005c E268     		ldr	r2, [r4, #12]
 594:Drivers/lvgl/src/core/lv_obj_style.c ****     }
 593              		.loc 1 594 37 discriminator 3 view .LVU186
 594 005e 06F10053 		add	r3, r6, #536870912
 595 0062 013B     		subs	r3, r3, #1
 596 0064 02EBC303 		add	r3, r2, r3, lsl #3
 594:Drivers/lvgl/src/core/lv_obj_style.c ****     }
 597              		.loc 1 594 20 discriminator 3 view .LVU187
 598 0068 02EBC602 		add	r2, r2, r6, lsl #3
 594:Drivers/lvgl/src/core/lv_obj_style.c ****     }
 599              		.loc 1 594 24 discriminator 3 view .LVU188
 600 006c 93E80300 		ldm	r3, {r0, r1}
 601 0070 82E80300 		stm	r2, {r0, r1}
 593:Drivers/lvgl/src/core/lv_obj_style.c ****         obj->styles[i] = obj->styles[i - 1];
 602              		.loc 1 593 42 is_stmt 1 discriminator 3 view .LVU189
 603 0074 013E     		subs	r6, r6, #1
 604              	.LVL64:
 605              	.L43:
 593:Drivers/lvgl/src/core/lv_obj_style.c ****         obj->styles[i] = obj->styles[i - 1];
 606              		.loc 1 593 35 discriminator 1 view .LVU190
 607 0076 002E     		cmp	r6, #0
 608 0078 F0D1     		bne	.L44
 597:Drivers/lvgl/src/core/lv_obj_style.c ****     obj->styles[0].style = lv_mem_alloc(sizeof(lv_style_t));
 609              		.loc 1 597 5 view .LVU191
 610 007a 0821     		movs	r1, #8
 611 007c E068     		ldr	r0, [r4, #12]
 612 007e FFF7FEFF 		bl	lv_memset_00
 613              	.LVL65:
 598:Drivers/lvgl/src/core/lv_obj_style.c ****     lv_style_init(obj->styles[0].style);
 614              		.loc 1 598 5 view .LVU192
 598:Drivers/lvgl/src/core/lv_obj_style.c ****     lv_style_init(obj->styles[0].style);
 615              		.loc 1 598 8 is_stmt 0 view .LVU193
 616 0082 E668     		ldr	r6, [r4, #12]
 617              	.LVL66:
 598:Drivers/lvgl/src/core/lv_obj_style.c ****     lv_style_init(obj->styles[0].style);
 618              		.loc 1 598 28 view .LVU194
 619 0084 0820     		movs	r0, #8
 620 0086 FFF7FEFF 		bl	lv_mem_alloc
ARM GAS  /var/folders/0z/tsy30v1j4xl4_7kw94k978ww0000gn/T//cc8A9NTU.s 			page 28


 621              	.LVL67:
 598:Drivers/lvgl/src/core/lv_obj_style.c ****     lv_style_init(obj->styles[0].style);
 622              		.loc 1 598 26 view .LVU195
 623 008a 3060     		str	r0, [r6]
 599:Drivers/lvgl/src/core/lv_obj_style.c ****     obj->styles[0].is_trans = 1;
 624              		.loc 1 599 5 is_stmt 1 view .LVU196
 599:Drivers/lvgl/src/core/lv_obj_style.c ****     obj->styles[0].is_trans = 1;
 625              		.loc 1 599 22 is_stmt 0 view .LVU197
 626 008c E368     		ldr	r3, [r4, #12]
 599:Drivers/lvgl/src/core/lv_obj_style.c ****     obj->styles[0].is_trans = 1;
 627              		.loc 1 599 5 view .LVU198
 628 008e 1868     		ldr	r0, [r3]
 629 0090 FFF7FEFF 		bl	lv_style_init
 630              	.LVL68:
 600:Drivers/lvgl/src/core/lv_obj_style.c ****     obj->styles[0].selector = selector;
 631              		.loc 1 600 5 is_stmt 1 view .LVU199
 600:Drivers/lvgl/src/core/lv_obj_style.c ****     obj->styles[0].selector = selector;
 632              		.loc 1 600 8 is_stmt 0 view .LVU200
 633 0094 E268     		ldr	r2, [r4, #12]
 600:Drivers/lvgl/src/core/lv_obj_style.c ****     obj->styles[0].selector = selector;
 634              		.loc 1 600 29 view .LVU201
 635 0096 D379     		ldrb	r3, [r2, #7]	@ zero_extendqisi2
 636 0098 43F00203 		orr	r3, r3, #2
 637 009c D371     		strb	r3, [r2, #7]
 601:Drivers/lvgl/src/core/lv_obj_style.c ****     return &obj->styles[0];
 638              		.loc 1 601 5 is_stmt 1 view .LVU202
 601:Drivers/lvgl/src/core/lv_obj_style.c ****     return &obj->styles[0];
 639              		.loc 1 601 8 is_stmt 0 view .LVU203
 640 009e E368     		ldr	r3, [r4, #12]
 601:Drivers/lvgl/src/core/lv_obj_style.c ****     return &obj->styles[0];
 641              		.loc 1 601 29 view .LVU204
 642 00a0 5A68     		ldr	r2, [r3, #4]
 643 00a2 65F31702 		bfi	r2, r5, #0, #24
 644              	.LVL69:
 601:Drivers/lvgl/src/core/lv_obj_style.c ****     return &obj->styles[0];
 645              		.loc 1 601 29 view .LVU205
 646 00a6 5A60     		str	r2, [r3, #4]
 602:Drivers/lvgl/src/core/lv_obj_style.c **** }
 647              		.loc 1 602 5 is_stmt 1 view .LVU206
 602:Drivers/lvgl/src/core/lv_obj_style.c **** }
 648              		.loc 1 602 12 is_stmt 0 view .LVU207
 649 00a8 E068     		ldr	r0, [r4, #12]
 650 00aa C5E7     		b	.L36
 651              		.cfi_endproc
 652              	.LFE188:
 654              		.section	.text.fade_anim_cb,"ax",%progbits
 655              		.align	1
 656              		.syntax unified
 657              		.thumb
 658              		.thumb_func
 660              	fade_anim_cb:
 661              	.LVL70:
 662              	.LFB197:
 755:Drivers/lvgl/src/core/lv_obj_style.c **** 
 756:Drivers/lvgl/src/core/lv_obj_style.c **** static void trans_anim_cb(void * _tr, int32_t v)
 757:Drivers/lvgl/src/core/lv_obj_style.c **** {
 758:Drivers/lvgl/src/core/lv_obj_style.c ****     trans_t * tr = _tr;
ARM GAS  /var/folders/0z/tsy30v1j4xl4_7kw94k978ww0000gn/T//cc8A9NTU.s 			page 29


 759:Drivers/lvgl/src/core/lv_obj_style.c ****     lv_obj_t * obj = tr->obj;
 760:Drivers/lvgl/src/core/lv_obj_style.c **** 
 761:Drivers/lvgl/src/core/lv_obj_style.c ****     uint32_t i;
 762:Drivers/lvgl/src/core/lv_obj_style.c ****     for(i = 0; i < obj->style_cnt; i++) {
 763:Drivers/lvgl/src/core/lv_obj_style.c ****         if(obj->styles[i].is_trans == 0 || obj->styles[i].selector != tr->selector) continue;
 764:Drivers/lvgl/src/core/lv_obj_style.c **** 
 765:Drivers/lvgl/src/core/lv_obj_style.c ****         lv_style_value_t value_final;
 766:Drivers/lvgl/src/core/lv_obj_style.c ****         switch(tr->prop) {
 767:Drivers/lvgl/src/core/lv_obj_style.c **** 
 768:Drivers/lvgl/src/core/lv_obj_style.c ****             case LV_STYLE_BORDER_SIDE:
 769:Drivers/lvgl/src/core/lv_obj_style.c ****             case LV_STYLE_BORDER_POST:
 770:Drivers/lvgl/src/core/lv_obj_style.c ****             case LV_STYLE_BLEND_MODE:
 771:Drivers/lvgl/src/core/lv_obj_style.c ****                 if(v < 255) value_final.num = tr->start_value.num;
 772:Drivers/lvgl/src/core/lv_obj_style.c ****                 else value_final.num = tr->end_value.num;
 773:Drivers/lvgl/src/core/lv_obj_style.c ****                 break;
 774:Drivers/lvgl/src/core/lv_obj_style.c ****             case LV_STYLE_TRANSITION:
 775:Drivers/lvgl/src/core/lv_obj_style.c ****             case LV_STYLE_TEXT_FONT:
 776:Drivers/lvgl/src/core/lv_obj_style.c ****                 if(v < 255) value_final.ptr = tr->start_value.ptr;
 777:Drivers/lvgl/src/core/lv_obj_style.c ****                 else value_final.ptr = tr->end_value.ptr;
 778:Drivers/lvgl/src/core/lv_obj_style.c ****                 break;
 779:Drivers/lvgl/src/core/lv_obj_style.c ****             case LV_STYLE_COLOR_FILTER_DSC:
 780:Drivers/lvgl/src/core/lv_obj_style.c ****                 if(tr->start_value.ptr == NULL) value_final.ptr = tr->end_value.ptr;
 781:Drivers/lvgl/src/core/lv_obj_style.c ****                 else if(tr->end_value.ptr == NULL) value_final.ptr = tr->start_value.ptr;
 782:Drivers/lvgl/src/core/lv_obj_style.c ****                 else if(v < 128) value_final.ptr = tr->start_value.ptr;
 783:Drivers/lvgl/src/core/lv_obj_style.c ****                 else value_final.ptr = tr->end_value.ptr;
 784:Drivers/lvgl/src/core/lv_obj_style.c ****                 break;
 785:Drivers/lvgl/src/core/lv_obj_style.c ****             case LV_STYLE_BG_COLOR:
 786:Drivers/lvgl/src/core/lv_obj_style.c ****             case LV_STYLE_BG_GRAD_COLOR:
 787:Drivers/lvgl/src/core/lv_obj_style.c ****             case LV_STYLE_BORDER_COLOR:
 788:Drivers/lvgl/src/core/lv_obj_style.c ****             case LV_STYLE_TEXT_COLOR:
 789:Drivers/lvgl/src/core/lv_obj_style.c ****             case LV_STYLE_SHADOW_COLOR:
 790:Drivers/lvgl/src/core/lv_obj_style.c ****             case LV_STYLE_OUTLINE_COLOR:
 791:Drivers/lvgl/src/core/lv_obj_style.c ****             case LV_STYLE_IMG_RECOLOR:
 792:Drivers/lvgl/src/core/lv_obj_style.c ****                 if(v <= 0) value_final.color = tr->start_value.color;
 793:Drivers/lvgl/src/core/lv_obj_style.c ****                 else if(v >= 255) value_final.color = tr->end_value.color;
 794:Drivers/lvgl/src/core/lv_obj_style.c ****                 else value_final.color = lv_color_mix(tr->end_value.color, tr->start_value.color, v
 795:Drivers/lvgl/src/core/lv_obj_style.c ****                 break;
 796:Drivers/lvgl/src/core/lv_obj_style.c **** 
 797:Drivers/lvgl/src/core/lv_obj_style.c ****             default:
 798:Drivers/lvgl/src/core/lv_obj_style.c ****                 if(v == 0) value_final.num = tr->start_value.num;
 799:Drivers/lvgl/src/core/lv_obj_style.c ****                 else if(v == 255) value_final.num = tr->end_value.num;
 800:Drivers/lvgl/src/core/lv_obj_style.c ****                 else value_final.num = tr->start_value.num + ((int32_t)((int32_t)(tr->end_value.num
 801:Drivers/lvgl/src/core/lv_obj_style.c ****                 break;
 802:Drivers/lvgl/src/core/lv_obj_style.c ****         }
 803:Drivers/lvgl/src/core/lv_obj_style.c **** 
 804:Drivers/lvgl/src/core/lv_obj_style.c ****         lv_style_value_t old_value;
 805:Drivers/lvgl/src/core/lv_obj_style.c ****         bool refr = true;
 806:Drivers/lvgl/src/core/lv_obj_style.c ****         if(lv_style_get_prop(obj->styles[i].style, tr->prop, &old_value)) {
 807:Drivers/lvgl/src/core/lv_obj_style.c ****             if(value_final.ptr == old_value.ptr && value_final.color.full == old_value.color.full &
 808:Drivers/lvgl/src/core/lv_obj_style.c ****                value_final.num == old_value.num) {
 809:Drivers/lvgl/src/core/lv_obj_style.c ****                 refr = false;
 810:Drivers/lvgl/src/core/lv_obj_style.c ****             }
 811:Drivers/lvgl/src/core/lv_obj_style.c ****         }
 812:Drivers/lvgl/src/core/lv_obj_style.c ****         lv_style_set_prop(obj->styles[i].style, tr->prop, value_final);
 813:Drivers/lvgl/src/core/lv_obj_style.c ****         if(refr) lv_obj_refresh_style(tr->obj, tr->selector, tr->prop);
 814:Drivers/lvgl/src/core/lv_obj_style.c ****         break;
 815:Drivers/lvgl/src/core/lv_obj_style.c **** 
ARM GAS  /var/folders/0z/tsy30v1j4xl4_7kw94k978ww0000gn/T//cc8A9NTU.s 			page 30


 816:Drivers/lvgl/src/core/lv_obj_style.c ****     }
 817:Drivers/lvgl/src/core/lv_obj_style.c **** 
 818:Drivers/lvgl/src/core/lv_obj_style.c **** }
 819:Drivers/lvgl/src/core/lv_obj_style.c **** 
 820:Drivers/lvgl/src/core/lv_obj_style.c **** static void trans_anim_start_cb(lv_anim_t * a)
 821:Drivers/lvgl/src/core/lv_obj_style.c **** {
 822:Drivers/lvgl/src/core/lv_obj_style.c ****     trans_t * tr = a->var;
 823:Drivers/lvgl/src/core/lv_obj_style.c **** 
 824:Drivers/lvgl/src/core/lv_obj_style.c ****     lv_part_t part = lv_obj_style_get_selector_part(tr->selector);
 825:Drivers/lvgl/src/core/lv_obj_style.c ****     tr->start_value = lv_obj_get_style_prop(tr->obj, part, tr->prop);
 826:Drivers/lvgl/src/core/lv_obj_style.c **** 
 827:Drivers/lvgl/src/core/lv_obj_style.c ****     /*Init prop to an invalid values to be sure `trans_del` won't delete this added `tr`*/
 828:Drivers/lvgl/src/core/lv_obj_style.c ****     lv_style_prop_t prop_tmp = tr->prop;
 829:Drivers/lvgl/src/core/lv_obj_style.c ****     tr->prop = LV_STYLE_PROP_INV;
 830:Drivers/lvgl/src/core/lv_obj_style.c **** 
 831:Drivers/lvgl/src/core/lv_obj_style.c ****     /*Delete the related transitions if any*/
 832:Drivers/lvgl/src/core/lv_obj_style.c ****     trans_del(tr->obj, part, prop_tmp, tr);
 833:Drivers/lvgl/src/core/lv_obj_style.c **** 
 834:Drivers/lvgl/src/core/lv_obj_style.c ****     tr->prop = prop_tmp;
 835:Drivers/lvgl/src/core/lv_obj_style.c **** 
 836:Drivers/lvgl/src/core/lv_obj_style.c ****     _lv_obj_style_t * style_trans = get_trans_style(tr->obj, tr->selector);
 837:Drivers/lvgl/src/core/lv_obj_style.c ****     lv_style_set_prop(style_trans->style, tr->prop, tr->start_value);   /*Be sure `trans_style` has
 838:Drivers/lvgl/src/core/lv_obj_style.c **** 
 839:Drivers/lvgl/src/core/lv_obj_style.c **** }
 840:Drivers/lvgl/src/core/lv_obj_style.c **** 
 841:Drivers/lvgl/src/core/lv_obj_style.c **** static void trans_anim_ready_cb(lv_anim_t * a)
 842:Drivers/lvgl/src/core/lv_obj_style.c **** {
 843:Drivers/lvgl/src/core/lv_obj_style.c ****     trans_t * tr = a->var;
 844:Drivers/lvgl/src/core/lv_obj_style.c ****     lv_obj_t * obj = tr->obj;
 845:Drivers/lvgl/src/core/lv_obj_style.c ****     lv_style_prop_t prop = tr->prop;
 846:Drivers/lvgl/src/core/lv_obj_style.c **** 
 847:Drivers/lvgl/src/core/lv_obj_style.c ****     /*Remove the transitioned property from trans. style
 848:Drivers/lvgl/src/core/lv_obj_style.c ****      *if there no more transitions for this property
 849:Drivers/lvgl/src/core/lv_obj_style.c ****      *It allows changing it by normal styles*/
 850:Drivers/lvgl/src/core/lv_obj_style.c ****     bool running = false;
 851:Drivers/lvgl/src/core/lv_obj_style.c ****     trans_t * tr_i;
 852:Drivers/lvgl/src/core/lv_obj_style.c ****     _LV_LL_READ(&LV_GC_ROOT(_lv_obj_style_trans_ll), tr_i) {
 853:Drivers/lvgl/src/core/lv_obj_style.c ****         if(tr_i != tr && tr_i->obj == tr->obj && tr_i->selector == tr->selector && tr_i->prop == tr
 854:Drivers/lvgl/src/core/lv_obj_style.c ****             running = true;
 855:Drivers/lvgl/src/core/lv_obj_style.c ****             break;
 856:Drivers/lvgl/src/core/lv_obj_style.c ****         }
 857:Drivers/lvgl/src/core/lv_obj_style.c ****     }
 858:Drivers/lvgl/src/core/lv_obj_style.c **** 
 859:Drivers/lvgl/src/core/lv_obj_style.c ****     if(!running) {
 860:Drivers/lvgl/src/core/lv_obj_style.c ****         uint32_t i;
 861:Drivers/lvgl/src/core/lv_obj_style.c ****         for(i = 0; i < obj->style_cnt; i++) {
 862:Drivers/lvgl/src/core/lv_obj_style.c ****             if(obj->styles[i].is_trans && obj->styles[i].selector == tr->selector) {
 863:Drivers/lvgl/src/core/lv_obj_style.c ****                 _lv_ll_remove(&LV_GC_ROOT(_lv_obj_style_trans_ll), tr);
 864:Drivers/lvgl/src/core/lv_obj_style.c ****                 lv_mem_free(tr);
 865:Drivers/lvgl/src/core/lv_obj_style.c **** 
 866:Drivers/lvgl/src/core/lv_obj_style.c ****                 _lv_obj_style_t * obj_style = &obj->styles[i];
 867:Drivers/lvgl/src/core/lv_obj_style.c ****                 lv_style_remove_prop(obj_style->style, prop);
 868:Drivers/lvgl/src/core/lv_obj_style.c **** 
 869:Drivers/lvgl/src/core/lv_obj_style.c ****                 if(lv_style_is_empty(obj->styles[i].style)) {
 870:Drivers/lvgl/src/core/lv_obj_style.c ****                     lv_obj_remove_style(obj, obj_style->style, obj_style->selector);
 871:Drivers/lvgl/src/core/lv_obj_style.c **** 
 872:Drivers/lvgl/src/core/lv_obj_style.c ****                 }
ARM GAS  /var/folders/0z/tsy30v1j4xl4_7kw94k978ww0000gn/T//cc8A9NTU.s 			page 31


 873:Drivers/lvgl/src/core/lv_obj_style.c ****                 break;
 874:Drivers/lvgl/src/core/lv_obj_style.c ****             }
 875:Drivers/lvgl/src/core/lv_obj_style.c ****         }
 876:Drivers/lvgl/src/core/lv_obj_style.c ****     }
 877:Drivers/lvgl/src/core/lv_obj_style.c **** }
 878:Drivers/lvgl/src/core/lv_obj_style.c **** 
 879:Drivers/lvgl/src/core/lv_obj_style.c **** static lv_layer_type_t calculate_layer_type(lv_obj_t * obj)
 880:Drivers/lvgl/src/core/lv_obj_style.c **** {
 881:Drivers/lvgl/src/core/lv_obj_style.c ****     if(lv_obj_get_style_transform_angle(obj, 0) != 0) return LV_LAYER_TYPE_TRANSFORM;
 882:Drivers/lvgl/src/core/lv_obj_style.c ****     if(lv_obj_get_style_transform_zoom(obj, 0) != 256) return LV_LAYER_TYPE_TRANSFORM;
 883:Drivers/lvgl/src/core/lv_obj_style.c ****     if(lv_obj_get_style_opa_layered(obj, 0) != LV_OPA_COVER) return LV_LAYER_TYPE_SIMPLE;
 884:Drivers/lvgl/src/core/lv_obj_style.c **** #if LV_DRAW_COMPLEX
 885:Drivers/lvgl/src/core/lv_obj_style.c ****     if(lv_obj_get_style_blend_mode(obj, 0) != LV_BLEND_MODE_NORMAL) return LV_LAYER_TYPE_SIMPLE;
 886:Drivers/lvgl/src/core/lv_obj_style.c **** #endif
 887:Drivers/lvgl/src/core/lv_obj_style.c ****     return LV_LAYER_TYPE_NONE;
 888:Drivers/lvgl/src/core/lv_obj_style.c **** }
 889:Drivers/lvgl/src/core/lv_obj_style.c **** 
 890:Drivers/lvgl/src/core/lv_obj_style.c **** static void fade_anim_cb(void * obj, int32_t v)
 891:Drivers/lvgl/src/core/lv_obj_style.c **** {
 663              		.loc 1 891 1 is_stmt 1 view -0
 664              		.cfi_startproc
 665              		@ args = 0, pretend = 0, frame = 0
 666              		@ frame_needed = 0, uses_anonymous_args = 0
 667              		.loc 1 891 1 is_stmt 0 view .LVU209
 668 0000 08B5     		push	{r3, lr}
 669              		.cfi_def_cfa_offset 8
 670              		.cfi_offset 3, -8
 671              		.cfi_offset 14, -4
 892:Drivers/lvgl/src/core/lv_obj_style.c ****     lv_obj_set_style_opa(obj, v, 0);
 672              		.loc 1 892 5 is_stmt 1 view .LVU210
 673 0002 0022     		movs	r2, #0
 674 0004 C9B2     		uxtb	r1, r1
 675              	.LVL71:
 676              		.loc 1 892 5 is_stmt 0 view .LVU211
 677 0006 FFF7FEFF 		bl	lv_obj_set_style_opa
 678              	.LVL72:
 893:Drivers/lvgl/src/core/lv_obj_style.c **** }
 679              		.loc 1 893 1 view .LVU212
 680 000a 08BD     		pop	{r3, pc}
 681              		.cfi_endproc
 682              	.LFE197:
 684              		.section	.text._lv_obj_style_init,"ax",%progbits
 685              		.align	1
 686              		.global	_lv_obj_style_init
 687              		.syntax unified
 688              		.thumb
 689              		.thumb_func
 691              	_lv_obj_style_init:
 692              	.LFB167:
  72:Drivers/lvgl/src/core/lv_obj_style.c ****     _lv_ll_init(&LV_GC_ROOT(_lv_obj_style_trans_ll), sizeof(trans_t));
 693              		.loc 1 72 1 is_stmt 1 view -0
 694              		.cfi_startproc
 695              		@ args = 0, pretend = 0, frame = 0
 696              		@ frame_needed = 0, uses_anonymous_args = 0
 697 0000 08B5     		push	{r3, lr}
 698              		.cfi_def_cfa_offset 8
 699              		.cfi_offset 3, -8
ARM GAS  /var/folders/0z/tsy30v1j4xl4_7kw94k978ww0000gn/T//cc8A9NTU.s 			page 32


 700              		.cfi_offset 14, -4
  73:Drivers/lvgl/src/core/lv_obj_style.c **** }
 701              		.loc 1 73 5 view .LVU214
 702 0002 1421     		movs	r1, #20
 703 0004 0148     		ldr	r0, .L50
 704 0006 FFF7FEFF 		bl	_lv_ll_init
 705              	.LVL73:
  74:Drivers/lvgl/src/core/lv_obj_style.c **** 
 706              		.loc 1 74 1 is_stmt 0 view .LVU215
 707 000a 08BD     		pop	{r3, pc}
 708              	.L51:
 709              		.align	2
 710              	.L50:
 711 000c 00000000 		.word	_lv_obj_style_trans_ll
 712              		.cfi_endproc
 713              	.LFE167:
 715              		.section	.text.lv_obj_enable_style_refresh,"ax",%progbits
 716              		.align	1
 717              		.global	lv_obj_enable_style_refresh
 718              		.syntax unified
 719              		.thumb
 720              		.thumb_func
 722              	lv_obj_enable_style_refresh:
 723              	.LVL74:
 724              	.LFB172:
 219:Drivers/lvgl/src/core/lv_obj_style.c ****     style_refr = en;
 725              		.loc 1 219 1 is_stmt 1 view -0
 726              		.cfi_startproc
 727              		@ args = 0, pretend = 0, frame = 0
 728              		@ frame_needed = 0, uses_anonymous_args = 0
 729              		@ link register save eliminated.
 220:Drivers/lvgl/src/core/lv_obj_style.c **** }
 730              		.loc 1 220 5 view .LVU217
 220:Drivers/lvgl/src/core/lv_obj_style.c **** }
 731              		.loc 1 220 16 is_stmt 0 view .LVU218
 732 0000 014B     		ldr	r3, .L53
 733 0002 1870     		strb	r0, [r3]
 221:Drivers/lvgl/src/core/lv_obj_style.c **** 
 734              		.loc 1 221 1 view .LVU219
 735 0004 7047     		bx	lr
 736              	.L54:
 737 0006 00BF     		.align	2
 738              	.L53:
 739 0008 00000000 		.word	.LANCHOR0
 740              		.cfi_endproc
 741              	.LFE172:
 743              		.section	.text.lv_obj_get_local_style_prop,"ax",%progbits
 744              		.align	1
 745              		.global	lv_obj_get_local_style_prop
 746              		.syntax unified
 747              		.thumb
 748              		.thumb_func
 750              	lv_obj_get_local_style_prop:
 751              	.LVL75:
 752              	.LFB176:
 289:Drivers/lvgl/src/core/lv_obj_style.c ****     uint32_t i;
 753              		.loc 1 289 1 is_stmt 1 view -0
ARM GAS  /var/folders/0z/tsy30v1j4xl4_7kw94k978ww0000gn/T//cc8A9NTU.s 			page 33


 754              		.cfi_startproc
 755              		@ args = 0, pretend = 0, frame = 0
 756              		@ frame_needed = 0, uses_anonymous_args = 0
 289:Drivers/lvgl/src/core/lv_obj_style.c ****     uint32_t i;
 757              		.loc 1 289 1 is_stmt 0 view .LVU221
 758 0000 10B5     		push	{r4, lr}
 759              		.cfi_def_cfa_offset 8
 760              		.cfi_offset 4, -8
 761              		.cfi_offset 14, -4
 290:Drivers/lvgl/src/core/lv_obj_style.c ****     for(i = 0; i < obj->style_cnt; i++) {
 762              		.loc 1 290 5 is_stmt 1 view .LVU222
 291:Drivers/lvgl/src/core/lv_obj_style.c ****         if(obj->styles[i].is_local &&
 763              		.loc 1 291 5 view .LVU223
 764              	.LVL76:
 291:Drivers/lvgl/src/core/lv_obj_style.c ****         if(obj->styles[i].is_local &&
 765              		.loc 1 291 11 is_stmt 0 view .LVU224
 766 0002 4FF0000E 		mov	lr, #0
 291:Drivers/lvgl/src/core/lv_obj_style.c ****         if(obj->styles[i].is_local &&
 767              		.loc 1 291 5 view .LVU225
 768 0006 01E0     		b	.L56
 769              	.LVL77:
 770              	.L57:
 291:Drivers/lvgl/src/core/lv_obj_style.c ****         if(obj->styles[i].is_local &&
 771              		.loc 1 291 37 is_stmt 1 discriminator 2 view .LVU226
 772 0008 0EF1010E 		add	lr, lr, #1
 773              	.LVL78:
 774              	.L56:
 291:Drivers/lvgl/src/core/lv_obj_style.c ****         if(obj->styles[i].is_local &&
 775              		.loc 1 291 18 discriminator 1 view .LVU227
 291:Drivers/lvgl/src/core/lv_obj_style.c ****         if(obj->styles[i].is_local &&
 776              		.loc 1 291 23 is_stmt 0 discriminator 1 view .LVU228
 777 000c B0F822C0 		ldrh	ip, [r0, #34]
 778 0010 CCF3051C 		ubfx	ip, ip, #4, #6
 291:Drivers/lvgl/src/core/lv_obj_style.c ****         if(obj->styles[i].is_local &&
 779              		.loc 1 291 18 discriminator 1 view .LVU229
 780 0014 F445     		cmp	ip, lr
 781 0016 12D9     		bls	.L61
 292:Drivers/lvgl/src/core/lv_obj_style.c ****            obj->styles[i].selector == selector) {
 782              		.loc 1 292 9 is_stmt 1 view .LVU230
 292:Drivers/lvgl/src/core/lv_obj_style.c ****            obj->styles[i].selector == selector) {
 783              		.loc 1 292 23 is_stmt 0 view .LVU231
 784 0018 C468     		ldr	r4, [r0, #12]
 785 001a 04EBCE0C 		add	ip, r4, lr, lsl #3
 292:Drivers/lvgl/src/core/lv_obj_style.c ****            obj->styles[i].selector == selector) {
 786              		.loc 1 292 12 view .LVU232
 787 001e 9CF80740 		ldrb	r4, [ip, #7]	@ zero_extendqisi2
 292:Drivers/lvgl/src/core/lv_obj_style.c ****            obj->styles[i].selector == selector) {
 788              		.loc 1 292 11 view .LVU233
 789 0022 14F0010F 		tst	r4, #1
 790 0026 EFD0     		beq	.L57
 293:Drivers/lvgl/src/core/lv_obj_style.c ****             return lv_style_get_prop(obj->styles[i].style, prop, value);
 791              		.loc 1 293 26 discriminator 1 view .LVU234
 792 0028 DCF80440 		ldr	r4, [ip, #4]
 793 002c C4F31704 		ubfx	r4, r4, #0, #24
 292:Drivers/lvgl/src/core/lv_obj_style.c ****            obj->styles[i].selector == selector) {
 794              		.loc 1 292 36 discriminator 1 view .LVU235
 795 0030 9C42     		cmp	r4, r3
ARM GAS  /var/folders/0z/tsy30v1j4xl4_7kw94k978ww0000gn/T//cc8A9NTU.s 			page 34


 796 0032 E9D1     		bne	.L57
 294:Drivers/lvgl/src/core/lv_obj_style.c ****         }
 797              		.loc 1 294 13 is_stmt 1 view .LVU236
 294:Drivers/lvgl/src/core/lv_obj_style.c ****         }
 798              		.loc 1 294 20 is_stmt 0 view .LVU237
 799 0034 DCF80000 		ldr	r0, [ip]
 800              	.LVL79:
 294:Drivers/lvgl/src/core/lv_obj_style.c ****         }
 801              		.loc 1 294 20 view .LVU238
 802 0038 FFF7FEFF 		bl	lv_style_get_prop
 803              	.LVL80:
 294:Drivers/lvgl/src/core/lv_obj_style.c ****         }
 804              		.loc 1 294 20 view .LVU239
 805 003c 00E0     		b	.L58
 806              	.LVL81:
 807              	.L61:
 298:Drivers/lvgl/src/core/lv_obj_style.c **** }
 808              		.loc 1 298 12 view .LVU240
 809 003e 0020     		movs	r0, #0
 810              	.LVL82:
 811              	.L58:
 299:Drivers/lvgl/src/core/lv_obj_style.c **** 
 812              		.loc 1 299 1 view .LVU241
 813 0040 10BD     		pop	{r4, pc}
 814              		.cfi_endproc
 815              	.LFE176:
 817              		.section	.text.lv_obj_fade_in,"ax",%progbits
 818              		.align	1
 819              		.global	lv_obj_fade_in
 820              		.syntax unified
 821              		.thumb
 822              		.thumb_func
 824              	lv_obj_fade_in:
 825              	.LVL83:
 826              	.LFB181:
 456:Drivers/lvgl/src/core/lv_obj_style.c ****     lv_anim_t a;
 827              		.loc 1 456 1 is_stmt 1 view -0
 828              		.cfi_startproc
 829              		@ args = 0, pretend = 0, frame = 72
 830              		@ frame_needed = 0, uses_anonymous_args = 0
 456:Drivers/lvgl/src/core/lv_obj_style.c ****     lv_anim_t a;
 831              		.loc 1 456 1 is_stmt 0 view .LVU243
 832 0000 70B5     		push	{r4, r5, r6, lr}
 833              		.cfi_def_cfa_offset 16
 834              		.cfi_offset 4, -16
 835              		.cfi_offset 5, -12
 836              		.cfi_offset 6, -8
 837              		.cfi_offset 14, -4
 838 0002 92B0     		sub	sp, sp, #72
 839              		.cfi_def_cfa_offset 88
 840 0004 0646     		mov	r6, r0
 841 0006 0D46     		mov	r5, r1
 842 0008 1446     		mov	r4, r2
 457:Drivers/lvgl/src/core/lv_obj_style.c ****     lv_anim_init(&a);
 843              		.loc 1 457 5 is_stmt 1 view .LVU244
 458:Drivers/lvgl/src/core/lv_obj_style.c ****     lv_anim_set_var(&a, obj);
 844              		.loc 1 458 5 view .LVU245
ARM GAS  /var/folders/0z/tsy30v1j4xl4_7kw94k978ww0000gn/T//cc8A9NTU.s 			page 35


 845 000a 01A8     		add	r0, sp, #4
 846              	.LVL84:
 458:Drivers/lvgl/src/core/lv_obj_style.c ****     lv_anim_set_var(&a, obj);
 847              		.loc 1 458 5 is_stmt 0 view .LVU246
 848 000c FFF7FEFF 		bl	lv_anim_init
 849              	.LVL85:
 459:Drivers/lvgl/src/core/lv_obj_style.c ****     lv_anim_set_values(&a, 0, LV_OPA_COVER);
 850              		.loc 1 459 5 is_stmt 1 view .LVU247
 851              	.LBB89:
 852              	.LBI89:
 853              		.file 2 "Drivers/lvgl/src/core/../misc/lv_anim.h"
   1:Drivers/lvgl/src/core/../misc/lv_anim.h **** /**
   2:Drivers/lvgl/src/core/../misc/lv_anim.h ****  * @file lv_anim.h
   3:Drivers/lvgl/src/core/../misc/lv_anim.h ****  *
   4:Drivers/lvgl/src/core/../misc/lv_anim.h ****  */
   5:Drivers/lvgl/src/core/../misc/lv_anim.h **** 
   6:Drivers/lvgl/src/core/../misc/lv_anim.h **** #ifndef LV_ANIM_H
   7:Drivers/lvgl/src/core/../misc/lv_anim.h **** #define LV_ANIM_H
   8:Drivers/lvgl/src/core/../misc/lv_anim.h **** 
   9:Drivers/lvgl/src/core/../misc/lv_anim.h **** #ifdef __cplusplus
  10:Drivers/lvgl/src/core/../misc/lv_anim.h **** extern "C" {
  11:Drivers/lvgl/src/core/../misc/lv_anim.h **** #endif
  12:Drivers/lvgl/src/core/../misc/lv_anim.h **** 
  13:Drivers/lvgl/src/core/../misc/lv_anim.h **** /*********************
  14:Drivers/lvgl/src/core/../misc/lv_anim.h ****  *      INCLUDES
  15:Drivers/lvgl/src/core/../misc/lv_anim.h ****  *********************/
  16:Drivers/lvgl/src/core/../misc/lv_anim.h **** #include "../lv_conf_internal.h"
  17:Drivers/lvgl/src/core/../misc/lv_anim.h **** 
  18:Drivers/lvgl/src/core/../misc/lv_anim.h **** #include <stdint.h>
  19:Drivers/lvgl/src/core/../misc/lv_anim.h **** #include <stdbool.h>
  20:Drivers/lvgl/src/core/../misc/lv_anim.h **** #include <stddef.h>
  21:Drivers/lvgl/src/core/../misc/lv_anim.h **** 
  22:Drivers/lvgl/src/core/../misc/lv_anim.h **** /*********************
  23:Drivers/lvgl/src/core/../misc/lv_anim.h ****  *      DEFINES
  24:Drivers/lvgl/src/core/../misc/lv_anim.h ****  *********************/
  25:Drivers/lvgl/src/core/../misc/lv_anim.h **** 
  26:Drivers/lvgl/src/core/../misc/lv_anim.h **** #define LV_ANIM_REPEAT_INFINITE      0xFFFF
  27:Drivers/lvgl/src/core/../misc/lv_anim.h **** #define LV_ANIM_PLAYTIME_INFINITE    0xFFFFFFFF
  28:Drivers/lvgl/src/core/../misc/lv_anim.h **** 
  29:Drivers/lvgl/src/core/../misc/lv_anim.h **** LV_EXPORT_CONST_INT(LV_ANIM_REPEAT_INFINITE);
  30:Drivers/lvgl/src/core/../misc/lv_anim.h **** LV_EXPORT_CONST_INT(LV_ANIM_PLAYTIME_INFINITE);
  31:Drivers/lvgl/src/core/../misc/lv_anim.h **** 
  32:Drivers/lvgl/src/core/../misc/lv_anim.h **** /**********************
  33:Drivers/lvgl/src/core/../misc/lv_anim.h ****  *      TYPEDEFS
  34:Drivers/lvgl/src/core/../misc/lv_anim.h ****  **********************/
  35:Drivers/lvgl/src/core/../misc/lv_anim.h **** 
  36:Drivers/lvgl/src/core/../misc/lv_anim.h **** /** Can be used to indicate if animations are enabled or disabled in a case*/
  37:Drivers/lvgl/src/core/../misc/lv_anim.h **** typedef enum {
  38:Drivers/lvgl/src/core/../misc/lv_anim.h ****     LV_ANIM_OFF,
  39:Drivers/lvgl/src/core/../misc/lv_anim.h ****     LV_ANIM_ON,
  40:Drivers/lvgl/src/core/../misc/lv_anim.h **** } lv_anim_enable_t;
  41:Drivers/lvgl/src/core/../misc/lv_anim.h **** 
  42:Drivers/lvgl/src/core/../misc/lv_anim.h **** struct _lv_anim_t;
  43:Drivers/lvgl/src/core/../misc/lv_anim.h **** struct _lv_timer_t;
  44:Drivers/lvgl/src/core/../misc/lv_anim.h **** 
  45:Drivers/lvgl/src/core/../misc/lv_anim.h **** /** Get the current value during an animation*/
  46:Drivers/lvgl/src/core/../misc/lv_anim.h **** typedef int32_t (*lv_anim_path_cb_t)(const struct _lv_anim_t *);
ARM GAS  /var/folders/0z/tsy30v1j4xl4_7kw94k978ww0000gn/T//cc8A9NTU.s 			page 36


  47:Drivers/lvgl/src/core/../misc/lv_anim.h **** 
  48:Drivers/lvgl/src/core/../misc/lv_anim.h **** /** Generic prototype of "animator" functions.
  49:Drivers/lvgl/src/core/../misc/lv_anim.h ****  * First parameter is the variable to animate.
  50:Drivers/lvgl/src/core/../misc/lv_anim.h ****  * Second parameter is the value to set.
  51:Drivers/lvgl/src/core/../misc/lv_anim.h ****  * Compatible with `lv_xxx_set_yyy(obj, value)` functions
  52:Drivers/lvgl/src/core/../misc/lv_anim.h ****  * The `x` in `_xcb_t` means it's not a fully generic prototype because
  53:Drivers/lvgl/src/core/../misc/lv_anim.h ****  * it doesn't receive `lv_anim_t *` as its first argument*/
  54:Drivers/lvgl/src/core/../misc/lv_anim.h **** typedef void (*lv_anim_exec_xcb_t)(void *, int32_t);
  55:Drivers/lvgl/src/core/../misc/lv_anim.h **** 
  56:Drivers/lvgl/src/core/../misc/lv_anim.h **** /** Same as `lv_anim_exec_xcb_t` but receives `lv_anim_t *` as the first parameter.
  57:Drivers/lvgl/src/core/../misc/lv_anim.h ****  * It's more consistent but less convenient. Might be used by binding generator functions.*/
  58:Drivers/lvgl/src/core/../misc/lv_anim.h **** typedef void (*lv_anim_custom_exec_cb_t)(struct _lv_anim_t *, int32_t);
  59:Drivers/lvgl/src/core/../misc/lv_anim.h **** 
  60:Drivers/lvgl/src/core/../misc/lv_anim.h **** /** Callback to call when the animation is ready*/
  61:Drivers/lvgl/src/core/../misc/lv_anim.h **** typedef void (*lv_anim_ready_cb_t)(struct _lv_anim_t *);
  62:Drivers/lvgl/src/core/../misc/lv_anim.h **** 
  63:Drivers/lvgl/src/core/../misc/lv_anim.h **** /** Callback to call when the animation really stars (considering `delay`)*/
  64:Drivers/lvgl/src/core/../misc/lv_anim.h **** typedef void (*lv_anim_start_cb_t)(struct _lv_anim_t *);
  65:Drivers/lvgl/src/core/../misc/lv_anim.h **** 
  66:Drivers/lvgl/src/core/../misc/lv_anim.h **** /** Callback used when the animation values are relative to get the current value*/
  67:Drivers/lvgl/src/core/../misc/lv_anim.h **** typedef int32_t (*lv_anim_get_value_cb_t)(struct _lv_anim_t *);
  68:Drivers/lvgl/src/core/../misc/lv_anim.h **** 
  69:Drivers/lvgl/src/core/../misc/lv_anim.h **** /** Callback used when the animation is deleted*/
  70:Drivers/lvgl/src/core/../misc/lv_anim.h **** typedef void (*lv_anim_deleted_cb_t)(struct _lv_anim_t *);
  71:Drivers/lvgl/src/core/../misc/lv_anim.h **** 
  72:Drivers/lvgl/src/core/../misc/lv_anim.h **** /** Describes an animation*/
  73:Drivers/lvgl/src/core/../misc/lv_anim.h **** typedef struct _lv_anim_t {
  74:Drivers/lvgl/src/core/../misc/lv_anim.h ****     void * var;                          /**<Variable to animate*/
  75:Drivers/lvgl/src/core/../misc/lv_anim.h ****     lv_anim_exec_xcb_t exec_cb;          /**< Function to execute to animate*/
  76:Drivers/lvgl/src/core/../misc/lv_anim.h ****     lv_anim_start_cb_t start_cb;         /**< Call it when the animation is starts (considering `de
  77:Drivers/lvgl/src/core/../misc/lv_anim.h ****     lv_anim_ready_cb_t ready_cb;         /**< Call it when the animation is ready*/
  78:Drivers/lvgl/src/core/../misc/lv_anim.h ****     lv_anim_deleted_cb_t deleted_cb;     /**< Call it when the animation is deleted*/
  79:Drivers/lvgl/src/core/../misc/lv_anim.h ****     lv_anim_get_value_cb_t get_value_cb; /**< Get the current value in relative mode*/
  80:Drivers/lvgl/src/core/../misc/lv_anim.h **** #if LV_USE_USER_DATA
  81:Drivers/lvgl/src/core/../misc/lv_anim.h ****     void * user_data; /**< Custom user data*/
  82:Drivers/lvgl/src/core/../misc/lv_anim.h **** #endif
  83:Drivers/lvgl/src/core/../misc/lv_anim.h ****     lv_anim_path_cb_t path_cb;         /**< Describe the path (curve) of animations*/
  84:Drivers/lvgl/src/core/../misc/lv_anim.h ****     int32_t start_value;               /**< Start value*/
  85:Drivers/lvgl/src/core/../misc/lv_anim.h ****     int32_t current_value;             /**< Current value*/
  86:Drivers/lvgl/src/core/../misc/lv_anim.h ****     int32_t end_value;                 /**< End value*/
  87:Drivers/lvgl/src/core/../misc/lv_anim.h ****     int32_t time;                /**< Animation time in ms*/
  88:Drivers/lvgl/src/core/../misc/lv_anim.h ****     int32_t act_time;            /**< Current time in animation. Set to negative to make delay.*/
  89:Drivers/lvgl/src/core/../misc/lv_anim.h ****     uint32_t playback_delay;     /**< Wait before play back*/
  90:Drivers/lvgl/src/core/../misc/lv_anim.h ****     uint32_t playback_time;      /**< Duration of playback animation*/
  91:Drivers/lvgl/src/core/../misc/lv_anim.h ****     uint32_t repeat_delay;       /**< Wait before repeat*/
  92:Drivers/lvgl/src/core/../misc/lv_anim.h ****     uint16_t repeat_cnt;         /**< Repeat count for the animation*/
  93:Drivers/lvgl/src/core/../misc/lv_anim.h ****     uint8_t early_apply  : 1;    /**< 1: Apply start value immediately even is there is `delay`*/
  94:Drivers/lvgl/src/core/../misc/lv_anim.h **** 
  95:Drivers/lvgl/src/core/../misc/lv_anim.h ****     /*Animation system use these - user shouldn't set*/
  96:Drivers/lvgl/src/core/../misc/lv_anim.h ****     uint8_t playback_now : 1; /**< Play back is in progress*/
  97:Drivers/lvgl/src/core/../misc/lv_anim.h ****     uint8_t run_round : 1;    /**< Indicates the animation has run in this round*/
  98:Drivers/lvgl/src/core/../misc/lv_anim.h ****     uint8_t start_cb_called : 1;    /**< Indicates that the `start_cb` was already called*/
  99:Drivers/lvgl/src/core/../misc/lv_anim.h **** } lv_anim_t;
 100:Drivers/lvgl/src/core/../misc/lv_anim.h **** 
 101:Drivers/lvgl/src/core/../misc/lv_anim.h **** /**********************
 102:Drivers/lvgl/src/core/../misc/lv_anim.h ****  * GLOBAL PROTOTYPES
 103:Drivers/lvgl/src/core/../misc/lv_anim.h ****  **********************/
ARM GAS  /var/folders/0z/tsy30v1j4xl4_7kw94k978ww0000gn/T//cc8A9NTU.s 			page 37


 104:Drivers/lvgl/src/core/../misc/lv_anim.h **** 
 105:Drivers/lvgl/src/core/../misc/lv_anim.h **** /**
 106:Drivers/lvgl/src/core/../misc/lv_anim.h ****  * Init. the animation module
 107:Drivers/lvgl/src/core/../misc/lv_anim.h ****  */
 108:Drivers/lvgl/src/core/../misc/lv_anim.h **** void _lv_anim_core_init(void);
 109:Drivers/lvgl/src/core/../misc/lv_anim.h **** 
 110:Drivers/lvgl/src/core/../misc/lv_anim.h **** /**
 111:Drivers/lvgl/src/core/../misc/lv_anim.h ****  * Initialize an animation variable.
 112:Drivers/lvgl/src/core/../misc/lv_anim.h ****  * E.g.:
 113:Drivers/lvgl/src/core/../misc/lv_anim.h ****  * lv_anim_t a;
 114:Drivers/lvgl/src/core/../misc/lv_anim.h ****  * lv_anim_init(&a);
 115:Drivers/lvgl/src/core/../misc/lv_anim.h ****  * lv_anim_set_...(&a);
 116:Drivers/lvgl/src/core/../misc/lv_anim.h ****  * lv_anim_start(&a);
 117:Drivers/lvgl/src/core/../misc/lv_anim.h ****  * @param a     pointer to an `lv_anim_t` variable to initialize
 118:Drivers/lvgl/src/core/../misc/lv_anim.h ****  */
 119:Drivers/lvgl/src/core/../misc/lv_anim.h **** void lv_anim_init(lv_anim_t * a);
 120:Drivers/lvgl/src/core/../misc/lv_anim.h **** 
 121:Drivers/lvgl/src/core/../misc/lv_anim.h **** /**
 122:Drivers/lvgl/src/core/../misc/lv_anim.h ****  * Set a variable to animate
 123:Drivers/lvgl/src/core/../misc/lv_anim.h ****  * @param a     pointer to an initialized `lv_anim_t` variable
 124:Drivers/lvgl/src/core/../misc/lv_anim.h ****  * @param var   pointer to a variable to animate
 125:Drivers/lvgl/src/core/../misc/lv_anim.h ****  */
 126:Drivers/lvgl/src/core/../misc/lv_anim.h **** static inline void lv_anim_set_var(lv_anim_t * a, void * var)
 854              		.loc 2 126 20 view .LVU248
 855              	.LBB90:
 127:Drivers/lvgl/src/core/../misc/lv_anim.h **** {
 128:Drivers/lvgl/src/core/../misc/lv_anim.h ****     a->var = var;
 856              		.loc 2 128 5 view .LVU249
 857              		.loc 2 128 12 is_stmt 0 view .LVU250
 858 0010 0196     		str	r6, [sp, #4]
 859              	.LVL86:
 860              		.loc 2 128 12 view .LVU251
 861              	.LBE90:
 862              	.LBE89:
 460:Drivers/lvgl/src/core/lv_obj_style.c ****     lv_anim_set_exec_cb(&a, fade_anim_cb);
 863              		.loc 1 460 5 is_stmt 1 view .LVU252
 864              	.LBB91:
 865              	.LBI91:
 129:Drivers/lvgl/src/core/../misc/lv_anim.h **** }
 130:Drivers/lvgl/src/core/../misc/lv_anim.h **** 
 131:Drivers/lvgl/src/core/../misc/lv_anim.h **** /**
 132:Drivers/lvgl/src/core/../misc/lv_anim.h ****  * Set a function to animate `var`
 133:Drivers/lvgl/src/core/../misc/lv_anim.h ****  * @param a         pointer to an initialized `lv_anim_t` variable
 134:Drivers/lvgl/src/core/../misc/lv_anim.h ****  * @param exec_cb   a function to execute during animation
 135:Drivers/lvgl/src/core/../misc/lv_anim.h ****  *                  LVGL's built-in functions can be used.
 136:Drivers/lvgl/src/core/../misc/lv_anim.h ****  *                  E.g. lv_obj_set_x
 137:Drivers/lvgl/src/core/../misc/lv_anim.h ****  */
 138:Drivers/lvgl/src/core/../misc/lv_anim.h **** static inline void lv_anim_set_exec_cb(lv_anim_t * a, lv_anim_exec_xcb_t exec_cb)
 139:Drivers/lvgl/src/core/../misc/lv_anim.h **** {
 140:Drivers/lvgl/src/core/../misc/lv_anim.h ****     a->exec_cb = exec_cb;
 141:Drivers/lvgl/src/core/../misc/lv_anim.h **** }
 142:Drivers/lvgl/src/core/../misc/lv_anim.h **** 
 143:Drivers/lvgl/src/core/../misc/lv_anim.h **** /**
 144:Drivers/lvgl/src/core/../misc/lv_anim.h ****  * Set the duration of an animation
 145:Drivers/lvgl/src/core/../misc/lv_anim.h ****  * @param a         pointer to an initialized `lv_anim_t` variable
 146:Drivers/lvgl/src/core/../misc/lv_anim.h ****  * @param duration  duration of the animation in milliseconds
 147:Drivers/lvgl/src/core/../misc/lv_anim.h ****  */
ARM GAS  /var/folders/0z/tsy30v1j4xl4_7kw94k978ww0000gn/T//cc8A9NTU.s 			page 38


 148:Drivers/lvgl/src/core/../misc/lv_anim.h **** static inline void lv_anim_set_time(lv_anim_t * a, uint32_t duration)
 149:Drivers/lvgl/src/core/../misc/lv_anim.h **** {
 150:Drivers/lvgl/src/core/../misc/lv_anim.h ****     a->time = duration;
 151:Drivers/lvgl/src/core/../misc/lv_anim.h **** }
 152:Drivers/lvgl/src/core/../misc/lv_anim.h **** 
 153:Drivers/lvgl/src/core/../misc/lv_anim.h **** /**
 154:Drivers/lvgl/src/core/../misc/lv_anim.h ****  * Set a delay before starting the animation
 155:Drivers/lvgl/src/core/../misc/lv_anim.h ****  * @param a         pointer to an initialized `lv_anim_t` variable
 156:Drivers/lvgl/src/core/../misc/lv_anim.h ****  * @param delay     delay before the animation in milliseconds
 157:Drivers/lvgl/src/core/../misc/lv_anim.h ****  */
 158:Drivers/lvgl/src/core/../misc/lv_anim.h **** static inline void lv_anim_set_delay(lv_anim_t * a, uint32_t delay)
 159:Drivers/lvgl/src/core/../misc/lv_anim.h **** {
 160:Drivers/lvgl/src/core/../misc/lv_anim.h ****     a->act_time = -(int32_t)(delay);
 161:Drivers/lvgl/src/core/../misc/lv_anim.h **** }
 162:Drivers/lvgl/src/core/../misc/lv_anim.h **** 
 163:Drivers/lvgl/src/core/../misc/lv_anim.h **** /**
 164:Drivers/lvgl/src/core/../misc/lv_anim.h ****  * Set the start and end values of an animation
 165:Drivers/lvgl/src/core/../misc/lv_anim.h ****  * @param a         pointer to an initialized `lv_anim_t` variable
 166:Drivers/lvgl/src/core/../misc/lv_anim.h ****  * @param start     the start value
 167:Drivers/lvgl/src/core/../misc/lv_anim.h ****  * @param end       the end value
 168:Drivers/lvgl/src/core/../misc/lv_anim.h ****  */
 169:Drivers/lvgl/src/core/../misc/lv_anim.h **** static inline void lv_anim_set_values(lv_anim_t * a, int32_t start, int32_t end)
 866              		.loc 2 169 20 view .LVU253
 867              	.LBB92:
 170:Drivers/lvgl/src/core/../misc/lv_anim.h **** {
 171:Drivers/lvgl/src/core/../misc/lv_anim.h ****     a->start_value = start;
 868              		.loc 2 171 5 view .LVU254
 869              		.loc 2 171 20 is_stmt 0 view .LVU255
 870 0012 0023     		movs	r3, #0
 871 0014 0993     		str	r3, [sp, #36]
 172:Drivers/lvgl/src/core/../misc/lv_anim.h ****     a->current_value = start;
 872              		.loc 2 172 5 is_stmt 1 view .LVU256
 873              		.loc 2 172 22 is_stmt 0 view .LVU257
 874 0016 0A93     		str	r3, [sp, #40]
 173:Drivers/lvgl/src/core/../misc/lv_anim.h ****     a->end_value = end;
 875              		.loc 2 173 5 is_stmt 1 view .LVU258
 876              		.loc 2 173 18 is_stmt 0 view .LVU259
 877 0018 FF23     		movs	r3, #255
 878 001a 0B93     		str	r3, [sp, #44]
 879              	.LVL87:
 880              		.loc 2 173 18 view .LVU260
 881              	.LBE92:
 882              	.LBE91:
 461:Drivers/lvgl/src/core/lv_obj_style.c ****     lv_anim_set_ready_cb(&a, fade_in_anim_ready);
 883              		.loc 1 461 5 is_stmt 1 view .LVU261
 884              	.LBB93:
 885              	.LBI93:
 138:Drivers/lvgl/src/core/../misc/lv_anim.h **** {
 886              		.loc 2 138 20 view .LVU262
 887              	.LBB94:
 140:Drivers/lvgl/src/core/../misc/lv_anim.h **** }
 888              		.loc 2 140 5 view .LVU263
 140:Drivers/lvgl/src/core/../misc/lv_anim.h **** }
 889              		.loc 2 140 16 is_stmt 0 view .LVU264
 890 001c 054B     		ldr	r3, .L64
 891 001e 0293     		str	r3, [sp, #8]
 892              	.LVL88:
ARM GAS  /var/folders/0z/tsy30v1j4xl4_7kw94k978ww0000gn/T//cc8A9NTU.s 			page 39


 140:Drivers/lvgl/src/core/../misc/lv_anim.h **** }
 893              		.loc 2 140 16 view .LVU265
 894              	.LBE94:
 895              	.LBE93:
 462:Drivers/lvgl/src/core/lv_obj_style.c ****     lv_anim_set_time(&a, time);
 896              		.loc 1 462 5 is_stmt 1 view .LVU266
 897              	.LBB95:
 898              	.LBI95:
 174:Drivers/lvgl/src/core/../misc/lv_anim.h **** }
 175:Drivers/lvgl/src/core/../misc/lv_anim.h **** 
 176:Drivers/lvgl/src/core/../misc/lv_anim.h **** /**
 177:Drivers/lvgl/src/core/../misc/lv_anim.h ****  * Similar to `lv_anim_set_exec_cb` but `lv_anim_custom_exec_cb_t` receives
 178:Drivers/lvgl/src/core/../misc/lv_anim.h ****  * `lv_anim_t * ` as its first parameter instead of `void *`.
 179:Drivers/lvgl/src/core/../misc/lv_anim.h ****  * This function might be used when LVGL is bound to other languages because
 180:Drivers/lvgl/src/core/../misc/lv_anim.h ****  * it's more consistent to have `lv_anim_t *` as first parameter.
 181:Drivers/lvgl/src/core/../misc/lv_anim.h ****  * The variable to animate can be stored in the animation's `user_data`
 182:Drivers/lvgl/src/core/../misc/lv_anim.h ****  * @param a         pointer to an initialized `lv_anim_t` variable
 183:Drivers/lvgl/src/core/../misc/lv_anim.h ****  * @param exec_cb   a function to execute.
 184:Drivers/lvgl/src/core/../misc/lv_anim.h ****  */
 185:Drivers/lvgl/src/core/../misc/lv_anim.h **** static inline void lv_anim_set_custom_exec_cb(lv_anim_t * a, lv_anim_custom_exec_cb_t exec_cb)
 186:Drivers/lvgl/src/core/../misc/lv_anim.h **** {
 187:Drivers/lvgl/src/core/../misc/lv_anim.h ****     a->var     = a;
 188:Drivers/lvgl/src/core/../misc/lv_anim.h ****     a->exec_cb = (lv_anim_exec_xcb_t)exec_cb;
 189:Drivers/lvgl/src/core/../misc/lv_anim.h **** }
 190:Drivers/lvgl/src/core/../misc/lv_anim.h **** 
 191:Drivers/lvgl/src/core/../misc/lv_anim.h **** /**
 192:Drivers/lvgl/src/core/../misc/lv_anim.h ****  * Set the path (curve) of the animation.
 193:Drivers/lvgl/src/core/../misc/lv_anim.h ****  * @param a         pointer to an initialized `lv_anim_t` variable
 194:Drivers/lvgl/src/core/../misc/lv_anim.h ****  * @param path_cb a function to set the current value of the animation.
 195:Drivers/lvgl/src/core/../misc/lv_anim.h ****  */
 196:Drivers/lvgl/src/core/../misc/lv_anim.h **** static inline void lv_anim_set_path_cb(lv_anim_t * a, lv_anim_path_cb_t path_cb)
 197:Drivers/lvgl/src/core/../misc/lv_anim.h **** {
 198:Drivers/lvgl/src/core/../misc/lv_anim.h ****     a->path_cb = path_cb;
 199:Drivers/lvgl/src/core/../misc/lv_anim.h **** }
 200:Drivers/lvgl/src/core/../misc/lv_anim.h **** 
 201:Drivers/lvgl/src/core/../misc/lv_anim.h **** /**
 202:Drivers/lvgl/src/core/../misc/lv_anim.h ****  * Set a function call when the animation really starts (considering `delay`)
 203:Drivers/lvgl/src/core/../misc/lv_anim.h ****  * @param a         pointer to an initialized `lv_anim_t` variable
 204:Drivers/lvgl/src/core/../misc/lv_anim.h ****  * @param start_cb  a function call when the animation starts
 205:Drivers/lvgl/src/core/../misc/lv_anim.h ****  */
 206:Drivers/lvgl/src/core/../misc/lv_anim.h **** static inline void lv_anim_set_start_cb(lv_anim_t * a, lv_anim_start_cb_t start_cb)
 207:Drivers/lvgl/src/core/../misc/lv_anim.h **** {
 208:Drivers/lvgl/src/core/../misc/lv_anim.h ****     a->start_cb = start_cb;
 209:Drivers/lvgl/src/core/../misc/lv_anim.h **** }
 210:Drivers/lvgl/src/core/../misc/lv_anim.h **** 
 211:Drivers/lvgl/src/core/../misc/lv_anim.h **** /**
 212:Drivers/lvgl/src/core/../misc/lv_anim.h ****  * Set a function to use the current value of the variable and make start and end value
 213:Drivers/lvgl/src/core/../misc/lv_anim.h ****  * relative to the returned current value.
 214:Drivers/lvgl/src/core/../misc/lv_anim.h ****  * @param a             pointer to an initialized `lv_anim_t` variable
 215:Drivers/lvgl/src/core/../misc/lv_anim.h ****  * @param get_value_cb  a function call when the animation starts
 216:Drivers/lvgl/src/core/../misc/lv_anim.h ****  */
 217:Drivers/lvgl/src/core/../misc/lv_anim.h **** static inline void lv_anim_set_get_value_cb(lv_anim_t * a, lv_anim_get_value_cb_t get_value_cb)
 218:Drivers/lvgl/src/core/../misc/lv_anim.h **** {
 219:Drivers/lvgl/src/core/../misc/lv_anim.h ****     a->get_value_cb = get_value_cb;
 220:Drivers/lvgl/src/core/../misc/lv_anim.h **** }
 221:Drivers/lvgl/src/core/../misc/lv_anim.h **** 
 222:Drivers/lvgl/src/core/../misc/lv_anim.h **** /**
ARM GAS  /var/folders/0z/tsy30v1j4xl4_7kw94k978ww0000gn/T//cc8A9NTU.s 			page 40


 223:Drivers/lvgl/src/core/../misc/lv_anim.h ****  * Set a function call when the animation is ready
 224:Drivers/lvgl/src/core/../misc/lv_anim.h ****  * @param a         pointer to an initialized `lv_anim_t` variable
 225:Drivers/lvgl/src/core/../misc/lv_anim.h ****  * @param ready_cb  a function call when the animation is ready
 226:Drivers/lvgl/src/core/../misc/lv_anim.h ****  */
 227:Drivers/lvgl/src/core/../misc/lv_anim.h **** static inline void lv_anim_set_ready_cb(lv_anim_t * a, lv_anim_ready_cb_t ready_cb)
 899              		.loc 2 227 20 view .LVU267
 900              	.LBB96:
 228:Drivers/lvgl/src/core/../misc/lv_anim.h **** {
 229:Drivers/lvgl/src/core/../misc/lv_anim.h ****     a->ready_cb = ready_cb;
 901              		.loc 2 229 5 view .LVU268
 902              		.loc 2 229 17 is_stmt 0 view .LVU269
 903 0020 054B     		ldr	r3, .L64+4
 904 0022 0493     		str	r3, [sp, #16]
 905              	.LVL89:
 906              		.loc 2 229 17 view .LVU270
 907              	.LBE96:
 908              	.LBE95:
 463:Drivers/lvgl/src/core/lv_obj_style.c ****     lv_anim_set_delay(&a, delay);
 909              		.loc 1 463 5 is_stmt 1 view .LVU271
 910              	.LBB97:
 911              	.LBI97:
 148:Drivers/lvgl/src/core/../misc/lv_anim.h **** {
 912              		.loc 2 148 20 view .LVU272
 913              	.LBB98:
 150:Drivers/lvgl/src/core/../misc/lv_anim.h **** }
 914              		.loc 2 150 5 view .LVU273
 150:Drivers/lvgl/src/core/../misc/lv_anim.h **** }
 915              		.loc 2 150 13 is_stmt 0 view .LVU274
 916 0024 0C95     		str	r5, [sp, #48]
 917              	.LVL90:
 150:Drivers/lvgl/src/core/../misc/lv_anim.h **** }
 918              		.loc 2 150 13 view .LVU275
 919              	.LBE98:
 920              	.LBE97:
 464:Drivers/lvgl/src/core/lv_obj_style.c ****     lv_anim_start(&a);
 921              		.loc 1 464 5 is_stmt 1 view .LVU276
 922              	.LBB99:
 923              	.LBI99:
 158:Drivers/lvgl/src/core/../misc/lv_anim.h **** {
 924              		.loc 2 158 20 view .LVU277
 925              	.LBB100:
 160:Drivers/lvgl/src/core/../misc/lv_anim.h **** }
 926              		.loc 2 160 5 view .LVU278
 160:Drivers/lvgl/src/core/../misc/lv_anim.h **** }
 927              		.loc 2 160 19 is_stmt 0 view .LVU279
 928 0026 6442     		rsbs	r4, r4, #0
 929              	.LVL91:
 160:Drivers/lvgl/src/core/../misc/lv_anim.h **** }
 930              		.loc 2 160 17 view .LVU280
 931 0028 0D94     		str	r4, [sp, #52]
 932              	.LVL92:
 160:Drivers/lvgl/src/core/../misc/lv_anim.h **** }
 933              		.loc 2 160 17 view .LVU281
 934              	.LBE100:
 935              	.LBE99:
 465:Drivers/lvgl/src/core/lv_obj_style.c **** }
 936              		.loc 1 465 5 is_stmt 1 view .LVU282
ARM GAS  /var/folders/0z/tsy30v1j4xl4_7kw94k978ww0000gn/T//cc8A9NTU.s 			page 41


 937 002a 01A8     		add	r0, sp, #4
 938 002c FFF7FEFF 		bl	lv_anim_start
 939              	.LVL93:
 466:Drivers/lvgl/src/core/lv_obj_style.c **** 
 940              		.loc 1 466 1 is_stmt 0 view .LVU283
 941 0030 12B0     		add	sp, sp, #72
 942              		.cfi_def_cfa_offset 16
 943              		@ sp needed
 944 0032 70BD     		pop	{r4, r5, r6, pc}
 945              	.LVL94:
 946              	.L65:
 466:Drivers/lvgl/src/core/lv_obj_style.c **** 
 947              		.loc 1 466 1 view .LVU284
 948              		.align	2
 949              	.L64:
 950 0034 00000000 		.word	fade_anim_cb
 951 0038 00000000 		.word	fade_in_anim_ready
 952              		.cfi_endproc
 953              	.LFE181:
 955              		.section	.text.lv_obj_style_get_selector_state,"ax",%progbits
 956              		.align	1
 957              		.global	lv_obj_style_get_selector_state
 958              		.syntax unified
 959              		.thumb
 960              		.thumb_func
 962              	lv_obj_style_get_selector_state:
 963              	.LVL95:
 964              	.LFB183:
 481:Drivers/lvgl/src/core/lv_obj_style.c ****     return selector & 0xFFFF;
 965              		.loc 1 481 1 is_stmt 1 view -0
 966              		.cfi_startproc
 967              		@ args = 0, pretend = 0, frame = 0
 968              		@ frame_needed = 0, uses_anonymous_args = 0
 969              		@ link register save eliminated.
 482:Drivers/lvgl/src/core/lv_obj_style.c **** }
 970              		.loc 1 482 5 view .LVU286
 483:Drivers/lvgl/src/core/lv_obj_style.c **** 
 971              		.loc 1 483 1 is_stmt 0 view .LVU287
 972 0000 80B2     		uxth	r0, r0
 973              	.LVL96:
 483:Drivers/lvgl/src/core/lv_obj_style.c **** 
 974              		.loc 1 483 1 view .LVU288
 975 0002 7047     		bx	lr
 976              		.cfi_endproc
 977              	.LFE183:
 979              		.section	.text._lv_obj_style_state_compare,"ax",%progbits
 980              		.align	1
 981              		.global	_lv_obj_style_state_compare
 982              		.syntax unified
 983              		.thumb
 984              		.thumb_func
 986              	_lv_obj_style_state_compare:
 987              	.LVL97:
 988              	.LFB180:
 394:Drivers/lvgl/src/core/lv_obj_style.c ****     _lv_style_state_cmp_t res = _LV_STYLE_STATE_CMP_SAME;
 989              		.loc 1 394 1 is_stmt 1 view -0
 990              		.cfi_startproc
ARM GAS  /var/folders/0z/tsy30v1j4xl4_7kw94k978ww0000gn/T//cc8A9NTU.s 			page 42


 991              		@ args = 0, pretend = 0, frame = 8
 992              		@ frame_needed = 0, uses_anonymous_args = 0
 394:Drivers/lvgl/src/core/lv_obj_style.c ****     _lv_style_state_cmp_t res = _LV_STYLE_STATE_CMP_SAME;
 993              		.loc 1 394 1 is_stmt 0 view .LVU290
 994 0000 2DE9F047 		push	{r4, r5, r6, r7, r8, r9, r10, lr}
 995              		.cfi_def_cfa_offset 32
 996              		.cfi_offset 4, -32
 997              		.cfi_offset 5, -28
 998              		.cfi_offset 6, -24
 999              		.cfi_offset 7, -20
 1000              		.cfi_offset 8, -16
 1001              		.cfi_offset 9, -12
 1002              		.cfi_offset 10, -8
 1003              		.cfi_offset 14, -4
 1004 0004 82B0     		sub	sp, sp, #8
 1005              		.cfi_def_cfa_offset 40
 1006 0006 0646     		mov	r6, r0
 1007 0008 8846     		mov	r8, r1
 1008 000a 1746     		mov	r7, r2
 395:Drivers/lvgl/src/core/lv_obj_style.c **** 
 1009              		.loc 1 395 5 is_stmt 1 view .LVU291
 1010              	.LVL98:
 398:Drivers/lvgl/src/core/lv_obj_style.c ****     for(i = 0; i < obj->style_cnt; i++) {
 1011              		.loc 1 398 5 view .LVU292
 399:Drivers/lvgl/src/core/lv_obj_style.c ****         if(obj->styles[i].is_trans) continue;
 1012              		.loc 1 399 5 view .LVU293
 399:Drivers/lvgl/src/core/lv_obj_style.c ****         if(obj->styles[i].is_trans) continue;
 1013              		.loc 1 399 11 is_stmt 0 view .LVU294
 1014 000c 0025     		movs	r5, #0
 395:Drivers/lvgl/src/core/lv_obj_style.c **** 
 1015              		.loc 1 395 27 view .LVU295
 1016 000e A946     		mov	r9, r5
 399:Drivers/lvgl/src/core/lv_obj_style.c ****         if(obj->styles[i].is_trans) continue;
 1017              		.loc 1 399 5 view .LVU296
 1018 0010 10E0     		b	.L68
 1019              	.LVL99:
 1020              	.L70:
 1021              	.LBB101:
 1022              	.LBB102:
 431:Drivers/lvgl/src/core/lv_obj_style.c ****             }
 1023              		.loc 1 431 17 is_stmt 1 view .LVU297
 431:Drivers/lvgl/src/core/lv_obj_style.c ****             }
 1024              		.loc 1 431 24 is_stmt 0 view .LVU298
 1025 0012 4FF00309 		mov	r9, #3
 1026              	.LVL100:
 1027              	.L73:
 431:Drivers/lvgl/src/core/lv_obj_style.c ****             }
 1028              		.loc 1 431 24 view .LVU299
 1029              	.LBE102:
 1030              	.LBE101:
 453:Drivers/lvgl/src/core/lv_obj_style.c **** 
 1031              		.loc 1 453 1 view .LVU300
 1032 0016 4846     		mov	r0, r9
 1033 0018 02B0     		add	sp, sp, #8
 1034              		.cfi_remember_state
 1035              		.cfi_def_cfa_offset 32
 1036              		@ sp needed
ARM GAS  /var/folders/0z/tsy30v1j4xl4_7kw94k978ww0000gn/T//cc8A9NTU.s 			page 43


 1037 001a BDE8F087 		pop	{r4, r5, r6, r7, r8, r9, r10, pc}
 1038              	.LVL101:
 1039              	.L92:
 1040              		.cfi_restore_state
 1041              	.LBB105:
 1042              	.LBB103:
 436:Drivers/lvgl/src/core/lv_obj_style.c ****             else if(lv_style_get_prop(style, LV_STYLE_TRANSFORM_ANGLE, &v)) res = _LV_STYLE_STATE_C
 1043              		.loc 1 436 18 is_stmt 1 view .LVU301
 436:Drivers/lvgl/src/core/lv_obj_style.c ****             else if(lv_style_get_prop(style, LV_STYLE_TRANSFORM_ANGLE, &v)) res = _LV_STYLE_STATE_C
 1044              		.loc 1 436 21 is_stmt 0 view .LVU302
 1045 001e 01AA     		add	r2, sp, #4
 1046 0020 6A21     		movs	r1, #106
 1047 0022 2046     		mov	r0, r4
 1048 0024 FFF7FEFF 		bl	lv_style_get_prop
 1049              	.LVL102:
 436:Drivers/lvgl/src/core/lv_obj_style.c ****             else if(lv_style_get_prop(style, LV_STYLE_TRANSFORM_ANGLE, &v)) res = _LV_STYLE_STATE_C
 1050              		.loc 1 436 20 view .LVU303
 1051 0028 0028     		cmp	r0, #0
 1052 002a 00F0B380 		beq	.L91
 436:Drivers/lvgl/src/core/lv_obj_style.c ****             else if(lv_style_get_prop(style, LV_STYLE_TRANSFORM_ANGLE, &v)) res = _LV_STYLE_STATE_C
 1053              		.loc 1 436 82 view .LVU304
 1054 002e 4FF00209 		mov	r9, #2
 1055              	.LVL103:
 1056              	.L69:
 436:Drivers/lvgl/src/core/lv_obj_style.c ****             else if(lv_style_get_prop(style, LV_STYLE_TRANSFORM_ANGLE, &v)) res = _LV_STYLE_STATE_C
 1057              		.loc 1 436 82 view .LVU305
 1058              	.LBE103:
 1059              	.LBE105:
 399:Drivers/lvgl/src/core/lv_obj_style.c ****         if(obj->styles[i].is_trans) continue;
 1060              		.loc 1 399 37 is_stmt 1 discriminator 2 view .LVU306
 1061 0032 0135     		adds	r5, r5, #1
 1062              	.LVL104:
 1063              	.L68:
 399:Drivers/lvgl/src/core/lv_obj_style.c ****         if(obj->styles[i].is_trans) continue;
 1064              		.loc 1 399 18 discriminator 1 view .LVU307
 399:Drivers/lvgl/src/core/lv_obj_style.c ****         if(obj->styles[i].is_trans) continue;
 1065              		.loc 1 399 23 is_stmt 0 discriminator 1 view .LVU308
 1066 0034 738C     		ldrh	r3, [r6, #34]
 1067 0036 C3F30513 		ubfx	r3, r3, #4, #6
 399:Drivers/lvgl/src/core/lv_obj_style.c ****         if(obj->styles[i].is_trans) continue;
 1068              		.loc 1 399 18 discriminator 1 view .LVU309
 1069 003a AB42     		cmp	r3, r5
 1070 003c EBD9     		bls	.L73
 1071              	.LBB106:
 400:Drivers/lvgl/src/core/lv_obj_style.c **** 
 1072              		.loc 1 400 9 is_stmt 1 view .LVU310
 400:Drivers/lvgl/src/core/lv_obj_style.c **** 
 1073              		.loc 1 400 15 is_stmt 0 view .LVU311
 1074 003e F468     		ldr	r4, [r6, #12]
 400:Drivers/lvgl/src/core/lv_obj_style.c **** 
 1075              		.loc 1 400 23 view .LVU312
 1076 0040 4FEAC50A 		lsl	r10, r5, #3
 1077 0044 04EBC503 		add	r3, r4, r5, lsl #3
 400:Drivers/lvgl/src/core/lv_obj_style.c **** 
 1078              		.loc 1 400 12 view .LVU313
 1079 0048 DA79     		ldrb	r2, [r3, #7]	@ zero_extendqisi2
 400:Drivers/lvgl/src/core/lv_obj_style.c **** 
ARM GAS  /var/folders/0z/tsy30v1j4xl4_7kw94k978ww0000gn/T//cc8A9NTU.s 			page 44


 1080              		.loc 1 400 11 view .LVU314
 1081 004a 12F0020F 		tst	r2, #2
 1082 004e F0D1     		bne	.L69
 402:Drivers/lvgl/src/core/lv_obj_style.c ****         /*The style is valid for a state but not the other*/
 1083              		.loc 1 402 9 is_stmt 1 view .LVU315
 402:Drivers/lvgl/src/core/lv_obj_style.c ****         /*The style is valid for a state but not the other*/
 1084              		.loc 1 402 78 is_stmt 0 view .LVU316
 1085 0050 5868     		ldr	r0, [r3, #4]
 402:Drivers/lvgl/src/core/lv_obj_style.c ****         /*The style is valid for a state but not the other*/
 1086              		.loc 1 402 32 view .LVU317
 1087 0052 20F07F40 		bic	r0, r0, #-16777216
 1088 0056 FFF7FEFF 		bl	lv_obj_style_get_selector_state
 1089              	.LVL105:
 404:Drivers/lvgl/src/core/lv_obj_style.c ****         bool valid2 = state_act & (~state2) ? false : true;
 1090              		.loc 1 404 9 is_stmt 1 view .LVU318
 404:Drivers/lvgl/src/core/lv_obj_style.c ****         bool valid2 = state_act & (~state2) ? false : true;
 1091              		.loc 1 404 14 is_stmt 0 view .LVU319
 1092 005a 30EA0803 		bics	r3, r0, r8
 1093 005e 0CBF     		ite	eq
 1094 0060 0122     		moveq	r2, #1
 1095 0062 0022     		movne	r2, #0
 1096              	.LVL106:
 405:Drivers/lvgl/src/core/lv_obj_style.c ****         if(valid1 != valid2) {
 1097              		.loc 1 405 9 is_stmt 1 view .LVU320
 405:Drivers/lvgl/src/core/lv_obj_style.c ****         if(valid1 != valid2) {
 1098              		.loc 1 405 14 is_stmt 0 view .LVU321
 1099 0064 B843     		bics	r0, r0, r7
 1100              	.LVL107:
 405:Drivers/lvgl/src/core/lv_obj_style.c ****         if(valid1 != valid2) {
 1101              		.loc 1 405 14 view .LVU322
 1102 0066 0CBF     		ite	eq
 1103 0068 0123     		moveq	r3, #1
 1104 006a 0023     		movne	r3, #0
 1105              	.LVL108:
 406:Drivers/lvgl/src/core/lv_obj_style.c ****             lv_style_t * style = obj->styles[i].style;
 1106              		.loc 1 406 9 is_stmt 1 view .LVU323
 406:Drivers/lvgl/src/core/lv_obj_style.c ****             lv_style_t * style = obj->styles[i].style;
 1107              		.loc 1 406 11 is_stmt 0 view .LVU324
 1108 006c 9A42     		cmp	r2, r3
 1109 006e E0D0     		beq	.L69
 1110              	.LBB104:
 407:Drivers/lvgl/src/core/lv_obj_style.c ****             lv_style_value_t v;
 1111              		.loc 1 407 13 is_stmt 1 view .LVU325
 407:Drivers/lvgl/src/core/lv_obj_style.c ****             lv_style_value_t v;
 1112              		.loc 1 407 26 is_stmt 0 view .LVU326
 1113 0070 54F80A40 		ldr	r4, [r4, r10]
 1114              	.LVL109:
 408:Drivers/lvgl/src/core/lv_obj_style.c ****             /*If there is layout difference on the main part, return immediately. There is no more 
 1115              		.loc 1 408 13 is_stmt 1 view .LVU327
 410:Drivers/lvgl/src/core/lv_obj_style.c ****             if(lv_style_get_prop(style, LV_STYLE_PAD_TOP, &v))layout_diff = true;
 1116              		.loc 1 410 13 view .LVU328
 411:Drivers/lvgl/src/core/lv_obj_style.c ****             else if(lv_style_get_prop(style, LV_STYLE_PAD_BOTTOM, &v)) layout_diff = true;
 1117              		.loc 1 411 13 view .LVU329
 411:Drivers/lvgl/src/core/lv_obj_style.c ****             else if(lv_style_get_prop(style, LV_STYLE_PAD_BOTTOM, &v)) layout_diff = true;
 1118              		.loc 1 411 16 is_stmt 0 view .LVU330
 1119 0074 01AA     		add	r2, sp, #4
 1120              	.LVL110:
ARM GAS  /var/folders/0z/tsy30v1j4xl4_7kw94k978ww0000gn/T//cc8A9NTU.s 			page 45


 411:Drivers/lvgl/src/core/lv_obj_style.c ****             else if(lv_style_get_prop(style, LV_STYLE_PAD_BOTTOM, &v)) layout_diff = true;
 1121              		.loc 1 411 16 view .LVU331
 1122 0076 1021     		movs	r1, #16
 1123 0078 2046     		mov	r0, r4
 1124 007a FFF7FEFF 		bl	lv_style_get_prop
 1125              	.LVL111:
 411:Drivers/lvgl/src/core/lv_obj_style.c ****             else if(lv_style_get_prop(style, LV_STYLE_PAD_BOTTOM, &v)) layout_diff = true;
 1126              		.loc 1 411 15 view .LVU332
 1127 007e 0028     		cmp	r0, #0
 1128 0080 C7D1     		bne	.L70
 412:Drivers/lvgl/src/core/lv_obj_style.c ****             else if(lv_style_get_prop(style, LV_STYLE_PAD_LEFT, &v)) layout_diff = true;
 1129              		.loc 1 412 18 is_stmt 1 view .LVU333
 412:Drivers/lvgl/src/core/lv_obj_style.c ****             else if(lv_style_get_prop(style, LV_STYLE_PAD_LEFT, &v)) layout_diff = true;
 1130              		.loc 1 412 21 is_stmt 0 view .LVU334
 1131 0082 01AA     		add	r2, sp, #4
 1132 0084 1121     		movs	r1, #17
 1133 0086 2046     		mov	r0, r4
 1134 0088 FFF7FEFF 		bl	lv_style_get_prop
 1135              	.LVL112:
 412:Drivers/lvgl/src/core/lv_obj_style.c ****             else if(lv_style_get_prop(style, LV_STYLE_PAD_LEFT, &v)) layout_diff = true;
 1136              		.loc 1 412 20 view .LVU335
 1137 008c 0028     		cmp	r0, #0
 1138 008e C0D1     		bne	.L70
 413:Drivers/lvgl/src/core/lv_obj_style.c ****             else if(lv_style_get_prop(style, LV_STYLE_PAD_RIGHT, &v)) layout_diff = true;
 1139              		.loc 1 413 18 is_stmt 1 view .LVU336
 413:Drivers/lvgl/src/core/lv_obj_style.c ****             else if(lv_style_get_prop(style, LV_STYLE_PAD_RIGHT, &v)) layout_diff = true;
 1140              		.loc 1 413 21 is_stmt 0 view .LVU337
 1141 0090 01AA     		add	r2, sp, #4
 1142 0092 1221     		movs	r1, #18
 1143 0094 2046     		mov	r0, r4
 1144 0096 FFF7FEFF 		bl	lv_style_get_prop
 1145              	.LVL113:
 413:Drivers/lvgl/src/core/lv_obj_style.c ****             else if(lv_style_get_prop(style, LV_STYLE_PAD_RIGHT, &v)) layout_diff = true;
 1146              		.loc 1 413 20 view .LVU338
 1147 009a 0028     		cmp	r0, #0
 1148 009c B9D1     		bne	.L70
 414:Drivers/lvgl/src/core/lv_obj_style.c ****             else if(lv_style_get_prop(style, LV_STYLE_PAD_COLUMN, &v)) layout_diff = true;
 1149              		.loc 1 414 18 is_stmt 1 view .LVU339
 414:Drivers/lvgl/src/core/lv_obj_style.c ****             else if(lv_style_get_prop(style, LV_STYLE_PAD_COLUMN, &v)) layout_diff = true;
 1150              		.loc 1 414 21 is_stmt 0 view .LVU340
 1151 009e 01AA     		add	r2, sp, #4
 1152 00a0 1321     		movs	r1, #19
 1153 00a2 2046     		mov	r0, r4
 1154 00a4 FFF7FEFF 		bl	lv_style_get_prop
 1155              	.LVL114:
 414:Drivers/lvgl/src/core/lv_obj_style.c ****             else if(lv_style_get_prop(style, LV_STYLE_PAD_COLUMN, &v)) layout_diff = true;
 1156              		.loc 1 414 20 view .LVU341
 1157 00a8 0028     		cmp	r0, #0
 1158 00aa B2D1     		bne	.L70
 415:Drivers/lvgl/src/core/lv_obj_style.c ****             else if(lv_style_get_prop(style, LV_STYLE_PAD_ROW, &v)) layout_diff = true;
 1159              		.loc 1 415 18 is_stmt 1 view .LVU342
 415:Drivers/lvgl/src/core/lv_obj_style.c ****             else if(lv_style_get_prop(style, LV_STYLE_PAD_ROW, &v)) layout_diff = true;
 1160              		.loc 1 415 21 is_stmt 0 view .LVU343
 1161 00ac 01AA     		add	r2, sp, #4
 1162 00ae 1521     		movs	r1, #21
 1163 00b0 2046     		mov	r0, r4
 1164 00b2 FFF7FEFF 		bl	lv_style_get_prop
ARM GAS  /var/folders/0z/tsy30v1j4xl4_7kw94k978ww0000gn/T//cc8A9NTU.s 			page 46


 1165              	.LVL115:
 415:Drivers/lvgl/src/core/lv_obj_style.c ****             else if(lv_style_get_prop(style, LV_STYLE_PAD_ROW, &v)) layout_diff = true;
 1166              		.loc 1 415 20 view .LVU344
 1167 00b6 0028     		cmp	r0, #0
 1168 00b8 ABD1     		bne	.L70
 416:Drivers/lvgl/src/core/lv_obj_style.c ****             else if(lv_style_get_prop(style, LV_STYLE_LAYOUT, &v)) layout_diff = true;
 1169              		.loc 1 416 18 is_stmt 1 view .LVU345
 416:Drivers/lvgl/src/core/lv_obj_style.c ****             else if(lv_style_get_prop(style, LV_STYLE_LAYOUT, &v)) layout_diff = true;
 1170              		.loc 1 416 21 is_stmt 0 view .LVU346
 1171 00ba 01AA     		add	r2, sp, #4
 1172 00bc 1421     		movs	r1, #20
 1173 00be 2046     		mov	r0, r4
 1174 00c0 FFF7FEFF 		bl	lv_style_get_prop
 1175              	.LVL116:
 416:Drivers/lvgl/src/core/lv_obj_style.c ****             else if(lv_style_get_prop(style, LV_STYLE_LAYOUT, &v)) layout_diff = true;
 1176              		.loc 1 416 20 view .LVU347
 1177 00c4 0028     		cmp	r0, #0
 1178 00c6 A4D1     		bne	.L70
 417:Drivers/lvgl/src/core/lv_obj_style.c ****             else if(lv_style_get_prop(style, LV_STYLE_TRANSLATE_X, &v)) layout_diff = true;
 1179              		.loc 1 417 18 is_stmt 1 view .LVU348
 417:Drivers/lvgl/src/core/lv_obj_style.c ****             else if(lv_style_get_prop(style, LV_STYLE_TRANSLATE_X, &v)) layout_diff = true;
 1180              		.loc 1 417 21 is_stmt 0 view .LVU349
 1181 00c8 01AA     		add	r2, sp, #4
 1182 00ca 0A21     		movs	r1, #10
 1183 00cc 2046     		mov	r0, r4
 1184 00ce FFF7FEFF 		bl	lv_style_get_prop
 1185              	.LVL117:
 417:Drivers/lvgl/src/core/lv_obj_style.c ****             else if(lv_style_get_prop(style, LV_STYLE_TRANSLATE_X, &v)) layout_diff = true;
 1186              		.loc 1 417 20 view .LVU350
 1187 00d2 0028     		cmp	r0, #0
 1188 00d4 9DD1     		bne	.L70
 418:Drivers/lvgl/src/core/lv_obj_style.c ****             else if(lv_style_get_prop(style, LV_STYLE_TRANSLATE_Y, &v)) layout_diff = true;
 1189              		.loc 1 418 18 is_stmt 1 view .LVU351
 418:Drivers/lvgl/src/core/lv_obj_style.c ****             else if(lv_style_get_prop(style, LV_STYLE_TRANSLATE_Y, &v)) layout_diff = true;
 1190              		.loc 1 418 21 is_stmt 0 view .LVU352
 1191 00d6 01AA     		add	r2, sp, #4
 1192 00d8 6B21     		movs	r1, #107
 1193 00da 2046     		mov	r0, r4
 1194 00dc FFF7FEFF 		bl	lv_style_get_prop
 1195              	.LVL118:
 418:Drivers/lvgl/src/core/lv_obj_style.c ****             else if(lv_style_get_prop(style, LV_STYLE_TRANSLATE_Y, &v)) layout_diff = true;
 1196              		.loc 1 418 20 view .LVU353
 1197 00e0 0028     		cmp	r0, #0
 1198 00e2 96D1     		bne	.L70
 419:Drivers/lvgl/src/core/lv_obj_style.c ****             else if(lv_style_get_prop(style, LV_STYLE_WIDTH, &v)) layout_diff = true;
 1199              		.loc 1 419 18 is_stmt 1 view .LVU354
 419:Drivers/lvgl/src/core/lv_obj_style.c ****             else if(lv_style_get_prop(style, LV_STYLE_WIDTH, &v)) layout_diff = true;
 1200              		.loc 1 419 21 is_stmt 0 view .LVU355
 1201 00e4 01AA     		add	r2, sp, #4
 1202 00e6 6C21     		movs	r1, #108
 1203 00e8 2046     		mov	r0, r4
 1204 00ea FFF7FEFF 		bl	lv_style_get_prop
 1205              	.LVL119:
 419:Drivers/lvgl/src/core/lv_obj_style.c ****             else if(lv_style_get_prop(style, LV_STYLE_WIDTH, &v)) layout_diff = true;
 1206              		.loc 1 419 20 view .LVU356
 1207 00ee 0028     		cmp	r0, #0
 1208 00f0 8FD1     		bne	.L70
ARM GAS  /var/folders/0z/tsy30v1j4xl4_7kw94k978ww0000gn/T//cc8A9NTU.s 			page 47


 420:Drivers/lvgl/src/core/lv_obj_style.c ****             else if(lv_style_get_prop(style, LV_STYLE_HEIGHT, &v)) layout_diff = true;
 1209              		.loc 1 420 18 is_stmt 1 view .LVU357
 420:Drivers/lvgl/src/core/lv_obj_style.c ****             else if(lv_style_get_prop(style, LV_STYLE_HEIGHT, &v)) layout_diff = true;
 1210              		.loc 1 420 21 is_stmt 0 view .LVU358
 1211 00f2 01AA     		add	r2, sp, #4
 1212 00f4 0121     		movs	r1, #1
 1213 00f6 2046     		mov	r0, r4
 1214 00f8 FFF7FEFF 		bl	lv_style_get_prop
 1215              	.LVL120:
 420:Drivers/lvgl/src/core/lv_obj_style.c ****             else if(lv_style_get_prop(style, LV_STYLE_HEIGHT, &v)) layout_diff = true;
 1216              		.loc 1 420 20 view .LVU359
 1217 00fc 0028     		cmp	r0, #0
 1218 00fe 88D1     		bne	.L70
 421:Drivers/lvgl/src/core/lv_obj_style.c ****             else if(lv_style_get_prop(style, LV_STYLE_MIN_WIDTH, &v)) layout_diff = true;
 1219              		.loc 1 421 18 is_stmt 1 view .LVU360
 421:Drivers/lvgl/src/core/lv_obj_style.c ****             else if(lv_style_get_prop(style, LV_STYLE_MIN_WIDTH, &v)) layout_diff = true;
 1220              		.loc 1 421 21 is_stmt 0 view .LVU361
 1221 0100 01AA     		add	r2, sp, #4
 1222 0102 0421     		movs	r1, #4
 1223 0104 2046     		mov	r0, r4
 1224 0106 FFF7FEFF 		bl	lv_style_get_prop
 1225              	.LVL121:
 421:Drivers/lvgl/src/core/lv_obj_style.c ****             else if(lv_style_get_prop(style, LV_STYLE_MIN_WIDTH, &v)) layout_diff = true;
 1226              		.loc 1 421 20 view .LVU362
 1227 010a 0028     		cmp	r0, #0
 1228 010c 81D1     		bne	.L70
 422:Drivers/lvgl/src/core/lv_obj_style.c ****             else if(lv_style_get_prop(style, LV_STYLE_MAX_WIDTH, &v)) layout_diff = true;
 1229              		.loc 1 422 18 is_stmt 1 view .LVU363
 422:Drivers/lvgl/src/core/lv_obj_style.c ****             else if(lv_style_get_prop(style, LV_STYLE_MAX_WIDTH, &v)) layout_diff = true;
 1230              		.loc 1 422 21 is_stmt 0 view .LVU364
 1231 010e 01AA     		add	r2, sp, #4
 1232 0110 0221     		movs	r1, #2
 1233 0112 2046     		mov	r0, r4
 1234 0114 FFF7FEFF 		bl	lv_style_get_prop
 1235              	.LVL122:
 422:Drivers/lvgl/src/core/lv_obj_style.c ****             else if(lv_style_get_prop(style, LV_STYLE_MAX_WIDTH, &v)) layout_diff = true;
 1236              		.loc 1 422 20 view .LVU365
 1237 0118 0028     		cmp	r0, #0
 1238 011a 7FF47AAF 		bne	.L70
 423:Drivers/lvgl/src/core/lv_obj_style.c ****             else if(lv_style_get_prop(style, LV_STYLE_MIN_HEIGHT, &v)) layout_diff = true;
 1239              		.loc 1 423 18 is_stmt 1 view .LVU366
 423:Drivers/lvgl/src/core/lv_obj_style.c ****             else if(lv_style_get_prop(style, LV_STYLE_MIN_HEIGHT, &v)) layout_diff = true;
 1240              		.loc 1 423 21 is_stmt 0 view .LVU367
 1241 011e 01AA     		add	r2, sp, #4
 1242 0120 0321     		movs	r1, #3
 1243 0122 2046     		mov	r0, r4
 1244 0124 FFF7FEFF 		bl	lv_style_get_prop
 1245              	.LVL123:
 423:Drivers/lvgl/src/core/lv_obj_style.c ****             else if(lv_style_get_prop(style, LV_STYLE_MIN_HEIGHT, &v)) layout_diff = true;
 1246              		.loc 1 423 20 view .LVU368
 1247 0128 0028     		cmp	r0, #0
 1248 012a 7FF472AF 		bne	.L70
 424:Drivers/lvgl/src/core/lv_obj_style.c ****             else if(lv_style_get_prop(style, LV_STYLE_MAX_HEIGHT, &v)) layout_diff = true;
 1249              		.loc 1 424 18 is_stmt 1 view .LVU369
 424:Drivers/lvgl/src/core/lv_obj_style.c ****             else if(lv_style_get_prop(style, LV_STYLE_MAX_HEIGHT, &v)) layout_diff = true;
 1250              		.loc 1 424 21 is_stmt 0 view .LVU370
 1251 012e 01AA     		add	r2, sp, #4
ARM GAS  /var/folders/0z/tsy30v1j4xl4_7kw94k978ww0000gn/T//cc8A9NTU.s 			page 48


 1252 0130 0521     		movs	r1, #5
 1253 0132 2046     		mov	r0, r4
 1254 0134 FFF7FEFF 		bl	lv_style_get_prop
 1255              	.LVL124:
 424:Drivers/lvgl/src/core/lv_obj_style.c ****             else if(lv_style_get_prop(style, LV_STYLE_MAX_HEIGHT, &v)) layout_diff = true;
 1256              		.loc 1 424 20 view .LVU371
 1257 0138 0028     		cmp	r0, #0
 1258 013a 7FF46AAF 		bne	.L70
 425:Drivers/lvgl/src/core/lv_obj_style.c ****             else if(lv_style_get_prop(style, LV_STYLE_BORDER_WIDTH, &v)) layout_diff = true;
 1259              		.loc 1 425 18 is_stmt 1 view .LVU372
 425:Drivers/lvgl/src/core/lv_obj_style.c ****             else if(lv_style_get_prop(style, LV_STYLE_BORDER_WIDTH, &v)) layout_diff = true;
 1260              		.loc 1 425 21 is_stmt 0 view .LVU373
 1261 013e 01AA     		add	r2, sp, #4
 1262 0140 0621     		movs	r1, #6
 1263 0142 2046     		mov	r0, r4
 1264 0144 FFF7FEFF 		bl	lv_style_get_prop
 1265              	.LVL125:
 425:Drivers/lvgl/src/core/lv_obj_style.c ****             else if(lv_style_get_prop(style, LV_STYLE_BORDER_WIDTH, &v)) layout_diff = true;
 1266              		.loc 1 425 20 view .LVU374
 1267 0148 0028     		cmp	r0, #0
 1268 014a 7FF462AF 		bne	.L70
 426:Drivers/lvgl/src/core/lv_obj_style.c ****             else if(lv_style_get_prop(style, LV_STYLE_TRANSFORM_ANGLE, &v)) layout_diff = true;
 1269              		.loc 1 426 18 is_stmt 1 view .LVU375
 426:Drivers/lvgl/src/core/lv_obj_style.c ****             else if(lv_style_get_prop(style, LV_STYLE_TRANSFORM_ANGLE, &v)) layout_diff = true;
 1270              		.loc 1 426 21 is_stmt 0 view .LVU376
 1271 014e 01AA     		add	r2, sp, #4
 1272 0150 3221     		movs	r1, #50
 1273 0152 2046     		mov	r0, r4
 1274 0154 FFF7FEFF 		bl	lv_style_get_prop
 1275              	.LVL126:
 426:Drivers/lvgl/src/core/lv_obj_style.c ****             else if(lv_style_get_prop(style, LV_STYLE_TRANSFORM_ANGLE, &v)) layout_diff = true;
 1276              		.loc 1 426 20 view .LVU377
 1277 0158 0028     		cmp	r0, #0
 1278 015a 7FF45AAF 		bne	.L70
 427:Drivers/lvgl/src/core/lv_obj_style.c ****             else if(lv_style_get_prop(style, LV_STYLE_TRANSFORM_ZOOM, &v)) layout_diff = true;
 1279              		.loc 1 427 18 is_stmt 1 view .LVU378
 427:Drivers/lvgl/src/core/lv_obj_style.c ****             else if(lv_style_get_prop(style, LV_STYLE_TRANSFORM_ZOOM, &v)) layout_diff = true;
 1280              		.loc 1 427 21 is_stmt 0 view .LVU379
 1281 015e 01AA     		add	r2, sp, #4
 1282 0160 6E21     		movs	r1, #110
 1283 0162 2046     		mov	r0, r4
 1284 0164 FFF7FEFF 		bl	lv_style_get_prop
 1285              	.LVL127:
 427:Drivers/lvgl/src/core/lv_obj_style.c ****             else if(lv_style_get_prop(style, LV_STYLE_TRANSFORM_ZOOM, &v)) layout_diff = true;
 1286              		.loc 1 427 20 view .LVU380
 1287 0168 0028     		cmp	r0, #0
 1288 016a 7FF452AF 		bne	.L70
 428:Drivers/lvgl/src/core/lv_obj_style.c **** 
 1289              		.loc 1 428 18 is_stmt 1 view .LVU381
 428:Drivers/lvgl/src/core/lv_obj_style.c **** 
 1290              		.loc 1 428 21 is_stmt 0 view .LVU382
 1291 016e 01AA     		add	r2, sp, #4
 1292 0170 6D21     		movs	r1, #109
 1293 0172 2046     		mov	r0, r4
 1294 0174 FFF7FEFF 		bl	lv_style_get_prop
 1295              	.LVL128:
 428:Drivers/lvgl/src/core/lv_obj_style.c **** 
ARM GAS  /var/folders/0z/tsy30v1j4xl4_7kw94k978ww0000gn/T//cc8A9NTU.s 			page 49


 1296              		.loc 1 428 20 view .LVU383
 1297 0178 0028     		cmp	r0, #0
 1298 017a 7FF44AAF 		bne	.L70
 430:Drivers/lvgl/src/core/lv_obj_style.c ****                 return _LV_STYLE_STATE_CMP_DIFF_LAYOUT;
 1299              		.loc 1 430 13 is_stmt 1 view .LVU384
 435:Drivers/lvgl/src/core/lv_obj_style.c ****             else if(lv_style_get_prop(style, LV_STYLE_TRANSFORM_HEIGHT, &v)) res = _LV_STYLE_STATE_
 1300              		.loc 1 435 13 view .LVU385
 435:Drivers/lvgl/src/core/lv_obj_style.c ****             else if(lv_style_get_prop(style, LV_STYLE_TRANSFORM_HEIGHT, &v)) res = _LV_STYLE_STATE_
 1301              		.loc 1 435 16 is_stmt 0 view .LVU386
 1302 017e 01AA     		add	r2, sp, #4
 1303 0180 6921     		movs	r1, #105
 1304 0182 2046     		mov	r0, r4
 1305 0184 FFF7FEFF 		bl	lv_style_get_prop
 1306              	.LVL129:
 435:Drivers/lvgl/src/core/lv_obj_style.c ****             else if(lv_style_get_prop(style, LV_STYLE_TRANSFORM_HEIGHT, &v)) res = _LV_STYLE_STATE_
 1307              		.loc 1 435 15 view .LVU387
 1308 0188 0028     		cmp	r0, #0
 1309 018a 3FF448AF 		beq	.L92
 435:Drivers/lvgl/src/core/lv_obj_style.c ****             else if(lv_style_get_prop(style, LV_STYLE_TRANSFORM_HEIGHT, &v)) res = _LV_STYLE_STATE_
 1310              		.loc 1 435 76 view .LVU388
 1311 018e 4FF00209 		mov	r9, #2
 1312              	.LVL130:
 435:Drivers/lvgl/src/core/lv_obj_style.c ****             else if(lv_style_get_prop(style, LV_STYLE_TRANSFORM_HEIGHT, &v)) res = _LV_STYLE_STATE_
 1313              		.loc 1 435 76 view .LVU389
 1314 0192 4EE7     		b	.L69
 1315              	.LVL131:
 1316              	.L91:
 437:Drivers/lvgl/src/core/lv_obj_style.c ****             else if(lv_style_get_prop(style, LV_STYLE_TRANSFORM_ZOOM, &v)) res = _LV_STYLE_STATE_CM
 1317              		.loc 1 437 18 is_stmt 1 view .LVU390
 437:Drivers/lvgl/src/core/lv_obj_style.c ****             else if(lv_style_get_prop(style, LV_STYLE_TRANSFORM_ZOOM, &v)) res = _LV_STYLE_STATE_CM
 1318              		.loc 1 437 21 is_stmt 0 view .LVU391
 1319 0194 01AA     		add	r2, sp, #4
 1320 0196 6E21     		movs	r1, #110
 1321 0198 2046     		mov	r0, r4
 1322 019a FFF7FEFF 		bl	lv_style_get_prop
 1323              	.LVL132:
 437:Drivers/lvgl/src/core/lv_obj_style.c ****             else if(lv_style_get_prop(style, LV_STYLE_TRANSFORM_ZOOM, &v)) res = _LV_STYLE_STATE_CM
 1324              		.loc 1 437 20 view .LVU392
 1325 019e 10B1     		cbz	r0, .L93
 437:Drivers/lvgl/src/core/lv_obj_style.c ****             else if(lv_style_get_prop(style, LV_STYLE_TRANSFORM_ZOOM, &v)) res = _LV_STYLE_STATE_CM
 1326              		.loc 1 437 81 view .LVU393
 1327 01a0 4FF00209 		mov	r9, #2
 1328              	.LVL133:
 437:Drivers/lvgl/src/core/lv_obj_style.c ****             else if(lv_style_get_prop(style, LV_STYLE_TRANSFORM_ZOOM, &v)) res = _LV_STYLE_STATE_CM
 1329              		.loc 1 437 81 view .LVU394
 1330 01a4 45E7     		b	.L69
 1331              	.LVL134:
 1332              	.L93:
 438:Drivers/lvgl/src/core/lv_obj_style.c ****             else if(lv_style_get_prop(style, LV_STYLE_OUTLINE_OPA, &v)) res = _LV_STYLE_STATE_CMP_D
 1333              		.loc 1 438 18 is_stmt 1 view .LVU395
 438:Drivers/lvgl/src/core/lv_obj_style.c ****             else if(lv_style_get_prop(style, LV_STYLE_OUTLINE_OPA, &v)) res = _LV_STYLE_STATE_CMP_D
 1334              		.loc 1 438 21 is_stmt 0 view .LVU396
 1335 01a6 01AA     		add	r2, sp, #4
 1336 01a8 6D21     		movs	r1, #109
 1337 01aa 2046     		mov	r0, r4
 1338 01ac FFF7FEFF 		bl	lv_style_get_prop
 1339              	.LVL135:
ARM GAS  /var/folders/0z/tsy30v1j4xl4_7kw94k978ww0000gn/T//cc8A9NTU.s 			page 50


 438:Drivers/lvgl/src/core/lv_obj_style.c ****             else if(lv_style_get_prop(style, LV_STYLE_OUTLINE_OPA, &v)) res = _LV_STYLE_STATE_CMP_D
 1340              		.loc 1 438 20 view .LVU397
 1341 01b0 10B1     		cbz	r0, .L94
 438:Drivers/lvgl/src/core/lv_obj_style.c ****             else if(lv_style_get_prop(style, LV_STYLE_OUTLINE_OPA, &v)) res = _LV_STYLE_STATE_CMP_D
 1342              		.loc 1 438 80 view .LVU398
 1343 01b2 4FF00209 		mov	r9, #2
 1344              	.LVL136:
 438:Drivers/lvgl/src/core/lv_obj_style.c ****             else if(lv_style_get_prop(style, LV_STYLE_OUTLINE_OPA, &v)) res = _LV_STYLE_STATE_CMP_D
 1345              		.loc 1 438 80 view .LVU399
 1346 01b6 3CE7     		b	.L69
 1347              	.LVL137:
 1348              	.L94:
 439:Drivers/lvgl/src/core/lv_obj_style.c ****             else if(lv_style_get_prop(style, LV_STYLE_OUTLINE_PAD, &v)) res = _LV_STYLE_STATE_CMP_D
 1349              		.loc 1 439 18 is_stmt 1 view .LVU400
 439:Drivers/lvgl/src/core/lv_obj_style.c ****             else if(lv_style_get_prop(style, LV_STYLE_OUTLINE_PAD, &v)) res = _LV_STYLE_STATE_CMP_D
 1350              		.loc 1 439 21 is_stmt 0 view .LVU401
 1351 01b8 01AA     		add	r2, sp, #4
 1352 01ba 3721     		movs	r1, #55
 1353 01bc 2046     		mov	r0, r4
 1354 01be FFF7FEFF 		bl	lv_style_get_prop
 1355              	.LVL138:
 439:Drivers/lvgl/src/core/lv_obj_style.c ****             else if(lv_style_get_prop(style, LV_STYLE_OUTLINE_PAD, &v)) res = _LV_STYLE_STATE_CMP_D
 1356              		.loc 1 439 20 view .LVU402
 1357 01c2 10B1     		cbz	r0, .L95
 439:Drivers/lvgl/src/core/lv_obj_style.c ****             else if(lv_style_get_prop(style, LV_STYLE_OUTLINE_PAD, &v)) res = _LV_STYLE_STATE_CMP_D
 1358              		.loc 1 439 77 view .LVU403
 1359 01c4 4FF00209 		mov	r9, #2
 1360              	.LVL139:
 439:Drivers/lvgl/src/core/lv_obj_style.c ****             else if(lv_style_get_prop(style, LV_STYLE_OUTLINE_PAD, &v)) res = _LV_STYLE_STATE_CMP_D
 1361              		.loc 1 439 77 view .LVU404
 1362 01c8 33E7     		b	.L69
 1363              	.LVL140:
 1364              	.L95:
 440:Drivers/lvgl/src/core/lv_obj_style.c ****             else if(lv_style_get_prop(style, LV_STYLE_OUTLINE_WIDTH, &v)) res = _LV_STYLE_STATE_CMP
 1365              		.loc 1 440 18 is_stmt 1 view .LVU405
 440:Drivers/lvgl/src/core/lv_obj_style.c ****             else if(lv_style_get_prop(style, LV_STYLE_OUTLINE_WIDTH, &v)) res = _LV_STYLE_STATE_CMP
 1366              		.loc 1 440 21 is_stmt 0 view .LVU406
 1367 01ca 01AA     		add	r2, sp, #4
 1368 01cc 3821     		movs	r1, #56
 1369 01ce 2046     		mov	r0, r4
 1370 01d0 FFF7FEFF 		bl	lv_style_get_prop
 1371              	.LVL141:
 440:Drivers/lvgl/src/core/lv_obj_style.c ****             else if(lv_style_get_prop(style, LV_STYLE_OUTLINE_WIDTH, &v)) res = _LV_STYLE_STATE_CMP
 1372              		.loc 1 440 20 view .LVU407
 1373 01d4 10B1     		cbz	r0, .L96
 440:Drivers/lvgl/src/core/lv_obj_style.c ****             else if(lv_style_get_prop(style, LV_STYLE_OUTLINE_WIDTH, &v)) res = _LV_STYLE_STATE_CMP
 1374              		.loc 1 440 77 view .LVU408
 1375 01d6 4FF00209 		mov	r9, #2
 1376              	.LVL142:
 440:Drivers/lvgl/src/core/lv_obj_style.c ****             else if(lv_style_get_prop(style, LV_STYLE_OUTLINE_WIDTH, &v)) res = _LV_STYLE_STATE_CMP
 1377              		.loc 1 440 77 view .LVU409
 1378 01da 2AE7     		b	.L69
 1379              	.LVL143:
 1380              	.L96:
 441:Drivers/lvgl/src/core/lv_obj_style.c ****             else if(lv_style_get_prop(style, LV_STYLE_SHADOW_WIDTH, &v)) res = _LV_STYLE_STATE_CMP_
 1381              		.loc 1 441 18 is_stmt 1 view .LVU410
 441:Drivers/lvgl/src/core/lv_obj_style.c ****             else if(lv_style_get_prop(style, LV_STYLE_SHADOW_WIDTH, &v)) res = _LV_STYLE_STATE_CMP_
ARM GAS  /var/folders/0z/tsy30v1j4xl4_7kw94k978ww0000gn/T//cc8A9NTU.s 			page 51


 1382              		.loc 1 441 21 is_stmt 0 view .LVU411
 1383 01dc 01AA     		add	r2, sp, #4
 1384 01de 3521     		movs	r1, #53
 1385 01e0 2046     		mov	r0, r4
 1386 01e2 FFF7FEFF 		bl	lv_style_get_prop
 1387              	.LVL144:
 441:Drivers/lvgl/src/core/lv_obj_style.c ****             else if(lv_style_get_prop(style, LV_STYLE_SHADOW_WIDTH, &v)) res = _LV_STYLE_STATE_CMP_
 1388              		.loc 1 441 20 view .LVU412
 1389 01e6 10B1     		cbz	r0, .L97
 441:Drivers/lvgl/src/core/lv_obj_style.c ****             else if(lv_style_get_prop(style, LV_STYLE_SHADOW_WIDTH, &v)) res = _LV_STYLE_STATE_CMP_
 1390              		.loc 1 441 79 view .LVU413
 1391 01e8 4FF00209 		mov	r9, #2
 1392              	.LVL145:
 441:Drivers/lvgl/src/core/lv_obj_style.c ****             else if(lv_style_get_prop(style, LV_STYLE_SHADOW_WIDTH, &v)) res = _LV_STYLE_STATE_CMP_
 1393              		.loc 1 441 79 view .LVU414
 1394 01ec 21E7     		b	.L69
 1395              	.LVL146:
 1396              	.L97:
 442:Drivers/lvgl/src/core/lv_obj_style.c ****             else if(lv_style_get_prop(style, LV_STYLE_SHADOW_OPA, &v)) res = _LV_STYLE_STATE_CMP_DI
 1397              		.loc 1 442 18 is_stmt 1 view .LVU415
 442:Drivers/lvgl/src/core/lv_obj_style.c ****             else if(lv_style_get_prop(style, LV_STYLE_SHADOW_OPA, &v)) res = _LV_STYLE_STATE_CMP_DI
 1398              		.loc 1 442 21 is_stmt 0 view .LVU416
 1399 01ee 01AA     		add	r2, sp, #4
 1400 01f0 4021     		movs	r1, #64
 1401 01f2 2046     		mov	r0, r4
 1402 01f4 FFF7FEFF 		bl	lv_style_get_prop
 1403              	.LVL147:
 442:Drivers/lvgl/src/core/lv_obj_style.c ****             else if(lv_style_get_prop(style, LV_STYLE_SHADOW_OPA, &v)) res = _LV_STYLE_STATE_CMP_DI
 1404              		.loc 1 442 20 view .LVU417
 1405 01f8 10B1     		cbz	r0, .L98
 442:Drivers/lvgl/src/core/lv_obj_style.c ****             else if(lv_style_get_prop(style, LV_STYLE_SHADOW_OPA, &v)) res = _LV_STYLE_STATE_CMP_DI
 1406              		.loc 1 442 78 view .LVU418
 1407 01fa 4FF00209 		mov	r9, #2
 1408              	.LVL148:
 442:Drivers/lvgl/src/core/lv_obj_style.c ****             else if(lv_style_get_prop(style, LV_STYLE_SHADOW_OPA, &v)) res = _LV_STYLE_STATE_CMP_DI
 1409              		.loc 1 442 78 view .LVU419
 1410 01fe 18E7     		b	.L69
 1411              	.LVL149:
 1412              	.L98:
 443:Drivers/lvgl/src/core/lv_obj_style.c ****             else if(lv_style_get_prop(style, LV_STYLE_SHADOW_OFS_X, &v)) res = _LV_STYLE_STATE_CMP_
 1413              		.loc 1 443 18 is_stmt 1 view .LVU420
 443:Drivers/lvgl/src/core/lv_obj_style.c ****             else if(lv_style_get_prop(style, LV_STYLE_SHADOW_OFS_X, &v)) res = _LV_STYLE_STATE_CMP_
 1414              		.loc 1 443 21 is_stmt 0 view .LVU421
 1415 0200 01AA     		add	r2, sp, #4
 1416 0202 4521     		movs	r1, #69
 1417 0204 2046     		mov	r0, r4
 1418 0206 FFF7FEFF 		bl	lv_style_get_prop
 1419              	.LVL150:
 443:Drivers/lvgl/src/core/lv_obj_style.c ****             else if(lv_style_get_prop(style, LV_STYLE_SHADOW_OFS_X, &v)) res = _LV_STYLE_STATE_CMP_
 1420              		.loc 1 443 20 view .LVU422
 1421 020a 10B1     		cbz	r0, .L99
 443:Drivers/lvgl/src/core/lv_obj_style.c ****             else if(lv_style_get_prop(style, LV_STYLE_SHADOW_OFS_X, &v)) res = _LV_STYLE_STATE_CMP_
 1422              		.loc 1 443 76 view .LVU423
 1423 020c 4FF00209 		mov	r9, #2
 1424              	.LVL151:
 443:Drivers/lvgl/src/core/lv_obj_style.c ****             else if(lv_style_get_prop(style, LV_STYLE_SHADOW_OFS_X, &v)) res = _LV_STYLE_STATE_CMP_
 1425              		.loc 1 443 76 view .LVU424
ARM GAS  /var/folders/0z/tsy30v1j4xl4_7kw94k978ww0000gn/T//cc8A9NTU.s 			page 52


 1426 0210 0FE7     		b	.L69
 1427              	.LVL152:
 1428              	.L99:
 444:Drivers/lvgl/src/core/lv_obj_style.c ****             else if(lv_style_get_prop(style, LV_STYLE_SHADOW_OFS_Y, &v)) res = _LV_STYLE_STATE_CMP_
 1429              		.loc 1 444 18 is_stmt 1 view .LVU425
 444:Drivers/lvgl/src/core/lv_obj_style.c ****             else if(lv_style_get_prop(style, LV_STYLE_SHADOW_OFS_Y, &v)) res = _LV_STYLE_STATE_CMP_
 1430              		.loc 1 444 21 is_stmt 0 view .LVU426
 1431 0212 01AA     		add	r2, sp, #4
 1432 0214 4121     		movs	r1, #65
 1433 0216 2046     		mov	r0, r4
 1434 0218 FFF7FEFF 		bl	lv_style_get_prop
 1435              	.LVL153:
 444:Drivers/lvgl/src/core/lv_obj_style.c ****             else if(lv_style_get_prop(style, LV_STYLE_SHADOW_OFS_Y, &v)) res = _LV_STYLE_STATE_CMP_
 1436              		.loc 1 444 20 view .LVU427
 1437 021c 10B1     		cbz	r0, .L100
 444:Drivers/lvgl/src/core/lv_obj_style.c ****             else if(lv_style_get_prop(style, LV_STYLE_SHADOW_OFS_Y, &v)) res = _LV_STYLE_STATE_CMP_
 1438              		.loc 1 444 78 view .LVU428
 1439 021e 4FF00209 		mov	r9, #2
 1440              	.LVL154:
 444:Drivers/lvgl/src/core/lv_obj_style.c ****             else if(lv_style_get_prop(style, LV_STYLE_SHADOW_OFS_Y, &v)) res = _LV_STYLE_STATE_CMP_
 1441              		.loc 1 444 78 view .LVU429
 1442 0222 06E7     		b	.L69
 1443              	.LVL155:
 1444              	.L100:
 445:Drivers/lvgl/src/core/lv_obj_style.c ****             else if(lv_style_get_prop(style, LV_STYLE_SHADOW_SPREAD, &v)) res = _LV_STYLE_STATE_CMP
 1445              		.loc 1 445 18 is_stmt 1 view .LVU430
 445:Drivers/lvgl/src/core/lv_obj_style.c ****             else if(lv_style_get_prop(style, LV_STYLE_SHADOW_SPREAD, &v)) res = _LV_STYLE_STATE_CMP
 1446              		.loc 1 445 21 is_stmt 0 view .LVU431
 1447 0224 01AA     		add	r2, sp, #4
 1448 0226 4221     		movs	r1, #66
 1449 0228 2046     		mov	r0, r4
 1450 022a FFF7FEFF 		bl	lv_style_get_prop
 1451              	.LVL156:
 445:Drivers/lvgl/src/core/lv_obj_style.c ****             else if(lv_style_get_prop(style, LV_STYLE_SHADOW_SPREAD, &v)) res = _LV_STYLE_STATE_CMP
 1452              		.loc 1 445 20 view .LVU432
 1453 022e 10B1     		cbz	r0, .L101
 445:Drivers/lvgl/src/core/lv_obj_style.c ****             else if(lv_style_get_prop(style, LV_STYLE_SHADOW_SPREAD, &v)) res = _LV_STYLE_STATE_CMP
 1454              		.loc 1 445 78 view .LVU433
 1455 0230 4FF00209 		mov	r9, #2
 1456              	.LVL157:
 445:Drivers/lvgl/src/core/lv_obj_style.c ****             else if(lv_style_get_prop(style, LV_STYLE_SHADOW_SPREAD, &v)) res = _LV_STYLE_STATE_CMP
 1457              		.loc 1 445 78 view .LVU434
 1458 0234 FDE6     		b	.L69
 1459              	.LVL158:
 1460              	.L101:
 446:Drivers/lvgl/src/core/lv_obj_style.c ****             else if(lv_style_get_prop(style, LV_STYLE_LINE_WIDTH, &v)) res = _LV_STYLE_STATE_CMP_DI
 1461              		.loc 1 446 18 is_stmt 1 view .LVU435
 446:Drivers/lvgl/src/core/lv_obj_style.c ****             else if(lv_style_get_prop(style, LV_STYLE_LINE_WIDTH, &v)) res = _LV_STYLE_STATE_CMP_DI
 1462              		.loc 1 446 21 is_stmt 0 view .LVU436
 1463 0236 01AA     		add	r2, sp, #4
 1464 0238 4321     		movs	r1, #67
 1465 023a 2046     		mov	r0, r4
 1466 023c FFF7FEFF 		bl	lv_style_get_prop
 1467              	.LVL159:
 446:Drivers/lvgl/src/core/lv_obj_style.c ****             else if(lv_style_get_prop(style, LV_STYLE_LINE_WIDTH, &v)) res = _LV_STYLE_STATE_CMP_DI
 1468              		.loc 1 446 20 view .LVU437
 1469 0240 10B1     		cbz	r0, .L102
ARM GAS  /var/folders/0z/tsy30v1j4xl4_7kw94k978ww0000gn/T//cc8A9NTU.s 			page 53


 446:Drivers/lvgl/src/core/lv_obj_style.c ****             else if(lv_style_get_prop(style, LV_STYLE_LINE_WIDTH, &v)) res = _LV_STYLE_STATE_CMP_DI
 1470              		.loc 1 446 79 view .LVU438
 1471 0242 4FF00209 		mov	r9, #2
 1472              	.LVL160:
 446:Drivers/lvgl/src/core/lv_obj_style.c ****             else if(lv_style_get_prop(style, LV_STYLE_LINE_WIDTH, &v)) res = _LV_STYLE_STATE_CMP_DI
 1473              		.loc 1 446 79 view .LVU439
 1474 0246 F4E6     		b	.L69
 1475              	.LVL161:
 1476              	.L102:
 447:Drivers/lvgl/src/core/lv_obj_style.c ****             else if(res == _LV_STYLE_STATE_CMP_SAME) res = _LV_STYLE_STATE_CMP_DIFF_REDRAW;
 1477              		.loc 1 447 18 is_stmt 1 view .LVU440
 447:Drivers/lvgl/src/core/lv_obj_style.c ****             else if(res == _LV_STYLE_STATE_CMP_SAME) res = _LV_STYLE_STATE_CMP_DIFF_REDRAW;
 1478              		.loc 1 447 21 is_stmt 0 view .LVU441
 1479 0248 01AA     		add	r2, sp, #4
 1480 024a 4921     		movs	r1, #73
 1481 024c 2046     		mov	r0, r4
 1482 024e FFF7FEFF 		bl	lv_style_get_prop
 1483              	.LVL162:
 447:Drivers/lvgl/src/core/lv_obj_style.c ****             else if(res == _LV_STYLE_STATE_CMP_SAME) res = _LV_STYLE_STATE_CMP_DIFF_REDRAW;
 1484              		.loc 1 447 20 view .LVU442
 1485 0252 30B9     		cbnz	r0, .L87
 448:Drivers/lvgl/src/core/lv_obj_style.c ****         }
 1486              		.loc 1 448 18 is_stmt 1 view .LVU443
 448:Drivers/lvgl/src/core/lv_obj_style.c ****         }
 1487              		.loc 1 448 20 is_stmt 0 view .LVU444
 1488 0254 B9F1000F 		cmp	r9, #0
 1489 0258 7FF4EBAE 		bne	.L69
 448:Drivers/lvgl/src/core/lv_obj_style.c ****         }
 1490              		.loc 1 448 58 view .LVU445
 1491 025c 4FF00109 		mov	r9, #1
 1492              	.LVL163:
 448:Drivers/lvgl/src/core/lv_obj_style.c ****         }
 1493              		.loc 1 448 58 view .LVU446
 1494 0260 E7E6     		b	.L69
 1495              	.LVL164:
 1496              	.L87:
 447:Drivers/lvgl/src/core/lv_obj_style.c ****             else if(res == _LV_STYLE_STATE_CMP_SAME) res = _LV_STYLE_STATE_CMP_DIFF_REDRAW;
 1497              		.loc 1 447 76 view .LVU447
 1498 0262 4FF00209 		mov	r9, #2
 1499              	.LVL165:
 447:Drivers/lvgl/src/core/lv_obj_style.c ****             else if(res == _LV_STYLE_STATE_CMP_SAME) res = _LV_STYLE_STATE_CMP_DIFF_REDRAW;
 1500              		.loc 1 447 76 view .LVU448
 1501 0266 E4E6     		b	.L69
 1502              	.LBE104:
 1503              	.LBE106:
 1504              		.cfi_endproc
 1505              	.LFE180:
 1507              		.section	.text.lv_obj_style_get_selector_part,"ax",%progbits
 1508              		.align	1
 1509              		.global	lv_obj_style_get_selector_part
 1510              		.syntax unified
 1511              		.thumb
 1512              		.thumb_func
 1514              	lv_obj_style_get_selector_part:
 1515              	.LVL166:
 1516              	.LFB184:
 486:Drivers/lvgl/src/core/lv_obj_style.c ****     return selector & 0xFF0000;
ARM GAS  /var/folders/0z/tsy30v1j4xl4_7kw94k978ww0000gn/T//cc8A9NTU.s 			page 54


 1517              		.loc 1 486 1 is_stmt 1 view -0
 1518              		.cfi_startproc
 1519              		@ args = 0, pretend = 0, frame = 0
 1520              		@ frame_needed = 0, uses_anonymous_args = 0
 1521              		@ link register save eliminated.
 487:Drivers/lvgl/src/core/lv_obj_style.c **** }
 1522              		.loc 1 487 5 view .LVU450
 488:Drivers/lvgl/src/core/lv_obj_style.c **** 
 1523              		.loc 1 488 1 is_stmt 0 view .LVU451
 1524 0000 00F47F00 		and	r0, r0, #16711680
 1525              	.LVL167:
 488:Drivers/lvgl/src/core/lv_obj_style.c **** 
 1526              		.loc 1 488 1 view .LVU452
 1527 0004 7047     		bx	lr
 1528              		.cfi_endproc
 1529              	.LFE184:
 1531              		.section	.text.get_prop_core,"ax",%progbits
 1532              		.align	1
 1533              		.syntax unified
 1534              		.thumb
 1535              		.thumb_func
 1537              	get_prop_core:
 1538              	.LVL168:
 1539              	.LFB189:
 607:Drivers/lvgl/src/core/lv_obj_style.c ****     uint8_t group = 1 << _lv_style_get_prop_group(prop);
 1540              		.loc 1 607 1 is_stmt 1 view -0
 1541              		.cfi_startproc
 1542              		@ args = 0, pretend = 0, frame = 24
 1543              		@ frame_needed = 0, uses_anonymous_args = 0
 607:Drivers/lvgl/src/core/lv_obj_style.c ****     uint8_t group = 1 << _lv_style_get_prop_group(prop);
 1544              		.loc 1 607 1 is_stmt 0 view .LVU454
 1545 0000 2DE9F04F 		push	{r4, r5, r6, r7, r8, r9, r10, fp, lr}
 1546              		.cfi_def_cfa_offset 36
 1547              		.cfi_offset 4, -36
 1548              		.cfi_offset 5, -32
 1549              		.cfi_offset 6, -28
 1550              		.cfi_offset 7, -24
 1551              		.cfi_offset 8, -20
 1552              		.cfi_offset 9, -16
 1553              		.cfi_offset 10, -12
 1554              		.cfi_offset 11, -8
 1555              		.cfi_offset 14, -4
 1556 0004 87B0     		sub	sp, sp, #28
 1557              		.cfi_def_cfa_offset 64
 1558 0006 0546     		mov	r5, r0
 1559 0008 8A46     		mov	r10, r1
 1560 000a 0192     		str	r2, [sp, #4]
 1561 000c 0293     		str	r3, [sp, #8]
 608:Drivers/lvgl/src/core/lv_obj_style.c ****     int32_t weight = -1;
 1562              		.loc 1 608 5 is_stmt 1 view .LVU455
 608:Drivers/lvgl/src/core/lv_obj_style.c ****     int32_t weight = -1;
 1563              		.loc 1 608 26 is_stmt 0 view .LVU456
 1564 000e 1046     		mov	r0, r2
 1565              	.LVL169:
 608:Drivers/lvgl/src/core/lv_obj_style.c ****     int32_t weight = -1;
 1566              		.loc 1 608 26 view .LVU457
 1567 0010 FFF7FEFF 		bl	_lv_style_get_prop_group
ARM GAS  /var/folders/0z/tsy30v1j4xl4_7kw94k978ww0000gn/T//cc8A9NTU.s 			page 55


 1568              	.LVL170:
 608:Drivers/lvgl/src/core/lv_obj_style.c ****     int32_t weight = -1;
 1569              		.loc 1 608 23 view .LVU458
 1570 0014 4FF00109 		mov	r9, #1
 1571 0018 09FA00F9 		lsl	r9, r9, r0
 608:Drivers/lvgl/src/core/lv_obj_style.c ****     int32_t weight = -1;
 1572              		.loc 1 608 13 view .LVU459
 1573 001c 5FFA89F9 		uxtb	r9, r9
 1574              	.LVL171:
 609:Drivers/lvgl/src/core/lv_obj_style.c ****     lv_state_t state = obj->state;
 1575              		.loc 1 609 5 is_stmt 1 view .LVU460
 610:Drivers/lvgl/src/core/lv_obj_style.c ****     lv_state_t state_inv = ~state;
 1576              		.loc 1 610 5 view .LVU461
 610:Drivers/lvgl/src/core/lv_obj_style.c ****     lv_state_t state_inv = ~state;
 1577              		.loc 1 610 16 is_stmt 0 view .LVU462
 1578 0020 2B8C     		ldrh	r3, [r5, #32]
 1579 0022 0393     		str	r3, [sp, #12]
 1580              	.LVL172:
 611:Drivers/lvgl/src/core/lv_obj_style.c ****     lv_style_value_t value_tmp;
 1581              		.loc 1 611 5 is_stmt 1 view .LVU463
 611:Drivers/lvgl/src/core/lv_obj_style.c ****     lv_style_value_t value_tmp;
 1582              		.loc 1 611 16 is_stmt 0 view .LVU464
 1583 0024 6FEA030B 		mvn	fp, r3
 1584 0028 1FFA8BFB 		uxth	fp, fp
 1585              	.LVL173:
 612:Drivers/lvgl/src/core/lv_obj_style.c ****     bool skip_trans = obj->skip_trans;
 1586              		.loc 1 612 5 is_stmt 1 view .LVU465
 613:Drivers/lvgl/src/core/lv_obj_style.c ****     uint32_t i;
 1587              		.loc 1 613 5 view .LVU466
 613:Drivers/lvgl/src/core/lv_obj_style.c ****     uint32_t i;
 1588              		.loc 1 613 26 is_stmt 0 view .LVU467
 1589 002c 95F82280 		ldrb	r8, [r5, #34]	@ zero_extendqisi2
 1590 0030 C8F3C008 		ubfx	r8, r8, #3, #1
 1591              	.LVL174:
 614:Drivers/lvgl/src/core/lv_obj_style.c ****     lv_style_res_t found;
 1592              		.loc 1 614 5 is_stmt 1 view .LVU468
 615:Drivers/lvgl/src/core/lv_obj_style.c ****     for(i = 0; i < obj->style_cnt; i++) {
 1593              		.loc 1 615 5 view .LVU469
 616:Drivers/lvgl/src/core/lv_obj_style.c ****         _lv_obj_style_t * obj_style = &obj->styles[i];
 1594              		.loc 1 616 5 view .LVU470
 616:Drivers/lvgl/src/core/lv_obj_style.c ****         _lv_obj_style_t * obj_style = &obj->styles[i];
 1595              		.loc 1 616 11 is_stmt 0 view .LVU471
 1596 0034 0024     		movs	r4, #0
 616:Drivers/lvgl/src/core/lv_obj_style.c ****         _lv_obj_style_t * obj_style = &obj->styles[i];
 1597              		.loc 1 616 5 view .LVU472
 1598 0036 04E0     		b	.L105
 1599              	.LVL175:
 1600              	.L122:
 1601              	.LBB107:
 627:Drivers/lvgl/src/core/lv_obj_style.c ****             return LV_STYLE_RES_FOUND;
 1602              		.loc 1 627 13 is_stmt 1 view .LVU473
 627:Drivers/lvgl/src/core/lv_obj_style.c ****             return LV_STYLE_RES_FOUND;
 1603              		.loc 1 627 16 is_stmt 0 view .LVU474
 1604 0038 059B     		ldr	r3, [sp, #20]
 1605 003a 029A     		ldr	r2, [sp, #8]
 1606 003c 1360     		str	r3, [r2]
 628:Drivers/lvgl/src/core/lv_obj_style.c ****         }
ARM GAS  /var/folders/0z/tsy30v1j4xl4_7kw94k978ww0000gn/T//cc8A9NTU.s 			page 56


 1607              		.loc 1 628 13 is_stmt 1 view .LVU475
 628:Drivers/lvgl/src/core/lv_obj_style.c ****         }
 1608              		.loc 1 628 20 is_stmt 0 view .LVU476
 1609 003e 6FE0     		b	.L109
 1610              	.LVL176:
 1611              	.L107:
 628:Drivers/lvgl/src/core/lv_obj_style.c ****         }
 1612              		.loc 1 628 20 view .LVU477
 1613              	.LBE107:
 616:Drivers/lvgl/src/core/lv_obj_style.c ****         _lv_obj_style_t * obj_style = &obj->styles[i];
 1614              		.loc 1 616 37 is_stmt 1 discriminator 2 view .LVU478
 1615 0040 0134     		adds	r4, r4, #1
 1616              	.LVL177:
 1617              	.L105:
 616:Drivers/lvgl/src/core/lv_obj_style.c ****         _lv_obj_style_t * obj_style = &obj->styles[i];
 1618              		.loc 1 616 18 discriminator 1 view .LVU479
 616:Drivers/lvgl/src/core/lv_obj_style.c ****         _lv_obj_style_t * obj_style = &obj->styles[i];
 1619              		.loc 1 616 23 is_stmt 0 discriminator 1 view .LVU480
 1620 0042 6B8C     		ldrh	r3, [r5, #34]
 1621 0044 C3F30513 		ubfx	r3, r3, #4, #6
 616:Drivers/lvgl/src/core/lv_obj_style.c ****         _lv_obj_style_t * obj_style = &obj->styles[i];
 1622              		.loc 1 616 18 discriminator 1 view .LVU481
 1623 0048 A342     		cmp	r3, r4
 1624 004a 1FD9     		bls	.L121
 1625              	.LBB108:
 617:Drivers/lvgl/src/core/lv_obj_style.c ****         if(obj_style->is_trans == false) break;
 1626              		.loc 1 617 9 is_stmt 1 view .LVU482
 617:Drivers/lvgl/src/core/lv_obj_style.c ****         if(obj_style->is_trans == false) break;
 1627              		.loc 1 617 43 is_stmt 0 view .LVU483
 1628 004c EE68     		ldr	r6, [r5, #12]
 617:Drivers/lvgl/src/core/lv_obj_style.c ****         if(obj_style->is_trans == false) break;
 1629              		.loc 1 617 51 view .LVU484
 1630 004e E700     		lsls	r7, r4, #3
 617:Drivers/lvgl/src/core/lv_obj_style.c ****         if(obj_style->is_trans == false) break;
 1631              		.loc 1 617 27 view .LVU485
 1632 0050 06EBC403 		add	r3, r6, r4, lsl #3
 1633              	.LVL178:
 618:Drivers/lvgl/src/core/lv_obj_style.c ****         if(skip_trans) continue;
 1634              		.loc 1 618 9 is_stmt 1 view .LVU486
 618:Drivers/lvgl/src/core/lv_obj_style.c ****         if(skip_trans) continue;
 1635              		.loc 1 618 32 is_stmt 0 view .LVU487
 1636 0054 DA79     		ldrb	r2, [r3, #7]	@ zero_extendqisi2
 618:Drivers/lvgl/src/core/lv_obj_style.c ****         if(skip_trans) continue;
 1637              		.loc 1 618 11 view .LVU488
 1638 0056 12F0020F 		tst	r2, #2
 1639 005a 55D0     		beq	.L116
 619:Drivers/lvgl/src/core/lv_obj_style.c **** 
 1640              		.loc 1 619 9 is_stmt 1 view .LVU489
 619:Drivers/lvgl/src/core/lv_obj_style.c **** 
 1641              		.loc 1 619 11 is_stmt 0 view .LVU490
 1642 005c B8F1000F 		cmp	r8, #0
 1643 0060 EED1     		bne	.L107
 621:Drivers/lvgl/src/core/lv_obj_style.c **** 
 1644              		.loc 1 621 9 is_stmt 1 view .LVU491
 621:Drivers/lvgl/src/core/lv_obj_style.c **** 
 1645              		.loc 1 621 75 is_stmt 0 view .LVU492
 1646 0062 5868     		ldr	r0, [r3, #4]
ARM GAS  /var/folders/0z/tsy30v1j4xl4_7kw94k978ww0000gn/T//cc8A9NTU.s 			page 57


 621:Drivers/lvgl/src/core/lv_obj_style.c **** 
 1647              		.loc 1 621 30 view .LVU493
 1648 0064 20F07F40 		bic	r0, r0, #-16777216
 1649 0068 FFF7FEFF 		bl	lv_obj_style_get_selector_part
 1650              	.LVL179:
 623:Drivers/lvgl/src/core/lv_obj_style.c ****         if((obj_style->style->has_group & group) == 0) continue;
 1651              		.loc 1 623 9 is_stmt 1 view .LVU494
 623:Drivers/lvgl/src/core/lv_obj_style.c ****         if((obj_style->style->has_group & group) == 0) continue;
 1652              		.loc 1 623 11 is_stmt 0 view .LVU495
 1653 006c 5045     		cmp	r0, r10
 1654 006e E7D1     		bne	.L107
 624:Drivers/lvgl/src/core/lv_obj_style.c ****         found = lv_style_get_prop(obj_style->style, prop, &value_tmp);
 1655              		.loc 1 624 9 is_stmt 1 view .LVU496
 624:Drivers/lvgl/src/core/lv_obj_style.c ****         found = lv_style_get_prop(obj_style->style, prop, &value_tmp);
 1656              		.loc 1 624 22 is_stmt 0 view .LVU497
 1657 0070 F059     		ldr	r0, [r6, r7]
 1658              	.LVL180:
 624:Drivers/lvgl/src/core/lv_obj_style.c ****         found = lv_style_get_prop(obj_style->style, prop, &value_tmp);
 1659              		.loc 1 624 29 view .LVU498
 1660 0072 8379     		ldrb	r3, [r0, #6]	@ zero_extendqisi2
 624:Drivers/lvgl/src/core/lv_obj_style.c ****         found = lv_style_get_prop(obj_style->style, prop, &value_tmp);
 1661              		.loc 1 624 11 view .LVU499
 1662 0074 13EA090F 		tst	r3, r9
 1663 0078 E2D0     		beq	.L107
 625:Drivers/lvgl/src/core/lv_obj_style.c ****         if(found == LV_STYLE_RES_FOUND) {
 1664              		.loc 1 625 9 is_stmt 1 view .LVU500
 625:Drivers/lvgl/src/core/lv_obj_style.c ****         if(found == LV_STYLE_RES_FOUND) {
 1665              		.loc 1 625 17 is_stmt 0 view .LVU501
 1666 007a 05AA     		add	r2, sp, #20
 1667 007c 0199     		ldr	r1, [sp, #4]
 1668 007e FFF7FEFF 		bl	lv_style_get_prop
 1669              	.LVL181:
 626:Drivers/lvgl/src/core/lv_obj_style.c ****             *v = value_tmp;
 1670              		.loc 1 626 9 is_stmt 1 view .LVU502
 626:Drivers/lvgl/src/core/lv_obj_style.c ****             *v = value_tmp;
 1671              		.loc 1 626 11 is_stmt 0 view .LVU503
 1672 0082 0128     		cmp	r0, #1
 1673 0084 D8D0     		beq	.L122
 630:Drivers/lvgl/src/core/lv_obj_style.c ****             return LV_STYLE_RES_INHERIT;
 1674              		.loc 1 630 14 is_stmt 1 view .LVU504
 630:Drivers/lvgl/src/core/lv_obj_style.c ****             return LV_STYLE_RES_INHERIT;
 1675              		.loc 1 630 16 is_stmt 0 view .LVU505
 1676 0086 0228     		cmp	r0, #2
 1677 0088 DAD1     		bne	.L107
 1678 008a 49E0     		b	.L109
 1679              	.LVL182:
 1680              	.L121:
 630:Drivers/lvgl/src/core/lv_obj_style.c ****             return LV_STYLE_RES_INHERIT;
 1681              		.loc 1 630 16 view .LVU506
 1682              	.LBE108:
 1683 008c 4FF0FF33 		mov	r3, #-1
 1684 0090 0093     		str	r3, [sp]
 1685 0092 A846     		mov	r8, r5
 1686 0094 07E0     		b	.L114
 1687              	.LVL183:
 1688              	.L125:
 1689              	.LBB109:
ARM GAS  /var/folders/0z/tsy30v1j4xl4_7kw94k978ww0000gn/T//cc8A9NTU.s 			page 58


 652:Drivers/lvgl/src/core/lv_obj_style.c ****                 *v = value_tmp;
 1690              		.loc 1 652 13 is_stmt 1 view .LVU507
 652:Drivers/lvgl/src/core/lv_obj_style.c ****                 *v = value_tmp;
 1691              		.loc 1 652 15 is_stmt 0 view .LVU508
 1692 0096 039B     		ldr	r3, [sp, #12]
 1693 0098 B342     		cmp	r3, r6
 1694 009a 31D0     		beq	.L123
 656:Drivers/lvgl/src/core/lv_obj_style.c ****                 weight = state_act;
 1695              		.loc 1 656 13 is_stmt 1 view .LVU509
 657:Drivers/lvgl/src/core/lv_obj_style.c ****                 *v = value_tmp;
 1696              		.loc 1 657 17 view .LVU510
 1697              	.LVL184:
 658:Drivers/lvgl/src/core/lv_obj_style.c ****             }
 1698              		.loc 1 658 17 view .LVU511
 658:Drivers/lvgl/src/core/lv_obj_style.c ****             }
 1699              		.loc 1 658 20 is_stmt 0 view .LVU512
 1700 009c 059B     		ldr	r3, [sp, #20]
 1701 009e 029A     		ldr	r2, [sp, #8]
 1702 00a0 1360     		str	r3, [r2]
 657:Drivers/lvgl/src/core/lv_obj_style.c ****                 *v = value_tmp;
 1703              		.loc 1 657 24 view .LVU513
 1704 00a2 0096     		str	r6, [sp]
 1705              	.LVL185:
 1706              	.L111:
 657:Drivers/lvgl/src/core/lv_obj_style.c ****                 *v = value_tmp;
 1707              		.loc 1 657 24 view .LVU514
 1708              	.LBE109:
 635:Drivers/lvgl/src/core/lv_obj_style.c ****         if((obj->styles[i].style->has_group & group) == 0) continue;
 1709              		.loc 1 635 32 is_stmt 1 view .LVU515
 1710 00a4 0134     		adds	r4, r4, #1
 1711              	.LVL186:
 1712              	.L114:
 635:Drivers/lvgl/src/core/lv_obj_style.c ****         if((obj->styles[i].style->has_group & group) == 0) continue;
 1713              		.loc 1 635 13 discriminator 1 view .LVU516
 635:Drivers/lvgl/src/core/lv_obj_style.c ****         if((obj->styles[i].style->has_group & group) == 0) continue;
 1714              		.loc 1 635 18 is_stmt 0 discriminator 1 view .LVU517
 1715 00a6 B8F82230 		ldrh	r3, [r8, #34]
 1716 00aa C3F30513 		ubfx	r3, r3, #4, #6
 635:Drivers/lvgl/src/core/lv_obj_style.c ****         if((obj->styles[i].style->has_group & group) == 0) continue;
 1717              		.loc 1 635 13 discriminator 1 view .LVU518
 1718 00ae A342     		cmp	r3, r4
 1719 00b0 2FD9     		bls	.L124
 1720              	.LBB110:
 636:Drivers/lvgl/src/core/lv_obj_style.c ****         _lv_obj_style_t * obj_style = &obj->styles[i];
 1721              		.loc 1 636 9 is_stmt 1 view .LVU519
 636:Drivers/lvgl/src/core/lv_obj_style.c ****         _lv_obj_style_t * obj_style = &obj->styles[i];
 1722              		.loc 1 636 16 is_stmt 0 view .LVU520
 1723 00b2 D8F80C30 		ldr	r3, [r8, #12]
 636:Drivers/lvgl/src/core/lv_obj_style.c ****         _lv_obj_style_t * obj_style = &obj->styles[i];
 1724              		.loc 1 636 24 view .LVU521
 1725 00b6 03EBC402 		add	r2, r3, r4, lsl #3
 636:Drivers/lvgl/src/core/lv_obj_style.c ****         _lv_obj_style_t * obj_style = &obj->styles[i];
 1726              		.loc 1 636 27 view .LVU522
 1727 00ba 53F83450 		ldr	r5, [r3, r4, lsl #3]
 636:Drivers/lvgl/src/core/lv_obj_style.c ****         _lv_obj_style_t * obj_style = &obj->styles[i];
 1728              		.loc 1 636 33 view .LVU523
 1729 00be AB79     		ldrb	r3, [r5, #6]	@ zero_extendqisi2
ARM GAS  /var/folders/0z/tsy30v1j4xl4_7kw94k978ww0000gn/T//cc8A9NTU.s 			page 59


 636:Drivers/lvgl/src/core/lv_obj_style.c ****         _lv_obj_style_t * obj_style = &obj->styles[i];
 1730              		.loc 1 636 11 view .LVU524
 1731 00c0 13EA090F 		tst	r3, r9
 1732 00c4 EED0     		beq	.L111
 637:Drivers/lvgl/src/core/lv_obj_style.c ****         lv_part_t part_act = lv_obj_style_get_selector_part(obj->styles[i].selector);
 1733              		.loc 1 637 9 is_stmt 1 view .LVU525
 1734              	.LVL187:
 638:Drivers/lvgl/src/core/lv_obj_style.c ****         lv_state_t state_act = lv_obj_style_get_selector_state(obj->styles[i].selector);
 1735              		.loc 1 638 9 view .LVU526
 638:Drivers/lvgl/src/core/lv_obj_style.c ****         lv_state_t state_act = lv_obj_style_get_selector_state(obj->styles[i].selector);
 1736              		.loc 1 638 75 is_stmt 0 view .LVU527
 1737 00c6 5668     		ldr	r6, [r2, #4]
 1738 00c8 C6F31706 		ubfx	r6, r6, #0, #24
 638:Drivers/lvgl/src/core/lv_obj_style.c ****         lv_state_t state_act = lv_obj_style_get_selector_state(obj->styles[i].selector);
 1739              		.loc 1 638 30 view .LVU528
 1740 00cc 3046     		mov	r0, r6
 1741 00ce FFF7FEFF 		bl	lv_obj_style_get_selector_part
 1742              	.LVL188:
 638:Drivers/lvgl/src/core/lv_obj_style.c ****         lv_state_t state_act = lv_obj_style_get_selector_state(obj->styles[i].selector);
 1743              		.loc 1 638 30 view .LVU529
 1744 00d2 0746     		mov	r7, r0
 1745              	.LVL189:
 639:Drivers/lvgl/src/core/lv_obj_style.c ****         if(part_act != part) continue;
 1746              		.loc 1 639 9 is_stmt 1 view .LVU530
 639:Drivers/lvgl/src/core/lv_obj_style.c ****         if(part_act != part) continue;
 1747              		.loc 1 639 32 is_stmt 0 view .LVU531
 1748 00d4 3046     		mov	r0, r6
 1749              	.LVL190:
 639:Drivers/lvgl/src/core/lv_obj_style.c ****         if(part_act != part) continue;
 1750              		.loc 1 639 32 view .LVU532
 1751 00d6 FFF7FEFF 		bl	lv_obj_style_get_selector_state
 1752              	.LVL191:
 1753 00da 0646     		mov	r6, r0
 1754              	.LVL192:
 640:Drivers/lvgl/src/core/lv_obj_style.c **** 
 1755              		.loc 1 640 9 is_stmt 1 view .LVU533
 640:Drivers/lvgl/src/core/lv_obj_style.c **** 
 1756              		.loc 1 640 11 is_stmt 0 view .LVU534
 1757 00dc BA45     		cmp	r10, r7
 1758 00de E1D1     		bne	.L111
 644:Drivers/lvgl/src/core/lv_obj_style.c **** 
 1759              		.loc 1 644 9 is_stmt 1 view .LVU535
 644:Drivers/lvgl/src/core/lv_obj_style.c **** 
 1760              		.loc 1 644 11 is_stmt 0 view .LVU536
 1761 00e0 1BEA000F 		tst	fp, r0
 1762 00e4 DED1     		bne	.L111
 647:Drivers/lvgl/src/core/lv_obj_style.c **** 
 1763              		.loc 1 647 9 is_stmt 1 view .LVU537
 647:Drivers/lvgl/src/core/lv_obj_style.c **** 
 1764              		.loc 1 647 11 is_stmt 0 view .LVU538
 1765 00e6 009B     		ldr	r3, [sp]
 1766 00e8 9842     		cmp	r0, r3
 1767 00ea DBDD     		ble	.L111
 649:Drivers/lvgl/src/core/lv_obj_style.c **** 
 1768              		.loc 1 649 9 is_stmt 1 view .LVU539
 649:Drivers/lvgl/src/core/lv_obj_style.c **** 
 1769              		.loc 1 649 17 is_stmt 0 view .LVU540
ARM GAS  /var/folders/0z/tsy30v1j4xl4_7kw94k978ww0000gn/T//cc8A9NTU.s 			page 60


 1770 00ec 05AA     		add	r2, sp, #20
 1771 00ee 0199     		ldr	r1, [sp, #4]
 1772 00f0 2846     		mov	r0, r5
 1773              	.LVL193:
 649:Drivers/lvgl/src/core/lv_obj_style.c **** 
 1774              		.loc 1 649 17 view .LVU541
 1775 00f2 FFF7FEFF 		bl	lv_style_get_prop
 1776              	.LVL194:
 651:Drivers/lvgl/src/core/lv_obj_style.c ****             if(state_act == state) {
 1777              		.loc 1 651 9 is_stmt 1 view .LVU542
 651:Drivers/lvgl/src/core/lv_obj_style.c ****             if(state_act == state) {
 1778              		.loc 1 651 11 is_stmt 0 view .LVU543
 1779 00f6 0128     		cmp	r0, #1
 1780 00f8 CDD0     		beq	.L125
 661:Drivers/lvgl/src/core/lv_obj_style.c ****             return LV_STYLE_RES_INHERIT;
 1781              		.loc 1 661 14 is_stmt 1 view .LVU544
 661:Drivers/lvgl/src/core/lv_obj_style.c ****             return LV_STYLE_RES_INHERIT;
 1782              		.loc 1 661 16 is_stmt 0 view .LVU545
 1783 00fa 0228     		cmp	r0, #2
 1784 00fc D2D1     		bne	.L111
 1785 00fe 0FE0     		b	.L109
 1786              	.L123:
 653:Drivers/lvgl/src/core/lv_obj_style.c ****                 return LV_STYLE_RES_FOUND;
 1787              		.loc 1 653 17 is_stmt 1 view .LVU546
 653:Drivers/lvgl/src/core/lv_obj_style.c ****                 return LV_STYLE_RES_FOUND;
 1788              		.loc 1 653 20 is_stmt 0 view .LVU547
 1789 0100 059B     		ldr	r3, [sp, #20]
 1790 0102 029A     		ldr	r2, [sp, #8]
 1791 0104 1360     		str	r3, [r2]
 654:Drivers/lvgl/src/core/lv_obj_style.c ****             }
 1792              		.loc 1 654 17 is_stmt 1 view .LVU548
 654:Drivers/lvgl/src/core/lv_obj_style.c ****             }
 1793              		.loc 1 654 24 is_stmt 0 view .LVU549
 1794 0106 0BE0     		b	.L109
 1795              	.LVL195:
 1796              	.L116:
 654:Drivers/lvgl/src/core/lv_obj_style.c ****             }
 1797              		.loc 1 654 24 view .LVU550
 1798              	.LBE110:
 1799 0108 4FF0FF33 		mov	r3, #-1
 1800              	.LVL196:
 654:Drivers/lvgl/src/core/lv_obj_style.c ****             }
 1801              		.loc 1 654 24 view .LVU551
 1802 010c 0093     		str	r3, [sp]
 1803 010e A846     		mov	r8, r5
 1804 0110 C9E7     		b	.L114
 1805              	.LVL197:
 1806              	.L124:
 666:Drivers/lvgl/src/core/lv_obj_style.c ****         *v = value_tmp;
 1807              		.loc 1 666 5 is_stmt 1 view .LVU552
 666:Drivers/lvgl/src/core/lv_obj_style.c ****         *v = value_tmp;
 1808              		.loc 1 666 7 is_stmt 0 view .LVU553
 1809 0112 009B     		ldr	r3, [sp]
 1810 0114 002B     		cmp	r3, #0
 1811 0116 06DB     		blt	.L117
 667:Drivers/lvgl/src/core/lv_obj_style.c ****         return LV_STYLE_RES_FOUND;
 1812              		.loc 1 667 9 is_stmt 1 view .LVU554
ARM GAS  /var/folders/0z/tsy30v1j4xl4_7kw94k978ww0000gn/T//cc8A9NTU.s 			page 61


 667:Drivers/lvgl/src/core/lv_obj_style.c ****         return LV_STYLE_RES_FOUND;
 1813              		.loc 1 667 12 is_stmt 0 view .LVU555
 1814 0118 059B     		ldr	r3, [sp, #20]
 1815 011a 029A     		ldr	r2, [sp, #8]
 1816 011c 1360     		str	r3, [r2]
 668:Drivers/lvgl/src/core/lv_obj_style.c ****     }
 1817              		.loc 1 668 9 is_stmt 1 view .LVU556
 668:Drivers/lvgl/src/core/lv_obj_style.c ****     }
 1818              		.loc 1 668 16 is_stmt 0 view .LVU557
 1819 011e 0120     		movs	r0, #1
 1820              	.LVL198:
 1821              	.L109:
 671:Drivers/lvgl/src/core/lv_obj_style.c **** 
 1822              		.loc 1 671 1 view .LVU558
 1823 0120 07B0     		add	sp, sp, #28
 1824              		.cfi_remember_state
 1825              		.cfi_def_cfa_offset 36
 1826              		@ sp needed
 1827 0122 BDE8F08F 		pop	{r4, r5, r6, r7, r8, r9, r10, fp, pc}
 1828              	.LVL199:
 1829              	.L117:
 1830              		.cfi_restore_state
 670:Drivers/lvgl/src/core/lv_obj_style.c **** }
 1831              		.loc 1 670 17 view .LVU559
 1832 0126 0020     		movs	r0, #0
 1833 0128 FAE7     		b	.L109
 1834              		.cfi_endproc
 1835              	.LFE189:
 1837              		.section	.text.lv_obj_get_style_prop,"ax",%progbits
 1838              		.align	1
 1839              		.global	lv_obj_get_style_prop
 1840              		.syntax unified
 1841              		.thumb
 1842              		.thumb_func
 1844              	lv_obj_get_style_prop:
 1845              	.LVL200:
 1846              	.LFB173:
 224:Drivers/lvgl/src/core/lv_obj_style.c ****     lv_style_value_t value_act;
 1847              		.loc 1 224 1 is_stmt 1 view -0
 1848              		.cfi_startproc
 1849              		@ args = 0, pretend = 0, frame = 8
 1850              		@ frame_needed = 0, uses_anonymous_args = 0
 224:Drivers/lvgl/src/core/lv_obj_style.c ****     lv_style_value_t value_act;
 1851              		.loc 1 224 1 is_stmt 0 view .LVU561
 1852 0000 2DE9F041 		push	{r4, r5, r6, r7, r8, lr}
 1853              		.cfi_def_cfa_offset 24
 1854              		.cfi_offset 4, -24
 1855              		.cfi_offset 5, -20
 1856              		.cfi_offset 6, -16
 1857              		.cfi_offset 7, -12
 1858              		.cfi_offset 8, -8
 1859              		.cfi_offset 14, -4
 1860 0004 82B0     		sub	sp, sp, #8
 1861              		.cfi_def_cfa_offset 32
 1862 0006 0546     		mov	r5, r0
 1863 0008 0E46     		mov	r6, r1
 1864 000a 1746     		mov	r7, r2
ARM GAS  /var/folders/0z/tsy30v1j4xl4_7kw94k978ww0000gn/T//cc8A9NTU.s 			page 62


 225:Drivers/lvgl/src/core/lv_obj_style.c ****     bool inheritable = lv_style_prop_has_flag(prop, LV_STYLE_PROP_INHERIT);
 1865              		.loc 1 225 5 is_stmt 1 view .LVU562
 226:Drivers/lvgl/src/core/lv_obj_style.c ****     lv_style_res_t found = LV_STYLE_RES_NOT_FOUND;
 1866              		.loc 1 226 5 view .LVU563
 1867              	.LVL201:
 1868              	.LBB111:
 1869              	.LBI111:
 1870              		.file 3 "Drivers/lvgl/src/core/../misc/lv_style.h"
   1:Drivers/lvgl/src/core/../misc/lv_style.h **** /**
   2:Drivers/lvgl/src/core/../misc/lv_style.h ****  * @file lv_style.h
   3:Drivers/lvgl/src/core/../misc/lv_style.h ****  *
   4:Drivers/lvgl/src/core/../misc/lv_style.h ****  */
   5:Drivers/lvgl/src/core/../misc/lv_style.h **** 
   6:Drivers/lvgl/src/core/../misc/lv_style.h **** #ifndef LV_STYLE_H
   7:Drivers/lvgl/src/core/../misc/lv_style.h **** #define LV_STYLE_H
   8:Drivers/lvgl/src/core/../misc/lv_style.h **** 
   9:Drivers/lvgl/src/core/../misc/lv_style.h **** #ifdef __cplusplus
  10:Drivers/lvgl/src/core/../misc/lv_style.h **** extern "C" {
  11:Drivers/lvgl/src/core/../misc/lv_style.h **** #endif
  12:Drivers/lvgl/src/core/../misc/lv_style.h **** 
  13:Drivers/lvgl/src/core/../misc/lv_style.h **** /*********************
  14:Drivers/lvgl/src/core/../misc/lv_style.h ****  *      INCLUDES
  15:Drivers/lvgl/src/core/../misc/lv_style.h ****  *********************/
  16:Drivers/lvgl/src/core/../misc/lv_style.h **** #include <stdbool.h>
  17:Drivers/lvgl/src/core/../misc/lv_style.h **** #include <stdint.h>
  18:Drivers/lvgl/src/core/../misc/lv_style.h **** #include "../font/lv_font.h"
  19:Drivers/lvgl/src/core/../misc/lv_style.h **** #include "lv_color.h"
  20:Drivers/lvgl/src/core/../misc/lv_style.h **** #include "lv_area.h"
  21:Drivers/lvgl/src/core/../misc/lv_style.h **** #include "lv_anim.h"
  22:Drivers/lvgl/src/core/../misc/lv_style.h **** #include "lv_txt.h"
  23:Drivers/lvgl/src/core/../misc/lv_style.h **** #include "lv_types.h"
  24:Drivers/lvgl/src/core/../misc/lv_style.h **** #include "lv_assert.h"
  25:Drivers/lvgl/src/core/../misc/lv_style.h **** #include "lv_bidi.h"
  26:Drivers/lvgl/src/core/../misc/lv_style.h **** 
  27:Drivers/lvgl/src/core/../misc/lv_style.h **** /*********************
  28:Drivers/lvgl/src/core/../misc/lv_style.h ****  *      DEFINES
  29:Drivers/lvgl/src/core/../misc/lv_style.h ****  *********************/
  30:Drivers/lvgl/src/core/../misc/lv_style.h **** 
  31:Drivers/lvgl/src/core/../misc/lv_style.h **** #define LV_STYLE_SENTINEL_VALUE     0xAABBCCDD
  32:Drivers/lvgl/src/core/../misc/lv_style.h **** 
  33:Drivers/lvgl/src/core/../misc/lv_style.h **** /**
  34:Drivers/lvgl/src/core/../misc/lv_style.h ****  * Flags for style behavior
  35:Drivers/lvgl/src/core/../misc/lv_style.h ****  *
  36:Drivers/lvgl/src/core/../misc/lv_style.h ****  * The rest of the flags will have _FLAG added to their name in v9.
  37:Drivers/lvgl/src/core/../misc/lv_style.h ****  */
  38:Drivers/lvgl/src/core/../misc/lv_style.h **** #define LV_STYLE_PROP_FLAG_NONE             (0)
  39:Drivers/lvgl/src/core/../misc/lv_style.h **** #define LV_STYLE_PROP_INHERIT               (1 << 0)  /*Inherited*/
  40:Drivers/lvgl/src/core/../misc/lv_style.h **** #define LV_STYLE_PROP_EXT_DRAW              (1 << 1)  /*Requires ext. draw size update when changed
  41:Drivers/lvgl/src/core/../misc/lv_style.h **** #define LV_STYLE_PROP_LAYOUT_REFR           (1 << 2)  /*Requires layout update when changed*/
  42:Drivers/lvgl/src/core/../misc/lv_style.h **** #define LV_STYLE_PROP_PARENT_LAYOUT_REFR    (1 << 3)  /*Requires layout update on parent when chang
  43:Drivers/lvgl/src/core/../misc/lv_style.h **** #define LV_STYLE_PROP_LAYER_REFR            (1 << 4)  /*Affects layer handling*/
  44:Drivers/lvgl/src/core/../misc/lv_style.h **** #define LV_STYLE_PROP_ALL                   (0x1F)     /*Indicating all flags*/
  45:Drivers/lvgl/src/core/../misc/lv_style.h **** 
  46:Drivers/lvgl/src/core/../misc/lv_style.h **** /**
  47:Drivers/lvgl/src/core/../misc/lv_style.h ****  * Other constants
  48:Drivers/lvgl/src/core/../misc/lv_style.h ****  */
  49:Drivers/lvgl/src/core/../misc/lv_style.h **** #define LV_IMG_ZOOM_NONE            256        /*Value for not zooming the image*/
ARM GAS  /var/folders/0z/tsy30v1j4xl4_7kw94k978ww0000gn/T//cc8A9NTU.s 			page 63


  50:Drivers/lvgl/src/core/../misc/lv_style.h **** LV_EXPORT_CONST_INT(LV_IMG_ZOOM_NONE);
  51:Drivers/lvgl/src/core/../misc/lv_style.h **** 
  52:Drivers/lvgl/src/core/../misc/lv_style.h **** // *INDENT-OFF*
  53:Drivers/lvgl/src/core/../misc/lv_style.h **** #if LV_USE_ASSERT_STYLE
  54:Drivers/lvgl/src/core/../misc/lv_style.h **** #define LV_STYLE_CONST_INIT(var_name, prop_array)                       \
  55:Drivers/lvgl/src/core/../misc/lv_style.h ****     const lv_style_t var_name = {                                       \
  56:Drivers/lvgl/src/core/../misc/lv_style.h ****         .sentinel = LV_STYLE_SENTINEL_VALUE,                            \
  57:Drivers/lvgl/src/core/../misc/lv_style.h ****         .v_p = { .const_props = prop_array },                           \
  58:Drivers/lvgl/src/core/../misc/lv_style.h ****         .has_group = 0xFF,                                              \
  59:Drivers/lvgl/src/core/../misc/lv_style.h ****         .prop1 = LV_STYLE_PROP_ANY,                                     \
  60:Drivers/lvgl/src/core/../misc/lv_style.h ****         .prop_cnt = (sizeof(prop_array) / sizeof((prop_array)[0])),     \
  61:Drivers/lvgl/src/core/../misc/lv_style.h ****     }
  62:Drivers/lvgl/src/core/../misc/lv_style.h **** #else
  63:Drivers/lvgl/src/core/../misc/lv_style.h **** #define LV_STYLE_CONST_INIT(var_name, prop_array)                       \
  64:Drivers/lvgl/src/core/../misc/lv_style.h ****     const lv_style_t var_name = {                                       \
  65:Drivers/lvgl/src/core/../misc/lv_style.h ****         .v_p = { .const_props = prop_array },                           \
  66:Drivers/lvgl/src/core/../misc/lv_style.h ****         .has_group = 0xFF,                                              \
  67:Drivers/lvgl/src/core/../misc/lv_style.h ****         .prop1 = LV_STYLE_PROP_ANY,                                     \
  68:Drivers/lvgl/src/core/../misc/lv_style.h ****         .prop_cnt = (sizeof(prop_array) / sizeof((prop_array)[0])),     \
  69:Drivers/lvgl/src/core/../misc/lv_style.h ****     }
  70:Drivers/lvgl/src/core/../misc/lv_style.h **** #endif
  71:Drivers/lvgl/src/core/../misc/lv_style.h **** // *INDENT-ON*
  72:Drivers/lvgl/src/core/../misc/lv_style.h **** 
  73:Drivers/lvgl/src/core/../misc/lv_style.h **** #define LV_STYLE_PROP_META_INHERIT 0x8000
  74:Drivers/lvgl/src/core/../misc/lv_style.h **** #define LV_STYLE_PROP_META_INITIAL 0x4000
  75:Drivers/lvgl/src/core/../misc/lv_style.h **** #define LV_STYLE_PROP_META_MASK (LV_STYLE_PROP_META_INHERIT | LV_STYLE_PROP_META_INITIAL)
  76:Drivers/lvgl/src/core/../misc/lv_style.h **** 
  77:Drivers/lvgl/src/core/../misc/lv_style.h **** #define LV_STYLE_PROP_ID_MASK(prop) ((lv_style_prop_t)((prop) & ~LV_STYLE_PROP_META_MASK))
  78:Drivers/lvgl/src/core/../misc/lv_style.h **** 
  79:Drivers/lvgl/src/core/../misc/lv_style.h **** /**********************
  80:Drivers/lvgl/src/core/../misc/lv_style.h ****  *      TYPEDEFS
  81:Drivers/lvgl/src/core/../misc/lv_style.h ****  **********************/
  82:Drivers/lvgl/src/core/../misc/lv_style.h **** 
  83:Drivers/lvgl/src/core/../misc/lv_style.h **** /**
  84:Drivers/lvgl/src/core/../misc/lv_style.h ****  * Possible options how to blend opaque drawings
  85:Drivers/lvgl/src/core/../misc/lv_style.h ****  */
  86:Drivers/lvgl/src/core/../misc/lv_style.h **** enum {
  87:Drivers/lvgl/src/core/../misc/lv_style.h ****     LV_BLEND_MODE_NORMAL,     /**< Simply mix according to the opacity value*/
  88:Drivers/lvgl/src/core/../misc/lv_style.h ****     LV_BLEND_MODE_ADDITIVE,   /**< Add the respective color channels*/
  89:Drivers/lvgl/src/core/../misc/lv_style.h ****     LV_BLEND_MODE_SUBTRACTIVE,/**< Subtract the foreground from the background*/
  90:Drivers/lvgl/src/core/../misc/lv_style.h ****     LV_BLEND_MODE_MULTIPLY,   /**< Multiply the foreground and background*/
  91:Drivers/lvgl/src/core/../misc/lv_style.h ****     LV_BLEND_MODE_REPLACE,    /**< Replace background with foreground in the area*/
  92:Drivers/lvgl/src/core/../misc/lv_style.h **** };
  93:Drivers/lvgl/src/core/../misc/lv_style.h **** 
  94:Drivers/lvgl/src/core/../misc/lv_style.h **** typedef uint8_t lv_blend_mode_t;
  95:Drivers/lvgl/src/core/../misc/lv_style.h **** 
  96:Drivers/lvgl/src/core/../misc/lv_style.h **** /**
  97:Drivers/lvgl/src/core/../misc/lv_style.h ****  * Some options to apply decorations on texts.
  98:Drivers/lvgl/src/core/../misc/lv_style.h ****  * 'OR'ed values can be used.
  99:Drivers/lvgl/src/core/../misc/lv_style.h ****  */
 100:Drivers/lvgl/src/core/../misc/lv_style.h **** enum {
 101:Drivers/lvgl/src/core/../misc/lv_style.h ****     LV_TEXT_DECOR_NONE          = 0x00,
 102:Drivers/lvgl/src/core/../misc/lv_style.h ****     LV_TEXT_DECOR_UNDERLINE     = 0x01,
 103:Drivers/lvgl/src/core/../misc/lv_style.h ****     LV_TEXT_DECOR_STRIKETHROUGH = 0x02,
 104:Drivers/lvgl/src/core/../misc/lv_style.h **** };
 105:Drivers/lvgl/src/core/../misc/lv_style.h **** 
 106:Drivers/lvgl/src/core/../misc/lv_style.h **** typedef uint8_t lv_text_decor_t;
ARM GAS  /var/folders/0z/tsy30v1j4xl4_7kw94k978ww0000gn/T//cc8A9NTU.s 			page 64


 107:Drivers/lvgl/src/core/../misc/lv_style.h **** 
 108:Drivers/lvgl/src/core/../misc/lv_style.h **** /**
 109:Drivers/lvgl/src/core/../misc/lv_style.h ****  * Selects on which sides border should be drawn
 110:Drivers/lvgl/src/core/../misc/lv_style.h ****  * 'OR'ed values can be used.
 111:Drivers/lvgl/src/core/../misc/lv_style.h ****  */
 112:Drivers/lvgl/src/core/../misc/lv_style.h **** enum {
 113:Drivers/lvgl/src/core/../misc/lv_style.h ****     LV_BORDER_SIDE_NONE     = 0x00,
 114:Drivers/lvgl/src/core/../misc/lv_style.h ****     LV_BORDER_SIDE_BOTTOM   = 0x01,
 115:Drivers/lvgl/src/core/../misc/lv_style.h ****     LV_BORDER_SIDE_TOP      = 0x02,
 116:Drivers/lvgl/src/core/../misc/lv_style.h ****     LV_BORDER_SIDE_LEFT     = 0x04,
 117:Drivers/lvgl/src/core/../misc/lv_style.h ****     LV_BORDER_SIDE_RIGHT    = 0x08,
 118:Drivers/lvgl/src/core/../misc/lv_style.h ****     LV_BORDER_SIDE_FULL     = 0x0F,
 119:Drivers/lvgl/src/core/../misc/lv_style.h ****     LV_BORDER_SIDE_INTERNAL = 0x10, /**< FOR matrix-like objects (e.g. Button matrix)*/
 120:Drivers/lvgl/src/core/../misc/lv_style.h **** };
 121:Drivers/lvgl/src/core/../misc/lv_style.h **** typedef uint8_t lv_border_side_t;
 122:Drivers/lvgl/src/core/../misc/lv_style.h **** 
 123:Drivers/lvgl/src/core/../misc/lv_style.h **** /**
 124:Drivers/lvgl/src/core/../misc/lv_style.h ****  * The direction of the gradient.
 125:Drivers/lvgl/src/core/../misc/lv_style.h ****  */
 126:Drivers/lvgl/src/core/../misc/lv_style.h **** enum {
 127:Drivers/lvgl/src/core/../misc/lv_style.h ****     LV_GRAD_DIR_NONE, /**< No gradient (the `grad_color` property is ignored)*/
 128:Drivers/lvgl/src/core/../misc/lv_style.h ****     LV_GRAD_DIR_VER,  /**< Vertical (top to bottom) gradient*/
 129:Drivers/lvgl/src/core/../misc/lv_style.h ****     LV_GRAD_DIR_HOR,  /**< Horizontal (left to right) gradient*/
 130:Drivers/lvgl/src/core/../misc/lv_style.h **** };
 131:Drivers/lvgl/src/core/../misc/lv_style.h **** 
 132:Drivers/lvgl/src/core/../misc/lv_style.h **** typedef uint8_t lv_grad_dir_t;
 133:Drivers/lvgl/src/core/../misc/lv_style.h **** 
 134:Drivers/lvgl/src/core/../misc/lv_style.h **** /**
 135:Drivers/lvgl/src/core/../misc/lv_style.h ****  * The dithering algorithm for the gradient
 136:Drivers/lvgl/src/core/../misc/lv_style.h ****  * Depends on LV_DITHER_GRADIENT
 137:Drivers/lvgl/src/core/../misc/lv_style.h ****  */
 138:Drivers/lvgl/src/core/../misc/lv_style.h **** enum {
 139:Drivers/lvgl/src/core/../misc/lv_style.h ****     LV_DITHER_NONE,     /**< No dithering, colors are just quantized to the output resolution*/
 140:Drivers/lvgl/src/core/../misc/lv_style.h ****     LV_DITHER_ORDERED,  /**< Ordered dithering. Faster to compute and use less memory but lower qua
 141:Drivers/lvgl/src/core/../misc/lv_style.h ****     LV_DITHER_ERR_DIFF, /**< Error diffusion mode. Slower to compute and use more memory but give h
 142:Drivers/lvgl/src/core/../misc/lv_style.h **** };
 143:Drivers/lvgl/src/core/../misc/lv_style.h **** 
 144:Drivers/lvgl/src/core/../misc/lv_style.h **** typedef uint8_t lv_dither_mode_t;
 145:Drivers/lvgl/src/core/../misc/lv_style.h **** 
 146:Drivers/lvgl/src/core/../misc/lv_style.h **** /** A gradient stop definition.
 147:Drivers/lvgl/src/core/../misc/lv_style.h ****  *  This matches a color and a position in a virtual 0-255 scale.
 148:Drivers/lvgl/src/core/../misc/lv_style.h ****  */
 149:Drivers/lvgl/src/core/../misc/lv_style.h **** typedef struct {
 150:Drivers/lvgl/src/core/../misc/lv_style.h ****     lv_color_t color;   /**< The stop color */
 151:Drivers/lvgl/src/core/../misc/lv_style.h ****     uint8_t    frac;    /**< The stop position in 1/255 unit */
 152:Drivers/lvgl/src/core/../misc/lv_style.h **** } lv_gradient_stop_t;
 153:Drivers/lvgl/src/core/../misc/lv_style.h **** 
 154:Drivers/lvgl/src/core/../misc/lv_style.h **** /** A descriptor of a gradient. */
 155:Drivers/lvgl/src/core/../misc/lv_style.h **** typedef struct {
 156:Drivers/lvgl/src/core/../misc/lv_style.h ****     lv_gradient_stop_t   stops[LV_GRADIENT_MAX_STOPS]; /**< A gradient stop array */
 157:Drivers/lvgl/src/core/../misc/lv_style.h ****     uint8_t              stops_count;                  /**< The number of used stops in the array *
 158:Drivers/lvgl/src/core/../misc/lv_style.h ****     lv_grad_dir_t        dir : 3;                      /**< The gradient direction.
 159:Drivers/lvgl/src/core/../misc/lv_style.h ****                                                         * Any of LV_GRAD_DIR_HOR, LV_GRAD_DIR_VER, 
 160:Drivers/lvgl/src/core/../misc/lv_style.h ****     lv_dither_mode_t     dither : 3;                   /**< Whether to dither the gradient or not.
 161:Drivers/lvgl/src/core/../misc/lv_style.h ****                                                         * Any of LV_DITHER_NONE, LV_DITHER_ORDERED,
 162:Drivers/lvgl/src/core/../misc/lv_style.h **** } lv_grad_dsc_t;
 163:Drivers/lvgl/src/core/../misc/lv_style.h **** 
ARM GAS  /var/folders/0z/tsy30v1j4xl4_7kw94k978ww0000gn/T//cc8A9NTU.s 			page 65


 164:Drivers/lvgl/src/core/../misc/lv_style.h **** /**
 165:Drivers/lvgl/src/core/../misc/lv_style.h ****  * A common type to handle all the property types in the same way.
 166:Drivers/lvgl/src/core/../misc/lv_style.h ****  */
 167:Drivers/lvgl/src/core/../misc/lv_style.h **** typedef union {
 168:Drivers/lvgl/src/core/../misc/lv_style.h ****     int32_t num;         /**< Number integer number (opacity, enums, booleans or "normal" numbers)*
 169:Drivers/lvgl/src/core/../misc/lv_style.h ****     const void * ptr;    /**< Constant pointers  (font, cone text, etc)*/
 170:Drivers/lvgl/src/core/../misc/lv_style.h ****     lv_color_t color;    /**< Colors*/
 171:Drivers/lvgl/src/core/../misc/lv_style.h **** } lv_style_value_t;
 172:Drivers/lvgl/src/core/../misc/lv_style.h **** 
 173:Drivers/lvgl/src/core/../misc/lv_style.h **** /**
 174:Drivers/lvgl/src/core/../misc/lv_style.h ****  * Enumeration of all built in style properties
 175:Drivers/lvgl/src/core/../misc/lv_style.h ****  *
 176:Drivers/lvgl/src/core/../misc/lv_style.h ****  * Props are split into groups of 16. When adding a new prop to a group, ensure it does not overflo
 177:Drivers/lvgl/src/core/../misc/lv_style.h ****  */
 178:Drivers/lvgl/src/core/../misc/lv_style.h **** typedef enum {
 179:Drivers/lvgl/src/core/../misc/lv_style.h ****     LV_STYLE_PROP_INV               = 0,
 180:Drivers/lvgl/src/core/../misc/lv_style.h **** 
 181:Drivers/lvgl/src/core/../misc/lv_style.h ****     /*Group 0*/
 182:Drivers/lvgl/src/core/../misc/lv_style.h ****     LV_STYLE_WIDTH                  = 1,
 183:Drivers/lvgl/src/core/../misc/lv_style.h ****     LV_STYLE_MIN_WIDTH              = 2,
 184:Drivers/lvgl/src/core/../misc/lv_style.h ****     LV_STYLE_MAX_WIDTH              = 3,
 185:Drivers/lvgl/src/core/../misc/lv_style.h ****     LV_STYLE_HEIGHT                 = 4,
 186:Drivers/lvgl/src/core/../misc/lv_style.h ****     LV_STYLE_MIN_HEIGHT             = 5,
 187:Drivers/lvgl/src/core/../misc/lv_style.h ****     LV_STYLE_MAX_HEIGHT             = 6,
 188:Drivers/lvgl/src/core/../misc/lv_style.h ****     LV_STYLE_X                      = 7,
 189:Drivers/lvgl/src/core/../misc/lv_style.h ****     LV_STYLE_Y                      = 8,
 190:Drivers/lvgl/src/core/../misc/lv_style.h ****     LV_STYLE_ALIGN                  = 9,
 191:Drivers/lvgl/src/core/../misc/lv_style.h ****     LV_STYLE_LAYOUT                 = 10,
 192:Drivers/lvgl/src/core/../misc/lv_style.h ****     LV_STYLE_RADIUS                 = 11,
 193:Drivers/lvgl/src/core/../misc/lv_style.h **** 
 194:Drivers/lvgl/src/core/../misc/lv_style.h ****     /*Group 1*/
 195:Drivers/lvgl/src/core/../misc/lv_style.h ****     LV_STYLE_PAD_TOP                = 16,
 196:Drivers/lvgl/src/core/../misc/lv_style.h ****     LV_STYLE_PAD_BOTTOM             = 17,
 197:Drivers/lvgl/src/core/../misc/lv_style.h ****     LV_STYLE_PAD_LEFT               = 18,
 198:Drivers/lvgl/src/core/../misc/lv_style.h ****     LV_STYLE_PAD_RIGHT              = 19,
 199:Drivers/lvgl/src/core/../misc/lv_style.h ****     LV_STYLE_PAD_ROW                = 20,
 200:Drivers/lvgl/src/core/../misc/lv_style.h ****     LV_STYLE_PAD_COLUMN             = 21,
 201:Drivers/lvgl/src/core/../misc/lv_style.h ****     LV_STYLE_BASE_DIR               = 22,
 202:Drivers/lvgl/src/core/../misc/lv_style.h ****     LV_STYLE_CLIP_CORNER            = 23,
 203:Drivers/lvgl/src/core/../misc/lv_style.h **** 
 204:Drivers/lvgl/src/core/../misc/lv_style.h ****     /*Group 2*/
 205:Drivers/lvgl/src/core/../misc/lv_style.h ****     LV_STYLE_BG_COLOR               = 32,
 206:Drivers/lvgl/src/core/../misc/lv_style.h ****     LV_STYLE_BG_OPA                 = 33,
 207:Drivers/lvgl/src/core/../misc/lv_style.h ****     LV_STYLE_BG_GRAD_COLOR          = 34,
 208:Drivers/lvgl/src/core/../misc/lv_style.h ****     LV_STYLE_BG_GRAD_DIR            = 35,
 209:Drivers/lvgl/src/core/../misc/lv_style.h ****     LV_STYLE_BG_MAIN_STOP           = 36,
 210:Drivers/lvgl/src/core/../misc/lv_style.h ****     LV_STYLE_BG_GRAD_STOP           = 37,
 211:Drivers/lvgl/src/core/../misc/lv_style.h ****     LV_STYLE_BG_GRAD                = 38,
 212:Drivers/lvgl/src/core/../misc/lv_style.h ****     LV_STYLE_BG_DITHER_MODE         = 39,
 213:Drivers/lvgl/src/core/../misc/lv_style.h ****     LV_STYLE_BG_IMG_SRC             = 40,
 214:Drivers/lvgl/src/core/../misc/lv_style.h ****     LV_STYLE_BG_IMG_OPA             = 41,
 215:Drivers/lvgl/src/core/../misc/lv_style.h ****     LV_STYLE_BG_IMG_RECOLOR         = 42,
 216:Drivers/lvgl/src/core/../misc/lv_style.h ****     LV_STYLE_BG_IMG_RECOLOR_OPA     = 43,
 217:Drivers/lvgl/src/core/../misc/lv_style.h ****     LV_STYLE_BG_IMG_TILED           = 44,
 218:Drivers/lvgl/src/core/../misc/lv_style.h **** 
 219:Drivers/lvgl/src/core/../misc/lv_style.h ****     /*Group 3*/
 220:Drivers/lvgl/src/core/../misc/lv_style.h ****     LV_STYLE_BORDER_COLOR           = 48,
ARM GAS  /var/folders/0z/tsy30v1j4xl4_7kw94k978ww0000gn/T//cc8A9NTU.s 			page 66


 221:Drivers/lvgl/src/core/../misc/lv_style.h ****     LV_STYLE_BORDER_OPA             = 49,
 222:Drivers/lvgl/src/core/../misc/lv_style.h ****     LV_STYLE_BORDER_WIDTH           = 50,
 223:Drivers/lvgl/src/core/../misc/lv_style.h ****     LV_STYLE_BORDER_SIDE            = 51,
 224:Drivers/lvgl/src/core/../misc/lv_style.h ****     LV_STYLE_BORDER_POST            = 52,
 225:Drivers/lvgl/src/core/../misc/lv_style.h ****     LV_STYLE_OUTLINE_WIDTH          = 53,
 226:Drivers/lvgl/src/core/../misc/lv_style.h ****     LV_STYLE_OUTLINE_COLOR          = 54,
 227:Drivers/lvgl/src/core/../misc/lv_style.h ****     LV_STYLE_OUTLINE_OPA            = 55,
 228:Drivers/lvgl/src/core/../misc/lv_style.h ****     LV_STYLE_OUTLINE_PAD            = 56,
 229:Drivers/lvgl/src/core/../misc/lv_style.h **** 
 230:Drivers/lvgl/src/core/../misc/lv_style.h ****     /*Group 4*/
 231:Drivers/lvgl/src/core/../misc/lv_style.h ****     LV_STYLE_SHADOW_WIDTH           = 64,
 232:Drivers/lvgl/src/core/../misc/lv_style.h ****     LV_STYLE_SHADOW_OFS_X           = 65,
 233:Drivers/lvgl/src/core/../misc/lv_style.h ****     LV_STYLE_SHADOW_OFS_Y           = 66,
 234:Drivers/lvgl/src/core/../misc/lv_style.h ****     LV_STYLE_SHADOW_SPREAD          = 67,
 235:Drivers/lvgl/src/core/../misc/lv_style.h ****     LV_STYLE_SHADOW_COLOR           = 68,
 236:Drivers/lvgl/src/core/../misc/lv_style.h ****     LV_STYLE_SHADOW_OPA             = 69,
 237:Drivers/lvgl/src/core/../misc/lv_style.h ****     LV_STYLE_IMG_OPA                = 70,
 238:Drivers/lvgl/src/core/../misc/lv_style.h ****     LV_STYLE_IMG_RECOLOR            = 71,
 239:Drivers/lvgl/src/core/../misc/lv_style.h ****     LV_STYLE_IMG_RECOLOR_OPA        = 72,
 240:Drivers/lvgl/src/core/../misc/lv_style.h ****     LV_STYLE_LINE_WIDTH             = 73,
 241:Drivers/lvgl/src/core/../misc/lv_style.h ****     LV_STYLE_LINE_DASH_WIDTH        = 74,
 242:Drivers/lvgl/src/core/../misc/lv_style.h ****     LV_STYLE_LINE_DASH_GAP          = 75,
 243:Drivers/lvgl/src/core/../misc/lv_style.h ****     LV_STYLE_LINE_ROUNDED           = 76,
 244:Drivers/lvgl/src/core/../misc/lv_style.h ****     LV_STYLE_LINE_COLOR             = 77,
 245:Drivers/lvgl/src/core/../misc/lv_style.h ****     LV_STYLE_LINE_OPA               = 78,
 246:Drivers/lvgl/src/core/../misc/lv_style.h **** 
 247:Drivers/lvgl/src/core/../misc/lv_style.h ****     /*Group 5*/
 248:Drivers/lvgl/src/core/../misc/lv_style.h ****     LV_STYLE_ARC_WIDTH              = 80,
 249:Drivers/lvgl/src/core/../misc/lv_style.h ****     LV_STYLE_ARC_ROUNDED            = 81,
 250:Drivers/lvgl/src/core/../misc/lv_style.h ****     LV_STYLE_ARC_COLOR              = 82,
 251:Drivers/lvgl/src/core/../misc/lv_style.h ****     LV_STYLE_ARC_OPA                = 83,
 252:Drivers/lvgl/src/core/../misc/lv_style.h ****     LV_STYLE_ARC_IMG_SRC            = 84,
 253:Drivers/lvgl/src/core/../misc/lv_style.h ****     LV_STYLE_TEXT_COLOR             = 85,
 254:Drivers/lvgl/src/core/../misc/lv_style.h ****     LV_STYLE_TEXT_OPA               = 86,
 255:Drivers/lvgl/src/core/../misc/lv_style.h ****     LV_STYLE_TEXT_FONT              = 87,
 256:Drivers/lvgl/src/core/../misc/lv_style.h ****     LV_STYLE_TEXT_LETTER_SPACE      = 88,
 257:Drivers/lvgl/src/core/../misc/lv_style.h ****     LV_STYLE_TEXT_LINE_SPACE        = 89,
 258:Drivers/lvgl/src/core/../misc/lv_style.h ****     LV_STYLE_TEXT_DECOR             = 90,
 259:Drivers/lvgl/src/core/../misc/lv_style.h ****     LV_STYLE_TEXT_ALIGN             = 91,
 260:Drivers/lvgl/src/core/../misc/lv_style.h **** 
 261:Drivers/lvgl/src/core/../misc/lv_style.h ****     /*Group 6*/
 262:Drivers/lvgl/src/core/../misc/lv_style.h ****     LV_STYLE_OPA                    = 96,
 263:Drivers/lvgl/src/core/../misc/lv_style.h ****     LV_STYLE_OPA_LAYERED            = 97,
 264:Drivers/lvgl/src/core/../misc/lv_style.h ****     LV_STYLE_COLOR_FILTER_DSC       = 98,
 265:Drivers/lvgl/src/core/../misc/lv_style.h ****     LV_STYLE_COLOR_FILTER_OPA       = 99,
 266:Drivers/lvgl/src/core/../misc/lv_style.h ****     LV_STYLE_ANIM                   = 100,
 267:Drivers/lvgl/src/core/../misc/lv_style.h ****     LV_STYLE_ANIM_TIME              = 101,
 268:Drivers/lvgl/src/core/../misc/lv_style.h ****     LV_STYLE_ANIM_SPEED             = 102,
 269:Drivers/lvgl/src/core/../misc/lv_style.h ****     LV_STYLE_TRANSITION             = 103,
 270:Drivers/lvgl/src/core/../misc/lv_style.h ****     LV_STYLE_BLEND_MODE             = 104,
 271:Drivers/lvgl/src/core/../misc/lv_style.h ****     LV_STYLE_TRANSFORM_WIDTH        = 105,
 272:Drivers/lvgl/src/core/../misc/lv_style.h ****     LV_STYLE_TRANSFORM_HEIGHT       = 106,
 273:Drivers/lvgl/src/core/../misc/lv_style.h ****     LV_STYLE_TRANSLATE_X            = 107,
 274:Drivers/lvgl/src/core/../misc/lv_style.h ****     LV_STYLE_TRANSLATE_Y            = 108,
 275:Drivers/lvgl/src/core/../misc/lv_style.h ****     LV_STYLE_TRANSFORM_ZOOM         = 109,
 276:Drivers/lvgl/src/core/../misc/lv_style.h ****     LV_STYLE_TRANSFORM_ANGLE        = 110,
 277:Drivers/lvgl/src/core/../misc/lv_style.h ****     LV_STYLE_TRANSFORM_PIVOT_X      = 111,
ARM GAS  /var/folders/0z/tsy30v1j4xl4_7kw94k978ww0000gn/T//cc8A9NTU.s 			page 67


 278:Drivers/lvgl/src/core/../misc/lv_style.h ****     LV_STYLE_TRANSFORM_PIVOT_Y      = 112,
 279:Drivers/lvgl/src/core/../misc/lv_style.h **** 
 280:Drivers/lvgl/src/core/../misc/lv_style.h ****     _LV_STYLE_LAST_BUILT_IN_PROP     = 112,
 281:Drivers/lvgl/src/core/../misc/lv_style.h ****     _LV_STYLE_NUM_BUILT_IN_PROPS     = _LV_STYLE_LAST_BUILT_IN_PROP + 1,
 282:Drivers/lvgl/src/core/../misc/lv_style.h **** 
 283:Drivers/lvgl/src/core/../misc/lv_style.h ****     LV_STYLE_PROP_ANY                = 0xFFFF,
 284:Drivers/lvgl/src/core/../misc/lv_style.h ****     _LV_STYLE_PROP_CONST             = 0xFFFF /* magic value for const styles */
 285:Drivers/lvgl/src/core/../misc/lv_style.h **** } lv_style_prop_t;
 286:Drivers/lvgl/src/core/../misc/lv_style.h **** 
 287:Drivers/lvgl/src/core/../misc/lv_style.h **** enum {
 288:Drivers/lvgl/src/core/../misc/lv_style.h ****     LV_STYLE_RES_NOT_FOUND,
 289:Drivers/lvgl/src/core/../misc/lv_style.h ****     LV_STYLE_RES_FOUND,
 290:Drivers/lvgl/src/core/../misc/lv_style.h ****     LV_STYLE_RES_INHERIT
 291:Drivers/lvgl/src/core/../misc/lv_style.h **** };
 292:Drivers/lvgl/src/core/../misc/lv_style.h **** 
 293:Drivers/lvgl/src/core/../misc/lv_style.h **** typedef uint8_t lv_style_res_t;
 294:Drivers/lvgl/src/core/../misc/lv_style.h **** 
 295:Drivers/lvgl/src/core/../misc/lv_style.h **** /**
 296:Drivers/lvgl/src/core/../misc/lv_style.h ****  * Descriptor for style transitions
 297:Drivers/lvgl/src/core/../misc/lv_style.h ****  */
 298:Drivers/lvgl/src/core/../misc/lv_style.h **** typedef struct {
 299:Drivers/lvgl/src/core/../misc/lv_style.h ****     const lv_style_prop_t * props; /**< An array with the properties to animate.*/
 300:Drivers/lvgl/src/core/../misc/lv_style.h **** #if LV_USE_USER_DATA
 301:Drivers/lvgl/src/core/../misc/lv_style.h ****     void * user_data;              /**< A custom user data that will be passed to the animation's u
 302:Drivers/lvgl/src/core/../misc/lv_style.h **** #endif
 303:Drivers/lvgl/src/core/../misc/lv_style.h ****     lv_anim_path_cb_t path_xcb;     /**< A path for the animation.*/
 304:Drivers/lvgl/src/core/../misc/lv_style.h ****     uint32_t time;                 /**< Duration of the transition in [ms]*/
 305:Drivers/lvgl/src/core/../misc/lv_style.h ****     uint32_t delay;                /**< Delay before the transition in [ms]*/
 306:Drivers/lvgl/src/core/../misc/lv_style.h **** } lv_style_transition_dsc_t;
 307:Drivers/lvgl/src/core/../misc/lv_style.h **** 
 308:Drivers/lvgl/src/core/../misc/lv_style.h **** /**
 309:Drivers/lvgl/src/core/../misc/lv_style.h ****  * Descriptor of a constant style property.
 310:Drivers/lvgl/src/core/../misc/lv_style.h ****  */
 311:Drivers/lvgl/src/core/../misc/lv_style.h **** typedef struct {
 312:Drivers/lvgl/src/core/../misc/lv_style.h ****     lv_style_prop_t prop;
 313:Drivers/lvgl/src/core/../misc/lv_style.h ****     lv_style_value_t value;
 314:Drivers/lvgl/src/core/../misc/lv_style.h **** } lv_style_const_prop_t;
 315:Drivers/lvgl/src/core/../misc/lv_style.h **** 
 316:Drivers/lvgl/src/core/../misc/lv_style.h **** /**
 317:Drivers/lvgl/src/core/../misc/lv_style.h ****  * Descriptor of a style (a collection of properties and values).
