ARM GAS  /var/folders/0z/tsy30v1j4xl4_7kw94k978ww0000gn/T//ccRTPM70.s 			page 1


   1              		.cpu cortex-m4
   2              		.arch armv7e-m
   3              		.fpu fpv4-sp-d16
   4              		.eabi_attribute 27, 1
   5              		.eabi_attribute 28, 1
   6              		.eabi_attribute 20, 1
   7              		.eabi_attribute 21, 1
   8              		.eabi_attribute 23, 3
   9              		.eabi_attribute 24, 1
  10              		.eabi_attribute 25, 1
  11              		.eabi_attribute 26, 1
  12              		.eabi_attribute 30, 1
  13              		.eabi_attribute 34, 1
  14              		.eabi_attribute 18, 4
  15              		.file	"lv_refr.c"
  16              		.text
  17              	.Ltext0:
  18              		.cfi_sections	.debug_frame
  19              		.section	.text.get_max_row,"ax",%progbits
  20              		.align	1
  21              		.syntax unified
  22              		.thumb
  23              		.thumb_func
  25              	get_max_row:
  26              	.LVL0:
  27              	.LFB186:
  28              		.file 1 "Drivers/lvgl/src/core/lv_refr.c"
   1:Drivers/lvgl/src/core/lv_refr.c **** /**
   2:Drivers/lvgl/src/core/lv_refr.c ****  * @file lv_refr.c
   3:Drivers/lvgl/src/core/lv_refr.c ****  *
   4:Drivers/lvgl/src/core/lv_refr.c ****  */
   5:Drivers/lvgl/src/core/lv_refr.c **** 
   6:Drivers/lvgl/src/core/lv_refr.c **** /*********************
   7:Drivers/lvgl/src/core/lv_refr.c ****  *      INCLUDES
   8:Drivers/lvgl/src/core/lv_refr.c ****  *********************/
   9:Drivers/lvgl/src/core/lv_refr.c **** #include <stddef.h>
  10:Drivers/lvgl/src/core/lv_refr.c **** #include "lv_refr.h"
  11:Drivers/lvgl/src/core/lv_refr.c **** #include "lv_disp.h"
  12:Drivers/lvgl/src/core/lv_refr.c **** #include "../hal/lv_hal_tick.h"
  13:Drivers/lvgl/src/core/lv_refr.c **** #include "../hal/lv_hal_disp.h"
  14:Drivers/lvgl/src/core/lv_refr.c **** #include "../misc/lv_timer.h"
  15:Drivers/lvgl/src/core/lv_refr.c **** #include "../misc/lv_mem.h"
  16:Drivers/lvgl/src/core/lv_refr.c **** #include "../misc/lv_math.h"
  17:Drivers/lvgl/src/core/lv_refr.c **** #include "../misc/lv_gc.h"
  18:Drivers/lvgl/src/core/lv_refr.c **** #include "../draw/lv_draw.h"
  19:Drivers/lvgl/src/core/lv_refr.c **** #include "../font/lv_font_fmt_txt.h"
  20:Drivers/lvgl/src/core/lv_refr.c **** #include "../extra/others/snapshot/lv_snapshot.h"
  21:Drivers/lvgl/src/core/lv_refr.c **** 
  22:Drivers/lvgl/src/core/lv_refr.c **** #if LV_USE_PERF_MONITOR || LV_USE_MEM_MONITOR
  23:Drivers/lvgl/src/core/lv_refr.c ****     #include "../widgets/lv_label.h"
  24:Drivers/lvgl/src/core/lv_refr.c **** #endif
  25:Drivers/lvgl/src/core/lv_refr.c **** 
  26:Drivers/lvgl/src/core/lv_refr.c **** /*********************
  27:Drivers/lvgl/src/core/lv_refr.c ****  *      DEFINES
  28:Drivers/lvgl/src/core/lv_refr.c ****  *********************/
  29:Drivers/lvgl/src/core/lv_refr.c **** 
  30:Drivers/lvgl/src/core/lv_refr.c **** /**********************
ARM GAS  /var/folders/0z/tsy30v1j4xl4_7kw94k978ww0000gn/T//ccRTPM70.s 			page 2


  31:Drivers/lvgl/src/core/lv_refr.c ****  *      TYPEDEFS
  32:Drivers/lvgl/src/core/lv_refr.c ****  **********************/
  33:Drivers/lvgl/src/core/lv_refr.c **** typedef struct {
  34:Drivers/lvgl/src/core/lv_refr.c ****     uint32_t    perf_last_time;
  35:Drivers/lvgl/src/core/lv_refr.c ****     uint32_t    elaps_sum;
  36:Drivers/lvgl/src/core/lv_refr.c ****     uint32_t    frame_cnt;
  37:Drivers/lvgl/src/core/lv_refr.c ****     uint32_t    fps_sum_cnt;
  38:Drivers/lvgl/src/core/lv_refr.c ****     uint32_t    fps_sum_all;
  39:Drivers/lvgl/src/core/lv_refr.c **** #if LV_USE_LABEL
  40:Drivers/lvgl/src/core/lv_refr.c ****     lv_obj_t  * perf_label;
  41:Drivers/lvgl/src/core/lv_refr.c **** #endif
  42:Drivers/lvgl/src/core/lv_refr.c **** } perf_monitor_t;
  43:Drivers/lvgl/src/core/lv_refr.c **** 
  44:Drivers/lvgl/src/core/lv_refr.c **** typedef struct {
  45:Drivers/lvgl/src/core/lv_refr.c ****     uint32_t     mem_last_time;
  46:Drivers/lvgl/src/core/lv_refr.c **** #if LV_USE_LABEL
  47:Drivers/lvgl/src/core/lv_refr.c ****     lv_obj_t  *  mem_label;
  48:Drivers/lvgl/src/core/lv_refr.c **** #endif
  49:Drivers/lvgl/src/core/lv_refr.c **** } mem_monitor_t;
  50:Drivers/lvgl/src/core/lv_refr.c **** 
  51:Drivers/lvgl/src/core/lv_refr.c **** /**********************
  52:Drivers/lvgl/src/core/lv_refr.c ****  *  STATIC PROTOTYPES
  53:Drivers/lvgl/src/core/lv_refr.c ****  **********************/
  54:Drivers/lvgl/src/core/lv_refr.c **** static void lv_refr_join_area(void);
  55:Drivers/lvgl/src/core/lv_refr.c **** static void refr_invalid_areas(void);
  56:Drivers/lvgl/src/core/lv_refr.c **** static void refr_sync_areas(void);
  57:Drivers/lvgl/src/core/lv_refr.c **** static void refr_area(const lv_area_t * area_p);
  58:Drivers/lvgl/src/core/lv_refr.c **** static void refr_area_part(lv_draw_ctx_t * draw_ctx);
  59:Drivers/lvgl/src/core/lv_refr.c **** static lv_obj_t * lv_refr_get_top_obj(const lv_area_t * area_p, lv_obj_t * obj);
  60:Drivers/lvgl/src/core/lv_refr.c **** static void refr_obj_and_children(lv_draw_ctx_t * draw_ctx, lv_obj_t * top_obj);
  61:Drivers/lvgl/src/core/lv_refr.c **** static void refr_obj(lv_draw_ctx_t * draw_ctx, lv_obj_t * obj);
  62:Drivers/lvgl/src/core/lv_refr.c **** static uint32_t get_max_row(lv_disp_t * disp, lv_coord_t area_w, lv_coord_t area_h);
  63:Drivers/lvgl/src/core/lv_refr.c **** static void draw_buf_flush(lv_disp_t * disp);
  64:Drivers/lvgl/src/core/lv_refr.c **** static void call_flush_cb(lv_disp_drv_t * drv, const lv_area_t * area, lv_color_t * color_p);
  65:Drivers/lvgl/src/core/lv_refr.c **** 
  66:Drivers/lvgl/src/core/lv_refr.c **** #if LV_USE_PERF_MONITOR
  67:Drivers/lvgl/src/core/lv_refr.c ****     static void perf_monitor_init(perf_monitor_t * perf_monitor);
  68:Drivers/lvgl/src/core/lv_refr.c **** #endif
  69:Drivers/lvgl/src/core/lv_refr.c **** #if LV_USE_MEM_MONITOR
  70:Drivers/lvgl/src/core/lv_refr.c ****     static void mem_monitor_init(mem_monitor_t * mem_monitor);
  71:Drivers/lvgl/src/core/lv_refr.c **** #endif
  72:Drivers/lvgl/src/core/lv_refr.c **** 
  73:Drivers/lvgl/src/core/lv_refr.c **** /**********************
  74:Drivers/lvgl/src/core/lv_refr.c ****  *  STATIC VARIABLES
  75:Drivers/lvgl/src/core/lv_refr.c ****  **********************/
  76:Drivers/lvgl/src/core/lv_refr.c **** static uint32_t px_num;
  77:Drivers/lvgl/src/core/lv_refr.c **** static lv_disp_t * disp_refr; /*Display being refreshed*/
  78:Drivers/lvgl/src/core/lv_refr.c **** 
  79:Drivers/lvgl/src/core/lv_refr.c **** #if LV_USE_PERF_MONITOR
  80:Drivers/lvgl/src/core/lv_refr.c ****     static perf_monitor_t   perf_monitor;
  81:Drivers/lvgl/src/core/lv_refr.c **** #endif
  82:Drivers/lvgl/src/core/lv_refr.c **** 
  83:Drivers/lvgl/src/core/lv_refr.c **** #if LV_USE_MEM_MONITOR
  84:Drivers/lvgl/src/core/lv_refr.c ****     static mem_monitor_t    mem_monitor;
  85:Drivers/lvgl/src/core/lv_refr.c **** #endif
  86:Drivers/lvgl/src/core/lv_refr.c **** 
  87:Drivers/lvgl/src/core/lv_refr.c **** /**********************
ARM GAS  /var/folders/0z/tsy30v1j4xl4_7kw94k978ww0000gn/T//ccRTPM70.s 			page 3


  88:Drivers/lvgl/src/core/lv_refr.c ****  *      MACROS
  89:Drivers/lvgl/src/core/lv_refr.c ****  **********************/
  90:Drivers/lvgl/src/core/lv_refr.c **** #if LV_LOG_TRACE_DISP_REFR
  91:Drivers/lvgl/src/core/lv_refr.c ****     #define REFR_TRACE(...) LV_LOG_TRACE(__VA_ARGS__)
  92:Drivers/lvgl/src/core/lv_refr.c **** #else
  93:Drivers/lvgl/src/core/lv_refr.c ****     #define REFR_TRACE(...)
  94:Drivers/lvgl/src/core/lv_refr.c **** #endif
  95:Drivers/lvgl/src/core/lv_refr.c **** 
  96:Drivers/lvgl/src/core/lv_refr.c **** /**********************
  97:Drivers/lvgl/src/core/lv_refr.c ****  *   GLOBAL FUNCTIONS
  98:Drivers/lvgl/src/core/lv_refr.c ****  **********************/
  99:Drivers/lvgl/src/core/lv_refr.c **** 
 100:Drivers/lvgl/src/core/lv_refr.c **** /**
 101:Drivers/lvgl/src/core/lv_refr.c ****  * Initialize the screen refresh subsystem
 102:Drivers/lvgl/src/core/lv_refr.c ****  */
 103:Drivers/lvgl/src/core/lv_refr.c **** void _lv_refr_init(void)
 104:Drivers/lvgl/src/core/lv_refr.c **** {
 105:Drivers/lvgl/src/core/lv_refr.c **** #if LV_USE_PERF_MONITOR
 106:Drivers/lvgl/src/core/lv_refr.c ****     perf_monitor_init(&perf_monitor);
 107:Drivers/lvgl/src/core/lv_refr.c **** #endif
 108:Drivers/lvgl/src/core/lv_refr.c **** #if LV_USE_MEM_MONITOR
 109:Drivers/lvgl/src/core/lv_refr.c ****     mem_monitor_init(&mem_monitor);
 110:Drivers/lvgl/src/core/lv_refr.c **** #endif
 111:Drivers/lvgl/src/core/lv_refr.c **** }
 112:Drivers/lvgl/src/core/lv_refr.c **** 
 113:Drivers/lvgl/src/core/lv_refr.c **** void lv_refr_now(lv_disp_t * disp)
 114:Drivers/lvgl/src/core/lv_refr.c **** {
 115:Drivers/lvgl/src/core/lv_refr.c ****     lv_anim_refr_now();
 116:Drivers/lvgl/src/core/lv_refr.c **** 
 117:Drivers/lvgl/src/core/lv_refr.c ****     if(disp) {
 118:Drivers/lvgl/src/core/lv_refr.c ****         if(disp->refr_timer) _lv_disp_refr_timer(disp->refr_timer);
 119:Drivers/lvgl/src/core/lv_refr.c ****     }
 120:Drivers/lvgl/src/core/lv_refr.c ****     else {
 121:Drivers/lvgl/src/core/lv_refr.c ****         lv_disp_t * d;
 122:Drivers/lvgl/src/core/lv_refr.c ****         d = lv_disp_get_next(NULL);
 123:Drivers/lvgl/src/core/lv_refr.c ****         while(d) {
 124:Drivers/lvgl/src/core/lv_refr.c ****             if(d->refr_timer) _lv_disp_refr_timer(d->refr_timer);
 125:Drivers/lvgl/src/core/lv_refr.c ****             d = lv_disp_get_next(d);
 126:Drivers/lvgl/src/core/lv_refr.c ****         }
 127:Drivers/lvgl/src/core/lv_refr.c ****     }
 128:Drivers/lvgl/src/core/lv_refr.c **** }
 129:Drivers/lvgl/src/core/lv_refr.c **** 
 130:Drivers/lvgl/src/core/lv_refr.c **** void lv_obj_redraw(lv_draw_ctx_t * draw_ctx, lv_obj_t * obj)
 131:Drivers/lvgl/src/core/lv_refr.c **** {
 132:Drivers/lvgl/src/core/lv_refr.c ****     const lv_area_t * clip_area_ori = draw_ctx->clip_area;
 133:Drivers/lvgl/src/core/lv_refr.c ****     lv_area_t clip_coords_for_obj;
 134:Drivers/lvgl/src/core/lv_refr.c **** 
 135:Drivers/lvgl/src/core/lv_refr.c ****     /*Truncate the clip area to `obj size + ext size` area*/
 136:Drivers/lvgl/src/core/lv_refr.c ****     lv_area_t obj_coords_ext;
 137:Drivers/lvgl/src/core/lv_refr.c ****     lv_obj_get_coords(obj, &obj_coords_ext);
 138:Drivers/lvgl/src/core/lv_refr.c ****     lv_coord_t ext_draw_size = _lv_obj_get_ext_draw_size(obj);
 139:Drivers/lvgl/src/core/lv_refr.c ****     lv_area_increase(&obj_coords_ext, ext_draw_size, ext_draw_size);
 140:Drivers/lvgl/src/core/lv_refr.c ****     bool com_clip_res = _lv_area_intersect(&clip_coords_for_obj, clip_area_ori, &obj_coords_ext);
 141:Drivers/lvgl/src/core/lv_refr.c ****     /*If the object is visible on the current clip area OR has overflow visible draw it.
 142:Drivers/lvgl/src/core/lv_refr.c ****      *With overflow visible drawing should happen to apply the masks which might affect children */
 143:Drivers/lvgl/src/core/lv_refr.c ****     bool should_draw = com_clip_res || lv_obj_has_flag(obj, LV_OBJ_FLAG_OVERFLOW_VISIBLE);
 144:Drivers/lvgl/src/core/lv_refr.c ****     if(should_draw) {
ARM GAS  /var/folders/0z/tsy30v1j4xl4_7kw94k978ww0000gn/T//ccRTPM70.s 			page 4


 145:Drivers/lvgl/src/core/lv_refr.c ****         draw_ctx->clip_area = &clip_coords_for_obj;
 146:Drivers/lvgl/src/core/lv_refr.c **** 
 147:Drivers/lvgl/src/core/lv_refr.c ****         lv_event_send(obj, LV_EVENT_DRAW_MAIN_BEGIN, draw_ctx);
 148:Drivers/lvgl/src/core/lv_refr.c ****         lv_event_send(obj, LV_EVENT_DRAW_MAIN, draw_ctx);
 149:Drivers/lvgl/src/core/lv_refr.c ****         lv_event_send(obj, LV_EVENT_DRAW_MAIN_END, draw_ctx);
 150:Drivers/lvgl/src/core/lv_refr.c **** #if LV_USE_REFR_DEBUG
 151:Drivers/lvgl/src/core/lv_refr.c ****         lv_color_t debug_color = lv_color_make(lv_rand(0, 0xFF), lv_rand(0, 0xFF), lv_rand(0, 0xFF)
 152:Drivers/lvgl/src/core/lv_refr.c ****         lv_draw_rect_dsc_t draw_dsc;
 153:Drivers/lvgl/src/core/lv_refr.c ****         lv_draw_rect_dsc_init(&draw_dsc);
 154:Drivers/lvgl/src/core/lv_refr.c ****         draw_dsc.bg_color.full = debug_color.full;
 155:Drivers/lvgl/src/core/lv_refr.c ****         draw_dsc.bg_opa = LV_OPA_20;
 156:Drivers/lvgl/src/core/lv_refr.c ****         draw_dsc.border_width = 1;
 157:Drivers/lvgl/src/core/lv_refr.c ****         draw_dsc.border_opa = LV_OPA_30;
 158:Drivers/lvgl/src/core/lv_refr.c ****         draw_dsc.border_color = debug_color;
 159:Drivers/lvgl/src/core/lv_refr.c ****         lv_draw_rect(draw_ctx, &draw_dsc, &obj_coords_ext);
 160:Drivers/lvgl/src/core/lv_refr.c **** #endif
 161:Drivers/lvgl/src/core/lv_refr.c ****     }
 162:Drivers/lvgl/src/core/lv_refr.c **** 
 163:Drivers/lvgl/src/core/lv_refr.c ****     /*With overflow visible keep the previous clip area to let the children visible out of this obj
 164:Drivers/lvgl/src/core/lv_refr.c ****      *With not overflow visible limit the clip are to the object's coordinates to clip the children
 165:Drivers/lvgl/src/core/lv_refr.c ****     lv_area_t clip_coords_for_children;
 166:Drivers/lvgl/src/core/lv_refr.c ****     bool refr_children = true;
 167:Drivers/lvgl/src/core/lv_refr.c ****     if(lv_obj_has_flag(obj, LV_OBJ_FLAG_OVERFLOW_VISIBLE)) {
 168:Drivers/lvgl/src/core/lv_refr.c ****         clip_coords_for_children  = *clip_area_ori;
 169:Drivers/lvgl/src/core/lv_refr.c ****     }
 170:Drivers/lvgl/src/core/lv_refr.c ****     else {
 171:Drivers/lvgl/src/core/lv_refr.c ****         if(!_lv_area_intersect(&clip_coords_for_children, clip_area_ori, &obj->coords)) {
 172:Drivers/lvgl/src/core/lv_refr.c ****             refr_children = false;
 173:Drivers/lvgl/src/core/lv_refr.c ****         }
 174:Drivers/lvgl/src/core/lv_refr.c ****     }
 175:Drivers/lvgl/src/core/lv_refr.c **** 
 176:Drivers/lvgl/src/core/lv_refr.c ****     if(refr_children) {
 177:Drivers/lvgl/src/core/lv_refr.c ****         draw_ctx->clip_area = &clip_coords_for_children;
 178:Drivers/lvgl/src/core/lv_refr.c ****         uint32_t i;
 179:Drivers/lvgl/src/core/lv_refr.c ****         uint32_t child_cnt = lv_obj_get_child_cnt(obj);
 180:Drivers/lvgl/src/core/lv_refr.c ****         for(i = 0; i < child_cnt; i++) {
 181:Drivers/lvgl/src/core/lv_refr.c ****             lv_obj_t * child = obj->spec_attr->children[i];
 182:Drivers/lvgl/src/core/lv_refr.c ****             refr_obj(draw_ctx, child);
 183:Drivers/lvgl/src/core/lv_refr.c ****         }
 184:Drivers/lvgl/src/core/lv_refr.c ****     }
 185:Drivers/lvgl/src/core/lv_refr.c **** 
 186:Drivers/lvgl/src/core/lv_refr.c ****     /*If the object was visible on the clip area call the post draw events too*/
 187:Drivers/lvgl/src/core/lv_refr.c ****     if(should_draw) {
 188:Drivers/lvgl/src/core/lv_refr.c ****         draw_ctx->clip_area = &clip_coords_for_obj;
 189:Drivers/lvgl/src/core/lv_refr.c **** 
 190:Drivers/lvgl/src/core/lv_refr.c ****         /*If all the children are redrawn make 'post draw' draw*/
 191:Drivers/lvgl/src/core/lv_refr.c ****         lv_event_send(obj, LV_EVENT_DRAW_POST_BEGIN, draw_ctx);
 192:Drivers/lvgl/src/core/lv_refr.c ****         lv_event_send(obj, LV_EVENT_DRAW_POST, draw_ctx);
 193:Drivers/lvgl/src/core/lv_refr.c ****         lv_event_send(obj, LV_EVENT_DRAW_POST_END, draw_ctx);
 194:Drivers/lvgl/src/core/lv_refr.c ****     }
 195:Drivers/lvgl/src/core/lv_refr.c **** 
 196:Drivers/lvgl/src/core/lv_refr.c ****     draw_ctx->clip_area = clip_area_ori;
 197:Drivers/lvgl/src/core/lv_refr.c **** }
 198:Drivers/lvgl/src/core/lv_refr.c **** 
 199:Drivers/lvgl/src/core/lv_refr.c **** 
 200:Drivers/lvgl/src/core/lv_refr.c **** /**
 201:Drivers/lvgl/src/core/lv_refr.c ****  * Invalidate an area on display to redraw it
ARM GAS  /var/folders/0z/tsy30v1j4xl4_7kw94k978ww0000gn/T//ccRTPM70.s 			page 5


 202:Drivers/lvgl/src/core/lv_refr.c ****  * @param area_p pointer to area which should be invalidated (NULL: delete the invalidated areas)
 203:Drivers/lvgl/src/core/lv_refr.c ****  * @param disp pointer to display where the area should be invalidated (NULL can be used if there i
 204:Drivers/lvgl/src/core/lv_refr.c ****  * only one display)
 205:Drivers/lvgl/src/core/lv_refr.c ****  */
 206:Drivers/lvgl/src/core/lv_refr.c **** void _lv_inv_area(lv_disp_t * disp, const lv_area_t * area_p)
 207:Drivers/lvgl/src/core/lv_refr.c **** {
 208:Drivers/lvgl/src/core/lv_refr.c ****     if(!disp) disp = lv_disp_get_default();
 209:Drivers/lvgl/src/core/lv_refr.c ****     if(!disp) return;
 210:Drivers/lvgl/src/core/lv_refr.c ****     if(!lv_disp_is_invalidation_enabled(disp)) return;
 211:Drivers/lvgl/src/core/lv_refr.c **** 
 212:Drivers/lvgl/src/core/lv_refr.c ****     if(disp->rendering_in_progress) {
 213:Drivers/lvgl/src/core/lv_refr.c ****         LV_LOG_ERROR("detected modifying dirty areas in render");
 214:Drivers/lvgl/src/core/lv_refr.c ****         return;
 215:Drivers/lvgl/src/core/lv_refr.c ****     }
 216:Drivers/lvgl/src/core/lv_refr.c **** 
 217:Drivers/lvgl/src/core/lv_refr.c ****     /*Clear the invalidate buffer if the parameter is NULL*/
 218:Drivers/lvgl/src/core/lv_refr.c ****     if(area_p == NULL) {
 219:Drivers/lvgl/src/core/lv_refr.c ****         disp->inv_p = 0;
 220:Drivers/lvgl/src/core/lv_refr.c ****         return;
 221:Drivers/lvgl/src/core/lv_refr.c ****     }
 222:Drivers/lvgl/src/core/lv_refr.c **** 
 223:Drivers/lvgl/src/core/lv_refr.c ****     lv_area_t scr_area;
 224:Drivers/lvgl/src/core/lv_refr.c ****     scr_area.x1 = 0;
 225:Drivers/lvgl/src/core/lv_refr.c ****     scr_area.y1 = 0;
 226:Drivers/lvgl/src/core/lv_refr.c ****     scr_area.x2 = lv_disp_get_hor_res(disp) - 1;
 227:Drivers/lvgl/src/core/lv_refr.c ****     scr_area.y2 = lv_disp_get_ver_res(disp) - 1;
 228:Drivers/lvgl/src/core/lv_refr.c **** 
 229:Drivers/lvgl/src/core/lv_refr.c ****     lv_area_t com_area;
 230:Drivers/lvgl/src/core/lv_refr.c ****     bool suc;
 231:Drivers/lvgl/src/core/lv_refr.c **** 
 232:Drivers/lvgl/src/core/lv_refr.c ****     suc = _lv_area_intersect(&com_area, area_p, &scr_area);
 233:Drivers/lvgl/src/core/lv_refr.c ****     if(suc == false)  return; /*Out of the screen*/
 234:Drivers/lvgl/src/core/lv_refr.c **** 
 235:Drivers/lvgl/src/core/lv_refr.c ****     /*If there were at least 1 invalid area in full refresh mode, redraw the whole screen*/
 236:Drivers/lvgl/src/core/lv_refr.c ****     if(disp->driver->full_refresh) {
 237:Drivers/lvgl/src/core/lv_refr.c ****         disp->inv_areas[0] = scr_area;
 238:Drivers/lvgl/src/core/lv_refr.c ****         disp->inv_p = 1;
 239:Drivers/lvgl/src/core/lv_refr.c ****         if(disp->refr_timer) lv_timer_resume(disp->refr_timer);
 240:Drivers/lvgl/src/core/lv_refr.c ****         return;
 241:Drivers/lvgl/src/core/lv_refr.c ****     }
 242:Drivers/lvgl/src/core/lv_refr.c **** 
 243:Drivers/lvgl/src/core/lv_refr.c ****     if(disp->driver->rounder_cb) disp->driver->rounder_cb(disp->driver, &com_area);
 244:Drivers/lvgl/src/core/lv_refr.c **** 
 245:Drivers/lvgl/src/core/lv_refr.c ****     /*Save only if this area is not in one of the saved areas*/
 246:Drivers/lvgl/src/core/lv_refr.c ****     uint16_t i;
 247:Drivers/lvgl/src/core/lv_refr.c ****     for(i = 0; i < disp->inv_p; i++) {
 248:Drivers/lvgl/src/core/lv_refr.c ****         if(_lv_area_is_in(&com_area, &disp->inv_areas[i], 0) != false) return;
 249:Drivers/lvgl/src/core/lv_refr.c ****     }
 250:Drivers/lvgl/src/core/lv_refr.c **** 
 251:Drivers/lvgl/src/core/lv_refr.c ****     /*Save the area*/
 252:Drivers/lvgl/src/core/lv_refr.c ****     if(disp->inv_p < LV_INV_BUF_SIZE) {
 253:Drivers/lvgl/src/core/lv_refr.c ****         lv_area_copy(&disp->inv_areas[disp->inv_p], &com_area);
 254:Drivers/lvgl/src/core/lv_refr.c ****     }
 255:Drivers/lvgl/src/core/lv_refr.c ****     else {   /*If no place for the area add the screen*/
 256:Drivers/lvgl/src/core/lv_refr.c ****         disp->inv_p = 0;
 257:Drivers/lvgl/src/core/lv_refr.c ****         lv_area_copy(&disp->inv_areas[disp->inv_p], &scr_area);
 258:Drivers/lvgl/src/core/lv_refr.c ****     }
ARM GAS  /var/folders/0z/tsy30v1j4xl4_7kw94k978ww0000gn/T//ccRTPM70.s 			page 6


 259:Drivers/lvgl/src/core/lv_refr.c ****     disp->inv_p++;
 260:Drivers/lvgl/src/core/lv_refr.c ****     if(disp->refr_timer) lv_timer_resume(disp->refr_timer);
 261:Drivers/lvgl/src/core/lv_refr.c **** }
 262:Drivers/lvgl/src/core/lv_refr.c **** 
 263:Drivers/lvgl/src/core/lv_refr.c **** /**
 264:Drivers/lvgl/src/core/lv_refr.c ****  * Get the display which is being refreshed
 265:Drivers/lvgl/src/core/lv_refr.c ****  * @return the display being refreshed
 266:Drivers/lvgl/src/core/lv_refr.c ****  */
 267:Drivers/lvgl/src/core/lv_refr.c **** lv_disp_t * _lv_refr_get_disp_refreshing(void)
 268:Drivers/lvgl/src/core/lv_refr.c **** {
 269:Drivers/lvgl/src/core/lv_refr.c ****     return disp_refr;
 270:Drivers/lvgl/src/core/lv_refr.c **** }
 271:Drivers/lvgl/src/core/lv_refr.c **** 
 272:Drivers/lvgl/src/core/lv_refr.c **** /**
 273:Drivers/lvgl/src/core/lv_refr.c ****  * Set the display which is being refreshed.
 274:Drivers/lvgl/src/core/lv_refr.c ****  * It shouldn't be used directly by the user.
 275:Drivers/lvgl/src/core/lv_refr.c ****  * It can be used to trick the drawing functions about there is an active display.
 276:Drivers/lvgl/src/core/lv_refr.c ****  * @param the display being refreshed
 277:Drivers/lvgl/src/core/lv_refr.c ****  */
 278:Drivers/lvgl/src/core/lv_refr.c **** void _lv_refr_set_disp_refreshing(lv_disp_t * disp)
 279:Drivers/lvgl/src/core/lv_refr.c **** {
 280:Drivers/lvgl/src/core/lv_refr.c ****     disp_refr = disp;
 281:Drivers/lvgl/src/core/lv_refr.c **** }
 282:Drivers/lvgl/src/core/lv_refr.c **** 
 283:Drivers/lvgl/src/core/lv_refr.c **** /**
 284:Drivers/lvgl/src/core/lv_refr.c ****  * Called periodically to handle the refreshing
 285:Drivers/lvgl/src/core/lv_refr.c ****  * @param tmr pointer to the timer itself
 286:Drivers/lvgl/src/core/lv_refr.c ****  */
 287:Drivers/lvgl/src/core/lv_refr.c **** void _lv_disp_refr_timer(lv_timer_t * tmr)
 288:Drivers/lvgl/src/core/lv_refr.c **** {
 289:Drivers/lvgl/src/core/lv_refr.c ****     REFR_TRACE("begin");
 290:Drivers/lvgl/src/core/lv_refr.c **** 
 291:Drivers/lvgl/src/core/lv_refr.c ****     uint32_t start = lv_tick_get();
 292:Drivers/lvgl/src/core/lv_refr.c ****     volatile uint32_t elaps = 0;
 293:Drivers/lvgl/src/core/lv_refr.c **** 
 294:Drivers/lvgl/src/core/lv_refr.c ****     if(tmr) {
 295:Drivers/lvgl/src/core/lv_refr.c ****         disp_refr = tmr->user_data;
 296:Drivers/lvgl/src/core/lv_refr.c **** #if LV_USE_PERF_MONITOR == 0 && LV_USE_MEM_MONITOR == 0
 297:Drivers/lvgl/src/core/lv_refr.c ****         /**
 298:Drivers/lvgl/src/core/lv_refr.c ****          * Ensure the timer does not run again automatically.
 299:Drivers/lvgl/src/core/lv_refr.c ****          * This is done before refreshing in case refreshing invalidates something else.
 300:Drivers/lvgl/src/core/lv_refr.c ****          */
 301:Drivers/lvgl/src/core/lv_refr.c ****         lv_timer_pause(tmr);
 302:Drivers/lvgl/src/core/lv_refr.c **** #endif
 303:Drivers/lvgl/src/core/lv_refr.c ****     }
 304:Drivers/lvgl/src/core/lv_refr.c ****     else {
 305:Drivers/lvgl/src/core/lv_refr.c ****         disp_refr = lv_disp_get_default();
 306:Drivers/lvgl/src/core/lv_refr.c ****     }
 307:Drivers/lvgl/src/core/lv_refr.c **** 
 308:Drivers/lvgl/src/core/lv_refr.c ****     /*Refresh the screen's layout if required*/
 309:Drivers/lvgl/src/core/lv_refr.c ****     lv_obj_update_layout(disp_refr->act_scr);
 310:Drivers/lvgl/src/core/lv_refr.c ****     if(disp_refr->prev_scr) lv_obj_update_layout(disp_refr->prev_scr);
 311:Drivers/lvgl/src/core/lv_refr.c **** 
 312:Drivers/lvgl/src/core/lv_refr.c ****     lv_obj_update_layout(disp_refr->top_layer);
 313:Drivers/lvgl/src/core/lv_refr.c ****     lv_obj_update_layout(disp_refr->sys_layer);
 314:Drivers/lvgl/src/core/lv_refr.c **** 
 315:Drivers/lvgl/src/core/lv_refr.c ****     /*Do nothing if there is no active screen*/
ARM GAS  /var/folders/0z/tsy30v1j4xl4_7kw94k978ww0000gn/T//ccRTPM70.s 			page 7


 316:Drivers/lvgl/src/core/lv_refr.c ****     if(disp_refr->act_scr == NULL) {
 317:Drivers/lvgl/src/core/lv_refr.c ****         disp_refr->inv_p = 0;
 318:Drivers/lvgl/src/core/lv_refr.c ****         LV_LOG_WARN("there is no active screen");
 319:Drivers/lvgl/src/core/lv_refr.c ****         REFR_TRACE("finished");
 320:Drivers/lvgl/src/core/lv_refr.c ****         return;
 321:Drivers/lvgl/src/core/lv_refr.c ****     }
 322:Drivers/lvgl/src/core/lv_refr.c **** 
 323:Drivers/lvgl/src/core/lv_refr.c ****     lv_refr_join_area();
 324:Drivers/lvgl/src/core/lv_refr.c ****     refr_sync_areas();
 325:Drivers/lvgl/src/core/lv_refr.c ****     refr_invalid_areas();
 326:Drivers/lvgl/src/core/lv_refr.c **** 
 327:Drivers/lvgl/src/core/lv_refr.c ****     /*If refresh happened ...*/
 328:Drivers/lvgl/src/core/lv_refr.c ****     if(disp_refr->inv_p != 0) {
 329:Drivers/lvgl/src/core/lv_refr.c **** 
 330:Drivers/lvgl/src/core/lv_refr.c ****         /*Copy invalid areas for sync next refresh in double buffered direct mode*/
 331:Drivers/lvgl/src/core/lv_refr.c ****         if(disp_refr->driver->direct_mode && disp_refr->driver->draw_buf->buf2) {
 332:Drivers/lvgl/src/core/lv_refr.c **** 
 333:Drivers/lvgl/src/core/lv_refr.c ****             uint16_t i;
 334:Drivers/lvgl/src/core/lv_refr.c ****             for(i = 0; i < disp_refr->inv_p; i++) {
 335:Drivers/lvgl/src/core/lv_refr.c ****                 if(disp_refr->inv_area_joined[i])
 336:Drivers/lvgl/src/core/lv_refr.c ****                     continue;
 337:Drivers/lvgl/src/core/lv_refr.c **** 
 338:Drivers/lvgl/src/core/lv_refr.c ****                 lv_area_t * sync_area = _lv_ll_ins_tail(&disp_refr->sync_areas);
 339:Drivers/lvgl/src/core/lv_refr.c ****                 *sync_area = disp_refr->inv_areas[i];
 340:Drivers/lvgl/src/core/lv_refr.c ****             }
 341:Drivers/lvgl/src/core/lv_refr.c ****         }
 342:Drivers/lvgl/src/core/lv_refr.c **** 
 343:Drivers/lvgl/src/core/lv_refr.c ****         /*Clean up*/
 344:Drivers/lvgl/src/core/lv_refr.c ****         lv_memset_00(disp_refr->inv_areas, sizeof(disp_refr->inv_areas));
 345:Drivers/lvgl/src/core/lv_refr.c ****         lv_memset_00(disp_refr->inv_area_joined, sizeof(disp_refr->inv_area_joined));
 346:Drivers/lvgl/src/core/lv_refr.c ****         disp_refr->inv_p = 0;
 347:Drivers/lvgl/src/core/lv_refr.c **** 
 348:Drivers/lvgl/src/core/lv_refr.c ****         elaps = lv_tick_elaps(start);
 349:Drivers/lvgl/src/core/lv_refr.c **** 
 350:Drivers/lvgl/src/core/lv_refr.c ****         /*Call monitor cb if present*/
 351:Drivers/lvgl/src/core/lv_refr.c ****         if(disp_refr->driver->monitor_cb) {
 352:Drivers/lvgl/src/core/lv_refr.c ****             disp_refr->driver->monitor_cb(disp_refr->driver, elaps, px_num);
 353:Drivers/lvgl/src/core/lv_refr.c ****         }
 354:Drivers/lvgl/src/core/lv_refr.c ****     }
 355:Drivers/lvgl/src/core/lv_refr.c **** 
 356:Drivers/lvgl/src/core/lv_refr.c ****     lv_mem_buf_free_all();
 357:Drivers/lvgl/src/core/lv_refr.c ****     _lv_font_clean_up_fmt_txt();
 358:Drivers/lvgl/src/core/lv_refr.c **** 
 359:Drivers/lvgl/src/core/lv_refr.c **** #if LV_DRAW_COMPLEX
 360:Drivers/lvgl/src/core/lv_refr.c ****     _lv_draw_mask_cleanup();
 361:Drivers/lvgl/src/core/lv_refr.c **** #endif
 362:Drivers/lvgl/src/core/lv_refr.c **** 
 363:Drivers/lvgl/src/core/lv_refr.c **** #if LV_USE_PERF_MONITOR && LV_USE_LABEL
 364:Drivers/lvgl/src/core/lv_refr.c ****     lv_obj_t * perf_label = perf_monitor.perf_label;
 365:Drivers/lvgl/src/core/lv_refr.c ****     if(perf_label == NULL) {
 366:Drivers/lvgl/src/core/lv_refr.c ****         perf_label = lv_label_create(lv_layer_sys());
 367:Drivers/lvgl/src/core/lv_refr.c ****         lv_obj_set_style_bg_opa(perf_label, LV_OPA_50, 0);
 368:Drivers/lvgl/src/core/lv_refr.c ****         lv_obj_set_style_bg_color(perf_label, lv_color_black(), 0);
 369:Drivers/lvgl/src/core/lv_refr.c ****         lv_obj_set_style_text_color(perf_label, lv_color_white(), 0);
 370:Drivers/lvgl/src/core/lv_refr.c ****         lv_obj_set_style_pad_top(perf_label, 3, 0);
 371:Drivers/lvgl/src/core/lv_refr.c ****         lv_obj_set_style_pad_bottom(perf_label, 3, 0);
 372:Drivers/lvgl/src/core/lv_refr.c ****         lv_obj_set_style_pad_left(perf_label, 3, 0);
ARM GAS  /var/folders/0z/tsy30v1j4xl4_7kw94k978ww0000gn/T//ccRTPM70.s 			page 8


 373:Drivers/lvgl/src/core/lv_refr.c ****         lv_obj_set_style_pad_right(perf_label, 3, 0);
 374:Drivers/lvgl/src/core/lv_refr.c ****         lv_obj_set_style_text_align(perf_label, LV_TEXT_ALIGN_RIGHT, 0);
 375:Drivers/lvgl/src/core/lv_refr.c ****         lv_label_set_text(perf_label, "?");
 376:Drivers/lvgl/src/core/lv_refr.c ****         lv_obj_align(perf_label, LV_USE_PERF_MONITOR_POS, 0, 0);
 377:Drivers/lvgl/src/core/lv_refr.c ****         perf_monitor.perf_label = perf_label;
 378:Drivers/lvgl/src/core/lv_refr.c ****     }
 379:Drivers/lvgl/src/core/lv_refr.c **** 
 380:Drivers/lvgl/src/core/lv_refr.c ****     if(lv_tick_elaps(perf_monitor.perf_last_time) < 300) {
 381:Drivers/lvgl/src/core/lv_refr.c ****         if(px_num > 5000) {
 382:Drivers/lvgl/src/core/lv_refr.c ****             perf_monitor.elaps_sum += elaps;
 383:Drivers/lvgl/src/core/lv_refr.c ****             perf_monitor.frame_cnt ++;
 384:Drivers/lvgl/src/core/lv_refr.c ****         }
 385:Drivers/lvgl/src/core/lv_refr.c ****     }
 386:Drivers/lvgl/src/core/lv_refr.c ****     else {
 387:Drivers/lvgl/src/core/lv_refr.c ****         perf_monitor.perf_last_time = lv_tick_get();
 388:Drivers/lvgl/src/core/lv_refr.c ****         uint32_t fps_limit;
 389:Drivers/lvgl/src/core/lv_refr.c ****         uint32_t fps;
 390:Drivers/lvgl/src/core/lv_refr.c **** 
 391:Drivers/lvgl/src/core/lv_refr.c ****         if(disp_refr->refr_timer) {
 392:Drivers/lvgl/src/core/lv_refr.c ****             fps_limit = 1000 / disp_refr->refr_timer->period;
 393:Drivers/lvgl/src/core/lv_refr.c ****         }
 394:Drivers/lvgl/src/core/lv_refr.c ****         else {
 395:Drivers/lvgl/src/core/lv_refr.c ****             fps_limit = 1000 / LV_DISP_DEF_REFR_PERIOD;
 396:Drivers/lvgl/src/core/lv_refr.c ****         }
 397:Drivers/lvgl/src/core/lv_refr.c **** 
 398:Drivers/lvgl/src/core/lv_refr.c ****         if(perf_monitor.elaps_sum == 0) {
 399:Drivers/lvgl/src/core/lv_refr.c ****             perf_monitor.elaps_sum = 1;
 400:Drivers/lvgl/src/core/lv_refr.c ****         }
 401:Drivers/lvgl/src/core/lv_refr.c ****         if(perf_monitor.frame_cnt == 0) {
 402:Drivers/lvgl/src/core/lv_refr.c ****             fps = fps_limit;
 403:Drivers/lvgl/src/core/lv_refr.c ****         }
 404:Drivers/lvgl/src/core/lv_refr.c ****         else {
 405:Drivers/lvgl/src/core/lv_refr.c ****             fps = (1000 * perf_monitor.frame_cnt) / perf_monitor.elaps_sum;
 406:Drivers/lvgl/src/core/lv_refr.c ****         }
 407:Drivers/lvgl/src/core/lv_refr.c ****         perf_monitor.elaps_sum = 0;
 408:Drivers/lvgl/src/core/lv_refr.c ****         perf_monitor.frame_cnt = 0;
 409:Drivers/lvgl/src/core/lv_refr.c ****         if(fps > fps_limit) {
 410:Drivers/lvgl/src/core/lv_refr.c ****             fps = fps_limit;
 411:Drivers/lvgl/src/core/lv_refr.c ****         }
 412:Drivers/lvgl/src/core/lv_refr.c **** 
 413:Drivers/lvgl/src/core/lv_refr.c ****         perf_monitor.fps_sum_all += fps;
 414:Drivers/lvgl/src/core/lv_refr.c ****         perf_monitor.fps_sum_cnt ++;
 415:Drivers/lvgl/src/core/lv_refr.c ****         uint32_t cpu = 100 - lv_timer_get_idle();
 416:Drivers/lvgl/src/core/lv_refr.c ****         lv_label_set_text_fmt(perf_label, "%"LV_PRIu32" FPS\n%"LV_PRIu32"%% CPU", fps, cpu);
 417:Drivers/lvgl/src/core/lv_refr.c ****     }
 418:Drivers/lvgl/src/core/lv_refr.c **** #endif
 419:Drivers/lvgl/src/core/lv_refr.c **** 
 420:Drivers/lvgl/src/core/lv_refr.c **** #if LV_USE_MEM_MONITOR && LV_MEM_CUSTOM == 0 && LV_USE_LABEL
 421:Drivers/lvgl/src/core/lv_refr.c ****     lv_obj_t * mem_label = mem_monitor.mem_label;
 422:Drivers/lvgl/src/core/lv_refr.c ****     if(mem_label == NULL) {
 423:Drivers/lvgl/src/core/lv_refr.c ****         mem_label = lv_label_create(lv_layer_sys());
 424:Drivers/lvgl/src/core/lv_refr.c ****         lv_obj_set_style_bg_opa(mem_label, LV_OPA_50, 0);
 425:Drivers/lvgl/src/core/lv_refr.c ****         lv_obj_set_style_bg_color(mem_label, lv_color_black(), 0);
 426:Drivers/lvgl/src/core/lv_refr.c ****         lv_obj_set_style_text_color(mem_label, lv_color_white(), 0);
 427:Drivers/lvgl/src/core/lv_refr.c ****         lv_obj_set_style_pad_top(mem_label, 3, 0);
 428:Drivers/lvgl/src/core/lv_refr.c ****         lv_obj_set_style_pad_bottom(mem_label, 3, 0);
 429:Drivers/lvgl/src/core/lv_refr.c ****         lv_obj_set_style_pad_left(mem_label, 3, 0);
ARM GAS  /var/folders/0z/tsy30v1j4xl4_7kw94k978ww0000gn/T//ccRTPM70.s 			page 9


 430:Drivers/lvgl/src/core/lv_refr.c ****         lv_obj_set_style_pad_right(mem_label, 3, 0);
 431:Drivers/lvgl/src/core/lv_refr.c ****         lv_label_set_text(mem_label, "?");
 432:Drivers/lvgl/src/core/lv_refr.c ****         lv_obj_align(mem_label, LV_USE_MEM_MONITOR_POS, 0, 0);
 433:Drivers/lvgl/src/core/lv_refr.c ****         mem_monitor.mem_label = mem_label;
 434:Drivers/lvgl/src/core/lv_refr.c ****     }
 435:Drivers/lvgl/src/core/lv_refr.c **** 
 436:Drivers/lvgl/src/core/lv_refr.c ****     if(lv_tick_elaps(mem_monitor.mem_last_time) > 300) {
 437:Drivers/lvgl/src/core/lv_refr.c ****         mem_monitor.mem_last_time = lv_tick_get();
 438:Drivers/lvgl/src/core/lv_refr.c ****         lv_mem_monitor_t mon;
 439:Drivers/lvgl/src/core/lv_refr.c ****         lv_mem_monitor(&mon);
 440:Drivers/lvgl/src/core/lv_refr.c ****         uint32_t used_size = mon.total_size - mon.free_size;;
 441:Drivers/lvgl/src/core/lv_refr.c ****         uint32_t used_kb = used_size / 1024;
 442:Drivers/lvgl/src/core/lv_refr.c ****         uint32_t used_kb_tenth = (used_size - (used_kb * 1024)) / 102;
 443:Drivers/lvgl/src/core/lv_refr.c ****         lv_label_set_text_fmt(mem_label,
 444:Drivers/lvgl/src/core/lv_refr.c ****                               "%"LV_PRIu32 ".%"LV_PRIu32 " kB used (%d %%)\n"
 445:Drivers/lvgl/src/core/lv_refr.c ****                               "%d%% frag.",
 446:Drivers/lvgl/src/core/lv_refr.c ****                               used_kb, used_kb_tenth, mon.used_pct,
 447:Drivers/lvgl/src/core/lv_refr.c ****                               mon.frag_pct);
 448:Drivers/lvgl/src/core/lv_refr.c ****     }
 449:Drivers/lvgl/src/core/lv_refr.c **** #endif
 450:Drivers/lvgl/src/core/lv_refr.c **** 
 451:Drivers/lvgl/src/core/lv_refr.c ****     REFR_TRACE("finished");
 452:Drivers/lvgl/src/core/lv_refr.c **** }
 453:Drivers/lvgl/src/core/lv_refr.c **** 
 454:Drivers/lvgl/src/core/lv_refr.c **** #if LV_USE_PERF_MONITOR
 455:Drivers/lvgl/src/core/lv_refr.c **** void lv_refr_reset_fps_counter(void)
 456:Drivers/lvgl/src/core/lv_refr.c **** {
 457:Drivers/lvgl/src/core/lv_refr.c ****     perf_monitor.fps_sum_all = 0;
 458:Drivers/lvgl/src/core/lv_refr.c ****     perf_monitor.fps_sum_cnt = 0;
 459:Drivers/lvgl/src/core/lv_refr.c **** }
 460:Drivers/lvgl/src/core/lv_refr.c **** 
 461:Drivers/lvgl/src/core/lv_refr.c **** uint32_t lv_refr_get_fps_avg(void)
 462:Drivers/lvgl/src/core/lv_refr.c **** {
 463:Drivers/lvgl/src/core/lv_refr.c ****     if(perf_monitor.fps_sum_cnt == 0) {
 464:Drivers/lvgl/src/core/lv_refr.c ****         return 0;
 465:Drivers/lvgl/src/core/lv_refr.c ****     }
 466:Drivers/lvgl/src/core/lv_refr.c ****     return perf_monitor.fps_sum_all / perf_monitor.fps_sum_cnt;
 467:Drivers/lvgl/src/core/lv_refr.c **** }
 468:Drivers/lvgl/src/core/lv_refr.c **** #endif
 469:Drivers/lvgl/src/core/lv_refr.c **** 
 470:Drivers/lvgl/src/core/lv_refr.c **** 
 471:Drivers/lvgl/src/core/lv_refr.c **** /**********************
 472:Drivers/lvgl/src/core/lv_refr.c ****  *   STATIC FUNCTIONS
 473:Drivers/lvgl/src/core/lv_refr.c ****  **********************/
 474:Drivers/lvgl/src/core/lv_refr.c **** 
 475:Drivers/lvgl/src/core/lv_refr.c **** /**
 476:Drivers/lvgl/src/core/lv_refr.c ****  * Join the areas which has got common parts
 477:Drivers/lvgl/src/core/lv_refr.c ****  */
 478:Drivers/lvgl/src/core/lv_refr.c **** static void lv_refr_join_area(void)
 479:Drivers/lvgl/src/core/lv_refr.c **** {
 480:Drivers/lvgl/src/core/lv_refr.c ****     uint32_t join_from;
 481:Drivers/lvgl/src/core/lv_refr.c ****     uint32_t join_in;
 482:Drivers/lvgl/src/core/lv_refr.c ****     lv_area_t joined_area;
 483:Drivers/lvgl/src/core/lv_refr.c ****     for(join_in = 0; join_in < disp_refr->inv_p; join_in++) {
 484:Drivers/lvgl/src/core/lv_refr.c ****         if(disp_refr->inv_area_joined[join_in] != 0) continue;
 485:Drivers/lvgl/src/core/lv_refr.c **** 
 486:Drivers/lvgl/src/core/lv_refr.c ****         /*Check all areas to join them in 'join_in'*/
ARM GAS  /var/folders/0z/tsy30v1j4xl4_7kw94k978ww0000gn/T//ccRTPM70.s 			page 10


 487:Drivers/lvgl/src/core/lv_refr.c ****         for(join_from = 0; join_from < disp_refr->inv_p; join_from++) {
 488:Drivers/lvgl/src/core/lv_refr.c ****             /*Handle only unjoined areas and ignore itself*/
 489:Drivers/lvgl/src/core/lv_refr.c ****             if(disp_refr->inv_area_joined[join_from] != 0 || join_in == join_from) {
 490:Drivers/lvgl/src/core/lv_refr.c ****                 continue;
 491:Drivers/lvgl/src/core/lv_refr.c ****             }
 492:Drivers/lvgl/src/core/lv_refr.c **** 
 493:Drivers/lvgl/src/core/lv_refr.c ****             /*Check if the areas are on each other*/
 494:Drivers/lvgl/src/core/lv_refr.c ****             if(_lv_area_is_on(&disp_refr->inv_areas[join_in], &disp_refr->inv_areas[join_from]) == 
 495:Drivers/lvgl/src/core/lv_refr.c ****                 continue;
 496:Drivers/lvgl/src/core/lv_refr.c ****             }
 497:Drivers/lvgl/src/core/lv_refr.c **** 
 498:Drivers/lvgl/src/core/lv_refr.c ****             _lv_area_join(&joined_area, &disp_refr->inv_areas[join_in], &disp_refr->inv_areas[join_
 499:Drivers/lvgl/src/core/lv_refr.c **** 
 500:Drivers/lvgl/src/core/lv_refr.c ****             /*Join two area only if the joined area size is smaller*/
 501:Drivers/lvgl/src/core/lv_refr.c ****             if(lv_area_get_size(&joined_area) < (lv_area_get_size(&disp_refr->inv_areas[join_in]) +
 502:Drivers/lvgl/src/core/lv_refr.c ****                                                  lv_area_get_size(&disp_refr->inv_areas[join_from])
 503:Drivers/lvgl/src/core/lv_refr.c ****                 lv_area_copy(&disp_refr->inv_areas[join_in], &joined_area);
 504:Drivers/lvgl/src/core/lv_refr.c **** 
 505:Drivers/lvgl/src/core/lv_refr.c ****                 /*Mark 'join_form' is joined into 'join_in'*/
 506:Drivers/lvgl/src/core/lv_refr.c ****                 disp_refr->inv_area_joined[join_from] = 1;
 507:Drivers/lvgl/src/core/lv_refr.c ****             }
 508:Drivers/lvgl/src/core/lv_refr.c ****         }
 509:Drivers/lvgl/src/core/lv_refr.c ****     }
 510:Drivers/lvgl/src/core/lv_refr.c **** }
 511:Drivers/lvgl/src/core/lv_refr.c **** 
 512:Drivers/lvgl/src/core/lv_refr.c **** /**
 513:Drivers/lvgl/src/core/lv_refr.c ****  * Refresh the sync areas
 514:Drivers/lvgl/src/core/lv_refr.c ****  */
 515:Drivers/lvgl/src/core/lv_refr.c **** static void refr_sync_areas(void)
 516:Drivers/lvgl/src/core/lv_refr.c **** {
 517:Drivers/lvgl/src/core/lv_refr.c ****     /*Do not sync if not direct mode*/
 518:Drivers/lvgl/src/core/lv_refr.c ****     if(!disp_refr->driver->direct_mode) return;
 519:Drivers/lvgl/src/core/lv_refr.c **** 
 520:Drivers/lvgl/src/core/lv_refr.c ****     /*Do not sync if not double buffered*/
 521:Drivers/lvgl/src/core/lv_refr.c ****     if(disp_refr->driver->draw_buf->buf2 == NULL) return;
 522:Drivers/lvgl/src/core/lv_refr.c **** 
 523:Drivers/lvgl/src/core/lv_refr.c ****     /*Do not sync if no sync areas*/
 524:Drivers/lvgl/src/core/lv_refr.c ****     if(_lv_ll_is_empty(&disp_refr->sync_areas)) return;
 525:Drivers/lvgl/src/core/lv_refr.c **** 
 526:Drivers/lvgl/src/core/lv_refr.c ****     /*The buffers are already swapped.
 527:Drivers/lvgl/src/core/lv_refr.c ****      *So the active buffer is the off screen buffer where LVGL will render*/
 528:Drivers/lvgl/src/core/lv_refr.c ****     void * buf_off_screen = disp_refr->driver->draw_buf->buf_act;
 529:Drivers/lvgl/src/core/lv_refr.c ****     void * buf_on_screen = disp_refr->driver->draw_buf->buf_act == disp_refr->driver->draw_buf->buf
 530:Drivers/lvgl/src/core/lv_refr.c ****                            ? disp_refr->driver->draw_buf->buf2
 531:Drivers/lvgl/src/core/lv_refr.c ****                            : disp_refr->driver->draw_buf->buf1;
 532:Drivers/lvgl/src/core/lv_refr.c **** 
 533:Drivers/lvgl/src/core/lv_refr.c ****     /*Get stride for buffer copy*/
 534:Drivers/lvgl/src/core/lv_refr.c ****     lv_coord_t stride = lv_disp_get_hor_res(disp_refr);
 535:Drivers/lvgl/src/core/lv_refr.c **** 
 536:Drivers/lvgl/src/core/lv_refr.c ****     /*Iterate through invalidated areas to see if sync area should be copied*/
 537:Drivers/lvgl/src/core/lv_refr.c ****     lv_area_t res[4] = {0};
 538:Drivers/lvgl/src/core/lv_refr.c ****     int8_t res_c, j;
 539:Drivers/lvgl/src/core/lv_refr.c ****     uint32_t i;
 540:Drivers/lvgl/src/core/lv_refr.c ****     lv_area_t * sync_area, *new_area, *next_area;
 541:Drivers/lvgl/src/core/lv_refr.c ****     for(i = 0; i < disp_refr->inv_p; i++) {
 542:Drivers/lvgl/src/core/lv_refr.c ****         /*Skip joined areas*/
 543:Drivers/lvgl/src/core/lv_refr.c ****         if(disp_refr->inv_area_joined[i]) continue;
ARM GAS  /var/folders/0z/tsy30v1j4xl4_7kw94k978ww0000gn/T//ccRTPM70.s 			page 11


 544:Drivers/lvgl/src/core/lv_refr.c **** 
 545:Drivers/lvgl/src/core/lv_refr.c ****         /*Iterate over sync areas*/
 546:Drivers/lvgl/src/core/lv_refr.c ****         sync_area = _lv_ll_get_head(&disp_refr->sync_areas);
 547:Drivers/lvgl/src/core/lv_refr.c ****         while(sync_area != NULL) {
 548:Drivers/lvgl/src/core/lv_refr.c ****             /*Get next sync area*/
 549:Drivers/lvgl/src/core/lv_refr.c ****             next_area = _lv_ll_get_next(&disp_refr->sync_areas, sync_area);
 550:Drivers/lvgl/src/core/lv_refr.c **** 
 551:Drivers/lvgl/src/core/lv_refr.c ****             /*Remove intersect of redraw area from sync area and get remaining areas*/
 552:Drivers/lvgl/src/core/lv_refr.c ****             res_c = _lv_area_diff(res, sync_area, &disp_refr->inv_areas[i]);
 553:Drivers/lvgl/src/core/lv_refr.c **** 
 554:Drivers/lvgl/src/core/lv_refr.c ****             /*New sub areas created after removing intersect*/
 555:Drivers/lvgl/src/core/lv_refr.c ****             if(res_c != -1) {
 556:Drivers/lvgl/src/core/lv_refr.c ****                 /*Replace old sync area with new areas*/
 557:Drivers/lvgl/src/core/lv_refr.c ****                 for(j = 0; j < res_c; j++) {
 558:Drivers/lvgl/src/core/lv_refr.c ****                     new_area = _lv_ll_ins_prev(&disp_refr->sync_areas, sync_area);
 559:Drivers/lvgl/src/core/lv_refr.c ****                     *new_area = res[j];
 560:Drivers/lvgl/src/core/lv_refr.c ****                 }
 561:Drivers/lvgl/src/core/lv_refr.c ****                 _lv_ll_remove(&disp_refr->sync_areas, sync_area);
 562:Drivers/lvgl/src/core/lv_refr.c ****                 lv_mem_free(sync_area);
 563:Drivers/lvgl/src/core/lv_refr.c ****             }
 564:Drivers/lvgl/src/core/lv_refr.c **** 
 565:Drivers/lvgl/src/core/lv_refr.c ****             /*Move on to next sync area*/
 566:Drivers/lvgl/src/core/lv_refr.c ****             sync_area = next_area;
 567:Drivers/lvgl/src/core/lv_refr.c ****         }
 568:Drivers/lvgl/src/core/lv_refr.c ****     }
 569:Drivers/lvgl/src/core/lv_refr.c **** 
 570:Drivers/lvgl/src/core/lv_refr.c ****     /*Copy sync areas (if any remaining)*/
 571:Drivers/lvgl/src/core/lv_refr.c ****     for(sync_area = _lv_ll_get_head(&disp_refr->sync_areas); sync_area != NULL;
 572:Drivers/lvgl/src/core/lv_refr.c ****         sync_area = _lv_ll_get_next(&disp_refr->sync_areas, sync_area)) {
 573:Drivers/lvgl/src/core/lv_refr.c ****         disp_refr->driver->draw_ctx->buffer_copy(
 574:Drivers/lvgl/src/core/lv_refr.c ****             disp_refr->driver->draw_ctx,
 575:Drivers/lvgl/src/core/lv_refr.c ****             buf_off_screen, stride, sync_area,
 576:Drivers/lvgl/src/core/lv_refr.c ****             buf_on_screen, stride, sync_area
 577:Drivers/lvgl/src/core/lv_refr.c ****         );
 578:Drivers/lvgl/src/core/lv_refr.c ****     }
 579:Drivers/lvgl/src/core/lv_refr.c **** 
 580:Drivers/lvgl/src/core/lv_refr.c ****     /*Clear sync areas*/
 581:Drivers/lvgl/src/core/lv_refr.c ****     _lv_ll_clear(&disp_refr->sync_areas);
 582:Drivers/lvgl/src/core/lv_refr.c **** }
 583:Drivers/lvgl/src/core/lv_refr.c **** 
 584:Drivers/lvgl/src/core/lv_refr.c **** /**
 585:Drivers/lvgl/src/core/lv_refr.c ****  * Refresh the joined areas
 586:Drivers/lvgl/src/core/lv_refr.c ****  */
 587:Drivers/lvgl/src/core/lv_refr.c **** static void refr_invalid_areas(void)
 588:Drivers/lvgl/src/core/lv_refr.c **** {
 589:Drivers/lvgl/src/core/lv_refr.c ****     px_num = 0;
 590:Drivers/lvgl/src/core/lv_refr.c **** 
 591:Drivers/lvgl/src/core/lv_refr.c ****     if(disp_refr->inv_p == 0) return;
 592:Drivers/lvgl/src/core/lv_refr.c **** 
 593:Drivers/lvgl/src/core/lv_refr.c ****     /*Find the last area which will be drawn*/
 594:Drivers/lvgl/src/core/lv_refr.c ****     int32_t i;
 595:Drivers/lvgl/src/core/lv_refr.c ****     int32_t last_i = 0;
 596:Drivers/lvgl/src/core/lv_refr.c ****     for(i = disp_refr->inv_p - 1; i >= 0; i--) {
 597:Drivers/lvgl/src/core/lv_refr.c ****         if(disp_refr->inv_area_joined[i] == 0) {
 598:Drivers/lvgl/src/core/lv_refr.c ****             last_i = i;
 599:Drivers/lvgl/src/core/lv_refr.c ****             break;
 600:Drivers/lvgl/src/core/lv_refr.c ****         }
ARM GAS  /var/folders/0z/tsy30v1j4xl4_7kw94k978ww0000gn/T//ccRTPM70.s 			page 12


 601:Drivers/lvgl/src/core/lv_refr.c ****     }
 602:Drivers/lvgl/src/core/lv_refr.c **** 
 603:Drivers/lvgl/src/core/lv_refr.c ****     /*Notify the display driven rendering has started*/
 604:Drivers/lvgl/src/core/lv_refr.c ****     if(disp_refr->driver->render_start_cb) {
 605:Drivers/lvgl/src/core/lv_refr.c ****         disp_refr->driver->render_start_cb(disp_refr->driver);
 606:Drivers/lvgl/src/core/lv_refr.c ****     }
 607:Drivers/lvgl/src/core/lv_refr.c **** 
 608:Drivers/lvgl/src/core/lv_refr.c ****     disp_refr->driver->draw_buf->last_area = 0;
 609:Drivers/lvgl/src/core/lv_refr.c ****     disp_refr->driver->draw_buf->last_part = 0;
 610:Drivers/lvgl/src/core/lv_refr.c ****     disp_refr->rendering_in_progress = true;
 611:Drivers/lvgl/src/core/lv_refr.c **** 
 612:Drivers/lvgl/src/core/lv_refr.c ****     for(i = 0; i < disp_refr->inv_p; i++) {
 613:Drivers/lvgl/src/core/lv_refr.c ****         /*Refresh the unjoined areas*/
 614:Drivers/lvgl/src/core/lv_refr.c ****         if(disp_refr->inv_area_joined[i] == 0) {
 615:Drivers/lvgl/src/core/lv_refr.c **** 
 616:Drivers/lvgl/src/core/lv_refr.c ****             if(i == last_i) disp_refr->driver->draw_buf->last_area = 1;
 617:Drivers/lvgl/src/core/lv_refr.c ****             disp_refr->driver->draw_buf->last_part = 0;
 618:Drivers/lvgl/src/core/lv_refr.c ****             refr_area(&disp_refr->inv_areas[i]);
 619:Drivers/lvgl/src/core/lv_refr.c **** 
 620:Drivers/lvgl/src/core/lv_refr.c ****             px_num += lv_area_get_size(&disp_refr->inv_areas[i]);
 621:Drivers/lvgl/src/core/lv_refr.c ****         }
 622:Drivers/lvgl/src/core/lv_refr.c ****     }
 623:Drivers/lvgl/src/core/lv_refr.c **** 
 624:Drivers/lvgl/src/core/lv_refr.c ****     disp_refr->rendering_in_progress = false;
 625:Drivers/lvgl/src/core/lv_refr.c **** }
 626:Drivers/lvgl/src/core/lv_refr.c **** 
 627:Drivers/lvgl/src/core/lv_refr.c **** /**
 628:Drivers/lvgl/src/core/lv_refr.c ****  * Refresh an area if there is Virtual Display Buffer
 629:Drivers/lvgl/src/core/lv_refr.c ****  * @param area_p  pointer to an area to refresh
 630:Drivers/lvgl/src/core/lv_refr.c ****  */
 631:Drivers/lvgl/src/core/lv_refr.c **** static void refr_area(const lv_area_t * area_p)
 632:Drivers/lvgl/src/core/lv_refr.c **** {
 633:Drivers/lvgl/src/core/lv_refr.c ****     lv_draw_ctx_t * draw_ctx = disp_refr->driver->draw_ctx;
 634:Drivers/lvgl/src/core/lv_refr.c ****     draw_ctx->buf = disp_refr->driver->draw_buf->buf_act;
 635:Drivers/lvgl/src/core/lv_refr.c **** 
 636:Drivers/lvgl/src/core/lv_refr.c ****     /*With full refresh just redraw directly into the buffer*/
 637:Drivers/lvgl/src/core/lv_refr.c ****     /*In direct mode draw directly on the absolute coordinates of the buffer*/
 638:Drivers/lvgl/src/core/lv_refr.c ****     if(disp_refr->driver->full_refresh || disp_refr->driver->direct_mode) {
 639:Drivers/lvgl/src/core/lv_refr.c ****         lv_area_t disp_area;
 640:Drivers/lvgl/src/core/lv_refr.c ****         lv_area_set(&disp_area, 0, 0, lv_disp_get_hor_res(disp_refr) - 1, lv_disp_get_ver_res(disp_
 641:Drivers/lvgl/src/core/lv_refr.c ****         draw_ctx->buf_area = &disp_area;
 642:Drivers/lvgl/src/core/lv_refr.c **** 
 643:Drivers/lvgl/src/core/lv_refr.c ****         if(disp_refr->driver->full_refresh) {
 644:Drivers/lvgl/src/core/lv_refr.c ****             disp_refr->driver->draw_buf->last_part = 1;
 645:Drivers/lvgl/src/core/lv_refr.c ****             draw_ctx->clip_area = &disp_area;
 646:Drivers/lvgl/src/core/lv_refr.c ****             refr_area_part(draw_ctx);
 647:Drivers/lvgl/src/core/lv_refr.c ****         }
 648:Drivers/lvgl/src/core/lv_refr.c ****         else {
 649:Drivers/lvgl/src/core/lv_refr.c ****             disp_refr->driver->draw_buf->last_part = disp_refr->driver->draw_buf->last_area;
 650:Drivers/lvgl/src/core/lv_refr.c ****             draw_ctx->clip_area = area_p;
 651:Drivers/lvgl/src/core/lv_refr.c ****             refr_area_part(draw_ctx);
 652:Drivers/lvgl/src/core/lv_refr.c ****         }
 653:Drivers/lvgl/src/core/lv_refr.c ****         return;
 654:Drivers/lvgl/src/core/lv_refr.c ****     }
 655:Drivers/lvgl/src/core/lv_refr.c **** 
 656:Drivers/lvgl/src/core/lv_refr.c ****     /*Normal refresh: draw the area in parts*/
 657:Drivers/lvgl/src/core/lv_refr.c ****     /*Calculate the max row num*/
ARM GAS  /var/folders/0z/tsy30v1j4xl4_7kw94k978ww0000gn/T//ccRTPM70.s 			page 13


 658:Drivers/lvgl/src/core/lv_refr.c ****     lv_coord_t w = lv_area_get_width(area_p);
 659:Drivers/lvgl/src/core/lv_refr.c ****     lv_coord_t h = lv_area_get_height(area_p);
 660:Drivers/lvgl/src/core/lv_refr.c ****     lv_coord_t y2 = area_p->y2 >= lv_disp_get_ver_res(disp_refr) ?
 661:Drivers/lvgl/src/core/lv_refr.c ****                     lv_disp_get_ver_res(disp_refr) - 1 : area_p->y2;
 662:Drivers/lvgl/src/core/lv_refr.c **** 
 663:Drivers/lvgl/src/core/lv_refr.c ****     int32_t max_row = get_max_row(disp_refr, w, h);
 664:Drivers/lvgl/src/core/lv_refr.c **** 
 665:Drivers/lvgl/src/core/lv_refr.c ****     lv_coord_t row;
 666:Drivers/lvgl/src/core/lv_refr.c ****     lv_coord_t row_last = 0;
 667:Drivers/lvgl/src/core/lv_refr.c ****     lv_area_t sub_area;
 668:Drivers/lvgl/src/core/lv_refr.c ****     for(row = area_p->y1; row + max_row - 1 <= y2; row += max_row) {
 669:Drivers/lvgl/src/core/lv_refr.c ****         /*Calc. the next y coordinates of draw_buf*/
 670:Drivers/lvgl/src/core/lv_refr.c ****         sub_area.x1 = area_p->x1;
 671:Drivers/lvgl/src/core/lv_refr.c ****         sub_area.x2 = area_p->x2;
 672:Drivers/lvgl/src/core/lv_refr.c ****         sub_area.y1 = row;
 673:Drivers/lvgl/src/core/lv_refr.c ****         sub_area.y2 = row + max_row - 1;
 674:Drivers/lvgl/src/core/lv_refr.c ****         draw_ctx->buf_area = &sub_area;
 675:Drivers/lvgl/src/core/lv_refr.c ****         draw_ctx->clip_area = &sub_area;
 676:Drivers/lvgl/src/core/lv_refr.c ****         draw_ctx->buf = disp_refr->driver->draw_buf->buf_act;
 677:Drivers/lvgl/src/core/lv_refr.c ****         if(sub_area.y2 > y2) sub_area.y2 = y2;
 678:Drivers/lvgl/src/core/lv_refr.c ****         row_last = sub_area.y2;
 679:Drivers/lvgl/src/core/lv_refr.c ****         if(y2 == row_last) disp_refr->driver->draw_buf->last_part = 1;
 680:Drivers/lvgl/src/core/lv_refr.c ****         refr_area_part(draw_ctx);
 681:Drivers/lvgl/src/core/lv_refr.c ****     }
 682:Drivers/lvgl/src/core/lv_refr.c **** 
 683:Drivers/lvgl/src/core/lv_refr.c ****     /*If the last y coordinates are not handled yet ...*/
 684:Drivers/lvgl/src/core/lv_refr.c ****     if(y2 != row_last) {
 685:Drivers/lvgl/src/core/lv_refr.c ****         /*Calc. the next y coordinates of draw_buf*/
 686:Drivers/lvgl/src/core/lv_refr.c ****         sub_area.x1 = area_p->x1;
 687:Drivers/lvgl/src/core/lv_refr.c ****         sub_area.x2 = area_p->x2;
 688:Drivers/lvgl/src/core/lv_refr.c ****         sub_area.y1 = row;
 689:Drivers/lvgl/src/core/lv_refr.c ****         sub_area.y2 = y2;
 690:Drivers/lvgl/src/core/lv_refr.c ****         draw_ctx->buf_area = &sub_area;
 691:Drivers/lvgl/src/core/lv_refr.c ****         draw_ctx->clip_area = &sub_area;
 692:Drivers/lvgl/src/core/lv_refr.c ****         draw_ctx->buf = disp_refr->driver->draw_buf->buf_act;
 693:Drivers/lvgl/src/core/lv_refr.c ****         disp_refr->driver->draw_buf->last_part = 1;
 694:Drivers/lvgl/src/core/lv_refr.c ****         refr_area_part(draw_ctx);
 695:Drivers/lvgl/src/core/lv_refr.c ****     }
 696:Drivers/lvgl/src/core/lv_refr.c **** }
 697:Drivers/lvgl/src/core/lv_refr.c **** 
 698:Drivers/lvgl/src/core/lv_refr.c **** static void refr_area_part(lv_draw_ctx_t * draw_ctx)
 699:Drivers/lvgl/src/core/lv_refr.c **** {
 700:Drivers/lvgl/src/core/lv_refr.c ****     lv_disp_draw_buf_t * draw_buf = lv_disp_get_draw_buf(disp_refr);
 701:Drivers/lvgl/src/core/lv_refr.c **** 
 702:Drivers/lvgl/src/core/lv_refr.c ****     if(draw_ctx->init_buf)
 703:Drivers/lvgl/src/core/lv_refr.c ****         draw_ctx->init_buf(draw_ctx);
 704:Drivers/lvgl/src/core/lv_refr.c **** 
 705:Drivers/lvgl/src/core/lv_refr.c ****     /* Below the `area_p` area will be redrawn into the draw buffer.
 706:Drivers/lvgl/src/core/lv_refr.c ****      * In single buffered mode wait here until the buffer is freed.
 707:Drivers/lvgl/src/core/lv_refr.c ****      * In full double buffered mode wait here while the buffers are swapped and a buffer becomes av
 708:Drivers/lvgl/src/core/lv_refr.c ****     bool full_sized = draw_buf->size == (uint32_t)disp_refr->driver->hor_res * disp_refr->driver->v
 709:Drivers/lvgl/src/core/lv_refr.c ****     if((draw_buf->buf1 && !draw_buf->buf2) ||
 710:Drivers/lvgl/src/core/lv_refr.c ****        (draw_buf->buf1 && draw_buf->buf2 && full_sized)) {
 711:Drivers/lvgl/src/core/lv_refr.c ****         while(draw_buf->flushing) {
 712:Drivers/lvgl/src/core/lv_refr.c ****             if(disp_refr->driver->wait_cb) disp_refr->driver->wait_cb(disp_refr->driver);
 713:Drivers/lvgl/src/core/lv_refr.c ****         }
 714:Drivers/lvgl/src/core/lv_refr.c **** 
ARM GAS  /var/folders/0z/tsy30v1j4xl4_7kw94k978ww0000gn/T//ccRTPM70.s 			page 14


 715:Drivers/lvgl/src/core/lv_refr.c ****         /*If the screen is transparent initialize it when the flushing is ready*/
 716:Drivers/lvgl/src/core/lv_refr.c **** #if LV_COLOR_SCREEN_TRANSP
 717:Drivers/lvgl/src/core/lv_refr.c ****         if(disp_refr->driver->screen_transp) {
 718:Drivers/lvgl/src/core/lv_refr.c ****             if(disp_refr->driver->clear_cb) {
 719:Drivers/lvgl/src/core/lv_refr.c ****                 disp_refr->driver->clear_cb(disp_refr->driver, disp_refr->driver->draw_buf->buf_act
 720:Drivers/lvgl/src/core/lv_refr.c ****             }
 721:Drivers/lvgl/src/core/lv_refr.c ****             else {
 722:Drivers/lvgl/src/core/lv_refr.c ****                 lv_memset_00(disp_refr->driver->draw_buf->buf_act, disp_refr->driver->draw_buf->siz
 723:Drivers/lvgl/src/core/lv_refr.c ****             }
 724:Drivers/lvgl/src/core/lv_refr.c ****         }
 725:Drivers/lvgl/src/core/lv_refr.c **** #endif
 726:Drivers/lvgl/src/core/lv_refr.c ****     }
 727:Drivers/lvgl/src/core/lv_refr.c **** 
 728:Drivers/lvgl/src/core/lv_refr.c ****     lv_obj_t * top_act_scr = NULL;
 729:Drivers/lvgl/src/core/lv_refr.c ****     lv_obj_t * top_prev_scr = NULL;
 730:Drivers/lvgl/src/core/lv_refr.c **** 
 731:Drivers/lvgl/src/core/lv_refr.c ****     /*Get the most top object which is not covered by others*/
 732:Drivers/lvgl/src/core/lv_refr.c ****     top_act_scr = lv_refr_get_top_obj(draw_ctx->buf_area, lv_disp_get_scr_act(disp_refr));
 733:Drivers/lvgl/src/core/lv_refr.c ****     if(disp_refr->prev_scr) {
 734:Drivers/lvgl/src/core/lv_refr.c ****         top_prev_scr = lv_refr_get_top_obj(draw_ctx->buf_area, disp_refr->prev_scr);
 735:Drivers/lvgl/src/core/lv_refr.c ****     }
 736:Drivers/lvgl/src/core/lv_refr.c **** 
 737:Drivers/lvgl/src/core/lv_refr.c ****     /*Draw a display background if there is no top object*/
 738:Drivers/lvgl/src/core/lv_refr.c ****     if(top_act_scr == NULL && top_prev_scr == NULL) {
 739:Drivers/lvgl/src/core/lv_refr.c ****         lv_area_t a;
 740:Drivers/lvgl/src/core/lv_refr.c ****         lv_area_set(&a, 0, 0,
 741:Drivers/lvgl/src/core/lv_refr.c ****                     lv_disp_get_hor_res(disp_refr) - 1, lv_disp_get_ver_res(disp_refr) - 1);
 742:Drivers/lvgl/src/core/lv_refr.c ****         if(draw_ctx->draw_bg) {
 743:Drivers/lvgl/src/core/lv_refr.c ****             lv_draw_rect_dsc_t dsc;
 744:Drivers/lvgl/src/core/lv_refr.c ****             lv_draw_rect_dsc_init(&dsc);
 745:Drivers/lvgl/src/core/lv_refr.c ****             dsc.bg_img_src = disp_refr->bg_img;
 746:Drivers/lvgl/src/core/lv_refr.c ****             dsc.bg_img_opa = disp_refr->bg_opa;
 747:Drivers/lvgl/src/core/lv_refr.c ****             dsc.bg_color = disp_refr->bg_color;
 748:Drivers/lvgl/src/core/lv_refr.c ****             dsc.bg_opa = disp_refr->bg_opa;
 749:Drivers/lvgl/src/core/lv_refr.c ****             draw_ctx->draw_bg(draw_ctx, &dsc, &a);
 750:Drivers/lvgl/src/core/lv_refr.c ****         }
 751:Drivers/lvgl/src/core/lv_refr.c ****         else if(disp_refr->bg_img) {
 752:Drivers/lvgl/src/core/lv_refr.c ****             lv_img_header_t header;
 753:Drivers/lvgl/src/core/lv_refr.c ****             lv_res_t res = lv_img_decoder_get_info(disp_refr->bg_img, &header);
 754:Drivers/lvgl/src/core/lv_refr.c ****             if(res == LV_RES_OK) {
 755:Drivers/lvgl/src/core/lv_refr.c ****                 lv_draw_img_dsc_t dsc;
 756:Drivers/lvgl/src/core/lv_refr.c ****                 lv_draw_img_dsc_init(&dsc);
 757:Drivers/lvgl/src/core/lv_refr.c ****                 dsc.opa = disp_refr->bg_opa;
 758:Drivers/lvgl/src/core/lv_refr.c ****                 lv_draw_img(draw_ctx, &dsc, &a, disp_refr->bg_img);
 759:Drivers/lvgl/src/core/lv_refr.c ****             }
 760:Drivers/lvgl/src/core/lv_refr.c ****             else {
 761:Drivers/lvgl/src/core/lv_refr.c ****                 LV_LOG_WARN("Can't draw the background image");
 762:Drivers/lvgl/src/core/lv_refr.c ****             }
 763:Drivers/lvgl/src/core/lv_refr.c ****         }
 764:Drivers/lvgl/src/core/lv_refr.c ****         else {
 765:Drivers/lvgl/src/core/lv_refr.c ****             lv_draw_rect_dsc_t dsc;
 766:Drivers/lvgl/src/core/lv_refr.c ****             lv_draw_rect_dsc_init(&dsc);
 767:Drivers/lvgl/src/core/lv_refr.c ****             dsc.bg_color = disp_refr->bg_color;
 768:Drivers/lvgl/src/core/lv_refr.c ****             dsc.bg_opa = disp_refr->bg_opa;
 769:Drivers/lvgl/src/core/lv_refr.c ****             lv_draw_rect(draw_ctx, &dsc, draw_ctx->buf_area);
 770:Drivers/lvgl/src/core/lv_refr.c ****         }
 771:Drivers/lvgl/src/core/lv_refr.c ****     }
ARM GAS  /var/folders/0z/tsy30v1j4xl4_7kw94k978ww0000gn/T//ccRTPM70.s 			page 15


 772:Drivers/lvgl/src/core/lv_refr.c **** 
 773:Drivers/lvgl/src/core/lv_refr.c ****     if(disp_refr->draw_prev_over_act) {
 774:Drivers/lvgl/src/core/lv_refr.c ****         if(top_act_scr == NULL) top_act_scr = disp_refr->act_scr;
 775:Drivers/lvgl/src/core/lv_refr.c ****         refr_obj_and_children(draw_ctx, top_act_scr);
 776:Drivers/lvgl/src/core/lv_refr.c **** 
 777:Drivers/lvgl/src/core/lv_refr.c ****         /*Refresh the previous screen if any*/
 778:Drivers/lvgl/src/core/lv_refr.c ****         if(disp_refr->prev_scr) {
 779:Drivers/lvgl/src/core/lv_refr.c ****             if(top_prev_scr == NULL) top_prev_scr = disp_refr->prev_scr;
 780:Drivers/lvgl/src/core/lv_refr.c ****             refr_obj_and_children(draw_ctx, top_prev_scr);
 781:Drivers/lvgl/src/core/lv_refr.c ****         }
 782:Drivers/lvgl/src/core/lv_refr.c ****     }
 783:Drivers/lvgl/src/core/lv_refr.c ****     else {
 784:Drivers/lvgl/src/core/lv_refr.c ****         /*Refresh the previous screen if any*/
 785:Drivers/lvgl/src/core/lv_refr.c ****         if(disp_refr->prev_scr) {
 786:Drivers/lvgl/src/core/lv_refr.c ****             if(top_prev_scr == NULL) top_prev_scr = disp_refr->prev_scr;
 787:Drivers/lvgl/src/core/lv_refr.c ****             refr_obj_and_children(draw_ctx, top_prev_scr);
 788:Drivers/lvgl/src/core/lv_refr.c ****         }
 789:Drivers/lvgl/src/core/lv_refr.c **** 
 790:Drivers/lvgl/src/core/lv_refr.c ****         if(top_act_scr == NULL) top_act_scr = disp_refr->act_scr;
 791:Drivers/lvgl/src/core/lv_refr.c ****         refr_obj_and_children(draw_ctx, top_act_scr);
 792:Drivers/lvgl/src/core/lv_refr.c ****     }
 793:Drivers/lvgl/src/core/lv_refr.c **** 
 794:Drivers/lvgl/src/core/lv_refr.c ****     /*Also refresh top and sys layer unconditionally*/
 795:Drivers/lvgl/src/core/lv_refr.c ****     refr_obj_and_children(draw_ctx, lv_disp_get_layer_top(disp_refr));
 796:Drivers/lvgl/src/core/lv_refr.c ****     refr_obj_and_children(draw_ctx, lv_disp_get_layer_sys(disp_refr));
 797:Drivers/lvgl/src/core/lv_refr.c **** 
 798:Drivers/lvgl/src/core/lv_refr.c ****     draw_buf_flush(disp_refr);
 799:Drivers/lvgl/src/core/lv_refr.c **** }
 800:Drivers/lvgl/src/core/lv_refr.c **** 
 801:Drivers/lvgl/src/core/lv_refr.c **** /**
 802:Drivers/lvgl/src/core/lv_refr.c ****  * Search the most top object which fully covers an area
 803:Drivers/lvgl/src/core/lv_refr.c ****  * @param area_p pointer to an area
 804:Drivers/lvgl/src/core/lv_refr.c ****  * @param obj the first object to start the searching (typically a screen)
 805:Drivers/lvgl/src/core/lv_refr.c ****  * @return
 806:Drivers/lvgl/src/core/lv_refr.c ****  */
 807:Drivers/lvgl/src/core/lv_refr.c **** static lv_obj_t * lv_refr_get_top_obj(const lv_area_t * area_p, lv_obj_t * obj)
 808:Drivers/lvgl/src/core/lv_refr.c **** {
 809:Drivers/lvgl/src/core/lv_refr.c ****     lv_obj_t * found_p = NULL;
 810:Drivers/lvgl/src/core/lv_refr.c **** 
 811:Drivers/lvgl/src/core/lv_refr.c ****     if(_lv_area_is_in(area_p, &obj->coords, 0) == false) return NULL;
 812:Drivers/lvgl/src/core/lv_refr.c ****     if(lv_obj_has_flag(obj, LV_OBJ_FLAG_HIDDEN)) return NULL;
 813:Drivers/lvgl/src/core/lv_refr.c ****     if(_lv_obj_get_layer_type(obj) != LV_LAYER_TYPE_NONE) return NULL;
 814:Drivers/lvgl/src/core/lv_refr.c **** 
 815:Drivers/lvgl/src/core/lv_refr.c ****     /*If this object is fully cover the draw area then check the children too*/
 816:Drivers/lvgl/src/core/lv_refr.c ****     lv_cover_check_info_t info;
 817:Drivers/lvgl/src/core/lv_refr.c ****     info.res = LV_COVER_RES_COVER;
 818:Drivers/lvgl/src/core/lv_refr.c ****     info.area = area_p;
 819:Drivers/lvgl/src/core/lv_refr.c ****     lv_event_send(obj, LV_EVENT_COVER_CHECK, &info);
 820:Drivers/lvgl/src/core/lv_refr.c ****     if(info.res == LV_COVER_RES_MASKED) return NULL;
 821:Drivers/lvgl/src/core/lv_refr.c **** 
 822:Drivers/lvgl/src/core/lv_refr.c ****     int32_t i;
 823:Drivers/lvgl/src/core/lv_refr.c ****     int32_t child_cnt = lv_obj_get_child_cnt(obj);
 824:Drivers/lvgl/src/core/lv_refr.c ****     for(i = child_cnt - 1; i >= 0; i--) {
 825:Drivers/lvgl/src/core/lv_refr.c ****         lv_obj_t * child = obj->spec_attr->children[i];
 826:Drivers/lvgl/src/core/lv_refr.c ****         found_p = lv_refr_get_top_obj(area_p, child);
 827:Drivers/lvgl/src/core/lv_refr.c **** 
 828:Drivers/lvgl/src/core/lv_refr.c ****         /*If a children is ok then break*/
ARM GAS  /var/folders/0z/tsy30v1j4xl4_7kw94k978ww0000gn/T//ccRTPM70.s 			page 16


 829:Drivers/lvgl/src/core/lv_refr.c ****         if(found_p != NULL) {
 830:Drivers/lvgl/src/core/lv_refr.c ****             break;
 831:Drivers/lvgl/src/core/lv_refr.c ****         }
 832:Drivers/lvgl/src/core/lv_refr.c ****     }
 833:Drivers/lvgl/src/core/lv_refr.c **** 
 834:Drivers/lvgl/src/core/lv_refr.c ****     /*If no better children use this object*/
 835:Drivers/lvgl/src/core/lv_refr.c ****     if(found_p == NULL && info.res == LV_COVER_RES_COVER) {
 836:Drivers/lvgl/src/core/lv_refr.c ****         found_p = obj;
 837:Drivers/lvgl/src/core/lv_refr.c ****     }
 838:Drivers/lvgl/src/core/lv_refr.c **** 
 839:Drivers/lvgl/src/core/lv_refr.c ****     return found_p;
 840:Drivers/lvgl/src/core/lv_refr.c **** }
 841:Drivers/lvgl/src/core/lv_refr.c **** 
 842:Drivers/lvgl/src/core/lv_refr.c **** /**
 843:Drivers/lvgl/src/core/lv_refr.c ****  * Make the refreshing from an object. Draw all its children and the youngers too.
 844:Drivers/lvgl/src/core/lv_refr.c ****  * @param top_p pointer to an objects. Start the drawing from it.
 845:Drivers/lvgl/src/core/lv_refr.c ****  * @param mask_p pointer to an area, the objects will be drawn only here
 846:Drivers/lvgl/src/core/lv_refr.c ****  */
 847:Drivers/lvgl/src/core/lv_refr.c **** static void refr_obj_and_children(lv_draw_ctx_t * draw_ctx, lv_obj_t * top_obj)
 848:Drivers/lvgl/src/core/lv_refr.c **** {
 849:Drivers/lvgl/src/core/lv_refr.c ****     /*Normally always will be a top_obj (at least the screen)
 850:Drivers/lvgl/src/core/lv_refr.c ****      *but in special cases (e.g. if the screen has alpha) it won't.
 851:Drivers/lvgl/src/core/lv_refr.c ****      *In this case use the screen directly*/
 852:Drivers/lvgl/src/core/lv_refr.c ****     if(top_obj == NULL) top_obj = lv_disp_get_scr_act(disp_refr);
 853:Drivers/lvgl/src/core/lv_refr.c ****     if(top_obj == NULL) return;  /*Shouldn't happen*/
 854:Drivers/lvgl/src/core/lv_refr.c **** 
 855:Drivers/lvgl/src/core/lv_refr.c ****     /*Refresh the top object and its children*/
 856:Drivers/lvgl/src/core/lv_refr.c ****     refr_obj(draw_ctx, top_obj);
 857:Drivers/lvgl/src/core/lv_refr.c **** 
 858:Drivers/lvgl/src/core/lv_refr.c ****     /*Draw the 'younger' sibling objects because they can be on top_obj*/
 859:Drivers/lvgl/src/core/lv_refr.c ****     lv_obj_t * parent;
 860:Drivers/lvgl/src/core/lv_refr.c ****     lv_obj_t * border_p = top_obj;
 861:Drivers/lvgl/src/core/lv_refr.c **** 
 862:Drivers/lvgl/src/core/lv_refr.c ****     parent = lv_obj_get_parent(top_obj);
 863:Drivers/lvgl/src/core/lv_refr.c **** 
 864:Drivers/lvgl/src/core/lv_refr.c ****     /*Do until not reach the screen*/
 865:Drivers/lvgl/src/core/lv_refr.c ****     while(parent != NULL) {
 866:Drivers/lvgl/src/core/lv_refr.c ****         bool go = false;
 867:Drivers/lvgl/src/core/lv_refr.c ****         uint32_t i;
 868:Drivers/lvgl/src/core/lv_refr.c ****         uint32_t child_cnt = lv_obj_get_child_cnt(parent);
 869:Drivers/lvgl/src/core/lv_refr.c ****         for(i = 0; i < child_cnt; i++) {
 870:Drivers/lvgl/src/core/lv_refr.c ****             lv_obj_t * child = parent->spec_attr->children[i];
 871:Drivers/lvgl/src/core/lv_refr.c ****             if(!go) {
 872:Drivers/lvgl/src/core/lv_refr.c ****                 if(child == border_p) go = true;
 873:Drivers/lvgl/src/core/lv_refr.c ****             }
 874:Drivers/lvgl/src/core/lv_refr.c ****             else {
 875:Drivers/lvgl/src/core/lv_refr.c ****                 /*Refresh the objects*/
 876:Drivers/lvgl/src/core/lv_refr.c ****                 refr_obj(draw_ctx, child);
 877:Drivers/lvgl/src/core/lv_refr.c ****             }
 878:Drivers/lvgl/src/core/lv_refr.c ****         }
 879:Drivers/lvgl/src/core/lv_refr.c **** 
 880:Drivers/lvgl/src/core/lv_refr.c ****         /*Call the post draw draw function of the parents of the to object*/
 881:Drivers/lvgl/src/core/lv_refr.c ****         lv_event_send(parent, LV_EVENT_DRAW_POST_BEGIN, (void *)draw_ctx);
 882:Drivers/lvgl/src/core/lv_refr.c ****         lv_event_send(parent, LV_EVENT_DRAW_POST, (void *)draw_ctx);
 883:Drivers/lvgl/src/core/lv_refr.c ****         lv_event_send(parent, LV_EVENT_DRAW_POST_END, (void *)draw_ctx);
 884:Drivers/lvgl/src/core/lv_refr.c **** 
 885:Drivers/lvgl/src/core/lv_refr.c ****         /*The new border will be the last parents,
ARM GAS  /var/folders/0z/tsy30v1j4xl4_7kw94k978ww0000gn/T//ccRTPM70.s 			page 17


 886:Drivers/lvgl/src/core/lv_refr.c ****          *so the 'younger' brothers of parent will be refreshed*/
 887:Drivers/lvgl/src/core/lv_refr.c ****         border_p = parent;
 888:Drivers/lvgl/src/core/lv_refr.c ****         /*Go a level deeper*/
 889:Drivers/lvgl/src/core/lv_refr.c ****         parent = lv_obj_get_parent(parent);
 890:Drivers/lvgl/src/core/lv_refr.c ****     }
 891:Drivers/lvgl/src/core/lv_refr.c **** }
 892:Drivers/lvgl/src/core/lv_refr.c **** 
 893:Drivers/lvgl/src/core/lv_refr.c **** 
 894:Drivers/lvgl/src/core/lv_refr.c **** static lv_res_t layer_get_area(lv_draw_ctx_t * draw_ctx, lv_obj_t * obj, lv_layer_type_t layer_type
 895:Drivers/lvgl/src/core/lv_refr.c ****                                lv_area_t * layer_area_out)
 896:Drivers/lvgl/src/core/lv_refr.c **** {
 897:Drivers/lvgl/src/core/lv_refr.c ****     lv_coord_t ext_draw_size = _lv_obj_get_ext_draw_size(obj);
 898:Drivers/lvgl/src/core/lv_refr.c ****     lv_area_t obj_coords_ext;
 899:Drivers/lvgl/src/core/lv_refr.c ****     lv_obj_get_coords(obj, &obj_coords_ext);
 900:Drivers/lvgl/src/core/lv_refr.c ****     lv_area_increase(&obj_coords_ext, ext_draw_size, ext_draw_size);
 901:Drivers/lvgl/src/core/lv_refr.c **** 
 902:Drivers/lvgl/src/core/lv_refr.c ****     if(layer_type == LV_LAYER_TYPE_TRANSFORM) {
 903:Drivers/lvgl/src/core/lv_refr.c ****         /*Get the transformed area and clip it to the current clip area.
 904:Drivers/lvgl/src/core/lv_refr.c ****          *This area needs to be updated on the screen.*/
 905:Drivers/lvgl/src/core/lv_refr.c ****         lv_area_t clip_coords_for_obj;
 906:Drivers/lvgl/src/core/lv_refr.c ****         lv_area_t tranf_coords = obj_coords_ext;
 907:Drivers/lvgl/src/core/lv_refr.c ****         lv_obj_get_transformed_area(obj, &tranf_coords, false, false);
 908:Drivers/lvgl/src/core/lv_refr.c ****         if(!_lv_area_intersect(&clip_coords_for_obj, draw_ctx->clip_area, &tranf_coords)) {
 909:Drivers/lvgl/src/core/lv_refr.c ****             return LV_RES_INV;
 910:Drivers/lvgl/src/core/lv_refr.c ****         }
 911:Drivers/lvgl/src/core/lv_refr.c **** 
 912:Drivers/lvgl/src/core/lv_refr.c ****         /*Transform back (inverse) the transformed area.
 913:Drivers/lvgl/src/core/lv_refr.c ****          *It will tell which area of the non-transformed widget needs to be redrawn
 914:Drivers/lvgl/src/core/lv_refr.c ****          *in order to cover transformed area after transformation.*/
 915:Drivers/lvgl/src/core/lv_refr.c ****         lv_area_t inverse_clip_coords_for_obj = clip_coords_for_obj;
 916:Drivers/lvgl/src/core/lv_refr.c ****         lv_obj_get_transformed_area(obj, &inverse_clip_coords_for_obj, false, true);
 917:Drivers/lvgl/src/core/lv_refr.c ****         if(!_lv_area_intersect(&inverse_clip_coords_for_obj, &inverse_clip_coords_for_obj, &obj_coo
 918:Drivers/lvgl/src/core/lv_refr.c ****             return LV_RES_INV;
 919:Drivers/lvgl/src/core/lv_refr.c ****         }
 920:Drivers/lvgl/src/core/lv_refr.c **** 
 921:Drivers/lvgl/src/core/lv_refr.c ****         *layer_area_out = inverse_clip_coords_for_obj;
 922:Drivers/lvgl/src/core/lv_refr.c ****     }
 923:Drivers/lvgl/src/core/lv_refr.c ****     else if(layer_type == LV_LAYER_TYPE_SIMPLE) {
 924:Drivers/lvgl/src/core/lv_refr.c ****         lv_area_t clip_coords_for_obj;
 925:Drivers/lvgl/src/core/lv_refr.c ****         if(!_lv_area_intersect(&clip_coords_for_obj, draw_ctx->clip_area, &obj_coords_ext)) {
 926:Drivers/lvgl/src/core/lv_refr.c ****             return LV_RES_INV;
 927:Drivers/lvgl/src/core/lv_refr.c ****         }
 928:Drivers/lvgl/src/core/lv_refr.c ****         *layer_area_out = clip_coords_for_obj;
 929:Drivers/lvgl/src/core/lv_refr.c ****     }
 930:Drivers/lvgl/src/core/lv_refr.c ****     else {
 931:Drivers/lvgl/src/core/lv_refr.c ****         LV_LOG_WARN("Unhandled intermediate layer type");
 932:Drivers/lvgl/src/core/lv_refr.c ****         return LV_RES_INV;
 933:Drivers/lvgl/src/core/lv_refr.c ****     }
 934:Drivers/lvgl/src/core/lv_refr.c **** 
 935:Drivers/lvgl/src/core/lv_refr.c ****     return LV_RES_OK;
 936:Drivers/lvgl/src/core/lv_refr.c **** }
 937:Drivers/lvgl/src/core/lv_refr.c **** 
 938:Drivers/lvgl/src/core/lv_refr.c **** static void layer_alpha_test(lv_obj_t * obj, lv_draw_ctx_t * draw_ctx, lv_draw_layer_ctx_t * layer_
 939:Drivers/lvgl/src/core/lv_refr.c ****                              lv_draw_layer_flags_t flags)
 940:Drivers/lvgl/src/core/lv_refr.c **** {
 941:Drivers/lvgl/src/core/lv_refr.c ****     bool has_alpha;
 942:Drivers/lvgl/src/core/lv_refr.c ****     /*If globally the layer has alpha maybe this smaller section has not (e.g. not on a rounded cor
ARM GAS  /var/folders/0z/tsy30v1j4xl4_7kw94k978ww0000gn/T//ccRTPM70.s 			page 18


 943:Drivers/lvgl/src/core/lv_refr.c ****      *If turns out that this section has no alpha renderer can choose faster algorithms*/
 944:Drivers/lvgl/src/core/lv_refr.c ****     if(flags & LV_DRAW_LAYER_FLAG_HAS_ALPHA) {
 945:Drivers/lvgl/src/core/lv_refr.c ****         /*Test for alpha by assuming there is no alpha. If it fails, fall back to rendering with al
 946:Drivers/lvgl/src/core/lv_refr.c ****         has_alpha = true;
 947:Drivers/lvgl/src/core/lv_refr.c ****         if(_lv_area_is_in(&layer_ctx->area_act, &obj->coords, 0)) {
 948:Drivers/lvgl/src/core/lv_refr.c ****             lv_cover_check_info_t info;
 949:Drivers/lvgl/src/core/lv_refr.c ****             info.res = LV_COVER_RES_COVER;
 950:Drivers/lvgl/src/core/lv_refr.c ****             info.area = &layer_ctx->area_act;
 951:Drivers/lvgl/src/core/lv_refr.c ****             lv_event_send(obj, LV_EVENT_COVER_CHECK, &info);
 952:Drivers/lvgl/src/core/lv_refr.c ****             if(info.res == LV_COVER_RES_COVER) has_alpha = false;
 953:Drivers/lvgl/src/core/lv_refr.c ****         }
 954:Drivers/lvgl/src/core/lv_refr.c **** 
 955:Drivers/lvgl/src/core/lv_refr.c ****         if(has_alpha) {
 956:Drivers/lvgl/src/core/lv_refr.c ****             layer_ctx->area_act.y2 = layer_ctx->area_act.y1 + layer_ctx->max_row_with_alpha - 1;
 957:Drivers/lvgl/src/core/lv_refr.c ****         }
 958:Drivers/lvgl/src/core/lv_refr.c ****     }
 959:Drivers/lvgl/src/core/lv_refr.c ****     else {
 960:Drivers/lvgl/src/core/lv_refr.c ****         has_alpha = false;
 961:Drivers/lvgl/src/core/lv_refr.c ****     }
 962:Drivers/lvgl/src/core/lv_refr.c **** 
 963:Drivers/lvgl/src/core/lv_refr.c ****     if(layer_ctx->area_act.y2 > layer_ctx->area_full.y2) layer_ctx->area_act.y2 = layer_ctx->area_f
 964:Drivers/lvgl/src/core/lv_refr.c ****     lv_draw_layer_adjust(draw_ctx, layer_ctx, has_alpha ? LV_DRAW_LAYER_FLAG_HAS_ALPHA : LV_DRAW_LA
 965:Drivers/lvgl/src/core/lv_refr.c **** }
 966:Drivers/lvgl/src/core/lv_refr.c **** 
 967:Drivers/lvgl/src/core/lv_refr.c **** 
 968:Drivers/lvgl/src/core/lv_refr.c **** void refr_obj(lv_draw_ctx_t * draw_ctx, lv_obj_t * obj)
 969:Drivers/lvgl/src/core/lv_refr.c **** {
 970:Drivers/lvgl/src/core/lv_refr.c ****     /*Do not refresh hidden objects*/
 971:Drivers/lvgl/src/core/lv_refr.c ****     if(lv_obj_has_flag(obj, LV_OBJ_FLAG_HIDDEN)) return;
 972:Drivers/lvgl/src/core/lv_refr.c ****     lv_layer_type_t layer_type = _lv_obj_get_layer_type(obj);
 973:Drivers/lvgl/src/core/lv_refr.c ****     if(layer_type == LV_LAYER_TYPE_NONE) {
 974:Drivers/lvgl/src/core/lv_refr.c ****         lv_obj_redraw(draw_ctx, obj);
 975:Drivers/lvgl/src/core/lv_refr.c ****     }
 976:Drivers/lvgl/src/core/lv_refr.c ****     else {
 977:Drivers/lvgl/src/core/lv_refr.c ****         lv_opa_t opa = lv_obj_get_style_opa_layered(obj, 0);
 978:Drivers/lvgl/src/core/lv_refr.c ****         if(opa < LV_OPA_MIN) return;
 979:Drivers/lvgl/src/core/lv_refr.c **** 
 980:Drivers/lvgl/src/core/lv_refr.c ****         lv_area_t layer_area_full;
 981:Drivers/lvgl/src/core/lv_refr.c ****         lv_res_t res = layer_get_area(draw_ctx, obj, layer_type, &layer_area_full);
 982:Drivers/lvgl/src/core/lv_refr.c ****         if(res != LV_RES_OK) return;
 983:Drivers/lvgl/src/core/lv_refr.c **** 
 984:Drivers/lvgl/src/core/lv_refr.c ****         lv_draw_layer_flags_t flags = LV_DRAW_LAYER_FLAG_HAS_ALPHA;
 985:Drivers/lvgl/src/core/lv_refr.c **** 
 986:Drivers/lvgl/src/core/lv_refr.c ****         if(_lv_area_is_in(&layer_area_full, &obj->coords, 0)) {
 987:Drivers/lvgl/src/core/lv_refr.c ****             lv_cover_check_info_t info;
 988:Drivers/lvgl/src/core/lv_refr.c ****             info.res = LV_COVER_RES_COVER;
 989:Drivers/lvgl/src/core/lv_refr.c ****             info.area = &layer_area_full;
 990:Drivers/lvgl/src/core/lv_refr.c ****             lv_event_send(obj, LV_EVENT_COVER_CHECK, &info);
 991:Drivers/lvgl/src/core/lv_refr.c ****             if(info.res == LV_COVER_RES_COVER) flags &= ~LV_DRAW_LAYER_FLAG_HAS_ALPHA;
 992:Drivers/lvgl/src/core/lv_refr.c ****         }
 993:Drivers/lvgl/src/core/lv_refr.c **** 
 994:Drivers/lvgl/src/core/lv_refr.c ****         if(layer_type == LV_LAYER_TYPE_SIMPLE) flags |= LV_DRAW_LAYER_FLAG_CAN_SUBDIVIDE;
 995:Drivers/lvgl/src/core/lv_refr.c **** 
 996:Drivers/lvgl/src/core/lv_refr.c ****         lv_draw_layer_ctx_t * layer_ctx = lv_draw_layer_create(draw_ctx, &layer_area_full, flags);
 997:Drivers/lvgl/src/core/lv_refr.c ****         if(layer_ctx == NULL) {
 998:Drivers/lvgl/src/core/lv_refr.c ****             LV_LOG_WARN("Couldn't create a new layer context");
 999:Drivers/lvgl/src/core/lv_refr.c ****             return;
ARM GAS  /var/folders/0z/tsy30v1j4xl4_7kw94k978ww0000gn/T//ccRTPM70.s 			page 19


1000:Drivers/lvgl/src/core/lv_refr.c ****         }
1001:Drivers/lvgl/src/core/lv_refr.c ****         lv_point_t pivot = {
1002:Drivers/lvgl/src/core/lv_refr.c ****             .x = lv_obj_get_style_transform_pivot_x(obj, 0),
1003:Drivers/lvgl/src/core/lv_refr.c ****             .y = lv_obj_get_style_transform_pivot_y(obj, 0)
1004:Drivers/lvgl/src/core/lv_refr.c ****         };
1005:Drivers/lvgl/src/core/lv_refr.c **** 
1006:Drivers/lvgl/src/core/lv_refr.c ****         if(LV_COORD_IS_PCT(pivot.x)) {
1007:Drivers/lvgl/src/core/lv_refr.c ****             pivot.x = (LV_COORD_GET_PCT(pivot.x) * lv_area_get_width(&obj->coords)) / 100;
1008:Drivers/lvgl/src/core/lv_refr.c ****         }
1009:Drivers/lvgl/src/core/lv_refr.c ****         if(LV_COORD_IS_PCT(pivot.y)) {
1010:Drivers/lvgl/src/core/lv_refr.c ****             pivot.y = (LV_COORD_GET_PCT(pivot.y) * lv_area_get_height(&obj->coords)) / 100;
1011:Drivers/lvgl/src/core/lv_refr.c ****         }
1012:Drivers/lvgl/src/core/lv_refr.c **** 
1013:Drivers/lvgl/src/core/lv_refr.c ****         lv_draw_img_dsc_t draw_dsc;
1014:Drivers/lvgl/src/core/lv_refr.c ****         lv_draw_img_dsc_init(&draw_dsc);
1015:Drivers/lvgl/src/core/lv_refr.c ****         draw_dsc.opa = opa;
1016:Drivers/lvgl/src/core/lv_refr.c ****         draw_dsc.angle = lv_obj_get_style_transform_angle(obj, 0);
1017:Drivers/lvgl/src/core/lv_refr.c ****         if(draw_dsc.angle > 3600) draw_dsc.angle -= 3600;
1018:Drivers/lvgl/src/core/lv_refr.c ****         else if(draw_dsc.angle < 0) draw_dsc.angle += 3600;
1019:Drivers/lvgl/src/core/lv_refr.c **** 
1020:Drivers/lvgl/src/core/lv_refr.c ****         draw_dsc.zoom = lv_obj_get_style_transform_zoom(obj, 0);
1021:Drivers/lvgl/src/core/lv_refr.c ****         draw_dsc.blend_mode = lv_obj_get_style_blend_mode(obj, 0);
1022:Drivers/lvgl/src/core/lv_refr.c ****         draw_dsc.antialias = disp_refr->driver->antialiasing;
1023:Drivers/lvgl/src/core/lv_refr.c **** 
1024:Drivers/lvgl/src/core/lv_refr.c ****         if(flags & LV_DRAW_LAYER_FLAG_CAN_SUBDIVIDE) {
1025:Drivers/lvgl/src/core/lv_refr.c ****             layer_ctx->area_act = layer_ctx->area_full;
1026:Drivers/lvgl/src/core/lv_refr.c ****             layer_ctx->area_act.y2 = layer_ctx->area_act.y1 + layer_ctx->max_row_with_no_alpha - 1;
1027:Drivers/lvgl/src/core/lv_refr.c ****             if(layer_ctx->area_act.y2 > layer_ctx->area_full.y2) layer_ctx->area_act.y2 = layer_ctx
1028:Drivers/lvgl/src/core/lv_refr.c ****         }
1029:Drivers/lvgl/src/core/lv_refr.c **** 
1030:Drivers/lvgl/src/core/lv_refr.c ****         while(layer_ctx->area_act.y1 <= layer_area_full.y2) {
1031:Drivers/lvgl/src/core/lv_refr.c ****             if(flags & LV_DRAW_LAYER_FLAG_CAN_SUBDIVIDE) {
1032:Drivers/lvgl/src/core/lv_refr.c ****                 layer_alpha_test(obj, draw_ctx, layer_ctx, flags);
1033:Drivers/lvgl/src/core/lv_refr.c ****             }
1034:Drivers/lvgl/src/core/lv_refr.c **** 
1035:Drivers/lvgl/src/core/lv_refr.c ****             lv_obj_redraw(draw_ctx, obj);
1036:Drivers/lvgl/src/core/lv_refr.c **** 
1037:Drivers/lvgl/src/core/lv_refr.c ****             draw_dsc.pivot.x = obj->coords.x1 + pivot.x - draw_ctx->buf_area->x1;
1038:Drivers/lvgl/src/core/lv_refr.c ****             draw_dsc.pivot.y = obj->coords.y1 + pivot.y - draw_ctx->buf_area->y1;
1039:Drivers/lvgl/src/core/lv_refr.c **** 
1040:Drivers/lvgl/src/core/lv_refr.c ****             /*With LV_DRAW_LAYER_FLAG_CAN_SUBDIVIDE it should also go the next chunk*/
1041:Drivers/lvgl/src/core/lv_refr.c ****             lv_draw_layer_blend(draw_ctx, layer_ctx, &draw_dsc);
1042:Drivers/lvgl/src/core/lv_refr.c **** 
1043:Drivers/lvgl/src/core/lv_refr.c ****             if((flags & LV_DRAW_LAYER_FLAG_CAN_SUBDIVIDE) == 0) break;
1044:Drivers/lvgl/src/core/lv_refr.c **** 
1045:Drivers/lvgl/src/core/lv_refr.c ****             layer_ctx->area_act.y1 = layer_ctx->area_act.y2 + 1;
1046:Drivers/lvgl/src/core/lv_refr.c ****             layer_ctx->area_act.y2 = layer_ctx->area_act.y1 + layer_ctx->max_row_with_no_alpha - 1;
1047:Drivers/lvgl/src/core/lv_refr.c ****         }
1048:Drivers/lvgl/src/core/lv_refr.c **** 
1049:Drivers/lvgl/src/core/lv_refr.c ****         lv_draw_layer_destroy(draw_ctx, layer_ctx);
1050:Drivers/lvgl/src/core/lv_refr.c ****     }
1051:Drivers/lvgl/src/core/lv_refr.c **** }
1052:Drivers/lvgl/src/core/lv_refr.c **** 
1053:Drivers/lvgl/src/core/lv_refr.c **** 
1054:Drivers/lvgl/src/core/lv_refr.c **** static uint32_t get_max_row(lv_disp_t * disp, lv_coord_t area_w, lv_coord_t area_h)
1055:Drivers/lvgl/src/core/lv_refr.c **** {
  29              		.loc 1 1055 1 view -0
ARM GAS  /var/folders/0z/tsy30v1j4xl4_7kw94k978ww0000gn/T//ccRTPM70.s 			page 20


  30              		.cfi_startproc
  31              		@ args = 0, pretend = 0, frame = 8
  32              		@ frame_needed = 0, uses_anonymous_args = 0
  33              		.loc 1 1055 1 is_stmt 0 view .LVU1
  34 0000 70B5     		push	{r4, r5, r6, lr}
  35              		.cfi_def_cfa_offset 16
  36              		.cfi_offset 4, -16
  37              		.cfi_offset 5, -12
  38              		.cfi_offset 6, -8
  39              		.cfi_offset 14, -4
  40 0002 82B0     		sub	sp, sp, #8
  41              		.cfi_def_cfa_offset 24
1056:Drivers/lvgl/src/core/lv_refr.c ****     int32_t max_row = (uint32_t)disp->driver->draw_buf->size / area_w;
  42              		.loc 1 1056 5 is_stmt 1 view .LVU2
  43              		.loc 1 1056 37 is_stmt 0 view .LVU3
  44 0004 0368     		ldr	r3, [r0]
  45              		.loc 1 1056 45 view .LVU4
  46 0006 DB68     		ldr	r3, [r3, #12]
  47              		.loc 1 1056 55 view .LVU5
  48 0008 DB68     		ldr	r3, [r3, #12]
  49              		.loc 1 1056 62 view .LVU6
  50 000a B3FBF1F1 		udiv	r1, r3, r1
  51              	.LVL1:
1057:Drivers/lvgl/src/core/lv_refr.c **** 
1058:Drivers/lvgl/src/core/lv_refr.c ****     if(max_row > area_h) max_row = area_h;
  52              		.loc 1 1058 5 is_stmt 1 view .LVU7
  53              		.loc 1 1058 16 is_stmt 0 view .LVU8
  54 000e 1546     		mov	r5, r2
  55              		.loc 1 1058 7 view .LVU9
  56 0010 8A42     		cmp	r2, r1
  57 0012 00DB     		blt	.L2
1056:Drivers/lvgl/src/core/lv_refr.c ****     int32_t max_row = (uint32_t)disp->driver->draw_buf->size / area_w;
  58              		.loc 1 1056 13 view .LVU10
  59 0014 0D46     		mov	r5, r1
  60              	.L2:
  61              	.LVL2:
1059:Drivers/lvgl/src/core/lv_refr.c **** 
1060:Drivers/lvgl/src/core/lv_refr.c ****     /*Round down the lines of draw_buf if rounding is added*/
1061:Drivers/lvgl/src/core/lv_refr.c ****     if(disp_refr->driver->rounder_cb) {
  62              		.loc 1 1061 5 is_stmt 1 view .LVU11
  63              		.loc 1 1061 17 is_stmt 0 view .LVU12
  64 0016 174B     		ldr	r3, .L10
  65 0018 1B68     		ldr	r3, [r3]
  66 001a 1B68     		ldr	r3, [r3]
  67              		.loc 1 1061 25 view .LVU13
  68 001c 9B69     		ldr	r3, [r3, #24]
  69              		.loc 1 1061 7 view .LVU14
  70 001e 1BB3     		cbz	r3, .L3
  71              	.LBB75:
1062:Drivers/lvgl/src/core/lv_refr.c ****         lv_area_t tmp;
  72              		.loc 1 1062 9 is_stmt 1 view .LVU15
1063:Drivers/lvgl/src/core/lv_refr.c ****         tmp.x1 = 0;
  73              		.loc 1 1063 9 view .LVU16
  74              		.loc 1 1063 16 is_stmt 0 view .LVU17
  75 0020 0023     		movs	r3, #0
  76 0022 ADF80030 		strh	r3, [sp]	@ movhi
1064:Drivers/lvgl/src/core/lv_refr.c ****         tmp.x2 = 0;
ARM GAS  /var/folders/0z/tsy30v1j4xl4_7kw94k978ww0000gn/T//ccRTPM70.s 			page 21


  77              		.loc 1 1064 9 is_stmt 1 view .LVU18
  78              		.loc 1 1064 16 is_stmt 0 view .LVU19
  79 0026 ADF80430 		strh	r3, [sp, #4]	@ movhi
1065:Drivers/lvgl/src/core/lv_refr.c ****         tmp.y1 = 0;
  80              		.loc 1 1065 9 is_stmt 1 view .LVU20
  81              		.loc 1 1065 16 is_stmt 0 view .LVU21
  82 002a ADF80230 		strh	r3, [sp, #2]	@ movhi
1066:Drivers/lvgl/src/core/lv_refr.c **** 
1067:Drivers/lvgl/src/core/lv_refr.c ****         lv_coord_t h_tmp = max_row;
  83              		.loc 1 1067 9 is_stmt 1 view .LVU22
  84              		.loc 1 1067 20 is_stmt 0 view .LVU23
  85 002e 2CB2     		sxth	r4, r5
  86              	.LVL3:
  87              	.L5:
1068:Drivers/lvgl/src/core/lv_refr.c ****         do {
  88              		.loc 1 1068 9 is_stmt 1 view .LVU24
1069:Drivers/lvgl/src/core/lv_refr.c ****             tmp.y2 = h_tmp - 1;
  89              		.loc 1 1069 13 view .LVU25
  90 0030 2646     		mov	r6, r4
  91              		.loc 1 1069 28 is_stmt 0 view .LVU26
  92 0032 013C     		subs	r4, r4, #1
  93              	.LVL4:
  94              		.loc 1 1069 28 view .LVU27
  95 0034 24B2     		sxth	r4, r4
  96              		.loc 1 1069 20 view .LVU28
  97 0036 ADF80640 		strh	r4, [sp, #6]	@ movhi
1070:Drivers/lvgl/src/core/lv_refr.c ****             disp_refr->driver->rounder_cb(disp_refr->driver, &tmp);
  98              		.loc 1 1070 13 is_stmt 1 view .LVU29
  99              		.loc 1 1070 22 is_stmt 0 view .LVU30
 100 003a 0E4B     		ldr	r3, .L10
 101 003c 1B68     		ldr	r3, [r3]
 102 003e 1868     		ldr	r0, [r3]
 103              		.loc 1 1070 30 view .LVU31
 104 0040 8369     		ldr	r3, [r0, #24]
 105              		.loc 1 1070 13 view .LVU32
 106 0042 6946     		mov	r1, sp
 107 0044 9847     		blx	r3
 108              	.LVL5:
1071:Drivers/lvgl/src/core/lv_refr.c **** 
1072:Drivers/lvgl/src/core/lv_refr.c ****             /*If this height fits into `max_row` then fine*/
1073:Drivers/lvgl/src/core/lv_refr.c ****             if(lv_area_get_height(&tmp) <= max_row) break;
 109              		.loc 1 1073 13 is_stmt 1 view .LVU33
 110              	.LBB76:
 111              	.LBI76:
 112              		.file 2 "Drivers/lvgl/src/core/../misc/../font/../misc/lv_area.h"
   1:Drivers/lvgl/src/core/../misc/../font/../misc/lv_area.h **** /**
   2:Drivers/lvgl/src/core/../misc/../font/../misc/lv_area.h ****  * @file lv_area.h
   3:Drivers/lvgl/src/core/../misc/../font/../misc/lv_area.h ****  *
   4:Drivers/lvgl/src/core/../misc/../font/../misc/lv_area.h ****  */
   5:Drivers/lvgl/src/core/../misc/../font/../misc/lv_area.h **** 
   6:Drivers/lvgl/src/core/../misc/../font/../misc/lv_area.h **** #ifndef LV_AREA_H
   7:Drivers/lvgl/src/core/../misc/../font/../misc/lv_area.h **** #define LV_AREA_H
   8:Drivers/lvgl/src/core/../misc/../font/../misc/lv_area.h **** 
   9:Drivers/lvgl/src/core/../misc/../font/../misc/lv_area.h **** #ifdef __cplusplus
  10:Drivers/lvgl/src/core/../misc/../font/../misc/lv_area.h **** extern "C" {
  11:Drivers/lvgl/src/core/../misc/../font/../misc/lv_area.h **** #endif
  12:Drivers/lvgl/src/core/../misc/../font/../misc/lv_area.h **** 
ARM GAS  /var/folders/0z/tsy30v1j4xl4_7kw94k978ww0000gn/T//ccRTPM70.s 			page 22


  13:Drivers/lvgl/src/core/../misc/../font/../misc/lv_area.h **** /*********************
  14:Drivers/lvgl/src/core/../misc/../font/../misc/lv_area.h ****  *      INCLUDES
  15:Drivers/lvgl/src/core/../misc/../font/../misc/lv_area.h ****  *********************/
  16:Drivers/lvgl/src/core/../misc/../font/../misc/lv_area.h **** #include "../lv_conf_internal.h"
  17:Drivers/lvgl/src/core/../misc/../font/../misc/lv_area.h **** #include <stdbool.h>
  18:Drivers/lvgl/src/core/../misc/../font/../misc/lv_area.h **** #include <stdint.h>
  19:Drivers/lvgl/src/core/../misc/../font/../misc/lv_area.h **** 
  20:Drivers/lvgl/src/core/../misc/../font/../misc/lv_area.h **** /*********************
  21:Drivers/lvgl/src/core/../misc/../font/../misc/lv_area.h ****  *      DEFINES
  22:Drivers/lvgl/src/core/../misc/../font/../misc/lv_area.h ****  *********************/
  23:Drivers/lvgl/src/core/../misc/../font/../misc/lv_area.h **** 
  24:Drivers/lvgl/src/core/../misc/../font/../misc/lv_area.h **** #if LV_USE_LARGE_COORD
  25:Drivers/lvgl/src/core/../misc/../font/../misc/lv_area.h **** typedef int32_t lv_coord_t;
  26:Drivers/lvgl/src/core/../misc/../font/../misc/lv_area.h **** #else
  27:Drivers/lvgl/src/core/../misc/../font/../misc/lv_area.h **** typedef int16_t lv_coord_t;
  28:Drivers/lvgl/src/core/../misc/../font/../misc/lv_area.h **** #endif
  29:Drivers/lvgl/src/core/../misc/../font/../misc/lv_area.h **** 
  30:Drivers/lvgl/src/core/../misc/../font/../misc/lv_area.h **** /**********************
  31:Drivers/lvgl/src/core/../misc/../font/../misc/lv_area.h ****  *      TYPEDEFS
  32:Drivers/lvgl/src/core/../misc/../font/../misc/lv_area.h ****  **********************/
  33:Drivers/lvgl/src/core/../misc/../font/../misc/lv_area.h **** 
  34:Drivers/lvgl/src/core/../misc/../font/../misc/lv_area.h **** /**
  35:Drivers/lvgl/src/core/../misc/../font/../misc/lv_area.h ****  * Represents a point on the screen.
  36:Drivers/lvgl/src/core/../misc/../font/../misc/lv_area.h ****  */
  37:Drivers/lvgl/src/core/../misc/../font/../misc/lv_area.h **** typedef struct {
  38:Drivers/lvgl/src/core/../misc/../font/../misc/lv_area.h ****     lv_coord_t x;
  39:Drivers/lvgl/src/core/../misc/../font/../misc/lv_area.h ****     lv_coord_t y;
  40:Drivers/lvgl/src/core/../misc/../font/../misc/lv_area.h **** } lv_point_t;
  41:Drivers/lvgl/src/core/../misc/../font/../misc/lv_area.h **** 
  42:Drivers/lvgl/src/core/../misc/../font/../misc/lv_area.h **** /** Represents an area of the screen.*/
  43:Drivers/lvgl/src/core/../misc/../font/../misc/lv_area.h **** typedef struct {
  44:Drivers/lvgl/src/core/../misc/../font/../misc/lv_area.h ****     lv_coord_t x1;
  45:Drivers/lvgl/src/core/../misc/../font/../misc/lv_area.h ****     lv_coord_t y1;
  46:Drivers/lvgl/src/core/../misc/../font/../misc/lv_area.h ****     lv_coord_t x2;
  47:Drivers/lvgl/src/core/../misc/../font/../misc/lv_area.h ****     lv_coord_t y2;
  48:Drivers/lvgl/src/core/../misc/../font/../misc/lv_area.h **** } lv_area_t;
  49:Drivers/lvgl/src/core/../misc/../font/../misc/lv_area.h **** 
  50:Drivers/lvgl/src/core/../misc/../font/../misc/lv_area.h **** /** Alignments*/
  51:Drivers/lvgl/src/core/../misc/../font/../misc/lv_area.h **** enum {
  52:Drivers/lvgl/src/core/../misc/../font/../misc/lv_area.h ****     LV_ALIGN_DEFAULT = 0,
  53:Drivers/lvgl/src/core/../misc/../font/../misc/lv_area.h ****     LV_ALIGN_TOP_LEFT,
  54:Drivers/lvgl/src/core/../misc/../font/../misc/lv_area.h ****     LV_ALIGN_TOP_MID,
  55:Drivers/lvgl/src/core/../misc/../font/../misc/lv_area.h ****     LV_ALIGN_TOP_RIGHT,
  56:Drivers/lvgl/src/core/../misc/../font/../misc/lv_area.h ****     LV_ALIGN_BOTTOM_LEFT,
  57:Drivers/lvgl/src/core/../misc/../font/../misc/lv_area.h ****     LV_ALIGN_BOTTOM_MID,
  58:Drivers/lvgl/src/core/../misc/../font/../misc/lv_area.h ****     LV_ALIGN_BOTTOM_RIGHT,
  59:Drivers/lvgl/src/core/../misc/../font/../misc/lv_area.h ****     LV_ALIGN_LEFT_MID,
  60:Drivers/lvgl/src/core/../misc/../font/../misc/lv_area.h ****     LV_ALIGN_RIGHT_MID,
  61:Drivers/lvgl/src/core/../misc/../font/../misc/lv_area.h ****     LV_ALIGN_CENTER,
  62:Drivers/lvgl/src/core/../misc/../font/../misc/lv_area.h **** 
  63:Drivers/lvgl/src/core/../misc/../font/../misc/lv_area.h ****     LV_ALIGN_OUT_TOP_LEFT,
  64:Drivers/lvgl/src/core/../misc/../font/../misc/lv_area.h ****     LV_ALIGN_OUT_TOP_MID,
  65:Drivers/lvgl/src/core/../misc/../font/../misc/lv_area.h ****     LV_ALIGN_OUT_TOP_RIGHT,
  66:Drivers/lvgl/src/core/../misc/../font/../misc/lv_area.h ****     LV_ALIGN_OUT_BOTTOM_LEFT,
  67:Drivers/lvgl/src/core/../misc/../font/../misc/lv_area.h ****     LV_ALIGN_OUT_BOTTOM_MID,
  68:Drivers/lvgl/src/core/../misc/../font/../misc/lv_area.h ****     LV_ALIGN_OUT_BOTTOM_RIGHT,
  69:Drivers/lvgl/src/core/../misc/../font/../misc/lv_area.h ****     LV_ALIGN_OUT_LEFT_TOP,
ARM GAS  /var/folders/0z/tsy30v1j4xl4_7kw94k978ww0000gn/T//ccRTPM70.s 			page 23


  70:Drivers/lvgl/src/core/../misc/../font/../misc/lv_area.h ****     LV_ALIGN_OUT_LEFT_MID,
  71:Drivers/lvgl/src/core/../misc/../font/../misc/lv_area.h ****     LV_ALIGN_OUT_LEFT_BOTTOM,
  72:Drivers/lvgl/src/core/../misc/../font/../misc/lv_area.h ****     LV_ALIGN_OUT_RIGHT_TOP,
  73:Drivers/lvgl/src/core/../misc/../font/../misc/lv_area.h ****     LV_ALIGN_OUT_RIGHT_MID,
  74:Drivers/lvgl/src/core/../misc/../font/../misc/lv_area.h ****     LV_ALIGN_OUT_RIGHT_BOTTOM,
  75:Drivers/lvgl/src/core/../misc/../font/../misc/lv_area.h **** };
  76:Drivers/lvgl/src/core/../misc/../font/../misc/lv_area.h **** typedef uint8_t lv_align_t;
  77:Drivers/lvgl/src/core/../misc/../font/../misc/lv_area.h **** 
  78:Drivers/lvgl/src/core/../misc/../font/../misc/lv_area.h **** enum {
  79:Drivers/lvgl/src/core/../misc/../font/../misc/lv_area.h ****     LV_DIR_NONE     = 0x00,
  80:Drivers/lvgl/src/core/../misc/../font/../misc/lv_area.h ****     LV_DIR_LEFT     = (1 << 0),
  81:Drivers/lvgl/src/core/../misc/../font/../misc/lv_area.h ****     LV_DIR_RIGHT    = (1 << 1),
  82:Drivers/lvgl/src/core/../misc/../font/../misc/lv_area.h ****     LV_DIR_TOP      = (1 << 2),
  83:Drivers/lvgl/src/core/../misc/../font/../misc/lv_area.h ****     LV_DIR_BOTTOM   = (1 << 3),
  84:Drivers/lvgl/src/core/../misc/../font/../misc/lv_area.h ****     LV_DIR_HOR      = LV_DIR_LEFT | LV_DIR_RIGHT,
  85:Drivers/lvgl/src/core/../misc/../font/../misc/lv_area.h ****     LV_DIR_VER      = LV_DIR_TOP | LV_DIR_BOTTOM,
  86:Drivers/lvgl/src/core/../misc/../font/../misc/lv_area.h ****     LV_DIR_ALL      = LV_DIR_HOR | LV_DIR_VER,
  87:Drivers/lvgl/src/core/../misc/../font/../misc/lv_area.h **** };
  88:Drivers/lvgl/src/core/../misc/../font/../misc/lv_area.h **** 
  89:Drivers/lvgl/src/core/../misc/../font/../misc/lv_area.h **** typedef uint8_t lv_dir_t;
  90:Drivers/lvgl/src/core/../misc/../font/../misc/lv_area.h **** 
  91:Drivers/lvgl/src/core/../misc/../font/../misc/lv_area.h **** /**********************
  92:Drivers/lvgl/src/core/../misc/../font/../misc/lv_area.h ****  * GLOBAL PROTOTYPES
  93:Drivers/lvgl/src/core/../misc/../font/../misc/lv_area.h ****  **********************/
  94:Drivers/lvgl/src/core/../misc/../font/../misc/lv_area.h **** 
  95:Drivers/lvgl/src/core/../misc/../font/../misc/lv_area.h **** /**
  96:Drivers/lvgl/src/core/../misc/../font/../misc/lv_area.h ****  * Initialize an area
  97:Drivers/lvgl/src/core/../misc/../font/../misc/lv_area.h ****  * @param area_p pointer to an area
  98:Drivers/lvgl/src/core/../misc/../font/../misc/lv_area.h ****  * @param x1 left coordinate of the area
  99:Drivers/lvgl/src/core/../misc/../font/../misc/lv_area.h ****  * @param y1 top coordinate of the area
 100:Drivers/lvgl/src/core/../misc/../font/../misc/lv_area.h ****  * @param x2 right coordinate of the area
 101:Drivers/lvgl/src/core/../misc/../font/../misc/lv_area.h ****  * @param y2 bottom coordinate of the area
 102:Drivers/lvgl/src/core/../misc/../font/../misc/lv_area.h ****  */
 103:Drivers/lvgl/src/core/../misc/../font/../misc/lv_area.h **** void lv_area_set(lv_area_t * area_p, lv_coord_t x1, lv_coord_t y1, lv_coord_t x2, lv_coord_t y2);
 104:Drivers/lvgl/src/core/../misc/../font/../misc/lv_area.h **** 
 105:Drivers/lvgl/src/core/../misc/../font/../misc/lv_area.h **** /**
 106:Drivers/lvgl/src/core/../misc/../font/../misc/lv_area.h ****  * Copy an area
 107:Drivers/lvgl/src/core/../misc/../font/../misc/lv_area.h ****  * @param dest pointer to the destination area
 108:Drivers/lvgl/src/core/../misc/../font/../misc/lv_area.h ****  * @param src pointer to the source area
 109:Drivers/lvgl/src/core/../misc/../font/../misc/lv_area.h ****  */
 110:Drivers/lvgl/src/core/../misc/../font/../misc/lv_area.h **** inline static void lv_area_copy(lv_area_t * dest, const lv_area_t * src)
 111:Drivers/lvgl/src/core/../misc/../font/../misc/lv_area.h **** {
 112:Drivers/lvgl/src/core/../misc/../font/../misc/lv_area.h ****     dest->x1 = src->x1;
 113:Drivers/lvgl/src/core/../misc/../font/../misc/lv_area.h ****     dest->y1 = src->y1;
 114:Drivers/lvgl/src/core/../misc/../font/../misc/lv_area.h ****     dest->x2 = src->x2;
 115:Drivers/lvgl/src/core/../misc/../font/../misc/lv_area.h ****     dest->y2 = src->y2;
 116:Drivers/lvgl/src/core/../misc/../font/../misc/lv_area.h **** }
 117:Drivers/lvgl/src/core/../misc/../font/../misc/lv_area.h **** 
 118:Drivers/lvgl/src/core/../misc/../font/../misc/lv_area.h **** /**
 119:Drivers/lvgl/src/core/../misc/../font/../misc/lv_area.h ****  * Get the width of an area
 120:Drivers/lvgl/src/core/../misc/../font/../misc/lv_area.h ****  * @param area_p pointer to an area
 121:Drivers/lvgl/src/core/../misc/../font/../misc/lv_area.h ****  * @return the width of the area (if x1 == x2 -> width = 1)
 122:Drivers/lvgl/src/core/../misc/../font/../misc/lv_area.h ****  */
 123:Drivers/lvgl/src/core/../misc/../font/../misc/lv_area.h **** static inline lv_coord_t lv_area_get_width(const lv_area_t * area_p)
 124:Drivers/lvgl/src/core/../misc/../font/../misc/lv_area.h **** {
 125:Drivers/lvgl/src/core/../misc/../font/../misc/lv_area.h ****     return (lv_coord_t)(area_p->x2 - area_p->x1 + 1);
 126:Drivers/lvgl/src/core/../misc/../font/../misc/lv_area.h **** }
ARM GAS  /var/folders/0z/tsy30v1j4xl4_7kw94k978ww0000gn/T//ccRTPM70.s 			page 24


 127:Drivers/lvgl/src/core/../misc/../font/../misc/lv_area.h **** 
 128:Drivers/lvgl/src/core/../misc/../font/../misc/lv_area.h **** /**
 129:Drivers/lvgl/src/core/../misc/../font/../misc/lv_area.h ****  * Get the height of an area
 130:Drivers/lvgl/src/core/../misc/../font/../misc/lv_area.h ****  * @param area_p pointer to an area
 131:Drivers/lvgl/src/core/../misc/../font/../misc/lv_area.h ****  * @return the height of the area (if y1 == y2 -> height = 1)
 132:Drivers/lvgl/src/core/../misc/../font/../misc/lv_area.h ****  */
 133:Drivers/lvgl/src/core/../misc/../font/../misc/lv_area.h **** static inline lv_coord_t lv_area_get_height(const lv_area_t * area_p)
 113              		.loc 2 133 26 view .LVU34
 114              	.LBB77:
 134:Drivers/lvgl/src/core/../misc/../font/../misc/lv_area.h **** {
 135:Drivers/lvgl/src/core/../misc/../font/../misc/lv_area.h ****     return (lv_coord_t)(area_p->y2 - area_p->y1 + 1);
 115              		.loc 2 135 5 view .LVU35
 116              		.loc 2 135 31 is_stmt 0 view .LVU36
 117 0046 BDF90620 		ldrsh	r2, [sp, #6]
 118 004a 93B2     		uxth	r3, r2
 119              		.loc 2 135 44 view .LVU37
 120 004c BDF80210 		ldrh	r1, [sp, #2]
 121              		.loc 2 135 36 view .LVU38
 122 0050 5B1A     		subs	r3, r3, r1
 123 0052 9BB2     		uxth	r3, r3
 124              		.loc 2 135 49 view .LVU39
 125 0054 0133     		adds	r3, r3, #1
 126              		.loc 2 135 12 view .LVU40
 127 0056 1BB2     		sxth	r3, r3
 128              	.LVL6:
 129              		.loc 2 135 12 view .LVU41
 130              	.LBE77:
 131              	.LBE76:
 132              		.loc 1 1073 15 view .LVU42
 133 0058 AB42     		cmp	r3, r5
 134 005a 02DD     		ble	.L4
1074:Drivers/lvgl/src/core/lv_refr.c **** 
1075:Drivers/lvgl/src/core/lv_refr.c ****             /*Decrement the height of the area until it fits into `max_row` after rounding*/
1076:Drivers/lvgl/src/core/lv_refr.c ****             h_tmp--;
 135              		.loc 1 1076 13 is_stmt 1 view .LVU43
 136              	.LVL7:
1077:Drivers/lvgl/src/core/lv_refr.c ****         } while(h_tmp > 0);
 137              		.loc 1 1077 23 view .LVU44
 138 005c 002C     		cmp	r4, #0
 139 005e E7DC     		bgt	.L5
1076:Drivers/lvgl/src/core/lv_refr.c ****         } while(h_tmp > 0);
 140              		.loc 1 1076 18 is_stmt 0 view .LVU45
 141 0060 2646     		mov	r6, r4
 142              	.LVL8:
 143              	.L4:
1078:Drivers/lvgl/src/core/lv_refr.c **** 
1079:Drivers/lvgl/src/core/lv_refr.c ****         if(h_tmp <= 0) {
 144              		.loc 1 1079 9 is_stmt 1 view .LVU46
 145              		.loc 1 1079 11 is_stmt 0 view .LVU47
 146 0062 002E     		cmp	r6, #0
 147 0064 03DD     		ble	.L9
1080:Drivers/lvgl/src/core/lv_refr.c ****             LV_LOG_WARN("Can't set draw_buf height using the round function. (Wrong round_cb or to 
1081:Drivers/lvgl/src/core/lv_refr.c ****                         "small draw_buf)");
1082:Drivers/lvgl/src/core/lv_refr.c ****             return 0;
1083:Drivers/lvgl/src/core/lv_refr.c ****         }
1084:Drivers/lvgl/src/core/lv_refr.c ****         else {
1085:Drivers/lvgl/src/core/lv_refr.c ****             max_row = tmp.y2 + 1;
ARM GAS  /var/folders/0z/tsy30v1j4xl4_7kw94k978ww0000gn/T//ccRTPM70.s 			page 25


 148              		.loc 1 1085 13 is_stmt 1 view .LVU48
 149              		.loc 1 1085 21 is_stmt 0 view .LVU49
 150 0066 551C     		adds	r5, r2, #1
 151              	.LVL9:
 152              	.L3:
 153              		.loc 1 1085 21 view .LVU50
 154              	.LBE75:
1086:Drivers/lvgl/src/core/lv_refr.c ****         }
1087:Drivers/lvgl/src/core/lv_refr.c ****     }
1088:Drivers/lvgl/src/core/lv_refr.c **** 
1089:Drivers/lvgl/src/core/lv_refr.c ****     return max_row;
 155              		.loc 1 1089 5 is_stmt 1 view .LVU51
 156              		.loc 1 1089 12 is_stmt 0 view .LVU52
 157 0068 2846     		mov	r0, r5
 158              	.L1:
1090:Drivers/lvgl/src/core/lv_refr.c **** }
 159              		.loc 1 1090 1 view .LVU53
 160 006a 02B0     		add	sp, sp, #8
 161              		.cfi_remember_state
 162              		.cfi_def_cfa_offset 16
 163              		@ sp needed
 164 006c 70BD     		pop	{r4, r5, r6, pc}
 165              	.LVL10:
 166              	.L9:
 167              		.cfi_restore_state
 168              	.LBB78:
1080:Drivers/lvgl/src/core/lv_refr.c ****             LV_LOG_WARN("Can't set draw_buf height using the round function. (Wrong round_cb or to 
 169              		.loc 1 1080 13 is_stmt 1 view .LVU54
1080:Drivers/lvgl/src/core/lv_refr.c ****             LV_LOG_WARN("Can't set draw_buf height using the round function. (Wrong round_cb or to 
 170              		.loc 1 1080 13 view .LVU55
1080:Drivers/lvgl/src/core/lv_refr.c ****             LV_LOG_WARN("Can't set draw_buf height using the round function. (Wrong round_cb or to 
 171              		.loc 1 1080 13 view .LVU56
1082:Drivers/lvgl/src/core/lv_refr.c ****         }
 172              		.loc 1 1082 13 view .LVU57
1082:Drivers/lvgl/src/core/lv_refr.c ****         }
 173              		.loc 1 1082 20 is_stmt 0 view .LVU58
 174 006e 0020     		movs	r0, #0
 175 0070 FBE7     		b	.L1
 176              	.L11:
 177 0072 00BF     		.align	2
 178              	.L10:
 179 0074 00000000 		.word	.LANCHOR0
 180              	.LBE78:
 181              		.cfi_endproc
 182              	.LFE186:
 184              		.section	.text.draw_buf_rotate_180,"ax",%progbits
 185              		.align	1
 186              		.syntax unified
 187              		.thumb
 188              		.thumb_func
 190              	draw_buf_rotate_180:
 191              	.LVL11:
 192              	.LFB187:
1091:Drivers/lvgl/src/core/lv_refr.c **** 
1092:Drivers/lvgl/src/core/lv_refr.c **** static void draw_buf_rotate_180(lv_disp_drv_t * drv, lv_area_t * area, lv_color_t * color_p)
1093:Drivers/lvgl/src/core/lv_refr.c **** {
 193              		.loc 1 1093 1 is_stmt 1 view -0
ARM GAS  /var/folders/0z/tsy30v1j4xl4_7kw94k978ww0000gn/T//ccRTPM70.s 			page 26


 194              		.cfi_startproc
 195              		@ args = 0, pretend = 0, frame = 0
 196              		@ frame_needed = 0, uses_anonymous_args = 0
 197              		.loc 1 1093 1 is_stmt 0 view .LVU60
 198 0000 10B5     		push	{r4, lr}
 199              		.cfi_def_cfa_offset 8
 200              		.cfi_offset 4, -8
 201              		.cfi_offset 14, -4
1094:Drivers/lvgl/src/core/lv_refr.c ****     lv_coord_t area_w = lv_area_get_width(area);
 202              		.loc 1 1094 5 is_stmt 1 view .LVU61
 203              	.LVL12:
 204              	.LBB79:
 205              	.LBI79:
 123:Drivers/lvgl/src/core/../misc/../font/../misc/lv_area.h **** {
 206              		.loc 2 123 26 view .LVU62
 207              	.LBB80:
 125:Drivers/lvgl/src/core/../misc/../font/../misc/lv_area.h **** }
 208              		.loc 2 125 5 view .LVU63
 125:Drivers/lvgl/src/core/../misc/../font/../misc/lv_area.h **** }
 209              		.loc 2 125 31 is_stmt 0 view .LVU64
 210 0002 8B88     		ldrh	r3, [r1, #4]
 125:Drivers/lvgl/src/core/../misc/../font/../misc/lv_area.h **** }
 211              		.loc 2 125 44 view .LVU65
 212 0004 B1F800C0 		ldrh	ip, [r1]
 125:Drivers/lvgl/src/core/../misc/../font/../misc/lv_area.h **** }
 213              		.loc 2 125 36 view .LVU66
 214 0008 A3EB0C03 		sub	r3, r3, ip
 215 000c 9BB2     		uxth	r3, r3
 125:Drivers/lvgl/src/core/../misc/../font/../misc/lv_area.h **** }
 216              		.loc 2 125 49 view .LVU67
 217 000e 0133     		adds	r3, r3, #1
 125:Drivers/lvgl/src/core/../misc/../font/../misc/lv_area.h **** }
 218              		.loc 2 125 12 view .LVU68
 219 0010 1BB2     		sxth	r3, r3
 220              	.LVL13:
 125:Drivers/lvgl/src/core/../misc/../font/../misc/lv_area.h **** }
 221              		.loc 2 125 12 view .LVU69
 222              	.LBE80:
 223              	.LBE79:
1095:Drivers/lvgl/src/core/lv_refr.c ****     lv_coord_t area_h = lv_area_get_height(area);
 224              		.loc 1 1095 5 is_stmt 1 view .LVU70
 225              	.LBB81:
 226              	.LBI81:
 133:Drivers/lvgl/src/core/../misc/../font/../misc/lv_area.h **** {
 227              		.loc 2 133 26 view .LVU71
 228              	.LBB82:
 229              		.loc 2 135 5 view .LVU72
 230              		.loc 2 135 31 is_stmt 0 view .LVU73
 231 0012 B1F806C0 		ldrh	ip, [r1, #6]
 232              		.loc 2 135 44 view .LVU74
 233 0016 B1F802E0 		ldrh	lr, [r1, #2]
 234              		.loc 2 135 36 view .LVU75
 235 001a ACEB0E0C 		sub	ip, ip, lr
 236 001e 1FFA8CFC 		uxth	ip, ip
 237              		.loc 2 135 49 view .LVU76
 238 0022 0CF1010C 		add	ip, ip, #1
 239              		.loc 2 135 12 view .LVU77
ARM GAS  /var/folders/0z/tsy30v1j4xl4_7kw94k978ww0000gn/T//ccRTPM70.s 			page 27


 240 0026 0FFA8CFC 		sxth	ip, ip
 241              	.LVL14:
 242              		.loc 2 135 12 view .LVU78
 243              	.LBE82:
 244              	.LBE81:
1096:Drivers/lvgl/src/core/lv_refr.c ****     uint32_t total = area_w * area_h;
 245              		.loc 1 1096 5 is_stmt 1 view .LVU79
 246              		.loc 1 1096 29 is_stmt 0 view .LVU80
 247 002a 0CFB03F3 		mul	r3, ip, r3
 248              	.LVL15:
1097:Drivers/lvgl/src/core/lv_refr.c ****     /*Swap the beginning and end values*/
1098:Drivers/lvgl/src/core/lv_refr.c ****     lv_color_t tmp;
 249              		.loc 1 1098 5 is_stmt 1 view .LVU81
1099:Drivers/lvgl/src/core/lv_refr.c ****     uint32_t i = total - 1, j = 0;
 250              		.loc 1 1099 5 view .LVU82
 251              		.loc 1 1099 14 is_stmt 0 view .LVU83
 252 002e 013B     		subs	r3, r3, #1
 253              	.LVL16:
1100:Drivers/lvgl/src/core/lv_refr.c ****     while(i > j) {
 254              		.loc 1 1100 5 is_stmt 1 view .LVU84
1099:Drivers/lvgl/src/core/lv_refr.c ****     uint32_t i = total - 1, j = 0;
 255              		.loc 1 1099 29 is_stmt 0 view .LVU85
 256 0030 4FF0000C 		mov	ip, #0
 257              	.LVL17:
 258              		.loc 1 1100 10 view .LVU86
 259 0034 0AE0     		b	.L13
 260              	.LVL18:
 261              	.L14:
1101:Drivers/lvgl/src/core/lv_refr.c ****         tmp = color_p[i];
 262              		.loc 1 1101 9 is_stmt 1 view .LVU87
 263              		.loc 1 1101 13 is_stmt 0 view .LVU88
 264 0036 32F813E0 		ldrh	lr, [r2, r3, lsl #1]
 265              	.LVL19:
1102:Drivers/lvgl/src/core/lv_refr.c ****         color_p[i] = color_p[j];
 266              		.loc 1 1102 9 is_stmt 1 view .LVU89
 267              		.loc 1 1102 20 is_stmt 0 view .LVU90
 268 003a 32F81C40 		ldrh	r4, [r2, ip, lsl #1]
 269 003e 22F81340 		strh	r4, [r2, r3, lsl #1]	@ movhi
1103:Drivers/lvgl/src/core/lv_refr.c ****         color_p[j] = tmp;
 270              		.loc 1 1103 9 is_stmt 1 view .LVU91
 271              	.LVL20:
 272              		.loc 1 1103 20 is_stmt 0 view .LVU92
 273 0042 22F81CE0 		strh	lr, [r2, ip, lsl #1]	@ movhi
1104:Drivers/lvgl/src/core/lv_refr.c ****         i--;
 274              		.loc 1 1104 9 is_stmt 1 view .LVU93
 275              		.loc 1 1104 10 is_stmt 0 view .LVU94
 276 0046 013B     		subs	r3, r3, #1
 277              	.LVL21:
1105:Drivers/lvgl/src/core/lv_refr.c ****         j++;
 278              		.loc 1 1105 9 is_stmt 1 view .LVU95
 279              		.loc 1 1105 10 is_stmt 0 view .LVU96
 280 0048 0CF1010C 		add	ip, ip, #1
 281              	.LVL22:
 282              	.L13:
1100:Drivers/lvgl/src/core/lv_refr.c ****         tmp = color_p[i];
 283              		.loc 1 1100 13 is_stmt 1 view .LVU97
 284 004c 6345     		cmp	r3, ip
ARM GAS  /var/folders/0z/tsy30v1j4xl4_7kw94k978ww0000gn/T//ccRTPM70.s 			page 28


 285 004e F2D8     		bhi	.L14
1106:Drivers/lvgl/src/core/lv_refr.c ****     }
1107:Drivers/lvgl/src/core/lv_refr.c ****     lv_coord_t tmp_coord;
 286              		.loc 1 1107 5 view .LVU98
1108:Drivers/lvgl/src/core/lv_refr.c ****     tmp_coord = area->y2;
 287              		.loc 1 1108 5 view .LVU99
 288              		.loc 1 1108 15 is_stmt 0 view .LVU100
 289 0050 B1F90620 		ldrsh	r2, [r1, #6]
 290              	.LVL23:
1109:Drivers/lvgl/src/core/lv_refr.c ****     area->y2 = drv->ver_res - area->y1 - 1;
 291              		.loc 1 1109 5 is_stmt 1 view .LVU101
 292              		.loc 1 1109 19 is_stmt 0 view .LVU102
 293 0054 4388     		ldrh	r3, [r0, #2]
 294              	.LVL24:
 295              		.loc 1 1109 35 view .LVU103
 296 0056 B1F802C0 		ldrh	ip, [r1, #2]
 297              	.LVL25:
 298              		.loc 1 1109 29 view .LVU104
 299 005a A3EB0C03 		sub	r3, r3, ip
 300 005e 9BB2     		uxth	r3, r3
 301              		.loc 1 1109 40 view .LVU105
 302 0060 013B     		subs	r3, r3, #1
 303              		.loc 1 1109 14 view .LVU106
 304 0062 CB80     		strh	r3, [r1, #6]	@ movhi
 305              	.LVL26:
1110:Drivers/lvgl/src/core/lv_refr.c ****     area->y1 = drv->ver_res - tmp_coord - 1;
 306              		.loc 1 1110 5 is_stmt 1 view .LVU107
 307              		.loc 1 1110 19 is_stmt 0 view .LVU108
 308 0064 4388     		ldrh	r3, [r0, #2]
 309              		.loc 1 1110 29 view .LVU109
 310 0066 9B1A     		subs	r3, r3, r2
 311 0068 9BB2     		uxth	r3, r3
 312              		.loc 1 1110 41 view .LVU110
 313 006a 013B     		subs	r3, r3, #1
 314              		.loc 1 1110 14 view .LVU111
 315 006c 4B80     		strh	r3, [r1, #2]	@ movhi
1111:Drivers/lvgl/src/core/lv_refr.c ****     tmp_coord = area->x2;
 316              		.loc 1 1111 5 is_stmt 1 view .LVU112
 317              		.loc 1 1111 15 is_stmt 0 view .LVU113
 318 006e B1F90420 		ldrsh	r2, [r1, #4]
 319              	.LVL27:
1112:Drivers/lvgl/src/core/lv_refr.c ****     area->x2 = drv->hor_res - area->x1 - 1;
 320              		.loc 1 1112 5 is_stmt 1 view .LVU114
 321              		.loc 1 1112 19 is_stmt 0 view .LVU115
 322 0072 0388     		ldrh	r3, [r0]
 323              		.loc 1 1112 35 view .LVU116
 324 0074 B1F800C0 		ldrh	ip, [r1]
 325              		.loc 1 1112 29 view .LVU117
 326 0078 A3EB0C03 		sub	r3, r3, ip
 327 007c 9BB2     		uxth	r3, r3
 328              		.loc 1 1112 40 view .LVU118
 329 007e 013B     		subs	r3, r3, #1
 330              		.loc 1 1112 14 view .LVU119
 331 0080 8B80     		strh	r3, [r1, #4]	@ movhi
 332              	.LVL28:
1113:Drivers/lvgl/src/core/lv_refr.c ****     area->x1 = drv->hor_res - tmp_coord - 1;
 333              		.loc 1 1113 5 is_stmt 1 view .LVU120
ARM GAS  /var/folders/0z/tsy30v1j4xl4_7kw94k978ww0000gn/T//ccRTPM70.s 			page 29


 334              		.loc 1 1113 19 is_stmt 0 view .LVU121
 335 0082 0388     		ldrh	r3, [r0]
 336              		.loc 1 1113 29 view .LVU122
 337 0084 9B1A     		subs	r3, r3, r2
 338 0086 9BB2     		uxth	r3, r3
 339              		.loc 1 1113 41 view .LVU123
 340 0088 013B     		subs	r3, r3, #1
 341              		.loc 1 1113 14 view .LVU124
 342 008a 0B80     		strh	r3, [r1]	@ movhi
1114:Drivers/lvgl/src/core/lv_refr.c **** }
 343              		.loc 1 1114 1 view .LVU125
 344 008c 10BD     		pop	{r4, pc}
 345              		.cfi_endproc
 346              	.LFE187:
 348              		.section	.text.draw_buf_rotate_90,"ax",%progbits
 349              		.align	1
 350              		.syntax unified
 351              		.thumb
 352              		.thumb_func
 354              	draw_buf_rotate_90:
 355              	.LVL29:
 356              	.LFB188:
1115:Drivers/lvgl/src/core/lv_refr.c **** 
1116:Drivers/lvgl/src/core/lv_refr.c **** static void LV_ATTRIBUTE_FAST_MEM draw_buf_rotate_90(bool invert_i, lv_coord_t area_w, lv_coord_t a
1117:Drivers/lvgl/src/core/lv_refr.c ****                                                      lv_color_t * orig_color_p, lv_color_t * rot_bu
1118:Drivers/lvgl/src/core/lv_refr.c **** {
 357              		.loc 1 1118 1 is_stmt 1 view -0
 358              		.cfi_startproc
 359              		@ args = 4, pretend = 0, frame = 0
 360              		@ frame_needed = 0, uses_anonymous_args = 0
 361              		.loc 1 1118 1 is_stmt 0 view .LVU127
 362 0000 2DE9F041 		push	{r4, r5, r6, r7, r8, lr}
 363              		.cfi_def_cfa_offset 24
 364              		.cfi_offset 4, -24
 365              		.cfi_offset 5, -20
 366              		.cfi_offset 6, -16
 367              		.cfi_offset 7, -12
 368              		.cfi_offset 8, -8
 369              		.cfi_offset 14, -4
 370 0004 0446     		mov	r4, r0
 371 0006 0846     		mov	r0, r1
 372              	.LVL30:
 373              		.loc 1 1118 1 view .LVU128
 374 0008 1146     		mov	r1, r2
 375              	.LVL31:
 376              		.loc 1 1118 1 view .LVU129
 377 000a 069D     		ldr	r5, [sp, #24]
1119:Drivers/lvgl/src/core/lv_refr.c **** 
1120:Drivers/lvgl/src/core/lv_refr.c ****     uint32_t invert = (area_w * area_h) - 1;
 378              		.loc 1 1120 5 is_stmt 1 view .LVU130
 379              		.loc 1 1120 31 is_stmt 0 view .LVU131
 380 000c 02FB00F8 		mul	r8, r2, r0
 381              		.loc 1 1120 41 view .LVU132
 382 0010 08F1FF38 		add	r8, r8, #-1
 383              	.LVL32:
1121:Drivers/lvgl/src/core/lv_refr.c ****     uint32_t initial_i = ((area_w - 1) * area_h);
 384              		.loc 1 1121 5 is_stmt 1 view .LVU133
ARM GAS  /var/folders/0z/tsy30v1j4xl4_7kw94k978ww0000gn/T//ccRTPM70.s 			page 30


 385              		.loc 1 1121 35 is_stmt 0 view .LVU134
 386 0014 471E     		subs	r7, r0, #1
 387              		.loc 1 1121 40 view .LVU135
 388 0016 02FB07F7 		mul	r7, r2, r7
 389              	.LVL33:
1122:Drivers/lvgl/src/core/lv_refr.c ****     for(lv_coord_t y = 0; y < area_h; y++) {
 390              		.loc 1 1122 5 is_stmt 1 view .LVU136
 391              	.LBB83:
 392              		.loc 1 1122 9 view .LVU137
 393              		.loc 1 1122 20 is_stmt 0 view .LVU138
 394 001a 0026     		movs	r6, #0
 395              		.loc 1 1122 5 view .LVU139
 396 001c 11E0     		b	.L17
 397              	.LVL34:
 398              	.L20:
 399              	.LBB84:
 400              	.LBB85:
1123:Drivers/lvgl/src/core/lv_refr.c ****         uint32_t i = initial_i + y;
1124:Drivers/lvgl/src/core/lv_refr.c ****         if(invert_i)
1125:Drivers/lvgl/src/core/lv_refr.c ****             i = invert - i;
1126:Drivers/lvgl/src/core/lv_refr.c ****         for(lv_coord_t x = 0; x < area_w; x++) {
1127:Drivers/lvgl/src/core/lv_refr.c ****             rot_buf[i] = *(orig_color_p++);
1128:Drivers/lvgl/src/core/lv_refr.c ****             if(invert_i)
1129:Drivers/lvgl/src/core/lv_refr.c ****                 i += area_h;
1130:Drivers/lvgl/src/core/lv_refr.c ****             else
1131:Drivers/lvgl/src/core/lv_refr.c ****                 i -= area_h;
 401              		.loc 1 1131 17 is_stmt 1 view .LVU140
 402              		.loc 1 1131 19 is_stmt 0 view .LVU141
 403 001e AEEB010E 		sub	lr, lr, r1
 404              	.LVL35:
 405              	.L21:
1126:Drivers/lvgl/src/core/lv_refr.c ****             rot_buf[i] = *(orig_color_p++);
 406              		.loc 1 1126 44 is_stmt 1 discriminator 2 view .LVU142
 407 0022 0CF1010C 		add	ip, ip, #1
 408              	.LVL36:
1126:Drivers/lvgl/src/core/lv_refr.c ****             rot_buf[i] = *(orig_color_p++);
 409              		.loc 1 1126 44 is_stmt 0 discriminator 2 view .LVU143
 410 0026 0FFA8CFC 		sxth	ip, ip
 411              	.LVL37:
 412              	.L19:
1126:Drivers/lvgl/src/core/lv_refr.c ****             rot_buf[i] = *(orig_color_p++);
 413              		.loc 1 1126 33 is_stmt 1 discriminator 1 view .LVU144
 414 002a 8445     		cmp	ip, r0
 415 002c 07DA     		bge	.L25
1127:Drivers/lvgl/src/core/lv_refr.c ****             if(invert_i)
 416              		.loc 1 1127 13 view .LVU145
 417              	.LVL38:
1127:Drivers/lvgl/src/core/lv_refr.c ****             if(invert_i)
 418              		.loc 1 1127 24 is_stmt 0 view .LVU146
 419 002e 33F8022B 		ldrh	r2, [r3], #2
 420              	.LVL39:
1127:Drivers/lvgl/src/core/lv_refr.c ****             if(invert_i)
 421              		.loc 1 1127 24 view .LVU147
 422 0032 25F81E20 		strh	r2, [r5, lr, lsl #1]	@ movhi
1128:Drivers/lvgl/src/core/lv_refr.c ****                 i += area_h;
 423              		.loc 1 1128 13 is_stmt 1 view .LVU148
1128:Drivers/lvgl/src/core/lv_refr.c ****                 i += area_h;
ARM GAS  /var/folders/0z/tsy30v1j4xl4_7kw94k978ww0000gn/T//ccRTPM70.s 			page 31


 424              		.loc 1 1128 15 is_stmt 0 view .LVU149
 425 0036 002C     		cmp	r4, #0
 426 0038 F1D0     		beq	.L20
1129:Drivers/lvgl/src/core/lv_refr.c ****             else
 427              		.loc 1 1129 17 is_stmt 1 view .LVU150
1129:Drivers/lvgl/src/core/lv_refr.c ****             else
 428              		.loc 1 1129 19 is_stmt 0 view .LVU151
 429 003a 8E44     		add	lr, lr, r1
 430              	.LVL40:
1129:Drivers/lvgl/src/core/lv_refr.c ****             else
 431              		.loc 1 1129 19 view .LVU152
 432 003c F1E7     		b	.L21
 433              	.L25:
1129:Drivers/lvgl/src/core/lv_refr.c ****             else
 434              		.loc 1 1129 19 view .LVU153
 435              	.LBE85:
 436              	.LBE84:
1122:Drivers/lvgl/src/core/lv_refr.c ****         uint32_t i = initial_i + y;
 437              		.loc 1 1122 40 is_stmt 1 discriminator 2 view .LVU154
 438 003e 0136     		adds	r6, r6, #1
 439              	.LVL41:
1122:Drivers/lvgl/src/core/lv_refr.c ****         uint32_t i = initial_i + y;
 440              		.loc 1 1122 40 is_stmt 0 discriminator 2 view .LVU155
 441 0040 36B2     		sxth	r6, r6
 442              	.LVL42:
 443              	.L17:
1122:Drivers/lvgl/src/core/lv_refr.c ****         uint32_t i = initial_i + y;
 444              		.loc 1 1122 29 is_stmt 1 discriminator 1 view .LVU156
 445 0042 8E42     		cmp	r6, r1
 446 0044 07DA     		bge	.L26
 447              	.LBB86:
1123:Drivers/lvgl/src/core/lv_refr.c ****         if(invert_i)
 448              		.loc 1 1123 9 view .LVU157
1123:Drivers/lvgl/src/core/lv_refr.c ****         if(invert_i)
 449              		.loc 1 1123 18 is_stmt 0 view .LVU158
 450 0046 06EB070E 		add	lr, r6, r7
 451              	.LVL43:
1124:Drivers/lvgl/src/core/lv_refr.c ****             i = invert - i;
 452              		.loc 1 1124 9 is_stmt 1 view .LVU159
1124:Drivers/lvgl/src/core/lv_refr.c ****             i = invert - i;
 453              		.loc 1 1124 11 is_stmt 0 view .LVU160
 454 004a 0CB1     		cbz	r4, .L18
1125:Drivers/lvgl/src/core/lv_refr.c ****         for(lv_coord_t x = 0; x < area_w; x++) {
 455              		.loc 1 1125 13 is_stmt 1 view .LVU161
1125:Drivers/lvgl/src/core/lv_refr.c ****         for(lv_coord_t x = 0; x < area_w; x++) {
 456              		.loc 1 1125 15 is_stmt 0 view .LVU162
 457 004c A8EB0E0E 		sub	lr, r8, lr
 458              	.LVL44:
 459              	.L18:
1125:Drivers/lvgl/src/core/lv_refr.c ****         for(lv_coord_t x = 0; x < area_w; x++) {
 460              		.loc 1 1125 15 view .LVU163
 461              	.LBE86:
 462              	.LBE83:
1118:Drivers/lvgl/src/core/lv_refr.c **** 
 463              		.loc 1 1118 1 discriminator 1 view .LVU164
 464 0050 4FF0000C 		mov	ip, #0
 465 0054 E9E7     		b	.L19
ARM GAS  /var/folders/0z/tsy30v1j4xl4_7kw94k978ww0000gn/T//ccRTPM70.s 			page 32


 466              	.LVL45:
 467              	.L26:
1132:Drivers/lvgl/src/core/lv_refr.c ****         }
1133:Drivers/lvgl/src/core/lv_refr.c ****     }
1134:Drivers/lvgl/src/core/lv_refr.c **** }
 468              		.loc 1 1134 1 view .LVU165
 469 0056 BDE8F081 		pop	{r4, r5, r6, r7, r8, pc}
 470              		.loc 1 1134 1 view .LVU166
 471              		.cfi_endproc
 472              	.LFE188:
 474              		.section	.text.draw_buf_rotate_90_sqr,"ax",%progbits
 475              		.align	1
 476              		.syntax unified
 477              		.thumb
 478              		.thumb_func
 480              	draw_buf_rotate_90_sqr:
 481              	.LVL46:
 482              	.LFB190:
1135:Drivers/lvgl/src/core/lv_refr.c **** 
1136:Drivers/lvgl/src/core/lv_refr.c **** /**
1137:Drivers/lvgl/src/core/lv_refr.c ****  * Helper function for draw_buf_rotate_90_sqr. Given a list of four numbers, rotate the entire list
1138:Drivers/lvgl/src/core/lv_refr.c ****  */
1139:Drivers/lvgl/src/core/lv_refr.c **** static inline void draw_buf_rotate4(lv_color_t * a, lv_color_t * b, lv_color_t * c, lv_color_t * d)
1140:Drivers/lvgl/src/core/lv_refr.c **** {
1141:Drivers/lvgl/src/core/lv_refr.c ****     lv_color_t tmp;
1142:Drivers/lvgl/src/core/lv_refr.c ****     tmp = *a;
1143:Drivers/lvgl/src/core/lv_refr.c ****     *a = *b;
1144:Drivers/lvgl/src/core/lv_refr.c ****     *b = *c;
1145:Drivers/lvgl/src/core/lv_refr.c ****     *c = *d;
1146:Drivers/lvgl/src/core/lv_refr.c ****     *d = tmp;
1147:Drivers/lvgl/src/core/lv_refr.c **** }
1148:Drivers/lvgl/src/core/lv_refr.c **** 
1149:Drivers/lvgl/src/core/lv_refr.c **** /**
1150:Drivers/lvgl/src/core/lv_refr.c ****  * Rotate a square image 90/270 degrees in place.
1151:Drivers/lvgl/src/core/lv_refr.c ****  * @note inspired by https://stackoverflow.com/a/43694906
1152:Drivers/lvgl/src/core/lv_refr.c ****  */
1153:Drivers/lvgl/src/core/lv_refr.c **** static void draw_buf_rotate_90_sqr(bool is_270, lv_coord_t w, lv_color_t * color_p)
1154:Drivers/lvgl/src/core/lv_refr.c **** {
 483              		.loc 1 1154 1 is_stmt 1 view -0
 484              		.cfi_startproc
 485              		@ args = 0, pretend = 0, frame = 0
 486              		@ frame_needed = 0, uses_anonymous_args = 0
 487              		.loc 1 1154 1 is_stmt 0 view .LVU168
 488 0000 2DE9F041 		push	{r4, r5, r6, r7, r8, lr}
 489              		.cfi_def_cfa_offset 24
 490              		.cfi_offset 4, -24
 491              		.cfi_offset 5, -20
 492              		.cfi_offset 6, -16
 493              		.cfi_offset 7, -12
 494              		.cfi_offset 8, -8
 495              		.cfi_offset 14, -4
1155:Drivers/lvgl/src/core/lv_refr.c ****     for(lv_coord_t i = 0; i < w / 2; i++) {
 496              		.loc 1 1155 5 is_stmt 1 view .LVU169
 497              	.LBB87:
 498              		.loc 1 1155 9 view .LVU170
 499              	.LVL47:
 500              		.loc 1 1155 20 is_stmt 0 view .LVU171
ARM GAS  /var/folders/0z/tsy30v1j4xl4_7kw94k978ww0000gn/T//ccRTPM70.s 			page 33


 501 0004 0024     		movs	r4, #0
 502              		.loc 1 1155 5 view .LVU172
 503 0006 4CE0     		b	.L28
 504              	.LVL48:
 505              	.L29:
 506              	.LBB88:
 507              	.LBB89:
1156:Drivers/lvgl/src/core/lv_refr.c ****         for(lv_coord_t j = 0; j < (w + 1) / 2; j++) {
1157:Drivers/lvgl/src/core/lv_refr.c ****             lv_coord_t inv_i = (w - 1) - i;
1158:Drivers/lvgl/src/core/lv_refr.c ****             lv_coord_t inv_j = (w - 1) - j;
1159:Drivers/lvgl/src/core/lv_refr.c ****             if(is_270) {
1160:Drivers/lvgl/src/core/lv_refr.c ****                 draw_buf_rotate4(
1161:Drivers/lvgl/src/core/lv_refr.c ****                     &color_p[i * w + j],
1162:Drivers/lvgl/src/core/lv_refr.c ****                     &color_p[inv_j * w + i],
1163:Drivers/lvgl/src/core/lv_refr.c ****                     &color_p[inv_i * w + inv_j],
1164:Drivers/lvgl/src/core/lv_refr.c ****                     &color_p[j * w + inv_i]
1165:Drivers/lvgl/src/core/lv_refr.c ****                 );
1166:Drivers/lvgl/src/core/lv_refr.c ****             }
1167:Drivers/lvgl/src/core/lv_refr.c ****             else {
1168:Drivers/lvgl/src/core/lv_refr.c ****                 draw_buf_rotate4(
 508              		.loc 1 1168 17 is_stmt 1 view .LVU173
1169:Drivers/lvgl/src/core/lv_refr.c ****                     &color_p[i * w + j],
 509              		.loc 1 1169 36 is_stmt 0 view .LVU174
 510 0008 01FB0456 		mla	r6, r1, r4, r5
1170:Drivers/lvgl/src/core/lv_refr.c ****                     &color_p[j * w + inv_i],
 511              		.loc 1 1170 36 view .LVU175
 512 000c 01FB05C5 		mla	r5, r1, r5, ip
1171:Drivers/lvgl/src/core/lv_refr.c ****                     &color_p[inv_i * w + inv_j],
 513              		.loc 1 1171 40 view .LVU176
 514 0010 01FB0C3C 		mla	ip, r1, ip, r3
 515              	.LVL49:
1172:Drivers/lvgl/src/core/lv_refr.c ****                     &color_p[inv_j * w + i]
 516              		.loc 1 1172 40 view .LVU177
 517 0014 01FB0343 		mla	r3, r1, r3, r4
 518              	.LVL50:
 519              	.LBB90:
 520              	.LBI90:
1139:Drivers/lvgl/src/core/lv_refr.c **** {
 521              		.loc 1 1139 20 is_stmt 1 view .LVU178
 522              	.LBB91:
1141:Drivers/lvgl/src/core/lv_refr.c ****     tmp = *a;
 523              		.loc 1 1141 5 view .LVU179
1142:Drivers/lvgl/src/core/lv_refr.c ****     *a = *b;
 524              		.loc 1 1142 5 view .LVU180
1142:Drivers/lvgl/src/core/lv_refr.c ****     *a = *b;
 525              		.loc 1 1142 9 is_stmt 0 view .LVU181
 526 0018 32F81670 		ldrh	r7, [r2, r6, lsl #1]
 527              	.LVL51:
1143:Drivers/lvgl/src/core/lv_refr.c ****     *b = *c;
 528              		.loc 1 1143 5 is_stmt 1 view .LVU182
1143:Drivers/lvgl/src/core/lv_refr.c ****     *b = *c;
 529              		.loc 1 1143 8 is_stmt 0 view .LVU183
 530 001c 32F81580 		ldrh	r8, [r2, r5, lsl #1]
 531 0020 22F81680 		strh	r8, [r2, r6, lsl #1]	@ movhi
1144:Drivers/lvgl/src/core/lv_refr.c ****     *c = *d;
 532              		.loc 1 1144 5 is_stmt 1 view .LVU184
1144:Drivers/lvgl/src/core/lv_refr.c ****     *c = *d;
ARM GAS  /var/folders/0z/tsy30v1j4xl4_7kw94k978ww0000gn/T//ccRTPM70.s 			page 34


 533              		.loc 1 1144 8 is_stmt 0 view .LVU185
 534 0024 32F81C60 		ldrh	r6, [r2, ip, lsl #1]
 535              	.LVL52:
1144:Drivers/lvgl/src/core/lv_refr.c ****     *c = *d;
 536              		.loc 1 1144 8 view .LVU186
 537 0028 22F81560 		strh	r6, [r2, r5, lsl #1]	@ movhi
1145:Drivers/lvgl/src/core/lv_refr.c ****     *d = tmp;
 538              		.loc 1 1145 5 is_stmt 1 view .LVU187
1145:Drivers/lvgl/src/core/lv_refr.c ****     *d = tmp;
 539              		.loc 1 1145 8 is_stmt 0 view .LVU188
 540 002c 32F81350 		ldrh	r5, [r2, r3, lsl #1]
 541              	.LVL53:
1145:Drivers/lvgl/src/core/lv_refr.c ****     *d = tmp;
 542              		.loc 1 1145 8 view .LVU189
 543 0030 22F81C50 		strh	r5, [r2, ip, lsl #1]	@ movhi
1146:Drivers/lvgl/src/core/lv_refr.c **** }
 544              		.loc 1 1146 5 is_stmt 1 view .LVU190
 545              	.LVL54:
1146:Drivers/lvgl/src/core/lv_refr.c **** }
 546              		.loc 1 1146 8 is_stmt 0 view .LVU191
 547 0034 22F81370 		strh	r7, [r2, r3, lsl #1]	@ movhi
 548              	.LVL55:
 549              	.L30:
1146:Drivers/lvgl/src/core/lv_refr.c **** }
 550              		.loc 1 1146 8 view .LVU192
 551              	.LBE91:
 552              	.LBE90:
 553              	.LBE89:
1156:Drivers/lvgl/src/core/lv_refr.c ****             lv_coord_t inv_i = (w - 1) - i;
 554              		.loc 1 1156 49 is_stmt 1 discriminator 2 view .LVU193
 555 0038 0EF1010E 		add	lr, lr, #1
 556              	.LVL56:
1156:Drivers/lvgl/src/core/lv_refr.c ****             lv_coord_t inv_i = (w - 1) - i;
 557              		.loc 1 1156 49 is_stmt 0 discriminator 2 view .LVU194
 558 003c 0FFA8EFE 		sxth	lr, lr
 559              	.LVL57:
 560              	.L32:
1156:Drivers/lvgl/src/core/lv_refr.c ****             lv_coord_t inv_i = (w - 1) - i;
 561              		.loc 1 1156 33 is_stmt 1 discriminator 1 view .LVU195
 562 0040 7546     		mov	r5, lr
 563              	.LVL58:
1156:Drivers/lvgl/src/core/lv_refr.c ****             lv_coord_t inv_i = (w - 1) - i;
 564              		.loc 1 1156 38 is_stmt 0 discriminator 1 view .LVU196
 565 0042 4B1C     		adds	r3, r1, #1
1156:Drivers/lvgl/src/core/lv_refr.c ****             lv_coord_t inv_i = (w - 1) - i;
 566              		.loc 1 1156 43 discriminator 1 view .LVU197
 567 0044 03EBD373 		add	r3, r3, r3, lsr #31
1156:Drivers/lvgl/src/core/lv_refr.c ****             lv_coord_t inv_i = (w - 1) - i;
 568              		.loc 1 1156 33 discriminator 1 view .LVU198
 569 0048 BEEB630F 		cmp	lr, r3, asr #1
 570 004c 27DA     		bge	.L35
 571              	.LBB94:
1157:Drivers/lvgl/src/core/lv_refr.c ****             lv_coord_t inv_j = (w - 1) - j;
 572              		.loc 1 1157 13 is_stmt 1 view .LVU199
1157:Drivers/lvgl/src/core/lv_refr.c ****             lv_coord_t inv_j = (w - 1) - j;
 573              		.loc 1 1157 40 is_stmt 0 view .LVU200
 574 004e 8BB2     		uxth	r3, r1
ARM GAS  /var/folders/0z/tsy30v1j4xl4_7kw94k978ww0000gn/T//ccRTPM70.s 			page 35


 575 0050 A3EB040C 		sub	ip, r3, r4
 576 0054 0CF1FF3C 		add	ip, ip, #-1
1157:Drivers/lvgl/src/core/lv_refr.c ****             lv_coord_t inv_j = (w - 1) - j;
 577              		.loc 1 1157 24 view .LVU201
 578 0058 0FFA8CFC 		sxth	ip, ip
 579              	.LVL59:
1158:Drivers/lvgl/src/core/lv_refr.c ****             if(is_270) {
 580              		.loc 1 1158 13 is_stmt 1 view .LVU202
1158:Drivers/lvgl/src/core/lv_refr.c ****             if(is_270) {
 581              		.loc 1 1158 40 is_stmt 0 view .LVU203
 582 005c 1FFA8EFE 		uxth	lr, lr
1158:Drivers/lvgl/src/core/lv_refr.c ****             if(is_270) {
 583              		.loc 1 1158 40 view .LVU204
 584 0060 A3EB0E03 		sub	r3, r3, lr
 585 0064 013B     		subs	r3, r3, #1
1158:Drivers/lvgl/src/core/lv_refr.c ****             if(is_270) {
 586              		.loc 1 1158 24 view .LVU205
 587 0066 1BB2     		sxth	r3, r3
 588              	.LVL60:
1159:Drivers/lvgl/src/core/lv_refr.c ****                 draw_buf_rotate4(
 589              		.loc 1 1159 13 is_stmt 1 view .LVU206
1159:Drivers/lvgl/src/core/lv_refr.c ****                 draw_buf_rotate4(
 590              		.loc 1 1159 15 is_stmt 0 view .LVU207
 591 0068 0028     		cmp	r0, #0
 592 006a CDD0     		beq	.L29
1160:Drivers/lvgl/src/core/lv_refr.c ****                     &color_p[i * w + j],
 593              		.loc 1 1160 17 is_stmt 1 view .LVU208
1161:Drivers/lvgl/src/core/lv_refr.c ****                     &color_p[inv_j * w + i],
 594              		.loc 1 1161 36 is_stmt 0 view .LVU209
 595 006c 01FB0457 		mla	r7, r1, r4, r5
 596              	.LVL61:
1162:Drivers/lvgl/src/core/lv_refr.c ****                     &color_p[inv_i * w + inv_j],
 597              		.loc 1 1162 40 view .LVU210
 598 0070 01FB0346 		mla	r6, r1, r3, r4
1163:Drivers/lvgl/src/core/lv_refr.c ****                     &color_p[j * w + inv_i]
 599              		.loc 1 1163 40 view .LVU211
 600 0074 01FB0C33 		mla	r3, r1, ip, r3
 601              	.LVL62:
1164:Drivers/lvgl/src/core/lv_refr.c ****                 );
 602              		.loc 1 1164 36 view .LVU212
 603 0078 01FB05CC 		mla	ip, r1, r5, ip
 604              	.LVL63:
 605              	.LBB92:
 606              	.LBI92:
1139:Drivers/lvgl/src/core/lv_refr.c **** {
 607              		.loc 1 1139 20 is_stmt 1 view .LVU213
 608              	.LBB93:
1141:Drivers/lvgl/src/core/lv_refr.c ****     tmp = *a;
 609              		.loc 1 1141 5 view .LVU214
1142:Drivers/lvgl/src/core/lv_refr.c ****     *a = *b;
 610              		.loc 1 1142 5 view .LVU215
1142:Drivers/lvgl/src/core/lv_refr.c ****     *a = *b;
 611              		.loc 1 1142 9 is_stmt 0 view .LVU216
 612 007c 32F81750 		ldrh	r5, [r2, r7, lsl #1]
1143:Drivers/lvgl/src/core/lv_refr.c ****     *b = *c;
 613              		.loc 1 1143 5 is_stmt 1 view .LVU217
1143:Drivers/lvgl/src/core/lv_refr.c ****     *b = *c;
ARM GAS  /var/folders/0z/tsy30v1j4xl4_7kw94k978ww0000gn/T//ccRTPM70.s 			page 36


 614              		.loc 1 1143 8 is_stmt 0 view .LVU218
 615 0080 32F81680 		ldrh	r8, [r2, r6, lsl #1]
 616 0084 22F81780 		strh	r8, [r2, r7, lsl #1]	@ movhi
1144:Drivers/lvgl/src/core/lv_refr.c ****     *c = *d;
 617              		.loc 1 1144 5 is_stmt 1 view .LVU219
1144:Drivers/lvgl/src/core/lv_refr.c ****     *c = *d;
 618              		.loc 1 1144 8 is_stmt 0 view .LVU220
 619 0088 32F81370 		ldrh	r7, [r2, r3, lsl #1]
 620              	.LVL64:
1144:Drivers/lvgl/src/core/lv_refr.c ****     *c = *d;
 621              		.loc 1 1144 8 view .LVU221
 622 008c 22F81670 		strh	r7, [r2, r6, lsl #1]	@ movhi
1145:Drivers/lvgl/src/core/lv_refr.c ****     *d = tmp;
 623              		.loc 1 1145 5 is_stmt 1 view .LVU222
1145:Drivers/lvgl/src/core/lv_refr.c ****     *d = tmp;
 624              		.loc 1 1145 8 is_stmt 0 view .LVU223
 625 0090 32F81C60 		ldrh	r6, [r2, ip, lsl #1]
 626              	.LVL65:
1145:Drivers/lvgl/src/core/lv_refr.c ****     *d = tmp;
 627              		.loc 1 1145 8 view .LVU224
 628 0094 22F81360 		strh	r6, [r2, r3, lsl #1]	@ movhi
1146:Drivers/lvgl/src/core/lv_refr.c **** }
 629              		.loc 1 1146 5 is_stmt 1 view .LVU225
 630              	.LVL66:
1146:Drivers/lvgl/src/core/lv_refr.c **** }
 631              		.loc 1 1146 8 is_stmt 0 view .LVU226
 632 0098 22F81C50 		strh	r5, [r2, ip, lsl #1]	@ movhi
1147:Drivers/lvgl/src/core/lv_refr.c **** 
 633              		.loc 1 1147 1 view .LVU227
 634 009c CCE7     		b	.L30
 635              	.LVL67:
 636              	.L35:
1147:Drivers/lvgl/src/core/lv_refr.c **** 
 637              		.loc 1 1147 1 view .LVU228
 638              	.LBE93:
 639              	.LBE92:
 640              	.LBE94:
 641              	.LBE88:
1155:Drivers/lvgl/src/core/lv_refr.c ****         for(lv_coord_t j = 0; j < (w + 1) / 2; j++) {
 642              		.loc 1 1155 39 is_stmt 1 discriminator 2 view .LVU229
 643 009e 0134     		adds	r4, r4, #1
 644              	.LVL68:
1155:Drivers/lvgl/src/core/lv_refr.c ****         for(lv_coord_t j = 0; j < (w + 1) / 2; j++) {
 645              		.loc 1 1155 39 is_stmt 0 discriminator 2 view .LVU230
 646 00a0 24B2     		sxth	r4, r4
 647              	.LVL69:
 648              	.L28:
1155:Drivers/lvgl/src/core/lv_refr.c ****         for(lv_coord_t j = 0; j < (w + 1) / 2; j++) {
 649              		.loc 1 1155 29 is_stmt 1 discriminator 1 view .LVU231
 650 00a2 01EBD173 		add	r3, r1, r1, lsr #31
 651 00a6 B4EB630F 		cmp	r4, r3, asr #1
 652 00aa 02DA     		bge	.L36
 653              	.LBB95:
1156:Drivers/lvgl/src/core/lv_refr.c ****             lv_coord_t inv_i = (w - 1) - i;
 654              		.loc 1 1156 24 is_stmt 0 view .LVU232
 655 00ac 4FF0000E 		mov	lr, #0
 656 00b0 C6E7     		b	.L32
ARM GAS  /var/folders/0z/tsy30v1j4xl4_7kw94k978ww0000gn/T//ccRTPM70.s 			page 37


 657              	.L36:
 658              	.LBE95:
 659              	.LBE87:
1173:Drivers/lvgl/src/core/lv_refr.c ****                 );
1174:Drivers/lvgl/src/core/lv_refr.c ****             }
1175:Drivers/lvgl/src/core/lv_refr.c **** 
1176:Drivers/lvgl/src/core/lv_refr.c ****         }
1177:Drivers/lvgl/src/core/lv_refr.c ****     }
1178:Drivers/lvgl/src/core/lv_refr.c **** }
 660              		.loc 1 1178 1 view .LVU233
 661 00b2 BDE8F081 		pop	{r4, r5, r6, r7, r8, pc}
 662              		.loc 1 1178 1 view .LVU234
 663              		.cfi_endproc
 664              	.LFE190:
 666              		.section	.text.call_flush_cb,"ax",%progbits
 667              		.align	1
 668              		.syntax unified
 669              		.thumb
 670              		.thumb_func
 672              	call_flush_cb:
 673              	.LVL70:
 674              	.LFB193:
1179:Drivers/lvgl/src/core/lv_refr.c **** 
1180:Drivers/lvgl/src/core/lv_refr.c **** /**
1181:Drivers/lvgl/src/core/lv_refr.c ****  * Rotate the draw_buf to the display's native orientation.
1182:Drivers/lvgl/src/core/lv_refr.c ****  */
1183:Drivers/lvgl/src/core/lv_refr.c **** static void draw_buf_rotate(lv_area_t * area, lv_color_t * color_p)
1184:Drivers/lvgl/src/core/lv_refr.c **** {
1185:Drivers/lvgl/src/core/lv_refr.c ****     lv_disp_drv_t * drv = disp_refr->driver;
1186:Drivers/lvgl/src/core/lv_refr.c ****     if(disp_refr->driver->full_refresh && drv->sw_rotate) {
1187:Drivers/lvgl/src/core/lv_refr.c ****         LV_LOG_ERROR("cannot rotate a full refreshed display!");
1188:Drivers/lvgl/src/core/lv_refr.c ****         return;
1189:Drivers/lvgl/src/core/lv_refr.c ****     }
1190:Drivers/lvgl/src/core/lv_refr.c ****     if(drv->rotated == LV_DISP_ROT_180) {
1191:Drivers/lvgl/src/core/lv_refr.c ****         draw_buf_rotate_180(drv, area, color_p);
1192:Drivers/lvgl/src/core/lv_refr.c ****         call_flush_cb(drv, area, color_p);
1193:Drivers/lvgl/src/core/lv_refr.c ****     }
1194:Drivers/lvgl/src/core/lv_refr.c ****     else if(drv->rotated == LV_DISP_ROT_90 || drv->rotated == LV_DISP_ROT_270) {
1195:Drivers/lvgl/src/core/lv_refr.c ****         /*Allocate a temporary buffer to store rotated image*/
1196:Drivers/lvgl/src/core/lv_refr.c ****         lv_color_t * rot_buf = NULL;
1197:Drivers/lvgl/src/core/lv_refr.c ****         lv_disp_draw_buf_t * draw_buf = lv_disp_get_draw_buf(disp_refr);
1198:Drivers/lvgl/src/core/lv_refr.c ****         lv_coord_t area_w = lv_area_get_width(area);
1199:Drivers/lvgl/src/core/lv_refr.c ****         lv_coord_t area_h = lv_area_get_height(area);
1200:Drivers/lvgl/src/core/lv_refr.c ****         /*Determine the maximum number of rows that can be rotated at a time*/
1201:Drivers/lvgl/src/core/lv_refr.c ****         lv_coord_t max_row = LV_MIN((lv_coord_t)((LV_DISP_ROT_MAX_BUF / sizeof(lv_color_t)) / area_
1202:Drivers/lvgl/src/core/lv_refr.c ****         lv_coord_t init_y_off;
1203:Drivers/lvgl/src/core/lv_refr.c ****         init_y_off = area->y1;
1204:Drivers/lvgl/src/core/lv_refr.c ****         if(drv->rotated == LV_DISP_ROT_90) {
1205:Drivers/lvgl/src/core/lv_refr.c ****             area->y2 = drv->ver_res - area->x1 - 1;
1206:Drivers/lvgl/src/core/lv_refr.c ****             area->y1 = area->y2 - area_w + 1;
1207:Drivers/lvgl/src/core/lv_refr.c ****         }
1208:Drivers/lvgl/src/core/lv_refr.c ****         else {
1209:Drivers/lvgl/src/core/lv_refr.c ****             area->y1 = area->x1;
1210:Drivers/lvgl/src/core/lv_refr.c ****             area->y2 = area->y1 + area_w - 1;
1211:Drivers/lvgl/src/core/lv_refr.c ****         }
1212:Drivers/lvgl/src/core/lv_refr.c **** 
1213:Drivers/lvgl/src/core/lv_refr.c ****         /*Rotate the screen in chunks, flushing after each one*/
ARM GAS  /var/folders/0z/tsy30v1j4xl4_7kw94k978ww0000gn/T//ccRTPM70.s 			page 38


1214:Drivers/lvgl/src/core/lv_refr.c ****         lv_coord_t row = 0;
1215:Drivers/lvgl/src/core/lv_refr.c ****         while(row < area_h) {
1216:Drivers/lvgl/src/core/lv_refr.c ****             lv_coord_t height = LV_MIN(max_row, area_h - row);
1217:Drivers/lvgl/src/core/lv_refr.c ****             draw_buf->flushing = 1;
1218:Drivers/lvgl/src/core/lv_refr.c ****             if((row == 0) && (area_h >= area_w)) {
1219:Drivers/lvgl/src/core/lv_refr.c ****                 /*Rotate the initial area as a square*/
1220:Drivers/lvgl/src/core/lv_refr.c ****                 height = area_w;
1221:Drivers/lvgl/src/core/lv_refr.c ****                 draw_buf_rotate_90_sqr(drv->rotated == LV_DISP_ROT_270, area_w, color_p);
1222:Drivers/lvgl/src/core/lv_refr.c ****                 if(drv->rotated == LV_DISP_ROT_90) {
1223:Drivers/lvgl/src/core/lv_refr.c ****                     area->x1 = init_y_off;
1224:Drivers/lvgl/src/core/lv_refr.c ****                     area->x2 = init_y_off + area_w - 1;
1225:Drivers/lvgl/src/core/lv_refr.c ****                 }
1226:Drivers/lvgl/src/core/lv_refr.c ****                 else {
1227:Drivers/lvgl/src/core/lv_refr.c ****                     area->x2 = drv->hor_res - 1 - init_y_off;
1228:Drivers/lvgl/src/core/lv_refr.c ****                     area->x1 = area->x2 - area_w + 1;
1229:Drivers/lvgl/src/core/lv_refr.c ****                 }
1230:Drivers/lvgl/src/core/lv_refr.c ****             }
1231:Drivers/lvgl/src/core/lv_refr.c ****             else {
1232:Drivers/lvgl/src/core/lv_refr.c ****                 /*Rotate other areas using a maximum buffer size*/
1233:Drivers/lvgl/src/core/lv_refr.c ****                 if(rot_buf == NULL) rot_buf = lv_mem_buf_get(LV_DISP_ROT_MAX_BUF);
1234:Drivers/lvgl/src/core/lv_refr.c ****                 draw_buf_rotate_90(drv->rotated == LV_DISP_ROT_270, area_w, height, color_p, rot_bu
1235:Drivers/lvgl/src/core/lv_refr.c **** 
1236:Drivers/lvgl/src/core/lv_refr.c ****                 if(drv->rotated == LV_DISP_ROT_90) {
1237:Drivers/lvgl/src/core/lv_refr.c ****                     area->x1 = init_y_off + row;
1238:Drivers/lvgl/src/core/lv_refr.c ****                     area->x2 = init_y_off + row + height - 1;
1239:Drivers/lvgl/src/core/lv_refr.c ****                 }
1240:Drivers/lvgl/src/core/lv_refr.c ****                 else {
1241:Drivers/lvgl/src/core/lv_refr.c ****                     area->x2 = drv->hor_res - 1 - init_y_off - row;
1242:Drivers/lvgl/src/core/lv_refr.c ****                     area->x1 = area->x2 - height + 1;
1243:Drivers/lvgl/src/core/lv_refr.c ****                 }
1244:Drivers/lvgl/src/core/lv_refr.c ****             }
1245:Drivers/lvgl/src/core/lv_refr.c **** 
1246:Drivers/lvgl/src/core/lv_refr.c ****             /* The original part (chunk of the current area) were split into more parts here.
1247:Drivers/lvgl/src/core/lv_refr.c ****              * Set the original last_part flag on the last part of rotation. */
1248:Drivers/lvgl/src/core/lv_refr.c ****             if(row + height >= area_h && draw_buf->last_area && draw_buf->last_part) {
1249:Drivers/lvgl/src/core/lv_refr.c ****                 draw_buf->flushing_last = 1;
1250:Drivers/lvgl/src/core/lv_refr.c ****             }
1251:Drivers/lvgl/src/core/lv_refr.c ****             else {
1252:Drivers/lvgl/src/core/lv_refr.c ****                 draw_buf->flushing_last = 0;
1253:Drivers/lvgl/src/core/lv_refr.c ****             }
1254:Drivers/lvgl/src/core/lv_refr.c **** 
1255:Drivers/lvgl/src/core/lv_refr.c ****             /*Flush the completed area to the display*/
1256:Drivers/lvgl/src/core/lv_refr.c ****             call_flush_cb(drv, area, rot_buf == NULL ? color_p : rot_buf);
1257:Drivers/lvgl/src/core/lv_refr.c ****             /*FIXME: Rotation forces legacy behavior where rendering and flushing are done serially
1258:Drivers/lvgl/src/core/lv_refr.c ****             while(draw_buf->flushing) {
1259:Drivers/lvgl/src/core/lv_refr.c ****                 if(drv->wait_cb) drv->wait_cb(drv);
1260:Drivers/lvgl/src/core/lv_refr.c ****             }
1261:Drivers/lvgl/src/core/lv_refr.c ****             color_p += area_w * height;
1262:Drivers/lvgl/src/core/lv_refr.c ****             row += height;
1263:Drivers/lvgl/src/core/lv_refr.c ****         }
1264:Drivers/lvgl/src/core/lv_refr.c ****         /*Free the allocated buffer at the end if necessary*/
1265:Drivers/lvgl/src/core/lv_refr.c ****         if(rot_buf != NULL) lv_mem_buf_release(rot_buf);
1266:Drivers/lvgl/src/core/lv_refr.c ****     }
1267:Drivers/lvgl/src/core/lv_refr.c **** }
1268:Drivers/lvgl/src/core/lv_refr.c **** 
1269:Drivers/lvgl/src/core/lv_refr.c **** /**
1270:Drivers/lvgl/src/core/lv_refr.c ****  * Flush the content of the draw buffer
ARM GAS  /var/folders/0z/tsy30v1j4xl4_7kw94k978ww0000gn/T//ccRTPM70.s 			page 39


1271:Drivers/lvgl/src/core/lv_refr.c ****  */
1272:Drivers/lvgl/src/core/lv_refr.c **** static void draw_buf_flush(lv_disp_t * disp)
1273:Drivers/lvgl/src/core/lv_refr.c **** {
1274:Drivers/lvgl/src/core/lv_refr.c ****     lv_disp_draw_buf_t * draw_buf = lv_disp_get_draw_buf(disp_refr);
1275:Drivers/lvgl/src/core/lv_refr.c **** 
1276:Drivers/lvgl/src/core/lv_refr.c ****     /*Flush the rendered content to the display*/
1277:Drivers/lvgl/src/core/lv_refr.c ****     lv_draw_ctx_t * draw_ctx = disp->driver->draw_ctx;
1278:Drivers/lvgl/src/core/lv_refr.c ****     if(draw_ctx->wait_for_finish) draw_ctx->wait_for_finish(draw_ctx);
1279:Drivers/lvgl/src/core/lv_refr.c **** 
1280:Drivers/lvgl/src/core/lv_refr.c ****     /* In partial double buffered mode wait until the other buffer is freed
1281:Drivers/lvgl/src/core/lv_refr.c ****      * and driver is ready to receive the new buffer */
1282:Drivers/lvgl/src/core/lv_refr.c ****     bool full_sized = draw_buf->size == (uint32_t)disp_refr->driver->hor_res * disp_refr->driver->v
1283:Drivers/lvgl/src/core/lv_refr.c ****     if(draw_buf->buf1 && draw_buf->buf2 && !full_sized) {
1284:Drivers/lvgl/src/core/lv_refr.c ****         while(draw_buf->flushing) {
1285:Drivers/lvgl/src/core/lv_refr.c ****             if(disp_refr->driver->wait_cb) disp_refr->driver->wait_cb(disp_refr->driver);
1286:Drivers/lvgl/src/core/lv_refr.c ****         }
1287:Drivers/lvgl/src/core/lv_refr.c ****     }
1288:Drivers/lvgl/src/core/lv_refr.c **** 
1289:Drivers/lvgl/src/core/lv_refr.c ****     draw_buf->flushing = 1;
1290:Drivers/lvgl/src/core/lv_refr.c **** 
1291:Drivers/lvgl/src/core/lv_refr.c ****     if(disp_refr->driver->draw_buf->last_area && disp_refr->driver->draw_buf->last_part) draw_buf->
1292:Drivers/lvgl/src/core/lv_refr.c ****     else draw_buf->flushing_last = 0;
1293:Drivers/lvgl/src/core/lv_refr.c **** 
1294:Drivers/lvgl/src/core/lv_refr.c ****     bool flushing_last = draw_buf->flushing_last;
1295:Drivers/lvgl/src/core/lv_refr.c **** 
1296:Drivers/lvgl/src/core/lv_refr.c ****     if(disp->driver->flush_cb) {
1297:Drivers/lvgl/src/core/lv_refr.c ****         /*Rotate the buffer to the display's native orientation if necessary*/
1298:Drivers/lvgl/src/core/lv_refr.c ****         if(disp->driver->rotated != LV_DISP_ROT_NONE && disp->driver->sw_rotate) {
1299:Drivers/lvgl/src/core/lv_refr.c ****             draw_buf_rotate(draw_ctx->buf_area, draw_ctx->buf);
1300:Drivers/lvgl/src/core/lv_refr.c ****         }
1301:Drivers/lvgl/src/core/lv_refr.c ****         else {
1302:Drivers/lvgl/src/core/lv_refr.c ****             call_flush_cb(disp->driver, draw_ctx->buf_area, draw_ctx->buf);
1303:Drivers/lvgl/src/core/lv_refr.c ****         }
1304:Drivers/lvgl/src/core/lv_refr.c ****     }
1305:Drivers/lvgl/src/core/lv_refr.c **** 
1306:Drivers/lvgl/src/core/lv_refr.c ****     /*If there are 2 buffers swap them. With direct mode swap only on the last area*/
1307:Drivers/lvgl/src/core/lv_refr.c ****     if(draw_buf->buf1 && draw_buf->buf2 && (!disp->driver->direct_mode || flushing_last)) {
1308:Drivers/lvgl/src/core/lv_refr.c ****         if(draw_buf->buf_act == draw_buf->buf1)
1309:Drivers/lvgl/src/core/lv_refr.c ****             draw_buf->buf_act = draw_buf->buf2;
1310:Drivers/lvgl/src/core/lv_refr.c ****         else
1311:Drivers/lvgl/src/core/lv_refr.c ****             draw_buf->buf_act = draw_buf->buf1;
1312:Drivers/lvgl/src/core/lv_refr.c ****     }
1313:Drivers/lvgl/src/core/lv_refr.c **** }
1314:Drivers/lvgl/src/core/lv_refr.c **** 
1315:Drivers/lvgl/src/core/lv_refr.c **** static void call_flush_cb(lv_disp_drv_t * drv, const lv_area_t * area, lv_color_t * color_p)
1316:Drivers/lvgl/src/core/lv_refr.c **** {
 675              		.loc 1 1316 1 is_stmt 1 view -0
 676              		.cfi_startproc
 677              		@ args = 0, pretend = 0, frame = 8
 678              		@ frame_needed = 0, uses_anonymous_args = 0
 679              		.loc 1 1316 1 is_stmt 0 view .LVU236
 680 0000 10B5     		push	{r4, lr}
 681              		.cfi_def_cfa_offset 8
 682              		.cfi_offset 4, -8
 683              		.cfi_offset 14, -4
 684 0002 82B0     		sub	sp, sp, #8
 685              		.cfi_def_cfa_offset 16
ARM GAS  /var/folders/0z/tsy30v1j4xl4_7kw94k978ww0000gn/T//ccRTPM70.s 			page 40


1317:Drivers/lvgl/src/core/lv_refr.c ****     REFR_TRACE("Calling flush_cb on (%d;%d)(%d;%d) area with %p image pointer", area->x1, area->y1,
1318:Drivers/lvgl/src/core/lv_refr.c ****                (void *)color_p);
 686              		.loc 1 1318 32 is_stmt 1 view .LVU237
1319:Drivers/lvgl/src/core/lv_refr.c **** 
1320:Drivers/lvgl/src/core/lv_refr.c ****     lv_area_t offset_area = {
 687              		.loc 1 1320 5 view .LVU238
1321:Drivers/lvgl/src/core/lv_refr.c ****         .x1 = area->x1 + drv->offset_x,
 688              		.loc 1 1321 19 is_stmt 0 view .LVU239
 689 0004 0C88     		ldrh	r4, [r1]
 690              		.loc 1 1321 29 view .LVU240
 691 0006 B0F808E0 		ldrh	lr, [r0, #8]
 692              		.loc 1 1321 24 view .LVU241
 693 000a 7444     		add	r4, r4, lr
1320:Drivers/lvgl/src/core/lv_refr.c ****         .x1 = area->x1 + drv->offset_x,
 694              		.loc 1 1320 15 view .LVU242
 695 000c ADF80040 		strh	r4, [sp]	@ movhi
1322:Drivers/lvgl/src/core/lv_refr.c ****         .y1 = area->y1 + drv->offset_y,
 696              		.loc 1 1322 19 view .LVU243
 697 0010 4C88     		ldrh	r4, [r1, #2]
 698              		.loc 1 1322 29 view .LVU244
 699 0012 B0F80AC0 		ldrh	ip, [r0, #10]
 700              		.loc 1 1322 24 view .LVU245
 701 0016 6444     		add	r4, r4, ip
1320:Drivers/lvgl/src/core/lv_refr.c ****         .x1 = area->x1 + drv->offset_x,
 702              		.loc 1 1320 15 view .LVU246
 703 0018 ADF80240 		strh	r4, [sp, #2]	@ movhi
1323:Drivers/lvgl/src/core/lv_refr.c ****         .x2 = area->x2 + drv->offset_x,
 704              		.loc 1 1323 19 view .LVU247
 705 001c 8C88     		ldrh	r4, [r1, #4]
 706              		.loc 1 1323 24 view .LVU248
 707 001e A644     		add	lr, lr, r4
1320:Drivers/lvgl/src/core/lv_refr.c ****         .x1 = area->x1 + drv->offset_x,
 708              		.loc 1 1320 15 view .LVU249
 709 0020 ADF804E0 		strh	lr, [sp, #4]	@ movhi
1324:Drivers/lvgl/src/core/lv_refr.c ****         .y2 = area->y2 + drv->offset_y
 710              		.loc 1 1324 19 view .LVU250
 711 0024 C988     		ldrh	r1, [r1, #6]
 712              	.LVL71:
 713              		.loc 1 1324 24 view .LVU251
 714 0026 8C44     		add	ip, ip, r1
1320:Drivers/lvgl/src/core/lv_refr.c ****         .x1 = area->x1 + drv->offset_x,
 715              		.loc 1 1320 15 view .LVU252
 716 0028 ADF806C0 		strh	ip, [sp, #6]	@ movhi
1325:Drivers/lvgl/src/core/lv_refr.c ****     };
1326:Drivers/lvgl/src/core/lv_refr.c **** 
1327:Drivers/lvgl/src/core/lv_refr.c ****     drv->flush_cb(drv, &offset_area, color_p);
 717              		.loc 1 1327 5 is_stmt 1 view .LVU253
 718              		.loc 1 1327 8 is_stmt 0 view .LVU254
 719 002c 4369     		ldr	r3, [r0, #20]
 720              		.loc 1 1327 5 view .LVU255
 721 002e 6946     		mov	r1, sp
 722 0030 9847     		blx	r3
 723              	.LVL72:
1328:Drivers/lvgl/src/core/lv_refr.c **** }
 724              		.loc 1 1328 1 view .LVU256
 725 0032 02B0     		add	sp, sp, #8
 726              		.cfi_def_cfa_offset 8
ARM GAS  /var/folders/0z/tsy30v1j4xl4_7kw94k978ww0000gn/T//ccRTPM70.s 			page 41


 727              		@ sp needed
 728 0034 10BD     		pop	{r4, pc}
 729              		.cfi_endproc
 730              	.LFE193:
 732              		.section	.text.perf_monitor_init,"ax",%progbits
 733              		.align	1
 734              		.syntax unified
 735              		.thumb
 736              		.thumb_func
 738              	perf_monitor_init:
 739              	.LVL73:
 740              	.LFB194:
1329:Drivers/lvgl/src/core/lv_refr.c **** 
1330:Drivers/lvgl/src/core/lv_refr.c **** #if LV_USE_PERF_MONITOR
1331:Drivers/lvgl/src/core/lv_refr.c **** static void perf_monitor_init(perf_monitor_t * _perf_monitor)
1332:Drivers/lvgl/src/core/lv_refr.c **** {
 741              		.loc 1 1332 1 is_stmt 1 view -0
 742              		.cfi_startproc
 743              		@ args = 0, pretend = 0, frame = 0
 744              		@ frame_needed = 0, uses_anonymous_args = 0
 745              		@ link register save eliminated.
1333:Drivers/lvgl/src/core/lv_refr.c ****     LV_ASSERT_NULL(_perf_monitor);
 746              		.loc 1 1333 5 view .LVU258
 747              		.loc 1 1333 5 view .LVU259
 748 0000 38B1     		cbz	r0, .L41
 749              		.loc 1 1333 5 discriminator 2 view .LVU260
 750              		.loc 1 1333 34 discriminator 2 view .LVU261
1334:Drivers/lvgl/src/core/lv_refr.c ****     _perf_monitor->elaps_sum = 0;
 751              		.loc 1 1334 5 discriminator 2 view .LVU262
 752              		.loc 1 1334 30 is_stmt 0 discriminator 2 view .LVU263
 753 0002 0022     		movs	r2, #0
 754 0004 4260     		str	r2, [r0, #4]
1335:Drivers/lvgl/src/core/lv_refr.c ****     _perf_monitor->fps_sum_all = 0;
 755              		.loc 1 1335 5 is_stmt 1 discriminator 2 view .LVU264
 756              		.loc 1 1335 32 is_stmt 0 discriminator 2 view .LVU265
 757 0006 0261     		str	r2, [r0, #16]
1336:Drivers/lvgl/src/core/lv_refr.c ****     _perf_monitor->fps_sum_cnt = 0;
 758              		.loc 1 1336 5 is_stmt 1 discriminator 2 view .LVU266
 759              		.loc 1 1336 32 is_stmt 0 discriminator 2 view .LVU267
 760 0008 C260     		str	r2, [r0, #12]
1337:Drivers/lvgl/src/core/lv_refr.c ****     _perf_monitor->frame_cnt = 0;
 761              		.loc 1 1337 5 is_stmt 1 discriminator 2 view .LVU268
 762              		.loc 1 1337 30 is_stmt 0 discriminator 2 view .LVU269
 763 000a 8260     		str	r2, [r0, #8]
1338:Drivers/lvgl/src/core/lv_refr.c ****     _perf_monitor->perf_last_time = 0;
 764              		.loc 1 1338 5 is_stmt 1 discriminator 2 view .LVU270
 765              		.loc 1 1338 35 is_stmt 0 discriminator 2 view .LVU271
 766 000c 0260     		str	r2, [r0]
1339:Drivers/lvgl/src/core/lv_refr.c ****     _perf_monitor->perf_label = NULL;
 767              		.loc 1 1339 5 is_stmt 1 discriminator 2 view .LVU272
 768              		.loc 1 1339 31 is_stmt 0 discriminator 2 view .LVU273
 769 000e 4261     		str	r2, [r0, #20]
1340:Drivers/lvgl/src/core/lv_refr.c **** }
 770              		.loc 1 1340 1 discriminator 2 view .LVU274
 771 0010 7047     		bx	lr
 772              	.L41:
1333:Drivers/lvgl/src/core/lv_refr.c ****     _perf_monitor->elaps_sum = 0;
ARM GAS  /var/folders/0z/tsy30v1j4xl4_7kw94k978ww0000gn/T//ccRTPM70.s 			page 42


 773              		.loc 1 1333 5 is_stmt 1 discriminator 1 view .LVU275
1333:Drivers/lvgl/src/core/lv_refr.c ****     _perf_monitor->elaps_sum = 0;
 774              		.loc 1 1333 5 discriminator 1 view .LVU276
1333:Drivers/lvgl/src/core/lv_refr.c ****     _perf_monitor->elaps_sum = 0;
 775              		.loc 1 1333 5 discriminator 1 view .LVU277
1333:Drivers/lvgl/src/core/lv_refr.c ****     _perf_monitor->elaps_sum = 0;
 776              		.loc 1 1333 5 discriminator 1 view .LVU278
1333:Drivers/lvgl/src/core/lv_refr.c ****     _perf_monitor->elaps_sum = 0;
 777              		.loc 1 1333 5 discriminator 1 view .LVU279
 778 0012 FEE7     		b	.L41
 779              		.cfi_endproc
 780              	.LFE194:
 782              		.section	.text.mem_monitor_init,"ax",%progbits
 783              		.align	1
 784              		.syntax unified
 785              		.thumb
 786              		.thumb_func
 788              	mem_monitor_init:
 789              	.LVL74:
 790              	.LFB195:
1341:Drivers/lvgl/src/core/lv_refr.c **** #endif
1342:Drivers/lvgl/src/core/lv_refr.c **** 
1343:Drivers/lvgl/src/core/lv_refr.c **** #if LV_USE_MEM_MONITOR
1344:Drivers/lvgl/src/core/lv_refr.c **** static void mem_monitor_init(mem_monitor_t * _mem_monitor)
1345:Drivers/lvgl/src/core/lv_refr.c **** {
 791              		.loc 1 1345 1 view -0
 792              		.cfi_startproc
 793              		@ args = 0, pretend = 0, frame = 0
 794              		@ frame_needed = 0, uses_anonymous_args = 0
 795              		@ link register save eliminated.
1346:Drivers/lvgl/src/core/lv_refr.c ****     LV_ASSERT_NULL(_mem_monitor);
 796              		.loc 1 1346 5 view .LVU281
 797              		.loc 1 1346 5 view .LVU282
 798 0000 18B1     		cbz	r0, .L44
 799              		.loc 1 1346 5 discriminator 2 view .LVU283
 800              		.loc 1 1346 33 discriminator 2 view .LVU284
1347:Drivers/lvgl/src/core/lv_refr.c ****     _mem_monitor->mem_last_time = 0;
 801              		.loc 1 1347 5 discriminator 2 view .LVU285
 802              		.loc 1 1347 33 is_stmt 0 discriminator 2 view .LVU286
 803 0002 0022     		movs	r2, #0
 804 0004 0260     		str	r2, [r0]
1348:Drivers/lvgl/src/core/lv_refr.c ****     _mem_monitor->mem_label = NULL;
 805              		.loc 1 1348 5 is_stmt 1 discriminator 2 view .LVU287
 806              		.loc 1 1348 29 is_stmt 0 discriminator 2 view .LVU288
 807 0006 4260     		str	r2, [r0, #4]
1349:Drivers/lvgl/src/core/lv_refr.c **** }
 808              		.loc 1 1349 1 discriminator 2 view .LVU289
 809 0008 7047     		bx	lr
 810              	.L44:
1346:Drivers/lvgl/src/core/lv_refr.c ****     _mem_monitor->mem_last_time = 0;
 811              		.loc 1 1346 5 is_stmt 1 discriminator 1 view .LVU290
1346:Drivers/lvgl/src/core/lv_refr.c ****     _mem_monitor->mem_last_time = 0;
 812              		.loc 1 1346 5 discriminator 1 view .LVU291
1346:Drivers/lvgl/src/core/lv_refr.c ****     _mem_monitor->mem_last_time = 0;
 813              		.loc 1 1346 5 discriminator 1 view .LVU292
1346:Drivers/lvgl/src/core/lv_refr.c ****     _mem_monitor->mem_last_time = 0;
 814              		.loc 1 1346 5 discriminator 1 view .LVU293
ARM GAS  /var/folders/0z/tsy30v1j4xl4_7kw94k978ww0000gn/T//ccRTPM70.s 			page 43


1346:Drivers/lvgl/src/core/lv_refr.c ****     _mem_monitor->mem_last_time = 0;
 815              		.loc 1 1346 5 discriminator 1 view .LVU294
 816 000a FEE7     		b	.L44
 817              		.cfi_endproc
 818              	.LFE195:
 820              		.section	.text.lv_refr_get_top_obj,"ax",%progbits
 821              		.align	1
 822              		.syntax unified
 823              		.thumb
 824              		.thumb_func
 826              	lv_refr_get_top_obj:
 827              	.LVL75:
 828              	.LFB181:
 808:Drivers/lvgl/src/core/lv_refr.c ****     lv_obj_t * found_p = NULL;
 829              		.loc 1 808 1 view -0
 830              		.cfi_startproc
 831              		@ args = 0, pretend = 0, frame = 8
 832              		@ frame_needed = 0, uses_anonymous_args = 0
 808:Drivers/lvgl/src/core/lv_refr.c ****     lv_obj_t * found_p = NULL;
 833              		.loc 1 808 1 is_stmt 0 view .LVU296
 834 0000 70B5     		push	{r4, r5, r6, lr}
 835              		.cfi_def_cfa_offset 16
 836              		.cfi_offset 4, -16
 837              		.cfi_offset 5, -12
 838              		.cfi_offset 6, -8
 839              		.cfi_offset 14, -4
 840 0002 82B0     		sub	sp, sp, #8
 841              		.cfi_def_cfa_offset 24
 842 0004 0646     		mov	r6, r0
 843 0006 0C46     		mov	r4, r1
 809:Drivers/lvgl/src/core/lv_refr.c **** 
 844              		.loc 1 809 5 is_stmt 1 view .LVU297
 845              	.LVL76:
 811:Drivers/lvgl/src/core/lv_refr.c ****     if(lv_obj_has_flag(obj, LV_OBJ_FLAG_HIDDEN)) return NULL;
 846              		.loc 1 811 5 view .LVU298
 811:Drivers/lvgl/src/core/lv_refr.c ****     if(lv_obj_has_flag(obj, LV_OBJ_FLAG_HIDDEN)) return NULL;
 847              		.loc 1 811 8 is_stmt 0 view .LVU299
 848 0008 0022     		movs	r2, #0
 849 000a 1431     		adds	r1, r1, #20
 850              	.LVL77:
 811:Drivers/lvgl/src/core/lv_refr.c ****     if(lv_obj_has_flag(obj, LV_OBJ_FLAG_HIDDEN)) return NULL;
 851              		.loc 1 811 8 view .LVU300
 852 000c FFF7FEFF 		bl	_lv_area_is_in
 853              	.LVL78:
 811:Drivers/lvgl/src/core/lv_refr.c ****     if(lv_obj_has_flag(obj, LV_OBJ_FLAG_HIDDEN)) return NULL;
 854              		.loc 1 811 7 view .LVU301
 855 0010 68B3     		cbz	r0, .L50
 812:Drivers/lvgl/src/core/lv_refr.c ****     if(_lv_obj_get_layer_type(obj) != LV_LAYER_TYPE_NONE) return NULL;
 856              		.loc 1 812 5 is_stmt 1 view .LVU302
 812:Drivers/lvgl/src/core/lv_refr.c ****     if(_lv_obj_get_layer_type(obj) != LV_LAYER_TYPE_NONE) return NULL;
 857              		.loc 1 812 8 is_stmt 0 view .LVU303
 858 0012 0121     		movs	r1, #1
 859 0014 2046     		mov	r0, r4
 860 0016 FFF7FEFF 		bl	lv_obj_has_flag
 861              	.LVL79:
 812:Drivers/lvgl/src/core/lv_refr.c ****     if(_lv_obj_get_layer_type(obj) != LV_LAYER_TYPE_NONE) return NULL;
 862              		.loc 1 812 7 view .LVU304
ARM GAS  /var/folders/0z/tsy30v1j4xl4_7kw94k978ww0000gn/T//ccRTPM70.s 			page 44


 863 001a 58BB     		cbnz	r0, .L51
 813:Drivers/lvgl/src/core/lv_refr.c **** 
 864              		.loc 1 813 5 is_stmt 1 view .LVU305
 813:Drivers/lvgl/src/core/lv_refr.c **** 
 865              		.loc 1 813 8 is_stmt 0 view .LVU306
 866 001c 2046     		mov	r0, r4
 867 001e FFF7FEFF 		bl	_lv_obj_get_layer_type
 868              	.LVL80:
 813:Drivers/lvgl/src/core/lv_refr.c **** 
 869              		.loc 1 813 7 view .LVU307
 870 0022 48BB     		cbnz	r0, .L52
 816:Drivers/lvgl/src/core/lv_refr.c ****     info.res = LV_COVER_RES_COVER;
 871              		.loc 1 816 5 is_stmt 1 view .LVU308
 817:Drivers/lvgl/src/core/lv_refr.c ****     info.area = area_p;
 872              		.loc 1 817 5 view .LVU309
 817:Drivers/lvgl/src/core/lv_refr.c ****     info.area = area_p;
 873              		.loc 1 817 14 is_stmt 0 view .LVU310
 874 0024 0023     		movs	r3, #0
 875 0026 8DF80030 		strb	r3, [sp]
 818:Drivers/lvgl/src/core/lv_refr.c ****     lv_event_send(obj, LV_EVENT_COVER_CHECK, &info);
 876              		.loc 1 818 5 is_stmt 1 view .LVU311
 818:Drivers/lvgl/src/core/lv_refr.c ****     lv_event_send(obj, LV_EVENT_COVER_CHECK, &info);
 877              		.loc 1 818 15 is_stmt 0 view .LVU312
 878 002a 0196     		str	r6, [sp, #4]
 819:Drivers/lvgl/src/core/lv_refr.c ****     if(info.res == LV_COVER_RES_MASKED) return NULL;
 879              		.loc 1 819 5 is_stmt 1 view .LVU313
 880 002c 6A46     		mov	r2, sp
 881 002e 1221     		movs	r1, #18
 882 0030 2046     		mov	r0, r4
 883 0032 FFF7FEFF 		bl	lv_event_send
 884              	.LVL81:
 820:Drivers/lvgl/src/core/lv_refr.c **** 
 885              		.loc 1 820 5 view .LVU314
 820:Drivers/lvgl/src/core/lv_refr.c **** 
 886              		.loc 1 820 12 is_stmt 0 view .LVU315
 887 0036 9DF80030 		ldrb	r3, [sp]	@ zero_extendqisi2
 820:Drivers/lvgl/src/core/lv_refr.c **** 
 888              		.loc 1 820 7 view .LVU316
 889 003a 022B     		cmp	r3, #2
 890 003c 1ED0     		beq	.L53
 822:Drivers/lvgl/src/core/lv_refr.c ****     int32_t child_cnt = lv_obj_get_child_cnt(obj);
 891              		.loc 1 822 5 is_stmt 1 view .LVU317
 823:Drivers/lvgl/src/core/lv_refr.c ****     for(i = child_cnt - 1; i >= 0; i--) {
 892              		.loc 1 823 5 view .LVU318
 823:Drivers/lvgl/src/core/lv_refr.c ****     for(i = child_cnt - 1; i >= 0; i--) {
 893              		.loc 1 823 25 is_stmt 0 view .LVU319
 894 003e 2046     		mov	r0, r4
 895 0040 FFF7FEFF 		bl	lv_obj_get_child_cnt
 896              	.LVL82:
 824:Drivers/lvgl/src/core/lv_refr.c ****         lv_obj_t * child = obj->spec_attr->children[i];
 897              		.loc 1 824 5 is_stmt 1 view .LVU320
 824:Drivers/lvgl/src/core/lv_refr.c ****         lv_obj_t * child = obj->spec_attr->children[i];
 898              		.loc 1 824 11 is_stmt 0 view .LVU321
 899 0044 451E     		subs	r5, r0, #1
 900              	.LVL83:
 809:Drivers/lvgl/src/core/lv_refr.c **** 
 901              		.loc 1 809 16 view .LVU322
ARM GAS  /var/folders/0z/tsy30v1j4xl4_7kw94k978ww0000gn/T//ccRTPM70.s 			page 45


 902 0046 0020     		movs	r0, #0
 903              	.LVL84:
 824:Drivers/lvgl/src/core/lv_refr.c ****         lv_obj_t * child = obj->spec_attr->children[i];
 904              		.loc 1 824 5 view .LVU323
 905 0048 00E0     		b	.L47
 906              	.LVL85:
 907              	.L56:
 824:Drivers/lvgl/src/core/lv_refr.c ****         lv_obj_t * child = obj->spec_attr->children[i];
 908              		.loc 1 824 37 is_stmt 1 discriminator 2 view .LVU324
 909 004a 013D     		subs	r5, r5, #1
 910              	.LVL86:
 911              	.L47:
 824:Drivers/lvgl/src/core/lv_refr.c ****         lv_obj_t * child = obj->spec_attr->children[i];
 912              		.loc 1 824 30 discriminator 1 view .LVU325
 913 004c 002D     		cmp	r5, #0
 914 004e 08DB     		blt	.L48
 915              	.LBB96:
 825:Drivers/lvgl/src/core/lv_refr.c ****         found_p = lv_refr_get_top_obj(area_p, child);
 916              		.loc 1 825 9 view .LVU326
 825:Drivers/lvgl/src/core/lv_refr.c ****         found_p = lv_refr_get_top_obj(area_p, child);
 917              		.loc 1 825 31 is_stmt 0 view .LVU327
 918 0050 A368     		ldr	r3, [r4, #8]
 825:Drivers/lvgl/src/core/lv_refr.c ****         found_p = lv_refr_get_top_obj(area_p, child);
 919              		.loc 1 825 42 view .LVU328
 920 0052 1B68     		ldr	r3, [r3]
 921              	.LVL87:
 826:Drivers/lvgl/src/core/lv_refr.c **** 
 922              		.loc 1 826 9 is_stmt 1 view .LVU329
 826:Drivers/lvgl/src/core/lv_refr.c **** 
 923              		.loc 1 826 19 is_stmt 0 view .LVU330
 924 0054 53F82510 		ldr	r1, [r3, r5, lsl #2]
 925 0058 3046     		mov	r0, r6
 926              	.LVL88:
 826:Drivers/lvgl/src/core/lv_refr.c **** 
 927              		.loc 1 826 19 view .LVU331
 928 005a FFF7D1FF 		bl	lv_refr_get_top_obj
 929              	.LVL89:
 829:Drivers/lvgl/src/core/lv_refr.c ****             break;
 930              		.loc 1 829 9 is_stmt 1 view .LVU332
 829:Drivers/lvgl/src/core/lv_refr.c ****             break;
 931              		.loc 1 829 11 is_stmt 0 view .LVU333
 932 005e 0028     		cmp	r0, #0
 933 0060 F3D0     		beq	.L56
 934              	.L48:
 829:Drivers/lvgl/src/core/lv_refr.c ****             break;
 935              		.loc 1 829 11 view .LVU334
 936              	.LBE96:
 835:Drivers/lvgl/src/core/lv_refr.c ****         found_p = obj;
 937              		.loc 1 835 5 is_stmt 1 view .LVU335
 835:Drivers/lvgl/src/core/lv_refr.c ****         found_p = obj;
 938              		.loc 1 835 7 is_stmt 0 view .LVU336
 939 0062 28B9     		cbnz	r0, .L45
 835:Drivers/lvgl/src/core/lv_refr.c ****         found_p = obj;
 940              		.loc 1 835 31 discriminator 1 view .LVU337
 941 0064 9DF80030 		ldrb	r3, [sp]	@ zero_extendqisi2
 835:Drivers/lvgl/src/core/lv_refr.c ****         found_p = obj;
 942              		.loc 1 835 24 discriminator 1 view .LVU338
ARM GAS  /var/folders/0z/tsy30v1j4xl4_7kw94k978ww0000gn/T//ccRTPM70.s 			page 46


 943 0068 13B9     		cbnz	r3, .L45
 836:Drivers/lvgl/src/core/lv_refr.c ****     }
 944              		.loc 1 836 17 view .LVU339
 945 006a 2046     		mov	r0, r4
 946              	.LVL90:
 836:Drivers/lvgl/src/core/lv_refr.c ****     }
 947              		.loc 1 836 17 view .LVU340
 948 006c 00E0     		b	.L45
 949              	.LVL91:
 950              	.L50:
 811:Drivers/lvgl/src/core/lv_refr.c ****     if(lv_obj_has_flag(obj, LV_OBJ_FLAG_HIDDEN)) return NULL;
 951              		.loc 1 811 65 view .LVU341
 952 006e 0020     		movs	r0, #0
 953              	.LVL92:
 954              	.L45:
 840:Drivers/lvgl/src/core/lv_refr.c **** 
 955              		.loc 1 840 1 view .LVU342
 956 0070 02B0     		add	sp, sp, #8
 957              		.cfi_remember_state
 958              		.cfi_def_cfa_offset 16
 959              		@ sp needed
 960 0072 70BD     		pop	{r4, r5, r6, pc}
 961              	.LVL93:
 962              	.L51:
 963              		.cfi_restore_state
 812:Drivers/lvgl/src/core/lv_refr.c ****     if(_lv_obj_get_layer_type(obj) != LV_LAYER_TYPE_NONE) return NULL;
 964              		.loc 1 812 57 view .LVU343
 965 0074 0020     		movs	r0, #0
 966 0076 FBE7     		b	.L45
 967              	.L52:
 813:Drivers/lvgl/src/core/lv_refr.c **** 
 968              		.loc 1 813 66 view .LVU344
 969 0078 0020     		movs	r0, #0
 970 007a F9E7     		b	.L45
 971              	.L53:
 820:Drivers/lvgl/src/core/lv_refr.c **** 
 972              		.loc 1 820 48 view .LVU345
 973 007c 0020     		movs	r0, #0
 974 007e F7E7     		b	.L45
 975              		.cfi_endproc
 976              	.LFE181:
 978              		.section	.text.layer_get_area,"ax",%progbits
 979              		.align	1
 980              		.syntax unified
 981              		.thumb
 982              		.thumb_func
 984              	layer_get_area:
 985              	.LVL94:
 986              	.LFB183:
 896:Drivers/lvgl/src/core/lv_refr.c ****     lv_coord_t ext_draw_size = _lv_obj_get_ext_draw_size(obj);
 987              		.loc 1 896 1 is_stmt 1 view -0
 988              		.cfi_startproc
 989              		@ args = 0, pretend = 0, frame = 32
 990              		@ frame_needed = 0, uses_anonymous_args = 0
 896:Drivers/lvgl/src/core/lv_refr.c ****     lv_coord_t ext_draw_size = _lv_obj_get_ext_draw_size(obj);
 991              		.loc 1 896 1 is_stmt 0 view .LVU347
 992 0000 2DE9F041 		push	{r4, r5, r6, r7, r8, lr}
ARM GAS  /var/folders/0z/tsy30v1j4xl4_7kw94k978ww0000gn/T//ccRTPM70.s 			page 47


 993              		.cfi_def_cfa_offset 24
 994              		.cfi_offset 4, -24
 995              		.cfi_offset 5, -20
 996              		.cfi_offset 6, -16
 997              		.cfi_offset 7, -12
 998              		.cfi_offset 8, -8
 999              		.cfi_offset 14, -4
 1000 0004 88B0     		sub	sp, sp, #32
 1001              		.cfi_def_cfa_offset 56
 1002 0006 8046     		mov	r8, r0
 1003 0008 0E46     		mov	r6, r1
 1004 000a 1446     		mov	r4, r2
 1005 000c 1F46     		mov	r7, r3
 897:Drivers/lvgl/src/core/lv_refr.c ****     lv_area_t obj_coords_ext;
 1006              		.loc 1 897 5 is_stmt 1 view .LVU348
 897:Drivers/lvgl/src/core/lv_refr.c ****     lv_area_t obj_coords_ext;
 1007              		.loc 1 897 32 is_stmt 0 view .LVU349
 1008 000e 0846     		mov	r0, r1
 1009              	.LVL95:
 897:Drivers/lvgl/src/core/lv_refr.c ****     lv_area_t obj_coords_ext;
 1010              		.loc 1 897 32 view .LVU350
 1011 0010 FFF7FEFF 		bl	_lv_obj_get_ext_draw_size
 1012              	.LVL96:
 897:Drivers/lvgl/src/core/lv_refr.c ****     lv_area_t obj_coords_ext;
 1013              		.loc 1 897 32 view .LVU351
 1014 0014 0546     		mov	r5, r0
 1015              	.LVL97:
 898:Drivers/lvgl/src/core/lv_refr.c ****     lv_obj_get_coords(obj, &obj_coords_ext);
 1016              		.loc 1 898 5 is_stmt 1 view .LVU352
 899:Drivers/lvgl/src/core/lv_refr.c ****     lv_area_increase(&obj_coords_ext, ext_draw_size, ext_draw_size);
 1017              		.loc 1 899 5 view .LVU353
 1018 0016 06A9     		add	r1, sp, #24
 1019 0018 3046     		mov	r0, r6
 1020 001a FFF7FEFF 		bl	lv_obj_get_coords
 1021              	.LVL98:
 900:Drivers/lvgl/src/core/lv_refr.c **** 
 1022              		.loc 1 900 5 view .LVU354
 1023 001e 2A46     		mov	r2, r5
 1024 0020 2946     		mov	r1, r5
 1025 0022 06A8     		add	r0, sp, #24
 1026 0024 FFF7FEFF 		bl	lv_area_increase
 1027              	.LVL99:
 902:Drivers/lvgl/src/core/lv_refr.c ****         /*Get the transformed area and clip it to the current clip area.
 1028              		.loc 1 902 5 view .LVU355
 902:Drivers/lvgl/src/core/lv_refr.c ****         /*Get the transformed area and clip it to the current clip area.
 1029              		.loc 1 902 7 is_stmt 0 view .LVU356
 1030 0028 022C     		cmp	r4, #2
 1031 002a 05D0     		beq	.L64
 923:Drivers/lvgl/src/core/lv_refr.c ****         lv_area_t clip_coords_for_obj;
 1032              		.loc 1 923 10 is_stmt 1 view .LVU357
 923:Drivers/lvgl/src/core/lv_refr.c ****         lv_area_t clip_coords_for_obj;
 1033              		.loc 1 923 12 is_stmt 0 view .LVU358
 1034 002c 012C     		cmp	r4, #1
 1035 002e 31D0     		beq	.L65
 932:Drivers/lvgl/src/core/lv_refr.c ****     }
 1036              		.loc 1 932 16 view .LVU359
 1037 0030 0020     		movs	r0, #0
ARM GAS  /var/folders/0z/tsy30v1j4xl4_7kw94k978ww0000gn/T//ccRTPM70.s 			page 48


 1038              	.L60:
 936:Drivers/lvgl/src/core/lv_refr.c **** 
 1039              		.loc 1 936 1 view .LVU360
 1040 0032 08B0     		add	sp, sp, #32
 1041              		.cfi_remember_state
 1042              		.cfi_def_cfa_offset 24
 1043              		@ sp needed
 1044 0034 BDE8F081 		pop	{r4, r5, r6, r7, r8, pc}
 1045              	.LVL100:
 1046              	.L64:
 1047              		.cfi_restore_state
 1048              	.LBB97:
 905:Drivers/lvgl/src/core/lv_refr.c ****         lv_area_t tranf_coords = obj_coords_ext;
 1049              		.loc 1 905 9 is_stmt 1 view .LVU361
 906:Drivers/lvgl/src/core/lv_refr.c ****         lv_obj_get_transformed_area(obj, &tranf_coords, false, false);
 1050              		.loc 1 906 9 view .LVU362
 906:Drivers/lvgl/src/core/lv_refr.c ****         lv_obj_get_transformed_area(obj, &tranf_coords, false, false);
 1051              		.loc 1 906 19 is_stmt 0 view .LVU363
 1052 0038 02AC     		add	r4, sp, #8
 1053 003a 08AB     		add	r3, sp, #32
 1054 003c 13E90300 		ldmdb	r3, {r0, r1}
 1055 0040 84E80300 		stm	r4, {r0, r1}
 907:Drivers/lvgl/src/core/lv_refr.c ****         if(!_lv_area_intersect(&clip_coords_for_obj, draw_ctx->clip_area, &tranf_coords)) {
 1056              		.loc 1 907 9 is_stmt 1 view .LVU364
 1057 0044 0023     		movs	r3, #0
 1058 0046 1A46     		mov	r2, r3
 1059 0048 2146     		mov	r1, r4
 1060 004a 3046     		mov	r0, r6
 1061 004c FFF7FEFF 		bl	lv_obj_get_transformed_area
 1062              	.LVL101:
 908:Drivers/lvgl/src/core/lv_refr.c ****             return LV_RES_INV;
 1063              		.loc 1 908 9 view .LVU365
 908:Drivers/lvgl/src/core/lv_refr.c ****             return LV_RES_INV;
 1064              		.loc 1 908 13 is_stmt 0 view .LVU366
 1065 0050 2246     		mov	r2, r4
 1066 0052 D8F80810 		ldr	r1, [r8, #8]
 1067 0056 6846     		mov	r0, sp
 1068 0058 FFF7FEFF 		bl	_lv_area_intersect
 1069              	.LVL102:
 908:Drivers/lvgl/src/core/lv_refr.c ****             return LV_RES_INV;
 1070              		.loc 1 908 11 view .LVU367
 1071 005c 08B9     		cbnz	r0, .L66
 1072              	.L59:
 909:Drivers/lvgl/src/core/lv_refr.c ****         }
 1073              		.loc 1 909 20 discriminator 1 view .LVU368
 1074 005e 0020     		movs	r0, #0
 1075 0060 E7E7     		b	.L60
 1076              	.L66:
 915:Drivers/lvgl/src/core/lv_refr.c ****         lv_obj_get_transformed_area(obj, &inverse_clip_coords_for_obj, false, true);
 1077              		.loc 1 915 9 is_stmt 1 view .LVU369
 915:Drivers/lvgl/src/core/lv_refr.c ****         lv_obj_get_transformed_area(obj, &inverse_clip_coords_for_obj, false, true);
 1078              		.loc 1 915 19 is_stmt 0 view .LVU370
 1079 0062 04AC     		add	r4, sp, #16
 1080 0064 6B46     		mov	r3, sp
 1081 0066 93E80300 		ldm	r3, {r0, r1}
 1082 006a 84E80300 		stm	r4, {r0, r1}
 916:Drivers/lvgl/src/core/lv_refr.c ****         if(!_lv_area_intersect(&inverse_clip_coords_for_obj, &inverse_clip_coords_for_obj, &obj_coo
ARM GAS  /var/folders/0z/tsy30v1j4xl4_7kw94k978ww0000gn/T//ccRTPM70.s 			page 49


 1083              		.loc 1 916 9 is_stmt 1 view .LVU371
 1084 006e 0123     		movs	r3, #1
 1085 0070 0022     		movs	r2, #0
 1086 0072 2146     		mov	r1, r4
 1087 0074 3046     		mov	r0, r6
 1088 0076 FFF7FEFF 		bl	lv_obj_get_transformed_area
 1089              	.LVL103:
 917:Drivers/lvgl/src/core/lv_refr.c ****             return LV_RES_INV;
 1090              		.loc 1 917 9 view .LVU372
 917:Drivers/lvgl/src/core/lv_refr.c ****             return LV_RES_INV;
 1091              		.loc 1 917 13 is_stmt 0 view .LVU373
 1092 007a 06AA     		add	r2, sp, #24
 1093 007c 2146     		mov	r1, r4
 1094 007e 2046     		mov	r0, r4
 1095 0080 FFF7FEFF 		bl	_lv_area_intersect
 1096              	.LVL104:
 917:Drivers/lvgl/src/core/lv_refr.c ****             return LV_RES_INV;
 1097              		.loc 1 917 11 view .LVU374
 1098 0084 0028     		cmp	r0, #0
 1099 0086 EAD0     		beq	.L59
 921:Drivers/lvgl/src/core/lv_refr.c ****     }
 1100              		.loc 1 921 9 is_stmt 1 view .LVU375
 921:Drivers/lvgl/src/core/lv_refr.c ****     }
 1101              		.loc 1 921 25 is_stmt 0 view .LVU376
 1102 0088 2346     		mov	r3, r4
 1103 008a 03CB     		ldmia	r3!, {r0, r1}
 1104 008c 3860     		str	r0, [r7]	@ unaligned
 1105 008e 7960     		str	r1, [r7, #4]	@ unaligned
 1106              	.LBE97:
 935:Drivers/lvgl/src/core/lv_refr.c **** }
 1107              		.loc 1 935 12 view .LVU377
 1108 0090 0120     		movs	r0, #1
 1109 0092 CEE7     		b	.L60
 1110              	.L65:
 1111              	.LBB98:
 924:Drivers/lvgl/src/core/lv_refr.c ****         if(!_lv_area_intersect(&clip_coords_for_obj, draw_ctx->clip_area, &obj_coords_ext)) {
 1112              		.loc 1 924 9 is_stmt 1 view .LVU378
 925:Drivers/lvgl/src/core/lv_refr.c ****             return LV_RES_INV;
 1113              		.loc 1 925 9 view .LVU379
 925:Drivers/lvgl/src/core/lv_refr.c ****             return LV_RES_INV;
 1114              		.loc 1 925 13 is_stmt 0 view .LVU380
 1115 0094 06AA     		add	r2, sp, #24
 1116 0096 D8F80810 		ldr	r1, [r8, #8]
 1117 009a 04A8     		add	r0, sp, #16
 1118 009c FFF7FEFF 		bl	_lv_area_intersect
 1119              	.LVL105:
 925:Drivers/lvgl/src/core/lv_refr.c ****             return LV_RES_INV;
 1120              		.loc 1 925 11 view .LVU381
 1121 00a0 0028     		cmp	r0, #0
 1122 00a2 C6D0     		beq	.L60
 928:Drivers/lvgl/src/core/lv_refr.c ****     }
 1123              		.loc 1 928 9 is_stmt 1 view .LVU382
 928:Drivers/lvgl/src/core/lv_refr.c ****     }
 1124              		.loc 1 928 25 is_stmt 0 view .LVU383
 1125 00a4 04AB     		add	r3, sp, #16
 1126 00a6 03CB     		ldmia	r3!, {r0, r1}
 1127 00a8 3860     		str	r0, [r7]	@ unaligned
ARM GAS  /var/folders/0z/tsy30v1j4xl4_7kw94k978ww0000gn/T//ccRTPM70.s 			page 50


 1128 00aa 7960     		str	r1, [r7, #4]	@ unaligned
 1129              	.LBE98:
 935:Drivers/lvgl/src/core/lv_refr.c **** }
 1130              		.loc 1 935 12 view .LVU384
 1131 00ac 2046     		mov	r0, r4
 1132 00ae C0E7     		b	.L60
 1133              		.cfi_endproc
 1134              	.LFE183:
 1136              		.section	.text.layer_alpha_test,"ax",%progbits
 1137              		.align	1
 1138              		.syntax unified
 1139              		.thumb
 1140              		.thumb_func
 1142              	layer_alpha_test:
 1143              	.LVL106:
 1144              	.LFB184:
 940:Drivers/lvgl/src/core/lv_refr.c ****     bool has_alpha;
 1145              		.loc 1 940 1 is_stmt 1 view -0
 1146              		.cfi_startproc
 1147              		@ args = 0, pretend = 0, frame = 8
 1148              		@ frame_needed = 0, uses_anonymous_args = 0
 940:Drivers/lvgl/src/core/lv_refr.c ****     bool has_alpha;
 1149              		.loc 1 940 1 is_stmt 0 view .LVU386
 1150 0000 F0B5     		push	{r4, r5, r6, r7, lr}
 1151              		.cfi_def_cfa_offset 20
 1152              		.cfi_offset 4, -20
 1153              		.cfi_offset 5, -16
 1154              		.cfi_offset 6, -12
 1155              		.cfi_offset 7, -8
 1156              		.cfi_offset 14, -4
 1157 0002 83B0     		sub	sp, sp, #12
 1158              		.cfi_def_cfa_offset 32
 1159 0004 0D46     		mov	r5, r1
 1160 0006 1446     		mov	r4, r2
 941:Drivers/lvgl/src/core/lv_refr.c ****     /*If globally the layer has alpha maybe this smaller section has not (e.g. not on a rounded cor
 1161              		.loc 1 941 5 is_stmt 1 view .LVU387
 944:Drivers/lvgl/src/core/lv_refr.c ****         /*Test for alpha by assuming there is no alpha. If it fails, fall back to rendering with al
 1162              		.loc 1 944 5 view .LVU388
 944:Drivers/lvgl/src/core/lv_refr.c ****         /*Test for alpha by assuming there is no alpha. If it fails, fall back to rendering with al
 1163              		.loc 1 944 7 is_stmt 0 view .LVU389
 1164 0008 13F0010F 		tst	r3, #1
 1165 000c 0DD1     		bne	.L74
 960:Drivers/lvgl/src/core/lv_refr.c ****     }
 1166              		.loc 1 960 19 view .LVU390
 1167 000e 0022     		movs	r2, #0
 1168              	.LVL107:
 1169              	.L68:
 963:Drivers/lvgl/src/core/lv_refr.c ****     lv_draw_layer_adjust(draw_ctx, layer_ctx, has_alpha ? LV_DRAW_LAYER_FLAG_HAS_ALPHA : LV_DRAW_LA
 1170              		.loc 1 963 5 is_stmt 1 view .LVU391
 963:Drivers/lvgl/src/core/lv_refr.c ****     lv_draw_layer_adjust(draw_ctx, layer_ctx, has_alpha ? LV_DRAW_LAYER_FLAG_HAS_ALPHA : LV_DRAW_LA
 1171              		.loc 1 963 27 is_stmt 0 view .LVU392
 1172 0010 B4F90E10 		ldrsh	r1, [r4, #14]
 963:Drivers/lvgl/src/core/lv_refr.c ****     lv_draw_layer_adjust(draw_ctx, layer_ctx, has_alpha ? LV_DRAW_LAYER_FLAG_HAS_ALPHA : LV_DRAW_LA
 1173              		.loc 1 963 53 view .LVU393
 1174 0014 B4F90630 		ldrsh	r3, [r4, #6]
 963:Drivers/lvgl/src/core/lv_refr.c ****     lv_draw_layer_adjust(draw_ctx, layer_ctx, has_alpha ? LV_DRAW_LAYER_FLAG_HAS_ALPHA : LV_DRAW_LA
 1175              		.loc 1 963 7 view .LVU394
ARM GAS  /var/folders/0z/tsy30v1j4xl4_7kw94k978ww0000gn/T//ccRTPM70.s 			page 51


 1176 0018 9942     		cmp	r1, r3
 1177 001a 00DD     		ble	.L71
 963:Drivers/lvgl/src/core/lv_refr.c ****     lv_draw_layer_adjust(draw_ctx, layer_ctx, has_alpha ? LV_DRAW_LAYER_FLAG_HAS_ALPHA : LV_DRAW_LA
 1178              		.loc 1 963 58 is_stmt 1 discriminator 1 view .LVU395
 963:Drivers/lvgl/src/core/lv_refr.c ****     lv_draw_layer_adjust(draw_ctx, layer_ctx, has_alpha ? LV_DRAW_LAYER_FLAG_HAS_ALPHA : LV_DRAW_LA
 1179              		.loc 1 963 81 is_stmt 0 discriminator 1 view .LVU396
 1180 001c E381     		strh	r3, [r4, #14]	@ movhi
 1181              	.L71:
 964:Drivers/lvgl/src/core/lv_refr.c **** }
 1182              		.loc 1 964 5 is_stmt 1 view .LVU397
 1183 001e 2146     		mov	r1, r4
 1184 0020 2846     		mov	r0, r5
 1185 0022 FFF7FEFF 		bl	lv_draw_layer_adjust
 1186              	.LVL108:
 965:Drivers/lvgl/src/core/lv_refr.c **** 
 1187              		.loc 1 965 1 is_stmt 0 view .LVU398
 1188 0026 03B0     		add	sp, sp, #12
 1189              		.cfi_remember_state
 1190              		.cfi_def_cfa_offset 20
 1191              		@ sp needed
 1192 0028 F0BD     		pop	{r4, r5, r6, r7, pc}
 1193              	.LVL109:
 1194              	.L74:
 1195              		.cfi_restore_state
 965:Drivers/lvgl/src/core/lv_refr.c **** 
 1196              		.loc 1 965 1 view .LVU399
 1197 002a 0646     		mov	r6, r0
 946:Drivers/lvgl/src/core/lv_refr.c ****         if(_lv_area_is_in(&layer_ctx->area_act, &obj->coords, 0)) {
 1198              		.loc 1 946 9 is_stmt 1 view .LVU400
 1199              	.LVL110:
 947:Drivers/lvgl/src/core/lv_refr.c ****             lv_cover_check_info_t info;
 1200              		.loc 1 947 9 view .LVU401
 947:Drivers/lvgl/src/core/lv_refr.c ****             lv_cover_check_info_t info;
 1201              		.loc 1 947 27 is_stmt 0 view .LVU402
 1202 002c 02F10807 		add	r7, r2, #8
 947:Drivers/lvgl/src/core/lv_refr.c ****             lv_cover_check_info_t info;
 1203              		.loc 1 947 12 view .LVU403
 1204 0030 0022     		movs	r2, #0
 1205              	.LVL111:
 947:Drivers/lvgl/src/core/lv_refr.c ****             lv_cover_check_info_t info;
 1206              		.loc 1 947 12 view .LVU404
 1207 0032 00F11401 		add	r1, r0, #20
 1208              	.LVL112:
 947:Drivers/lvgl/src/core/lv_refr.c ****             lv_cover_check_info_t info;
 1209              		.loc 1 947 12 view .LVU405
 1210 0036 3846     		mov	r0, r7
 1211              	.LVL113:
 947:Drivers/lvgl/src/core/lv_refr.c ****             lv_cover_check_info_t info;
 1212              		.loc 1 947 12 view .LVU406
 1213 0038 FFF7FEFF 		bl	_lv_area_is_in
 1214              	.LVL114:
 947:Drivers/lvgl/src/core/lv_refr.c ****             lv_cover_check_info_t info;
 1215              		.loc 1 947 11 view .LVU407
 1216 003c 38B9     		cbnz	r0, .L75
 1217              	.L69:
 1218              	.LVL115:
 956:Drivers/lvgl/src/core/lv_refr.c ****         }
ARM GAS  /var/folders/0z/tsy30v1j4xl4_7kw94k978ww0000gn/T//ccRTPM70.s 			page 52


 1219              		.loc 1 956 13 is_stmt 1 view .LVU408
 956:Drivers/lvgl/src/core/lv_refr.c ****         }
 1220              		.loc 1 956 57 is_stmt 0 view .LVU409
 1221 003e 6389     		ldrh	r3, [r4, #10]
 956:Drivers/lvgl/src/core/lv_refr.c ****         }
 1222              		.loc 1 956 72 view .LVU410
 1223 0040 228A     		ldrh	r2, [r4, #16]
 956:Drivers/lvgl/src/core/lv_refr.c ****         }
 1224              		.loc 1 956 61 view .LVU411
 1225 0042 1344     		add	r3, r3, r2
 1226 0044 9BB2     		uxth	r3, r3
 956:Drivers/lvgl/src/core/lv_refr.c ****         }
 1227              		.loc 1 956 93 view .LVU412
 1228 0046 013B     		subs	r3, r3, #1
 956:Drivers/lvgl/src/core/lv_refr.c ****         }
 1229              		.loc 1 956 36 view .LVU413
 1230 0048 E381     		strh	r3, [r4, #14]	@ movhi
 1231 004a 0122     		movs	r2, #1
 1232 004c E0E7     		b	.L68
 1233              	.LVL116:
 1234              	.L75:
 1235              	.LBB99:
 948:Drivers/lvgl/src/core/lv_refr.c ****             info.res = LV_COVER_RES_COVER;
 1236              		.loc 1 948 13 is_stmt 1 view .LVU414
 949:Drivers/lvgl/src/core/lv_refr.c ****             info.area = &layer_ctx->area_act;
 1237              		.loc 1 949 13 view .LVU415
 949:Drivers/lvgl/src/core/lv_refr.c ****             info.area = &layer_ctx->area_act;
 1238              		.loc 1 949 22 is_stmt 0 view .LVU416
 1239 004e 0023     		movs	r3, #0
 1240 0050 8DF80030 		strb	r3, [sp]
 950:Drivers/lvgl/src/core/lv_refr.c ****             lv_event_send(obj, LV_EVENT_COVER_CHECK, &info);
 1241              		.loc 1 950 13 is_stmt 1 view .LVU417
 950:Drivers/lvgl/src/core/lv_refr.c ****             lv_event_send(obj, LV_EVENT_COVER_CHECK, &info);
 1242              		.loc 1 950 23 is_stmt 0 view .LVU418
 1243 0054 0197     		str	r7, [sp, #4]
 951:Drivers/lvgl/src/core/lv_refr.c ****             if(info.res == LV_COVER_RES_COVER) has_alpha = false;
 1244              		.loc 1 951 13 is_stmt 1 view .LVU419
 1245 0056 6A46     		mov	r2, sp
 1246 0058 1221     		movs	r1, #18
 1247 005a 3046     		mov	r0, r6
 1248 005c FFF7FEFF 		bl	lv_event_send
 1249              	.LVL117:
 952:Drivers/lvgl/src/core/lv_refr.c ****         }
 1250              		.loc 1 952 13 view .LVU420
 952:Drivers/lvgl/src/core/lv_refr.c ****         }
 1251              		.loc 1 952 20 is_stmt 0 view .LVU421
 1252 0060 9DF80030 		ldrb	r3, [sp]	@ zero_extendqisi2
 952:Drivers/lvgl/src/core/lv_refr.c ****         }
 1253              		.loc 1 952 15 view .LVU422
 1254 0064 002B     		cmp	r3, #0
 1255 0066 EAD1     		bne	.L69
 952:Drivers/lvgl/src/core/lv_refr.c ****         }
 1256              		.loc 1 952 48 is_stmt 1 view .LVU423
 1257              	.LVL118:
 952:Drivers/lvgl/src/core/lv_refr.c ****         }
 1258              		.loc 1 952 48 is_stmt 0 view .LVU424
 1259              	.LBE99:
ARM GAS  /var/folders/0z/tsy30v1j4xl4_7kw94k978ww0000gn/T//ccRTPM70.s 			page 53


 955:Drivers/lvgl/src/core/lv_refr.c ****             layer_ctx->area_act.y2 = layer_ctx->area_act.y1 + layer_ctx->max_row_with_alpha - 1;
 1260              		.loc 1 955 9 is_stmt 1 view .LVU425
 1261              	.LBB100:
 952:Drivers/lvgl/src/core/lv_refr.c ****         }
 1262              		.loc 1 952 58 is_stmt 0 view .LVU426
 1263 0068 0022     		movs	r2, #0
 1264 006a D1E7     		b	.L68
 1265              	.LBE100:
 1266              		.cfi_endproc
 1267              	.LFE184:
 1269              		.section	.text.lv_refr_join_area,"ax",%progbits
 1270              		.align	1
 1271              		.syntax unified
 1272              		.thumb
 1273              		.thumb_func
 1275              	lv_refr_join_area:
 1276              	.LFB176:
 479:Drivers/lvgl/src/core/lv_refr.c ****     uint32_t join_from;
 1277              		.loc 1 479 1 is_stmt 1 view -0
 1278              		.cfi_startproc
 1279              		@ args = 0, pretend = 0, frame = 8
 1280              		@ frame_needed = 0, uses_anonymous_args = 0
 1281 0000 2DE9F043 		push	{r4, r5, r6, r7, r8, r9, lr}
 1282              		.cfi_def_cfa_offset 28
 1283              		.cfi_offset 4, -28
 1284              		.cfi_offset 5, -24
 1285              		.cfi_offset 6, -20
 1286              		.cfi_offset 7, -16
 1287              		.cfi_offset 8, -12
 1288              		.cfi_offset 9, -8
 1289              		.cfi_offset 14, -4
 1290 0004 83B0     		sub	sp, sp, #12
 1291              		.cfi_def_cfa_offset 40
 480:Drivers/lvgl/src/core/lv_refr.c ****     uint32_t join_in;
 1292              		.loc 1 480 5 view .LVU428
 481:Drivers/lvgl/src/core/lv_refr.c ****     lv_area_t joined_area;
 1293              		.loc 1 481 5 view .LVU429
 482:Drivers/lvgl/src/core/lv_refr.c ****     for(join_in = 0; join_in < disp_refr->inv_p; join_in++) {
 1294              		.loc 1 482 5 view .LVU430
 483:Drivers/lvgl/src/core/lv_refr.c ****         if(disp_refr->inv_area_joined[join_in] != 0) continue;
 1295              		.loc 1 483 5 view .LVU431
 1296              	.LVL119:
 483:Drivers/lvgl/src/core/lv_refr.c ****         if(disp_refr->inv_area_joined[join_in] != 0) continue;
 1297              		.loc 1 483 17 is_stmt 0 view .LVU432
 1298 0006 0025     		movs	r5, #0
 483:Drivers/lvgl/src/core/lv_refr.c ****         if(disp_refr->inv_area_joined[join_in] != 0) continue;
 1299              		.loc 1 483 5 view .LVU433
 1300 0008 51E0     		b	.L77
 1301              	.LVL120:
 1302              	.L80:
 487:Drivers/lvgl/src/core/lv_refr.c ****             /*Handle only unjoined areas and ignore itself*/
 1303              		.loc 1 487 67 is_stmt 1 discriminator 2 view .LVU434
 1304 000a 0134     		adds	r4, r4, #1
 1305              	.LVL121:
 1306              	.L79:
 487:Drivers/lvgl/src/core/lv_refr.c ****             /*Handle only unjoined areas and ignore itself*/
 1307              		.loc 1 487 38 discriminator 1 view .LVU435
ARM GAS  /var/folders/0z/tsy30v1j4xl4_7kw94k978ww0000gn/T//ccRTPM70.s 			page 54


 487:Drivers/lvgl/src/core/lv_refr.c ****             /*Handle only unjoined areas and ignore itself*/
 1308              		.loc 1 487 49 is_stmt 0 discriminator 1 view .LVU436
 1309 000c 304B     		ldr	r3, .L85
 1310 000e 1B68     		ldr	r3, [r3]
 1311 0010 B3F85021 		ldrh	r2, [r3, #336]
 487:Drivers/lvgl/src/core/lv_refr.c ****             /*Handle only unjoined areas and ignore itself*/
 1312              		.loc 1 487 38 discriminator 1 view .LVU437
 1313 0014 A242     		cmp	r2, r4
 1314 0016 49D9     		bls	.L78
 489:Drivers/lvgl/src/core/lv_refr.c ****                 continue;
 1315              		.loc 1 489 13 is_stmt 1 view .LVU438
 489:Drivers/lvgl/src/core/lv_refr.c ****                 continue;
 1316              		.loc 1 489 42 is_stmt 0 view .LVU439
 1317 0018 1A19     		adds	r2, r3, r4
 1318 001a 92F83021 		ldrb	r2, [r2, #304]	@ zero_extendqisi2
 489:Drivers/lvgl/src/core/lv_refr.c ****                 continue;
 1319              		.loc 1 489 15 view .LVU440
 1320 001e 002A     		cmp	r2, #0
 1321 0020 F3D1     		bne	.L80
 489:Drivers/lvgl/src/core/lv_refr.c ****                 continue;
 1322              		.loc 1 489 59 discriminator 2 view .LVU441
 1323 0022 AC42     		cmp	r4, r5
 1324 0024 F1D0     		beq	.L80
 494:Drivers/lvgl/src/core/lv_refr.c ****                 continue;
 1325              		.loc 1 494 13 is_stmt 1 view .LVU442
 494:Drivers/lvgl/src/core/lv_refr.c ****                 continue;
 1326              		.loc 1 494 31 is_stmt 0 view .LVU443
 1327 0026 A81D     		adds	r0, r5, #6
 494:Drivers/lvgl/src/core/lv_refr.c ****                 continue;
 1328              		.loc 1 494 63 view .LVU444
 1329 0028 A11D     		adds	r1, r4, #6
 494:Drivers/lvgl/src/core/lv_refr.c ****                 continue;
 1330              		.loc 1 494 16 view .LVU445
 1331 002a 03EBC101 		add	r1, r3, r1, lsl #3
 1332 002e 03EBC000 		add	r0, r3, r0, lsl #3
 1333 0032 FFF7FEFF 		bl	_lv_area_is_on
 1334              	.LVL122:
 494:Drivers/lvgl/src/core/lv_refr.c ****                 continue;
 1335              		.loc 1 494 15 view .LVU446
 1336 0036 0028     		cmp	r0, #0
 1337 0038 E7D0     		beq	.L80
 498:Drivers/lvgl/src/core/lv_refr.c **** 
 1338              		.loc 1 498 13 is_stmt 1 view .LVU447
 498:Drivers/lvgl/src/core/lv_refr.c **** 
 1339              		.loc 1 498 51 is_stmt 0 view .LVU448
 1340 003a DFF89480 		ldr	r8, .L85
 1341 003e D8F80030 		ldr	r3, [r8]
 498:Drivers/lvgl/src/core/lv_refr.c **** 
 1342              		.loc 1 498 41 view .LVU449
 1343 0042 A91D     		adds	r1, r5, #6
 1344 0044 CE00     		lsls	r6, r1, #3
 498:Drivers/lvgl/src/core/lv_refr.c **** 
 1345              		.loc 1 498 73 view .LVU450
 1346 0046 A21D     		adds	r2, r4, #6
 1347 0048 4FEAC209 		lsl	r9, r2, #3
 498:Drivers/lvgl/src/core/lv_refr.c **** 
 1348              		.loc 1 498 13 view .LVU451
ARM GAS  /var/folders/0z/tsy30v1j4xl4_7kw94k978ww0000gn/T//ccRTPM70.s 			page 55


 1349 004c 03EBC202 		add	r2, r3, r2, lsl #3
 1350 0050 03EBC101 		add	r1, r3, r1, lsl #3
 1351 0054 6846     		mov	r0, sp
 1352 0056 FFF7FEFF 		bl	_lv_area_join
 1353              	.LVL123:
 501:Drivers/lvgl/src/core/lv_refr.c ****                                                  lv_area_get_size(&disp_refr->inv_areas[join_from])
 1354              		.loc 1 501 13 is_stmt 1 view .LVU452
 501:Drivers/lvgl/src/core/lv_refr.c ****                                                  lv_area_get_size(&disp_refr->inv_areas[join_from])
 1355              		.loc 1 501 16 is_stmt 0 view .LVU453
 1356 005a 6846     		mov	r0, sp
 1357 005c FFF7FEFF 		bl	lv_area_get_size
 1358              	.LVL124:
 1359 0060 0746     		mov	r7, r0
 501:Drivers/lvgl/src/core/lv_refr.c ****                                                  lv_area_get_size(&disp_refr->inv_areas[join_from])
 1360              		.loc 1 501 77 view .LVU454
 1361 0062 D8F80000 		ldr	r0, [r8]
 501:Drivers/lvgl/src/core/lv_refr.c ****                                                  lv_area_get_size(&disp_refr->inv_areas[join_from])
 1362              		.loc 1 501 50 view .LVU455
 1363 0066 3044     		add	r0, r0, r6
 1364 0068 FFF7FEFF 		bl	lv_area_get_size
 1365              	.LVL125:
 1366 006c 0646     		mov	r6, r0
 502:Drivers/lvgl/src/core/lv_refr.c ****                 lv_area_copy(&disp_refr->inv_areas[join_in], &joined_area);
 1367              		.loc 1 502 77 view .LVU456
 1368 006e D8F80000 		ldr	r0, [r8]
 502:Drivers/lvgl/src/core/lv_refr.c ****                 lv_area_copy(&disp_refr->inv_areas[join_in], &joined_area);
 1369              		.loc 1 502 50 view .LVU457
 1370 0072 4844     		add	r0, r0, r9
 1371 0074 FFF7FEFF 		bl	lv_area_get_size
 1372              	.LVL126:
 501:Drivers/lvgl/src/core/lv_refr.c ****                                                  lv_area_get_size(&disp_refr->inv_areas[join_from])
 1373              		.loc 1 501 99 view .LVU458
 1374 0078 0644     		add	r6, r6, r0
 501:Drivers/lvgl/src/core/lv_refr.c ****                                                  lv_area_get_size(&disp_refr->inv_areas[join_from])
 1375              		.loc 1 501 15 view .LVU459
 1376 007a B742     		cmp	r7, r6
 1377 007c C5D2     		bcs	.L80
 503:Drivers/lvgl/src/core/lv_refr.c **** 
 1378              		.loc 1 503 17 is_stmt 1 view .LVU460
 503:Drivers/lvgl/src/core/lv_refr.c **** 
 1379              		.loc 1 503 40 is_stmt 0 view .LVU461
 1380 007e D8F80020 		ldr	r2, [r8]
 1381              	.LVL127:
 1382              	.LBB101:
 1383              	.LBI101:
 110:Drivers/lvgl/src/core/../misc/../font/../misc/lv_area.h **** {
 1384              		.loc 2 110 20 is_stmt 1 view .LVU462
 1385              	.LBB102:
 112:Drivers/lvgl/src/core/../misc/../font/../misc/lv_area.h ****     dest->y1 = src->y1;
 1386              		.loc 2 112 5 view .LVU463
 112:Drivers/lvgl/src/core/../misc/../font/../misc/lv_area.h ****     dest->y1 = src->y1;
 1387              		.loc 2 112 19 is_stmt 0 view .LVU464
 1388 0082 BDF90010 		ldrsh	r1, [sp]
 112:Drivers/lvgl/src/core/../misc/../font/../misc/lv_area.h ****     dest->y1 = src->y1;
 1389              		.loc 2 112 14 view .LVU465
 1390 0086 AB1D     		adds	r3, r5, #6
 1391 0088 22F83310 		strh	r1, [r2, r3, lsl #3]	@ movhi
ARM GAS  /var/folders/0z/tsy30v1j4xl4_7kw94k978ww0000gn/T//ccRTPM70.s 			page 56


 113:Drivers/lvgl/src/core/../misc/../font/../misc/lv_area.h ****     dest->x2 = src->x2;
 1392              		.loc 2 113 5 is_stmt 1 view .LVU466
 113:Drivers/lvgl/src/core/../misc/../font/../misc/lv_area.h ****     dest->x2 = src->x2;
 1393              		.loc 2 113 19 is_stmt 0 view .LVU467
 1394 008c BDF90210 		ldrsh	r1, [sp, #2]
 113:Drivers/lvgl/src/core/../misc/../font/../misc/lv_area.h ****     dest->x2 = src->x2;
 1395              		.loc 2 113 14 view .LVU468
 1396 0090 02EBC303 		add	r3, r2, r3, lsl #3
 1397              	.LVL128:
 113:Drivers/lvgl/src/core/../misc/../font/../misc/lv_area.h ****     dest->x2 = src->x2;
 1398              		.loc 2 113 14 view .LVU469
 1399 0094 5980     		strh	r1, [r3, #2]	@ movhi
 114:Drivers/lvgl/src/core/../misc/../font/../misc/lv_area.h ****     dest->y2 = src->y2;
 1400              		.loc 2 114 5 is_stmt 1 view .LVU470
 114:Drivers/lvgl/src/core/../misc/../font/../misc/lv_area.h ****     dest->y2 = src->y2;
 1401              		.loc 2 114 19 is_stmt 0 view .LVU471
 1402 0096 BDF90410 		ldrsh	r1, [sp, #4]
 114:Drivers/lvgl/src/core/../misc/../font/../misc/lv_area.h ****     dest->y2 = src->y2;
 1403              		.loc 2 114 14 view .LVU472
 1404 009a 9980     		strh	r1, [r3, #4]	@ movhi
 115:Drivers/lvgl/src/core/../misc/../font/../misc/lv_area.h **** }
 1405              		.loc 2 115 5 is_stmt 1 view .LVU473
 115:Drivers/lvgl/src/core/../misc/../font/../misc/lv_area.h **** }
 1406              		.loc 2 115 19 is_stmt 0 view .LVU474
 1407 009c BDF90610 		ldrsh	r1, [sp, #6]
 115:Drivers/lvgl/src/core/../misc/../font/../misc/lv_area.h **** }
 1408              		.loc 2 115 14 view .LVU475
 1409 00a0 D980     		strh	r1, [r3, #6]	@ movhi
 1410              	.LVL129:
 115:Drivers/lvgl/src/core/../misc/../font/../misc/lv_area.h **** }
 1411              		.loc 2 115 14 view .LVU476
 1412              	.LBE102:
 1413              	.LBE101:
 506:Drivers/lvgl/src/core/lv_refr.c ****             }
 1414              		.loc 1 506 17 is_stmt 1 view .LVU477
 506:Drivers/lvgl/src/core/lv_refr.c ****             }
 1415              		.loc 1 506 55 is_stmt 0 view .LVU478
 1416 00a2 2244     		add	r2, r2, r4
 1417 00a4 0123     		movs	r3, #1
 1418 00a6 82F83031 		strb	r3, [r2, #304]
 1419 00aa AEE7     		b	.L80
 1420              	.LVL130:
 1421              	.L78:
 483:Drivers/lvgl/src/core/lv_refr.c ****         if(disp_refr->inv_area_joined[join_in] != 0) continue;
 1422              		.loc 1 483 57 is_stmt 1 discriminator 2 view .LVU479
 1423 00ac 0135     		adds	r5, r5, #1
 1424              	.LVL131:
 1425              	.L77:
 483:Drivers/lvgl/src/core/lv_refr.c ****         if(disp_refr->inv_area_joined[join_in] != 0) continue;
 1426              		.loc 1 483 30 discriminator 1 view .LVU480
 483:Drivers/lvgl/src/core/lv_refr.c ****         if(disp_refr->inv_area_joined[join_in] != 0) continue;
 1427              		.loc 1 483 41 is_stmt 0 discriminator 1 view .LVU481
 1428 00ae 084B     		ldr	r3, .L85
 1429 00b0 1B68     		ldr	r3, [r3]
 1430 00b2 B3F85021 		ldrh	r2, [r3, #336]
 483:Drivers/lvgl/src/core/lv_refr.c ****         if(disp_refr->inv_area_joined[join_in] != 0) continue;
 1431              		.loc 1 483 30 discriminator 1 view .LVU482
ARM GAS  /var/folders/0z/tsy30v1j4xl4_7kw94k978ww0000gn/T//ccRTPM70.s 			page 57


 1432 00b6 AA42     		cmp	r2, r5
 1433 00b8 06D9     		bls	.L84
 484:Drivers/lvgl/src/core/lv_refr.c **** 
 1434              		.loc 1 484 9 is_stmt 1 view .LVU483
 484:Drivers/lvgl/src/core/lv_refr.c **** 
 1435              		.loc 1 484 38 is_stmt 0 view .LVU484
 1436 00ba 2B44     		add	r3, r3, r5
 1437 00bc 93F83031 		ldrb	r3, [r3, #304]	@ zero_extendqisi2
 484:Drivers/lvgl/src/core/lv_refr.c **** 
 1438              		.loc 1 484 11 view .LVU485
 1439 00c0 002B     		cmp	r3, #0
 1440 00c2 F3D1     		bne	.L78
 487:Drivers/lvgl/src/core/lv_refr.c ****             /*Handle only unjoined areas and ignore itself*/
 1441              		.loc 1 487 23 view .LVU486
 1442 00c4 0024     		movs	r4, #0
 1443 00c6 A1E7     		b	.L79
 1444              	.L84:
 510:Drivers/lvgl/src/core/lv_refr.c **** 
 1445              		.loc 1 510 1 view .LVU487
 1446 00c8 03B0     		add	sp, sp, #12
 1447              		.cfi_def_cfa_offset 28
 1448              		@ sp needed
 1449 00ca BDE8F083 		pop	{r4, r5, r6, r7, r8, r9, pc}
 1450              	.LVL132:
 1451              	.L86:
 510:Drivers/lvgl/src/core/lv_refr.c **** 
 1452              		.loc 1 510 1 view .LVU488
 1453 00ce 00BF     		.align	2
 1454              	.L85:
 1455 00d0 00000000 		.word	.LANCHOR0
 1456              		.cfi_endproc
 1457              	.LFE176:
 1459              		.section	.text.refr_sync_areas,"ax",%progbits
 1460              		.align	1
 1461              		.syntax unified
 1462              		.thumb
 1463              		.thumb_func
 1465              	refr_sync_areas:
 1466              	.LFB177:
 516:Drivers/lvgl/src/core/lv_refr.c ****     /*Do not sync if not direct mode*/
 1467              		.loc 1 516 1 is_stmt 1 view -0
 1468              		.cfi_startproc
 1469              		@ args = 0, pretend = 0, frame = 32
 1470              		@ frame_needed = 0, uses_anonymous_args = 0
 518:Drivers/lvgl/src/core/lv_refr.c **** 
 1471              		.loc 1 518 5 view .LVU490
 518:Drivers/lvgl/src/core/lv_refr.c **** 
 1472              		.loc 1 518 18 is_stmt 0 view .LVU491
 1473 0000 4F4B     		ldr	r3, .L109
 1474 0002 1868     		ldr	r0, [r3]
 1475 0004 0368     		ldr	r3, [r0]
 518:Drivers/lvgl/src/core/lv_refr.c **** 
 1476              		.loc 1 518 8 view .LVU492
 1477 0006 1A7C     		ldrb	r2, [r3, #16]	@ zero_extendqisi2
 518:Drivers/lvgl/src/core/lv_refr.c **** 
 1478              		.loc 1 518 7 view .LVU493
 1479 0008 12F0010F 		tst	r2, #1
ARM GAS  /var/folders/0z/tsy30v1j4xl4_7kw94k978ww0000gn/T//ccRTPM70.s 			page 58


 1480 000c 00F09680 		beq	.L103
 521:Drivers/lvgl/src/core/lv_refr.c **** 
 1481              		.loc 1 521 5 is_stmt 1 view .LVU494
 521:Drivers/lvgl/src/core/lv_refr.c **** 
 1482              		.loc 1 521 25 is_stmt 0 view .LVU495
 1483 0010 DB68     		ldr	r3, [r3, #12]
 521:Drivers/lvgl/src/core/lv_refr.c **** 
 1484              		.loc 1 521 35 view .LVU496
 1485 0012 5B68     		ldr	r3, [r3, #4]
 521:Drivers/lvgl/src/core/lv_refr.c **** 
 1486              		.loc 1 521 7 view .LVU497
 1487 0014 002B     		cmp	r3, #0
 1488 0016 00F09180 		beq	.L103
 516:Drivers/lvgl/src/core/lv_refr.c ****     /*Do not sync if not direct mode*/
 1489              		.loc 1 516 1 view .LVU498
 1490 001a 2DE9F04F 		push	{r4, r5, r6, r7, r8, r9, r10, fp, lr}
 1491              		.cfi_def_cfa_offset 36
 1492              		.cfi_offset 4, -36
 1493              		.cfi_offset 5, -32
 1494              		.cfi_offset 6, -28
 1495              		.cfi_offset 7, -24
 1496              		.cfi_offset 8, -20
 1497              		.cfi_offset 9, -16
 1498              		.cfi_offset 10, -12
 1499              		.cfi_offset 11, -8
 1500              		.cfi_offset 14, -4
 1501 001e 8DB0     		sub	sp, sp, #52
 1502              		.cfi_def_cfa_offset 88
 524:Drivers/lvgl/src/core/lv_refr.c **** 
 1503              		.loc 1 524 5 is_stmt 1 view .LVU499
 524:Drivers/lvgl/src/core/lv_refr.c **** 
 1504              		.loc 1 524 8 is_stmt 0 view .LVU500
 1505 0020 00F5AC70 		add	r0, r0, #344
 1506 0024 FFF7FEFF 		bl	_lv_ll_is_empty
 1507              	.LVL133:
 524:Drivers/lvgl/src/core/lv_refr.c **** 
 1508              		.loc 1 524 7 view .LVU501
 1509 0028 0028     		cmp	r0, #0
 1510 002a 40F08480 		bne	.L87
 528:Drivers/lvgl/src/core/lv_refr.c ****     void * buf_on_screen = disp_refr->driver->draw_buf->buf_act == disp_refr->driver->draw_buf->buf
 1511              		.loc 1 528 5 is_stmt 1 view .LVU502
 528:Drivers/lvgl/src/core/lv_refr.c ****     void * buf_on_screen = disp_refr->driver->draw_buf->buf_act == disp_refr->driver->draw_buf->buf
 1512              		.loc 1 528 38 is_stmt 0 view .LVU503
 1513 002e 444B     		ldr	r3, .L109
 1514 0030 1868     		ldr	r0, [r3]
 1515 0032 0368     		ldr	r3, [r0]
 528:Drivers/lvgl/src/core/lv_refr.c ****     void * buf_on_screen = disp_refr->driver->draw_buf->buf_act == disp_refr->driver->draw_buf->buf
 1516              		.loc 1 528 46 view .LVU504
 1517 0034 DB68     		ldr	r3, [r3, #12]
 528:Drivers/lvgl/src/core/lv_refr.c ****     void * buf_on_screen = disp_refr->driver->draw_buf->buf_act == disp_refr->driver->draw_buf->buf
 1518              		.loc 1 528 12 view .LVU505
 1519 0036 D3F808B0 		ldr	fp, [r3, #8]
 1520              	.LVL134:
 529:Drivers/lvgl/src/core/lv_refr.c ****                            ? disp_refr->driver->draw_buf->buf2
 1521              		.loc 1 529 5 is_stmt 1 view .LVU506
 529:Drivers/lvgl/src/core/lv_refr.c ****                            ? disp_refr->driver->draw_buf->buf2
 1522              		.loc 1 529 95 is_stmt 0 view .LVU507
ARM GAS  /var/folders/0z/tsy30v1j4xl4_7kw94k978ww0000gn/T//ccRTPM70.s 			page 59


 1523 003a D3F800A0 		ldr	r10, [r3]
 531:Drivers/lvgl/src/core/lv_refr.c **** 
 1524              		.loc 1 531 28 view .LVU508
 1525 003e DA45     		cmp	r10, fp
 1526 0040 0AD0     		beq	.L106
 1527              	.L89:
 1528              	.LVL135:
 534:Drivers/lvgl/src/core/lv_refr.c **** 
 1529              		.loc 1 534 5 is_stmt 1 view .LVU509
 534:Drivers/lvgl/src/core/lv_refr.c **** 
 1530              		.loc 1 534 25 is_stmt 0 view .LVU510
 1531 0042 FFF7FEFF 		bl	lv_disp_get_hor_res
 1532              	.LVL136:
 1533 0046 8146     		mov	r9, r0
 1534              	.LVL137:
 537:Drivers/lvgl/src/core/lv_refr.c ****     int8_t res_c, j;
 1535              		.loc 1 537 5 is_stmt 1 view .LVU511
 537:Drivers/lvgl/src/core/lv_refr.c ****     int8_t res_c, j;
 1536              		.loc 1 537 15 is_stmt 0 view .LVU512
 1537 0048 2022     		movs	r2, #32
 1538 004a 0021     		movs	r1, #0
 1539 004c 04A8     		add	r0, sp, #16
 1540 004e FFF7FEFF 		bl	memset
 1541              	.LVL138:
 538:Drivers/lvgl/src/core/lv_refr.c ****     uint32_t i;
 1542              		.loc 1 538 5 is_stmt 1 view .LVU513
 539:Drivers/lvgl/src/core/lv_refr.c ****     lv_area_t * sync_area, *new_area, *next_area;
 1543              		.loc 1 539 5 view .LVU514
 540:Drivers/lvgl/src/core/lv_refr.c ****     for(i = 0; i < disp_refr->inv_p; i++) {
 1544              		.loc 1 540 5 view .LVU515
 541:Drivers/lvgl/src/core/lv_refr.c ****         /*Skip joined areas*/
 1545              		.loc 1 541 5 view .LVU516
 541:Drivers/lvgl/src/core/lv_refr.c ****         /*Skip joined areas*/
 1546              		.loc 1 541 11 is_stmt 0 view .LVU517
 1547 0052 4FF00008 		mov	r8, #0
 541:Drivers/lvgl/src/core/lv_refr.c ****         /*Skip joined areas*/
 1548              		.loc 1 541 5 view .LVU518
 1549 0056 3AE0     		b	.L90
 1550              	.LVL139:
 1551              	.L106:
 531:Drivers/lvgl/src/core/lv_refr.c **** 
 1552              		.loc 1 531 28 discriminator 1 view .LVU519
 1553 0058 D3F804A0 		ldr	r10, [r3, #4]
 1554 005c F1E7     		b	.L89
 1555              	.LVL140:
 1556              	.L95:
 558:Drivers/lvgl/src/core/lv_refr.c ****                     *new_area = res[j];
 1557              		.loc 1 558 21 is_stmt 1 discriminator 3 view .LVU520
 558:Drivers/lvgl/src/core/lv_refr.c ****                     *new_area = res[j];
 1558              		.loc 1 558 58 is_stmt 0 discriminator 3 view .LVU521
 1559 005e 384B     		ldr	r3, .L109
 1560 0060 1868     		ldr	r0, [r3]
 558:Drivers/lvgl/src/core/lv_refr.c ****                     *new_area = res[j];
 1561              		.loc 1 558 32 discriminator 3 view .LVU522
 1562 0062 2946     		mov	r1, r5
 1563 0064 00F5AC70 		add	r0, r0, #344
 1564 0068 FFF7FEFF 		bl	_lv_ll_ins_prev
ARM GAS  /var/folders/0z/tsy30v1j4xl4_7kw94k978ww0000gn/T//ccRTPM70.s 			page 60


 1565              	.LVL141:
 1566 006c 0246     		mov	r2, r0
 1567              	.LVL142:
 559:Drivers/lvgl/src/core/lv_refr.c ****                 }
 1568              		.loc 1 559 21 is_stmt 1 discriminator 3 view .LVU523
 559:Drivers/lvgl/src/core/lv_refr.c ****                 }
 1569              		.loc 1 559 31 is_stmt 0 discriminator 3 view .LVU524
 1570 006e 0CAB     		add	r3, sp, #48
 1571 0070 03EBC403 		add	r3, r3, r4, lsl #3
 1572 0074 203B     		subs	r3, r3, #32
 1573 0076 03CB     		ldmia	r3!, {r0, r1}
 1574              	.LVL143:
 559:Drivers/lvgl/src/core/lv_refr.c ****                 }
 1575              		.loc 1 559 31 discriminator 3 view .LVU525
 1576 0078 1060     		str	r0, [r2]	@ unaligned
 1577 007a 5160     		str	r1, [r2, #4]	@ unaligned
 557:Drivers/lvgl/src/core/lv_refr.c ****                     new_area = _lv_ll_ins_prev(&disp_refr->sync_areas, sync_area);
 1578              		.loc 1 557 40 is_stmt 1 discriminator 3 view .LVU526
 1579 007c 0134     		adds	r4, r4, #1
 1580              	.LVL144:
 557:Drivers/lvgl/src/core/lv_refr.c ****                     new_area = _lv_ll_ins_prev(&disp_refr->sync_areas, sync_area);
 1581              		.loc 1 557 40 is_stmt 0 discriminator 3 view .LVU527
 1582 007e 64B2     		sxtb	r4, r4
 1583              	.LVL145:
 1584              	.L93:
 557:Drivers/lvgl/src/core/lv_refr.c ****                     new_area = _lv_ll_ins_prev(&disp_refr->sync_areas, sync_area);
 1585              		.loc 1 557 30 is_stmt 1 discriminator 1 view .LVU528
 1586 0080 B442     		cmp	r4, r6
 1587 0082 ECDB     		blt	.L95
 561:Drivers/lvgl/src/core/lv_refr.c ****                 lv_mem_free(sync_area);
 1588              		.loc 1 561 17 view .LVU529
 561:Drivers/lvgl/src/core/lv_refr.c ****                 lv_mem_free(sync_area);
 1589              		.loc 1 561 41 is_stmt 0 view .LVU530
 1590 0084 2E4B     		ldr	r3, .L109
 1591 0086 1868     		ldr	r0, [r3]
 561:Drivers/lvgl/src/core/lv_refr.c ****                 lv_mem_free(sync_area);
 1592              		.loc 1 561 17 view .LVU531
 1593 0088 2946     		mov	r1, r5
 1594 008a 00F5AC70 		add	r0, r0, #344
 1595 008e FFF7FEFF 		bl	_lv_ll_remove
 1596              	.LVL146:
 562:Drivers/lvgl/src/core/lv_refr.c ****             }
 1597              		.loc 1 562 17 is_stmt 1 view .LVU532
 1598 0092 2846     		mov	r0, r5
 1599 0094 FFF7FEFF 		bl	lv_mem_free
 1600              	.LVL147:
 1601              	.L94:
 557:Drivers/lvgl/src/core/lv_refr.c ****                     new_area = _lv_ll_ins_prev(&disp_refr->sync_areas, sync_area);
 1602              		.loc 1 557 23 is_stmt 0 view .LVU533
 1603 0098 3D46     		mov	r5, r7
 1604              	.LVL148:
 1605              	.L92:
 547:Drivers/lvgl/src/core/lv_refr.c ****             /*Get next sync area*/
 1606              		.loc 1 547 25 is_stmt 1 view .LVU534
 1607 009a B5B1     		cbz	r5, .L91
 549:Drivers/lvgl/src/core/lv_refr.c **** 
 1608              		.loc 1 549 13 view .LVU535
ARM GAS  /var/folders/0z/tsy30v1j4xl4_7kw94k978ww0000gn/T//ccRTPM70.s 			page 61


 549:Drivers/lvgl/src/core/lv_refr.c **** 
 1609              		.loc 1 549 51 is_stmt 0 view .LVU536
 1610 009c 284C     		ldr	r4, .L109
 1611 009e 2068     		ldr	r0, [r4]
 549:Drivers/lvgl/src/core/lv_refr.c **** 
 1612              		.loc 1 549 25 view .LVU537
 1613 00a0 2946     		mov	r1, r5
 1614 00a2 00F5AC70 		add	r0, r0, #344
 1615 00a6 FFF7FEFF 		bl	_lv_ll_get_next
 1616              	.LVL149:
 1617 00aa 0746     		mov	r7, r0
 1618              	.LVL150:
 552:Drivers/lvgl/src/core/lv_refr.c **** 
 1619              		.loc 1 552 13 is_stmt 1 view .LVU538
 552:Drivers/lvgl/src/core/lv_refr.c **** 
 1620              		.loc 1 552 61 is_stmt 0 view .LVU539
 1621 00ac 2368     		ldr	r3, [r4]
 552:Drivers/lvgl/src/core/lv_refr.c **** 
 1622              		.loc 1 552 51 view .LVU540
 1623 00ae 08F10602 		add	r2, r8, #6
 552:Drivers/lvgl/src/core/lv_refr.c **** 
 1624              		.loc 1 552 21 view .LVU541
 1625 00b2 03EBC202 		add	r2, r3, r2, lsl #3
 1626 00b6 2946     		mov	r1, r5
 1627 00b8 04A8     		add	r0, sp, #16
 1628              	.LVL151:
 552:Drivers/lvgl/src/core/lv_refr.c **** 
 1629              		.loc 1 552 21 view .LVU542
 1630 00ba FFF7FEFF 		bl	_lv_area_diff
 1631              	.LVL152:
 1632 00be 0646     		mov	r6, r0
 1633              	.LVL153:
 555:Drivers/lvgl/src/core/lv_refr.c ****                 /*Replace old sync area with new areas*/
 1634              		.loc 1 555 13 is_stmt 1 view .LVU543
 555:Drivers/lvgl/src/core/lv_refr.c ****                 /*Replace old sync area with new areas*/
 1635              		.loc 1 555 15 is_stmt 0 view .LVU544
 1636 00c0 B0F1FF3F 		cmp	r0, #-1
 1637 00c4 E8D0     		beq	.L94
 557:Drivers/lvgl/src/core/lv_refr.c ****                     new_area = _lv_ll_ins_prev(&disp_refr->sync_areas, sync_area);
 1638              		.loc 1 557 23 view .LVU545
 1639 00c6 0024     		movs	r4, #0
 1640 00c8 DAE7     		b	.L93
 1641              	.LVL154:
 1642              	.L91:
 541:Drivers/lvgl/src/core/lv_refr.c ****         /*Skip joined areas*/
 1643              		.loc 1 541 39 is_stmt 1 discriminator 2 view .LVU546
 1644 00ca 08F10108 		add	r8, r8, #1
 1645              	.LVL155:
 1646              	.L90:
 541:Drivers/lvgl/src/core/lv_refr.c ****         /*Skip joined areas*/
 1647              		.loc 1 541 18 discriminator 1 view .LVU547
 541:Drivers/lvgl/src/core/lv_refr.c ****         /*Skip joined areas*/
 1648              		.loc 1 541 29 is_stmt 0 discriminator 1 view .LVU548
 1649 00ce 1C4B     		ldr	r3, .L109
 1650 00d0 1868     		ldr	r0, [r3]
 1651 00d2 B0F85031 		ldrh	r3, [r0, #336]
 541:Drivers/lvgl/src/core/lv_refr.c ****         /*Skip joined areas*/
ARM GAS  /var/folders/0z/tsy30v1j4xl4_7kw94k978ww0000gn/T//ccRTPM70.s 			page 62


 1652              		.loc 1 541 18 discriminator 1 view .LVU549
 1653 00d6 4345     		cmp	r3, r8
 1654 00d8 0BD9     		bls	.L107
 543:Drivers/lvgl/src/core/lv_refr.c **** 
 1655              		.loc 1 543 9 is_stmt 1 view .LVU550
 543:Drivers/lvgl/src/core/lv_refr.c **** 
 1656              		.loc 1 543 38 is_stmt 0 view .LVU551
 1657 00da 00EB0803 		add	r3, r0, r8
 1658 00de 93F83031 		ldrb	r3, [r3, #304]	@ zero_extendqisi2
 543:Drivers/lvgl/src/core/lv_refr.c **** 
 1659              		.loc 1 543 11 view .LVU552
 1660 00e2 002B     		cmp	r3, #0
 1661 00e4 F1D1     		bne	.L91
 546:Drivers/lvgl/src/core/lv_refr.c ****         while(sync_area != NULL) {
 1662              		.loc 1 546 9 is_stmt 1 view .LVU553
 546:Drivers/lvgl/src/core/lv_refr.c ****         while(sync_area != NULL) {
 1663              		.loc 1 546 21 is_stmt 0 view .LVU554
 1664 00e6 00F5AC70 		add	r0, r0, #344
 1665 00ea FFF7FEFF 		bl	_lv_ll_get_head
 1666              	.LVL156:
 1667 00ee 0546     		mov	r5, r0
 1668              	.LVL157:
 547:Drivers/lvgl/src/core/lv_refr.c ****             /*Get next sync area*/
 1669              		.loc 1 547 9 is_stmt 1 view .LVU555
 547:Drivers/lvgl/src/core/lv_refr.c ****             /*Get next sync area*/
 1670              		.loc 1 547 14 is_stmt 0 view .LVU556
 1671 00f0 D3E7     		b	.L92
 1672              	.LVL158:
 1673              	.L107:
 571:Drivers/lvgl/src/core/lv_refr.c ****         sync_area = _lv_ll_get_next(&disp_refr->sync_areas, sync_area)) {
 1674              		.loc 1 571 5 is_stmt 1 view .LVU557
 571:Drivers/lvgl/src/core/lv_refr.c ****         sync_area = _lv_ll_get_next(&disp_refr->sync_areas, sync_area)) {
 1675              		.loc 1 571 21 is_stmt 0 view .LVU558
 1676 00f2 00F5AC70 		add	r0, r0, #344
 1677 00f6 FFF7FEFF 		bl	_lv_ll_get_head
 1678              	.LVL159:
 1679 00fa 0446     		mov	r4, r0
 1680              	.LVL160:
 1681              	.L98:
 571:Drivers/lvgl/src/core/lv_refr.c ****         sync_area = _lv_ll_get_next(&disp_refr->sync_areas, sync_area)) {
 1682              		.loc 1 571 72 is_stmt 1 discriminator 1 view .LVU559
 1683 00fc ACB1     		cbz	r4, .L108
 573:Drivers/lvgl/src/core/lv_refr.c ****             disp_refr->driver->draw_ctx,
 1684              		.loc 1 573 9 view .LVU560
 573:Drivers/lvgl/src/core/lv_refr.c ****             disp_refr->driver->draw_ctx,
 1685              		.loc 1 573 18 is_stmt 0 view .LVU561
 1686 00fe 104D     		ldr	r5, .L109
 1687 0100 2B68     		ldr	r3, [r5]
 1688 0102 1B68     		ldr	r3, [r3]
 573:Drivers/lvgl/src/core/lv_refr.c ****             disp_refr->driver->draw_ctx,
 1689              		.loc 1 573 26 view .LVU562
 1690 0104 D86B     		ldr	r0, [r3, #60]
 1691              	.LVL161:
 573:Drivers/lvgl/src/core/lv_refr.c ****             disp_refr->driver->draw_ctx,
 1692              		.loc 1 573 36 view .LVU563
 1693 0106 866B     		ldr	r6, [r0, #56]
 573:Drivers/lvgl/src/core/lv_refr.c ****             disp_refr->driver->draw_ctx,
ARM GAS  /var/folders/0z/tsy30v1j4xl4_7kw94k978ww0000gn/T//ccRTPM70.s 			page 63


 1694              		.loc 1 573 9 view .LVU564
 1695 0108 0294     		str	r4, [sp, #8]
 1696 010a CDF80490 		str	r9, [sp, #4]
 1697 010e CDF800A0 		str	r10, [sp]
 1698 0112 2346     		mov	r3, r4
 1699 0114 4A46     		mov	r2, r9
 1700 0116 5946     		mov	r1, fp
 1701 0118 B047     		blx	r6
 1702              	.LVL162:
 572:Drivers/lvgl/src/core/lv_refr.c ****         disp_refr->driver->draw_ctx->buffer_copy(
 1703              		.loc 1 572 19 is_stmt 1 view .LVU565
 572:Drivers/lvgl/src/core/lv_refr.c ****         disp_refr->driver->draw_ctx->buffer_copy(
 1704              		.loc 1 572 47 is_stmt 0 view .LVU566
 1705 011a 2868     		ldr	r0, [r5]
 572:Drivers/lvgl/src/core/lv_refr.c ****         disp_refr->driver->draw_ctx->buffer_copy(
 1706              		.loc 1 572 21 view .LVU567
 1707 011c 2146     		mov	r1, r4
 1708 011e 00F5AC70 		add	r0, r0, #344
 1709 0122 FFF7FEFF 		bl	_lv_ll_get_next
 1710              	.LVL163:
 1711 0126 0446     		mov	r4, r0
 1712              	.LVL164:
 572:Drivers/lvgl/src/core/lv_refr.c ****         disp_refr->driver->draw_ctx->buffer_copy(
 1713              		.loc 1 572 21 view .LVU568
 1714 0128 E8E7     		b	.L98
 1715              	.L108:
 581:Drivers/lvgl/src/core/lv_refr.c **** }
 1716              		.loc 1 581 5 is_stmt 1 view .LVU569
 581:Drivers/lvgl/src/core/lv_refr.c **** }
 1717              		.loc 1 581 28 is_stmt 0 view .LVU570
 1718 012a 054B     		ldr	r3, .L109
 1719 012c 1868     		ldr	r0, [r3]
 1720              	.LVL165:
 581:Drivers/lvgl/src/core/lv_refr.c **** }
 1721              		.loc 1 581 5 view .LVU571
 1722 012e 00F5AC70 		add	r0, r0, #344
 1723 0132 FFF7FEFF 		bl	_lv_ll_clear
 1724              	.LVL166:
 1725              	.L87:
 582:Drivers/lvgl/src/core/lv_refr.c **** 
 1726              		.loc 1 582 1 view .LVU572
 1727 0136 0DB0     		add	sp, sp, #52
 1728              		.cfi_def_cfa_offset 36
 1729              		@ sp needed
 1730 0138 BDE8F08F 		pop	{r4, r5, r6, r7, r8, r9, r10, fp, pc}
 1731              	.L103:
 1732              		.cfi_def_cfa_offset 0
 1733              		.cfi_restore 4
 1734              		.cfi_restore 5
 1735              		.cfi_restore 6
 1736              		.cfi_restore 7
 1737              		.cfi_restore 8
 1738              		.cfi_restore 9
 1739              		.cfi_restore 10
 1740              		.cfi_restore 11
 1741              		.cfi_restore 14
 1742 013c 7047     		bx	lr
ARM GAS  /var/folders/0z/tsy30v1j4xl4_7kw94k978ww0000gn/T//ccRTPM70.s 			page 64


 1743              	.L110:
 1744 013e 00BF     		.align	2
 1745              	.L109:
 1746 0140 00000000 		.word	.LANCHOR0
 1747              		.cfi_endproc
 1748              	.LFE177:
 1750              		.section	.text.draw_buf_rotate,"ax",%progbits
 1751              		.align	1
 1752              		.syntax unified
 1753              		.thumb
 1754              		.thumb_func
 1756              	draw_buf_rotate:
 1757              	.LVL167:
 1758              	.LFB191:
1184:Drivers/lvgl/src/core/lv_refr.c ****     lv_disp_drv_t * drv = disp_refr->driver;
 1759              		.loc 1 1184 1 is_stmt 1 view -0
 1760              		.cfi_startproc
 1761              		@ args = 0, pretend = 0, frame = 32
 1762              		@ frame_needed = 0, uses_anonymous_args = 0
1184:Drivers/lvgl/src/core/lv_refr.c ****     lv_disp_drv_t * drv = disp_refr->driver;
 1763              		.loc 1 1184 1 is_stmt 0 view .LVU574
 1764 0000 2DE9F04F 		push	{r4, r5, r6, r7, r8, r9, r10, fp, lr}
 1765              		.cfi_def_cfa_offset 36
 1766              		.cfi_offset 4, -36
 1767              		.cfi_offset 5, -32
 1768              		.cfi_offset 6, -28
 1769              		.cfi_offset 7, -24
 1770              		.cfi_offset 8, -20
 1771              		.cfi_offset 9, -16
 1772              		.cfi_offset 10, -12
 1773              		.cfi_offset 11, -8
 1774              		.cfi_offset 14, -4
 1775 0004 8BB0     		sub	sp, sp, #44
 1776              		.cfi_def_cfa_offset 80
 1777 0006 8046     		mov	r8, r0
 1778 0008 0F46     		mov	r7, r1
1185:Drivers/lvgl/src/core/lv_refr.c ****     if(disp_refr->driver->full_refresh && drv->sw_rotate) {
 1779              		.loc 1 1185 5 is_stmt 1 view .LVU575
1185:Drivers/lvgl/src/core/lv_refr.c ****     if(disp_refr->driver->full_refresh && drv->sw_rotate) {
 1780              		.loc 1 1185 36 is_stmt 0 view .LVU576
 1781 000a 844B     		ldr	r3, .L142
 1782 000c 1868     		ldr	r0, [r3]
 1783              	.LVL168:
1185:Drivers/lvgl/src/core/lv_refr.c ****     if(disp_refr->driver->full_refresh && drv->sw_rotate) {
 1784              		.loc 1 1185 21 view .LVU577
 1785 000e 0468     		ldr	r4, [r0]
 1786              	.LVL169:
1186:Drivers/lvgl/src/core/lv_refr.c ****         LV_LOG_ERROR("cannot rotate a full refreshed display!");
 1787              		.loc 1 1186 5 is_stmt 1 view .LVU578
1186:Drivers/lvgl/src/core/lv_refr.c ****         LV_LOG_ERROR("cannot rotate a full refreshed display!");
 1788              		.loc 1 1186 8 is_stmt 0 view .LVU579
 1789 0010 237C     		ldrb	r3, [r4, #16]	@ zero_extendqisi2
1186:Drivers/lvgl/src/core/lv_refr.c ****         LV_LOG_ERROR("cannot rotate a full refreshed display!");
 1790              		.loc 1 1186 7 view .LVU580
 1791 0012 13F0020F 		tst	r3, #2
 1792 0016 02D0     		beq	.L112
1186:Drivers/lvgl/src/core/lv_refr.c ****         LV_LOG_ERROR("cannot rotate a full refreshed display!");
ARM GAS  /var/folders/0z/tsy30v1j4xl4_7kw94k978ww0000gn/T//ccRTPM70.s 			page 65


 1793              		.loc 1 1186 40 discriminator 1 view .LVU581
 1794 0018 13F0040F 		tst	r3, #4
 1795 001c 07D1     		bne	.L111
 1796              	.L112:
1190:Drivers/lvgl/src/core/lv_refr.c ****         draw_buf_rotate_180(drv, area, color_p);
 1797              		.loc 1 1190 5 is_stmt 1 view .LVU582
1190:Drivers/lvgl/src/core/lv_refr.c ****         draw_buf_rotate_180(drv, area, color_p);
 1798              		.loc 1 1190 21 is_stmt 0 view .LVU583
 1799 001e 03F03003 		and	r3, r3, #48
1190:Drivers/lvgl/src/core/lv_refr.c ****         draw_buf_rotate_180(drv, area, color_p);
 1800              		.loc 1 1190 7 view .LVU584
 1801 0022 202B     		cmp	r3, #32
 1802 0024 06D0     		beq	.L133
1194:Drivers/lvgl/src/core/lv_refr.c ****         /*Allocate a temporary buffer to store rotated image*/
 1803              		.loc 1 1194 10 is_stmt 1 view .LVU585
1194:Drivers/lvgl/src/core/lv_refr.c ****         /*Allocate a temporary buffer to store rotated image*/
 1804              		.loc 1 1194 12 is_stmt 0 view .LVU586
 1805 0026 102B     		cmp	r3, #16
 1806 0028 0FD0     		beq	.L115
1194:Drivers/lvgl/src/core/lv_refr.c ****         /*Allocate a temporary buffer to store rotated image*/
 1807              		.loc 1 1194 44 discriminator 1 view .LVU587
 1808 002a 302B     		cmp	r3, #48
 1809 002c 0DD0     		beq	.L115
 1810              	.LVL170:
 1811              	.L111:
1267:Drivers/lvgl/src/core/lv_refr.c **** 
 1812              		.loc 1 1267 1 view .LVU588
 1813 002e 0BB0     		add	sp, sp, #44
 1814              		.cfi_remember_state
 1815              		.cfi_def_cfa_offset 36
 1816              		@ sp needed
 1817 0030 BDE8F08F 		pop	{r4, r5, r6, r7, r8, r9, r10, fp, pc}
 1818              	.LVL171:
 1819              	.L133:
 1820              		.cfi_restore_state
1191:Drivers/lvgl/src/core/lv_refr.c ****         call_flush_cb(drv, area, color_p);
 1821              		.loc 1 1191 9 is_stmt 1 view .LVU589
 1822 0034 3A46     		mov	r2, r7
 1823 0036 4146     		mov	r1, r8
 1824              	.LVL172:
1191:Drivers/lvgl/src/core/lv_refr.c ****         call_flush_cb(drv, area, color_p);
 1825              		.loc 1 1191 9 is_stmt 0 view .LVU590
 1826 0038 2046     		mov	r0, r4
 1827 003a FFF7FEFF 		bl	draw_buf_rotate_180
 1828              	.LVL173:
1192:Drivers/lvgl/src/core/lv_refr.c ****     }
 1829              		.loc 1 1192 9 is_stmt 1 view .LVU591
 1830 003e 3A46     		mov	r2, r7
 1831 0040 4146     		mov	r1, r8
 1832 0042 2046     		mov	r0, r4
 1833 0044 FFF7FEFF 		bl	call_flush_cb
 1834              	.LVL174:
 1835 0048 F1E7     		b	.L111
 1836              	.LVL175:
 1837              	.L115:
 1838              	.LBB103:
1196:Drivers/lvgl/src/core/lv_refr.c ****         lv_disp_draw_buf_t * draw_buf = lv_disp_get_draw_buf(disp_refr);
ARM GAS  /var/folders/0z/tsy30v1j4xl4_7kw94k978ww0000gn/T//ccRTPM70.s 			page 66


 1839              		.loc 1 1196 9 view .LVU592
1197:Drivers/lvgl/src/core/lv_refr.c ****         lv_coord_t area_w = lv_area_get_width(area);
 1840              		.loc 1 1197 9 view .LVU593
1197:Drivers/lvgl/src/core/lv_refr.c ****         lv_coord_t area_w = lv_area_get_width(area);
 1841              		.loc 1 1197 41 is_stmt 0 view .LVU594
 1842 004a FFF7FEFF 		bl	lv_disp_get_draw_buf
 1843              	.LVL176:
1197:Drivers/lvgl/src/core/lv_refr.c ****         lv_coord_t area_w = lv_area_get_width(area);
 1844              		.loc 1 1197 41 view .LVU595
 1845 004e 0546     		mov	r5, r0
 1846              	.LVL177:
1198:Drivers/lvgl/src/core/lv_refr.c ****         lv_coord_t area_h = lv_area_get_height(area);
 1847              		.loc 1 1198 9 is_stmt 1 view .LVU596
 1848              	.LBB104:
 1849              	.LBI104:
 123:Drivers/lvgl/src/core/../misc/../font/../misc/lv_area.h **** {
 1850              		.loc 2 123 26 view .LVU597
 1851              	.LBB105:
 125:Drivers/lvgl/src/core/../misc/../font/../misc/lv_area.h **** }
 1852              		.loc 2 125 5 view .LVU598
 125:Drivers/lvgl/src/core/../misc/../font/../misc/lv_area.h **** }
 1853              		.loc 2 125 31 is_stmt 0 view .LVU599
 1854 0050 B8F80430 		ldrh	r3, [r8, #4]
 125:Drivers/lvgl/src/core/../misc/../font/../misc/lv_area.h **** }
 1855              		.loc 2 125 44 view .LVU600
 1856 0054 B8F90010 		ldrsh	r1, [r8]
 1857 0058 8AB2     		uxth	r2, r1
 125:Drivers/lvgl/src/core/../misc/../font/../misc/lv_area.h **** }
 1858              		.loc 2 125 36 view .LVU601
 1859 005a 9B1A     		subs	r3, r3, r2
 1860 005c 9BB2     		uxth	r3, r3
 125:Drivers/lvgl/src/core/../misc/../font/../misc/lv_area.h **** }
 1861              		.loc 2 125 49 view .LVU602
 1862 005e 0133     		adds	r3, r3, #1
 1863 0060 98B2     		uxth	r0, r3
 1864              	.LVL178:
 125:Drivers/lvgl/src/core/../misc/../font/../misc/lv_area.h **** }
 1865              		.loc 2 125 49 view .LVU603
 1866 0062 0890     		str	r0, [sp, #32]
 125:Drivers/lvgl/src/core/../misc/../font/../misc/lv_area.h **** }
 1867              		.loc 2 125 12 view .LVU604
 1868 0064 18B2     		sxth	r0, r3
 1869 0066 0490     		str	r0, [sp, #16]
 1870              	.LVL179:
 125:Drivers/lvgl/src/core/../misc/../font/../misc/lv_area.h **** }
 1871              		.loc 2 125 12 view .LVU605
 1872              	.LBE105:
 1873              	.LBE104:
1199:Drivers/lvgl/src/core/lv_refr.c ****         /*Determine the maximum number of rows that can be rotated at a time*/
 1874              		.loc 1 1199 9 is_stmt 1 view .LVU606
 1875              	.LBB106:
 1876              	.LBI106:
 133:Drivers/lvgl/src/core/../misc/../font/../misc/lv_area.h **** {
 1877              		.loc 2 133 26 view .LVU607
 1878              	.LBB107:
 1879              		.loc 2 135 5 view .LVU608
 1880              		.loc 2 135 31 is_stmt 0 view .LVU609
ARM GAS  /var/folders/0z/tsy30v1j4xl4_7kw94k978ww0000gn/T//ccRTPM70.s 			page 67


 1881 0068 B8F806A0 		ldrh	r10, [r8, #6]
 1882              		.loc 2 135 44 view .LVU610
 1883 006c B8F90230 		ldrsh	r3, [r8, #2]
 1884 0070 0993     		str	r3, [sp, #36]
 1885 0072 9BB2     		uxth	r3, r3
 1886 0074 0793     		str	r3, [sp, #28]
 1887              		.loc 2 135 36 view .LVU611
 1888 0076 AAEB030A 		sub	r10, r10, r3
 1889 007a 1FFA8AFA 		uxth	r10, r10
 1890              		.loc 2 135 49 view .LVU612
 1891 007e 0AF1010A 		add	r10, r10, #1
 1892              		.loc 2 135 12 view .LVU613
 1893 0082 0FFA8AFA 		sxth	r10, r10
 1894              	.LVL180:
 1895              		.loc 2 135 12 view .LVU614
 1896              	.LBE107:
 1897              	.LBE106:
1201:Drivers/lvgl/src/core/lv_refr.c ****         lv_coord_t init_y_off;
 1898              		.loc 1 1201 9 is_stmt 1 view .LVU615
1201:Drivers/lvgl/src/core/lv_refr.c ****         lv_coord_t init_y_off;
 1899              		.loc 1 1201 30 is_stmt 0 view .LVU616
 1900 0086 4FF4A053 		mov	r3, #5120
 1901 008a B3FBF0F3 		udiv	r3, r3, r0
1201:Drivers/lvgl/src/core/lv_refr.c ****         lv_coord_t init_y_off;
 1902              		.loc 1 1201 20 view .LVU617
 1903 008e 5345     		cmp	r3, r10
 1904 0090 A8BF     		it	ge
 1905 0092 5346     		movge	r3, r10
 1906 0094 0693     		str	r3, [sp, #24]
 1907              	.LVL181:
1202:Drivers/lvgl/src/core/lv_refr.c ****         init_y_off = area->y1;
 1908              		.loc 1 1202 9 is_stmt 1 view .LVU618
1203:Drivers/lvgl/src/core/lv_refr.c ****         if(drv->rotated == LV_DISP_ROT_90) {
 1909              		.loc 1 1203 9 view .LVU619
1204:Drivers/lvgl/src/core/lv_refr.c ****             area->y2 = drv->ver_res - area->x1 - 1;
 1910              		.loc 1 1204 9 view .LVU620
1204:Drivers/lvgl/src/core/lv_refr.c ****             area->y2 = drv->ver_res - area->x1 - 1;
 1911              		.loc 1 1204 25 is_stmt 0 view .LVU621
 1912 0096 237C     		ldrb	r3, [r4, #16]	@ zero_extendqisi2
 1913 0098 03F03003 		and	r3, r3, #48
1204:Drivers/lvgl/src/core/lv_refr.c ****             area->y2 = drv->ver_res - area->x1 - 1;
 1914              		.loc 1 1204 11 view .LVU622
 1915 009c 102B     		cmp	r3, #16
 1916 009e 0BD0     		beq	.L134
1209:Drivers/lvgl/src/core/lv_refr.c ****             area->y2 = area->y1 + area_w - 1;
 1917              		.loc 1 1209 13 is_stmt 1 view .LVU623
1209:Drivers/lvgl/src/core/lv_refr.c ****             area->y2 = area->y1 + area_w - 1;
 1918              		.loc 1 1209 22 is_stmt 0 view .LVU624
 1919 00a0 A8F80210 		strh	r1, [r8, #2]	@ movhi
1210:Drivers/lvgl/src/core/lv_refr.c ****         }
 1920              		.loc 1 1210 13 is_stmt 1 view .LVU625
1210:Drivers/lvgl/src/core/lv_refr.c ****         }
 1921              		.loc 1 1210 33 is_stmt 0 view .LVU626
 1922 00a4 089B     		ldr	r3, [sp, #32]
 1923 00a6 D318     		adds	r3, r2, r3
 1924 00a8 9BB2     		uxth	r3, r3
1210:Drivers/lvgl/src/core/lv_refr.c ****         }
ARM GAS  /var/folders/0z/tsy30v1j4xl4_7kw94k978ww0000gn/T//ccRTPM70.s 			page 68


 1925              		.loc 1 1210 42 view .LVU627
 1926 00aa 013B     		subs	r3, r3, #1
1210:Drivers/lvgl/src/core/lv_refr.c ****         }
 1927              		.loc 1 1210 22 view .LVU628
 1928 00ac A8F80630 		strh	r3, [r8, #6]	@ movhi
 1929              	.L118:
 1930              	.LBB108:
1256:Drivers/lvgl/src/core/lv_refr.c ****             /*FIXME: Rotation forces legacy behavior where rendering and flushing are done serially
 1931              		.loc 1 1256 13 view .LVU629
 1932 00b0 0026     		movs	r6, #0
 1933 00b2 0396     		str	r6, [sp, #12]
 1934 00b4 BB46     		mov	fp, r7
 1935 00b6 62E0     		b	.L117
 1936              	.L134:
1256:Drivers/lvgl/src/core/lv_refr.c ****             /*FIXME: Rotation forces legacy behavior where rendering and flushing are done serially
 1937              		.loc 1 1256 13 view .LVU630
 1938              	.LBE108:
1205:Drivers/lvgl/src/core/lv_refr.c ****             area->y1 = area->y2 - area_w + 1;
 1939              		.loc 1 1205 13 is_stmt 1 view .LVU631
1205:Drivers/lvgl/src/core/lv_refr.c ****             area->y1 = area->y2 - area_w + 1;
 1940              		.loc 1 1205 27 is_stmt 0 view .LVU632
 1941 00b8 6388     		ldrh	r3, [r4, #2]
1205:Drivers/lvgl/src/core/lv_refr.c ****             area->y1 = area->y2 - area_w + 1;
 1942              		.loc 1 1205 37 view .LVU633
 1943 00ba 9B1A     		subs	r3, r3, r2
 1944 00bc 9BB2     		uxth	r3, r3
1205:Drivers/lvgl/src/core/lv_refr.c ****             area->y1 = area->y2 - area_w + 1;
 1945              		.loc 1 1205 48 view .LVU634
 1946 00be 013B     		subs	r3, r3, #1
 1947 00c0 9AB2     		uxth	r2, r3
1205:Drivers/lvgl/src/core/lv_refr.c ****             area->y1 = area->y2 - area_w + 1;
 1948              		.loc 1 1205 22 view .LVU635
 1949 00c2 A8F80630 		strh	r3, [r8, #6]	@ movhi
1206:Drivers/lvgl/src/core/lv_refr.c ****         }
 1950              		.loc 1 1206 13 is_stmt 1 view .LVU636
1206:Drivers/lvgl/src/core/lv_refr.c ****         }
 1951              		.loc 1 1206 33 is_stmt 0 view .LVU637
 1952 00c6 089B     		ldr	r3, [sp, #32]
 1953 00c8 D31A     		subs	r3, r2, r3
 1954 00ca 9BB2     		uxth	r3, r3
1206:Drivers/lvgl/src/core/lv_refr.c ****         }
 1955              		.loc 1 1206 42 view .LVU638
 1956 00cc 0133     		adds	r3, r3, #1
1206:Drivers/lvgl/src/core/lv_refr.c ****         }
 1957              		.loc 1 1206 22 view .LVU639
 1958 00ce A8F80230 		strh	r3, [r8, #2]	@ movhi
 1959 00d2 EDE7     		b	.L118
 1960              	.LVL182:
 1961              	.L139:
 1962              	.LBB109:
1220:Drivers/lvgl/src/core/lv_refr.c ****                 draw_buf_rotate_90_sqr(drv->rotated == LV_DISP_ROT_270, area_w, color_p);
 1963              		.loc 1 1220 17 is_stmt 1 view .LVU640
1221:Drivers/lvgl/src/core/lv_refr.c ****                 if(drv->rotated == LV_DISP_ROT_90) {
 1964              		.loc 1 1221 17 view .LVU641
1221:Drivers/lvgl/src/core/lv_refr.c ****                 if(drv->rotated == LV_DISP_ROT_90) {
 1965              		.loc 1 1221 53 is_stmt 0 view .LVU642
 1966 00d4 207C     		ldrb	r0, [r4, #16]	@ zero_extendqisi2
ARM GAS  /var/folders/0z/tsy30v1j4xl4_7kw94k978ww0000gn/T//ccRTPM70.s 			page 69


1221:Drivers/lvgl/src/core/lv_refr.c ****                 if(drv->rotated == LV_DISP_ROT_90) {
 1967              		.loc 1 1221 17 view .LVU643
 1968 00d6 00F03000 		and	r0, r0, #48
 1969 00da 5A46     		mov	r2, fp
 1970 00dc 1946     		mov	r1, r3
 1971 00de 3028     		cmp	r0, #48
 1972 00e0 14BF     		ite	ne
 1973 00e2 0020     		movne	r0, #0
 1974 00e4 0120     		moveq	r0, #1
 1975 00e6 FFF7FEFF 		bl	draw_buf_rotate_90_sqr
 1976              	.LVL183:
1222:Drivers/lvgl/src/core/lv_refr.c ****                     area->x1 = init_y_off;
 1977              		.loc 1 1222 17 is_stmt 1 view .LVU644
1222:Drivers/lvgl/src/core/lv_refr.c ****                     area->x1 = init_y_off;
 1978              		.loc 1 1222 33 is_stmt 0 view .LVU645
 1979 00ea 237C     		ldrb	r3, [r4, #16]	@ zero_extendqisi2
 1980 00ec 03F03003 		and	r3, r3, #48
1222:Drivers/lvgl/src/core/lv_refr.c ****                     area->x1 = init_y_off;
 1981              		.loc 1 1222 19 view .LVU646
 1982 00f0 102B     		cmp	r3, #16
 1983 00f2 0ED0     		beq	.L135
1227:Drivers/lvgl/src/core/lv_refr.c ****                     area->x1 = area->x2 - area_w + 1;
 1984              		.loc 1 1227 21 is_stmt 1 view .LVU647
1227:Drivers/lvgl/src/core/lv_refr.c ****                     area->x1 = area->x2 - area_w + 1;
 1985              		.loc 1 1227 35 is_stmt 0 view .LVU648
 1986 00f4 2288     		ldrh	r2, [r4]
1227:Drivers/lvgl/src/core/lv_refr.c ****                     area->x1 = area->x2 - area_w + 1;
 1987              		.loc 1 1227 49 view .LVU649
 1988 00f6 079B     		ldr	r3, [sp, #28]
 1989 00f8 D21A     		subs	r2, r2, r3
 1990 00fa 013A     		subs	r2, r2, #1
 1991 00fc 93B2     		uxth	r3, r2
1227:Drivers/lvgl/src/core/lv_refr.c ****                     area->x1 = area->x2 - area_w + 1;
 1992              		.loc 1 1227 30 view .LVU650
 1993 00fe A8F80420 		strh	r2, [r8, #4]	@ movhi
1228:Drivers/lvgl/src/core/lv_refr.c ****                 }
 1994              		.loc 1 1228 21 is_stmt 1 view .LVU651
1228:Drivers/lvgl/src/core/lv_refr.c ****                 }
 1995              		.loc 1 1228 41 is_stmt 0 view .LVU652
 1996 0102 089A     		ldr	r2, [sp, #32]
 1997 0104 9B1A     		subs	r3, r3, r2
 1998 0106 9BB2     		uxth	r3, r3
1228:Drivers/lvgl/src/core/lv_refr.c ****                 }
 1999              		.loc 1 1228 50 view .LVU653
 2000 0108 0133     		adds	r3, r3, #1
1228:Drivers/lvgl/src/core/lv_refr.c ****                 }
 2001              		.loc 1 1228 30 view .LVU654
 2002 010a A8F80030 		strh	r3, [r8]	@ movhi
1220:Drivers/lvgl/src/core/lv_refr.c ****                 draw_buf_rotate_90_sqr(drv->rotated == LV_DISP_ROT_270, area_w, color_p);
 2003              		.loc 1 1220 24 view .LVU655
 2004 010e 049F     		ldr	r7, [sp, #16]
 2005 0110 6BE0     		b	.L121
 2006              	.L135:
1223:Drivers/lvgl/src/core/lv_refr.c ****                     area->x2 = init_y_off + area_w - 1;
 2007              		.loc 1 1223 21 is_stmt 1 view .LVU656
1223:Drivers/lvgl/src/core/lv_refr.c ****                     area->x2 = init_y_off + area_w - 1;
 2008              		.loc 1 1223 30 is_stmt 0 view .LVU657
ARM GAS  /var/folders/0z/tsy30v1j4xl4_7kw94k978ww0000gn/T//ccRTPM70.s 			page 70


 2009 0112 099B     		ldr	r3, [sp, #36]
 2010 0114 A8F80030 		strh	r3, [r8]	@ movhi
1224:Drivers/lvgl/src/core/lv_refr.c ****                 }
 2011              		.loc 1 1224 21 is_stmt 1 view .LVU658
1224:Drivers/lvgl/src/core/lv_refr.c ****                 }
 2012              		.loc 1 1224 43 is_stmt 0 view .LVU659
 2013 0118 079B     		ldr	r3, [sp, #28]
 2014 011a 089A     		ldr	r2, [sp, #32]
 2015 011c 1344     		add	r3, r3, r2
 2016 011e 9BB2     		uxth	r3, r3
1224:Drivers/lvgl/src/core/lv_refr.c ****                 }
 2017              		.loc 1 1224 52 view .LVU660
 2018 0120 013B     		subs	r3, r3, #1
1224:Drivers/lvgl/src/core/lv_refr.c ****                 }
 2019              		.loc 1 1224 30 view .LVU661
 2020 0122 A8F80430 		strh	r3, [r8, #4]	@ movhi
1220:Drivers/lvgl/src/core/lv_refr.c ****                 draw_buf_rotate_90_sqr(drv->rotated == LV_DISP_ROT_270, area_w, color_p);
 2021              		.loc 1 1220 24 view .LVU662
 2022 0126 049F     		ldr	r7, [sp, #16]
 2023 0128 5FE0     		b	.L121
 2024              	.LVL184:
 2025              	.L140:
1233:Drivers/lvgl/src/core/lv_refr.c ****                 draw_buf_rotate_90(drv->rotated == LV_DISP_ROT_270, area_w, height, color_p, rot_bu
 2026              		.loc 1 1233 37 is_stmt 1 discriminator 1 view .LVU663
1233:Drivers/lvgl/src/core/lv_refr.c ****                 draw_buf_rotate_90(drv->rotated == LV_DISP_ROT_270, area_w, height, color_p, rot_bu
 2027              		.loc 1 1233 47 is_stmt 0 discriminator 1 view .LVU664
 2028 012a 4FF42050 		mov	r0, #10240
 2029 012e FFF7FEFF 		bl	lv_mem_buf_get
 2030              	.LVL185:
 2031 0132 0390     		str	r0, [sp, #12]
 2032              	.LVL186:
1233:Drivers/lvgl/src/core/lv_refr.c ****                 draw_buf_rotate_90(drv->rotated == LV_DISP_ROT_270, area_w, height, color_p, rot_bu
 2033              		.loc 1 1233 47 discriminator 1 view .LVU665
 2034 0134 37E0     		b	.L122
 2035              	.LVL187:
 2036              	.L141:
1237:Drivers/lvgl/src/core/lv_refr.c ****                     area->x2 = init_y_off + row + height - 1;
 2037              		.loc 1 1237 21 is_stmt 1 view .LVU666
1237:Drivers/lvgl/src/core/lv_refr.c ****                     area->x2 = init_y_off + row + height - 1;
 2038              		.loc 1 1237 43 is_stmt 0 view .LVU667
 2039 0136 079B     		ldr	r3, [sp, #28]
 2040 0138 3344     		add	r3, r3, r6
1237:Drivers/lvgl/src/core/lv_refr.c ****                     area->x2 = init_y_off + row + height - 1;
 2041              		.loc 1 1237 30 view .LVU668
 2042 013a A8F80030 		strh	r3, [r8]	@ movhi
1238:Drivers/lvgl/src/core/lv_refr.c ****                 }
 2043              		.loc 1 1238 21 is_stmt 1 view .LVU669
1238:Drivers/lvgl/src/core/lv_refr.c ****                 }
 2044              		.loc 1 1238 49 is_stmt 0 view .LVU670
 2045 013e 19FA83F3 		uxtah	r3, r9, r3
 2046 0142 9BB2     		uxth	r3, r3
1238:Drivers/lvgl/src/core/lv_refr.c ****                 }
 2047              		.loc 1 1238 58 view .LVU671
 2048 0144 013B     		subs	r3, r3, #1
1238:Drivers/lvgl/src/core/lv_refr.c ****                 }
 2049              		.loc 1 1238 30 view .LVU672
 2050 0146 A8F80430 		strh	r3, [r8, #4]	@ movhi
ARM GAS  /var/folders/0z/tsy30v1j4xl4_7kw94k978ww0000gn/T//ccRTPM70.s 			page 71


 2051 014a 4EE0     		b	.L121
 2052              	.L124:
1252:Drivers/lvgl/src/core/lv_refr.c ****             }
 2053              		.loc 1 1252 17 is_stmt 1 view .LVU673
1252:Drivers/lvgl/src/core/lv_refr.c ****             }
 2054              		.loc 1 1252 41 is_stmt 0 view .LVU674
 2055 014c 0023     		movs	r3, #0
 2056 014e 6B61     		str	r3, [r5, #20]
 2057              	.L125:
1256:Drivers/lvgl/src/core/lv_refr.c ****             /*FIXME: Rotation forces legacy behavior where rendering and flushing are done serially
 2058              		.loc 1 1256 13 is_stmt 1 view .LVU675
 2059 0150 039A     		ldr	r2, [sp, #12]
 2060 0152 5AB1     		cbz	r2, .L136
 2061              	.L126:
1256:Drivers/lvgl/src/core/lv_refr.c ****             /*FIXME: Rotation forces legacy behavior where rendering and flushing are done serially
 2062              		.loc 1 1256 13 is_stmt 0 discriminator 4 view .LVU676
 2063 0154 4146     		mov	r1, r8
 2064 0156 2046     		mov	r0, r4
 2065 0158 FFF7FEFF 		bl	call_flush_cb
 2066              	.LVL188:
1258:Drivers/lvgl/src/core/lv_refr.c ****                 if(drv->wait_cb) drv->wait_cb(drv);
 2067              		.loc 1 1258 13 is_stmt 1 discriminator 4 view .LVU677
 2068              	.L128:
1258:Drivers/lvgl/src/core/lv_refr.c ****                 if(drv->wait_cb) drv->wait_cb(drv);
 2069              		.loc 1 1258 19 view .LVU678
1258:Drivers/lvgl/src/core/lv_refr.c ****                 if(drv->wait_cb) drv->wait_cb(drv);
 2070              		.loc 1 1258 27 is_stmt 0 view .LVU679
 2071 015c 2B69     		ldr	r3, [r5, #16]
1258:Drivers/lvgl/src/core/lv_refr.c ****                 if(drv->wait_cb) drv->wait_cb(drv);
 2072              		.loc 1 1258 19 view .LVU680
 2073 015e 3BB1     		cbz	r3, .L137
1259:Drivers/lvgl/src/core/lv_refr.c ****             }
 2074              		.loc 1 1259 17 is_stmt 1 view .LVU681
1259:Drivers/lvgl/src/core/lv_refr.c ****             }
 2075              		.loc 1 1259 23 is_stmt 0 view .LVU682
 2076 0160 A36A     		ldr	r3, [r4, #40]
1259:Drivers/lvgl/src/core/lv_refr.c ****             }
 2077              		.loc 1 1259 19 view .LVU683
 2078 0162 002B     		cmp	r3, #0
 2079 0164 FAD0     		beq	.L128
1259:Drivers/lvgl/src/core/lv_refr.c ****             }
 2080              		.loc 1 1259 34 is_stmt 1 discriminator 1 view .LVU684
 2081 0166 2046     		mov	r0, r4
 2082 0168 9847     		blx	r3
 2083              	.LVL189:
 2084 016a F7E7     		b	.L128
 2085              	.L136:
1256:Drivers/lvgl/src/core/lv_refr.c ****             /*FIXME: Rotation forces legacy behavior where rendering and flushing are done serially
 2086              		.loc 1 1256 13 is_stmt 0 view .LVU685
 2087 016c 5A46     		mov	r2, fp
 2088 016e F1E7     		b	.L126
 2089              	.L137:
1261:Drivers/lvgl/src/core/lv_refr.c ****             row += height;
 2090              		.loc 1 1261 13 is_stmt 1 view .LVU686
1261:Drivers/lvgl/src/core/lv_refr.c ****             row += height;
 2091              		.loc 1 1261 31 is_stmt 0 view .LVU687
 2092 0170 049B     		ldr	r3, [sp, #16]
ARM GAS  /var/folders/0z/tsy30v1j4xl4_7kw94k978ww0000gn/T//ccRTPM70.s 			page 72


 2093 0172 09FB03F9 		mul	r9, r9, r3
1261:Drivers/lvgl/src/core/lv_refr.c ****             row += height;
 2094              		.loc 1 1261 21 view .LVU688
 2095 0176 0BEB490B 		add	fp, fp, r9, lsl #1
 2096              	.LVL190:
1262:Drivers/lvgl/src/core/lv_refr.c ****         }
 2097              		.loc 1 1262 13 is_stmt 1 view .LVU689
1262:Drivers/lvgl/src/core/lv_refr.c ****         }
 2098              		.loc 1 1262 17 is_stmt 0 view .LVU690
 2099 017a 3744     		add	r7, r7, r6
 2100              	.LVL191:
1262:Drivers/lvgl/src/core/lv_refr.c ****         }
 2101              		.loc 1 1262 17 view .LVU691
 2102 017c 3EB2     		sxth	r6, r7
 2103              	.LVL192:
 2104              	.L117:
1262:Drivers/lvgl/src/core/lv_refr.c ****         }
 2105              		.loc 1 1262 17 view .LVU692
 2106              	.LBE109:
1215:Drivers/lvgl/src/core/lv_refr.c ****             lv_coord_t height = LV_MIN(max_row, area_h - row);
 2107              		.loc 1 1215 19 is_stmt 1 view .LVU693
 2108 017e 5645     		cmp	r6, r10
 2109 0180 43DA     		bge	.L138
 2110              	.LBB110:
1216:Drivers/lvgl/src/core/lv_refr.c ****             draw_buf->flushing = 1;
 2111              		.loc 1 1216 13 view .LVU694
1216:Drivers/lvgl/src/core/lv_refr.c ****             draw_buf->flushing = 1;
 2112              		.loc 1 1216 33 is_stmt 0 view .LVU695
 2113 0182 0596     		str	r6, [sp, #20]
 2114 0184 AAEB0609 		sub	r9, r10, r6
 2115 0188 069B     		ldr	r3, [sp, #24]
 2116 018a 9945     		cmp	r9, r3
 2117 018c A8BF     		it	ge
 2118 018e 9946     		movge	r9, r3
1216:Drivers/lvgl/src/core/lv_refr.c ****             draw_buf->flushing = 1;
 2119              		.loc 1 1216 24 view .LVU696
 2120 0190 0FFA89F7 		sxth	r7, r9
 2121              	.LVL193:
1217:Drivers/lvgl/src/core/lv_refr.c ****             if((row == 0) && (area_h >= area_w)) {
 2122              		.loc 1 1217 13 is_stmt 1 view .LVU697
1217:Drivers/lvgl/src/core/lv_refr.c ****             if((row == 0) && (area_h >= area_w)) {
 2123              		.loc 1 1217 32 is_stmt 0 view .LVU698
 2124 0194 0123     		movs	r3, #1
 2125 0196 2B61     		str	r3, [r5, #16]
1218:Drivers/lvgl/src/core/lv_refr.c ****                 /*Rotate the initial area as a square*/
 2126              		.loc 1 1218 13 is_stmt 1 view .LVU699
1218:Drivers/lvgl/src/core/lv_refr.c ****                 /*Rotate the initial area as a square*/
 2127              		.loc 1 1218 15 is_stmt 0 view .LVU700
 2128 0198 16B9     		cbnz	r6, .L119
1218:Drivers/lvgl/src/core/lv_refr.c ****                 /*Rotate the initial area as a square*/
 2129              		.loc 1 1218 27 discriminator 1 view .LVU701
 2130 019a 049B     		ldr	r3, [sp, #16]
 2131 019c 9A45     		cmp	r10, r3
 2132 019e 99DA     		bge	.L139
 2133              	.L119:
1233:Drivers/lvgl/src/core/lv_refr.c ****                 draw_buf_rotate_90(drv->rotated == LV_DISP_ROT_270, area_w, height, color_p, rot_bu
 2134              		.loc 1 1233 17 is_stmt 1 view .LVU702
ARM GAS  /var/folders/0z/tsy30v1j4xl4_7kw94k978ww0000gn/T//ccRTPM70.s 			page 73


1233:Drivers/lvgl/src/core/lv_refr.c ****                 draw_buf_rotate_90(drv->rotated == LV_DISP_ROT_270, area_w, height, color_p, rot_bu
 2135              		.loc 1 1233 19 is_stmt 0 view .LVU703
 2136 01a0 039B     		ldr	r3, [sp, #12]
 2137 01a2 002B     		cmp	r3, #0
 2138 01a4 C1D0     		beq	.L140
 2139              	.L122:
1234:Drivers/lvgl/src/core/lv_refr.c **** 
 2140              		.loc 1 1234 17 is_stmt 1 view .LVU704
1234:Drivers/lvgl/src/core/lv_refr.c **** 
 2141              		.loc 1 1234 49 is_stmt 0 view .LVU705
 2142 01a6 207C     		ldrb	r0, [r4, #16]	@ zero_extendqisi2
1234:Drivers/lvgl/src/core/lv_refr.c **** 
 2143              		.loc 1 1234 17 view .LVU706
 2144 01a8 00F03000 		and	r0, r0, #48
 2145 01ac 039B     		ldr	r3, [sp, #12]
 2146 01ae 0093     		str	r3, [sp]
 2147 01b0 5B46     		mov	r3, fp
 2148 01b2 3A46     		mov	r2, r7
 2149 01b4 0499     		ldr	r1, [sp, #16]
 2150 01b6 3028     		cmp	r0, #48
 2151 01b8 14BF     		ite	ne
 2152 01ba 0020     		movne	r0, #0
 2153 01bc 0120     		moveq	r0, #1
 2154 01be FFF7FEFF 		bl	draw_buf_rotate_90
 2155              	.LVL194:
