ARM GAS  /var/folders/0z/tsy30v1j4xl4_7kw94k978ww0000gn/T//ccUX3GBc.s 			page 1


   1              		.cpu cortex-m4
   2              		.arch armv7e-m
   3              		.fpu fpv4-sp-d16
   4              		.eabi_attribute 27, 1
   5              		.eabi_attribute 28, 1
   6              		.eabi_attribute 20, 1
   7              		.eabi_attribute 21, 1
   8              		.eabi_attribute 23, 3
   9              		.eabi_attribute 24, 1
  10              		.eabi_attribute 25, 1
  11              		.eabi_attribute 26, 1
  12              		.eabi_attribute 30, 1
  13              		.eabi_attribute 34, 1
  14              		.eabi_attribute 18, 4
  15              		.file	"lv_roller.c"
  16              		.text
  17              	.Ltext0:
  18              		.cfi_sections	.debug_frame
  19              		.section	.text.set_y_anim,"ax",%progbits
  20              		.align	1
  21              		.syntax unified
  22              		.thumb
  23              		.thumb_func
  25              	set_y_anim:
  26              	.LVL0:
  27              	.LFB181:
  28              		.file 1 "Drivers/lvgl/src/widgets/lv_roller.c"
   1:Drivers/lvgl/src/widgets/lv_roller.c **** /**
   2:Drivers/lvgl/src/widgets/lv_roller.c ****  * @file lv_roller.c
   3:Drivers/lvgl/src/widgets/lv_roller.c ****  *
   4:Drivers/lvgl/src/widgets/lv_roller.c ****  */
   5:Drivers/lvgl/src/widgets/lv_roller.c **** 
   6:Drivers/lvgl/src/widgets/lv_roller.c **** /*********************
   7:Drivers/lvgl/src/widgets/lv_roller.c ****  *      INCLUDES
   8:Drivers/lvgl/src/widgets/lv_roller.c ****  *********************/
   9:Drivers/lvgl/src/widgets/lv_roller.c **** #include "lv_roller.h"
  10:Drivers/lvgl/src/widgets/lv_roller.c **** #if LV_USE_ROLLER != 0
  11:Drivers/lvgl/src/widgets/lv_roller.c **** 
  12:Drivers/lvgl/src/widgets/lv_roller.c **** #include "../misc/lv_assert.h"
  13:Drivers/lvgl/src/widgets/lv_roller.c **** #include "../draw/lv_draw.h"
  14:Drivers/lvgl/src/widgets/lv_roller.c **** #include "../core/lv_group.h"
  15:Drivers/lvgl/src/widgets/lv_roller.c **** #include "../core/lv_indev.h"
  16:Drivers/lvgl/src/widgets/lv_roller.c **** #include "../core/lv_indev_scroll.h"
  17:Drivers/lvgl/src/widgets/lv_roller.c **** 
  18:Drivers/lvgl/src/widgets/lv_roller.c **** /*********************
  19:Drivers/lvgl/src/widgets/lv_roller.c ****  *      DEFINES
  20:Drivers/lvgl/src/widgets/lv_roller.c ****  *********************/
  21:Drivers/lvgl/src/widgets/lv_roller.c **** #define MY_CLASS &lv_roller_class
  22:Drivers/lvgl/src/widgets/lv_roller.c **** #define MY_CLASS_LABEL &lv_roller_label_class
  23:Drivers/lvgl/src/widgets/lv_roller.c **** 
  24:Drivers/lvgl/src/widgets/lv_roller.c **** /**********************
  25:Drivers/lvgl/src/widgets/lv_roller.c ****  *      TYPEDEFS
  26:Drivers/lvgl/src/widgets/lv_roller.c ****  **********************/
  27:Drivers/lvgl/src/widgets/lv_roller.c **** 
  28:Drivers/lvgl/src/widgets/lv_roller.c **** /**********************
  29:Drivers/lvgl/src/widgets/lv_roller.c ****  *  STATIC PROTOTYPES
  30:Drivers/lvgl/src/widgets/lv_roller.c ****  **********************/
ARM GAS  /var/folders/0z/tsy30v1j4xl4_7kw94k978ww0000gn/T//ccUX3GBc.s 			page 2


  31:Drivers/lvgl/src/widgets/lv_roller.c **** static void lv_roller_constructor(const lv_obj_class_t * class_p, lv_obj_t * obj);
  32:Drivers/lvgl/src/widgets/lv_roller.c **** static void lv_roller_event(const lv_obj_class_t * class_p, lv_event_t * e);
  33:Drivers/lvgl/src/widgets/lv_roller.c **** static void lv_roller_label_event(const lv_obj_class_t * class_p, lv_event_t * e);
  34:Drivers/lvgl/src/widgets/lv_roller.c **** static void draw_main(lv_event_t * e);
  35:Drivers/lvgl/src/widgets/lv_roller.c **** static void draw_label(lv_event_t * e);
  36:Drivers/lvgl/src/widgets/lv_roller.c **** static void get_sel_area(lv_obj_t * obj, lv_area_t * sel_area);
  37:Drivers/lvgl/src/widgets/lv_roller.c **** static void refr_position(lv_obj_t * obj, lv_anim_enable_t animen);
  38:Drivers/lvgl/src/widgets/lv_roller.c **** static lv_res_t release_handler(lv_obj_t * obj);
  39:Drivers/lvgl/src/widgets/lv_roller.c **** static void inf_normalize(lv_obj_t * obj_scrl);
  40:Drivers/lvgl/src/widgets/lv_roller.c **** static lv_obj_t * get_label(const lv_obj_t * obj);
  41:Drivers/lvgl/src/widgets/lv_roller.c **** static lv_coord_t get_selected_label_width(const lv_obj_t * obj);
  42:Drivers/lvgl/src/widgets/lv_roller.c **** static void scroll_anim_ready_cb(lv_anim_t * a);
  43:Drivers/lvgl/src/widgets/lv_roller.c **** static void set_y_anim(void * obj, int32_t v);
  44:Drivers/lvgl/src/widgets/lv_roller.c **** 
  45:Drivers/lvgl/src/widgets/lv_roller.c **** /**********************
  46:Drivers/lvgl/src/widgets/lv_roller.c ****  *  STATIC VARIABLES
  47:Drivers/lvgl/src/widgets/lv_roller.c ****  **********************/
  48:Drivers/lvgl/src/widgets/lv_roller.c **** const lv_obj_class_t lv_roller_class = {
  49:Drivers/lvgl/src/widgets/lv_roller.c ****     .constructor_cb = lv_roller_constructor,
  50:Drivers/lvgl/src/widgets/lv_roller.c ****     .event_cb = lv_roller_event,
  51:Drivers/lvgl/src/widgets/lv_roller.c ****     .width_def = LV_SIZE_CONTENT,
  52:Drivers/lvgl/src/widgets/lv_roller.c ****     .height_def = LV_DPI_DEF,
  53:Drivers/lvgl/src/widgets/lv_roller.c ****     .instance_size = sizeof(lv_roller_t),
  54:Drivers/lvgl/src/widgets/lv_roller.c ****     .editable = LV_OBJ_CLASS_EDITABLE_TRUE,
  55:Drivers/lvgl/src/widgets/lv_roller.c ****     .group_def = LV_OBJ_CLASS_GROUP_DEF_TRUE,
  56:Drivers/lvgl/src/widgets/lv_roller.c ****     .base_class = &lv_obj_class
  57:Drivers/lvgl/src/widgets/lv_roller.c **** };
  58:Drivers/lvgl/src/widgets/lv_roller.c **** 
  59:Drivers/lvgl/src/widgets/lv_roller.c **** const lv_obj_class_t lv_roller_label_class  = {
  60:Drivers/lvgl/src/widgets/lv_roller.c ****     .event_cb = lv_roller_label_event,
  61:Drivers/lvgl/src/widgets/lv_roller.c ****     .instance_size = sizeof(lv_label_t),
  62:Drivers/lvgl/src/widgets/lv_roller.c ****     .base_class = &lv_label_class
  63:Drivers/lvgl/src/widgets/lv_roller.c **** };
  64:Drivers/lvgl/src/widgets/lv_roller.c **** 
  65:Drivers/lvgl/src/widgets/lv_roller.c **** /**********************
  66:Drivers/lvgl/src/widgets/lv_roller.c ****  *      MACROS
  67:Drivers/lvgl/src/widgets/lv_roller.c ****  **********************/
  68:Drivers/lvgl/src/widgets/lv_roller.c **** 
  69:Drivers/lvgl/src/widgets/lv_roller.c **** /**********************
  70:Drivers/lvgl/src/widgets/lv_roller.c ****  *   GLOBAL FUNCTIONS
  71:Drivers/lvgl/src/widgets/lv_roller.c ****  **********************/
  72:Drivers/lvgl/src/widgets/lv_roller.c **** 
  73:Drivers/lvgl/src/widgets/lv_roller.c **** /**
  74:Drivers/lvgl/src/widgets/lv_roller.c ****  * Create a roller object
  75:Drivers/lvgl/src/widgets/lv_roller.c ****  * @param parent pointer to an object, it will be the parent of the new roller
  76:Drivers/lvgl/src/widgets/lv_roller.c ****  * @return pointer to the created roller
  77:Drivers/lvgl/src/widgets/lv_roller.c ****  */
  78:Drivers/lvgl/src/widgets/lv_roller.c **** lv_obj_t * lv_roller_create(lv_obj_t * parent)
  79:Drivers/lvgl/src/widgets/lv_roller.c **** {
  80:Drivers/lvgl/src/widgets/lv_roller.c ****     LV_LOG_INFO("begin");
  81:Drivers/lvgl/src/widgets/lv_roller.c ****     lv_obj_t * obj = lv_obj_class_create_obj(MY_CLASS, parent);
  82:Drivers/lvgl/src/widgets/lv_roller.c ****     lv_obj_class_init_obj(obj);
  83:Drivers/lvgl/src/widgets/lv_roller.c ****     return obj;
  84:Drivers/lvgl/src/widgets/lv_roller.c **** }
  85:Drivers/lvgl/src/widgets/lv_roller.c **** 
  86:Drivers/lvgl/src/widgets/lv_roller.c **** /*=====================
  87:Drivers/lvgl/src/widgets/lv_roller.c ****  * Setter functions
ARM GAS  /var/folders/0z/tsy30v1j4xl4_7kw94k978ww0000gn/T//ccUX3GBc.s 			page 3


  88:Drivers/lvgl/src/widgets/lv_roller.c ****  *====================*/
  89:Drivers/lvgl/src/widgets/lv_roller.c **** 
  90:Drivers/lvgl/src/widgets/lv_roller.c **** /**
  91:Drivers/lvgl/src/widgets/lv_roller.c ****  * Set the options on a roller
  92:Drivers/lvgl/src/widgets/lv_roller.c ****  * @param roller pointer to roller object
  93:Drivers/lvgl/src/widgets/lv_roller.c ****  * @param options a string with '\n' separated options. E.g. "One\nTwo\nThree"
  94:Drivers/lvgl/src/widgets/lv_roller.c ****  * @param mode `LV_ROLLER_MODE_NORMAL` or `LV_ROLLER_MODE_INFINITE`
  95:Drivers/lvgl/src/widgets/lv_roller.c ****  */
  96:Drivers/lvgl/src/widgets/lv_roller.c **** void lv_roller_set_options(lv_obj_t * obj, const char * options, lv_roller_mode_t mode)
  97:Drivers/lvgl/src/widgets/lv_roller.c **** {
  98:Drivers/lvgl/src/widgets/lv_roller.c ****     LV_ASSERT_OBJ(obj, MY_CLASS);
  99:Drivers/lvgl/src/widgets/lv_roller.c ****     LV_ASSERT_NULL(options);
 100:Drivers/lvgl/src/widgets/lv_roller.c **** 
 101:Drivers/lvgl/src/widgets/lv_roller.c ****     lv_roller_t * roller = (lv_roller_t *)obj;
 102:Drivers/lvgl/src/widgets/lv_roller.c ****     lv_obj_t * label = get_label(obj);
 103:Drivers/lvgl/src/widgets/lv_roller.c **** 
 104:Drivers/lvgl/src/widgets/lv_roller.c ****     roller->sel_opt_id     = 0;
 105:Drivers/lvgl/src/widgets/lv_roller.c ****     roller->sel_opt_id_ori = 0;
 106:Drivers/lvgl/src/widgets/lv_roller.c **** 
 107:Drivers/lvgl/src/widgets/lv_roller.c ****     /*Count the '\n'-s to determine the number of options*/
 108:Drivers/lvgl/src/widgets/lv_roller.c ****     roller->option_cnt = 0;
 109:Drivers/lvgl/src/widgets/lv_roller.c ****     uint32_t cnt;
 110:Drivers/lvgl/src/widgets/lv_roller.c ****     for(cnt = 0; options[cnt] != '\0'; cnt++) {
 111:Drivers/lvgl/src/widgets/lv_roller.c ****         if(options[cnt] == '\n') roller->option_cnt++;
 112:Drivers/lvgl/src/widgets/lv_roller.c ****     }
 113:Drivers/lvgl/src/widgets/lv_roller.c ****     roller->option_cnt++; /*Last option has no `\n`*/
 114:Drivers/lvgl/src/widgets/lv_roller.c **** 
 115:Drivers/lvgl/src/widgets/lv_roller.c ****     if(mode == LV_ROLLER_MODE_NORMAL) {
 116:Drivers/lvgl/src/widgets/lv_roller.c ****         roller->mode = LV_ROLLER_MODE_NORMAL;
 117:Drivers/lvgl/src/widgets/lv_roller.c ****         lv_label_set_text(label, options);
 118:Drivers/lvgl/src/widgets/lv_roller.c ****     }
 119:Drivers/lvgl/src/widgets/lv_roller.c ****     else {
 120:Drivers/lvgl/src/widgets/lv_roller.c ****         roller->mode = LV_ROLLER_MODE_INFINITE;
 121:Drivers/lvgl/src/widgets/lv_roller.c **** 
 122:Drivers/lvgl/src/widgets/lv_roller.c ****         size_t opt_len = strlen(options) + 1; /*+1 to add '\n' after option lists*/
 123:Drivers/lvgl/src/widgets/lv_roller.c ****         char * opt_extra = lv_mem_buf_get(opt_len * LV_ROLLER_INF_PAGES);
 124:Drivers/lvgl/src/widgets/lv_roller.c ****         uint8_t i;
 125:Drivers/lvgl/src/widgets/lv_roller.c ****         for(i = 0; i < LV_ROLLER_INF_PAGES; i++) {
 126:Drivers/lvgl/src/widgets/lv_roller.c ****             strcpy(&opt_extra[opt_len * i], options);
 127:Drivers/lvgl/src/widgets/lv_roller.c ****             opt_extra[opt_len * (i + 1) - 1] = '\n';
 128:Drivers/lvgl/src/widgets/lv_roller.c ****         }
 129:Drivers/lvgl/src/widgets/lv_roller.c ****         opt_extra[opt_len * LV_ROLLER_INF_PAGES - 1] = '\0';
 130:Drivers/lvgl/src/widgets/lv_roller.c ****         lv_label_set_text(label, opt_extra);
 131:Drivers/lvgl/src/widgets/lv_roller.c ****         lv_mem_buf_release(opt_extra);
 132:Drivers/lvgl/src/widgets/lv_roller.c **** 
 133:Drivers/lvgl/src/widgets/lv_roller.c ****         roller->sel_opt_id     = ((LV_ROLLER_INF_PAGES / 2) + 0) * roller->option_cnt;
 134:Drivers/lvgl/src/widgets/lv_roller.c **** 
 135:Drivers/lvgl/src/widgets/lv_roller.c ****         roller->option_cnt = roller->option_cnt * LV_ROLLER_INF_PAGES;
 136:Drivers/lvgl/src/widgets/lv_roller.c ****         inf_normalize(obj);
 137:Drivers/lvgl/src/widgets/lv_roller.c ****     }
 138:Drivers/lvgl/src/widgets/lv_roller.c **** 
 139:Drivers/lvgl/src/widgets/lv_roller.c ****     roller->sel_opt_id_ori = roller->sel_opt_id;
 140:Drivers/lvgl/src/widgets/lv_roller.c **** 
 141:Drivers/lvgl/src/widgets/lv_roller.c ****     /*If the selected text has larger font the label needs some extra draw padding to draw it.*/
 142:Drivers/lvgl/src/widgets/lv_roller.c ****     lv_obj_refresh_ext_draw_size(label);
 143:Drivers/lvgl/src/widgets/lv_roller.c **** 
 144:Drivers/lvgl/src/widgets/lv_roller.c **** }
ARM GAS  /var/folders/0z/tsy30v1j4xl4_7kw94k978ww0000gn/T//ccUX3GBc.s 			page 4


 145:Drivers/lvgl/src/widgets/lv_roller.c **** 
 146:Drivers/lvgl/src/widgets/lv_roller.c **** /**
 147:Drivers/lvgl/src/widgets/lv_roller.c ****  * Set the selected option
 148:Drivers/lvgl/src/widgets/lv_roller.c ****  * @param roller pointer to a roller object
 149:Drivers/lvgl/src/widgets/lv_roller.c ****  * @param sel_opt id of the selected option (0 ... number of option - 1);
 150:Drivers/lvgl/src/widgets/lv_roller.c ****  * @param anim_en LV_ANIM_ON: set with animation; LV_ANOM_OFF set immediately
 151:Drivers/lvgl/src/widgets/lv_roller.c ****  */
 152:Drivers/lvgl/src/widgets/lv_roller.c **** void lv_roller_set_selected(lv_obj_t * obj, uint16_t sel_opt, lv_anim_enable_t anim)
 153:Drivers/lvgl/src/widgets/lv_roller.c **** {
 154:Drivers/lvgl/src/widgets/lv_roller.c ****     LV_ASSERT_OBJ(obj, MY_CLASS);
 155:Drivers/lvgl/src/widgets/lv_roller.c **** 
 156:Drivers/lvgl/src/widgets/lv_roller.c ****     /*Set the value even if it's the same as the current value because
 157:Drivers/lvgl/src/widgets/lv_roller.c ****      *if moving to the next option with an animation which was just deleted in the PRESS Call the a
 158:Drivers/lvgl/src/widgets/lv_roller.c ****      *nothing will continue the animation.*/
 159:Drivers/lvgl/src/widgets/lv_roller.c **** 
 160:Drivers/lvgl/src/widgets/lv_roller.c ****     lv_roller_t * roller = (lv_roller_t *)obj;
 161:Drivers/lvgl/src/widgets/lv_roller.c **** 
 162:Drivers/lvgl/src/widgets/lv_roller.c ****     /*In infinite mode interpret the new ID relative to the currently visible "page"*/
 163:Drivers/lvgl/src/widgets/lv_roller.c ****     if(roller->mode == LV_ROLLER_MODE_INFINITE) {
 164:Drivers/lvgl/src/widgets/lv_roller.c ****         uint32_t real_option_cnt = roller->option_cnt / LV_ROLLER_INF_PAGES;
 165:Drivers/lvgl/src/widgets/lv_roller.c ****         uint16_t current_page = roller->sel_opt_id / real_option_cnt;
 166:Drivers/lvgl/src/widgets/lv_roller.c ****         /*Set by the user to e.g. 0, 1, 2, 3...
 167:Drivers/lvgl/src/widgets/lv_roller.c ****          *Upscale the value to the current page*/
 168:Drivers/lvgl/src/widgets/lv_roller.c ****         if(sel_opt < real_option_cnt) {
 169:Drivers/lvgl/src/widgets/lv_roller.c ****             uint16_t act_opt = roller->sel_opt_id - current_page * real_option_cnt;
 170:Drivers/lvgl/src/widgets/lv_roller.c ****             int32_t sel_opt_signed = sel_opt;
 171:Drivers/lvgl/src/widgets/lv_roller.c ****             /*Huge jump? Probably from last to first or first to last option.*/
 172:Drivers/lvgl/src/widgets/lv_roller.c ****             if(LV_ABS((int16_t)act_opt - sel_opt) > real_option_cnt / 2) {
 173:Drivers/lvgl/src/widgets/lv_roller.c ****                 if(act_opt > sel_opt) sel_opt_signed += real_option_cnt;
 174:Drivers/lvgl/src/widgets/lv_roller.c ****                 else sel_opt_signed -= real_option_cnt;
 175:Drivers/lvgl/src/widgets/lv_roller.c ****             }
 176:Drivers/lvgl/src/widgets/lv_roller.c ****             sel_opt = sel_opt_signed + real_option_cnt * current_page;
 177:Drivers/lvgl/src/widgets/lv_roller.c ****         }
 178:Drivers/lvgl/src/widgets/lv_roller.c ****     }
 179:Drivers/lvgl/src/widgets/lv_roller.c **** 
 180:Drivers/lvgl/src/widgets/lv_roller.c ****     roller->sel_opt_id     = sel_opt < roller->option_cnt ? sel_opt : roller->option_cnt - 1;
 181:Drivers/lvgl/src/widgets/lv_roller.c ****     roller->sel_opt_id_ori = roller->sel_opt_id;
 182:Drivers/lvgl/src/widgets/lv_roller.c **** 
 183:Drivers/lvgl/src/widgets/lv_roller.c ****     refr_position(obj, anim);
 184:Drivers/lvgl/src/widgets/lv_roller.c **** }
 185:Drivers/lvgl/src/widgets/lv_roller.c **** 
 186:Drivers/lvgl/src/widgets/lv_roller.c **** /**
 187:Drivers/lvgl/src/widgets/lv_roller.c ****  * Set the height to show the given number of rows (options)
 188:Drivers/lvgl/src/widgets/lv_roller.c ****  * @param roller pointer to a roller object
 189:Drivers/lvgl/src/widgets/lv_roller.c ****  * @param row_cnt number of desired visible rows
 190:Drivers/lvgl/src/widgets/lv_roller.c ****  */
 191:Drivers/lvgl/src/widgets/lv_roller.c **** void lv_roller_set_visible_row_count(lv_obj_t * obj, uint8_t row_cnt)
 192:Drivers/lvgl/src/widgets/lv_roller.c **** {
 193:Drivers/lvgl/src/widgets/lv_roller.c ****     LV_ASSERT_OBJ(obj, MY_CLASS);
 194:Drivers/lvgl/src/widgets/lv_roller.c **** 
 195:Drivers/lvgl/src/widgets/lv_roller.c ****     const lv_font_t * font = lv_obj_get_style_text_font(obj, LV_PART_MAIN);
 196:Drivers/lvgl/src/widgets/lv_roller.c ****     lv_coord_t line_space = lv_obj_get_style_text_line_space(obj, LV_PART_MAIN);
 197:Drivers/lvgl/src/widgets/lv_roller.c ****     lv_coord_t border_width = lv_obj_get_style_border_width(obj, LV_PART_MAIN);
 198:Drivers/lvgl/src/widgets/lv_roller.c ****     lv_obj_set_height(obj, (lv_font_get_line_height(font) + line_space) * row_cnt + 2 * border_widt
 199:Drivers/lvgl/src/widgets/lv_roller.c **** }
 200:Drivers/lvgl/src/widgets/lv_roller.c **** 
 201:Drivers/lvgl/src/widgets/lv_roller.c **** /*=====================
ARM GAS  /var/folders/0z/tsy30v1j4xl4_7kw94k978ww0000gn/T//ccUX3GBc.s 			page 5


 202:Drivers/lvgl/src/widgets/lv_roller.c ****  * Getter functions
 203:Drivers/lvgl/src/widgets/lv_roller.c ****  *====================*/
 204:Drivers/lvgl/src/widgets/lv_roller.c **** 
 205:Drivers/lvgl/src/widgets/lv_roller.c **** /**
 206:Drivers/lvgl/src/widgets/lv_roller.c ****  * Get the id of the selected option
 207:Drivers/lvgl/src/widgets/lv_roller.c ****  * @param roller pointer to a roller object
 208:Drivers/lvgl/src/widgets/lv_roller.c ****  * @return id of the selected option (0 ... number of option - 1);
 209:Drivers/lvgl/src/widgets/lv_roller.c ****  */
 210:Drivers/lvgl/src/widgets/lv_roller.c **** uint16_t lv_roller_get_selected(const lv_obj_t * obj)
 211:Drivers/lvgl/src/widgets/lv_roller.c **** {
 212:Drivers/lvgl/src/widgets/lv_roller.c ****     LV_ASSERT_OBJ(obj, MY_CLASS);
 213:Drivers/lvgl/src/widgets/lv_roller.c **** 
 214:Drivers/lvgl/src/widgets/lv_roller.c ****     lv_roller_t * roller = (lv_roller_t *)obj;
 215:Drivers/lvgl/src/widgets/lv_roller.c ****     if(roller->mode == LV_ROLLER_MODE_INFINITE) {
 216:Drivers/lvgl/src/widgets/lv_roller.c ****         uint16_t real_id_cnt = roller->option_cnt / LV_ROLLER_INF_PAGES;
 217:Drivers/lvgl/src/widgets/lv_roller.c ****         return roller->sel_opt_id % real_id_cnt;
 218:Drivers/lvgl/src/widgets/lv_roller.c ****     }
 219:Drivers/lvgl/src/widgets/lv_roller.c ****     else {
 220:Drivers/lvgl/src/widgets/lv_roller.c ****         return roller->sel_opt_id;
 221:Drivers/lvgl/src/widgets/lv_roller.c ****     }
 222:Drivers/lvgl/src/widgets/lv_roller.c **** }
 223:Drivers/lvgl/src/widgets/lv_roller.c **** 
 224:Drivers/lvgl/src/widgets/lv_roller.c **** /**
 225:Drivers/lvgl/src/widgets/lv_roller.c ****  * Get the current selected option as a string
 226:Drivers/lvgl/src/widgets/lv_roller.c ****  * @param ddlist pointer to ddlist object
 227:Drivers/lvgl/src/widgets/lv_roller.c ****  * @param buf pointer to an array to store the string
 228:Drivers/lvgl/src/widgets/lv_roller.c ****  * @param buf_size size of `buf` in bytes. 0: to ignore it.
 229:Drivers/lvgl/src/widgets/lv_roller.c ****  */
 230:Drivers/lvgl/src/widgets/lv_roller.c **** void lv_roller_get_selected_str(const lv_obj_t * obj, char * buf, uint32_t buf_size)
 231:Drivers/lvgl/src/widgets/lv_roller.c **** {
 232:Drivers/lvgl/src/widgets/lv_roller.c ****     LV_ASSERT_OBJ(obj, MY_CLASS);
 233:Drivers/lvgl/src/widgets/lv_roller.c **** 
 234:Drivers/lvgl/src/widgets/lv_roller.c ****     lv_roller_t * roller = (lv_roller_t *)obj;
 235:Drivers/lvgl/src/widgets/lv_roller.c ****     lv_obj_t * label = get_label(obj);
 236:Drivers/lvgl/src/widgets/lv_roller.c ****     uint32_t i;
 237:Drivers/lvgl/src/widgets/lv_roller.c ****     uint16_t line        = 0;
 238:Drivers/lvgl/src/widgets/lv_roller.c ****     const char * opt_txt = lv_label_get_text(label);
 239:Drivers/lvgl/src/widgets/lv_roller.c ****     size_t txt_len     = strlen(opt_txt);
 240:Drivers/lvgl/src/widgets/lv_roller.c **** 
 241:Drivers/lvgl/src/widgets/lv_roller.c ****     for(i = 0; i < txt_len && line != roller->sel_opt_id; i++) {
 242:Drivers/lvgl/src/widgets/lv_roller.c ****         if(opt_txt[i] == '\n') line++;
 243:Drivers/lvgl/src/widgets/lv_roller.c ****     }
 244:Drivers/lvgl/src/widgets/lv_roller.c **** 
 245:Drivers/lvgl/src/widgets/lv_roller.c ****     uint32_t c;
 246:Drivers/lvgl/src/widgets/lv_roller.c ****     for(c = 0; i < txt_len && opt_txt[i] != '\n'; c++, i++) {
 247:Drivers/lvgl/src/widgets/lv_roller.c ****         if(buf_size && c >= buf_size - 1) {
 248:Drivers/lvgl/src/widgets/lv_roller.c ****             LV_LOG_WARN("lv_dropdown_get_selected_str: the buffer was too small");
 249:Drivers/lvgl/src/widgets/lv_roller.c ****             break;
 250:Drivers/lvgl/src/widgets/lv_roller.c ****         }
 251:Drivers/lvgl/src/widgets/lv_roller.c ****         buf[c] = opt_txt[i];
 252:Drivers/lvgl/src/widgets/lv_roller.c ****     }
 253:Drivers/lvgl/src/widgets/lv_roller.c **** 
 254:Drivers/lvgl/src/widgets/lv_roller.c ****     buf[c] = '\0';
 255:Drivers/lvgl/src/widgets/lv_roller.c **** }
 256:Drivers/lvgl/src/widgets/lv_roller.c **** 
 257:Drivers/lvgl/src/widgets/lv_roller.c **** 
 258:Drivers/lvgl/src/widgets/lv_roller.c **** /**
ARM GAS  /var/folders/0z/tsy30v1j4xl4_7kw94k978ww0000gn/T//ccUX3GBc.s 			page 6


 259:Drivers/lvgl/src/widgets/lv_roller.c ****  * Get the options of a roller
 260:Drivers/lvgl/src/widgets/lv_roller.c ****  * @param roller pointer to roller object
 261:Drivers/lvgl/src/widgets/lv_roller.c ****  * @return the options separated by '\n'-s (E.g. "Option1\nOption2\nOption3")
 262:Drivers/lvgl/src/widgets/lv_roller.c ****  */
 263:Drivers/lvgl/src/widgets/lv_roller.c **** const char * lv_roller_get_options(const lv_obj_t * obj)
 264:Drivers/lvgl/src/widgets/lv_roller.c **** {
 265:Drivers/lvgl/src/widgets/lv_roller.c ****     LV_ASSERT_OBJ(obj, MY_CLASS);
 266:Drivers/lvgl/src/widgets/lv_roller.c **** 
 267:Drivers/lvgl/src/widgets/lv_roller.c ****     return lv_label_get_text(get_label(obj));
 268:Drivers/lvgl/src/widgets/lv_roller.c **** }
 269:Drivers/lvgl/src/widgets/lv_roller.c **** 
 270:Drivers/lvgl/src/widgets/lv_roller.c **** 
 271:Drivers/lvgl/src/widgets/lv_roller.c **** /**
 272:Drivers/lvgl/src/widgets/lv_roller.c ****  * Get the total number of options
 273:Drivers/lvgl/src/widgets/lv_roller.c ****  * @param roller pointer to a roller object
 274:Drivers/lvgl/src/widgets/lv_roller.c ****  * @return the total number of options
 275:Drivers/lvgl/src/widgets/lv_roller.c ****  */
 276:Drivers/lvgl/src/widgets/lv_roller.c **** uint16_t lv_roller_get_option_cnt(const lv_obj_t * obj)
 277:Drivers/lvgl/src/widgets/lv_roller.c **** {
 278:Drivers/lvgl/src/widgets/lv_roller.c ****     LV_ASSERT_OBJ(obj, MY_CLASS);
 279:Drivers/lvgl/src/widgets/lv_roller.c **** 
 280:Drivers/lvgl/src/widgets/lv_roller.c ****     lv_roller_t * roller = (lv_roller_t *)obj;
 281:Drivers/lvgl/src/widgets/lv_roller.c ****     if(roller->mode == LV_ROLLER_MODE_INFINITE) {
 282:Drivers/lvgl/src/widgets/lv_roller.c ****         return roller->option_cnt / LV_ROLLER_INF_PAGES;
 283:Drivers/lvgl/src/widgets/lv_roller.c ****     }
 284:Drivers/lvgl/src/widgets/lv_roller.c ****     else {
 285:Drivers/lvgl/src/widgets/lv_roller.c ****         return roller->option_cnt;
 286:Drivers/lvgl/src/widgets/lv_roller.c ****     }
 287:Drivers/lvgl/src/widgets/lv_roller.c **** }
 288:Drivers/lvgl/src/widgets/lv_roller.c **** 
 289:Drivers/lvgl/src/widgets/lv_roller.c **** /**********************
 290:Drivers/lvgl/src/widgets/lv_roller.c ****  *   STATIC FUNCTIONS
 291:Drivers/lvgl/src/widgets/lv_roller.c ****  **********************/
 292:Drivers/lvgl/src/widgets/lv_roller.c **** 
 293:Drivers/lvgl/src/widgets/lv_roller.c **** 
 294:Drivers/lvgl/src/widgets/lv_roller.c **** static void lv_roller_constructor(const lv_obj_class_t * class_p, lv_obj_t * obj)
 295:Drivers/lvgl/src/widgets/lv_roller.c **** {
 296:Drivers/lvgl/src/widgets/lv_roller.c ****     LV_UNUSED(class_p);
 297:Drivers/lvgl/src/widgets/lv_roller.c ****     lv_roller_t * roller = (lv_roller_t *)obj;
 298:Drivers/lvgl/src/widgets/lv_roller.c **** 
 299:Drivers/lvgl/src/widgets/lv_roller.c ****     roller->mode = LV_ROLLER_MODE_NORMAL;
 300:Drivers/lvgl/src/widgets/lv_roller.c ****     roller->option_cnt = 0;
 301:Drivers/lvgl/src/widgets/lv_roller.c ****     roller->sel_opt_id = 0;
 302:Drivers/lvgl/src/widgets/lv_roller.c ****     roller->sel_opt_id_ori = 0;
 303:Drivers/lvgl/src/widgets/lv_roller.c **** 
 304:Drivers/lvgl/src/widgets/lv_roller.c ****     lv_obj_clear_flag(obj, LV_OBJ_FLAG_SCROLLABLE);
 305:Drivers/lvgl/src/widgets/lv_roller.c ****     lv_obj_clear_flag(obj, LV_OBJ_FLAG_SCROLL_CHAIN_VER);
 306:Drivers/lvgl/src/widgets/lv_roller.c **** 
 307:Drivers/lvgl/src/widgets/lv_roller.c ****     LV_LOG_INFO("begin");
 308:Drivers/lvgl/src/widgets/lv_roller.c ****     lv_obj_t * label = lv_obj_class_create_obj(&lv_roller_label_class, obj);
 309:Drivers/lvgl/src/widgets/lv_roller.c ****     lv_obj_class_init_obj(label);
 310:Drivers/lvgl/src/widgets/lv_roller.c ****     lv_roller_set_options(obj, "Option 1\nOption 2\nOption 3\nOption 4\nOption 5", LV_ROLLER_MODE_N
 311:Drivers/lvgl/src/widgets/lv_roller.c **** 
 312:Drivers/lvgl/src/widgets/lv_roller.c ****     LV_LOG_TRACE("finshed");
 313:Drivers/lvgl/src/widgets/lv_roller.c **** }
 314:Drivers/lvgl/src/widgets/lv_roller.c **** 
 315:Drivers/lvgl/src/widgets/lv_roller.c **** static void lv_roller_event(const lv_obj_class_t * class_p, lv_event_t * e)
ARM GAS  /var/folders/0z/tsy30v1j4xl4_7kw94k978ww0000gn/T//ccUX3GBc.s 			page 7


 316:Drivers/lvgl/src/widgets/lv_roller.c **** {
 317:Drivers/lvgl/src/widgets/lv_roller.c ****     LV_UNUSED(class_p);
 318:Drivers/lvgl/src/widgets/lv_roller.c **** 
 319:Drivers/lvgl/src/widgets/lv_roller.c ****     lv_res_t res;
 320:Drivers/lvgl/src/widgets/lv_roller.c **** 
 321:Drivers/lvgl/src/widgets/lv_roller.c ****     /*Call the ancestor's event handler*/
 322:Drivers/lvgl/src/widgets/lv_roller.c ****     res = lv_obj_event_base(MY_CLASS, e);
 323:Drivers/lvgl/src/widgets/lv_roller.c ****     if(res != LV_RES_OK) return;
 324:Drivers/lvgl/src/widgets/lv_roller.c **** 
 325:Drivers/lvgl/src/widgets/lv_roller.c ****     lv_event_code_t code = lv_event_get_code(e);
 326:Drivers/lvgl/src/widgets/lv_roller.c ****     lv_obj_t * obj = lv_event_get_target(e);
 327:Drivers/lvgl/src/widgets/lv_roller.c ****     lv_roller_t * roller = (lv_roller_t *)obj;
 328:Drivers/lvgl/src/widgets/lv_roller.c **** 
 329:Drivers/lvgl/src/widgets/lv_roller.c ****     if(code == LV_EVENT_GET_SELF_SIZE) {
 330:Drivers/lvgl/src/widgets/lv_roller.c ****         lv_point_t * p = lv_event_get_param(e);
 331:Drivers/lvgl/src/widgets/lv_roller.c ****         p->x = get_selected_label_width(obj);
 332:Drivers/lvgl/src/widgets/lv_roller.c ****     }
 333:Drivers/lvgl/src/widgets/lv_roller.c ****     else if(code == LV_EVENT_STYLE_CHANGED) {
 334:Drivers/lvgl/src/widgets/lv_roller.c ****         lv_obj_t * label = get_label(obj);
 335:Drivers/lvgl/src/widgets/lv_roller.c ****         /*Be sure the label's style is updated before processing the roller*/
 336:Drivers/lvgl/src/widgets/lv_roller.c ****         if(label) lv_event_send(label, LV_EVENT_STYLE_CHANGED, NULL);
 337:Drivers/lvgl/src/widgets/lv_roller.c ****         lv_obj_refresh_self_size(obj);
 338:Drivers/lvgl/src/widgets/lv_roller.c ****         refr_position(obj, LV_ANIM_OFF);
 339:Drivers/lvgl/src/widgets/lv_roller.c ****     }
 340:Drivers/lvgl/src/widgets/lv_roller.c ****     else if(code == LV_EVENT_SIZE_CHANGED) {
 341:Drivers/lvgl/src/widgets/lv_roller.c ****         refr_position(obj, LV_ANIM_OFF);
 342:Drivers/lvgl/src/widgets/lv_roller.c ****     }
 343:Drivers/lvgl/src/widgets/lv_roller.c ****     else if(code == LV_EVENT_PRESSED) {
 344:Drivers/lvgl/src/widgets/lv_roller.c ****         roller->moved = 0;
 345:Drivers/lvgl/src/widgets/lv_roller.c ****         lv_anim_del(get_label(obj), set_y_anim);
 346:Drivers/lvgl/src/widgets/lv_roller.c ****     }
 347:Drivers/lvgl/src/widgets/lv_roller.c ****     else if(code == LV_EVENT_PRESSING) {
 348:Drivers/lvgl/src/widgets/lv_roller.c ****         lv_indev_t * indev = lv_indev_get_act();
 349:Drivers/lvgl/src/widgets/lv_roller.c ****         lv_point_t p;
 350:Drivers/lvgl/src/widgets/lv_roller.c ****         lv_indev_get_vect(indev, &p);
 351:Drivers/lvgl/src/widgets/lv_roller.c ****         if(p.y) {
 352:Drivers/lvgl/src/widgets/lv_roller.c ****             lv_obj_t * label = get_label(obj);
 353:Drivers/lvgl/src/widgets/lv_roller.c ****             lv_obj_set_y(label, lv_obj_get_y(label) + p.y);
 354:Drivers/lvgl/src/widgets/lv_roller.c ****             roller->moved = 1;
 355:Drivers/lvgl/src/widgets/lv_roller.c ****         }
 356:Drivers/lvgl/src/widgets/lv_roller.c ****     }
 357:Drivers/lvgl/src/widgets/lv_roller.c ****     else if(code == LV_EVENT_RELEASED || code == LV_EVENT_PRESS_LOST) {
 358:Drivers/lvgl/src/widgets/lv_roller.c ****         release_handler(obj);
 359:Drivers/lvgl/src/widgets/lv_roller.c ****     }
 360:Drivers/lvgl/src/widgets/lv_roller.c ****     else if(code == LV_EVENT_FOCUSED) {
 361:Drivers/lvgl/src/widgets/lv_roller.c ****         lv_group_t * g             = lv_obj_get_group(obj);
 362:Drivers/lvgl/src/widgets/lv_roller.c ****         bool editing               = lv_group_get_editing(g);
 363:Drivers/lvgl/src/widgets/lv_roller.c ****         lv_indev_type_t indev_type = lv_indev_get_type(lv_indev_get_act());
 364:Drivers/lvgl/src/widgets/lv_roller.c **** 
 365:Drivers/lvgl/src/widgets/lv_roller.c ****         /*Encoders need special handling*/
 366:Drivers/lvgl/src/widgets/lv_roller.c ****         if(indev_type == LV_INDEV_TYPE_ENCODER) {
 367:Drivers/lvgl/src/widgets/lv_roller.c ****             /*In navigate mode revert the original value*/
 368:Drivers/lvgl/src/widgets/lv_roller.c ****             if(!editing) {
 369:Drivers/lvgl/src/widgets/lv_roller.c ****                 if(roller->sel_opt_id != roller->sel_opt_id_ori) {
 370:Drivers/lvgl/src/widgets/lv_roller.c ****                     roller->sel_opt_id = roller->sel_opt_id_ori;
 371:Drivers/lvgl/src/widgets/lv_roller.c ****                     refr_position(obj, LV_ANIM_ON);
 372:Drivers/lvgl/src/widgets/lv_roller.c ****                 }
ARM GAS  /var/folders/0z/tsy30v1j4xl4_7kw94k978ww0000gn/T//ccUX3GBc.s 			page 8


 373:Drivers/lvgl/src/widgets/lv_roller.c ****             }
 374:Drivers/lvgl/src/widgets/lv_roller.c ****             /*Save the current state when entered to edit mode*/
 375:Drivers/lvgl/src/widgets/lv_roller.c ****             else {
 376:Drivers/lvgl/src/widgets/lv_roller.c ****                 roller->sel_opt_id_ori = roller->sel_opt_id;
 377:Drivers/lvgl/src/widgets/lv_roller.c ****             }
 378:Drivers/lvgl/src/widgets/lv_roller.c ****         }
 379:Drivers/lvgl/src/widgets/lv_roller.c ****         else {
 380:Drivers/lvgl/src/widgets/lv_roller.c ****             roller->sel_opt_id_ori = roller->sel_opt_id; /*Save the current value. Used to revert t
 381:Drivers/lvgl/src/widgets/lv_roller.c ****                                                                     ENTER won't be pressed*/
 382:Drivers/lvgl/src/widgets/lv_roller.c ****         }
 383:Drivers/lvgl/src/widgets/lv_roller.c ****     }
 384:Drivers/lvgl/src/widgets/lv_roller.c ****     else if(code == LV_EVENT_DEFOCUSED) {
 385:Drivers/lvgl/src/widgets/lv_roller.c ****         /*Revert the original state*/
 386:Drivers/lvgl/src/widgets/lv_roller.c ****         if(roller->sel_opt_id != roller->sel_opt_id_ori) {
 387:Drivers/lvgl/src/widgets/lv_roller.c ****             roller->sel_opt_id = roller->sel_opt_id_ori;
 388:Drivers/lvgl/src/widgets/lv_roller.c ****             refr_position(obj, LV_ANIM_ON);
 389:Drivers/lvgl/src/widgets/lv_roller.c ****         }
 390:Drivers/lvgl/src/widgets/lv_roller.c ****     }
 391:Drivers/lvgl/src/widgets/lv_roller.c ****     else if(code == LV_EVENT_KEY) {
 392:Drivers/lvgl/src/widgets/lv_roller.c ****         char c = *((char *)lv_event_get_param(e));
 393:Drivers/lvgl/src/widgets/lv_roller.c ****         if(c == LV_KEY_RIGHT || c == LV_KEY_DOWN) {
 394:Drivers/lvgl/src/widgets/lv_roller.c ****             if(roller->sel_opt_id + 1 < roller->option_cnt) {
 395:Drivers/lvgl/src/widgets/lv_roller.c ****                 uint16_t ori_id = roller->sel_opt_id_ori; /*lv_roller_set_selected will overwrite t
 396:Drivers/lvgl/src/widgets/lv_roller.c ****                 lv_roller_set_selected(obj, roller->sel_opt_id + 1, LV_ANIM_ON);
 397:Drivers/lvgl/src/widgets/lv_roller.c ****                 roller->sel_opt_id_ori = ori_id;
 398:Drivers/lvgl/src/widgets/lv_roller.c ****             }
 399:Drivers/lvgl/src/widgets/lv_roller.c ****         }
 400:Drivers/lvgl/src/widgets/lv_roller.c ****         else if(c == LV_KEY_LEFT || c == LV_KEY_UP) {
 401:Drivers/lvgl/src/widgets/lv_roller.c ****             if(roller->sel_opt_id > 0) {
 402:Drivers/lvgl/src/widgets/lv_roller.c ****                 uint16_t ori_id = roller->sel_opt_id_ori; /*lv_roller_set_selected will overwrite t
 403:Drivers/lvgl/src/widgets/lv_roller.c **** 
 404:Drivers/lvgl/src/widgets/lv_roller.c ****                 lv_roller_set_selected(obj, roller->sel_opt_id - 1, LV_ANIM_ON);
 405:Drivers/lvgl/src/widgets/lv_roller.c ****                 roller->sel_opt_id_ori = ori_id;
 406:Drivers/lvgl/src/widgets/lv_roller.c ****             }
 407:Drivers/lvgl/src/widgets/lv_roller.c ****         }
 408:Drivers/lvgl/src/widgets/lv_roller.c ****     }
 409:Drivers/lvgl/src/widgets/lv_roller.c ****     else if(code == LV_EVENT_REFR_EXT_DRAW_SIZE) {
 410:Drivers/lvgl/src/widgets/lv_roller.c ****         lv_obj_t * label = get_label(obj);
 411:Drivers/lvgl/src/widgets/lv_roller.c ****         lv_obj_refresh_ext_draw_size(label);
 412:Drivers/lvgl/src/widgets/lv_roller.c ****     }
 413:Drivers/lvgl/src/widgets/lv_roller.c ****     else if(code == LV_EVENT_DRAW_MAIN || code == LV_EVENT_DRAW_POST) {
 414:Drivers/lvgl/src/widgets/lv_roller.c ****         draw_main(e);
 415:Drivers/lvgl/src/widgets/lv_roller.c ****     }
 416:Drivers/lvgl/src/widgets/lv_roller.c **** }
 417:Drivers/lvgl/src/widgets/lv_roller.c **** 
 418:Drivers/lvgl/src/widgets/lv_roller.c **** static void lv_roller_label_event(const lv_obj_class_t * class_p, lv_event_t * e)
 419:Drivers/lvgl/src/widgets/lv_roller.c **** {
 420:Drivers/lvgl/src/widgets/lv_roller.c ****     LV_UNUSED(class_p);
 421:Drivers/lvgl/src/widgets/lv_roller.c **** 
 422:Drivers/lvgl/src/widgets/lv_roller.c ****     lv_res_t res;
 423:Drivers/lvgl/src/widgets/lv_roller.c **** 
 424:Drivers/lvgl/src/widgets/lv_roller.c ****     lv_event_code_t code = lv_event_get_code(e);
 425:Drivers/lvgl/src/widgets/lv_roller.c ****     /*LV_EVENT_DRAW_MAIN will be called in the draw function*/
 426:Drivers/lvgl/src/widgets/lv_roller.c ****     if(code != LV_EVENT_DRAW_MAIN) {
 427:Drivers/lvgl/src/widgets/lv_roller.c ****         /* Call the ancestor's event handler */
 428:Drivers/lvgl/src/widgets/lv_roller.c ****         res = lv_obj_event_base(MY_CLASS_LABEL, e);
 429:Drivers/lvgl/src/widgets/lv_roller.c ****         if(res != LV_RES_OK) return;
ARM GAS  /var/folders/0z/tsy30v1j4xl4_7kw94k978ww0000gn/T//ccUX3GBc.s 			page 9


 430:Drivers/lvgl/src/widgets/lv_roller.c ****     }
 431:Drivers/lvgl/src/widgets/lv_roller.c **** 
 432:Drivers/lvgl/src/widgets/lv_roller.c ****     lv_obj_t * label = lv_event_get_target(e);
 433:Drivers/lvgl/src/widgets/lv_roller.c ****     if(code == LV_EVENT_REFR_EXT_DRAW_SIZE) {
 434:Drivers/lvgl/src/widgets/lv_roller.c ****         /*If the selected text has a larger font it needs some extra space to draw it*/
 435:Drivers/lvgl/src/widgets/lv_roller.c ****         lv_coord_t * s = lv_event_get_param(e);
 436:Drivers/lvgl/src/widgets/lv_roller.c ****         lv_obj_t * obj = lv_obj_get_parent(label);
 437:Drivers/lvgl/src/widgets/lv_roller.c ****         lv_coord_t sel_w = get_selected_label_width(obj);
 438:Drivers/lvgl/src/widgets/lv_roller.c ****         lv_coord_t label_w = lv_obj_get_width(label);
 439:Drivers/lvgl/src/widgets/lv_roller.c ****         *s = LV_MAX(*s, sel_w - label_w);
 440:Drivers/lvgl/src/widgets/lv_roller.c ****     }
 441:Drivers/lvgl/src/widgets/lv_roller.c ****     else if(code == LV_EVENT_SIZE_CHANGED) {
 442:Drivers/lvgl/src/widgets/lv_roller.c ****         refr_position(lv_obj_get_parent(label), LV_ANIM_OFF);
 443:Drivers/lvgl/src/widgets/lv_roller.c ****     }
 444:Drivers/lvgl/src/widgets/lv_roller.c ****     else if(code == LV_EVENT_DRAW_MAIN) {
 445:Drivers/lvgl/src/widgets/lv_roller.c ****         draw_label(e);
 446:Drivers/lvgl/src/widgets/lv_roller.c ****     }
 447:Drivers/lvgl/src/widgets/lv_roller.c **** }
 448:Drivers/lvgl/src/widgets/lv_roller.c **** 
 449:Drivers/lvgl/src/widgets/lv_roller.c **** 
 450:Drivers/lvgl/src/widgets/lv_roller.c **** static void draw_main(lv_event_t * e)
 451:Drivers/lvgl/src/widgets/lv_roller.c **** {
 452:Drivers/lvgl/src/widgets/lv_roller.c ****     lv_event_code_t code = lv_event_get_code(e);
 453:Drivers/lvgl/src/widgets/lv_roller.c ****     lv_obj_t * obj = lv_event_get_target(e);
 454:Drivers/lvgl/src/widgets/lv_roller.c ****     if(code == LV_EVENT_DRAW_MAIN) {
 455:Drivers/lvgl/src/widgets/lv_roller.c ****         /*Draw the selected rectangle*/
 456:Drivers/lvgl/src/widgets/lv_roller.c ****         lv_draw_ctx_t * draw_ctx = lv_event_get_draw_ctx(e);
 457:Drivers/lvgl/src/widgets/lv_roller.c ****         lv_area_t sel_area;
 458:Drivers/lvgl/src/widgets/lv_roller.c ****         get_sel_area(obj, &sel_area);
 459:Drivers/lvgl/src/widgets/lv_roller.c ****         lv_draw_rect_dsc_t sel_dsc;
 460:Drivers/lvgl/src/widgets/lv_roller.c ****         lv_draw_rect_dsc_init(&sel_dsc);
 461:Drivers/lvgl/src/widgets/lv_roller.c ****         lv_obj_init_draw_rect_dsc(obj, LV_PART_SELECTED, &sel_dsc);
 462:Drivers/lvgl/src/widgets/lv_roller.c ****         lv_draw_rect(draw_ctx, &sel_dsc, &sel_area);
 463:Drivers/lvgl/src/widgets/lv_roller.c ****     }
 464:Drivers/lvgl/src/widgets/lv_roller.c ****     /*Post draw when the children are drawn*/
 465:Drivers/lvgl/src/widgets/lv_roller.c ****     else if(code == LV_EVENT_DRAW_POST) {
 466:Drivers/lvgl/src/widgets/lv_roller.c ****         lv_draw_ctx_t * draw_ctx = lv_event_get_draw_ctx(e);
 467:Drivers/lvgl/src/widgets/lv_roller.c **** 
 468:Drivers/lvgl/src/widgets/lv_roller.c ****         lv_draw_label_dsc_t label_dsc;
 469:Drivers/lvgl/src/widgets/lv_roller.c ****         lv_draw_label_dsc_init(&label_dsc);
 470:Drivers/lvgl/src/widgets/lv_roller.c ****         lv_obj_init_draw_label_dsc(obj, LV_PART_SELECTED, &label_dsc);
 471:Drivers/lvgl/src/widgets/lv_roller.c **** 
 472:Drivers/lvgl/src/widgets/lv_roller.c ****         /*Redraw the text on the selected area*/
 473:Drivers/lvgl/src/widgets/lv_roller.c ****         lv_area_t sel_area;
 474:Drivers/lvgl/src/widgets/lv_roller.c ****         get_sel_area(obj, &sel_area);
 475:Drivers/lvgl/src/widgets/lv_roller.c ****         lv_area_t mask_sel;
 476:Drivers/lvgl/src/widgets/lv_roller.c ****         bool area_ok;
 477:Drivers/lvgl/src/widgets/lv_roller.c ****         area_ok = _lv_area_intersect(&mask_sel, draw_ctx->clip_area, &sel_area);
 478:Drivers/lvgl/src/widgets/lv_roller.c ****         if(area_ok) {
 479:Drivers/lvgl/src/widgets/lv_roller.c ****             lv_obj_t * label = get_label(obj);
 480:Drivers/lvgl/src/widgets/lv_roller.c ****             if(lv_label_get_recolor(label)) label_dsc.flag |= LV_TEXT_FLAG_RECOLOR;
 481:Drivers/lvgl/src/widgets/lv_roller.c **** 
 482:Drivers/lvgl/src/widgets/lv_roller.c ****             /*Get the size of the "selected text"*/
 483:Drivers/lvgl/src/widgets/lv_roller.c ****             lv_point_t res_p;
 484:Drivers/lvgl/src/widgets/lv_roller.c ****             lv_txt_get_size(&res_p, lv_label_get_text(label), label_dsc.font, label_dsc.letter_spac
 485:Drivers/lvgl/src/widgets/lv_roller.c ****                             lv_obj_get_width(obj), LV_TEXT_FLAG_EXPAND);
 486:Drivers/lvgl/src/widgets/lv_roller.c **** 
ARM GAS  /var/folders/0z/tsy30v1j4xl4_7kw94k978ww0000gn/T//ccUX3GBc.s 			page 10


 487:Drivers/lvgl/src/widgets/lv_roller.c ****             /*Move the selected label proportionally with the background label*/
 488:Drivers/lvgl/src/widgets/lv_roller.c ****             lv_coord_t roller_h = lv_obj_get_height(obj);
 489:Drivers/lvgl/src/widgets/lv_roller.c ****             int32_t label_y_prop = label->coords.y1 - (roller_h / 2 +
 490:Drivers/lvgl/src/widgets/lv_roller.c ****                                                        obj->coords.y1); /*label offset from the mid
 491:Drivers/lvgl/src/widgets/lv_roller.c ****             label_y_prop = (label_y_prop * 16384) / lv_obj_get_height(
 492:Drivers/lvgl/src/widgets/lv_roller.c ****                                label); /*Proportional position from the middle line (upscaled by <<
 493:Drivers/lvgl/src/widgets/lv_roller.c **** 
 494:Drivers/lvgl/src/widgets/lv_roller.c ****             /*Apply a correction with different line heights*/
 495:Drivers/lvgl/src/widgets/lv_roller.c ****             const lv_font_t * normal_label_font = lv_obj_get_style_text_font(obj, LV_PART_MAIN);
 496:Drivers/lvgl/src/widgets/lv_roller.c ****             lv_coord_t corr = (label_dsc.font->line_height - normal_label_font->line_height) / 2;
 497:Drivers/lvgl/src/widgets/lv_roller.c **** 
 498:Drivers/lvgl/src/widgets/lv_roller.c ****             /*Apply the proportional position to the selected text*/
 499:Drivers/lvgl/src/widgets/lv_roller.c ****             res_p.y -= corr;
 500:Drivers/lvgl/src/widgets/lv_roller.c ****             int32_t label_sel_y = roller_h / 2 + obj->coords.y1;
 501:Drivers/lvgl/src/widgets/lv_roller.c ****             label_sel_y += (label_y_prop * res_p.y) >> 14;
 502:Drivers/lvgl/src/widgets/lv_roller.c ****             label_sel_y -= corr;
 503:Drivers/lvgl/src/widgets/lv_roller.c **** 
 504:Drivers/lvgl/src/widgets/lv_roller.c ****             lv_coord_t bwidth = lv_obj_get_style_border_width(obj, LV_PART_MAIN);
 505:Drivers/lvgl/src/widgets/lv_roller.c ****             lv_coord_t pleft = lv_obj_get_style_pad_left(obj, LV_PART_MAIN);
 506:Drivers/lvgl/src/widgets/lv_roller.c ****             lv_coord_t pright = lv_obj_get_style_pad_right(obj, LV_PART_MAIN);
 507:Drivers/lvgl/src/widgets/lv_roller.c **** 
 508:Drivers/lvgl/src/widgets/lv_roller.c ****             /*Draw the selected text*/
 509:Drivers/lvgl/src/widgets/lv_roller.c ****             lv_area_t label_sel_area;
 510:Drivers/lvgl/src/widgets/lv_roller.c ****             label_sel_area.x1 = obj->coords.x1 + pleft + bwidth;
 511:Drivers/lvgl/src/widgets/lv_roller.c ****             label_sel_area.y1 = label_sel_y;
 512:Drivers/lvgl/src/widgets/lv_roller.c ****             label_sel_area.x2 = obj->coords.x2 - pright - bwidth;
 513:Drivers/lvgl/src/widgets/lv_roller.c ****             label_sel_area.y2 = label_sel_area.y1 + res_p.y;
 514:Drivers/lvgl/src/widgets/lv_roller.c **** 
 515:Drivers/lvgl/src/widgets/lv_roller.c ****             label_dsc.flag |= LV_TEXT_FLAG_EXPAND;
 516:Drivers/lvgl/src/widgets/lv_roller.c ****             const lv_area_t * clip_area_ori = draw_ctx->clip_area;
 517:Drivers/lvgl/src/widgets/lv_roller.c ****             draw_ctx->clip_area = &mask_sel;
 518:Drivers/lvgl/src/widgets/lv_roller.c ****             lv_draw_label(draw_ctx, &label_dsc, &label_sel_area, lv_label_get_text(label), NULL);
 519:Drivers/lvgl/src/widgets/lv_roller.c ****             draw_ctx->clip_area = clip_area_ori;
 520:Drivers/lvgl/src/widgets/lv_roller.c ****         }
 521:Drivers/lvgl/src/widgets/lv_roller.c ****     }
 522:Drivers/lvgl/src/widgets/lv_roller.c **** }
 523:Drivers/lvgl/src/widgets/lv_roller.c **** 
 524:Drivers/lvgl/src/widgets/lv_roller.c **** static void draw_label(lv_event_t * e)
 525:Drivers/lvgl/src/widgets/lv_roller.c **** {
 526:Drivers/lvgl/src/widgets/lv_roller.c ****     /* Split the drawing of the label into  an upper (above the selected area)
 527:Drivers/lvgl/src/widgets/lv_roller.c ****      * and a lower (below the selected area)*/
 528:Drivers/lvgl/src/widgets/lv_roller.c ****     lv_obj_t * label_obj = lv_event_get_target(e);
 529:Drivers/lvgl/src/widgets/lv_roller.c ****     lv_obj_t * roller = lv_obj_get_parent(label_obj);
 530:Drivers/lvgl/src/widgets/lv_roller.c ****     lv_draw_label_dsc_t label_draw_dsc;
 531:Drivers/lvgl/src/widgets/lv_roller.c ****     lv_draw_label_dsc_init(&label_draw_dsc);
 532:Drivers/lvgl/src/widgets/lv_roller.c ****     lv_obj_init_draw_label_dsc(roller, LV_PART_MAIN, &label_draw_dsc);
 533:Drivers/lvgl/src/widgets/lv_roller.c ****     if(lv_label_get_recolor(label_obj)) label_draw_dsc.flag |= LV_TEXT_FLAG_RECOLOR;
 534:Drivers/lvgl/src/widgets/lv_roller.c **** 
 535:Drivers/lvgl/src/widgets/lv_roller.c ****     lv_draw_ctx_t * draw_ctx = lv_event_get_draw_ctx(e);
 536:Drivers/lvgl/src/widgets/lv_roller.c **** 
 537:Drivers/lvgl/src/widgets/lv_roller.c ****     /*If the roller has shadow or outline it has some ext. draw size
 538:Drivers/lvgl/src/widgets/lv_roller.c ****      *therefore the label can overflow the roller's boundaries.
 539:Drivers/lvgl/src/widgets/lv_roller.c ****      *To solve this limit the clip area to the "plain" roller.*/
 540:Drivers/lvgl/src/widgets/lv_roller.c ****     const lv_area_t * clip_area_ori = draw_ctx->clip_area;
 541:Drivers/lvgl/src/widgets/lv_roller.c ****     lv_area_t roller_clip_area;
 542:Drivers/lvgl/src/widgets/lv_roller.c ****     if(!_lv_area_intersect(&roller_clip_area, draw_ctx->clip_area, &roller->coords)) return;
 543:Drivers/lvgl/src/widgets/lv_roller.c ****     draw_ctx->clip_area = &roller_clip_area;
ARM GAS  /var/folders/0z/tsy30v1j4xl4_7kw94k978ww0000gn/T//ccUX3GBc.s 			page 11


 544:Drivers/lvgl/src/widgets/lv_roller.c **** 
 545:Drivers/lvgl/src/widgets/lv_roller.c ****     lv_area_t sel_area;
 546:Drivers/lvgl/src/widgets/lv_roller.c ****     get_sel_area(roller, &sel_area);
 547:Drivers/lvgl/src/widgets/lv_roller.c **** 
 548:Drivers/lvgl/src/widgets/lv_roller.c ****     lv_area_t clip2;
 549:Drivers/lvgl/src/widgets/lv_roller.c ****     clip2.x1 = label_obj->coords.x1;
 550:Drivers/lvgl/src/widgets/lv_roller.c ****     clip2.y1 = label_obj->coords.y1;
 551:Drivers/lvgl/src/widgets/lv_roller.c ****     clip2.x2 = label_obj->coords.x2;
 552:Drivers/lvgl/src/widgets/lv_roller.c ****     clip2.y2 = sel_area.y1;
 553:Drivers/lvgl/src/widgets/lv_roller.c ****     if(_lv_area_intersect(&clip2, draw_ctx->clip_area, &clip2)) {
 554:Drivers/lvgl/src/widgets/lv_roller.c ****         const lv_area_t * clip_area_ori2 = draw_ctx->clip_area;
 555:Drivers/lvgl/src/widgets/lv_roller.c ****         draw_ctx->clip_area = &clip2;
 556:Drivers/lvgl/src/widgets/lv_roller.c ****         lv_draw_label(draw_ctx, &label_draw_dsc, &label_obj->coords, lv_label_get_text(label_obj), 
 557:Drivers/lvgl/src/widgets/lv_roller.c ****         draw_ctx->clip_area = clip_area_ori2;
 558:Drivers/lvgl/src/widgets/lv_roller.c ****     }
 559:Drivers/lvgl/src/widgets/lv_roller.c **** 
 560:Drivers/lvgl/src/widgets/lv_roller.c ****     clip2.x1 = label_obj->coords.x1;
 561:Drivers/lvgl/src/widgets/lv_roller.c ****     clip2.y1 = sel_area.y2;
 562:Drivers/lvgl/src/widgets/lv_roller.c ****     clip2.x2 = label_obj->coords.x2;
 563:Drivers/lvgl/src/widgets/lv_roller.c ****     clip2.y2 = label_obj->coords.y2;
 564:Drivers/lvgl/src/widgets/lv_roller.c ****     if(_lv_area_intersect(&clip2, draw_ctx->clip_area, &clip2)) {
 565:Drivers/lvgl/src/widgets/lv_roller.c ****         const lv_area_t * clip_area_ori2 = draw_ctx->clip_area;
 566:Drivers/lvgl/src/widgets/lv_roller.c ****         draw_ctx->clip_area = &clip2;
 567:Drivers/lvgl/src/widgets/lv_roller.c ****         lv_draw_label(draw_ctx, &label_draw_dsc, &label_obj->coords, lv_label_get_text(label_obj), 
 568:Drivers/lvgl/src/widgets/lv_roller.c ****         draw_ctx->clip_area = clip_area_ori2;
 569:Drivers/lvgl/src/widgets/lv_roller.c ****     }
 570:Drivers/lvgl/src/widgets/lv_roller.c **** 
 571:Drivers/lvgl/src/widgets/lv_roller.c ****     draw_ctx->clip_area = clip_area_ori;
 572:Drivers/lvgl/src/widgets/lv_roller.c **** }
 573:Drivers/lvgl/src/widgets/lv_roller.c **** 
 574:Drivers/lvgl/src/widgets/lv_roller.c **** static void get_sel_area(lv_obj_t * obj, lv_area_t * sel_area)
 575:Drivers/lvgl/src/widgets/lv_roller.c **** {
 576:Drivers/lvgl/src/widgets/lv_roller.c **** 
 577:Drivers/lvgl/src/widgets/lv_roller.c ****     const lv_font_t * font_main = lv_obj_get_style_text_font(obj, LV_PART_MAIN);
 578:Drivers/lvgl/src/widgets/lv_roller.c ****     const lv_font_t * font_sel = lv_obj_get_style_text_font(obj, LV_PART_SELECTED);
 579:Drivers/lvgl/src/widgets/lv_roller.c ****     lv_coord_t font_main_h        = lv_font_get_line_height(font_main);
 580:Drivers/lvgl/src/widgets/lv_roller.c ****     lv_coord_t font_sel_h        = lv_font_get_line_height(font_sel);
 581:Drivers/lvgl/src/widgets/lv_roller.c ****     lv_coord_t line_space = lv_obj_get_style_text_line_space(obj, LV_PART_MAIN);
 582:Drivers/lvgl/src/widgets/lv_roller.c ****     lv_coord_t d = (font_sel_h + font_main_h) / 2 + line_space;
 583:Drivers/lvgl/src/widgets/lv_roller.c ****     sel_area->y1 = obj->coords.y1 + lv_obj_get_height(obj) / 2 - d / 2;
 584:Drivers/lvgl/src/widgets/lv_roller.c ****     sel_area->y2 = sel_area->y1 + d;
 585:Drivers/lvgl/src/widgets/lv_roller.c ****     lv_area_t roller_coords;
 586:Drivers/lvgl/src/widgets/lv_roller.c ****     lv_obj_get_coords(obj, &roller_coords);
 587:Drivers/lvgl/src/widgets/lv_roller.c **** 
 588:Drivers/lvgl/src/widgets/lv_roller.c ****     sel_area->x1 = roller_coords.x1;
 589:Drivers/lvgl/src/widgets/lv_roller.c ****     sel_area->x2 = roller_coords.x2;
 590:Drivers/lvgl/src/widgets/lv_roller.c **** 
 591:Drivers/lvgl/src/widgets/lv_roller.c **** }
 592:Drivers/lvgl/src/widgets/lv_roller.c **** 
 593:Drivers/lvgl/src/widgets/lv_roller.c **** /**
 594:Drivers/lvgl/src/widgets/lv_roller.c ****  * Refresh the position of the roller. It uses the id stored in: roller->ddlist.selected_option_id
 595:Drivers/lvgl/src/widgets/lv_roller.c ****  * @param roller pointer to a roller object
 596:Drivers/lvgl/src/widgets/lv_roller.c ****  * @param anim_en LV_ANIM_ON: refresh with animation; LV_ANOM_OFF: without animation
 597:Drivers/lvgl/src/widgets/lv_roller.c ****  */
 598:Drivers/lvgl/src/widgets/lv_roller.c **** static void refr_position(lv_obj_t * obj, lv_anim_enable_t anim_en)
 599:Drivers/lvgl/src/widgets/lv_roller.c **** {
 600:Drivers/lvgl/src/widgets/lv_roller.c ****     lv_obj_t * label = get_label(obj);
ARM GAS  /var/folders/0z/tsy30v1j4xl4_7kw94k978ww0000gn/T//ccUX3GBc.s 			page 12


 601:Drivers/lvgl/src/widgets/lv_roller.c ****     if(label == NULL) return;
 602:Drivers/lvgl/src/widgets/lv_roller.c **** 
 603:Drivers/lvgl/src/widgets/lv_roller.c ****     lv_text_align_t align = lv_obj_calculate_style_text_align(label, LV_PART_MAIN, lv_label_get_tex
 604:Drivers/lvgl/src/widgets/lv_roller.c **** 
 605:Drivers/lvgl/src/widgets/lv_roller.c ****     switch(align) {
 606:Drivers/lvgl/src/widgets/lv_roller.c ****         case LV_TEXT_ALIGN_CENTER:
 607:Drivers/lvgl/src/widgets/lv_roller.c ****             lv_obj_set_x(label, (lv_obj_get_content_width(obj) - lv_obj_get_width(label)) / 2);
 608:Drivers/lvgl/src/widgets/lv_roller.c ****             break;
 609:Drivers/lvgl/src/widgets/lv_roller.c ****         case LV_TEXT_ALIGN_RIGHT:
 610:Drivers/lvgl/src/widgets/lv_roller.c ****             lv_obj_set_x(label, lv_obj_get_content_width(obj) - lv_obj_get_width(label));
 611:Drivers/lvgl/src/widgets/lv_roller.c ****             break;
 612:Drivers/lvgl/src/widgets/lv_roller.c ****         case LV_TEXT_ALIGN_LEFT:
 613:Drivers/lvgl/src/widgets/lv_roller.c ****             lv_obj_set_x(label, 0);
 614:Drivers/lvgl/src/widgets/lv_roller.c ****             break;
 615:Drivers/lvgl/src/widgets/lv_roller.c ****     }
 616:Drivers/lvgl/src/widgets/lv_roller.c **** 
 617:Drivers/lvgl/src/widgets/lv_roller.c ****     lv_roller_t * roller = (lv_roller_t *)obj;
 618:Drivers/lvgl/src/widgets/lv_roller.c ****     const lv_font_t * font = lv_obj_get_style_text_font(obj, LV_PART_MAIN);
 619:Drivers/lvgl/src/widgets/lv_roller.c ****     lv_coord_t line_space = lv_obj_get_style_text_line_space(obj, LV_PART_MAIN);
 620:Drivers/lvgl/src/widgets/lv_roller.c ****     lv_coord_t font_h              = lv_font_get_line_height(font);
 621:Drivers/lvgl/src/widgets/lv_roller.c ****     lv_coord_t h                   = lv_obj_get_content_height(obj);
 622:Drivers/lvgl/src/widgets/lv_roller.c ****     uint16_t anim_time             = lv_obj_get_style_anim_time(obj, LV_PART_MAIN);
 623:Drivers/lvgl/src/widgets/lv_roller.c **** 
 624:Drivers/lvgl/src/widgets/lv_roller.c ****     /*Normally the animation's `end_cb` sets correct position of the roller if infinite.
 625:Drivers/lvgl/src/widgets/lv_roller.c ****      *But without animations do it manually*/
 626:Drivers/lvgl/src/widgets/lv_roller.c ****     if(anim_en == LV_ANIM_OFF || anim_time == 0) {
 627:Drivers/lvgl/src/widgets/lv_roller.c ****         inf_normalize(obj);
 628:Drivers/lvgl/src/widgets/lv_roller.c ****     }
 629:Drivers/lvgl/src/widgets/lv_roller.c **** 
 630:Drivers/lvgl/src/widgets/lv_roller.c ****     int32_t id = roller->sel_opt_id;
 631:Drivers/lvgl/src/widgets/lv_roller.c ****     lv_coord_t sel_y1 = id * (font_h + line_space);
 632:Drivers/lvgl/src/widgets/lv_roller.c ****     lv_coord_t mid_y1 = h / 2 - font_h / 2;
 633:Drivers/lvgl/src/widgets/lv_roller.c **** 
 634:Drivers/lvgl/src/widgets/lv_roller.c ****     lv_coord_t new_y = mid_y1 - sel_y1;
 635:Drivers/lvgl/src/widgets/lv_roller.c **** 
 636:Drivers/lvgl/src/widgets/lv_roller.c ****     if(anim_en == LV_ANIM_OFF || anim_time == 0) {
 637:Drivers/lvgl/src/widgets/lv_roller.c ****         lv_anim_del(label, set_y_anim);
 638:Drivers/lvgl/src/widgets/lv_roller.c ****         lv_obj_set_y(label, new_y);
 639:Drivers/lvgl/src/widgets/lv_roller.c ****     }
 640:Drivers/lvgl/src/widgets/lv_roller.c ****     else {
 641:Drivers/lvgl/src/widgets/lv_roller.c ****         lv_anim_t a;
 642:Drivers/lvgl/src/widgets/lv_roller.c ****         lv_anim_init(&a);
 643:Drivers/lvgl/src/widgets/lv_roller.c ****         lv_anim_set_var(&a, label);
 644:Drivers/lvgl/src/widgets/lv_roller.c ****         lv_anim_set_exec_cb(&a, set_y_anim);
 645:Drivers/lvgl/src/widgets/lv_roller.c ****         lv_anim_set_values(&a, lv_obj_get_y(label), new_y);
 646:Drivers/lvgl/src/widgets/lv_roller.c ****         lv_anim_set_time(&a, anim_time);
 647:Drivers/lvgl/src/widgets/lv_roller.c ****         lv_anim_set_ready_cb(&a, scroll_anim_ready_cb);
 648:Drivers/lvgl/src/widgets/lv_roller.c ****         lv_anim_set_path_cb(&a, lv_anim_path_ease_out);
 649:Drivers/lvgl/src/widgets/lv_roller.c ****         lv_anim_start(&a);
 650:Drivers/lvgl/src/widgets/lv_roller.c ****     }
 651:Drivers/lvgl/src/widgets/lv_roller.c **** }
 652:Drivers/lvgl/src/widgets/lv_roller.c **** 
 653:Drivers/lvgl/src/widgets/lv_roller.c **** static lv_res_t release_handler(lv_obj_t * obj)
 654:Drivers/lvgl/src/widgets/lv_roller.c **** {
 655:Drivers/lvgl/src/widgets/lv_roller.c ****     lv_obj_t * label = get_label(obj);
 656:Drivers/lvgl/src/widgets/lv_roller.c ****     if(label == NULL) return LV_RES_OK;
 657:Drivers/lvgl/src/widgets/lv_roller.c **** 
ARM GAS  /var/folders/0z/tsy30v1j4xl4_7kw94k978ww0000gn/T//ccUX3GBc.s 			page 13


 658:Drivers/lvgl/src/widgets/lv_roller.c ****     lv_indev_t * indev = lv_indev_get_act();
 659:Drivers/lvgl/src/widgets/lv_roller.c ****     lv_roller_t * roller = (lv_roller_t *)obj;
 660:Drivers/lvgl/src/widgets/lv_roller.c **** 
 661:Drivers/lvgl/src/widgets/lv_roller.c ****     /*Leave edit mode once a new option is selected*/
 662:Drivers/lvgl/src/widgets/lv_roller.c ****     lv_indev_type_t indev_type = lv_indev_get_type(indev);
 663:Drivers/lvgl/src/widgets/lv_roller.c ****     if(indev_type == LV_INDEV_TYPE_ENCODER || indev_type == LV_INDEV_TYPE_KEYPAD) {
 664:Drivers/lvgl/src/widgets/lv_roller.c ****         roller->sel_opt_id_ori = roller->sel_opt_id;
 665:Drivers/lvgl/src/widgets/lv_roller.c **** 
 666:Drivers/lvgl/src/widgets/lv_roller.c ****         if(indev_type == LV_INDEV_TYPE_ENCODER) {
 667:Drivers/lvgl/src/widgets/lv_roller.c ****             lv_group_t * g      = lv_obj_get_group(obj);
 668:Drivers/lvgl/src/widgets/lv_roller.c ****             if(lv_group_get_editing(g)) {
 669:Drivers/lvgl/src/widgets/lv_roller.c ****                 lv_group_set_editing(g, false);
 670:Drivers/lvgl/src/widgets/lv_roller.c ****             }
 671:Drivers/lvgl/src/widgets/lv_roller.c ****         }
 672:Drivers/lvgl/src/widgets/lv_roller.c ****     }
 673:Drivers/lvgl/src/widgets/lv_roller.c **** 
 674:Drivers/lvgl/src/widgets/lv_roller.c ****     if(lv_indev_get_type(indev) == LV_INDEV_TYPE_POINTER || lv_indev_get_type(indev) == LV_INDEV_TY
 675:Drivers/lvgl/src/widgets/lv_roller.c ****         /*Search the clicked option (For KEYPAD and ENCODER the new value should be already set)*/
 676:Drivers/lvgl/src/widgets/lv_roller.c ****         int16_t new_opt  = -1;
 677:Drivers/lvgl/src/widgets/lv_roller.c ****         if(roller->moved == 0) {
 678:Drivers/lvgl/src/widgets/lv_roller.c ****             new_opt = 0;
 679:Drivers/lvgl/src/widgets/lv_roller.c ****             lv_point_t p;
 680:Drivers/lvgl/src/widgets/lv_roller.c ****             lv_indev_get_point(indev, &p);
 681:Drivers/lvgl/src/widgets/lv_roller.c ****             p.y -= label->coords.y1;
 682:Drivers/lvgl/src/widgets/lv_roller.c ****             p.x -= label->coords.x1;
 683:Drivers/lvgl/src/widgets/lv_roller.c ****             uint32_t letter_i;
 684:Drivers/lvgl/src/widgets/lv_roller.c ****             letter_i = lv_label_get_letter_on(label, &p);
 685:Drivers/lvgl/src/widgets/lv_roller.c **** 
 686:Drivers/lvgl/src/widgets/lv_roller.c ****             const char * txt  = lv_label_get_text(label);
 687:Drivers/lvgl/src/widgets/lv_roller.c ****             uint32_t i        = 0;
 688:Drivers/lvgl/src/widgets/lv_roller.c ****             uint32_t i_prev   = 0;
 689:Drivers/lvgl/src/widgets/lv_roller.c **** 
 690:Drivers/lvgl/src/widgets/lv_roller.c ****             uint32_t letter_cnt = 0;
 691:Drivers/lvgl/src/widgets/lv_roller.c ****             for(letter_cnt = 0; letter_cnt < letter_i; letter_cnt++) {
 692:Drivers/lvgl/src/widgets/lv_roller.c ****                 uint32_t letter = _lv_txt_encoded_next(txt, &i);
 693:Drivers/lvgl/src/widgets/lv_roller.c ****                 /*Count he lines to reach the clicked letter. But ignore the last '\n' because it
 694:Drivers/lvgl/src/widgets/lv_roller.c ****                  * still belongs to the clicked line*/
 695:Drivers/lvgl/src/widgets/lv_roller.c ****                 if(letter == '\n' && i_prev != letter_i) new_opt++;
 696:Drivers/lvgl/src/widgets/lv_roller.c ****                 i_prev = i;
 697:Drivers/lvgl/src/widgets/lv_roller.c ****             }
 698:Drivers/lvgl/src/widgets/lv_roller.c ****         }
 699:Drivers/lvgl/src/widgets/lv_roller.c ****         else {
 700:Drivers/lvgl/src/widgets/lv_roller.c ****             /*If dragged then align the list to have an element in the middle*/
 701:Drivers/lvgl/src/widgets/lv_roller.c ****             const lv_font_t * font = lv_obj_get_style_text_font(obj, LV_PART_MAIN);
 702:Drivers/lvgl/src/widgets/lv_roller.c ****             lv_coord_t line_space = lv_obj_get_style_text_line_space(obj, LV_PART_MAIN);
 703:Drivers/lvgl/src/widgets/lv_roller.c ****             lv_coord_t font_h              = lv_font_get_line_height(font);
 704:Drivers/lvgl/src/widgets/lv_roller.c **** 
 705:Drivers/lvgl/src/widgets/lv_roller.c ****             lv_coord_t label_unit = font_h + line_space;
 706:Drivers/lvgl/src/widgets/lv_roller.c ****             lv_coord_t mid        = obj->coords.y1 + (obj->coords.y2 - obj->coords.y1) / 2;
 707:Drivers/lvgl/src/widgets/lv_roller.c ****             lv_coord_t label_y1 = label->coords.y1 + lv_indev_scroll_throw_predict(indev, LV_DIR_VE
 708:Drivers/lvgl/src/widgets/lv_roller.c ****             int32_t id = (mid - label_y1) / label_unit;
 709:Drivers/lvgl/src/widgets/lv_roller.c **** 
 710:Drivers/lvgl/src/widgets/lv_roller.c ****             if(id < 0) id = 0;
 711:Drivers/lvgl/src/widgets/lv_roller.c ****             if(id >= roller->option_cnt) id = roller->option_cnt - 1;
 712:Drivers/lvgl/src/widgets/lv_roller.c **** 
 713:Drivers/lvgl/src/widgets/lv_roller.c ****             new_opt = id;
 714:Drivers/lvgl/src/widgets/lv_roller.c ****         }
ARM GAS  /var/folders/0z/tsy30v1j4xl4_7kw94k978ww0000gn/T//ccUX3GBc.s 			page 14


 715:Drivers/lvgl/src/widgets/lv_roller.c **** 
 716:Drivers/lvgl/src/widgets/lv_roller.c ****         if(new_opt >= 0) {
 717:Drivers/lvgl/src/widgets/lv_roller.c ****             lv_roller_set_selected(obj, new_opt, LV_ANIM_ON);
 718:Drivers/lvgl/src/widgets/lv_roller.c ****         }
 719:Drivers/lvgl/src/widgets/lv_roller.c ****     }
 720:Drivers/lvgl/src/widgets/lv_roller.c **** 
 721:Drivers/lvgl/src/widgets/lv_roller.c ****     uint32_t id  = roller->sel_opt_id; /*Just to use uint32_t in event data*/
 722:Drivers/lvgl/src/widgets/lv_roller.c ****     lv_res_t res = lv_event_send(obj, LV_EVENT_VALUE_CHANGED, &id);
 723:Drivers/lvgl/src/widgets/lv_roller.c ****     return res;
 724:Drivers/lvgl/src/widgets/lv_roller.c **** }
 725:Drivers/lvgl/src/widgets/lv_roller.c **** 
 726:Drivers/lvgl/src/widgets/lv_roller.c **** /**
 727:Drivers/lvgl/src/widgets/lv_roller.c ****  * Set the middle page for the roller if infinite is enabled
 728:Drivers/lvgl/src/widgets/lv_roller.c ****  * @param roller pointer to a roller object
 729:Drivers/lvgl/src/widgets/lv_roller.c ****  */
 730:Drivers/lvgl/src/widgets/lv_roller.c **** static void inf_normalize(lv_obj_t * obj)
 731:Drivers/lvgl/src/widgets/lv_roller.c **** {
 732:Drivers/lvgl/src/widgets/lv_roller.c ****     lv_roller_t * roller = (lv_roller_t *)obj;
 733:Drivers/lvgl/src/widgets/lv_roller.c **** 
 734:Drivers/lvgl/src/widgets/lv_roller.c ****     if(roller->mode == LV_ROLLER_MODE_INFINITE) {
 735:Drivers/lvgl/src/widgets/lv_roller.c ****         uint16_t real_id_cnt = roller->option_cnt / LV_ROLLER_INF_PAGES;
 736:Drivers/lvgl/src/widgets/lv_roller.c ****         roller->sel_opt_id = roller->sel_opt_id % real_id_cnt;
 737:Drivers/lvgl/src/widgets/lv_roller.c ****         roller->sel_opt_id += (LV_ROLLER_INF_PAGES / 2) * real_id_cnt; /*Select the middle page*/
 738:Drivers/lvgl/src/widgets/lv_roller.c **** 
 739:Drivers/lvgl/src/widgets/lv_roller.c ****         roller->sel_opt_id_ori = roller->sel_opt_id % real_id_cnt;
 740:Drivers/lvgl/src/widgets/lv_roller.c ****         roller->sel_opt_id_ori += (LV_ROLLER_INF_PAGES / 2) * real_id_cnt; /*Select the middle page
 741:Drivers/lvgl/src/widgets/lv_roller.c **** 
 742:Drivers/lvgl/src/widgets/lv_roller.c ****         /*Move to the new id*/
 743:Drivers/lvgl/src/widgets/lv_roller.c ****         const lv_font_t * font = lv_obj_get_style_text_font(obj, LV_PART_MAIN);
 744:Drivers/lvgl/src/widgets/lv_roller.c ****         lv_coord_t line_space = lv_obj_get_style_text_line_space(obj, LV_PART_MAIN);
 745:Drivers/lvgl/src/widgets/lv_roller.c ****         lv_coord_t font_h              = lv_font_get_line_height(font);
 746:Drivers/lvgl/src/widgets/lv_roller.c ****         lv_coord_t h                   = lv_obj_get_content_height(obj);
 747:Drivers/lvgl/src/widgets/lv_roller.c **** 
 748:Drivers/lvgl/src/widgets/lv_roller.c ****         lv_obj_t * label = get_label(obj);
 749:Drivers/lvgl/src/widgets/lv_roller.c **** 
 750:Drivers/lvgl/src/widgets/lv_roller.c **** 
 751:Drivers/lvgl/src/widgets/lv_roller.c ****         lv_coord_t sel_y1 = roller->sel_opt_id * (font_h + line_space);
 752:Drivers/lvgl/src/widgets/lv_roller.c ****         lv_coord_t mid_y1 = h / 2 - font_h / 2;
 753:Drivers/lvgl/src/widgets/lv_roller.c ****         lv_coord_t new_y = mid_y1 - sel_y1;
 754:Drivers/lvgl/src/widgets/lv_roller.c ****         lv_obj_set_y(label, new_y);
 755:Drivers/lvgl/src/widgets/lv_roller.c ****     }
 756:Drivers/lvgl/src/widgets/lv_roller.c **** }
 757:Drivers/lvgl/src/widgets/lv_roller.c **** 
 758:Drivers/lvgl/src/widgets/lv_roller.c **** static lv_obj_t * get_label(const lv_obj_t * obj)
 759:Drivers/lvgl/src/widgets/lv_roller.c **** {
 760:Drivers/lvgl/src/widgets/lv_roller.c ****     return lv_obj_get_child(obj, 0);
 761:Drivers/lvgl/src/widgets/lv_roller.c **** }
 762:Drivers/lvgl/src/widgets/lv_roller.c **** 
 763:Drivers/lvgl/src/widgets/lv_roller.c **** 
 764:Drivers/lvgl/src/widgets/lv_roller.c **** static lv_coord_t get_selected_label_width(const lv_obj_t * obj)
 765:Drivers/lvgl/src/widgets/lv_roller.c **** {
 766:Drivers/lvgl/src/widgets/lv_roller.c ****     lv_obj_t * label = get_label(obj);
 767:Drivers/lvgl/src/widgets/lv_roller.c ****     if(label == NULL) return 0;
 768:Drivers/lvgl/src/widgets/lv_roller.c **** 
 769:Drivers/lvgl/src/widgets/lv_roller.c ****     const lv_font_t * font = lv_obj_get_style_text_font(obj, LV_PART_SELECTED);
 770:Drivers/lvgl/src/widgets/lv_roller.c ****     lv_coord_t letter_space = lv_obj_get_style_text_letter_space(obj, LV_PART_SELECTED);
 771:Drivers/lvgl/src/widgets/lv_roller.c ****     const char * txt = lv_label_get_text(label);
ARM GAS  /var/folders/0z/tsy30v1j4xl4_7kw94k978ww0000gn/T//ccUX3GBc.s 			page 15


 772:Drivers/lvgl/src/widgets/lv_roller.c ****     lv_point_t size;
 773:Drivers/lvgl/src/widgets/lv_roller.c ****     lv_txt_get_size(&size, txt, font, letter_space, 0, LV_COORD_MAX,  LV_TEXT_FLAG_NONE);
 774:Drivers/lvgl/src/widgets/lv_roller.c ****     return size.x;
 775:Drivers/lvgl/src/widgets/lv_roller.c **** }
 776:Drivers/lvgl/src/widgets/lv_roller.c **** 
 777:Drivers/lvgl/src/widgets/lv_roller.c **** static void scroll_anim_ready_cb(lv_anim_t * a)
 778:Drivers/lvgl/src/widgets/lv_roller.c **** {
 779:Drivers/lvgl/src/widgets/lv_roller.c ****     lv_obj_t * obj = lv_obj_get_parent(a->var); /*The label is animated*/
 780:Drivers/lvgl/src/widgets/lv_roller.c ****     inf_normalize(obj);
 781:Drivers/lvgl/src/widgets/lv_roller.c **** }
 782:Drivers/lvgl/src/widgets/lv_roller.c **** 
 783:Drivers/lvgl/src/widgets/lv_roller.c **** 
 784:Drivers/lvgl/src/widgets/lv_roller.c **** static void set_y_anim(void * obj, int32_t v)
 785:Drivers/lvgl/src/widgets/lv_roller.c **** {
  29              		.loc 1 785 1 view -0
  30              		.cfi_startproc
  31              		@ args = 0, pretend = 0, frame = 0
  32              		@ frame_needed = 0, uses_anonymous_args = 0
  33              		.loc 1 785 1 is_stmt 0 view .LVU1
  34 0000 08B5     		push	{r3, lr}
  35              		.cfi_def_cfa_offset 8
  36              		.cfi_offset 3, -8
  37              		.cfi_offset 14, -4
 786:Drivers/lvgl/src/widgets/lv_roller.c ****     lv_obj_set_y(obj, v);
  38              		.loc 1 786 5 is_stmt 1 view .LVU2
  39 0002 09B2     		sxth	r1, r1
  40              	.LVL1:
  41              		.loc 1 786 5 is_stmt 0 view .LVU3
  42 0004 FFF7FEFF 		bl	lv_obj_set_y
  43              	.LVL2:
 787:Drivers/lvgl/src/widgets/lv_roller.c **** }
  44              		.loc 1 787 1 view .LVU4
  45 0008 08BD     		pop	{r3, pc}
  46              		.cfi_endproc
  47              	.LFE181:
  49              		.section	.text.get_label,"ax",%progbits
  50              		.align	1
  51              		.syntax unified
  52              		.thumb
  53              		.thumb_func
  55              	get_label:
  56              	.LVL3:
  57              	.LFB178:
 759:Drivers/lvgl/src/widgets/lv_roller.c ****     return lv_obj_get_child(obj, 0);
  58              		.loc 1 759 1 is_stmt 1 view -0
  59              		.cfi_startproc
  60              		@ args = 0, pretend = 0, frame = 0
  61              		@ frame_needed = 0, uses_anonymous_args = 0
 759:Drivers/lvgl/src/widgets/lv_roller.c ****     return lv_obj_get_child(obj, 0);
  62              		.loc 1 759 1 is_stmt 0 view .LVU6
  63 0000 08B5     		push	{r3, lr}
  64              		.cfi_def_cfa_offset 8
  65              		.cfi_offset 3, -8
  66              		.cfi_offset 14, -4
 760:Drivers/lvgl/src/widgets/lv_roller.c **** }
  67              		.loc 1 760 5 is_stmt 1 view .LVU7
 760:Drivers/lvgl/src/widgets/lv_roller.c **** }
ARM GAS  /var/folders/0z/tsy30v1j4xl4_7kw94k978ww0000gn/T//ccUX3GBc.s 			page 16


  68              		.loc 1 760 12 is_stmt 0 view .LVU8
  69 0002 0021     		movs	r1, #0
  70 0004 FFF7FEFF 		bl	lv_obj_get_child
  71              	.LVL4:
 761:Drivers/lvgl/src/widgets/lv_roller.c **** 
  72              		.loc 1 761 1 view .LVU9
  73 0008 08BD     		pop	{r3, pc}
  74              		.cfi_endproc
  75              	.LFE178:
  77              		.section	.text.get_selected_label_width,"ax",%progbits
  78              		.align	1
  79              		.syntax unified
  80              		.thumb
  81              		.thumb_func
  83              	get_selected_label_width:
  84              	.LVL5:
  85              	.LFB179:
 765:Drivers/lvgl/src/widgets/lv_roller.c ****     lv_obj_t * label = get_label(obj);
  86              		.loc 1 765 1 is_stmt 1 view -0
  87              		.cfi_startproc
  88              		@ args = 0, pretend = 0, frame = 8
  89              		@ frame_needed = 0, uses_anonymous_args = 0
 765:Drivers/lvgl/src/widgets/lv_roller.c ****     lv_obj_t * label = get_label(obj);
  90              		.loc 1 765 1 is_stmt 0 view .LVU11
  91 0000 70B5     		push	{r4, r5, r6, lr}
  92              		.cfi_def_cfa_offset 16
  93              		.cfi_offset 4, -16
  94              		.cfi_offset 5, -12
  95              		.cfi_offset 6, -8
  96              		.cfi_offset 14, -4
  97 0002 86B0     		sub	sp, sp, #24
  98              		.cfi_def_cfa_offset 40
  99 0004 0446     		mov	r4, r0
 766:Drivers/lvgl/src/widgets/lv_roller.c ****     if(label == NULL) return 0;
 100              		.loc 1 766 5 is_stmt 1 view .LVU12
 766:Drivers/lvgl/src/widgets/lv_roller.c ****     if(label == NULL) return 0;
 101              		.loc 1 766 24 is_stmt 0 view .LVU13
 102 0006 FFF7FEFF 		bl	get_label
 103              	.LVL6:
 767:Drivers/lvgl/src/widgets/lv_roller.c **** 
 104              		.loc 1 767 5 is_stmt 1 view .LVU14
 767:Drivers/lvgl/src/widgets/lv_roller.c **** 
 105              		.loc 1 767 7 is_stmt 0 view .LVU15
 106 000a 08B3     		cbz	r0, .L7
 107 000c 0646     		mov	r6, r0
 769:Drivers/lvgl/src/widgets/lv_roller.c ****     lv_coord_t letter_space = lv_obj_get_style_text_letter_space(obj, LV_PART_SELECTED);
 108              		.loc 1 769 5 is_stmt 1 view .LVU16
 109              	.LVL7:
 110              	.LBB74:
 111              	.LBI74:
 112              		.file 2 "Drivers/lvgl/src/widgets/../core/lv_obj_style_gen.h"
   1:Drivers/lvgl/src/widgets/../core/lv_obj_style_gen.h **** static inline lv_coord_t lv_obj_get_style_width(const struct _lv_obj_t * obj, uint32_t part)
   2:Drivers/lvgl/src/widgets/../core/lv_obj_style_gen.h **** {
   3:Drivers/lvgl/src/widgets/../core/lv_obj_style_gen.h ****     lv_style_value_t v = lv_obj_get_style_prop(obj, part, LV_STYLE_WIDTH);
   4:Drivers/lvgl/src/widgets/../core/lv_obj_style_gen.h ****     return (lv_coord_t)v.num;
   5:Drivers/lvgl/src/widgets/../core/lv_obj_style_gen.h **** }
   6:Drivers/lvgl/src/widgets/../core/lv_obj_style_gen.h **** 
ARM GAS  /var/folders/0z/tsy30v1j4xl4_7kw94k978ww0000gn/T//ccUX3GBc.s 			page 17


   7:Drivers/lvgl/src/widgets/../core/lv_obj_style_gen.h **** static inline lv_coord_t lv_obj_get_style_min_width(const struct _lv_obj_t * obj, uint32_t part)
   8:Drivers/lvgl/src/widgets/../core/lv_obj_style_gen.h **** {
   9:Drivers/lvgl/src/widgets/../core/lv_obj_style_gen.h ****     lv_style_value_t v = lv_obj_get_style_prop(obj, part, LV_STYLE_MIN_WIDTH);
  10:Drivers/lvgl/src/widgets/../core/lv_obj_style_gen.h ****     return (lv_coord_t)v.num;
  11:Drivers/lvgl/src/widgets/../core/lv_obj_style_gen.h **** }
  12:Drivers/lvgl/src/widgets/../core/lv_obj_style_gen.h **** 
  13:Drivers/lvgl/src/widgets/../core/lv_obj_style_gen.h **** static inline lv_coord_t lv_obj_get_style_max_width(const struct _lv_obj_t * obj, uint32_t part)
  14:Drivers/lvgl/src/widgets/../core/lv_obj_style_gen.h **** {
  15:Drivers/lvgl/src/widgets/../core/lv_obj_style_gen.h ****     lv_style_value_t v = lv_obj_get_style_prop(obj, part, LV_STYLE_MAX_WIDTH);
  16:Drivers/lvgl/src/widgets/../core/lv_obj_style_gen.h ****     return (lv_coord_t)v.num;
  17:Drivers/lvgl/src/widgets/../core/lv_obj_style_gen.h **** }
  18:Drivers/lvgl/src/widgets/../core/lv_obj_style_gen.h **** 
  19:Drivers/lvgl/src/widgets/../core/lv_obj_style_gen.h **** static inline lv_coord_t lv_obj_get_style_height(const struct _lv_obj_t * obj, uint32_t part)
  20:Drivers/lvgl/src/widgets/../core/lv_obj_style_gen.h **** {
  21:Drivers/lvgl/src/widgets/../core/lv_obj_style_gen.h ****     lv_style_value_t v = lv_obj_get_style_prop(obj, part, LV_STYLE_HEIGHT);
  22:Drivers/lvgl/src/widgets/../core/lv_obj_style_gen.h ****     return (lv_coord_t)v.num;
  23:Drivers/lvgl/src/widgets/../core/lv_obj_style_gen.h **** }
  24:Drivers/lvgl/src/widgets/../core/lv_obj_style_gen.h **** 
  25:Drivers/lvgl/src/widgets/../core/lv_obj_style_gen.h **** static inline lv_coord_t lv_obj_get_style_min_height(const struct _lv_obj_t * obj, uint32_t part)
  26:Drivers/lvgl/src/widgets/../core/lv_obj_style_gen.h **** {
  27:Drivers/lvgl/src/widgets/../core/lv_obj_style_gen.h ****     lv_style_value_t v = lv_obj_get_style_prop(obj, part, LV_STYLE_MIN_HEIGHT);
  28:Drivers/lvgl/src/widgets/../core/lv_obj_style_gen.h ****     return (lv_coord_t)v.num;
  29:Drivers/lvgl/src/widgets/../core/lv_obj_style_gen.h **** }
  30:Drivers/lvgl/src/widgets/../core/lv_obj_style_gen.h **** 
  31:Drivers/lvgl/src/widgets/../core/lv_obj_style_gen.h **** static inline lv_coord_t lv_obj_get_style_max_height(const struct _lv_obj_t * obj, uint32_t part)
  32:Drivers/lvgl/src/widgets/../core/lv_obj_style_gen.h **** {
  33:Drivers/lvgl/src/widgets/../core/lv_obj_style_gen.h ****     lv_style_value_t v = lv_obj_get_style_prop(obj, part, LV_STYLE_MAX_HEIGHT);
  34:Drivers/lvgl/src/widgets/../core/lv_obj_style_gen.h ****     return (lv_coord_t)v.num;
  35:Drivers/lvgl/src/widgets/../core/lv_obj_style_gen.h **** }
  36:Drivers/lvgl/src/widgets/../core/lv_obj_style_gen.h **** 
  37:Drivers/lvgl/src/widgets/../core/lv_obj_style_gen.h **** static inline lv_coord_t lv_obj_get_style_x(const struct _lv_obj_t * obj, uint32_t part)
  38:Drivers/lvgl/src/widgets/../core/lv_obj_style_gen.h **** {
  39:Drivers/lvgl/src/widgets/../core/lv_obj_style_gen.h ****     lv_style_value_t v = lv_obj_get_style_prop(obj, part, LV_STYLE_X);
  40:Drivers/lvgl/src/widgets/../core/lv_obj_style_gen.h ****     return (lv_coord_t)v.num;
  41:Drivers/lvgl/src/widgets/../core/lv_obj_style_gen.h **** }
  42:Drivers/lvgl/src/widgets/../core/lv_obj_style_gen.h **** 
  43:Drivers/lvgl/src/widgets/../core/lv_obj_style_gen.h **** static inline lv_coord_t lv_obj_get_style_y(const struct _lv_obj_t * obj, uint32_t part)
  44:Drivers/lvgl/src/widgets/../core/lv_obj_style_gen.h **** {
  45:Drivers/lvgl/src/widgets/../core/lv_obj_style_gen.h ****     lv_style_value_t v = lv_obj_get_style_prop(obj, part, LV_STYLE_Y);
  46:Drivers/lvgl/src/widgets/../core/lv_obj_style_gen.h ****     return (lv_coord_t)v.num;
  47:Drivers/lvgl/src/widgets/../core/lv_obj_style_gen.h **** }
  48:Drivers/lvgl/src/widgets/../core/lv_obj_style_gen.h **** 
  49:Drivers/lvgl/src/widgets/../core/lv_obj_style_gen.h **** static inline lv_align_t lv_obj_get_style_align(const struct _lv_obj_t * obj, uint32_t part)
  50:Drivers/lvgl/src/widgets/../core/lv_obj_style_gen.h **** {
  51:Drivers/lvgl/src/widgets/../core/lv_obj_style_gen.h ****     lv_style_value_t v = lv_obj_get_style_prop(obj, part, LV_STYLE_ALIGN);
  52:Drivers/lvgl/src/widgets/../core/lv_obj_style_gen.h ****     return (lv_align_t)v.num;
  53:Drivers/lvgl/src/widgets/../core/lv_obj_style_gen.h **** }
  54:Drivers/lvgl/src/widgets/../core/lv_obj_style_gen.h **** 
  55:Drivers/lvgl/src/widgets/../core/lv_obj_style_gen.h **** static inline lv_coord_t lv_obj_get_style_transform_width(const struct _lv_obj_t * obj, uint32_t pa
  56:Drivers/lvgl/src/widgets/../core/lv_obj_style_gen.h **** {
  57:Drivers/lvgl/src/widgets/../core/lv_obj_style_gen.h ****     lv_style_value_t v = lv_obj_get_style_prop(obj, part, LV_STYLE_TRANSFORM_WIDTH);
  58:Drivers/lvgl/src/widgets/../core/lv_obj_style_gen.h ****     return (lv_coord_t)v.num;
  59:Drivers/lvgl/src/widgets/../core/lv_obj_style_gen.h **** }
  60:Drivers/lvgl/src/widgets/../core/lv_obj_style_gen.h **** 
  61:Drivers/lvgl/src/widgets/../core/lv_obj_style_gen.h **** static inline lv_coord_t lv_obj_get_style_transform_height(const struct _lv_obj_t * obj, uint32_t p
  62:Drivers/lvgl/src/widgets/../core/lv_obj_style_gen.h **** {
  63:Drivers/lvgl/src/widgets/../core/lv_obj_style_gen.h ****     lv_style_value_t v = lv_obj_get_style_prop(obj, part, LV_STYLE_TRANSFORM_HEIGHT);
ARM GAS  /var/folders/0z/tsy30v1j4xl4_7kw94k978ww0000gn/T//ccUX3GBc.s 			page 18


  64:Drivers/lvgl/src/widgets/../core/lv_obj_style_gen.h ****     return (lv_coord_t)v.num;
  65:Drivers/lvgl/src/widgets/../core/lv_obj_style_gen.h **** }
  66:Drivers/lvgl/src/widgets/../core/lv_obj_style_gen.h **** 
  67:Drivers/lvgl/src/widgets/../core/lv_obj_style_gen.h **** static inline lv_coord_t lv_obj_get_style_translate_x(const struct _lv_obj_t * obj, uint32_t part)
  68:Drivers/lvgl/src/widgets/../core/lv_obj_style_gen.h **** {
  69:Drivers/lvgl/src/widgets/../core/lv_obj_style_gen.h ****     lv_style_value_t v = lv_obj_get_style_prop(obj, part, LV_STYLE_TRANSLATE_X);
  70:Drivers/lvgl/src/widgets/../core/lv_obj_style_gen.h ****     return (lv_coord_t)v.num;
  71:Drivers/lvgl/src/widgets/../core/lv_obj_style_gen.h **** }
  72:Drivers/lvgl/src/widgets/../core/lv_obj_style_gen.h **** 
  73:Drivers/lvgl/src/widgets/../core/lv_obj_style_gen.h **** static inline lv_coord_t lv_obj_get_style_translate_y(const struct _lv_obj_t * obj, uint32_t part)
  74:Drivers/lvgl/src/widgets/../core/lv_obj_style_gen.h **** {
  75:Drivers/lvgl/src/widgets/../core/lv_obj_style_gen.h ****     lv_style_value_t v = lv_obj_get_style_prop(obj, part, LV_STYLE_TRANSLATE_Y);
  76:Drivers/lvgl/src/widgets/../core/lv_obj_style_gen.h ****     return (lv_coord_t)v.num;
  77:Drivers/lvgl/src/widgets/../core/lv_obj_style_gen.h **** }
  78:Drivers/lvgl/src/widgets/../core/lv_obj_style_gen.h **** 
  79:Drivers/lvgl/src/widgets/../core/lv_obj_style_gen.h **** static inline lv_coord_t lv_obj_get_style_transform_zoom(const struct _lv_obj_t * obj, uint32_t par
  80:Drivers/lvgl/src/widgets/../core/lv_obj_style_gen.h **** {
  81:Drivers/lvgl/src/widgets/../core/lv_obj_style_gen.h ****     lv_style_value_t v = lv_obj_get_style_prop(obj, part, LV_STYLE_TRANSFORM_ZOOM);
  82:Drivers/lvgl/src/widgets/../core/lv_obj_style_gen.h ****     return (lv_coord_t)v.num;
  83:Drivers/lvgl/src/widgets/../core/lv_obj_style_gen.h **** }
  84:Drivers/lvgl/src/widgets/../core/lv_obj_style_gen.h **** 
  85:Drivers/lvgl/src/widgets/../core/lv_obj_style_gen.h **** static inline lv_coord_t lv_obj_get_style_transform_angle(const struct _lv_obj_t * obj, uint32_t pa
  86:Drivers/lvgl/src/widgets/../core/lv_obj_style_gen.h **** {
  87:Drivers/lvgl/src/widgets/../core/lv_obj_style_gen.h ****     lv_style_value_t v = lv_obj_get_style_prop(obj, part, LV_STYLE_TRANSFORM_ANGLE);
  88:Drivers/lvgl/src/widgets/../core/lv_obj_style_gen.h ****     return (lv_coord_t)v.num;
  89:Drivers/lvgl/src/widgets/../core/lv_obj_style_gen.h **** }
  90:Drivers/lvgl/src/widgets/../core/lv_obj_style_gen.h **** 
  91:Drivers/lvgl/src/widgets/../core/lv_obj_style_gen.h **** static inline lv_coord_t lv_obj_get_style_transform_pivot_x(const struct _lv_obj_t * obj, uint32_t 
  92:Drivers/lvgl/src/widgets/../core/lv_obj_style_gen.h **** {
  93:Drivers/lvgl/src/widgets/../core/lv_obj_style_gen.h ****     lv_style_value_t v = lv_obj_get_style_prop(obj, part, LV_STYLE_TRANSFORM_PIVOT_X);
  94:Drivers/lvgl/src/widgets/../core/lv_obj_style_gen.h ****     return (lv_coord_t)v.num;
  95:Drivers/lvgl/src/widgets/../core/lv_obj_style_gen.h **** }
  96:Drivers/lvgl/src/widgets/../core/lv_obj_style_gen.h **** 
  97:Drivers/lvgl/src/widgets/../core/lv_obj_style_gen.h **** static inline lv_coord_t lv_obj_get_style_transform_pivot_y(const struct _lv_obj_t * obj, uint32_t 
  98:Drivers/lvgl/src/widgets/../core/lv_obj_style_gen.h **** {
  99:Drivers/lvgl/src/widgets/../core/lv_obj_style_gen.h ****     lv_style_value_t v = lv_obj_get_style_prop(obj, part, LV_STYLE_TRANSFORM_PIVOT_Y);
 100:Drivers/lvgl/src/widgets/../core/lv_obj_style_gen.h ****     return (lv_coord_t)v.num;
 101:Drivers/lvgl/src/widgets/../core/lv_obj_style_gen.h **** }
 102:Drivers/lvgl/src/widgets/../core/lv_obj_style_gen.h **** 
 103:Drivers/lvgl/src/widgets/../core/lv_obj_style_gen.h **** static inline lv_coord_t lv_obj_get_style_pad_top(const struct _lv_obj_t * obj, uint32_t part)
 104:Drivers/lvgl/src/widgets/../core/lv_obj_style_gen.h **** {
 105:Drivers/lvgl/src/widgets/../core/lv_obj_style_gen.h ****     lv_style_value_t v = lv_obj_get_style_prop(obj, part, LV_STYLE_PAD_TOP);
 106:Drivers/lvgl/src/widgets/../core/lv_obj_style_gen.h ****     return (lv_coord_t)v.num;
 107:Drivers/lvgl/src/widgets/../core/lv_obj_style_gen.h **** }
 108:Drivers/lvgl/src/widgets/../core/lv_obj_style_gen.h **** 
 109:Drivers/lvgl/src/widgets/../core/lv_obj_style_gen.h **** static inline lv_coord_t lv_obj_get_style_pad_bottom(const struct _lv_obj_t * obj, uint32_t part)
 110:Drivers/lvgl/src/widgets/../core/lv_obj_style_gen.h **** {
 111:Drivers/lvgl/src/widgets/../core/lv_obj_style_gen.h ****     lv_style_value_t v = lv_obj_get_style_prop(obj, part, LV_STYLE_PAD_BOTTOM);
 112:Drivers/lvgl/src/widgets/../core/lv_obj_style_gen.h ****     return (lv_coord_t)v.num;
 113:Drivers/lvgl/src/widgets/../core/lv_obj_style_gen.h **** }
 114:Drivers/lvgl/src/widgets/../core/lv_obj_style_gen.h **** 
 115:Drivers/lvgl/src/widgets/../core/lv_obj_style_gen.h **** static inline lv_coord_t lv_obj_get_style_pad_left(const struct _lv_obj_t * obj, uint32_t part)
 116:Drivers/lvgl/src/widgets/../core/lv_obj_style_gen.h **** {
 117:Drivers/lvgl/src/widgets/../core/lv_obj_style_gen.h ****     lv_style_value_t v = lv_obj_get_style_prop(obj, part, LV_STYLE_PAD_LEFT);
 118:Drivers/lvgl/src/widgets/../core/lv_obj_style_gen.h ****     return (lv_coord_t)v.num;
 119:Drivers/lvgl/src/widgets/../core/lv_obj_style_gen.h **** }
 120:Drivers/lvgl/src/widgets/../core/lv_obj_style_gen.h **** 
ARM GAS  /var/folders/0z/tsy30v1j4xl4_7kw94k978ww0000gn/T//ccUX3GBc.s 			page 19


 121:Drivers/lvgl/src/widgets/../core/lv_obj_style_gen.h **** static inline lv_coord_t lv_obj_get_style_pad_right(const struct _lv_obj_t * obj, uint32_t part)
 122:Drivers/lvgl/src/widgets/../core/lv_obj_style_gen.h **** {
 123:Drivers/lvgl/src/widgets/../core/lv_obj_style_gen.h ****     lv_style_value_t v = lv_obj_get_style_prop(obj, part, LV_STYLE_PAD_RIGHT);
 124:Drivers/lvgl/src/widgets/../core/lv_obj_style_gen.h ****     return (lv_coord_t)v.num;
 125:Drivers/lvgl/src/widgets/../core/lv_obj_style_gen.h **** }
 126:Drivers/lvgl/src/widgets/../core/lv_obj_style_gen.h **** 
 127:Drivers/lvgl/src/widgets/../core/lv_obj_style_gen.h **** static inline lv_coord_t lv_obj_get_style_pad_row(const struct _lv_obj_t * obj, uint32_t part)
 128:Drivers/lvgl/src/widgets/../core/lv_obj_style_gen.h **** {
 129:Drivers/lvgl/src/widgets/../core/lv_obj_style_gen.h ****     lv_style_value_t v = lv_obj_get_style_prop(obj, part, LV_STYLE_PAD_ROW);
 130:Drivers/lvgl/src/widgets/../core/lv_obj_style_gen.h ****     return (lv_coord_t)v.num;
 131:Drivers/lvgl/src/widgets/../core/lv_obj_style_gen.h **** }
 132:Drivers/lvgl/src/widgets/../core/lv_obj_style_gen.h **** 
 133:Drivers/lvgl/src/widgets/../core/lv_obj_style_gen.h **** static inline lv_coord_t lv_obj_get_style_pad_column(const struct _lv_obj_t * obj, uint32_t part)
 134:Drivers/lvgl/src/widgets/../core/lv_obj_style_gen.h **** {
 135:Drivers/lvgl/src/widgets/../core/lv_obj_style_gen.h ****     lv_style_value_t v = lv_obj_get_style_prop(obj, part, LV_STYLE_PAD_COLUMN);
 136:Drivers/lvgl/src/widgets/../core/lv_obj_style_gen.h ****     return (lv_coord_t)v.num;
 137:Drivers/lvgl/src/widgets/../core/lv_obj_style_gen.h **** }
 138:Drivers/lvgl/src/widgets/../core/lv_obj_style_gen.h **** 
 139:Drivers/lvgl/src/widgets/../core/lv_obj_style_gen.h **** static inline lv_color_t lv_obj_get_style_bg_color(const struct _lv_obj_t * obj, uint32_t part)
 140:Drivers/lvgl/src/widgets/../core/lv_obj_style_gen.h **** {
 141:Drivers/lvgl/src/widgets/../core/lv_obj_style_gen.h ****     lv_style_value_t v = lv_obj_get_style_prop(obj, part, LV_STYLE_BG_COLOR);
 142:Drivers/lvgl/src/widgets/../core/lv_obj_style_gen.h ****     return v.color;
 143:Drivers/lvgl/src/widgets/../core/lv_obj_style_gen.h **** }
 144:Drivers/lvgl/src/widgets/../core/lv_obj_style_gen.h **** 
 145:Drivers/lvgl/src/widgets/../core/lv_obj_style_gen.h **** static inline lv_color_t lv_obj_get_style_bg_color_filtered(const struct _lv_obj_t * obj, uint32_t 
 146:Drivers/lvgl/src/widgets/../core/lv_obj_style_gen.h **** {
 147:Drivers/lvgl/src/widgets/../core/lv_obj_style_gen.h ****     lv_style_value_t v = _lv_obj_style_apply_color_filter(obj, part, lv_obj_get_style_prop(obj, par
 148:Drivers/lvgl/src/widgets/../core/lv_obj_style_gen.h ****     return v.color;
 149:Drivers/lvgl/src/widgets/../core/lv_obj_style_gen.h **** }
 150:Drivers/lvgl/src/widgets/../core/lv_obj_style_gen.h **** 
 151:Drivers/lvgl/src/widgets/../core/lv_obj_style_gen.h **** static inline lv_opa_t lv_obj_get_style_bg_opa(const struct _lv_obj_t * obj, uint32_t part)
 152:Drivers/lvgl/src/widgets/../core/lv_obj_style_gen.h **** {
 153:Drivers/lvgl/src/widgets/../core/lv_obj_style_gen.h ****     lv_style_value_t v = lv_obj_get_style_prop(obj, part, LV_STYLE_BG_OPA);
 154:Drivers/lvgl/src/widgets/../core/lv_obj_style_gen.h ****     return (lv_opa_t)v.num;
 155:Drivers/lvgl/src/widgets/../core/lv_obj_style_gen.h **** }
 156:Drivers/lvgl/src/widgets/../core/lv_obj_style_gen.h **** 
 157:Drivers/lvgl/src/widgets/../core/lv_obj_style_gen.h **** static inline lv_color_t lv_obj_get_style_bg_grad_color(const struct _lv_obj_t * obj, uint32_t part
 158:Drivers/lvgl/src/widgets/../core/lv_obj_style_gen.h **** {
 159:Drivers/lvgl/src/widgets/../core/lv_obj_style_gen.h ****     lv_style_value_t v = lv_obj_get_style_prop(obj, part, LV_STYLE_BG_GRAD_COLOR);
 160:Drivers/lvgl/src/widgets/../core/lv_obj_style_gen.h ****     return v.color;
 161:Drivers/lvgl/src/widgets/../core/lv_obj_style_gen.h **** }
 162:Drivers/lvgl/src/widgets/../core/lv_obj_style_gen.h **** 
 163:Drivers/lvgl/src/widgets/../core/lv_obj_style_gen.h **** static inline lv_color_t lv_obj_get_style_bg_grad_color_filtered(const struct _lv_obj_t * obj, uint
 164:Drivers/lvgl/src/widgets/../core/lv_obj_style_gen.h **** {
 165:Drivers/lvgl/src/widgets/../core/lv_obj_style_gen.h ****     lv_style_value_t v = _lv_obj_style_apply_color_filter(obj, part, lv_obj_get_style_prop(obj, par
 166:Drivers/lvgl/src/widgets/../core/lv_obj_style_gen.h ****     return v.color;
 167:Drivers/lvgl/src/widgets/../core/lv_obj_style_gen.h **** }
 168:Drivers/lvgl/src/widgets/../core/lv_obj_style_gen.h **** 
 169:Drivers/lvgl/src/widgets/../core/lv_obj_style_gen.h **** static inline lv_grad_dir_t lv_obj_get_style_bg_grad_dir(const struct _lv_obj_t * obj, uint32_t par
 170:Drivers/lvgl/src/widgets/../core/lv_obj_style_gen.h **** {
 171:Drivers/lvgl/src/widgets/../core/lv_obj_style_gen.h ****     lv_style_value_t v = lv_obj_get_style_prop(obj, part, LV_STYLE_BG_GRAD_DIR);
 172:Drivers/lvgl/src/widgets/../core/lv_obj_style_gen.h ****     return (lv_grad_dir_t)v.num;
 173:Drivers/lvgl/src/widgets/../core/lv_obj_style_gen.h **** }
 174:Drivers/lvgl/src/widgets/../core/lv_obj_style_gen.h **** 
 175:Drivers/lvgl/src/widgets/../core/lv_obj_style_gen.h **** static inline lv_coord_t lv_obj_get_style_bg_main_stop(const struct _lv_obj_t * obj, uint32_t part)
 176:Drivers/lvgl/src/widgets/../core/lv_obj_style_gen.h **** {
 177:Drivers/lvgl/src/widgets/../core/lv_obj_style_gen.h ****     lv_style_value_t v = lv_obj_get_style_prop(obj, part, LV_STYLE_BG_MAIN_STOP);
ARM GAS  /var/folders/0z/tsy30v1j4xl4_7kw94k978ww0000gn/T//ccUX3GBc.s 			page 20


 178:Drivers/lvgl/src/widgets/../core/lv_obj_style_gen.h ****     return (lv_coord_t)v.num;
 179:Drivers/lvgl/src/widgets/../core/lv_obj_style_gen.h **** }
 180:Drivers/lvgl/src/widgets/../core/lv_obj_style_gen.h **** 
 181:Drivers/lvgl/src/widgets/../core/lv_obj_style_gen.h **** static inline lv_coord_t lv_obj_get_style_bg_grad_stop(const struct _lv_obj_t * obj, uint32_t part)
 182:Drivers/lvgl/src/widgets/../core/lv_obj_style_gen.h **** {
 183:Drivers/lvgl/src/widgets/../core/lv_obj_style_gen.h ****     lv_style_value_t v = lv_obj_get_style_prop(obj, part, LV_STYLE_BG_GRAD_STOP);
 184:Drivers/lvgl/src/widgets/../core/lv_obj_style_gen.h ****     return (lv_coord_t)v.num;
 185:Drivers/lvgl/src/widgets/../core/lv_obj_style_gen.h **** }
 186:Drivers/lvgl/src/widgets/../core/lv_obj_style_gen.h **** 
 187:Drivers/lvgl/src/widgets/../core/lv_obj_style_gen.h **** static inline const lv_grad_dsc_t * lv_obj_get_style_bg_grad(const struct _lv_obj_t * obj, uint32_t
 188:Drivers/lvgl/src/widgets/../core/lv_obj_style_gen.h **** {
 189:Drivers/lvgl/src/widgets/../core/lv_obj_style_gen.h ****     lv_style_value_t v = lv_obj_get_style_prop(obj, part, LV_STYLE_BG_GRAD);
 190:Drivers/lvgl/src/widgets/../core/lv_obj_style_gen.h ****     return (const lv_grad_dsc_t *)v.ptr;
 191:Drivers/lvgl/src/widgets/../core/lv_obj_style_gen.h **** }
 192:Drivers/lvgl/src/widgets/../core/lv_obj_style_gen.h **** 
 193:Drivers/lvgl/src/widgets/../core/lv_obj_style_gen.h **** static inline lv_dither_mode_t lv_obj_get_style_bg_dither_mode(const struct _lv_obj_t * obj, uint32
 194:Drivers/lvgl/src/widgets/../core/lv_obj_style_gen.h **** {
 195:Drivers/lvgl/src/widgets/../core/lv_obj_style_gen.h ****     lv_style_value_t v = lv_obj_get_style_prop(obj, part, LV_STYLE_BG_DITHER_MODE);
 196:Drivers/lvgl/src/widgets/../core/lv_obj_style_gen.h ****     return (lv_dither_mode_t)v.num;
 197:Drivers/lvgl/src/widgets/../core/lv_obj_style_gen.h **** }
 198:Drivers/lvgl/src/widgets/../core/lv_obj_style_gen.h **** 
 199:Drivers/lvgl/src/widgets/../core/lv_obj_style_gen.h **** static inline const void * lv_obj_get_style_bg_img_src(const struct _lv_obj_t * obj, uint32_t part)
 200:Drivers/lvgl/src/widgets/../core/lv_obj_style_gen.h **** {
 201:Drivers/lvgl/src/widgets/../core/lv_obj_style_gen.h ****     lv_style_value_t v = lv_obj_get_style_prop(obj, part, LV_STYLE_BG_IMG_SRC);
 202:Drivers/lvgl/src/widgets/../core/lv_obj_style_gen.h ****     return (const void *)v.ptr;
 203:Drivers/lvgl/src/widgets/../core/lv_obj_style_gen.h **** }
 204:Drivers/lvgl/src/widgets/../core/lv_obj_style_gen.h **** 
 205:Drivers/lvgl/src/widgets/../core/lv_obj_style_gen.h **** static inline lv_opa_t lv_obj_get_style_bg_img_opa(const struct _lv_obj_t * obj, uint32_t part)
 206:Drivers/lvgl/src/widgets/../core/lv_obj_style_gen.h **** {
 207:Drivers/lvgl/src/widgets/../core/lv_obj_style_gen.h ****     lv_style_value_t v = lv_obj_get_style_prop(obj, part, LV_STYLE_BG_IMG_OPA);
 208:Drivers/lvgl/src/widgets/../core/lv_obj_style_gen.h ****     return (lv_opa_t)v.num;
 209:Drivers/lvgl/src/widgets/../core/lv_obj_style_gen.h **** }
 210:Drivers/lvgl/src/widgets/../core/lv_obj_style_gen.h **** 
 211:Drivers/lvgl/src/widgets/../core/lv_obj_style_gen.h **** static inline lv_color_t lv_obj_get_style_bg_img_recolor(const struct _lv_obj_t * obj, uint32_t par
 212:Drivers/lvgl/src/widgets/../core/lv_obj_style_gen.h **** {
 213:Drivers/lvgl/src/widgets/../core/lv_obj_style_gen.h ****     lv_style_value_t v = lv_obj_get_style_prop(obj, part, LV_STYLE_BG_IMG_RECOLOR);
 214:Drivers/lvgl/src/widgets/../core/lv_obj_style_gen.h ****     return v.color;
 215:Drivers/lvgl/src/widgets/../core/lv_obj_style_gen.h **** }
 216:Drivers/lvgl/src/widgets/../core/lv_obj_style_gen.h **** 
 217:Drivers/lvgl/src/widgets/../core/lv_obj_style_gen.h **** static inline lv_color_t lv_obj_get_style_bg_img_recolor_filtered(const struct _lv_obj_t * obj, uin
 218:Drivers/lvgl/src/widgets/../core/lv_obj_style_gen.h **** {
 219:Drivers/lvgl/src/widgets/../core/lv_obj_style_gen.h ****     lv_style_value_t v = _lv_obj_style_apply_color_filter(obj, part, lv_obj_get_style_prop(obj, par
 220:Drivers/lvgl/src/widgets/../core/lv_obj_style_gen.h ****     return v.color;
 221:Drivers/lvgl/src/widgets/../core/lv_obj_style_gen.h **** }
 222:Drivers/lvgl/src/widgets/../core/lv_obj_style_gen.h **** 
 223:Drivers/lvgl/src/widgets/../core/lv_obj_style_gen.h **** static inline lv_opa_t lv_obj_get_style_bg_img_recolor_opa(const struct _lv_obj_t * obj, uint32_t p
 224:Drivers/lvgl/src/widgets/../core/lv_obj_style_gen.h **** {
 225:Drivers/lvgl/src/widgets/../core/lv_obj_style_gen.h ****     lv_style_value_t v = lv_obj_get_style_prop(obj, part, LV_STYLE_BG_IMG_RECOLOR_OPA);
 226:Drivers/lvgl/src/widgets/../core/lv_obj_style_gen.h ****     return (lv_opa_t)v.num;
 227:Drivers/lvgl/src/widgets/../core/lv_obj_style_gen.h **** }
 228:Drivers/lvgl/src/widgets/../core/lv_obj_style_gen.h **** 
 229:Drivers/lvgl/src/widgets/../core/lv_obj_style_gen.h **** static inline bool lv_obj_get_style_bg_img_tiled(const struct _lv_obj_t * obj, uint32_t part)
 230:Drivers/lvgl/src/widgets/../core/lv_obj_style_gen.h **** {
 231:Drivers/lvgl/src/widgets/../core/lv_obj_style_gen.h ****     lv_style_value_t v = lv_obj_get_style_prop(obj, part, LV_STYLE_BG_IMG_TILED);
 232:Drivers/lvgl/src/widgets/../core/lv_obj_style_gen.h ****     return (bool)v.num;
 233:Drivers/lvgl/src/widgets/../core/lv_obj_style_gen.h **** }
 234:Drivers/lvgl/src/widgets/../core/lv_obj_style_gen.h **** 
ARM GAS  /var/folders/0z/tsy30v1j4xl4_7kw94k978ww0000gn/T//ccUX3GBc.s 			page 21


 235:Drivers/lvgl/src/widgets/../core/lv_obj_style_gen.h **** static inline lv_color_t lv_obj_get_style_border_color(const struct _lv_obj_t * obj, uint32_t part)
 236:Drivers/lvgl/src/widgets/../core/lv_obj_style_gen.h **** {
 237:Drivers/lvgl/src/widgets/../core/lv_obj_style_gen.h ****     lv_style_value_t v = lv_obj_get_style_prop(obj, part, LV_STYLE_BORDER_COLOR);
 238:Drivers/lvgl/src/widgets/../core/lv_obj_style_gen.h ****     return v.color;
 239:Drivers/lvgl/src/widgets/../core/lv_obj_style_gen.h **** }
 240:Drivers/lvgl/src/widgets/../core/lv_obj_style_gen.h **** 
 241:Drivers/lvgl/src/widgets/../core/lv_obj_style_gen.h **** static inline lv_color_t lv_obj_get_style_border_color_filtered(const struct _lv_obj_t * obj, uint3
 242:Drivers/lvgl/src/widgets/../core/lv_obj_style_gen.h **** {
 243:Drivers/lvgl/src/widgets/../core/lv_obj_style_gen.h ****     lv_style_value_t v = _lv_obj_style_apply_color_filter(obj, part, lv_obj_get_style_prop(obj, par
 244:Drivers/lvgl/src/widgets/../core/lv_obj_style_gen.h ****     return v.color;
 245:Drivers/lvgl/src/widgets/../core/lv_obj_style_gen.h **** }
 246:Drivers/lvgl/src/widgets/../core/lv_obj_style_gen.h **** 
 247:Drivers/lvgl/src/widgets/../core/lv_obj_style_gen.h **** static inline lv_opa_t lv_obj_get_style_border_opa(const struct _lv_obj_t * obj, uint32_t part)
 248:Drivers/lvgl/src/widgets/../core/lv_obj_style_gen.h **** {
 249:Drivers/lvgl/src/widgets/../core/lv_obj_style_gen.h ****     lv_style_value_t v = lv_obj_get_style_prop(obj, part, LV_STYLE_BORDER_OPA);
 250:Drivers/lvgl/src/widgets/../core/lv_obj_style_gen.h ****     return (lv_opa_t)v.num;
 251:Drivers/lvgl/src/widgets/../core/lv_obj_style_gen.h **** }
 252:Drivers/lvgl/src/widgets/../core/lv_obj_style_gen.h **** 
 253:Drivers/lvgl/src/widgets/../core/lv_obj_style_gen.h **** static inline lv_coord_t lv_obj_get_style_border_width(const struct _lv_obj_t * obj, uint32_t part)
 254:Drivers/lvgl/src/widgets/../core/lv_obj_style_gen.h **** {
 255:Drivers/lvgl/src/widgets/../core/lv_obj_style_gen.h ****     lv_style_value_t v = lv_obj_get_style_prop(obj, part, LV_STYLE_BORDER_WIDTH);
 256:Drivers/lvgl/src/widgets/../core/lv_obj_style_gen.h ****     return (lv_coord_t)v.num;
 257:Drivers/lvgl/src/widgets/../core/lv_obj_style_gen.h **** }
 258:Drivers/lvgl/src/widgets/../core/lv_obj_style_gen.h **** 
 259:Drivers/lvgl/src/widgets/../core/lv_obj_style_gen.h **** static inline lv_border_side_t lv_obj_get_style_border_side(const struct _lv_obj_t * obj, uint32_t 
 260:Drivers/lvgl/src/widgets/../core/lv_obj_style_gen.h **** {
 261:Drivers/lvgl/src/widgets/../core/lv_obj_style_gen.h ****     lv_style_value_t v = lv_obj_get_style_prop(obj, part, LV_STYLE_BORDER_SIDE);
 262:Drivers/lvgl/src/widgets/../core/lv_obj_style_gen.h ****     return (lv_border_side_t)v.num;
 263:Drivers/lvgl/src/widgets/../core/lv_obj_style_gen.h **** }
 264:Drivers/lvgl/src/widgets/../core/lv_obj_style_gen.h **** 
 265:Drivers/lvgl/src/widgets/../core/lv_obj_style_gen.h **** static inline bool lv_obj_get_style_border_post(const struct _lv_obj_t * obj, uint32_t part)
 266:Drivers/lvgl/src/widgets/../core/lv_obj_style_gen.h **** {
 267:Drivers/lvgl/src/widgets/../core/lv_obj_style_gen.h ****     lv_style_value_t v = lv_obj_get_style_prop(obj, part, LV_STYLE_BORDER_POST);
 268:Drivers/lvgl/src/widgets/../core/lv_obj_style_gen.h ****     return (bool)v.num;
 269:Drivers/lvgl/src/widgets/../core/lv_obj_style_gen.h **** }
 270:Drivers/lvgl/src/widgets/../core/lv_obj_style_gen.h **** 
 271:Drivers/lvgl/src/widgets/../core/lv_obj_style_gen.h **** static inline lv_coord_t lv_obj_get_style_outline_width(const struct _lv_obj_t * obj, uint32_t part
 272:Drivers/lvgl/src/widgets/../core/lv_obj_style_gen.h **** {
 273:Drivers/lvgl/src/widgets/../core/lv_obj_style_gen.h ****     lv_style_value_t v = lv_obj_get_style_prop(obj, part, LV_STYLE_OUTLINE_WIDTH);
 274:Drivers/lvgl/src/widgets/../core/lv_obj_style_gen.h ****     return (lv_coord_t)v.num;
 275:Drivers/lvgl/src/widgets/../core/lv_obj_style_gen.h **** }
 276:Drivers/lvgl/src/widgets/../core/lv_obj_style_gen.h **** 
 277:Drivers/lvgl/src/widgets/../core/lv_obj_style_gen.h **** static inline lv_color_t lv_obj_get_style_outline_color(const struct _lv_obj_t * obj, uint32_t part
 278:Drivers/lvgl/src/widgets/../core/lv_obj_style_gen.h **** {
 279:Drivers/lvgl/src/widgets/../core/lv_obj_style_gen.h ****     lv_style_value_t v = lv_obj_get_style_prop(obj, part, LV_STYLE_OUTLINE_COLOR);
 280:Drivers/lvgl/src/widgets/../core/lv_obj_style_gen.h ****     return v.color;
 281:Drivers/lvgl/src/widgets/../core/lv_obj_style_gen.h **** }
 282:Drivers/lvgl/src/widgets/../core/lv_obj_style_gen.h **** 
 283:Drivers/lvgl/src/widgets/../core/lv_obj_style_gen.h **** static inline lv_color_t lv_obj_get_style_outline_color_filtered(const struct _lv_obj_t * obj, uint
 284:Drivers/lvgl/src/widgets/../core/lv_obj_style_gen.h **** {
 285:Drivers/lvgl/src/widgets/../core/lv_obj_style_gen.h ****     lv_style_value_t v = _lv_obj_style_apply_color_filter(obj, part, lv_obj_get_style_prop(obj, par
 286:Drivers/lvgl/src/widgets/../core/lv_obj_style_gen.h ****     return v.color;
 287:Drivers/lvgl/src/widgets/../core/lv_obj_style_gen.h **** }
 288:Drivers/lvgl/src/widgets/../core/lv_obj_style_gen.h **** 
 289:Drivers/lvgl/src/widgets/../core/lv_obj_style_gen.h **** static inline lv_opa_t lv_obj_get_style_outline_opa(const struct _lv_obj_t * obj, uint32_t part)
 290:Drivers/lvgl/src/widgets/../core/lv_obj_style_gen.h **** {
 291:Drivers/lvgl/src/widgets/../core/lv_obj_style_gen.h ****     lv_style_value_t v = lv_obj_get_style_prop(obj, part, LV_STYLE_OUTLINE_OPA);
ARM GAS  /var/folders/0z/tsy30v1j4xl4_7kw94k978ww0000gn/T//ccUX3GBc.s 			page 22


 292:Drivers/lvgl/src/widgets/../core/lv_obj_style_gen.h ****     return (lv_opa_t)v.num;
 293:Drivers/lvgl/src/widgets/../core/lv_obj_style_gen.h **** }
 294:Drivers/lvgl/src/widgets/../core/lv_obj_style_gen.h **** 
 295:Drivers/lvgl/src/widgets/../core/lv_obj_style_gen.h **** static inline lv_coord_t lv_obj_get_style_outline_pad(const struct _lv_obj_t * obj, uint32_t part)
 296:Drivers/lvgl/src/widgets/../core/lv_obj_style_gen.h **** {
 297:Drivers/lvgl/src/widgets/../core/lv_obj_style_gen.h ****     lv_style_value_t v = lv_obj_get_style_prop(obj, part, LV_STYLE_OUTLINE_PAD);
 298:Drivers/lvgl/src/widgets/../core/lv_obj_style_gen.h ****     return (lv_coord_t)v.num;
 299:Drivers/lvgl/src/widgets/../core/lv_obj_style_gen.h **** }
 300:Drivers/lvgl/src/widgets/../core/lv_obj_style_gen.h **** 
 301:Drivers/lvgl/src/widgets/../core/lv_obj_style_gen.h **** static inline lv_coord_t lv_obj_get_style_shadow_width(const struct _lv_obj_t * obj, uint32_t part)
 302:Drivers/lvgl/src/widgets/../core/lv_obj_style_gen.h **** {
 303:Drivers/lvgl/src/widgets/../core/lv_obj_style_gen.h ****     lv_style_value_t v = lv_obj_get_style_prop(obj, part, LV_STYLE_SHADOW_WIDTH);
 304:Drivers/lvgl/src/widgets/../core/lv_obj_style_gen.h ****     return (lv_coord_t)v.num;
 305:Drivers/lvgl/src/widgets/../core/lv_obj_style_gen.h **** }
 306:Drivers/lvgl/src/widgets/../core/lv_obj_style_gen.h **** 
 307:Drivers/lvgl/src/widgets/../core/lv_obj_style_gen.h **** static inline lv_coord_t lv_obj_get_style_shadow_ofs_x(const struct _lv_obj_t * obj, uint32_t part)
 308:Drivers/lvgl/src/widgets/../core/lv_obj_style_gen.h **** {
 309:Drivers/lvgl/src/widgets/../core/lv_obj_style_gen.h ****     lv_style_value_t v = lv_obj_get_style_prop(obj, part, LV_STYLE_SHADOW_OFS_X);
 310:Drivers/lvgl/src/widgets/../core/lv_obj_style_gen.h ****     return (lv_coord_t)v.num;
 311:Drivers/lvgl/src/widgets/../core/lv_obj_style_gen.h **** }
 312:Drivers/lvgl/src/widgets/../core/lv_obj_style_gen.h **** 
 313:Drivers/lvgl/src/widgets/../core/lv_obj_style_gen.h **** static inline lv_coord_t lv_obj_get_style_shadow_ofs_y(const struct _lv_obj_t * obj, uint32_t part)
 314:Drivers/lvgl/src/widgets/../core/lv_obj_style_gen.h **** {
 315:Drivers/lvgl/src/widgets/../core/lv_obj_style_gen.h ****     lv_style_value_t v = lv_obj_get_style_prop(obj, part, LV_STYLE_SHADOW_OFS_Y);
 316:Drivers/lvgl/src/widgets/../core/lv_obj_style_gen.h ****     return (lv_coord_t)v.num;
 317:Drivers/lvgl/src/widgets/../core/lv_obj_style_gen.h **** }
 318:Drivers/lvgl/src/widgets/../core/lv_obj_style_gen.h **** 
 319:Drivers/lvgl/src/widgets/../core/lv_obj_style_gen.h **** static inline lv_coord_t lv_obj_get_style_shadow_spread(const struct _lv_obj_t * obj, uint32_t part
 320:Drivers/lvgl/src/widgets/../core/lv_obj_style_gen.h **** {
 321:Drivers/lvgl/src/widgets/../core/lv_obj_style_gen.h ****     lv_style_value_t v = lv_obj_get_style_prop(obj, part, LV_STYLE_SHADOW_SPREAD);
 322:Drivers/lvgl/src/widgets/../core/lv_obj_style_gen.h ****     return (lv_coord_t)v.num;
 323:Drivers/lvgl/src/widgets/../core/lv_obj_style_gen.h **** }
 324:Drivers/lvgl/src/widgets/../core/lv_obj_style_gen.h **** 
 325:Drivers/lvgl/src/widgets/../core/lv_obj_style_gen.h **** static inline lv_color_t lv_obj_get_style_shadow_color(const struct _lv_obj_t * obj, uint32_t part)
 326:Drivers/lvgl/src/widgets/../core/lv_obj_style_gen.h **** {
 327:Drivers/lvgl/src/widgets/../core/lv_obj_style_gen.h ****     lv_style_value_t v = lv_obj_get_style_prop(obj, part, LV_STYLE_SHADOW_COLOR);
 328:Drivers/lvgl/src/widgets/../core/lv_obj_style_gen.h ****     return v.color;
 329:Drivers/lvgl/src/widgets/../core/lv_obj_style_gen.h **** }
 330:Drivers/lvgl/src/widgets/../core/lv_obj_style_gen.h **** 
 331:Drivers/lvgl/src/widgets/../core/lv_obj_style_gen.h **** static inline lv_color_t lv_obj_get_style_shadow_color_filtered(const struct _lv_obj_t * obj, uint3
 332:Drivers/lvgl/src/widgets/../core/lv_obj_style_gen.h **** {
 333:Drivers/lvgl/src/widgets/../core/lv_obj_style_gen.h ****     lv_style_value_t v = _lv_obj_style_apply_color_filter(obj, part, lv_obj_get_style_prop(obj, par
 334:Drivers/lvgl/src/widgets/../core/lv_obj_style_gen.h ****     return v.color;
 335:Drivers/lvgl/src/widgets/../core/lv_obj_style_gen.h **** }
 336:Drivers/lvgl/src/widgets/../core/lv_obj_style_gen.h **** 
 337:Drivers/lvgl/src/widgets/../core/lv_obj_style_gen.h **** static inline lv_opa_t lv_obj_get_style_shadow_opa(const struct _lv_obj_t * obj, uint32_t part)
 338:Drivers/lvgl/src/widgets/../core/lv_obj_style_gen.h **** {
 339:Drivers/lvgl/src/widgets/../core/lv_obj_style_gen.h ****     lv_style_value_t v = lv_obj_get_style_prop(obj, part, LV_STYLE_SHADOW_OPA);
 340:Drivers/lvgl/src/widgets/../core/lv_obj_style_gen.h ****     return (lv_opa_t)v.num;
 341:Drivers/lvgl/src/widgets/../core/lv_obj_style_gen.h **** }
 342:Drivers/lvgl/src/widgets/../core/lv_obj_style_gen.h **** 
 343:Drivers/lvgl/src/widgets/../core/lv_obj_style_gen.h **** static inline lv_opa_t lv_obj_get_style_img_opa(const struct _lv_obj_t * obj, uint32_t part)
 344:Drivers/lvgl/src/widgets/../core/lv_obj_style_gen.h **** {
 345:Drivers/lvgl/src/widgets/../core/lv_obj_style_gen.h ****     lv_style_value_t v = lv_obj_get_style_prop(obj, part, LV_STYLE_IMG_OPA);
 346:Drivers/lvgl/src/widgets/../core/lv_obj_style_gen.h ****     return (lv_opa_t)v.num;
 347:Drivers/lvgl/src/widgets/../core/lv_obj_style_gen.h **** }
 348:Drivers/lvgl/src/widgets/../core/lv_obj_style_gen.h **** 
ARM GAS  /var/folders/0z/tsy30v1j4xl4_7kw94k978ww0000gn/T//ccUX3GBc.s 			page 23


 349:Drivers/lvgl/src/widgets/../core/lv_obj_style_gen.h **** static inline lv_color_t lv_obj_get_style_img_recolor(const struct _lv_obj_t * obj, uint32_t part)
 350:Drivers/lvgl/src/widgets/../core/lv_obj_style_gen.h **** {
 351:Drivers/lvgl/src/widgets/../core/lv_obj_style_gen.h ****     lv_style_value_t v = lv_obj_get_style_prop(obj, part, LV_STYLE_IMG_RECOLOR);
 352:Drivers/lvgl/src/widgets/../core/lv_obj_style_gen.h ****     return v.color;
 353:Drivers/lvgl/src/widgets/../core/lv_obj_style_gen.h **** }
 354:Drivers/lvgl/src/widgets/../core/lv_obj_style_gen.h **** 
 355:Drivers/lvgl/src/widgets/../core/lv_obj_style_gen.h **** static inline lv_color_t lv_obj_get_style_img_recolor_filtered(const struct _lv_obj_t * obj, uint32
 356:Drivers/lvgl/src/widgets/../core/lv_obj_style_gen.h **** {
 357:Drivers/lvgl/src/widgets/../core/lv_obj_style_gen.h ****     lv_style_value_t v = _lv_obj_style_apply_color_filter(obj, part, lv_obj_get_style_prop(obj, par
 358:Drivers/lvgl/src/widgets/../core/lv_obj_style_gen.h ****     return v.color;
 359:Drivers/lvgl/src/widgets/../core/lv_obj_style_gen.h **** }
 360:Drivers/lvgl/src/widgets/../core/lv_obj_style_gen.h **** 
 361:Drivers/lvgl/src/widgets/../core/lv_obj_style_gen.h **** static inline lv_opa_t lv_obj_get_style_img_recolor_opa(const struct _lv_obj_t * obj, uint32_t part
 362:Drivers/lvgl/src/widgets/../core/lv_obj_style_gen.h **** {
 363:Drivers/lvgl/src/widgets/../core/lv_obj_style_gen.h ****     lv_style_value_t v = lv_obj_get_style_prop(obj, part, LV_STYLE_IMG_RECOLOR_OPA);
 364:Drivers/lvgl/src/widgets/../core/lv_obj_style_gen.h ****     return (lv_opa_t)v.num;
 365:Drivers/lvgl/src/widgets/../core/lv_obj_style_gen.h **** }
 366:Drivers/lvgl/src/widgets/../core/lv_obj_style_gen.h **** 
 367:Drivers/lvgl/src/widgets/../core/lv_obj_style_gen.h **** static inline lv_coord_t lv_obj_get_style_line_width(const struct _lv_obj_t * obj, uint32_t part)
 368:Drivers/lvgl/src/widgets/../core/lv_obj_style_gen.h **** {
 369:Drivers/lvgl/src/widgets/../core/lv_obj_style_gen.h ****     lv_style_value_t v = lv_obj_get_style_prop(obj, part, LV_STYLE_LINE_WIDTH);
 370:Drivers/lvgl/src/widgets/../core/lv_obj_style_gen.h ****     return (lv_coord_t)v.num;
 371:Drivers/lvgl/src/widgets/../core/lv_obj_style_gen.h **** }
 372:Drivers/lvgl/src/widgets/../core/lv_obj_style_gen.h **** 
 373:Drivers/lvgl/src/widgets/../core/lv_obj_style_gen.h **** static inline lv_coord_t lv_obj_get_style_line_dash_width(const struct _lv_obj_t * obj, uint32_t pa
 374:Drivers/lvgl/src/widgets/../core/lv_obj_style_gen.h **** {
 375:Drivers/lvgl/src/widgets/../core/lv_obj_style_gen.h ****     lv_style_value_t v = lv_obj_get_style_prop(obj, part, LV_STYLE_LINE_DASH_WIDTH);
 376:Drivers/lvgl/src/widgets/../core/lv_obj_style_gen.h ****     return (lv_coord_t)v.num;
 377:Drivers/lvgl/src/widgets/../core/lv_obj_style_gen.h **** }
 378:Drivers/lvgl/src/widgets/../core/lv_obj_style_gen.h **** 
 379:Drivers/lvgl/src/widgets/../core/lv_obj_style_gen.h **** static inline lv_coord_t lv_obj_get_style_line_dash_gap(const struct _lv_obj_t * obj, uint32_t part
 380:Drivers/lvgl/src/widgets/../core/lv_obj_style_gen.h **** {
 381:Drivers/lvgl/src/widgets/../core/lv_obj_style_gen.h ****     lv_style_value_t v = lv_obj_get_style_prop(obj, part, LV_STYLE_LINE_DASH_GAP);
 382:Drivers/lvgl/src/widgets/../core/lv_obj_style_gen.h ****     return (lv_coord_t)v.num;
 383:Drivers/lvgl/src/widgets/../core/lv_obj_style_gen.h **** }
 384:Drivers/lvgl/src/widgets/../core/lv_obj_style_gen.h **** 
 385:Drivers/lvgl/src/widgets/../core/lv_obj_style_gen.h **** static inline bool lv_obj_get_style_line_rounded(const struct _lv_obj_t * obj, uint32_t part)
 386:Drivers/lvgl/src/widgets/../core/lv_obj_style_gen.h **** {
 387:Drivers/lvgl/src/widgets/../core/lv_obj_style_gen.h ****     lv_style_value_t v = lv_obj_get_style_prop(obj, part, LV_STYLE_LINE_ROUNDED);
 388:Drivers/lvgl/src/widgets/../core/lv_obj_style_gen.h ****     return (bool)v.num;
 389:Drivers/lvgl/src/widgets/../core/lv_obj_style_gen.h **** }
 390:Drivers/lvgl/src/widgets/../core/lv_obj_style_gen.h **** 
 391:Drivers/lvgl/src/widgets/../core/lv_obj_style_gen.h **** static inline lv_color_t lv_obj_get_style_line_color(const struct _lv_obj_t * obj, uint32_t part)
 392:Drivers/lvgl/src/widgets/../core/lv_obj_style_gen.h **** {
 393:Drivers/lvgl/src/widgets/../core/lv_obj_style_gen.h ****     lv_style_value_t v = lv_obj_get_style_prop(obj, part, LV_STYLE_LINE_COLOR);
 394:Drivers/lvgl/src/widgets/../core/lv_obj_style_gen.h ****     return v.color;
 395:Drivers/lvgl/src/widgets/../core/lv_obj_style_gen.h **** }
 396:Drivers/lvgl/src/widgets/../core/lv_obj_style_gen.h **** 
 397:Drivers/lvgl/src/widgets/../core/lv_obj_style_gen.h **** static inline lv_color_t lv_obj_get_style_line_color_filtered(const struct _lv_obj_t * obj, uint32_
 398:Drivers/lvgl/src/widgets/../core/lv_obj_style_gen.h **** {
 399:Drivers/lvgl/src/widgets/../core/lv_obj_style_gen.h ****     lv_style_value_t v = _lv_obj_style_apply_color_filter(obj, part, lv_obj_get_style_prop(obj, par
 400:Drivers/lvgl/src/widgets/../core/lv_obj_style_gen.h ****     return v.color;
 401:Drivers/lvgl/src/widgets/../core/lv_obj_style_gen.h **** }
 402:Drivers/lvgl/src/widgets/../core/lv_obj_style_gen.h **** 
 403:Drivers/lvgl/src/widgets/../core/lv_obj_style_gen.h **** static inline lv_opa_t lv_obj_get_style_line_opa(const struct _lv_obj_t * obj, uint32_t part)
 404:Drivers/lvgl/src/widgets/../core/lv_obj_style_gen.h **** {
 405:Drivers/lvgl/src/widgets/../core/lv_obj_style_gen.h ****     lv_style_value_t v = lv_obj_get_style_prop(obj, part, LV_STYLE_LINE_OPA);
ARM GAS  /var/folders/0z/tsy30v1j4xl4_7kw94k978ww0000gn/T//ccUX3GBc.s 			page 24


 406:Drivers/lvgl/src/widgets/../core/lv_obj_style_gen.h ****     return (lv_opa_t)v.num;
 407:Drivers/lvgl/src/widgets/../core/lv_obj_style_gen.h **** }
 408:Drivers/lvgl/src/widgets/../core/lv_obj_style_gen.h **** 
 409:Drivers/lvgl/src/widgets/../core/lv_obj_style_gen.h **** static inline lv_coord_t lv_obj_get_style_arc_width(const struct _lv_obj_t * obj, uint32_t part)
 410:Drivers/lvgl/src/widgets/../core/lv_obj_style_gen.h **** {
 411:Drivers/lvgl/src/widgets/../core/lv_obj_style_gen.h ****     lv_style_value_t v = lv_obj_get_style_prop(obj, part, LV_STYLE_ARC_WIDTH);
 412:Drivers/lvgl/src/widgets/../core/lv_obj_style_gen.h ****     return (lv_coord_t)v.num;
 413:Drivers/lvgl/src/widgets/../core/lv_obj_style_gen.h **** }
 414:Drivers/lvgl/src/widgets/../core/lv_obj_style_gen.h **** 
 415:Drivers/lvgl/src/widgets/../core/lv_obj_style_gen.h **** static inline bool lv_obj_get_style_arc_rounded(const struct _lv_obj_t * obj, uint32_t part)
 416:Drivers/lvgl/src/widgets/../core/lv_obj_style_gen.h **** {
 417:Drivers/lvgl/src/widgets/../core/lv_obj_style_gen.h ****     lv_style_value_t v = lv_obj_get_style_prop(obj, part, LV_STYLE_ARC_ROUNDED);
 418:Drivers/lvgl/src/widgets/../core/lv_obj_style_gen.h ****     return (bool)v.num;
 419:Drivers/lvgl/src/widgets/../core/lv_obj_style_gen.h **** }
 420:Drivers/lvgl/src/widgets/../core/lv_obj_style_gen.h **** 
 421:Drivers/lvgl/src/widgets/../core/lv_obj_style_gen.h **** static inline lv_color_t lv_obj_get_style_arc_color(const struct _lv_obj_t * obj, uint32_t part)
 422:Drivers/lvgl/src/widgets/../core/lv_obj_style_gen.h **** {
 423:Drivers/lvgl/src/widgets/../core/lv_obj_style_gen.h ****     lv_style_value_t v = lv_obj_get_style_prop(obj, part, LV_STYLE_ARC_COLOR);
 424:Drivers/lvgl/src/widgets/../core/lv_obj_style_gen.h ****     return v.color;
 425:Drivers/lvgl/src/widgets/../core/lv_obj_style_gen.h **** }
 426:Drivers/lvgl/src/widgets/../core/lv_obj_style_gen.h **** 
 427:Drivers/lvgl/src/widgets/../core/lv_obj_style_gen.h **** static inline lv_color_t lv_obj_get_style_arc_color_filtered(const struct _lv_obj_t * obj, uint32_t
 428:Drivers/lvgl/src/widgets/../core/lv_obj_style_gen.h **** {
 429:Drivers/lvgl/src/widgets/../core/lv_obj_style_gen.h ****     lv_style_value_t v = _lv_obj_style_apply_color_filter(obj, part, lv_obj_get_style_prop(obj, par
 430:Drivers/lvgl/src/widgets/../core/lv_obj_style_gen.h ****     return v.color;
 431:Drivers/lvgl/src/widgets/../core/lv_obj_style_gen.h **** }
 432:Drivers/lvgl/src/widgets/../core/lv_obj_style_gen.h **** 
 433:Drivers/lvgl/src/widgets/../core/lv_obj_style_gen.h **** static inline lv_opa_t lv_obj_get_style_arc_opa(const struct _lv_obj_t * obj, uint32_t part)
 434:Drivers/lvgl/src/widgets/../core/lv_obj_style_gen.h **** {
 435:Drivers/lvgl/src/widgets/../core/lv_obj_style_gen.h ****     lv_style_value_t v = lv_obj_get_style_prop(obj, part, LV_STYLE_ARC_OPA);
 436:Drivers/lvgl/src/widgets/../core/lv_obj_style_gen.h ****     return (lv_opa_t)v.num;
 437:Drivers/lvgl/src/widgets/../core/lv_obj_style_gen.h **** }
 438:Drivers/lvgl/src/widgets/../core/lv_obj_style_gen.h **** 
 439:Drivers/lvgl/src/widgets/../core/lv_obj_style_gen.h **** static inline const void * lv_obj_get_style_arc_img_src(const struct _lv_obj_t * obj, uint32_t part
 440:Drivers/lvgl/src/widgets/../core/lv_obj_style_gen.h **** {
 441:Drivers/lvgl/src/widgets/../core/lv_obj_style_gen.h ****     lv_style_value_t v = lv_obj_get_style_prop(obj, part, LV_STYLE_ARC_IMG_SRC);
 442:Drivers/lvgl/src/widgets/../core/lv_obj_style_gen.h ****     return (const void *)v.ptr;
 443:Drivers/lvgl/src/widgets/../core/lv_obj_style_gen.h **** }
 444:Drivers/lvgl/src/widgets/../core/lv_obj_style_gen.h **** 
 445:Drivers/lvgl/src/widgets/../core/lv_obj_style_gen.h **** static inline lv_color_t lv_obj_get_style_text_color(const struct _lv_obj_t * obj, uint32_t part)
 446:Drivers/lvgl/src/widgets/../core/lv_obj_style_gen.h **** {
 447:Drivers/lvgl/src/widgets/../core/lv_obj_style_gen.h ****     lv_style_value_t v = lv_obj_get_style_prop(obj, part, LV_STYLE_TEXT_COLOR);
 448:Drivers/lvgl/src/widgets/../core/lv_obj_style_gen.h ****     return v.color;
 449:Drivers/lvgl/src/widgets/../core/lv_obj_style_gen.h **** }
 450:Drivers/lvgl/src/widgets/../core/lv_obj_style_gen.h **** 
 451:Drivers/lvgl/src/widgets/../core/lv_obj_style_gen.h **** static inline lv_color_t lv_obj_get_style_text_color_filtered(const struct _lv_obj_t * obj, uint32_
 452:Drivers/lvgl/src/widgets/../core/lv_obj_style_gen.h **** {
 453:Drivers/lvgl/src/widgets/../core/lv_obj_style_gen.h ****     lv_style_value_t v = _lv_obj_style_apply_color_filter(obj, part, lv_obj_get_style_prop(obj, par
 454:Drivers/lvgl/src/widgets/../core/lv_obj_style_gen.h ****     return v.color;
 455:Drivers/lvgl/src/widgets/../core/lv_obj_style_gen.h **** }
 456:Drivers/lvgl/src/widgets/../core/lv_obj_style_gen.h **** 
 457:Drivers/lvgl/src/widgets/../core/lv_obj_style_gen.h **** static inline lv_opa_t lv_obj_get_style_text_opa(const struct _lv_obj_t * obj, uint32_t part)
 458:Drivers/lvgl/src/widgets/../core/lv_obj_style_gen.h **** {
 459:Drivers/lvgl/src/widgets/../core/lv_obj_style_gen.h ****     lv_style_value_t v = lv_obj_get_style_prop(obj, part, LV_STYLE_TEXT_OPA);
 460:Drivers/lvgl/src/widgets/../core/lv_obj_style_gen.h ****     return (lv_opa_t)v.num;
 461:Drivers/lvgl/src/widgets/../core/lv_obj_style_gen.h **** }
 462:Drivers/lvgl/src/widgets/../core/lv_obj_style_gen.h **** 
ARM GAS  /var/folders/0z/tsy30v1j4xl4_7kw94k978ww0000gn/T//ccUX3GBc.s 			page 25


 463:Drivers/lvgl/src/widgets/../core/lv_obj_style_gen.h **** static inline const lv_font_t * lv_obj_get_style_text_font(const struct _lv_obj_t * obj, uint32_t p
 113              		.loc 2 463 33 view .LVU17
 114              	.LBB75:
 464:Drivers/lvgl/src/widgets/../core/lv_obj_style_gen.h **** {
 465:Drivers/lvgl/src/widgets/../core/lv_obj_style_gen.h ****     lv_style_value_t v = lv_obj_get_style_prop(obj, part, LV_STYLE_TEXT_FONT);
 115              		.loc 2 465 5 view .LVU18
 116              		.loc 2 465 26 is_stmt 0 view .LVU19
 117 000e 5722     		movs	r2, #87
 118 0010 4FF48021 		mov	r1, #262144
 119 0014 2046     		mov	r0, r4
 120              	.LVL8:
 121              		.loc 2 465 26 view .LVU20
 122 0016 FFF7FEFF 		bl	lv_obj_get_style_prop
 123              	.LVL9:
 124 001a 0546     		mov	r5, r0
 125              	.LVL10:
 466:Drivers/lvgl/src/widgets/../core/lv_obj_style_gen.h ****     return (const lv_font_t *)v.ptr;
 126              		.loc 2 466 5 is_stmt 1 view .LVU21
 127              		.loc 2 466 5 is_stmt 0 view .LVU22
 128              	.LBE75:
 129              	.LBE74:
 770:Drivers/lvgl/src/widgets/lv_roller.c ****     const char * txt = lv_label_get_text(label);
 130              		.loc 1 770 5 is_stmt 1 view .LVU23
 131              	.LBB76:
 132              	.LBI76:
 467:Drivers/lvgl/src/widgets/../core/lv_obj_style_gen.h **** }
 468:Drivers/lvgl/src/widgets/../core/lv_obj_style_gen.h **** 
 469:Drivers/lvgl/src/widgets/../core/lv_obj_style_gen.h **** static inline lv_coord_t lv_obj_get_style_text_letter_space(const struct _lv_obj_t * obj, uint32_t 
 133              		.loc 2 469 26 view .LVU24
 134              	.LBB77:
 470:Drivers/lvgl/src/widgets/../core/lv_obj_style_gen.h **** {
 471:Drivers/lvgl/src/widgets/../core/lv_obj_style_gen.h ****     lv_style_value_t v = lv_obj_get_style_prop(obj, part, LV_STYLE_TEXT_LETTER_SPACE);
 135              		.loc 2 471 5 view .LVU25
 136              		.loc 2 471 26 is_stmt 0 view .LVU26
 137 001c 5822     		movs	r2, #88
 138 001e 4FF48021 		mov	r1, #262144
 139 0022 2046     		mov	r0, r4
 140              	.LVL11:
 141              		.loc 2 471 26 view .LVU27
 142 0024 FFF7FEFF 		bl	lv_obj_get_style_prop
 143              	.LVL12:
 472:Drivers/lvgl/src/widgets/../core/lv_obj_style_gen.h ****     return (lv_coord_t)v.num;
 144              		.loc 2 472 5 is_stmt 1 view .LVU28
 145              		.loc 2 472 12 is_stmt 0 view .LVU29
 146 0028 04B2     		sxth	r4, r0
 147              	.LVL13:
 148              		.loc 2 472 12 view .LVU30
 149              	.LBE77:
 150              	.LBE76:
 771:Drivers/lvgl/src/widgets/lv_roller.c ****     lv_point_t size;
 151              		.loc 1 771 5 is_stmt 1 view .LVU31
 771:Drivers/lvgl/src/widgets/lv_roller.c ****     lv_point_t size;
 152              		.loc 1 771 24 is_stmt 0 view .LVU32
 153 002a 3046     		mov	r0, r6
 154 002c FFF7FEFF 		bl	lv_label_get_text
 155              	.LVL14:
 156 0030 0146     		mov	r1, r0
ARM GAS  /var/folders/0z/tsy30v1j4xl4_7kw94k978ww0000gn/T//ccUX3GBc.s 			page 26


 157              	.LVL15:
 772:Drivers/lvgl/src/widgets/lv_roller.c ****     lv_txt_get_size(&size, txt, font, letter_space, 0, LV_COORD_MAX,  LV_TEXT_FLAG_NONE);
 158              		.loc 1 772 5 is_stmt 1 view .LVU33
 773:Drivers/lvgl/src/widgets/lv_roller.c ****     return size.x;
 159              		.loc 1 773 5 view .LVU34
 160 0032 0023     		movs	r3, #0
 161 0034 0293     		str	r3, [sp, #8]
 162 0036 41F6FF72 		movw	r2, #8191
 163 003a 0192     		str	r2, [sp, #4]
 164 003c 0093     		str	r3, [sp]
 165 003e 2346     		mov	r3, r4
 166 0040 2A46     		mov	r2, r5
 167 0042 05A8     		add	r0, sp, #20
 168              	.LVL16:
 773:Drivers/lvgl/src/widgets/lv_roller.c ****     return size.x;
 169              		.loc 1 773 5 is_stmt 0 view .LVU35
 170 0044 FFF7FEFF 		bl	lv_txt_get_size
 171              	.LVL17:
 774:Drivers/lvgl/src/widgets/lv_roller.c **** }
 172              		.loc 1 774 5 is_stmt 1 view .LVU36
 774:Drivers/lvgl/src/widgets/lv_roller.c **** }
 173              		.loc 1 774 16 is_stmt 0 view .LVU37
 174 0048 BDF91400 		ldrsh	r0, [sp, #20]
 175              	.LVL18:
 176              	.L6:
 775:Drivers/lvgl/src/widgets/lv_roller.c **** 
 177              		.loc 1 775 1 view .LVU38
 178 004c 06B0     		add	sp, sp, #24
 179              		.cfi_remember_state
 180              		.cfi_def_cfa_offset 16
 181              		@ sp needed
 182 004e 70BD     		pop	{r4, r5, r6, pc}
 183              	.LVL19:
 184              	.L7:
 185              		.cfi_restore_state
 767:Drivers/lvgl/src/widgets/lv_roller.c **** 
 186              		.loc 1 767 30 view .LVU39
 187 0050 0020     		movs	r0, #0
 188              	.LVL20:
 767:Drivers/lvgl/src/widgets/lv_roller.c **** 
 189              		.loc 1 767 30 view .LVU40
 190 0052 FBE7     		b	.L6
 191              		.cfi_endproc
 192              	.LFE179:
 194              		.section	.text.inf_normalize,"ax",%progbits
 195              		.align	1
 196              		.syntax unified
 197              		.thumb
 198              		.thumb_func
 200              	inf_normalize:
 201              	.LVL21:
 202              	.LFB177:
 731:Drivers/lvgl/src/widgets/lv_roller.c ****     lv_roller_t * roller = (lv_roller_t *)obj;
 203              		.loc 1 731 1 is_stmt 1 view -0
 204              		.cfi_startproc
 205              		@ args = 0, pretend = 0, frame = 0
 206              		@ frame_needed = 0, uses_anonymous_args = 0
ARM GAS  /var/folders/0z/tsy30v1j4xl4_7kw94k978ww0000gn/T//ccUX3GBc.s 			page 27


 731:Drivers/lvgl/src/widgets/lv_roller.c ****     lv_roller_t * roller = (lv_roller_t *)obj;
 207              		.loc 1 731 1 is_stmt 0 view .LVU42
 208 0000 F8B5     		push	{r3, r4, r5, r6, r7, lr}
 209              		.cfi_def_cfa_offset 24
 210              		.cfi_offset 3, -24
 211              		.cfi_offset 4, -20
 212              		.cfi_offset 5, -16
 213              		.cfi_offset 6, -12
 214              		.cfi_offset 7, -8
 215              		.cfi_offset 14, -4
 732:Drivers/lvgl/src/widgets/lv_roller.c **** 
 216              		.loc 1 732 5 is_stmt 1 view .LVU43
 217              	.LVL22:
 734:Drivers/lvgl/src/widgets/lv_roller.c ****         uint16_t real_id_cnt = roller->option_cnt / LV_ROLLER_INF_PAGES;
 218              		.loc 1 734 5 view .LVU44
 734:Drivers/lvgl/src/widgets/lv_roller.c ****         uint16_t real_id_cnt = roller->option_cnt / LV_ROLLER_INF_PAGES;
 219              		.loc 1 734 21 is_stmt 0 view .LVU45
 220 0002 90F82A30 		ldrb	r3, [r0, #42]	@ zero_extendqisi2
 734:Drivers/lvgl/src/widgets/lv_roller.c ****         uint16_t real_id_cnt = roller->option_cnt / LV_ROLLER_INF_PAGES;
 221              		.loc 1 734 7 view .LVU46
 222 0006 13F0010F 		tst	r3, #1
 223 000a 00D1     		bne	.L12
 224              	.LVL23:
 225              	.L9:
 756:Drivers/lvgl/src/widgets/lv_roller.c **** 
 226              		.loc 1 756 1 view .LVU47
 227 000c F8BD     		pop	{r3, r4, r5, r6, r7, pc}
 228              	.LVL24:
 229              	.L12:
 756:Drivers/lvgl/src/widgets/lv_roller.c **** 
 230              		.loc 1 756 1 view .LVU48
 231 000e 0446     		mov	r4, r0
 232              	.LBB78:
 735:Drivers/lvgl/src/widgets/lv_roller.c ****         roller->sel_opt_id = roller->sel_opt_id % real_id_cnt;
 233              		.loc 1 735 9 is_stmt 1 view .LVU49
 735:Drivers/lvgl/src/widgets/lv_roller.c ****         roller->sel_opt_id = roller->sel_opt_id % real_id_cnt;
 234              		.loc 1 735 38 is_stmt 0 view .LVU50
 235 0010 838C     		ldrh	r3, [r0, #36]
 735:Drivers/lvgl/src/widgets/lv_roller.c ****         roller->sel_opt_id = roller->sel_opt_id % real_id_cnt;
 236              		.loc 1 735 18 view .LVU51
 237 0012 224A     		ldr	r2, .L13
 238 0014 A2FB0312 		umull	r1, r2, r2, r3
 239 0018 9B1A     		subs	r3, r3, r2
 240 001a 02EB5302 		add	r2, r2, r3, lsr #1
 241 001e C2F38F02 		ubfx	r2, r2, #2, #16
 242              	.LVL25:
 736:Drivers/lvgl/src/widgets/lv_roller.c ****         roller->sel_opt_id += (LV_ROLLER_INF_PAGES / 2) * real_id_cnt; /*Select the middle page*/
 243              		.loc 1 736 9 is_stmt 1 view .LVU52
 736:Drivers/lvgl/src/widgets/lv_roller.c ****         roller->sel_opt_id += (LV_ROLLER_INF_PAGES / 2) * real_id_cnt; /*Select the middle page*/
 244              		.loc 1 736 36 is_stmt 0 view .LVU53
 245 0022 C38C     		ldrh	r3, [r0, #38]
 736:Drivers/lvgl/src/widgets/lv_roller.c ****         roller->sel_opt_id += (LV_ROLLER_INF_PAGES / 2) * real_id_cnt; /*Select the middle page*/
 246              		.loc 1 736 28 view .LVU54
 247 0024 B3FBF2F1 		udiv	r1, r3, r2
 248 0028 02FB1133 		mls	r3, r2, r1, r3
 249 002c 9BB2     		uxth	r3, r3
 250 002e C384     		strh	r3, [r0, #38]	@ movhi
ARM GAS  /var/folders/0z/tsy30v1j4xl4_7kw94k978ww0000gn/T//ccUX3GBc.s 			page 28


 737:Drivers/lvgl/src/widgets/lv_roller.c **** 
 251              		.loc 1 737 9 is_stmt 1 view .LVU55
 737:Drivers/lvgl/src/widgets/lv_roller.c **** 
 252              		.loc 1 737 28 is_stmt 0 view .LVU56
 253 0030 02EB4201 		add	r1, r2, r2, lsl #1
 254 0034 89B2     		uxth	r1, r1
 255 0036 0B44     		add	r3, r3, r1
 256 0038 9BB2     		uxth	r3, r3
 257 003a C384     		strh	r3, [r0, #38]	@ movhi
 739:Drivers/lvgl/src/widgets/lv_roller.c ****         roller->sel_opt_id_ori += (LV_ROLLER_INF_PAGES / 2) * real_id_cnt; /*Select the middle page
 258              		.loc 1 739 9 is_stmt 1 view .LVU57
 739:Drivers/lvgl/src/widgets/lv_roller.c ****         roller->sel_opt_id_ori += (LV_ROLLER_INF_PAGES / 2) * real_id_cnt; /*Select the middle page
 259              		.loc 1 739 32 is_stmt 0 view .LVU58
 260 003c B3FBF2F0 		udiv	r0, r3, r2
 261              	.LVL26:
 739:Drivers/lvgl/src/widgets/lv_roller.c ****         roller->sel_opt_id_ori += (LV_ROLLER_INF_PAGES / 2) * real_id_cnt; /*Select the middle page
 262              		.loc 1 739 32 view .LVU59
 263 0040 02FB1033 		mls	r3, r2, r0, r3
 264 0044 9BB2     		uxth	r3, r3
 265 0046 2385     		strh	r3, [r4, #40]	@ movhi
 740:Drivers/lvgl/src/widgets/lv_roller.c **** 
 266              		.loc 1 740 9 is_stmt 1 view .LVU60
 740:Drivers/lvgl/src/widgets/lv_roller.c **** 
 267              		.loc 1 740 32 is_stmt 0 view .LVU61
 268 0048 1944     		add	r1, r1, r3
 269 004a 2185     		strh	r1, [r4, #40]	@ movhi
 743:Drivers/lvgl/src/widgets/lv_roller.c ****         lv_coord_t line_space = lv_obj_get_style_text_line_space(obj, LV_PART_MAIN);
 270              		.loc 1 743 9 is_stmt 1 view .LVU62
 271              	.LVL27:
 272              	.LBB79:
 273              	.LBI79:
 463:Drivers/lvgl/src/widgets/../core/lv_obj_style_gen.h **** {
 274              		.loc 2 463 33 view .LVU63
 275              	.LBB80:
 465:Drivers/lvgl/src/widgets/../core/lv_obj_style_gen.h ****     return (const lv_font_t *)v.ptr;
 276              		.loc 2 465 5 view .LVU64
 465:Drivers/lvgl/src/widgets/../core/lv_obj_style_gen.h ****     return (const lv_font_t *)v.ptr;
 277              		.loc 2 465 26 is_stmt 0 view .LVU65
 278 004c 5722     		movs	r2, #87
 279              	.LVL28:
 465:Drivers/lvgl/src/widgets/../core/lv_obj_style_gen.h ****     return (const lv_font_t *)v.ptr;
 280              		.loc 2 465 26 view .LVU66
 281 004e 0021     		movs	r1, #0
 282 0050 2046     		mov	r0, r4
 283 0052 FFF7FEFF 		bl	lv_obj_get_style_prop
 284              	.LVL29:
 465:Drivers/lvgl/src/widgets/../core/lv_obj_style_gen.h ****     return (const lv_font_t *)v.ptr;
 285              		.loc 2 465 26 view .LVU67
 286 0056 0546     		mov	r5, r0
 287              	.LVL30:
 466:Drivers/lvgl/src/widgets/../core/lv_obj_style_gen.h **** }
 288              		.loc 2 466 5 is_stmt 1 view .LVU68
 466:Drivers/lvgl/src/widgets/../core/lv_obj_style_gen.h **** }
 289              		.loc 2 466 5 is_stmt 0 view .LVU69
 290              	.LBE80:
 291              	.LBE79:
 744:Drivers/lvgl/src/widgets/lv_roller.c ****         lv_coord_t font_h              = lv_font_get_line_height(font);
ARM GAS  /var/folders/0z/tsy30v1j4xl4_7kw94k978ww0000gn/T//ccUX3GBc.s 			page 29


 292              		.loc 1 744 9 is_stmt 1 view .LVU70
 293              	.LBB81:
 294              	.LBI81:
 473:Drivers/lvgl/src/widgets/../core/lv_obj_style_gen.h **** }
 474:Drivers/lvgl/src/widgets/../core/lv_obj_style_gen.h **** 
 475:Drivers/lvgl/src/widgets/../core/lv_obj_style_gen.h **** static inline lv_coord_t lv_obj_get_style_text_line_space(const struct _lv_obj_t * obj, uint32_t pa
 295              		.loc 2 475 26 view .LVU71
 296              	.LBB82:
 476:Drivers/lvgl/src/widgets/../core/lv_obj_style_gen.h **** {
 477:Drivers/lvgl/src/widgets/../core/lv_obj_style_gen.h ****     lv_style_value_t v = lv_obj_get_style_prop(obj, part, LV_STYLE_TEXT_LINE_SPACE);
 297              		.loc 2 477 5 view .LVU72
 298              		.loc 2 477 26 is_stmt 0 view .LVU73
 299 0058 5922     		movs	r2, #89
 300 005a 0021     		movs	r1, #0
 301 005c 2046     		mov	r0, r4
 302              	.LVL31:
 303              		.loc 2 477 26 view .LVU74
 304 005e FFF7FEFF 		bl	lv_obj_get_style_prop
 305              	.LVL32:
 478:Drivers/lvgl/src/widgets/../core/lv_obj_style_gen.h ****     return (lv_coord_t)v.num;
 306              		.loc 2 478 5 is_stmt 1 view .LVU75
 307              		.loc 2 478 12 is_stmt 0 view .LVU76
 308 0062 06B2     		sxth	r6, r0
 309              	.LVL33:
 310              		.loc 2 478 12 view .LVU77
 311              	.LBE82:
 312              	.LBE81:
 745:Drivers/lvgl/src/widgets/lv_roller.c ****         lv_coord_t h                   = lv_obj_get_content_height(obj);
 313              		.loc 1 745 9 is_stmt 1 view .LVU78
 314              	.LBB83:
 315              	.LBI83:
 316              		.file 3 "Drivers/lvgl/src/widgets/../core/../misc/../font/lv_font.h"
   1:Drivers/lvgl/src/widgets/../core/../misc/../font/lv_font.h **** /**
   2:Drivers/lvgl/src/widgets/../core/../misc/../font/lv_font.h ****  * @file lv_font.h
   3:Drivers/lvgl/src/widgets/../core/../misc/../font/lv_font.h ****  *
   4:Drivers/lvgl/src/widgets/../core/../misc/../font/lv_font.h ****  */
   5:Drivers/lvgl/src/widgets/../core/../misc/../font/lv_font.h **** 
   6:Drivers/lvgl/src/widgets/../core/../misc/../font/lv_font.h **** #ifndef LV_FONT_H
   7:Drivers/lvgl/src/widgets/../core/../misc/../font/lv_font.h **** #define LV_FONT_H
   8:Drivers/lvgl/src/widgets/../core/../misc/../font/lv_font.h **** 
   9:Drivers/lvgl/src/widgets/../core/../misc/../font/lv_font.h **** #ifdef __cplusplus
  10:Drivers/lvgl/src/widgets/../core/../misc/../font/lv_font.h **** extern "C" {
  11:Drivers/lvgl/src/widgets/../core/../misc/../font/lv_font.h **** #endif
  12:Drivers/lvgl/src/widgets/../core/../misc/../font/lv_font.h **** 
  13:Drivers/lvgl/src/widgets/../core/../misc/../font/lv_font.h **** /*********************
  14:Drivers/lvgl/src/widgets/../core/../misc/../font/lv_font.h ****  *      INCLUDES
  15:Drivers/lvgl/src/widgets/../core/../misc/../font/lv_font.h ****  *********************/
  16:Drivers/lvgl/src/widgets/../core/../misc/../font/lv_font.h **** #include "../lv_conf_internal.h"
  17:Drivers/lvgl/src/widgets/../core/../misc/../font/lv_font.h **** #include <stdint.h>
  18:Drivers/lvgl/src/widgets/../core/../misc/../font/lv_font.h **** #include <stddef.h>
  19:Drivers/lvgl/src/widgets/../core/../misc/../font/lv_font.h **** #include <stdbool.h>
  20:Drivers/lvgl/src/widgets/../core/../misc/../font/lv_font.h **** 
  21:Drivers/lvgl/src/widgets/../core/../misc/../font/lv_font.h **** #include "lv_symbol_def.h"
  22:Drivers/lvgl/src/widgets/../core/../misc/../font/lv_font.h **** #include "../misc/lv_area.h"
  23:Drivers/lvgl/src/widgets/../core/../misc/../font/lv_font.h **** 
  24:Drivers/lvgl/src/widgets/../core/../misc/../font/lv_font.h **** /*********************
  25:Drivers/lvgl/src/widgets/../core/../misc/../font/lv_font.h ****  *      DEFINES
ARM GAS  /var/folders/0z/tsy30v1j4xl4_7kw94k978ww0000gn/T//ccUX3GBc.s 			page 30


  26:Drivers/lvgl/src/widgets/../core/../misc/../font/lv_font.h ****  *********************/
  27:Drivers/lvgl/src/widgets/../core/../misc/../font/lv_font.h **** 
  28:Drivers/lvgl/src/widgets/../core/../misc/../font/lv_font.h **** /* imgfont identifier */
  29:Drivers/lvgl/src/widgets/../core/../misc/../font/lv_font.h **** #define LV_IMGFONT_BPP 9
  30:Drivers/lvgl/src/widgets/../core/../misc/../font/lv_font.h **** 
  31:Drivers/lvgl/src/widgets/../core/../misc/../font/lv_font.h **** /**********************
  32:Drivers/lvgl/src/widgets/../core/../misc/../font/lv_font.h ****  *      TYPEDEFS
  33:Drivers/lvgl/src/widgets/../core/../misc/../font/lv_font.h ****  **********************/
  34:Drivers/lvgl/src/widgets/../core/../misc/../font/lv_font.h **** 
  35:Drivers/lvgl/src/widgets/../core/../misc/../font/lv_font.h **** /*------------------
  36:Drivers/lvgl/src/widgets/../core/../misc/../font/lv_font.h ****  * General types
  37:Drivers/lvgl/src/widgets/../core/../misc/../font/lv_font.h ****  *-----------------*/
  38:Drivers/lvgl/src/widgets/../core/../misc/../font/lv_font.h **** 
  39:Drivers/lvgl/src/widgets/../core/../misc/../font/lv_font.h **** struct _lv_font_t;
  40:Drivers/lvgl/src/widgets/../core/../misc/../font/lv_font.h **** /** Describes the properties of a glyph.*/
  41:Drivers/lvgl/src/widgets/../core/../misc/../font/lv_font.h **** typedef struct {
  42:Drivers/lvgl/src/widgets/../core/../misc/../font/lv_font.h ****     const struct _lv_font_t *
  43:Drivers/lvgl/src/widgets/../core/../misc/../font/lv_font.h ****         resolved_font; /**< Pointer to a font where the glyph was actually found after handling fal
  44:Drivers/lvgl/src/widgets/../core/../misc/../font/lv_font.h ****     uint16_t adv_w; /**< The glyph needs this space. Draw the next glyph after this width.*/
  45:Drivers/lvgl/src/widgets/../core/../misc/../font/lv_font.h ****     uint16_t box_w; /**< Width of the glyph's bounding box*/
  46:Drivers/lvgl/src/widgets/../core/../misc/../font/lv_font.h ****     uint16_t box_h; /**< Height of the glyph's bounding box*/
  47:Drivers/lvgl/src/widgets/../core/../misc/../font/lv_font.h ****     int16_t ofs_x;  /**< x offset of the bounding box*/
  48:Drivers/lvgl/src/widgets/../core/../misc/../font/lv_font.h ****     int16_t ofs_y;  /**< y offset of the bounding box*/
  49:Drivers/lvgl/src/widgets/../core/../misc/../font/lv_font.h ****     uint8_t bpp: 4;  /**< Bit-per-pixel: 1, 2, 4, 8*/
  50:Drivers/lvgl/src/widgets/../core/../misc/../font/lv_font.h ****     uint8_t is_placeholder: 1; /** Glyph is missing. But placeholder will still be displayed */
  51:Drivers/lvgl/src/widgets/../core/../misc/../font/lv_font.h **** } lv_font_glyph_dsc_t;
  52:Drivers/lvgl/src/widgets/../core/../misc/../font/lv_font.h **** 
  53:Drivers/lvgl/src/widgets/../core/../misc/../font/lv_font.h **** /** The bitmaps might be upscaled by 3 to achieve subpixel rendering.*/
  54:Drivers/lvgl/src/widgets/../core/../misc/../font/lv_font.h **** enum {
  55:Drivers/lvgl/src/widgets/../core/../misc/../font/lv_font.h ****     LV_FONT_SUBPX_NONE,
  56:Drivers/lvgl/src/widgets/../core/../misc/../font/lv_font.h ****     LV_FONT_SUBPX_HOR,
  57:Drivers/lvgl/src/widgets/../core/../misc/../font/lv_font.h ****     LV_FONT_SUBPX_VER,
  58:Drivers/lvgl/src/widgets/../core/../misc/../font/lv_font.h ****     LV_FONT_SUBPX_BOTH,
  59:Drivers/lvgl/src/widgets/../core/../misc/../font/lv_font.h **** };
  60:Drivers/lvgl/src/widgets/../core/../misc/../font/lv_font.h **** 
  61:Drivers/lvgl/src/widgets/../core/../misc/../font/lv_font.h **** typedef uint8_t lv_font_subpx_t;
  62:Drivers/lvgl/src/widgets/../core/../misc/../font/lv_font.h **** 
  63:Drivers/lvgl/src/widgets/../core/../misc/../font/lv_font.h **** /** Describe the properties of a font*/
  64:Drivers/lvgl/src/widgets/../core/../misc/../font/lv_font.h **** typedef struct _lv_font_t {
  65:Drivers/lvgl/src/widgets/../core/../misc/../font/lv_font.h ****     /** Get a glyph's descriptor from a font*/
  66:Drivers/lvgl/src/widgets/../core/../misc/../font/lv_font.h ****     bool (*get_glyph_dsc)(const struct _lv_font_t *, lv_font_glyph_dsc_t *, uint32_t letter, uint32
  67:Drivers/lvgl/src/widgets/../core/../misc/../font/lv_font.h **** 
  68:Drivers/lvgl/src/widgets/../core/../misc/../font/lv_font.h ****     /** Get a glyph's bitmap from a font*/
  69:Drivers/lvgl/src/widgets/../core/../misc/../font/lv_font.h ****     const uint8_t * (*get_glyph_bitmap)(const struct _lv_font_t *, uint32_t);
  70:Drivers/lvgl/src/widgets/../core/../misc/../font/lv_font.h **** 
  71:Drivers/lvgl/src/widgets/../core/../misc/../font/lv_font.h ****     /*Pointer to the font in a font pack (must have the same line height)*/
  72:Drivers/lvgl/src/widgets/../core/../misc/../font/lv_font.h ****     lv_coord_t line_height;         /**< The real line height where any text fits*/
  73:Drivers/lvgl/src/widgets/../core/../misc/../font/lv_font.h ****     lv_coord_t base_line;           /**< Base line measured from the top of the line_height*/
  74:Drivers/lvgl/src/widgets/../core/../misc/../font/lv_font.h ****     uint8_t subpx  : 2;             /**< An element of `lv_font_subpx_t`*/
  75:Drivers/lvgl/src/widgets/../core/../misc/../font/lv_font.h **** 
  76:Drivers/lvgl/src/widgets/../core/../misc/../font/lv_font.h ****     int8_t underline_position;      /**< Distance between the top of the underline and base line (<
  77:Drivers/lvgl/src/widgets/../core/../misc/../font/lv_font.h ****     int8_t underline_thickness;     /**< Thickness of the underline*/
  78:Drivers/lvgl/src/widgets/../core/../misc/../font/lv_font.h **** 
  79:Drivers/lvgl/src/widgets/../core/../misc/../font/lv_font.h ****     const void * dsc;               /**< Store implementation specific or run_time data or caching 
  80:Drivers/lvgl/src/widgets/../core/../misc/../font/lv_font.h ****     const struct _lv_font_t * fallback;   /**< Fallback font for missing glyph. Resolved recursivel
  81:Drivers/lvgl/src/widgets/../core/../misc/../font/lv_font.h **** #if LV_USE_USER_DATA
  82:Drivers/lvgl/src/widgets/../core/../misc/../font/lv_font.h ****     void * user_data;               /**< Custom user data for font.*/
ARM GAS  /var/folders/0z/tsy30v1j4xl4_7kw94k978ww0000gn/T//ccUX3GBc.s 			page 31


  83:Drivers/lvgl/src/widgets/../core/../misc/../font/lv_font.h **** #endif
  84:Drivers/lvgl/src/widgets/../core/../misc/../font/lv_font.h **** } lv_font_t;
  85:Drivers/lvgl/src/widgets/../core/../misc/../font/lv_font.h **** 
  86:Drivers/lvgl/src/widgets/../core/../misc/../font/lv_font.h **** /**********************
  87:Drivers/lvgl/src/widgets/../core/../misc/../font/lv_font.h ****  * GLOBAL PROTOTYPES
  88:Drivers/lvgl/src/widgets/../core/../misc/../font/lv_font.h ****  **********************/
  89:Drivers/lvgl/src/widgets/../core/../misc/../font/lv_font.h **** 
  90:Drivers/lvgl/src/widgets/../core/../misc/../font/lv_font.h **** /**
  91:Drivers/lvgl/src/widgets/../core/../misc/../font/lv_font.h ****  * Return with the bitmap of a font.
  92:Drivers/lvgl/src/widgets/../core/../misc/../font/lv_font.h ****  * @param font_p pointer to a font
  93:Drivers/lvgl/src/widgets/../core/../misc/../font/lv_font.h ****  * @param letter a UNICODE character code
  94:Drivers/lvgl/src/widgets/../core/../misc/../font/lv_font.h ****  * @return pointer to the bitmap of the letter
  95:Drivers/lvgl/src/widgets/../core/../misc/../font/lv_font.h ****  */
  96:Drivers/lvgl/src/widgets/../core/../misc/../font/lv_font.h **** const uint8_t * lv_font_get_glyph_bitmap(const lv_font_t * font_p, uint32_t letter);
  97:Drivers/lvgl/src/widgets/../core/../misc/../font/lv_font.h **** 
  98:Drivers/lvgl/src/widgets/../core/../misc/../font/lv_font.h **** /**
  99:Drivers/lvgl/src/widgets/../core/../misc/../font/lv_font.h ****  * Get the descriptor of a glyph
 100:Drivers/lvgl/src/widgets/../core/../misc/../font/lv_font.h ****  * @param font_p pointer to font
 101:Drivers/lvgl/src/widgets/../core/../misc/../font/lv_font.h ****  * @param dsc_out store the result descriptor here
 102:Drivers/lvgl/src/widgets/../core/../misc/../font/lv_font.h ****  * @param letter a UNICODE letter code
 103:Drivers/lvgl/src/widgets/../core/../misc/../font/lv_font.h ****  * @param letter_next the next letter after `letter`. Used for kerning
 104:Drivers/lvgl/src/widgets/../core/../misc/../font/lv_font.h ****  * @return true: descriptor is successfully loaded into `dsc_out`.
 105:Drivers/lvgl/src/widgets/../core/../misc/../font/lv_font.h ****  *         false: the letter was not found, no data is loaded to `dsc_out`
 106:Drivers/lvgl/src/widgets/../core/../misc/../font/lv_font.h ****  */
 107:Drivers/lvgl/src/widgets/../core/../misc/../font/lv_font.h **** bool lv_font_get_glyph_dsc(const lv_font_t * font_p, lv_font_glyph_dsc_t * dsc_out, uint32_t letter
 108:Drivers/lvgl/src/widgets/../core/../misc/../font/lv_font.h ****                            uint32_t letter_next);
 109:Drivers/lvgl/src/widgets/../core/../misc/../font/lv_font.h **** 
 110:Drivers/lvgl/src/widgets/../core/../misc/../font/lv_font.h **** /**
 111:Drivers/lvgl/src/widgets/../core/../misc/../font/lv_font.h ****  * Get the width of a glyph with kerning
 112:Drivers/lvgl/src/widgets/../core/../misc/../font/lv_font.h ****  * @param font pointer to a font
 113:Drivers/lvgl/src/widgets/../core/../misc/../font/lv_font.h ****  * @param letter a UNICODE letter
 114:Drivers/lvgl/src/widgets/../core/../misc/../font/lv_font.h ****  * @param letter_next the next letter after `letter`. Used for kerning
 115:Drivers/lvgl/src/widgets/../core/../misc/../font/lv_font.h ****  * @return the width of the glyph
 116:Drivers/lvgl/src/widgets/../core/../misc/../font/lv_font.h ****  */
 117:Drivers/lvgl/src/widgets/../core/../misc/../font/lv_font.h **** uint16_t lv_font_get_glyph_width(const lv_font_t * font, uint32_t letter, uint32_t letter_next);
 118:Drivers/lvgl/src/widgets/../core/../misc/../font/lv_font.h **** 
 119:Drivers/lvgl/src/widgets/../core/../misc/../font/lv_font.h **** /**
 120:Drivers/lvgl/src/widgets/../core/../misc/../font/lv_font.h ****  * Get the line height of a font. All characters fit into this height
 121:Drivers/lvgl/src/widgets/../core/../misc/../font/lv_font.h ****  * @param font_p pointer to a font
 122:Drivers/lvgl/src/widgets/../core/../misc/../font/lv_font.h ****  * @return the height of a font
 123:Drivers/lvgl/src/widgets/../core/../misc/../font/lv_font.h ****  */
 124:Drivers/lvgl/src/widgets/../core/../misc/../font/lv_font.h **** static inline lv_coord_t lv_font_get_line_height(const lv_font_t * font_p)
 317              		.loc 3 124 26 view .LVU79
 318              	.LBB84:
 125:Drivers/lvgl/src/widgets/../core/../misc/../font/lv_font.h **** {
 126:Drivers/lvgl/src/widgets/../core/../misc/../font/lv_font.h ****     return font_p->line_height;
 319              		.loc 3 126 5 view .LVU80
 320              		.loc 3 126 18 is_stmt 0 view .LVU81
 321 0064 B5F90850 		ldrsh	r5, [r5, #8]
 322              	.LVL34:
 323              		.loc 3 126 18 view .LVU82
 324              	.LBE84:
 325              	.LBE83:
 746:Drivers/lvgl/src/widgets/lv_roller.c **** 
 326              		.loc 1 746 9 is_stmt 1 view .LVU83
 746:Drivers/lvgl/src/widgets/lv_roller.c **** 
 327              		.loc 1 746 42 is_stmt 0 view .LVU84
ARM GAS  /var/folders/0z/tsy30v1j4xl4_7kw94k978ww0000gn/T//ccUX3GBc.s 			page 32


 328 0068 2046     		mov	r0, r4
 329 006a FFF7FEFF 		bl	lv_obj_get_content_height
 330              	.LVL35:
 331 006e 0746     		mov	r7, r0
 332              	.LVL36:
 748:Drivers/lvgl/src/widgets/lv_roller.c **** 
 333              		.loc 1 748 9 is_stmt 1 view .LVU85
 748:Drivers/lvgl/src/widgets/lv_roller.c **** 
 334              		.loc 1 748 28 is_stmt 0 view .LVU86
 335 0070 2046     		mov	r0, r4
 336 0072 FFF7FEFF 		bl	get_label
 337              	.LVL37:
 751:Drivers/lvgl/src/widgets/lv_roller.c ****         lv_coord_t mid_y1 = h / 2 - font_h / 2;
 338              		.loc 1 751 9 is_stmt 1 view .LVU87
 751:Drivers/lvgl/src/widgets/lv_roller.c ****         lv_coord_t mid_y1 = h / 2 - font_h / 2;
 339              		.loc 1 751 35 is_stmt 0 view .LVU88
 340 0076 E38C     		ldrh	r3, [r4, #38]
 751:Drivers/lvgl/src/widgets/lv_roller.c ****         lv_coord_t mid_y1 = h / 2 - font_h / 2;
 341              		.loc 1 751 58 view .LVU89
 342 0078 2E44     		add	r6, r6, r5
 343              	.LVL38:
 751:Drivers/lvgl/src/widgets/lv_roller.c ****         lv_coord_t mid_y1 = h / 2 - font_h / 2;
 344              		.loc 1 751 20 view .LVU90
 345 007a 16FB03F6 		smulbb	r6, r6, r3
 346 007e B6B2     		uxth	r6, r6
 347              	.LVL39:
 752:Drivers/lvgl/src/widgets/lv_roller.c ****         lv_coord_t new_y = mid_y1 - sel_y1;
 348              		.loc 1 752 9 is_stmt 1 view .LVU91
 752:Drivers/lvgl/src/widgets/lv_roller.c ****         lv_coord_t new_y = mid_y1 - sel_y1;
 349              		.loc 1 752 35 is_stmt 0 view .LVU92
 350 0080 07EBD777 		add	r7, r7, r7, lsr #31
 351              	.LVL40:
 752:Drivers/lvgl/src/widgets/lv_roller.c ****         lv_coord_t new_y = mid_y1 - sel_y1;
 352              		.loc 1 752 35 view .LVU93
 353 0084 05EBD571 		add	r1, r5, r5, lsr #31
 354 0088 4910     		asrs	r1, r1, #1
 355 008a C1EB6701 		rsb	r1, r1, r7, asr #1
 356 008e 89B2     		uxth	r1, r1
 357              	.LVL41:
 753:Drivers/lvgl/src/widgets/lv_roller.c ****         lv_obj_set_y(label, new_y);
 358              		.loc 1 753 9 is_stmt 1 view .LVU94
 753:Drivers/lvgl/src/widgets/lv_roller.c ****         lv_obj_set_y(label, new_y);
 359              		.loc 1 753 35 is_stmt 0 view .LVU95
 360 0090 891B     		subs	r1, r1, r6
 361              	.LVL42:
 754:Drivers/lvgl/src/widgets/lv_roller.c ****     }
 362              		.loc 1 754 9 is_stmt 1 view .LVU96
 363 0092 09B2     		sxth	r1, r1
 754:Drivers/lvgl/src/widgets/lv_roller.c ****     }
 364              		.loc 1 754 9 is_stmt 0 view .LVU97
 365 0094 FFF7FEFF 		bl	lv_obj_set_y
 366              	.LVL43:
 754:Drivers/lvgl/src/widgets/lv_roller.c ****     }
 367              		.loc 1 754 9 view .LVU98
 368              	.LBE78:
 756:Drivers/lvgl/src/widgets/lv_roller.c **** 
 369              		.loc 1 756 1 view .LVU99
ARM GAS  /var/folders/0z/tsy30v1j4xl4_7kw94k978ww0000gn/T//ccUX3GBc.s 			page 33


 370 0098 B8E7     		b	.L9
 371              	.L14:
 372 009a 00BF     		.align	2
 373              	.L13:
 374 009c 25499224 		.word	613566757
 375              		.cfi_endproc
 376              	.LFE177:
 378              		.section	.text.scroll_anim_ready_cb,"ax",%progbits
 379              		.align	1
 380              		.syntax unified
 381              		.thumb
 382              		.thumb_func
 384              	scroll_anim_ready_cb:
 385              	.LVL44:
 386              	.LFB180:
 778:Drivers/lvgl/src/widgets/lv_roller.c ****     lv_obj_t * obj = lv_obj_get_parent(a->var); /*The label is animated*/
 387              		.loc 1 778 1 is_stmt 1 view -0
 388              		.cfi_startproc
 389              		@ args = 0, pretend = 0, frame = 0
 390              		@ frame_needed = 0, uses_anonymous_args = 0
 778:Drivers/lvgl/src/widgets/lv_roller.c ****     lv_obj_t * obj = lv_obj_get_parent(a->var); /*The label is animated*/
 391              		.loc 1 778 1 is_stmt 0 view .LVU101
 392 0000 08B5     		push	{r3, lr}
 393              		.cfi_def_cfa_offset 8
 394              		.cfi_offset 3, -8
 395              		.cfi_offset 14, -4
 779:Drivers/lvgl/src/widgets/lv_roller.c ****     inf_normalize(obj);
 396              		.loc 1 779 5 is_stmt 1 view .LVU102
 779:Drivers/lvgl/src/widgets/lv_roller.c ****     inf_normalize(obj);
 397              		.loc 1 779 22 is_stmt 0 view .LVU103
 398 0002 0068     		ldr	r0, [r0]
 399              	.LVL45:
 779:Drivers/lvgl/src/widgets/lv_roller.c ****     inf_normalize(obj);
 400              		.loc 1 779 22 view .LVU104
 401 0004 FFF7FEFF 		bl	lv_obj_get_parent
 402              	.LVL46:
 780:Drivers/lvgl/src/widgets/lv_roller.c **** }
 403              		.loc 1 780 5 is_stmt 1 view .LVU105
 404 0008 FFF7FEFF 		bl	inf_normalize
 405              	.LVL47:
 781:Drivers/lvgl/src/widgets/lv_roller.c **** 
 406              		.loc 1 781 1 is_stmt 0 view .LVU106
 407 000c 08BD     		pop	{r3, pc}
 408              		.cfi_endproc
 409              	.LFE180:
 411              		.section	.text.refr_position,"ax",%progbits
 412              		.align	1
 413              		.syntax unified
 414              		.thumb
 415              		.thumb_func
 417              	refr_position:
 418              	.LVL48:
 419              	.LFB175:
 599:Drivers/lvgl/src/widgets/lv_roller.c ****     lv_obj_t * label = get_label(obj);
 420              		.loc 1 599 1 is_stmt 1 view -0
 421              		.cfi_startproc
 422              		@ args = 0, pretend = 0, frame = 72
ARM GAS  /var/folders/0z/tsy30v1j4xl4_7kw94k978ww0000gn/T//ccUX3GBc.s 			page 34


 423              		@ frame_needed = 0, uses_anonymous_args = 0
 599:Drivers/lvgl/src/widgets/lv_roller.c ****     lv_obj_t * label = get_label(obj);
 424              		.loc 1 599 1 is_stmt 0 view .LVU108
 425 0000 2DE9F04F 		push	{r4, r5, r6, r7, r8, r9, r10, fp, lr}
 426              		.cfi_def_cfa_offset 36
 427              		.cfi_offset 4, -36
 428              		.cfi_offset 5, -32
 429              		.cfi_offset 6, -28
 430              		.cfi_offset 7, -24
 431              		.cfi_offset 8, -20
 432              		.cfi_offset 9, -16
 433              		.cfi_offset 10, -12
 434              		.cfi_offset 11, -8
 435              		.cfi_offset 14, -4
 436 0004 93B0     		sub	sp, sp, #76
 437              		.cfi_def_cfa_offset 112
 438 0006 8146     		mov	r9, r0
 439 0008 0E46     		mov	r6, r1
 600:Drivers/lvgl/src/widgets/lv_roller.c ****     if(label == NULL) return;
 440              		.loc 1 600 5 is_stmt 1 view .LVU109
 600:Drivers/lvgl/src/widgets/lv_roller.c ****     if(label == NULL) return;
 441              		.loc 1 600 24 is_stmt 0 view .LVU110
 442 000a FFF7FEFF 		bl	get_label
 443              	.LVL49:
 601:Drivers/lvgl/src/widgets/lv_roller.c **** 
 444              		.loc 1 601 5 is_stmt 1 view .LVU111
 601:Drivers/lvgl/src/widgets/lv_roller.c **** 
 445              		.loc 1 601 7 is_stmt 0 view .LVU112
 446 000e 0028     		cmp	r0, #0
 447 0010 48D0     		beq	.L17
 448 0012 0546     		mov	r5, r0
 603:Drivers/lvgl/src/widgets/lv_roller.c **** 
 449              		.loc 1 603 5 is_stmt 1 view .LVU113
 603:Drivers/lvgl/src/widgets/lv_roller.c **** 
 450              		.loc 1 603 84 is_stmt 0 view .LVU114
 451 0014 FFF7FEFF 		bl	lv_label_get_text
 452              	.LVL50:
 603:Drivers/lvgl/src/widgets/lv_roller.c **** 
 453              		.loc 1 603 84 view .LVU115
 454 0018 0246     		mov	r2, r0
 603:Drivers/lvgl/src/widgets/lv_roller.c **** 
 455              		.loc 1 603 29 view .LVU116
 456 001a 0021     		movs	r1, #0
 457 001c 2846     		mov	r0, r5
 458 001e FFF7FEFF 		bl	lv_obj_calculate_style_text_align
 459              	.LVL51:
 605:Drivers/lvgl/src/widgets/lv_roller.c ****         case LV_TEXT_ALIGN_CENTER:
 460              		.loc 1 605 5 is_stmt 1 view .LVU117
 461 0022 0228     		cmp	r0, #2
 462 0024 41D0     		beq	.L19
 463 0026 0328     		cmp	r0, #3
 464 0028 4FD0     		beq	.L20
 465 002a 0128     		cmp	r0, #1
 466 002c 5BD0     		beq	.L28
 467              	.LVL52:
 468              	.L22:
 617:Drivers/lvgl/src/widgets/lv_roller.c ****     const lv_font_t * font = lv_obj_get_style_text_font(obj, LV_PART_MAIN);
ARM GAS  /var/folders/0z/tsy30v1j4xl4_7kw94k978ww0000gn/T//ccUX3GBc.s 			page 35


 469              		.loc 1 617 5 view .LVU118
 618:Drivers/lvgl/src/widgets/lv_roller.c ****     lv_coord_t line_space = lv_obj_get_style_text_line_space(obj, LV_PART_MAIN);
 470              		.loc 1 618 5 view .LVU119
 471              	.LBB85:
 472              	.LBI85:
 463:Drivers/lvgl/src/widgets/../core/lv_obj_style_gen.h **** {
 473              		.loc 2 463 33 view .LVU120
 474              	.LBB86:
 465:Drivers/lvgl/src/widgets/../core/lv_obj_style_gen.h ****     return (const lv_font_t *)v.ptr;
 475              		.loc 2 465 5 view .LVU121
 465:Drivers/lvgl/src/widgets/../core/lv_obj_style_gen.h ****     return (const lv_font_t *)v.ptr;
 476              		.loc 2 465 26 is_stmt 0 view .LVU122
 477 002e 5722     		movs	r2, #87
 478 0030 0021     		movs	r1, #0
 479 0032 4846     		mov	r0, r9
 480 0034 FFF7FEFF 		bl	lv_obj_get_style_prop
 481              	.LVL53:
 482 0038 0446     		mov	r4, r0
 483              	.LVL54:
 466:Drivers/lvgl/src/widgets/../core/lv_obj_style_gen.h **** }
 484              		.loc 2 466 5 is_stmt 1 view .LVU123
 466:Drivers/lvgl/src/widgets/../core/lv_obj_style_gen.h **** }
 485              		.loc 2 466 5 is_stmt 0 view .LVU124
 486              	.LBE86:
 487              	.LBE85:
 619:Drivers/lvgl/src/widgets/lv_roller.c ****     lv_coord_t font_h              = lv_font_get_line_height(font);
 488              		.loc 1 619 5 is_stmt 1 view .LVU125
 489              	.LBB87:
 490              	.LBI87:
 475:Drivers/lvgl/src/widgets/../core/lv_obj_style_gen.h **** {
 491              		.loc 2 475 26 view .LVU126
 492              	.LBB88:
 477:Drivers/lvgl/src/widgets/../core/lv_obj_style_gen.h ****     return (lv_coord_t)v.num;
 493              		.loc 2 477 5 view .LVU127
 477:Drivers/lvgl/src/widgets/../core/lv_obj_style_gen.h ****     return (lv_coord_t)v.num;
 494              		.loc 2 477 26 is_stmt 0 view .LVU128
 495 003a 5922     		movs	r2, #89
 496 003c 0021     		movs	r1, #0
 497 003e 4846     		mov	r0, r9
 498              	.LVL55:
 477:Drivers/lvgl/src/widgets/../core/lv_obj_style_gen.h ****     return (lv_coord_t)v.num;
 499              		.loc 2 477 26 view .LVU129
 500 0040 FFF7FEFF 		bl	lv_obj_get_style_prop
 501              	.LVL56:
 502              		.loc 2 478 5 is_stmt 1 view .LVU130
 503              		.loc 2 478 12 is_stmt 0 view .LVU131
 504 0044 0FFA80FA 		sxth	r10, r0
 505              	.LVL57:
 506              		.loc 2 478 12 view .LVU132
 507              	.LBE88:
 508              	.LBE87:
 620:Drivers/lvgl/src/widgets/lv_roller.c ****     lv_coord_t h                   = lv_obj_get_content_height(obj);
 509              		.loc 1 620 5 is_stmt 1 view .LVU133
 510              	.LBB89:
 511              	.LBI89:
 124:Drivers/lvgl/src/widgets/../core/../misc/../font/lv_font.h **** {
 512              		.loc 3 124 26 view .LVU134
ARM GAS  /var/folders/0z/tsy30v1j4xl4_7kw94k978ww0000gn/T//ccUX3GBc.s 			page 36


 513              	.LBB90:
 514              		.loc 3 126 5 view .LVU135
 515              		.loc 3 126 18 is_stmt 0 view .LVU136
 516 0048 B4F90840 		ldrsh	r4, [r4, #8]
 517              	.LVL58:
 518              		.loc 3 126 18 view .LVU137
 519              	.LBE90:
 520              	.LBE89:
 621:Drivers/lvgl/src/widgets/lv_roller.c ****     uint16_t anim_time             = lv_obj_get_style_anim_time(obj, LV_PART_MAIN);
 521              		.loc 1 621 5 is_stmt 1 view .LVU138
 621:Drivers/lvgl/src/widgets/lv_roller.c ****     uint16_t anim_time             = lv_obj_get_style_anim_time(obj, LV_PART_MAIN);
 522              		.loc 1 621 38 is_stmt 0 view .LVU139
 523 004c 4846     		mov	r0, r9
 524 004e FFF7FEFF 		bl	lv_obj_get_content_height
 525              	.LVL59:
 526 0052 8346     		mov	fp, r0
 527              	.LVL60:
 622:Drivers/lvgl/src/widgets/lv_roller.c **** 
 528              		.loc 1 622 5 is_stmt 1 view .LVU140
 529              	.LBB91:
 530              	.LBI91:
 479:Drivers/lvgl/src/widgets/../core/lv_obj_style_gen.h **** }
 480:Drivers/lvgl/src/widgets/../core/lv_obj_style_gen.h **** 
 481:Drivers/lvgl/src/widgets/../core/lv_obj_style_gen.h **** static inline lv_text_decor_t lv_obj_get_style_text_decor(const struct _lv_obj_t * obj, uint32_t pa
 482:Drivers/lvgl/src/widgets/../core/lv_obj_style_gen.h **** {
 483:Drivers/lvgl/src/widgets/../core/lv_obj_style_gen.h ****     lv_style_value_t v = lv_obj_get_style_prop(obj, part, LV_STYLE_TEXT_DECOR);
 484:Drivers/lvgl/src/widgets/../core/lv_obj_style_gen.h ****     return (lv_text_decor_t)v.num;
 485:Drivers/lvgl/src/widgets/../core/lv_obj_style_gen.h **** }
 486:Drivers/lvgl/src/widgets/../core/lv_obj_style_gen.h **** 
 487:Drivers/lvgl/src/widgets/../core/lv_obj_style_gen.h **** static inline lv_text_align_t lv_obj_get_style_text_align(const struct _lv_obj_t * obj, uint32_t pa
 488:Drivers/lvgl/src/widgets/../core/lv_obj_style_gen.h **** {
 489:Drivers/lvgl/src/widgets/../core/lv_obj_style_gen.h ****     lv_style_value_t v = lv_obj_get_style_prop(obj, part, LV_STYLE_TEXT_ALIGN);
 490:Drivers/lvgl/src/widgets/../core/lv_obj_style_gen.h ****     return (lv_text_align_t)v.num;
 491:Drivers/lvgl/src/widgets/../core/lv_obj_style_gen.h **** }
 492:Drivers/lvgl/src/widgets/../core/lv_obj_style_gen.h **** 
 493:Drivers/lvgl/src/widgets/../core/lv_obj_style_gen.h **** static inline lv_coord_t lv_obj_get_style_radius(const struct _lv_obj_t * obj, uint32_t part)
 494:Drivers/lvgl/src/widgets/../core/lv_obj_style_gen.h **** {
 495:Drivers/lvgl/src/widgets/../core/lv_obj_style_gen.h ****     lv_style_value_t v = lv_obj_get_style_prop(obj, part, LV_STYLE_RADIUS);
 496:Drivers/lvgl/src/widgets/../core/lv_obj_style_gen.h ****     return (lv_coord_t)v.num;
 497:Drivers/lvgl/src/widgets/../core/lv_obj_style_gen.h **** }
 498:Drivers/lvgl/src/widgets/../core/lv_obj_style_gen.h **** 
 499:Drivers/lvgl/src/widgets/../core/lv_obj_style_gen.h **** static inline bool lv_obj_get_style_clip_corner(const struct _lv_obj_t * obj, uint32_t part)
 500:Drivers/lvgl/src/widgets/../core/lv_obj_style_gen.h **** {
 501:Drivers/lvgl/src/widgets/../core/lv_obj_style_gen.h ****     lv_style_value_t v = lv_obj_get_style_prop(obj, part, LV_STYLE_CLIP_CORNER);
 502:Drivers/lvgl/src/widgets/../core/lv_obj_style_gen.h ****     return (bool)v.num;
 503:Drivers/lvgl/src/widgets/../core/lv_obj_style_gen.h **** }
 504:Drivers/lvgl/src/widgets/../core/lv_obj_style_gen.h **** 
 505:Drivers/lvgl/src/widgets/../core/lv_obj_style_gen.h **** static inline lv_opa_t lv_obj_get_style_opa(const struct _lv_obj_t * obj, uint32_t part)
 506:Drivers/lvgl/src/widgets/../core/lv_obj_style_gen.h **** {
 507:Drivers/lvgl/src/widgets/../core/lv_obj_style_gen.h ****     lv_style_value_t v = lv_obj_get_style_prop(obj, part, LV_STYLE_OPA);
 508:Drivers/lvgl/src/widgets/../core/lv_obj_style_gen.h ****     return (lv_opa_t)v.num;
 509:Drivers/lvgl/src/widgets/../core/lv_obj_style_gen.h **** }
 510:Drivers/lvgl/src/widgets/../core/lv_obj_style_gen.h **** 
 511:Drivers/lvgl/src/widgets/../core/lv_obj_style_gen.h **** static inline lv_opa_t lv_obj_get_style_opa_layered(const struct _lv_obj_t * obj, uint32_t part)
 512:Drivers/lvgl/src/widgets/../core/lv_obj_style_gen.h **** {
 513:Drivers/lvgl/src/widgets/../core/lv_obj_style_gen.h ****     lv_style_value_t v = lv_obj_get_style_prop(obj, part, LV_STYLE_OPA_LAYERED);
 514:Drivers/lvgl/src/widgets/../core/lv_obj_style_gen.h ****     return (lv_opa_t)v.num;
ARM GAS  /var/folders/0z/tsy30v1j4xl4_7kw94k978ww0000gn/T//ccUX3GBc.s 			page 37


 515:Drivers/lvgl/src/widgets/../core/lv_obj_style_gen.h **** }
 516:Drivers/lvgl/src/widgets/../core/lv_obj_style_gen.h **** 
 517:Drivers/lvgl/src/widgets/../core/lv_obj_style_gen.h **** static inline const lv_color_filter_dsc_t * lv_obj_get_style_color_filter_dsc(const struct _lv_obj_
 518:Drivers/lvgl/src/widgets/../core/lv_obj_style_gen.h **** {
 519:Drivers/lvgl/src/widgets/../core/lv_obj_style_gen.h ****     lv_style_value_t v = lv_obj_get_style_prop(obj, part, LV_STYLE_COLOR_FILTER_DSC);
 520:Drivers/lvgl/src/widgets/../core/lv_obj_style_gen.h ****     return (const lv_color_filter_dsc_t *)v.ptr;
 521:Drivers/lvgl/src/widgets/../core/lv_obj_style_gen.h **** }
 522:Drivers/lvgl/src/widgets/../core/lv_obj_style_gen.h **** 
 523:Drivers/lvgl/src/widgets/../core/lv_obj_style_gen.h **** static inline lv_opa_t lv_obj_get_style_color_filter_opa(const struct _lv_obj_t * obj, uint32_t par
 524:Drivers/lvgl/src/widgets/../core/lv_obj_style_gen.h **** {
 525:Drivers/lvgl/src/widgets/../core/lv_obj_style_gen.h ****     lv_style_value_t v = lv_obj_get_style_prop(obj, part, LV_STYLE_COLOR_FILTER_OPA);
 526:Drivers/lvgl/src/widgets/../core/lv_obj_style_gen.h ****     return (lv_opa_t)v.num;
 527:Drivers/lvgl/src/widgets/../core/lv_obj_style_gen.h **** }
 528:Drivers/lvgl/src/widgets/../core/lv_obj_style_gen.h **** 
 529:Drivers/lvgl/src/widgets/../core/lv_obj_style_gen.h **** static inline const lv_anim_t * lv_obj_get_style_anim(const struct _lv_obj_t * obj, uint32_t part)
 530:Drivers/lvgl/src/widgets/../core/lv_obj_style_gen.h **** {
 531:Drivers/lvgl/src/widgets/../core/lv_obj_style_gen.h ****     lv_style_value_t v = lv_obj_get_style_prop(obj, part, LV_STYLE_ANIM);
 532:Drivers/lvgl/src/widgets/../core/lv_obj_style_gen.h ****     return (const lv_anim_t *)v.ptr;
 533:Drivers/lvgl/src/widgets/../core/lv_obj_style_gen.h **** }
 534:Drivers/lvgl/src/widgets/../core/lv_obj_style_gen.h **** 
 535:Drivers/lvgl/src/widgets/../core/lv_obj_style_gen.h **** static inline uint32_t lv_obj_get_style_anim_time(const struct _lv_obj_t * obj, uint32_t part)
 531              		.loc 2 535 24 view .LVU141
 532              	.LBB92:
 536:Drivers/lvgl/src/widgets/../core/lv_obj_style_gen.h **** {
 537:Drivers/lvgl/src/widgets/../core/lv_obj_style_gen.h ****     lv_style_value_t v = lv_obj_get_style_prop(obj, part, LV_STYLE_ANIM_TIME);
 533              		.loc 2 537 5 view .LVU142
 534              		.loc 2 537 26 is_stmt 0 view .LVU143
 535 0054 6522     		movs	r2, #101
 536 0056 0021     		movs	r1, #0
 537 0058 4846     		mov	r0, r9
 538 005a FFF7FEFF 		bl	lv_obj_get_style_prop
 539              	.LVL61:
 540 005e 8046     		mov	r8, r0
 538:Drivers/lvgl/src/widgets/../core/lv_obj_style_gen.h ****     return (uint32_t)v.num;
 541              		.loc 2 538 5 is_stmt 1 view .LVU144
 542              	.LVL62:
 543              		.loc 2 538 5 is_stmt 0 view .LVU145
 544              	.LBE92:
 545              	.LBE91:
 622:Drivers/lvgl/src/widgets/lv_roller.c **** 
 546              		.loc 1 622 14 view .LVU146
 547 0060 87B2     		uxth	r7, r0
 548              	.LVL63:
 626:Drivers/lvgl/src/widgets/lv_roller.c ****         inf_normalize(obj);
 549              		.loc 1 626 5 is_stmt 1 view .LVU147
 626:Drivers/lvgl/src/widgets/lv_roller.c ****         inf_normalize(obj);
 550              		.loc 1 626 7 is_stmt 0 view .LVU148
 551 0062 06B1     		cbz	r6, .L23
 626:Drivers/lvgl/src/widgets/lv_roller.c ****         inf_normalize(obj);
 552              		.loc 1 626 31 discriminator 1 view .LVU149
 553 0064 17B9     		cbnz	r7, .L24
 554              	.L23:
 627:Drivers/lvgl/src/widgets/lv_roller.c ****     }
 555              		.loc 1 627 9 is_stmt 1 view .LVU150
 556 0066 4846     		mov	r0, r9
 557 0068 FFF7FEFF 		bl	inf_normalize
 558              	.LVL64:
ARM GAS  /var/folders/0z/tsy30v1j4xl4_7kw94k978ww0000gn/T//ccUX3GBc.s 			page 38


 559              	.L24:
 630:Drivers/lvgl/src/widgets/lv_roller.c ****     lv_coord_t sel_y1 = id * (font_h + line_space);
 560              		.loc 1 630 5 view .LVU151
 630:Drivers/lvgl/src/widgets/lv_roller.c ****     lv_coord_t sel_y1 = id * (font_h + line_space);
 561              		.loc 1 630 24 is_stmt 0 view .LVU152
 562 006c B9F82630 		ldrh	r3, [r9, #38]
 563              	.LVL65:
 631:Drivers/lvgl/src/widgets/lv_roller.c ****     lv_coord_t mid_y1 = h / 2 - font_h / 2;
 564              		.loc 1 631 5 is_stmt 1 view .LVU153
 631:Drivers/lvgl/src/widgets/lv_roller.c ****     lv_coord_t mid_y1 = h / 2 - font_h / 2;
 565              		.loc 1 631 38 is_stmt 0 view .LVU154
 566 0070 A244     		add	r10, r10, r4
 567              	.LVL66:
 631:Drivers/lvgl/src/widgets/lv_roller.c ****     lv_coord_t mid_y1 = h / 2 - font_h / 2;
 568              		.loc 1 631 16 view .LVU155
 569 0072 1AFB03FA 		smulbb	r10, r10, r3
 570 0076 1FFA8AFA 		uxth	r10, r10
 571              	.LVL67:
 632:Drivers/lvgl/src/widgets/lv_roller.c **** 
 572              		.loc 1 632 5 is_stmt 1 view .LVU156
 632:Drivers/lvgl/src/widgets/lv_roller.c **** 
 573              		.loc 1 632 31 is_stmt 0 view .LVU157
 574 007a 0BEBDB7B 		add	fp, fp, fp, lsr #31
 575              	.LVL68:
 632:Drivers/lvgl/src/widgets/lv_roller.c **** 
 576              		.loc 1 632 31 view .LVU158
 577 007e 04EBD473 		add	r3, r4, r4, lsr #31
 578 0082 5B10     		asrs	r3, r3, #1
 579 0084 C3EB6B03 		rsb	r3, r3, fp, asr #1
 580 0088 9BB2     		uxth	r3, r3
 581              	.LVL69:
 634:Drivers/lvgl/src/widgets/lv_roller.c **** 
 582              		.loc 1 634 5 is_stmt 1 view .LVU159
 634:Drivers/lvgl/src/widgets/lv_roller.c **** 
 583              		.loc 1 634 31 is_stmt 0 view .LVU160
 584 008a A3EB0A03 		sub	r3, r3, r10
 585              	.LVL70:
 634:Drivers/lvgl/src/widgets/lv_roller.c **** 
 586              		.loc 1 634 16 view .LVU161
 587 008e 1CB2     		sxth	r4, r3
 588              	.LVL71:
 636:Drivers/lvgl/src/widgets/lv_roller.c ****         lv_anim_del(label, set_y_anim);
 589              		.loc 1 636 5 is_stmt 1 view .LVU162
 636:Drivers/lvgl/src/widgets/lv_roller.c ****         lv_anim_del(label, set_y_anim);
 590              		.loc 1 636 7 is_stmt 0 view .LVU163
 591 0090 06B1     		cbz	r6, .L25
 636:Drivers/lvgl/src/widgets/lv_roller.c ****         lv_anim_del(label, set_y_anim);
 592              		.loc 1 636 31 discriminator 1 view .LVU164
 593 0092 6FBB     		cbnz	r7, .L26
 594              	.L25:
 637:Drivers/lvgl/src/widgets/lv_roller.c ****         lv_obj_set_y(label, new_y);
 595              		.loc 1 637 9 is_stmt 1 view .LVU165
 596 0094 2249     		ldr	r1, .L29
 597 0096 2846     		mov	r0, r5
 598 0098 FFF7FEFF 		bl	lv_anim_del
 599              	.LVL72:
 638:Drivers/lvgl/src/widgets/lv_roller.c ****     }
ARM GAS  /var/folders/0z/tsy30v1j4xl4_7kw94k978ww0000gn/T//ccUX3GBc.s 			page 39


 600              		.loc 1 638 9 view .LVU166
 601 009c 2146     		mov	r1, r4
 602 009e 2846     		mov	r0, r5
 603 00a0 FFF7FEFF 		bl	lv_obj_set_y
 604              	.LVL73:
 605              	.L17:
 651:Drivers/lvgl/src/widgets/lv_roller.c **** 
 606              		.loc 1 651 1 is_stmt 0 view .LVU167
 607 00a4 13B0     		add	sp, sp, #76
 608              		.cfi_remember_state
 609              		.cfi_def_cfa_offset 36
 610              		@ sp needed
 611 00a6 BDE8F08F 		pop	{r4, r5, r6, r7, r8, r9, r10, fp, pc}
 612              	.LVL74:
 613              	.L19:
 614              		.cfi_restore_state
 607:Drivers/lvgl/src/widgets/lv_roller.c ****             break;
 615              		.loc 1 607 13 is_stmt 1 view .LVU168
 607:Drivers/lvgl/src/widgets/lv_roller.c ****             break;
 616              		.loc 1 607 34 is_stmt 0 view .LVU169
 617 00aa 4846     		mov	r0, r9
 618              	.LVL75:
 607:Drivers/lvgl/src/widgets/lv_roller.c ****             break;
 619              		.loc 1 607 34 view .LVU170
 620 00ac FFF7FEFF 		bl	lv_obj_get_content_width
 621              	.LVL76:
 622 00b0 0446     		mov	r4, r0
 607:Drivers/lvgl/src/widgets/lv_roller.c ****             break;
 623              		.loc 1 607 66 view .LVU171
 624 00b2 2846     		mov	r0, r5
 625 00b4 FFF7FEFF 		bl	lv_obj_get_width
 626              	.LVL77:
 607:Drivers/lvgl/src/widgets/lv_roller.c ****             break;
 627              		.loc 1 607 64 view .LVU172
 628 00b8 201A     		subs	r0, r4, r0
 607:Drivers/lvgl/src/widgets/lv_roller.c ****             break;
 629              		.loc 1 607 91 view .LVU173
 630 00ba 00EBD070 		add	r0, r0, r0, lsr #31
 607:Drivers/lvgl/src/widgets/lv_roller.c ****             break;
 631              		.loc 1 607 13 view .LVU174
 632 00be 40F34F01 		sbfx	r1, r0, #1, #16
 633 00c2 2846     		mov	r0, r5
 634 00c4 FFF7FEFF 		bl	lv_obj_set_x
 635              	.LVL78:
 608:Drivers/lvgl/src/widgets/lv_roller.c ****         case LV_TEXT_ALIGN_RIGHT:
 636              		.loc 1 608 13 is_stmt 1 view .LVU175
 637 00c8 B1E7     		b	.L22
 638              	.LVL79:
 639              	.L20:
 610:Drivers/lvgl/src/widgets/lv_roller.c ****             break;
 640              		.loc 1 610 13 view .LVU176
 610:Drivers/lvgl/src/widgets/lv_roller.c ****             break;
 641              		.loc 1 610 33 is_stmt 0 view .LVU177
 642 00ca 4846     		mov	r0, r9
 643              	.LVL80:
 610:Drivers/lvgl/src/widgets/lv_roller.c ****             break;
 644              		.loc 1 610 33 view .LVU178
ARM GAS  /var/folders/0z/tsy30v1j4xl4_7kw94k978ww0000gn/T//ccUX3GBc.s 			page 40


 645 00cc FFF7FEFF 		bl	lv_obj_get_content_width
 646              	.LVL81:
 647 00d0 84B2     		uxth	r4, r0
 610:Drivers/lvgl/src/widgets/lv_roller.c ****             break;
 648              		.loc 1 610 65 view .LVU179
 649 00d2 2846     		mov	r0, r5
 650 00d4 FFF7FEFF 		bl	lv_obj_get_width
 651              	.LVL82:
 652 00d8 80B2     		uxth	r0, r0
 610:Drivers/lvgl/src/widgets/lv_roller.c ****             break;
 653              		.loc 1 610 63 view .LVU180
 654 00da 211A     		subs	r1, r4, r0
 610:Drivers/lvgl/src/widgets/lv_roller.c ****             break;
 655              		.loc 1 610 13 view .LVU181
 656 00dc 09B2     		sxth	r1, r1
 657 00de 2846     		mov	r0, r5
 658 00e0 FFF7FEFF 		bl	lv_obj_set_x
 659              	.LVL83:
 611:Drivers/lvgl/src/widgets/lv_roller.c ****         case LV_TEXT_ALIGN_LEFT:
 660              		.loc 1 611 13 is_stmt 1 view .LVU182
 661 00e4 A3E7     		b	.L22
 662              	.LVL84:
 663              	.L28:
 613:Drivers/lvgl/src/widgets/lv_roller.c ****             break;
 664              		.loc 1 613 13 view .LVU183
 665 00e6 0021     		movs	r1, #0
 666 00e8 2846     		mov	r0, r5
 667              	.LVL85:
 613:Drivers/lvgl/src/widgets/lv_roller.c ****             break;
 668              		.loc 1 613 13 is_stmt 0 view .LVU184
 669 00ea FFF7FEFF 		bl	lv_obj_set_x
 670              	.LVL86:
 614:Drivers/lvgl/src/widgets/lv_roller.c ****     }
 671              		.loc 1 614 13 is_stmt 1 view .LVU185
 672 00ee 9EE7     		b	.L22
 673              	.LVL87:
 674              	.L26:
 675              	.LBB93:
 641:Drivers/lvgl/src/widgets/lv_roller.c ****         lv_anim_init(&a);
 676              		.loc 1 641 9 view .LVU186
 642:Drivers/lvgl/src/widgets/lv_roller.c ****         lv_anim_set_var(&a, label);
 677              		.loc 1 642 9 view .LVU187
 678 00f0 01A8     		add	r0, sp, #4
 679 00f2 FFF7FEFF 		bl	lv_anim_init
 680              	.LVL88:
 643:Drivers/lvgl/src/widgets/lv_roller.c ****         lv_anim_set_exec_cb(&a, set_y_anim);
 681              		.loc 1 643 9 view .LVU188
 682              	.LBB94:
 683              	.LBI94:
 684              		.file 4 "Drivers/lvgl/src/widgets/../core/../misc/lv_anim.h"
   1:Drivers/lvgl/src/widgets/../core/../misc/lv_anim.h **** /**
   2:Drivers/lvgl/src/widgets/../core/../misc/lv_anim.h ****  * @file lv_anim.h
   3:Drivers/lvgl/src/widgets/../core/../misc/lv_anim.h ****  *
   4:Drivers/lvgl/src/widgets/../core/../misc/lv_anim.h ****  */
   5:Drivers/lvgl/src/widgets/../core/../misc/lv_anim.h **** 
   6:Drivers/lvgl/src/widgets/../core/../misc/lv_anim.h **** #ifndef LV_ANIM_H
   7:Drivers/lvgl/src/widgets/../core/../misc/lv_anim.h **** #define LV_ANIM_H
ARM GAS  /var/folders/0z/tsy30v1j4xl4_7kw94k978ww0000gn/T//ccUX3GBc.s 			page 41


   8:Drivers/lvgl/src/widgets/../core/../misc/lv_anim.h **** 
   9:Drivers/lvgl/src/widgets/../core/../misc/lv_anim.h **** #ifdef __cplusplus
  10:Drivers/lvgl/src/widgets/../core/../misc/lv_anim.h **** extern "C" {
  11:Drivers/lvgl/src/widgets/../core/../misc/lv_anim.h **** #endif
  12:Drivers/lvgl/src/widgets/../core/../misc/lv_anim.h **** 
  13:Drivers/lvgl/src/widgets/../core/../misc/lv_anim.h **** /*********************
  14:Drivers/lvgl/src/widgets/../core/../misc/lv_anim.h ****  *      INCLUDES
  15:Drivers/lvgl/src/widgets/../core/../misc/lv_anim.h ****  *********************/
  16:Drivers/lvgl/src/widgets/../core/../misc/lv_anim.h **** #include "../lv_conf_internal.h"
  17:Drivers/lvgl/src/widgets/../core/../misc/lv_anim.h **** 
  18:Drivers/lvgl/src/widgets/../core/../misc/lv_anim.h **** #include <stdint.h>
  19:Drivers/lvgl/src/widgets/../core/../misc/lv_anim.h **** #include <stdbool.h>
  20:Drivers/lvgl/src/widgets/../core/../misc/lv_anim.h **** #include <stddef.h>
  21:Drivers/lvgl/src/widgets/../core/../misc/lv_anim.h **** 
  22:Drivers/lvgl/src/widgets/../core/../misc/lv_anim.h **** /*********************
  23:Drivers/lvgl/src/widgets/../core/../misc/lv_anim.h ****  *      DEFINES
  24:Drivers/lvgl/src/widgets/../core/../misc/lv_anim.h ****  *********************/
  25:Drivers/lvgl/src/widgets/../core/../misc/lv_anim.h **** 
  26:Drivers/lvgl/src/widgets/../core/../misc/lv_anim.h **** #define LV_ANIM_REPEAT_INFINITE      0xFFFF
  27:Drivers/lvgl/src/widgets/../core/../misc/lv_anim.h **** #define LV_ANIM_PLAYTIME_INFINITE    0xFFFFFFFF
  28:Drivers/lvgl/src/widgets/../core/../misc/lv_anim.h **** 
  29:Drivers/lvgl/src/widgets/../core/../misc/lv_anim.h **** LV_EXPORT_CONST_INT(LV_ANIM_REPEAT_INFINITE);
  30:Drivers/lvgl/src/widgets/../core/../misc/lv_anim.h **** LV_EXPORT_CONST_INT(LV_ANIM_PLAYTIME_INFINITE);
  31:Drivers/lvgl/src/widgets/../core/../misc/lv_anim.h **** 
  32:Drivers/lvgl/src/widgets/../core/../misc/lv_anim.h **** /**********************
  33:Drivers/lvgl/src/widgets/../core/../misc/lv_anim.h ****  *      TYPEDEFS
  34:Drivers/lvgl/src/widgets/../core/../misc/lv_anim.h ****  **********************/
  35:Drivers/lvgl/src/widgets/../core/../misc/lv_anim.h **** 
  36:Drivers/lvgl/src/widgets/../core/../misc/lv_anim.h **** /** Can be used to indicate if animations are enabled or disabled in a case*/
  37:Drivers/lvgl/src/widgets/../core/../misc/lv_anim.h **** typedef enum {
  38:Drivers/lvgl/src/widgets/../core/../misc/lv_anim.h ****     LV_ANIM_OFF,
  39:Drivers/lvgl/src/widgets/../core/../misc/lv_anim.h ****     LV_ANIM_ON,
  40:Drivers/lvgl/src/widgets/../core/../misc/lv_anim.h **** } lv_anim_enable_t;
  41:Drivers/lvgl/src/widgets/../core/../misc/lv_anim.h **** 
  42:Drivers/lvgl/src/widgets/../core/../misc/lv_anim.h **** struct _lv_anim_t;
  43:Drivers/lvgl/src/widgets/../core/../misc/lv_anim.h **** struct _lv_timer_t;
  44:Drivers/lvgl/src/widgets/../core/../misc/lv_anim.h **** 
  45:Drivers/lvgl/src/widgets/../core/../misc/lv_anim.h **** /** Get the current value during an animation*/
  46:Drivers/lvgl/src/widgets/../core/../misc/lv_anim.h **** typedef int32_t (*lv_anim_path_cb_t)(const struct _lv_anim_t *);
  47:Drivers/lvgl/src/widgets/../core/../misc/lv_anim.h **** 
  48:Drivers/lvgl/src/widgets/../core/../misc/lv_anim.h **** /** Generic prototype of "animator" functions.
  49:Drivers/lvgl/src/widgets/../core/../misc/lv_anim.h ****  * First parameter is the variable to animate.
  50:Drivers/lvgl/src/widgets/../core/../misc/lv_anim.h ****  * Second parameter is the value to set.
  51:Drivers/lvgl/src/widgets/../core/../misc/lv_anim.h ****  * Compatible with `lv_xxx_set_yyy(obj, value)` functions
  52:Drivers/lvgl/src/widgets/../core/../misc/lv_anim.h ****  * The `x` in `_xcb_t` means it's not a fully generic prototype because
  53:Drivers/lvgl/src/widgets/../core/../misc/lv_anim.h ****  * it doesn't receive `lv_anim_t *` as its first argument*/
  54:Drivers/lvgl/src/widgets/../core/../misc/lv_anim.h **** typedef void (*lv_anim_exec_xcb_t)(void *, int32_t);
  55:Drivers/lvgl/src/widgets/../core/../misc/lv_anim.h **** 
  56:Drivers/lvgl/src/widgets/../core/../misc/lv_anim.h **** /** Same as `lv_anim_exec_xcb_t` but receives `lv_anim_t *` as the first parameter.
  57:Drivers/lvgl/src/widgets/../core/../misc/lv_anim.h ****  * It's more consistent but less convenient. Might be used by binding generator functions.*/
  58:Drivers/lvgl/src/widgets/../core/../misc/lv_anim.h **** typedef void (*lv_anim_custom_exec_cb_t)(struct _lv_anim_t *, int32_t);
  59:Drivers/lvgl/src/widgets/../core/../misc/lv_anim.h **** 
  60:Drivers/lvgl/src/widgets/../core/../misc/lv_anim.h **** /** Callback to call when the animation is ready*/
  61:Drivers/lvgl/src/widgets/../core/../misc/lv_anim.h **** typedef void (*lv_anim_ready_cb_t)(struct _lv_anim_t *);
  62:Drivers/lvgl/src/widgets/../core/../misc/lv_anim.h **** 
  63:Drivers/lvgl/src/widgets/../core/../misc/lv_anim.h **** /** Callback to call when the animation really stars (considering `delay`)*/
  64:Drivers/lvgl/src/widgets/../core/../misc/lv_anim.h **** typedef void (*lv_anim_start_cb_t)(struct _lv_anim_t *);
ARM GAS  /var/folders/0z/tsy30v1j4xl4_7kw94k978ww0000gn/T//ccUX3GBc.s 			page 42


  65:Drivers/lvgl/src/widgets/../core/../misc/lv_anim.h **** 
  66:Drivers/lvgl/src/widgets/../core/../misc/lv_anim.h **** /** Callback used when the animation values are relative to get the current value*/
  67:Drivers/lvgl/src/widgets/../core/../misc/lv_anim.h **** typedef int32_t (*lv_anim_get_value_cb_t)(struct _lv_anim_t *);
  68:Drivers/lvgl/src/widgets/../core/../misc/lv_anim.h **** 
  69:Drivers/lvgl/src/widgets/../core/../misc/lv_anim.h **** /** Callback used when the animation is deleted*/
  70:Drivers/lvgl/src/widgets/../core/../misc/lv_anim.h **** typedef void (*lv_anim_deleted_cb_t)(struct _lv_anim_t *);
  71:Drivers/lvgl/src/widgets/../core/../misc/lv_anim.h **** 
  72:Drivers/lvgl/src/widgets/../core/../misc/lv_anim.h **** /** Describes an animation*/
  73:Drivers/lvgl/src/widgets/../core/../misc/lv_anim.h **** typedef struct _lv_anim_t {
  74:Drivers/lvgl/src/widgets/../core/../misc/lv_anim.h ****     void * var;                          /**<Variable to animate*/
  75:Drivers/lvgl/src/widgets/../core/../misc/lv_anim.h ****     lv_anim_exec_xcb_t exec_cb;          /**< Function to execute to animate*/
  76:Drivers/lvgl/src/widgets/../core/../misc/lv_anim.h ****     lv_anim_start_cb_t start_cb;         /**< Call it when the animation is starts (considering `de
  77:Drivers/lvgl/src/widgets/../core/../misc/lv_anim.h ****     lv_anim_ready_cb_t ready_cb;         /**< Call it when the animation is ready*/
  78:Drivers/lvgl/src/widgets/../core/../misc/lv_anim.h ****     lv_anim_deleted_cb_t deleted_cb;     /**< Call it when the animation is deleted*/
  79:Drivers/lvgl/src/widgets/../core/../misc/lv_anim.h ****     lv_anim_get_value_cb_t get_value_cb; /**< Get the current value in relative mode*/
  80:Drivers/lvgl/src/widgets/../core/../misc/lv_anim.h **** #if LV_USE_USER_DATA
  81:Drivers/lvgl/src/widgets/../core/../misc/lv_anim.h ****     void * user_data; /**< Custom user data*/
  82:Drivers/lvgl/src/widgets/../core/../misc/lv_anim.h **** #endif
  83:Drivers/lvgl/src/widgets/../core/../misc/lv_anim.h ****     lv_anim_path_cb_t path_cb;         /**< Describe the path (curve) of animations*/
  84:Drivers/lvgl/src/widgets/../core/../misc/lv_anim.h ****     int32_t start_value;               /**< Start value*/
  85:Drivers/lvgl/src/widgets/../core/../misc/lv_anim.h ****     int32_t current_value;             /**< Current value*/
  86:Drivers/lvgl/src/widgets/../core/../misc/lv_anim.h ****     int32_t end_value;                 /**< End value*/
  87:Drivers/lvgl/src/widgets/../core/../misc/lv_anim.h ****     int32_t time;                /**< Animation time in ms*/
  88:Drivers/lvgl/src/widgets/../core/../misc/lv_anim.h ****     int32_t act_time;            /**< Current time in animation. Set to negative to make delay.*/
  89:Drivers/lvgl/src/widgets/../core/../misc/lv_anim.h ****     uint32_t playback_delay;     /**< Wait before play back*/
  90:Drivers/lvgl/src/widgets/../core/../misc/lv_anim.h ****     uint32_t playback_time;      /**< Duration of playback animation*/
  91:Drivers/lvgl/src/widgets/../core/../misc/lv_anim.h ****     uint32_t repeat_delay;       /**< Wait before repeat*/
  92:Drivers/lvgl/src/widgets/../core/../misc/lv_anim.h ****     uint16_t repeat_cnt;         /**< Repeat count for the animation*/
  93:Drivers/lvgl/src/widgets/../core/../misc/lv_anim.h ****     uint8_t early_apply  : 1;    /**< 1: Apply start value immediately even is there is `delay`*/
  94:Drivers/lvgl/src/widgets/../core/../misc/lv_anim.h **** 
  95:Drivers/lvgl/src/widgets/../core/../misc/lv_anim.h ****     /*Animation system use these - user shouldn't set*/
  96:Drivers/lvgl/src/widgets/../core/../misc/lv_anim.h ****     uint8_t playback_now : 1; /**< Play back is in progress*/
  97:Drivers/lvgl/src/widgets/../core/../misc/lv_anim.h ****     uint8_t run_round : 1;    /**< Indicates the animation has run in this round*/
  98:Drivers/lvgl/src/widgets/../core/../misc/lv_anim.h ****     uint8_t start_cb_called : 1;    /**< Indicates that the `start_cb` was already called*/
  99:Drivers/lvgl/src/widgets/../core/../misc/lv_anim.h **** } lv_anim_t;
 100:Drivers/lvgl/src/widgets/../core/../misc/lv_anim.h **** 
 101:Drivers/lvgl/src/widgets/../core/../misc/lv_anim.h **** /**********************
 102:Drivers/lvgl/src/widgets/../core/../misc/lv_anim.h ****  * GLOBAL PROTOTYPES
 103:Drivers/lvgl/src/widgets/../core/../misc/lv_anim.h ****  **********************/
 104:Drivers/lvgl/src/widgets/../core/../misc/lv_anim.h **** 
 105:Drivers/lvgl/src/widgets/../core/../misc/lv_anim.h **** /**
 106:Drivers/lvgl/src/widgets/../core/../misc/lv_anim.h ****  * Init. the animation module
 107:Drivers/lvgl/src/widgets/../core/../misc/lv_anim.h ****  */
 108:Drivers/lvgl/src/widgets/../core/../misc/lv_anim.h **** void _lv_anim_core_init(void);
 109:Drivers/lvgl/src/widgets/../core/../misc/lv_anim.h **** 
 110:Drivers/lvgl/src/widgets/../core/../misc/lv_anim.h **** /**
 111:Drivers/lvgl/src/widgets/../core/../misc/lv_anim.h ****  * Initialize an animation variable.
 112:Drivers/lvgl/src/widgets/../core/../misc/lv_anim.h ****  * E.g.:
 113:Drivers/lvgl/src/widgets/../core/../misc/lv_anim.h ****  * lv_anim_t a;
 114:Drivers/lvgl/src/widgets/../core/../misc/lv_anim.h ****  * lv_anim_init(&a);
 115:Drivers/lvgl/src/widgets/../core/../misc/lv_anim.h ****  * lv_anim_set_...(&a);
 116:Drivers/lvgl/src/widgets/../core/../misc/lv_anim.h ****  * lv_anim_start(&a);
 117:Drivers/lvgl/src/widgets/../core/../misc/lv_anim.h ****  * @param a     pointer to an `lv_anim_t` variable to initialize
 118:Drivers/lvgl/src/widgets/../core/../misc/lv_anim.h ****  */
 119:Drivers/lvgl/src/widgets/../core/../misc/lv_anim.h **** void lv_anim_init(lv_anim_t * a);
 120:Drivers/lvgl/src/widgets/../core/../misc/lv_anim.h **** 
 121:Drivers/lvgl/src/widgets/../core/../misc/lv_anim.h **** /**
ARM GAS  /var/folders/0z/tsy30v1j4xl4_7kw94k978ww0000gn/T//ccUX3GBc.s 			page 43


 122:Drivers/lvgl/src/widgets/../core/../misc/lv_anim.h ****  * Set a variable to animate
 123:Drivers/lvgl/src/widgets/../core/../misc/lv_anim.h ****  * @param a     pointer to an initialized `lv_anim_t` variable
 124:Drivers/lvgl/src/widgets/../core/../misc/lv_anim.h ****  * @param var   pointer to a variable to animate
 125:Drivers/lvgl/src/widgets/../core/../misc/lv_anim.h ****  */
 126:Drivers/lvgl/src/widgets/../core/../misc/lv_anim.h **** static inline void lv_anim_set_var(lv_anim_t * a, void * var)
 685              		.loc 4 126 20 view .LVU189
 686              	.LBB95:
 127:Drivers/lvgl/src/widgets/../core/../misc/lv_anim.h **** {
 128:Drivers/lvgl/src/widgets/../core/../misc/lv_anim.h ****     a->var = var;
 687              		.loc 4 128 5 view .LVU190
 688              		.loc 4 128 12 is_stmt 0 view .LVU191
 689 00f6 0195     		str	r5, [sp, #4]
 690              	.LVL89:
 691              		.loc 4 128 12 view .LVU192
 692              	.LBE95:
 693              	.LBE94:
 644:Drivers/lvgl/src/widgets/lv_roller.c ****         lv_anim_set_values(&a, lv_obj_get_y(label), new_y);
 694              		.loc 1 644 9 is_stmt 1 view .LVU193
 695              	.LBB96:
 696              	.LBI96:
 129:Drivers/lvgl/src/widgets/../core/../misc/lv_anim.h **** }
 130:Drivers/lvgl/src/widgets/../core/../misc/lv_anim.h **** 
 131:Drivers/lvgl/src/widgets/../core/../misc/lv_anim.h **** /**
 132:Drivers/lvgl/src/widgets/../core/../misc/lv_anim.h ****  * Set a function to animate `var`
 133:Drivers/lvgl/src/widgets/../core/../misc/lv_anim.h ****  * @param a         pointer to an initialized `lv_anim_t` variable
 134:Drivers/lvgl/src/widgets/../core/../misc/lv_anim.h ****  * @param exec_cb   a function to execute during animation
 135:Drivers/lvgl/src/widgets/../core/../misc/lv_anim.h ****  *                  LVGL's built-in functions can be used.
 136:Drivers/lvgl/src/widgets/../core/../misc/lv_anim.h ****  *                  E.g. lv_obj_set_x
 137:Drivers/lvgl/src/widgets/../core/../misc/lv_anim.h ****  */
 138:Drivers/lvgl/src/widgets/../core/../misc/lv_anim.h **** static inline void lv_anim_set_exec_cb(lv_anim_t * a, lv_anim_exec_xcb_t exec_cb)
 697              		.loc 4 138 20 view .LVU194
 698              	.LBB97:
 139:Drivers/lvgl/src/widgets/../core/../misc/lv_anim.h **** {
 140:Drivers/lvgl/src/widgets/../core/../misc/lv_anim.h ****     a->exec_cb = exec_cb;
 699              		.loc 4 140 5 view .LVU195
 700              		.loc 4 140 16 is_stmt 0 view .LVU196
 701 00f8 094B     		ldr	r3, .L29
 702 00fa 0293     		str	r3, [sp, #8]
 703              	.LVL90:
 704              		.loc 4 140 16 view .LVU197
 705              	.LBE97:
 706              	.LBE96:
 645:Drivers/lvgl/src/widgets/lv_roller.c ****         lv_anim_set_time(&a, anim_time);
 707              		.loc 1 645 9 is_stmt 1 view .LVU198
 645:Drivers/lvgl/src/widgets/lv_roller.c ****         lv_anim_set_time(&a, anim_time);
 708              		.loc 1 645 32 is_stmt 0 view .LVU199
 709 00fc 2846     		mov	r0, r5
 710 00fe FFF7FEFF 		bl	lv_obj_get_y
 711              	.LVL91:
 712              	.LBB98:
 713              	.LBI98:
 141:Drivers/lvgl/src/widgets/../core/../misc/lv_anim.h **** }
 142:Drivers/lvgl/src/widgets/../core/../misc/lv_anim.h **** 
 143:Drivers/lvgl/src/widgets/../core/../misc/lv_anim.h **** /**
 144:Drivers/lvgl/src/widgets/../core/../misc/lv_anim.h ****  * Set the duration of an animation
 145:Drivers/lvgl/src/widgets/../core/../misc/lv_anim.h ****  * @param a         pointer to an initialized `lv_anim_t` variable
 146:Drivers/lvgl/src/widgets/../core/../misc/lv_anim.h ****  * @param duration  duration of the animation in milliseconds
ARM GAS  /var/folders/0z/tsy30v1j4xl4_7kw94k978ww0000gn/T//ccUX3GBc.s 			page 44


 147:Drivers/lvgl/src/widgets/../core/../misc/lv_anim.h ****  */
 148:Drivers/lvgl/src/widgets/../core/../misc/lv_anim.h **** static inline void lv_anim_set_time(lv_anim_t * a, uint32_t duration)
 149:Drivers/lvgl/src/widgets/../core/../misc/lv_anim.h **** {
 150:Drivers/lvgl/src/widgets/../core/../misc/lv_anim.h ****     a->time = duration;
 151:Drivers/lvgl/src/widgets/../core/../misc/lv_anim.h **** }
 152:Drivers/lvgl/src/widgets/../core/../misc/lv_anim.h **** 
 153:Drivers/lvgl/src/widgets/../core/../misc/lv_anim.h **** /**
 154:Drivers/lvgl/src/widgets/../core/../misc/lv_anim.h ****  * Set a delay before starting the animation
 155:Drivers/lvgl/src/widgets/../core/../misc/lv_anim.h ****  * @param a         pointer to an initialized `lv_anim_t` variable
 156:Drivers/lvgl/src/widgets/../core/../misc/lv_anim.h ****  * @param delay     delay before the animation in milliseconds
 157:Drivers/lvgl/src/widgets/../core/../misc/lv_anim.h ****  */
 158:Drivers/lvgl/src/widgets/../core/../misc/lv_anim.h **** static inline void lv_anim_set_delay(lv_anim_t * a, uint32_t delay)
 159:Drivers/lvgl/src/widgets/../core/../misc/lv_anim.h **** {
 160:Drivers/lvgl/src/widgets/../core/../misc/lv_anim.h ****     a->act_time = -(int32_t)(delay);
 161:Drivers/lvgl/src/widgets/../core/../misc/lv_anim.h **** }
 162:Drivers/lvgl/src/widgets/../core/../misc/lv_anim.h **** 
 163:Drivers/lvgl/src/widgets/../core/../misc/lv_anim.h **** /**
 164:Drivers/lvgl/src/widgets/../core/../misc/lv_anim.h ****  * Set the start and end values of an animation
 165:Drivers/lvgl/src/widgets/../core/../misc/lv_anim.h ****  * @param a         pointer to an initialized `lv_anim_t` variable
 166:Drivers/lvgl/src/widgets/../core/../misc/lv_anim.h ****  * @param start     the start value
 167:Drivers/lvgl/src/widgets/../core/../misc/lv_anim.h ****  * @param end       the end value
 168:Drivers/lvgl/src/widgets/../core/../misc/lv_anim.h ****  */
 169:Drivers/lvgl/src/widgets/../core/../misc/lv_anim.h **** static inline void lv_anim_set_values(lv_anim_t * a, int32_t start, int32_t end)
 714              		.loc 4 169 20 is_stmt 1 view .LVU200
 715              	.LBB99:
 170:Drivers/lvgl/src/widgets/../core/../misc/lv_anim.h **** {
 171:Drivers/lvgl/src/widgets/../core/../misc/lv_anim.h ****     a->start_value = start;
 716              		.loc 4 171 5 view .LVU201
 717              		.loc 4 171 20 is_stmt 0 view .LVU202
 718 0102 0990     		str	r0, [sp, #36]
 172:Drivers/lvgl/src/widgets/../core/../misc/lv_anim.h ****     a->current_value = start;
 719              		.loc 4 172 5 is_stmt 1 view .LVU203
 720              		.loc 4 172 22 is_stmt 0 view .LVU204
 721 0104 0A90     		str	r0, [sp, #40]
 173:Drivers/lvgl/src/widgets/../core/../misc/lv_anim.h ****     a->end_value = end;
 722              		.loc 4 173 5 is_stmt 1 view .LVU205
 723              		.loc 4 173 18 is_stmt 0 view .LVU206
 724 0106 0B94     		str	r4, [sp, #44]
 725              	.LVL92:
 726              		.loc 4 173 18 view .LVU207
 727              	.LBE99:
 728              	.LBE98:
 646:Drivers/lvgl/src/widgets/lv_roller.c ****         lv_anim_set_ready_cb(&a, scroll_anim_ready_cb);
 729              		.loc 1 646 9 is_stmt 1 view .LVU208
 730              	.LBB100:
 731              	.LBI100:
 148:Drivers/lvgl/src/widgets/../core/../misc/lv_anim.h **** {
 732              		.loc 4 148 20 view .LVU209
 733              	.LBB101:
 150:Drivers/lvgl/src/widgets/../core/../misc/lv_anim.h **** }
 734              		.loc 4 150 5 view .LVU210
 150:Drivers/lvgl/src/widgets/../core/../misc/lv_anim.h **** }
 735              		.loc 4 150 13 is_stmt 0 view .LVU211
 736 0108 1FFA88F7 		uxth	r7, r8
 737              	.LVL93:
 150:Drivers/lvgl/src/widgets/../core/../misc/lv_anim.h **** }
 738              		.loc 4 150 13 view .LVU212
ARM GAS  /var/folders/0z/tsy30v1j4xl4_7kw94k978ww0000gn/T//ccUX3GBc.s 			page 45


 739 010c 0C97     		str	r7, [sp, #48]
 740              	.LVL94:
 150:Drivers/lvgl/src/widgets/../core/../misc/lv_anim.h **** }
 741              		.loc 4 150 13 view .LVU213
 742              	.LBE101:
 743              	.LBE100:
 647:Drivers/lvgl/src/widgets/lv_roller.c ****         lv_anim_set_path_cb(&a, lv_anim_path_ease_out);
 744              		.loc 1 647 9 is_stmt 1 view .LVU214
 745              	.LBB102:
 746              	.LBI102:
 174:Drivers/lvgl/src/widgets/../core/../misc/lv_anim.h **** }
 175:Drivers/lvgl/src/widgets/../core/../misc/lv_anim.h **** 
 176:Drivers/lvgl/src/widgets/../core/../misc/lv_anim.h **** /**
 177:Drivers/lvgl/src/widgets/../core/../misc/lv_anim.h ****  * Similar to `lv_anim_set_exec_cb` but `lv_anim_custom_exec_cb_t` receives
 178:Drivers/lvgl/src/widgets/../core/../misc/lv_anim.h ****  * `lv_anim_t * ` as its first parameter instead of `void *`.
 179:Drivers/lvgl/src/widgets/../core/../misc/lv_anim.h ****  * This function might be used when LVGL is bound to other languages because
 180:Drivers/lvgl/src/widgets/../core/../misc/lv_anim.h ****  * it's more consistent to have `lv_anim_t *` as first parameter.
 181:Drivers/lvgl/src/widgets/../core/../misc/lv_anim.h ****  * The variable to animate can be stored in the animation's `user_data`
 182:Drivers/lvgl/src/widgets/../core/../misc/lv_anim.h ****  * @param a         pointer to an initialized `lv_anim_t` variable
 183:Drivers/lvgl/src/widgets/../core/../misc/lv_anim.h ****  * @param exec_cb   a function to execute.
 184:Drivers/lvgl/src/widgets/../core/../misc/lv_anim.h ****  */
 185:Drivers/lvgl/src/widgets/../core/../misc/lv_anim.h **** static inline void lv_anim_set_custom_exec_cb(lv_anim_t * a, lv_anim_custom_exec_cb_t exec_cb)
 186:Drivers/lvgl/src/widgets/../core/../misc/lv_anim.h **** {
 187:Drivers/lvgl/src/widgets/../core/../misc/lv_anim.h ****     a->var     = a;
 188:Drivers/lvgl/src/widgets/../core/../misc/lv_anim.h ****     a->exec_cb = (lv_anim_exec_xcb_t)exec_cb;
 189:Drivers/lvgl/src/widgets/../core/../misc/lv_anim.h **** }
 190:Drivers/lvgl/src/widgets/../core/../misc/lv_anim.h **** 
 191:Drivers/lvgl/src/widgets/../core/../misc/lv_anim.h **** /**
 192:Drivers/lvgl/src/widgets/../core/../misc/lv_anim.h ****  * Set the path (curve) of the animation.
 193:Drivers/lvgl/src/widgets/../core/../misc/lv_anim.h ****  * @param a         pointer to an initialized `lv_anim_t` variable
 194:Drivers/lvgl/src/widgets/../core/../misc/lv_anim.h ****  * @param path_cb a function to set the current value of the animation.
 195:Drivers/lvgl/src/widgets/../core/../misc/lv_anim.h ****  */
 196:Drivers/lvgl/src/widgets/../core/../misc/lv_anim.h **** static inline void lv_anim_set_path_cb(lv_anim_t * a, lv_anim_path_cb_t path_cb)
 197:Drivers/lvgl/src/widgets/../core/../misc/lv_anim.h **** {
 198:Drivers/lvgl/src/widgets/../core/../misc/lv_anim.h ****     a->path_cb = path_cb;
 199:Drivers/lvgl/src/widgets/../core/../misc/lv_anim.h **** }
 200:Drivers/lvgl/src/widgets/../core/../misc/lv_anim.h **** 
 201:Drivers/lvgl/src/widgets/../core/../misc/lv_anim.h **** /**
 202:Drivers/lvgl/src/widgets/../core/../misc/lv_anim.h ****  * Set a function call when the animation really starts (considering `delay`)
 203:Drivers/lvgl/src/widgets/../core/../misc/lv_anim.h ****  * @param a         pointer to an initialized `lv_anim_t` variable
 204:Drivers/lvgl/src/widgets/../core/../misc/lv_anim.h ****  * @param start_cb  a function call when the animation starts
 205:Drivers/lvgl/src/widgets/../core/../misc/lv_anim.h ****  */
 206:Drivers/lvgl/src/widgets/../core/../misc/lv_anim.h **** static inline void lv_anim_set_start_cb(lv_anim_t * a, lv_anim_start_cb_t start_cb)
 207:Drivers/lvgl/src/widgets/../core/../misc/lv_anim.h **** {
 208:Drivers/lvgl/src/widgets/../core/../misc/lv_anim.h ****     a->start_cb = start_cb;
 209:Drivers/lvgl/src/widgets/../core/../misc/lv_anim.h **** }
 210:Drivers/lvgl/src/widgets/../core/../misc/lv_anim.h **** 
 211:Drivers/lvgl/src/widgets/../core/../misc/lv_anim.h **** /**
 212:Drivers/lvgl/src/widgets/../core/../misc/lv_anim.h ****  * Set a function to use the current value of the variable and make start and end value
 213:Drivers/lvgl/src/widgets/../core/../misc/lv_anim.h ****  * relative to the returned current value.
 214:Drivers/lvgl/src/widgets/../core/../misc/lv_anim.h ****  * @param a             pointer to an initialized `lv_anim_t` variable
 215:Drivers/lvgl/src/widgets/../core/../misc/lv_anim.h ****  * @param get_value_cb  a function call when the animation starts
 216:Drivers/lvgl/src/widgets/../core/../misc/lv_anim.h ****  */
 217:Drivers/lvgl/src/widgets/../core/../misc/lv_anim.h **** static inline void lv_anim_set_get_value_cb(lv_anim_t * a, lv_anim_get_value_cb_t get_value_cb)
 218:Drivers/lvgl/src/widgets/../core/../misc/lv_anim.h **** {
 219:Drivers/lvgl/src/widgets/../core/../misc/lv_anim.h ****     a->get_value_cb = get_value_cb;
 220:Drivers/lvgl/src/widgets/../core/../misc/lv_anim.h **** }
ARM GAS  /var/folders/0z/tsy30v1j4xl4_7kw94k978ww0000gn/T//ccUX3GBc.s 			page 46


 221:Drivers/lvgl/src/widgets/../core/../misc/lv_anim.h **** 
 222:Drivers/lvgl/src/widgets/../core/../misc/lv_anim.h **** /**
 223:Drivers/lvgl/src/widgets/../core/../misc/lv_anim.h ****  * Set a function call when the animation is ready
 224:Drivers/lvgl/src/widgets/../core/../misc/lv_anim.h ****  * @param a         pointer to an initialized `lv_anim_t` variable
 225:Drivers/lvgl/src/widgets/../core/../misc/lv_anim.h ****  * @param ready_cb  a function call when the animation is ready
 226:Drivers/lvgl/src/widgets/../core/../misc/lv_anim.h ****  */
 227:Drivers/lvgl/src/widgets/../core/../misc/lv_anim.h **** static inline void lv_anim_set_ready_cb(lv_anim_t * a, lv_anim_ready_cb_t ready_cb)
 747              		.loc 4 227 20 view .LVU215
 748              	.LBB103:
 228:Drivers/lvgl/src/widgets/../core/../misc/lv_anim.h **** {
 229:Drivers/lvgl/src/widgets/../core/../misc/lv_anim.h ****     a->ready_cb = ready_cb;
 749              		.loc 4 229 5 view .LVU216
 750              		.loc 4 229 17 is_stmt 0 view .LVU217
 751 010e 054B     		ldr	r3, .L29+4
 752 0110 0493     		str	r3, [sp, #16]
 753              	.LVL95:
 754              		.loc 4 229 17 view .LVU218
 755              	.LBE103:
 756              	.LBE102:
 648:Drivers/lvgl/src/widgets/lv_roller.c ****         lv_anim_start(&a);
 757              		.loc 1 648 9 is_stmt 1 view .LVU219
 758              	.LBB104:
 759              	.LBI104:
 196:Drivers/lvgl/src/widgets/../core/../misc/lv_anim.h **** {
 760              		.loc 4 196 20 view .LVU220
 761              	.LBB105:
 198:Drivers/lvgl/src/widgets/../core/../misc/lv_anim.h **** }
 762              		.loc 4 198 5 view .LVU221
 198:Drivers/lvgl/src/widgets/../core/../misc/lv_anim.h **** }
 763              		.loc 4 198 16 is_stmt 0 view .LVU222
 764 0112 054B     		ldr	r3, .L29+8
 765 0114 0893     		str	r3, [sp, #32]
 766              	.LVL96:
 198:Drivers/lvgl/src/widgets/../core/../misc/lv_anim.h **** }
 767              		.loc 4 198 16 view .LVU223
 768              	.LBE105:
 769              	.LBE104:
 649:Drivers/lvgl/src/widgets/lv_roller.c ****     }
 770              		.loc 1 649 9 is_stmt 1 view .LVU224
 771 0116 01A8     		add	r0, sp, #4
 772 0118 FFF7FEFF 		bl	lv_anim_start
 773              	.LVL97:
 774 011c C2E7     		b	.L17
 775              	.L30:
 776 011e 00BF     		.align	2
 777              	.L29:
 778 0120 00000000 		.word	set_y_anim
 779 0124 00000000 		.word	scroll_anim_ready_cb
 780 0128 00000000 		.word	lv_anim_path_ease_out
 781              	.LBE93:
 782              		.cfi_endproc
 783              	.LFE175:
 785              		.section	.text.get_sel_area,"ax",%progbits
 786              		.align	1
 787              		.syntax unified
 788              		.thumb
 789              		.thumb_func
ARM GAS  /var/folders/0z/tsy30v1j4xl4_7kw94k978ww0000gn/T//ccUX3GBc.s 			page 47


 791              	get_sel_area:
 792              	.LVL98:
 793              	.LFB174:
 575:Drivers/lvgl/src/widgets/lv_roller.c **** 
 794              		.loc 1 575 1 view -0
 795              		.cfi_startproc
 796              		@ args = 0, pretend = 0, frame = 8
 797              		@ frame_needed = 0, uses_anonymous_args = 0
 575:Drivers/lvgl/src/widgets/lv_roller.c **** 
 798              		.loc 1 575 1 is_stmt 0 view .LVU226
 799 0000 2DE9F041 		push	{r4, r5, r6, r7, r8, lr}
 800              		.cfi_def_cfa_offset 24
 801              		.cfi_offset 4, -24
 802              		.cfi_offset 5, -20
 803              		.cfi_offset 6, -16
 804              		.cfi_offset 7, -12
 805              		.cfi_offset 8, -8
 806              		.cfi_offset 14, -4
 807 0004 82B0     		sub	sp, sp, #8
 808              		.cfi_def_cfa_offset 32
 809 0006 0646     		mov	r6, r0
 810 0008 0F46     		mov	r7, r1
 577:Drivers/lvgl/src/widgets/lv_roller.c ****     const lv_font_t * font_sel = lv_obj_get_style_text_font(obj, LV_PART_SELECTED);
 811              		.loc 1 577 5 is_stmt 1 view .LVU227
 812              	.LVL99:
 813              	.LBB106:
 814              	.LBI106:
 463:Drivers/lvgl/src/widgets/../core/lv_obj_style_gen.h **** {
 815              		.loc 2 463 33 view .LVU228
 816              	.LBB107:
 465:Drivers/lvgl/src/widgets/../core/lv_obj_style_gen.h ****     return (const lv_font_t *)v.ptr;
 817              		.loc 2 465 5 view .LVU229
 465:Drivers/lvgl/src/widgets/../core/lv_obj_style_gen.h ****     return (const lv_font_t *)v.ptr;
 818              		.loc 2 465 26 is_stmt 0 view .LVU230
 819 000a 5722     		movs	r2, #87
 820 000c 0021     		movs	r1, #0
 821              	.LVL100:
 465:Drivers/lvgl/src/widgets/../core/lv_obj_style_gen.h ****     return (const lv_font_t *)v.ptr;
 822              		.loc 2 465 26 view .LVU231
 823 000e FFF7FEFF 		bl	lv_obj_get_style_prop
 824              	.LVL101:
 465:Drivers/lvgl/src/widgets/../core/lv_obj_style_gen.h ****     return (const lv_font_t *)v.ptr;
 825              		.loc 2 465 26 view .LVU232
 826 0012 0446     		mov	r4, r0
 827              	.LVL102:
 466:Drivers/lvgl/src/widgets/../core/lv_obj_style_gen.h **** }
 828              		.loc 2 466 5 is_stmt 1 view .LVU233
 466:Drivers/lvgl/src/widgets/../core/lv_obj_style_gen.h **** }
 829              		.loc 2 466 5 is_stmt 0 view .LVU234
 830              	.LBE107:
 831              	.LBE106:
 578:Drivers/lvgl/src/widgets/lv_roller.c ****     lv_coord_t font_main_h        = lv_font_get_line_height(font_main);
 832              		.loc 1 578 5 is_stmt 1 view .LVU235
 833              	.LBB108:
 834              	.LBI108:
 463:Drivers/lvgl/src/widgets/../core/lv_obj_style_gen.h **** {
 835              		.loc 2 463 33 view .LVU236
ARM GAS  /var/folders/0z/tsy30v1j4xl4_7kw94k978ww0000gn/T//ccUX3GBc.s 			page 48


 836              	.LBB109:
 465:Drivers/lvgl/src/widgets/../core/lv_obj_style_gen.h ****     return (const lv_font_t *)v.ptr;
 837              		.loc 2 465 5 view .LVU237
 465:Drivers/lvgl/src/widgets/../core/lv_obj_style_gen.h ****     return (const lv_font_t *)v.ptr;
 838              		.loc 2 465 26 is_stmt 0 view .LVU238
 839 0014 5722     		movs	r2, #87
 840 0016 4FF48021 		mov	r1, #262144
 841 001a 3046     		mov	r0, r6
 842              	.LVL103:
 465:Drivers/lvgl/src/widgets/../core/lv_obj_style_gen.h ****     return (const lv_font_t *)v.ptr;
 843              		.loc 2 465 26 view .LVU239
 844 001c FFF7FEFF 		bl	lv_obj_get_style_prop
 845              	.LVL104:
 466:Drivers/lvgl/src/widgets/../core/lv_obj_style_gen.h **** }
 846              		.loc 2 466 5 is_stmt 1 view .LVU240
 466:Drivers/lvgl/src/widgets/../core/lv_obj_style_gen.h **** }
 847              		.loc 2 466 5 is_stmt 0 view .LVU241
 848              	.LBE109:
 849              	.LBE108:
 579:Drivers/lvgl/src/widgets/lv_roller.c ****     lv_coord_t font_sel_h        = lv_font_get_line_height(font_sel);
 850              		.loc 1 579 5 is_stmt 1 view .LVU242
 851              	.LBB110:
 852              	.LBI110:
 124:Drivers/lvgl/src/widgets/../core/../misc/../font/lv_font.h **** {
 853              		.loc 3 124 26 view .LVU243
 854              	.LBB111:
 855              		.loc 3 126 5 view .LVU244
 856              		.loc 3 126 18 is_stmt 0 view .LVU245
 857 0020 B4F90850 		ldrsh	r5, [r4, #8]
 858              	.LVL105:
 859              		.loc 3 126 18 view .LVU246
 860              	.LBE111:
 861              	.LBE110:
 580:Drivers/lvgl/src/widgets/lv_roller.c ****     lv_coord_t line_space = lv_obj_get_style_text_line_space(obj, LV_PART_MAIN);
 862              		.loc 1 580 5 is_stmt 1 view .LVU247
 863              	.LBB112:
 864              	.LBI112:
 124:Drivers/lvgl/src/widgets/../core/../misc/../font/lv_font.h **** {
 865              		.loc 3 124 26 view .LVU248
 866              	.LBB113:
 867              		.loc 3 126 5 view .LVU249
 868              		.loc 3 126 18 is_stmt 0 view .LVU250
 869 0024 B0F90840 		ldrsh	r4, [r0, #8]
 870              	.LVL106:
 871              		.loc 3 126 18 view .LVU251
 872              	.LBE113:
 873              	.LBE112:
 581:Drivers/lvgl/src/widgets/lv_roller.c ****     lv_coord_t d = (font_sel_h + font_main_h) / 2 + line_space;
 874              		.loc 1 581 5 is_stmt 1 view .LVU252
 875              	.LBB114:
 876              	.LBI114:
 475:Drivers/lvgl/src/widgets/../core/lv_obj_style_gen.h **** {
 877              		.loc 2 475 26 view .LVU253
 878              	.LBB115:
 477:Drivers/lvgl/src/widgets/../core/lv_obj_style_gen.h ****     return (lv_coord_t)v.num;
 879              		.loc 2 477 5 view .LVU254
 477:Drivers/lvgl/src/widgets/../core/lv_obj_style_gen.h ****     return (lv_coord_t)v.num;
ARM GAS  /var/folders/0z/tsy30v1j4xl4_7kw94k978ww0000gn/T//ccUX3GBc.s 			page 49


 880              		.loc 2 477 26 is_stmt 0 view .LVU255
 881 0028 5922     		movs	r2, #89
 882 002a 0021     		movs	r1, #0
 883 002c 3046     		mov	r0, r6
 884              	.LVL107:
 477:Drivers/lvgl/src/widgets/../core/lv_obj_style_gen.h ****     return (lv_coord_t)v.num;
 885              		.loc 2 477 26 view .LVU256
 886 002e FFF7FEFF 		bl	lv_obj_get_style_prop
 887              	.LVL108:
 478:Drivers/lvgl/src/widgets/../core/lv_obj_style_gen.h **** }
 888              		.loc 2 478 5 is_stmt 1 view .LVU257
 478:Drivers/lvgl/src/widgets/../core/lv_obj_style_gen.h **** }
 889              		.loc 2 478 5 is_stmt 0 view .LVU258
 890              	.LBE115:
 891              	.LBE114:
 582:Drivers/lvgl/src/widgets/lv_roller.c ****     sel_area->y1 = obj->coords.y1 + lv_obj_get_height(obj) / 2 - d / 2;
 892              		.loc 1 582 5 is_stmt 1 view .LVU259
 582:Drivers/lvgl/src/widgets/lv_roller.c ****     sel_area->y1 = obj->coords.y1 + lv_obj_get_height(obj) / 2 - d / 2;
 893              		.loc 1 582 32 is_stmt 0 view .LVU260
 894 0032 6319     		adds	r3, r4, r5
 582:Drivers/lvgl/src/widgets/lv_roller.c ****     sel_area->y1 = obj->coords.y1 + lv_obj_get_height(obj) / 2 - d / 2;
 895              		.loc 1 582 47 view .LVU261
 896 0034 03EBD373 		add	r3, r3, r3, lsr #31
 582:Drivers/lvgl/src/widgets/lv_roller.c ****     sel_area->y1 = obj->coords.y1 + lv_obj_get_height(obj) / 2 - d / 2;
 897              		.loc 1 582 51 view .LVU262
 898 0038 00EB6305 		add	r5, r0, r3, asr #1
 899 003c 1FFA85F8 		uxth	r8, r5
 582:Drivers/lvgl/src/widgets/lv_roller.c ****     sel_area->y1 = obj->coords.y1 + lv_obj_get_height(obj) / 2 - d / 2;
 900              		.loc 1 582 16 view .LVU263
 901 0040 2DB2     		sxth	r5, r5
 902              	.LVL109:
 583:Drivers/lvgl/src/widgets/lv_roller.c ****     sel_area->y2 = sel_area->y1 + d;
 903              		.loc 1 583 5 is_stmt 1 view .LVU264
 583:Drivers/lvgl/src/widgets/lv_roller.c ****     sel_area->y2 = sel_area->y1 + d;
 904              		.loc 1 583 31 is_stmt 0 view .LVU265
 905 0042 F48A     		ldrh	r4, [r6, #22]
 583:Drivers/lvgl/src/widgets/lv_roller.c ****     sel_area->y2 = sel_area->y1 + d;
 906              		.loc 1 583 37 view .LVU266
 907 0044 3046     		mov	r0, r6
 908              	.LVL110:
 583:Drivers/lvgl/src/widgets/lv_roller.c ****     sel_area->y2 = sel_area->y1 + d;
 909              		.loc 1 583 37 view .LVU267
 910 0046 FFF7FEFF 		bl	lv_obj_get_height
 911              	.LVL111:
 583:Drivers/lvgl/src/widgets/lv_roller.c ****     sel_area->y2 = sel_area->y1 + d;
 912              		.loc 1 583 35 view .LVU268
 913 004a 00EBD070 		add	r0, r0, r0, lsr #31
 914 004e 04EB6003 		add	r3, r4, r0, asr #1
 915 0052 9BB2     		uxth	r3, r3
 583:Drivers/lvgl/src/widgets/lv_roller.c ****     sel_area->y2 = sel_area->y1 + d;
 916              		.loc 1 583 64 view .LVU269
 917 0054 05EBD575 		add	r5, r5, r5, lsr #31
 918              	.LVL112:
 583:Drivers/lvgl/src/widgets/lv_roller.c ****     sel_area->y2 = sel_area->y1 + d;
 919              		.loc 1 583 64 view .LVU270
 920 0058 A3EB6503 		sub	r3, r3, r5, asr #1
 583:Drivers/lvgl/src/widgets/lv_roller.c ****     sel_area->y2 = sel_area->y1 + d;
ARM GAS  /var/folders/0z/tsy30v1j4xl4_7kw94k978ww0000gn/T//ccUX3GBc.s 			page 50


 921              		.loc 1 583 18 view .LVU271
 922 005c 7B80     		strh	r3, [r7, #2]	@ movhi
 584:Drivers/lvgl/src/widgets/lv_roller.c ****     lv_area_t roller_coords;
 923              		.loc 1 584 5 is_stmt 1 view .LVU272
 584:Drivers/lvgl/src/widgets/lv_roller.c ****     lv_area_t roller_coords;
 924              		.loc 1 584 33 is_stmt 0 view .LVU273
 925 005e 18FA83F3 		uxtah	r3, r8, r3
 584:Drivers/lvgl/src/widgets/lv_roller.c ****     lv_area_t roller_coords;
 926              		.loc 1 584 18 view .LVU274
 927 0062 FB80     		strh	r3, [r7, #6]	@ movhi
 585:Drivers/lvgl/src/widgets/lv_roller.c ****     lv_obj_get_coords(obj, &roller_coords);
 928              		.loc 1 585 5 is_stmt 1 view .LVU275
 586:Drivers/lvgl/src/widgets/lv_roller.c **** 
 929              		.loc 1 586 5 view .LVU276
 930 0064 6946     		mov	r1, sp
 931 0066 3046     		mov	r0, r6
 932 0068 FFF7FEFF 		bl	lv_obj_get_coords
 933              	.LVL113:
 588:Drivers/lvgl/src/widgets/lv_roller.c ****     sel_area->x2 = roller_coords.x2;
 934              		.loc 1 588 5 view .LVU277
 588:Drivers/lvgl/src/widgets/lv_roller.c ****     sel_area->x2 = roller_coords.x2;
 935              		.loc 1 588 33 is_stmt 0 view .LVU278
 936 006c BDF90030 		ldrsh	r3, [sp]
 588:Drivers/lvgl/src/widgets/lv_roller.c ****     sel_area->x2 = roller_coords.x2;
 937              		.loc 1 588 18 view .LVU279
 938 0070 3B80     		strh	r3, [r7]	@ movhi
 589:Drivers/lvgl/src/widgets/lv_roller.c **** 
 939              		.loc 1 589 5 is_stmt 1 view .LVU280
 589:Drivers/lvgl/src/widgets/lv_roller.c **** 
 940              		.loc 1 589 33 is_stmt 0 view .LVU281
 941 0072 BDF90430 		ldrsh	r3, [sp, #4]
 589:Drivers/lvgl/src/widgets/lv_roller.c **** 
 942              		.loc 1 589 18 view .LVU282
 943 0076 BB80     		strh	r3, [r7, #4]	@ movhi
 591:Drivers/lvgl/src/widgets/lv_roller.c **** 
 944              		.loc 1 591 1 view .LVU283
 945 0078 02B0     		add	sp, sp, #8
 946              		.cfi_def_cfa_offset 24
 947              		@ sp needed
 948 007a BDE8F081 		pop	{r4, r5, r6, r7, r8, pc}
 591:Drivers/lvgl/src/widgets/lv_roller.c **** 
 949              		.loc 1 591 1 view .LVU284
 950              		.cfi_endproc
 951              	.LFE174:
 953              		.section	.text.draw_main,"ax",%progbits
 954              		.align	1
 955              		.syntax unified
 956              		.thumb
 957              		.thumb_func
 959              	draw_main:
 960              	.LVL114:
 961              	.LFB172:
 451:Drivers/lvgl/src/widgets/lv_roller.c ****     lv_event_code_t code = lv_event_get_code(e);
 962              		.loc 1 451 1 is_stmt 1 view -0
 963              		.cfi_startproc
 964              		@ args = 0, pretend = 0, frame = 88
 965              		@ frame_needed = 0, uses_anonymous_args = 0
ARM GAS  /var/folders/0z/tsy30v1j4xl4_7kw94k978ww0000gn/T//ccUX3GBc.s 			page 51


 451:Drivers/lvgl/src/widgets/lv_roller.c ****     lv_event_code_t code = lv_event_get_code(e);
 966              		.loc 1 451 1 is_stmt 0 view .LVU286
 967 0000 2DE9F047 		push	{r4, r5, r6, r7, r8, r9, r10, lr}
 968              		.cfi_def_cfa_offset 32
 969              		.cfi_offset 4, -32
 970              		.cfi_offset 5, -28
 971              		.cfi_offset 6, -24
 972              		.cfi_offset 7, -20
 973              		.cfi_offset 8, -16
 974              		.cfi_offset 9, -12
 975              		.cfi_offset 10, -8
 976              		.cfi_offset 14, -4
 977 0004 9AB0     		sub	sp, sp, #104
 978              		.cfi_def_cfa_offset 136
 979 0006 0546     		mov	r5, r0
 452:Drivers/lvgl/src/widgets/lv_roller.c ****     lv_obj_t * obj = lv_event_get_target(e);
 980              		.loc 1 452 5 is_stmt 1 view .LVU287
 452:Drivers/lvgl/src/widgets/lv_roller.c ****     lv_obj_t * obj = lv_event_get_target(e);
 981              		.loc 1 452 28 is_stmt 0 view .LVU288
 982 0008 FFF7FEFF 		bl	lv_event_get_code
 983              	.LVL115:
 452:Drivers/lvgl/src/widgets/lv_roller.c ****     lv_obj_t * obj = lv_event_get_target(e);
 984              		.loc 1 452 28 view .LVU289
 985 000c 0446     		mov	r4, r0
 986              	.LVL116:
 453:Drivers/lvgl/src/widgets/lv_roller.c ****     if(code == LV_EVENT_DRAW_MAIN) {
 987              		.loc 1 453 5 is_stmt 1 view .LVU290
 453:Drivers/lvgl/src/widgets/lv_roller.c ****     if(code == LV_EVENT_DRAW_MAIN) {
 988              		.loc 1 453 22 is_stmt 0 view .LVU291
 989 000e 2846     		mov	r0, r5
 990 0010 FFF7FEFF 		bl	lv_event_get_target
 991              	.LVL117:
 992 0014 0646     		mov	r6, r0
 993              	.LVL118:
 454:Drivers/lvgl/src/widgets/lv_roller.c ****         /*Draw the selected rectangle*/
 994              		.loc 1 454 5 is_stmt 1 view .LVU292
 454:Drivers/lvgl/src/widgets/lv_roller.c ****         /*Draw the selected rectangle*/
 995              		.loc 1 454 7 is_stmt 0 view .LVU293
 996 0016 152C     		cmp	r4, #21
 997 0018 04D0     		beq	.L39
 465:Drivers/lvgl/src/widgets/lv_roller.c ****         lv_draw_ctx_t * draw_ctx = lv_event_get_draw_ctx(e);
 998              		.loc 1 465 10 is_stmt 1 view .LVU294
 465:Drivers/lvgl/src/widgets/lv_roller.c ****         lv_draw_ctx_t * draw_ctx = lv_event_get_draw_ctx(e);
 999              		.loc 1 465 12 is_stmt 0 view .LVU295
 1000 001a 182C     		cmp	r4, #24
 1001 001c 19D0     		beq	.L40
 1002              	.LVL119:
 1003              	.L33:
 522:Drivers/lvgl/src/widgets/lv_roller.c **** 
 1004              		.loc 1 522 1 view .LVU296
 1005 001e 1AB0     		add	sp, sp, #104
 1006              		.cfi_remember_state
 1007              		.cfi_def_cfa_offset 32
 1008              		@ sp needed
 1009 0020 BDE8F087 		pop	{r4, r5, r6, r7, r8, r9, r10, pc}
 1010              	.LVL120:
 1011              	.L39:
ARM GAS  /var/folders/0z/tsy30v1j4xl4_7kw94k978ww0000gn/T//ccUX3GBc.s 			page 52


 1012              		.cfi_restore_state
 1013              	.LBB116:
 456:Drivers/lvgl/src/widgets/lv_roller.c ****         lv_area_t sel_area;
 1014              		.loc 1 456 9 is_stmt 1 view .LVU297
 456:Drivers/lvgl/src/widgets/lv_roller.c ****         lv_area_t sel_area;
 1015              		.loc 1 456 36 is_stmt 0 view .LVU298
 1016 0024 2846     		mov	r0, r5
 1017              	.LVL121:
 456:Drivers/lvgl/src/widgets/lv_roller.c ****         lv_area_t sel_area;
 1018              		.loc 1 456 36 view .LVU299
 1019 0026 FFF7FEFF 		bl	lv_event_get_draw_ctx
 1020              	.LVL122:
 1021 002a 0446     		mov	r4, r0
 1022              	.LVL123:
 457:Drivers/lvgl/src/widgets/lv_roller.c ****         get_sel_area(obj, &sel_area);
 1023              		.loc 1 457 9 is_stmt 1 view .LVU300
 458:Drivers/lvgl/src/widgets/lv_roller.c ****         lv_draw_rect_dsc_t sel_dsc;
 1024              		.loc 1 458 9 view .LVU301
 1025 002c 0AA9     		add	r1, sp, #40
 1026 002e 3046     		mov	r0, r6
 1027              	.LVL124:
 458:Drivers/lvgl/src/widgets/lv_roller.c ****         lv_draw_rect_dsc_t sel_dsc;
 1028              		.loc 1 458 9 is_stmt 0 view .LVU302
 1029 0030 FFF7FEFF 		bl	get_sel_area
 1030              	.LVL125:
 459:Drivers/lvgl/src/widgets/lv_roller.c ****         lv_draw_rect_dsc_init(&sel_dsc);
 1031              		.loc 1 459 9 is_stmt 1 view .LVU303
 460:Drivers/lvgl/src/widgets/lv_roller.c ****         lv_obj_init_draw_rect_dsc(obj, LV_PART_SELECTED, &sel_dsc);
 1032              		.loc 1 460 9 view .LVU304
 1033 0034 0CA8     		add	r0, sp, #48
 1034 0036 FFF7FEFF 		bl	lv_draw_rect_dsc_init
 1035              	.LVL126:
 461:Drivers/lvgl/src/widgets/lv_roller.c ****         lv_draw_rect(draw_ctx, &sel_dsc, &sel_area);
 1036              		.loc 1 461 9 view .LVU305
 1037 003a 0CAA     		add	r2, sp, #48
 1038 003c 4FF48021 		mov	r1, #262144
 1039 0040 3046     		mov	r0, r6
 1040 0042 FFF7FEFF 		bl	lv_obj_init_draw_rect_dsc
 1041              	.LVL127:
 462:Drivers/lvgl/src/widgets/lv_roller.c ****     }
 1042              		.loc 1 462 9 view .LVU306
 1043 0046 0AAA     		add	r2, sp, #40
 1044 0048 0CA9     		add	r1, sp, #48
 1045 004a 2046     		mov	r0, r4
 1046 004c FFF7FEFF 		bl	lv_draw_rect
 1047              	.LVL128:
 1048              	.LBE116:
 1049 0050 E5E7     		b	.L33
 1050              	.LVL129:
 1051              	.L40:
 1052              	.LBB117:
 466:Drivers/lvgl/src/widgets/lv_roller.c **** 
 1053              		.loc 1 466 9 view .LVU307
 466:Drivers/lvgl/src/widgets/lv_roller.c **** 
 1054              		.loc 1 466 36 is_stmt 0 view .LVU308
 1055 0052 2846     		mov	r0, r5
 1056              	.LVL130:
ARM GAS  /var/folders/0z/tsy30v1j4xl4_7kw94k978ww0000gn/T//ccUX3GBc.s 			page 53


 466:Drivers/lvgl/src/widgets/lv_roller.c **** 
 1057              		.loc 1 466 36 view .LVU309
 1058 0054 FFF7FEFF 		bl	lv_event_get_draw_ctx
 1059              	.LVL131:
 1060 0058 0546     		mov	r5, r0
 1061              	.LVL132:
 468:Drivers/lvgl/src/widgets/lv_roller.c ****         lv_draw_label_dsc_init(&label_dsc);
 1062              		.loc 1 468 9 is_stmt 1 view .LVU310
 469:Drivers/lvgl/src/widgets/lv_roller.c ****         lv_obj_init_draw_label_dsc(obj, LV_PART_SELECTED, &label_dsc);
 1063              		.loc 1 469 9 view .LVU311
 1064 005a 0CA8     		add	r0, sp, #48
 1065              	.LVL133:
 469:Drivers/lvgl/src/widgets/lv_roller.c ****         lv_obj_init_draw_label_dsc(obj, LV_PART_SELECTED, &label_dsc);
 1066              		.loc 1 469 9 is_stmt 0 view .LVU312
 1067 005c FFF7FEFF 		bl	lv_draw_label_dsc_init
 1068              	.LVL134:
 470:Drivers/lvgl/src/widgets/lv_roller.c **** 
 1069              		.loc 1 470 9 is_stmt 1 view .LVU313
 1070 0060 0CAA     		add	r2, sp, #48
 1071 0062 4FF48021 		mov	r1, #262144
 1072 0066 3046     		mov	r0, r6
 1073 0068 FFF7FEFF 		bl	lv_obj_init_draw_label_dsc
 1074              	.LVL135:
 473:Drivers/lvgl/src/widgets/lv_roller.c ****         get_sel_area(obj, &sel_area);
 1075              		.loc 1 473 9 view .LVU314
 474:Drivers/lvgl/src/widgets/lv_roller.c ****         lv_area_t mask_sel;
 1076              		.loc 1 474 9 view .LVU315
 1077 006c 06A9     		add	r1, sp, #24
 1078 006e 3046     		mov	r0, r6
 1079 0070 FFF7FEFF 		bl	get_sel_area
 1080              	.LVL136:
 475:Drivers/lvgl/src/widgets/lv_roller.c ****         bool area_ok;
 1081              		.loc 1 475 9 view .LVU316
 476:Drivers/lvgl/src/widgets/lv_roller.c ****         area_ok = _lv_area_intersect(&mask_sel, draw_ctx->clip_area, &sel_area);
 1082              		.loc 1 476 9 view .LVU317
 477:Drivers/lvgl/src/widgets/lv_roller.c ****         if(area_ok) {
 1083              		.loc 1 477 9 view .LVU318
 477:Drivers/lvgl/src/widgets/lv_roller.c ****         if(area_ok) {
 1084              		.loc 1 477 19 is_stmt 0 view .LVU319
 1085 0074 06AA     		add	r2, sp, #24
 1086 0076 A968     		ldr	r1, [r5, #8]
 1087 0078 08A8     		add	r0, sp, #32
 1088 007a FFF7FEFF 		bl	_lv_area_intersect
 1089              	.LVL137:
 478:Drivers/lvgl/src/widgets/lv_roller.c ****             lv_obj_t * label = get_label(obj);
 1090              		.loc 1 478 9 is_stmt 1 view .LVU320
 478:Drivers/lvgl/src/widgets/lv_roller.c ****             lv_obj_t * label = get_label(obj);
 1091              		.loc 1 478 11 is_stmt 0 view .LVU321
 1092 007e 0028     		cmp	r0, #0
 1093 0080 CDD0     		beq	.L33
 1094              	.LBB118:
 479:Drivers/lvgl/src/widgets/lv_roller.c ****             if(lv_label_get_recolor(label)) label_dsc.flag |= LV_TEXT_FLAG_RECOLOR;
 1095              		.loc 1 479 13 is_stmt 1 view .LVU322
 479:Drivers/lvgl/src/widgets/lv_roller.c ****             if(lv_label_get_recolor(label)) label_dsc.flag |= LV_TEXT_FLAG_RECOLOR;
 1096              		.loc 1 479 32 is_stmt 0 view .LVU323
 1097 0082 3046     		mov	r0, r6
 1098              	.LVL138:
ARM GAS  /var/folders/0z/tsy30v1j4xl4_7kw94k978ww0000gn/T//ccUX3GBc.s 			page 54


 479:Drivers/lvgl/src/widgets/lv_roller.c ****             if(lv_label_get_recolor(label)) label_dsc.flag |= LV_TEXT_FLAG_RECOLOR;
 1099              		.loc 1 479 32 view .LVU324
 1100 0084 FFF7FEFF 		bl	get_label
 1101              	.LVL139:
 1102 0088 0746     		mov	r7, r0
 1103              	.LVL140:
 480:Drivers/lvgl/src/widgets/lv_roller.c **** 
 1104              		.loc 1 480 13 is_stmt 1 view .LVU325
 480:Drivers/lvgl/src/widgets/lv_roller.c **** 
 1105              		.loc 1 480 16 is_stmt 0 view .LVU326
 1106 008a FFF7FEFF 		bl	lv_label_get_recolor
 1107              	.LVL141:
 480:Drivers/lvgl/src/widgets/lv_roller.c **** 
 1108              		.loc 1 480 15 view .LVU327
 1109 008e 28B1     		cbz	r0, .L37
 480:Drivers/lvgl/src/widgets/lv_roller.c **** 
 1110              		.loc 1 480 45 is_stmt 1 discriminator 1 view .LVU328
 480:Drivers/lvgl/src/widgets/lv_roller.c **** 
 1111              		.loc 1 480 60 is_stmt 0 discriminator 1 view .LVU329
 1112 0090 9DF84D30 		ldrb	r3, [sp, #77]	@ zero_extendqisi2
 1113 0094 43F00103 		orr	r3, r3, #1
 1114 0098 8DF84D30 		strb	r3, [sp, #77]
 1115              	.L37:
 483:Drivers/lvgl/src/widgets/lv_roller.c ****             lv_txt_get_size(&res_p, lv_label_get_text(label), label_dsc.font, label_dsc.letter_spac
 1116              		.loc 1 483 13 is_stmt 1 view .LVU330
 484:Drivers/lvgl/src/widgets/lv_roller.c ****                             lv_obj_get_width(obj), LV_TEXT_FLAG_EXPAND);
 1117              		.loc 1 484 13 view .LVU331
 484:Drivers/lvgl/src/widgets/lv_roller.c ****                             lv_obj_get_width(obj), LV_TEXT_FLAG_EXPAND);
 1118              		.loc 1 484 37 is_stmt 0 view .LVU332
 1119 009c 3846     		mov	r0, r7
 1120 009e FFF7FEFF 		bl	lv_label_get_text
 1121              	.LVL142:
 1122 00a2 0446     		mov	r4, r0
 1123              	.LVL143:
 484:Drivers/lvgl/src/widgets/lv_roller.c ****                             lv_obj_get_width(obj), LV_TEXT_FLAG_EXPAND);
 1124              		.loc 1 484 13 view .LVU333
 1125 00a4 DDF83080 		ldr	r8, [sp, #48]
 1126 00a8 BDF94490 		ldrsh	r9, [sp, #68]
 1127 00ac BDF942A0 		ldrsh	r10, [sp, #66]
 1128 00b0 3046     		mov	r0, r6
 1129 00b2 FFF7FEFF 		bl	lv_obj_get_width
 1130              	.LVL144:
 1131 00b6 0223     		movs	r3, #2
 1132 00b8 0293     		str	r3, [sp, #8]
 1133 00ba 0190     		str	r0, [sp, #4]
 1134 00bc CDF800A0 		str	r10, [sp]
 1135 00c0 4B46     		mov	r3, r9
 1136 00c2 4246     		mov	r2, r8
 1137 00c4 2146     		mov	r1, r4
 1138 00c6 05A8     		add	r0, sp, #20
 1139 00c8 FFF7FEFF 		bl	lv_txt_get_size
 1140              	.LVL145:
 488:Drivers/lvgl/src/widgets/lv_roller.c ****             int32_t label_y_prop = label->coords.y1 - (roller_h / 2 +
 1141              		.loc 1 488 13 is_stmt 1 view .LVU334
 488:Drivers/lvgl/src/widgets/lv_roller.c ****             int32_t label_y_prop = label->coords.y1 - (roller_h / 2 +
 1142              		.loc 1 488 35 is_stmt 0 view .LVU335
 1143 00cc 3046     		mov	r0, r6
ARM GAS  /var/folders/0z/tsy30v1j4xl4_7kw94k978ww0000gn/T//ccUX3GBc.s 			page 55


 1144 00ce FFF7FEFF 		bl	lv_obj_get_height
 1145              	.LVL146:
 489:Drivers/lvgl/src/widgets/lv_roller.c ****                                                        obj->coords.y1); /*label offset from the mid
 1146              		.loc 1 489 13 is_stmt 1 view .LVU336
 489:Drivers/lvgl/src/widgets/lv_roller.c ****                                                        obj->coords.y1); /*label offset from the mid
 1147              		.loc 1 489 49 is_stmt 0 view .LVU337
 1148 00d2 B7F91680 		ldrsh	r8, [r7, #22]
 489:Drivers/lvgl/src/widgets/lv_roller.c ****                                                        obj->coords.y1); /*label offset from the mid
 1149              		.loc 1 489 65 view .LVU338
 1150 00d6 00EBD070 		add	r0, r0, r0, lsr #31
 1151              	.LVL147:
 489:Drivers/lvgl/src/widgets/lv_roller.c ****                                                        obj->coords.y1); /*label offset from the mid
 1152              		.loc 1 489 65 view .LVU339
 1153 00da 40F34F04 		sbfx	r4, r0, #1, #16
 490:Drivers/lvgl/src/widgets/lv_roller.c ****             label_y_prop = (label_y_prop * 16384) / lv_obj_get_height(
 1154              		.loc 1 490 67 view .LVU340
 1155 00de B6F91630 		ldrsh	r3, [r6, #22]
 489:Drivers/lvgl/src/widgets/lv_roller.c ****                                                        obj->coords.y1); /*label offset from the mid
 1156              		.loc 1 489 69 view .LVU341
 1157 00e2 2344     		add	r3, r3, r4
 489:Drivers/lvgl/src/widgets/lv_roller.c ****                                                        obj->coords.y1); /*label offset from the mid
 1158              		.loc 1 489 21 view .LVU342
 1159 00e4 A8EB0308 		sub	r8, r8, r3
 1160              	.LVL148:
 491:Drivers/lvgl/src/widgets/lv_roller.c ****                                label); /*Proportional position from the middle line (upscaled by <<
 1161              		.loc 1 491 13 is_stmt 1 view .LVU343
 491:Drivers/lvgl/src/widgets/lv_roller.c ****                                label); /*Proportional position from the middle line (upscaled by <<
 1162              		.loc 1 491 42 is_stmt 0 view .LVU344
 1163 00e8 4FEA8838 		lsl	r8, r8, #14
 1164              	.LVL149:
 491:Drivers/lvgl/src/widgets/lv_roller.c ****                                label); /*Proportional position from the middle line (upscaled by <<
 1165              		.loc 1 491 53 view .LVU345
 1166 00ec 3846     		mov	r0, r7
 1167 00ee FFF7FEFF 		bl	lv_obj_get_height
 1168              	.LVL150:
 491:Drivers/lvgl/src/widgets/lv_roller.c ****                                label); /*Proportional position from the middle line (upscaled by <<
 1169              		.loc 1 491 26 view .LVU346
 1170 00f2 98FBF0F8 		sdiv	r8, r8, r0
 1171              	.LVL151:
 495:Drivers/lvgl/src/widgets/lv_roller.c ****             lv_coord_t corr = (label_dsc.font->line_height - normal_label_font->line_height) / 2;
 1172              		.loc 1 495 13 is_stmt 1 view .LVU347
 1173              	.LBB119:
 1174              	.LBI119:
 463:Drivers/lvgl/src/widgets/../core/lv_obj_style_gen.h **** {
 1175              		.loc 2 463 33 view .LVU348
 1176              	.LBB120:
 465:Drivers/lvgl/src/widgets/../core/lv_obj_style_gen.h ****     return (const lv_font_t *)v.ptr;
 1177              		.loc 2 465 5 view .LVU349
 465:Drivers/lvgl/src/widgets/../core/lv_obj_style_gen.h ****     return (const lv_font_t *)v.ptr;
 1178              		.loc 2 465 26 is_stmt 0 view .LVU350
 1179 00f6 5722     		movs	r2, #87
 1180 00f8 0021     		movs	r1, #0
 1181 00fa 3046     		mov	r0, r6
 1182 00fc FFF7FEFF 		bl	lv_obj_get_style_prop
 1183              	.LVL152:
 466:Drivers/lvgl/src/widgets/../core/lv_obj_style_gen.h **** }
 1184              		.loc 2 466 5 is_stmt 1 view .LVU351
ARM GAS  /var/folders/0z/tsy30v1j4xl4_7kw94k978ww0000gn/T//ccUX3GBc.s 			page 56


 466:Drivers/lvgl/src/widgets/../core/lv_obj_style_gen.h **** }
 1185              		.loc 2 466 5 is_stmt 0 view .LVU352
 1186              	.LBE120:
 1187              	.LBE119:
 496:Drivers/lvgl/src/widgets/lv_roller.c **** 
 1188              		.loc 1 496 13 is_stmt 1 view .LVU353
 496:Drivers/lvgl/src/widgets/lv_roller.c **** 
 1189              		.loc 1 496 41 is_stmt 0 view .LVU354
 1190 0100 0C9B     		ldr	r3, [sp, #48]
 496:Drivers/lvgl/src/widgets/lv_roller.c **** 
 1191              		.loc 1 496 46 view .LVU355
 1192 0102 B3F90820 		ldrsh	r2, [r3, #8]
 496:Drivers/lvgl/src/widgets/lv_roller.c **** 
 1193              		.loc 1 496 79 view .LVU356
 1194 0106 B0F90830 		ldrsh	r3, [r0, #8]
 496:Drivers/lvgl/src/widgets/lv_roller.c **** 
 1195              		.loc 1 496 60 view .LVU357
 1196 010a D21A     		subs	r2, r2, r3
 496:Drivers/lvgl/src/widgets/lv_roller.c **** 
 1197              		.loc 1 496 94 view .LVU358
 1198 010c 02EBD272 		add	r2, r2, r2, lsr #31
 496:Drivers/lvgl/src/widgets/lv_roller.c **** 
 1199              		.loc 1 496 24 view .LVU359
 1200 0110 42F34F01 		sbfx	r1, r2, #1, #16
 1201              	.LVL153:
 499:Drivers/lvgl/src/widgets/lv_roller.c ****             int32_t label_sel_y = roller_h / 2 + obj->coords.y1;
 1202              		.loc 1 499 13 is_stmt 1 view .LVU360
 499:Drivers/lvgl/src/widgets/lv_roller.c ****             int32_t label_sel_y = roller_h / 2 + obj->coords.y1;
 1203              		.loc 1 499 21 is_stmt 0 view .LVU361
 1204 0114 BDF81630 		ldrh	r3, [sp, #22]
 1205 0118 A3EB6203 		sub	r3, r3, r2, asr #1
 1206 011c 1BB2     		sxth	r3, r3
 1207 011e ADF81630 		strh	r3, [sp, #22]	@ movhi
 500:Drivers/lvgl/src/widgets/lv_roller.c ****             label_sel_y += (label_y_prop * res_p.y) >> 14;
 1208              		.loc 1 500 13 is_stmt 1 view .LVU362
 500:Drivers/lvgl/src/widgets/lv_roller.c ****             label_sel_y += (label_y_prop * res_p.y) >> 14;
 1209              		.loc 1 500 61 is_stmt 0 view .LVU363
 1210 0122 B6F91620 		ldrsh	r2, [r6, #22]
 500:Drivers/lvgl/src/widgets/lv_roller.c ****             label_sel_y += (label_y_prop * res_p.y) >> 14;
 1211              		.loc 1 500 21 view .LVU364
 1212 0126 1444     		add	r4, r4, r2
 1213              	.LVL154:
 501:Drivers/lvgl/src/widgets/lv_roller.c ****             label_sel_y -= corr;
 1214              		.loc 1 501 13 is_stmt 1 view .LVU365
 501:Drivers/lvgl/src/widgets/lv_roller.c ****             label_sel_y -= corr;
 1215              		.loc 1 501 42 is_stmt 0 view .LVU366
 1216 0128 08FB03F3 		mul	r3, r8, r3
 501:Drivers/lvgl/src/widgets/lv_roller.c ****             label_sel_y -= corr;
 1217              		.loc 1 501 25 view .LVU367
 1218 012c 04EBA332 		add	r2, r4, r3, asr #14
 1219              	.LVL155:
 502:Drivers/lvgl/src/widgets/lv_roller.c **** 
 1220              		.loc 1 502 13 is_stmt 1 view .LVU368
 502:Drivers/lvgl/src/widgets/lv_roller.c **** 
 1221              		.loc 1 502 25 is_stmt 0 view .LVU369
 1222 0130 541A     		subs	r4, r2, r1
 1223              	.LVL156:
ARM GAS  /var/folders/0z/tsy30v1j4xl4_7kw94k978ww0000gn/T//ccUX3GBc.s 			page 57


 504:Drivers/lvgl/src/widgets/lv_roller.c ****             lv_coord_t pleft = lv_obj_get_style_pad_left(obj, LV_PART_MAIN);
 1224              		.loc 1 504 13 is_stmt 1 view .LVU370
 1225              	.LBB121:
 1226              	.LBI121:
 253:Drivers/lvgl/src/widgets/../core/lv_obj_style_gen.h **** {
 1227              		.loc 2 253 26 view .LVU371
 1228              	.LBB122:
 255:Drivers/lvgl/src/widgets/../core/lv_obj_style_gen.h ****     return (lv_coord_t)v.num;
 1229              		.loc 2 255 5 view .LVU372
 255:Drivers/lvgl/src/widgets/../core/lv_obj_style_gen.h ****     return (lv_coord_t)v.num;
 1230              		.loc 2 255 26 is_stmt 0 view .LVU373
 1231 0132 3222     		movs	r2, #50
 1232 0134 0021     		movs	r1, #0
 1233              	.LVL157:
 255:Drivers/lvgl/src/widgets/../core/lv_obj_style_gen.h ****     return (lv_coord_t)v.num;
 1234              		.loc 2 255 26 view .LVU374
 1235 0136 3046     		mov	r0, r6
 1236              	.LVL158:
 255:Drivers/lvgl/src/widgets/../core/lv_obj_style_gen.h ****     return (lv_coord_t)v.num;
 1237              		.loc 2 255 26 view .LVU375
 1238 0138 FFF7FEFF 		bl	lv_obj_get_style_prop
 1239              	.LVL159:
 255:Drivers/lvgl/src/widgets/../core/lv_obj_style_gen.h ****     return (lv_coord_t)v.num;
 1240              		.loc 2 255 26 view .LVU376
 1241 013c 8046     		mov	r8, r0
 1242              	.LVL160:
 256:Drivers/lvgl/src/widgets/../core/lv_obj_style_gen.h **** }
 1243              		.loc 2 256 5 is_stmt 1 view .LVU377
 256:Drivers/lvgl/src/widgets/../core/lv_obj_style_gen.h **** }
 1244              		.loc 2 256 5 is_stmt 0 view .LVU378
 1245              	.LBE122:
 1246              	.LBE121:
 505:Drivers/lvgl/src/widgets/lv_roller.c ****             lv_coord_t pright = lv_obj_get_style_pad_right(obj, LV_PART_MAIN);
 1247              		.loc 1 505 13 is_stmt 1 view .LVU379
 1248              	.LBB123:
 1249              	.LBI123:
 115:Drivers/lvgl/src/widgets/../core/lv_obj_style_gen.h **** {
 1250              		.loc 2 115 26 view .LVU380
 1251              	.LBB124:
 117:Drivers/lvgl/src/widgets/../core/lv_obj_style_gen.h ****     return (lv_coord_t)v.num;
 1252              		.loc 2 117 5 view .LVU381
 117:Drivers/lvgl/src/widgets/../core/lv_obj_style_gen.h ****     return (lv_coord_t)v.num;
 1253              		.loc 2 117 26 is_stmt 0 view .LVU382
 1254 013e 1222     		movs	r2, #18
 1255 0140 0021     		movs	r1, #0
 1256 0142 3046     		mov	r0, r6
 1257 0144 FFF7FEFF 		bl	lv_obj_get_style_prop
 1258              	.LVL161:
 1259 0148 8146     		mov	r9, r0
 118:Drivers/lvgl/src/widgets/../core/lv_obj_style_gen.h **** }
 1260              		.loc 2 118 5 is_stmt 1 view .LVU383
 1261              	.LVL162:
 118:Drivers/lvgl/src/widgets/../core/lv_obj_style_gen.h **** }
 1262              		.loc 2 118 5 is_stmt 0 view .LVU384
 1263              	.LBE124:
 1264              	.LBE123:
 506:Drivers/lvgl/src/widgets/lv_roller.c **** 
ARM GAS  /var/folders/0z/tsy30v1j4xl4_7kw94k978ww0000gn/T//ccUX3GBc.s 			page 58


 1265              		.loc 1 506 13 is_stmt 1 view .LVU385
 1266              	.LBB125:
 1267              	.LBI125:
 121:Drivers/lvgl/src/widgets/../core/lv_obj_style_gen.h **** {
 1268              		.loc 2 121 26 view .LVU386
 1269              	.LBB126:
 123:Drivers/lvgl/src/widgets/../core/lv_obj_style_gen.h ****     return (lv_coord_t)v.num;
 1270              		.loc 2 123 5 view .LVU387
 123:Drivers/lvgl/src/widgets/../core/lv_obj_style_gen.h ****     return (lv_coord_t)v.num;
 1271              		.loc 2 123 26 is_stmt 0 view .LVU388
 1272 014a 1322     		movs	r2, #19
 1273 014c 0021     		movs	r1, #0
 1274 014e 3046     		mov	r0, r6
 1275 0150 FFF7FEFF 		bl	lv_obj_get_style_prop
 1276              	.LVL163:
 124:Drivers/lvgl/src/widgets/../core/lv_obj_style_gen.h **** }
 1277              		.loc 2 124 5 is_stmt 1 view .LVU389
 124:Drivers/lvgl/src/widgets/../core/lv_obj_style_gen.h **** }
 1278              		.loc 2 124 5 is_stmt 0 view .LVU390
 1279              	.LBE126:
 1280              	.LBE125:
 509:Drivers/lvgl/src/widgets/lv_roller.c ****             label_sel_area.x1 = obj->coords.x1 + pleft + bwidth;
 1281              		.loc 1 509 13 is_stmt 1 view .LVU391
 510:Drivers/lvgl/src/widgets/lv_roller.c ****             label_sel_area.y1 = label_sel_y;
 1282              		.loc 1 510 13 view .LVU392
 510:Drivers/lvgl/src/widgets/lv_roller.c ****             label_sel_area.y1 = label_sel_y;
 1283              		.loc 1 510 44 is_stmt 0 view .LVU393
 1284 0154 B38A     		ldrh	r3, [r6, #20]
 510:Drivers/lvgl/src/widgets/lv_roller.c ****             label_sel_area.y1 = label_sel_y;
 1285              		.loc 1 510 48 view .LVU394
 1286 0156 4B44     		add	r3, r3, r9
 510:Drivers/lvgl/src/widgets/lv_roller.c ****             label_sel_area.y1 = label_sel_y;
 1287              		.loc 1 510 56 view .LVU395
 1288 0158 1FFA88F1 		uxth	r1, r8
 1289 015c 11FA83F3 		uxtah	r3, r1, r3
 510:Drivers/lvgl/src/widgets/lv_roller.c ****             label_sel_area.y1 = label_sel_y;
 1290              		.loc 1 510 31 view .LVU396
 1291 0160 ADF82830 		strh	r3, [sp, #40]	@ movhi
 511:Drivers/lvgl/src/widgets/lv_roller.c ****             label_sel_area.x2 = obj->coords.x2 - pright - bwidth;
 1292              		.loc 1 511 13 is_stmt 1 view .LVU397
 511:Drivers/lvgl/src/widgets/lv_roller.c ****             label_sel_area.x2 = obj->coords.x2 - pright - bwidth;
 1293              		.loc 1 511 31 is_stmt 0 view .LVU398
 1294 0164 22B2     		sxth	r2, r4
 1295 0166 ADF82A20 		strh	r2, [sp, #42]	@ movhi
 512:Drivers/lvgl/src/widgets/lv_roller.c ****             label_sel_area.y2 = label_sel_area.y1 + res_p.y;
 1296              		.loc 1 512 13 is_stmt 1 view .LVU399
 512:Drivers/lvgl/src/widgets/lv_roller.c ****             label_sel_area.y2 = label_sel_area.y1 + res_p.y;
 1297              		.loc 1 512 44 is_stmt 0 view .LVU400
 1298 016a 338B     		ldrh	r3, [r6, #24]
 512:Drivers/lvgl/src/widgets/lv_roller.c ****             label_sel_area.y2 = label_sel_area.y1 + res_p.y;
 1299              		.loc 1 512 48 view .LVU401
 1300 016c 181A     		subs	r0, r3, r0
 1301              	.LVL164:
 512:Drivers/lvgl/src/widgets/lv_roller.c ****             label_sel_area.y2 = label_sel_area.y1 + res_p.y;
 1302              		.loc 1 512 48 view .LVU402
 1303 016e 80B2     		uxth	r0, r0
 512:Drivers/lvgl/src/widgets/lv_roller.c ****             label_sel_area.y2 = label_sel_area.y1 + res_p.y;
ARM GAS  /var/folders/0z/tsy30v1j4xl4_7kw94k978ww0000gn/T//ccUX3GBc.s 			page 59


 1304              		.loc 1 512 57 view .LVU403
 1305 0170 401A     		subs	r0, r0, r1
 512:Drivers/lvgl/src/widgets/lv_roller.c ****             label_sel_area.y2 = label_sel_area.y1 + res_p.y;
 1306              		.loc 1 512 31 view .LVU404
 1307 0172 ADF82C00 		strh	r0, [sp, #44]	@ movhi
 513:Drivers/lvgl/src/widgets/lv_roller.c **** 
 1308              		.loc 1 513 13 is_stmt 1 view .LVU405
 513:Drivers/lvgl/src/widgets/lv_roller.c **** 
 1309              		.loc 1 513 58 is_stmt 0 view .LVU406
 1310 0176 BDF81630 		ldrh	r3, [sp, #22]
 513:Drivers/lvgl/src/widgets/lv_roller.c **** 
 1311              		.loc 1 513 51 view .LVU407
 1312 017a 13FA82F2 		uxtah	r2, r3, r2
 513:Drivers/lvgl/src/widgets/lv_roller.c **** 
 1313              		.loc 1 513 31 view .LVU408
 1314 017e ADF82E20 		strh	r2, [sp, #46]	@ movhi
 515:Drivers/lvgl/src/widgets/lv_roller.c ****             const lv_area_t * clip_area_ori = draw_ctx->clip_area;
 1315              		.loc 1 515 13 is_stmt 1 view .LVU409
 515:Drivers/lvgl/src/widgets/lv_roller.c ****             const lv_area_t * clip_area_ori = draw_ctx->clip_area;
 1316              		.loc 1 515 28 is_stmt 0 view .LVU410
 1317 0182 9DF84D30 		ldrb	r3, [sp, #77]	@ zero_extendqisi2
 1318 0186 43F00203 		orr	r3, r3, #2
 1319 018a 8DF84D30 		strb	r3, [sp, #77]
 516:Drivers/lvgl/src/widgets/lv_roller.c ****             draw_ctx->clip_area = &mask_sel;
 1320              		.loc 1 516 13 is_stmt 1 view .LVU411
 516:Drivers/lvgl/src/widgets/lv_roller.c ****             draw_ctx->clip_area = &mask_sel;
 1321              		.loc 1 516 31 is_stmt 0 view .LVU412
 1322 018e AC68     		ldr	r4, [r5, #8]
 1323              	.LVL165:
 517:Drivers/lvgl/src/widgets/lv_roller.c ****             lv_draw_label(draw_ctx, &label_dsc, &label_sel_area, lv_label_get_text(label), NULL);
 1324              		.loc 1 517 13 is_stmt 1 view .LVU413
 517:Drivers/lvgl/src/widgets/lv_roller.c ****             lv_draw_label(draw_ctx, &label_dsc, &label_sel_area, lv_label_get_text(label), NULL);
 1325              		.loc 1 517 33 is_stmt 0 view .LVU414
 1326 0190 08AB     		add	r3, sp, #32
 1327 0192 AB60     		str	r3, [r5, #8]
 518:Drivers/lvgl/src/widgets/lv_roller.c ****             draw_ctx->clip_area = clip_area_ori;
 1328              		.loc 1 518 13 is_stmt 1 view .LVU415
 518:Drivers/lvgl/src/widgets/lv_roller.c ****             draw_ctx->clip_area = clip_area_ori;
 1329              		.loc 1 518 66 is_stmt 0 view .LVU416
 1330 0194 3846     		mov	r0, r7
 1331 0196 FFF7FEFF 		bl	lv_label_get_text
 1332              	.LVL166:
 1333 019a 0346     		mov	r3, r0
 518:Drivers/lvgl/src/widgets/lv_roller.c ****             draw_ctx->clip_area = clip_area_ori;
 1334              		.loc 1 518 13 view .LVU417
 1335 019c 0022     		movs	r2, #0
 1336 019e 0092     		str	r2, [sp]
 1337 01a0 0AAA     		add	r2, sp, #40
 1338 01a2 0CA9     		add	r1, sp, #48
 1339 01a4 2846     		mov	r0, r5
 1340 01a6 FFF7FEFF 		bl	lv_draw_label
 1341              	.LVL167:
 519:Drivers/lvgl/src/widgets/lv_roller.c ****         }
 1342              		.loc 1 519 13 is_stmt 1 view .LVU418
 519:Drivers/lvgl/src/widgets/lv_roller.c ****         }
 1343              		.loc 1 519 33 is_stmt 0 view .LVU419
 1344 01aa AC60     		str	r4, [r5, #8]
ARM GAS  /var/folders/0z/tsy30v1j4xl4_7kw94k978ww0000gn/T//ccUX3GBc.s 			page 60


 1345              	.LBE118:
 1346              	.LBE117:
 522:Drivers/lvgl/src/widgets/lv_roller.c **** 
 1347              		.loc 1 522 1 view .LVU420
 1348 01ac 37E7     		b	.L33
 1349              		.cfi_endproc
 1350              	.LFE172:
 1352              		.section	.text.draw_label,"ax",%progbits
 1353              		.align	1
 1354              		.syntax unified
 1355              		.thumb
 1356              		.thumb_func
 1358              	draw_label:
 1359              	.LVL168:
 1360              	.LFB173:
 525:Drivers/lvgl/src/widgets/lv_roller.c ****     /* Split the drawing of the label into  an upper (above the selected area)
 1361              		.loc 1 525 1 is_stmt 1 view -0
 1362              		.cfi_startproc
 1363              		@ args = 0, pretend = 0, frame = 56
 1364              		@ frame_needed = 0, uses_anonymous_args = 0
 525:Drivers/lvgl/src/widgets/lv_roller.c ****     /* Split the drawing of the label into  an upper (above the selected area)
 1365              		.loc 1 525 1 is_stmt 0 view .LVU422
 1366 0000 2DE9F041 		push	{r4, r5, r6, r7, r8, lr}
 1367              		.cfi_def_cfa_offset 24
 1368              		.cfi_offset 4, -24
 1369              		.cfi_offset 5, -20
 1370              		.cfi_offset 6, -16
 1371              		.cfi_offset 7, -12
 1372              		.cfi_offset 8, -8
 1373              		.cfi_offset 14, -4
 1374 0004 90B0     		sub	sp, sp, #64
 1375              		.cfi_def_cfa_offset 88
 1376 0006 0546     		mov	r5, r0
 528:Drivers/lvgl/src/widgets/lv_roller.c ****     lv_obj_t * roller = lv_obj_get_parent(label_obj);
 1377              		.loc 1 528 5 is_stmt 1 view .LVU423
 528:Drivers/lvgl/src/widgets/lv_roller.c ****     lv_obj_t * roller = lv_obj_get_parent(label_obj);
 1378              		.loc 1 528 28 is_stmt 0 view .LVU424
 1379 0008 FFF7FEFF 		bl	lv_event_get_target
 1380              	.LVL169:
 528:Drivers/lvgl/src/widgets/lv_roller.c ****     lv_obj_t * roller = lv_obj_get_parent(label_obj);
 1381              		.loc 1 528 28 view .LVU425
 1382 000c 0446     		mov	r4, r0
 1383              	.LVL170:
 529:Drivers/lvgl/src/widgets/lv_roller.c ****     lv_draw_label_dsc_t label_draw_dsc;
 1384              		.loc 1 529 5 is_stmt 1 view .LVU426
 529:Drivers/lvgl/src/widgets/lv_roller.c ****     lv_draw_label_dsc_t label_draw_dsc;
 1385              		.loc 1 529 25 is_stmt 0 view .LVU427
 1386 000e FFF7FEFF 		bl	lv_obj_get_parent
 1387              	.LVL171:
 529:Drivers/lvgl/src/widgets/lv_roller.c ****     lv_draw_label_dsc_t label_draw_dsc;
 1388              		.loc 1 529 25 view .LVU428
 1389 0012 0646     		mov	r6, r0
 1390              	.LVL172:
 530:Drivers/lvgl/src/widgets/lv_roller.c ****     lv_draw_label_dsc_init(&label_draw_dsc);
 1391              		.loc 1 530 5 is_stmt 1 view .LVU429
 531:Drivers/lvgl/src/widgets/lv_roller.c ****     lv_obj_init_draw_label_dsc(roller, LV_PART_MAIN, &label_draw_dsc);
 1392              		.loc 1 531 5 view .LVU430
ARM GAS  /var/folders/0z/tsy30v1j4xl4_7kw94k978ww0000gn/T//ccUX3GBc.s 			page 61


 1393 0014 08A8     		add	r0, sp, #32
 1394              	.LVL173:
 531:Drivers/lvgl/src/widgets/lv_roller.c ****     lv_obj_init_draw_label_dsc(roller, LV_PART_MAIN, &label_draw_dsc);
 1395              		.loc 1 531 5 is_stmt 0 view .LVU431
 1396 0016 FFF7FEFF 		bl	lv_draw_label_dsc_init
 1397              	.LVL174:
 532:Drivers/lvgl/src/widgets/lv_roller.c ****     if(lv_label_get_recolor(label_obj)) label_draw_dsc.flag |= LV_TEXT_FLAG_RECOLOR;
 1398              		.loc 1 532 5 is_stmt 1 view .LVU432
 1399 001a 08AA     		add	r2, sp, #32
 1400 001c 0021     		movs	r1, #0
 1401 001e 3046     		mov	r0, r6
 1402 0020 FFF7FEFF 		bl	lv_obj_init_draw_label_dsc
 1403              	.LVL175:
 533:Drivers/lvgl/src/widgets/lv_roller.c **** 
 1404              		.loc 1 533 5 view .LVU433
 533:Drivers/lvgl/src/widgets/lv_roller.c **** 
 1405              		.loc 1 533 8 is_stmt 0 view .LVU434
 1406 0024 2046     		mov	r0, r4
 1407 0026 FFF7FEFF 		bl	lv_label_get_recolor
 1408              	.LVL176:
 533:Drivers/lvgl/src/widgets/lv_roller.c **** 
 1409              		.loc 1 533 7 view .LVU435
 1410 002a 28B1     		cbz	r0, .L42
 533:Drivers/lvgl/src/widgets/lv_roller.c **** 
 1411              		.loc 1 533 41 is_stmt 1 discriminator 1 view .LVU436
 533:Drivers/lvgl/src/widgets/lv_roller.c **** 
 1412              		.loc 1 533 61 is_stmt 0 discriminator 1 view .LVU437
 1413 002c 9DF83D30 		ldrb	r3, [sp, #61]	@ zero_extendqisi2
 1414 0030 43F00103 		orr	r3, r3, #1
 1415 0034 8DF83D30 		strb	r3, [sp, #61]
 1416              	.L42:
 535:Drivers/lvgl/src/widgets/lv_roller.c **** 
 1417              		.loc 1 535 5 is_stmt 1 view .LVU438
 535:Drivers/lvgl/src/widgets/lv_roller.c **** 
 1418              		.loc 1 535 32 is_stmt 0 view .LVU439
 1419 0038 2846     		mov	r0, r5
 1420 003a FFF7FEFF 		bl	lv_event_get_draw_ctx
 1421              	.LVL177:
 1422 003e 0546     		mov	r5, r0
 1423              	.LVL178:
 540:Drivers/lvgl/src/widgets/lv_roller.c ****     lv_area_t roller_clip_area;
 1424              		.loc 1 540 5 is_stmt 1 view .LVU440
 540:Drivers/lvgl/src/widgets/lv_roller.c ****     lv_area_t roller_clip_area;
 1425              		.loc 1 540 23 is_stmt 0 view .LVU441
 1426 0040 8768     		ldr	r7, [r0, #8]
 1427              	.LVL179:
 541:Drivers/lvgl/src/widgets/lv_roller.c ****     if(!_lv_area_intersect(&roller_clip_area, draw_ctx->clip_area, &roller->coords)) return;
 1428              		.loc 1 541 5 is_stmt 1 view .LVU442
 542:Drivers/lvgl/src/widgets/lv_roller.c ****     draw_ctx->clip_area = &roller_clip_area;
 1429              		.loc 1 542 5 view .LVU443
 542:Drivers/lvgl/src/widgets/lv_roller.c ****     draw_ctx->clip_area = &roller_clip_area;
 1430              		.loc 1 542 9 is_stmt 0 view .LVU444
 1431 0042 06F11402 		add	r2, r6, #20
 1432 0046 3946     		mov	r1, r7
 1433 0048 06A8     		add	r0, sp, #24
 1434              	.LVL180:
 542:Drivers/lvgl/src/widgets/lv_roller.c ****     draw_ctx->clip_area = &roller_clip_area;
ARM GAS  /var/folders/0z/tsy30v1j4xl4_7kw94k978ww0000gn/T//ccUX3GBc.s 			page 62


 1435              		.loc 1 542 9 view .LVU445
 1436 004a FFF7FEFF 		bl	_lv_area_intersect
 1437              	.LVL181:
 542:Drivers/lvgl/src/widgets/lv_roller.c ****     draw_ctx->clip_area = &roller_clip_area;
 1438              		.loc 1 542 7 view .LVU446
 1439 004e 10B9     		cbnz	r0, .L48
 1440              	.LVL182:
 1441              	.L41:
 572:Drivers/lvgl/src/widgets/lv_roller.c **** 
 1442              		.loc 1 572 1 view .LVU447
 1443 0050 10B0     		add	sp, sp, #64
 1444              		.cfi_remember_state
 1445              		.cfi_def_cfa_offset 24
 1446              		@ sp needed
 1447 0052 BDE8F081 		pop	{r4, r5, r6, r7, r8, pc}
 1448              	.LVL183:
 1449              	.L48:
 1450              		.cfi_restore_state
 543:Drivers/lvgl/src/widgets/lv_roller.c **** 
 1451              		.loc 1 543 5 is_stmt 1 view .LVU448
 543:Drivers/lvgl/src/widgets/lv_roller.c **** 
 1452              		.loc 1 543 25 is_stmt 0 view .LVU449
 1453 0056 06AB     		add	r3, sp, #24
 1454 0058 AB60     		str	r3, [r5, #8]
 545:Drivers/lvgl/src/widgets/lv_roller.c ****     get_sel_area(roller, &sel_area);
 1455              		.loc 1 545 5 is_stmt 1 view .LVU450
 546:Drivers/lvgl/src/widgets/lv_roller.c **** 
 1456              		.loc 1 546 5 view .LVU451
 1457 005a 04A9     		add	r1, sp, #16
 1458 005c 3046     		mov	r0, r6
 1459 005e FFF7FEFF 		bl	get_sel_area
 1460              	.LVL184:
 548:Drivers/lvgl/src/widgets/lv_roller.c ****     clip2.x1 = label_obj->coords.x1;
 1461              		.loc 1 548 5 view .LVU452
 549:Drivers/lvgl/src/widgets/lv_roller.c ****     clip2.y1 = label_obj->coords.y1;
 1462              		.loc 1 549 5 view .LVU453
 549:Drivers/lvgl/src/widgets/lv_roller.c ****     clip2.y1 = label_obj->coords.y1;
 1463              		.loc 1 549 33 is_stmt 0 view .LVU454
 1464 0062 B4F91430 		ldrsh	r3, [r4, #20]
 549:Drivers/lvgl/src/widgets/lv_roller.c ****     clip2.y1 = label_obj->coords.y1;
 1465              		.loc 1 549 14 view .LVU455
 1466 0066 ADF80830 		strh	r3, [sp, #8]	@ movhi
 550:Drivers/lvgl/src/widgets/lv_roller.c ****     clip2.x2 = label_obj->coords.x2;
 1467              		.loc 1 550 5 is_stmt 1 view .LVU456
 550:Drivers/lvgl/src/widgets/lv_roller.c ****     clip2.x2 = label_obj->coords.x2;
 1468              		.loc 1 550 33 is_stmt 0 view .LVU457
 1469 006a B4F91630 		ldrsh	r3, [r4, #22]
 550:Drivers/lvgl/src/widgets/lv_roller.c ****     clip2.x2 = label_obj->coords.x2;
 1470              		.loc 1 550 14 view .LVU458
 1471 006e ADF80A30 		strh	r3, [sp, #10]	@ movhi
 551:Drivers/lvgl/src/widgets/lv_roller.c ****     clip2.y2 = sel_area.y1;
 1472              		.loc 1 551 5 is_stmt 1 view .LVU459
 551:Drivers/lvgl/src/widgets/lv_roller.c ****     clip2.y2 = sel_area.y1;
 1473              		.loc 1 551 33 is_stmt 0 view .LVU460
 1474 0072 B4F91830 		ldrsh	r3, [r4, #24]
 551:Drivers/lvgl/src/widgets/lv_roller.c ****     clip2.y2 = sel_area.y1;
 1475              		.loc 1 551 14 view .LVU461
ARM GAS  /var/folders/0z/tsy30v1j4xl4_7kw94k978ww0000gn/T//ccUX3GBc.s 			page 63


 1476 0076 ADF80C30 		strh	r3, [sp, #12]	@ movhi
 552:Drivers/lvgl/src/widgets/lv_roller.c ****     if(_lv_area_intersect(&clip2, draw_ctx->clip_area, &clip2)) {
 1477              		.loc 1 552 5 is_stmt 1 view .LVU462
 552:Drivers/lvgl/src/widgets/lv_roller.c ****     if(_lv_area_intersect(&clip2, draw_ctx->clip_area, &clip2)) {
 1478              		.loc 1 552 24 is_stmt 0 view .LVU463
 1479 007a BDF91230 		ldrsh	r3, [sp, #18]
 552:Drivers/lvgl/src/widgets/lv_roller.c ****     if(_lv_area_intersect(&clip2, draw_ctx->clip_area, &clip2)) {
 1480              		.loc 1 552 14 view .LVU464
 1481 007e ADF80E30 		strh	r3, [sp, #14]	@ movhi
