ARM GAS  /var/folders/0z/tsy30v1j4xl4_7kw94k978ww0000gn/T//ccRTPM70.s 			page 1


   1              		.cpu cortex-m4
   2              		.arch armv7e-m
   3              		.fpu fpv4-sp-d16
   4              		.eabi_attribute 27, 1
   5              		.eabi_attribute 28, 1
   6              		.eabi_attribute 20, 1
   7              		.eabi_attribute 21, 1
   8              		.eabi_attribute 23, 3
   9              		.eabi_attribute 24, 1
  10              		.eabi_attribute 25, 1
  11              		.eabi_attribute 26, 1
  12              		.eabi_attribute 30, 1
  13              		.eabi_attribute 34, 1
  14              		.eabi_attribute 18, 4
  15              		.file	"lv_refr.c"
  16              		.text
  17              	.Ltext0:
  18              		.cfi_sections	.debug_frame
  19              		.section	.text.get_max_row,"ax",%progbits
  20              		.align	1
  21              		.syntax unified
  22              		.thumb
  23              		.thumb_func
  25              	get_max_row:
  26              	.LVL0:
  27              	.LFB186:
  28              		.file 1 "Drivers/lvgl/src/core/lv_refr.c"
   1:Drivers/lvgl/src/core/lv_refr.c **** /**
   2:Drivers/lvgl/src/core/lv_refr.c ****  * @file lv_refr.c
   3:Drivers/lvgl/src/core/lv_refr.c ****  *
   4:Drivers/lvgl/src/core/lv_refr.c ****  */
   5:Drivers/lvgl/src/core/lv_refr.c **** 
   6:Drivers/lvgl/src/core/lv_refr.c **** /*********************
   7:Drivers/lvgl/src/core/lv_refr.c ****  *      INCLUDES
   8:Drivers/lvgl/src/core/lv_refr.c ****  *********************/
   9:Drivers/lvgl/src/core/lv_refr.c **** #include <stddef.h>
  10:Drivers/lvgl/src/core/lv_refr.c **** #include "lv_refr.h"
  11:Drivers/lvgl/src/core/lv_refr.c **** #include "lv_disp.h"
  12:Drivers/lvgl/src/core/lv_refr.c **** #include "../hal/lv_hal_tick.h"
  13:Drivers/lvgl/src/core/lv_refr.c **** #include "../hal/lv_hal_disp.h"
  14:Drivers/lvgl/src/core/lv_refr.c **** #include "../misc/lv_timer.h"
  15:Drivers/lvgl/src/core/lv_refr.c **** #include "../misc/lv_mem.h"
  16:Drivers/lvgl/src/core/lv_refr.c **** #include "../misc/lv_math.h"
  17:Drivers/lvgl/src/core/lv_refr.c **** #include "../misc/lv_gc.h"
  18:Drivers/lvgl/src/core/lv_refr.c **** #include "../draw/lv_draw.h"
  19:Drivers/lvgl/src/core/lv_refr.c **** #include "../font/lv_font_fmt_txt.h"
  20:Drivers/lvgl/src/core/lv_refr.c **** #include "../extra/others/snapshot/lv_snapshot.h"
  21:Drivers/lvgl/src/core/lv_refr.c **** 
  22:Drivers/lvgl/src/core/lv_refr.c **** #if LV_USE_PERF_MONITOR || LV_USE_MEM_MONITOR
  23:Drivers/lvgl/src/core/lv_refr.c ****     #include "../widgets/lv_label.h"
  24:Drivers/lvgl/src/core/lv_refr.c **** #endif
  25:Drivers/lvgl/src/core/lv_refr.c **** 
  26:Drivers/lvgl/src/core/lv_refr.c **** /*********************
  27:Drivers/lvgl/src/core/lv_refr.c ****  *      DEFINES
  28:Drivers/lvgl/src/core/lv_refr.c ****  *********************/
  29:Drivers/lvgl/src/core/lv_refr.c **** 
  30:Drivers/lvgl/src/core/lv_refr.c **** /**********************
ARM GAS  /var/folders/0z/tsy30v1j4xl4_7kw94k978ww0000gn/T//ccRTPM70.s 			page 2


  31:Drivers/lvgl/src/core/lv_refr.c ****  *      TYPEDEFS
  32:Drivers/lvgl/src/core/lv_refr.c ****  **********************/
  33:Drivers/lvgl/src/core/lv_refr.c **** typedef struct {
  34:Drivers/lvgl/src/core/lv_refr.c ****     uint32_t    perf_last_time;
  35:Drivers/lvgl/src/core/lv_refr.c ****     uint32_t    elaps_sum;
  36:Drivers/lvgl/src/core/lv_refr.c ****     uint32_t    frame_cnt;
  37:Drivers/lvgl/src/core/lv_refr.c ****     uint32_t    fps_sum_cnt;
  38:Drivers/lvgl/src/core/lv_refr.c ****     uint32_t    fps_sum_all;
  39:Drivers/lvgl/src/core/lv_refr.c **** #if LV_USE_LABEL
  40:Drivers/lvgl/src/core/lv_refr.c ****     lv_obj_t  * perf_label;
  41:Drivers/lvgl/src/core/lv_refr.c **** #endif
  42:Drivers/lvgl/src/core/lv_refr.c **** } perf_monitor_t;
  43:Drivers/lvgl/src/core/lv_refr.c **** 
  44:Drivers/lvgl/src/core/lv_refr.c **** typedef struct {
  45:Drivers/lvgl/src/core/lv_refr.c ****     uint32_t     mem_last_time;
  46:Drivers/lvgl/src/core/lv_refr.c **** #if LV_USE_LABEL
  47:Drivers/lvgl/src/core/lv_refr.c ****     lv_obj_t  *  mem_label;
  48:Drivers/lvgl/src/core/lv_refr.c **** #endif
  49:Drivers/lvgl/src/core/lv_refr.c **** } mem_monitor_t;
  50:Drivers/lvgl/src/core/lv_refr.c **** 
  51:Drivers/lvgl/src/core/lv_refr.c **** /**********************
  52:Drivers/lvgl/src/core/lv_refr.c ****  *  STATIC PROTOTYPES
  53:Drivers/lvgl/src/core/lv_refr.c ****  **********************/
  54:Drivers/lvgl/src/core/lv_refr.c **** static void lv_refr_join_area(void);
  55:Drivers/lvgl/src/core/lv_refr.c **** static void refr_invalid_areas(void);
  56:Drivers/lvgl/src/core/lv_refr.c **** static void refr_sync_areas(void);
  57:Drivers/lvgl/src/core/lv_refr.c **** static void refr_area(const lv_area_t * area_p);
  58:Drivers/lvgl/src/core/lv_refr.c **** static void refr_area_part(lv_draw_ctx_t * draw_ctx);
  59:Drivers/lvgl/src/core/lv_refr.c **** static lv_obj_t * lv_refr_get_top_obj(const lv_area_t * area_p, lv_obj_t * obj);
  60:Drivers/lvgl/src/core/lv_refr.c **** static void refr_obj_and_children(lv_draw_ctx_t * draw_ctx, lv_obj_t * top_obj);
  61:Drivers/lvgl/src/core/lv_refr.c **** static void refr_obj(lv_draw_ctx_t * draw_ctx, lv_obj_t * obj);
  62:Drivers/lvgl/src/core/lv_refr.c **** static uint32_t get_max_row(lv_disp_t * disp, lv_coord_t area_w, lv_coord_t area_h);
  63:Drivers/lvgl/src/core/lv_refr.c **** static void draw_buf_flush(lv_disp_t * disp);
  64:Drivers/lvgl/src/core/lv_refr.c **** static void call_flush_cb(lv_disp_drv_t * drv, const lv_area_t * area, lv_color_t * color_p);
  65:Drivers/lvgl/src/core/lv_refr.c **** 
  66:Drivers/lvgl/src/core/lv_refr.c **** #if LV_USE_PERF_MONITOR
  67:Drivers/lvgl/src/core/lv_refr.c ****     static void perf_monitor_init(perf_monitor_t * perf_monitor);
  68:Drivers/lvgl/src/core/lv_refr.c **** #endif
  69:Drivers/lvgl/src/core/lv_refr.c **** #if LV_USE_MEM_MONITOR
  70:Drivers/lvgl/src/core/lv_refr.c ****     static void mem_monitor_init(mem_monitor_t * mem_monitor);
  71:Drivers/lvgl/src/core/lv_refr.c **** #endif
  72:Drivers/lvgl/src/core/lv_refr.c **** 
  73:Drivers/lvgl/src/core/lv_refr.c **** /**********************
  74:Drivers/lvgl/src/core/lv_refr.c ****  *  STATIC VARIABLES
  75:Drivers/lvgl/src/core/lv_refr.c ****  **********************/
  76:Drivers/lvgl/src/core/lv_refr.c **** static uint32_t px_num;
  77:Drivers/lvgl/src/core/lv_refr.c **** static lv_disp_t * disp_refr; /*Display being refreshed*/
  78:Drivers/lvgl/src/core/lv_refr.c **** 
  79:Drivers/lvgl/src/core/lv_refr.c **** #if LV_USE_PERF_MONITOR
  80:Drivers/lvgl/src/core/lv_refr.c ****     static perf_monitor_t   perf_monitor;
  81:Drivers/lvgl/src/core/lv_refr.c **** #endif
  82:Drivers/lvgl/src/core/lv_refr.c **** 
  83:Drivers/lvgl/src/core/lv_refr.c **** #if LV_USE_MEM_MONITOR
  84:Drivers/lvgl/src/core/lv_refr.c ****     static mem_monitor_t    mem_monitor;
  85:Drivers/lvgl/src/core/lv_refr.c **** #endif
  86:Drivers/lvgl/src/core/lv_refr.c **** 
  87:Drivers/lvgl/src/core/lv_refr.c **** /**********************
ARM GAS  /var/folders/0z/tsy30v1j4xl4_7kw94k978ww0000gn/T//ccRTPM70.s 			page 3


  88:Drivers/lvgl/src/core/lv_refr.c ****  *      MACROS
  89:Drivers/lvgl/src/core/lv_refr.c ****  **********************/
  90:Drivers/lvgl/src/core/lv_refr.c **** #if LV_LOG_TRACE_DISP_REFR
  91:Drivers/lvgl/src/core/lv_refr.c ****     #define REFR_TRACE(...) LV_LOG_TRACE(__VA_ARGS__)
  92:Drivers/lvgl/src/core/lv_refr.c **** #else
  93:Drivers/lvgl/src/core/lv_refr.c ****     #define REFR_TRACE(...)
  94:Drivers/lvgl/src/core/lv_refr.c **** #endif
  95:Drivers/lvgl/src/core/lv_refr.c **** 
  96:Drivers/lvgl/src/core/lv_refr.c **** /**********************
  97:Drivers/lvgl/src/core/lv_refr.c ****  *   GLOBAL FUNCTIONS
  98:Drivers/lvgl/src/core/lv_refr.c ****  **********************/
  99:Drivers/lvgl/src/core/lv_refr.c **** 
 100:Drivers/lvgl/src/core/lv_refr.c **** /**
 101:Drivers/lvgl/src/core/lv_refr.c ****  * Initialize the screen refresh subsystem
 102:Drivers/lvgl/src/core/lv_refr.c ****  */
 103:Drivers/lvgl/src/core/lv_refr.c **** void _lv_refr_init(void)
 104:Drivers/lvgl/src/core/lv_refr.c **** {
 105:Drivers/lvgl/src/core/lv_refr.c **** #if LV_USE_PERF_MONITOR
 106:Drivers/lvgl/src/core/lv_refr.c ****     perf_monitor_init(&perf_monitor);
 107:Drivers/lvgl/src/core/lv_refr.c **** #endif
 108:Drivers/lvgl/src/core/lv_refr.c **** #if LV_USE_MEM_MONITOR
 109:Drivers/lvgl/src/core/lv_refr.c ****     mem_monitor_init(&mem_monitor);
 110:Drivers/lvgl/src/core/lv_refr.c **** #endif
 111:Drivers/lvgl/src/core/lv_refr.c **** }
 112:Drivers/lvgl/src/core/lv_refr.c **** 
 113:Drivers/lvgl/src/core/lv_refr.c **** void lv_refr_now(lv_disp_t * disp)
 114:Drivers/lvgl/src/core/lv_refr.c **** {
 115:Drivers/lvgl/src/core/lv_refr.c ****     lv_anim_refr_now();
 116:Drivers/lvgl/src/core/lv_refr.c **** 
 117:Drivers/lvgl/src/core/lv_refr.c ****     if(disp) {
 118:Drivers/lvgl/src/core/lv_refr.c ****         if(disp->refr_timer) _lv_disp_refr_timer(disp->refr_timer);
 119:Drivers/lvgl/src/core/lv_refr.c ****     }
 120:Drivers/lvgl/src/core/lv_refr.c ****     else {
 121:Drivers/lvgl/src/core/lv_refr.c ****         lv_disp_t * d;
 122:Drivers/lvgl/src/core/lv_refr.c ****         d = lv_disp_get_next(NULL);
 123:Drivers/lvgl/src/core/lv_refr.c ****         while(d) {
 124:Drivers/lvgl/src/core/lv_refr.c ****             if(d->refr_timer) _lv_disp_refr_timer(d->refr_timer);
 125:Drivers/lvgl/src/core/lv_refr.c ****             d = lv_disp_get_next(d);
 126:Drivers/lvgl/src/core/lv_refr.c ****         }
 127:Drivers/lvgl/src/core/lv_refr.c ****     }
 128:Drivers/lvgl/src/core/lv_refr.c **** }
 129:Drivers/lvgl/src/core/lv_refr.c **** 
 130:Drivers/lvgl/src/core/lv_refr.c **** void lv_obj_redraw(lv_draw_ctx_t * draw_ctx, lv_obj_t * obj)
 131:Drivers/lvgl/src/core/lv_refr.c **** {
 132:Drivers/lvgl/src/core/lv_refr.c ****     const lv_area_t * clip_area_ori = draw_ctx->clip_area;
 133:Drivers/lvgl/src/core/lv_refr.c ****     lv_area_t clip_coords_for_obj;
 134:Drivers/lvgl/src/core/lv_refr.c **** 
 135:Drivers/lvgl/src/core/lv_refr.c ****     /*Truncate the clip area to `obj size + ext size` area*/
 136:Drivers/lvgl/src/core/lv_refr.c ****     lv_area_t obj_coords_ext;
 137:Drivers/lvgl/src/core/lv_refr.c ****     lv_obj_get_coords(obj, &obj_coords_ext);
 138:Drivers/lvgl/src/core/lv_refr.c ****     lv_coord_t ext_draw_size = _lv_obj_get_ext_draw_size(obj);
 139:Drivers/lvgl/src/core/lv_refr.c ****     lv_area_increase(&obj_coords_ext, ext_draw_size, ext_draw_size);
 140:Drivers/lvgl/src/core/lv_refr.c ****     bool com_clip_res = _lv_area_intersect(&clip_coords_for_obj, clip_area_ori, &obj_coords_ext);
 141:Drivers/lvgl/src/core/lv_refr.c ****     /*If the object is visible on the current clip area OR has overflow visible draw it.
 142:Drivers/lvgl/src/core/lv_refr.c ****      *With overflow visible drawing should happen to apply the masks which might affect children */
 143:Drivers/lvgl/src/core/lv_refr.c ****     bool should_draw = com_clip_res || lv_obj_has_flag(obj, LV_OBJ_FLAG_OVERFLOW_VISIBLE);
 144:Drivers/lvgl/src/core/lv_refr.c ****     if(should_draw) {
ARM GAS  /var/folders/0z/tsy30v1j4xl4_7kw94k978ww0000gn/T//ccRTPM70.s 			page 4


 145:Drivers/lvgl/src/core/lv_refr.c ****         draw_ctx->clip_area = &clip_coords_for_obj;
 146:Drivers/lvgl/src/core/lv_refr.c **** 
 147:Drivers/lvgl/src/core/lv_refr.c ****         lv_event_send(obj, LV_EVENT_DRAW_MAIN_BEGIN, draw_ctx);
 148:Drivers/lvgl/src/core/lv_refr.c ****         lv_event_send(obj, LV_EVENT_DRAW_MAIN, draw_ctx);
 149:Drivers/lvgl/src/core/lv_refr.c ****         lv_event_send(obj, LV_EVENT_DRAW_MAIN_END, draw_ctx);
 150:Drivers/lvgl/src/core/lv_refr.c **** #if LV_USE_REFR_DEBUG
 151:Drivers/lvgl/src/core/lv_refr.c ****         lv_color_t debug_color = lv_color_make(lv_rand(0, 0xFF), lv_rand(0, 0xFF), lv_rand(0, 0xFF)
 152:Drivers/lvgl/src/core/lv_refr.c ****         lv_draw_rect_dsc_t draw_dsc;
 153:Drivers/lvgl/src/core/lv_refr.c ****         lv_draw_rect_dsc_init(&draw_dsc);
 154:Drivers/lvgl/src/core/lv_refr.c ****         draw_dsc.bg_color.full = debug_color.full;
 155:Drivers/lvgl/src/core/lv_refr.c ****         draw_dsc.bg_opa = LV_OPA_20;
 156:Drivers/lvgl/src/core/lv_refr.c ****         draw_dsc.border_width = 1;
 157:Drivers/lvgl/src/core/lv_refr.c ****         draw_dsc.border_opa = LV_OPA_30;
 158:Drivers/lvgl/src/core/lv_refr.c ****         draw_dsc.border_color = debug_color;
 159:Drivers/lvgl/src/core/lv_refr.c ****         lv_draw_rect(draw_ctx, &draw_dsc, &obj_coords_ext);
 160:Drivers/lvgl/src/core/lv_refr.c **** #endif
 161:Drivers/lvgl/src/core/lv_refr.c ****     }
 162:Drivers/lvgl/src/core/lv_refr.c **** 
 163:Drivers/lvgl/src/core/lv_refr.c ****     /*With overflow visible keep the previous clip area to let the children visible out of this obj
 164:Drivers/lvgl/src/core/lv_refr.c ****      *With not overflow visible limit the clip are to the object's coordinates to clip the children
 165:Drivers/lvgl/src/core/lv_refr.c ****     lv_area_t clip_coords_for_children;
 166:Drivers/lvgl/src/core/lv_refr.c ****     bool refr_children = true;
 167:Drivers/lvgl/src/core/lv_refr.c ****     if(lv_obj_has_flag(obj, LV_OBJ_FLAG_OVERFLOW_VISIBLE)) {
 168:Drivers/lvgl/src/core/lv_refr.c ****         clip_coords_for_children  = *clip_area_ori;
 169:Drivers/lvgl/src/core/lv_refr.c ****     }
 170:Drivers/lvgl/src/core/lv_refr.c ****     else {
 171:Drivers/lvgl/src/core/lv_refr.c ****         if(!_lv_area_intersect(&clip_coords_for_children, clip_area_ori, &obj->coords)) {
 172:Drivers/lvgl/src/core/lv_refr.c ****             refr_children = false;
 173:Drivers/lvgl/src/core/lv_refr.c ****         }
 174:Drivers/lvgl/src/core/lv_refr.c ****     }
 175:Drivers/lvgl/src/core/lv_refr.c **** 
 176:Drivers/lvgl/src/core/lv_refr.c ****     if(refr_children) {
 177:Drivers/lvgl/src/core/lv_refr.c ****         draw_ctx->clip_area = &clip_coords_for_children;
 178:Drivers/lvgl/src/core/lv_refr.c ****         uint32_t i;
 179:Drivers/lvgl/src/core/lv_refr.c ****         uint32_t child_cnt = lv_obj_get_child_cnt(obj);
 180:Drivers/lvgl/src/core/lv_refr.c ****         for(i = 0; i < child_cnt; i++) {
 181:Drivers/lvgl/src/core/lv_refr.c ****             lv_obj_t * child = obj->spec_attr->children[i];
 182:Drivers/lvgl/src/core/lv_refr.c ****             refr_obj(draw_ctx, child);
 183:Drivers/lvgl/src/core/lv_refr.c ****         }
 184:Drivers/lvgl/src/core/lv_refr.c ****     }
 185:Drivers/lvgl/src/core/lv_refr.c **** 
 186:Drivers/lvgl/src/core/lv_refr.c ****     /*If the object was visible on the clip area call the post draw events too*/
 187:Drivers/lvgl/src/core/lv_refr.c ****     if(should_draw) {
 188:Drivers/lvgl/src/core/lv_refr.c ****         draw_ctx->clip_area = &clip_coords_for_obj;
 189:Drivers/lvgl/src/core/lv_refr.c **** 
 190:Drivers/lvgl/src/core/lv_refr.c ****         /*If all the children are redrawn make 'post draw' draw*/
 191:Drivers/lvgl/src/core/lv_refr.c ****         lv_event_send(obj, LV_EVENT_DRAW_POST_BEGIN, draw_ctx);
 192:Drivers/lvgl/src/core/lv_refr.c ****         lv_event_send(obj, LV_EVENT_DRAW_POST, draw_ctx);
 193:Drivers/lvgl/src/core/lv_refr.c ****         lv_event_send(obj, LV_EVENT_DRAW_POST_END, draw_ctx);
 194:Drivers/lvgl/src/core/lv_refr.c ****     }
 195:Drivers/lvgl/src/core/lv_refr.c **** 
 196:Drivers/lvgl/src/core/lv_refr.c ****     draw_ctx->clip_area = clip_area_ori;
 197:Drivers/lvgl/src/core/lv_refr.c **** }
 198:Drivers/lvgl/src/core/lv_refr.c **** 
 199:Drivers/lvgl/src/core/lv_refr.c **** 
 200:Drivers/lvgl/src/core/lv_refr.c **** /**
 201:Drivers/lvgl/src/core/lv_refr.c ****  * Invalidate an area on display to redraw it
ARM GAS  /var/folders/0z/tsy30v1j4xl4_7kw94k978ww0000gn/T//ccRTPM70.s 			page 5


 202:Drivers/lvgl/src/core/lv_refr.c ****  * @param area_p pointer to area which should be invalidated (NULL: delete the invalidated areas)
 203:Drivers/lvgl/src/core/lv_refr.c ****  * @param disp pointer to display where the area should be invalidated (NULL can be used if there i
 204:Drivers/lvgl/src/core/lv_refr.c ****  * only one display)
 205:Drivers/lvgl/src/core/lv_refr.c ****  */
 206:Drivers/lvgl/src/core/lv_refr.c **** void _lv_inv_area(lv_disp_t * disp, const lv_area_t * area_p)
 207:Drivers/lvgl/src/core/lv_refr.c **** {
 208:Drivers/lvgl/src/core/lv_refr.c ****     if(!disp) disp = lv_disp_get_default();
 209:Drivers/lvgl/src/core/lv_refr.c ****     if(!disp) return;
 210:Drivers/lvgl/src/core/lv_refr.c ****     if(!lv_disp_is_invalidation_enabled(disp)) return;
 211:Drivers/lvgl/src/core/lv_refr.c **** 
 212:Drivers/lvgl/src/core/lv_refr.c ****     if(disp->rendering_in_progress) {
 213:Drivers/lvgl/src/core/lv_refr.c ****         LV_LOG_ERROR("detected modifying dirty areas in render");
 214:Drivers/lvgl/src/core/lv_refr.c ****         return;
 215:Drivers/lvgl/src/core/lv_refr.c ****     }
 216:Drivers/lvgl/src/core/lv_refr.c **** 
 217:Drivers/lvgl/src/core/lv_refr.c ****     /*Clear the invalidate buffer if the parameter is NULL*/
 218:Drivers/lvgl/src/core/lv_refr.c ****     if(area_p == NULL) {
 219:Drivers/lvgl/src/core/lv_refr.c ****         disp->inv_p = 0;
 220:Drivers/lvgl/src/core/lv_refr.c ****         return;
 221:Drivers/lvgl/src/core/lv_refr.c ****     }
 222:Drivers/lvgl/src/core/lv_refr.c **** 
 223:Drivers/lvgl/src/core/lv_refr.c ****     lv_area_t scr_area;
 224:Drivers/lvgl/src/core/lv_refr.c ****     scr_area.x1 = 0;
 225:Drivers/lvgl/src/core/lv_refr.c ****     scr_area.y1 = 0;
 226:Drivers/lvgl/src/core/lv_refr.c ****     scr_area.x2 = lv_disp_get_hor_res(disp) - 1;
 227:Drivers/lvgl/src/core/lv_refr.c ****     scr_area.y2 = lv_disp_get_ver_res(disp) - 1;
 228:Drivers/lvgl/src/core/lv_refr.c **** 
 229:Drivers/lvgl/src/core/lv_refr.c ****     lv_area_t com_area;
 230:Drivers/lvgl/src/core/lv_refr.c ****     bool suc;
 231:Drivers/lvgl/src/core/lv_refr.c **** 
 232:Drivers/lvgl/src/core/lv_refr.c ****     suc = _lv_area_intersect(&com_area, area_p, &scr_area);
 233:Drivers/lvgl/src/core/lv_refr.c ****     if(suc == false)  return; /*Out of the screen*/
 234:Drivers/lvgl/src/core/lv_refr.c **** 
 235:Drivers/lvgl/src/core/lv_refr.c ****     /*If there were at least 1 invalid area in full refresh mode, redraw the whole screen*/
 236:Drivers/lvgl/src/core/lv_refr.c ****     if(disp->driver->full_refresh) {
 237:Drivers/lvgl/src/core/lv_refr.c ****         disp->inv_areas[0] = scr_area;
 238:Drivers/lvgl/src/core/lv_refr.c ****         disp->inv_p = 1;
 239:Drivers/lvgl/src/core/lv_refr.c ****         if(disp->refr_timer) lv_timer_resume(disp->refr_timer);
 240:Drivers/lvgl/src/core/lv_refr.c ****         return;
 241:Drivers/lvgl/src/core/lv_refr.c ****     }
 242:Drivers/lvgl/src/core/lv_refr.c **** 
 243:Drivers/lvgl/src/core/lv_refr.c ****     if(disp->driver->rounder_cb) disp->driver->rounder_cb(disp->driver, &com_area);
 244:Drivers/lvgl/src/core/lv_refr.c **** 
 245:Drivers/lvgl/src/core/lv_refr.c ****     /*Save only if this area is not in one of the saved areas*/
 246:Drivers/lvgl/src/core/lv_refr.c ****     uint16_t i;
 247:Drivers/lvgl/src/core/lv_refr.c ****     for(i = 0; i < disp->inv_p; i++) {
 248:Drivers/lvgl/src/core/lv_refr.c ****         if(_lv_area_is_in(&com_area, &disp->inv_areas[i], 0) != false) return;
 249:Drivers/lvgl/src/core/lv_refr.c ****     }
 250:Drivers/lvgl/src/core/lv_refr.c **** 
 251:Drivers/lvgl/src/core/lv_refr.c ****     /*Save the area*/
 252:Drivers/lvgl/src/core/lv_refr.c ****     if(disp->inv_p < LV_INV_BUF_SIZE) {
 253:Drivers/lvgl/src/core/lv_refr.c ****         lv_area_copy(&disp->inv_areas[disp->inv_p], &com_area);
 254:Drivers/lvgl/src/core/lv_refr.c ****     }
 255:Drivers/lvgl/src/core/lv_refr.c ****     else {   /*If no place for the area add the screen*/
 256:Drivers/lvgl/src/core/lv_refr.c ****         disp->inv_p = 0;
 257:Drivers/lvgl/src/core/lv_refr.c ****         lv_area_copy(&disp->inv_areas[disp->inv_p], &scr_area);
 258:Drivers/lvgl/src/core/lv_refr.c ****     }
ARM GAS  /var/folders/0z/tsy30v1j4xl4_7kw94k978ww0000gn/T//ccRTPM70.s 			page 6


 259:Drivers/lvgl/src/core/lv_refr.c ****     disp->inv_p++;
 260:Drivers/lvgl/src/core/lv_refr.c ****     if(disp->refr_timer) lv_timer_resume(disp->refr_timer);
 261:Drivers/lvgl/src/core/lv_refr.c **** }
 262:Drivers/lvgl/src/core/lv_refr.c **** 
 263:Drivers/lvgl/src/core/lv_refr.c **** /**
 264:Drivers/lvgl/src/core/lv_refr.c ****  * Get the display which is being refreshed
 265:Drivers/lvgl/src/core/lv_refr.c ****  * @return the display being refreshed
 266:Drivers/lvgl/src/core/lv_refr.c ****  */
 267:Drivers/lvgl/src/core/lv_refr.c **** lv_disp_t * _lv_refr_get_disp_refreshing(void)
 268:Drivers/lvgl/src/core/lv_refr.c **** {
 269:Drivers/lvgl/src/core/lv_refr.c ****     return disp_refr;
 270:Drivers/lvgl/src/core/lv_refr.c **** }
 271:Drivers/lvgl/src/core/lv_refr.c **** 
 272:Drivers/lvgl/src/core/lv_refr.c **** /**
 273:Drivers/lvgl/src/core/lv_refr.c ****  * Set the display which is being refreshed.
 274:Drivers/lvgl/src/core/lv_refr.c ****  * It shouldn't be used directly by the user.
 275:Drivers/lvgl/src/core/lv_refr.c ****  * It can be used to trick the drawing functions about there is an active display.
 276:Drivers/lvgl/src/core/lv_refr.c ****  * @param the display being refreshed
 277:Drivers/lvgl/src/core/lv_refr.c ****  */
 278:Drivers/lvgl/src/core/lv_refr.c **** void _lv_refr_set_disp_refreshing(lv_disp_t * disp)
 279:Drivers/lvgl/src/core/lv_refr.c **** {
 280:Drivers/lvgl/src/core/lv_refr.c ****     disp_refr = disp;
 281:Drivers/lvgl/src/core/lv_refr.c **** }
 282:Drivers/lvgl/src/core/lv_refr.c **** 
 283:Drivers/lvgl/src/core/lv_refr.c **** /**
 284:Drivers/lvgl/src/core/lv_refr.c ****  * Called periodically to handle the refreshing
 285:Drivers/lvgl/src/core/lv_refr.c ****  * @param tmr pointer to the timer itself
 286:Drivers/lvgl/src/core/lv_refr.c ****  */
 287:Drivers/lvgl/src/core/lv_refr.c **** void _lv_disp_refr_timer(lv_timer_t * tmr)
 288:Drivers/lvgl/src/core/lv_refr.c **** {
 289:Drivers/lvgl/src/core/lv_refr.c ****     REFR_TRACE("begin");
 290:Drivers/lvgl/src/core/lv_refr.c **** 
 291:Drivers/lvgl/src/core/lv_refr.c ****     uint32_t start = lv_tick_get();
 292:Drivers/lvgl/src/core/lv_refr.c ****     volatile uint32_t elaps = 0;
 293:Drivers/lvgl/src/core/lv_refr.c **** 
 294:Drivers/lvgl/src/core/lv_refr.c ****     if(tmr) {
 295:Drivers/lvgl/src/core/lv_refr.c ****         disp_refr = tmr->user_data;
 296:Drivers/lvgl/src/core/lv_refr.c **** #if LV_USE_PERF_MONITOR == 0 && LV_USE_MEM_MONITOR == 0
 297:Drivers/lvgl/src/core/lv_refr.c ****         /**
 298:Drivers/lvgl/src/core/lv_refr.c ****          * Ensure the timer does not run again automatically.
 299:Drivers/lvgl/src/core/lv_refr.c ****          * This is done before refreshing in case refreshing invalidates something else.
 300:Drivers/lvgl/src/core/lv_refr.c ****          */
 301:Drivers/lvgl/src/core/lv_refr.c ****         lv_timer_pause(tmr);
 302:Drivers/lvgl/src/core/lv_refr.c **** #endif
 303:Drivers/lvgl/src/core/lv_refr.c ****     }
 304:Drivers/lvgl/src/core/lv_refr.c ****     else {
 305:Drivers/lvgl/src/core/lv_refr.c ****         disp_refr = lv_disp_get_default();
 306:Drivers/lvgl/src/core/lv_refr.c ****     }
 307:Drivers/lvgl/src/core/lv_refr.c **** 
 308:Drivers/lvgl/src/core/lv_refr.c ****     /*Refresh the screen's layout if required*/
 309:Drivers/lvgl/src/core/lv_refr.c ****     lv_obj_update_layout(disp_refr->act_scr);
 310:Drivers/lvgl/src/core/lv_refr.c ****     if(disp_refr->prev_scr) lv_obj_update_layout(disp_refr->prev_scr);
 311:Drivers/lvgl/src/core/lv_refr.c **** 
 312:Drivers/lvgl/src/core/lv_refr.c ****     lv_obj_update_layout(disp_refr->top_layer);
 313:Drivers/lvgl/src/core/lv_refr.c ****     lv_obj_update_layout(disp_refr->sys_layer);
 314:Drivers/lvgl/src/core/lv_refr.c **** 
 315:Drivers/lvgl/src/core/lv_refr.c ****     /*Do nothing if there is no active screen*/
ARM GAS  /var/folders/0z/tsy30v1j4xl4_7kw94k978ww0000gn/T//ccRTPM70.s 			page 7


 316:Drivers/lvgl/src/core/lv_refr.c ****     if(disp_refr->act_scr == NULL) {
 317:Drivers/lvgl/src/core/lv_refr.c ****         disp_refr->inv_p = 0;
 318:Drivers/lvgl/src/core/lv_refr.c ****         LV_LOG_WARN("there is no active screen");
 319:Drivers/lvgl/src/core/lv_refr.c ****         REFR_TRACE("finished");
 320:Drivers/lvgl/src/core/lv_refr.c ****         return;
 321:Drivers/lvgl/src/core/lv_refr.c ****     }
 322:Drivers/lvgl/src/core/lv_refr.c **** 
 323:Drivers/lvgl/src/core/lv_refr.c ****     lv_refr_join_area();
 324:Drivers/lvgl/src/core/lv_refr.c ****     refr_sync_areas();
 325:Drivers/lvgl/src/core/lv_refr.c ****     refr_invalid_areas();
 326:Drivers/lvgl/src/core/lv_refr.c **** 
 327:Drivers/lvgl/src/core/lv_refr.c ****     /*If refresh happened ...*/
 328:Drivers/lvgl/src/core/lv_refr.c ****     if(disp_refr->inv_p != 0) {
 329:Drivers/lvgl/src/core/lv_refr.c **** 
 330:Drivers/lvgl/src/core/lv_refr.c ****         /*Copy invalid areas for sync next refresh in double buffered direct mode*/
 331:Drivers/lvgl/src/core/lv_refr.c ****         if(disp_refr->driver->direct_mode && disp_refr->driver->draw_buf->buf2) {
 332:Drivers/lvgl/src/core/lv_refr.c **** 
 333:Drivers/lvgl/src/core/lv_refr.c ****             uint16_t i;
 334:Drivers/lvgl/src/core/lv_refr.c ****             for(i = 0; i < disp_refr->inv_p; i++) {
 335:Drivers/lvgl/src/core/lv_refr.c ****                 if(disp_refr->inv_area_joined[i])
 336:Drivers/lvgl/src/core/lv_refr.c ****                     continue;
 337:Drivers/lvgl/src/core/lv_refr.c **** 
 338:Drivers/lvgl/src/core/lv_refr.c ****                 lv_area_t * sync_area = _lv_ll_ins_tail(&disp_refr->sync_areas);
 339:Drivers/lvgl/src/core/lv_refr.c ****                 *sync_area = disp_refr->inv_areas[i];
 340:Drivers/lvgl/src/core/lv_refr.c ****             }
 341:Drivers/lvgl/src/core/lv_refr.c ****         }
 342:Drivers/lvgl/src/core/lv_refr.c **** 
 343:Drivers/lvgl/src/core/lv_refr.c ****         /*Clean up*/
 344:Drivers/lvgl/src/core/lv_refr.c ****         lv_memset_00(disp_refr->inv_areas, sizeof(disp_refr->inv_areas));
 345:Drivers/lvgl/src/core/lv_refr.c ****         lv_memset_00(disp_refr->inv_area_joined, sizeof(disp_refr->inv_area_joined));
 346:Drivers/lvgl/src/core/lv_refr.c ****         disp_refr->inv_p = 0;
 347:Drivers/lvgl/src/core/lv_refr.c **** 
 348:Drivers/lvgl/src/core/lv_refr.c ****         elaps = lv_tick_elaps(start);
 349:Drivers/lvgl/src/core/lv_refr.c **** 
 350:Drivers/lvgl/src/core/lv_refr.c ****         /*Call monitor cb if present*/
 351:Drivers/lvgl/src/core/lv_refr.c ****         if(disp_refr->driver->monitor_cb) {
 352:Drivers/lvgl/src/core/lv_refr.c ****             disp_refr->driver->monitor_cb(disp_refr->driver, elaps, px_num);
 353:Drivers/lvgl/src/core/lv_refr.c ****         }
 354:Drivers/lvgl/src/core/lv_refr.c ****     }
 355:Drivers/lvgl/src/core/lv_refr.c **** 
 356:Drivers/lvgl/src/core/lv_refr.c ****     lv_mem_buf_free_all();
 357:Drivers/lvgl/src/core/lv_refr.c ****     _lv_font_clean_up_fmt_txt();
 358:Drivers/lvgl/src/core/lv_refr.c **** 
 359:Drivers/lvgl/src/core/lv_refr.c **** #if LV_DRAW_COMPLEX
 360:Drivers/lvgl/src/core/lv_refr.c ****     _lv_draw_mask_cleanup();
 361:Drivers/lvgl/src/core/lv_refr.c **** #endif
 362:Drivers/lvgl/src/core/lv_refr.c **** 
 363:Drivers/lvgl/src/core/lv_refr.c **** #if LV_USE_PERF_MONITOR && LV_USE_LABEL
 364:Drivers/lvgl/src/core/lv_refr.c ****     lv_obj_t * perf_label = perf_monitor.perf_label;
 365:Drivers/lvgl/src/core/lv_refr.c ****     if(perf_label == NULL) {
 366:Drivers/lvgl/src/core/lv_refr.c ****         perf_label = lv_label_create(lv_layer_sys());
 367:Drivers/lvgl/src/core/lv_refr.c ****         lv_obj_set_style_bg_opa(perf_label, LV_OPA_50, 0);
 368:Drivers/lvgl/src/core/lv_refr.c ****         lv_obj_set_style_bg_color(perf_label, lv_color_black(), 0);
 369:Drivers/lvgl/src/core/lv_refr.c ****         lv_obj_set_style_text_color(perf_label, lv_color_white(), 0);
 370:Drivers/lvgl/src/core/lv_refr.c ****         lv_obj_set_style_pad_top(perf_label, 3, 0);
 371:Drivers/lvgl/src/core/lv_refr.c ****         lv_obj_set_style_pad_bottom(perf_label, 3, 0);
 372:Drivers/lvgl/src/core/lv_refr.c ****         lv_obj_set_style_pad_left(perf_label, 3, 0);
ARM GAS  /var/folders/0z/tsy30v1j4xl4_7kw94k978ww0000gn/T//ccRTPM70.s 			page 8


 373:Drivers/lvgl/src/core/lv_refr.c ****         lv_obj_set_style_pad_right(perf_label, 3, 0);
 374:Drivers/lvgl/src/core/lv_refr.c ****         lv_obj_set_style_text_align(perf_label, LV_TEXT_ALIGN_RIGHT, 0);
 375:Drivers/lvgl/src/core/lv_refr.c ****         lv_label_set_text(perf_label, "?");
 376:Drivers/lvgl/src/core/lv_refr.c ****         lv_obj_align(perf_label, LV_USE_PERF_MONITOR_POS, 0, 0);
 377:Drivers/lvgl/src/core/lv_refr.c ****         perf_monitor.perf_label = perf_label;
 378:Drivers/lvgl/src/core/lv_refr.c ****     }
 379:Drivers/lvgl/src/core/lv_refr.c **** 
 380:Drivers/lvgl/src/core/lv_refr.c ****     if(lv_tick_elaps(perf_monitor.perf_last_time) < 300) {
 381:Drivers/lvgl/src/core/lv_refr.c ****         if(px_num > 5000) {
 382:Drivers/lvgl/src/core/lv_refr.c ****             perf_monitor.elaps_sum += elaps;
 383:Drivers/lvgl/src/core/lv_refr.c ****             perf_monitor.frame_cnt ++;
 384:Drivers/lvgl/src/core/lv_refr.c ****         }
 385:Drivers/lvgl/src/core/lv_refr.c ****     }
 386:Drivers/lvgl/src/core/lv_refr.c ****     else {
 387:Drivers/lvgl/src/core/lv_refr.c ****         perf_monitor.perf_last_time = lv_tick_get();
 388:Drivers/lvgl/src/core/lv_refr.c ****         uint32_t fps_limit;
 389:Drivers/lvgl/src/core/lv_refr.c ****         uint32_t fps;
 390:Drivers/lvgl/src/core/lv_refr.c **** 
 391:Drivers/lvgl/src/core/lv_refr.c ****         if(disp_refr->refr_timer) {
 392:Drivers/lvgl/src/core/lv_refr.c ****             fps_limit = 1000 / disp_refr->refr_timer->period;
 393:Drivers/lvgl/src/core/lv_refr.c ****         }
 394:Drivers/lvgl/src/core/lv_refr.c ****         else {
 395:Drivers/lvgl/src/core/lv_refr.c ****             fps_limit = 1000 / LV_DISP_DEF_REFR_PERIOD;
 396:Drivers/lvgl/src/core/lv_refr.c ****         }
 397:Drivers/lvgl/src/core/lv_refr.c **** 
 398:Drivers/lvgl/src/core/lv_refr.c ****         if(perf_monitor.elaps_sum == 0) {
 399:Drivers/lvgl/src/core/lv_refr.c ****             perf_monitor.elaps_sum = 1;
 400:Drivers/lvgl/src/core/lv_refr.c ****         }
 401:Drivers/lvgl/src/core/lv_refr.c ****         if(perf_monitor.frame_cnt == 0) {
 402:Drivers/lvgl/src/core/lv_refr.c ****             fps = fps_limit;
 403:Drivers/lvgl/src/core/lv_refr.c ****         }
 404:Drivers/lvgl/src/core/lv_refr.c ****         else {
 405:Drivers/lvgl/src/core/lv_refr.c ****             fps = (1000 * perf_monitor.frame_cnt) / perf_monitor.elaps_sum;
 406:Drivers/lvgl/src/core/lv_refr.c ****         }
 407:Drivers/lvgl/src/core/lv_refr.c ****         perf_monitor.elaps_sum = 0;
 408:Drivers/lvgl/src/core/lv_refr.c ****         perf_monitor.frame_cnt = 0;
 409:Drivers/lvgl/src/core/lv_refr.c ****         if(fps > fps_limit) {
 410:Drivers/lvgl/src/core/lv_refr.c ****             fps = fps_limit;
 411:Drivers/lvgl/src/core/lv_refr.c ****         }
 412:Drivers/lvgl/src/core/lv_refr.c **** 
 413:Drivers/lvgl/src/core/lv_refr.c ****         perf_monitor.fps_sum_all += fps;
 414:Drivers/lvgl/src/core/lv_refr.c ****         perf_monitor.fps_sum_cnt ++;
 415:Drivers/lvgl/src/core/lv_refr.c ****         uint32_t cpu = 100 - lv_timer_get_idle();
 416:Drivers/lvgl/src/core/lv_refr.c ****         lv_label_set_text_fmt(perf_label, "%"LV_PRIu32" FPS\n%"LV_PRIu32"%% CPU", fps, cpu);
 417:Drivers/lvgl/src/core/lv_refr.c ****     }
 418:Drivers/lvgl/src/core/lv_refr.c **** #endif
 419:Drivers/lvgl/src/core/lv_refr.c **** 
 420:Drivers/lvgl/src/core/lv_refr.c **** #if LV_USE_MEM_MONITOR && LV_MEM_CUSTOM == 0 && LV_USE_LABEL
 421:Drivers/lvgl/src/core/lv_refr.c ****     lv_obj_t * mem_label = mem_monitor.mem_label;
 422:Drivers/lvgl/src/core/lv_refr.c ****     if(mem_label == NULL) {
 423:Drivers/lvgl/src/core/lv_refr.c ****         mem_label = lv_label_create(lv_layer_sys());
 424:Drivers/lvgl/src/core/lv_refr.c ****         lv_obj_set_style_bg_opa(mem_label, LV_OPA_50, 0);
 425:Drivers/lvgl/src/core/lv_refr.c ****         lv_obj_set_style_bg_color(mem_label, lv_color_black(), 0);
 426:Drivers/lvgl/src/core/lv_refr.c ****         lv_obj_set_style_text_color(mem_label, lv_color_white(), 0);
 427:Drivers/lvgl/src/core/lv_refr.c ****         lv_obj_set_style_pad_top(mem_label, 3, 0);
 428:Drivers/lvgl/src/core/lv_refr.c ****         lv_obj_set_style_pad_bottom(mem_label, 3, 0);
 429:Drivers/lvgl/src/core/lv_refr.c ****         lv_obj_set_style_pad_left(mem_label, 3, 0);
ARM GAS  /var/folders/0z/tsy30v1j4xl4_7kw94k978ww0000gn/T//ccRTPM70.s 			page 9


 430:Drivers/lvgl/src/core/lv_refr.c ****         lv_obj_set_style_pad_right(mem_label, 3, 0);
 431:Drivers/lvgl/src/core/lv_refr.c ****         lv_label_set_text(mem_label, "?");
 432:Drivers/lvgl/src/core/lv_refr.c ****         lv_obj_align(mem_label, LV_USE_MEM_MONITOR_POS, 0, 0);
 433:Drivers/lvgl/src/core/lv_refr.c ****         mem_monitor.mem_label = mem_label;
 434:Drivers/lvgl/src/core/lv_refr.c ****     }
 435:Drivers/lvgl/src/core/lv_refr.c **** 
 436:Drivers/lvgl/src/core/lv_refr.c ****     if(lv_tick_elaps(mem_monitor.mem_last_time) > 300) {
 437:Drivers/lvgl/src/core/lv_refr.c ****         mem_monitor.mem_last_time = lv_tick_get();
 438:Drivers/lvgl/src/core/lv_refr.c ****         lv_mem_monitor_t mon;
 439:Drivers/lvgl/src/core/lv_refr.c ****         lv_mem_monitor(&mon);
 440:Drivers/lvgl/src/core/lv_refr.c ****         uint32_t used_size = mon.total_size - mon.free_size;;
 441:Drivers/lvgl/src/core/lv_refr.c ****         uint32_t used_kb = used_size / 1024;
 442:Drivers/lvgl/src/core/lv_refr.c ****         uint32_t used_kb_tenth = (used_size - (used_kb * 1024)) / 102;
 443:Drivers/lvgl/src/core/lv_refr.c ****         lv_label_set_text_fmt(mem_label,
 444:Drivers/lvgl/src/core/lv_refr.c ****                               "%"LV_PRIu32 ".%"LV_PRIu32 " kB used (%d %%)\n"
 445:Drivers/lvgl/src/core/lv_refr.c ****                               "%d%% frag.",
 446:Drivers/lvgl/src/core/lv_refr.c ****                               used_kb, used_kb_tenth, mon.used_pct,
 447:Drivers/lvgl/src/core/lv_refr.c ****                               mon.frag_pct);
 448:Drivers/lvgl/src/core/lv_refr.c ****     }
 449:Drivers/lvgl/src/core/lv_refr.c **** #endif
 450:Drivers/lvgl/src/core/lv_refr.c **** 
 451:Drivers/lvgl/src/core/lv_refr.c ****     REFR_TRACE("finished");
 452:Drivers/lvgl/src/core/lv_refr.c **** }
 453:Drivers/lvgl/src/core/lv_refr.c **** 
 454:Drivers/lvgl/src/core/lv_refr.c **** #if LV_USE_PERF_MONITOR
 455:Drivers/lvgl/src/core/lv_refr.c **** void lv_refr_reset_fps_counter(void)
 456:Drivers/lvgl/src/core/lv_refr.c **** {
 457:Drivers/lvgl/src/core/lv_refr.c ****     perf_monitor.fps_sum_all = 0;
 458:Drivers/lvgl/src/core/lv_refr.c ****     perf_monitor.fps_sum_cnt = 0;
 459:Drivers/lvgl/src/core/lv_refr.c **** }
 460:Drivers/lvgl/src/core/lv_refr.c **** 
 461:Drivers/lvgl/src/core/lv_refr.c **** uint32_t lv_refr_get_fps_avg(void)
 462:Drivers/lvgl/src/core/lv_refr.c **** {
 463:Drivers/lvgl/src/core/lv_refr.c ****     if(perf_monitor.fps_sum_cnt == 0) {
 464:Drivers/lvgl/src/core/lv_refr.c ****         return 0;
 465:Drivers/lvgl/src/core/lv_refr.c ****     }
 466:Drivers/lvgl/src/core/lv_refr.c ****     return perf_monitor.fps_sum_all / perf_monitor.fps_sum_cnt;
 467:Drivers/lvgl/src/core/lv_refr.c **** }
 468:Drivers/lvgl/src/core/lv_refr.c **** #endif
 469:Drivers/lvgl/src/core/lv_refr.c **** 
 470:Drivers/lvgl/src/core/lv_refr.c **** 
 471:Drivers/lvgl/src/core/lv_refr.c **** /**********************
 472:Drivers/lvgl/src/core/lv_refr.c ****  *   STATIC FUNCTIONS
 473:Drivers/lvgl/src/core/lv_refr.c ****  **********************/
 474:Drivers/lvgl/src/core/lv_refr.c **** 
 475:Drivers/lvgl/src/core/lv_refr.c **** /**
 476:Drivers/lvgl/src/core/lv_refr.c ****  * Join the areas which has got common parts
 477:Drivers/lvgl/src/core/lv_refr.c ****  */
 478:Drivers/lvgl/src/core/lv_refr.c **** static void lv_refr_join_area(void)
 479:Drivers/lvgl/src/core/lv_refr.c **** {
 480:Drivers/lvgl/src/core/lv_refr.c ****     uint32_t join_from;
 481:Drivers/lvgl/src/core/lv_refr.c ****     uint32_t join_in;
 482:Drivers/lvgl/src/core/lv_refr.c ****     lv_area_t joined_area;
 483:Drivers/lvgl/src/core/lv_refr.c ****     for(join_in = 0; join_in < disp_refr->inv_p; join_in++) {
 484:Drivers/lvgl/src/core/lv_refr.c ****         if(disp_refr->inv_area_joined[join_in] != 0) continue;
 485:Drivers/lvgl/src/core/lv_refr.c **** 
 486:Drivers/lvgl/src/core/lv_refr.c ****         /*Check all areas to join them in 'join_in'*/
ARM GAS  /var/folders/0z/tsy30v1j4xl4_7kw94k978ww0000gn/T//ccRTPM70.s 			page 10


 487:Drivers/lvgl/src/core/lv_refr.c ****         for(join_from = 0; join_from < disp_refr->inv_p; join_from++) {
 488:Drivers/lvgl/src/core/lv_refr.c ****             /*Handle only unjoined areas and ignore itself*/
 489:Drivers/lvgl/src/core/lv_refr.c ****             if(disp_refr->inv_area_joined[join_from] != 0 || join_in == join_from) {
 490:Drivers/lvgl/src/core/lv_refr.c ****                 continue;
 491:Drivers/lvgl/src/core/lv_refr.c ****             }
 492:Drivers/lvgl/src/core/lv_refr.c **** 
 493:Drivers/lvgl/src/core/lv_refr.c ****             /*Check if the areas are on each other*/
 494:Drivers/lvgl/src/core/lv_refr.c ****             if(_lv_area_is_on(&disp_refr->inv_areas[join_in], &disp_refr->inv_areas[join_from]) == 
 495:Drivers/lvgl/src/core/lv_refr.c ****                 continue;
 496:Drivers/lvgl/src/core/lv_refr.c ****             }
 497:Drivers/lvgl/src/core/lv_refr.c **** 
 498:Drivers/lvgl/src/core/lv_refr.c ****             _lv_area_join(&joined_area, &disp_refr->inv_areas[join_in], &disp_refr->inv_areas[join_
 499:Drivers/lvgl/src/core/lv_refr.c **** 
 500:Drivers/lvgl/src/core/lv_refr.c ****             /*Join two area only if the joined area size is smaller*/
 501:Drivers/lvgl/src/core/lv_refr.c ****             if(lv_area_get_size(&joined_area) < (lv_area_get_size(&disp_refr->inv_areas[join_in]) +
 502:Drivers/lvgl/src/core/lv_refr.c ****                                                  lv_area_get_size(&disp_refr->inv_areas[join_from])
 503:Drivers/lvgl/src/core/lv_refr.c ****                 lv_area_copy(&disp_refr->inv_areas[join_in], &joined_area);
 504:Drivers/lvgl/src/core/lv_refr.c **** 
 505:Drivers/lvgl/src/core/lv_refr.c ****                 /*Mark 'join_form' is joined into 'join_in'*/
 506:Drivers/lvgl/src/core/lv_refr.c ****                 disp_refr->inv_area_joined[join_from] = 1;
 507:Drivers/lvgl/src/core/lv_refr.c ****             }
 508:Drivers/lvgl/src/core/lv_refr.c ****         }
 509:Drivers/lvgl/src/core/lv_refr.c ****     }
 510:Drivers/lvgl/src/core/lv_refr.c **** }
 511:Drivers/lvgl/src/core/lv_refr.c **** 
 512:Drivers/lvgl/src/core/lv_refr.c **** /**
 513:Drivers/lvgl/src/core/lv_refr.c ****  * Refresh the sync areas
 514:Drivers/lvgl/src/core/lv_refr.c ****  */
 515:Drivers/lvgl/src/core/lv_refr.c **** static void refr_sync_areas(void)
 516:Drivers/lvgl/src/core/lv_refr.c **** {
 517:Drivers/lvgl/src/core/lv_refr.c ****     /*Do not sync if not direct mode*/
 518:Drivers/lvgl/src/core/lv_refr.c ****     if(!disp_refr->driver->direct_mode) return;
 519:Drivers/lvgl/src/core/lv_refr.c **** 
 520:Drivers/lvgl/src/core/lv_refr.c ****     /*Do not sync if not double buffered*/
 521:Drivers/lvgl/src/core/lv_refr.c ****     if(disp_refr->driver->draw_buf->buf2 == NULL) return;
 522:Drivers/lvgl/src/core/lv_refr.c **** 
 523:Drivers/lvgl/src/core/lv_refr.c ****     /*Do not sync if no sync areas*/
 524:Drivers/lvgl/src/core/lv_refr.c ****     if(_lv_ll_is_empty(&disp_refr->sync_areas)) return;
 525:Drivers/lvgl/src/core/lv_refr.c **** 
 526:Drivers/lvgl/src/core/lv_refr.c ****     /*The buffers are already swapped.
 527:Drivers/lvgl/src/core/lv_refr.c ****      *So the active buffer is the off screen buffer where LVGL will render*/
 528:Drivers/lvgl/src/core/lv_refr.c ****     void * buf_off_screen = disp_refr->driver->draw_buf->buf_act;
 529:Drivers/lvgl/src/core/lv_refr.c ****     void * buf_on_screen = disp_refr->driver->draw_buf->buf_act == disp_refr->driver->draw_buf->buf
 530:Drivers/lvgl/src/core/lv_refr.c ****                            ? disp_refr->driver->draw_buf->buf2
 531:Drivers/lvgl/src/core/lv_refr.c ****                            : disp_refr->driver->draw_buf->buf1;
 532:Drivers/lvgl/src/core/lv_refr.c **** 
 533:Drivers/lvgl/src/core/lv_refr.c ****     /*Get stride for buffer copy*/
 534:Drivers/lvgl/src/core/lv_refr.c ****     lv_coord_t stride = lv_disp_get_hor_res(disp_refr);
 535:Drivers/lvgl/src/core/lv_refr.c **** 
 536:Drivers/lvgl/src/core/lv_refr.c ****     /*Iterate through invalidated areas to see if sync area should be copied*/
 537:Drivers/lvgl/src/core/lv_refr.c ****     lv_area_t res[4] = {0};
 538:Drivers/lvgl/src/core/lv_refr.c ****     int8_t res_c, j;
 539:Drivers/lvgl/src/core/lv_refr.c ****     uint32_t i;
 540:Drivers/lvgl/src/core/lv_refr.c ****     lv_area_t * sync_area, *new_area, *next_area;
 541:Drivers/lvgl/src/core/lv_refr.c ****     for(i = 0; i < disp_refr->inv_p; i++) {
 542:Drivers/lvgl/src/core/lv_refr.c ****         /*Skip joined areas*/
 543:Drivers/lvgl/src/core/lv_refr.c ****         if(disp_refr->inv_area_joined[i]) continue;
ARM GAS  /var/folders/0z/tsy30v1j4xl4_7kw94k978ww0000gn/T//ccRTPM70.s 			page 11


 544:Drivers/lvgl/src/core/lv_refr.c **** 
 545:Drivers/lvgl/src/core/lv_refr.c ****         /*Iterate over sync areas*/
 546:Drivers/lvgl/src/core/lv_refr.c ****         sync_area = _lv_ll_get_head(&disp_refr->sync_areas);
 547:Drivers/lvgl/src/core/lv_refr.c ****         while(sync_area != NULL) {
 548:Drivers/lvgl/src/core/lv_refr.c ****             /*Get next sync area*/
 549:Drivers/lvgl/src/core/lv_refr.c ****             next_area = _lv_ll_get_next(&disp_refr->sync_areas, sync_area);
 550:Drivers/lvgl/src/core/lv_refr.c **** 
 551:Drivers/lvgl/src/core/lv_refr.c ****             /*Remove intersect of redraw area from sync area and get remaining areas*/
 552:Drivers/lvgl/src/core/lv_refr.c ****             res_c = _lv_area_diff(res, sync_area, &disp_refr->inv_areas[i]);
 553:Drivers/lvgl/src/core/lv_refr.c **** 
 554:Drivers/lvgl/src/core/lv_refr.c ****             /*New sub areas created after removing intersect*/
 555:Drivers/lvgl/src/core/lv_refr.c ****             if(res_c != -1) {
 556:Drivers/lvgl/src/core/lv_refr.c ****                 /*Replace old sync area with new areas*/
 557:Drivers/lvgl/src/core/lv_refr.c ****                 for(j = 0; j < res_c; j++) {
 558:Drivers/lvgl/src/core/lv_refr.c ****                     new_area = _lv_ll_ins_prev(&disp_refr->sync_areas, sync_area);
 559:Drivers/lvgl/src/core/lv_refr.c ****                     *new_area = res[j];
 560:Drivers/lvgl/src/core/lv_refr.c ****                 }
 561:Drivers/lvgl/src/core/lv_refr.c ****                 _lv_ll_remove(&disp_refr->sync_areas, sync_area);
 562:Drivers/lvgl/src/core/lv_refr.c ****                 lv_mem_free(sync_area);
 563:Drivers/lvgl/src/core/lv_refr.c ****             }
 564:Drivers/lvgl/src/core/lv_refr.c **** 
 565:Drivers/lvgl/src/core/lv_refr.c ****             /*Move on to next sync area*/
 566:Drivers/lvgl/src/core/lv_refr.c ****             sync_area = next_area;
 567:Drivers/lvgl/src/core/lv_refr.c ****         }
 568:Drivers/lvgl/src/core/lv_refr.c ****     }
 569:Drivers/lvgl/src/core/lv_refr.c **** 
 570:Drivers/lvgl/src/core/lv_refr.c ****     /*Copy sync areas (if any remaining)*/
 571:Drivers/lvgl/src/core/lv_refr.c ****     for(sync_area = _lv_ll_get_head(&disp_refr->sync_areas); sync_area != NULL;
 572:Drivers/lvgl/src/core/lv_refr.c ****         sync_area = _lv_ll_get_next(&disp_refr->sync_areas, sync_area)) {
 573:Drivers/lvgl/src/core/lv_refr.c ****         disp_refr->driver->draw_ctx->buffer_copy(
 574:Drivers/lvgl/src/core/lv_refr.c ****             disp_refr->driver->draw_ctx,
 575:Drivers/lvgl/src/core/lv_refr.c ****             buf_off_screen, stride, sync_area,
 576:Drivers/lvgl/src/core/lv_refr.c ****             buf_on_screen, stride, sync_area
 577:Drivers/lvgl/src/core/lv_refr.c ****         );
 578:Drivers/lvgl/src/core/lv_refr.c ****     }
 579:Drivers/lvgl/src/core/lv_refr.c **** 
 580:Drivers/lvgl/src/core/lv_refr.c ****     /*Clear sync areas*/
 581:Drivers/lvgl/src/core/lv_refr.c ****     _lv_ll_clear(&disp_refr->sync_areas);
 582:Drivers/lvgl/src/core/lv_refr.c **** }
 583:Drivers/lvgl/src/core/lv_refr.c **** 
 584:Drivers/lvgl/src/core/lv_refr.c **** /**
 585:Drivers/lvgl/src/core/lv_refr.c ****  * Refresh the joined areas
 586:Drivers/lvgl/src/core/lv_refr.c ****  */
 587:Drivers/lvgl/src/core/lv_refr.c **** static void refr_invalid_areas(void)
 588:Drivers/lvgl/src/core/lv_refr.c **** {
 589:Drivers/lvgl/src/core/lv_refr.c ****     px_num = 0;
 590:Drivers/lvgl/src/core/lv_refr.c **** 
 591:Drivers/lvgl/src/core/lv_refr.c ****     if(disp_refr->inv_p == 0) return;
 592:Drivers/lvgl/src/core/lv_refr.c **** 
 593:Drivers/lvgl/src/core/lv_refr.c ****     /*Find the last area which will be drawn*/
 594:Drivers/lvgl/src/core/lv_refr.c ****     int32_t i;
 595:Drivers/lvgl/src/core/lv_refr.c ****     int32_t last_i = 0;
 596:Drivers/lvgl/src/core/lv_refr.c ****     for(i = disp_refr->inv_p - 1; i >= 0; i--) {
 597:Drivers/lvgl/src/core/lv_refr.c ****         if(disp_refr->inv_area_joined[i] == 0) {
 598:Drivers/lvgl/src/core/lv_refr.c ****             last_i = i;
 599:Drivers/lvgl/src/core/lv_refr.c ****             break;
 600:Drivers/lvgl/src/core/lv_refr.c ****         }
ARM GAS  /var/folders/0z/tsy30v1j4xl4_7kw94k978ww0000gn/T//ccRTPM70.s 			page 12


 601:Drivers/lvgl/src/core/lv_refr.c ****     }
 602:Drivers/lvgl/src/core/lv_refr.c **** 
 603:Drivers/lvgl/src/core/lv_refr.c ****     /*Notify the display driven rendering has started*/
 604:Drivers/lvgl/src/core/lv_refr.c ****     if(disp_refr->driver->render_start_cb) {
 605:Drivers/lvgl/src/core/lv_refr.c ****         disp_refr->driver->render_start_cb(disp_refr->driver);
 606:Drivers/lvgl/src/core/lv_refr.c ****     }
 607:Drivers/lvgl/src/core/lv_refr.c **** 
 608:Drivers/lvgl/src/core/lv_refr.c ****     disp_refr->driver->draw_buf->last_area = 0;
 609:Drivers/lvgl/src/core/lv_refr.c ****     disp_refr->driver->draw_buf->last_part = 0;
 610:Drivers/lvgl/src/core/lv_refr.c ****     disp_refr->rendering_in_progress = true;
 611:Drivers/lvgl/src/core/lv_refr.c **** 
 612:Drivers/lvgl/src/core/lv_refr.c ****     for(i = 0; i < disp_refr->inv_p; i++) {
 613:Drivers/lvgl/src/core/lv_refr.c ****         /*Refresh the unjoined areas*/
 614:Drivers/lvgl/src/core/lv_refr.c ****         if(disp_refr->inv_area_joined[i] == 0) {
 615:Drivers/lvgl/src/core/lv_refr.c **** 
 616:Drivers/lvgl/src/core/lv_refr.c ****             if(i == last_i) disp_refr->driver->draw_buf->last_area = 1;
 617:Drivers/lvgl/src/core/lv_refr.c ****             disp_refr->driver->draw_buf->last_part = 0;
 618:Drivers/lvgl/src/core/lv_refr.c ****             refr_area(&disp_refr->inv_areas[i]);
 619:Drivers/lvgl/src/core/lv_refr.c **** 
 620:Drivers/lvgl/src/core/lv_refr.c ****             px_num += lv_area_get_size(&disp_refr->inv_areas[i]);
 621:Drivers/lvgl/src/core/lv_refr.c ****         }
 622:Drivers/lvgl/src/core/lv_refr.c ****     }
 623:Drivers/lvgl/src/core/lv_refr.c **** 
 624:Drivers/lvgl/src/core/lv_refr.c ****     disp_refr->rendering_in_progress = false;
 625:Drivers/lvgl/src/core/lv_refr.c **** }
 626:Drivers/lvgl/src/core/lv_refr.c **** 
 627:Drivers/lvgl/src/core/lv_refr.c **** /**
 628:Drivers/lvgl/src/core/lv_refr.c ****  * Refresh an area if there is Virtual Display Buffer
 629:Drivers/lvgl/src/core/lv_refr.c ****  * @param area_p  pointer to an area to refresh
 630:Drivers/lvgl/src/core/lv_refr.c ****  */
 631:Drivers/lvgl/src/core/lv_refr.c **** static void refr_area(const lv_area_t * area_p)
 632:Drivers/lvgl/src/core/lv_refr.c **** {
 633:Drivers/lvgl/src/core/lv_refr.c ****     lv_draw_ctx_t * draw_ctx = disp_refr->driver->draw_ctx;
 634:Drivers/lvgl/src/core/lv_refr.c ****     draw_ctx->buf = disp_refr->driver->draw_buf->buf_act;
 635:Drivers/lvgl/src/core/lv_refr.c **** 
 636:Drivers/lvgl/src/core/lv_refr.c ****     /*With full refresh just redraw directly into the buffer*/
 637:Drivers/lvgl/src/core/lv_refr.c ****     /*In direct mode draw directly on the absolute coordinates of the buffer*/
 638:Drivers/lvgl/src/core/lv_refr.c ****     if(disp_refr->driver->full_refresh || disp_refr->driver->direct_mode) {
 639:Drivers/lvgl/src/core/lv_refr.c ****         lv_area_t disp_area;
 640:Drivers/lvgl/src/core/lv_refr.c ****         lv_area_set(&disp_area, 0, 0, lv_disp_get_hor_res(disp_refr) - 1, lv_disp_get_ver_res(disp_
 641:Drivers/lvgl/src/core/lv_refr.c ****         draw_ctx->buf_area = &disp_area;
 642:Drivers/lvgl/src/core/lv_refr.c **** 
 643:Drivers/lvgl/src/core/lv_refr.c ****         if(disp_refr->driver->full_refresh) {
 644:Drivers/lvgl/src/core/lv_refr.c ****             disp_refr->driver->draw_buf->last_part = 1;
 645:Drivers/lvgl/src/core/lv_refr.c ****             draw_ctx->clip_area = &disp_area;
 646:Drivers/lvgl/src/core/lv_refr.c ****             refr_area_part(draw_ctx);
 647:Drivers/lvgl/src/core/lv_refr.c ****         }
 648:Drivers/lvgl/src/core/lv_refr.c ****         else {
 649:Drivers/lvgl/src/core/lv_refr.c ****             disp_refr->driver->draw_buf->last_part = disp_refr->driver->draw_buf->last_area;
 650:Drivers/lvgl/src/core/lv_refr.c ****             draw_ctx->clip_area = area_p;
 651:Drivers/lvgl/src/core/lv_refr.c ****             refr_area_part(draw_ctx);
 652:Drivers/lvgl/src/core/lv_refr.c ****         }
 653:Drivers/lvgl/src/core/lv_refr.c ****         return;
 654:Drivers/lvgl/src/core/lv_refr.c ****     }
 655:Drivers/lvgl/src/core/lv_refr.c **** 
 656:Drivers/lvgl/src/core/lv_refr.c ****     /*Normal refresh: draw the area in parts*/
 657:Drivers/lvgl/src/core/lv_refr.c ****     /*Calculate the max row num*/
ARM GAS  /var/folders/0z/tsy30v1j4xl4_7kw94k978ww0000gn/T//ccRTPM70.s 			page 13


 658:Drivers/lvgl/src/core/lv_refr.c ****     lv_coord_t w = lv_area_get_width(area_p);
 659:Drivers/lvgl/src/core/lv_refr.c ****     lv_coord_t h = lv_area_get_height(area_p);
 660:Drivers/lvgl/src/core/lv_refr.c ****     lv_coord_t y2 = area_p->y2 >= lv_disp_get_ver_res(disp_refr) ?
 661:Drivers/lvgl/src/core/lv_refr.c ****                     lv_disp_get_ver_res(disp_refr) - 1 : area_p->y2;
 662:Drivers/lvgl/src/core/lv_refr.c **** 
 663:Drivers/lvgl/src/core/lv_refr.c ****     int32_t max_row = get_max_row(disp_refr, w, h);
 664:Drivers/lvgl/src/core/lv_refr.c **** 
 665:Drivers/lvgl/src/core/lv_refr.c ****     lv_coord_t row;
 666:Drivers/lvgl/src/core/lv_refr.c ****     lv_coord_t row_last = 0;
 667:Drivers/lvgl/src/core/lv_refr.c ****     lv_area_t sub_area;
 668:Drivers/lvgl/src/core/lv_refr.c ****     for(row = area_p->y1; row + max_row - 1 <= y2; row += max_row) {
 669:Drivers/lvgl/src/core/lv_refr.c ****         /*Calc. the next y coordinates of draw_buf*/
 670:Drivers/lvgl/src/core/lv_refr.c ****         sub_area.x1 = area_p->x1;
 671:Drivers/lvgl/src/core/lv_refr.c ****         sub_area.x2 = area_p->x2;
 672:Drivers/lvgl/src/core/lv_refr.c ****         sub_area.y1 = row;
 673:Drivers/lvgl/src/core/lv_refr.c ****         sub_area.y2 = row + max_row - 1;
 674:Drivers/lvgl/src/core/lv_refr.c ****         draw_ctx->buf_area = &sub_area;
 675:Drivers/lvgl/src/core/lv_refr.c ****         draw_ctx->clip_area = &sub_area;
 676:Drivers/lvgl/src/core/lv_refr.c ****         draw_ctx->buf = disp_refr->driver->draw_buf->buf_act;
 677:Drivers/lvgl/src/core/lv_refr.c ****         if(sub_area.y2 > y2) sub_area.y2 = y2;
 678:Drivers/lvgl/src/core/lv_refr.c ****         row_last = sub_area.y2;
 679:Drivers/lvgl/src/core/lv_refr.c ****         if(y2 == row_last) disp_refr->driver->draw_buf->last_part = 1;
 680:Drivers/lvgl/src/core/lv_refr.c ****         refr_area_part(draw_ctx);
 681:Drivers/lvgl/src/core/lv_refr.c ****     }
 682:Drivers/lvgl/src/core/lv_refr.c **** 
 683:Drivers/lvgl/src/core/lv_refr.c ****     /*If the last y coordinates are not handled yet ...*/
 684:Drivers/lvgl/src/core/lv_refr.c ****     if(y2 != row_last) {
 685:Drivers/lvgl/src/core/lv_refr.c ****         /*Calc. the next y coordinates of draw_buf*/
 686:Drivers/lvgl/src/core/lv_refr.c ****         sub_area.x1 = area_p->x1;
 687:Drivers/lvgl/src/core/lv_refr.c ****         sub_area.x2 = area_p->x2;
 688:Drivers/lvgl/src/core/lv_refr.c ****         sub_area.y1 = row;
 689:Drivers/lvgl/src/core/lv_refr.c ****         sub_area.y2 = y2;
 690:Drivers/lvgl/src/core/lv_refr.c ****         draw_ctx->buf_area = &sub_area;
 691:Drivers/lvgl/src/core/lv_refr.c ****         draw_ctx->clip_area = &sub_area;
 692:Drivers/lvgl/src/core/lv_refr.c ****         draw_ctx->buf = disp_refr->driver->draw_buf->buf_act;
 693:Drivers/lvgl/src/core/lv_refr.c ****         disp_refr->driver->draw_buf->last_part = 1;
 694:Drivers/lvgl/src/core/lv_refr.c ****         refr_area_part(draw_ctx);
 695:Drivers/lvgl/src/core/lv_refr.c ****     }
 696:Drivers/lvgl/src/core/lv_refr.c **** }
 697:Drivers/lvgl/src/core/lv_refr.c **** 
 698:Drivers/lvgl/src/core/lv_refr.c **** static void refr_area_part(lv_draw_ctx_t * draw_ctx)
 699:Drivers/lvgl/src/core/lv_refr.c **** {
 700:Drivers/lvgl/src/core/lv_refr.c ****     lv_disp_draw_buf_t * draw_buf = lv_disp_get_draw_buf(disp_refr);
 701:Drivers/lvgl/src/core/lv_refr.c **** 
 702:Drivers/lvgl/src/core/lv_refr.c ****     if(draw_ctx->init_buf)
 703:Drivers/lvgl/src/core/lv_refr.c ****         draw_ctx->init_buf(draw_ctx);
 704:Drivers/lvgl/src/core/lv_refr.c **** 
 705:Drivers/lvgl/src/core/lv_refr.c ****     /* Below the `area_p` area will be redrawn into the draw buffer.
 706:Drivers/lvgl/src/core/lv_refr.c ****      * In single buffered mode wait here until the buffer is freed.
 707:Drivers/lvgl/src/core/lv_refr.c ****      * In full double buffered mode wait here while the buffers are swapped and a buffer becomes av
 708:Drivers/lvgl/src/core/lv_refr.c ****     bool full_sized = draw_buf->size == (uint32_t)disp_refr->driver->hor_res * disp_refr->driver->v
 709:Drivers/lvgl/src/core/lv_refr.c ****     if((draw_buf->buf1 && !draw_buf->buf2) ||
 710:Drivers/lvgl/src/core/lv_refr.c ****        (draw_buf->buf1 && draw_buf->buf2 && full_sized)) {
 711:Drivers/lvgl/src/core/lv_refr.c ****         while(draw_buf->flushing) {
 712:Drivers/lvgl/src/core/lv_refr.c ****             if(disp_refr->driver->wait_cb) disp_refr->driver->wait_cb(disp_refr->driver);
 713:Drivers/lvgl/src/core/lv_refr.c ****         }
 714:Drivers/lvgl/src/core/lv_refr.c **** 
ARM GAS  /var/folders/0z/tsy30v1j4xl4_7kw94k978ww0000gn/T//ccRTPM70.s 			page 14


 715:Drivers/lvgl/src/core/lv_refr.c ****         /*If the screen is transparent initialize it when the flushing is ready*/
 716:Drivers/lvgl/src/core/lv_refr.c **** #if LV_COLOR_SCREEN_TRANSP
 717:Drivers/lvgl/src/core/lv_refr.c ****         if(disp_refr->driver->screen_transp) {
 718:Drivers/lvgl/src/core/lv_refr.c ****             if(disp_refr->driver->clear_cb) {
 719:Drivers/lvgl/src/core/lv_refr.c ****                 disp_refr->driver->clear_cb(disp_refr->driver, disp_refr->driver->draw_buf->buf_act
 720:Drivers/lvgl/src/core/lv_refr.c ****             }
 721:Drivers/lvgl/src/core/lv_refr.c ****             else {
 722:Drivers/lvgl/src/core/lv_refr.c ****                 lv_memset_00(disp_refr->driver->draw_buf->buf_act, disp_refr->driver->draw_buf->siz
 723:Drivers/lvgl/src/core/lv_refr.c ****             }
 724:Drivers/lvgl/src/core/lv_refr.c ****         }
 725:Drivers/lvgl/src/core/lv_refr.c **** #endif
 726:Drivers/lvgl/src/core/lv_refr.c ****     }
 727:Drivers/lvgl/src/core/lv_refr.c **** 
 728:Drivers/lvgl/src/core/lv_refr.c ****     lv_obj_t * top_act_scr = NULL;
 729:Drivers/lvgl/src/core/lv_refr.c ****     lv_obj_t * top_prev_scr = NULL;
 730:Drivers/lvgl/src/core/lv_refr.c **** 
 731:Drivers/lvgl/src/core/lv_refr.c ****     /*Get the most top object which is not covered by others*/
 732:Drivers/lvgl/src/core/lv_refr.c ****     top_act_scr = lv_refr_get_top_obj(draw_ctx->buf_area, lv_disp_get_scr_act(disp_refr));
 733:Drivers/lvgl/src/core/lv_refr.c ****     if(disp_refr->prev_scr) {
 734:Drivers/lvgl/src/core/lv_refr.c ****         top_prev_scr = lv_refr_get_top_obj(draw_ctx->buf_area, disp_refr->prev_scr);
 735:Drivers/lvgl/src/core/lv_refr.c ****     }
 736:Drivers/lvgl/src/core/lv_refr.c **** 
 737:Drivers/lvgl/src/core/lv_refr.c ****     /*Draw a display background if there is no top object*/
 738:Drivers/lvgl/src/core/lv_refr.c ****     if(top_act_scr == NULL && top_prev_scr == NULL) {
 739:Drivers/lvgl/src/core/lv_refr.c ****         lv_area_t a;
 740:Drivers/lvgl/src/core/lv_refr.c ****         lv_area_set(&a, 0, 0,
 741:Drivers/lvgl/src/core/lv_refr.c ****                     lv_disp_get_hor_res(disp_refr) - 1, lv_disp_get_ver_res(disp_refr) - 1);
 742:Drivers/lvgl/src/core/lv_refr.c ****         if(draw_ctx->draw_bg) {
 743:Drivers/lvgl/src/core/lv_refr.c ****             lv_draw_rect_dsc_t dsc;
 744:Drivers/lvgl/src/core/lv_refr.c ****             lv_draw_rect_dsc_init(&dsc);
 745:Drivers/lvgl/src/core/lv_refr.c ****             dsc.bg_img_src = disp_refr->bg_img;
 746:Drivers/lvgl/src/core/lv_refr.c ****             dsc.bg_img_opa = disp_refr->bg_opa;
 747:Drivers/lvgl/src/core/lv_refr.c ****             dsc.bg_color = disp_refr->bg_color;
 748:Drivers/lvgl/src/core/lv_refr.c ****             dsc.bg_opa = disp_refr->bg_opa;
 749:Drivers/lvgl/src/core/lv_refr.c ****             draw_ctx->draw_bg(draw_ctx, &dsc, &a);
 750:Drivers/lvgl/src/core/lv_refr.c ****         }
 751:Drivers/lvgl/src/core/lv_refr.c ****         else if(disp_refr->bg_img) {
 752:Drivers/lvgl/src/core/lv_refr.c ****             lv_img_header_t header;
 753:Drivers/lvgl/src/core/lv_refr.c ****             lv_res_t res = lv_img_decoder_get_info(disp_refr->bg_img, &header);
 754:Drivers/lvgl/src/core/lv_refr.c ****             if(res == LV_RES_OK) {
 755:Drivers/lvgl/src/core/lv_refr.c ****                 lv_draw_img_dsc_t dsc;
 756:Drivers/lvgl/src/core/lv_refr.c ****                 lv_draw_img_dsc_init(&dsc);
 757:Drivers/lvgl/src/core/lv_refr.c ****                 dsc.opa = disp_refr->bg_opa;
 758:Drivers/lvgl/src/core/lv_refr.c ****                 lv_draw_img(draw_ctx, &dsc, &a, disp_refr->bg_img);
 759:Drivers/lvgl/src/core/lv_refr.c ****             }
 760:Drivers/lvgl/src/core/lv_refr.c ****             else {
 761:Drivers/lvgl/src/core/lv_refr.c ****                 LV_LOG_WARN("Can't draw the background image");
 762:Drivers/lvgl/src/core/lv_refr.c ****             }
 763:Drivers/lvgl/src/core/lv_refr.c ****         }
 764:Drivers/lvgl/src/core/lv_refr.c ****         else {
 765:Drivers/lvgl/src/core/lv_refr.c ****             lv_draw_rect_dsc_t dsc;
 766:Drivers/lvgl/src/core/lv_refr.c ****             lv_draw_rect_dsc_init(&dsc);
 767:Drivers/lvgl/src/core/lv_refr.c ****             dsc.bg_color = disp_refr->bg_color;
 768:Drivers/lvgl/src/core/lv_refr.c ****             dsc.bg_opa = disp_refr->bg_opa;
 769:Drivers/lvgl/src/core/lv_refr.c ****             lv_draw_rect(draw_ctx, &dsc, draw_ctx->buf_area);
 770:Drivers/lvgl/src/core/lv_refr.c ****         }
 771:Drivers/lvgl/src/core/lv_refr.c ****     }
ARM GAS  /var/folders/0z/tsy30v1j4xl4_7kw94k978ww0000gn/T//ccRTPM70.s 			page 15


 772:Drivers/lvgl/src/core/lv_refr.c **** 
 773:Drivers/lvgl/src/core/lv_refr.c ****     if(disp_refr->draw_prev_over_act) {
 774:Drivers/lvgl/src/core/lv_refr.c ****         if(top_act_scr == NULL) top_act_scr = disp_refr->act_scr;
 775:Drivers/lvgl/src/core/lv_refr.c ****         refr_obj_and_children(draw_ctx, top_act_scr);
 776:Drivers/lvgl/src/core/lv_refr.c **** 
 777:Drivers/lvgl/src/core/lv_refr.c ****         /*Refresh the previous screen if any*/
 778:Drivers/lvgl/src/core/lv_refr.c ****         if(disp_refr->prev_scr) {
 779:Drivers/lvgl/src/core/lv_refr.c ****             if(top_prev_scr == NULL) top_prev_scr = disp_refr->prev_scr;
 780:Drivers/lvgl/src/core/lv_refr.c ****             refr_obj_and_children(draw_ctx, top_prev_scr);
 781:Drivers/lvgl/src/core/lv_refr.c ****         }
 782:Drivers/lvgl/src/core/lv_refr.c ****     }
 783:Drivers/lvgl/src/core/lv_refr.c ****     else {
 784:Drivers/lvgl/src/core/lv_refr.c ****         /*Refresh the previous screen if any*/
 785:Drivers/lvgl/src/core/lv_refr.c ****         if(disp_refr->prev_scr) {
 786:Drivers/lvgl/src/core/lv_refr.c ****             if(top_prev_scr == NULL) top_prev_scr = disp_refr->prev_scr;
 787:Drivers/lvgl/src/core/lv_refr.c ****             refr_obj_and_children(draw_ctx, top_prev_scr);
 788:Drivers/lvgl/src/core/lv_refr.c ****         }
 789:Drivers/lvgl/src/core/lv_refr.c **** 
 790:Drivers/lvgl/src/core/lv_refr.c ****         if(top_act_scr == NULL) top_act_scr = disp_refr->act_scr;
 791:Drivers/lvgl/src/core/lv_refr.c ****         refr_obj_and_children(draw_ctx, top_act_scr);
 792:Drivers/lvgl/src/core/lv_refr.c ****     }
 793:Drivers/lvgl/src/core/lv_refr.c **** 
 794:Drivers/lvgl/src/core/lv_refr.c ****     /*Also refresh top and sys layer unconditionally*/
 795:Drivers/lvgl/src/core/lv_refr.c ****     refr_obj_and_children(draw_ctx, lv_disp_get_layer_top(disp_refr));
 796:Drivers/lvgl/src/core/lv_refr.c ****     refr_obj_and_children(draw_ctx, lv_disp_get_layer_sys(disp_refr));
 797:Drivers/lvgl/src/core/lv_refr.c **** 
 798:Drivers/lvgl/src/core/lv_refr.c ****     draw_buf_flush(disp_refr);
 799:Drivers/lvgl/src/core/lv_refr.c **** }
 800:Drivers/lvgl/src/core/lv_refr.c **** 
 801:Drivers/lvgl/src/core/lv_refr.c **** /**
 802:Drivers/lvgl/src/core/lv_refr.c ****  * Search the most top object which fully covers an area
 803:Drivers/lvgl/src/core/lv_refr.c ****  * @param area_p pointer to an area
 804:Drivers/lvgl/src/core/lv_refr.c ****  * @param obj the first object to start the searching (typically a screen)
 805:Drivers/lvgl/src/core/lv_refr.c ****  * @return
 806:Drivers/lvgl/src/core/lv_refr.c ****  */
 807:Drivers/lvgl/src/core/lv_refr.c **** static lv_obj_t * lv_refr_get_top_obj(const lv_area_t * area_p, lv_obj_t * obj)
 808:Drivers/lvgl/src/core/lv_refr.c **** {
 809:Drivers/lvgl/src/core/lv_refr.c ****     lv_obj_t * found_p = NULL;
 810:Drivers/lvgl/src/core/lv_refr.c **** 
 811:Drivers/lvgl/src/core/lv_refr.c ****     if(_lv_area_is_in(area_p, &obj->coords, 0) == false) return NULL;
 812:Drivers/lvgl/src/core/lv_refr.c ****     if(lv_obj_has_flag(obj, LV_OBJ_FLAG_HIDDEN)) return NULL;
 813:Drivers/lvgl/src/core/lv_refr.c ****     if(_lv_obj_get_layer_type(obj) != LV_LAYER_TYPE_NONE) return NULL;
 814:Drivers/lvgl/src/core/lv_refr.c **** 
 815:Drivers/lvgl/src/core/lv_refr.c ****     /*If this object is fully cover the draw area then check the children too*/
 816:Drivers/lvgl/src/core/lv_refr.c ****     lv_cover_check_info_t info;
 817:Drivers/lvgl/src/core/lv_refr.c ****     info.res = LV_COVER_RES_COVER;
 818:Drivers/lvgl/src/core/lv_refr.c ****     info.area = area_p;
 819:Drivers/lvgl/src/core/lv_refr.c ****     lv_event_send(obj, LV_EVENT_COVER_CHECK, &info);
 820:Drivers/lvgl/src/core/lv_refr.c ****     if(info.res == LV_COVER_RES_MASKED) return NULL;
 821:Drivers/lvgl/src/core/lv_refr.c **** 
 822:Drivers/lvgl/src/core/lv_refr.c ****     int32_t i;
 823:Drivers/lvgl/src/core/lv_refr.c ****     int32_t child_cnt = lv_obj_get_child_cnt(obj);
 824:Drivers/lvgl/src/core/lv_refr.c ****     for(i = child_cnt - 1; i >= 0; i--) {
 825:Drivers/lvgl/src/core/lv_refr.c ****         lv_obj_t * child = obj->spec_attr->children[i];
 826:Drivers/lvgl/src/core/lv_refr.c ****         found_p = lv_refr_get_top_obj(area_p, child);
 827:Drivers/lvgl/src/core/lv_refr.c **** 
 828:Drivers/lvgl/src/core/lv_refr.c ****         /*If a children is ok then break*/
ARM GAS  /var/folders/0z/tsy30v1j4xl4_7kw94k978ww0000gn/T//ccRTPM70.s 			page 16


 829:Drivers/lvgl/src/core/lv_refr.c ****         if(found_p != NULL) {
 830:Drivers/lvgl/src/core/lv_refr.c ****             break;
 831:Drivers/lvgl/src/core/lv_refr.c ****         }
 832:Drivers/lvgl/src/core/lv_refr.c ****     }
 833:Drivers/lvgl/src/core/lv_refr.c **** 
 834:Drivers/lvgl/src/core/lv_refr.c ****     /*If no better children use this object*/
 835:Drivers/lvgl/src/core/lv_refr.c ****     if(found_p == NULL && info.res == LV_COVER_RES_COVER) {
 836:Drivers/lvgl/src/core/lv_refr.c ****         found_p = obj;
 837:Drivers/lvgl/src/core/lv_refr.c ****     }
 838:Drivers/lvgl/src/core/lv_refr.c **** 
 839:Drivers/lvgl/src/core/lv_refr.c ****     return found_p;
 840:Drivers/lvgl/src/core/lv_refr.c **** }
 841:Drivers/lvgl/src/core/lv_refr.c **** 
 842:Drivers/lvgl/src/core/lv_refr.c **** /**
 843:Drivers/lvgl/src/core/lv_refr.c ****  * Make the refreshing from an object. Draw all its children and the youngers too.
 844:Drivers/lvgl/src/core/lv_refr.c ****  * @param top_p pointer to an objects. Start the drawing from it.
 845:Drivers/lvgl/src/core/lv_refr.c ****  * @param mask_p pointer to an area, the objects will be drawn only here
 846:Drivers/lvgl/src/core/lv_refr.c ****  */
 847:Drivers/lvgl/src/core/lv_refr.c **** static void refr_obj_and_children(lv_draw_ctx_t * draw_ctx, lv_obj_t * top_obj)
 848:Drivers/lvgl/src/core/lv_refr.c **** {
 849:Drivers/lvgl/src/core/lv_refr.c ****     /*Normally always will be a top_obj (at least the screen)
 850:Drivers/lvgl/src/core/lv_refr.c ****      *but in special cases (e.g. if the screen has alpha) it won't.
 851:Drivers/lvgl/src/core/lv_refr.c ****      *In this case use the screen directly*/
 852:Drivers/lvgl/src/core/lv_refr.c ****     if(top_obj == NULL) top_obj = lv_disp_get_scr_act(disp_refr);
 853:Drivers/lvgl/src/core/lv_refr.c ****     if(top_obj == NULL) return;  /*Shouldn't happen*/
 854:Drivers/lvgl/src/core/lv_refr.c **** 
 855:Drivers/lvgl/src/core/lv_refr.c ****     /*Refresh the top object and its children*/
 856:Drivers/lvgl/src/core/lv_refr.c ****     refr_obj(draw_ctx, top_obj);
 857:Drivers/lvgl/src/core/lv_refr.c **** 
 858:Drivers/lvgl/src/core/lv_refr.c ****     /*Draw the 'younger' sibling objects because they can be on top_obj*/
 859:Drivers/lvgl/src/core/lv_refr.c ****     lv_obj_t * parent;
 860:Drivers/lvgl/src/core/lv_refr.c ****     lv_obj_t * border_p = top_obj;
 861:Drivers/lvgl/src/core/lv_refr.c **** 
 862:Drivers/lvgl/src/core/lv_refr.c ****     parent = lv_obj_get_parent(top_obj);
 863:Drivers/lvgl/src/core/lv_refr.c **** 
 864:Drivers/lvgl/src/core/lv_refr.c ****     /*Do until not reach the screen*/
 865:Drivers/lvgl/src/core/lv_refr.c ****     while(parent != NULL) {
 866:Drivers/lvgl/src/core/lv_refr.c ****         bool go = false;
 867:Drivers/lvgl/src/core/lv_refr.c ****         uint32_t i;
 868:Drivers/lvgl/src/core/lv_refr.c ****         uint32_t child_cnt = lv_obj_get_child_cnt(parent);
 869:Drivers/lvgl/src/core/lv_refr.c ****         for(i = 0; i < child_cnt; i++) {
 870:Drivers/lvgl/src/core/lv_refr.c ****             lv_obj_t * child = parent->spec_attr->children[i];
 871:Drivers/lvgl/src/core/lv_refr.c ****             if(!go) {
 872:Drivers/lvgl/src/core/lv_refr.c ****                 if(child == border_p) go = true;
 873:Drivers/lvgl/src/core/lv_refr.c ****             }
 874:Drivers/lvgl/src/core/lv_refr.c ****             else {
 875:Drivers/lvgl/src/core/lv_refr.c ****                 /*Refresh the objects*/
 876:Drivers/lvgl/src/core/lv_refr.c ****                 refr_obj(draw_ctx, child);
 877:Drivers/lvgl/src/core/lv_refr.c ****             }
 878:Drivers/lvgl/src/core/lv_refr.c ****         }
 879:Drivers/lvgl/src/core/lv_refr.c **** 
 880:Drivers/lvgl/src/core/lv_refr.c ****         /*Call the post draw draw function of the parents of the to object*/
 881:Drivers/lvgl/src/core/lv_refr.c ****         lv_event_send(parent, LV_EVENT_DRAW_POST_BEGIN, (void *)draw_ctx);
 882:Drivers/lvgl/src/core/lv_refr.c ****         lv_event_send(parent, LV_EVENT_DRAW_POST, (void *)draw_ctx);
 883:Drivers/lvgl/src/core/lv_refr.c ****         lv_event_send(parent, LV_EVENT_DRAW_POST_END, (void *)draw_ctx);
 884:Drivers/lvgl/src/core/lv_refr.c **** 
 885:Drivers/lvgl/src/core/lv_refr.c ****         /*The new border will be the last parents,
ARM GAS  /var/folders/0z/tsy30v1j4xl4_7kw94k978ww0000gn/T//ccRTPM70.s 			page 17


 886:Drivers/lvgl/src/core/lv_refr.c ****          *so the 'younger' brothers of parent will be refreshed*/
 887:Drivers/lvgl/src/core/lv_refr.c ****         border_p = parent;
 888:Drivers/lvgl/src/core/lv_refr.c ****         /*Go a level deeper*/
 889:Drivers/lvgl/src/core/lv_refr.c ****         parent = lv_obj_get_parent(parent);
 890:Drivers/lvgl/src/core/lv_refr.c ****     }
 891:Drivers/lvgl/src/core/lv_refr.c **** }
 892:Drivers/lvgl/src/core/lv_refr.c **** 
 893:Drivers/lvgl/src/core/lv_refr.c **** 
 894:Drivers/lvgl/src/core/lv_refr.c **** static lv_res_t layer_get_area(lv_draw_ctx_t * draw_ctx, lv_obj_t * obj, lv_layer_type_t layer_type
 895:Drivers/lvgl/src/core/lv_refr.c ****                                lv_area_t * layer_area_out)
 896:Drivers/lvgl/src/core/lv_refr.c **** {
 897:Drivers/lvgl/src/core/lv_refr.c ****     lv_coord_t ext_draw_size = _lv_obj_get_ext_draw_size(obj);
 898:Drivers/lvgl/src/core/lv_refr.c ****     lv_area_t obj_coords_ext;
 899:Drivers/lvgl/src/core/lv_refr.c ****     lv_obj_get_coords(obj, &obj_coords_ext);
 900:Drivers/lvgl/src/core/lv_refr.c ****     lv_area_increase(&obj_coords_ext, ext_draw_size, ext_draw_size);
 901:Drivers/lvgl/src/core/lv_refr.c **** 
 902:Drivers/lvgl/src/core/lv_refr.c ****     if(layer_type == LV_LAYER_TYPE_TRANSFORM) {
 903:Drivers/lvgl/src/core/lv_refr.c ****         /*Get the transformed area and clip it to the current clip area.
 904:Drivers/lvgl/src/core/lv_refr.c ****          *This area needs to be updated on the screen.*/
 905:Drivers/lvgl/src/core/lv_refr.c ****         lv_area_t clip_coords_for_obj;
 906:Drivers/lvgl/src/core/lv_refr.c ****         lv_area_t tranf_coords = obj_coords_ext;
 907:Drivers/lvgl/src/core/lv_refr.c ****         lv_obj_get_transformed_area(obj, &tranf_coords, false, false);
 908:Drivers/lvgl/src/core/lv_refr.c ****         if(!_lv_area_intersect(&clip_coords_for_obj, draw_ctx->clip_area, &tranf_coords)) {
 909:Drivers/lvgl/src/core/lv_refr.c ****             return LV_RES_INV;
 910:Drivers/lvgl/src/core/lv_refr.c ****         }
 911:Drivers/lvgl/src/core/lv_refr.c **** 
 912:Drivers/lvgl/src/core/lv_refr.c ****         /*Transform back (inverse) the transformed area.
 913:Drivers/lvgl/src/core/lv_refr.c ****          *It will tell which area of the non-transformed widget needs to be redrawn
 914:Drivers/lvgl/src/core/lv_refr.c ****          *in order to cover transformed area after transformation.*/
 915:Drivers/lvgl/src/core/lv_refr.c ****         lv_area_t inverse_clip_coords_for_obj = clip_coords_for_obj;
 916:Drivers/lvgl/src/core/lv_refr.c ****         lv_obj_get_transformed_area(obj, &inverse_clip_coords_for_obj, false, true);
 917:Drivers/lvgl/src/core/lv_refr.c ****         if(!_lv_area_intersect(&inverse_clip_coords_for_obj, &inverse_clip_coords_for_obj, &obj_coo
 918:Drivers/lvgl/src/core/lv_refr.c ****             return LV_RES_INV;
 919:Drivers/lvgl/src/core/lv_refr.c ****         }
 920:Drivers/lvgl/src/core/lv_refr.c **** 
 921:Drivers/lvgl/src/core/lv_refr.c ****         *layer_area_out = inverse_clip_coords_for_obj;
 922:Drivers/lvgl/src/core/lv_refr.c ****     }
 923:Drivers/lvgl/src/core/lv_refr.c ****     else if(layer_type == LV_LAYER_TYPE_SIMPLE) {
 924:Drivers/lvgl/src/core/lv_refr.c ****         lv_area_t clip_coords_for_obj;
 925:Drivers/lvgl/src/core/lv_refr.c ****         if(!_lv_area_intersect(&clip_coords_for_obj, draw_ctx->clip_area, &obj_coords_ext)) {
 926:Drivers/lvgl/src/core/lv_refr.c ****             return LV_RES_INV;
 927:Drivers/lvgl/src/core/lv_refr.c ****         }
 928:Drivers/lvgl/src/core/lv_refr.c ****         *layer_area_out = clip_coords_for_obj;
 929:Drivers/lvgl/src/core/lv_refr.c ****     }
 930:Drivers/lvgl/src/core/lv_refr.c ****     else {
 931:Drivers/lvgl/src/core/lv_refr.c ****         LV_LOG_WARN("Unhandled intermediate layer type");
 932:Drivers/lvgl/src/core/lv_refr.c ****         return LV_RES_INV;
 933:Drivers/lvgl/src/core/lv_refr.c ****     }
 934:Drivers/lvgl/src/core/lv_refr.c **** 
 935:Drivers/lvgl/src/core/lv_refr.c ****     return LV_RES_OK;
 936:Drivers/lvgl/src/core/lv_refr.c **** }
 937:Drivers/lvgl/src/core/lv_refr.c **** 
 938:Drivers/lvgl/src/core/lv_refr.c **** static void layer_alpha_test(lv_obj_t * obj, lv_draw_ctx_t * draw_ctx, lv_draw_layer_ctx_t * layer_
 939:Drivers/lvgl/src/core/lv_refr.c ****                              lv_draw_layer_flags_t flags)
 940:Drivers/lvgl/src/core/lv_refr.c **** {
 941:Drivers/lvgl/src/core/lv_refr.c ****     bool has_alpha;
 942:Drivers/lvgl/src/core/lv_refr.c ****     /*If globally the layer has alpha maybe this smaller section has not (e.g. not on a rounded cor
ARM GAS  /var/folders/0z/tsy30v1j4xl4_7kw94k978ww0000gn/T//ccRTPM70.s 			page 18


 943:Drivers/lvgl/src/core/lv_refr.c ****      *If turns out that this section has no alpha renderer can choose faster algorithms*/
 944:Drivers/lvgl/src/core/lv_refr.c ****     if(flags & LV_DRAW_LAYER_FLAG_HAS_ALPHA) {
 945:Drivers/lvgl/src/core/lv_refr.c ****         /*Test for alpha by assuming there is no alpha. If it fails, fall back to rendering with al
 946:Drivers/lvgl/src/core/lv_refr.c ****         has_alpha = true;
 947:Drivers/lvgl/src/core/lv_refr.c ****         if(_lv_area_is_in(&layer_ctx->area_act, &obj->coords, 0)) {
 948:Drivers/lvgl/src/core/lv_refr.c ****             lv_cover_check_info_t info;
 949:Drivers/lvgl/src/core/lv_refr.c ****             info.res = LV_COVER_RES_COVER;
 950:Drivers/lvgl/src/core/lv_refr.c ****             info.area = &layer_ctx->area_act;
 951:Drivers/lvgl/src/core/lv_refr.c ****             lv_event_send(obj, LV_EVENT_COVER_CHECK, &info);
 952:Drivers/lvgl/src/core/lv_refr.c ****             if(info.res == LV_COVER_RES_COVER) has_alpha = false;
 953:Drivers/lvgl/src/core/lv_refr.c ****         }
 954:Drivers/lvgl/src/core/lv_refr.c **** 
 955:Drivers/lvgl/src/core/lv_refr.c ****         if(has_alpha) {
 956:Drivers/lvgl/src/core/lv_refr.c ****             layer_ctx->area_act.y2 = layer_ctx->area_act.y1 + layer_ctx->max_row_with_alpha - 1;
 957:Drivers/lvgl/src/core/lv_refr.c ****         }
 958:Drivers/lvgl/src/core/lv_refr.c ****     }
 959:Drivers/lvgl/src/core/lv_refr.c ****     else {
 960:Drivers/lvgl/src/core/lv_refr.c ****         has_alpha = false;
 961:Drivers/lvgl/src/core/lv_refr.c ****     }
 962:Drivers/lvgl/src/core/lv_refr.c **** 
 963:Drivers/lvgl/src/core/lv_refr.c ****     if(layer_ctx->area_act.y2 > layer_ctx->area_full.y2) layer_ctx->area_act.y2 = layer_ctx->area_f
 964:Drivers/lvgl/src/core/lv_refr.c ****     lv_draw_layer_adjust(draw_ctx, layer_ctx, has_alpha ? LV_DRAW_LAYER_FLAG_HAS_ALPHA : LV_DRAW_LA
 965:Drivers/lvgl/src/core/lv_refr.c **** }
 966:Drivers/lvgl/src/core/lv_refr.c **** 
 967:Drivers/lvgl/src/core/lv_refr.c **** 
 968:Drivers/lvgl/src/core/lv_refr.c **** void refr_obj(lv_draw_ctx_t * draw_ctx, lv_obj_t * obj)
 969:Drivers/lvgl/src/core/lv_refr.c **** {
 970:Drivers/lvgl/src/core/lv_refr.c ****     /*Do not refresh hidden objects*/
 971:Drivers/lvgl/src/core/lv_refr.c ****     if(lv_obj_has_flag(obj, LV_OBJ_FLAG_HIDDEN)) return;
 972:Drivers/lvgl/src/core/lv_refr.c ****     lv_layer_type_t layer_type = _lv_obj_get_layer_type(obj);
 973:Drivers/lvgl/src/core/lv_refr.c ****     if(layer_type == LV_LAYER_TYPE_NONE) {
 974:Drivers/lvgl/src/core/lv_refr.c ****         lv_obj_redraw(draw_ctx, obj);
 975:Drivers/lvgl/src/core/lv_refr.c ****     }
 976:Drivers/lvgl/src/core/lv_refr.c ****     else {
 977:Drivers/lvgl/src/core/lv_refr.c ****         lv_opa_t opa = lv_obj_get_style_opa_layered(obj, 0);
 978:Drivers/lvgl/src/core/lv_refr.c ****         if(opa < LV_OPA_MIN) return;
 979:Drivers/lvgl/src/core/lv_refr.c **** 
 980:Drivers/lvgl/src/core/lv_refr.c ****         lv_area_t layer_area_full;
 981:Drivers/lvgl/src/core/lv_refr.c ****         lv_res_t res = layer_get_area(draw_ctx, obj, layer_type, &layer_area_full);
 982:Drivers/lvgl/src/core/lv_refr.c ****         if(res != LV_RES_OK) return;
 983:Drivers/lvgl/src/core/lv_refr.c **** 
 984:Drivers/lvgl/src/core/lv_refr.c ****         lv_draw_layer_flags_t flags = LV_DRAW_LAYER_FLAG_HAS_ALPHA;
 985:Drivers/lvgl/src/core/lv_refr.c **** 
 986:Drivers/lvgl/src/core/lv_refr.c ****         if(_lv_area_is_in(&layer_area_full, &obj->coords, 0)) {
 987:Drivers/lvgl/src/core/lv_refr.c ****             lv_cover_check_info_t info;
 988:Drivers/lvgl/src/core/lv_refr.c ****             info.res = LV_COVER_RES_COVER;
 989:Drivers/lvgl/src/core/lv_refr.c ****             info.area = &layer_area_full;
 990:Drivers/lvgl/src/core/lv_refr.c ****             lv_event_send(obj, LV_EVENT_COVER_CHECK, &info);
 991:Drivers/lvgl/src/core/lv_refr.c ****             if(info.res == LV_COVER_RES_COVER) flags &= ~LV_DRAW_LAYER_FLAG_HAS_ALPHA;
 992:Drivers/lvgl/src/core/lv_refr.c ****         }
 993:Drivers/lvgl/src/core/lv_refr.c **** 
 994:Drivers/lvgl/src/core/lv_refr.c ****         if(layer_type == LV_LAYER_TYPE_SIMPLE) flags |= LV_DRAW_LAYER_FLAG_CAN_SUBDIVIDE;
 995:Drivers/lvgl/src/core/lv_refr.c **** 
 996:Drivers/lvgl/src/core/lv_refr.c ****         lv_draw_layer_ctx_t * layer_ctx = lv_draw_layer_create(draw_ctx, &layer_area_full, flags);
 997:Drivers/lvgl/src/core/lv_refr.c ****         if(layer_ctx == NULL) {
 998:Drivers/lvgl/src/core/lv_refr.c ****             LV_LOG_WARN("Couldn't create a new layer context");
 999:Drivers/lvgl/src/core/lv_refr.c ****             return;
ARM GAS  /var/folders/0z/tsy30v1j4xl4_7kw94k978ww0000gn/T//ccRTPM70.s 			page 19


1000:Drivers/lvgl/src/core/lv_refr.c ****         }
1001:Drivers/lvgl/src/core/lv_refr.c ****         lv_point_t pivot = {
1002:Drivers/lvgl/src/core/lv_refr.c ****             .x = lv_obj_get_style_transform_pivot_x(obj, 0),
1003:Drivers/lvgl/src/core/lv_refr.c ****             .y = lv_obj_get_style_transform_pivot_y(obj, 0)
1004:Drivers/lvgl/src/core/lv_refr.c ****         };
1005:Drivers/lvgl/src/core/lv_refr.c **** 
1006:Drivers/lvgl/src/core/lv_refr.c ****         if(LV_COORD_IS_PCT(pivot.x)) {
1007:Drivers/lvgl/src/core/lv_refr.c ****             pivot.x = (LV_COORD_GET_PCT(pivot.x) * lv_area_get_width(&obj->coords)) / 100;
1008:Drivers/lvgl/src/core/lv_refr.c ****         }
1009:Drivers/lvgl/src/core/lv_refr.c ****         if(LV_COORD_IS_PCT(pivot.y)) {
1010:Drivers/lvgl/src/core/lv_refr.c ****             pivot.y = (LV_COORD_GET_PCT(pivot.y) * lv_area_get_height(&obj->coords)) / 100;
1011:Drivers/lvgl/src/core/lv_refr.c ****         }
1012:Drivers/lvgl/src/core/lv_refr.c **** 
1013:Drivers/lvgl/src/core/lv_refr.c ****         lv_draw_img_dsc_t draw_dsc;
1014:Drivers/lvgl/src/core/lv_refr.c ****         lv_draw_img_dsc_init(&draw_dsc);
1015:Drivers/lvgl/src/core/lv_refr.c ****         draw_dsc.opa = opa;
1016:Drivers/lvgl/src/core/lv_refr.c ****         draw_dsc.angle = lv_obj_get_style_transform_angle(obj, 0);
1017:Drivers/lvgl/src/core/lv_refr.c ****         if(draw_dsc.angle > 3600) draw_dsc.angle -= 3600;
1018:Drivers/lvgl/src/core/lv_refr.c ****         else if(draw_dsc.angle < 0) draw_dsc.angle += 3600;
1019:Drivers/lvgl/src/core/lv_refr.c **** 
1020:Drivers/lvgl/src/core/lv_refr.c ****         draw_dsc.zoom = lv_obj_get_style_transform_zoom(obj, 0);
1021:Drivers/lvgl/src/core/lv_refr.c ****         draw_dsc.blend_mode = lv_obj_get_style_blend_mode(obj, 0);
1022:Drivers/lvgl/src/core/lv_refr.c ****         draw_dsc.antialias = disp_refr->driver->antialiasing;
1023:Drivers/lvgl/src/core/lv_refr.c **** 
1024:Drivers/lvgl/src/core/lv_refr.c ****         if(flags & LV_DRAW_LAYER_FLAG_CAN_SUBDIVIDE) {
1025:Drivers/lvgl/src/core/lv_refr.c ****             layer_ctx->area_act = layer_ctx->area_full;
1026:Drivers/lvgl/src/core/lv_refr.c ****             layer_ctx->area_act.y2 = layer_ctx->area_act.y1 + layer_ctx->max_row_with_no_alpha - 1;
1027:Drivers/lvgl/src/core/lv_refr.c ****             if(layer_ctx->area_act.y2 > layer_ctx->area_full.y2) layer_ctx->area_act.y2 = layer_ctx
1028:Drivers/lvgl/src/core/lv_refr.c ****         }
1029:Drivers/lvgl/src/core/lv_refr.c **** 
1030:Drivers/lvgl/src/core/lv_refr.c ****         while(layer_ctx->area_act.y1 <= layer_area_full.y2) {
1031:Drivers/lvgl/src/core/lv_refr.c ****             if(flags & LV_DRAW_LAYER_FLAG_CAN_SUBDIVIDE) {
1032:Drivers/lvgl/src/core/lv_refr.c ****                 layer_alpha_test(obj, draw_ctx, layer_ctx, flags);
1033:Drivers/lvgl/src/core/lv_refr.c ****             }
1034:Drivers/lvgl/src/core/lv_refr.c **** 
1035:Drivers/lvgl/src/core/lv_refr.c ****             lv_obj_redraw(draw_ctx, obj);
1036:Drivers/lvgl/src/core/lv_refr.c **** 
1037:Drivers/lvgl/src/core/lv_refr.c ****             draw_dsc.pivot.x = obj->coords.x1 + pivot.x - draw_ctx->buf_area->x1;
1038:Drivers/lvgl/src/core/lv_refr.c ****             draw_dsc.pivot.y = obj->coords.y1 + pivot.y - draw_ctx->buf_area->y1;
1039:Drivers/lvgl/src/core/lv_refr.c **** 
1040:Drivers/lvgl/src/core/lv_refr.c ****             /*With LV_DRAW_LAYER_FLAG_CAN_SUBDIVIDE it should also go the next chunk*/
1041:Drivers/lvgl/src/core/lv_refr.c ****             lv_draw_layer_blend(draw_ctx, layer_ctx, &draw_dsc);
1042:Drivers/lvgl/src/core/lv_refr.c **** 
1043:Drivers/lvgl/src/core/lv_refr.c ****             if((flags & LV_DRAW_LAYER_FLAG_CAN_SUBDIVIDE) == 0) break;
1044:Drivers/lvgl/src/core/lv_refr.c **** 
1045:Drivers/lvgl/src/core/lv_refr.c ****             layer_ctx->area_act.y1 = layer_ctx->area_act.y2 + 1;
1046:Drivers/lvgl/src/core/lv_refr.c ****             layer_ctx->area_act.y2 = layer_ctx->area_act.y1 + layer_ctx->max_row_with_no_alpha - 1;
1047:Drivers/lvgl/src/core/lv_refr.c ****         }
1048:Drivers/lvgl/src/core/lv_refr.c **** 
1049:Drivers/lvgl/src/core/lv_refr.c ****         lv_draw_layer_destroy(draw_ctx, layer_ctx);
1050:Drivers/lvgl/src/core/lv_refr.c ****     }
1051:Drivers/lvgl/src/core/lv_refr.c **** }
1052:Drivers/lvgl/src/core/lv_refr.c **** 
1053:Drivers/lvgl/src/core/lv_refr.c **** 
1054:Drivers/lvgl/src/core/lv_refr.c **** static uint32_t get_max_row(lv_disp_t * disp, lv_coord_t area_w, lv_coord_t area_h)
1055:Drivers/lvgl/src/core/lv_refr.c **** {
  29              		.loc 1 1055 1 view -0
ARM GAS  /var/folders/0z/tsy30v1j4xl4_7kw94k978ww0000gn/T//ccRTPM70.s 			page 20


  30              		.cfi_startproc
  31              		@ args = 0, pretend = 0, frame = 8
  32              		@ frame_needed = 0, uses_anonymous_args = 0
  33              		.loc 1 1055 1 is_stmt 0 view .LVU1
  34 0000 70B5     		push	{r4, r5, r6, lr}
  35              		.cfi_def_cfa_offset 16
  36              		.cfi_offset 4, -16
  37              		.cfi_offset 5, -12
  38              		.cfi_offset 6, -8
  39              		.cfi_offset 14, -4
  40 0002 82B0     		sub	sp, sp, #8
  41              		.cfi_def_cfa_offset 24
1056:Drivers/lvgl/src/core/lv_refr.c ****     int32_t max_row = (uint32_t)disp->driver->draw_buf->size / area_w;
  42              		.loc 1 1056 5 is_stmt 1 view .LVU2
  43              		.loc 1 1056 37 is_stmt 0 view .LVU3
  44 0004 0368     		ldr	r3, [r0]
  45              		.loc 1 1056 45 view .LVU4
  46 0006 DB68     		ldr	r3, [r3, #12]
  47              		.loc 1 1056 55 view .LVU5
  48 0008 DB68     		ldr	r3, [r3, #12]
  49              		.loc 1 1056 62 view .LVU6
  50 000a B3FBF1F1 		udiv	r1, r3, r1
  51              	.LVL1:
1057:Drivers/lvgl/src/core/lv_refr.c **** 
1058:Drivers/lvgl/src/core/lv_refr.c ****     if(max_row > area_h) max_row = area_h;
  52              		.loc 1 1058 5 is_stmt 1 view .LVU7
  53              		.loc 1 1058 16 is_stmt 0 view .LVU8
  54 000e 1546     		mov	r5, r2
  55              		.loc 1 1058 7 view .LVU9
  56 0010 8A42     		cmp	r2, r1
  57 0012 00DB     		blt	.L2
1056:Drivers/lvgl/src/core/lv_refr.c ****     int32_t max_row = (uint32_t)disp->driver->draw_buf->size / area_w;
  58              		.loc 1 1056 13 view .LVU10
  59 0014 0D46     		mov	r5, r1
  60              	.L2:
  61              	.LVL2:
1059:Drivers/lvgl/src/core/lv_refr.c **** 
1060:Drivers/lvgl/src/core/lv_refr.c ****     /*Round down the lines of draw_buf if rounding is added*/
1061:Drivers/lvgl/src/core/lv_refr.c ****     if(disp_refr->driver->rounder_cb) {
  62              		.loc 1 1061 5 is_stmt 1 view .LVU11
  63              		.loc 1 1061 17 is_stmt 0 view .LVU12
  64 0016 174B     		ldr	r3, .L10
  65 0018 1B68     		ldr	r3, [r3]
  66 001a 1B68     		ldr	r3, [r3]
  67              		.loc 1 1061 25 view .LVU13
  68 001c 9B69     		ldr	r3, [r3, #24]
  69              		.loc 1 1061 7 view .LVU14
  70 001e 1BB3     		cbz	r3, .L3
  71              	.LBB75:
1062:Drivers/lvgl/src/core/lv_refr.c ****         lv_area_t tmp;
  72              		.loc 1 1062 9 is_stmt 1 view .LVU15
1063:Drivers/lvgl/src/core/lv_refr.c ****         tmp.x1 = 0;
  73              		.loc 1 1063 9 view .LVU16
  74              		.loc 1 1063 16 is_stmt 0 view .LVU17
  75 0020 0023     		movs	r3, #0
  76 0022 ADF80030 		strh	r3, [sp]	@ movhi
1064:Drivers/lvgl/src/core/lv_refr.c ****         tmp.x2 = 0;
ARM GAS  /var/folders/0z/tsy30v1j4xl4_7kw94k978ww0000gn/T//ccRTPM70.s 			page 21


  77              		.loc 1 1064 9 is_stmt 1 view .LVU18
  78              		.loc 1 1064 16 is_stmt 0 view .LVU19
  79 0026 ADF80430 		strh	r3, [sp, #4]	@ movhi
1065:Drivers/lvgl/src/core/lv_refr.c ****         tmp.y1 = 0;
  80              		.loc 1 1065 9 is_stmt 1 view .LVU20
  81              		.loc 1 1065 16 is_stmt 0 view .LVU21
  82 002a ADF80230 		strh	r3, [sp, #2]	@ movhi
1066:Drivers/lvgl/src/core/lv_refr.c **** 
1067:Drivers/lvgl/src/core/lv_refr.c ****         lv_coord_t h_tmp = max_row;
  83              		.loc 1 1067 9 is_stmt 1 view .LVU22
  84              		.loc 1 1067 20 is_stmt 0 view .LVU23
  85 002e 2CB2     		sxth	r4, r5
  86              	.LVL3:
  87              	.L5:
1068:Drivers/lvgl/src/core/lv_refr.c ****         do {
  88              		.loc 1 1068 9 is_stmt 1 view .LVU24
1069:Drivers/lvgl/src/core/lv_refr.c ****             tmp.y2 = h_tmp - 1;
  89              		.loc 1 1069 13 view .LVU25
  90 0030 2646     		mov	r6, r4
  91              		.loc 1 1069 28 is_stmt 0 view .LVU26
  92 0032 013C     		subs	r4, r4, #1
  93              	.LVL4:
  94              		.loc 1 1069 28 view .LVU27
  95 0034 24B2     		sxth	r4, r4
  96              		.loc 1 1069 20 view .LVU28
  97 0036 ADF80640 		strh	r4, [sp, #6]	@ movhi
1070:Drivers/lvgl/src/core/lv_refr.c ****             disp_refr->driver->rounder_cb(disp_refr->driver, &tmp);
  98              		.loc 1 1070 13 is_stmt 1 view .LVU29
  99              		.loc 1 1070 22 is_stmt 0 view .LVU30
 100 003a 0E4B     		ldr	r3, .L10
 101 003c 1B68     		ldr	r3, [r3]
 102 003e 1868     		ldr	r0, [r3]
 103              		.loc 1 1070 30 view .LVU31
 104 0040 8369     		ldr	r3, [r0, #24]
 105              		.loc 1 1070 13 view .LVU32
 106 0042 6946     		mov	r1, sp
 107 0044 9847     		blx	r3
 108              	.LVL5:
1071:Drivers/lvgl/src/core/lv_refr.c **** 
1072:Drivers/lvgl/src/core/lv_refr.c ****             /*If this height fits into `max_row` then fine*/
1073:Drivers/lvgl/src/core/lv_refr.c ****             if(lv_area_get_height(&tmp) <= max_row) break;
 109              		.loc 1 1073 13 is_stmt 1 view .LVU33
 110              	.LBB76:
 111              	.LBI76:
 112              		.file 2 "Drivers/lvgl/src/core/../misc/../font/../misc/lv_area.h"
   1:Drivers/lvgl/src/core/../misc/../font/../misc/lv_area.h **** /**
   2:Drivers/lvgl/src/core/../misc/../font/../misc/lv_area.h ****  * @file lv_area.h
   3:Drivers/lvgl/src/core/../misc/../font/../misc/lv_area.h ****  *
   4:Drivers/lvgl/src/core/../misc/../font/../misc/lv_area.h ****  */
   5:Drivers/lvgl/src/core/../misc/../font/../misc/lv_area.h **** 
   6:Drivers/lvgl/src/core/../misc/../font/../misc/lv_area.h **** #ifndef LV_AREA_H
   7:Drivers/lvgl/src/core/../misc/../font/../misc/lv_area.h **** #define LV_AREA_H
   8:Drivers/lvgl/src/core/../misc/../font/../misc/lv_area.h **** 
   9:Drivers/lvgl/src/core/../misc/../font/../misc/lv_area.h **** #ifdef __cplusplus
  10:Drivers/lvgl/src/core/../misc/../font/../misc/lv_area.h **** extern "C" {
  11:Drivers/lvgl/src/core/../misc/../font/../misc/lv_area.h **** #endif
  12:Drivers/lvgl/src/core/../misc/../font/../misc/lv_area.h **** 
ARM GAS  /var/folders/0z/tsy30v1j4xl4_7kw94k978ww0000gn/T//ccRTPM70.s 			page 22


  13:Drivers/lvgl/src/core/../misc/../font/../misc/lv_area.h **** /*********************
  14:Drivers/lvgl/src/core/../misc/../font/../misc/lv_area.h ****  *      INCLUDES
  15:Drivers/lvgl/src/core/../misc/../font/../misc/lv_area.h ****  *********************/
  16:Drivers/lvgl/src/core/../misc/../font/../misc/lv_area.h **** #include "../lv_conf_internal.h"
  17:Drivers/lvgl/src/core/../misc/../font/../misc/lv_area.h **** #include <stdbool.h>
  18:Drivers/lvgl/src/core/../misc/../font/../misc/lv_area.h **** #include <stdint.h>
  19:Drivers/lvgl/src/core/../misc/../font/../misc/lv_area.h **** 
  20:Drivers/lvgl/src/core/../misc/../font/../misc/lv_area.h **** /*********************
  21:Drivers/lvgl/src/core/../misc/../font/../misc/lv_area.h ****  *      DEFINES
  22:Drivers/lvgl/src/core/../misc/../font/../misc/lv_area.h ****  *********************/
  23:Drivers/lvgl/src/core/../misc/../font/../misc/lv_area.h **** 
  24:Drivers/lvgl/src/core/../misc/../font/../misc/lv_area.h **** #if LV_USE_LARGE_COORD
  25:Drivers/lvgl/src/core/../misc/../font/../misc/lv_area.h **** typedef int32_t lv_coord_t;
  26:Drivers/lvgl/src/core/../misc/../font/../misc/lv_area.h **** #else
  27:Drivers/lvgl/src/core/../misc/../font/../misc/lv_area.h **** typedef int16_t lv_coord_t;
  28:Drivers/lvgl/src/core/../misc/../font/../misc/lv_area.h **** #endif
  29:Drivers/lvgl/src/core/../misc/../font/../misc/lv_area.h **** 
  30:Drivers/lvgl/src/core/../misc/../font/../misc/lv_area.h **** /**********************
  31:Drivers/lvgl/src/core/../misc/../font/../misc/lv_area.h ****  *      TYPEDEFS
  32:Drivers/lvgl/src/core/../misc/../font/../misc/lv_area.h ****  **********************/
  33:Drivers/lvgl/src/core/../misc/../font/../misc/lv_area.h **** 
  34:Drivers/lvgl/src/core/../misc/../font/../misc/lv_area.h **** /**
  35:Drivers/lvgl/src/core/../misc/../font/../misc/lv_area.h ****  * Represents a point on the screen.
  36:Drivers/lvgl/src/core/../misc/../font/../misc/lv_area.h ****  */
  37:Drivers/lvgl/src/core/../misc/../font/../misc/lv_area.h **** typedef struct {
  38:Drivers/lvgl/src/core/../misc/../font/../misc/lv_area.h ****     lv_coord_t x;
  39:Drivers/lvgl/src/core/../misc/../font/../misc/lv_area.h ****     lv_coord_t y;
  40:Drivers/lvgl/src/core/../misc/../font/../misc/lv_area.h **** } lv_point_t;
  41:Drivers/lvgl/src/core/../misc/../font/../misc/lv_area.h **** 
  42:Drivers/lvgl/src/core/../misc/../font/../misc/lv_area.h **** /** Represents an area of the screen.*/
  43:Drivers/lvgl/src/core/../misc/../font/../misc/lv_area.h **** typedef struct {
  44:Drivers/lvgl/src/core/../misc/../font/../misc/lv_area.h ****     lv_coord_t x1;
  45:Drivers/lvgl/src/core/../misc/../font/../misc/lv_area.h ****     lv_coord_t y1;
  46:Drivers/lvgl/src/core/../misc/../font/../misc/lv_area.h ****     lv_coord_t x2;
  47:Drivers/lvgl/src/core/../misc/../font/../misc/lv_area.h ****     lv_coord_t y2;
  48:Drivers/lvgl/src/core/../misc/../font/../misc/lv_area.h **** } lv_area_t;
  49:Drivers/lvgl/src/core/../misc/../font/../misc/lv_area.h **** 
  50:Drivers/lvgl/src/core/../misc/../font/../misc/lv_area.h **** /** Alignments*/
  51:Drivers/lvgl/src/core/../misc/../font/../misc/lv_area.h **** enum {
  52:Drivers/lvgl/src/core/../misc/../font/../misc/lv_area.h ****     LV_ALIGN_DEFAULT = 0,
  53:Drivers/lvgl/src/core/../misc/../font/../misc/lv_area.h ****     LV_ALIGN_TOP_LEFT,
  54:Drivers/lvgl/src/core/../misc/../font/../misc/lv_area.h ****     LV_ALIGN_TOP_MID,
  55:Drivers/lvgl/src/core/../misc/../font/../misc/lv_area.h ****     LV_ALIGN_TOP_RIGHT,
  56:Drivers/lvgl/src/core/../misc/../font/../misc/lv_area.h ****     LV_ALIGN_BOTTOM_LEFT,
  57:Drivers/lvgl/src/core/../misc/../font/../misc/lv_area.h ****     LV_ALIGN_BOTTOM_MID,
  58:Drivers/lvgl/src/core/../misc/../font/../misc/lv_area.h ****     LV_ALIGN_BOTTOM_RIGHT,
  59:Drivers/lvgl/src/core/../misc/../font/../misc/lv_area.h ****     LV_ALIGN_LEFT_MID,
  60:Drivers/lvgl/src/core/../misc/../font/../misc/lv_area.h ****     LV_ALIGN_RIGHT_MID,
  61:Drivers/lvgl/src/core/../misc/../font/../misc/lv_area.h ****     LV_ALIGN_CENTER,
  62:Drivers/lvgl/src/core/../misc/../font/../misc/lv_area.h **** 
  63:Drivers/lvgl/src/core/../misc/../font/../misc/lv_area.h ****     LV_ALIGN_OUT_TOP_LEFT,
  64:Drivers/lvgl/src/core/../misc/../font/../misc/lv_area.h ****     LV_ALIGN_OUT_TOP_MID,
  65:Drivers/lvgl/src/core/../misc/../font/../misc/lv_area.h ****     LV_ALIGN_OUT_TOP_RIGHT,
  66:Drivers/lvgl/src/core/../misc/../font/../misc/lv_area.h ****     LV_ALIGN_OUT_BOTTOM_LEFT,
  67:Drivers/lvgl/src/core/../misc/../font/../misc/lv_area.h ****     LV_ALIGN_OUT_BOTTOM_MID,
  68:Drivers/lvgl/src/core/../misc/../font/../misc/lv_area.h ****     LV_ALIGN_OUT_BOTTOM_RIGHT,
  69:Drivers/lvgl/src/core/../misc/../font/../misc/lv_area.h ****     LV_ALIGN_OUT_LEFT_TOP,
ARM GAS  /var/folders/0z/tsy30v1j4xl4_7kw94k978ww0000gn/T//ccRTPM70.s 			page 23


  70:Drivers/lvgl/src/core/../misc/../font/../misc/lv_area.h ****     LV_ALIGN_OUT_LEFT_MID,
  71:Drivers/lvgl/src/core/../misc/../font/../misc/lv_area.h ****     LV_ALIGN_OUT_LEFT_BOTTOM,
  72:Drivers/lvgl/src/core/../misc/../font/../misc/lv_area.h ****     LV_ALIGN_OUT_RIGHT_TOP,
  73:Drivers/lvgl/src/core/../misc/../font/../misc/lv_area.h ****     LV_ALIGN_OUT_RIGHT_MID,
  74:Drivers/lvgl/src/core/../misc/../font/../misc/lv_area.h ****     LV_ALIGN_OUT_RIGHT_BOTTOM,
  75:Drivers/lvgl/src/core/../misc/../font/../misc/lv_area.h **** };
  76:Drivers/lvgl/src/core/../misc/../font/../misc/lv_area.h **** typedef uint8_t lv_align_t;
  77:Drivers/lvgl/src/core/../misc/../font/../misc/lv_area.h **** 
  78:Drivers/lvgl/src/core/../misc/../font/../misc/lv_area.h **** enum {
  79:Drivers/lvgl/src/core/../misc/../font/../misc/lv_area.h ****     LV_DIR_NONE     = 0x00,
  80:Drivers/lvgl/src/core/../misc/../font/../misc/lv_area.h ****     LV_DIR_LEFT     = (1 << 0),
  81:Drivers/lvgl/src/core/../misc/../font/../misc/lv_area.h ****     LV_DIR_RIGHT    = (1 << 1),
  82:Drivers/lvgl/src/core/../misc/../font/../misc/lv_area.h ****     LV_DIR_TOP      = (1 << 2),
  83:Drivers/lvgl/src/core/../misc/../font/../misc/lv_area.h ****     LV_DIR_BOTTOM   = (1 << 3),
  84:Drivers/lvgl/src/core/../misc/../font/../misc/lv_area.h ****     LV_DIR_HOR      = LV_DIR_LEFT | LV_DIR_RIGHT,
  85:Drivers/lvgl/src/core/../misc/../font/../misc/lv_area.h ****     LV_DIR_VER      = LV_DIR_TOP | LV_DIR_BOTTOM,
  86:Drivers/lvgl/src/core/../misc/../font/../misc/lv_area.h ****     LV_DIR_ALL      = LV_DIR_HOR | LV_DIR_VER,
  87:Drivers/lvgl/src/core/../misc/../font/../misc/lv_area.h **** };
  88:Drivers/lvgl/src/core/../misc/../font/../misc/lv_area.h **** 
  89:Drivers/lvgl/src/core/../misc/../font/../misc/lv_area.h **** typedef uint8_t lv_dir_t;
  90:Drivers/lvgl/src/core/../misc/../font/../misc/lv_area.h **** 
  91:Drivers/lvgl/src/core/../misc/../font/../misc/lv_area.h **** /**********************
  92:Drivers/lvgl/src/core/../misc/../font/../misc/lv_area.h ****  * GLOBAL PROTOTYPES
  93:Drivers/lvgl/src/core/../misc/../font/../misc/lv_area.h ****  **********************/
  94:Drivers/lvgl/src/core/../misc/../font/../misc/lv_area.h **** 
  95:Drivers/lvgl/src/core/../misc/../font/../misc/lv_area.h **** /**
  96:Drivers/lvgl/src/core/../misc/../font/../misc/lv_area.h ****  * Initialize an area
  97:Drivers/lvgl/src/core/../misc/../font/../misc/lv_area.h ****  * @param area_p pointer to an area
  98:Drivers/lvgl/src/core/../misc/../font/../misc/lv_area.h ****  * @param x1 left coordinate of the area
  99:Drivers/lvgl/src/core/../misc/../font/../misc/lv_area.h ****  * @param y1 top coordinate of the area
 100:Drivers/lvgl/src/core/../misc/../font/../misc/lv_area.h ****  * @param x2 right coordinate of the area
 101:Drivers/lvgl/src/core/../misc/../font/../misc/lv_area.h ****  * @param y2 bottom coordinate of the area
 102:Drivers/lvgl/src/core/../misc/../font/../misc/lv_area.h ****  */
 103:Drivers/lvgl/src/core/../misc/../font/../misc/lv_area.h **** void lv_area_set(lv_area_t * area_p, lv_coord_t x1, lv_coord_t y1, lv_coord_t x2, lv_coord_t y2);
 104:Drivers/lvgl/src/core/../misc/../font/../misc/lv_area.h **** 
 105:Drivers/lvgl/src/core/../misc/../font/../misc/lv_area.h **** /**
 106:Drivers/lvgl/src/core/../misc/../font/../misc/lv_area.h ****  * Copy an area
 107:Drivers/lvgl/src/core/../misc/../font/../misc/lv_area.h ****  * @param dest pointer to the destination area
 108:Drivers/lvgl/src/core/../misc/../font/../misc/lv_area.h ****  * @param src pointer to the source area
 109:Drivers/lvgl/src/core/../misc/../font/../misc/lv_area.h ****  */
 110:Drivers/lvgl/src/core/../misc/../font/../misc/lv_area.h **** inline static void lv_area_copy(lv_area_t * dest, const lv_area_t * src)
 111:Drivers/lvgl/src/core/../misc/../font/../misc/lv_area.h **** {
 112:Drivers/lvgl/src/core/../misc/../font/../misc/lv_area.h ****     dest->x1 = src->x1;
 113:Drivers/lvgl/src/core/../misc/../font/../misc/lv_area.h ****     dest->y1 = src->y1;
 114:Drivers/lvgl/src/core/../misc/../font/../misc/lv_area.h ****     dest->x2 = src->x2;
 115:Drivers/lvgl/src/core/../misc/../font/../misc/lv_area.h ****     dest->y2 = src->y2;
 116:Drivers/lvgl/src/core/../misc/../font/../misc/lv_area.h **** }
 117:Drivers/lvgl/src/core/../misc/../font/../misc/lv_area.h **** 
 118:Drivers/lvgl/src/core/../misc/../font/../misc/lv_area.h **** /**
 119:Drivers/lvgl/src/core/../misc/../font/../misc/lv_area.h ****  * Get the width of an area
 120:Drivers/lvgl/src/core/../misc/../font/../misc/lv_area.h ****  * @param area_p pointer to an area
 121:Drivers/lvgl/src/core/../misc/../font/../misc/lv_area.h ****  * @return the width of the area (if x1 == x2 -> width = 1)
 122:Drivers/lvgl/src/core/../misc/../font/../misc/lv_area.h ****  */
 123:Drivers/lvgl/src/core/../misc/../font/../misc/lv_area.h **** static inline lv_coord_t lv_area_get_width(const lv_area_t * area_p)
 124:Drivers/lvgl/src/core/../misc/../font/../misc/lv_area.h **** {
 125:Drivers/lvgl/src/core/../misc/../font/../misc/lv_area.h ****     return (lv_coord_t)(area_p->x2 - area_p->x1 + 1);
 126:Drivers/lvgl/src/core/../misc/../font/../misc/lv_area.h **** }
ARM GAS  /var/folders/0z/tsy30v1j4xl4_7kw94k978ww0000gn/T//ccRTPM70.s 			page 24


 127:Drivers/lvgl/src/core/../misc/../font/../misc/lv_area.h **** 
 128:Drivers/lvgl/src/core/../misc/../font/../misc/lv_area.h **** /**
 129:Drivers/lvgl/src/core/../misc/../font/../misc/lv_area.h ****  * Get the height of an area
 130:Drivers/lvgl/src/core/../misc/../font/../misc/lv_area.h ****  * @param area_p pointer to an area
 131:Drivers/lvgl/src/core/../misc/../font/../misc/lv_area.h ****  * @return the height of the area (if y1 == y2 -> height = 1)
 132:Drivers/lvgl/src/core/../misc/../font/../misc/lv_area.h ****  */
 133:Drivers/lvgl/src/core/../misc/../font/../misc/lv_area.h **** static inline lv_coord_t lv_area_get_height(const lv_area_t * area_p)
 113              		.loc 2 133 26 view .LVU34
 114              	.LBB77:
 134:Drivers/lvgl/src/core/../misc/../font/../misc/lv_area.h **** {
 135:Drivers/lvgl/src/core/../misc/../font/../misc/lv_area.h ****     return (lv_coord_t)(area_p->y2 - area_p->y1 + 1);
 115              		.loc 2 135 5 view .LVU35
 116              		.loc 2 135 31 is_stmt 0 view .LVU36
 117 0046 BDF90620 		ldrsh	r2, [sp, #6]
 118 004a 93B2     		uxth	r3, r2
 119              		.loc 2 135 44 view .LVU37
 120 004c BDF80210 		ldrh	r1, [sp, #2]
 121              		.loc 2 135 36 view .LVU38
 122 0050 5B1A     		subs	r3, r3, r1
 123 0052 9BB2     		uxth	r3, r3
 124              		.loc 2 135 49 view .LVU39
 125 0054 0133     		adds	r3, r3, #1
 126              		.loc 2 135 12 view .LVU40
 127 0056 1BB2     		sxth	r3, r3
 128              	.LVL6:
 129              		.loc 2 135 12 view .LVU41
 130              	.LBE77:
 131              	.LBE76:
 132              		.loc 1 1073 15 view .LVU42
 133 0058 AB42     		cmp	r3, r5
 134 005a 02DD     		ble	.L4
1074:Drivers/lvgl/src/core/lv_refr.c **** 
1075:Drivers/lvgl/src/core/lv_refr.c ****             /*Decrement the height of the area until it fits into `max_row` after rounding*/
1076:Drivers/lvgl/src/core/lv_refr.c ****             h_tmp--;
 135              		.loc 1 1076 13 is_stmt 1 view .LVU43
 136              	.LVL7:
1077:Drivers/lvgl/src/core/lv_refr.c ****         } while(h_tmp > 0);
 137              		.loc 1 1077 23 view .LVU44
 138 005c 002C     		cmp	r4, #0
 139 005e E7DC     		bgt	.L5
1076:Drivers/lvgl/src/core/lv_refr.c ****         } while(h_tmp > 0);
 140              		.loc 1 1076 18 is_stmt 0 view .LVU45
 141 0060 2646     		mov	r6, r4
 142              	.LVL8:
 143              	.L4:
1078:Drivers/lvgl/src/core/lv_refr.c **** 
1079:Drivers/lvgl/src/core/lv_refr.c ****         if(h_tmp <= 0) {
 144              		.loc 1 1079 9 is_stmt 1 view .LVU46
 145              		.loc 1 1079 11 is_stmt 0 view .LVU47
 146 0062 002E     		cmp	r6, #0
 147 0064 03DD     		ble	.L9
1080:Drivers/lvgl/src/core/lv_refr.c ****             LV_LOG_WARN("Can't set draw_buf height using the round function. (Wrong round_cb or to 
1081:Drivers/lvgl/src/core/lv_refr.c ****                         "small draw_buf)");
1082:Drivers/lvgl/src/core/lv_refr.c ****             return 0;
1083:Drivers/lvgl/src/core/lv_refr.c ****         }
1084:Drivers/lvgl/src/core/lv_refr.c ****         else {
1085:Drivers/lvgl/src/core/lv_refr.c ****             max_row = tmp.y2 + 1;
ARM GAS  /var/folders/0z/tsy30v1j4xl4_7kw94k978ww0000gn/T//ccRTPM70.s 			page 25


 148              		.loc 1 1085 13 is_stmt 1 view .LVU48
 149              		.loc 1 1085 21 is_stmt 0 view .LVU49
 150 0066 551C     		adds	r5, r2, #1
 151              	.LVL9:
 152              	.L3:
 153              		.loc 1 1085 21 view .LVU50
 154              	.LBE75:
1086:Drivers/lvgl/src/core/lv_refr.c ****         }
1087:Drivers/lvgl/src/core/lv_refr.c ****     }
1088:Drivers/lvgl/src/core/lv_refr.c **** 
1089:Drivers/lvgl/src/core/lv_refr.c ****     return max_row;
 155              		.loc 1 1089 5 is_stmt 1 view .LVU51
 156              		.loc 1 1089 12 is_stmt 0 view .LVU52
 157 0068 2846     		mov	r0, r5
 158              	.L1:
1090:Drivers/lvgl/src/core/lv_refr.c **** }
 159              		.loc 1 1090 1 view .LVU53
 160 006a 02B0     		add	sp, sp, #8
 161              		.cfi_remember_state
 162              		.cfi_def_cfa_offset 16
 163              		@ sp needed
 164 006c 70BD     		pop	{r4, r5, r6, pc}
 165              	.LVL10:
 166              	.L9:
 167              		.cfi_restore_state
 168              	.LBB78:
1080:Drivers/lvgl/src/core/lv_refr.c ****             LV_LOG_WARN("Can't set draw_buf height using the round function. (Wrong round_cb or to 
 169              		.loc 1 1080 13 is_stmt 1 view .LVU54
1080:Drivers/lvgl/src/core/lv_refr.c ****             LV_LOG_WARN("Can't set draw_buf height using the round function. (Wrong round_cb or to 
 170              		.loc 1 1080 13 view .LVU55
1080:Drivers/lvgl/src/core/lv_refr.c ****             LV_LOG_WARN("Can't set draw_buf height using the round function. (Wrong round_cb or to 
 171              		.loc 1 1080 13 view .LVU56
1082:Drivers/lvgl/src/core/lv_refr.c ****         }
 172              		.loc 1 1082 13 view .LVU57
1082:Drivers/lvgl/src/core/lv_refr.c ****         }
 173              		.loc 1 1082 20 is_stmt 0 view .LVU58
 174 006e 0020     		movs	r0, #0
 175 0070 FBE7     		b	.L1
 176              	.L11:
 177 0072 00BF     		.align	2
 178              	.L10:
 179 0074 00000000 		.word	.LANCHOR0
 180              	.LBE78:
 181              		.cfi_endproc
 182              	.LFE186:
 184              		.section	.text.draw_buf_rotate_180,"ax",%progbits
 185              		.align	1
 186              		.syntax unified
 187              		.thumb
 188              		.thumb_func
 190              	draw_buf_rotate_180:
 191              	.LVL11:
 192              	.LFB187:
1091:Drivers/lvgl/src/core/lv_refr.c **** 
1092:Drivers/lvgl/src/core/lv_refr.c **** static void draw_buf_rotate_180(lv_disp_drv_t * drv, lv_area_t * area, lv_color_t * color_p)
1093:Drivers/lvgl/src/core/lv_refr.c **** {
 193              		.loc 1 1093 1 is_stmt 1 view -0
ARM GAS  /var/folders/0z/tsy30v1j4xl4_7kw94k978ww0000gn/T//ccRTPM70.s 			page 26


 194              		.cfi_startproc
 195              		@ args = 0, pretend = 0, frame = 0
 196              		@ frame_needed = 0, uses_anonymous_args = 0
 197              		.loc 1 1093 1 is_stmt 0 view .LVU60
 198 0000 10B5     		push	{r4, lr}
 199              		.cfi_def_cfa_offset 8
 200              		.cfi_offset 4, -8
 201              		.cfi_offset 14, -4
1094:Drivers/lvgl/src/core/lv_refr.c ****     lv_coord_t area_w = lv_area_get_width(area);
 202              		.loc 1 1094 5 is_stmt 1 view .LVU61
 203              	.LVL12:
 204              	.LBB79:
 205              	.LBI79:
 123:Drivers/lvgl/src/core/../misc/../font/../misc/lv_area.h **** {
 206              		.loc 2 123 26 view .LVU62
 207              	.LBB80:
 125:Drivers/lvgl/src/core/../misc/../font/../misc/lv_area.h **** }
 208              		.loc 2 125 5 view .LVU63
 125:Drivers/lvgl/src/core/../misc/../font/../misc/lv_area.h **** }
 209              		.loc 2 125 31 is_stmt 0 view .LVU64
 210 0002 8B88     		ldrh	r3, [r1, #4]
 125:Drivers/lvgl/src/core/../misc/../font/../misc/lv_area.h **** }
 211              		.loc 2 125 44 view .LVU65
 212 0004 B1F800C0 		ldrh	ip, [r1]
 125:Drivers/lvgl/src/core/../misc/../font/../misc/lv_area.h **** }
 213              		.loc 2 125 36 view .LVU66
 214 0008 A3EB0C03 		sub	r3, r3, ip
 215 000c 9BB2     		uxth	r3, r3
 125:Drivers/lvgl/src/core/../misc/../font/../misc/lv_area.h **** }
 216              		.loc 2 125 49 view .LVU67
 217 000e 0133     		adds	r3, r3, #1
 125:Drivers/lvgl/src/core/../misc/../font/../misc/lv_area.h **** }
 218              		.loc 2 125 12 view .LVU68
 219 0010 1BB2     		sxth	r3, r3
 220              	.LVL13:
 125:Drivers/lvgl/src/core/../misc/../font/../misc/lv_area.h **** }
 221              		.loc 2 125 12 view .LVU69
 222              	.LBE80:
 223              	.LBE79:
1095:Drivers/lvgl/src/core/lv_refr.c ****     lv_coord_t area_h = lv_area_get_height(area);
 224              		.loc 1 1095 5 is_stmt 1 view .LVU70
 225              	.LBB81:
 226              	.LBI81:
 133:Drivers/lvgl/src/core/../misc/../font/../misc/lv_area.h **** {
 227              		.loc 2 133 26 view .LVU71
 228              	.LBB82:
 229              		.loc 2 135 5 view .LVU72
 230              		.loc 2 135 31 is_stmt 0 view .LVU73
 231 0012 B1F806C0 		ldrh	ip, [r1, #6]
 232              		.loc 2 135 44 view .LVU74
 233 0016 B1F802E0 		ldrh	lr, [r1, #2]
 234              		.loc 2 135 36 view .LVU75
 235 001a ACEB0E0C 		sub	ip, ip, lr
 236 001e 1FFA8CFC 		uxth	ip, ip
 237              		.loc 2 135 49 view .LVU76
 238 0022 0CF1010C 		add	ip, ip, #1
 239              		.loc 2 135 12 view .LVU77
ARM GAS  /var/folders/0z/tsy30v1j4xl4_7kw94k978ww0000gn/T//ccRTPM70.s 			page 27


 240 0026 0FFA8CFC 		sxth	ip, ip
 241              	.LVL14:
 242              		.loc 2 135 12 view .LVU78
 243              	.LBE82:
 244              	.LBE81:
1096:Drivers/lvgl/src/core/lv_refr.c ****     uint32_t total = area_w * area_h;
 245              		.loc 1 1096 5 is_stmt 1 view .LVU79
 246              		.loc 1 1096 29 is_stmt 0 view .LVU80
 247 002a 0CFB03F3 		mul	r3, ip, r3
 248              	.LVL15:
1097:Drivers/lvgl/src/core/lv_refr.c ****     /*Swap the beginning and end values*/
1098:Drivers/lvgl/src/core/lv_refr.c ****     lv_color_t tmp;
 249              		.loc 1 1098 5 is_stmt 1 view .LVU81
1099:Drivers/lvgl/src/core/lv_refr.c ****     uint32_t i = total - 1, j = 0;
 250              		.loc 1 1099 5 view .LVU82
 251              		.loc 1 1099 14 is_stmt 0 view .LVU83
 252 002e 013B     		subs	r3, r3, #1
 253              	.LVL16:
1100:Drivers/lvgl/src/core/lv_refr.c ****     while(i > j) {
 254              		.loc 1 1100 5 is_stmt 1 view .LVU84
1099:Drivers/lvgl/src/core/lv_refr.c ****     uint32_t i = total - 1, j = 0;
 255              		.loc 1 1099 29 is_stmt 0 view .LVU85
 256 0030 4FF0000C 		mov	ip, #0
 257              	.LVL17:
 258              		.loc 1 1100 10 view .LVU86
 259 0034 0AE0     		b	.L13
 260              	.LVL18:
 261              	.L14:
1101:Drivers/lvgl/src/core/lv_refr.c ****         tmp = color_p[i];
 262              		.loc 1 1101 9 is_stmt 1 view .LVU87
 263              		.loc 1 1101 13 is_stmt 0 view .LVU88
 264 0036 32F813E0 		ldrh	lr, [r2, r3, lsl #1]
 265              	.LVL19:
1102:Drivers/lvgl/src/core/lv_refr.c ****         color_p[i] = color_p[j];
 266              		.loc 1 1102 9 is_stmt 1 view .LVU89
 267              		.loc 1 1102 20 is_stmt 0 view .LVU90
 268 003a 32F81C40 		ldrh	r4, [r2, ip, lsl #1]
 269 003e 22F81340 		strh	r4, [r2, r3, lsl #1]	@ movhi
1103:Drivers/lvgl/src/core/lv_refr.c ****         color_p[j] = tmp;
 270              		.loc 1 1103 9 is_stmt 1 view .LVU91
 271              	.LVL20:
 272              		.loc 1 1103 20 is_stmt 0 view .LVU92
 273 0042 22F81CE0 		strh	lr, [r2, ip, lsl #1]	@ movhi
1104:Drivers/lvgl/src/core/lv_refr.c ****         i--;
 274              		.loc 1 1104 9 is_stmt 1 view .LVU93
 275              		.loc 1 1104 10 is_stmt 0 view .LVU94
 276 0046 013B     		subs	r3, r3, #1
 277              	.LVL21:
1105:Drivers/lvgl/src/core/lv_refr.c ****         j++;
 278              		.loc 1 1105 9 is_stmt 1 view .LVU95
 279              		.loc 1 1105 10 is_stmt 0 view .LVU96
 280 0048 0CF1010C 		add	ip, ip, #1
 281              	.LVL22:
 282              	.L13:
1100:Drivers/lvgl/src/core/lv_refr.c ****         tmp = color_p[i];
 283              		.loc 1 1100 13 is_stmt 1 view .LVU97
 284 004c 6345     		cmp	r3, ip
ARM GAS  /var/folders/0z/tsy30v1j4xl4_7kw94k978ww0000gn/T//ccRTPM70.s 			page 28


 285 004e F2D8     		bhi	.L14
1106:Drivers/lvgl/src/core/lv_refr.c ****     }
1107:Drivers/lvgl/src/core/lv_refr.c ****     lv_coord_t tmp_coord;
 286              		.loc 1 1107 5 view .LVU98
1108:Drivers/lvgl/src/core/lv_refr.c ****     tmp_coord = area->y2;
 287              		.loc 1 1108 5 view .LVU99
 288              		.loc 1 1108 15 is_stmt 0 view .LVU100
 289 0050 B1F90620 		ldrsh	r2, [r1, #6]
 290              	.LVL23:
1109:Drivers/lvgl/src/core/lv_refr.c ****     area->y2 = drv->ver_res - area->y1 - 1;
 291              		.loc 1 1109 5 is_stmt 1 view .LVU101
 292              		.loc 1 1109 19 is_stmt 0 view .LVU102
 293 0054 4388     		ldrh	r3, [r0, #2]
 294              	.LVL24:
 295              		.loc 1 1109 35 view .LVU103
 296 0056 B1F802C0 		ldrh	ip, [r1, #2]
 297              	.LVL25:
 298              		.loc 1 1109 29 view .LVU104
 299 005a A3EB0C03 		sub	r3, r3, ip
 300 005e 9BB2     		uxth	r3, r3
 301              		.loc 1 1109 40 view .LVU105
 302 0060 013B     		subs	r3, r3, #1
 303              		.loc 1 1109 14 view .LVU106
 304 0062 CB80     		strh	r3, [r1, #6]	@ movhi
 305              	.LVL26:
1110:Drivers/lvgl/src/core/lv_refr.c ****     area->y1 = drv->ver_res - tmp_coord - 1;
 306              		.loc 1 1110 5 is_stmt 1 view .LVU107
 307              		.loc 1 1110 19 is_stmt 0 view .LVU108
 308 0064 4388     		ldrh	r3, [r0, #2]
 309              		.loc 1 1110 29 view .LVU109
 310 0066 9B1A     		subs	r3, r3, r2
 311 0068 9BB2     		uxth	r3, r3
 312              		.loc 1 1110 41 view .LVU110
 313 006a 013B     		subs	r3, r3, #1
 314              		.loc 1 1110 14 view .LVU111
 315 006c 4B80     		strh	r3, [r1, #2]	@ movhi
1111:Drivers/lvgl/src/core/lv_refr.c ****     tmp_coord = area->x2;
 316              		.loc 1 1111 5 is_stmt 1 view .LVU112
 317              		.loc 1 1111 15 is_stmt 0 view .LVU113
 318 006e B1F90420 		ldrsh	r2, [r1, #4]
 319              	.LVL27:
1112:Drivers/lvgl/src/core/lv_refr.c ****     area->x2 = drv->hor_res - area->x1 - 1;
 320              		.loc 1 1112 5 is_stmt 1 view .LVU114
 321              		.loc 1 1112 19 is_stmt 0 view .LVU115
 322 0072 0388     		ldrh	r3, [r0]
 323              		.loc 1 1112 35 view .LVU116
 324 0074 B1F800C0 		ldrh	ip, [r1]
 325              		.loc 1 1112 29 view .LVU117
 326 0078 A3EB0C03 		sub	r3, r3, ip
 327 007c 9BB2     		uxth	r3, r3
 328              		.loc 1 1112 40 view .LVU118
 329 007e 013B     		subs	r3, r3, #1
 330              		.loc 1 1112 14 view .LVU119
 331 0080 8B80     		strh	r3, [r1, #4]	@ movhi
 332              	.LVL28:
1113:Drivers/lvgl/src/core/lv_refr.c ****     area->x1 = drv->hor_res - tmp_coord - 1;
 333              		.loc 1 1113 5 is_stmt 1 view .LVU120
ARM GAS  /var/folders/0z/tsy30v1j4xl4_7kw94k978ww0000gn/T//ccRTPM70.s 			page 29


 334              		.loc 1 1113 19 is_stmt 0 view .LVU121
 335 0082 0388     		ldrh	r3, [r0]
 336              		.loc 1 1113 29 view .LVU122
 337 0084 9B1A     		subs	r3, r3, r2
 338 0086 9BB2     		uxth	r3, r3
 339              		.loc 1 1113 41 view .LVU123
 340 0088 013B     		subs	r3, r3, #1
 341              		.loc 1 1113 14 view .LVU124
 342 008a 0B80     		strh	r3, [r1]	@ movhi
1114:Drivers/lvgl/src/core/lv_refr.c **** }
 343              		.loc 1 1114 1 view .LVU125
 344 008c 10BD     		pop	{r4, pc}
 345              		.cfi_endproc
 346              	.LFE187:
 348              		.section	.text.draw_buf_rotate_90,"ax",%progbits
 349              		.align	1
 350              		.syntax unified
 351              		.thumb
 352              		.thumb_func
 354              	draw_buf_rotate_90:
 355              	.LVL29:
 356              	.LFB188:
1115:Drivers/lvgl/src/core/lv_refr.c **** 
1116:Drivers/lvgl/src/core/lv_refr.c **** static void LV_ATTRIBUTE_FAST_MEM draw_buf_rotate_90(bool invert_i, lv_coord_t area_w, lv_coord_t a
1117:Drivers/lvgl/src/core/lv_refr.c ****                                                      lv_color_t * orig_color_p, lv_color_t * rot_bu
1118:Drivers/lvgl/src/core/lv_refr.c **** {
 357              		.loc 1 1118 1 is_stmt 1 view -0
 358              		.cfi_startproc
 359              		@ args = 4, pretend = 0, frame = 0
 360              		@ frame_needed = 0, uses_anonymous_args = 0
 361              		.loc 1 1118 1 is_stmt 0 view .LVU127
 362 0000 2DE9F041 		push	{r4, r5, r6, r7, r8, lr}
 363              		.cfi_def_cfa_offset 24
 364              		.cfi_offset 4, -24
 365              		.cfi_offset 5, -20
 366              		.cfi_offset 6, -16
 367              		.cfi_offset 7, -12
 368              		.cfi_offset 8, -8
 369              		.cfi_offset 14, -4
 370 0004 0446     		mov	r4, r0
 371 0006 0846     		mov	r0, r1
 372              	.LVL30:
 373              		.loc 1 1118 1 view .LVU128
 374 0008 1146     		mov	r1, r2
 375              	.LVL31:
 376              		.loc 1 1118 1 view .LVU129
 377 000a 069D     		ldr	r5, [sp, #24]
1119:Drivers/lvgl/src/core/lv_refr.c **** 
1120:Drivers/lvgl/src/core/lv_refr.c ****     uint32_t invert = (area_w * area_h) - 1;
 378              		.loc 1 1120 5 is_stmt 1 view .LVU130
 379              		.loc 1 1120 31 is_stmt 0 view .LVU131
 380 000c 02FB00F8 		mul	r8, r2, r0
 381              		.loc 1 1120 41 view .LVU132
 382 0010 08F1FF38 		add	r8, r8, #-1
 383              	.LVL32:
1121:Drivers/lvgl/src/core/lv_refr.c ****     uint32_t initial_i = ((area_w - 1) * area_h);
 384              		.loc 1 1121 5 is_stmt 1 view .LVU133
ARM GAS  /var/folders/0z/tsy30v1j4xl4_7kw94k978ww0000gn/T//ccRTPM70.s 			page 30


 385              		.loc 1 1121 35 is_stmt 0 view .LVU134
 386 0014 471E     		subs	r7, r0, #1
 387              		.loc 1 1121 40 view .LVU135
 388 0016 02FB07F7 		mul	r7, r2, r7
 389              	.LVL33:
1122:Drivers/lvgl/src/core/lv_refr.c ****     for(lv_coord_t y = 0; y < area_h; y++) {
 390              		.loc 1 1122 5 is_stmt 1 view .LVU136
 391              	.LBB83:
 392              		.loc 1 1122 9 view .LVU137
 393              		.loc 1 1122 20 is_stmt 0 view .LVU138
 394 001a 0026     		movs	r6, #0
 395              		.loc 1 1122 5 view .LVU139
 396 001c 11E0     		b	.L17
 397              	.LVL34:
 398              	.L20:
 399              	.LBB84:
 400              	.LBB85:
1123:Drivers/lvgl/src/core/lv_refr.c ****         uint32_t i = initial_i + y;
1124:Drivers/lvgl/src/core/lv_refr.c ****         if(invert_i)
1125:Drivers/lvgl/src/core/lv_refr.c ****             i = invert - i;
1126:Drivers/lvgl/src/core/lv_refr.c ****         for(lv_coord_t x = 0; x < area_w; x++) {
1127:Drivers/lvgl/src/core/lv_refr.c ****             rot_buf[i] = *(orig_color_p++);
1128:Drivers/lvgl/src/core/lv_refr.c ****             if(invert_i)
1129:Drivers/lvgl/src/core/lv_refr.c ****                 i += area_h;
1130:Drivers/lvgl/src/core/lv_refr.c ****             else
1131:Drivers/lvgl/src/core/lv_refr.c ****                 i -= area_h;
 401              		.loc 1 1131 17 is_stmt 1 view .LVU140
 402              		.loc 1 1131 19 is_stmt 0 view .LVU141
 403 001e AEEB010E 		sub	lr, lr, r1
 404              	.LVL35:
 405              	.L21:
1126:Drivers/lvgl/src/core/lv_refr.c ****             rot_buf[i] = *(orig_color_p++);
 406              		.loc 1 1126 44 is_stmt 1 discriminator 2 view .LVU142
 407 0022 0CF1010C 		add	ip, ip, #1
 408              	.LVL36:
1126:Drivers/lvgl/src/core/lv_refr.c ****             rot_buf[i] = *(orig_color_p++);
 409              		.loc 1 1126 44 is_stmt 0 discriminator 2 view .LVU143
 410 0026 0FFA8CFC 		sxth	ip, ip
 411              	.LVL37:
 412              	.L19:
1126:Drivers/lvgl/src/core/lv_refr.c ****             rot_buf[i] = *(orig_color_p++);
 413              		.loc 1 1126 33 is_stmt 1 discriminator 1 view .LVU144
 414 002a 8445     		cmp	ip, r0
 415 002c 07DA     		bge	.L25
1127:Drivers/lvgl/src/core/lv_refr.c ****             if(invert_i)
 416              		.loc 1 1127 13 view .LVU145
 417              	.LVL38:
1127:Drivers/lvgl/src/core/lv_refr.c ****             if(invert_i)
 418              		.loc 1 1127 24 is_stmt 0 view .LVU146
 419 002e 33F8022B 		ldrh	r2, [r3], #2
 420              	.LVL39:
1127:Drivers/lvgl/src/core/lv_refr.c ****             if(invert_i)
 421              		.loc 1 1127 24 view .LVU147
 422 0032 25F81E20 		strh	r2, [r5, lr, lsl #1]	@ movhi
1128:Drivers/lvgl/src/core/lv_refr.c ****                 i += area_h;
 423              		.loc 1 1128 13 is_stmt 1 view .LVU148
1128:Drivers/lvgl/src/core/lv_refr.c ****                 i += area_h;
ARM GAS  /var/folders/0z/tsy30v1j4xl4_7kw94k978ww0000gn/T//ccRTPM70.s 			page 31


 424              		.loc 1 1128 15 is_stmt 0 view .LVU149
 425 0036 002C     		cmp	r4, #0
 426 0038 F1D0     		beq	.L20
1129:Drivers/lvgl/src/core/lv_refr.c ****             else
 427              		.loc 1 1129 17 is_stmt 1 view .LVU150
1129:Drivers/lvgl/src/core/lv_refr.c ****             else
 428              		.loc 1 1129 19 is_stmt 0 view .LVU151
 429 003a 8E44     		add	lr, lr, r1
 430              	.LVL40:
1129:Drivers/lvgl/src/core/lv_refr.c ****             else
 431              		.loc 1 1129 19 view .LVU152
 432 003c F1E7     		b	.L21
 433              	.L25:
1129:Drivers/lvgl/src/core/lv_refr.c ****             else
 434              		.loc 1 1129 19 view .LVU153
 435              	.LBE85:
 436              	.LBE84:
1122:Drivers/lvgl/src/core/lv_refr.c ****         uint32_t i = initial_i + y;
 437              		.loc 1 1122 40 is_stmt 1 discriminator 2 view .LVU154
 438 003e 0136     		adds	r6, r6, #1
 439              	.LVL41:
1122:Drivers/lvgl/src/core/lv_refr.c ****         uint32_t i = initial_i + y;
 440              		.loc 1 1122 40 is_stmt 0 discriminator 2 view .LVU155
 441 0040 36B2     		sxth	r6, r6
 442              	.LVL42:
 443              	.L17:
1122:Drivers/lvgl/src/core/lv_refr.c ****         uint32_t i = initial_i + y;
 444              		.loc 1 1122 29 is_stmt 1 discriminator 1 view .LVU156
 445 0042 8E42     		cmp	r6, r1
 446 0044 07DA     		bge	.L26
 447              	.LBB86:
1123:Drivers/lvgl/src/core/lv_refr.c ****         if(invert_i)
 448              		.loc 1 1123 9 view .LVU157
1123:Drivers/lvgl/src/core/lv_refr.c ****         if(invert_i)
 449              		.loc 1 1123 18 is_stmt 0 view .LVU158
 450 0046 06EB070E 		add	lr, r6, r7
 451              	.LVL43:
1124:Drivers/lvgl/src/core/lv_refr.c ****             i = invert - i;
 452              		.loc 1 1124 9 is_stmt 1 view .LVU159
1124:Drivers/lvgl/src/core/lv_refr.c ****             i = invert - i;
 453              		.loc 1 1124 11 is_stmt 0 view .LVU160
 454 004a 0CB1     		cbz	r4, .L18
1125:Drivers/lvgl/src/core/lv_refr.c ****         for(lv_coord_t x = 0; x < area_w; x++) {
 455              		.loc 1 1125 13 is_stmt 1 view .LVU161
1125:Drivers/lvgl/src/core/lv_refr.c ****         for(lv_coord_t x = 0; x < area_w; x++) {
 456              		.loc 1 1125 15 is_stmt 0 view .LVU162
 457 004c A8EB0E0E 		sub	lr, r8, lr
 458              	.LVL44:
 459              	.L18:
1125:Drivers/lvgl/src/core/lv_refr.c ****         for(lv_coord_t x = 0; x < area_w; x++) {
 460              		.loc 1 1125 15 view .LVU163
 461              	.LBE86:
 462              	.LBE83:
1118:Drivers/lvgl/src/core/lv_refr.c **** 
 463              		.loc 1 1118 1 discriminator 1 view .LVU164
 464 0050 4FF0000C 		mov	ip, #0
 465 0054 E9E7     		b	.L19
ARM GAS  /var/folders/0z/tsy30v1j4xl4_7kw94k978ww0000gn/T//ccRTPM70.s 			page 32


 466              	.LVL45:
 467              	.L26:
1132:Drivers/lvgl/src/core/lv_refr.c ****         }
1133:Drivers/lvgl/src/core/lv_refr.c ****     }
1134:Drivers/lvgl/src/core/lv_refr.c **** }
 468              		.loc 1 1134 1 view .LVU165
 469 0056 BDE8F081 		pop	{r4, r5, r6, r7, r8, pc}
 470              		.loc 1 1134 1 view .LVU166
 471              		.cfi_endproc
 472              	.LFE188:
 474              		.section	.text.draw_buf_rotate_90_sqr,"ax",%progbits
 475              		.align	1
 476              		.syntax unified
 477              		.thumb
 478              		.thumb_func
 480              	draw_buf_rotate_90_sqr:
 481              	.LVL46:
 482              	.LFB190:
1135:Drivers/lvgl/src/core/lv_refr.c **** 
1136:Drivers/lvgl/src/core/lv_refr.c **** /**
1137:Drivers/lvgl/src/core/lv_refr.c ****  * Helper function for draw_buf_rotate_90_sqr. Given a list of four numbers, rotate the entire list
1138:Drivers/lvgl/src/core/lv_refr.c ****  */
1139:Drivers/lvgl/src/core/lv_refr.c **** static inline void draw_buf_rotate4(lv_color_t * a, lv_color_t * b, lv_color_t * c, lv_color_t * d)
1140:Drivers/lvgl/src/core/lv_refr.c **** {
1141:Drivers/lvgl/src/core/lv_refr.c ****     lv_color_t tmp;
1142:Drivers/lvgl/src/core/lv_refr.c ****     tmp = *a;
1143:Drivers/lvgl/src/core/lv_refr.c ****     *a = *b;
1144:Drivers/lvgl/src/core/lv_refr.c ****     *b = *c;
1145:Drivers/lvgl/src/core/lv_refr.c ****     *c = *d;
1146:Drivers/lvgl/src/core/lv_refr.c ****     *d = tmp;
1147:Drivers/lvgl/src/core/lv_refr.c **** }
1148:Drivers/lvgl/src/core/lv_refr.c **** 
1149:Drivers/lvgl/src/core/lv_refr.c **** /**
1150:Drivers/lvgl/src/core/lv_refr.c ****  * Rotate a square image 90/270 degrees in place.
1151:Drivers/lvgl/src/core/lv_refr.c ****  * @note inspired by https://stackoverflow.com/a/43694906
1152:Drivers/lvgl/src/core/lv_refr.c ****  */
1153:Drivers/lvgl/src/core/lv_refr.c **** static void draw_buf_rotate_90_sqr(bool is_270, lv_coord_t w, lv_color_t * color_p)
1154:Drivers/lvgl/src/core/lv_refr.c **** {
 483              		.loc 1 1154 1 is_stmt 1 view -0
 484              		.cfi_startproc
 485              		@ args = 0, pretend = 0, frame = 0
 486              		@ frame_needed = 0, uses_anonymous_args = 0
 487              		.loc 1 1154 1 is_stmt 0 view .LVU168
 488 0000 2DE9F041 		push	{r4, r5, r6, r7, r8, lr}
 489              		.cfi_def_cfa_offset 24
 490              		.cfi_offset 4, -24
 491              		.cfi_offset 5, -20
 492              		.cfi_offset 6, -16
 493              		.cfi_offset 7, -12
 494              		.cfi_offset 8, -8
 495              		.cfi_offset 14, -4
1155:Drivers/lvgl/src/core/lv_refr.c ****     for(lv_coord_t i = 0; i < w / 2; i++) {
 496              		.loc 1 1155 5 is_stmt 1 view .LVU169
 497              	.LBB87:
 498              		.loc 1 1155 9 view .LVU170
 499              	.LVL47:
 500              		.loc 1 1155 20 is_stmt 0 view .LVU171
ARM GAS  /var/folders/0z/tsy30v1j4xl4_7kw94k978ww0000gn/T//ccRTPM70.s 			page 33


 501 0004 0024     		movs	r4, #0
 502              		.loc 1 1155 5 view .LVU172
 503 0006 4CE0     		b	.L28
 504              	.LVL48:
 505              	.L29:
 506              	.LBB88:
 507              	.LBB89:
1156:Drivers/lvgl/src/core/lv_refr.c ****         for(lv_coord_t j = 0; j < (w + 1) / 2; j++) {
1157:Drivers/lvgl/src/core/lv_refr.c ****             lv_coord_t inv_i = (w - 1) - i;
1158:Drivers/lvgl/src/core/lv_refr.c ****             lv_coord_t inv_j = (w - 1) - j;
1159:Drivers/lvgl/src/core/lv_refr.c ****             if(is_270) {
1160:Drivers/lvgl/src/core/lv_refr.c ****                 draw_buf_rotate4(
1161:Drivers/lvgl/src/core/lv_refr.c ****                     &color_p[i * w + j],
1162:Drivers/lvgl/src/core/lv_refr.c ****                     &color_p[inv_j * w + i],
1163:Drivers/lvgl/src/core/lv_refr.c ****                     &color_p[inv_i * w + inv_j],
1164:Drivers/lvgl/src/core/lv_refr.c ****                     &color_p[j * w + inv_i]
1165:Drivers/lvgl/src/core/lv_refr.c ****                 );
1166:Drivers/lvgl/src/core/lv_refr.c ****             }
1167:Drivers/lvgl/src/core/lv_refr.c ****             else {
1168:Drivers/lvgl/src/core/lv_refr.c ****                 draw_buf_rotate4(
 508              		.loc 1 1168 17 is_stmt 1 view .LVU173
1169:Drivers/lvgl/src/core/lv_refr.c ****                     &color_p[i * w + j],
 509              		.loc 1 1169 36 is_stmt 0 view .LVU174
 510 0008 01FB0456 		mla	r6, r1, r4, r5
1170:Drivers/lvgl/src/core/lv_refr.c ****                     &color_p[j * w + inv_i],
 511              		.loc 1 1170 36 view .LVU175
 512 000c 01FB05C5 		mla	r5, r1, r5, ip
1171:Drivers/lvgl/src/core/lv_refr.c ****                     &color_p[inv_i * w + inv_j],
 513              		.loc 1 1171 40 view .LVU176
 514 0010 01FB0C3C 		mla	ip, r1, ip, r3
 515              	.LVL49:
1172:Drivers/lvgl/src/core/lv_refr.c ****                     &color_p[inv_j * w + i]
 516              		.loc 1 1172 40 view .LVU177
 517 0014 01FB0343 		mla	r3, r1, r3, r4
 518              	.LVL50:
 519              	.LBB90:
 520              	.LBI90:
1139:Drivers/lvgl/src/core/lv_refr.c **** {
 521              		.loc 1 1139 20 is_stmt 1 view .LVU178
 522              	.LBB91:
1141:Drivers/lvgl/src/core/lv_refr.c ****     tmp = *a;
 523              		.loc 1 1141 5 view .LVU179
1142:Drivers/lvgl/src/core/lv_refr.c ****     *a = *b;
 524              		.loc 1 1142 5 view .LVU180
1142:Drivers/lvgl/src/core/lv_refr.c ****     *a = *b;
 525              		.loc 1 1142 9 is_stmt 0 view .LVU181
 526 0018 32F81670 		ldrh	r7, [r2, r6, lsl #1]
 527              	.LVL51:
1143:Drivers/lvgl/src/core/lv_refr.c ****     *b = *c;
 528              		.loc 1 1143 5 is_stmt 1 view .LVU182
1143:Drivers/lvgl/src/core/lv_refr.c ****     *b = *c;
 529              		.loc 1 1143 8 is_stmt 0 view .LVU183
 530 001c 32F81580 		ldrh	r8, [r2, r5, lsl #1]
 531 0020 22F81680 		strh	r8, [r2, r6, lsl #1]	@ movhi
1144:Drivers/lvgl/src/core/lv_refr.c ****     *c = *d;
 532              		.loc 1 1144 5 is_stmt 1 view .LVU184
1144:Drivers/lvgl/src/core/lv_refr.c ****     *c = *d;
ARM GAS  /var/folders/0z/tsy30v1j4xl4_7kw94k978ww0000gn/T//ccRTPM70.s 			page 34


 533              		.loc 1 1144 8 is_stmt 0 view .LVU185
 534 0024 32F81C60 		ldrh	r6, [r2, ip, lsl #1]
 535              	.LVL52:
1144:Drivers/lvgl/src/core/lv_refr.c ****     *c = *d;
 536              		.loc 1 1144 8 view .LVU186
 537 0028 22F81560 		strh	r6, [r2, r5, lsl #1]	@ movhi
1145:Drivers/lvgl/src/core/lv_refr.c ****     *d = tmp;
 538              		.loc 1 1145 5 is_stmt 1 view .LVU187
1145:Drivers/lvgl/src/core/lv_refr.c ****     *d = tmp;
 539              		.loc 1 1145 8 is_stmt 0 view .LVU188
 540 002c 32F81350 		ldrh	r5, [r2, r3, lsl #1]
 541              	.LVL53:
1145:Drivers/lvgl/src/core/lv_refr.c ****     *d = tmp;
 542              		.loc 1 1145 8 view .LVU189
 543 0030 22F81C50 		strh	r5, [r2, ip, lsl #1]	@ movhi
1146:Drivers/lvgl/src/core/lv_refr.c **** }
 544              		.loc 1 1146 5 is_stmt 1 view .LVU190
 545              	.LVL54:
1146:Drivers/lvgl/src/core/lv_refr.c **** }
 546              		.loc 1 1146 8 is_stmt 0 view .LVU191
 547 0034 22F81370 		strh	r7, [r2, r3, lsl #1]	@ movhi
 548              	.LVL55:
 549              	.L30:
1146:Drivers/lvgl/src/core/lv_refr.c **** }
 550              		.loc 1 1146 8 view .LVU192
 551              	.LBE91:
 552              	.LBE90:
 553              	.LBE89:
1156:Drivers/lvgl/src/core/lv_refr.c ****             lv_coord_t inv_i = (w - 1) - i;
 554              		.loc 1 1156 49 is_stmt 1 discriminator 2 view .LVU193
 555 0038 0EF1010E 		add	lr, lr, #1
 556              	.LVL56:
1156:Drivers/lvgl/src/core/lv_refr.c ****             lv_coord_t inv_i = (w - 1) - i;
 557              		.loc 1 1156 49 is_stmt 0 discriminator 2 view .LVU194
 558 003c 0FFA8EFE 		sxth	lr, lr
 559              	.LVL57:
 560              	.L32:
1156:Drivers/lvgl/src/core/lv_refr.c ****             lv_coord_t inv_i = (w - 1) - i;
 561              		.loc 1 1156 33 is_stmt 1 discriminator 1 view .LVU195
 562 0040 7546     		mov	r5, lr
 563              	.LVL58:
1156:Drivers/lvgl/src/core/lv_refr.c ****             lv_coord_t inv_i = (w - 1) - i;
 564              		.loc 1 1156 38 is_stmt 0 discriminator 1 view .LVU196
 565 0042 4B1C     		adds	r3, r1, #1
1156:Drivers/lvgl/src/core/lv_refr.c ****             lv_coord_t inv_i = (w - 1) - i;
 566              		.loc 1 1156 43 discriminator 1 view .LVU197
 567 0044 03EBD373 		add	r3, r3, r3, lsr #31
1156:Drivers/lvgl/src/core/lv_refr.c ****             lv_coord_t inv_i = (w - 1) - i;
 568              		.loc 1 1156 33 discriminator 1 view .LVU198
 569 0048 BEEB630F 		cmp	lr, r3, asr #1
 570 004c 27DA     		bge	.L35
 571              	.LBB94:
1157:Drivers/lvgl/src/core/lv_refr.c ****             lv_coord_t inv_j = (w - 1) - j;
 572              		.loc 1 1157 13 is_stmt 1 view .LVU199
1157:Drivers/lvgl/src/core/lv_refr.c ****             lv_coord_t inv_j = (w - 1) - j;
 573              		.loc 1 1157 40 is_stmt 0 view .LVU200
 574 004e 8BB2     		uxth	r3, r1
ARM GAS  /var/folders/0z/tsy30v1j4xl4_7kw94k978ww0000gn/T//ccRTPM70.s 			page 35


 575 0050 A3EB040C 		sub	ip, r3, r4
 576 0054 0CF1FF3C 		add	ip, ip, #-1
1157:Drivers/lvgl/src/core/lv_refr.c ****             lv_coord_t inv_j = (w - 1) - j;
 577              		.loc 1 1157 24 view .LVU201
 578 0058 0FFA8CFC 		sxth	ip, ip
 579              	.LVL59:
1158:Drivers/lvgl/src/core/lv_refr.c ****             if(is_270) {
 580              		.loc 1 1158 13 is_stmt 1 view .LVU202
1158:Drivers/lvgl/src/core/lv_refr.c ****             if(is_270) {
 581              		.loc 1 1158 40 is_stmt 0 view .LVU203
 582 005c 1FFA8EFE 		uxth	lr, lr
1158:Drivers/lvgl/src/core/lv_refr.c ****             if(is_270) {
 583              		.loc 1 1158 40 view .LVU204
 584 0060 A3EB0E03 		sub	r3, r3, lr
 585 0064 013B     		subs	r3, r3, #1
1158:Drivers/lvgl/src/core/lv_refr.c ****             if(is_270) {
 586              		.loc 1 1158 24 view .LVU205
 587 0066 1BB2     		sxth	r3, r3
 588              	.LVL60:
1159:Drivers/lvgl/src/core/lv_refr.c ****                 draw_buf_rotate4(
 589              		.loc 1 1159 13 is_stmt 1 view .LVU206
1159:Drivers/lvgl/src/core/lv_refr.c ****                 draw_buf_rotate4(
 590              		.loc 1 1159 15 is_stmt 0 view .LVU207
 591 0068 0028     		cmp	r0, #0
 592 006a CDD0     		beq	.L29
1160:Drivers/lvgl/src/core/lv_refr.c ****                     &color_p[i * w + j],
 593              		.loc 1 1160 17 is_stmt 1 view .LVU208
1161:Drivers/lvgl/src/core/lv_refr.c ****                     &color_p[inv_j * w + i],
 594              		.loc 1 1161 36 is_stmt 0 view .LVU209
 595 006c 01FB0457 		mla	r7, r1, r4, r5
 596              	.LVL61:
1162:Drivers/lvgl/src/core/lv_refr.c ****                     &color_p[inv_i * w + inv_j],
 597              		.loc 1 1162 40 view .LVU210
 598 0070 01FB0346 		mla	r6, r1, r3, r4
1163:Drivers/lvgl/src/core/lv_refr.c ****                     &color_p[j * w + inv_i]
 599              		.loc 1 1163 40 view .LVU211
 600 0074 01FB0C33 		mla	r3, r1, ip, r3
 601              	.LVL62:
1164:Drivers/lvgl/src/core/lv_refr.c ****                 );
 602              		.loc 1 1164 36 view .LVU212
 603 0078 01FB05CC 		mla	ip, r1, r5, ip
 604              	.LVL63:
 605              	.LBB92:
 606              	.LBI92:
1139:Drivers/lvgl/src/core/lv_refr.c **** {
 607              		.loc 1 1139 20 is_stmt 1 view .LVU213
 608              	.LBB93:
1141:Drivers/lvgl/src/core/lv_refr.c ****     tmp = *a;
 609              		.loc 1 1141 5 view .LVU214
1142:Drivers/lvgl/src/core/lv_refr.c ****     *a = *b;
 610              		.loc 1 1142 5 view .LVU215
1142:Drivers/lvgl/src/core/lv_refr.c ****     *a = *b;
 611              		.loc 1 1142 9 is_stmt 0 view .LVU216
 612 007c 32F81750 		ldrh	r5, [r2, r7, lsl #1]
1143:Drivers/lvgl/src/core/lv_refr.c ****     *b = *c;
 613              		.loc 1 1143 5 is_stmt 1 view .LVU217
1143:Drivers/lvgl/src/core/lv_refr.c ****     *b = *c;
ARM GAS  /var/folders/0z/tsy30v1j4xl4_7kw94k978ww0000gn/T//ccRTPM70.s 			page 36


 614              		.loc 1 1143 8 is_stmt 0 view .LVU218
 615 0080 32F81680 		ldrh	r8, [r2, r6, lsl #1]
 616 0084 22F81780 		strh	r8, [r2, r7, lsl #1]	@ movhi
1144:Drivers/lvgl/src/core/lv_refr.c ****     *c = *d;
 617              		.loc 1 1144 5 is_stmt 1 view .LVU219
1144:Drivers/lvgl/src/core/lv_refr.c ****     *c = *d;
 618              		.loc 1 1144 8 is_stmt 0 view .LVU220
 619 0088 32F81370 		ldrh	r7, [r2, r3, lsl #1]
 620              	.LVL64:
1144:Drivers/lvgl/src/core/lv_refr.c ****     *c = *d;
 621              		.loc 1 1144 8 view .LVU221
 622 008c 22F81670 		strh	r7, [r2, r6, lsl #1]	@ movhi
1145:Drivers/lvgl/src/core/lv_refr.c ****     *d = tmp;
 623              		.loc 1 1145 5 is_stmt 1 view .LVU222
1145:Drivers/lvgl/src/core/lv_refr.c ****     *d = tmp;
 624              		.loc 1 1145 8 is_stmt 0 view .LVU223
 625 0090 32F81C60 		ldrh	r6, [r2, ip, lsl #1]
 626              	.LVL65:
1145:Drivers/lvgl/src/core/lv_refr.c ****     *d = tmp;
 627              		.loc 1 1145 8 view .LVU224
 628 0094 22F81360 		strh	r6, [r2, r3, lsl #1]	@ movhi
1146:Drivers/lvgl/src/core/lv_refr.c **** }
 629              		.loc 1 1146 5 is_stmt 1 view .LVU225
 630              	.LVL66:
1146:Drivers/lvgl/src/core/lv_refr.c **** }
 631              		.loc 1 1146 8 is_stmt 0 view .LVU226
 632 0098 22F81C50 		strh	r5, [r2, ip, lsl #1]	@ movhi
1147:Drivers/lvgl/src/core/lv_refr.c **** 
 633              		.loc 1 1147 1 view .LVU227
 634 009c CCE7     		b	.L30
 635              	.LVL67:
 636              	.L35:
1147:Drivers/lvgl/src/core/lv_refr.c **** 
 637              		.loc 1 1147 1 view .LVU228
 638              	.LBE93:
 639              	.LBE92:
 640              	.LBE94:
 641              	.LBE88:
1155:Drivers/lvgl/src/core/lv_refr.c ****         for(lv_coord_t j = 0; j < (w + 1) / 2; j++) {
 642              		.loc 1 1155 39 is_stmt 1 discriminator 2 view .LVU229
 643 009e 0134     		adds	r4, r4, #1
 644              	.LVL68:
1155:Drivers/lvgl/src/core/lv_refr.c ****         for(lv_coord_t j = 0; j < (w + 1) / 2; j++) {
 645              		.loc 1 1155 39 is_stmt 0 discriminator 2 view .LVU230
 646 00a0 24B2     		sxth	r4, r4
 647              	.LVL69:
 648              	.L28:
1155:Drivers/lvgl/src/core/lv_refr.c ****         for(lv_coord_t j = 0; j < (w + 1) / 2; j++) {
 649              		.loc 1 1155 29 is_stmt 1 discriminator 1 view .LVU231
 650 00a2 01EBD173 		add	r3, r1, r1, lsr #31
 651 00a6 B4EB630F 		cmp	r4, r3, asr #1
 652 00aa 02DA     		bge	.L36
 653              	.LBB95:
1156:Drivers/lvgl/src/core/lv_refr.c ****             lv_coord_t inv_i = (w - 1) - i;
 654              		.loc 1 1156 24 is_stmt 0 view .LVU232
 655 00ac 4FF0000E 		mov	lr, #0
 656 00b0 C6E7     		b	.L32
ARM GAS  /var/folders/0z/tsy30v1j4xl4_7kw94k978ww0000gn/T//ccRTPM70.s 			page 37


 657              	.L36:
 658              	.LBE95:
 659              	.LBE87:
1173:Drivers/lvgl/src/core/lv_refr.c ****                 );
1174:Drivers/lvgl/src/core/lv_refr.c ****             }
1175:Drivers/lvgl/src/core/lv_refr.c **** 
1176:Drivers/lvgl/src/core/lv_refr.c ****         }
1177:Drivers/lvgl/src/core/lv_refr.c ****     }
1178:Drivers/lvgl/src/core/lv_refr.c **** }
 660              		.loc 1 1178 1 view .LVU233
 661 00b2 BDE8F081 		pop	{r4, r5, r6, r7, r8, pc}
 662              		.loc 1 1178 1 view .LVU234
 663              		.cfi_endproc
 664              	.LFE190:
 666              		.section	.text.call_flush_cb,"ax",%progbits
 667              		.align	1
 668              		.syntax unified
 669              		.thumb
 670              		.thumb_func
 672              	call_flush_cb:
 673              	.LVL70:
 674              	.LFB193:
1179:Drivers/lvgl/src/core/lv_refr.c **** 
1180:Drivers/lvgl/src/core/lv_refr.c **** /**
1181:Drivers/lvgl/src/core/lv_refr.c ****  * Rotate the draw_buf to the display's native orientation.
1182:Drivers/lvgl/src/core/lv_refr.c ****  */
1183:Drivers/lvgl/src/core/lv_refr.c **** static void draw_buf_rotate(lv_area_t * area, lv_color_t * color_p)
1184:Drivers/lvgl/src/core/lv_refr.c **** {
1185:Drivers/lvgl/src/core/lv_refr.c ****     lv_disp_drv_t * drv = disp_refr->driver;
1186:Drivers/lvgl/src/core/lv_refr.c ****     if(disp_refr->driver->full_refresh && drv->sw_rotate) {
1187:Drivers/lvgl/src/core/lv_refr.c ****         LV_LOG_ERROR("cannot rotate a full refreshed display!");
1188:Drivers/lvgl/src/core/lv_refr.c ****         return;
1189:Drivers/lvgl/src/core/lv_refr.c ****     }
1190:Drivers/lvgl/src/core/lv_refr.c ****     if(drv->rotated == LV_DISP_ROT_180) {
1191:Drivers/lvgl/src/core/lv_refr.c ****         draw_buf_rotate_180(drv, area, color_p);
1192:Drivers/lvgl/src/core/lv_refr.c ****         call_flush_cb(drv, area, color_p);
1193:Drivers/lvgl/src/core/lv_refr.c ****     }
1194:Drivers/lvgl/src/core/lv_refr.c ****     else if(drv->rotated == LV_DISP_ROT_90 || drv->rotated == LV_DISP_ROT_270) {
1195:Drivers/lvgl/src/core/lv_refr.c ****         /*Allocate a temporary buffer to store rotated image*/
1196:Drivers/lvgl/src/core/lv_refr.c ****         lv_color_t * rot_buf = NULL;
1197:Drivers/lvgl/src/core/lv_refr.c ****         lv_disp_draw_buf_t * draw_buf = lv_disp_get_draw_buf(disp_refr);
1198:Drivers/lvgl/src/core/lv_refr.c ****         lv_coord_t area_w = lv_area_get_width(area);
1199:Drivers/lvgl/src/core/lv_refr.c ****         lv_coord_t area_h = lv_area_get_height(area);
1200:Drivers/lvgl/src/core/lv_refr.c ****         /*Determine the maximum number of rows that can be rotated at a time*/
1201:Drivers/lvgl/src/core/lv_refr.c ****         lv_coord_t max_row = LV_MIN((lv_coord_t)((LV_DISP_ROT_MAX_BUF / sizeof(lv_color_t)) / area_
1202:Drivers/lvgl/src/core/lv_refr.c ****         lv_coord_t init_y_off;
1203:Drivers/lvgl/src/core/lv_refr.c ****         init_y_off = area->y1;
1204:Drivers/lvgl/src/core/lv_refr.c ****         if(drv->rotated == LV_DISP_ROT_90) {
1205:Drivers/lvgl/src/core/lv_refr.c ****             area->y2 = drv->ver_res - area->x1 - 1;
1206:Drivers/lvgl/src/core/lv_refr.c ****             area->y1 = area->y2 - area_w + 1;
1207:Drivers/lvgl/src/core/lv_refr.c ****         }
1208:Drivers/lvgl/src/core/lv_refr.c ****         else {
1209:Drivers/lvgl/src/core/lv_refr.c ****             area->y1 = area->x1;
1210:Drivers/lvgl/src/core/lv_refr.c ****             area->y2 = area->y1 + area_w - 1;
1211:Drivers/lvgl/src/core/lv_refr.c ****         }
1212:Drivers/lvgl/src/core/lv_refr.c **** 
1213:Drivers/lvgl/src/core/lv_refr.c ****         /*Rotate the screen in chunks, flushing after each one*/
ARM GAS  /var/folders/0z/tsy30v1j4xl4_7kw94k978ww0000gn/T//ccRTPM70.s 			page 38


1214:Drivers/lvgl/src/core/lv_refr.c ****         lv_coord_t row = 0;
1215:Drivers/lvgl/src/core/lv_refr.c ****         while(row < area_h) {
1216:Drivers/lvgl/src/core/lv_refr.c ****             lv_coord_t height = LV_MIN(max_row, area_h - row);
1217:Drivers/lvgl/src/core/lv_refr.c ****             draw_buf->flushing = 1;
1218:Drivers/lvgl/src/core/lv_refr.c ****             if((row == 0) && (area_h >= area_w)) {
1219:Drivers/lvgl/src/core/lv_refr.c ****                 /*Rotate the initial area as a square*/
1220:Drivers/lvgl/src/core/lv_refr.c ****                 height = area_w;
1221:Drivers/lvgl/src/core/lv_refr.c ****                 draw_buf_rotate_90_sqr(drv->rotated == LV_DISP_ROT_270, area_w, color_p);
1222:Drivers/lvgl/src/core/lv_refr.c ****                 if(drv->rotated == LV_DISP_ROT_90) {
1223:Drivers/lvgl/src/core/lv_refr.c ****                     area->x1 = init_y_off;
1224:Drivers/lvgl/src/core/lv_refr.c ****                     area->x2 = init_y_off + area_w - 1;
1225:Drivers/lvgl/src/core/lv_refr.c ****                 }
1226:Drivers/lvgl/src/core/lv_refr.c ****                 else {
1227:Drivers/lvgl/src/core/lv_refr.c ****                     area->x2 = drv->hor_res - 1 - init_y_off;
1228:Drivers/lvgl/src/core/lv_refr.c ****                     area->x1 = area->x2 - area_w + 1;
1229:Drivers/lvgl/src/core/lv_refr.c ****                 }
1230:Drivers/lvgl/src/core/lv_refr.c ****             }
1231:Drivers/lvgl/src/core/lv_refr.c ****             else {
1232:Drivers/lvgl/src/core/lv_refr.c ****                 /*Rotate other areas using a maximum buffer size*/
1233:Drivers/lvgl/src/core/lv_refr.c ****                 if(rot_buf == NULL) rot_buf = lv_mem_buf_get(LV_DISP_ROT_MAX_BUF);
1234:Drivers/lvgl/src/core/lv_refr.c ****                 draw_buf_rotate_90(drv->rotated == LV_DISP_ROT_270, area_w, height, color_p, rot_bu
1235:Drivers/lvgl/src/core/lv_refr.c **** 
1236:Drivers/lvgl/src/core/lv_refr.c ****                 if(drv->rotated == LV_DISP_ROT_90) {
1237:Drivers/lvgl/src/core/lv_refr.c ****                     area->x1 = init_y_off + row;
1238:Drivers/lvgl/src/core/lv_refr.c ****                     area->x2 = init_y_off + row + height - 1;
1239:Drivers/lvgl/src/core/lv_refr.c ****                 }
1240:Drivers/lvgl/src/core/lv_refr.c ****                 else {
1241:Drivers/lvgl/src/core/lv_refr.c ****                     area->x2 = drv->hor_res - 1 - init_y_off - row;
1242:Drivers/lvgl/src/core/lv_refr.c ****                     area->x1 = area->x2 - height + 1;
1243:Drivers/lvgl/src/core/lv_refr.c ****                 }
1244:Drivers/lvgl/src/core/lv_refr.c ****             }
1245:Drivers/lvgl/src/core/lv_refr.c **** 
1246:Drivers/lvgl/src/core/lv_refr.c ****             /* The original part (chunk of the current area) were split into more parts here.
1247:Drivers/lvgl/src/core/lv_refr.c ****              * Set the original last_part flag on the last part of rotation. */
1248:Drivers/lvgl/src/core/lv_refr.c ****             if(row + height >= area_h && draw_buf->last_area && draw_buf->last_part) {
1249:Drivers/lvgl/src/core/lv_refr.c ****                 draw_buf->flushing_last = 1;
1250:Drivers/lvgl/src/core/lv_refr.c ****             }
1251:Drivers/lvgl/src/core/lv_refr.c ****             else {
1252:Drivers/lvgl/src/core/lv_refr.c ****                 draw_buf->flushing_last = 0;
1253:Drivers/lvgl/src/core/lv_refr.c ****             }
1254:Drivers/lvgl/src/core/lv_refr.c **** 
1255:Drivers/lvgl/src/core/lv_refr.c ****             /*Flush the completed area to the display*/
1256:Drivers/lvgl/src/core/lv_refr.c ****             call_flush_cb(drv, area, rot_buf == NULL ? color_p : rot_buf);
1257:Drivers/lvgl/src/core/lv_refr.c ****             /*FIXME: Rotation forces legacy behavior where rendering and flushing are done serially
1258:Drivers/lvgl/src/core/lv_refr.c ****             while(draw_buf->flushing) {
1259:Drivers/lvgl/src/core/lv_refr.c ****                 if(drv->wait_cb) drv->wait_cb(drv);
1260:Drivers/lvgl/src/core/lv_refr.c ****             }
1261:Drivers/lvgl/src/core/lv_refr.c ****             color_p += area_w * height;
1262:Drivers/lvgl/src/core/lv_refr.c ****             row += height;
1263:Drivers/lvgl/src/core/lv_refr.c ****         }
1264:Drivers/lvgl/src/core/lv_refr.c ****         /*Free the allocated buffer at the end if necessary*/
1265:Drivers/lvgl/src/core/lv_refr.c ****         if(rot_buf != NULL) lv_mem_buf_release(rot_buf);
1266:Drivers/lvgl/src/core/lv_refr.c ****     }
1267:Drivers/lvgl/src/core/lv_refr.c **** }
1268:Drivers/lvgl/src/core/lv_refr.c **** 
1269:Drivers/lvgl/src/core/lv_refr.c **** /**
1270:Drivers/lvgl/src/core/lv_refr.c ****  * Flush the content of the draw buffer
ARM GAS  /var/folders/0z/tsy30v1j4xl4_7kw94k978ww0000gn/T//ccRTPM70.s 			page 39


1271:Drivers/lvgl/src/core/lv_refr.c ****  */
1272:Drivers/lvgl/src/core/lv_refr.c **** static void draw_buf_flush(lv_disp_t * disp)
1273:Drivers/lvgl/src/core/lv_refr.c **** {
1274:Drivers/lvgl/src/core/lv_refr.c ****     lv_disp_draw_buf_t * draw_buf = lv_disp_get_draw_buf(disp_refr);
1275:Drivers/lvgl/src/core/lv_refr.c **** 
1276:Drivers/lvgl/src/core/lv_refr.c ****     /*Flush the rendered content to the display*/
1277:Drivers/lvgl/src/core/lv_refr.c ****     lv_draw_ctx_t * draw_ctx = disp->driver->draw_ctx;
1278:Drivers/lvgl/src/core/lv_refr.c ****     if(draw_ctx->wait_for_finish) draw_ctx->wait_for_finish(draw_ctx);
1279:Drivers/lvgl/src/core/lv_refr.c **** 
1280:Drivers/lvgl/src/core/lv_refr.c ****     /* In partial double buffered mode wait until the other buffer is freed
1281:Drivers/lvgl/src/core/lv_refr.c ****      * and driver is ready to receive the new buffer */
1282:Drivers/lvgl/src/core/lv_refr.c ****     bool full_sized = draw_buf->size == (uint32_t)disp_refr->driver->hor_res * disp_refr->driver->v
1283:Drivers/lvgl/src/core/lv_refr.c ****     if(draw_buf->buf1 && draw_buf->buf2 && !full_sized) {
1284:Drivers/lvgl/src/core/lv_refr.c ****         while(draw_buf->flushing) {
1285:Drivers/lvgl/src/core/lv_refr.c ****             if(disp_refr->driver->wait_cb) disp_refr->driver->wait_cb(disp_refr->driver);
1286:Drivers/lvgl/src/core/lv_refr.c ****         }
1287:Drivers/lvgl/src/core/lv_refr.c ****     }
1288:Drivers/lvgl/src/core/lv_refr.c **** 
1289:Drivers/lvgl/src/core/lv_refr.c ****     draw_buf->flushing = 1;
1290:Drivers/lvgl/src/core/lv_refr.c **** 
1291:Drivers/lvgl/src/core/lv_refr.c ****     if(disp_refr->driver->draw_buf->last_area && disp_refr->driver->draw_buf->last_part) draw_buf->
1292:Drivers/lvgl/src/core/lv_refr.c ****     else draw_buf->flushing_last = 0;
1293:Drivers/lvgl/src/core/lv_refr.c **** 
1294:Drivers/lvgl/src/core/lv_refr.c ****     bool flushing_last = draw_buf->flushing_last;
1295:Drivers/lvgl/src/core/lv_refr.c **** 
1296:Drivers/lvgl/src/core/lv_refr.c ****     if(disp->driver->flush_cb) {
1297:Drivers/lvgl/src/core/lv_refr.c ****         /*Rotate the buffer to the display's native orientation if necessary*/
1298:Drivers/lvgl/src/core/lv_refr.c ****         if(disp->driver->rotated != LV_DISP_ROT_NONE && disp->driver->sw_rotate) {
1299:Drivers/lvgl/src/core/lv_refr.c ****             draw_buf_rotate(draw_ctx->buf_area, draw_ctx->buf);
1300:Drivers/lvgl/src/core/lv_refr.c ****         }
1301:Drivers/lvgl/src/core/lv_refr.c ****         else {
1302:Drivers/lvgl/src/core/lv_refr.c ****             call_flush_cb(disp->driver, draw_ctx->buf_area, draw_ctx->buf);
1303:Drivers/lvgl/src/core/lv_refr.c ****         }
1304:Drivers/lvgl/src/core/lv_refr.c ****     }
1305:Drivers/lvgl/src/core/lv_refr.c **** 
1306:Drivers/lvgl/src/core/lv_refr.c ****     /*If there are 2 buffers swap them. With direct mode swap only on the last area*/
1307:Drivers/lvgl/src/core/lv_refr.c ****     if(draw_buf->buf1 && draw_buf->buf2 && (!disp->driver->direct_mode || flushing_last)) {
1308:Drivers/lvgl/src/core/lv_refr.c ****         if(draw_buf->buf_act == draw_buf->buf1)
1309:Drivers/lvgl/src/core/lv_refr.c ****             draw_buf->buf_act = draw_buf->buf2;
1310:Drivers/lvgl/src/core/lv_refr.c ****         else
1311:Drivers/lvgl/src/core/lv_refr.c ****             draw_buf->buf_act = draw_buf->buf1;
1312:Drivers/lvgl/src/core/lv_refr.c ****     }
1313:Drivers/lvgl/src/core/lv_refr.c **** }
1314:Drivers/lvgl/src/core/lv_refr.c **** 
1315:Drivers/lvgl/src/core/lv_refr.c **** static void call_flush_cb(lv_disp_drv_t * drv, const lv_area_t * area, lv_color_t * color_p)
1316:Drivers/lvgl/src/core/lv_refr.c **** {
 675              		.loc 1 1316 1 is_stmt 1 view -0
 676              		.cfi_startproc
 677              		@ args = 0, pretend = 0, frame = 8
 678              		@ frame_needed = 0, uses_anonymous_args = 0
 679              		.loc 1 1316 1 is_stmt 0 view .LVU236
 680 0000 10B5     		push	{r4, lr}
 681              		.cfi_def_cfa_offset 8
 682              		.cfi_offset 4, -8
 683              		.cfi_offset 14, -4
 684 0002 82B0     		sub	sp, sp, #8
 685              		.cfi_def_cfa_offset 16
ARM GAS  /var/folders/0z/tsy30v1j4xl4_7kw94k978ww0000gn/T//ccRTPM70.s 			page 40


1317:Drivers/lvgl/src/core/lv_refr.c ****     REFR_TRACE("Calling flush_cb on (%d;%d)(%d;%d) area with %p image pointer", area->x1, area->y1,
1318:Drivers/lvgl/src/core/lv_refr.c ****                (void *)color_p);
 686              		.loc 1 1318 32 is_stmt 1 view .LVU237
1319:Drivers/lvgl/src/core/lv_refr.c **** 
1320:Drivers/lvgl/src/core/lv_refr.c ****     lv_area_t offset_area = {
 687              		.loc 1 1320 5 view .LVU238
1321:Drivers/lvgl/src/core/lv_refr.c ****         .x1 = area->x1 + drv->offset_x,
 688              		.loc 1 1321 19 is_stmt 0 view .LVU239
 689 0004 0C88     		ldrh	r4, [r1]
 690              		.loc 1 1321 29 view .LVU240
 691 0006 B0F808E0 		ldrh	lr, [r0, #8]
 692              		.loc 1 1321 24 view .LVU241
 693 000a 7444     		add	r4, r4, lr
1320:Drivers/lvgl/src/core/lv_refr.c ****         .x1 = area->x1 + drv->offset_x,
 694              		.loc 1 1320 15 view .LVU242
 695 000c ADF80040 		strh	r4, [sp]	@ movhi
1322:Drivers/lvgl/src/core/lv_refr.c ****         .y1 = area->y1 + drv->offset_y,
 696              		.loc 1 1322 19 view .LVU243
 697 0010 4C88     		ldrh	r4, [r1, #2]
 698              		.loc 1 1322 29 view .LVU244
 699 0012 B0F80AC0 		ldrh	ip, [r0, #10]
 700              		.loc 1 1322 24 view .LVU245
 701 0016 6444     		add	r4, r4, ip
1320:Drivers/lvgl/src/core/lv_refr.c ****         .x1 = area->x1 + drv->offset_x,
 702              		.loc 1 1320 15 view .LVU246
 703 0018 ADF80240 		strh	r4, [sp, #2]	@ movhi
1323:Drivers/lvgl/src/core/lv_refr.c ****         .x2 = area->x2 + drv->offset_x,
 704              		.loc 1 1323 19 view .LVU247
 705 001c 8C88     		ldrh	r4, [r1, #4]
 706              		.loc 1 1323 24 view .LVU248
 707 001e A644     		add	lr, lr, r4
1320:Drivers/lvgl/src/core/lv_refr.c ****         .x1 = area->x1 + drv->offset_x,
 708              		.loc 1 1320 15 view .LVU249
 709 0020 ADF804E0 		strh	lr, [sp, #4]	@ movhi
1324:Drivers/lvgl/src/core/lv_refr.c ****         .y2 = area->y2 + drv->offset_y
 710              		.loc 1 1324 19 view .LVU250
 711 0024 C988     		ldrh	r1, [r1, #6]
 712              	.LVL71:
 713              		.loc 1 1324 24 view .LVU251
 714 0026 8C44     		add	ip, ip, r1
1320:Drivers/lvgl/src/core/lv_refr.c ****         .x1 = area->x1 + drv->offset_x,
 715              		.loc 1 1320 15 view .LVU252
 716 0028 ADF806C0 		strh	ip, [sp, #6]	@ movhi
1325:Drivers/lvgl/src/core/lv_refr.c ****     };
1326:Drivers/lvgl/src/core/lv_refr.c **** 
1327:Drivers/lvgl/src/core/lv_refr.c ****     drv->flush_cb(drv, &offset_area, color_p);
 717              		.loc 1 1327 5 is_stmt 1 view .LVU253
 718              		.loc 1 1327 8 is_stmt 0 view .LVU254
 719 002c 4369     		ldr	r3, [r0, #20]
 720              		.loc 1 1327 5 view .LVU255
 721 002e 6946     		mov	r1, sp
 722 0030 9847     		blx	r3
 723              	.LVL72:
1328:Drivers/lvgl/src/core/lv_refr.c **** }
 724              		.loc 1 1328 1 view .LVU256
 725 0032 02B0     		add	sp, sp, #8
 726              		.cfi_def_cfa_offset 8
ARM GAS  /var/folders/0z/tsy30v1j4xl4_7kw94k978ww0000gn/T//ccRTPM70.s 			page 41


 727              		@ sp needed
 728 0034 10BD     		pop	{r4, pc}
 729              		.cfi_endproc
 730              	.LFE193:
 732              		.section	.text.perf_monitor_init,"ax",%progbits
 733              		.align	1
 734              		.syntax unified
 735              		.thumb
 736              		.thumb_func
 738              	perf_monitor_init:
 739              	.LVL73:
 740              	.LFB194:
1329:Drivers/lvgl/src/core/lv_refr.c **** 
1330:Drivers/lvgl/src/core/lv_refr.c **** #if LV_USE_PERF_MONITOR
1331:Drivers/lvgl/src/core/lv_refr.c **** static void perf_monitor_init(perf_monitor_t * _perf_monitor)
1332:Drivers/lvgl/src/core/lv_refr.c **** {
 741              		.loc 1 1332 1 is_stmt 1 view -0
 742              		.cfi_startproc
 743              		@ args = 0, pretend = 0, frame = 0
 744              		@ frame_needed = 0, uses_anonymous_args = 0
 745              		@ link register save eliminated.
1333:Drivers/lvgl/src/core/lv_refr.c ****     LV_ASSERT_NULL(_perf_monitor);
 746              		.loc 1 1333 5 view .LVU258
 747              		.loc 1 1333 5 view .LVU259
 748 0000 38B1     		cbz	r0, .L41
 749              		.loc 1 1333 5 discriminator 2 view .LVU260
 750              		.loc 1 1333 34 discriminator 2 view .LVU261
1334:Drivers/lvgl/src/core/lv_refr.c ****     _perf_monitor->elaps_sum = 0;
 751              		.loc 1 1334 5 discriminator 2 view .LVU262
 752              		.loc 1 1334 30 is_stmt 0 discriminator 2 view .LVU263
 753 0002 0022     		movs	r2, #0
 754 0004 4260     		str	r2, [r0, #4]
1335:Drivers/lvgl/src/core/lv_refr.c ****     _perf_monitor->fps_sum_all = 0;
 755              		.loc 1 1335 5 is_stmt 1 discriminator 2 view .LVU264
 756              		.loc 1 1335 32 is_stmt 0 discriminator 2 view .LVU265
 757 0006 0261     		str	r2, [r0, #16]
1336:Drivers/lvgl/src/core/lv_refr.c ****     _perf_monitor->fps_sum_cnt = 0;
 758              		.loc 1 1336 5 is_stmt 1 discriminator 2 view .LVU266
 759              		.loc 1 1336 32 is_stmt 0 discriminator 2 view .LVU267
 760 0008 C260     		str	r2, [r0, #12]
1337:Drivers/lvgl/src/core/lv_refr.c ****     _perf_monitor->frame_cnt = 0;
 761              		.loc 1 1337 5 is_stmt 1 discriminator 2 view .LVU268
 762              		.loc 1 1337 30 is_stmt 0 discriminator 2 view .LVU269
 763 000a 8260     		str	r2, [r0, #8]
1338:Drivers/lvgl/src/core/lv_refr.c ****     _perf_monitor->perf_last_time = 0;
 764              		.loc 1 1338 5 is_stmt 1 discriminator 2 view .LVU270
 765              		.loc 1 1338 35 is_stmt 0 discriminator 2 view .LVU271
 766 000c 0260     		str	r2, [r0]
1339:Drivers/lvgl/src/core/lv_refr.c ****     _perf_monitor->perf_label = NULL;
 767              		.loc 1 1339 5 is_stmt 1 discriminator 2 view .LVU272
 768              		.loc 1 1339 31 is_stmt 0 discriminator 2 view .LVU273
 769 000e 4261     		str	r2, [r0, #20]
1340:Drivers/lvgl/src/core/lv_refr.c **** }
 770              		.loc 1 1340 1 discriminator 2 view .LVU274
 771 0010 7047     		bx	lr
 772              	.L41:
1333:Drivers/lvgl/src/core/lv_refr.c ****     _perf_monitor->elaps_sum = 0;
ARM GAS  /var/folders/0z/tsy30v1j4xl4_7kw94k978ww0000gn/T//ccRTPM70.s 			page 42


 773              		.loc 1 1333 5 is_stmt 1 discriminator 1 view .LVU275
1333:Drivers/lvgl/src/core/lv_refr.c ****     _perf_monitor->elaps_sum = 0;
 774              		.loc 1 1333 5 discriminator 1 view .LVU276
1333:Drivers/lvgl/src/core/lv_refr.c ****     _perf_monitor->elaps_sum = 0;
 775              		.loc 1 1333 5 discriminator 1 view .LVU277
1333:Drivers/lvgl/src/core/lv_refr.c ****     _perf_monitor->elaps_sum = 0;
 776              		.loc 1 1333 5 discriminator 1 view .LVU278
1333:Drivers/lvgl/src/core/lv_refr.c ****     _perf_monitor->elaps_sum = 0;
 777              		.loc 1 1333 5 discriminator 1 view .LVU279
 778 0012 FEE7     		b	.L41
 779              		.cfi_endproc
 780              	.LFE194:
 782              		.section	.text.mem_monitor_init,"ax",%progbits
 783              		.align	1
 784              		.syntax unified
 785              		.thumb
 786              		.thumb_func
 788              	mem_monitor_init:
 789              	.LVL74:
 790              	.LFB195:
1341:Drivers/lvgl/src/core/lv_refr.c **** #endif
1342:Drivers/lvgl/src/core/lv_refr.c **** 
1343:Drivers/lvgl/src/core/lv_refr.c **** #if LV_USE_MEM_MONITOR
1344:Drivers/lvgl/src/core/lv_refr.c **** static void mem_monitor_init(mem_monitor_t * _mem_monitor)
1345:Drivers/lvgl/src/core/lv_refr.c **** {
 791              		.loc 1 1345 1 view -0
 792              		.cfi_startproc
 793              		@ args = 0, pretend = 0, frame = 0
 794              		@ frame_needed = 0, uses_anonymous_args = 0
 795              		@ link register save eliminated.
1346:Drivers/lvgl/src/core/lv_refr.c ****     LV_ASSERT_NULL(_mem_monitor);
 796              		.loc 1 1346 5 view .LVU281
 797              		.loc 1 1346 5 view .LVU282
 798 0000 18B1     		cbz	r0, .L44
 799              		.loc 1 1346 5 discriminator 2 view .LVU283
 800              		.loc 1 1346 33 discriminator 2 view .LVU284
1347:Drivers/lvgl/src/core/lv_refr.c ****     _mem_monitor->mem_last_time = 0;
 801              		.loc 1 1347 5 discriminator 2 view .LVU285
 802              		.loc 1 1347 33 is_stmt 0 discriminator 2 view .LVU286
 803 0002 0022     		movs	r2, #0
 804 0004 0260     		str	r2, [r0]
1348:Drivers/lvgl/src/core/lv_refr.c ****     _mem_monitor->mem_label = NULL;
 805              		.loc 1 1348 5 is_stmt 1 discriminator 2 view .LVU287
 806              		.loc 1 1348 29 is_stmt 0 discriminator 2 view .LVU288
 807 0006 4260     		str	r2, [r0, #4]
1349:Drivers/lvgl/src/core/lv_refr.c **** }
 808              		.loc 1 1349 1 discriminator 2 view .LVU289
 809 0008 7047     		bx	lr
 810              	.L44:
1346:Drivers/lvgl/src/core/lv_refr.c ****     _mem_monitor->mem_last_time = 0;
 811              		.loc 1 1346 5 is_stmt 1 discriminator 1 view .LVU290
1346:Drivers/lvgl/src/core/lv_refr.c ****     _mem_monitor->mem_last_time = 0;
 812              		.loc 1 1346 5 discriminator 1 view .LVU291
1346:Drivers/lvgl/src/core/lv_refr.c ****     _mem_monitor->mem_last_time = 0;
 813              		.loc 1 1346 5 discriminator 1 view .LVU292
1346:Drivers/lvgl/src/core/lv_refr.c ****     _mem_monitor->mem_last_time = 0;
 814              		.loc 1 1346 5 discriminator 1 view .LVU293
ARM GAS  /var/folders/0z/tsy30v1j4xl4_7kw94k978ww0000gn/T//ccRTPM70.s 			page 43


1346:Drivers/lvgl/src/core/lv_refr.c ****     _mem_monitor->mem_last_time = 0;
 815              		.loc 1 1346 5 discriminator 1 view .LVU294
 816 000a FEE7     		b	.L44
 817              		.cfi_endproc
 818              	.LFE195:
 820              		.section	.text.lv_refr_get_top_obj,"ax",%progbits
 821              		.align	1
 822              		.syntax unified
 823              		.thumb
 824              		.thumb_func
 826              	lv_refr_get_top_obj:
 827              	.LVL75:
 828              	.LFB181:
 808:Drivers/lvgl/src/core/lv_refr.c ****     lv_obj_t * found_p = NULL;
 829              		.loc 1 808 1 view -0
 830              		.cfi_startproc
 831              		@ args = 0, pretend = 0, frame = 8
 832              		@ frame_needed = 0, uses_anonymous_args = 0
 808:Drivers/lvgl/src/core/lv_refr.c ****     lv_obj_t * found_p = NULL;
 833              		.loc 1 808 1 is_stmt 0 view .LVU296
 834 0000 70B5     		push	{r4, r5, r6, lr}
 835              		.cfi_def_cfa_offset 16
 836              		.cfi_offset 4, -16
 837              		.cfi_offset 5, -12
 838              		.cfi_offset 6, -8
 839              		.cfi_offset 14, -4
 840 0002 82B0     		sub	sp, sp, #8
 841              		.cfi_def_cfa_offset 24
 842 0004 0646     		mov	r6, r0
 843 0006 0C46     		mov	r4, r1
 809:Drivers/lvgl/src/core/lv_refr.c **** 
 844              		.loc 1 809 5 is_stmt 1 view .LVU297
 845              	.LVL76:
 811:Drivers/lvgl/src/core/lv_refr.c ****     if(lv_obj_has_flag(obj, LV_OBJ_FLAG_HIDDEN)) return NULL;
 846              		.loc 1 811 5 view .LVU298
 811:Drivers/lvgl/src/core/lv_refr.c ****     if(lv_obj_has_flag(obj, LV_OBJ_FLAG_HIDDEN)) return NULL;
 847              		.loc 1 811 8 is_stmt 0 view .LVU299
 848 0008 0022     		movs	r2, #0
 849 000a 1431     		adds	r1, r1, #20
 850              	.LVL77:
 811:Drivers/lvgl/src/core/lv_refr.c ****     if(lv_obj_has_flag(obj, LV_OBJ_FLAG_HIDDEN)) return NULL;
 851              		.loc 1 811 8 view .LVU300
 852 000c FFF7FEFF 		bl	_lv_area_is_in
 853              	.LVL78:
 811:Drivers/lvgl/src/core/lv_refr.c ****     if(lv_obj_has_flag(obj, LV_OBJ_FLAG_HIDDEN)) return NULL;
 854              		.loc 1 811 7 view .LVU301
 855 0010 68B3     		cbz	r0, .L50
 812:Drivers/lvgl/src/core/lv_refr.c ****     if(_lv_obj_get_layer_type(obj) != LV_LAYER_TYPE_NONE) return NULL;
 856              		.loc 1 812 5 is_stmt 1 view .LVU302
 812:Drivers/lvgl/src/core/lv_refr.c ****     if(_lv_obj_get_layer_type(obj) != LV_LAYER_TYPE_NONE) return NULL;
 857              		.loc 1 812 8 is_stmt 0 view .LVU303
 858 0012 0121     		movs	r1, #1
 859 0014 2046     		mov	r0, r4
 860 0016 FFF7FEFF 		bl	lv_obj_has_flag
 861              	.LVL79:
 812:Drivers/lvgl/src/core/lv_refr.c ****     if(_lv_obj_get_layer_type(obj) != LV_LAYER_TYPE_NONE) return NULL;
 862              		.loc 1 812 7 view .LVU304
ARM GAS  /var/folders/0z/tsy30v1j4xl4_7kw94k978ww0000gn/T//ccRTPM70.s 			page 44


 863 001a 58BB     		cbnz	r0, .L51
 813:Drivers/lvgl/src/core/lv_refr.c **** 
 864              		.loc 1 813 5 is_stmt 1 view .LVU305
 813:Drivers/lvgl/src/core/lv_refr.c **** 
 865              		.loc 1 813 8 is_stmt 0 view .LVU306
 866 001c 2046     		mov	r0, r4
 867 001e FFF7FEFF 		bl	_lv_obj_get_layer_type
 868              	.LVL80:
 813:Drivers/lvgl/src/core/lv_refr.c **** 
 869              		.loc 1 813 7 view .LVU307
 870 0022 48BB     		cbnz	r0, .L52
 816:Drivers/lvgl/src/core/lv_refr.c ****     info.res = LV_COVER_RES_COVER;
 871              		.loc 1 816 5 is_stmt 1 view .LVU308
 817:Drivers/lvgl/src/core/lv_refr.c ****     info.area = area_p;
 872              		.loc 1 817 5 view .LVU309
 817:Drivers/lvgl/src/core/lv_refr.c ****     info.area = area_p;
 873              		.loc 1 817 14 is_stmt 0 view .LVU310
 874 0024 0023     		movs	r3, #0
 875 0026 8DF80030 		strb	r3, [sp]
 818:Drivers/lvgl/src/core/lv_refr.c ****     lv_event_send(obj, LV_EVENT_COVER_CHECK, &info);
 876              		.loc 1 818 5 is_stmt 1 view .LVU311
 818:Drivers/lvgl/src/core/lv_refr.c ****     lv_event_send(obj, LV_EVENT_COVER_CHECK, &info);
 877              		.loc 1 818 15 is_stmt 0 view .LVU312
 878 002a 0196     		str	r6, [sp, #4]
 819:Drivers/lvgl/src/core/lv_refr.c ****     if(info.res == LV_COVER_RES_MASKED) return NULL;
 879              		.loc 1 819 5 is_stmt 1 view .LVU313
 880 002c 6A46     		mov	r2, sp
 881 002e 1221     		movs	r1, #18
 882 0030 2046     		mov	r0, r4
 883 0032 FFF7FEFF 		bl	lv_event_send
 884              	.LVL81:
 820:Drivers/lvgl/src/core/lv_refr.c **** 
 885              		.loc 1 820 5 view .LVU314
 820:Drivers/lvgl/src/core/lv_refr.c **** 
 886              		.loc 1 820 12 is_stmt 0 view .LVU315
 887 0036 9DF80030 		ldrb	r3, [sp]	@ zero_extendqisi2
 820:Drivers/lvgl/src/core/lv_refr.c **** 
 888              		.loc 1 820 7 view .LVU316
 889 003a 022B     		cmp	r3, #2
 890 003c 1ED0     		beq	.L53
 822:Drivers/lvgl/src/core/lv_refr.c ****     int32_t child_cnt = lv_obj_get_child_cnt(obj);
 891              		.loc 1 822 5 is_stmt 1 view .LVU317
 823:Drivers/lvgl/src/core/lv_refr.c ****     for(i = child_cnt - 1; i >= 0; i--) {
 892              		.loc 1 823 5 view .LVU318
 823:Drivers/lvgl/src/core/lv_refr.c ****     for(i = child_cnt - 1; i >= 0; i--) {
 893              		.loc 1 823 25 is_stmt 0 view .LVU319
 894 003e 2046     		mov	r0, r4
 895 0040 FFF7FEFF 		bl	lv_obj_get_child_cnt
 896              	.LVL82:
 824:Drivers/lvgl/src/core/lv_refr.c ****         lv_obj_t * child = obj->spec_attr->children[i];
 897              		.loc 1 824 5 is_stmt 1 view .LVU320
 824:Drivers/lvgl/src/core/lv_refr.c ****         lv_obj_t * child = obj->spec_attr->children[i];
 898              		.loc 1 824 11 is_stmt 0 view .LVU321
 899 0044 451E     		subs	r5, r0, #1
 900              	.LVL83:
 809:Drivers/lvgl/src/core/lv_refr.c **** 
 901              		.loc 1 809 16 view .LVU322
ARM GAS  /var/folders/0z/tsy30v1j4xl4_7kw94k978ww0000gn/T//ccRTPM70.s 			page 45


 902 0046 0020     		movs	r0, #0
 903              	.LVL84:
 824:Drivers/lvgl/src/core/lv_refr.c ****         lv_obj_t * child = obj->spec_attr->children[i];
 904              		.loc 1 824 5 view .LVU323
 905 0048 00E0     		b	.L47
 906              	.LVL85:
 907              	.L56:
 824:Drivers/lvgl/src/core/lv_refr.c ****         lv_obj_t * child = obj->spec_attr->children[i];
 908              		.loc 1 824 37 is_stmt 1 discriminator 2 view .LVU324
 909 004a 013D     		subs	r5, r5, #1
 910              	.LVL86:
 911              	.L47:
 824:Drivers/lvgl/src/core/lv_refr.c ****         lv_obj_t * child = obj->spec_attr->children[i];
 912              		.loc 1 824 30 discriminator 1 view .LVU325
 913 004c 002D     		cmp	r5, #0
 914 004e 08DB     		blt	.L48
 915              	.LBB96:
 825:Drivers/lvgl/src/core/lv_refr.c ****         found_p = lv_refr_get_top_obj(area_p, child);
 916              		.loc 1 825 9 view .LVU326
 825:Drivers/lvgl/src/core/lv_refr.c ****         found_p = lv_refr_get_top_obj(area_p, child);
 917              		.loc 1 825 31 is_stmt 0 view .LVU327
 918 0050 A368     		ldr	r3, [r4, #8]
 825:Drivers/lvgl/src/core/lv_refr.c ****         found_p = lv_refr_get_top_obj(area_p, child);
 919              		.loc 1 825 42 view .LVU328
 920 0052 1B68     		ldr	r3, [r3]
 921              	.LVL87:
 826:Drivers/lvgl/src/core/lv_refr.c **** 
 922              		.loc 1 826 9 is_stmt 1 view .LVU329
 826:Drivers/lvgl/src/core/lv_refr.c **** 
 923              		.loc 1 826 19 is_stmt 0 view .LVU330
 924 0054 53F82510 		ldr	r1, [r3, r5, lsl #2]
 925 0058 3046     		mov	r0, r6
 926              	.LVL88:
 826:Drivers/lvgl/src/core/lv_refr.c **** 
 927              		.loc 1 826 19 view .LVU331
 928 005a FFF7D1FF 		bl	lv_refr_get_top_obj
 929              	.LVL89:
 829:Drivers/lvgl/src/core/lv_refr.c ****             break;
 930              		.loc 1 829 9 is_stmt 1 view .LVU332
 829:Drivers/lvgl/src/core/lv_refr.c ****             break;
 931              		.loc 1 829 11 is_stmt 0 view .LVU333
 932 005e 0028     		cmp	r0, #0
 933 0060 F3D0     		beq	.L56
 934              	.L48:
 829:Drivers/lvgl/src/core/lv_refr.c ****             break;
 935              		.loc 1 829 11 view .LVU334
 936              	.LBE96:
 835:Drivers/lvgl/src/core/lv_refr.c ****         found_p = obj;
 937              		.loc 1 835 5 is_stmt 1 view .LVU335
 835:Drivers/lvgl/src/core/lv_refr.c ****         found_p = obj;
 938              		.loc 1 835 7 is_stmt 0 view .LVU336
 939 0062 28B9     		cbnz	r0, .L45
 835:Drivers/lvgl/src/core/lv_refr.c ****         found_p = obj;
 940              		.loc 1 835 31 discriminator 1 view .LVU337
 941 0064 9DF80030 		ldrb	r3, [sp]	@ zero_extendqisi2
 835:Drivers/lvgl/src/core/lv_refr.c ****         found_p = obj;
 942              		.loc 1 835 24 discriminator 1 view .LVU338
ARM GAS  /var/folders/0z/tsy30v1j4xl4_7kw94k978ww0000gn/T//ccRTPM70.s 			page 46


 943 0068 13B9     		cbnz	r3, .L45
 836:Drivers/lvgl/src/core/lv_refr.c ****     }
 944              		.loc 1 836 17 view .LVU339
 945 006a 2046     		mov	r0, r4
 946              	.LVL90:
 836:Drivers/lvgl/src/core/lv_refr.c ****     }
 947              		.loc 1 836 17 view .LVU340
 948 006c 00E0     		b	.L45
 949              	.LVL91:
 950              	.L50:
 811:Drivers/lvgl/src/core/lv_refr.c ****     if(lv_obj_has_flag(obj, LV_OBJ_FLAG_HIDDEN)) return NULL;
 951              		.loc 1 811 65 view .LVU341
 952 006e 0020     		movs	r0, #0
 953              	.LVL92:
 954              	.L45:
 840:Drivers/lvgl/src/core/lv_refr.c **** 
 955              		.loc 1 840 1 view .LVU342
 956 0070 02B0     		add	sp, sp, #8
 957              		.cfi_remember_state
 958              		.cfi_def_cfa_offset 16
 959              		@ sp needed
 960 0072 70BD     		pop	{r4, r5, r6, pc}
 961              	.LVL93:
 962              	.L51:
 963              		.cfi_restore_state
 812:Drivers/lvgl/src/core/lv_refr.c ****     if(_lv_obj_get_layer_type(obj) != LV_LAYER_TYPE_NONE) return NULL;
 964              		.loc 1 812 57 view .LVU343
 965 0074 0020     		movs	r0, #0
 966 0076 FBE7     		b	.L45
 967              	.L52:
 813:Drivers/lvgl/src/core/lv_refr.c **** 
 968              		.loc 1 813 66 view .LVU344
 969 0078 0020     		movs	r0, #0
 970 007a F9E7     		b	.L45
 971              	.L53:
 820:Drivers/lvgl/src/core/lv_refr.c **** 
 972              		.loc 1 820 48 view .LVU345
 973 007c 0020     		movs	r0, #0
 974 007e F7E7     		b	.L45
 975              		.cfi_endproc
 976              	.LFE181:
 978              		.section	.text.layer_get_area,"ax",%progbits
 979              		.align	1
 980              		.syntax unified
 981              		.thumb
 982              		.thumb_func
 984              	layer_get_area:
 985              	.LVL94:
 986              	.LFB183:
 896:Drivers/lvgl/src/core/lv_refr.c ****     lv_coord_t ext_draw_size = _lv_obj_get_ext_draw_size(obj);
 987              		.loc 1 896 1 is_stmt 1 view -0
 988              		.cfi_startproc
 989              		@ args = 0, pretend = 0, frame = 32
 990              		@ frame_needed = 0, uses_anonymous_args = 0
 896:Drivers/lvgl/src/core/lv_refr.c ****     lv_coord_t ext_draw_size = _lv_obj_get_ext_draw_size(obj);
 991              		.loc 1 896 1 is_stmt 0 view .LVU347
 992 0000 2DE9F041 		push	{r4, r5, r6, r7, r8, lr}
ARM GAS  /var/folders/0z/tsy30v1j4xl4_7kw94k978ww0000gn/T//ccRTPM70.s 			page 47


 993              		.cfi_def_cfa_offset 24
 994              		.cfi_offset 4, -24
 995              		.cfi_offset 5, -20
 996              		.cfi_offset 6, -16
 997              		.cfi_offset 7, -12
 998              		.cfi_offset 8, -8
 999              		.cfi_offset 14, -4
 1000 0004 88B0     		sub	sp, sp, #32
 1001              		.cfi_def_cfa_offset 56
 1002 0006 8046     		mov	r8, r0
 1003 0008 0E46     		mov	r6, r1
 1004 000a 1446     		mov	r4, r2
 1005 000c 1F46     		mov	r7, r3
 897:Drivers/lvgl/src/core/lv_refr.c ****     lv_area_t obj_coords_ext;
 1006              		.loc 1 897 5 is_stmt 1 view .LVU348
 897:Drivers/lvgl/src/core/lv_refr.c ****     lv_area_t obj_coords_ext;
 1007              		.loc 1 897 32 is_stmt 0 view .LVU349
 1008 000e 0846     		mov	r0, r1
 1009              	.LVL95:
 897:Drivers/lvgl/src/core/lv_refr.c ****     lv_area_t obj_coords_ext;
 1010              		.loc 1 897 32 view .LVU350
 1011 0010 FFF7FEFF 		bl	_lv_obj_get_ext_draw_size
 1012              	.LVL96:
 897:Drivers/lvgl/src/core/lv_refr.c ****     lv_area_t obj_coords_ext;
 1013              		.loc 1 897 32 view .LVU351
 1014 0014 0546     		mov	r5, r0
 1015              	.LVL97:
 898:Drivers/lvgl/src/core/lv_refr.c ****     lv_obj_get_coords(obj, &obj_coords_ext);
 1016              		.loc 1 898 5 is_stmt 1 view .LVU352
 899:Drivers/lvgl/src/core/lv_refr.c ****     lv_area_increase(&obj_coords_ext, ext_draw_size, ext_draw_size);
 1017              		.loc 1 899 5 view .LVU353
 1018 0016 06A9     		add	r1, sp, #24
 1019 0018 3046     		mov	r0, r6
 1020 001a FFF7FEFF 		bl	lv_obj_get_coords
 1021              	.LVL98:
 900:Drivers/lvgl/src/core/lv_refr.c **** 
 1022              		.loc 1 900 5 view .LVU354
 1023 001e 2A46     		mov	r2, r5
 1024 0020 2946     		mov	r1, r5
 1025 0022 06A8     		add	r0, sp, #24
 1026 0024 FFF7FEFF 		bl	lv_area_increase
 1027              	.LVL99:
 902:Drivers/lvgl/src/core/lv_refr.c ****         /*Get the transformed area and clip it to the current clip area.
 1028              		.loc 1 902 5 view .LVU355
 902:Drivers/lvgl/src/core/lv_refr.c ****         /*Get the transformed area and clip it to the current clip area.
 1029              		.loc 1 902 7 is_stmt 0 view .LVU356
 1030 0028 022C     		cmp	r4, #2
 1031 002a 05D0     		beq	.L64
 923:Drivers/lvgl/src/core/lv_refr.c ****         lv_area_t clip_coords_for_obj;
 1032              		.loc 1 923 10 is_stmt 1 view .LVU357
 923:Drivers/lvgl/src/core/lv_refr.c ****         lv_area_t clip_coords_for_obj;
 1033              		.loc 1 923 12 is_stmt 0 view .LVU358
 1034 002c 012C     		cmp	r4, #1
 1035 002e 31D0     		beq	.L65
 932:Drivers/lvgl/src/core/lv_refr.c ****     }
 1036              		.loc 1 932 16 view .LVU359
 1037 0030 0020     		movs	r0, #0
ARM GAS  /var/folders/0z/tsy30v1j4xl4_7kw94k978ww0000gn/T//ccRTPM70.s 			page 48


 1038              	.L60:
 936:Drivers/lvgl/src/core/lv_refr.c **** 
 1039              		.loc 1 936 1 view .LVU360
 1040 0032 08B0     		add	sp, sp, #32
 1041              		.cfi_remember_state
 1042              		.cfi_def_cfa_offset 24
 1043              		@ sp needed
 1044 0034 BDE8F081 		pop	{r4, r5, r6, r7, r8, pc}
 1045              	.LVL100:
 1046              	.L64:
 1047              		.cfi_restore_state
 1048              	.LBB97:
 905:Drivers/lvgl/src/core/lv_refr.c ****         lv_area_t tranf_coords = obj_coords_ext;
 1049              		.loc 1 905 9 is_stmt 1 view .LVU361
 906:Drivers/lvgl/src/core/lv_refr.c ****         lv_obj_get_transformed_area(obj, &tranf_coords, false, false);
 1050              		.loc 1 906 9 view .LVU362
 906:Drivers/lvgl/src/core/lv_refr.c ****         lv_obj_get_transformed_area(obj, &tranf_coords, false, false);
 1051              		.loc 1 906 19 is_stmt 0 view .LVU363
 1052 0038 02AC     		add	r4, sp, #8
 1053 003a 08AB     		add	r3, sp, #32
 1054 003c 13E90300 		ldmdb	r3, {r0, r1}
 1055 0040 84E80300 		stm	r4, {r0, r1}
 907:Drivers/lvgl/src/core/lv_refr.c ****         if(!_lv_area_intersect(&clip_coords_for_obj, draw_ctx->clip_area, &tranf_coords)) {
 1056              		.loc 1 907 9 is_stmt 1 view .LVU364
 1057 0044 0023     		movs	r3, #0
 1058 0046 1A46     		mov	r2, r3
 1059 0048 2146     		mov	r1, r4
 1060 004a 3046     		mov	r0, r6
 1061 004c FFF7FEFF 		bl	lv_obj_get_transformed_area
 1062              	.LVL101:
 908:Drivers/lvgl/src/core/lv_refr.c ****             return LV_RES_INV;
 1063              		.loc 1 908 9 view .LVU365
 908:Drivers/lvgl/src/core/lv_refr.c ****             return LV_RES_INV;
 1064              		.loc 1 908 13 is_stmt 0 view .LVU366
 1065 0050 2246     		mov	r2, r4
 1066 0052 D8F80810 		ldr	r1, [r8, #8]
 1067 0056 6846     		mov	r0, sp
 1068 0058 FFF7FEFF 		bl	_lv_area_intersect
 1069              	.LVL102:
 908:Drivers/lvgl/src/core/lv_refr.c ****             return LV_RES_INV;
 1070              		.loc 1 908 11 view .LVU367
 1071 005c 08B9     		cbnz	r0, .L66
 1072              	.L59:
 909:Drivers/lvgl/src/core/lv_refr.c ****         }
 1073              		.loc 1 909 20 discriminator 1 view .LVU368
 1074 005e 0020     		movs	r0, #0
 1075 0060 E7E7     		b	.L60
 1076              	.L66:
 915:Drivers/lvgl/src/core/lv_refr.c ****         lv_obj_get_transformed_area(obj, &inverse_clip_coords_for_obj, false, true);
 1077              		.loc 1 915 9 is_stmt 1 view .LVU369
 915:Drivers/lvgl/src/core/lv_refr.c ****         lv_obj_get_transformed_area(obj, &inverse_clip_coords_for_obj, false, true);
 1078              		.loc 1 915 19 is_stmt 0 view .LVU370
 1079 0062 04AC     		add	r4, sp, #16
 1080 0064 6B46     		mov	r3, sp
 1081 0066 93E80300 		ldm	r3, {r0, r1}
 1082 006a 84E80300 		stm	r4, {r0, r1}
 916:Drivers/lvgl/src/core/lv_refr.c ****         if(!_lv_area_intersect(&inverse_clip_coords_for_obj, &inverse_clip_coords_for_obj, &obj_coo
ARM GAS  /var/folders/0z/tsy30v1j4xl4_7kw94k978ww0000gn/T//ccRTPM70.s 			page 49


 1083              		.loc 1 916 9 is_stmt 1 view .LVU371
 1084 006e 0123     		movs	r3, #1
 1085 0070 0022     		movs	r2, #0
 1086 0072 2146     		mov	r1, r4
 1087 0074 3046     		mov	r0, r6
 1088 0076 FFF7FEFF 		bl	lv_obj_get_transformed_area
 1089              	.LVL103:
 917:Drivers/lvgl/src/core/lv_refr.c ****             return LV_RES_INV;
 1090              		.loc 1 917 9 view .LVU372
 917:Drivers/lvgl/src/core/lv_refr.c ****             return LV_RES_INV;
 1091              		.loc 1 917 13 is_stmt 0 view .LVU373
 1092 007a 06AA     		add	r2, sp, #24
 1093 007c 2146     		mov	r1, r4
 1094 007e 2046     		mov	r0, r4
 1095 0080 FFF7FEFF 		bl	_lv_area_intersect
 1096              	.LVL104:
 917:Drivers/lvgl/src/core/lv_refr.c ****             return LV_RES_INV;
 1097              		.loc 1 917 11 view .LVU374
 1098 0084 0028     		cmp	r0, #0
 1099 0086 EAD0     		beq	.L59
 921:Drivers/lvgl/src/core/lv_refr.c ****     }
 1100              		.loc 1 921 9 is_stmt 1 view .LVU375
 921:Drivers/lvgl/src/core/lv_refr.c ****     }
 1101              		.loc 1 921 25 is_stmt 0 view .LVU376
 1102 0088 2346     		mov	r3, r4
 1103 008a 03CB     		ldmia	r3!, {r0, r1}
 1104 008c 3860     		str	r0, [r7]	@ unaligned
 1105 008e 7960     		str	r1, [r7, #4]	@ unaligned
 1106              	.LBE97:
 935:Drivers/lvgl/src/core/lv_refr.c **** }
 1107              		.loc 1 935 12 view .LVU377
 1108 0090 0120     		movs	r0, #1
 1109 0092 CEE7     		b	.L60
 1110              	.L65:
 1111              	.LBB98:
 924:Drivers/lvgl/src/core/lv_refr.c ****         if(!_lv_area_intersect(&clip_coords_for_obj, draw_ctx->clip_area, &obj_coords_ext)) {
 1112              		.loc 1 924 9 is_stmt 1 view .LVU378
 925:Drivers/lvgl/src/core/lv_refr.c ****             return LV_RES_INV;
 1113              		.loc 1 925 9 view .LVU379
 925:Drivers/lvgl/src/core/lv_refr.c ****             return LV_RES_INV;
 1114              		.loc 1 925 13 is_stmt 0 view .LVU380
 1115 0094 06AA     		add	r2, sp, #24
 1116 0096 D8F80810 		ldr	r1, [r8, #8]
 1117 009a 04A8     		add	r0, sp, #16
 1118 009c FFF7FEFF 		bl	_lv_area_intersect
 1119              	.LVL105:
 925:Drivers/lvgl/src/core/lv_refr.c ****             return LV_RES_INV;
 1120              		.loc 1 925 11 view .LVU381
 1121 00a0 0028     		cmp	r0, #0
 1122 00a2 C6D0     		beq	.L60
 928:Drivers/lvgl/src/core/lv_refr.c ****     }
 1123              		.loc 1 928 9 is_stmt 1 view .LVU382
 928:Drivers/lvgl/src/core/lv_refr.c ****     }
 1124              		.loc 1 928 25 is_stmt 0 view .LVU383
 1125 00a4 04AB     		add	r3, sp, #16
 1126 00a6 03CB     		ldmia	r3!, {r0, r1}
 1127 00a8 3860     		str	r0, [r7]	@ unaligned
ARM GAS  /var/folders/0z/tsy30v1j4xl4_7kw94k978ww0000gn/T//ccRTPM70.s 			page 50


 1128 00aa 7960     		str	r1, [r7, #4]	@ unaligned
 1129              	.LBE98:
 935:Drivers/lvgl/src/core/lv_refr.c **** }
 1130              		.loc 1 935 12 view .LVU384
 1131 00ac 2046     		mov	r0, r4
 1132 00ae C0E7     		b	.L60
 1133              		.cfi_endproc
 1134              	.LFE183:
 1136              		.section	.text.layer_alpha_test,"ax",%progbits
 1137              		.align	1
 1138              		.syntax unified
 1139              		.thumb
 1140              		.thumb_func
 1142              	layer_alpha_test:
 1143              	.LVL106:
 1144              	.LFB184:
 940:Drivers/lvgl/src/core/lv_refr.c ****     bool has_alpha;
 1145              		.loc 1 940 1 is_stmt 1 view -0
 1146              		.cfi_startproc
 1147              		@ args = 0, pretend = 0, frame = 8
 1148              		@ frame_needed = 0, uses_anonymous_args = 0
 940:Drivers/lvgl/src/core/lv_refr.c ****     bool has_alpha;
 1149              		.loc 1 940 1 is_stmt 0 view .LVU386
 1150 0000 F0B5     		push	{r4, r5, r6, r7, lr}
 1151              		.cfi_def_cfa_offset 20
 1152              		.cfi_offset 4, -20
 1153              		.cfi_offset 5, -16
 1154              		.cfi_offset 6, -12
 1155              		.cfi_offset 7, -8
 1156              		.cfi_offset 14, -4
 1157 0002 83B0     		sub	sp, sp, #12
 1158              		.cfi_def_cfa_offset 32
 1159 0004 0D46     		mov	r5, r1
 1160 0006 1446     		mov	r4, r2
 941:Drivers/lvgl/src/core/lv_refr.c ****     /*If globally the layer has alpha maybe this smaller section has not (e.g. not on a rounded cor
 1161              		.loc 1 941 5 is_stmt 1 view .LVU387
 944:Drivers/lvgl/src/core/lv_refr.c ****         /*Test for alpha by assuming there is no alpha. If it fails, fall back to rendering with al
 1162              		.loc 1 944 5 view .LVU388
 944:Drivers/lvgl/src/core/lv_refr.c ****         /*Test for alpha by assuming there is no alpha. If it fails, fall back to rendering with al
 1163              		.loc 1 944 7 is_stmt 0 view .LVU389
 1164 0008 13F0010F 		tst	r3, #1
 1165 000c 0DD1     		bne	.L74
 960:Drivers/lvgl/src/core/lv_refr.c ****     }
 1166              		.loc 1 960 19 view .LVU390
 1167 000e 0022     		movs	r2, #0
 1168              	.LVL107:
 1169              	.L68:
 963:Drivers/lvgl/src/core/lv_refr.c ****     lv_draw_layer_adjust(draw_ctx, layer_ctx, has_alpha ? LV_DRAW_LAYER_FLAG_HAS_ALPHA : LV_DRAW_LA
 1170              		.loc 1 963 5 is_stmt 1 view .LVU391
 963:Drivers/lvgl/src/core/lv_refr.c ****     lv_draw_layer_adjust(draw_ctx, layer_ctx, has_alpha ? LV_DRAW_LAYER_FLAG_HAS_ALPHA : LV_DRAW_LA
 1171              		.loc 1 963 27 is_stmt 0 view .LVU392
 1172 0010 B4F90E10 		ldrsh	r1, [r4, #14]
 963:Drivers/lvgl/src/core/lv_refr.c ****     lv_draw_layer_adjust(draw_ctx, layer_ctx, has_alpha ? LV_DRAW_LAYER_FLAG_HAS_ALPHA : LV_DRAW_LA
 1173              		.loc 1 963 53 view .LVU393
 1174 0014 B4F90630 		ldrsh	r3, [r4, #6]
 963:Drivers/lvgl/src/core/lv_refr.c ****     lv_draw_layer_adjust(draw_ctx, layer_ctx, has_alpha ? LV_DRAW_LAYER_FLAG_HAS_ALPHA : LV_DRAW_LA
 1175              		.loc 1 963 7 view .LVU394
ARM GAS  /var/folders/0z/tsy30v1j4xl4_7kw94k978ww0000gn/T//ccRTPM70.s 			page 51


 1176 0018 9942     		cmp	r1, r3
 1177 001a 00DD     		ble	.L71
 963:Drivers/lvgl/src/core/lv_refr.c ****     lv_draw_layer_adjust(draw_ctx, layer_ctx, has_alpha ? LV_DRAW_LAYER_FLAG_HAS_ALPHA : LV_DRAW_LA
 1178              		.loc 1 963 58 is_stmt 1 discriminator 1 view .LVU395
 963:Drivers/lvgl/src/core/lv_refr.c ****     lv_draw_layer_adjust(draw_ctx, layer_ctx, has_alpha ? LV_DRAW_LAYER_FLAG_HAS_ALPHA : LV_DRAW_LA
 1179              		.loc 1 963 81 is_stmt 0 discriminator 1 view .LVU396
 1180 001c E381     		strh	r3, [r4, #14]	@ movhi
 1181              	.L71:
 964:Drivers/lvgl/src/core/lv_refr.c **** }
 1182              		.loc 1 964 5 is_stmt 1 view .LVU397
 1183 001e 2146     		mov	r1, r4
 1184 0020 2846     		mov	r0, r5
 1185 0022 FFF7FEFF 		bl	lv_draw_layer_adjust
 1186              	.LVL108:
 965:Drivers/lvgl/src/core/lv_refr.c **** 
 1187              		.loc 1 965 1 is_stmt 0 view .LVU398
 1188 0026 03B0     		add	sp, sp, #12
 1189              		.cfi_remember_state
 1190              		.cfi_def_cfa_offset 20
 1191              		@ sp needed
 1192 0028 F0BD     		pop	{r4, r5, r6, r7, pc}
 1193              	.LVL109:
 1194              	.L74:
 1195              		.cfi_restore_state
 965:Drivers/lvgl/src/core/lv_refr.c **** 
 1196              		.loc 1 965 1 view .LVU399
 1197 002a 0646     		mov	r6, r0
 946:Drivers/lvgl/src/core/lv_refr.c ****         if(_lv_area_is_in(&layer_ctx->area_act, &obj->coords, 0)) {
 1198              		.loc 1 946 9 is_stmt 1 view .LVU400
 1199              	.LVL110:
 947:Drivers/lvgl/src/core/lv_refr.c ****             lv_cover_check_info_t info;
 1200              		.loc 1 947 9 view .LVU401
 947:Drivers/lvgl/src/core/lv_refr.c ****             lv_cover_check_info_t info;
 1201              		.loc 1 947 27 is_stmt 0 view .LVU402
 1202 002c 02F10807 		add	r7, r2, #8
 947:Drivers/lvgl/src/core/lv_refr.c ****             lv_cover_check_info_t info;
 1203              		.loc 1 947 12 view .LVU403
 1204 0030 0022     		movs	r2, #0
 1205              	.LVL111:
 947:Drivers/lvgl/src/core/lv_refr.c ****             lv_cover_check_info_t info;
 1206              		.loc 1 947 12 view .LVU404
 1207 0032 00F11401 		add	r1, r0, #20
 1208              	.LVL112:
 947:Drivers/lvgl/src/core/lv_refr.c ****             lv_cover_check_info_t info;
 1209              		.loc 1 947 12 view .LVU405
 1210 0036 3846     		mov	r0, r7
 1211              	.LVL113:
 947:Drivers/lvgl/src/core/lv_refr.c ****             lv_cover_check_info_t info;
 1212              		.loc 1 947 12 view .LVU406
 1213 0038 FFF7FEFF 		bl	_lv_area_is_in
 1214              	.LVL114:
 947:Drivers/lvgl/src/core/lv_refr.c ****             lv_cover_check_info_t info;
 1215              		.loc 1 947 11 view .LVU407
 1216 003c 38B9     		cbnz	r0, .L75
 1217              	.L69:
 1218              	.LVL115:
 956:Drivers/lvgl/src/core/lv_refr.c ****         }
ARM GAS  /var/folders/0z/tsy30v1j4xl4_7kw94k978ww0000gn/T//ccRTPM70.s 			page 52


 1219              		.loc 1 956 13 is_stmt 1 view .LVU408
 956:Drivers/lvgl/src/core/lv_refr.c ****         }
 1220              		.loc 1 956 57 is_stmt 0 view .LVU409
 1221 003e 6389     		ldrh	r3, [r4, #10]
 956:Drivers/lvgl/src/core/lv_refr.c ****         }
 1222              		.loc 1 956 72 view .LVU410
 1223 0040 228A     		ldrh	r2, [r4, #16]
 956:Drivers/lvgl/src/core/lv_refr.c ****         }
 1224              		.loc 1 956 61 view .LVU411
 1225 0042 1344     		add	r3, r3, r2
 1226 0044 9BB2     		uxth	r3, r3
 956:Drivers/lvgl/src/core/lv_refr.c ****         }
 1227              		.loc 1 956 93 view .LVU412
 1228 0046 013B     		subs	r3, r3, #1
 956:Drivers/lvgl/src/core/lv_refr.c ****         }
 1229              		.loc 1 956 36 view .LVU413
 1230 0048 E381     		strh	r3, [r4, #14]	@ movhi
 1231 004a 0122     		movs	r2, #1
 1232 004c E0E7     		b	.L68
 1233              	.LVL116:
 1234              	.L75:
 1235              	.LBB99:
 948:Drivers/lvgl/src/core/lv_refr.c ****             info.res = LV_COVER_RES_COVER;
 1236              		.loc 1 948 13 is_stmt 1 view .LVU414
 949:Drivers/lvgl/src/core/lv_refr.c ****             info.area = &layer_ctx->area_act;
 1237              		.loc 1 949 13 view .LVU415
 949:Drivers/lvgl/src/core/lv_refr.c ****             info.area = &layer_ctx->area_act;
 1238              		.loc 1 949 22 is_stmt 0 view .LVU416
 1239 004e 0023     		movs	r3, #0
 1240 0050 8DF80030 		strb	r3, [sp]
 950:Drivers/lvgl/src/core/lv_refr.c ****             lv_event_send(obj, LV_EVENT_COVER_CHECK, &info);
 1241              		.loc 1 950 13 is_stmt 1 view .LVU417
 950:Drivers/lvgl/src/core/lv_refr.c ****             lv_event_send(obj, LV_EVENT_COVER_CHECK, &info);
 1242              		.loc 1 950 23 is_stmt 0 view .LVU418
 1243 0054 0197     		str	r7, [sp, #4]
 951:Drivers/lvgl/src/core/lv_refr.c ****             if(info.res == LV_COVER_RES_COVER) has_alpha = false;
 1244              		.loc 1 951 13 is_stmt 1 view .LVU419
 1245 0056 6A46     		mov	r2, sp
 1246 0058 1221     		movs	r1, #18
 1247 005a 3046     		mov	r0, r6
 1248 005c FFF7FEFF 		bl	lv_event_send
 1249              	.LVL117:
 952:Drivers/lvgl/src/core/lv_refr.c ****         }
 1250              		.loc 1 952 13 view .LVU420
 952:Drivers/lvgl/src/core/lv_refr.c ****         }
 1251              		.loc 1 952 20 is_stmt 0 view .LVU421
 1252 0060 9DF80030 		ldrb	r3, [sp]	@ zero_extendqisi2
 952:Drivers/lvgl/src/core/lv_refr.c ****         }
 1253              		.loc 1 952 15 view .LVU422
 1254 0064 002B     		cmp	r3, #0
 1255 0066 EAD1     		bne	.L69
 952:Drivers/lvgl/src/core/lv_refr.c ****         }
 1256              		.loc 1 952 48 is_stmt 1 view .LVU423
 1257              	.LVL118:
 952:Drivers/lvgl/src/core/lv_refr.c ****         }
 1258              		.loc 1 952 48 is_stmt 0 view .LVU424
 1259              	.LBE99:
ARM GAS  /var/folders/0z/tsy30v1j4xl4_7kw94k978ww0000gn/T//ccRTPM70.s 			page 53


 955:Drivers/lvgl/src/core/lv_refr.c ****             layer_ctx->area_act.y2 = layer_ctx->area_act.y1 + layer_ctx->max_row_with_alpha - 1;
 1260              		.loc 1 955 9 is_stmt 1 view .LVU425
 1261              	.LBB100:
 952:Drivers/lvgl/src/core/lv_refr.c ****         }
 1262              		.loc 1 952 58 is_stmt 0 view .LVU426
 1263 0068 0022     		movs	r2, #0
 1264 006a D1E7     		b	.L68
 1265              	.LBE100:
 1266              		.cfi_endproc
 1267              	.LFE184:
 1269              		.section	.text.lv_refr_join_area,"ax",%progbits
 1270              		.align	1
 1271              		.syntax unified
 1272              		.thumb
 1273              		.thumb_func
 1275              	lv_refr_join_area:
 1276              	.LFB176:
 479:Drivers/lvgl/src/core/lv_refr.c ****     uint32_t join_from;
 1277              		.loc 1 479 1 is_stmt 1 view -0
 1278              		.cfi_startproc
 1279              		@ args = 0, pretend = 0, frame = 8
 1280              		@ frame_needed = 0, uses_anonymous_args = 0
 1281 0000 2DE9F043 		push	{r4, r5, r6, r7, r8, r9, lr}
 1282              		.cfi_def_cfa_offset 28
 1283              		.cfi_offset 4, -28
 1284              		.cfi_offset 5, -24
 1285              		.cfi_offset 6, -20
 1286              		.cfi_offset 7, -16
 1287              		.cfi_offset 8, -12
 1288              		.cfi_offset 9, -8
 1289              		.cfi_offset 14, -4
 1290 0004 83B0     		sub	sp, sp, #12
 1291              		.cfi_def_cfa_offset 40
 480:Drivers/lvgl/src/core/lv_refr.c ****     uint32_t join_in;
 1292              		.loc 1 480 5 view .LVU428
 481:Drivers/lvgl/src/core/lv_refr.c ****     lv_area_t joined_area;
 1293              		.loc 1 481 5 view .LVU429
 482:Drivers/lvgl/src/core/lv_refr.c ****     for(join_in = 0; join_in < disp_refr->inv_p; join_in++) {
 1294              		.loc 1 482 5 view .LVU430
 483:Drivers/lvgl/src/core/lv_refr.c ****         if(disp_refr->inv_area_joined[join_in] != 0) continue;
 1295              		.loc 1 483 5 view .LVU431
 1296              	.LVL119:
 483:Drivers/lvgl/src/core/lv_refr.c ****         if(disp_refr->inv_area_joined[join_in] != 0) continue;
 1297              		.loc 1 483 17 is_stmt 0 view .LVU432
 1298 0006 0025     		movs	r5, #0
 483:Drivers/lvgl/src/core/lv_refr.c ****         if(disp_refr->inv_area_joined[join_in] != 0) continue;
 1299              		.loc 1 483 5 view .LVU433
 1300 0008 51E0     		b	.L77
 1301              	.LVL120:
 1302              	.L80:
 487:Drivers/lvgl/src/core/lv_refr.c ****             /*Handle only unjoined areas and ignore itself*/
 1303              		.loc 1 487 67 is_stmt 1 discriminator 2 view .LVU434
 1304 000a 0134     		adds	r4, r4, #1
 1305              	.LVL121:
 1306              	.L79:
 487:Drivers/lvgl/src/core/lv_refr.c ****             /*Handle only unjoined areas and ignore itself*/
 1307              		.loc 1 487 38 discriminator 1 view .LVU435
ARM GAS  /var/folders/0z/tsy30v1j4xl4_7kw94k978ww0000gn/T//ccRTPM70.s 			page 54


 487:Drivers/lvgl/src/core/lv_refr.c ****             /*Handle only unjoined areas and ignore itself*/
 1308              		.loc 1 487 49 is_stmt 0 discriminator 1 view .LVU436
 1309 000c 304B     		ldr	r3, .L85
 1310 000e 1B68     		ldr	r3, [r3]
 1311 0010 B3F85021 		ldrh	r2, [r3, #336]
 487:Drivers/lvgl/src/core/lv_refr.c ****             /*Handle only unjoined areas and ignore itself*/
 1312              		.loc 1 487 38 discriminator 1 view .LVU437
 1313 0014 A242     		cmp	r2, r4
 1314 0016 49D9     		bls	.L78
 489:Drivers/lvgl/src/core/lv_refr.c ****                 continue;
 1315              		.loc 1 489 13 is_stmt 1 view .LVU438
 489:Drivers/lvgl/src/core/lv_refr.c ****                 continue;
 1316              		.loc 1 489 42 is_stmt 0 view .LVU439
 1317 0018 1A19     		adds	r2, r3, r4
 1318 001a 92F83021 		ldrb	r2, [r2, #304]	@ zero_extendqisi2
 489:Drivers/lvgl/src/core/lv_refr.c ****                 continue;
 1319              		.loc 1 489 15 view .LVU440
 1320 001e 002A     		cmp	r2, #0
 1321 0020 F3D1     		bne	.L80
 489:Drivers/lvgl/src/core/lv_refr.c ****                 continue;
 1322              		.loc 1 489 59 discriminator 2 view .LVU441
 1323 0022 AC42     		cmp	r4, r5
 1324 0024 F1D0     		beq	.L80
 494:Drivers/lvgl/src/core/lv_refr.c ****                 continue;
 1325              		.loc 1 494 13 is_stmt 1 view .LVU442
 494:Drivers/lvgl/src/core/lv_refr.c ****                 continue;
 1326              		.loc 1 494 31 is_stmt 0 view .LVU443
 1327 0026 A81D     		adds	r0, r5, #6
 494:Drivers/lvgl/src/core/lv_refr.c ****                 continue;
 1328              		.loc 1 494 63 view .LVU444
 1329 0028 A11D     		adds	r1, r4, #6
 494:Drivers/lvgl/src/core/lv_refr.c ****                 continue;
 1330              		.loc 1 494 16 view .LVU445
 1331 002a 03EBC101 		add	r1, r3, r1, lsl #3
 1332 002e 03EBC000 		add	r0, r3, r0, lsl #3
 1333 0032 FFF7FEFF 		bl	_lv_area_is_on
 1334              	.LVL122:
 494:Drivers/lvgl/src/core/lv_refr.c ****                 continue;
 1335              		.loc 1 494 15 view .LVU446
 1336 0036 0028     		cmp	r0, #0
 1337 0038 E7D0     		beq	.L80
 498:Drivers/lvgl/src/core/lv_refr.c **** 
 1338              		.loc 1 498 13 is_stmt 1 view .LVU447
 498:Drivers/lvgl/src/core/lv_refr.c **** 
 1339              		.loc 1 498 51 is_stmt 0 view .LVU448
 1340 003a DFF89480 		ldr	r8, .L85
 1341 003e D8F80030 		ldr	r3, [r8]
 498:Drivers/lvgl/src/core/lv_refr.c **** 
 1342              		.loc 1 498 41 view .LVU449
 1343 0042 A91D     		adds	r1, r5, #6
 1344 0044 CE00     		lsls	r6, r1, #3
 498:Drivers/lvgl/src/core/lv_refr.c **** 
 1345              		.loc 1 498 73 view .LVU450
 1346 0046 A21D     		adds	r2, r4, #6
 1347 0048 4FEAC209 		lsl	r9, r2, #3
 498:Drivers/lvgl/src/core/lv_refr.c **** 
 1348              		.loc 1 498 13 view .LVU451
ARM GAS  /var/folders/0z/tsy30v1j4xl4_7kw94k978ww0000gn/T//ccRTPM70.s 			page 55


 1349 004c 03EBC202 		add	r2, r3, r2, lsl #3
 1350 0050 03EBC101 		add	r1, r3, r1, lsl #3
 1351 0054 6846     		mov	r0, sp
 1352 0056 FFF7FEFF 		bl	_lv_area_join
 1353              	.LVL123:
 501:Drivers/lvgl/src/core/lv_refr.c ****                                                  lv_area_get_size(&disp_refr->inv_areas[join_from])
 1354              		.loc 1 501 13 is_stmt 1 view .LVU452
 501:Drivers/lvgl/src/core/lv_refr.c ****                                                  lv_area_get_size(&disp_refr->inv_areas[join_from])
 1355              		.loc 1 501 16 is_stmt 0 view .LVU453
 1356 005a 6846     		mov	r0, sp
 1357 005c FFF7FEFF 		bl	lv_area_get_size
 1358              	.LVL124:
 1359 0060 0746     		mov	r7, r0
 501:Drivers/lvgl/src/core/lv_refr.c ****                                                  lv_area_get_size(&disp_refr->inv_areas[join_from])
 1360              		.loc 1 501 77 view .LVU454
 1361 0062 D8F80000 		ldr	r0, [r8]
 501:Drivers/lvgl/src/core/lv_refr.c ****                                                  lv_area_get_size(&disp_refr->inv_areas[join_from])
 1362              		.loc 1 501 50 view .LVU455
 1363 0066 3044     		add	r0, r0, r6
 1364 0068 FFF7FEFF 		bl	lv_area_get_size
 1365              	.LVL125:
 1366 006c 0646     		mov	r6, r0
 502:Drivers/lvgl/src/core/lv_refr.c ****                 lv_area_copy(&disp_refr->inv_areas[join_in], &joined_area);
 1367              		.loc 1 502 77 view .LVU456
 1368 006e D8F80000 		ldr	r0, [r8]
 502:Drivers/lvgl/src/core/lv_refr.c ****                 lv_area_copy(&disp_refr->inv_areas[join_in], &joined_area);
 1369              		.loc 1 502 50 view .LVU457
 1370 0072 4844     		add	r0, r0, r9
 1371 0074 FFF7FEFF 		bl	lv_area_get_size
 1372              	.LVL126:
 501:Drivers/lvgl/src/core/lv_refr.c ****                                                  lv_area_get_size(&disp_refr->inv_areas[join_from])
 1373              		.loc 1 501 99 view .LVU458
 1374 0078 0644     		add	r6, r6, r0
 501:Drivers/lvgl/src/core/lv_refr.c ****                                                  lv_area_get_size(&disp_refr->inv_areas[join_from])
 1375              		.loc 1 501 15 view .LVU459
 1376 007a B742     		cmp	r7, r6
 1377 007c C5D2     		bcs	.L80
 503:Drivers/lvgl/src/core/lv_refr.c **** 
 1378              		.loc 1 503 17 is_stmt 1 view .LVU460
 503:Drivers/lvgl/src/core/lv_refr.c **** 
 1379              		.loc 1 503 40 is_stmt 0 view .LVU461
 1380 007e D8F80020 		ldr	r2, [r8]
 1381              	.LVL127:
 1382              	.LBB101:
 1383              	.LBI101:
 110:Drivers/lvgl/src/core/../misc/../font/../misc/lv_area.h **** {
 1384              		.loc 2 110 20 is_stmt 1 view .LVU462
 1385              	.LBB102:
 112:Drivers/lvgl/src/core/../misc/../font/../misc/lv_area.h ****     dest->y1 = src->y1;
 1386              		.loc 2 112 5 view .LVU463
 112:Drivers/lvgl/src/core/../misc/../font/../misc/lv_area.h ****     dest->y1 = src->y1;
 1387              		.loc 2 112 19 is_stmt 0 view .LVU464
 1388 0082 BDF90010 		ldrsh	r1, [sp]
 112:Drivers/lvgl/src/core/../misc/../font/../misc/lv_area.h ****     dest->y1 = src->y1;
 1389              		.loc 2 112 14 view .LVU465
 1390 0086 AB1D     		adds	r3, r5, #6
 1391 0088 22F83310 		strh	r1, [r2, r3, lsl #3]	@ movhi
ARM GAS  /var/folders/0z/tsy30v1j4xl4_7kw94k978ww0000gn/T//ccRTPM70.s 			page 56


 113:Drivers/lvgl/src/core/../misc/../font/../misc/lv_area.h ****     dest->x2 = src->x2;
 1392              		.loc 2 113 5 is_stmt 1 view .LVU466
 113:Drivers/lvgl/src/core/../misc/../font/../misc/lv_area.h ****     dest->x2 = src->x2;
 1393              		.loc 2 113 19 is_stmt 0 view .LVU467
 1394 008c BDF90210 		ldrsh	r1, [sp, #2]
 113:Drivers/lvgl/src/core/../misc/../font/../misc/lv_area.h ****     dest->x2 = src->x2;
 1395              		.loc 2 113 14 view .LVU468
 1396 0090 02EBC303 		add	r3, r2, r3, lsl #3
 1397              	.LVL128:
 113:Drivers/lvgl/src/core/../misc/../font/../misc/lv_area.h ****     dest->x2 = src->x2;
 1398              		.loc 2 113 14 view .LVU469
 1399 0094 5980     		strh	r1, [r3, #2]	@ movhi
 114:Drivers/lvgl/src/core/../misc/../font/../misc/lv_area.h ****     dest->y2 = src->y2;
 1400              		.loc 2 114 5 is_stmt 1 view .LVU470
 114:Drivers/lvgl/src/core/../misc/../font/../misc/lv_area.h ****     dest->y2 = src->y2;
 1401              		.loc 2 114 19 is_stmt 0 view .LVU471
 1402 0096 BDF90410 		ldrsh	r1, [sp, #4]
 114:Drivers/lvgl/src/core/../misc/../font/../misc/lv_area.h ****     dest->y2 = src->y2;
 1403              		.loc 2 114 14 view .LVU472
 1404 009a 9980     		strh	r1, [r3, #4]	@ movhi
 115:Drivers/lvgl/src/core/../misc/../font/../misc/lv_area.h **** }
 1405              		.loc 2 115 5 is_stmt 1 view .LVU473
 115:Drivers/lvgl/src/core/../misc/../font/../misc/lv_area.h **** }
 1406              		.loc 2 115 19 is_stmt 0 view .LVU474
 1407 009c BDF90610 		ldrsh	r1, [sp, #6]
 115:Drivers/lvgl/src/core/../misc/../font/../misc/lv_area.h **** }
 1408              		.loc 2 115 14 view .LVU475
 1409 00a0 D980     		strh	r1, [r3, #6]	@ movhi
 1410              	.LVL129:
 115:Drivers/lvgl/src/core/../misc/../font/../misc/lv_area.h **** }
 1411              		.loc 2 115 14 view .LVU476
 1412              	.LBE102:
 1413              	.LBE101:
 506:Drivers/lvgl/src/core/lv_refr.c ****             }
 1414              		.loc 1 506 17 is_stmt 1 view .LVU477
 506:Drivers/lvgl/src/core/lv_refr.c ****             }
 1415              		.loc 1 506 55 is_stmt 0 view .LVU478
 1416 00a2 2244     		add	r2, r2, r4
 1417 00a4 0123     		movs	r3, #1
 1418 00a6 82F83031 		strb	r3, [r2, #304]
 1419 00aa AEE7     		b	.L80
 1420              	.LVL130:
 1421              	.L78:
 483:Drivers/lvgl/src/core/lv_refr.c ****         if(disp_refr->inv_area_joined[join_in] != 0) continue;
 1422              		.loc 1 483 57 is_stmt 1 discriminator 2 view .LVU479
 1423 00ac 0135     		adds	r5, r5, #1
 1424              	.LVL131:
 1425              	.L77:
 483:Drivers/lvgl/src/core/lv_refr.c ****         if(disp_refr->inv_area_joined[join_in] != 0) continue;
 1426              		.loc 1 483 30 discriminator 1 view .LVU480
 483:Drivers/lvgl/src/core/lv_refr.c ****         if(disp_refr->inv_area_joined[join_in] != 0) continue;
 1427              		.loc 1 483 41 is_stmt 0 discriminator 1 view .LVU481
 1428 00ae 084B     		ldr	r3, .L85
 1429 00b0 1B68     		ldr	r3, [r3]
 1430 00b2 B3F85021 		ldrh	r2, [r3, #336]
 483:Drivers/lvgl/src/core/lv_refr.c ****         if(disp_refr->inv_area_joined[join_in] != 0) continue;
 1431              		.loc 1 483 30 discriminator 1 view .LVU482
ARM GAS  /var/folders/0z/tsy30v1j4xl4_7kw94k978ww0000gn/T//ccRTPM70.s 			page 57


 1432 00b6 AA42     		cmp	r2, r5
 1433 00b8 06D9     		bls	.L84
 484:Drivers/lvgl/src/core/lv_refr.c **** 
 1434              		.loc 1 484 9 is_stmt 1 view .LVU483
 484:Drivers/lvgl/src/core/lv_refr.c **** 
 1435              		.loc 1 484 38 is_stmt 0 view .LVU484
 1436 00ba 2B44     		add	r3, r3, r5
 1437 00bc 93F83031 		ldrb	r3, [r3, #304]	@ zero_extendqisi2
 484:Drivers/lvgl/src/core/lv_refr.c **** 
 1438              		.loc 1 484 11 view .LVU485
 1439 00c0 002B     		cmp	r3, #0
 1440 00c2 F3D1     		bne	.L78
 487:Drivers/lvgl/src/core/lv_refr.c ****             /*Handle only unjoined areas and ignore itself*/
 1441              		.loc 1 487 23 view .LVU486
 1442 00c4 0024     		movs	r4, #0
 1443 00c6 A1E7     		b	.L79
 1444              	.L84:
 510:Drivers/lvgl/src/core/lv_refr.c **** 
 1445              		.loc 1 510 1 view .LVU487
 1446 00c8 03B0     		add	sp, sp, #12
 1447              		.cfi_def_cfa_offset 28
 1448              		@ sp needed
 1449 00ca BDE8F083 		pop	{r4, r5, r6, r7, r8, r9, pc}
 1450              	.LVL132:
 1451              	.L86:
 510:Drivers/lvgl/src/core/lv_refr.c **** 
 1452              		.loc 1 510 1 view .LVU488
 1453 00ce 00BF     		.align	2
 1454              	.L85:
 1455 00d0 00000000 		.word	.LANCHOR0
 1456              		.cfi_endproc
 1457              	.LFE176:
 1459              		.section	.text.refr_sync_areas,"ax",%progbits
 1460              		.align	1
 1461              		.syntax unified
 1462              		.thumb
 1463              		.thumb_func
 1465              	refr_sync_areas:
 1466              	.LFB177:
 516:Drivers/lvgl/src/core/lv_refr.c ****     /*Do not sync if not direct mode*/
 1467              		.loc 1 516 1 is_stmt 1 view -0
 1468              		.cfi_startproc
 1469              		@ args = 0, pretend = 0, frame = 32
 1470              		@ frame_needed = 0, uses_anonymous_args = 0
 518:Drivers/lvgl/src/core/lv_refr.c **** 
 1471              		.loc 1 518 5 view .LVU490
 518:Drivers/lvgl/src/core/lv_refr.c **** 
 1472              		.loc 1 518 18 is_stmt 0 view .LVU491
 1473 0000 4F4B     		ldr	r3, .L109
 1474 0002 1868     		ldr	r0, [r3]
 1475 0004 0368     		ldr	r3, [r0]
 518:Drivers/lvgl/src/core/lv_refr.c **** 
 1476              		.loc 1 518 8 view .LVU492
 1477 0006 1A7C     		ldrb	r2, [r3, #16]	@ zero_extendqisi2
 518:Drivers/lvgl/src/core/lv_refr.c **** 
 1478              		.loc 1 518 7 view .LVU493
 1479 0008 12F0010F 		tst	r2, #1
ARM GAS  /var/folders/0z/tsy30v1j4xl4_7kw94k978ww0000gn/T//ccRTPM70.s 			page 58


 1480 000c 00F09680 		beq	.L103
 521:Drivers/lvgl/src/core/lv_refr.c **** 
 1481              		.loc 1 521 5 is_stmt 1 view .LVU494
 521:Drivers/lvgl/src/core/lv_refr.c **** 
 1482              		.loc 1 521 25 is_stmt 0 view .LVU495
 1483 0010 DB68     		ldr	r3, [r3, #12]
 521:Drivers/lvgl/src/core/lv_refr.c **** 
 1484              		.loc 1 521 35 view .LVU496
 1485 0012 5B68     		ldr	r3, [r3, #4]
 521:Drivers/lvgl/src/core/lv_refr.c **** 
 1486              		.loc 1 521 7 view .LVU497
 1487 0014 002B     		cmp	r3, #0
 1488 0016 00F09180 		beq	.L103
 516:Drivers/lvgl/src/core/lv_refr.c ****     /*Do not sync if not direct mode*/
 1489              		.loc 1 516 1 view .LVU498
 1490 001a 2DE9F04F 		push	{r4, r5, r6, r7, r8, r9, r10, fp, lr}
 1491              		.cfi_def_cfa_offset 36
 1492              		.cfi_offset 4, -36
 1493              		.cfi_offset 5, -32
 1494              		.cfi_offset 6, -28
 1495              		.cfi_offset 7, -24
 1496              		.cfi_offset 8, -20
 1497              		.cfi_offset 9, -16
 1498              		.cfi_offset 10, -12
 1499              		.cfi_offset 11, -8
 1500              		.cfi_offset 14, -4
 1501 001e 8DB0     		sub	sp, sp, #52
 1502              		.cfi_def_cfa_offset 88
 524:Drivers/lvgl/src/core/lv_refr.c **** 
 1503              		.loc 1 524 5 is_stmt 1 view .LVU499
 524:Drivers/lvgl/src/core/lv_refr.c **** 
 1504              		.loc 1 524 8 is_stmt 0 view .LVU500
 1505 0020 00F5AC70 		add	r0, r0, #344
 1506 0024 FFF7FEFF 		bl	_lv_ll_is_empty
 1507              	.LVL133:
 524:Drivers/lvgl/src/core/lv_refr.c **** 
 1508              		.loc 1 524 7 view .LVU501
 1509 0028 0028     		cmp	r0, #0
 1510 002a 40F08480 		bne	.L87
 528:Drivers/lvgl/src/core/lv_refr.c ****     void * buf_on_screen = disp_refr->driver->draw_buf->buf_act == disp_refr->driver->draw_buf->buf
 1511              		.loc 1 528 5 is_stmt 1 view .LVU502
 528:Drivers/lvgl/src/core/lv_refr.c ****     void * buf_on_screen = disp_refr->driver->draw_buf->buf_act == disp_refr->driver->draw_buf->buf
 1512              		.loc 1 528 38 is_stmt 0 view .LVU503
 1513 002e 444B     		ldr	r3, .L109
 1514 0030 1868     		ldr	r0, [r3]
 1515 0032 0368     		ldr	r3, [r0]
 528:Drivers/lvgl/src/core/lv_refr.c ****     void * buf_on_screen = disp_refr->driver->draw_buf->buf_act == disp_refr->driver->draw_buf->buf
 1516              		.loc 1 528 46 view .LVU504
 1517 0034 DB68     		ldr	r3, [r3, #12]
 528:Drivers/lvgl/src/core/lv_refr.c ****     void * buf_on_screen = disp_refr->driver->draw_buf->buf_act == disp_refr->driver->draw_buf->buf
 1518              		.loc 1 528 12 view .LVU505
 1519 0036 D3F808B0 		ldr	fp, [r3, #8]
 1520              	.LVL134:
 529:Drivers/lvgl/src/core/lv_refr.c ****                            ? disp_refr->driver->draw_buf->buf2
 1521              		.loc 1 529 5 is_stmt 1 view .LVU506
 529:Drivers/lvgl/src/core/lv_refr.c ****                            ? disp_refr->driver->draw_buf->buf2
 1522              		.loc 1 529 95 is_stmt 0 view .LVU507
ARM GAS  /var/folders/0z/tsy30v1j4xl4_7kw94k978ww0000gn/T//ccRTPM70.s 			page 59


 1523 003a D3F800A0 		ldr	r10, [r3]
 531:Drivers/lvgl/src/core/lv_refr.c **** 
 1524              		.loc 1 531 28 view .LVU508
 1525 003e DA45     		cmp	r10, fp
 1526 0040 0AD0     		beq	.L106
 1527              	.L89:
 1528              	.LVL135:
 534:Drivers/lvgl/src/core/lv_refr.c **** 
 1529              		.loc 1 534 5 is_stmt 1 view .LVU509
 534:Drivers/lvgl/src/core/lv_refr.c **** 
 1530              		.loc 1 534 25 is_stmt 0 view .LVU510
 1531 0042 FFF7FEFF 		bl	lv_disp_get_hor_res
 1532              	.LVL136:
 1533 0046 8146     		mov	r9, r0
 1534              	.LVL137:
 537:Drivers/lvgl/src/core/lv_refr.c ****     int8_t res_c, j;
 1535              		.loc 1 537 5 is_stmt 1 view .LVU511
 537:Drivers/lvgl/src/core/lv_refr.c ****     int8_t res_c, j;
 1536              		.loc 1 537 15 is_stmt 0 view .LVU512
 1537 0048 2022     		movs	r2, #32
 1538 004a 0021     		movs	r1, #0
 1539 004c 04A8     		add	r0, sp, #16
 1540 004e FFF7FEFF 		bl	memset
 1541              	.LVL138:
 538:Drivers/lvgl/src/core/lv_refr.c ****     uint32_t i;
 1542              		.loc 1 538 5 is_stmt 1 view .LVU513
 539:Drivers/lvgl/src/core/lv_refr.c ****     lv_area_t * sync_area, *new_area, *next_area;
 1543              		.loc 1 539 5 view .LVU514
 540:Drivers/lvgl/src/core/lv_refr.c ****     for(i = 0; i < disp_refr->inv_p; i++) {
 1544              		.loc 1 540 5 view .LVU515
 541:Drivers/lvgl/src/core/lv_refr.c ****         /*Skip joined areas*/
 1545              		.loc 1 541 5 view .LVU516
 541:Drivers/lvgl/src/core/lv_refr.c ****         /*Skip joined areas*/
 1546              		.loc 1 541 11 is_stmt 0 view .LVU517
 1547 0052 4FF00008 		mov	r8, #0
 541:Drivers/lvgl/src/core/lv_refr.c ****         /*Skip joined areas*/
 1548              		.loc 1 541 5 view .LVU518
 1549 0056 3AE0     		b	.L90
 1550              	.LVL139:
 1551              	.L106:
 531:Drivers/lvgl/src/core/lv_refr.c **** 
 1552              		.loc 1 531 28 discriminator 1 view .LVU519
 1553 0058 D3F804A0 		ldr	r10, [r3, #4]
 1554 005c F1E7     		b	.L89
 1555              	.LVL140:
 1556              	.L95:
 558:Drivers/lvgl/src/core/lv_refr.c ****                     *new_area = res[j];
 1557              		.loc 1 558 21 is_stmt 1 discriminator 3 view .LVU520
 558:Drivers/lvgl/src/core/lv_refr.c ****                     *new_area = res[j];
 1558              		.loc 1 558 58 is_stmt 0 discriminator 3 view .LVU521
 1559 005e 384B     		ldr	r3, .L109
 1560 0060 1868     		ldr	r0, [r3]
 558:Drivers/lvgl/src/core/lv_refr.c ****                     *new_area = res[j];
 1561              		.loc 1 558 32 discriminator 3 view .LVU522
 1562 0062 2946     		mov	r1, r5
 1563 0064 00F5AC70 		add	r0, r0, #344
 1564 0068 FFF7FEFF 		bl	_lv_ll_ins_prev
ARM GAS  /var/folders/0z/tsy30v1j4xl4_7kw94k978ww0000gn/T//ccRTPM70.s 			page 60


 1565              	.LVL141:
 1566 006c 0246     		mov	r2, r0
 1567              	.LVL142:
 559:Drivers/lvgl/src/core/lv_refr.c ****                 }
 1568              		.loc 1 559 21 is_stmt 1 discriminator 3 view .LVU523
 559:Drivers/lvgl/src/core/lv_refr.c ****                 }
 1569              		.loc 1 559 31 is_stmt 0 discriminator 3 view .LVU524
 1570 006e 0CAB     		add	r3, sp, #48
 1571 0070 03EBC403 		add	r3, r3, r4, lsl #3
 1572 0074 203B     		subs	r3, r3, #32
 1573 0076 03CB     		ldmia	r3!, {r0, r1}
 1574              	.LVL143:
 559:Drivers/lvgl/src/core/lv_refr.c ****                 }
 1575              		.loc 1 559 31 discriminator 3 view .LVU525
 1576 0078 1060     		str	r0, [r2]	@ unaligned
 1577 007a 5160     		str	r1, [r2, #4]	@ unaligned
 557:Drivers/lvgl/src/core/lv_refr.c ****                     new_area = _lv_ll_ins_prev(&disp_refr->sync_areas, sync_area);
 1578              		.loc 1 557 40 is_stmt 1 discriminator 3 view .LVU526
 1579 007c 0134     		adds	r4, r4, #1
 1580              	.LVL144:
 557:Drivers/lvgl/src/core/lv_refr.c ****                     new_area = _lv_ll_ins_prev(&disp_refr->sync_areas, sync_area);
 1581              		.loc 1 557 40 is_stmt 0 discriminator 3 view .LVU527
 1582 007e 64B2     		sxtb	r4, r4
 1583              	.LVL145:
 1584              	.L93:
 557:Drivers/lvgl/src/core/lv_refr.c ****                     new_area = _lv_ll_ins_prev(&disp_refr->sync_areas, sync_area);
 1585              		.loc 1 557 30 is_stmt 1 discriminator 1 view .LVU528
 1586 0080 B442     		cmp	r4, r6
 1587 0082 ECDB     		blt	.L95
 561:Drivers/lvgl/src/core/lv_refr.c ****                 lv_mem_free(sync_area);
 1588              		.loc 1 561 17 view .LVU529
 561:Drivers/lvgl/src/core/lv_refr.c ****                 lv_mem_free(sync_area);
 1589              		.loc 1 561 41 is_stmt 0 view .LVU530
 1590 0084 2E4B     		ldr	r3, .L109
 1591 0086 1868     		ldr	r0, [r3]
 561:Drivers/lvgl/src/core/lv_refr.c ****                 lv_mem_free(sync_area);
 1592              		.loc 1 561 17 view .LVU531
 1593 0088 2946     		mov	r1, r5
 1594 008a 00F5AC70 		add	r0, r0, #344
 1595 008e FFF7FEFF 		bl	_lv_ll_remove
 1596              	.LVL146:
 562:Drivers/lvgl/src/core/lv_refr.c ****             }
 1597              		.loc 1 562 17 is_stmt 1 view .LVU532
 1598 0092 2846     		mov	r0, r5
 1599 0094 FFF7FEFF 		bl	lv_mem_free
 1600              	.LVL147:
 1601              	.L94:
 557:Drivers/lvgl/src/core/lv_refr.c ****                     new_area = _lv_ll_ins_prev(&disp_refr->sync_areas, sync_area);
 1602              		.loc 1 557 23 is_stmt 0 view .LVU533
 1603 0098 3D46     		mov	r5, r7
 1604              	.LVL148:
 1605              	.L92:
 547:Drivers/lvgl/src/core/lv_refr.c ****             /*Get next sync area*/
 1606              		.loc 1 547 25 is_stmt 1 view .LVU534
 1607 009a B5B1     		cbz	r5, .L91
 549:Drivers/lvgl/src/core/lv_refr.c **** 
 1608              		.loc 1 549 13 view .LVU535
ARM GAS  /var/folders/0z/tsy30v1j4xl4_7kw94k978ww0000gn/T//ccRTPM70.s 			page 61


 549:Drivers/lvgl/src/core/lv_refr.c **** 
 1609              		.loc 1 549 51 is_stmt 0 view .LVU536
 1610 009c 284C     		ldr	r4, .L109
 1611 009e 2068     		ldr	r0, [r4]
 549:Drivers/lvgl/src/core/lv_refr.c **** 
 1612              		.loc 1 549 25 view .LVU537
 1613 00a0 2946     		mov	r1, r5
 1614 00a2 00F5AC70 		add	r0, r0, #344
 1615 00a6 FFF7FEFF 		bl	_lv_ll_get_next
 1616              	.LVL149:
 1617 00aa 0746     		mov	r7, r0
 1618              	.LVL150:
 552:Drivers/lvgl/src/core/lv_refr.c **** 
 1619              		.loc 1 552 13 is_stmt 1 view .LVU538
 552:Drivers/lvgl/src/core/lv_refr.c **** 
 1620              		.loc 1 552 61 is_stmt 0 view .LVU539
 1621 00ac 2368     		ldr	r3, [r4]
 552:Drivers/lvgl/src/core/lv_refr.c **** 
 1622              		.loc 1 552 51 view .LVU540
 1623 00ae 08F10602 		add	r2, r8, #6
 552:Drivers/lvgl/src/core/lv_refr.c **** 
 1624              		.loc 1 552 21 view .LVU541
 1625 00b2 03EBC202 		add	r2, r3, r2, lsl #3
 1626 00b6 2946     		mov	r1, r5
 1627 00b8 04A8     		add	r0, sp, #16
 1628              	.LVL151:
 552:Drivers/lvgl/src/core/lv_refr.c **** 
 1629              		.loc 1 552 21 view .LVU542
 1630 00ba FFF7FEFF 		bl	_lv_area_diff
 1631              	.LVL152:
 1632 00be 0646     		mov	r6, r0
 1633              	.LVL153:
 555:Drivers/lvgl/src/core/lv_refr.c ****                 /*Replace old sync area with new areas*/
 1634              		.loc 1 555 13 is_stmt 1 view .LVU543
 555:Drivers/lvgl/src/core/lv_refr.c ****                 /*Replace old sync area with new areas*/
 1635              		.loc 1 555 15 is_stmt 0 view .LVU544
 1636 00c0 B0F1FF3F 		cmp	r0, #-1
 1637 00c4 E8D0     		beq	.L94
 557:Drivers/lvgl/src/core/lv_refr.c ****                     new_area = _lv_ll_ins_prev(&disp_refr->sync_areas, sync_area);
 1638              		.loc 1 557 23 view .LVU545
 1639 00c6 0024     		movs	r4, #0
 1640 00c8 DAE7     		b	.L93
 1641              	.LVL154:
 1642              	.L91:
 541:Drivers/lvgl/src/core/lv_refr.c ****         /*Skip joined areas*/
 1643              		.loc 1 541 39 is_stmt 1 discriminator 2 view .LVU546
 1644 00ca 08F10108 		add	r8, r8, #1
 1645              	.LVL155:
 1646              	.L90:
 541:Drivers/lvgl/src/core/lv_refr.c ****         /*Skip joined areas*/
 1647              		.loc 1 541 18 discriminator 1 view .LVU547
 541:Drivers/lvgl/src/core/lv_refr.c ****         /*Skip joined areas*/
 1648              		.loc 1 541 29 is_stmt 0 discriminator 1 view .LVU548
 1649 00ce 1C4B     		ldr	r3, .L109
 1650 00d0 1868     		ldr	r0, [r3]
 1651 00d2 B0F85031 		ldrh	r3, [r0, #336]
 541:Drivers/lvgl/src/core/lv_refr.c ****         /*Skip joined areas*/
ARM GAS  /var/folders/0z/tsy30v1j4xl4_7kw94k978ww0000gn/T//ccRTPM70.s 			page 62


 1652              		.loc 1 541 18 discriminator 1 view .LVU549
 1653 00d6 4345     		cmp	r3, r8
 1654 00d8 0BD9     		bls	.L107
 543:Drivers/lvgl/src/core/lv_refr.c **** 
 1655              		.loc 1 543 9 is_stmt 1 view .LVU550
 543:Drivers/lvgl/src/core/lv_refr.c **** 
 1656              		.loc 1 543 38 is_stmt 0 view .LVU551
 1657 00da 00EB0803 		add	r3, r0, r8
 1658 00de 93F83031 		ldrb	r3, [r3, #304]	@ zero_extendqisi2
 543:Drivers/lvgl/src/core/lv_refr.c **** 
 1659              		.loc 1 543 11 view .LVU552
 1660 00e2 002B     		cmp	r3, #0
 1661 00e4 F1D1     		bne	.L91
 546:Drivers/lvgl/src/core/lv_refr.c ****         while(sync_area != NULL) {
 1662              		.loc 1 546 9 is_stmt 1 view .LVU553
 546:Drivers/lvgl/src/core/lv_refr.c ****         while(sync_area != NULL) {
 1663              		.loc 1 546 21 is_stmt 0 view .LVU554
 1664 00e6 00F5AC70 		add	r0, r0, #344
 1665 00ea FFF7FEFF 		bl	_lv_ll_get_head
 1666              	.LVL156:
 1667 00ee 0546     		mov	r5, r0
 1668              	.LVL157:
 547:Drivers/lvgl/src/core/lv_refr.c ****             /*Get next sync area*/
 1669              		.loc 1 547 9 is_stmt 1 view .LVU555
 547:Drivers/lvgl/src/core/lv_refr.c ****             /*Get next sync area*/
 1670              		.loc 1 547 14 is_stmt 0 view .LVU556
 1671 00f0 D3E7     		b	.L92
 1672              	.LVL158:
 1673              	.L107:
 571:Drivers/lvgl/src/core/lv_refr.c ****         sync_area = _lv_ll_get_next(&disp_refr->sync_areas, sync_area)) {
 1674              		.loc 1 571 5 is_stmt 1 view .LVU557
 571:Drivers/lvgl/src/core/lv_refr.c ****         sync_area = _lv_ll_get_next(&disp_refr->sync_areas, sync_area)) {
 1675              		.loc 1 571 21 is_stmt 0 view .LVU558
 1676 00f2 00F5AC70 		add	r0, r0, #344
 1677 00f6 FFF7FEFF 		bl	_lv_ll_get_head
 1678              	.LVL159:
 1679 00fa 0446     		mov	r4, r0
 1680              	.LVL160:
 1681              	.L98:
 571:Drivers/lvgl/src/core/lv_refr.c ****         sync_area = _lv_ll_get_next(&disp_refr->sync_areas, sync_area)) {
 1682              		.loc 1 571 72 is_stmt 1 discriminator 1 view .LVU559
 1683 00fc ACB1     		cbz	r4, .L108
 573:Drivers/lvgl/src/core/lv_refr.c ****             disp_refr->driver->draw_ctx,
 1684              		.loc 1 573 9 view .LVU560
 573:Drivers/lvgl/src/core/lv_refr.c ****             disp_refr->driver->draw_ctx,
 1685              		.loc 1 573 18 is_stmt 0 view .LVU561
 1686 00fe 104D     		ldr	r5, .L109
 1687 0100 2B68     		ldr	r3, [r5]
 1688 0102 1B68     		ldr	r3, [r3]
 573:Drivers/lvgl/src/core/lv_refr.c ****             disp_refr->driver->draw_ctx,
 1689              		.loc 1 573 26 view .LVU562
 1690 0104 D86B     		ldr	r0, [r3, #60]
 1691              	.LVL161:
 573:Drivers/lvgl/src/core/lv_refr.c ****             disp_refr->driver->draw_ctx,
 1692              		.loc 1 573 36 view .LVU563
 1693 0106 866B     		ldr	r6, [r0, #56]
 573:Drivers/lvgl/src/core/lv_refr.c ****             disp_refr->driver->draw_ctx,
ARM GAS  /var/folders/0z/tsy30v1j4xl4_7kw94k978ww0000gn/T//ccRTPM70.s 			page 63


 1694              		.loc 1 573 9 view .LVU564
 1695 0108 0294     		str	r4, [sp, #8]
 1696 010a CDF80490 		str	r9, [sp, #4]
 1697 010e CDF800A0 		str	r10, [sp]
 1698 0112 2346     		mov	r3, r4
 1699 0114 4A46     		mov	r2, r9
 1700 0116 5946     		mov	r1, fp
 1701 0118 B047     		blx	r6
 1702              	.LVL162:
 572:Drivers/lvgl/src/core/lv_refr.c ****         disp_refr->driver->draw_ctx->buffer_copy(
 1703              		.loc 1 572 19 is_stmt 1 view .LVU565
 572:Drivers/lvgl/src/core/lv_refr.c ****         disp_refr->driver->draw_ctx->buffer_copy(
 1704              		.loc 1 572 47 is_stmt 0 view .LVU566
 1705 011a 2868     		ldr	r0, [r5]
 572:Drivers/lvgl/src/core/lv_refr.c ****         disp_refr->driver->draw_ctx->buffer_copy(
 1706              		.loc 1 572 21 view .LVU567
 1707 011c 2146     		mov	r1, r4
 1708 011e 00F5AC70 		add	r0, r0, #344
 1709 0122 FFF7FEFF 		bl	_lv_ll_get_next
 1710              	.LVL163:
 1711 0126 0446     		mov	r4, r0
 1712              	.LVL164:
 572:Drivers/lvgl/src/core/lv_refr.c ****         disp_refr->driver->draw_ctx->buffer_copy(
 1713              		.loc 1 572 21 view .LVU568
 1714 0128 E8E7     		b	.L98
 1715              	.L108:
 581:Drivers/lvgl/src/core/lv_refr.c **** }
 1716              		.loc 1 581 5 is_stmt 1 view .LVU569
 581:Drivers/lvgl/src/core/lv_refr.c **** }
 1717              		.loc 1 581 28 is_stmt 0 view .LVU570
 1718 012a 054B     		ldr	r3, .L109
 1719 012c 1868     		ldr	r0, [r3]
 1720              	.LVL165:
 581:Drivers/lvgl/src/core/lv_refr.c **** }
 1721              		.loc 1 581 5 view .LVU571
 1722 012e 00F5AC70 		add	r0, r0, #344
 1723 0132 FFF7FEFF 		bl	_lv_ll_clear
 1724              	.LVL166:
 1725              	.L87:
 582:Drivers/lvgl/src/core/lv_refr.c **** 
 1726              		.loc 1 582 1 view .LVU572
 1727 0136 0DB0     		add	sp, sp, #52
 1728              		.cfi_def_cfa_offset 36
 1729              		@ sp needed
 1730 0138 BDE8F08F 		pop	{r4, r5, r6, r7, r8, r9, r10, fp, pc}
 1731              	.L103:
 1732              		.cfi_def_cfa_offset 0
 1733              		.cfi_restore 4
 1734              		.cfi_restore 5
 1735              		.cfi_restore 6
 1736              		.cfi_restore 7
 1737              		.cfi_restore 8
 1738              		.cfi_restore 9
 1739              		.cfi_restore 10
 1740              		.cfi_restore 11
 1741              		.cfi_restore 14
 1742 013c 7047     		bx	lr
ARM GAS  /var/folders/0z/tsy30v1j4xl4_7kw94k978ww0000gn/T//ccRTPM70.s 			page 64


 1743              	.L110:
 1744 013e 00BF     		.align	2
 1745              	.L109:
 1746 0140 00000000 		.word	.LANCHOR0
 1747              		.cfi_endproc
 1748              	.LFE177:
 1750              		.section	.text.draw_buf_rotate,"ax",%progbits
 1751              		.align	1
 1752              		.syntax unified
 1753              		.thumb
 1754              		.thumb_func
 1756              	draw_buf_rotate:
 1757              	.LVL167:
 1758              	.LFB191:
1184:Drivers/lvgl/src/core/lv_refr.c ****     lv_disp_drv_t * drv = disp_refr->driver;
 1759              		.loc 1 1184 1 is_stmt 1 view -0
 1760              		.cfi_startproc
 1761              		@ args = 0, pretend = 0, frame = 32
 1762              		@ frame_needed = 0, uses_anonymous_args = 0
1184:Drivers/lvgl/src/core/lv_refr.c ****     lv_disp_drv_t * drv = disp_refr->driver;
 1763              		.loc 1 1184 1 is_stmt 0 view .LVU574
 1764 0000 2DE9F04F 		push	{r4, r5, r6, r7, r8, r9, r10, fp, lr}
 1765              		.cfi_def_cfa_offset 36
 1766              		.cfi_offset 4, -36
 1767              		.cfi_offset 5, -32
 1768              		.cfi_offset 6, -28
 1769              		.cfi_offset 7, -24
 1770              		.cfi_offset 8, -20
 1771              		.cfi_offset 9, -16
 1772              		.cfi_offset 10, -12
 1773              		.cfi_offset 11, -8
 1774              		.cfi_offset 14, -4
 1775 0004 8BB0     		sub	sp, sp, #44
 1776              		.cfi_def_cfa_offset 80
 1777 0006 8046     		mov	r8, r0
 1778 0008 0F46     		mov	r7, r1
1185:Drivers/lvgl/src/core/lv_refr.c ****     if(disp_refr->driver->full_refresh && drv->sw_rotate) {
 1779              		.loc 1 1185 5 is_stmt 1 view .LVU575
1185:Drivers/lvgl/src/core/lv_refr.c ****     if(disp_refr->driver->full_refresh && drv->sw_rotate) {
 1780              		.loc 1 1185 36 is_stmt 0 view .LVU576
 1781 000a 844B     		ldr	r3, .L142
 1782 000c 1868     		ldr	r0, [r3]
 1783              	.LVL168:
1185:Drivers/lvgl/src/core/lv_refr.c ****     if(disp_refr->driver->full_refresh && drv->sw_rotate) {
 1784              		.loc 1 1185 21 view .LVU577
 1785 000e 0468     		ldr	r4, [r0]
 1786              	.LVL169:
1186:Drivers/lvgl/src/core/lv_refr.c ****         LV_LOG_ERROR("cannot rotate a full refreshed display!");
 1787              		.loc 1 1186 5 is_stmt 1 view .LVU578
1186:Drivers/lvgl/src/core/lv_refr.c ****         LV_LOG_ERROR("cannot rotate a full refreshed display!");
 1788              		.loc 1 1186 8 is_stmt 0 view .LVU579
 1789 0010 237C     		ldrb	r3, [r4, #16]	@ zero_extendqisi2
1186:Drivers/lvgl/src/core/lv_refr.c ****         LV_LOG_ERROR("cannot rotate a full refreshed display!");
 1790              		.loc 1 1186 7 view .LVU580
 1791 0012 13F0020F 		tst	r3, #2
 1792 0016 02D0     		beq	.L112
1186:Drivers/lvgl/src/core/lv_refr.c ****         LV_LOG_ERROR("cannot rotate a full refreshed display!");
ARM GAS  /var/folders/0z/tsy30v1j4xl4_7kw94k978ww0000gn/T//ccRTPM70.s 			page 65


 1793              		.loc 1 1186 40 discriminator 1 view .LVU581
 1794 0018 13F0040F 		tst	r3, #4
 1795 001c 07D1     		bne	.L111
 1796              	.L112:
1190:Drivers/lvgl/src/core/lv_refr.c ****         draw_buf_rotate_180(drv, area, color_p);
 1797              		.loc 1 1190 5 is_stmt 1 view .LVU582
1190:Drivers/lvgl/src/core/lv_refr.c ****         draw_buf_rotate_180(drv, area, color_p);
 1798              		.loc 1 1190 21 is_stmt 0 view .LVU583
 1799 001e 03F03003 		and	r3, r3, #48
1190:Drivers/lvgl/src/core/lv_refr.c ****         draw_buf_rotate_180(drv, area, color_p);
 1800              		.loc 1 1190 7 view .LVU584
 1801 0022 202B     		cmp	r3, #32
 1802 0024 06D0     		beq	.L133
1194:Drivers/lvgl/src/core/lv_refr.c ****         /*Allocate a temporary buffer to store rotated image*/
 1803              		.loc 1 1194 10 is_stmt 1 view .LVU585
1194:Drivers/lvgl/src/core/lv_refr.c ****         /*Allocate a temporary buffer to store rotated image*/
 1804              		.loc 1 1194 12 is_stmt 0 view .LVU586
 1805 0026 102B     		cmp	r3, #16
 1806 0028 0FD0     		beq	.L115
1194:Drivers/lvgl/src/core/lv_refr.c ****         /*Allocate a temporary buffer to store rotated image*/
 1807              		.loc 1 1194 44 discriminator 1 view .LVU587
 1808 002a 302B     		cmp	r3, #48
 1809 002c 0DD0     		beq	.L115
 1810              	.LVL170:
 1811              	.L111:
1267:Drivers/lvgl/src/core/lv_refr.c **** 
 1812              		.loc 1 1267 1 view .LVU588
 1813 002e 0BB0     		add	sp, sp, #44
 1814              		.cfi_remember_state
 1815              		.cfi_def_cfa_offset 36
 1816              		@ sp needed
 1817 0030 BDE8F08F 		pop	{r4, r5, r6, r7, r8, r9, r10, fp, pc}
 1818              	.LVL171:
 1819              	.L133:
 1820              		.cfi_restore_state
1191:Drivers/lvgl/src/core/lv_refr.c ****         call_flush_cb(drv, area, color_p);
 1821              		.loc 1 1191 9 is_stmt 1 view .LVU589
 1822 0034 3A46     		mov	r2, r7
 1823 0036 4146     		mov	r1, r8
 1824              	.LVL172:
1191:Drivers/lvgl/src/core/lv_refr.c ****         call_flush_cb(drv, area, color_p);
 1825              		.loc 1 1191 9 is_stmt 0 view .LVU590
 1826 0038 2046     		mov	r0, r4
 1827 003a FFF7FEFF 		bl	draw_buf_rotate_180
 1828              	.LVL173:
1192:Drivers/lvgl/src/core/lv_refr.c ****     }
 1829              		.loc 1 1192 9 is_stmt 1 view .LVU591
 1830 003e 3A46     		mov	r2, r7
 1831 0040 4146     		mov	r1, r8
 1832 0042 2046     		mov	r0, r4
 1833 0044 FFF7FEFF 		bl	call_flush_cb
 1834              	.LVL174:
 1835 0048 F1E7     		b	.L111
 1836              	.LVL175:
 1837              	.L115:
 1838              	.LBB103:
1196:Drivers/lvgl/src/core/lv_refr.c ****         lv_disp_draw_buf_t * draw_buf = lv_disp_get_draw_buf(disp_refr);
ARM GAS  /var/folders/0z/tsy30v1j4xl4_7kw94k978ww0000gn/T//ccRTPM70.s 			page 66


 1839              		.loc 1 1196 9 view .LVU592
1197:Drivers/lvgl/src/core/lv_refr.c ****         lv_coord_t area_w = lv_area_get_width(area);
 1840              		.loc 1 1197 9 view .LVU593
1197:Drivers/lvgl/src/core/lv_refr.c ****         lv_coord_t area_w = lv_area_get_width(area);
 1841              		.loc 1 1197 41 is_stmt 0 view .LVU594
 1842 004a FFF7FEFF 		bl	lv_disp_get_draw_buf
 1843              	.LVL176:
1197:Drivers/lvgl/src/core/lv_refr.c ****         lv_coord_t area_w = lv_area_get_width(area);
 1844              		.loc 1 1197 41 view .LVU595
 1845 004e 0546     		mov	r5, r0
 1846              	.LVL177:
1198:Drivers/lvgl/src/core/lv_refr.c ****         lv_coord_t area_h = lv_area_get_height(area);
 1847              		.loc 1 1198 9 is_stmt 1 view .LVU596
 1848              	.LBB104:
 1849              	.LBI104:
 123:Drivers/lvgl/src/core/../misc/../font/../misc/lv_area.h **** {
 1850              		.loc 2 123 26 view .LVU597
 1851              	.LBB105:
 125:Drivers/lvgl/src/core/../misc/../font/../misc/lv_area.h **** }
 1852              		.loc 2 125 5 view .LVU598
 125:Drivers/lvgl/src/core/../misc/../font/../misc/lv_area.h **** }
 1853              		.loc 2 125 31 is_stmt 0 view .LVU599
 1854 0050 B8F80430 		ldrh	r3, [r8, #4]
 125:Drivers/lvgl/src/core/../misc/../font/../misc/lv_area.h **** }
 1855              		.loc 2 125 44 view .LVU600
 1856 0054 B8F90010 		ldrsh	r1, [r8]
 1857 0058 8AB2     		uxth	r2, r1
 125:Drivers/lvgl/src/core/../misc/../font/../misc/lv_area.h **** }
 1858              		.loc 2 125 36 view .LVU601
 1859 005a 9B1A     		subs	r3, r3, r2
 1860 005c 9BB2     		uxth	r3, r3
 125:Drivers/lvgl/src/core/../misc/../font/../misc/lv_area.h **** }
 1861              		.loc 2 125 49 view .LVU602
 1862 005e 0133     		adds	r3, r3, #1
 1863 0060 98B2     		uxth	r0, r3
 1864              	.LVL178:
 125:Drivers/lvgl/src/core/../misc/../font/../misc/lv_area.h **** }
 1865              		.loc 2 125 49 view .LVU603
 1866 0062 0890     		str	r0, [sp, #32]
 125:Drivers/lvgl/src/core/../misc/../font/../misc/lv_area.h **** }
 1867              		.loc 2 125 12 view .LVU604
 1868 0064 18B2     		sxth	r0, r3
 1869 0066 0490     		str	r0, [sp, #16]
 1870              	.LVL179:
 125:Drivers/lvgl/src/core/../misc/../font/../misc/lv_area.h **** }
 1871              		.loc 2 125 12 view .LVU605
 1872              	.LBE105:
 1873              	.LBE104:
1199:Drivers/lvgl/src/core/lv_refr.c ****         /*Determine the maximum number of rows that can be rotated at a time*/
 1874              		.loc 1 1199 9 is_stmt 1 view .LVU606
 1875              	.LBB106:
 1876              	.LBI106:
 133:Drivers/lvgl/src/core/../misc/../font/../misc/lv_area.h **** {
 1877              		.loc 2 133 26 view .LVU607
 1878              	.LBB107:
 1879              		.loc 2 135 5 view .LVU608
 1880              		.loc 2 135 31 is_stmt 0 view .LVU609
ARM GAS  /var/folders/0z/tsy30v1j4xl4_7kw94k978ww0000gn/T//ccRTPM70.s 			page 67


 1881 0068 B8F806A0 		ldrh	r10, [r8, #6]
 1882              		.loc 2 135 44 view .LVU610
 1883 006c B8F90230 		ldrsh	r3, [r8, #2]
 1884 0070 0993     		str	r3, [sp, #36]
 1885 0072 9BB2     		uxth	r3, r3
 1886 0074 0793     		str	r3, [sp, #28]
 1887              		.loc 2 135 36 view .LVU611
 1888 0076 AAEB030A 		sub	r10, r10, r3
 1889 007a 1FFA8AFA 		uxth	r10, r10
 1890              		.loc 2 135 49 view .LVU612
 1891 007e 0AF1010A 		add	r10, r10, #1
 1892              		.loc 2 135 12 view .LVU613
 1893 0082 0FFA8AFA 		sxth	r10, r10
 1894              	.LVL180:
 1895              		.loc 2 135 12 view .LVU614
 1896              	.LBE107:
 1897              	.LBE106:
1201:Drivers/lvgl/src/core/lv_refr.c ****         lv_coord_t init_y_off;
 1898              		.loc 1 1201 9 is_stmt 1 view .LVU615
1201:Drivers/lvgl/src/core/lv_refr.c ****         lv_coord_t init_y_off;
 1899              		.loc 1 1201 30 is_stmt 0 view .LVU616
 1900 0086 4FF4A053 		mov	r3, #5120
 1901 008a B3FBF0F3 		udiv	r3, r3, r0
1201:Drivers/lvgl/src/core/lv_refr.c ****         lv_coord_t init_y_off;
 1902              		.loc 1 1201 20 view .LVU617
 1903 008e 5345     		cmp	r3, r10
 1904 0090 A8BF     		it	ge
 1905 0092 5346     		movge	r3, r10
 1906 0094 0693     		str	r3, [sp, #24]
 1907              	.LVL181:
1202:Drivers/lvgl/src/core/lv_refr.c ****         init_y_off = area->y1;
 1908              		.loc 1 1202 9 is_stmt 1 view .LVU618
1203:Drivers/lvgl/src/core/lv_refr.c ****         if(drv->rotated == LV_DISP_ROT_90) {
 1909              		.loc 1 1203 9 view .LVU619
1204:Drivers/lvgl/src/core/lv_refr.c ****             area->y2 = drv->ver_res - area->x1 - 1;
 1910              		.loc 1 1204 9 view .LVU620
1204:Drivers/lvgl/src/core/lv_refr.c ****             area->y2 = drv->ver_res - area->x1 - 1;
 1911              		.loc 1 1204 25 is_stmt 0 view .LVU621
 1912 0096 237C     		ldrb	r3, [r4, #16]	@ zero_extendqisi2
 1913 0098 03F03003 		and	r3, r3, #48
1204:Drivers/lvgl/src/core/lv_refr.c ****             area->y2 = drv->ver_res - area->x1 - 1;
 1914              		.loc 1 1204 11 view .LVU622
 1915 009c 102B     		cmp	r3, #16
 1916 009e 0BD0     		beq	.L134
1209:Drivers/lvgl/src/core/lv_refr.c ****             area->y2 = area->y1 + area_w - 1;
 1917              		.loc 1 1209 13 is_stmt 1 view .LVU623
1209:Drivers/lvgl/src/core/lv_refr.c ****             area->y2 = area->y1 + area_w - 1;
 1918              		.loc 1 1209 22 is_stmt 0 view .LVU624
 1919 00a0 A8F80210 		strh	r1, [r8, #2]	@ movhi
1210:Drivers/lvgl/src/core/lv_refr.c ****         }
 1920              		.loc 1 1210 13 is_stmt 1 view .LVU625
1210:Drivers/lvgl/src/core/lv_refr.c ****         }
 1921              		.loc 1 1210 33 is_stmt 0 view .LVU626
 1922 00a4 089B     		ldr	r3, [sp, #32]
 1923 00a6 D318     		adds	r3, r2, r3
 1924 00a8 9BB2     		uxth	r3, r3
1210:Drivers/lvgl/src/core/lv_refr.c ****         }
ARM GAS  /var/folders/0z/tsy30v1j4xl4_7kw94k978ww0000gn/T//ccRTPM70.s 			page 68


 1925              		.loc 1 1210 42 view .LVU627
 1926 00aa 013B     		subs	r3, r3, #1
1210:Drivers/lvgl/src/core/lv_refr.c ****         }
 1927              		.loc 1 1210 22 view .LVU628
 1928 00ac A8F80630 		strh	r3, [r8, #6]	@ movhi
 1929              	.L118:
 1930              	.LBB108:
1256:Drivers/lvgl/src/core/lv_refr.c ****             /*FIXME: Rotation forces legacy behavior where rendering and flushing are done serially
 1931              		.loc 1 1256 13 view .LVU629
 1932 00b0 0026     		movs	r6, #0
 1933 00b2 0396     		str	r6, [sp, #12]
 1934 00b4 BB46     		mov	fp, r7
 1935 00b6 62E0     		b	.L117
 1936              	.L134:
1256:Drivers/lvgl/src/core/lv_refr.c ****             /*FIXME: Rotation forces legacy behavior where rendering and flushing are done serially
 1937              		.loc 1 1256 13 view .LVU630
 1938              	.LBE108:
1205:Drivers/lvgl/src/core/lv_refr.c ****             area->y1 = area->y2 - area_w + 1;
 1939              		.loc 1 1205 13 is_stmt 1 view .LVU631
1205:Drivers/lvgl/src/core/lv_refr.c ****             area->y1 = area->y2 - area_w + 1;
 1940              		.loc 1 1205 27 is_stmt 0 view .LVU632
 1941 00b8 6388     		ldrh	r3, [r4, #2]
1205:Drivers/lvgl/src/core/lv_refr.c ****             area->y1 = area->y2 - area_w + 1;
 1942              		.loc 1 1205 37 view .LVU633
 1943 00ba 9B1A     		subs	r3, r3, r2
 1944 00bc 9BB2     		uxth	r3, r3
1205:Drivers/lvgl/src/core/lv_refr.c ****             area->y1 = area->y2 - area_w + 1;
 1945              		.loc 1 1205 48 view .LVU634
 1946 00be 013B     		subs	r3, r3, #1
 1947 00c0 9AB2     		uxth	r2, r3
1205:Drivers/lvgl/src/core/lv_refr.c ****             area->y1 = area->y2 - area_w + 1;
 1948              		.loc 1 1205 22 view .LVU635
 1949 00c2 A8F80630 		strh	r3, [r8, #6]	@ movhi
1206:Drivers/lvgl/src/core/lv_refr.c ****         }
 1950              		.loc 1 1206 13 is_stmt 1 view .LVU636
1206:Drivers/lvgl/src/core/lv_refr.c ****         }
 1951              		.loc 1 1206 33 is_stmt 0 view .LVU637
 1952 00c6 089B     		ldr	r3, [sp, #32]
 1953 00c8 D31A     		subs	r3, r2, r3
 1954 00ca 9BB2     		uxth	r3, r3
1206:Drivers/lvgl/src/core/lv_refr.c ****         }
 1955              		.loc 1 1206 42 view .LVU638
 1956 00cc 0133     		adds	r3, r3, #1
1206:Drivers/lvgl/src/core/lv_refr.c ****         }
 1957              		.loc 1 1206 22 view .LVU639
 1958 00ce A8F80230 		strh	r3, [r8, #2]	@ movhi
 1959 00d2 EDE7     		b	.L118
 1960              	.LVL182:
 1961              	.L139:
 1962              	.LBB109:
1220:Drivers/lvgl/src/core/lv_refr.c ****                 draw_buf_rotate_90_sqr(drv->rotated == LV_DISP_ROT_270, area_w, color_p);
 1963              		.loc 1 1220 17 is_stmt 1 view .LVU640
1221:Drivers/lvgl/src/core/lv_refr.c ****                 if(drv->rotated == LV_DISP_ROT_90) {
 1964              		.loc 1 1221 17 view .LVU641
1221:Drivers/lvgl/src/core/lv_refr.c ****                 if(drv->rotated == LV_DISP_ROT_90) {
 1965              		.loc 1 1221 53 is_stmt 0 view .LVU642
 1966 00d4 207C     		ldrb	r0, [r4, #16]	@ zero_extendqisi2
ARM GAS  /var/folders/0z/tsy30v1j4xl4_7kw94k978ww0000gn/T//ccRTPM70.s 			page 69


1221:Drivers/lvgl/src/core/lv_refr.c ****                 if(drv->rotated == LV_DISP_ROT_90) {
 1967              		.loc 1 1221 17 view .LVU643
 1968 00d6 00F03000 		and	r0, r0, #48
 1969 00da 5A46     		mov	r2, fp
 1970 00dc 1946     		mov	r1, r3
 1971 00de 3028     		cmp	r0, #48
 1972 00e0 14BF     		ite	ne
 1973 00e2 0020     		movne	r0, #0
 1974 00e4 0120     		moveq	r0, #1
 1975 00e6 FFF7FEFF 		bl	draw_buf_rotate_90_sqr
 1976              	.LVL183:
1222:Drivers/lvgl/src/core/lv_refr.c ****                     area->x1 = init_y_off;
 1977              		.loc 1 1222 17 is_stmt 1 view .LVU644
1222:Drivers/lvgl/src/core/lv_refr.c ****                     area->x1 = init_y_off;
 1978              		.loc 1 1222 33 is_stmt 0 view .LVU645
 1979 00ea 237C     		ldrb	r3, [r4, #16]	@ zero_extendqisi2
 1980 00ec 03F03003 		and	r3, r3, #48
1222:Drivers/lvgl/src/core/lv_refr.c ****                     area->x1 = init_y_off;
 1981              		.loc 1 1222 19 view .LVU646
 1982 00f0 102B     		cmp	r3, #16
 1983 00f2 0ED0     		beq	.L135
1227:Drivers/lvgl/src/core/lv_refr.c ****                     area->x1 = area->x2 - area_w + 1;
 1984              		.loc 1 1227 21 is_stmt 1 view .LVU647
1227:Drivers/lvgl/src/core/lv_refr.c ****                     area->x1 = area->x2 - area_w + 1;
 1985              		.loc 1 1227 35 is_stmt 0 view .LVU648
 1986 00f4 2288     		ldrh	r2, [r4]
1227:Drivers/lvgl/src/core/lv_refr.c ****                     area->x1 = area->x2 - area_w + 1;
 1987              		.loc 1 1227 49 view .LVU649
 1988 00f6 079B     		ldr	r3, [sp, #28]
 1989 00f8 D21A     		subs	r2, r2, r3
 1990 00fa 013A     		subs	r2, r2, #1
 1991 00fc 93B2     		uxth	r3, r2
1227:Drivers/lvgl/src/core/lv_refr.c ****                     area->x1 = area->x2 - area_w + 1;
 1992              		.loc 1 1227 30 view .LVU650
 1993 00fe A8F80420 		strh	r2, [r8, #4]	@ movhi
1228:Drivers/lvgl/src/core/lv_refr.c ****                 }
 1994              		.loc 1 1228 21 is_stmt 1 view .LVU651
1228:Drivers/lvgl/src/core/lv_refr.c ****                 }
 1995              		.loc 1 1228 41 is_stmt 0 view .LVU652
 1996 0102 089A     		ldr	r2, [sp, #32]
 1997 0104 9B1A     		subs	r3, r3, r2
 1998 0106 9BB2     		uxth	r3, r3
1228:Drivers/lvgl/src/core/lv_refr.c ****                 }
 1999              		.loc 1 1228 50 view .LVU653
 2000 0108 0133     		adds	r3, r3, #1
1228:Drivers/lvgl/src/core/lv_refr.c ****                 }
 2001              		.loc 1 1228 30 view .LVU654
 2002 010a A8F80030 		strh	r3, [r8]	@ movhi
1220:Drivers/lvgl/src/core/lv_refr.c ****                 draw_buf_rotate_90_sqr(drv->rotated == LV_DISP_ROT_270, area_w, color_p);
 2003              		.loc 1 1220 24 view .LVU655
 2004 010e 049F     		ldr	r7, [sp, #16]
 2005 0110 6BE0     		b	.L121
 2006              	.L135:
1223:Drivers/lvgl/src/core/lv_refr.c ****                     area->x2 = init_y_off + area_w - 1;
 2007              		.loc 1 1223 21 is_stmt 1 view .LVU656
1223:Drivers/lvgl/src/core/lv_refr.c ****                     area->x2 = init_y_off + area_w - 1;
 2008              		.loc 1 1223 30 is_stmt 0 view .LVU657
ARM GAS  /var/folders/0z/tsy30v1j4xl4_7kw94k978ww0000gn/T//ccRTPM70.s 			page 70


 2009 0112 099B     		ldr	r3, [sp, #36]
 2010 0114 A8F80030 		strh	r3, [r8]	@ movhi
1224:Drivers/lvgl/src/core/lv_refr.c ****                 }
 2011              		.loc 1 1224 21 is_stmt 1 view .LVU658
1224:Drivers/lvgl/src/core/lv_refr.c ****                 }
 2012              		.loc 1 1224 43 is_stmt 0 view .LVU659
 2013 0118 079B     		ldr	r3, [sp, #28]
 2014 011a 089A     		ldr	r2, [sp, #32]
 2015 011c 1344     		add	r3, r3, r2
 2016 011e 9BB2     		uxth	r3, r3
1224:Drivers/lvgl/src/core/lv_refr.c ****                 }
 2017              		.loc 1 1224 52 view .LVU660
 2018 0120 013B     		subs	r3, r3, #1
1224:Drivers/lvgl/src/core/lv_refr.c ****                 }
 2019              		.loc 1 1224 30 view .LVU661
 2020 0122 A8F80430 		strh	r3, [r8, #4]	@ movhi
1220:Drivers/lvgl/src/core/lv_refr.c ****                 draw_buf_rotate_90_sqr(drv->rotated == LV_DISP_ROT_270, area_w, color_p);
 2021              		.loc 1 1220 24 view .LVU662
 2022 0126 049F     		ldr	r7, [sp, #16]
 2023 0128 5FE0     		b	.L121
 2024              	.LVL184:
 2025              	.L140:
1233:Drivers/lvgl/src/core/lv_refr.c ****                 draw_buf_rotate_90(drv->rotated == LV_DISP_ROT_270, area_w, height, color_p, rot_bu
 2026              		.loc 1 1233 37 is_stmt 1 discriminator 1 view .LVU663
1233:Drivers/lvgl/src/core/lv_refr.c ****                 draw_buf_rotate_90(drv->rotated == LV_DISP_ROT_270, area_w, height, color_p, rot_bu
 2027              		.loc 1 1233 47 is_stmt 0 discriminator 1 view .LVU664
 2028 012a 4FF42050 		mov	r0, #10240
 2029 012e FFF7FEFF 		bl	lv_mem_buf_get
 2030              	.LVL185:
 2031 0132 0390     		str	r0, [sp, #12]
 2032              	.LVL186:
1233:Drivers/lvgl/src/core/lv_refr.c ****                 draw_buf_rotate_90(drv->rotated == LV_DISP_ROT_270, area_w, height, color_p, rot_bu
 2033              		.loc 1 1233 47 discriminator 1 view .LVU665
 2034 0134 37E0     		b	.L122
 2035              	.LVL187:
 2036              	.L141:
1237:Drivers/lvgl/src/core/lv_refr.c ****                     area->x2 = init_y_off + row + height - 1;
 2037              		.loc 1 1237 21 is_stmt 1 view .LVU666
1237:Drivers/lvgl/src/core/lv_refr.c ****                     area->x2 = init_y_off + row + height - 1;
 2038              		.loc 1 1237 43 is_stmt 0 view .LVU667
 2039 0136 079B     		ldr	r3, [sp, #28]
 2040 0138 3344     		add	r3, r3, r6
1237:Drivers/lvgl/src/core/lv_refr.c ****                     area->x2 = init_y_off + row + height - 1;
 2041              		.loc 1 1237 30 view .LVU668
 2042 013a A8F80030 		strh	r3, [r8]	@ movhi
1238:Drivers/lvgl/src/core/lv_refr.c ****                 }
 2043              		.loc 1 1238 21 is_stmt 1 view .LVU669
1238:Drivers/lvgl/src/core/lv_refr.c ****                 }
 2044              		.loc 1 1238 49 is_stmt 0 view .LVU670
 2045 013e 19FA83F3 		uxtah	r3, r9, r3
 2046 0142 9BB2     		uxth	r3, r3
1238:Drivers/lvgl/src/core/lv_refr.c ****                 }
 2047              		.loc 1 1238 58 view .LVU671
 2048 0144 013B     		subs	r3, r3, #1
1238:Drivers/lvgl/src/core/lv_refr.c ****                 }
 2049              		.loc 1 1238 30 view .LVU672
 2050 0146 A8F80430 		strh	r3, [r8, #4]	@ movhi
ARM GAS  /var/folders/0z/tsy30v1j4xl4_7kw94k978ww0000gn/T//ccRTPM70.s 			page 71


 2051 014a 4EE0     		b	.L121
 2052              	.L124:
1252:Drivers/lvgl/src/core/lv_refr.c ****             }
 2053              		.loc 1 1252 17 is_stmt 1 view .LVU673
1252:Drivers/lvgl/src/core/lv_refr.c ****             }
 2054              		.loc 1 1252 41 is_stmt 0 view .LVU674
 2055 014c 0023     		movs	r3, #0
 2056 014e 6B61     		str	r3, [r5, #20]
 2057              	.L125:
1256:Drivers/lvgl/src/core/lv_refr.c ****             /*FIXME: Rotation forces legacy behavior where rendering and flushing are done serially
 2058              		.loc 1 1256 13 is_stmt 1 view .LVU675
 2059 0150 039A     		ldr	r2, [sp, #12]
 2060 0152 5AB1     		cbz	r2, .L136
 2061              	.L126:
1256:Drivers/lvgl/src/core/lv_refr.c ****             /*FIXME: Rotation forces legacy behavior where rendering and flushing are done serially
 2062              		.loc 1 1256 13 is_stmt 0 discriminator 4 view .LVU676
 2063 0154 4146     		mov	r1, r8
 2064 0156 2046     		mov	r0, r4
 2065 0158 FFF7FEFF 		bl	call_flush_cb
 2066              	.LVL188:
1258:Drivers/lvgl/src/core/lv_refr.c ****                 if(drv->wait_cb) drv->wait_cb(drv);
 2067              		.loc 1 1258 13 is_stmt 1 discriminator 4 view .LVU677
 2068              	.L128:
1258:Drivers/lvgl/src/core/lv_refr.c ****                 if(drv->wait_cb) drv->wait_cb(drv);
 2069              		.loc 1 1258 19 view .LVU678
1258:Drivers/lvgl/src/core/lv_refr.c ****                 if(drv->wait_cb) drv->wait_cb(drv);
 2070              		.loc 1 1258 27 is_stmt 0 view .LVU679
 2071 015c 2B69     		ldr	r3, [r5, #16]
1258:Drivers/lvgl/src/core/lv_refr.c ****                 if(drv->wait_cb) drv->wait_cb(drv);
 2072              		.loc 1 1258 19 view .LVU680
 2073 015e 3BB1     		cbz	r3, .L137
1259:Drivers/lvgl/src/core/lv_refr.c ****             }
 2074              		.loc 1 1259 17 is_stmt 1 view .LVU681
1259:Drivers/lvgl/src/core/lv_refr.c ****             }
 2075              		.loc 1 1259 23 is_stmt 0 view .LVU682
 2076 0160 A36A     		ldr	r3, [r4, #40]
1259:Drivers/lvgl/src/core/lv_refr.c ****             }
 2077              		.loc 1 1259 19 view .LVU683
 2078 0162 002B     		cmp	r3, #0
 2079 0164 FAD0     		beq	.L128
1259:Drivers/lvgl/src/core/lv_refr.c ****             }
 2080              		.loc 1 1259 34 is_stmt 1 discriminator 1 view .LVU684
 2081 0166 2046     		mov	r0, r4
 2082 0168 9847     		blx	r3
 2083              	.LVL189:
 2084 016a F7E7     		b	.L128
 2085              	.L136:
1256:Drivers/lvgl/src/core/lv_refr.c ****             /*FIXME: Rotation forces legacy behavior where rendering and flushing are done serially
 2086              		.loc 1 1256 13 is_stmt 0 view .LVU685
 2087 016c 5A46     		mov	r2, fp
 2088 016e F1E7     		b	.L126
 2089              	.L137:
1261:Drivers/lvgl/src/core/lv_refr.c ****             row += height;
 2090              		.loc 1 1261 13 is_stmt 1 view .LVU686
1261:Drivers/lvgl/src/core/lv_refr.c ****             row += height;
 2091              		.loc 1 1261 31 is_stmt 0 view .LVU687
 2092 0170 049B     		ldr	r3, [sp, #16]
ARM GAS  /var/folders/0z/tsy30v1j4xl4_7kw94k978ww0000gn/T//ccRTPM70.s 			page 72


 2093 0172 09FB03F9 		mul	r9, r9, r3
1261:Drivers/lvgl/src/core/lv_refr.c ****             row += height;
 2094              		.loc 1 1261 21 view .LVU688
 2095 0176 0BEB490B 		add	fp, fp, r9, lsl #1
 2096              	.LVL190:
1262:Drivers/lvgl/src/core/lv_refr.c ****         }
 2097              		.loc 1 1262 13 is_stmt 1 view .LVU689
1262:Drivers/lvgl/src/core/lv_refr.c ****         }
 2098              		.loc 1 1262 17 is_stmt 0 view .LVU690
 2099 017a 3744     		add	r7, r7, r6
 2100              	.LVL191:
1262:Drivers/lvgl/src/core/lv_refr.c ****         }
 2101              		.loc 1 1262 17 view .LVU691
 2102 017c 3EB2     		sxth	r6, r7
 2103              	.LVL192:
 2104              	.L117:
1262:Drivers/lvgl/src/core/lv_refr.c ****         }
 2105              		.loc 1 1262 17 view .LVU692
 2106              	.LBE109:
1215:Drivers/lvgl/src/core/lv_refr.c ****             lv_coord_t height = LV_MIN(max_row, area_h - row);
 2107              		.loc 1 1215 19 is_stmt 1 view .LVU693
 2108 017e 5645     		cmp	r6, r10
 2109 0180 43DA     		bge	.L138
 2110              	.LBB110:
1216:Drivers/lvgl/src/core/lv_refr.c ****             draw_buf->flushing = 1;
 2111              		.loc 1 1216 13 view .LVU694
1216:Drivers/lvgl/src/core/lv_refr.c ****             draw_buf->flushing = 1;
 2112              		.loc 1 1216 33 is_stmt 0 view .LVU695
 2113 0182 0596     		str	r6, [sp, #20]
 2114 0184 AAEB0609 		sub	r9, r10, r6
 2115 0188 069B     		ldr	r3, [sp, #24]
 2116 018a 9945     		cmp	r9, r3
 2117 018c A8BF     		it	ge
 2118 018e 9946     		movge	r9, r3
1216:Drivers/lvgl/src/core/lv_refr.c ****             draw_buf->flushing = 1;
 2119              		.loc 1 1216 24 view .LVU696
 2120 0190 0FFA89F7 		sxth	r7, r9
 2121              	.LVL193:
1217:Drivers/lvgl/src/core/lv_refr.c ****             if((row == 0) && (area_h >= area_w)) {
 2122              		.loc 1 1217 13 is_stmt 1 view .LVU697
1217:Drivers/lvgl/src/core/lv_refr.c ****             if((row == 0) && (area_h >= area_w)) {
 2123              		.loc 1 1217 32 is_stmt 0 view .LVU698
 2124 0194 0123     		movs	r3, #1
 2125 0196 2B61     		str	r3, [r5, #16]
1218:Drivers/lvgl/src/core/lv_refr.c ****                 /*Rotate the initial area as a square*/
 2126              		.loc 1 1218 13 is_stmt 1 view .LVU699
1218:Drivers/lvgl/src/core/lv_refr.c ****                 /*Rotate the initial area as a square*/
 2127              		.loc 1 1218 15 is_stmt 0 view .LVU700
 2128 0198 16B9     		cbnz	r6, .L119
1218:Drivers/lvgl/src/core/lv_refr.c ****                 /*Rotate the initial area as a square*/
 2129              		.loc 1 1218 27 discriminator 1 view .LVU701
 2130 019a 049B     		ldr	r3, [sp, #16]
 2131 019c 9A45     		cmp	r10, r3
 2132 019e 99DA     		bge	.L139
 2133              	.L119:
1233:Drivers/lvgl/src/core/lv_refr.c ****                 draw_buf_rotate_90(drv->rotated == LV_DISP_ROT_270, area_w, height, color_p, rot_bu
 2134              		.loc 1 1233 17 is_stmt 1 view .LVU702
ARM GAS  /var/folders/0z/tsy30v1j4xl4_7kw94k978ww0000gn/T//ccRTPM70.s 			page 73


1233:Drivers/lvgl/src/core/lv_refr.c ****                 draw_buf_rotate_90(drv->rotated == LV_DISP_ROT_270, area_w, height, color_p, rot_bu
 2135              		.loc 1 1233 19 is_stmt 0 view .LVU703
 2136 01a0 039B     		ldr	r3, [sp, #12]
 2137 01a2 002B     		cmp	r3, #0
 2138 01a4 C1D0     		beq	.L140
 2139              	.L122:
1234:Drivers/lvgl/src/core/lv_refr.c **** 
 2140              		.loc 1 1234 17 is_stmt 1 view .LVU704
1234:Drivers/lvgl/src/core/lv_refr.c **** 
 2141              		.loc 1 1234 49 is_stmt 0 view .LVU705
 2142 01a6 207C     		ldrb	r0, [r4, #16]	@ zero_extendqisi2
1234:Drivers/lvgl/src/core/lv_refr.c **** 
 2143              		.loc 1 1234 17 view .LVU706
 2144 01a8 00F03000 		and	r0, r0, #48
 2145 01ac 039B     		ldr	r3, [sp, #12]
 2146 01ae 0093     		str	r3, [sp]
 2147 01b0 5B46     		mov	r3, fp
 2148 01b2 3A46     		mov	r2, r7
 2149 01b4 0499     		ldr	r1, [sp, #16]
 2150 01b6 3028     		cmp	r0, #48
 2151 01b8 14BF     		ite	ne
 2152 01ba 0020     		movne	r0, #0
 2153 01bc 0120     		moveq	r0, #1
 2154 01be FFF7FEFF 		bl	draw_buf_rotate_90
 2155              	.LVL194:
1236:Drivers/lvgl/src/core/lv_refr.c ****                     area->x1 = init_y_off + row;
 2156              		.loc 1 1236 17 is_stmt 1 view .LVU707
1236:Drivers/lvgl/src/core/lv_refr.c ****                     area->x1 = init_y_off + row;
 2157              		.loc 1 1236 33 is_stmt 0 view .LVU708
 2158 01c2 237C     		ldrb	r3, [r4, #16]	@ zero_extendqisi2
 2159 01c4 03F03003 		and	r3, r3, #48
1236:Drivers/lvgl/src/core/lv_refr.c ****                     area->x1 = init_y_off + row;
 2160              		.loc 1 1236 19 view .LVU709
 2161 01c8 102B     		cmp	r3, #16
 2162 01ca B4D0     		beq	.L141
1241:Drivers/lvgl/src/core/lv_refr.c ****                     area->x1 = area->x2 - height + 1;
 2163              		.loc 1 1241 21 is_stmt 1 view .LVU710
1241:Drivers/lvgl/src/core/lv_refr.c ****                     area->x1 = area->x2 - height + 1;
 2164              		.loc 1 1241 35 is_stmt 0 view .LVU711
 2165 01cc 2388     		ldrh	r3, [r4]
1241:Drivers/lvgl/src/core/lv_refr.c ****                     area->x1 = area->x2 - height + 1;
 2166              		.loc 1 1241 49 view .LVU712
 2167 01ce 079A     		ldr	r2, [sp, #28]
 2168 01d0 9B1A     		subs	r3, r3, r2
 2169 01d2 9BB2     		uxth	r3, r3
1241:Drivers/lvgl/src/core/lv_refr.c ****                     area->x1 = area->x2 - height + 1;
 2170              		.loc 1 1241 62 view .LVU713
 2171 01d4 9B1B     		subs	r3, r3, r6
 2172 01d6 013B     		subs	r3, r3, #1
 2173 01d8 9AB2     		uxth	r2, r3
1241:Drivers/lvgl/src/core/lv_refr.c ****                     area->x1 = area->x2 - height + 1;
 2174              		.loc 1 1241 30 view .LVU714
 2175 01da A8F80430 		strh	r3, [r8, #4]	@ movhi
1242:Drivers/lvgl/src/core/lv_refr.c ****                 }
 2176              		.loc 1 1242 21 is_stmt 1 view .LVU715
1242:Drivers/lvgl/src/core/lv_refr.c ****                 }
 2177              		.loc 1 1242 41 is_stmt 0 view .LVU716
ARM GAS  /var/folders/0z/tsy30v1j4xl4_7kw94k978ww0000gn/T//ccRTPM70.s 			page 74


 2178 01de A2EB0903 		sub	r3, r2, r9
 2179 01e2 9BB2     		uxth	r3, r3
1242:Drivers/lvgl/src/core/lv_refr.c ****                 }
 2180              		.loc 1 1242 50 view .LVU717
 2181 01e4 0133     		adds	r3, r3, #1
1242:Drivers/lvgl/src/core/lv_refr.c ****                 }
 2182              		.loc 1 1242 30 view .LVU718
 2183 01e6 A8F80030 		strh	r3, [r8]	@ movhi
 2184              	.LVL195:
 2185              	.L121:
1248:Drivers/lvgl/src/core/lv_refr.c ****                 draw_buf->flushing_last = 1;
 2186              		.loc 1 1248 13 is_stmt 1 view .LVU719
1248:Drivers/lvgl/src/core/lv_refr.c ****                 draw_buf->flushing_last = 1;
 2187              		.loc 1 1248 20 is_stmt 0 view .LVU720
 2188 01ea B946     		mov	r9, r7
 2189 01ec 059B     		ldr	r3, [sp, #20]
 2190 01ee 3B44     		add	r3, r3, r7
1248:Drivers/lvgl/src/core/lv_refr.c ****                 draw_buf->flushing_last = 1;
 2191              		.loc 1 1248 15 view .LVU721
 2192 01f0 9A45     		cmp	r10, r3
 2193 01f2 ABDC     		bgt	.L124
1248:Drivers/lvgl/src/core/lv_refr.c ****                 draw_buf->flushing_last = 1;
 2194              		.loc 1 1248 50 discriminator 1 view .LVU722
 2195 01f4 AB69     		ldr	r3, [r5, #24]
1248:Drivers/lvgl/src/core/lv_refr.c ****                 draw_buf->flushing_last = 1;
 2196              		.loc 1 1248 39 discriminator 1 view .LVU723
 2197 01f6 13F0010F 		tst	r3, #1
 2198 01fa A7D0     		beq	.L124
1248:Drivers/lvgl/src/core/lv_refr.c ****                 draw_buf->flushing_last = 1;
 2199              		.loc 1 1248 73 discriminator 2 view .LVU724
 2200 01fc AB69     		ldr	r3, [r5, #24]
1248:Drivers/lvgl/src/core/lv_refr.c ****                 draw_buf->flushing_last = 1;
 2201              		.loc 1 1248 62 discriminator 2 view .LVU725
 2202 01fe 13F0020F 		tst	r3, #2
 2203 0202 A3D0     		beq	.L124
1249:Drivers/lvgl/src/core/lv_refr.c ****             }
 2204              		.loc 1 1249 17 is_stmt 1 view .LVU726
1249:Drivers/lvgl/src/core/lv_refr.c ****             }
 2205              		.loc 1 1249 41 is_stmt 0 view .LVU727
 2206 0204 0123     		movs	r3, #1
 2207 0206 6B61     		str	r3, [r5, #20]
 2208 0208 A2E7     		b	.L125
 2209              	.LVL196:
 2210              	.L138:
1249:Drivers/lvgl/src/core/lv_refr.c ****             }
 2211              		.loc 1 1249 41 view .LVU728
 2212              	.LBE110:
1265:Drivers/lvgl/src/core/lv_refr.c ****     }
 2213              		.loc 1 1265 9 is_stmt 1 view .LVU729
1265:Drivers/lvgl/src/core/lv_refr.c ****     }
 2214              		.loc 1 1265 11 is_stmt 0 view .LVU730
 2215 020a 039B     		ldr	r3, [sp, #12]
 2216 020c 002B     		cmp	r3, #0
 2217 020e 3FF40EAF 		beq	.L111
1265:Drivers/lvgl/src/core/lv_refr.c ****     }
 2218              		.loc 1 1265 29 is_stmt 1 discriminator 1 view .LVU731
 2219 0212 1846     		mov	r0, r3
ARM GAS  /var/folders/0z/tsy30v1j4xl4_7kw94k978ww0000gn/T//ccRTPM70.s 			page 75


 2220 0214 FFF7FEFF 		bl	lv_mem_buf_release
 2221              	.LVL197:
 2222 0218 09E7     		b	.L111
 2223              	.L143:
 2224 021a 00BF     		.align	2
 2225              	.L142:
 2226 021c 00000000 		.word	.LANCHOR0
 2227              	.LBE103:
 2228              		.cfi_endproc
 2229              	.LFE191:
 2231              		.section	.text.draw_buf_flush,"ax",%progbits
 2232              		.align	1
 2233              		.syntax unified
 2234              		.thumb
 2235              		.thumb_func
 2237              	draw_buf_flush:
 2238              	.LVL198:
 2239              	.LFB192:
1273:Drivers/lvgl/src/core/lv_refr.c ****     lv_disp_draw_buf_t * draw_buf = lv_disp_get_draw_buf(disp_refr);
 2240              		.loc 1 1273 1 view -0
 2241              		.cfi_startproc
 2242              		@ args = 0, pretend = 0, frame = 0
 2243              		@ frame_needed = 0, uses_anonymous_args = 0
1273:Drivers/lvgl/src/core/lv_refr.c ****     lv_disp_draw_buf_t * draw_buf = lv_disp_get_draw_buf(disp_refr);
 2244              		.loc 1 1273 1 is_stmt 0 view .LVU733
 2245 0000 F8B5     		push	{r3, r4, r5, r6, r7, lr}
 2246              		.cfi_def_cfa_offset 24
 2247              		.cfi_offset 3, -24
 2248              		.cfi_offset 4, -20
 2249              		.cfi_offset 5, -16
 2250              		.cfi_offset 6, -12
 2251              		.cfi_offset 7, -8
 2252              		.cfi_offset 14, -4
 2253 0002 0546     		mov	r5, r0
1274:Drivers/lvgl/src/core/lv_refr.c **** 
 2254              		.loc 1 1274 5 is_stmt 1 view .LVU734
1274:Drivers/lvgl/src/core/lv_refr.c **** 
 2255              		.loc 1 1274 37 is_stmt 0 view .LVU735
 2256 0004 2E4B     		ldr	r3, .L160
 2257 0006 1868     		ldr	r0, [r3]
 2258              	.LVL199:
1274:Drivers/lvgl/src/core/lv_refr.c **** 
 2259              		.loc 1 1274 37 view .LVU736
 2260 0008 FFF7FEFF 		bl	lv_disp_get_draw_buf
 2261              	.LVL200:
 2262 000c 0446     		mov	r4, r0
 2263              	.LVL201:
1277:Drivers/lvgl/src/core/lv_refr.c ****     if(draw_ctx->wait_for_finish) draw_ctx->wait_for_finish(draw_ctx);
 2264              		.loc 1 1277 5 is_stmt 1 view .LVU737
1277:Drivers/lvgl/src/core/lv_refr.c ****     if(draw_ctx->wait_for_finish) draw_ctx->wait_for_finish(draw_ctx);
 2265              		.loc 1 1277 36 is_stmt 0 view .LVU738
 2266 000e 2B68     		ldr	r3, [r5]
1277:Drivers/lvgl/src/core/lv_refr.c ****     if(draw_ctx->wait_for_finish) draw_ctx->wait_for_finish(draw_ctx);
 2267              		.loc 1 1277 21 view .LVU739
 2268 0010 DE6B     		ldr	r6, [r3, #60]
 2269              	.LVL202:
1278:Drivers/lvgl/src/core/lv_refr.c **** 
ARM GAS  /var/folders/0z/tsy30v1j4xl4_7kw94k978ww0000gn/T//ccRTPM70.s 			page 76


 2270              		.loc 1 1278 5 is_stmt 1 view .LVU740
1278:Drivers/lvgl/src/core/lv_refr.c **** 
 2271              		.loc 1 1278 16 is_stmt 0 view .LVU741
 2272 0012 736B     		ldr	r3, [r6, #52]
1278:Drivers/lvgl/src/core/lv_refr.c **** 
 2273              		.loc 1 1278 7 view .LVU742
 2274 0014 0BB1     		cbz	r3, .L145
1278:Drivers/lvgl/src/core/lv_refr.c **** 
 2275              		.loc 1 1278 35 is_stmt 1 discriminator 1 view .LVU743
 2276 0016 3046     		mov	r0, r6
 2277              	.LVL203:
1278:Drivers/lvgl/src/core/lv_refr.c **** 
 2278              		.loc 1 1278 35 is_stmt 0 discriminator 1 view .LVU744
 2279 0018 9847     		blx	r3
 2280              	.LVL204:
 2281              	.L145:
1282:Drivers/lvgl/src/core/lv_refr.c ****     if(draw_buf->buf1 && draw_buf->buf2 && !full_sized) {
 2282              		.loc 1 1282 5 is_stmt 1 view .LVU745
1282:Drivers/lvgl/src/core/lv_refr.c ****     if(draw_buf->buf1 && draw_buf->buf2 && !full_sized) {
 2283              		.loc 1 1282 31 is_stmt 0 view .LVU746
 2284 001a E168     		ldr	r1, [r4, #12]
1282:Drivers/lvgl/src/core/lv_refr.c ****     if(draw_buf->buf1 && draw_buf->buf2 && !full_sized) {
 2285              		.loc 1 1282 60 view .LVU747
 2286 001c 284B     		ldr	r3, .L160
 2287 001e 1B68     		ldr	r3, [r3]
 2288 0020 1A68     		ldr	r2, [r3]
1282:Drivers/lvgl/src/core/lv_refr.c ****     if(draw_buf->buf1 && draw_buf->buf2 && !full_sized) {
 2289              		.loc 1 1282 68 view .LVU748
 2290 0022 B2F90030 		ldrsh	r3, [r2]
1282:Drivers/lvgl/src/core/lv_refr.c ****     if(draw_buf->buf1 && draw_buf->buf2 && !full_sized) {
 2291              		.loc 1 1282 97 view .LVU749
 2292 0026 B2F90220 		ldrsh	r2, [r2, #2]
1282:Drivers/lvgl/src/core/lv_refr.c ****     if(draw_buf->buf1 && draw_buf->buf2 && !full_sized) {
 2293              		.loc 1 1282 78 view .LVU750
 2294 002a 02FB03F3 		mul	r3, r2, r3
 2295              	.LVL205:
1283:Drivers/lvgl/src/core/lv_refr.c ****         while(draw_buf->flushing) {
 2296              		.loc 1 1283 5 is_stmt 1 view .LVU751
1283:Drivers/lvgl/src/core/lv_refr.c ****         while(draw_buf->flushing) {
 2297              		.loc 1 1283 16 is_stmt 0 view .LVU752
 2298 002e 2268     		ldr	r2, [r4]
1283:Drivers/lvgl/src/core/lv_refr.c ****         while(draw_buf->flushing) {
 2299              		.loc 1 1283 7 view .LVU753
 2300 0030 6AB1     		cbz	r2, .L146
1283:Drivers/lvgl/src/core/lv_refr.c ****         while(draw_buf->flushing) {
 2301              		.loc 1 1283 34 discriminator 1 view .LVU754
 2302 0032 6268     		ldr	r2, [r4, #4]
1283:Drivers/lvgl/src/core/lv_refr.c ****         while(draw_buf->flushing) {
 2303              		.loc 1 1283 23 discriminator 1 view .LVU755
 2304 0034 5AB1     		cbz	r2, .L146
1283:Drivers/lvgl/src/core/lv_refr.c ****         while(draw_buf->flushing) {
 2305              		.loc 1 1283 41 discriminator 2 view .LVU756
 2306 0036 9942     		cmp	r1, r3
 2307 0038 09D0     		beq	.L146
 2308              	.LVL206:
 2309              	.L148:
1284:Drivers/lvgl/src/core/lv_refr.c ****             if(disp_refr->driver->wait_cb) disp_refr->driver->wait_cb(disp_refr->driver);
ARM GAS  /var/folders/0z/tsy30v1j4xl4_7kw94k978ww0000gn/T//ccRTPM70.s 			page 77


 2310              		.loc 1 1284 15 is_stmt 1 view .LVU757
1284:Drivers/lvgl/src/core/lv_refr.c ****             if(disp_refr->driver->wait_cb) disp_refr->driver->wait_cb(disp_refr->driver);
 2311              		.loc 1 1284 23 is_stmt 0 view .LVU758
 2312 003a 2369     		ldr	r3, [r4, #16]
1284:Drivers/lvgl/src/core/lv_refr.c ****             if(disp_refr->driver->wait_cb) disp_refr->driver->wait_cb(disp_refr->driver);
 2313              		.loc 1 1284 15 view .LVU759
 2314 003c 3BB1     		cbz	r3, .L146
1285:Drivers/lvgl/src/core/lv_refr.c ****         }
 2315              		.loc 1 1285 13 is_stmt 1 view .LVU760
1285:Drivers/lvgl/src/core/lv_refr.c ****         }
 2316              		.loc 1 1285 25 is_stmt 0 view .LVU761
 2317 003e 204B     		ldr	r3, .L160
 2318 0040 1B68     		ldr	r3, [r3]
 2319 0042 1868     		ldr	r0, [r3]
1285:Drivers/lvgl/src/core/lv_refr.c ****         }
 2320              		.loc 1 1285 33 view .LVU762
 2321 0044 836A     		ldr	r3, [r0, #40]
1285:Drivers/lvgl/src/core/lv_refr.c ****         }
 2322              		.loc 1 1285 15 view .LVU763
 2323 0046 002B     		cmp	r3, #0
 2324 0048 F7D0     		beq	.L148
1285:Drivers/lvgl/src/core/lv_refr.c ****         }
 2325              		.loc 1 1285 44 is_stmt 1 discriminator 1 view .LVU764
 2326 004a 9847     		blx	r3
 2327              	.LVL207:
 2328 004c F5E7     		b	.L148
 2329              	.L146:
1289:Drivers/lvgl/src/core/lv_refr.c **** 
 2330              		.loc 1 1289 5 view .LVU765
1289:Drivers/lvgl/src/core/lv_refr.c **** 
 2331              		.loc 1 1289 24 is_stmt 0 view .LVU766
 2332 004e 0123     		movs	r3, #1
 2333 0050 2361     		str	r3, [r4, #16]
1291:Drivers/lvgl/src/core/lv_refr.c ****     else draw_buf->flushing_last = 0;
 2334              		.loc 1 1291 5 is_stmt 1 view .LVU767
1291:Drivers/lvgl/src/core/lv_refr.c ****     else draw_buf->flushing_last = 0;
 2335              		.loc 1 1291 17 is_stmt 0 view .LVU768
 2336 0052 1B4B     		ldr	r3, .L160
 2337 0054 1B68     		ldr	r3, [r3]
 2338 0056 1B68     		ldr	r3, [r3]
1291:Drivers/lvgl/src/core/lv_refr.c ****     else draw_buf->flushing_last = 0;
 2339              		.loc 1 1291 25 view .LVU769
 2340 0058 DB68     		ldr	r3, [r3, #12]
1291:Drivers/lvgl/src/core/lv_refr.c ****     else draw_buf->flushing_last = 0;
 2341              		.loc 1 1291 35 view .LVU770
 2342 005a 9A69     		ldr	r2, [r3, #24]
1291:Drivers/lvgl/src/core/lv_refr.c ****     else draw_buf->flushing_last = 0;
 2343              		.loc 1 1291 7 view .LVU771
 2344 005c 12F0010F 		tst	r2, #1
 2345 0060 06D0     		beq	.L150
1291:Drivers/lvgl/src/core/lv_refr.c ****     else draw_buf->flushing_last = 0;
 2346              		.loc 1 1291 77 discriminator 1 view .LVU772
 2347 0062 9B69     		ldr	r3, [r3, #24]
1291:Drivers/lvgl/src/core/lv_refr.c ****     else draw_buf->flushing_last = 0;
 2348              		.loc 1 1291 47 discriminator 1 view .LVU773
 2349 0064 13F0020F 		tst	r3, #2
 2350 0068 02D0     		beq	.L150
ARM GAS  /var/folders/0z/tsy30v1j4xl4_7kw94k978ww0000gn/T//ccRTPM70.s 			page 78


1291:Drivers/lvgl/src/core/lv_refr.c ****     else draw_buf->flushing_last = 0;
 2351              		.loc 1 1291 90 is_stmt 1 discriminator 2 view .LVU774
1291:Drivers/lvgl/src/core/lv_refr.c ****     else draw_buf->flushing_last = 0;
 2352              		.loc 1 1291 114 is_stmt 0 discriminator 2 view .LVU775
 2353 006a 0123     		movs	r3, #1
 2354 006c 6361     		str	r3, [r4, #20]
 2355 006e 01E0     		b	.L151
 2356              	.L150:
1292:Drivers/lvgl/src/core/lv_refr.c **** 
 2357              		.loc 1 1292 10 is_stmt 1 view .LVU776
1292:Drivers/lvgl/src/core/lv_refr.c **** 
 2358              		.loc 1 1292 34 is_stmt 0 view .LVU777
 2359 0070 0023     		movs	r3, #0
 2360 0072 6361     		str	r3, [r4, #20]
 2361              	.L151:
1294:Drivers/lvgl/src/core/lv_refr.c **** 
 2362              		.loc 1 1294 5 is_stmt 1 view .LVU778
1294:Drivers/lvgl/src/core/lv_refr.c **** 
 2363              		.loc 1 1294 34 is_stmt 0 view .LVU779
 2364 0074 6769     		ldr	r7, [r4, #20]
 2365              	.LVL208:
1296:Drivers/lvgl/src/core/lv_refr.c ****         /*Rotate the buffer to the display's native orientation if necessary*/
 2366              		.loc 1 1296 5 is_stmt 1 view .LVU780
1296:Drivers/lvgl/src/core/lv_refr.c ****         /*Rotate the buffer to the display's native orientation if necessary*/
 2367              		.loc 1 1296 12 is_stmt 0 view .LVU781
 2368 0076 2868     		ldr	r0, [r5]
1296:Drivers/lvgl/src/core/lv_refr.c ****         /*Rotate the buffer to the display's native orientation if necessary*/
 2369              		.loc 1 1296 20 view .LVU782
 2370 0078 4369     		ldr	r3, [r0, #20]
1296:Drivers/lvgl/src/core/lv_refr.c ****         /*Rotate the buffer to the display's native orientation if necessary*/
 2371              		.loc 1 1296 7 view .LVU783
 2372 007a 53B1     		cbz	r3, .L152
1298:Drivers/lvgl/src/core/lv_refr.c ****             draw_buf_rotate(draw_ctx->buf_area, draw_ctx->buf);
 2373              		.loc 1 1298 9 is_stmt 1 view .LVU784
1298:Drivers/lvgl/src/core/lv_refr.c ****             draw_buf_rotate(draw_ctx->buf_area, draw_ctx->buf);
 2374              		.loc 1 1298 34 is_stmt 0 view .LVU785
 2375 007c 037C     		ldrb	r3, [r0, #16]	@ zero_extendqisi2
1298:Drivers/lvgl/src/core/lv_refr.c ****             draw_buf_rotate(draw_ctx->buf_area, draw_ctx->buf);
 2376              		.loc 1 1298 11 view .LVU786
 2377 007e 13F0300F 		tst	r3, #48
 2378 0082 02D0     		beq	.L153
1298:Drivers/lvgl/src/core/lv_refr.c ****             draw_buf_rotate(draw_ctx->buf_area, draw_ctx->buf);
 2379              		.loc 1 1298 54 discriminator 1 view .LVU787
 2380 0084 13F0040F 		tst	r3, #4
 2381 0088 12D1     		bne	.L158
 2382              	.L153:
1302:Drivers/lvgl/src/core/lv_refr.c ****         }
 2383              		.loc 1 1302 13 is_stmt 1 view .LVU788
 2384 008a 3268     		ldr	r2, [r6]
 2385 008c 7168     		ldr	r1, [r6, #4]
 2386 008e FFF7FEFF 		bl	call_flush_cb
 2387              	.LVL209:
 2388              	.L152:
1307:Drivers/lvgl/src/core/lv_refr.c ****         if(draw_buf->buf_act == draw_buf->buf1)
 2389              		.loc 1 1307 5 view .LVU789
1307:Drivers/lvgl/src/core/lv_refr.c ****         if(draw_buf->buf_act == draw_buf->buf1)
 2390              		.loc 1 1307 16 is_stmt 0 view .LVU790
ARM GAS  /var/folders/0z/tsy30v1j4xl4_7kw94k978ww0000gn/T//ccRTPM70.s 			page 79


 2391 0092 2368     		ldr	r3, [r4]
1307:Drivers/lvgl/src/core/lv_refr.c ****         if(draw_buf->buf_act == draw_buf->buf1)
 2392              		.loc 1 1307 7 view .LVU791
 2393 0094 5BB1     		cbz	r3, .L144
1307:Drivers/lvgl/src/core/lv_refr.c ****         if(draw_buf->buf_act == draw_buf->buf1)
 2394              		.loc 1 1307 34 discriminator 1 view .LVU792
 2395 0096 6268     		ldr	r2, [r4, #4]
1307:Drivers/lvgl/src/core/lv_refr.c ****         if(draw_buf->buf_act == draw_buf->buf1)
 2396              		.loc 1 1307 23 discriminator 1 view .LVU793
 2397 0098 4AB1     		cbz	r2, .L144
1307:Drivers/lvgl/src/core/lv_refr.c ****         if(draw_buf->buf_act == draw_buf->buf1)
 2398              		.loc 1 1307 50 discriminator 2 view .LVU794
 2399 009a 2968     		ldr	r1, [r5]
1307:Drivers/lvgl/src/core/lv_refr.c ****         if(draw_buf->buf_act == draw_buf->buf1)
 2400              		.loc 1 1307 45 discriminator 2 view .LVU795
 2401 009c 097C     		ldrb	r1, [r1, #16]	@ zero_extendqisi2
1307:Drivers/lvgl/src/core/lv_refr.c ****         if(draw_buf->buf_act == draw_buf->buf1)
 2402              		.loc 1 1307 41 discriminator 2 view .LVU796
 2403 009e 11F0010F 		tst	r1, #1
 2404 00a2 00D0     		beq	.L155
1307:Drivers/lvgl/src/core/lv_refr.c ****         if(draw_buf->buf_act == draw_buf->buf1)
 2405              		.loc 1 1307 72 discriminator 3 view .LVU797
 2406 00a4 1FB1     		cbz	r7, .L144
 2407              	.L155:
1308:Drivers/lvgl/src/core/lv_refr.c ****             draw_buf->buf_act = draw_buf->buf2;
 2408              		.loc 1 1308 9 is_stmt 1 view .LVU798
1308:Drivers/lvgl/src/core/lv_refr.c ****             draw_buf->buf_act = draw_buf->buf2;
 2409              		.loc 1 1308 20 is_stmt 0 view .LVU799
 2410 00a6 A168     		ldr	r1, [r4, #8]
1308:Drivers/lvgl/src/core/lv_refr.c ****             draw_buf->buf_act = draw_buf->buf2;
 2411              		.loc 1 1308 11 view .LVU800
 2412 00a8 8B42     		cmp	r3, r1
 2413 00aa 06D0     		beq	.L159
1311:Drivers/lvgl/src/core/lv_refr.c ****     }
 2414              		.loc 1 1311 13 is_stmt 1 view .LVU801
1311:Drivers/lvgl/src/core/lv_refr.c ****     }
 2415              		.loc 1 1311 31 is_stmt 0 view .LVU802
 2416 00ac A360     		str	r3, [r4, #8]
 2417              	.L144:
1313:Drivers/lvgl/src/core/lv_refr.c **** 
 2418              		.loc 1 1313 1 view .LVU803
 2419 00ae F8BD     		pop	{r3, r4, r5, r6, r7, pc}
 2420              	.LVL210:
 2421              	.L158:
1299:Drivers/lvgl/src/core/lv_refr.c ****         }
 2422              		.loc 1 1299 13 is_stmt 1 view .LVU804
 2423 00b0 3168     		ldr	r1, [r6]
 2424 00b2 7068     		ldr	r0, [r6, #4]
 2425 00b4 FFF7FEFF 		bl	draw_buf_rotate
 2426              	.LVL211:
 2427 00b8 EBE7     		b	.L152
 2428              	.L159:
1309:Drivers/lvgl/src/core/lv_refr.c ****         else
 2429              		.loc 1 1309 13 view .LVU805
1309:Drivers/lvgl/src/core/lv_refr.c ****         else
 2430              		.loc 1 1309 31 is_stmt 0 view .LVU806
 2431 00ba A260     		str	r2, [r4, #8]
ARM GAS  /var/folders/0z/tsy30v1j4xl4_7kw94k978ww0000gn/T//ccRTPM70.s 			page 80


 2432 00bc F7E7     		b	.L144
 2433              	.L161:
 2434 00be 00BF     		.align	2
 2435              	.L160:
 2436 00c0 00000000 		.word	.LANCHOR0
 2437              		.cfi_endproc
 2438              	.LFE192:
 2440              		.section	.text._lv_refr_init,"ax",%progbits
 2441              		.align	1
 2442              		.global	_lv_refr_init
 2443              		.syntax unified
 2444              		.thumb
 2445              		.thumb_func
 2447              	_lv_refr_init:
 2448              	.LFB167:
 104:Drivers/lvgl/src/core/lv_refr.c **** #if LV_USE_PERF_MONITOR
 2449              		.loc 1 104 1 is_stmt 1 view -0
 2450              		.cfi_startproc
 2451              		@ args = 0, pretend = 0, frame = 0
 2452              		@ frame_needed = 0, uses_anonymous_args = 0
 2453 0000 08B5     		push	{r3, lr}
 2454              		.cfi_def_cfa_offset 8
 2455              		.cfi_offset 3, -8
 2456              		.cfi_offset 14, -4
 106:Drivers/lvgl/src/core/lv_refr.c **** #endif
 2457              		.loc 1 106 5 view .LVU808
 2458 0002 0348     		ldr	r0, .L164
 2459 0004 FFF7FEFF 		bl	perf_monitor_init
 2460              	.LVL212:
 109:Drivers/lvgl/src/core/lv_refr.c **** #endif
 2461              		.loc 1 109 5 view .LVU809
 2462 0008 0248     		ldr	r0, .L164+4
 2463 000a FFF7FEFF 		bl	mem_monitor_init
 2464              	.LVL213:
 111:Drivers/lvgl/src/core/lv_refr.c **** 
 2465              		.loc 1 111 1 is_stmt 0 view .LVU810
 2466 000e 08BD     		pop	{r3, pc}
 2467              	.L165:
 2468              		.align	2
 2469              	.L164:
 2470 0010 00000000 		.word	.LANCHOR1
 2471 0014 00000000 		.word	.LANCHOR2
 2472              		.cfi_endproc
 2473              	.LFE167:
 2475              		.section	.text.lv_obj_redraw,"ax",%progbits
 2476              		.align	1
 2477              		.global	lv_obj_redraw
 2478              		.syntax unified
 2479              		.thumb
 2480              		.thumb_func
 2482              	lv_obj_redraw:
 2483              	.LVL214:
 2484              	.LFB169:
 131:Drivers/lvgl/src/core/lv_refr.c ****     const lv_area_t * clip_area_ori = draw_ctx->clip_area;
 2485              		.loc 1 131 1 is_stmt 1 view -0
 2486              		.cfi_startproc
 2487              		@ args = 0, pretend = 0, frame = 24
ARM GAS  /var/folders/0z/tsy30v1j4xl4_7kw94k978ww0000gn/T//ccRTPM70.s 			page 81


 2488              		@ frame_needed = 0, uses_anonymous_args = 0
 131:Drivers/lvgl/src/core/lv_refr.c ****     const lv_area_t * clip_area_ori = draw_ctx->clip_area;
 2489              		.loc 1 131 1 is_stmt 0 view .LVU812
 2490 0000 2DE9F043 		push	{r4, r5, r6, r7, r8, r9, lr}
 2491              		.cfi_def_cfa_offset 28
 2492              		.cfi_offset 4, -28
 2493              		.cfi_offset 5, -24
 2494              		.cfi_offset 6, -20
 2495              		.cfi_offset 7, -16
 2496              		.cfi_offset 8, -12
 2497              		.cfi_offset 9, -8
 2498              		.cfi_offset 14, -4
 2499 0004 87B0     		sub	sp, sp, #28
 2500              		.cfi_def_cfa_offset 56
 2501 0006 0646     		mov	r6, r0
 2502 0008 0D46     		mov	r5, r1
 132:Drivers/lvgl/src/core/lv_refr.c ****     lv_area_t clip_coords_for_obj;
 2503              		.loc 1 132 5 is_stmt 1 view .LVU813
 132:Drivers/lvgl/src/core/lv_refr.c ****     lv_area_t clip_coords_for_obj;
 2504              		.loc 1 132 23 is_stmt 0 view .LVU814
 2505 000a D0F80880 		ldr	r8, [r0, #8]
 2506              	.LVL215:
 133:Drivers/lvgl/src/core/lv_refr.c **** 
 2507              		.loc 1 133 5 is_stmt 1 view .LVU815
 136:Drivers/lvgl/src/core/lv_refr.c ****     lv_obj_get_coords(obj, &obj_coords_ext);
 2508              		.loc 1 136 5 view .LVU816
 137:Drivers/lvgl/src/core/lv_refr.c ****     lv_coord_t ext_draw_size = _lv_obj_get_ext_draw_size(obj);
 2509              		.loc 1 137 5 view .LVU817
 2510 000e 02A9     		add	r1, sp, #8
 2511              	.LVL216:
 137:Drivers/lvgl/src/core/lv_refr.c ****     lv_coord_t ext_draw_size = _lv_obj_get_ext_draw_size(obj);
 2512              		.loc 1 137 5 is_stmt 0 view .LVU818
 2513 0010 2846     		mov	r0, r5
 2514              	.LVL217:
 137:Drivers/lvgl/src/core/lv_refr.c ****     lv_coord_t ext_draw_size = _lv_obj_get_ext_draw_size(obj);
 2515              		.loc 1 137 5 view .LVU819
 2516 0012 FFF7FEFF 		bl	lv_obj_get_coords
 2517              	.LVL218:
 138:Drivers/lvgl/src/core/lv_refr.c ****     lv_area_increase(&obj_coords_ext, ext_draw_size, ext_draw_size);
 2518              		.loc 1 138 5 is_stmt 1 view .LVU820
 138:Drivers/lvgl/src/core/lv_refr.c ****     lv_area_increase(&obj_coords_ext, ext_draw_size, ext_draw_size);
 2519              		.loc 1 138 32 is_stmt 0 view .LVU821
 2520 0016 2846     		mov	r0, r5
 2521 0018 FFF7FEFF 		bl	_lv_obj_get_ext_draw_size
 2522              	.LVL219:
 2523 001c 0146     		mov	r1, r0
 2524              	.LVL220:
 139:Drivers/lvgl/src/core/lv_refr.c ****     bool com_clip_res = _lv_area_intersect(&clip_coords_for_obj, clip_area_ori, &obj_coords_ext);
 2525              		.loc 1 139 5 is_stmt 1 view .LVU822
 2526 001e 0246     		mov	r2, r0
 2527 0020 02A8     		add	r0, sp, #8
 2528              	.LVL221:
 139:Drivers/lvgl/src/core/lv_refr.c ****     bool com_clip_res = _lv_area_intersect(&clip_coords_for_obj, clip_area_ori, &obj_coords_ext);
 2529              		.loc 1 139 5 is_stmt 0 view .LVU823
 2530 0022 FFF7FEFF 		bl	lv_area_increase
 2531              	.LVL222:
 140:Drivers/lvgl/src/core/lv_refr.c ****     /*If the object is visible on the current clip area OR has overflow visible draw it.
ARM GAS  /var/folders/0z/tsy30v1j4xl4_7kw94k978ww0000gn/T//ccRTPM70.s 			page 82


 2532              		.loc 1 140 5 is_stmt 1 view .LVU824
 140:Drivers/lvgl/src/core/lv_refr.c ****     /*If the object is visible on the current clip area OR has overflow visible draw it.
 2533              		.loc 1 140 25 is_stmt 0 view .LVU825
 2534 0026 02AA     		add	r2, sp, #8
 2535 0028 4146     		mov	r1, r8
 2536 002a 04A8     		add	r0, sp, #16
 2537 002c FFF7FEFF 		bl	_lv_area_intersect
 2538              	.LVL223:
 143:Drivers/lvgl/src/core/lv_refr.c ****     if(should_draw) {
 2539              		.loc 1 143 5 is_stmt 1 view .LVU826
 143:Drivers/lvgl/src/core/lv_refr.c ****     if(should_draw) {
 2540              		.loc 1 143 37 is_stmt 0 view .LVU827
 2541 0030 B0B1     		cbz	r0, .L178
 2542 0032 0123     		movs	r3, #1
 2543              	.LVL224:
 2544              	.L167:
 144:Drivers/lvgl/src/core/lv_refr.c ****         draw_ctx->clip_area = &clip_coords_for_obj;
 2545              		.loc 1 144 5 is_stmt 1 discriminator 6 view .LVU828
 144:Drivers/lvgl/src/core/lv_refr.c ****         draw_ctx->clip_area = &clip_coords_for_obj;
 2546              		.loc 1 144 7 is_stmt 0 discriminator 6 view .LVU829
 2547 0034 9946     		mov	r9, r3
 2548 0036 EBB9     		cbnz	r3, .L179
 2549              	.LVL225:
 2550              	.L168:
 165:Drivers/lvgl/src/core/lv_refr.c ****     bool refr_children = true;
 2551              		.loc 1 165 5 is_stmt 1 view .LVU830
 166:Drivers/lvgl/src/core/lv_refr.c ****     if(lv_obj_has_flag(obj, LV_OBJ_FLAG_OVERFLOW_VISIBLE)) {
 2552              		.loc 1 166 5 view .LVU831
 167:Drivers/lvgl/src/core/lv_refr.c ****         clip_coords_for_children  = *clip_area_ori;
 2553              		.loc 1 167 5 view .LVU832
 167:Drivers/lvgl/src/core/lv_refr.c ****         clip_coords_for_children  = *clip_area_ori;
 2554              		.loc 1 167 8 is_stmt 0 view .LVU833
 2555 0038 4FF40021 		mov	r1, #524288
 2556 003c 2846     		mov	r0, r5
 2557 003e FFF7FEFF 		bl	lv_obj_has_flag
 2558              	.LVL226:
 167:Drivers/lvgl/src/core/lv_refr.c ****         clip_coords_for_children  = *clip_area_ori;
 2559              		.loc 1 167 7 view .LVU834
 2560 0042 48B3     		cbz	r0, .L169
 168:Drivers/lvgl/src/core/lv_refr.c ****     }
 2561              		.loc 1 168 9 is_stmt 1 view .LVU835
 168:Drivers/lvgl/src/core/lv_refr.c ****     }
 2562              		.loc 1 168 35 is_stmt 0 view .LVU836
 2563 0044 6B46     		mov	r3, sp
 2564 0046 D8F80000 		ldr	r0, [r8]	@ unaligned
 2565 004a D8F80410 		ldr	r1, [r8, #4]	@ unaligned
 2566 004e 03C3     		stmia	r3!, {r0, r1}
 176:Drivers/lvgl/src/core/lv_refr.c ****         draw_ctx->clip_area = &clip_coords_for_children;
 2567              		.loc 1 176 5 is_stmt 1 view .LVU837
 2568              	.L170:
 2569              	.LVL227:
 2570              	.LBB111:
 177:Drivers/lvgl/src/core/lv_refr.c ****         uint32_t i;
 2571              		.loc 1 177 9 view .LVU838
 177:Drivers/lvgl/src/core/lv_refr.c ****         uint32_t i;
 2572              		.loc 1 177 29 is_stmt 0 view .LVU839
 2573 0050 C6F808D0 		str	sp, [r6, #8]
ARM GAS  /var/folders/0z/tsy30v1j4xl4_7kw94k978ww0000gn/T//ccRTPM70.s 			page 83


 178:Drivers/lvgl/src/core/lv_refr.c ****         uint32_t child_cnt = lv_obj_get_child_cnt(obj);
 2574              		.loc 1 178 9 is_stmt 1 view .LVU840
 179:Drivers/lvgl/src/core/lv_refr.c ****         for(i = 0; i < child_cnt; i++) {
 2575              		.loc 1 179 9 view .LVU841
 179:Drivers/lvgl/src/core/lv_refr.c ****         for(i = 0; i < child_cnt; i++) {
 2576              		.loc 1 179 30 is_stmt 0 view .LVU842
 2577 0054 2846     		mov	r0, r5
 2578 0056 FFF7FEFF 		bl	lv_obj_get_child_cnt
 2579              	.LVL228:
 2580 005a 0746     		mov	r7, r0
 2581              	.LVL229:
 180:Drivers/lvgl/src/core/lv_refr.c ****             lv_obj_t * child = obj->spec_attr->children[i];
 2582              		.loc 1 180 9 is_stmt 1 view .LVU843
 180:Drivers/lvgl/src/core/lv_refr.c ****             lv_obj_t * child = obj->spec_attr->children[i];
 2583              		.loc 1 180 15 is_stmt 0 view .LVU844
 2584 005c 0024     		movs	r4, #0
 180:Drivers/lvgl/src/core/lv_refr.c ****             lv_obj_t * child = obj->spec_attr->children[i];
 2585              		.loc 1 180 9 view .LVU845
 2586 005e 2BE0     		b	.L172
 2587              	.LVL230:
 2588              	.L178:
 180:Drivers/lvgl/src/core/lv_refr.c ****             lv_obj_t * child = obj->spec_attr->children[i];
 2589              		.loc 1 180 9 view .LVU846
 2590              	.LBE111:
 143:Drivers/lvgl/src/core/lv_refr.c ****     if(should_draw) {
 2591              		.loc 1 143 40 discriminator 2 view .LVU847
 2592 0060 4FF40021 		mov	r1, #524288
 2593 0064 2846     		mov	r0, r5
 2594              	.LVL231:
 143:Drivers/lvgl/src/core/lv_refr.c ****     if(should_draw) {
 2595              		.loc 1 143 40 discriminator 2 view .LVU848
 2596 0066 FFF7FEFF 		bl	lv_obj_has_flag
 2597              	.LVL232:
 143:Drivers/lvgl/src/core/lv_refr.c ****     if(should_draw) {
 2598              		.loc 1 143 37 discriminator 2 view .LVU849
 2599 006a 08B9     		cbnz	r0, .L176
 143:Drivers/lvgl/src/core/lv_refr.c ****     if(should_draw) {
 2600              		.loc 1 143 37 view .LVU850
 2601 006c 0023     		movs	r3, #0
 2602 006e E1E7     		b	.L167
 2603              	.L176:
 2604 0070 0123     		movs	r3, #1
 2605 0072 DFE7     		b	.L167
 2606              	.LVL233:
 2607              	.L179:
 145:Drivers/lvgl/src/core/lv_refr.c **** 
 2608              		.loc 1 145 9 is_stmt 1 view .LVU851
 145:Drivers/lvgl/src/core/lv_refr.c **** 
 2609              		.loc 1 145 29 is_stmt 0 view .LVU852
 2610 0074 04AB     		add	r3, sp, #16
 2611              	.LVL234:
 145:Drivers/lvgl/src/core/lv_refr.c **** 
 2612              		.loc 1 145 29 view .LVU853
 2613 0076 B360     		str	r3, [r6, #8]
 147:Drivers/lvgl/src/core/lv_refr.c ****         lv_event_send(obj, LV_EVENT_DRAW_MAIN, draw_ctx);
 2614              		.loc 1 147 9 is_stmt 1 view .LVU854
 2615 0078 3246     		mov	r2, r6
ARM GAS  /var/folders/0z/tsy30v1j4xl4_7kw94k978ww0000gn/T//ccRTPM70.s 			page 84


 2616 007a 1421     		movs	r1, #20
 2617 007c 2846     		mov	r0, r5
 2618 007e FFF7FEFF 		bl	lv_event_send
 2619              	.LVL235:
 148:Drivers/lvgl/src/core/lv_refr.c ****         lv_event_send(obj, LV_EVENT_DRAW_MAIN_END, draw_ctx);
 2620              		.loc 1 148 9 view .LVU855
 2621 0082 3246     		mov	r2, r6
 2622 0084 1521     		movs	r1, #21
 2623 0086 2846     		mov	r0, r5
 2624 0088 FFF7FEFF 		bl	lv_event_send
 2625              	.LVL236:
 149:Drivers/lvgl/src/core/lv_refr.c **** #if LV_USE_REFR_DEBUG
 2626              		.loc 1 149 9 view .LVU856
 2627 008c 3246     		mov	r2, r6
 2628 008e 1621     		movs	r1, #22
 2629 0090 2846     		mov	r0, r5
 2630 0092 FFF7FEFF 		bl	lv_event_send
 2631              	.LVL237:
 2632 0096 CFE7     		b	.L168
 2633              	.LVL238:
 2634              	.L169:
 171:Drivers/lvgl/src/core/lv_refr.c ****             refr_children = false;
 2635              		.loc 1 171 9 view .LVU857
 171:Drivers/lvgl/src/core/lv_refr.c ****             refr_children = false;
 2636              		.loc 1 171 13 is_stmt 0 view .LVU858
 2637 0098 05F11402 		add	r2, r5, #20
 2638 009c 4146     		mov	r1, r8
 2639 009e 6846     		mov	r0, sp
 2640 00a0 FFF7FEFF 		bl	_lv_area_intersect
 2641              	.LVL239:
 171:Drivers/lvgl/src/core/lv_refr.c ****             refr_children = false;
 2642              		.loc 1 171 11 view .LVU859
 2643 00a4 50B1     		cbz	r0, .L171
 2644 00a6 D3E7     		b	.L170
 2645              	.LVL240:
 2646              	.L173:
 2647              	.LBB113:
 2648              	.LBB112:
 181:Drivers/lvgl/src/core/lv_refr.c ****             refr_obj(draw_ctx, child);
 2649              		.loc 1 181 13 is_stmt 1 discriminator 3 view .LVU860
 181:Drivers/lvgl/src/core/lv_refr.c ****             refr_obj(draw_ctx, child);
 2650              		.loc 1 181 35 is_stmt 0 discriminator 3 view .LVU861
 2651 00a8 AB68     		ldr	r3, [r5, #8]
 181:Drivers/lvgl/src/core/lv_refr.c ****             refr_obj(draw_ctx, child);
 2652              		.loc 1 181 46 discriminator 3 view .LVU862
 2653 00aa 1B68     		ldr	r3, [r3]
 2654              	.LVL241:
 182:Drivers/lvgl/src/core/lv_refr.c ****         }
 2655              		.loc 1 182 13 is_stmt 1 discriminator 3 view .LVU863
 2656 00ac 53F82410 		ldr	r1, [r3, r4, lsl #2]
 2657 00b0 3046     		mov	r0, r6
 2658 00b2 FFF7FEFF 		bl	refr_obj
 2659              	.LVL242:
 182:Drivers/lvgl/src/core/lv_refr.c ****         }
 2660              		.loc 1 182 13 is_stmt 0 discriminator 3 view .LVU864
 2661              	.LBE112:
 180:Drivers/lvgl/src/core/lv_refr.c ****             lv_obj_t * child = obj->spec_attr->children[i];
ARM GAS  /var/folders/0z/tsy30v1j4xl4_7kw94k978ww0000gn/T//ccRTPM70.s 			page 85


 2662              		.loc 1 180 36 is_stmt 1 discriminator 3 view .LVU865
 2663 00b6 0134     		adds	r4, r4, #1
 2664              	.LVL243:
 2665              	.L172:
 180:Drivers/lvgl/src/core/lv_refr.c ****             lv_obj_t * child = obj->spec_attr->children[i];
 2666              		.loc 1 180 22 discriminator 1 view .LVU866
 2667 00b8 BC42     		cmp	r4, r7
 2668 00ba F5D3     		bcc	.L173
 2669              	.LVL244:
 2670              	.L171:
 180:Drivers/lvgl/src/core/lv_refr.c ****             lv_obj_t * child = obj->spec_attr->children[i];
 2671              		.loc 1 180 22 is_stmt 0 discriminator 1 view .LVU867
 2672              	.LBE113:
 187:Drivers/lvgl/src/core/lv_refr.c ****         draw_ctx->clip_area = &clip_coords_for_obj;
 2673              		.loc 1 187 5 is_stmt 1 view .LVU868
 187:Drivers/lvgl/src/core/lv_refr.c ****         draw_ctx->clip_area = &clip_coords_for_obj;
 2674              		.loc 1 187 7 is_stmt 0 view .LVU869
 2675 00bc B9F1000F 		cmp	r9, #0
 2676 00c0 04D1     		bne	.L180
 2677              	.L174:
 196:Drivers/lvgl/src/core/lv_refr.c **** }
 2678              		.loc 1 196 5 is_stmt 1 view .LVU870
 196:Drivers/lvgl/src/core/lv_refr.c **** }
 2679              		.loc 1 196 25 is_stmt 0 view .LVU871
 2680 00c2 C6F80880 		str	r8, [r6, #8]
 197:Drivers/lvgl/src/core/lv_refr.c **** 
 2681              		.loc 1 197 1 view .LVU872
 2682 00c6 07B0     		add	sp, sp, #28
 2683              		.cfi_remember_state
 2684              		.cfi_def_cfa_offset 28
 2685              		@ sp needed
 2686 00c8 BDE8F083 		pop	{r4, r5, r6, r7, r8, r9, pc}
 2687              	.LVL245:
 2688              	.L180:
 2689              		.cfi_restore_state
 188:Drivers/lvgl/src/core/lv_refr.c **** 
 2690              		.loc 1 188 9 is_stmt 1 view .LVU873
 188:Drivers/lvgl/src/core/lv_refr.c **** 
 2691              		.loc 1 188 29 is_stmt 0 view .LVU874
 2692 00cc 04AB     		add	r3, sp, #16
 2693 00ce B360     		str	r3, [r6, #8]
 191:Drivers/lvgl/src/core/lv_refr.c ****         lv_event_send(obj, LV_EVENT_DRAW_POST, draw_ctx);
 2694              		.loc 1 191 9 is_stmt 1 view .LVU875
 2695 00d0 3246     		mov	r2, r6
 2696 00d2 1721     		movs	r1, #23
 2697 00d4 2846     		mov	r0, r5
 2698 00d6 FFF7FEFF 		bl	lv_event_send
 2699              	.LVL246:
 192:Drivers/lvgl/src/core/lv_refr.c ****         lv_event_send(obj, LV_EVENT_DRAW_POST_END, draw_ctx);
 2700              		.loc 1 192 9 view .LVU876
 2701 00da 3246     		mov	r2, r6
 2702 00dc 1821     		movs	r1, #24
 2703 00de 2846     		mov	r0, r5
 2704 00e0 FFF7FEFF 		bl	lv_event_send
 2705              	.LVL247:
 193:Drivers/lvgl/src/core/lv_refr.c ****     }
 2706              		.loc 1 193 9 view .LVU877
ARM GAS  /var/folders/0z/tsy30v1j4xl4_7kw94k978ww0000gn/T//ccRTPM70.s 			page 86


 2707 00e4 3246     		mov	r2, r6
 2708 00e6 1921     		movs	r1, #25
 2709 00e8 2846     		mov	r0, r5
 2710 00ea FFF7FEFF 		bl	lv_event_send
 2711              	.LVL248:
 2712 00ee E8E7     		b	.L174
 2713              		.cfi_endproc
 2714              	.LFE169:
 2716              		.section	.text.refr_obj,"ax",%progbits
 2717              		.align	1
 2718              		.syntax unified
 2719              		.thumb
 2720              		.thumb_func
 2722              	refr_obj:
 2723              	.LVL249:
 2724              	.LFB185:
 969:Drivers/lvgl/src/core/lv_refr.c ****     /*Do not refresh hidden objects*/
 2725              		.loc 1 969 1 view -0
 2726              		.cfi_startproc
 2727              		@ args = 0, pretend = 0, frame = 40
 2728              		@ frame_needed = 0, uses_anonymous_args = 0
 969:Drivers/lvgl/src/core/lv_refr.c ****     /*Do not refresh hidden objects*/
 2729              		.loc 1 969 1 is_stmt 0 view .LVU879
 2730 0000 2DE9F043 		push	{r4, r5, r6, r7, r8, r9, lr}
 2731              		.cfi_def_cfa_offset 28
 2732              		.cfi_offset 4, -28
 2733              		.cfi_offset 5, -24
 2734              		.cfi_offset 6, -20
 2735              		.cfi_offset 7, -16
 2736              		.cfi_offset 8, -12
 2737              		.cfi_offset 9, -8
 2738              		.cfi_offset 14, -4
 2739 0004 8BB0     		sub	sp, sp, #44
 2740              		.cfi_def_cfa_offset 72
 2741 0006 0546     		mov	r5, r0
 2742 0008 0C46     		mov	r4, r1
 971:Drivers/lvgl/src/core/lv_refr.c ****     lv_layer_type_t layer_type = _lv_obj_get_layer_type(obj);
 2743              		.loc 1 971 5 is_stmt 1 view .LVU880
 971:Drivers/lvgl/src/core/lv_refr.c ****     lv_layer_type_t layer_type = _lv_obj_get_layer_type(obj);
 2744              		.loc 1 971 8 is_stmt 0 view .LVU881
 2745 000a 0121     		movs	r1, #1
 2746              	.LVL250:
 971:Drivers/lvgl/src/core/lv_refr.c ****     lv_layer_type_t layer_type = _lv_obj_get_layer_type(obj);
 2747              		.loc 1 971 8 view .LVU882
 2748 000c 2046     		mov	r0, r4
 2749              	.LVL251:
 971:Drivers/lvgl/src/core/lv_refr.c ****     lv_layer_type_t layer_type = _lv_obj_get_layer_type(obj);
 2750              		.loc 1 971 8 view .LVU883
 2751 000e FFF7FEFF 		bl	lv_obj_has_flag
 2752              	.LVL252:
 971:Drivers/lvgl/src/core/lv_refr.c ****     lv_layer_type_t layer_type = _lv_obj_get_layer_type(obj);
 2753              		.loc 1 971 7 view .LVU884
 2754 0012 10B1     		cbz	r0, .L202
 2755              	.L181:
1051:Drivers/lvgl/src/core/lv_refr.c **** 
 2756              		.loc 1 1051 1 view .LVU885
 2757 0014 0BB0     		add	sp, sp, #44
ARM GAS  /var/folders/0z/tsy30v1j4xl4_7kw94k978ww0000gn/T//ccRTPM70.s 			page 87


 2758              		.cfi_remember_state
 2759              		.cfi_def_cfa_offset 28
 2760              		@ sp needed
 2761 0016 BDE8F083 		pop	{r4, r5, r6, r7, r8, r9, pc}
 2762              	.LVL253:
 2763              	.L202:
 2764              		.cfi_restore_state
 972:Drivers/lvgl/src/core/lv_refr.c ****     if(layer_type == LV_LAYER_TYPE_NONE) {
 2765              		.loc 1 972 5 is_stmt 1 view .LVU886
 972:Drivers/lvgl/src/core/lv_refr.c ****     if(layer_type == LV_LAYER_TYPE_NONE) {
 2766              		.loc 1 972 34 is_stmt 0 view .LVU887
 2767 001a 2046     		mov	r0, r4
 2768 001c FFF7FEFF 		bl	_lv_obj_get_layer_type
 2769              	.LVL254:
 973:Drivers/lvgl/src/core/lv_refr.c ****         lv_obj_redraw(draw_ctx, obj);
 2770              		.loc 1 973 5 is_stmt 1 view .LVU888
 973:Drivers/lvgl/src/core/lv_refr.c ****         lv_obj_redraw(draw_ctx, obj);
 2771              		.loc 1 973 7 is_stmt 0 view .LVU889
 2772 0020 0646     		mov	r6, r0
 2773 0022 20B9     		cbnz	r0, .L183
 974:Drivers/lvgl/src/core/lv_refr.c ****     }
 2774              		.loc 1 974 9 is_stmt 1 view .LVU890
 2775 0024 2146     		mov	r1, r4
 2776 0026 2846     		mov	r0, r5
 2777              	.LVL255:
 974:Drivers/lvgl/src/core/lv_refr.c ****     }
 2778              		.loc 1 974 9 is_stmt 0 view .LVU891
 2779 0028 FFF7FEFF 		bl	lv_obj_redraw
 2780              	.LVL256:
 2781 002c F2E7     		b	.L181
 2782              	.LVL257:
 2783              	.L183:
 2784              	.LBB114:
 977:Drivers/lvgl/src/core/lv_refr.c ****         if(opa < LV_OPA_MIN) return;
 2785              		.loc 1 977 9 is_stmt 1 view .LVU892
 2786              	.LBB115:
 2787              	.LBI115:
 2788              		.file 3 "Drivers/lvgl/src/core/lv_obj_style_gen.h"
   1:Drivers/lvgl/src/core/lv_obj_style_gen.h **** static inline lv_coord_t lv_obj_get_style_width(const struct _lv_obj_t * obj, uint32_t part)
   2:Drivers/lvgl/src/core/lv_obj_style_gen.h **** {
   3:Drivers/lvgl/src/core/lv_obj_style_gen.h ****     lv_style_value_t v = lv_obj_get_style_prop(obj, part, LV_STYLE_WIDTH);
   4:Drivers/lvgl/src/core/lv_obj_style_gen.h ****     return (lv_coord_t)v.num;
   5:Drivers/lvgl/src/core/lv_obj_style_gen.h **** }
   6:Drivers/lvgl/src/core/lv_obj_style_gen.h **** 
   7:Drivers/lvgl/src/core/lv_obj_style_gen.h **** static inline lv_coord_t lv_obj_get_style_min_width(const struct _lv_obj_t * obj, uint32_t part)
   8:Drivers/lvgl/src/core/lv_obj_style_gen.h **** {
   9:Drivers/lvgl/src/core/lv_obj_style_gen.h ****     lv_style_value_t v = lv_obj_get_style_prop(obj, part, LV_STYLE_MIN_WIDTH);
  10:Drivers/lvgl/src/core/lv_obj_style_gen.h ****     return (lv_coord_t)v.num;
  11:Drivers/lvgl/src/core/lv_obj_style_gen.h **** }
  12:Drivers/lvgl/src/core/lv_obj_style_gen.h **** 
  13:Drivers/lvgl/src/core/lv_obj_style_gen.h **** static inline lv_coord_t lv_obj_get_style_max_width(const struct _lv_obj_t * obj, uint32_t part)
  14:Drivers/lvgl/src/core/lv_obj_style_gen.h **** {
  15:Drivers/lvgl/src/core/lv_obj_style_gen.h ****     lv_style_value_t v = lv_obj_get_style_prop(obj, part, LV_STYLE_MAX_WIDTH);
  16:Drivers/lvgl/src/core/lv_obj_style_gen.h ****     return (lv_coord_t)v.num;
  17:Drivers/lvgl/src/core/lv_obj_style_gen.h **** }
  18:Drivers/lvgl/src/core/lv_obj_style_gen.h **** 
  19:Drivers/lvgl/src/core/lv_obj_style_gen.h **** static inline lv_coord_t lv_obj_get_style_height(const struct _lv_obj_t * obj, uint32_t part)
ARM GAS  /var/folders/0z/tsy30v1j4xl4_7kw94k978ww0000gn/T//ccRTPM70.s 			page 88


  20:Drivers/lvgl/src/core/lv_obj_style_gen.h **** {
  21:Drivers/lvgl/src/core/lv_obj_style_gen.h ****     lv_style_value_t v = lv_obj_get_style_prop(obj, part, LV_STYLE_HEIGHT);
  22:Drivers/lvgl/src/core/lv_obj_style_gen.h ****     return (lv_coord_t)v.num;
  23:Drivers/lvgl/src/core/lv_obj_style_gen.h **** }
  24:Drivers/lvgl/src/core/lv_obj_style_gen.h **** 
  25:Drivers/lvgl/src/core/lv_obj_style_gen.h **** static inline lv_coord_t lv_obj_get_style_min_height(const struct _lv_obj_t * obj, uint32_t part)
  26:Drivers/lvgl/src/core/lv_obj_style_gen.h **** {
  27:Drivers/lvgl/src/core/lv_obj_style_gen.h ****     lv_style_value_t v = lv_obj_get_style_prop(obj, part, LV_STYLE_MIN_HEIGHT);
  28:Drivers/lvgl/src/core/lv_obj_style_gen.h ****     return (lv_coord_t)v.num;
  29:Drivers/lvgl/src/core/lv_obj_style_gen.h **** }
  30:Drivers/lvgl/src/core/lv_obj_style_gen.h **** 
  31:Drivers/lvgl/src/core/lv_obj_style_gen.h **** static inline lv_coord_t lv_obj_get_style_max_height(const struct _lv_obj_t * obj, uint32_t part)
  32:Drivers/lvgl/src/core/lv_obj_style_gen.h **** {
  33:Drivers/lvgl/src/core/lv_obj_style_gen.h ****     lv_style_value_t v = lv_obj_get_style_prop(obj, part, LV_STYLE_MAX_HEIGHT);
  34:Drivers/lvgl/src/core/lv_obj_style_gen.h ****     return (lv_coord_t)v.num;
  35:Drivers/lvgl/src/core/lv_obj_style_gen.h **** }
  36:Drivers/lvgl/src/core/lv_obj_style_gen.h **** 
  37:Drivers/lvgl/src/core/lv_obj_style_gen.h **** static inline lv_coord_t lv_obj_get_style_x(const struct _lv_obj_t * obj, uint32_t part)
  38:Drivers/lvgl/src/core/lv_obj_style_gen.h **** {
  39:Drivers/lvgl/src/core/lv_obj_style_gen.h ****     lv_style_value_t v = lv_obj_get_style_prop(obj, part, LV_STYLE_X);
  40:Drivers/lvgl/src/core/lv_obj_style_gen.h ****     return (lv_coord_t)v.num;
  41:Drivers/lvgl/src/core/lv_obj_style_gen.h **** }
  42:Drivers/lvgl/src/core/lv_obj_style_gen.h **** 
  43:Drivers/lvgl/src/core/lv_obj_style_gen.h **** static inline lv_coord_t lv_obj_get_style_y(const struct _lv_obj_t * obj, uint32_t part)
  44:Drivers/lvgl/src/core/lv_obj_style_gen.h **** {
  45:Drivers/lvgl/src/core/lv_obj_style_gen.h ****     lv_style_value_t v = lv_obj_get_style_prop(obj, part, LV_STYLE_Y);
  46:Drivers/lvgl/src/core/lv_obj_style_gen.h ****     return (lv_coord_t)v.num;
  47:Drivers/lvgl/src/core/lv_obj_style_gen.h **** }
  48:Drivers/lvgl/src/core/lv_obj_style_gen.h **** 
  49:Drivers/lvgl/src/core/lv_obj_style_gen.h **** static inline lv_align_t lv_obj_get_style_align(const struct _lv_obj_t * obj, uint32_t part)
  50:Drivers/lvgl/src/core/lv_obj_style_gen.h **** {
  51:Drivers/lvgl/src/core/lv_obj_style_gen.h ****     lv_style_value_t v = lv_obj_get_style_prop(obj, part, LV_STYLE_ALIGN);
  52:Drivers/lvgl/src/core/lv_obj_style_gen.h ****     return (lv_align_t)v.num;
  53:Drivers/lvgl/src/core/lv_obj_style_gen.h **** }
  54:Drivers/lvgl/src/core/lv_obj_style_gen.h **** 
  55:Drivers/lvgl/src/core/lv_obj_style_gen.h **** static inline lv_coord_t lv_obj_get_style_transform_width(const struct _lv_obj_t * obj, uint32_t pa
  56:Drivers/lvgl/src/core/lv_obj_style_gen.h **** {
  57:Drivers/lvgl/src/core/lv_obj_style_gen.h ****     lv_style_value_t v = lv_obj_get_style_prop(obj, part, LV_STYLE_TRANSFORM_WIDTH);
  58:Drivers/lvgl/src/core/lv_obj_style_gen.h ****     return (lv_coord_t)v.num;
  59:Drivers/lvgl/src/core/lv_obj_style_gen.h **** }
  60:Drivers/lvgl/src/core/lv_obj_style_gen.h **** 
  61:Drivers/lvgl/src/core/lv_obj_style_gen.h **** static inline lv_coord_t lv_obj_get_style_transform_height(const struct _lv_obj_t * obj, uint32_t p
  62:Drivers/lvgl/src/core/lv_obj_style_gen.h **** {
  63:Drivers/lvgl/src/core/lv_obj_style_gen.h ****     lv_style_value_t v = lv_obj_get_style_prop(obj, part, LV_STYLE_TRANSFORM_HEIGHT);
  64:Drivers/lvgl/src/core/lv_obj_style_gen.h ****     return (lv_coord_t)v.num;
  65:Drivers/lvgl/src/core/lv_obj_style_gen.h **** }
  66:Drivers/lvgl/src/core/lv_obj_style_gen.h **** 
  67:Drivers/lvgl/src/core/lv_obj_style_gen.h **** static inline lv_coord_t lv_obj_get_style_translate_x(const struct _lv_obj_t * obj, uint32_t part)
  68:Drivers/lvgl/src/core/lv_obj_style_gen.h **** {
  69:Drivers/lvgl/src/core/lv_obj_style_gen.h ****     lv_style_value_t v = lv_obj_get_style_prop(obj, part, LV_STYLE_TRANSLATE_X);
  70:Drivers/lvgl/src/core/lv_obj_style_gen.h ****     return (lv_coord_t)v.num;
  71:Drivers/lvgl/src/core/lv_obj_style_gen.h **** }
  72:Drivers/lvgl/src/core/lv_obj_style_gen.h **** 
  73:Drivers/lvgl/src/core/lv_obj_style_gen.h **** static inline lv_coord_t lv_obj_get_style_translate_y(const struct _lv_obj_t * obj, uint32_t part)
  74:Drivers/lvgl/src/core/lv_obj_style_gen.h **** {
  75:Drivers/lvgl/src/core/lv_obj_style_gen.h ****     lv_style_value_t v = lv_obj_get_style_prop(obj, part, LV_STYLE_TRANSLATE_Y);
  76:Drivers/lvgl/src/core/lv_obj_style_gen.h ****     return (lv_coord_t)v.num;
ARM GAS  /var/folders/0z/tsy30v1j4xl4_7kw94k978ww0000gn/T//ccRTPM70.s 			page 89


  77:Drivers/lvgl/src/core/lv_obj_style_gen.h **** }
  78:Drivers/lvgl/src/core/lv_obj_style_gen.h **** 
  79:Drivers/lvgl/src/core/lv_obj_style_gen.h **** static inline lv_coord_t lv_obj_get_style_transform_zoom(const struct _lv_obj_t * obj, uint32_t par
  80:Drivers/lvgl/src/core/lv_obj_style_gen.h **** {
  81:Drivers/lvgl/src/core/lv_obj_style_gen.h ****     lv_style_value_t v = lv_obj_get_style_prop(obj, part, LV_STYLE_TRANSFORM_ZOOM);
  82:Drivers/lvgl/src/core/lv_obj_style_gen.h ****     return (lv_coord_t)v.num;
  83:Drivers/lvgl/src/core/lv_obj_style_gen.h **** }
  84:Drivers/lvgl/src/core/lv_obj_style_gen.h **** 
  85:Drivers/lvgl/src/core/lv_obj_style_gen.h **** static inline lv_coord_t lv_obj_get_style_transform_angle(const struct _lv_obj_t * obj, uint32_t pa
  86:Drivers/lvgl/src/core/lv_obj_style_gen.h **** {
  87:Drivers/lvgl/src/core/lv_obj_style_gen.h ****     lv_style_value_t v = lv_obj_get_style_prop(obj, part, LV_STYLE_TRANSFORM_ANGLE);
  88:Drivers/lvgl/src/core/lv_obj_style_gen.h ****     return (lv_coord_t)v.num;
  89:Drivers/lvgl/src/core/lv_obj_style_gen.h **** }
  90:Drivers/lvgl/src/core/lv_obj_style_gen.h **** 
  91:Drivers/lvgl/src/core/lv_obj_style_gen.h **** static inline lv_coord_t lv_obj_get_style_transform_pivot_x(const struct _lv_obj_t * obj, uint32_t 
  92:Drivers/lvgl/src/core/lv_obj_style_gen.h **** {
  93:Drivers/lvgl/src/core/lv_obj_style_gen.h ****     lv_style_value_t v = lv_obj_get_style_prop(obj, part, LV_STYLE_TRANSFORM_PIVOT_X);
  94:Drivers/lvgl/src/core/lv_obj_style_gen.h ****     return (lv_coord_t)v.num;
  95:Drivers/lvgl/src/core/lv_obj_style_gen.h **** }
  96:Drivers/lvgl/src/core/lv_obj_style_gen.h **** 
  97:Drivers/lvgl/src/core/lv_obj_style_gen.h **** static inline lv_coord_t lv_obj_get_style_transform_pivot_y(const struct _lv_obj_t * obj, uint32_t 
  98:Drivers/lvgl/src/core/lv_obj_style_gen.h **** {
  99:Drivers/lvgl/src/core/lv_obj_style_gen.h ****     lv_style_value_t v = lv_obj_get_style_prop(obj, part, LV_STYLE_TRANSFORM_PIVOT_Y);
 100:Drivers/lvgl/src/core/lv_obj_style_gen.h ****     return (lv_coord_t)v.num;
 101:Drivers/lvgl/src/core/lv_obj_style_gen.h **** }
 102:Drivers/lvgl/src/core/lv_obj_style_gen.h **** 
 103:Drivers/lvgl/src/core/lv_obj_style_gen.h **** static inline lv_coord_t lv_obj_get_style_pad_top(const struct _lv_obj_t * obj, uint32_t part)
 104:Drivers/lvgl/src/core/lv_obj_style_gen.h **** {
 105:Drivers/lvgl/src/core/lv_obj_style_gen.h ****     lv_style_value_t v = lv_obj_get_style_prop(obj, part, LV_STYLE_PAD_TOP);
 106:Drivers/lvgl/src/core/lv_obj_style_gen.h ****     return (lv_coord_t)v.num;
 107:Drivers/lvgl/src/core/lv_obj_style_gen.h **** }
 108:Drivers/lvgl/src/core/lv_obj_style_gen.h **** 
 109:Drivers/lvgl/src/core/lv_obj_style_gen.h **** static inline lv_coord_t lv_obj_get_style_pad_bottom(const struct _lv_obj_t * obj, uint32_t part)
 110:Drivers/lvgl/src/core/lv_obj_style_gen.h **** {
 111:Drivers/lvgl/src/core/lv_obj_style_gen.h ****     lv_style_value_t v = lv_obj_get_style_prop(obj, part, LV_STYLE_PAD_BOTTOM);
 112:Drivers/lvgl/src/core/lv_obj_style_gen.h ****     return (lv_coord_t)v.num;
 113:Drivers/lvgl/src/core/lv_obj_style_gen.h **** }
 114:Drivers/lvgl/src/core/lv_obj_style_gen.h **** 
 115:Drivers/lvgl/src/core/lv_obj_style_gen.h **** static inline lv_coord_t lv_obj_get_style_pad_left(const struct _lv_obj_t * obj, uint32_t part)
 116:Drivers/lvgl/src/core/lv_obj_style_gen.h **** {
 117:Drivers/lvgl/src/core/lv_obj_style_gen.h ****     lv_style_value_t v = lv_obj_get_style_prop(obj, part, LV_STYLE_PAD_LEFT);
 118:Drivers/lvgl/src/core/lv_obj_style_gen.h ****     return (lv_coord_t)v.num;
 119:Drivers/lvgl/src/core/lv_obj_style_gen.h **** }
 120:Drivers/lvgl/src/core/lv_obj_style_gen.h **** 
 121:Drivers/lvgl/src/core/lv_obj_style_gen.h **** static inline lv_coord_t lv_obj_get_style_pad_right(const struct _lv_obj_t * obj, uint32_t part)
 122:Drivers/lvgl/src/core/lv_obj_style_gen.h **** {
 123:Drivers/lvgl/src/core/lv_obj_style_gen.h ****     lv_style_value_t v = lv_obj_get_style_prop(obj, part, LV_STYLE_PAD_RIGHT);
 124:Drivers/lvgl/src/core/lv_obj_style_gen.h ****     return (lv_coord_t)v.num;
 125:Drivers/lvgl/src/core/lv_obj_style_gen.h **** }
 126:Drivers/lvgl/src/core/lv_obj_style_gen.h **** 
 127:Drivers/lvgl/src/core/lv_obj_style_gen.h **** static inline lv_coord_t lv_obj_get_style_pad_row(const struct _lv_obj_t * obj, uint32_t part)
 128:Drivers/lvgl/src/core/lv_obj_style_gen.h **** {
 129:Drivers/lvgl/src/core/lv_obj_style_gen.h ****     lv_style_value_t v = lv_obj_get_style_prop(obj, part, LV_STYLE_PAD_ROW);
 130:Drivers/lvgl/src/core/lv_obj_style_gen.h ****     return (lv_coord_t)v.num;
 131:Drivers/lvgl/src/core/lv_obj_style_gen.h **** }
 132:Drivers/lvgl/src/core/lv_obj_style_gen.h **** 
 133:Drivers/lvgl/src/core/lv_obj_style_gen.h **** static inline lv_coord_t lv_obj_get_style_pad_column(const struct _lv_obj_t * obj, uint32_t part)
ARM GAS  /var/folders/0z/tsy30v1j4xl4_7kw94k978ww0000gn/T//ccRTPM70.s 			page 90


 134:Drivers/lvgl/src/core/lv_obj_style_gen.h **** {
 135:Drivers/lvgl/src/core/lv_obj_style_gen.h ****     lv_style_value_t v = lv_obj_get_style_prop(obj, part, LV_STYLE_PAD_COLUMN);
 136:Drivers/lvgl/src/core/lv_obj_style_gen.h ****     return (lv_coord_t)v.num;
 137:Drivers/lvgl/src/core/lv_obj_style_gen.h **** }
 138:Drivers/lvgl/src/core/lv_obj_style_gen.h **** 
 139:Drivers/lvgl/src/core/lv_obj_style_gen.h **** static inline lv_color_t lv_obj_get_style_bg_color(const struct _lv_obj_t * obj, uint32_t part)
 140:Drivers/lvgl/src/core/lv_obj_style_gen.h **** {
 141:Drivers/lvgl/src/core/lv_obj_style_gen.h ****     lv_style_value_t v = lv_obj_get_style_prop(obj, part, LV_STYLE_BG_COLOR);
 142:Drivers/lvgl/src/core/lv_obj_style_gen.h ****     return v.color;
 143:Drivers/lvgl/src/core/lv_obj_style_gen.h **** }
 144:Drivers/lvgl/src/core/lv_obj_style_gen.h **** 
 145:Drivers/lvgl/src/core/lv_obj_style_gen.h **** static inline lv_color_t lv_obj_get_style_bg_color_filtered(const struct _lv_obj_t * obj, uint32_t 
 146:Drivers/lvgl/src/core/lv_obj_style_gen.h **** {
 147:Drivers/lvgl/src/core/lv_obj_style_gen.h ****     lv_style_value_t v = _lv_obj_style_apply_color_filter(obj, part, lv_obj_get_style_prop(obj, par
 148:Drivers/lvgl/src/core/lv_obj_style_gen.h ****     return v.color;
 149:Drivers/lvgl/src/core/lv_obj_style_gen.h **** }
 150:Drivers/lvgl/src/core/lv_obj_style_gen.h **** 
 151:Drivers/lvgl/src/core/lv_obj_style_gen.h **** static inline lv_opa_t lv_obj_get_style_bg_opa(const struct _lv_obj_t * obj, uint32_t part)
 152:Drivers/lvgl/src/core/lv_obj_style_gen.h **** {
 153:Drivers/lvgl/src/core/lv_obj_style_gen.h ****     lv_style_value_t v = lv_obj_get_style_prop(obj, part, LV_STYLE_BG_OPA);
 154:Drivers/lvgl/src/core/lv_obj_style_gen.h ****     return (lv_opa_t)v.num;
 155:Drivers/lvgl/src/core/lv_obj_style_gen.h **** }
 156:Drivers/lvgl/src/core/lv_obj_style_gen.h **** 
 157:Drivers/lvgl/src/core/lv_obj_style_gen.h **** static inline lv_color_t lv_obj_get_style_bg_grad_color(const struct _lv_obj_t * obj, uint32_t part
 158:Drivers/lvgl/src/core/lv_obj_style_gen.h **** {
 159:Drivers/lvgl/src/core/lv_obj_style_gen.h ****     lv_style_value_t v = lv_obj_get_style_prop(obj, part, LV_STYLE_BG_GRAD_COLOR);
 160:Drivers/lvgl/src/core/lv_obj_style_gen.h ****     return v.color;
 161:Drivers/lvgl/src/core/lv_obj_style_gen.h **** }
 162:Drivers/lvgl/src/core/lv_obj_style_gen.h **** 
 163:Drivers/lvgl/src/core/lv_obj_style_gen.h **** static inline lv_color_t lv_obj_get_style_bg_grad_color_filtered(const struct _lv_obj_t * obj, uint
 164:Drivers/lvgl/src/core/lv_obj_style_gen.h **** {
 165:Drivers/lvgl/src/core/lv_obj_style_gen.h ****     lv_style_value_t v = _lv_obj_style_apply_color_filter(obj, part, lv_obj_get_style_prop(obj, par
 166:Drivers/lvgl/src/core/lv_obj_style_gen.h ****     return v.color;
 167:Drivers/lvgl/src/core/lv_obj_style_gen.h **** }
 168:Drivers/lvgl/src/core/lv_obj_style_gen.h **** 
 169:Drivers/lvgl/src/core/lv_obj_style_gen.h **** static inline lv_grad_dir_t lv_obj_get_style_bg_grad_dir(const struct _lv_obj_t * obj, uint32_t par
 170:Drivers/lvgl/src/core/lv_obj_style_gen.h **** {
 171:Drivers/lvgl/src/core/lv_obj_style_gen.h ****     lv_style_value_t v = lv_obj_get_style_prop(obj, part, LV_STYLE_BG_GRAD_DIR);
 172:Drivers/lvgl/src/core/lv_obj_style_gen.h ****     return (lv_grad_dir_t)v.num;
 173:Drivers/lvgl/src/core/lv_obj_style_gen.h **** }
 174:Drivers/lvgl/src/core/lv_obj_style_gen.h **** 
 175:Drivers/lvgl/src/core/lv_obj_style_gen.h **** static inline lv_coord_t lv_obj_get_style_bg_main_stop(const struct _lv_obj_t * obj, uint32_t part)
 176:Drivers/lvgl/src/core/lv_obj_style_gen.h **** {
 177:Drivers/lvgl/src/core/lv_obj_style_gen.h ****     lv_style_value_t v = lv_obj_get_style_prop(obj, part, LV_STYLE_BG_MAIN_STOP);
 178:Drivers/lvgl/src/core/lv_obj_style_gen.h ****     return (lv_coord_t)v.num;
 179:Drivers/lvgl/src/core/lv_obj_style_gen.h **** }
 180:Drivers/lvgl/src/core/lv_obj_style_gen.h **** 
 181:Drivers/lvgl/src/core/lv_obj_style_gen.h **** static inline lv_coord_t lv_obj_get_style_bg_grad_stop(const struct _lv_obj_t * obj, uint32_t part)
 182:Drivers/lvgl/src/core/lv_obj_style_gen.h **** {
 183:Drivers/lvgl/src/core/lv_obj_style_gen.h ****     lv_style_value_t v = lv_obj_get_style_prop(obj, part, LV_STYLE_BG_GRAD_STOP);
 184:Drivers/lvgl/src/core/lv_obj_style_gen.h ****     return (lv_coord_t)v.num;
 185:Drivers/lvgl/src/core/lv_obj_style_gen.h **** }
 186:Drivers/lvgl/src/core/lv_obj_style_gen.h **** 
 187:Drivers/lvgl/src/core/lv_obj_style_gen.h **** static inline const lv_grad_dsc_t * lv_obj_get_style_bg_grad(const struct _lv_obj_t * obj, uint32_t
 188:Drivers/lvgl/src/core/lv_obj_style_gen.h **** {
 189:Drivers/lvgl/src/core/lv_obj_style_gen.h ****     lv_style_value_t v = lv_obj_get_style_prop(obj, part, LV_STYLE_BG_GRAD);
 190:Drivers/lvgl/src/core/lv_obj_style_gen.h ****     return (const lv_grad_dsc_t *)v.ptr;
ARM GAS  /var/folders/0z/tsy30v1j4xl4_7kw94k978ww0000gn/T//ccRTPM70.s 			page 91


 191:Drivers/lvgl/src/core/lv_obj_style_gen.h **** }
 192:Drivers/lvgl/src/core/lv_obj_style_gen.h **** 
 193:Drivers/lvgl/src/core/lv_obj_style_gen.h **** static inline lv_dither_mode_t lv_obj_get_style_bg_dither_mode(const struct _lv_obj_t * obj, uint32
 194:Drivers/lvgl/src/core/lv_obj_style_gen.h **** {
 195:Drivers/lvgl/src/core/lv_obj_style_gen.h ****     lv_style_value_t v = lv_obj_get_style_prop(obj, part, LV_STYLE_BG_DITHER_MODE);
 196:Drivers/lvgl/src/core/lv_obj_style_gen.h ****     return (lv_dither_mode_t)v.num;
 197:Drivers/lvgl/src/core/lv_obj_style_gen.h **** }
 198:Drivers/lvgl/src/core/lv_obj_style_gen.h **** 
 199:Drivers/lvgl/src/core/lv_obj_style_gen.h **** static inline const void * lv_obj_get_style_bg_img_src(const struct _lv_obj_t * obj, uint32_t part)
 200:Drivers/lvgl/src/core/lv_obj_style_gen.h **** {
 201:Drivers/lvgl/src/core/lv_obj_style_gen.h ****     lv_style_value_t v = lv_obj_get_style_prop(obj, part, LV_STYLE_BG_IMG_SRC);
 202:Drivers/lvgl/src/core/lv_obj_style_gen.h ****     return (const void *)v.ptr;
 203:Drivers/lvgl/src/core/lv_obj_style_gen.h **** }
 204:Drivers/lvgl/src/core/lv_obj_style_gen.h **** 
 205:Drivers/lvgl/src/core/lv_obj_style_gen.h **** static inline lv_opa_t lv_obj_get_style_bg_img_opa(const struct _lv_obj_t * obj, uint32_t part)
 206:Drivers/lvgl/src/core/lv_obj_style_gen.h **** {
 207:Drivers/lvgl/src/core/lv_obj_style_gen.h ****     lv_style_value_t v = lv_obj_get_style_prop(obj, part, LV_STYLE_BG_IMG_OPA);
 208:Drivers/lvgl/src/core/lv_obj_style_gen.h ****     return (lv_opa_t)v.num;
 209:Drivers/lvgl/src/core/lv_obj_style_gen.h **** }
 210:Drivers/lvgl/src/core/lv_obj_style_gen.h **** 
 211:Drivers/lvgl/src/core/lv_obj_style_gen.h **** static inline lv_color_t lv_obj_get_style_bg_img_recolor(const struct _lv_obj_t * obj, uint32_t par
 212:Drivers/lvgl/src/core/lv_obj_style_gen.h **** {
 213:Drivers/lvgl/src/core/lv_obj_style_gen.h ****     lv_style_value_t v = lv_obj_get_style_prop(obj, part, LV_STYLE_BG_IMG_RECOLOR);
 214:Drivers/lvgl/src/core/lv_obj_style_gen.h ****     return v.color;
 215:Drivers/lvgl/src/core/lv_obj_style_gen.h **** }
 216:Drivers/lvgl/src/core/lv_obj_style_gen.h **** 
 217:Drivers/lvgl/src/core/lv_obj_style_gen.h **** static inline lv_color_t lv_obj_get_style_bg_img_recolor_filtered(const struct _lv_obj_t * obj, uin
 218:Drivers/lvgl/src/core/lv_obj_style_gen.h **** {
 219:Drivers/lvgl/src/core/lv_obj_style_gen.h ****     lv_style_value_t v = _lv_obj_style_apply_color_filter(obj, part, lv_obj_get_style_prop(obj, par
 220:Drivers/lvgl/src/core/lv_obj_style_gen.h ****     return v.color;
 221:Drivers/lvgl/src/core/lv_obj_style_gen.h **** }
 222:Drivers/lvgl/src/core/lv_obj_style_gen.h **** 
 223:Drivers/lvgl/src/core/lv_obj_style_gen.h **** static inline lv_opa_t lv_obj_get_style_bg_img_recolor_opa(const struct _lv_obj_t * obj, uint32_t p
 224:Drivers/lvgl/src/core/lv_obj_style_gen.h **** {
 225:Drivers/lvgl/src/core/lv_obj_style_gen.h ****     lv_style_value_t v = lv_obj_get_style_prop(obj, part, LV_STYLE_BG_IMG_RECOLOR_OPA);
 226:Drivers/lvgl/src/core/lv_obj_style_gen.h ****     return (lv_opa_t)v.num;
 227:Drivers/lvgl/src/core/lv_obj_style_gen.h **** }
 228:Drivers/lvgl/src/core/lv_obj_style_gen.h **** 
 229:Drivers/lvgl/src/core/lv_obj_style_gen.h **** static inline bool lv_obj_get_style_bg_img_tiled(const struct _lv_obj_t * obj, uint32_t part)
 230:Drivers/lvgl/src/core/lv_obj_style_gen.h **** {
 231:Drivers/lvgl/src/core/lv_obj_style_gen.h ****     lv_style_value_t v = lv_obj_get_style_prop(obj, part, LV_STYLE_BG_IMG_TILED);
 232:Drivers/lvgl/src/core/lv_obj_style_gen.h ****     return (bool)v.num;
 233:Drivers/lvgl/src/core/lv_obj_style_gen.h **** }
 234:Drivers/lvgl/src/core/lv_obj_style_gen.h **** 
 235:Drivers/lvgl/src/core/lv_obj_style_gen.h **** static inline lv_color_t lv_obj_get_style_border_color(const struct _lv_obj_t * obj, uint32_t part)
 236:Drivers/lvgl/src/core/lv_obj_style_gen.h **** {
 237:Drivers/lvgl/src/core/lv_obj_style_gen.h ****     lv_style_value_t v = lv_obj_get_style_prop(obj, part, LV_STYLE_BORDER_COLOR);
 238:Drivers/lvgl/src/core/lv_obj_style_gen.h ****     return v.color;
 239:Drivers/lvgl/src/core/lv_obj_style_gen.h **** }
 240:Drivers/lvgl/src/core/lv_obj_style_gen.h **** 
 241:Drivers/lvgl/src/core/lv_obj_style_gen.h **** static inline lv_color_t lv_obj_get_style_border_color_filtered(const struct _lv_obj_t * obj, uint3
 242:Drivers/lvgl/src/core/lv_obj_style_gen.h **** {
 243:Drivers/lvgl/src/core/lv_obj_style_gen.h ****     lv_style_value_t v = _lv_obj_style_apply_color_filter(obj, part, lv_obj_get_style_prop(obj, par
 244:Drivers/lvgl/src/core/lv_obj_style_gen.h ****     return v.color;
 245:Drivers/lvgl/src/core/lv_obj_style_gen.h **** }
 246:Drivers/lvgl/src/core/lv_obj_style_gen.h **** 
 247:Drivers/lvgl/src/core/lv_obj_style_gen.h **** static inline lv_opa_t lv_obj_get_style_border_opa(const struct _lv_obj_t * obj, uint32_t part)
ARM GAS  /var/folders/0z/tsy30v1j4xl4_7kw94k978ww0000gn/T//ccRTPM70.s 			page 92


 248:Drivers/lvgl/src/core/lv_obj_style_gen.h **** {
 249:Drivers/lvgl/src/core/lv_obj_style_gen.h ****     lv_style_value_t v = lv_obj_get_style_prop(obj, part, LV_STYLE_BORDER_OPA);
 250:Drivers/lvgl/src/core/lv_obj_style_gen.h ****     return (lv_opa_t)v.num;
 251:Drivers/lvgl/src/core/lv_obj_style_gen.h **** }
 252:Drivers/lvgl/src/core/lv_obj_style_gen.h **** 
 253:Drivers/lvgl/src/core/lv_obj_style_gen.h **** static inline lv_coord_t lv_obj_get_style_border_width(const struct _lv_obj_t * obj, uint32_t part)
 254:Drivers/lvgl/src/core/lv_obj_style_gen.h **** {
 255:Drivers/lvgl/src/core/lv_obj_style_gen.h ****     lv_style_value_t v = lv_obj_get_style_prop(obj, part, LV_STYLE_BORDER_WIDTH);
 256:Drivers/lvgl/src/core/lv_obj_style_gen.h ****     return (lv_coord_t)v.num;
 257:Drivers/lvgl/src/core/lv_obj_style_gen.h **** }
 258:Drivers/lvgl/src/core/lv_obj_style_gen.h **** 
 259:Drivers/lvgl/src/core/lv_obj_style_gen.h **** static inline lv_border_side_t lv_obj_get_style_border_side(const struct _lv_obj_t * obj, uint32_t 
 260:Drivers/lvgl/src/core/lv_obj_style_gen.h **** {
 261:Drivers/lvgl/src/core/lv_obj_style_gen.h ****     lv_style_value_t v = lv_obj_get_style_prop(obj, part, LV_STYLE_BORDER_SIDE);
 262:Drivers/lvgl/src/core/lv_obj_style_gen.h ****     return (lv_border_side_t)v.num;
 263:Drivers/lvgl/src/core/lv_obj_style_gen.h **** }
 264:Drivers/lvgl/src/core/lv_obj_style_gen.h **** 
 265:Drivers/lvgl/src/core/lv_obj_style_gen.h **** static inline bool lv_obj_get_style_border_post(const struct _lv_obj_t * obj, uint32_t part)
 266:Drivers/lvgl/src/core/lv_obj_style_gen.h **** {
 267:Drivers/lvgl/src/core/lv_obj_style_gen.h ****     lv_style_value_t v = lv_obj_get_style_prop(obj, part, LV_STYLE_BORDER_POST);
 268:Drivers/lvgl/src/core/lv_obj_style_gen.h ****     return (bool)v.num;
 269:Drivers/lvgl/src/core/lv_obj_style_gen.h **** }
 270:Drivers/lvgl/src/core/lv_obj_style_gen.h **** 
 271:Drivers/lvgl/src/core/lv_obj_style_gen.h **** static inline lv_coord_t lv_obj_get_style_outline_width(const struct _lv_obj_t * obj, uint32_t part
 272:Drivers/lvgl/src/core/lv_obj_style_gen.h **** {
 273:Drivers/lvgl/src/core/lv_obj_style_gen.h ****     lv_style_value_t v = lv_obj_get_style_prop(obj, part, LV_STYLE_OUTLINE_WIDTH);
 274:Drivers/lvgl/src/core/lv_obj_style_gen.h ****     return (lv_coord_t)v.num;
 275:Drivers/lvgl/src/core/lv_obj_style_gen.h **** }
 276:Drivers/lvgl/src/core/lv_obj_style_gen.h **** 
 277:Drivers/lvgl/src/core/lv_obj_style_gen.h **** static inline lv_color_t lv_obj_get_style_outline_color(const struct _lv_obj_t * obj, uint32_t part
 278:Drivers/lvgl/src/core/lv_obj_style_gen.h **** {
 279:Drivers/lvgl/src/core/lv_obj_style_gen.h ****     lv_style_value_t v = lv_obj_get_style_prop(obj, part, LV_STYLE_OUTLINE_COLOR);
 280:Drivers/lvgl/src/core/lv_obj_style_gen.h ****     return v.color;
 281:Drivers/lvgl/src/core/lv_obj_style_gen.h **** }
 282:Drivers/lvgl/src/core/lv_obj_style_gen.h **** 
 283:Drivers/lvgl/src/core/lv_obj_style_gen.h **** static inline lv_color_t lv_obj_get_style_outline_color_filtered(const struct _lv_obj_t * obj, uint
 284:Drivers/lvgl/src/core/lv_obj_style_gen.h **** {
 285:Drivers/lvgl/src/core/lv_obj_style_gen.h ****     lv_style_value_t v = _lv_obj_style_apply_color_filter(obj, part, lv_obj_get_style_prop(obj, par
 286:Drivers/lvgl/src/core/lv_obj_style_gen.h ****     return v.color;
 287:Drivers/lvgl/src/core/lv_obj_style_gen.h **** }
 288:Drivers/lvgl/src/core/lv_obj_style_gen.h **** 
 289:Drivers/lvgl/src/core/lv_obj_style_gen.h **** static inline lv_opa_t lv_obj_get_style_outline_opa(const struct _lv_obj_t * obj, uint32_t part)
 290:Drivers/lvgl/src/core/lv_obj_style_gen.h **** {
 291:Drivers/lvgl/src/core/lv_obj_style_gen.h ****     lv_style_value_t v = lv_obj_get_style_prop(obj, part, LV_STYLE_OUTLINE_OPA);
 292:Drivers/lvgl/src/core/lv_obj_style_gen.h ****     return (lv_opa_t)v.num;
 293:Drivers/lvgl/src/core/lv_obj_style_gen.h **** }
 294:Drivers/lvgl/src/core/lv_obj_style_gen.h **** 
 295:Drivers/lvgl/src/core/lv_obj_style_gen.h **** static inline lv_coord_t lv_obj_get_style_outline_pad(const struct _lv_obj_t * obj, uint32_t part)
 296:Drivers/lvgl/src/core/lv_obj_style_gen.h **** {
 297:Drivers/lvgl/src/core/lv_obj_style_gen.h ****     lv_style_value_t v = lv_obj_get_style_prop(obj, part, LV_STYLE_OUTLINE_PAD);
 298:Drivers/lvgl/src/core/lv_obj_style_gen.h ****     return (lv_coord_t)v.num;
 299:Drivers/lvgl/src/core/lv_obj_style_gen.h **** }
 300:Drivers/lvgl/src/core/lv_obj_style_gen.h **** 
 301:Drivers/lvgl/src/core/lv_obj_style_gen.h **** static inline lv_coord_t lv_obj_get_style_shadow_width(const struct _lv_obj_t * obj, uint32_t part)
 302:Drivers/lvgl/src/core/lv_obj_style_gen.h **** {
 303:Drivers/lvgl/src/core/lv_obj_style_gen.h ****     lv_style_value_t v = lv_obj_get_style_prop(obj, part, LV_STYLE_SHADOW_WIDTH);
 304:Drivers/lvgl/src/core/lv_obj_style_gen.h ****     return (lv_coord_t)v.num;
ARM GAS  /var/folders/0z/tsy30v1j4xl4_7kw94k978ww0000gn/T//ccRTPM70.s 			page 93


 305:Drivers/lvgl/src/core/lv_obj_style_gen.h **** }
 306:Drivers/lvgl/src/core/lv_obj_style_gen.h **** 
 307:Drivers/lvgl/src/core/lv_obj_style_gen.h **** static inline lv_coord_t lv_obj_get_style_shadow_ofs_x(const struct _lv_obj_t * obj, uint32_t part)
 308:Drivers/lvgl/src/core/lv_obj_style_gen.h **** {
 309:Drivers/lvgl/src/core/lv_obj_style_gen.h ****     lv_style_value_t v = lv_obj_get_style_prop(obj, part, LV_STYLE_SHADOW_OFS_X);
 310:Drivers/lvgl/src/core/lv_obj_style_gen.h ****     return (lv_coord_t)v.num;
 311:Drivers/lvgl/src/core/lv_obj_style_gen.h **** }
 312:Drivers/lvgl/src/core/lv_obj_style_gen.h **** 
 313:Drivers/lvgl/src/core/lv_obj_style_gen.h **** static inline lv_coord_t lv_obj_get_style_shadow_ofs_y(const struct _lv_obj_t * obj, uint32_t part)
 314:Drivers/lvgl/src/core/lv_obj_style_gen.h **** {
 315:Drivers/lvgl/src/core/lv_obj_style_gen.h ****     lv_style_value_t v = lv_obj_get_style_prop(obj, part, LV_STYLE_SHADOW_OFS_Y);
 316:Drivers/lvgl/src/core/lv_obj_style_gen.h ****     return (lv_coord_t)v.num;
 317:Drivers/lvgl/src/core/lv_obj_style_gen.h **** }
 318:Drivers/lvgl/src/core/lv_obj_style_gen.h **** 
 319:Drivers/lvgl/src/core/lv_obj_style_gen.h **** static inline lv_coord_t lv_obj_get_style_shadow_spread(const struct _lv_obj_t * obj, uint32_t part
 320:Drivers/lvgl/src/core/lv_obj_style_gen.h **** {
 321:Drivers/lvgl/src/core/lv_obj_style_gen.h ****     lv_style_value_t v = lv_obj_get_style_prop(obj, part, LV_STYLE_SHADOW_SPREAD);
 322:Drivers/lvgl/src/core/lv_obj_style_gen.h ****     return (lv_coord_t)v.num;
 323:Drivers/lvgl/src/core/lv_obj_style_gen.h **** }
 324:Drivers/lvgl/src/core/lv_obj_style_gen.h **** 
 325:Drivers/lvgl/src/core/lv_obj_style_gen.h **** static inline lv_color_t lv_obj_get_style_shadow_color(const struct _lv_obj_t * obj, uint32_t part)
 326:Drivers/lvgl/src/core/lv_obj_style_gen.h **** {
 327:Drivers/lvgl/src/core/lv_obj_style_gen.h ****     lv_style_value_t v = lv_obj_get_style_prop(obj, part, LV_STYLE_SHADOW_COLOR);
 328:Drivers/lvgl/src/core/lv_obj_style_gen.h ****     return v.color;
 329:Drivers/lvgl/src/core/lv_obj_style_gen.h **** }
 330:Drivers/lvgl/src/core/lv_obj_style_gen.h **** 
 331:Drivers/lvgl/src/core/lv_obj_style_gen.h **** static inline lv_color_t lv_obj_get_style_shadow_color_filtered(const struct _lv_obj_t * obj, uint3
 332:Drivers/lvgl/src/core/lv_obj_style_gen.h **** {
 333:Drivers/lvgl/src/core/lv_obj_style_gen.h ****     lv_style_value_t v = _lv_obj_style_apply_color_filter(obj, part, lv_obj_get_style_prop(obj, par
 334:Drivers/lvgl/src/core/lv_obj_style_gen.h ****     return v.color;
 335:Drivers/lvgl/src/core/lv_obj_style_gen.h **** }
 336:Drivers/lvgl/src/core/lv_obj_style_gen.h **** 
 337:Drivers/lvgl/src/core/lv_obj_style_gen.h **** static inline lv_opa_t lv_obj_get_style_shadow_opa(const struct _lv_obj_t * obj, uint32_t part)
 338:Drivers/lvgl/src/core/lv_obj_style_gen.h **** {
 339:Drivers/lvgl/src/core/lv_obj_style_gen.h ****     lv_style_value_t v = lv_obj_get_style_prop(obj, part, LV_STYLE_SHADOW_OPA);
 340:Drivers/lvgl/src/core/lv_obj_style_gen.h ****     return (lv_opa_t)v.num;
 341:Drivers/lvgl/src/core/lv_obj_style_gen.h **** }
 342:Drivers/lvgl/src/core/lv_obj_style_gen.h **** 
 343:Drivers/lvgl/src/core/lv_obj_style_gen.h **** static inline lv_opa_t lv_obj_get_style_img_opa(const struct _lv_obj_t * obj, uint32_t part)
 344:Drivers/lvgl/src/core/lv_obj_style_gen.h **** {
 345:Drivers/lvgl/src/core/lv_obj_style_gen.h ****     lv_style_value_t v = lv_obj_get_style_prop(obj, part, LV_STYLE_IMG_OPA);
 346:Drivers/lvgl/src/core/lv_obj_style_gen.h ****     return (lv_opa_t)v.num;
 347:Drivers/lvgl/src/core/lv_obj_style_gen.h **** }
 348:Drivers/lvgl/src/core/lv_obj_style_gen.h **** 
 349:Drivers/lvgl/src/core/lv_obj_style_gen.h **** static inline lv_color_t lv_obj_get_style_img_recolor(const struct _lv_obj_t * obj, uint32_t part)
 350:Drivers/lvgl/src/core/lv_obj_style_gen.h **** {
 351:Drivers/lvgl/src/core/lv_obj_style_gen.h ****     lv_style_value_t v = lv_obj_get_style_prop(obj, part, LV_STYLE_IMG_RECOLOR);
 352:Drivers/lvgl/src/core/lv_obj_style_gen.h ****     return v.color;
 353:Drivers/lvgl/src/core/lv_obj_style_gen.h **** }
 354:Drivers/lvgl/src/core/lv_obj_style_gen.h **** 
 355:Drivers/lvgl/src/core/lv_obj_style_gen.h **** static inline lv_color_t lv_obj_get_style_img_recolor_filtered(const struct _lv_obj_t * obj, uint32
 356:Drivers/lvgl/src/core/lv_obj_style_gen.h **** {
 357:Drivers/lvgl/src/core/lv_obj_style_gen.h ****     lv_style_value_t v = _lv_obj_style_apply_color_filter(obj, part, lv_obj_get_style_prop(obj, par
 358:Drivers/lvgl/src/core/lv_obj_style_gen.h ****     return v.color;
 359:Drivers/lvgl/src/core/lv_obj_style_gen.h **** }
 360:Drivers/lvgl/src/core/lv_obj_style_gen.h **** 
 361:Drivers/lvgl/src/core/lv_obj_style_gen.h **** static inline lv_opa_t lv_obj_get_style_img_recolor_opa(const struct _lv_obj_t * obj, uint32_t part
ARM GAS  /var/folders/0z/tsy30v1j4xl4_7kw94k978ww0000gn/T//ccRTPM70.s 			page 94


 362:Drivers/lvgl/src/core/lv_obj_style_gen.h **** {
 363:Drivers/lvgl/src/core/lv_obj_style_gen.h ****     lv_style_value_t v = lv_obj_get_style_prop(obj, part, LV_STYLE_IMG_RECOLOR_OPA);
 364:Drivers/lvgl/src/core/lv_obj_style_gen.h ****     return (lv_opa_t)v.num;
 365:Drivers/lvgl/src/core/lv_obj_style_gen.h **** }
 366:Drivers/lvgl/src/core/lv_obj_style_gen.h **** 
 367:Drivers/lvgl/src/core/lv_obj_style_gen.h **** static inline lv_coord_t lv_obj_get_style_line_width(const struct _lv_obj_t * obj, uint32_t part)
 368:Drivers/lvgl/src/core/lv_obj_style_gen.h **** {
 369:Drivers/lvgl/src/core/lv_obj_style_gen.h ****     lv_style_value_t v = lv_obj_get_style_prop(obj, part, LV_STYLE_LINE_WIDTH);
 370:Drivers/lvgl/src/core/lv_obj_style_gen.h ****     return (lv_coord_t)v.num;
 371:Drivers/lvgl/src/core/lv_obj_style_gen.h **** }
 372:Drivers/lvgl/src/core/lv_obj_style_gen.h **** 
 373:Drivers/lvgl/src/core/lv_obj_style_gen.h **** static inline lv_coord_t lv_obj_get_style_line_dash_width(const struct _lv_obj_t * obj, uint32_t pa
 374:Drivers/lvgl/src/core/lv_obj_style_gen.h **** {
 375:Drivers/lvgl/src/core/lv_obj_style_gen.h ****     lv_style_value_t v = lv_obj_get_style_prop(obj, part, LV_STYLE_LINE_DASH_WIDTH);
 376:Drivers/lvgl/src/core/lv_obj_style_gen.h ****     return (lv_coord_t)v.num;
 377:Drivers/lvgl/src/core/lv_obj_style_gen.h **** }
 378:Drivers/lvgl/src/core/lv_obj_style_gen.h **** 
 379:Drivers/lvgl/src/core/lv_obj_style_gen.h **** static inline lv_coord_t lv_obj_get_style_line_dash_gap(const struct _lv_obj_t * obj, uint32_t part
 380:Drivers/lvgl/src/core/lv_obj_style_gen.h **** {
 381:Drivers/lvgl/src/core/lv_obj_style_gen.h ****     lv_style_value_t v = lv_obj_get_style_prop(obj, part, LV_STYLE_LINE_DASH_GAP);
 382:Drivers/lvgl/src/core/lv_obj_style_gen.h ****     return (lv_coord_t)v.num;
 383:Drivers/lvgl/src/core/lv_obj_style_gen.h **** }
 384:Drivers/lvgl/src/core/lv_obj_style_gen.h **** 
 385:Drivers/lvgl/src/core/lv_obj_style_gen.h **** static inline bool lv_obj_get_style_line_rounded(const struct _lv_obj_t * obj, uint32_t part)
 386:Drivers/lvgl/src/core/lv_obj_style_gen.h **** {
 387:Drivers/lvgl/src/core/lv_obj_style_gen.h ****     lv_style_value_t v = lv_obj_get_style_prop(obj, part, LV_STYLE_LINE_ROUNDED);
 388:Drivers/lvgl/src/core/lv_obj_style_gen.h ****     return (bool)v.num;
 389:Drivers/lvgl/src/core/lv_obj_style_gen.h **** }
 390:Drivers/lvgl/src/core/lv_obj_style_gen.h **** 
 391:Drivers/lvgl/src/core/lv_obj_style_gen.h **** static inline lv_color_t lv_obj_get_style_line_color(const struct _lv_obj_t * obj, uint32_t part)
 392:Drivers/lvgl/src/core/lv_obj_style_gen.h **** {
 393:Drivers/lvgl/src/core/lv_obj_style_gen.h ****     lv_style_value_t v = lv_obj_get_style_prop(obj, part, LV_STYLE_LINE_COLOR);
 394:Drivers/lvgl/src/core/lv_obj_style_gen.h ****     return v.color;
 395:Drivers/lvgl/src/core/lv_obj_style_gen.h **** }
 396:Drivers/lvgl/src/core/lv_obj_style_gen.h **** 
 397:Drivers/lvgl/src/core/lv_obj_style_gen.h **** static inline lv_color_t lv_obj_get_style_line_color_filtered(const struct _lv_obj_t * obj, uint32_
 398:Drivers/lvgl/src/core/lv_obj_style_gen.h **** {
 399:Drivers/lvgl/src/core/lv_obj_style_gen.h ****     lv_style_value_t v = _lv_obj_style_apply_color_filter(obj, part, lv_obj_get_style_prop(obj, par
 400:Drivers/lvgl/src/core/lv_obj_style_gen.h ****     return v.color;
 401:Drivers/lvgl/src/core/lv_obj_style_gen.h **** }
 402:Drivers/lvgl/src/core/lv_obj_style_gen.h **** 
 403:Drivers/lvgl/src/core/lv_obj_style_gen.h **** static inline lv_opa_t lv_obj_get_style_line_opa(const struct _lv_obj_t * obj, uint32_t part)
 404:Drivers/lvgl/src/core/lv_obj_style_gen.h **** {
 405:Drivers/lvgl/src/core/lv_obj_style_gen.h ****     lv_style_value_t v = lv_obj_get_style_prop(obj, part, LV_STYLE_LINE_OPA);
 406:Drivers/lvgl/src/core/lv_obj_style_gen.h ****     return (lv_opa_t)v.num;
 407:Drivers/lvgl/src/core/lv_obj_style_gen.h **** }
 408:Drivers/lvgl/src/core/lv_obj_style_gen.h **** 
 409:Drivers/lvgl/src/core/lv_obj_style_gen.h **** static inline lv_coord_t lv_obj_get_style_arc_width(const struct _lv_obj_t * obj, uint32_t part)
 410:Drivers/lvgl/src/core/lv_obj_style_gen.h **** {
 411:Drivers/lvgl/src/core/lv_obj_style_gen.h ****     lv_style_value_t v = lv_obj_get_style_prop(obj, part, LV_STYLE_ARC_WIDTH);
 412:Drivers/lvgl/src/core/lv_obj_style_gen.h ****     return (lv_coord_t)v.num;
 413:Drivers/lvgl/src/core/lv_obj_style_gen.h **** }
 414:Drivers/lvgl/src/core/lv_obj_style_gen.h **** 
 415:Drivers/lvgl/src/core/lv_obj_style_gen.h **** static inline bool lv_obj_get_style_arc_rounded(const struct _lv_obj_t * obj, uint32_t part)
 416:Drivers/lvgl/src/core/lv_obj_style_gen.h **** {
 417:Drivers/lvgl/src/core/lv_obj_style_gen.h ****     lv_style_value_t v = lv_obj_get_style_prop(obj, part, LV_STYLE_ARC_ROUNDED);
 418:Drivers/lvgl/src/core/lv_obj_style_gen.h ****     return (bool)v.num;
ARM GAS  /var/folders/0z/tsy30v1j4xl4_7kw94k978ww0000gn/T//ccRTPM70.s 			page 95


 419:Drivers/lvgl/src/core/lv_obj_style_gen.h **** }
 420:Drivers/lvgl/src/core/lv_obj_style_gen.h **** 
 421:Drivers/lvgl/src/core/lv_obj_style_gen.h **** static inline lv_color_t lv_obj_get_style_arc_color(const struct _lv_obj_t * obj, uint32_t part)
 422:Drivers/lvgl/src/core/lv_obj_style_gen.h **** {
 423:Drivers/lvgl/src/core/lv_obj_style_gen.h ****     lv_style_value_t v = lv_obj_get_style_prop(obj, part, LV_STYLE_ARC_COLOR);
 424:Drivers/lvgl/src/core/lv_obj_style_gen.h ****     return v.color;
 425:Drivers/lvgl/src/core/lv_obj_style_gen.h **** }
 426:Drivers/lvgl/src/core/lv_obj_style_gen.h **** 
 427:Drivers/lvgl/src/core/lv_obj_style_gen.h **** static inline lv_color_t lv_obj_get_style_arc_color_filtered(const struct _lv_obj_t * obj, uint32_t
 428:Drivers/lvgl/src/core/lv_obj_style_gen.h **** {
 429:Drivers/lvgl/src/core/lv_obj_style_gen.h ****     lv_style_value_t v = _lv_obj_style_apply_color_filter(obj, part, lv_obj_get_style_prop(obj, par
 430:Drivers/lvgl/src/core/lv_obj_style_gen.h ****     return v.color;
 431:Drivers/lvgl/src/core/lv_obj_style_gen.h **** }
 432:Drivers/lvgl/src/core/lv_obj_style_gen.h **** 
 433:Drivers/lvgl/src/core/lv_obj_style_gen.h **** static inline lv_opa_t lv_obj_get_style_arc_opa(const struct _lv_obj_t * obj, uint32_t part)
 434:Drivers/lvgl/src/core/lv_obj_style_gen.h **** {
 435:Drivers/lvgl/src/core/lv_obj_style_gen.h ****     lv_style_value_t v = lv_obj_get_style_prop(obj, part, LV_STYLE_ARC_OPA);
 436:Drivers/lvgl/src/core/lv_obj_style_gen.h ****     return (lv_opa_t)v.num;
 437:Drivers/lvgl/src/core/lv_obj_style_gen.h **** }
 438:Drivers/lvgl/src/core/lv_obj_style_gen.h **** 
 439:Drivers/lvgl/src/core/lv_obj_style_gen.h **** static inline const void * lv_obj_get_style_arc_img_src(const struct _lv_obj_t * obj, uint32_t part
 440:Drivers/lvgl/src/core/lv_obj_style_gen.h **** {
 441:Drivers/lvgl/src/core/lv_obj_style_gen.h ****     lv_style_value_t v = lv_obj_get_style_prop(obj, part, LV_STYLE_ARC_IMG_SRC);
 442:Drivers/lvgl/src/core/lv_obj_style_gen.h ****     return (const void *)v.ptr;
 443:Drivers/lvgl/src/core/lv_obj_style_gen.h **** }
 444:Drivers/lvgl/src/core/lv_obj_style_gen.h **** 
 445:Drivers/lvgl/src/core/lv_obj_style_gen.h **** static inline lv_color_t lv_obj_get_style_text_color(const struct _lv_obj_t * obj, uint32_t part)
 446:Drivers/lvgl/src/core/lv_obj_style_gen.h **** {
 447:Drivers/lvgl/src/core/lv_obj_style_gen.h ****     lv_style_value_t v = lv_obj_get_style_prop(obj, part, LV_STYLE_TEXT_COLOR);
 448:Drivers/lvgl/src/core/lv_obj_style_gen.h ****     return v.color;
 449:Drivers/lvgl/src/core/lv_obj_style_gen.h **** }
 450:Drivers/lvgl/src/core/lv_obj_style_gen.h **** 
 451:Drivers/lvgl/src/core/lv_obj_style_gen.h **** static inline lv_color_t lv_obj_get_style_text_color_filtered(const struct _lv_obj_t * obj, uint32_
 452:Drivers/lvgl/src/core/lv_obj_style_gen.h **** {
 453:Drivers/lvgl/src/core/lv_obj_style_gen.h ****     lv_style_value_t v = _lv_obj_style_apply_color_filter(obj, part, lv_obj_get_style_prop(obj, par
 454:Drivers/lvgl/src/core/lv_obj_style_gen.h ****     return v.color;
 455:Drivers/lvgl/src/core/lv_obj_style_gen.h **** }
 456:Drivers/lvgl/src/core/lv_obj_style_gen.h **** 
 457:Drivers/lvgl/src/core/lv_obj_style_gen.h **** static inline lv_opa_t lv_obj_get_style_text_opa(const struct _lv_obj_t * obj, uint32_t part)
 458:Drivers/lvgl/src/core/lv_obj_style_gen.h **** {
 459:Drivers/lvgl/src/core/lv_obj_style_gen.h ****     lv_style_value_t v = lv_obj_get_style_prop(obj, part, LV_STYLE_TEXT_OPA);
 460:Drivers/lvgl/src/core/lv_obj_style_gen.h ****     return (lv_opa_t)v.num;
 461:Drivers/lvgl/src/core/lv_obj_style_gen.h **** }
 462:Drivers/lvgl/src/core/lv_obj_style_gen.h **** 
 463:Drivers/lvgl/src/core/lv_obj_style_gen.h **** static inline const lv_font_t * lv_obj_get_style_text_font(const struct _lv_obj_t * obj, uint32_t p
 464:Drivers/lvgl/src/core/lv_obj_style_gen.h **** {
 465:Drivers/lvgl/src/core/lv_obj_style_gen.h ****     lv_style_value_t v = lv_obj_get_style_prop(obj, part, LV_STYLE_TEXT_FONT);
 466:Drivers/lvgl/src/core/lv_obj_style_gen.h ****     return (const lv_font_t *)v.ptr;
 467:Drivers/lvgl/src/core/lv_obj_style_gen.h **** }
 468:Drivers/lvgl/src/core/lv_obj_style_gen.h **** 
 469:Drivers/lvgl/src/core/lv_obj_style_gen.h **** static inline lv_coord_t lv_obj_get_style_text_letter_space(const struct _lv_obj_t * obj, uint32_t 
 470:Drivers/lvgl/src/core/lv_obj_style_gen.h **** {
 471:Drivers/lvgl/src/core/lv_obj_style_gen.h ****     lv_style_value_t v = lv_obj_get_style_prop(obj, part, LV_STYLE_TEXT_LETTER_SPACE);
 472:Drivers/lvgl/src/core/lv_obj_style_gen.h ****     return (lv_coord_t)v.num;
 473:Drivers/lvgl/src/core/lv_obj_style_gen.h **** }
 474:Drivers/lvgl/src/core/lv_obj_style_gen.h **** 
 475:Drivers/lvgl/src/core/lv_obj_style_gen.h **** static inline lv_coord_t lv_obj_get_style_text_line_space(const struct _lv_obj_t * obj, uint32_t pa
ARM GAS  /var/folders/0z/tsy30v1j4xl4_7kw94k978ww0000gn/T//ccRTPM70.s 			page 96


 476:Drivers/lvgl/src/core/lv_obj_style_gen.h **** {
 477:Drivers/lvgl/src/core/lv_obj_style_gen.h ****     lv_style_value_t v = lv_obj_get_style_prop(obj, part, LV_STYLE_TEXT_LINE_SPACE);
 478:Drivers/lvgl/src/core/lv_obj_style_gen.h ****     return (lv_coord_t)v.num;
 479:Drivers/lvgl/src/core/lv_obj_style_gen.h **** }
 480:Drivers/lvgl/src/core/lv_obj_style_gen.h **** 
 481:Drivers/lvgl/src/core/lv_obj_style_gen.h **** static inline lv_text_decor_t lv_obj_get_style_text_decor(const struct _lv_obj_t * obj, uint32_t pa
 482:Drivers/lvgl/src/core/lv_obj_style_gen.h **** {
 483:Drivers/lvgl/src/core/lv_obj_style_gen.h ****     lv_style_value_t v = lv_obj_get_style_prop(obj, part, LV_STYLE_TEXT_DECOR);
 484:Drivers/lvgl/src/core/lv_obj_style_gen.h ****     return (lv_text_decor_t)v.num;
 485:Drivers/lvgl/src/core/lv_obj_style_gen.h **** }
 486:Drivers/lvgl/src/core/lv_obj_style_gen.h **** 
 487:Drivers/lvgl/src/core/lv_obj_style_gen.h **** static inline lv_text_align_t lv_obj_get_style_text_align(const struct _lv_obj_t * obj, uint32_t pa
 488:Drivers/lvgl/src/core/lv_obj_style_gen.h **** {
 489:Drivers/lvgl/src/core/lv_obj_style_gen.h ****     lv_style_value_t v = lv_obj_get_style_prop(obj, part, LV_STYLE_TEXT_ALIGN);
 490:Drivers/lvgl/src/core/lv_obj_style_gen.h ****     return (lv_text_align_t)v.num;
 491:Drivers/lvgl/src/core/lv_obj_style_gen.h **** }
 492:Drivers/lvgl/src/core/lv_obj_style_gen.h **** 
 493:Drivers/lvgl/src/core/lv_obj_style_gen.h **** static inline lv_coord_t lv_obj_get_style_radius(const struct _lv_obj_t * obj, uint32_t part)
 494:Drivers/lvgl/src/core/lv_obj_style_gen.h **** {
 495:Drivers/lvgl/src/core/lv_obj_style_gen.h ****     lv_style_value_t v = lv_obj_get_style_prop(obj, part, LV_STYLE_RADIUS);
 496:Drivers/lvgl/src/core/lv_obj_style_gen.h ****     return (lv_coord_t)v.num;
 497:Drivers/lvgl/src/core/lv_obj_style_gen.h **** }
 498:Drivers/lvgl/src/core/lv_obj_style_gen.h **** 
 499:Drivers/lvgl/src/core/lv_obj_style_gen.h **** static inline bool lv_obj_get_style_clip_corner(const struct _lv_obj_t * obj, uint32_t part)
 500:Drivers/lvgl/src/core/lv_obj_style_gen.h **** {
 501:Drivers/lvgl/src/core/lv_obj_style_gen.h ****     lv_style_value_t v = lv_obj_get_style_prop(obj, part, LV_STYLE_CLIP_CORNER);
 502:Drivers/lvgl/src/core/lv_obj_style_gen.h ****     return (bool)v.num;
 503:Drivers/lvgl/src/core/lv_obj_style_gen.h **** }
 504:Drivers/lvgl/src/core/lv_obj_style_gen.h **** 
 505:Drivers/lvgl/src/core/lv_obj_style_gen.h **** static inline lv_opa_t lv_obj_get_style_opa(const struct _lv_obj_t * obj, uint32_t part)
 506:Drivers/lvgl/src/core/lv_obj_style_gen.h **** {
 507:Drivers/lvgl/src/core/lv_obj_style_gen.h ****     lv_style_value_t v = lv_obj_get_style_prop(obj, part, LV_STYLE_OPA);
 508:Drivers/lvgl/src/core/lv_obj_style_gen.h ****     return (lv_opa_t)v.num;
 509:Drivers/lvgl/src/core/lv_obj_style_gen.h **** }
 510:Drivers/lvgl/src/core/lv_obj_style_gen.h **** 
 511:Drivers/lvgl/src/core/lv_obj_style_gen.h **** static inline lv_opa_t lv_obj_get_style_opa_layered(const struct _lv_obj_t * obj, uint32_t part)
 2789              		.loc 3 511 24 view .LVU893
 2790              	.LBB116:
 512:Drivers/lvgl/src/core/lv_obj_style_gen.h **** {
 513:Drivers/lvgl/src/core/lv_obj_style_gen.h ****     lv_style_value_t v = lv_obj_get_style_prop(obj, part, LV_STYLE_OPA_LAYERED);
 2791              		.loc 3 513 5 view .LVU894
 2792              		.loc 3 513 26 is_stmt 0 view .LVU895
 2793 002e 6122     		movs	r2, #97
 2794 0030 0021     		movs	r1, #0
 2795 0032 2046     		mov	r0, r4
 2796              	.LVL258:
 2797              		.loc 3 513 26 view .LVU896
 2798 0034 FFF7FEFF 		bl	lv_obj_get_style_prop
 2799              	.LVL259:
 514:Drivers/lvgl/src/core/lv_obj_style_gen.h ****     return (lv_opa_t)v.num;
 2800              		.loc 3 514 5 is_stmt 1 view .LVU897
 2801              		.loc 3 514 12 is_stmt 0 view .LVU898
 2802 0038 5FFA80F8 		uxtb	r8, r0
 2803              	.LVL260:
 2804              		.loc 3 514 12 view .LVU899
 2805              	.LBE116:
 2806              	.LBE115:
ARM GAS  /var/folders/0z/tsy30v1j4xl4_7kw94k978ww0000gn/T//ccRTPM70.s 			page 97


 978:Drivers/lvgl/src/core/lv_refr.c **** 
 2807              		.loc 1 978 9 is_stmt 1 view .LVU900
 978:Drivers/lvgl/src/core/lv_refr.c **** 
 2808              		.loc 1 978 11 is_stmt 0 view .LVU901
 2809 003c B8F1010F 		cmp	r8, #1
 2810 0040 E8D9     		bls	.L181
 980:Drivers/lvgl/src/core/lv_refr.c ****         lv_res_t res = layer_get_area(draw_ctx, obj, layer_type, &layer_area_full);
 2811              		.loc 1 980 9 is_stmt 1 view .LVU902
 981:Drivers/lvgl/src/core/lv_refr.c ****         if(res != LV_RES_OK) return;
 2812              		.loc 1 981 9 view .LVU903
 981:Drivers/lvgl/src/core/lv_refr.c ****         if(res != LV_RES_OK) return;
 2813              		.loc 1 981 24 is_stmt 0 view .LVU904
 2814 0042 02AB     		add	r3, sp, #8
 2815 0044 3246     		mov	r2, r6
 2816 0046 2146     		mov	r1, r4
 2817 0048 2846     		mov	r0, r5
 2818 004a FFF7FEFF 		bl	layer_get_area
 2819              	.LVL261:
 2820 004e 0746     		mov	r7, r0
 2821              	.LVL262:
 982:Drivers/lvgl/src/core/lv_refr.c **** 
 2822              		.loc 1 982 9 is_stmt 1 view .LVU905
 982:Drivers/lvgl/src/core/lv_refr.c **** 
 2823              		.loc 1 982 11 is_stmt 0 view .LVU906
 2824 0050 0128     		cmp	r0, #1
 2825 0052 DFD1     		bne	.L181
 984:Drivers/lvgl/src/core/lv_refr.c **** 
 2826              		.loc 1 984 9 is_stmt 1 view .LVU907
 2827              	.LVL263:
 986:Drivers/lvgl/src/core/lv_refr.c ****             lv_cover_check_info_t info;
 2828              		.loc 1 986 9 view .LVU908
 986:Drivers/lvgl/src/core/lv_refr.c ****             lv_cover_check_info_t info;
 2829              		.loc 1 986 12 is_stmt 0 view .LVU909
 2830 0054 0022     		movs	r2, #0
 2831 0056 04F11401 		add	r1, r4, #20
 2832 005a 02A8     		add	r0, sp, #8
 2833              	.LVL264:
 986:Drivers/lvgl/src/core/lv_refr.c ****             lv_cover_check_info_t info;
 2834              		.loc 1 986 12 view .LVU910
 2835 005c FFF7FEFF 		bl	_lv_area_is_in
 2836              	.LVL265:
 986:Drivers/lvgl/src/core/lv_refr.c ****             lv_cover_check_info_t info;
 2837              		.loc 1 986 11 view .LVU911
 2838 0060 0028     		cmp	r0, #0
 2839 0062 6ED1     		bne	.L203
 2840              	.LVL266:
 2841              	.L185:
 994:Drivers/lvgl/src/core/lv_refr.c **** 
 2842              		.loc 1 994 9 is_stmt 1 view .LVU912
 994:Drivers/lvgl/src/core/lv_refr.c **** 
 2843              		.loc 1 994 11 is_stmt 0 view .LVU913
 2844 0064 012E     		cmp	r6, #1
 2845 0066 7CD0     		beq	.L204
 2846              	.L187:
 996:Drivers/lvgl/src/core/lv_refr.c ****         if(layer_ctx == NULL) {
 2847              		.loc 1 996 9 is_stmt 1 view .LVU914
 996:Drivers/lvgl/src/core/lv_refr.c ****         if(layer_ctx == NULL) {
ARM GAS  /var/folders/0z/tsy30v1j4xl4_7kw94k978ww0000gn/T//ccRTPM70.s 			page 98


 2848              		.loc 1 996 43 is_stmt 0 view .LVU915
 2849 0068 3A46     		mov	r2, r7
 2850 006a 02A9     		add	r1, sp, #8
 2851 006c 2846     		mov	r0, r5
 2852 006e FFF7FEFF 		bl	lv_draw_layer_create
 2853              	.LVL267:
 997:Drivers/lvgl/src/core/lv_refr.c ****             LV_LOG_WARN("Couldn't create a new layer context");
 2854              		.loc 1 997 9 is_stmt 1 view .LVU916
 997:Drivers/lvgl/src/core/lv_refr.c ****             LV_LOG_WARN("Couldn't create a new layer context");
 2855              		.loc 1 997 11 is_stmt 0 view .LVU917
 2856 0072 0646     		mov	r6, r0
 2857 0074 0028     		cmp	r0, #0
 2858 0076 CDD0     		beq	.L181
1001:Drivers/lvgl/src/core/lv_refr.c ****             .x = lv_obj_get_style_transform_pivot_x(obj, 0),
 2859              		.loc 1 1001 9 is_stmt 1 view .LVU918
 2860              	.LVL268:
 2861              	.LBB117:
 2862              	.LBI117:
  91:Drivers/lvgl/src/core/lv_obj_style_gen.h **** {
 2863              		.loc 3 91 26 view .LVU919
 2864              	.LBB118:
  93:Drivers/lvgl/src/core/lv_obj_style_gen.h ****     return (lv_coord_t)v.num;
 2865              		.loc 3 93 5 view .LVU920
  93:Drivers/lvgl/src/core/lv_obj_style_gen.h ****     return (lv_coord_t)v.num;
 2866              		.loc 3 93 26 is_stmt 0 view .LVU921
 2867 0078 6F22     		movs	r2, #111
 2868 007a 0021     		movs	r1, #0
 2869 007c 2046     		mov	r0, r4
 2870              	.LVL269:
  93:Drivers/lvgl/src/core/lv_obj_style_gen.h ****     return (lv_coord_t)v.num;
 2871              		.loc 3 93 26 view .LVU922
 2872 007e FFF7FEFF 		bl	lv_obj_get_style_prop
 2873              	.LVL270:
  94:Drivers/lvgl/src/core/lv_obj_style_gen.h **** }
 2874              		.loc 3 94 5 is_stmt 1 view .LVU923
  94:Drivers/lvgl/src/core/lv_obj_style_gen.h **** }
 2875              		.loc 3 94 12 is_stmt 0 view .LVU924
 2876 0082 0FFA80F9 		sxth	r9, r0
 2877              	.LVL271:
  94:Drivers/lvgl/src/core/lv_obj_style_gen.h **** }
 2878              		.loc 3 94 12 view .LVU925
 2879              	.LBE118:
 2880              	.LBE117:
1001:Drivers/lvgl/src/core/lv_refr.c ****             .x = lv_obj_get_style_transform_pivot_x(obj, 0),
 2881              		.loc 1 1001 20 view .LVU926
 2882 0086 ADF80490 		strh	r9, [sp, #4]	@ movhi
 2883              	.LVL272:
 2884              	.LBB119:
 2885              	.LBI119:
  97:Drivers/lvgl/src/core/lv_obj_style_gen.h **** {
 2886              		.loc 3 97 26 is_stmt 1 view .LVU927
 2887              	.LBB120:
  99:Drivers/lvgl/src/core/lv_obj_style_gen.h ****     return (lv_coord_t)v.num;
 2888              		.loc 3 99 5 view .LVU928
  99:Drivers/lvgl/src/core/lv_obj_style_gen.h ****     return (lv_coord_t)v.num;
 2889              		.loc 3 99 26 is_stmt 0 view .LVU929
 2890 008a 7022     		movs	r2, #112
ARM GAS  /var/folders/0z/tsy30v1j4xl4_7kw94k978ww0000gn/T//ccRTPM70.s 			page 99


 2891 008c 0021     		movs	r1, #0
 2892 008e 2046     		mov	r0, r4
 2893 0090 FFF7FEFF 		bl	lv_obj_get_style_prop
 2894              	.LVL273:
 100:Drivers/lvgl/src/core/lv_obj_style_gen.h **** }
 2895              		.loc 3 100 5 is_stmt 1 view .LVU930
 100:Drivers/lvgl/src/core/lv_obj_style_gen.h **** }
 2896              		.loc 3 100 12 is_stmt 0 view .LVU931
 2897 0094 03B2     		sxth	r3, r0
 2898              	.LVL274:
 100:Drivers/lvgl/src/core/lv_obj_style_gen.h **** }
 2899              		.loc 3 100 12 view .LVU932
 2900              	.LBE120:
 2901              	.LBE119:
1001:Drivers/lvgl/src/core/lv_refr.c ****             .x = lv_obj_get_style_transform_pivot_x(obj, 0),
 2902              		.loc 1 1001 20 view .LVU933
 2903 0096 ADF80630 		strh	r3, [sp, #6]	@ movhi
1006:Drivers/lvgl/src/core/lv_refr.c ****             pivot.x = (LV_COORD_GET_PCT(pivot.x) * lv_area_get_width(&obj->coords)) / 100;
 2904              		.loc 1 1006 9 is_stmt 1 view .LVU934
1006:Drivers/lvgl/src/core/lv_refr.c ****             pivot.x = (LV_COORD_GET_PCT(pivot.x) * lv_area_get_width(&obj->coords)) / 100;
 2905              		.loc 1 1006 11 is_stmt 0 view .LVU935
 2906 009a 09F4C042 		and	r2, r9, #24576
 2907 009e B2F5005F 		cmp	r2, #8192
 2908 00a2 62D0     		beq	.L205
 2909              	.L188:
1009:Drivers/lvgl/src/core/lv_refr.c ****             pivot.y = (LV_COORD_GET_PCT(pivot.y) * lv_area_get_height(&obj->coords)) / 100;
 2910              		.loc 1 1009 9 is_stmt 1 view .LVU936
1009:Drivers/lvgl/src/core/lv_refr.c ****             pivot.y = (LV_COORD_GET_PCT(pivot.y) * lv_area_get_height(&obj->coords)) / 100;
 2911              		.loc 1 1009 11 is_stmt 0 view .LVU937
 2912 00a4 03F4C042 		and	r2, r3, #24576
 2913 00a8 B2F5005F 		cmp	r2, #8192
 2914 00ac 78D0     		beq	.L206
 2915              	.L191:
1013:Drivers/lvgl/src/core/lv_refr.c ****         lv_draw_img_dsc_init(&draw_dsc);
 2916              		.loc 1 1013 9 is_stmt 1 view .LVU938
1014:Drivers/lvgl/src/core/lv_refr.c ****         draw_dsc.opa = opa;
 2917              		.loc 1 1014 9 view .LVU939
 2918 00ae 04A8     		add	r0, sp, #16
 2919 00b0 FFF7FEFF 		bl	lv_draw_img_dsc_init
 2920              	.LVL275:
1015:Drivers/lvgl/src/core/lv_refr.c ****         draw_dsc.angle = lv_obj_get_style_transform_angle(obj, 0);
 2921              		.loc 1 1015 9 view .LVU940
1015:Drivers/lvgl/src/core/lv_refr.c ****         draw_dsc.angle = lv_obj_get_style_transform_angle(obj, 0);
 2922              		.loc 1 1015 22 is_stmt 0 view .LVU941
 2923 00b4 8DF81B80 		strb	r8, [sp, #27]
1016:Drivers/lvgl/src/core/lv_refr.c ****         if(draw_dsc.angle > 3600) draw_dsc.angle -= 3600;
 2924              		.loc 1 1016 9 is_stmt 1 view .LVU942
 2925              	.LVL276:
 2926              	.LBB121:
 2927              	.LBI121:
  85:Drivers/lvgl/src/core/lv_obj_style_gen.h **** {
 2928              		.loc 3 85 26 view .LVU943
 2929              	.LBB122:
  87:Drivers/lvgl/src/core/lv_obj_style_gen.h ****     return (lv_coord_t)v.num;
 2930              		.loc 3 87 5 view .LVU944
  87:Drivers/lvgl/src/core/lv_obj_style_gen.h ****     return (lv_coord_t)v.num;
 2931              		.loc 3 87 26 is_stmt 0 view .LVU945
ARM GAS  /var/folders/0z/tsy30v1j4xl4_7kw94k978ww0000gn/T//ccRTPM70.s 			page 100


 2932 00b8 6E22     		movs	r2, #110
 2933 00ba 0021     		movs	r1, #0
 2934 00bc 2046     		mov	r0, r4
 2935 00be FFF7FEFF 		bl	lv_obj_get_style_prop
 2936              	.LVL277:
  88:Drivers/lvgl/src/core/lv_obj_style_gen.h **** }
 2937              		.loc 3 88 5 is_stmt 1 view .LVU946
  88:Drivers/lvgl/src/core/lv_obj_style_gen.h **** }
 2938              		.loc 3 88 12 is_stmt 0 view .LVU947
 2939 00c2 00B2     		sxth	r0, r0
 2940              	.LVL278:
  88:Drivers/lvgl/src/core/lv_obj_style_gen.h **** }
 2941              		.loc 3 88 12 view .LVU948
 2942              	.LBE122:
 2943              	.LBE121:
1016:Drivers/lvgl/src/core/lv_refr.c ****         if(draw_dsc.angle > 3600) draw_dsc.angle -= 3600;
 2944              		.loc 1 1016 24 view .LVU949
 2945 00c4 ADF81000 		strh	r0, [sp, #16]	@ movhi
1017:Drivers/lvgl/src/core/lv_refr.c ****         else if(draw_dsc.angle < 0) draw_dsc.angle += 3600;
 2946              		.loc 1 1017 9 is_stmt 1 view .LVU950
1017:Drivers/lvgl/src/core/lv_refr.c ****         else if(draw_dsc.angle < 0) draw_dsc.angle += 3600;
 2947              		.loc 1 1017 11 is_stmt 0 view .LVU951
 2948 00c8 B0F5616F 		cmp	r0, #3600
 2949 00cc 40F38380 		ble	.L194
1017:Drivers/lvgl/src/core/lv_refr.c ****         else if(draw_dsc.angle < 0) draw_dsc.angle += 3600;
 2950              		.loc 1 1017 35 is_stmt 1 discriminator 1 view .LVU952
1017:Drivers/lvgl/src/core/lv_refr.c ****         else if(draw_dsc.angle < 0) draw_dsc.angle += 3600;
 2951              		.loc 1 1017 50 is_stmt 0 discriminator 1 view .LVU953
 2952 00d0 A0F56160 		sub	r0, r0, #3600
 2953 00d4 ADF81000 		strh	r0, [sp, #16]	@ movhi
 2954              	.L195:
1020:Drivers/lvgl/src/core/lv_refr.c ****         draw_dsc.blend_mode = lv_obj_get_style_blend_mode(obj, 0);
 2955              		.loc 1 1020 9 is_stmt 1 view .LVU954
 2956              	.LVL279:
 2957              	.LBB123:
 2958              	.LBI123:
  79:Drivers/lvgl/src/core/lv_obj_style_gen.h **** {
 2959              		.loc 3 79 26 view .LVU955
 2960              	.LBB124:
  81:Drivers/lvgl/src/core/lv_obj_style_gen.h ****     return (lv_coord_t)v.num;
 2961              		.loc 3 81 5 view .LVU956
  81:Drivers/lvgl/src/core/lv_obj_style_gen.h ****     return (lv_coord_t)v.num;
 2962              		.loc 3 81 26 is_stmt 0 view .LVU957
 2963 00d8 6D22     		movs	r2, #109
 2964 00da 0021     		movs	r1, #0
 2965 00dc 2046     		mov	r0, r4
 2966 00de FFF7FEFF 		bl	lv_obj_get_style_prop
 2967              	.LVL280:
  82:Drivers/lvgl/src/core/lv_obj_style_gen.h **** }
 2968              		.loc 3 82 5 is_stmt 1 view .LVU958
  82:Drivers/lvgl/src/core/lv_obj_style_gen.h **** }
 2969              		.loc 3 82 5 is_stmt 0 view .LVU959
 2970              	.LBE124:
 2971              	.LBE123:
1020:Drivers/lvgl/src/core/lv_refr.c ****         draw_dsc.blend_mode = lv_obj_get_style_blend_mode(obj, 0);
 2972              		.loc 1 1020 23 view .LVU960
 2973 00e2 ADF81200 		strh	r0, [sp, #18]	@ movhi
ARM GAS  /var/folders/0z/tsy30v1j4xl4_7kw94k978ww0000gn/T//ccRTPM70.s 			page 101


1021:Drivers/lvgl/src/core/lv_refr.c ****         draw_dsc.antialias = disp_refr->driver->antialiasing;
 2974              		.loc 1 1021 9 is_stmt 1 view .LVU961
 2975              	.LVL281:
 2976              	.LBB125:
 2977              	.LBI125:
 515:Drivers/lvgl/src/core/lv_obj_style_gen.h **** }
 516:Drivers/lvgl/src/core/lv_obj_style_gen.h **** 
 517:Drivers/lvgl/src/core/lv_obj_style_gen.h **** static inline const lv_color_filter_dsc_t * lv_obj_get_style_color_filter_dsc(const struct _lv_obj_
 518:Drivers/lvgl/src/core/lv_obj_style_gen.h **** {
 519:Drivers/lvgl/src/core/lv_obj_style_gen.h ****     lv_style_value_t v = lv_obj_get_style_prop(obj, part, LV_STYLE_COLOR_FILTER_DSC);
 520:Drivers/lvgl/src/core/lv_obj_style_gen.h ****     return (const lv_color_filter_dsc_t *)v.ptr;
 521:Drivers/lvgl/src/core/lv_obj_style_gen.h **** }
 522:Drivers/lvgl/src/core/lv_obj_style_gen.h **** 
 523:Drivers/lvgl/src/core/lv_obj_style_gen.h **** static inline lv_opa_t lv_obj_get_style_color_filter_opa(const struct _lv_obj_t * obj, uint32_t par
 524:Drivers/lvgl/src/core/lv_obj_style_gen.h **** {
 525:Drivers/lvgl/src/core/lv_obj_style_gen.h ****     lv_style_value_t v = lv_obj_get_style_prop(obj, part, LV_STYLE_COLOR_FILTER_OPA);
 526:Drivers/lvgl/src/core/lv_obj_style_gen.h ****     return (lv_opa_t)v.num;
 527:Drivers/lvgl/src/core/lv_obj_style_gen.h **** }
 528:Drivers/lvgl/src/core/lv_obj_style_gen.h **** 
 529:Drivers/lvgl/src/core/lv_obj_style_gen.h **** static inline const lv_anim_t * lv_obj_get_style_anim(const struct _lv_obj_t * obj, uint32_t part)
 530:Drivers/lvgl/src/core/lv_obj_style_gen.h **** {
 531:Drivers/lvgl/src/core/lv_obj_style_gen.h ****     lv_style_value_t v = lv_obj_get_style_prop(obj, part, LV_STYLE_ANIM);
 532:Drivers/lvgl/src/core/lv_obj_style_gen.h ****     return (const lv_anim_t *)v.ptr;
 533:Drivers/lvgl/src/core/lv_obj_style_gen.h **** }
 534:Drivers/lvgl/src/core/lv_obj_style_gen.h **** 
 535:Drivers/lvgl/src/core/lv_obj_style_gen.h **** static inline uint32_t lv_obj_get_style_anim_time(const struct _lv_obj_t * obj, uint32_t part)
 536:Drivers/lvgl/src/core/lv_obj_style_gen.h **** {
 537:Drivers/lvgl/src/core/lv_obj_style_gen.h ****     lv_style_value_t v = lv_obj_get_style_prop(obj, part, LV_STYLE_ANIM_TIME);
 538:Drivers/lvgl/src/core/lv_obj_style_gen.h ****     return (uint32_t)v.num;
 539:Drivers/lvgl/src/core/lv_obj_style_gen.h **** }
 540:Drivers/lvgl/src/core/lv_obj_style_gen.h **** 
 541:Drivers/lvgl/src/core/lv_obj_style_gen.h **** static inline uint32_t lv_obj_get_style_anim_speed(const struct _lv_obj_t * obj, uint32_t part)
 542:Drivers/lvgl/src/core/lv_obj_style_gen.h **** {
 543:Drivers/lvgl/src/core/lv_obj_style_gen.h ****     lv_style_value_t v = lv_obj_get_style_prop(obj, part, LV_STYLE_ANIM_SPEED);
 544:Drivers/lvgl/src/core/lv_obj_style_gen.h ****     return (uint32_t)v.num;
 545:Drivers/lvgl/src/core/lv_obj_style_gen.h **** }
 546:Drivers/lvgl/src/core/lv_obj_style_gen.h **** 
 547:Drivers/lvgl/src/core/lv_obj_style_gen.h **** static inline const lv_style_transition_dsc_t * lv_obj_get_style_transition(const struct _lv_obj_t 
 548:Drivers/lvgl/src/core/lv_obj_style_gen.h **** {
 549:Drivers/lvgl/src/core/lv_obj_style_gen.h ****     lv_style_value_t v = lv_obj_get_style_prop(obj, part, LV_STYLE_TRANSITION);
 550:Drivers/lvgl/src/core/lv_obj_style_gen.h ****     return (const lv_style_transition_dsc_t *)v.ptr;
 551:Drivers/lvgl/src/core/lv_obj_style_gen.h **** }
 552:Drivers/lvgl/src/core/lv_obj_style_gen.h **** 
 553:Drivers/lvgl/src/core/lv_obj_style_gen.h **** static inline lv_blend_mode_t lv_obj_get_style_blend_mode(const struct _lv_obj_t * obj, uint32_t pa
 2978              		.loc 3 553 31 view .LVU962
 2979              	.LBB126:
 554:Drivers/lvgl/src/core/lv_obj_style_gen.h **** {
 555:Drivers/lvgl/src/core/lv_obj_style_gen.h ****     lv_style_value_t v = lv_obj_get_style_prop(obj, part, LV_STYLE_BLEND_MODE);
 2980              		.loc 3 555 5 view .LVU963
 2981              		.loc 3 555 26 is_stmt 0 view .LVU964
 2982 00e6 6822     		movs	r2, #104
 2983 00e8 0021     		movs	r1, #0
 2984 00ea 2046     		mov	r0, r4
 2985 00ec FFF7FEFF 		bl	lv_obj_get_style_prop
 2986              	.LVL282:
 556:Drivers/lvgl/src/core/lv_obj_style_gen.h ****     return (lv_blend_mode_t)v.num;
 2987              		.loc 3 556 5 is_stmt 1 view .LVU965
ARM GAS  /var/folders/0z/tsy30v1j4xl4_7kw94k978ww0000gn/T//ccRTPM70.s 			page 102


 2988              		.loc 3 556 5 is_stmt 0 view .LVU966
 2989              	.LBE126:
 2990              	.LBE125:
1021:Drivers/lvgl/src/core/lv_refr.c ****         draw_dsc.antialias = disp_refr->driver->antialiasing;
 2991              		.loc 1 1021 29 view .LVU967
 2992 00f0 9DF81C30 		ldrb	r3, [sp, #28]	@ zero_extendqisi2
 2993 00f4 60F30303 		bfi	r3, r0, #0, #4
 2994 00f8 8DF81C30 		strb	r3, [sp, #28]
1022:Drivers/lvgl/src/core/lv_refr.c **** 
 2995              		.loc 1 1022 9 is_stmt 1 view .LVU968
1022:Drivers/lvgl/src/core/lv_refr.c **** 
 2996              		.loc 1 1022 39 is_stmt 0 view .LVU969
 2997 00fc 584B     		ldr	r3, .L207
 2998 00fe 1B68     		ldr	r3, [r3]
 2999 0100 1B68     		ldr	r3, [r3]
1022:Drivers/lvgl/src/core/lv_refr.c **** 
 3000              		.loc 1 1022 47 view .LVU970
 3001 0102 1B7C     		ldrb	r3, [r3, #16]	@ zero_extendqisi2
 3002 0104 C3F3C003 		ubfx	r3, r3, #3, #1
1022:Drivers/lvgl/src/core/lv_refr.c **** 
 3003              		.loc 1 1022 28 view .LVU971
 3004 0108 9DF82420 		ldrb	r2, [sp, #36]	@ zero_extendqisi2
 3005 010c 63F30002 		bfi	r2, r3, #0, #1
 3006 0110 8DF82420 		strb	r2, [sp, #36]
1024:Drivers/lvgl/src/core/lv_refr.c ****             layer_ctx->area_act = layer_ctx->area_full;
 3007              		.loc 1 1024 9 is_stmt 1 view .LVU972
1024:Drivers/lvgl/src/core/lv_refr.c ****             layer_ctx->area_act = layer_ctx->area_full;
 3008              		.loc 1 1024 11 is_stmt 0 view .LVU973
 3009 0114 17F00208 		ands	r8, r7, #2
 3010              	.LVL283:
1024:Drivers/lvgl/src/core/lv_refr.c ****             layer_ctx->area_act = layer_ctx->area_full;
 3011              		.loc 1 1024 11 view .LVU974
 3012 0118 00F08D80 		beq	.L199
1025:Drivers/lvgl/src/core/lv_refr.c ****             layer_ctx->area_act.y2 = layer_ctx->area_act.y1 + layer_ctx->max_row_with_no_alpha - 1;
 3013              		.loc 1 1025 13 is_stmt 1 view .LVU975
1025:Drivers/lvgl/src/core/lv_refr.c ****             layer_ctx->area_act.y2 = layer_ctx->area_act.y1 + layer_ctx->max_row_with_no_alpha - 1;
 3014              		.loc 1 1025 33 is_stmt 0 view .LVU976
 3015 011c 06F10803 		add	r3, r6, #8
 3016 0120 96E80300 		ldm	r6, {r0, r1}
 3017 0124 83E80300 		stm	r3, {r0, r1}
1026:Drivers/lvgl/src/core/lv_refr.c ****             if(layer_ctx->area_act.y2 > layer_ctx->area_full.y2) layer_ctx->area_act.y2 = layer_ctx
 3018              		.loc 1 1026 13 is_stmt 1 view .LVU977
1026:Drivers/lvgl/src/core/lv_refr.c ****             if(layer_ctx->area_act.y2 > layer_ctx->area_full.y2) layer_ctx->area_act.y2 = layer_ctx
 3019              		.loc 1 1026 57 is_stmt 0 view .LVU978
 3020 0128 7389     		ldrh	r3, [r6, #10]
1026:Drivers/lvgl/src/core/lv_refr.c ****             if(layer_ctx->area_act.y2 > layer_ctx->area_full.y2) layer_ctx->area_act.y2 = layer_ctx
 3021              		.loc 1 1026 72 view .LVU979
 3022 012a 728A     		ldrh	r2, [r6, #18]
1026:Drivers/lvgl/src/core/lv_refr.c ****             if(layer_ctx->area_act.y2 > layer_ctx->area_full.y2) layer_ctx->area_act.y2 = layer_ctx
 3023              		.loc 1 1026 61 view .LVU980
 3024 012c 1344     		add	r3, r3, r2
 3025 012e 9BB2     		uxth	r3, r3
1026:Drivers/lvgl/src/core/lv_refr.c ****             if(layer_ctx->area_act.y2 > layer_ctx->area_full.y2) layer_ctx->area_act.y2 = layer_ctx
 3026              		.loc 1 1026 96 view .LVU981
 3027 0130 013B     		subs	r3, r3, #1
 3028 0132 1BB2     		sxth	r3, r3
1026:Drivers/lvgl/src/core/lv_refr.c ****             if(layer_ctx->area_act.y2 > layer_ctx->area_full.y2) layer_ctx->area_act.y2 = layer_ctx
ARM GAS  /var/folders/0z/tsy30v1j4xl4_7kw94k978ww0000gn/T//ccRTPM70.s 			page 103


 3029              		.loc 1 1026 36 view .LVU982
 3030 0134 F381     		strh	r3, [r6, #14]	@ movhi
1027:Drivers/lvgl/src/core/lv_refr.c ****         }
 3031              		.loc 1 1027 13 is_stmt 1 view .LVU983
1027:Drivers/lvgl/src/core/lv_refr.c ****         }
 3032              		.loc 1 1027 61 is_stmt 0 view .LVU984
 3033 0136 B6F90620 		ldrsh	r2, [r6, #6]
1027:Drivers/lvgl/src/core/lv_refr.c ****         }
 3034              		.loc 1 1027 15 view .LVU985
 3035 013a 9342     		cmp	r3, r2
 3036 013c 7BDD     		ble	.L199
1027:Drivers/lvgl/src/core/lv_refr.c ****         }
 3037              		.loc 1 1027 66 is_stmt 1 discriminator 1 view .LVU986
1027:Drivers/lvgl/src/core/lv_refr.c ****         }
 3038              		.loc 1 1027 89 is_stmt 0 discriminator 1 view .LVU987
 3039 013e F281     		strh	r2, [r6, #14]	@ movhi
 3040 0140 79E0     		b	.L199
 3041              	.LVL284:
 3042              	.L203:
 3043              	.LBB127:
 987:Drivers/lvgl/src/core/lv_refr.c ****             info.res = LV_COVER_RES_COVER;
 3044              		.loc 1 987 13 is_stmt 1 view .LVU988
 988:Drivers/lvgl/src/core/lv_refr.c ****             info.area = &layer_area_full;
 3045              		.loc 1 988 13 view .LVU989
 988:Drivers/lvgl/src/core/lv_refr.c ****             info.area = &layer_area_full;
 3046              		.loc 1 988 22 is_stmt 0 view .LVU990
 3047 0142 0023     		movs	r3, #0
 3048 0144 8DF81030 		strb	r3, [sp, #16]
 989:Drivers/lvgl/src/core/lv_refr.c ****             lv_event_send(obj, LV_EVENT_COVER_CHECK, &info);
 3049              		.loc 1 989 13 is_stmt 1 view .LVU991
 989:Drivers/lvgl/src/core/lv_refr.c ****             lv_event_send(obj, LV_EVENT_COVER_CHECK, &info);
 3050              		.loc 1 989 23 is_stmt 0 view .LVU992
 3051 0148 02AB     		add	r3, sp, #8
 3052 014a 0593     		str	r3, [sp, #20]
 990:Drivers/lvgl/src/core/lv_refr.c ****             if(info.res == LV_COVER_RES_COVER) flags &= ~LV_DRAW_LAYER_FLAG_HAS_ALPHA;
 3053              		.loc 1 990 13 is_stmt 1 view .LVU993
 3054 014c 04AA     		add	r2, sp, #16
 3055 014e 1221     		movs	r1, #18
 3056 0150 2046     		mov	r0, r4
 3057 0152 FFF7FEFF 		bl	lv_event_send
 3058              	.LVL285:
 991:Drivers/lvgl/src/core/lv_refr.c ****         }
 3059              		.loc 1 991 13 view .LVU994
 991:Drivers/lvgl/src/core/lv_refr.c ****         }
 3060              		.loc 1 991 20 is_stmt 0 view .LVU995
 3061 0156 9DF81030 		ldrb	r3, [sp, #16]	@ zero_extendqisi2
 991:Drivers/lvgl/src/core/lv_refr.c ****         }
 3062              		.loc 1 991 15 view .LVU996
 3063 015a 03B1     		cbz	r3, .L186
 3064              	.LBE127:
 984:Drivers/lvgl/src/core/lv_refr.c **** 
 3065              		.loc 1 984 31 view .LVU997
 3066 015c 3B46     		mov	r3, r7
 3067              	.L186:
 3068              	.LVL286:
 3069              	.LBB128:
 984:Drivers/lvgl/src/core/lv_refr.c **** 
ARM GAS  /var/folders/0z/tsy30v1j4xl4_7kw94k978ww0000gn/T//ccRTPM70.s 			page 104


 3070              		.loc 1 984 31 view .LVU998
 3071 015e 1F46     		mov	r7, r3
 3072 0160 80E7     		b	.L185
 3073              	.LVL287:
 3074              	.L204:
 984:Drivers/lvgl/src/core/lv_refr.c **** 
 3075              		.loc 1 984 31 view .LVU999
 3076              	.LBE128:
 994:Drivers/lvgl/src/core/lv_refr.c **** 
 3077              		.loc 1 994 48 is_stmt 1 discriminator 1 view .LVU1000
 994:Drivers/lvgl/src/core/lv_refr.c **** 
 3078              		.loc 1 994 54 is_stmt 0 discriminator 1 view .LVU1001
 3079 0162 47F00207 		orr	r7, r7, #2
 3080              	.LVL288:
 994:Drivers/lvgl/src/core/lv_refr.c **** 
 3081              		.loc 1 994 54 discriminator 1 view .LVU1002
 3082 0166 FFB2     		uxtb	r7, r7
 3083              	.LVL289:
 994:Drivers/lvgl/src/core/lv_refr.c **** 
 3084              		.loc 1 994 54 discriminator 1 view .LVU1003
 3085 0168 7EE7     		b	.L187
 3086              	.LVL290:
 3087              	.L205:
1006:Drivers/lvgl/src/core/lv_refr.c ****             pivot.x = (LV_COORD_GET_PCT(pivot.x) * lv_area_get_width(&obj->coords)) / 100;
 3088              		.loc 1 1006 12 discriminator 1 view .LVU1004
 3089 016a 29F4C049 		bic	r9, r9, #24576
 3090 016e B9F5FA6F 		cmp	r9, #2000
 3091 0172 97DC     		bgt	.L188
1007:Drivers/lvgl/src/core/lv_refr.c ****         }
 3092              		.loc 1 1007 13 is_stmt 1 view .LVU1005
1007:Drivers/lvgl/src/core/lv_refr.c ****         }
 3093              		.loc 1 1007 24 is_stmt 0 view .LVU1006
 3094 0174 B9F57A7F 		cmp	r9, #1000
 3095 0178 01DD     		ble	.L190
1007:Drivers/lvgl/src/core/lv_refr.c ****         }
 3096              		.loc 1 1007 24 discriminator 1 view .LVU1007
 3097 017a C9F57A79 		rsb	r9, r9, #1000
 3098              	.L190:
 3099              	.LVL291:
 3100              	.LBB129:
 3101              	.LBI129:
 123:Drivers/lvgl/src/core/../misc/../font/../misc/lv_area.h **** {
 3102              		.loc 2 123 26 is_stmt 1 discriminator 4 view .LVU1008
 3103              	.LBB130:
 125:Drivers/lvgl/src/core/../misc/../font/../misc/lv_area.h **** }
 3104              		.loc 2 125 5 discriminator 4 view .LVU1009
 125:Drivers/lvgl/src/core/../misc/../font/../misc/lv_area.h **** }
 3105              		.loc 2 125 31 is_stmt 0 discriminator 4 view .LVU1010
 3106 017e 228B     		ldrh	r2, [r4, #24]
 125:Drivers/lvgl/src/core/../misc/../font/../misc/lv_area.h **** }
 3107              		.loc 2 125 44 discriminator 4 view .LVU1011
 3108 0180 A18A     		ldrh	r1, [r4, #20]
 125:Drivers/lvgl/src/core/../misc/../font/../misc/lv_area.h **** }
 3109              		.loc 2 125 36 discriminator 4 view .LVU1012
 3110 0182 521A     		subs	r2, r2, r1
 3111 0184 92B2     		uxth	r2, r2
 125:Drivers/lvgl/src/core/../misc/../font/../misc/lv_area.h **** }
ARM GAS  /var/folders/0z/tsy30v1j4xl4_7kw94k978ww0000gn/T//ccRTPM70.s 			page 105


 3112              		.loc 2 125 49 discriminator 4 view .LVU1013
 3113 0186 0132     		adds	r2, r2, #1
 125:Drivers/lvgl/src/core/../misc/../font/../misc/lv_area.h **** }
 3114              		.loc 2 125 12 discriminator 4 view .LVU1014
 3115 0188 12B2     		sxth	r2, r2
 3116              	.LVL292:
 125:Drivers/lvgl/src/core/../misc/../font/../misc/lv_area.h **** }
 3117              		.loc 2 125 12 discriminator 4 view .LVU1015
 3118              	.LBE130:
 3119              	.LBE129:
1007:Drivers/lvgl/src/core/lv_refr.c ****         }
 3120              		.loc 1 1007 50 discriminator 4 view .LVU1016
 3121 018a 09FB02F2 		mul	r2, r9, r2
1007:Drivers/lvgl/src/core/lv_refr.c ****         }
 3122              		.loc 1 1007 85 discriminator 4 view .LVU1017
 3123 018e 3549     		ldr	r1, .L207+4
 3124 0190 81FB0201 		smull	r0, r1, r1, r2
 3125 0194 D217     		asrs	r2, r2, #31
 3126 0196 C2EB6112 		rsb	r2, r2, r1, asr #5
1007:Drivers/lvgl/src/core/lv_refr.c ****         }
 3127              		.loc 1 1007 21 discriminator 4 view .LVU1018
 3128 019a ADF80420 		strh	r2, [sp, #4]	@ movhi
 3129 019e 81E7     		b	.L188
 3130              	.L206:
1009:Drivers/lvgl/src/core/lv_refr.c ****             pivot.y = (LV_COORD_GET_PCT(pivot.y) * lv_area_get_height(&obj->coords)) / 100;
 3131              		.loc 1 1009 12 discriminator 1 view .LVU1019
 3132 01a0 23F4C043 		bic	r3, r3, #24576
 3133 01a4 B3F5FA6F 		cmp	r3, #2000
 3134 01a8 81DC     		bgt	.L191
1010:Drivers/lvgl/src/core/lv_refr.c ****         }
 3135              		.loc 1 1010 13 is_stmt 1 view .LVU1020
1010:Drivers/lvgl/src/core/lv_refr.c ****         }
 3136              		.loc 1 1010 24 is_stmt 0 view .LVU1021
 3137 01aa B3F57A7F 		cmp	r3, #1000
 3138 01ae 01DD     		ble	.L193
1010:Drivers/lvgl/src/core/lv_refr.c ****         }
 3139              		.loc 1 1010 24 discriminator 1 view .LVU1022
 3140 01b0 C3F57A73 		rsb	r3, r3, #1000
 3141              	.L193:
 3142              	.LVL293:
 3143              	.LBB131:
 3144              	.LBI131:
 133:Drivers/lvgl/src/core/../misc/../font/../misc/lv_area.h **** {
 3145              		.loc 2 133 26 is_stmt 1 discriminator 4 view .LVU1023
 3146              	.LBB132:
 3147              		.loc 2 135 5 discriminator 4 view .LVU1024
 3148              		.loc 2 135 31 is_stmt 0 discriminator 4 view .LVU1025
 3149 01b4 628B     		ldrh	r2, [r4, #26]
 3150              		.loc 2 135 44 discriminator 4 view .LVU1026
 3151 01b6 E18A     		ldrh	r1, [r4, #22]
 3152              		.loc 2 135 36 discriminator 4 view .LVU1027
 3153 01b8 521A     		subs	r2, r2, r1
 3154 01ba 92B2     		uxth	r2, r2
 3155              		.loc 2 135 49 discriminator 4 view .LVU1028
 3156 01bc 0132     		adds	r2, r2, #1
 3157              		.loc 2 135 12 discriminator 4 view .LVU1029
 3158 01be 12B2     		sxth	r2, r2
ARM GAS  /var/folders/0z/tsy30v1j4xl4_7kw94k978ww0000gn/T//ccRTPM70.s 			page 106


 3159              	.LVL294:
 3160              		.loc 2 135 12 discriminator 4 view .LVU1030
 3161              	.LBE132:
 3162              	.LBE131:
1010:Drivers/lvgl/src/core/lv_refr.c ****         }
 3163              		.loc 1 1010 50 discriminator 4 view .LVU1031
 3164 01c0 02FB03F3 		mul	r3, r2, r3
1010:Drivers/lvgl/src/core/lv_refr.c ****         }
 3165              		.loc 1 1010 86 discriminator 4 view .LVU1032
 3166 01c4 274A     		ldr	r2, .L207+4
 3167 01c6 82FB0312 		smull	r1, r2, r2, r3
 3168 01ca DB17     		asrs	r3, r3, #31
 3169 01cc C3EB6213 		rsb	r3, r3, r2, asr #5
1010:Drivers/lvgl/src/core/lv_refr.c ****         }
 3170              		.loc 1 1010 21 discriminator 4 view .LVU1033
 3171 01d0 ADF80630 		strh	r3, [sp, #6]	@ movhi
 3172 01d4 6BE7     		b	.L191
 3173              	.L194:
1018:Drivers/lvgl/src/core/lv_refr.c **** 
 3174              		.loc 1 1018 14 is_stmt 1 view .LVU1034
1018:Drivers/lvgl/src/core/lv_refr.c **** 
 3175              		.loc 1 1018 16 is_stmt 0 view .LVU1035
 3176 01d6 0028     		cmp	r0, #0
 3177 01d8 BFF67EAF 		bge	.L195
1018:Drivers/lvgl/src/core/lv_refr.c **** 
 3178              		.loc 1 1018 37 is_stmt 1 discriminator 1 view .LVU1036
1018:Drivers/lvgl/src/core/lv_refr.c **** 
 3179              		.loc 1 1018 52 is_stmt 0 discriminator 1 view .LVU1037
 3180 01dc 00F56160 		add	r0, r0, #3600
 3181 01e0 ADF81000 		strh	r0, [sp, #16]	@ movhi
 3182 01e4 78E7     		b	.L195
 3183              	.LVL295:
 3184              	.L197:
1035:Drivers/lvgl/src/core/lv_refr.c **** 
 3185              		.loc 1 1035 13 is_stmt 1 view .LVU1038
 3186 01e6 2146     		mov	r1, r4
 3187 01e8 2846     		mov	r0, r5
 3188 01ea FFF7FEFF 		bl	lv_obj_redraw
 3189              	.LVL296:
1037:Drivers/lvgl/src/core/lv_refr.c ****             draw_dsc.pivot.y = obj->coords.y1 + pivot.y - draw_ctx->buf_area->y1;
 3190              		.loc 1 1037 13 view .LVU1039
1037:Drivers/lvgl/src/core/lv_refr.c ****             draw_dsc.pivot.y = obj->coords.y1 + pivot.y - draw_ctx->buf_area->y1;
 3191              		.loc 1 1037 43 is_stmt 0 view .LVU1040
 3192 01ee A38A     		ldrh	r3, [r4, #20]
1037:Drivers/lvgl/src/core/lv_refr.c ****             draw_dsc.pivot.y = obj->coords.y1 + pivot.y - draw_ctx->buf_area->y1;
 3193              		.loc 1 1037 54 view .LVU1041
 3194 01f0 BDF80420 		ldrh	r2, [sp, #4]
1037:Drivers/lvgl/src/core/lv_refr.c ****             draw_dsc.pivot.y = obj->coords.y1 + pivot.y - draw_ctx->buf_area->y1;
 3195              		.loc 1 1037 47 view .LVU1042
 3196 01f4 1344     		add	r3, r3, r2
 3197 01f6 9BB2     		uxth	r3, r3
1037:Drivers/lvgl/src/core/lv_refr.c ****             draw_dsc.pivot.y = obj->coords.y1 + pivot.y - draw_ctx->buf_area->y1;
 3198              		.loc 1 1037 67 view .LVU1043
 3199 01f8 6A68     		ldr	r2, [r5, #4]
1037:Drivers/lvgl/src/core/lv_refr.c ****             draw_dsc.pivot.y = obj->coords.y1 + pivot.y - draw_ctx->buf_area->y1;
 3200              		.loc 1 1037 77 view .LVU1044
 3201 01fa 1188     		ldrh	r1, [r2]
ARM GAS  /var/folders/0z/tsy30v1j4xl4_7kw94k978ww0000gn/T//ccRTPM70.s 			page 107


1037:Drivers/lvgl/src/core/lv_refr.c ****             draw_dsc.pivot.y = obj->coords.y1 + pivot.y - draw_ctx->buf_area->y1;
 3202              		.loc 1 1037 57 view .LVU1045
 3203 01fc 5B1A     		subs	r3, r3, r1
1037:Drivers/lvgl/src/core/lv_refr.c ****             draw_dsc.pivot.y = obj->coords.y1 + pivot.y - draw_ctx->buf_area->y1;
 3204              		.loc 1 1037 30 view .LVU1046
 3205 01fe ADF81430 		strh	r3, [sp, #20]	@ movhi
1038:Drivers/lvgl/src/core/lv_refr.c **** 
 3206              		.loc 1 1038 13 is_stmt 1 view .LVU1047
1038:Drivers/lvgl/src/core/lv_refr.c **** 
 3207              		.loc 1 1038 43 is_stmt 0 view .LVU1048
 3208 0202 E38A     		ldrh	r3, [r4, #22]
1038:Drivers/lvgl/src/core/lv_refr.c **** 
 3209              		.loc 1 1038 54 view .LVU1049
 3210 0204 BDF80610 		ldrh	r1, [sp, #6]
1038:Drivers/lvgl/src/core/lv_refr.c **** 
 3211              		.loc 1 1038 47 view .LVU1050
 3212 0208 0B44     		add	r3, r3, r1
 3213 020a 9BB2     		uxth	r3, r3
1038:Drivers/lvgl/src/core/lv_refr.c **** 
 3214              		.loc 1 1038 77 view .LVU1051
 3215 020c 5288     		ldrh	r2, [r2, #2]
1038:Drivers/lvgl/src/core/lv_refr.c **** 
 3216              		.loc 1 1038 57 view .LVU1052
 3217 020e 9B1A     		subs	r3, r3, r2
1038:Drivers/lvgl/src/core/lv_refr.c **** 
 3218              		.loc 1 1038 30 view .LVU1053
 3219 0210 ADF81630 		strh	r3, [sp, #22]	@ movhi
1041:Drivers/lvgl/src/core/lv_refr.c **** 
 3220              		.loc 1 1041 13 is_stmt 1 view .LVU1054
 3221 0214 04AA     		add	r2, sp, #16
 3222 0216 3146     		mov	r1, r6
 3223 0218 2846     		mov	r0, r5
 3224 021a FFF7FEFF 		bl	lv_draw_layer_blend
 3225              	.LVL297:
1043:Drivers/lvgl/src/core/lv_refr.c **** 
 3226              		.loc 1 1043 13 view .LVU1055
1043:Drivers/lvgl/src/core/lv_refr.c **** 
 3227              		.loc 1 1043 15 is_stmt 0 view .LVU1056
 3228 021e B8F1000F 		cmp	r8, #0
 3229 0222 18D0     		beq	.L198
1045:Drivers/lvgl/src/core/lv_refr.c ****             layer_ctx->area_act.y2 = layer_ctx->area_act.y1 + layer_ctx->max_row_with_no_alpha - 1;
 3230              		.loc 1 1045 13 is_stmt 1 view .LVU1057
1045:Drivers/lvgl/src/core/lv_refr.c ****             layer_ctx->area_act.y2 = layer_ctx->area_act.y1 + layer_ctx->max_row_with_no_alpha - 1;
 3231              		.loc 1 1045 57 is_stmt 0 view .LVU1058
 3232 0224 F189     		ldrh	r1, [r6, #14]
1045:Drivers/lvgl/src/core/lv_refr.c ****             layer_ctx->area_act.y2 = layer_ctx->area_act.y1 + layer_ctx->max_row_with_no_alpha - 1;
 3233              		.loc 1 1045 61 view .LVU1059
 3234 0226 0131     		adds	r1, r1, #1
1045:Drivers/lvgl/src/core/lv_refr.c ****             layer_ctx->area_act.y2 = layer_ctx->area_act.y1 + layer_ctx->max_row_with_no_alpha - 1;
 3235              		.loc 1 1045 36 view .LVU1060
 3236 0228 7181     		strh	r1, [r6, #10]	@ movhi
1046:Drivers/lvgl/src/core/lv_refr.c ****         }
 3237              		.loc 1 1046 13 is_stmt 1 view .LVU1061
1046:Drivers/lvgl/src/core/lv_refr.c ****         }
 3238              		.loc 1 1046 72 is_stmt 0 view .LVU1062
 3239 022a 738A     		ldrh	r3, [r6, #18]
1046:Drivers/lvgl/src/core/lv_refr.c ****         }
ARM GAS  /var/folders/0z/tsy30v1j4xl4_7kw94k978ww0000gn/T//ccRTPM70.s 			page 108


 3240              		.loc 1 1046 61 view .LVU1063
 3241 022c 13FA81F1 		uxtah	r1, r3, r1
 3242 0230 89B2     		uxth	r1, r1
1046:Drivers/lvgl/src/core/lv_refr.c ****         }
 3243              		.loc 1 1046 96 view .LVU1064
 3244 0232 0139     		subs	r1, r1, #1
1046:Drivers/lvgl/src/core/lv_refr.c ****         }
 3245              		.loc 1 1046 36 view .LVU1065
 3246 0234 F181     		strh	r1, [r6, #14]	@ movhi
 3247              	.L199:
1030:Drivers/lvgl/src/core/lv_refr.c ****             if(flags & LV_DRAW_LAYER_FLAG_CAN_SUBDIVIDE) {
 3248              		.loc 1 1030 38 is_stmt 1 view .LVU1066
1030:Drivers/lvgl/src/core/lv_refr.c ****             if(flags & LV_DRAW_LAYER_FLAG_CAN_SUBDIVIDE) {
 3249              		.loc 1 1030 34 is_stmt 0 view .LVU1067
 3250 0236 B6F90A20 		ldrsh	r2, [r6, #10]
1030:Drivers/lvgl/src/core/lv_refr.c ****             if(flags & LV_DRAW_LAYER_FLAG_CAN_SUBDIVIDE) {
 3251              		.loc 1 1030 56 view .LVU1068
 3252 023a BDF90E30 		ldrsh	r3, [sp, #14]
1030:Drivers/lvgl/src/core/lv_refr.c ****             if(flags & LV_DRAW_LAYER_FLAG_CAN_SUBDIVIDE) {
 3253              		.loc 1 1030 38 view .LVU1069
 3254 023e 9A42     		cmp	r2, r3
 3255 0240 09DC     		bgt	.L198
1031:Drivers/lvgl/src/core/lv_refr.c ****                 layer_alpha_test(obj, draw_ctx, layer_ctx, flags);
 3256              		.loc 1 1031 13 is_stmt 1 view .LVU1070
1031:Drivers/lvgl/src/core/lv_refr.c ****                 layer_alpha_test(obj, draw_ctx, layer_ctx, flags);
 3257              		.loc 1 1031 15 is_stmt 0 view .LVU1071
 3258 0242 B8F1000F 		cmp	r8, #0
 3259 0246 CED0     		beq	.L197
1032:Drivers/lvgl/src/core/lv_refr.c ****             }
 3260              		.loc 1 1032 17 is_stmt 1 view .LVU1072
 3261 0248 3B46     		mov	r3, r7
 3262 024a 3246     		mov	r2, r6
 3263 024c 2946     		mov	r1, r5
 3264 024e 2046     		mov	r0, r4
 3265 0250 FFF7FEFF 		bl	layer_alpha_test
 3266              	.LVL298:
 3267 0254 C7E7     		b	.L197
 3268              	.L198:
1049:Drivers/lvgl/src/core/lv_refr.c ****     }
 3269              		.loc 1 1049 9 view .LVU1073
 3270 0256 3146     		mov	r1, r6
 3271 0258 2846     		mov	r0, r5
 3272 025a FFF7FEFF 		bl	lv_draw_layer_destroy
 3273              	.LVL299:
 3274 025e D9E6     		b	.L181
 3275              	.L208:
 3276              		.align	2
 3277              	.L207:
 3278 0260 00000000 		.word	.LANCHOR0
 3279 0264 1F85EB51 		.word	1374389535
 3280              	.LBE114:
 3281              		.cfi_endproc
 3282              	.LFE185:
 3284              		.section	.text.refr_obj_and_children,"ax",%progbits
 3285              		.align	1
 3286              		.syntax unified
 3287              		.thumb
ARM GAS  /var/folders/0z/tsy30v1j4xl4_7kw94k978ww0000gn/T//ccRTPM70.s 			page 109


 3288              		.thumb_func
 3290              	refr_obj_and_children:
 3291              	.LVL300:
 3292              	.LFB182:
 848:Drivers/lvgl/src/core/lv_refr.c ****     /*Normally always will be a top_obj (at least the screen)
 3293              		.loc 1 848 1 view -0
 3294              		.cfi_startproc
 3295              		@ args = 0, pretend = 0, frame = 0
 3296              		@ frame_needed = 0, uses_anonymous_args = 0
 848:Drivers/lvgl/src/core/lv_refr.c ****     /*Normally always will be a top_obj (at least the screen)
 3297              		.loc 1 848 1 is_stmt 0 view .LVU1075
 3298 0000 2DE9F843 		push	{r3, r4, r5, r6, r7, r8, r9, lr}
 3299              		.cfi_def_cfa_offset 32
 3300              		.cfi_offset 3, -32
 3301              		.cfi_offset 4, -28
 3302              		.cfi_offset 5, -24
 3303              		.cfi_offset 6, -20
 3304              		.cfi_offset 7, -16
 3305              		.cfi_offset 8, -12
 3306              		.cfi_offset 9, -8
 3307              		.cfi_offset 14, -4
 3308 0004 8146     		mov	r9, r0
 852:Drivers/lvgl/src/core/lv_refr.c ****     if(top_obj == NULL) return;  /*Shouldn't happen*/
 3309              		.loc 1 852 5 is_stmt 1 view .LVU1076
 852:Drivers/lvgl/src/core/lv_refr.c ****     if(top_obj == NULL) return;  /*Shouldn't happen*/
 3310              		.loc 1 852 7 is_stmt 0 view .LVU1077
 3311 0006 8846     		mov	r8, r1
 3312 0008 59B1     		cbz	r1, .L220
 3313              	.LVL301:
 3314              	.L210:
 853:Drivers/lvgl/src/core/lv_refr.c **** 
 3315              		.loc 1 853 5 is_stmt 1 view .LVU1078
 853:Drivers/lvgl/src/core/lv_refr.c **** 
 3316              		.loc 1 853 7 is_stmt 0 view .LVU1079
 3317 000a B8F1000F 		cmp	r8, #0
 3318 000e 3AD0     		beq	.L209
 856:Drivers/lvgl/src/core/lv_refr.c **** 
 3319              		.loc 1 856 5 is_stmt 1 view .LVU1080
 3320 0010 4146     		mov	r1, r8
 3321 0012 4846     		mov	r0, r9
 3322 0014 FFF7FEFF 		bl	refr_obj
 3323              	.LVL302:
 859:Drivers/lvgl/src/core/lv_refr.c ****     lv_obj_t * border_p = top_obj;
 3324              		.loc 1 859 5 view .LVU1081
 860:Drivers/lvgl/src/core/lv_refr.c **** 
 3325              		.loc 1 860 5 view .LVU1082
 862:Drivers/lvgl/src/core/lv_refr.c **** 
 3326              		.loc 1 862 5 view .LVU1083
 862:Drivers/lvgl/src/core/lv_refr.c **** 
 3327              		.loc 1 862 14 is_stmt 0 view .LVU1084
 3328 0018 4046     		mov	r0, r8
 3329 001a FFF7FEFF 		bl	lv_obj_get_parent
 3330              	.LVL303:
 3331 001e 0546     		mov	r5, r0
 3332              	.LVL304:
 865:Drivers/lvgl/src/core/lv_refr.c ****         bool go = false;
 3333              		.loc 1 865 5 is_stmt 1 view .LVU1085
ARM GAS  /var/folders/0z/tsy30v1j4xl4_7kw94k978ww0000gn/T//ccRTPM70.s 			page 110


 865:Drivers/lvgl/src/core/lv_refr.c ****         bool go = false;
 3334              		.loc 1 865 10 is_stmt 0 view .LVU1086
 3335 0020 29E0     		b	.L212
 3336              	.LVL305:
 3337              	.L220:
 852:Drivers/lvgl/src/core/lv_refr.c ****     if(top_obj == NULL) return;  /*Shouldn't happen*/
 3338              		.loc 1 852 25 is_stmt 1 discriminator 1 view .LVU1087
 852:Drivers/lvgl/src/core/lv_refr.c ****     if(top_obj == NULL) return;  /*Shouldn't happen*/
 3339              		.loc 1 852 35 is_stmt 0 discriminator 1 view .LVU1088
 3340 0022 1A4B     		ldr	r3, .L222
 3341 0024 1868     		ldr	r0, [r3]
 3342              	.LVL306:
 852:Drivers/lvgl/src/core/lv_refr.c ****     if(top_obj == NULL) return;  /*Shouldn't happen*/
 3343              		.loc 1 852 35 discriminator 1 view .LVU1089
 3344 0026 FFF7FEFF 		bl	lv_disp_get_scr_act
 3345              	.LVL307:
 852:Drivers/lvgl/src/core/lv_refr.c ****     if(top_obj == NULL) return;  /*Shouldn't happen*/
 3346              		.loc 1 852 35 discriminator 1 view .LVU1090
 3347 002a 8046     		mov	r8, r0
 3348              	.LVL308:
 852:Drivers/lvgl/src/core/lv_refr.c ****     if(top_obj == NULL) return;  /*Shouldn't happen*/
 3349              		.loc 1 852 35 discriminator 1 view .LVU1091
 3350 002c EDE7     		b	.L210
 3351              	.LVL309:
 3352              	.L214:
 3353              	.LBB133:
 3354              	.LBB134:
 876:Drivers/lvgl/src/core/lv_refr.c ****             }
 3355              		.loc 1 876 17 is_stmt 1 view .LVU1092
 3356 002e 4846     		mov	r0, r9
 3357 0030 FFF7FEFF 		bl	refr_obj
 3358              	.LVL310:
 3359              	.L215:
 876:Drivers/lvgl/src/core/lv_refr.c ****             }
 3360              		.loc 1 876 17 is_stmt 0 view .LVU1093
 3361              	.LBE134:
 869:Drivers/lvgl/src/core/lv_refr.c ****             lv_obj_t * child = parent->spec_attr->children[i];
 3362              		.loc 1 869 36 is_stmt 1 discriminator 2 view .LVU1094
 3363 0034 0134     		adds	r4, r4, #1
 3364              	.LVL311:
 3365              	.L213:
 869:Drivers/lvgl/src/core/lv_refr.c ****             lv_obj_t * child = parent->spec_attr->children[i];
 3366              		.loc 1 869 22 discriminator 1 view .LVU1095
 3367 0036 B442     		cmp	r4, r6
 3368 0038 09D2     		bcs	.L221
 3369              	.LBB135:
 870:Drivers/lvgl/src/core/lv_refr.c ****             if(!go) {
 3370              		.loc 1 870 13 view .LVU1096
 870:Drivers/lvgl/src/core/lv_refr.c ****             if(!go) {
 3371              		.loc 1 870 38 is_stmt 0 view .LVU1097
 3372 003a AB68     		ldr	r3, [r5, #8]
 870:Drivers/lvgl/src/core/lv_refr.c ****             if(!go) {
 3373              		.loc 1 870 49 view .LVU1098
 3374 003c 1B68     		ldr	r3, [r3]
 870:Drivers/lvgl/src/core/lv_refr.c ****             if(!go) {
 3375              		.loc 1 870 24 view .LVU1099
 3376 003e 53F82410 		ldr	r1, [r3, r4, lsl #2]
ARM GAS  /var/folders/0z/tsy30v1j4xl4_7kw94k978ww0000gn/T//ccRTPM70.s 			page 111


 3377              	.LVL312:
 871:Drivers/lvgl/src/core/lv_refr.c ****                 if(child == border_p) go = true;
 3378              		.loc 1 871 13 is_stmt 1 view .LVU1100
 871:Drivers/lvgl/src/core/lv_refr.c ****                 if(child == border_p) go = true;
 3379              		.loc 1 871 15 is_stmt 0 view .LVU1101
 3380 0042 002F     		cmp	r7, #0
 3381 0044 F3D1     		bne	.L214
 872:Drivers/lvgl/src/core/lv_refr.c ****             }
 3382              		.loc 1 872 17 is_stmt 1 view .LVU1102
 872:Drivers/lvgl/src/core/lv_refr.c ****             }
 3383              		.loc 1 872 19 is_stmt 0 view .LVU1103
 3384 0046 8845     		cmp	r8, r1
 3385 0048 F4D1     		bne	.L215
 872:Drivers/lvgl/src/core/lv_refr.c ****             }
 3386              		.loc 1 872 42 view .LVU1104
 3387 004a 0127     		movs	r7, #1
 3388              	.LVL313:
 872:Drivers/lvgl/src/core/lv_refr.c ****             }
 3389              		.loc 1 872 42 view .LVU1105
 3390 004c F2E7     		b	.L215
 3391              	.LVL314:
 3392              	.L221:
 872:Drivers/lvgl/src/core/lv_refr.c ****             }
 3393              		.loc 1 872 42 view .LVU1106
 3394              	.LBE135:
 881:Drivers/lvgl/src/core/lv_refr.c ****         lv_event_send(parent, LV_EVENT_DRAW_POST, (void *)draw_ctx);
 3395              		.loc 1 881 9 is_stmt 1 view .LVU1107
 3396 004e 4A46     		mov	r2, r9
 3397 0050 1721     		movs	r1, #23
 3398 0052 2846     		mov	r0, r5
 3399 0054 FFF7FEFF 		bl	lv_event_send
 3400              	.LVL315:
 882:Drivers/lvgl/src/core/lv_refr.c ****         lv_event_send(parent, LV_EVENT_DRAW_POST_END, (void *)draw_ctx);
 3401              		.loc 1 882 9 view .LVU1108
 3402 0058 4A46     		mov	r2, r9
 3403 005a 1821     		movs	r1, #24
 3404 005c 2846     		mov	r0, r5
 3405 005e FFF7FEFF 		bl	lv_event_send
 3406              	.LVL316:
 883:Drivers/lvgl/src/core/lv_refr.c **** 
 3407              		.loc 1 883 9 view .LVU1109
 3408 0062 4A46     		mov	r2, r9
 3409 0064 1921     		movs	r1, #25
 3410 0066 2846     		mov	r0, r5
 3411 0068 FFF7FEFF 		bl	lv_event_send
 3412              	.LVL317:
 887:Drivers/lvgl/src/core/lv_refr.c ****         /*Go a level deeper*/
 3413              		.loc 1 887 9 view .LVU1110
 889:Drivers/lvgl/src/core/lv_refr.c ****     }
 3414              		.loc 1 889 9 view .LVU1111
 889:Drivers/lvgl/src/core/lv_refr.c ****     }
 3415              		.loc 1 889 18 is_stmt 0 view .LVU1112
 3416 006c 2846     		mov	r0, r5
 3417 006e FFF7FEFF 		bl	lv_obj_get_parent
 3418              	.LVL318:
 887:Drivers/lvgl/src/core/lv_refr.c ****         /*Go a level deeper*/
 3419              		.loc 1 887 18 view .LVU1113
ARM GAS  /var/folders/0z/tsy30v1j4xl4_7kw94k978ww0000gn/T//ccRTPM70.s 			page 112


 3420 0072 A846     		mov	r8, r5
 889:Drivers/lvgl/src/core/lv_refr.c ****     }
 3421              		.loc 1 889 18 view .LVU1114
 3422 0074 0546     		mov	r5, r0
 3423              	.LVL319:
 3424              	.L212:
 889:Drivers/lvgl/src/core/lv_refr.c ****     }
 3425              		.loc 1 889 18 view .LVU1115
 3426              	.LBE133:
 865:Drivers/lvgl/src/core/lv_refr.c ****         bool go = false;
 3427              		.loc 1 865 18 is_stmt 1 view .LVU1116
 3428 0076 35B1     		cbz	r5, .L209
 3429              	.LBB136:
 866:Drivers/lvgl/src/core/lv_refr.c ****         uint32_t i;
 3430              		.loc 1 866 9 view .LVU1117
 3431              	.LVL320:
 867:Drivers/lvgl/src/core/lv_refr.c ****         uint32_t child_cnt = lv_obj_get_child_cnt(parent);
 3432              		.loc 1 867 9 view .LVU1118
 868:Drivers/lvgl/src/core/lv_refr.c ****         for(i = 0; i < child_cnt; i++) {
 3433              		.loc 1 868 9 view .LVU1119
 868:Drivers/lvgl/src/core/lv_refr.c ****         for(i = 0; i < child_cnt; i++) {
 3434              		.loc 1 868 30 is_stmt 0 view .LVU1120
 3435 0078 2846     		mov	r0, r5
 868:Drivers/lvgl/src/core/lv_refr.c ****         for(i = 0; i < child_cnt; i++) {
 3436              		.loc 1 868 30 view .LVU1121
 3437 007a FFF7FEFF 		bl	lv_obj_get_child_cnt
 3438              	.LVL321:
 868:Drivers/lvgl/src/core/lv_refr.c ****         for(i = 0; i < child_cnt; i++) {
 3439              		.loc 1 868 30 view .LVU1122
 3440 007e 0646     		mov	r6, r0
 3441              	.LVL322:
 869:Drivers/lvgl/src/core/lv_refr.c ****             lv_obj_t * child = parent->spec_attr->children[i];
 3442              		.loc 1 869 9 is_stmt 1 view .LVU1123
 869:Drivers/lvgl/src/core/lv_refr.c ****             lv_obj_t * child = parent->spec_attr->children[i];
 3443              		.loc 1 869 15 is_stmt 0 view .LVU1124
 3444 0080 0024     		movs	r4, #0
 866:Drivers/lvgl/src/core/lv_refr.c ****         uint32_t i;
 3445              		.loc 1 866 14 view .LVU1125
 3446 0082 2746     		mov	r7, r4
 869:Drivers/lvgl/src/core/lv_refr.c ****             lv_obj_t * child = parent->spec_attr->children[i];
 3447              		.loc 1 869 9 view .LVU1126
 3448 0084 D7E7     		b	.L213
 3449              	.LVL323:
 3450              	.L209:
 869:Drivers/lvgl/src/core/lv_refr.c ****             lv_obj_t * child = parent->spec_attr->children[i];
 3451              		.loc 1 869 9 view .LVU1127
 3452              	.LBE136:
 891:Drivers/lvgl/src/core/lv_refr.c **** 
 3453              		.loc 1 891 1 view .LVU1128
 3454 0086 BDE8F883 		pop	{r3, r4, r5, r6, r7, r8, r9, pc}
 3455              	.LVL324:
 3456              	.L223:
 891:Drivers/lvgl/src/core/lv_refr.c **** 
 3457              		.loc 1 891 1 view .LVU1129
 3458 008a 00BF     		.align	2
 3459              	.L222:
 3460 008c 00000000 		.word	.LANCHOR0
ARM GAS  /var/folders/0z/tsy30v1j4xl4_7kw94k978ww0000gn/T//ccRTPM70.s 			page 113


 3461              		.cfi_endproc
 3462              	.LFE182:
 3464              		.section	.text.refr_area_part,"ax",%progbits
 3465              		.align	1
 3466              		.syntax unified
 3467              		.thumb
 3468              		.thumb_func
 3470              	refr_area_part:
 3471              	.LVL325:
 3472              	.LFB180:
 699:Drivers/lvgl/src/core/lv_refr.c ****     lv_disp_draw_buf_t * draw_buf = lv_disp_get_draw_buf(disp_refr);
 3473              		.loc 1 699 1 is_stmt 1 view -0
 3474              		.cfi_startproc
 3475              		@ args = 0, pretend = 0, frame = 72
 3476              		@ frame_needed = 0, uses_anonymous_args = 0
 699:Drivers/lvgl/src/core/lv_refr.c ****     lv_disp_draw_buf_t * draw_buf = lv_disp_get_draw_buf(disp_refr);
 3477              		.loc 1 699 1 is_stmt 0 view .LVU1131
 3478 0000 2DE9F041 		push	{r4, r5, r6, r7, r8, lr}
 3479              		.cfi_def_cfa_offset 24
 3480              		.cfi_offset 4, -24
 3481              		.cfi_offset 5, -20
 3482              		.cfi_offset 6, -16
 3483              		.cfi_offset 7, -12
 3484              		.cfi_offset 8, -8
 3485              		.cfi_offset 14, -4
 3486 0004 94B0     		sub	sp, sp, #80
 3487              		.cfi_def_cfa_offset 104
 3488 0006 0546     		mov	r5, r0
 700:Drivers/lvgl/src/core/lv_refr.c **** 
 3489              		.loc 1 700 5 is_stmt 1 view .LVU1132
 700:Drivers/lvgl/src/core/lv_refr.c **** 
 3490              		.loc 1 700 37 is_stmt 0 view .LVU1133
 3491 0008 6D4B     		ldr	r3, .L253
 3492 000a 1868     		ldr	r0, [r3]
 3493              	.LVL326:
 700:Drivers/lvgl/src/core/lv_refr.c **** 
 3494              		.loc 1 700 37 view .LVU1134
 3495 000c FFF7FEFF 		bl	lv_disp_get_draw_buf
 3496              	.LVL327:
 3497 0010 0446     		mov	r4, r0
 3498              	.LVL328:
 702:Drivers/lvgl/src/core/lv_refr.c ****         draw_ctx->init_buf(draw_ctx);
 3499              		.loc 1 702 5 is_stmt 1 view .LVU1135
 702:Drivers/lvgl/src/core/lv_refr.c ****         draw_ctx->init_buf(draw_ctx);
 3500              		.loc 1 702 16 is_stmt 0 view .LVU1136
 3501 0012 EB68     		ldr	r3, [r5, #12]
 702:Drivers/lvgl/src/core/lv_refr.c ****         draw_ctx->init_buf(draw_ctx);
 3502              		.loc 1 702 7 view .LVU1137
 3503 0014 0BB1     		cbz	r3, .L225
 703:Drivers/lvgl/src/core/lv_refr.c **** 
 3504              		.loc 1 703 9 is_stmt 1 view .LVU1138
 3505 0016 2846     		mov	r0, r5
 3506              	.LVL329:
 703:Drivers/lvgl/src/core/lv_refr.c **** 
 3507              		.loc 1 703 9 is_stmt 0 view .LVU1139
 3508 0018 9847     		blx	r3
 3509              	.LVL330:
ARM GAS  /var/folders/0z/tsy30v1j4xl4_7kw94k978ww0000gn/T//ccRTPM70.s 			page 114


 3510              	.L225:
 708:Drivers/lvgl/src/core/lv_refr.c ****     if((draw_buf->buf1 && !draw_buf->buf2) ||
 3511              		.loc 1 708 5 is_stmt 1 view .LVU1140
 708:Drivers/lvgl/src/core/lv_refr.c ****     if((draw_buf->buf1 && !draw_buf->buf2) ||
 3512              		.loc 1 708 31 is_stmt 0 view .LVU1141
 3513 001a E068     		ldr	r0, [r4, #12]
 708:Drivers/lvgl/src/core/lv_refr.c ****     if((draw_buf->buf1 && !draw_buf->buf2) ||
 3514              		.loc 1 708 60 view .LVU1142
 3515 001c 684B     		ldr	r3, .L253
 3516 001e 1B68     		ldr	r3, [r3]
 3517 0020 1A68     		ldr	r2, [r3]
 708:Drivers/lvgl/src/core/lv_refr.c ****     if((draw_buf->buf1 && !draw_buf->buf2) ||
 3518              		.loc 1 708 68 view .LVU1143
 3519 0022 B2F90030 		ldrsh	r3, [r2]
 708:Drivers/lvgl/src/core/lv_refr.c ****     if((draw_buf->buf1 && !draw_buf->buf2) ||
 3520              		.loc 1 708 97 view .LVU1144
 3521 0026 B2F90220 		ldrsh	r2, [r2, #2]
 708:Drivers/lvgl/src/core/lv_refr.c ****     if((draw_buf->buf1 && !draw_buf->buf2) ||
 3522              		.loc 1 708 78 view .LVU1145
 3523 002a 02FB03F3 		mul	r3, r2, r3
 3524              	.LVL331:
 709:Drivers/lvgl/src/core/lv_refr.c ****        (draw_buf->buf1 && draw_buf->buf2 && full_sized)) {
 3525              		.loc 1 709 5 is_stmt 1 view .LVU1146
 709:Drivers/lvgl/src/core/lv_refr.c ****        (draw_buf->buf1 && draw_buf->buf2 && full_sized)) {
 3526              		.loc 1 709 17 is_stmt 0 view .LVU1147
 3527 002e 2268     		ldr	r2, [r4]
 709:Drivers/lvgl/src/core/lv_refr.c ****        (draw_buf->buf1 && draw_buf->buf2 && full_sized)) {
 3528              		.loc 1 709 7 view .LVU1148
 3529 0030 12B1     		cbz	r2, .L226
 709:Drivers/lvgl/src/core/lv_refr.c ****        (draw_buf->buf1 && draw_buf->buf2 && full_sized)) {
 3530              		.loc 1 709 36 discriminator 1 view .LVU1149
 3531 0032 6168     		ldr	r1, [r4, #4]
 709:Drivers/lvgl/src/core/lv_refr.c ****        (draw_buf->buf1 && draw_buf->buf2 && full_sized)) {
 3532              		.loc 1 709 24 discriminator 1 view .LVU1150
 3533 0034 0029     		cmp	r1, #0
 3534 0036 30D0     		beq	.L229
 3535              	.L226:
 709:Drivers/lvgl/src/core/lv_refr.c ****        (draw_buf->buf1 && draw_buf->buf2 && full_sized)) {
 3536              		.loc 1 709 44 discriminator 3 view .LVU1151
 3537 0038 1AB1     		cbz	r2, .L228
 710:Drivers/lvgl/src/core/lv_refr.c ****         while(draw_buf->flushing) {
 3538              		.loc 1 710 35 view .LVU1152
 3539 003a 6268     		ldr	r2, [r4, #4]
 710:Drivers/lvgl/src/core/lv_refr.c ****         while(draw_buf->flushing) {
 3540              		.loc 1 710 24 view .LVU1153
 3541 003c 0AB1     		cbz	r2, .L228
 710:Drivers/lvgl/src/core/lv_refr.c ****         while(draw_buf->flushing) {
 3542              		.loc 1 710 42 discriminator 1 view .LVU1154
 3543 003e 9842     		cmp	r0, r3
 3544 0040 2BD0     		beq	.L229
 3545              	.LVL332:
 3546              	.L228:
 728:Drivers/lvgl/src/core/lv_refr.c ****     lv_obj_t * top_prev_scr = NULL;
 3547              		.loc 1 728 5 is_stmt 1 view .LVU1155
 729:Drivers/lvgl/src/core/lv_refr.c **** 
 3548              		.loc 1 729 5 view .LVU1156
 732:Drivers/lvgl/src/core/lv_refr.c ****     if(disp_refr->prev_scr) {
ARM GAS  /var/folders/0z/tsy30v1j4xl4_7kw94k978ww0000gn/T//ccRTPM70.s 			page 115


 3549              		.loc 1 732 5 view .LVU1157
 732:Drivers/lvgl/src/core/lv_refr.c ****     if(disp_refr->prev_scr) {
 3550              		.loc 1 732 47 is_stmt 0 view .LVU1158
 3551 0042 6C68     		ldr	r4, [r5, #4]
 3552              	.LVL333:
 732:Drivers/lvgl/src/core/lv_refr.c ****     if(disp_refr->prev_scr) {
 3553              		.loc 1 732 19 view .LVU1159
 3554 0044 5E4E     		ldr	r6, .L253
 3555 0046 3068     		ldr	r0, [r6]
 3556 0048 FFF7FEFF 		bl	lv_disp_get_scr_act
 3557              	.LVL334:
 3558 004c 0146     		mov	r1, r0
 3559 004e 2046     		mov	r0, r4
 3560 0050 FFF7FEFF 		bl	lv_refr_get_top_obj
 3561              	.LVL335:
 3562 0054 0446     		mov	r4, r0
 3563              	.LVL336:
 733:Drivers/lvgl/src/core/lv_refr.c ****         top_prev_scr = lv_refr_get_top_obj(draw_ctx->buf_area, disp_refr->prev_scr);
 3564              		.loc 1 733 5 is_stmt 1 view .LVU1160
 733:Drivers/lvgl/src/core/lv_refr.c ****         top_prev_scr = lv_refr_get_top_obj(draw_ctx->buf_area, disp_refr->prev_scr);
 3565              		.loc 1 733 17 is_stmt 0 view .LVU1161
 3566 0056 3368     		ldr	r3, [r6]
 3567 0058 5E69     		ldr	r6, [r3, #20]
 733:Drivers/lvgl/src/core/lv_refr.c ****         top_prev_scr = lv_refr_get_top_obj(draw_ctx->buf_area, disp_refr->prev_scr);
 3568              		.loc 1 733 7 view .LVU1162
 3569 005a 26B1     		cbz	r6, .L232
 734:Drivers/lvgl/src/core/lv_refr.c ****     }
 3570              		.loc 1 734 9 is_stmt 1 view .LVU1163
 734:Drivers/lvgl/src/core/lv_refr.c ****     }
 3571              		.loc 1 734 24 is_stmt 0 view .LVU1164
 3572 005c 3146     		mov	r1, r6
 3573 005e 6868     		ldr	r0, [r5, #4]
 3574              	.LVL337:
 734:Drivers/lvgl/src/core/lv_refr.c ****     }
 3575              		.loc 1 734 24 view .LVU1165
 3576 0060 FFF7FEFF 		bl	lv_refr_get_top_obj
 3577              	.LVL338:
 3578 0064 0646     		mov	r6, r0
 3579              	.LVL339:
 3580              	.L232:
 738:Drivers/lvgl/src/core/lv_refr.c ****         lv_area_t a;
 3581              		.loc 1 738 5 is_stmt 1 view .LVU1166
 738:Drivers/lvgl/src/core/lv_refr.c ****         lv_area_t a;
 3582              		.loc 1 738 7 is_stmt 0 view .LVU1167
 3583 0066 1CB3     		cbz	r4, .L248
 3584              	.L233:
 773:Drivers/lvgl/src/core/lv_refr.c ****         if(top_act_scr == NULL) top_act_scr = disp_refr->act_scr;
 3585              		.loc 1 773 5 is_stmt 1 view .LVU1168
 773:Drivers/lvgl/src/core/lv_refr.c ****         if(top_act_scr == NULL) top_act_scr = disp_refr->act_scr;
 3586              		.loc 1 773 17 is_stmt 0 view .LVU1169
 3587 0068 554B     		ldr	r3, .L253
 3588 006a 1B68     		ldr	r3, [r3]
 773:Drivers/lvgl/src/core/lv_refr.c ****         if(top_act_scr == NULL) top_act_scr = disp_refr->act_scr;
 3589              		.loc 1 773 8 view .LVU1170
 3590 006c 93F82820 		ldrb	r2, [r3, #40]	@ zero_extendqisi2
 773:Drivers/lvgl/src/core/lv_refr.c ****         if(top_act_scr == NULL) top_act_scr = disp_refr->act_scr;
 3591              		.loc 1 773 7 view .LVU1171
ARM GAS  /var/folders/0z/tsy30v1j4xl4_7kw94k978ww0000gn/T//ccRTPM70.s 			page 116


 3592 0070 12F0010F 		tst	r2, #1
 3593 0074 7CD0     		beq	.L238
 774:Drivers/lvgl/src/core/lv_refr.c ****         refr_obj_and_children(draw_ctx, top_act_scr);
 3594              		.loc 1 774 9 is_stmt 1 view .LVU1172
 774:Drivers/lvgl/src/core/lv_refr.c ****         refr_obj_and_children(draw_ctx, top_act_scr);
 3595              		.loc 1 774 11 is_stmt 0 view .LVU1173
 3596 0076 002C     		cmp	r4, #0
 3597 0078 76D0     		beq	.L249
 3598              	.L239:
 775:Drivers/lvgl/src/core/lv_refr.c **** 
 3599              		.loc 1 775 9 is_stmt 1 view .LVU1174
 3600 007a 2146     		mov	r1, r4
 3601 007c 2846     		mov	r0, r5
 3602 007e FFF7FEFF 		bl	refr_obj_and_children
 3603              	.LVL340:
 778:Drivers/lvgl/src/core/lv_refr.c ****             if(top_prev_scr == NULL) top_prev_scr = disp_refr->prev_scr;
 3604              		.loc 1 778 9 view .LVU1175
 778:Drivers/lvgl/src/core/lv_refr.c ****             if(top_prev_scr == NULL) top_prev_scr = disp_refr->prev_scr;
 3605              		.loc 1 778 21 is_stmt 0 view .LVU1176
 3606 0082 4F4B     		ldr	r3, .L253
 3607 0084 1B68     		ldr	r3, [r3]
 3608 0086 5B69     		ldr	r3, [r3, #20]
 778:Drivers/lvgl/src/core/lv_refr.c ****             if(top_prev_scr == NULL) top_prev_scr = disp_refr->prev_scr;
 3609              		.loc 1 778 11 view .LVU1177
 3610 0088 002B     		cmp	r3, #0
 3611 008a 7DD0     		beq	.L240
 779:Drivers/lvgl/src/core/lv_refr.c ****             refr_obj_and_children(draw_ctx, top_prev_scr);
 3612              		.loc 1 779 13 is_stmt 1 view .LVU1178
 779:Drivers/lvgl/src/core/lv_refr.c ****             refr_obj_and_children(draw_ctx, top_prev_scr);
 3613              		.loc 1 779 15 is_stmt 0 view .LVU1179
 3614 008c 002E     		cmp	r6, #0
 3615 008e 6DD0     		beq	.L250
 3616              	.LVL341:
 3617              	.L241:
 780:Drivers/lvgl/src/core/lv_refr.c ****         }
 3618              		.loc 1 780 13 is_stmt 1 view .LVU1180
 3619 0090 3146     		mov	r1, r6
 3620 0092 2846     		mov	r0, r5
 3621 0094 FFF7FEFF 		bl	refr_obj_and_children
 3622              	.LVL342:
 3623 0098 76E0     		b	.L240
 3624              	.LVL343:
 3625              	.L229:
 711:Drivers/lvgl/src/core/lv_refr.c ****             if(disp_refr->driver->wait_cb) disp_refr->driver->wait_cb(disp_refr->driver);
 3626              		.loc 1 711 15 view .LVU1181
 711:Drivers/lvgl/src/core/lv_refr.c ****             if(disp_refr->driver->wait_cb) disp_refr->driver->wait_cb(disp_refr->driver);
 3627              		.loc 1 711 23 is_stmt 0 view .LVU1182
 3628 009a 2369     		ldr	r3, [r4, #16]
 711:Drivers/lvgl/src/core/lv_refr.c ****             if(disp_refr->driver->wait_cb) disp_refr->driver->wait_cb(disp_refr->driver);
 3629              		.loc 1 711 15 view .LVU1183
 3630 009c 002B     		cmp	r3, #0
 3631 009e D0D0     		beq	.L228
 712:Drivers/lvgl/src/core/lv_refr.c ****         }
 3632              		.loc 1 712 13 is_stmt 1 view .LVU1184
 712:Drivers/lvgl/src/core/lv_refr.c ****         }
 3633              		.loc 1 712 25 is_stmt 0 view .LVU1185
 3634 00a0 474B     		ldr	r3, .L253
ARM GAS  /var/folders/0z/tsy30v1j4xl4_7kw94k978ww0000gn/T//ccRTPM70.s 			page 117


 3635 00a2 1B68     		ldr	r3, [r3]
 3636 00a4 1868     		ldr	r0, [r3]
 712:Drivers/lvgl/src/core/lv_refr.c ****         }
 3637              		.loc 1 712 33 view .LVU1186
 3638 00a6 836A     		ldr	r3, [r0, #40]
 712:Drivers/lvgl/src/core/lv_refr.c ****         }
 3639              		.loc 1 712 15 view .LVU1187
 3640 00a8 002B     		cmp	r3, #0
 3641 00aa F6D0     		beq	.L229
 712:Drivers/lvgl/src/core/lv_refr.c ****         }
 3642              		.loc 1 712 44 is_stmt 1 discriminator 1 view .LVU1188
 3643 00ac 9847     		blx	r3
 3644              	.LVL344:
 3645 00ae F4E7     		b	.L229
 3646              	.LVL345:
 3647              	.L248:
 738:Drivers/lvgl/src/core/lv_refr.c ****         lv_area_t a;
 3648              		.loc 1 738 28 is_stmt 0 discriminator 1 view .LVU1189
 3649 00b0 002E     		cmp	r6, #0
 3650 00b2 D9D1     		bne	.L233
 3651              	.LBB137:
 739:Drivers/lvgl/src/core/lv_refr.c ****         lv_area_set(&a, 0, 0,
 3652              		.loc 1 739 9 is_stmt 1 view .LVU1190
 740:Drivers/lvgl/src/core/lv_refr.c ****                     lv_disp_get_hor_res(disp_refr) - 1, lv_disp_get_ver_res(disp_refr) - 1);
 3653              		.loc 1 740 9 view .LVU1191
 741:Drivers/lvgl/src/core/lv_refr.c ****         if(draw_ctx->draw_bg) {
 3654              		.loc 1 741 21 is_stmt 0 view .LVU1192
 3655 00b4 DFF80881 		ldr	r8, .L253
 3656 00b8 D8F80000 		ldr	r0, [r8]
 3657 00bc FFF7FEFF 		bl	lv_disp_get_hor_res
 3658              	.LVL346:
 3659 00c0 87B2     		uxth	r7, r0
 741:Drivers/lvgl/src/core/lv_refr.c ****         if(draw_ctx->draw_bg) {
 3660              		.loc 1 741 52 view .LVU1193
 3661 00c2 013F     		subs	r7, r7, #1
 3662 00c4 BFB2     		uxth	r7, r7
 741:Drivers/lvgl/src/core/lv_refr.c ****         if(draw_ctx->draw_bg) {
 3663              		.loc 1 741 57 view .LVU1194
 3664 00c6 D8F80000 		ldr	r0, [r8]
 3665 00ca FFF7FEFF 		bl	lv_disp_get_ver_res
 3666              	.LVL347:
 3667 00ce 83B2     		uxth	r3, r0
 741:Drivers/lvgl/src/core/lv_refr.c ****         if(draw_ctx->draw_bg) {
 3668              		.loc 1 741 88 view .LVU1195
 3669 00d0 013B     		subs	r3, r3, #1
 740:Drivers/lvgl/src/core/lv_refr.c ****                     lv_disp_get_hor_res(disp_refr) - 1, lv_disp_get_ver_res(disp_refr) - 1);
 3670              		.loc 1 740 9 view .LVU1196
 3671 00d2 1BB2     		sxth	r3, r3
 3672 00d4 0093     		str	r3, [sp]
 3673 00d6 3BB2     		sxth	r3, r7
 3674 00d8 0022     		movs	r2, #0
 3675 00da 1146     		mov	r1, r2
 3676 00dc 04A8     		add	r0, sp, #16
 3677 00de FFF7FEFF 		bl	lv_area_set
 3678              	.LVL348:
 742:Drivers/lvgl/src/core/lv_refr.c ****             lv_draw_rect_dsc_t dsc;
 3679              		.loc 1 742 9 is_stmt 1 view .LVU1197
ARM GAS  /var/folders/0z/tsy30v1j4xl4_7kw94k978ww0000gn/T//ccRTPM70.s 			page 118


 742:Drivers/lvgl/src/core/lv_refr.c ****             lv_draw_rect_dsc_t dsc;
 3680              		.loc 1 742 20 is_stmt 0 view .LVU1198
 3681 00e2 2B6B     		ldr	r3, [r5, #48]
 742:Drivers/lvgl/src/core/lv_refr.c ****             lv_draw_rect_dsc_t dsc;
 3682              		.loc 1 742 11 view .LVU1199
 3683 00e4 ABB1     		cbz	r3, .L234
 3684              	.LBB138:
 743:Drivers/lvgl/src/core/lv_refr.c ****             lv_draw_rect_dsc_init(&dsc);
 3685              		.loc 1 743 13 is_stmt 1 view .LVU1200
 744:Drivers/lvgl/src/core/lv_refr.c ****             dsc.bg_img_src = disp_refr->bg_img;
 3686              		.loc 1 744 13 view .LVU1201
 3687 00e6 06A8     		add	r0, sp, #24
 3688 00e8 FFF7FEFF 		bl	lv_draw_rect_dsc_init
 3689              	.LVL349:
 745:Drivers/lvgl/src/core/lv_refr.c ****             dsc.bg_img_opa = disp_refr->bg_opa;
 3690              		.loc 1 745 13 view .LVU1202
 745:Drivers/lvgl/src/core/lv_refr.c ****             dsc.bg_img_opa = disp_refr->bg_opa;
 3691              		.loc 1 745 39 is_stmt 0 view .LVU1203
 3692 00ec D8F80030 		ldr	r3, [r8]
 3693 00f0 DA6A     		ldr	r2, [r3, #44]
 745:Drivers/lvgl/src/core/lv_refr.c ****             dsc.bg_img_opa = disp_refr->bg_opa;
 3694              		.loc 1 745 28 view .LVU1204
 3695 00f2 0A92     		str	r2, [sp, #40]
 746:Drivers/lvgl/src/core/lv_refr.c ****             dsc.bg_color = disp_refr->bg_color;
 3696              		.loc 1 746 13 is_stmt 1 view .LVU1205
 746:Drivers/lvgl/src/core/lv_refr.c ****             dsc.bg_color = disp_refr->bg_color;
 3697              		.loc 1 746 39 is_stmt 0 view .LVU1206
 3698 00f4 93F82920 		ldrb	r2, [r3, #41]	@ zero_extendqisi2
 746:Drivers/lvgl/src/core/lv_refr.c ****             dsc.bg_color = disp_refr->bg_color;
 3699              		.loc 1 746 28 view .LVU1207
 3700 00f8 8DF83220 		strb	r2, [sp, #50]
 747:Drivers/lvgl/src/core/lv_refr.c ****             dsc.bg_opa = disp_refr->bg_opa;
 3701              		.loc 1 747 13 is_stmt 1 view .LVU1208
 747:Drivers/lvgl/src/core/lv_refr.c ****             dsc.bg_opa = disp_refr->bg_opa;
 3702              		.loc 1 747 26 is_stmt 0 view .LVU1209
 3703 00fc 5B8D     		ldrh	r3, [r3, #42]
 3704 00fe ADF81C30 		strh	r3, [sp, #28]	@ movhi
 748:Drivers/lvgl/src/core/lv_refr.c ****             draw_ctx->draw_bg(draw_ctx, &dsc, &a);
 3705              		.loc 1 748 13 is_stmt 1 view .LVU1210
 748:Drivers/lvgl/src/core/lv_refr.c ****             draw_ctx->draw_bg(draw_ctx, &dsc, &a);
 3706              		.loc 1 748 24 is_stmt 0 view .LVU1211
 3707 0102 8DF81B20 		strb	r2, [sp, #27]
 749:Drivers/lvgl/src/core/lv_refr.c ****         }
 3708              		.loc 1 749 13 is_stmt 1 view .LVU1212
 749:Drivers/lvgl/src/core/lv_refr.c ****         }
 3709              		.loc 1 749 21 is_stmt 0 view .LVU1213
 3710 0106 2B6B     		ldr	r3, [r5, #48]
 749:Drivers/lvgl/src/core/lv_refr.c ****         }
 3711              		.loc 1 749 13 view .LVU1214
 3712 0108 04AA     		add	r2, sp, #16
 3713 010a 06A9     		add	r1, sp, #24
 3714 010c 2846     		mov	r0, r5
 3715 010e 9847     		blx	r3
 3716              	.LVL350:
 3717              	.LBE138:
 3718 0110 AAE7     		b	.L233
 3719              	.L234:
ARM GAS  /var/folders/0z/tsy30v1j4xl4_7kw94k978ww0000gn/T//ccRTPM70.s 			page 119


 751:Drivers/lvgl/src/core/lv_refr.c ****             lv_img_header_t header;
 3720              		.loc 1 751 14 is_stmt 1 view .LVU1215
 751:Drivers/lvgl/src/core/lv_refr.c ****             lv_img_header_t header;
 3721              		.loc 1 751 26 is_stmt 0 view .LVU1216
 3722 0112 2B4B     		ldr	r3, .L253
 3723 0114 1B68     		ldr	r3, [r3]
 3724 0116 D86A     		ldr	r0, [r3, #44]
 751:Drivers/lvgl/src/core/lv_refr.c ****             lv_img_header_t header;
 3725              		.loc 1 751 16 view .LVU1217
 3726 0118 A0B1     		cbz	r0, .L236
 3727              	.LBB139:
 752:Drivers/lvgl/src/core/lv_refr.c ****             lv_res_t res = lv_img_decoder_get_info(disp_refr->bg_img, &header);
 3728              		.loc 1 752 13 is_stmt 1 view .LVU1218
 753:Drivers/lvgl/src/core/lv_refr.c ****             if(res == LV_RES_OK) {
 3729              		.loc 1 753 13 view .LVU1219
 753:Drivers/lvgl/src/core/lv_refr.c ****             if(res == LV_RES_OK) {
 3730              		.loc 1 753 28 is_stmt 0 view .LVU1220
 3731 011a 03A9     		add	r1, sp, #12
 3732 011c FFF7FEFF 		bl	lv_img_decoder_get_info
 3733              	.LVL351:
 754:Drivers/lvgl/src/core/lv_refr.c ****                 lv_draw_img_dsc_t dsc;
 3734              		.loc 1 754 13 is_stmt 1 view .LVU1221
 754:Drivers/lvgl/src/core/lv_refr.c ****                 lv_draw_img_dsc_t dsc;
 3735              		.loc 1 754 15 is_stmt 0 view .LVU1222
 3736 0120 0128     		cmp	r0, #1
 3737 0122 A1D1     		bne	.L233
 3738              	.LBB140:
 755:Drivers/lvgl/src/core/lv_refr.c ****                 lv_draw_img_dsc_init(&dsc);
 3739              		.loc 1 755 17 is_stmt 1 view .LVU1223
 756:Drivers/lvgl/src/core/lv_refr.c ****                 dsc.opa = disp_refr->bg_opa;
 3740              		.loc 1 756 17 view .LVU1224
 3741 0124 06A8     		add	r0, sp, #24
 3742              	.LVL352:
 756:Drivers/lvgl/src/core/lv_refr.c ****                 dsc.opa = disp_refr->bg_opa;
 3743              		.loc 1 756 17 is_stmt 0 view .LVU1225
 3744 0126 FFF7FEFF 		bl	lv_draw_img_dsc_init
 3745              	.LVL353:
 757:Drivers/lvgl/src/core/lv_refr.c ****                 lv_draw_img(draw_ctx, &dsc, &a, disp_refr->bg_img);
 3746              		.loc 1 757 17 is_stmt 1 view .LVU1226
 757:Drivers/lvgl/src/core/lv_refr.c ****                 lv_draw_img(draw_ctx, &dsc, &a, disp_refr->bg_img);
 3747              		.loc 1 757 36 is_stmt 0 view .LVU1227
 3748 012a 254B     		ldr	r3, .L253
 3749 012c 1B68     		ldr	r3, [r3]
 3750 012e 93F82920 		ldrb	r2, [r3, #41]	@ zero_extendqisi2
 757:Drivers/lvgl/src/core/lv_refr.c ****                 lv_draw_img(draw_ctx, &dsc, &a, disp_refr->bg_img);
 3751              		.loc 1 757 25 view .LVU1228
 3752 0132 8DF82320 		strb	r2, [sp, #35]
 758:Drivers/lvgl/src/core/lv_refr.c ****             }
 3753              		.loc 1 758 17 is_stmt 1 view .LVU1229
 3754 0136 DB6A     		ldr	r3, [r3, #44]
 3755 0138 04AA     		add	r2, sp, #16
 3756 013a 06A9     		add	r1, sp, #24
 3757 013c 2846     		mov	r0, r5
 3758 013e FFF7FEFF 		bl	lv_draw_img
 3759              	.LVL354:
 3760              	.LBE140:
 761:Drivers/lvgl/src/core/lv_refr.c ****             }
ARM GAS  /var/folders/0z/tsy30v1j4xl4_7kw94k978ww0000gn/T//ccRTPM70.s 			page 120


 3761              		.loc 1 761 17 view .LVU1230
 761:Drivers/lvgl/src/core/lv_refr.c ****             }
 3762              		.loc 1 761 17 view .LVU1231
 761:Drivers/lvgl/src/core/lv_refr.c ****             }
 3763              		.loc 1 761 17 view .LVU1232
 3764 0142 91E7     		b	.L233
 3765              	.L236:
 761:Drivers/lvgl/src/core/lv_refr.c ****             }
 3766              		.loc 1 761 17 is_stmt 0 view .LVU1233
 3767              	.LBE139:
 3768              	.LBB141:
 765:Drivers/lvgl/src/core/lv_refr.c ****             lv_draw_rect_dsc_init(&dsc);
 3769              		.loc 1 765 13 is_stmt 1 discriminator 4 view .LVU1234
 766:Drivers/lvgl/src/core/lv_refr.c ****             dsc.bg_color = disp_refr->bg_color;
 3770              		.loc 1 766 13 discriminator 4 view .LVU1235
 3771 0144 06A8     		add	r0, sp, #24
 3772 0146 FFF7FEFF 		bl	lv_draw_rect_dsc_init
 3773              	.LVL355:
 767:Drivers/lvgl/src/core/lv_refr.c ****             dsc.bg_opa = disp_refr->bg_opa;
 3774              		.loc 1 767 13 discriminator 4 view .LVU1236
 767:Drivers/lvgl/src/core/lv_refr.c ****             dsc.bg_opa = disp_refr->bg_opa;
 3775              		.loc 1 767 37 is_stmt 0 discriminator 4 view .LVU1237
 3776 014a 1D4B     		ldr	r3, .L253
 3777 014c 1B68     		ldr	r3, [r3]
 767:Drivers/lvgl/src/core/lv_refr.c ****             dsc.bg_opa = disp_refr->bg_opa;
 3778              		.loc 1 767 26 discriminator 4 view .LVU1238
 3779 014e 5A8D     		ldrh	r2, [r3, #42]
 3780 0150 ADF81C20 		strh	r2, [sp, #28]	@ movhi
 768:Drivers/lvgl/src/core/lv_refr.c ****             lv_draw_rect(draw_ctx, &dsc, draw_ctx->buf_area);
 3781              		.loc 1 768 13 is_stmt 1 discriminator 4 view .LVU1239
 768:Drivers/lvgl/src/core/lv_refr.c ****             lv_draw_rect(draw_ctx, &dsc, draw_ctx->buf_area);
 3782              		.loc 1 768 35 is_stmt 0 discriminator 4 view .LVU1240
 3783 0154 93F82930 		ldrb	r3, [r3, #41]	@ zero_extendqisi2
 768:Drivers/lvgl/src/core/lv_refr.c ****             lv_draw_rect(draw_ctx, &dsc, draw_ctx->buf_area);
 3784              		.loc 1 768 24 discriminator 4 view .LVU1241
 3785 0158 8DF81B30 		strb	r3, [sp, #27]
 769:Drivers/lvgl/src/core/lv_refr.c ****         }
 3786              		.loc 1 769 13 is_stmt 1 discriminator 4 view .LVU1242
 3787 015c 6A68     		ldr	r2, [r5, #4]
 3788 015e 06A9     		add	r1, sp, #24
 3789 0160 2846     		mov	r0, r5
 3790 0162 FFF7FEFF 		bl	lv_draw_rect
 3791              	.LVL356:
 3792 0166 7FE7     		b	.L233
 3793              	.L249:
 769:Drivers/lvgl/src/core/lv_refr.c ****         }
 3794              		.loc 1 769 13 is_stmt 0 discriminator 4 view .LVU1243
 3795              	.LBE141:
 3796              	.LBE137:
 774:Drivers/lvgl/src/core/lv_refr.c ****         refr_obj_and_children(draw_ctx, top_act_scr);
 3797              		.loc 1 774 33 is_stmt 1 discriminator 1 view .LVU1244
 774:Drivers/lvgl/src/core/lv_refr.c ****         refr_obj_and_children(draw_ctx, top_act_scr);
 3798              		.loc 1 774 45 is_stmt 0 discriminator 1 view .LVU1245
 3799 0168 1C69     		ldr	r4, [r3, #16]
 3800              	.LVL357:
 774:Drivers/lvgl/src/core/lv_refr.c ****         refr_obj_and_children(draw_ctx, top_act_scr);
 3801              		.loc 1 774 45 discriminator 1 view .LVU1246
ARM GAS  /var/folders/0z/tsy30v1j4xl4_7kw94k978ww0000gn/T//ccRTPM70.s 			page 121


 3802 016a 86E7     		b	.L239
 3803              	.L250:
 779:Drivers/lvgl/src/core/lv_refr.c ****             refr_obj_and_children(draw_ctx, top_prev_scr);
 3804              		.loc 1 779 51 view .LVU1247
 3805 016c 1E46     		mov	r6, r3
 3806              	.LVL358:
 779:Drivers/lvgl/src/core/lv_refr.c ****             refr_obj_and_children(draw_ctx, top_prev_scr);
 3807              		.loc 1 779 51 view .LVU1248
 3808 016e 8FE7     		b	.L241
 3809              	.LVL359:
 3810              	.L238:
 785:Drivers/lvgl/src/core/lv_refr.c ****             if(top_prev_scr == NULL) top_prev_scr = disp_refr->prev_scr;
 3811              		.loc 1 785 9 is_stmt 1 view .LVU1249
 785:Drivers/lvgl/src/core/lv_refr.c ****             if(top_prev_scr == NULL) top_prev_scr = disp_refr->prev_scr;
 3812              		.loc 1 785 21 is_stmt 0 view .LVU1250
 3813 0170 5B69     		ldr	r3, [r3, #20]
 785:Drivers/lvgl/src/core/lv_refr.c ****             if(top_prev_scr == NULL) top_prev_scr = disp_refr->prev_scr;
 3814              		.loc 1 785 11 view .LVU1251
 3815 0172 23B1     		cbz	r3, .L242
 786:Drivers/lvgl/src/core/lv_refr.c ****             refr_obj_and_children(draw_ctx, top_prev_scr);
 3816              		.loc 1 786 13 is_stmt 1 view .LVU1252
 786:Drivers/lvgl/src/core/lv_refr.c ****             refr_obj_and_children(draw_ctx, top_prev_scr);
 3817              		.loc 1 786 15 is_stmt 0 view .LVU1253
 3818 0174 EEB1     		cbz	r6, .L251
 3819              	.LVL360:
 3820              	.L243:
 787:Drivers/lvgl/src/core/lv_refr.c ****         }
 3821              		.loc 1 787 13 is_stmt 1 view .LVU1254
 3822 0176 3146     		mov	r1, r6
 3823 0178 2846     		mov	r0, r5
 3824 017a FFF7FEFF 		bl	refr_obj_and_children
 3825              	.LVL361:
 3826              	.L242:
 790:Drivers/lvgl/src/core/lv_refr.c ****         refr_obj_and_children(draw_ctx, top_act_scr);
 3827              		.loc 1 790 9 view .LVU1255
 790:Drivers/lvgl/src/core/lv_refr.c ****         refr_obj_and_children(draw_ctx, top_act_scr);
 3828              		.loc 1 790 11 is_stmt 0 view .LVU1256
 3829 017e D4B1     		cbz	r4, .L252
 3830              	.L244:
 791:Drivers/lvgl/src/core/lv_refr.c ****     }
 3831              		.loc 1 791 9 is_stmt 1 view .LVU1257
 3832 0180 2146     		mov	r1, r4
 3833 0182 2846     		mov	r0, r5
 3834 0184 FFF7FEFF 		bl	refr_obj_and_children
 3835              	.LVL362:
 3836              	.L240:
 795:Drivers/lvgl/src/core/lv_refr.c ****     refr_obj_and_children(draw_ctx, lv_disp_get_layer_sys(disp_refr));
 3837              		.loc 1 795 5 view .LVU1258
 3838 0188 0D4C     		ldr	r4, .L253
 3839              	.LVL363:
 795:Drivers/lvgl/src/core/lv_refr.c ****     refr_obj_and_children(draw_ctx, lv_disp_get_layer_sys(disp_refr));
 3840              		.loc 1 795 5 is_stmt 0 view .LVU1259
 3841 018a 2068     		ldr	r0, [r4]
 3842 018c FFF7FEFF 		bl	lv_disp_get_layer_top
 3843              	.LVL364:
 3844 0190 0146     		mov	r1, r0
 3845 0192 2846     		mov	r0, r5
ARM GAS  /var/folders/0z/tsy30v1j4xl4_7kw94k978ww0000gn/T//ccRTPM70.s 			page 122


 3846 0194 FFF7FEFF 		bl	refr_obj_and_children
 3847              	.LVL365:
 796:Drivers/lvgl/src/core/lv_refr.c **** 
 3848              		.loc 1 796 5 is_stmt 1 view .LVU1260
 3849 0198 2068     		ldr	r0, [r4]
 3850 019a FFF7FEFF 		bl	lv_disp_get_layer_sys
 3851              	.LVL366:
 3852 019e 0146     		mov	r1, r0
 3853 01a0 2846     		mov	r0, r5
 3854 01a2 FFF7FEFF 		bl	refr_obj_and_children
 3855              	.LVL367:
 798:Drivers/lvgl/src/core/lv_refr.c **** }
 3856              		.loc 1 798 5 view .LVU1261
 3857 01a6 2068     		ldr	r0, [r4]
 3858 01a8 FFF7FEFF 		bl	draw_buf_flush
 3859              	.LVL368:
 799:Drivers/lvgl/src/core/lv_refr.c **** 
 3860              		.loc 1 799 1 is_stmt 0 view .LVU1262
 3861 01ac 14B0     		add	sp, sp, #80
 3862              		.cfi_remember_state
 3863              		.cfi_def_cfa_offset 24
 3864              		@ sp needed
 3865 01ae BDE8F081 		pop	{r4, r5, r6, r7, r8, pc}
 3866              	.LVL369:
 3867              	.L251:
 3868              		.cfi_restore_state
 786:Drivers/lvgl/src/core/lv_refr.c ****             refr_obj_and_children(draw_ctx, top_prev_scr);
 3869              		.loc 1 786 51 view .LVU1263
 3870 01b2 1E46     		mov	r6, r3
 3871              	.LVL370:
 786:Drivers/lvgl/src/core/lv_refr.c ****             refr_obj_and_children(draw_ctx, top_prev_scr);
 3872              		.loc 1 786 51 view .LVU1264
 3873 01b4 DFE7     		b	.L243
 3874              	.LVL371:
 3875              	.L252:
 790:Drivers/lvgl/src/core/lv_refr.c ****         refr_obj_and_children(draw_ctx, top_act_scr);
 3876              		.loc 1 790 33 is_stmt 1 discriminator 1 view .LVU1265
 790:Drivers/lvgl/src/core/lv_refr.c ****         refr_obj_and_children(draw_ctx, top_act_scr);
 3877              		.loc 1 790 56 is_stmt 0 discriminator 1 view .LVU1266
 3878 01b6 024B     		ldr	r3, .L253
 3879 01b8 1B68     		ldr	r3, [r3]
 790:Drivers/lvgl/src/core/lv_refr.c ****         refr_obj_and_children(draw_ctx, top_act_scr);
 3880              		.loc 1 790 45 discriminator 1 view .LVU1267
 3881 01ba 1C69     		ldr	r4, [r3, #16]
 3882              	.LVL372:
 790:Drivers/lvgl/src/core/lv_refr.c ****         refr_obj_and_children(draw_ctx, top_act_scr);
 3883              		.loc 1 790 45 discriminator 1 view .LVU1268
 3884 01bc E0E7     		b	.L244
 3885              	.L254:
 3886 01be 00BF     		.align	2
 3887              	.L253:
 3888 01c0 00000000 		.word	.LANCHOR0
 3889              		.cfi_endproc
 3890              	.LFE180:
 3892              		.section	.text.refr_area,"ax",%progbits
 3893              		.align	1
 3894              		.syntax unified
ARM GAS  /var/folders/0z/tsy30v1j4xl4_7kw94k978ww0000gn/T//ccRTPM70.s 			page 123


 3895              		.thumb
 3896              		.thumb_func
 3898              	refr_area:
 3899              	.LVL373:
 3900              	.LFB179:
 632:Drivers/lvgl/src/core/lv_refr.c ****     lv_draw_ctx_t * draw_ctx = disp_refr->driver->draw_ctx;
 3901              		.loc 1 632 1 is_stmt 1 view -0
 3902              		.cfi_startproc
 3903              		@ args = 0, pretend = 0, frame = 16
 3904              		@ frame_needed = 0, uses_anonymous_args = 0
 632:Drivers/lvgl/src/core/lv_refr.c ****     lv_draw_ctx_t * draw_ctx = disp_refr->driver->draw_ctx;
 3905              		.loc 1 632 1 is_stmt 0 view .LVU1270
 3906 0000 2DE9F043 		push	{r4, r5, r6, r7, r8, r9, lr}
 3907              		.cfi_def_cfa_offset 28
 3908              		.cfi_offset 4, -28
 3909              		.cfi_offset 5, -24
 3910              		.cfi_offset 6, -20
 3911              		.cfi_offset 7, -16
 3912              		.cfi_offset 8, -12
 3913              		.cfi_offset 9, -8
 3914              		.cfi_offset 14, -4
 3915 0004 87B0     		sub	sp, sp, #28
 3916              		.cfi_def_cfa_offset 56
 3917 0006 0746     		mov	r7, r0
 633:Drivers/lvgl/src/core/lv_refr.c ****     draw_ctx->buf = disp_refr->driver->draw_buf->buf_act;
 3918              		.loc 1 633 5 is_stmt 1 view .LVU1271
 633:Drivers/lvgl/src/core/lv_refr.c ****     draw_ctx->buf = disp_refr->driver->draw_buf->buf_act;
 3919              		.loc 1 633 41 is_stmt 0 view .LVU1272
 3920 0008 614B     		ldr	r3, .L273
 3921 000a 1868     		ldr	r0, [r3]
 3922              	.LVL374:
 633:Drivers/lvgl/src/core/lv_refr.c ****     draw_ctx->buf = disp_refr->driver->draw_buf->buf_act;
 3923              		.loc 1 633 41 view .LVU1273
 3924 000c 0368     		ldr	r3, [r0]
 633:Drivers/lvgl/src/core/lv_refr.c ****     draw_ctx->buf = disp_refr->driver->draw_buf->buf_act;
 3925              		.loc 1 633 21 view .LVU1274
 3926 000e DD6B     		ldr	r5, [r3, #60]
 3927              	.LVL375:
 634:Drivers/lvgl/src/core/lv_refr.c **** 
 3928              		.loc 1 634 5 is_stmt 1 view .LVU1275
 634:Drivers/lvgl/src/core/lv_refr.c **** 
 3929              		.loc 1 634 38 is_stmt 0 view .LVU1276
 3930 0010 DB68     		ldr	r3, [r3, #12]
 634:Drivers/lvgl/src/core/lv_refr.c **** 
 3931              		.loc 1 634 48 view .LVU1277
 3932 0012 9B68     		ldr	r3, [r3, #8]
 634:Drivers/lvgl/src/core/lv_refr.c **** 
 3933              		.loc 1 634 19 view .LVU1278
 3934 0014 2B60     		str	r3, [r5]
 638:Drivers/lvgl/src/core/lv_refr.c ****         lv_area_t disp_area;
 3935              		.loc 1 638 5 is_stmt 1 view .LVU1279
 638:Drivers/lvgl/src/core/lv_refr.c ****         lv_area_t disp_area;
 3936              		.loc 1 638 17 is_stmt 0 view .LVU1280
 3937 0016 0368     		ldr	r3, [r0]
 638:Drivers/lvgl/src/core/lv_refr.c ****         lv_area_t disp_area;
 3938              		.loc 1 638 40 view .LVU1281
 3939 0018 1B7C     		ldrb	r3, [r3, #16]	@ zero_extendqisi2
ARM GAS  /var/folders/0z/tsy30v1j4xl4_7kw94k978ww0000gn/T//ccRTPM70.s 			page 124


 638:Drivers/lvgl/src/core/lv_refr.c ****         lv_area_t disp_area;
 3940              		.loc 1 638 7 view .LVU1282
 3941 001a 13F0030F 		tst	r3, #3
 3942 001e 24D1     		bne	.L268
 658:Drivers/lvgl/src/core/lv_refr.c ****     lv_coord_t h = lv_area_get_height(area_p);
 3943              		.loc 1 658 5 is_stmt 1 view .LVU1283
 3944              	.LVL376:
 3945              	.LBB142:
 3946              	.LBI142:
 123:Drivers/lvgl/src/core/../misc/../font/../misc/lv_area.h **** {
 3947              		.loc 2 123 26 view .LVU1284
 3948              	.LBB143:
 125:Drivers/lvgl/src/core/../misc/../font/../misc/lv_area.h **** }
 3949              		.loc 2 125 5 view .LVU1285
 125:Drivers/lvgl/src/core/../misc/../font/../misc/lv_area.h **** }
 3950              		.loc 2 125 31 is_stmt 0 view .LVU1286
 3951 0020 BC88     		ldrh	r4, [r7, #4]
 125:Drivers/lvgl/src/core/../misc/../font/../misc/lv_area.h **** }
 3952              		.loc 2 125 44 view .LVU1287
 3953 0022 3B88     		ldrh	r3, [r7]
 125:Drivers/lvgl/src/core/../misc/../font/../misc/lv_area.h **** }
 3954              		.loc 2 125 36 view .LVU1288
 3955 0024 E41A     		subs	r4, r4, r3
 3956 0026 A4B2     		uxth	r4, r4
 125:Drivers/lvgl/src/core/../misc/../font/../misc/lv_area.h **** }
 3957              		.loc 2 125 49 view .LVU1289
 3958 0028 0134     		adds	r4, r4, #1
 125:Drivers/lvgl/src/core/../misc/../font/../misc/lv_area.h **** }
 3959              		.loc 2 125 12 view .LVU1290
 3960 002a 24B2     		sxth	r4, r4
 3961              	.LVL377:
 125:Drivers/lvgl/src/core/../misc/../font/../misc/lv_area.h **** }
 3962              		.loc 2 125 12 view .LVU1291
 3963              	.LBE143:
 3964              	.LBE142:
 659:Drivers/lvgl/src/core/lv_refr.c ****     lv_coord_t y2 = area_p->y2 >= lv_disp_get_ver_res(disp_refr) ?
 3965              		.loc 1 659 5 is_stmt 1 view .LVU1292
 3966              	.LBB144:
 3967              	.LBI144:
 133:Drivers/lvgl/src/core/../misc/../font/../misc/lv_area.h **** {
 3968              		.loc 2 133 26 view .LVU1293
 3969              	.LBB145:
 3970              		.loc 2 135 5 view .LVU1294
 3971              		.loc 2 135 31 is_stmt 0 view .LVU1295
 3972 002c B7F90660 		ldrsh	r6, [r7, #6]
 3973 0030 1FFA86F8 		uxth	r8, r6
 3974              		.loc 2 135 44 view .LVU1296
 3975 0034 7B88     		ldrh	r3, [r7, #2]
 3976              		.loc 2 135 36 view .LVU1297
 3977 0036 A8EB0308 		sub	r8, r8, r3
 3978 003a 1FFA88F8 		uxth	r8, r8
 3979              		.loc 2 135 49 view .LVU1298
 3980 003e 08F10108 		add	r8, r8, #1
 3981              		.loc 2 135 12 view .LVU1299
 3982 0042 0FFA88F8 		sxth	r8, r8
 3983              	.LVL378:
 3984              		.loc 2 135 12 view .LVU1300
ARM GAS  /var/folders/0z/tsy30v1j4xl4_7kw94k978ww0000gn/T//ccRTPM70.s 			page 125


 3985              	.LBE145:
 3986              	.LBE144:
 660:Drivers/lvgl/src/core/lv_refr.c ****                     lv_disp_get_ver_res(disp_refr) - 1 : area_p->y2;
 3987              		.loc 1 660 5 is_stmt 1 view .LVU1301
 660:Drivers/lvgl/src/core/lv_refr.c ****                     lv_disp_get_ver_res(disp_refr) - 1 : area_p->y2;
 3988              		.loc 1 660 35 is_stmt 0 view .LVU1302
 3989 0046 FFF7FEFF 		bl	lv_disp_get_ver_res
 3990              	.LVL379:
 660:Drivers/lvgl/src/core/lv_refr.c ****                     lv_disp_get_ver_res(disp_refr) - 1 : area_p->y2;
 3991              		.loc 1 660 16 view .LVU1303
 3992 004a B042     		cmp	r0, r6
 3993 004c 40DD     		ble	.L269
 660:Drivers/lvgl/src/core/lv_refr.c ****                     lv_disp_get_ver_res(disp_refr) - 1 : area_p->y2;
 3994              		.loc 1 660 16 discriminator 2 view .LVU1304
 3995 004e B7F90660 		ldrsh	r6, [r7, #6]
 3996              	.L261:
 3997              	.LVL380:
 663:Drivers/lvgl/src/core/lv_refr.c **** 
 3998              		.loc 1 663 5 is_stmt 1 discriminator 4 view .LVU1305
 663:Drivers/lvgl/src/core/lv_refr.c **** 
 3999              		.loc 1 663 23 is_stmt 0 discriminator 4 view .LVU1306
 4000 0052 4246     		mov	r2, r8
 4001 0054 2146     		mov	r1, r4
 4002 0056 4E4B     		ldr	r3, .L273
 4003 0058 1868     		ldr	r0, [r3]
 4004 005a FFF7FEFF 		bl	get_max_row
 4005              	.LVL381:
 4006 005e 8046     		mov	r8, r0
 4007              	.LVL382:
 665:Drivers/lvgl/src/core/lv_refr.c ****     lv_coord_t row_last = 0;
 4008              		.loc 1 665 5 is_stmt 1 discriminator 4 view .LVU1307
 666:Drivers/lvgl/src/core/lv_refr.c ****     lv_area_t sub_area;
 4009              		.loc 1 666 5 discriminator 4 view .LVU1308
 667:Drivers/lvgl/src/core/lv_refr.c ****     for(row = area_p->y1; row + max_row - 1 <= y2; row += max_row) {
 4010              		.loc 1 667 5 discriminator 4 view .LVU1309
 668:Drivers/lvgl/src/core/lv_refr.c ****         /*Calc. the next y coordinates of draw_buf*/
 4011              		.loc 1 668 5 discriminator 4 view .LVU1310
 668:Drivers/lvgl/src/core/lv_refr.c ****         /*Calc. the next y coordinates of draw_buf*/
 4012              		.loc 1 668 13 is_stmt 0 discriminator 4 view .LVU1311
 4013 0060 B7F90230 		ldrsh	r3, [r7, #2]
 4014              	.LVL383:
 666:Drivers/lvgl/src/core/lv_refr.c ****     lv_area_t sub_area;
 4015              		.loc 1 666 16 discriminator 4 view .LVU1312
 4016 0064 4FF00009 		mov	r9, #0
 668:Drivers/lvgl/src/core/lv_refr.c ****         /*Calc. the next y coordinates of draw_buf*/
 4017              		.loc 1 668 5 discriminator 4 view .LVU1313
 4018 0068 42E0     		b	.L262
 4019              	.LVL384:
 4020              	.L268:
 4021              	.LBB146:
 639:Drivers/lvgl/src/core/lv_refr.c ****         lv_area_set(&disp_area, 0, 0, lv_disp_get_hor_res(disp_refr) - 1, lv_disp_get_ver_res(disp_
 4022              		.loc 1 639 9 is_stmt 1 view .LVU1314
 640:Drivers/lvgl/src/core/lv_refr.c ****         draw_ctx->buf_area = &disp_area;
 4023              		.loc 1 640 9 view .LVU1315
 640:Drivers/lvgl/src/core/lv_refr.c ****         draw_ctx->buf_area = &disp_area;
 4024              		.loc 1 640 39 is_stmt 0 view .LVU1316
 4025 006a FFF7FEFF 		bl	lv_disp_get_hor_res
ARM GAS  /var/folders/0z/tsy30v1j4xl4_7kw94k978ww0000gn/T//ccRTPM70.s 			page 126


 4026              	.LVL385:
 4027 006e 84B2     		uxth	r4, r0
 640:Drivers/lvgl/src/core/lv_refr.c ****         draw_ctx->buf_area = &disp_area;
 4028              		.loc 1 640 70 view .LVU1317
 4029 0070 013C     		subs	r4, r4, #1
 4030 0072 A4B2     		uxth	r4, r4
 640:Drivers/lvgl/src/core/lv_refr.c ****         draw_ctx->buf_area = &disp_area;
 4031              		.loc 1 640 75 view .LVU1318
 4032 0074 464E     		ldr	r6, .L273
 4033 0076 3068     		ldr	r0, [r6]
 4034 0078 FFF7FEFF 		bl	lv_disp_get_ver_res
 4035              	.LVL386:
 4036 007c 83B2     		uxth	r3, r0
 640:Drivers/lvgl/src/core/lv_refr.c ****         draw_ctx->buf_area = &disp_area;
 4037              		.loc 1 640 106 view .LVU1319
 4038 007e 013B     		subs	r3, r3, #1
 640:Drivers/lvgl/src/core/lv_refr.c ****         draw_ctx->buf_area = &disp_area;
 4039              		.loc 1 640 9 view .LVU1320
 4040 0080 0DF10808 		add	r8, sp, #8
 4041 0084 1BB2     		sxth	r3, r3
 4042 0086 0093     		str	r3, [sp]
 4043 0088 23B2     		sxth	r3, r4
 4044 008a 0022     		movs	r2, #0
 4045 008c 1146     		mov	r1, r2
 4046 008e 4046     		mov	r0, r8
 4047 0090 FFF7FEFF 		bl	lv_area_set
 4048              	.LVL387:
 641:Drivers/lvgl/src/core/lv_refr.c **** 
 4049              		.loc 1 641 9 is_stmt 1 view .LVU1321
 641:Drivers/lvgl/src/core/lv_refr.c **** 
 4050              		.loc 1 641 28 is_stmt 0 view .LVU1322
 4051 0094 C5F80480 		str	r8, [r5, #4]
 643:Drivers/lvgl/src/core/lv_refr.c ****             disp_refr->driver->draw_buf->last_part = 1;
 4052              		.loc 1 643 9 is_stmt 1 view .LVU1323
 643:Drivers/lvgl/src/core/lv_refr.c ****             disp_refr->driver->draw_buf->last_part = 1;
 4053              		.loc 1 643 21 is_stmt 0 view .LVU1324
 4054 0098 3368     		ldr	r3, [r6]
 4055 009a 1B68     		ldr	r3, [r3]
 643:Drivers/lvgl/src/core/lv_refr.c ****             disp_refr->driver->draw_buf->last_part = 1;
 4056              		.loc 1 643 12 view .LVU1325
 4057 009c 1A7C     		ldrb	r2, [r3, #16]	@ zero_extendqisi2
 643:Drivers/lvgl/src/core/lv_refr.c ****             disp_refr->driver->draw_buf->last_part = 1;
 4058              		.loc 1 643 11 view .LVU1326
 4059 009e 12F0020F 		tst	r2, #2
 4060 00a2 0AD0     		beq	.L257
 644:Drivers/lvgl/src/core/lv_refr.c ****             draw_ctx->clip_area = &disp_area;
 4061              		.loc 1 644 13 is_stmt 1 view .LVU1327
 644:Drivers/lvgl/src/core/lv_refr.c ****             draw_ctx->clip_area = &disp_area;
 4062              		.loc 1 644 30 is_stmt 0 view .LVU1328
 4063 00a4 DA68     		ldr	r2, [r3, #12]
 644:Drivers/lvgl/src/core/lv_refr.c ****             draw_ctx->clip_area = &disp_area;
 4064              		.loc 1 644 52 view .LVU1329
 4065 00a6 137E     		ldrb	r3, [r2, #24]	@ zero_extendqisi2
 4066 00a8 43F00203 		orr	r3, r3, #2
 4067 00ac 1376     		strb	r3, [r2, #24]
 645:Drivers/lvgl/src/core/lv_refr.c ****             refr_area_part(draw_ctx);
 4068              		.loc 1 645 13 is_stmt 1 view .LVU1330
ARM GAS  /var/folders/0z/tsy30v1j4xl4_7kw94k978ww0000gn/T//ccRTPM70.s 			page 127


 645:Drivers/lvgl/src/core/lv_refr.c ****             refr_area_part(draw_ctx);
 4069              		.loc 1 645 33 is_stmt 0 view .LVU1331
 4070 00ae C5F80880 		str	r8, [r5, #8]
 646:Drivers/lvgl/src/core/lv_refr.c ****         }
 4071              		.loc 1 646 13 is_stmt 1 view .LVU1332
 4072 00b2 2846     		mov	r0, r5
 4073 00b4 FFF7FEFF 		bl	refr_area_part
 4074              	.LVL388:
 4075 00b8 47E0     		b	.L255
 4076              	.L257:
 649:Drivers/lvgl/src/core/lv_refr.c ****             draw_ctx->clip_area = area_p;
 4077              		.loc 1 649 13 view .LVU1333
 649:Drivers/lvgl/src/core/lv_refr.c ****             draw_ctx->clip_area = area_p;
 4078              		.loc 1 649 71 is_stmt 0 view .LVU1334
 4079 00ba DA68     		ldr	r2, [r3, #12]
 649:Drivers/lvgl/src/core/lv_refr.c ****             draw_ctx->clip_area = area_p;
 4080              		.loc 1 649 81 view .LVU1335
 4081 00bc 9169     		ldr	r1, [r2, #24]
 649:Drivers/lvgl/src/core/lv_refr.c ****             draw_ctx->clip_area = area_p;
 4082              		.loc 1 649 52 view .LVU1336
 4083 00be 137E     		ldrb	r3, [r2, #24]	@ zero_extendqisi2
 4084 00c0 61F34103 		bfi	r3, r1, #1, #1
 4085 00c4 1376     		strb	r3, [r2, #24]
 650:Drivers/lvgl/src/core/lv_refr.c ****             refr_area_part(draw_ctx);
 4086              		.loc 1 650 13 is_stmt 1 view .LVU1337
 650:Drivers/lvgl/src/core/lv_refr.c ****             refr_area_part(draw_ctx);
 4087              		.loc 1 650 33 is_stmt 0 view .LVU1338
 4088 00c6 AF60     		str	r7, [r5, #8]
 651:Drivers/lvgl/src/core/lv_refr.c ****         }
 4089              		.loc 1 651 13 is_stmt 1 view .LVU1339
 4090 00c8 2846     		mov	r0, r5
 4091 00ca FFF7FEFF 		bl	refr_area_part
 4092              	.LVL389:
 653:Drivers/lvgl/src/core/lv_refr.c ****     }
 4093              		.loc 1 653 9 view .LVU1340
 4094 00ce 3CE0     		b	.L255
 4095              	.LVL390:
 4096              	.L269:
 653:Drivers/lvgl/src/core/lv_refr.c ****     }
 4097              		.loc 1 653 9 is_stmt 0 view .LVU1341
 4098              	.LBE146:
 661:Drivers/lvgl/src/core/lv_refr.c **** 
 4099              		.loc 1 661 21 discriminator 1 view .LVU1342
 4100 00d0 2F4B     		ldr	r3, .L273
 4101 00d2 1868     		ldr	r0, [r3]
 4102 00d4 FFF7FEFF 		bl	lv_disp_get_ver_res
 4103              	.LVL391:
 4104 00d8 86B2     		uxth	r6, r0
 661:Drivers/lvgl/src/core/lv_refr.c **** 
 4105              		.loc 1 661 52 discriminator 1 view .LVU1343
 4106 00da 013E     		subs	r6, r6, #1
 660:Drivers/lvgl/src/core/lv_refr.c ****                     lv_disp_get_ver_res(disp_refr) - 1 : area_p->y2;
 4107              		.loc 1 660 16 discriminator 1 view .LVU1344
 4108 00dc 36B2     		sxth	r6, r6
 4109 00de B8E7     		b	.L261
 4110              	.LVL392:
 4111              	.L263:
ARM GAS  /var/folders/0z/tsy30v1j4xl4_7kw94k978ww0000gn/T//ccRTPM70.s 			page 128


 678:Drivers/lvgl/src/core/lv_refr.c ****         if(y2 == row_last) disp_refr->driver->draw_buf->last_part = 1;
 4112              		.loc 1 678 9 is_stmt 1 view .LVU1345
 678:Drivers/lvgl/src/core/lv_refr.c ****         if(y2 == row_last) disp_refr->driver->draw_buf->last_part = 1;
 4113              		.loc 1 678 18 is_stmt 0 view .LVU1346
 4114 00e0 BDF91690 		ldrsh	r9, [sp, #22]
 4115              	.LVL393:
 679:Drivers/lvgl/src/core/lv_refr.c ****         refr_area_part(draw_ctx);
 4116              		.loc 1 679 9 is_stmt 1 view .LVU1347
 679:Drivers/lvgl/src/core/lv_refr.c ****         refr_area_part(draw_ctx);
 4117              		.loc 1 679 11 is_stmt 0 view .LVU1348
 4118 00e4 4E45     		cmp	r6, r9
 4119 00e6 27D0     		beq	.L270
 4120              	.L264:
 680:Drivers/lvgl/src/core/lv_refr.c ****     }
 4121              		.loc 1 680 9 is_stmt 1 discriminator 2 view .LVU1349
 4122 00e8 2846     		mov	r0, r5
 4123 00ea FFF7FEFF 		bl	refr_area_part
 4124              	.LVL394:
 668:Drivers/lvgl/src/core/lv_refr.c ****         /*Calc. the next y coordinates of draw_buf*/
 4125              		.loc 1 668 56 discriminator 2 view .LVU1350
 4126 00ee 23B2     		sxth	r3, r4
 4127              	.LVL395:
 4128              	.L262:
 668:Drivers/lvgl/src/core/lv_refr.c ****         /*Calc. the next y coordinates of draw_buf*/
 4129              		.loc 1 668 45 discriminator 1 view .LVU1351
 668:Drivers/lvgl/src/core/lv_refr.c ****         /*Calc. the next y coordinates of draw_buf*/
 4130              		.loc 1 668 31 is_stmt 0 discriminator 1 view .LVU1352
 4131 00f0 03EB0802 		add	r2, r3, r8
 668:Drivers/lvgl/src/core/lv_refr.c ****         /*Calc. the next y coordinates of draw_buf*/
 4132              		.loc 1 668 41 discriminator 1 view .LVU1353
 4133 00f4 013A     		subs	r2, r2, #1
 668:Drivers/lvgl/src/core/lv_refr.c ****         /*Calc. the next y coordinates of draw_buf*/
 4134              		.loc 1 668 45 discriminator 1 view .LVU1354
 4135 00f6 B242     		cmp	r2, r6
 4136 00f8 25DC     		bgt	.L271
 670:Drivers/lvgl/src/core/lv_refr.c ****         sub_area.x2 = area_p->x2;
 4137              		.loc 1 670 9 is_stmt 1 view .LVU1355
 670:Drivers/lvgl/src/core/lv_refr.c ****         sub_area.x2 = area_p->x2;
 4138              		.loc 1 670 29 is_stmt 0 view .LVU1356
 4139 00fa B7F90020 		ldrsh	r2, [r7]
 670:Drivers/lvgl/src/core/lv_refr.c ****         sub_area.x2 = area_p->x2;
 4140              		.loc 1 670 21 view .LVU1357
 4141 00fe ADF81020 		strh	r2, [sp, #16]	@ movhi
 671:Drivers/lvgl/src/core/lv_refr.c ****         sub_area.y1 = row;
 4142              		.loc 1 671 9 is_stmt 1 view .LVU1358
 671:Drivers/lvgl/src/core/lv_refr.c ****         sub_area.y1 = row;
 4143              		.loc 1 671 29 is_stmt 0 view .LVU1359
 4144 0102 B7F90420 		ldrsh	r2, [r7, #4]
 671:Drivers/lvgl/src/core/lv_refr.c ****         sub_area.y1 = row;
 4145              		.loc 1 671 21 view .LVU1360
 4146 0106 ADF81420 		strh	r2, [sp, #20]	@ movhi
 672:Drivers/lvgl/src/core/lv_refr.c ****         sub_area.y2 = row + max_row - 1;
 4147              		.loc 1 672 9 is_stmt 1 view .LVU1361
 672:Drivers/lvgl/src/core/lv_refr.c ****         sub_area.y2 = row + max_row - 1;
 4148              		.loc 1 672 21 is_stmt 0 view .LVU1362
 4149 010a ADF81230 		strh	r3, [sp, #18]	@ movhi
 673:Drivers/lvgl/src/core/lv_refr.c ****         draw_ctx->buf_area = &sub_area;
ARM GAS  /var/folders/0z/tsy30v1j4xl4_7kw94k978ww0000gn/T//ccRTPM70.s 			page 129


 4150              		.loc 1 673 9 is_stmt 1 view .LVU1363
 673:Drivers/lvgl/src/core/lv_refr.c ****         draw_ctx->buf_area = &sub_area;
 4151              		.loc 1 673 27 is_stmt 0 view .LVU1364
 4152 010e 4344     		add	r3, r3, r8
 4153              	.LVL396:
 673:Drivers/lvgl/src/core/lv_refr.c ****         draw_ctx->buf_area = &sub_area;
 4154              		.loc 1 673 27 view .LVU1365
 4155 0110 9CB2     		uxth	r4, r3
 673:Drivers/lvgl/src/core/lv_refr.c ****         draw_ctx->buf_area = &sub_area;
 4156              		.loc 1 673 37 view .LVU1366
 4157 0112 631E     		subs	r3, r4, #1
 673:Drivers/lvgl/src/core/lv_refr.c ****         draw_ctx->buf_area = &sub_area;
 4158              		.loc 1 673 21 view .LVU1367
 4159 0114 ADF81630 		strh	r3, [sp, #22]	@ movhi
 674:Drivers/lvgl/src/core/lv_refr.c ****         draw_ctx->clip_area = &sub_area;
 4160              		.loc 1 674 9 is_stmt 1 view .LVU1368
 674:Drivers/lvgl/src/core/lv_refr.c ****         draw_ctx->clip_area = &sub_area;
 4161              		.loc 1 674 28 is_stmt 0 view .LVU1369
 4162 0118 04AB     		add	r3, sp, #16
 4163 011a 6B60     		str	r3, [r5, #4]
 675:Drivers/lvgl/src/core/lv_refr.c ****         draw_ctx->buf = disp_refr->driver->draw_buf->buf_act;
 4164              		.loc 1 675 9 is_stmt 1 view .LVU1370
 675:Drivers/lvgl/src/core/lv_refr.c ****         draw_ctx->buf = disp_refr->driver->draw_buf->buf_act;
 4165              		.loc 1 675 29 is_stmt 0 view .LVU1371
 4166 011c AB60     		str	r3, [r5, #8]
 676:Drivers/lvgl/src/core/lv_refr.c ****         if(sub_area.y2 > y2) sub_area.y2 = y2;
 4167              		.loc 1 676 9 is_stmt 1 view .LVU1372
 676:Drivers/lvgl/src/core/lv_refr.c ****         if(sub_area.y2 > y2) sub_area.y2 = y2;
 4168              		.loc 1 676 34 is_stmt 0 view .LVU1373
 4169 011e 1C4B     		ldr	r3, .L273
 4170 0120 1B68     		ldr	r3, [r3]
 4171 0122 1A68     		ldr	r2, [r3]
 676:Drivers/lvgl/src/core/lv_refr.c ****         if(sub_area.y2 > y2) sub_area.y2 = y2;
 4172              		.loc 1 676 42 view .LVU1374
 4173 0124 D268     		ldr	r2, [r2, #12]
 676:Drivers/lvgl/src/core/lv_refr.c ****         if(sub_area.y2 > y2) sub_area.y2 = y2;
 4174              		.loc 1 676 52 view .LVU1375
 4175 0126 9268     		ldr	r2, [r2, #8]
 676:Drivers/lvgl/src/core/lv_refr.c ****         if(sub_area.y2 > y2) sub_area.y2 = y2;
 4176              		.loc 1 676 23 view .LVU1376
 4177 0128 2A60     		str	r2, [r5]
 4178              	.LVL397:
 677:Drivers/lvgl/src/core/lv_refr.c ****         row_last = sub_area.y2;
 4179              		.loc 1 677 9 is_stmt 1 view .LVU1377
 677:Drivers/lvgl/src/core/lv_refr.c ****         row_last = sub_area.y2;
 4180              		.loc 1 677 20 is_stmt 0 view .LVU1378
 4181 012a BDF91620 		ldrsh	r2, [sp, #22]
 677:Drivers/lvgl/src/core/lv_refr.c ****         row_last = sub_area.y2;
 4182              		.loc 1 677 11 view .LVU1379
 4183 012e B242     		cmp	r2, r6
 4184 0130 D6DD     		ble	.L263
 677:Drivers/lvgl/src/core/lv_refr.c ****         row_last = sub_area.y2;
 4185              		.loc 1 677 30 is_stmt 1 discriminator 1 view .LVU1380
 677:Drivers/lvgl/src/core/lv_refr.c ****         row_last = sub_area.y2;
 4186              		.loc 1 677 42 is_stmt 0 discriminator 1 view .LVU1381
 4187 0132 ADF81660 		strh	r6, [sp, #22]	@ movhi
 4188 0136 D3E7     		b	.L263
ARM GAS  /var/folders/0z/tsy30v1j4xl4_7kw94k978ww0000gn/T//ccRTPM70.s 			page 130


 4189              	.L270:
 679:Drivers/lvgl/src/core/lv_refr.c ****         refr_area_part(draw_ctx);
 4190              		.loc 1 679 28 is_stmt 1 discriminator 1 view .LVU1382
 679:Drivers/lvgl/src/core/lv_refr.c ****         refr_area_part(draw_ctx);
 4191              		.loc 1 679 37 is_stmt 0 discriminator 1 view .LVU1383
 4192 0138 1B68     		ldr	r3, [r3]
 679:Drivers/lvgl/src/core/lv_refr.c ****         refr_area_part(draw_ctx);
 4193              		.loc 1 679 45 discriminator 1 view .LVU1384
 4194 013a DA68     		ldr	r2, [r3, #12]
 679:Drivers/lvgl/src/core/lv_refr.c ****         refr_area_part(draw_ctx);
 4195              		.loc 1 679 67 discriminator 1 view .LVU1385
 4196 013c 137E     		ldrb	r3, [r2, #24]	@ zero_extendqisi2
 4197 013e 43F00203 		orr	r3, r3, #2
 4198 0142 1376     		strb	r3, [r2, #24]
 4199 0144 D0E7     		b	.L264
 4200              	.LVL398:
 4201              	.L271:
 684:Drivers/lvgl/src/core/lv_refr.c ****         /*Calc. the next y coordinates of draw_buf*/
 4202              		.loc 1 684 5 is_stmt 1 view .LVU1386
 684:Drivers/lvgl/src/core/lv_refr.c ****         /*Calc. the next y coordinates of draw_buf*/
 4203              		.loc 1 684 7 is_stmt 0 view .LVU1387
 4204 0146 B145     		cmp	r9, r6
 4205 0148 02D1     		bne	.L272
 4206              	.LVL399:
 4207              	.L255:
 696:Drivers/lvgl/src/core/lv_refr.c **** 
 4208              		.loc 1 696 1 view .LVU1388
 4209 014a 07B0     		add	sp, sp, #28
 4210              		.cfi_remember_state
 4211              		.cfi_def_cfa_offset 28
 4212              		@ sp needed
 4213 014c BDE8F083 		pop	{r4, r5, r6, r7, r8, r9, pc}
 4214              	.LVL400:
 4215              	.L272:
 4216              		.cfi_restore_state
 686:Drivers/lvgl/src/core/lv_refr.c ****         sub_area.x2 = area_p->x2;
 4217              		.loc 1 686 9 is_stmt 1 view .LVU1389
 686:Drivers/lvgl/src/core/lv_refr.c ****         sub_area.x2 = area_p->x2;
 4218              		.loc 1 686 29 is_stmt 0 view .LVU1390
 4219 0150 B7F90020 		ldrsh	r2, [r7]
 686:Drivers/lvgl/src/core/lv_refr.c ****         sub_area.x2 = area_p->x2;
 4220              		.loc 1 686 21 view .LVU1391
 4221 0154 ADF81020 		strh	r2, [sp, #16]	@ movhi
 687:Drivers/lvgl/src/core/lv_refr.c ****         sub_area.y1 = row;
 4222              		.loc 1 687 9 is_stmt 1 view .LVU1392
 687:Drivers/lvgl/src/core/lv_refr.c ****         sub_area.y1 = row;
 4223              		.loc 1 687 29 is_stmt 0 view .LVU1393
 4224 0158 B7F90420 		ldrsh	r2, [r7, #4]
 687:Drivers/lvgl/src/core/lv_refr.c ****         sub_area.y1 = row;
 4225              		.loc 1 687 21 view .LVU1394
 4226 015c ADF81420 		strh	r2, [sp, #20]	@ movhi
 688:Drivers/lvgl/src/core/lv_refr.c ****         sub_area.y2 = y2;
 4227              		.loc 1 688 9 is_stmt 1 view .LVU1395
 688:Drivers/lvgl/src/core/lv_refr.c ****         sub_area.y2 = y2;
 4228              		.loc 1 688 21 is_stmt 0 view .LVU1396
 4229 0160 ADF81230 		strh	r3, [sp, #18]	@ movhi
 689:Drivers/lvgl/src/core/lv_refr.c ****         draw_ctx->buf_area = &sub_area;
ARM GAS  /var/folders/0z/tsy30v1j4xl4_7kw94k978ww0000gn/T//ccRTPM70.s 			page 131


 4230              		.loc 1 689 9 is_stmt 1 view .LVU1397
 689:Drivers/lvgl/src/core/lv_refr.c ****         draw_ctx->buf_area = &sub_area;
 4231              		.loc 1 689 21 is_stmt 0 view .LVU1398
 4232 0164 ADF81660 		strh	r6, [sp, #22]	@ movhi
 690:Drivers/lvgl/src/core/lv_refr.c ****         draw_ctx->clip_area = &sub_area;
 4233              		.loc 1 690 9 is_stmt 1 view .LVU1399
 690:Drivers/lvgl/src/core/lv_refr.c ****         draw_ctx->clip_area = &sub_area;
 4234              		.loc 1 690 28 is_stmt 0 view .LVU1400
 4235 0168 04AB     		add	r3, sp, #16
 4236              	.LVL401:
 690:Drivers/lvgl/src/core/lv_refr.c ****         draw_ctx->clip_area = &sub_area;
 4237              		.loc 1 690 28 view .LVU1401
 4238 016a 6B60     		str	r3, [r5, #4]
 691:Drivers/lvgl/src/core/lv_refr.c ****         draw_ctx->buf = disp_refr->driver->draw_buf->buf_act;
 4239              		.loc 1 691 9 is_stmt 1 view .LVU1402
 691:Drivers/lvgl/src/core/lv_refr.c ****         draw_ctx->buf = disp_refr->driver->draw_buf->buf_act;
 4240              		.loc 1 691 29 is_stmt 0 view .LVU1403
 4241 016c AB60     		str	r3, [r5, #8]
 692:Drivers/lvgl/src/core/lv_refr.c ****         disp_refr->driver->draw_buf->last_part = 1;
 4242              		.loc 1 692 9 is_stmt 1 view .LVU1404
 692:Drivers/lvgl/src/core/lv_refr.c ****         disp_refr->driver->draw_buf->last_part = 1;
 4243              		.loc 1 692 34 is_stmt 0 view .LVU1405
 4244 016e 084B     		ldr	r3, .L273
 4245 0170 1B68     		ldr	r3, [r3]
 4246 0172 1A68     		ldr	r2, [r3]
 692:Drivers/lvgl/src/core/lv_refr.c ****         disp_refr->driver->draw_buf->last_part = 1;
 4247              		.loc 1 692 42 view .LVU1406
 4248 0174 D268     		ldr	r2, [r2, #12]
 692:Drivers/lvgl/src/core/lv_refr.c ****         disp_refr->driver->draw_buf->last_part = 1;
 4249              		.loc 1 692 52 view .LVU1407
 4250 0176 9268     		ldr	r2, [r2, #8]
 692:Drivers/lvgl/src/core/lv_refr.c ****         disp_refr->driver->draw_buf->last_part = 1;
 4251              		.loc 1 692 23 view .LVU1408
 4252 0178 2A60     		str	r2, [r5]
 4253              	.LVL402:
 693:Drivers/lvgl/src/core/lv_refr.c ****         refr_area_part(draw_ctx);
 4254              		.loc 1 693 9 is_stmt 1 view .LVU1409
 693:Drivers/lvgl/src/core/lv_refr.c ****         refr_area_part(draw_ctx);
 4255              		.loc 1 693 18 is_stmt 0 view .LVU1410
 4256 017a 1B68     		ldr	r3, [r3]
 693:Drivers/lvgl/src/core/lv_refr.c ****         refr_area_part(draw_ctx);
 4257              		.loc 1 693 26 view .LVU1411
 4258 017c DA68     		ldr	r2, [r3, #12]
 693:Drivers/lvgl/src/core/lv_refr.c ****         refr_area_part(draw_ctx);
 4259              		.loc 1 693 48 view .LVU1412
 4260 017e 137E     		ldrb	r3, [r2, #24]	@ zero_extendqisi2
 4261 0180 43F00203 		orr	r3, r3, #2
 4262 0184 1376     		strb	r3, [r2, #24]
 694:Drivers/lvgl/src/core/lv_refr.c ****     }
 4263              		.loc 1 694 9 is_stmt 1 view .LVU1413
 4264 0186 2846     		mov	r0, r5
 4265 0188 FFF7FEFF 		bl	refr_area_part
 4266              	.LVL403:
 4267 018c DDE7     		b	.L255
 4268              	.L274:
 4269 018e 00BF     		.align	2
 4270              	.L273:
ARM GAS  /var/folders/0z/tsy30v1j4xl4_7kw94k978ww0000gn/T//ccRTPM70.s 			page 132


 4271 0190 00000000 		.word	.LANCHOR0
 4272              		.cfi_endproc
 4273              	.LFE179:
 4275              		.section	.text.refr_invalid_areas,"ax",%progbits
 4276              		.align	1
 4277              		.syntax unified
 4278              		.thumb
 4279              		.thumb_func
 4281              	refr_invalid_areas:
 4282              	.LFB178:
 588:Drivers/lvgl/src/core/lv_refr.c ****     px_num = 0;
 4283              		.loc 1 588 1 view -0
 4284              		.cfi_startproc
 4285              		@ args = 0, pretend = 0, frame = 0
 4286              		@ frame_needed = 0, uses_anonymous_args = 0
 4287 0000 70B5     		push	{r4, r5, r6, lr}
 4288              		.cfi_def_cfa_offset 16
 4289              		.cfi_offset 4, -16
 4290              		.cfi_offset 5, -12
 4291              		.cfi_offset 6, -8
 4292              		.cfi_offset 14, -4
 589:Drivers/lvgl/src/core/lv_refr.c **** 
 4293              		.loc 1 589 5 view .LVU1415
 589:Drivers/lvgl/src/core/lv_refr.c **** 
 4294              		.loc 1 589 12 is_stmt 0 view .LVU1416
 4295 0002 2F4B     		ldr	r3, .L288
 4296 0004 0022     		movs	r2, #0
 4297 0006 1A60     		str	r2, [r3]
 591:Drivers/lvgl/src/core/lv_refr.c **** 
 4298              		.loc 1 591 5 is_stmt 1 view .LVU1417
 591:Drivers/lvgl/src/core/lv_refr.c **** 
 4299              		.loc 1 591 17 is_stmt 0 view .LVU1418
 4300 0008 2E4B     		ldr	r3, .L288+4
 4301 000a 1A68     		ldr	r2, [r3]
 4302 000c B2F85041 		ldrh	r4, [r2, #336]
 591:Drivers/lvgl/src/core/lv_refr.c **** 
 4303              		.loc 1 591 7 view .LVU1419
 4304 0010 002C     		cmp	r4, #0
 4305 0012 53D0     		beq	.L275
 594:Drivers/lvgl/src/core/lv_refr.c ****     int32_t last_i = 0;
 4306              		.loc 1 594 5 is_stmt 1 view .LVU1420
 595:Drivers/lvgl/src/core/lv_refr.c ****     for(i = disp_refr->inv_p - 1; i >= 0; i--) {
 4307              		.loc 1 595 5 view .LVU1421
 4308              	.LVL404:
 596:Drivers/lvgl/src/core/lv_refr.c ****         if(disp_refr->inv_area_joined[i] == 0) {
 4309              		.loc 1 596 5 view .LVU1422
 596:Drivers/lvgl/src/core/lv_refr.c ****         if(disp_refr->inv_area_joined[i] == 0) {
 4310              		.loc 1 596 11 is_stmt 0 view .LVU1423
 4311 0014 013C     		subs	r4, r4, #1
 4312              	.LVL405:
 4313              	.L277:
 596:Drivers/lvgl/src/core/lv_refr.c ****         if(disp_refr->inv_area_joined[i] == 0) {
 4314              		.loc 1 596 37 is_stmt 1 discriminator 1 view .LVU1424
 4315 0016 002C     		cmp	r4, #0
 4316 0018 05DB     		blt	.L286
 597:Drivers/lvgl/src/core/lv_refr.c ****             last_i = i;
 4317              		.loc 1 597 9 view .LVU1425
ARM GAS  /var/folders/0z/tsy30v1j4xl4_7kw94k978ww0000gn/T//ccRTPM70.s 			page 133


 597:Drivers/lvgl/src/core/lv_refr.c ****             last_i = i;
 4318              		.loc 1 597 38 is_stmt 0 view .LVU1426
 4319 001a 1319     		adds	r3, r2, r4
 4320 001c 93F83031 		ldrb	r3, [r3, #304]	@ zero_extendqisi2
 597:Drivers/lvgl/src/core/lv_refr.c ****             last_i = i;
 4321              		.loc 1 597 11 view .LVU1427
 4322 0020 13B1     		cbz	r3, .L278
 596:Drivers/lvgl/src/core/lv_refr.c ****         if(disp_refr->inv_area_joined[i] == 0) {
 4323              		.loc 1 596 44 is_stmt 1 discriminator 2 view .LVU1428
 4324 0022 013C     		subs	r4, r4, #1
 4325              	.LVL406:
 596:Drivers/lvgl/src/core/lv_refr.c ****         if(disp_refr->inv_area_joined[i] == 0) {
 4326              		.loc 1 596 44 is_stmt 0 discriminator 2 view .LVU1429
 4327 0024 F7E7     		b	.L277
 4328              	.L286:
 595:Drivers/lvgl/src/core/lv_refr.c ****     for(i = disp_refr->inv_p - 1; i >= 0; i--) {
 4329              		.loc 1 595 13 view .LVU1430
 4330 0026 0024     		movs	r4, #0
 4331              	.LVL407:
 4332              	.L278:
 604:Drivers/lvgl/src/core/lv_refr.c ****         disp_refr->driver->render_start_cb(disp_refr->driver);
 4333              		.loc 1 604 5 is_stmt 1 view .LVU1431
 604:Drivers/lvgl/src/core/lv_refr.c ****         disp_refr->driver->render_start_cb(disp_refr->driver);
 4334              		.loc 1 604 17 is_stmt 0 view .LVU1432
 4335 0028 1068     		ldr	r0, [r2]
 604:Drivers/lvgl/src/core/lv_refr.c ****         disp_refr->driver->render_start_cb(disp_refr->driver);
 4336              		.loc 1 604 25 view .LVU1433
 4337 002a 436B     		ldr	r3, [r0, #52]
 604:Drivers/lvgl/src/core/lv_refr.c ****         disp_refr->driver->render_start_cb(disp_refr->driver);
 4338              		.loc 1 604 7 view .LVU1434
 4339 002c 03B1     		cbz	r3, .L280
 605:Drivers/lvgl/src/core/lv_refr.c ****     }
 4340              		.loc 1 605 9 is_stmt 1 view .LVU1435
 4341 002e 9847     		blx	r3
 4342              	.LVL408:
 4343              	.L280:
 608:Drivers/lvgl/src/core/lv_refr.c ****     disp_refr->driver->draw_buf->last_part = 0;
 4344              		.loc 1 608 5 view .LVU1436
 608:Drivers/lvgl/src/core/lv_refr.c ****     disp_refr->driver->draw_buf->last_part = 0;
 4345              		.loc 1 608 14 is_stmt 0 view .LVU1437
 4346 0030 244B     		ldr	r3, .L288+4
 4347 0032 1B68     		ldr	r3, [r3]
 4348 0034 1A68     		ldr	r2, [r3]
 608:Drivers/lvgl/src/core/lv_refr.c ****     disp_refr->driver->draw_buf->last_part = 0;
 4349              		.loc 1 608 22 view .LVU1438
 4350 0036 D168     		ldr	r1, [r2, #12]
 608:Drivers/lvgl/src/core/lv_refr.c ****     disp_refr->driver->draw_buf->last_part = 0;
 4351              		.loc 1 608 44 view .LVU1439
 4352 0038 0A7E     		ldrb	r2, [r1, #24]	@ zero_extendqisi2
 4353 003a 6FF30002 		bfc	r2, #0, #1
 4354 003e 0A76     		strb	r2, [r1, #24]
 609:Drivers/lvgl/src/core/lv_refr.c ****     disp_refr->rendering_in_progress = true;
 4355              		.loc 1 609 5 is_stmt 1 view .LVU1440
 609:Drivers/lvgl/src/core/lv_refr.c ****     disp_refr->rendering_in_progress = true;
 4356              		.loc 1 609 14 is_stmt 0 view .LVU1441
 4357 0040 1A68     		ldr	r2, [r3]
 609:Drivers/lvgl/src/core/lv_refr.c ****     disp_refr->rendering_in_progress = true;
ARM GAS  /var/folders/0z/tsy30v1j4xl4_7kw94k978ww0000gn/T//ccRTPM70.s 			page 134


 4358              		.loc 1 609 22 view .LVU1442
 4359 0042 D168     		ldr	r1, [r2, #12]
 609:Drivers/lvgl/src/core/lv_refr.c ****     disp_refr->rendering_in_progress = true;
 4360              		.loc 1 609 44 view .LVU1443
 4361 0044 0A7E     		ldrb	r2, [r1, #24]	@ zero_extendqisi2
 4362 0046 6FF34102 		bfc	r2, #1, #1
 4363 004a 0A76     		strb	r2, [r1, #24]
 610:Drivers/lvgl/src/core/lv_refr.c **** 
 4364              		.loc 1 610 5 is_stmt 1 view .LVU1444
 610:Drivers/lvgl/src/core/lv_refr.c **** 
 4365              		.loc 1 610 38 is_stmt 0 view .LVU1445
 4366 004c 93F82820 		ldrb	r2, [r3, #40]	@ zero_extendqisi2
 4367 0050 42F00402 		orr	r2, r2, #4
 4368 0054 83F82820 		strb	r2, [r3, #40]
 612:Drivers/lvgl/src/core/lv_refr.c ****         /*Refresh the unjoined areas*/
 4369              		.loc 1 612 5 is_stmt 1 view .LVU1446
 4370              	.LVL409:
 612:Drivers/lvgl/src/core/lv_refr.c ****         /*Refresh the unjoined areas*/
 4371              		.loc 1 612 11 is_stmt 0 view .LVU1447
 4372 0058 0025     		movs	r5, #0
 612:Drivers/lvgl/src/core/lv_refr.c ****         /*Refresh the unjoined areas*/
 4373              		.loc 1 612 5 view .LVU1448
 4374 005a 15E0     		b	.L281
 4375              	.LVL410:
 4376              	.L283:
 617:Drivers/lvgl/src/core/lv_refr.c ****             refr_area(&disp_refr->inv_areas[i]);
 4377              		.loc 1 617 13 is_stmt 1 view .LVU1449
 617:Drivers/lvgl/src/core/lv_refr.c ****             refr_area(&disp_refr->inv_areas[i]);
 4378              		.loc 1 617 22 is_stmt 0 view .LVU1450
 4379 005c 1A68     		ldr	r2, [r3]
 617:Drivers/lvgl/src/core/lv_refr.c ****             refr_area(&disp_refr->inv_areas[i]);
 4380              		.loc 1 617 30 view .LVU1451
 4381 005e D168     		ldr	r1, [r2, #12]
 617:Drivers/lvgl/src/core/lv_refr.c ****             refr_area(&disp_refr->inv_areas[i]);
 4382              		.loc 1 617 52 view .LVU1452
 4383 0060 0A7E     		ldrb	r2, [r1, #24]	@ zero_extendqisi2
 4384 0062 6FF34102 		bfc	r2, #1, #1
 4385 0066 0A76     		strb	r2, [r1, #24]
 618:Drivers/lvgl/src/core/lv_refr.c **** 
 4386              		.loc 1 618 13 is_stmt 1 view .LVU1453
 618:Drivers/lvgl/src/core/lv_refr.c **** 
 4387              		.loc 1 618 23 is_stmt 0 view .LVU1454
 4388 0068 A81D     		adds	r0, r5, #6
 4389 006a C600     		lsls	r6, r0, #3
 618:Drivers/lvgl/src/core/lv_refr.c **** 
 4390              		.loc 1 618 13 view .LVU1455
 4391 006c 03EBC000 		add	r0, r3, r0, lsl #3
 4392 0070 FFF7FEFF 		bl	refr_area
 4393              	.LVL411:
 620:Drivers/lvgl/src/core/lv_refr.c ****         }
 4394              		.loc 1 620 13 is_stmt 1 view .LVU1456
 620:Drivers/lvgl/src/core/lv_refr.c ****         }
 4395              		.loc 1 620 50 is_stmt 0 view .LVU1457
 4396 0074 134B     		ldr	r3, .L288+4
 4397 0076 1868     		ldr	r0, [r3]
 620:Drivers/lvgl/src/core/lv_refr.c ****         }
 4398              		.loc 1 620 23 view .LVU1458
ARM GAS  /var/folders/0z/tsy30v1j4xl4_7kw94k978ww0000gn/T//ccRTPM70.s 			page 135


 4399 0078 3044     		add	r0, r0, r6
 4400 007a FFF7FEFF 		bl	lv_area_get_size
 4401              	.LVL412:
 620:Drivers/lvgl/src/core/lv_refr.c ****         }
 4402              		.loc 1 620 20 view .LVU1459
 4403 007e 104A     		ldr	r2, .L288
 4404 0080 1368     		ldr	r3, [r2]
 4405 0082 0344     		add	r3, r3, r0
 4406 0084 1360     		str	r3, [r2]
 4407              	.L282:
 612:Drivers/lvgl/src/core/lv_refr.c ****         /*Refresh the unjoined areas*/
 4408              		.loc 1 612 39 is_stmt 1 discriminator 2 view .LVU1460
 4409 0086 0135     		adds	r5, r5, #1
 4410              	.LVL413:
 4411              	.L281:
 612:Drivers/lvgl/src/core/lv_refr.c ****         /*Refresh the unjoined areas*/
 4412              		.loc 1 612 18 discriminator 1 view .LVU1461
 612:Drivers/lvgl/src/core/lv_refr.c ****         /*Refresh the unjoined areas*/
 4413              		.loc 1 612 29 is_stmt 0 discriminator 1 view .LVU1462
 4414 0088 0E4B     		ldr	r3, .L288+4
 4415 008a 1B68     		ldr	r3, [r3]
 4416 008c B3F85021 		ldrh	r2, [r3, #336]
 612:Drivers/lvgl/src/core/lv_refr.c ****         /*Refresh the unjoined areas*/
 4417              		.loc 1 612 18 discriminator 1 view .LVU1463
 4418 0090 AA42     		cmp	r2, r5
 4419 0092 0DDD     		ble	.L287
 614:Drivers/lvgl/src/core/lv_refr.c **** 
 4420              		.loc 1 614 9 is_stmt 1 view .LVU1464
 614:Drivers/lvgl/src/core/lv_refr.c **** 
 4421              		.loc 1 614 38 is_stmt 0 view .LVU1465
 4422 0094 5A19     		adds	r2, r3, r5
 4423 0096 92F83021 		ldrb	r2, [r2, #304]	@ zero_extendqisi2
 614:Drivers/lvgl/src/core/lv_refr.c **** 
 4424              		.loc 1 614 11 view .LVU1466
 4425 009a 002A     		cmp	r2, #0
 4426 009c F3D1     		bne	.L282
 616:Drivers/lvgl/src/core/lv_refr.c ****             disp_refr->driver->draw_buf->last_part = 0;
 4427              		.loc 1 616 13 is_stmt 1 view .LVU1467
 616:Drivers/lvgl/src/core/lv_refr.c ****             disp_refr->driver->draw_buf->last_part = 0;
 4428              		.loc 1 616 15 is_stmt 0 view .LVU1468
 4429 009e A542     		cmp	r5, r4
 4430 00a0 DCD1     		bne	.L283
 616:Drivers/lvgl/src/core/lv_refr.c ****             disp_refr->driver->draw_buf->last_part = 0;
 4431              		.loc 1 616 29 is_stmt 1 discriminator 1 view .LVU1469
 616:Drivers/lvgl/src/core/lv_refr.c ****             disp_refr->driver->draw_buf->last_part = 0;
 4432              		.loc 1 616 38 is_stmt 0 discriminator 1 view .LVU1470
 4433 00a2 1A68     		ldr	r2, [r3]
 616:Drivers/lvgl/src/core/lv_refr.c ****             disp_refr->driver->draw_buf->last_part = 0;
 4434              		.loc 1 616 46 discriminator 1 view .LVU1471
 4435 00a4 D168     		ldr	r1, [r2, #12]
 616:Drivers/lvgl/src/core/lv_refr.c ****             disp_refr->driver->draw_buf->last_part = 0;
 4436              		.loc 1 616 68 discriminator 1 view .LVU1472
 4437 00a6 0A7E     		ldrb	r2, [r1, #24]	@ zero_extendqisi2
 4438 00a8 42F00102 		orr	r2, r2, #1
 4439 00ac 0A76     		strb	r2, [r1, #24]
 4440 00ae D5E7     		b	.L283
 4441              	.L287:
ARM GAS  /var/folders/0z/tsy30v1j4xl4_7kw94k978ww0000gn/T//ccRTPM70.s 			page 136


 624:Drivers/lvgl/src/core/lv_refr.c **** }
 4442              		.loc 1 624 5 is_stmt 1 view .LVU1473
 624:Drivers/lvgl/src/core/lv_refr.c **** }
 4443              		.loc 1 624 38 is_stmt 0 view .LVU1474
 4444 00b0 93F82820 		ldrb	r2, [r3, #40]	@ zero_extendqisi2
 4445 00b4 6FF38202 		bfc	r2, #2, #1
 4446 00b8 83F82820 		strb	r2, [r3, #40]
 4447              	.LVL414:
 4448              	.L275:
 625:Drivers/lvgl/src/core/lv_refr.c **** 
 4449              		.loc 1 625 1 view .LVU1475
 4450 00bc 70BD     		pop	{r4, r5, r6, pc}
 4451              	.L289:
 4452 00be 00BF     		.align	2
 4453              	.L288:
 4454 00c0 00000000 		.word	.LANCHOR3
 4455 00c4 00000000 		.word	.LANCHOR0
 4456              		.cfi_endproc
 4457              	.LFE178:
 4459              		.section	.text._lv_inv_area,"ax",%progbits
 4460              		.align	1
 4461              		.global	_lv_inv_area
 4462              		.syntax unified
 4463              		.thumb
 4464              		.thumb_func
 4466              	_lv_inv_area:
 4467              	.LVL415:
 4468              	.LFB170:
 207:Drivers/lvgl/src/core/lv_refr.c ****     if(!disp) disp = lv_disp_get_default();
 4469              		.loc 1 207 1 is_stmt 1 view -0
 4470              		.cfi_startproc
 4471              		@ args = 0, pretend = 0, frame = 16
 4472              		@ frame_needed = 0, uses_anonymous_args = 0
 207:Drivers/lvgl/src/core/lv_refr.c ****     if(!disp) disp = lv_disp_get_default();
 4473              		.loc 1 207 1 is_stmt 0 view .LVU1477
 4474 0000 30B5     		push	{r4, r5, lr}
 4475              		.cfi_def_cfa_offset 12
 4476              		.cfi_offset 4, -12
 4477              		.cfi_offset 5, -8
 4478              		.cfi_offset 14, -4
 4479 0002 85B0     		sub	sp, sp, #20
 4480              		.cfi_def_cfa_offset 32
 4481 0004 0D46     		mov	r5, r1
 208:Drivers/lvgl/src/core/lv_refr.c ****     if(!disp) return;
 4482              		.loc 1 208 5 is_stmt 1 view .LVU1478
 208:Drivers/lvgl/src/core/lv_refr.c ****     if(!disp) return;
 4483              		.loc 1 208 7 is_stmt 0 view .LVU1479
 4484 0006 0446     		mov	r4, r0
 4485 0008 0028     		cmp	r0, #0
 4486 000a 3ED0     		beq	.L304
 4487              	.LVL416:
 4488              	.L291:
 209:Drivers/lvgl/src/core/lv_refr.c ****     if(!lv_disp_is_invalidation_enabled(disp)) return;
 4489              		.loc 1 209 5 is_stmt 1 view .LVU1480
 209:Drivers/lvgl/src/core/lv_refr.c ****     if(!lv_disp_is_invalidation_enabled(disp)) return;
 4490              		.loc 1 209 7 is_stmt 0 view .LVU1481
 4491 000c 002C     		cmp	r4, #0
ARM GAS  /var/folders/0z/tsy30v1j4xl4_7kw94k978ww0000gn/T//ccRTPM70.s 			page 137


 4492 000e 43D0     		beq	.L290
 210:Drivers/lvgl/src/core/lv_refr.c **** 
 4493              		.loc 1 210 5 is_stmt 1 view .LVU1482
 210:Drivers/lvgl/src/core/lv_refr.c **** 
 4494              		.loc 1 210 9 is_stmt 0 view .LVU1483
 4495 0010 2046     		mov	r0, r4
 210:Drivers/lvgl/src/core/lv_refr.c **** 
 4496              		.loc 1 210 9 view .LVU1484
 4497 0012 FFF7FEFF 		bl	lv_disp_is_invalidation_enabled
 4498              	.LVL417:
 210:Drivers/lvgl/src/core/lv_refr.c **** 
 4499              		.loc 1 210 7 view .LVU1485
 4500 0016 0028     		cmp	r0, #0
 4501 0018 3ED0     		beq	.L290
 212:Drivers/lvgl/src/core/lv_refr.c ****         LV_LOG_ERROR("detected modifying dirty areas in render");
 4502              		.loc 1 212 5 is_stmt 1 view .LVU1486
 212:Drivers/lvgl/src/core/lv_refr.c ****         LV_LOG_ERROR("detected modifying dirty areas in render");
 4503              		.loc 1 212 8 is_stmt 0 view .LVU1487
 4504 001a 94F82830 		ldrb	r3, [r4, #40]	@ zero_extendqisi2
 212:Drivers/lvgl/src/core/lv_refr.c ****         LV_LOG_ERROR("detected modifying dirty areas in render");
 4505              		.loc 1 212 7 view .LVU1488
 4506 001e 13F0040F 		tst	r3, #4
 4507 0022 39D1     		bne	.L290
 218:Drivers/lvgl/src/core/lv_refr.c ****         disp->inv_p = 0;
 4508              		.loc 1 218 5 is_stmt 1 view .LVU1489
 218:Drivers/lvgl/src/core/lv_refr.c ****         disp->inv_p = 0;
 4509              		.loc 1 218 7 is_stmt 0 view .LVU1490
 4510 0024 ADB3     		cbz	r5, .L305
 223:Drivers/lvgl/src/core/lv_refr.c ****     scr_area.x1 = 0;
 4511              		.loc 1 223 5 is_stmt 1 view .LVU1491
 224:Drivers/lvgl/src/core/lv_refr.c ****     scr_area.y1 = 0;
 4512              		.loc 1 224 5 view .LVU1492
 224:Drivers/lvgl/src/core/lv_refr.c ****     scr_area.y1 = 0;
 4513              		.loc 1 224 17 is_stmt 0 view .LVU1493
 4514 0026 0023     		movs	r3, #0
 4515 0028 ADF80830 		strh	r3, [sp, #8]	@ movhi
 225:Drivers/lvgl/src/core/lv_refr.c ****     scr_area.x2 = lv_disp_get_hor_res(disp) - 1;
 4516              		.loc 1 225 5 is_stmt 1 view .LVU1494
 225:Drivers/lvgl/src/core/lv_refr.c ****     scr_area.x2 = lv_disp_get_hor_res(disp) - 1;
 4517              		.loc 1 225 17 is_stmt 0 view .LVU1495
 4518 002c ADF80A30 		strh	r3, [sp, #10]	@ movhi
 226:Drivers/lvgl/src/core/lv_refr.c ****     scr_area.y2 = lv_disp_get_ver_res(disp) - 1;
 4519              		.loc 1 226 5 is_stmt 1 view .LVU1496
 226:Drivers/lvgl/src/core/lv_refr.c ****     scr_area.y2 = lv_disp_get_ver_res(disp) - 1;
 4520              		.loc 1 226 19 is_stmt 0 view .LVU1497
 4521 0030 2046     		mov	r0, r4
 4522 0032 FFF7FEFF 		bl	lv_disp_get_hor_res
 4523              	.LVL418:
 4524 0036 80B2     		uxth	r0, r0
 226:Drivers/lvgl/src/core/lv_refr.c ****     scr_area.y2 = lv_disp_get_ver_res(disp) - 1;
 4525              		.loc 1 226 45 view .LVU1498
 4526 0038 0138     		subs	r0, r0, #1
 226:Drivers/lvgl/src/core/lv_refr.c ****     scr_area.y2 = lv_disp_get_ver_res(disp) - 1;
 4527              		.loc 1 226 17 view .LVU1499
 4528 003a ADF80C00 		strh	r0, [sp, #12]	@ movhi
 227:Drivers/lvgl/src/core/lv_refr.c **** 
 4529              		.loc 1 227 5 is_stmt 1 view .LVU1500
ARM GAS  /var/folders/0z/tsy30v1j4xl4_7kw94k978ww0000gn/T//ccRTPM70.s 			page 138


 227:Drivers/lvgl/src/core/lv_refr.c **** 
 4530              		.loc 1 227 19 is_stmt 0 view .LVU1501
 4531 003e 2046     		mov	r0, r4
 4532 0040 FFF7FEFF 		bl	lv_disp_get_ver_res
 4533              	.LVL419:
 4534 0044 80B2     		uxth	r0, r0
 227:Drivers/lvgl/src/core/lv_refr.c **** 
 4535              		.loc 1 227 45 view .LVU1502
 4536 0046 0138     		subs	r0, r0, #1
 227:Drivers/lvgl/src/core/lv_refr.c **** 
 4537              		.loc 1 227 17 view .LVU1503
 4538 0048 ADF80E00 		strh	r0, [sp, #14]	@ movhi
 229:Drivers/lvgl/src/core/lv_refr.c ****     bool suc;
 4539              		.loc 1 229 5 is_stmt 1 view .LVU1504
 230:Drivers/lvgl/src/core/lv_refr.c **** 
 4540              		.loc 1 230 5 view .LVU1505
 232:Drivers/lvgl/src/core/lv_refr.c ****     if(suc == false)  return; /*Out of the screen*/
 4541              		.loc 1 232 5 view .LVU1506
 232:Drivers/lvgl/src/core/lv_refr.c ****     if(suc == false)  return; /*Out of the screen*/
 4542              		.loc 1 232 11 is_stmt 0 view .LVU1507
 4543 004c 02AA     		add	r2, sp, #8
 4544 004e 2946     		mov	r1, r5
 4545 0050 6846     		mov	r0, sp
 4546 0052 FFF7FEFF 		bl	_lv_area_intersect
 4547              	.LVL420:
 233:Drivers/lvgl/src/core/lv_refr.c **** 
 4548              		.loc 1 233 5 is_stmt 1 view .LVU1508
 233:Drivers/lvgl/src/core/lv_refr.c **** 
 4549              		.loc 1 233 7 is_stmt 0 view .LVU1509
 4550 0056 F8B1     		cbz	r0, .L290
 236:Drivers/lvgl/src/core/lv_refr.c ****         disp->inv_areas[0] = scr_area;
 4551              		.loc 1 236 5 is_stmt 1 view .LVU1510
 236:Drivers/lvgl/src/core/lv_refr.c ****         disp->inv_areas[0] = scr_area;
 4552              		.loc 1 236 12 is_stmt 0 view .LVU1511
 4553 0058 2068     		ldr	r0, [r4]
 4554              	.LVL421:
 236:Drivers/lvgl/src/core/lv_refr.c ****         disp->inv_areas[0] = scr_area;
 4555              		.loc 1 236 8 view .LVU1512
 4556 005a 037C     		ldrb	r3, [r0, #16]	@ zero_extendqisi2
 236:Drivers/lvgl/src/core/lv_refr.c ****         disp->inv_areas[0] = scr_area;
 4557              		.loc 1 236 7 view .LVU1513
 4558 005c 13F0020F 		tst	r3, #2
 4559 0060 1CD1     		bne	.L306
 243:Drivers/lvgl/src/core/lv_refr.c **** 
 4560              		.loc 1 243 5 is_stmt 1 view .LVU1514
 243:Drivers/lvgl/src/core/lv_refr.c **** 
 4561              		.loc 1 243 20 is_stmt 0 view .LVU1515
 4562 0062 8369     		ldr	r3, [r0, #24]
 243:Drivers/lvgl/src/core/lv_refr.c **** 
 4563              		.loc 1 243 7 view .LVU1516
 4564 0064 0BB1     		cbz	r3, .L296
 243:Drivers/lvgl/src/core/lv_refr.c **** 
 4565              		.loc 1 243 34 is_stmt 1 discriminator 1 view .LVU1517
 4566 0066 6946     		mov	r1, sp
 4567 0068 9847     		blx	r3
 4568              	.LVL422:
 4569              	.L296:
ARM GAS  /var/folders/0z/tsy30v1j4xl4_7kw94k978ww0000gn/T//ccRTPM70.s 			page 139


 207:Drivers/lvgl/src/core/lv_refr.c ****     if(!disp) disp = lv_disp_get_default();
 4570              		.loc 1 207 1 is_stmt 0 discriminator 1 view .LVU1518
 4571 006a 0025     		movs	r5, #0
 4572              	.LVL423:
 4573              	.L297:
 247:Drivers/lvgl/src/core/lv_refr.c ****         if(_lv_area_is_in(&com_area, &disp->inv_areas[i], 0) != false) return;
 4574              		.loc 1 247 18 is_stmt 1 discriminator 1 view .LVU1519
 247:Drivers/lvgl/src/core/lv_refr.c ****         if(_lv_area_is_in(&com_area, &disp->inv_areas[i], 0) != false) return;
 4575              		.loc 1 247 24 is_stmt 0 discriminator 1 view .LVU1520
 4576 006c B4F85031 		ldrh	r3, [r4, #336]
 247:Drivers/lvgl/src/core/lv_refr.c ****         if(_lv_area_is_in(&com_area, &disp->inv_areas[i], 0) != false) return;
 4577              		.loc 1 247 18 discriminator 1 view .LVU1521
 4578 0070 AB42     		cmp	r3, r5
 4579 0072 23D9     		bls	.L307
 248:Drivers/lvgl/src/core/lv_refr.c ****     }
 4580              		.loc 1 248 9 is_stmt 1 view .LVU1522
 248:Drivers/lvgl/src/core/lv_refr.c ****     }
 4581              		.loc 1 248 38 is_stmt 0 view .LVU1523
 4582 0074 A91D     		adds	r1, r5, #6
 248:Drivers/lvgl/src/core/lv_refr.c ****     }
 4583              		.loc 1 248 12 view .LVU1524
 4584 0076 0022     		movs	r2, #0
 4585 0078 04EBC101 		add	r1, r4, r1, lsl #3
 4586 007c 6846     		mov	r0, sp
 4587 007e FFF7FEFF 		bl	_lv_area_is_in
 4588              	.LVL424:
 248:Drivers/lvgl/src/core/lv_refr.c ****     }
 4589              		.loc 1 248 11 view .LVU1525
 4590 0082 48B9     		cbnz	r0, .L290
 247:Drivers/lvgl/src/core/lv_refr.c ****         if(_lv_area_is_in(&com_area, &disp->inv_areas[i], 0) != false) return;
 4591              		.loc 1 247 34 is_stmt 1 discriminator 2 view .LVU1526
 4592 0084 0135     		adds	r5, r5, #1
 4593              	.LVL425:
 247:Drivers/lvgl/src/core/lv_refr.c ****         if(_lv_area_is_in(&com_area, &disp->inv_areas[i], 0) != false) return;
 4594              		.loc 1 247 34 is_stmt 0 discriminator 2 view .LVU1527
 4595 0086 ADB2     		uxth	r5, r5
 4596              	.LVL426:
 247:Drivers/lvgl/src/core/lv_refr.c ****         if(_lv_area_is_in(&com_area, &disp->inv_areas[i], 0) != false) return;
 4597              		.loc 1 247 34 discriminator 2 view .LVU1528
 4598 0088 F0E7     		b	.L297
 4599              	.LVL427:
 4600              	.L304:
 208:Drivers/lvgl/src/core/lv_refr.c ****     if(!disp) return;
 4601              		.loc 1 208 15 is_stmt 1 discriminator 1 view .LVU1529
 208:Drivers/lvgl/src/core/lv_refr.c ****     if(!disp) return;
 4602              		.loc 1 208 22 is_stmt 0 discriminator 1 view .LVU1530
 4603 008a FFF7FEFF 		bl	lv_disp_get_default
 4604              	.LVL428:
 208:Drivers/lvgl/src/core/lv_refr.c ****     if(!disp) return;
 4605              		.loc 1 208 22 discriminator 1 view .LVU1531
 4606 008e 0446     		mov	r4, r0
 4607              	.LVL429:
 208:Drivers/lvgl/src/core/lv_refr.c ****     if(!disp) return;
 4608              		.loc 1 208 22 discriminator 1 view .LVU1532
 4609 0090 BCE7     		b	.L291
 4610              	.LVL430:
 4611              	.L305:
ARM GAS  /var/folders/0z/tsy30v1j4xl4_7kw94k978ww0000gn/T//ccRTPM70.s 			page 140


 219:Drivers/lvgl/src/core/lv_refr.c ****         return;
 4612              		.loc 1 219 9 is_stmt 1 view .LVU1533
 219:Drivers/lvgl/src/core/lv_refr.c ****         return;
 4613              		.loc 1 219 21 is_stmt 0 view .LVU1534
 4614 0092 0023     		movs	r3, #0
 4615 0094 A4F85031 		strh	r3, [r4, #336]	@ movhi
 220:Drivers/lvgl/src/core/lv_refr.c ****     }
 4616              		.loc 1 220 9 is_stmt 1 view .LVU1535
 4617              	.LVL431:
 4618              	.L290:
 261:Drivers/lvgl/src/core/lv_refr.c **** 
 4619              		.loc 1 261 1 is_stmt 0 view .LVU1536
 4620 0098 05B0     		add	sp, sp, #20
 4621              		.cfi_remember_state
 4622              		.cfi_def_cfa_offset 12
 4623              		@ sp needed
 4624 009a 30BD     		pop	{r4, r5, pc}
 4625              	.LVL432:
 4626              	.L306:
 4627              		.cfi_restore_state
 237:Drivers/lvgl/src/core/lv_refr.c ****         disp->inv_p = 1;
 4628              		.loc 1 237 9 is_stmt 1 view .LVU1537
 237:Drivers/lvgl/src/core/lv_refr.c ****         disp->inv_p = 1;
 4629              		.loc 1 237 28 is_stmt 0 view .LVU1538
 4630 009c 04F13003 		add	r3, r4, #48
 4631 00a0 04AA     		add	r2, sp, #16
 4632 00a2 12E90300 		ldmdb	r2, {r0, r1}
 4633 00a6 83E80300 		stm	r3, {r0, r1}
 238:Drivers/lvgl/src/core/lv_refr.c ****         if(disp->refr_timer) lv_timer_resume(disp->refr_timer);
 4634              		.loc 1 238 9 is_stmt 1 view .LVU1539
 238:Drivers/lvgl/src/core/lv_refr.c ****         if(disp->refr_timer) lv_timer_resume(disp->refr_timer);
 4635              		.loc 1 238 21 is_stmt 0 view .LVU1540
 4636 00aa 0123     		movs	r3, #1
 4637 00ac A4F85031 		strh	r3, [r4, #336]	@ movhi
 239:Drivers/lvgl/src/core/lv_refr.c ****         return;
 4638              		.loc 1 239 9 is_stmt 1 view .LVU1541
 239:Drivers/lvgl/src/core/lv_refr.c ****         return;
 4639              		.loc 1 239 16 is_stmt 0 view .LVU1542
 4640 00b0 6068     		ldr	r0, [r4, #4]
 239:Drivers/lvgl/src/core/lv_refr.c ****         return;
 4641              		.loc 1 239 11 view .LVU1543
 4642 00b2 0028     		cmp	r0, #0
 4643 00b4 F0D0     		beq	.L290
 239:Drivers/lvgl/src/core/lv_refr.c ****         return;
 4644              		.loc 1 239 30 is_stmt 1 discriminator 1 view .LVU1544
 4645 00b6 FFF7FEFF 		bl	lv_timer_resume
 4646              	.LVL433:
 240:Drivers/lvgl/src/core/lv_refr.c ****     }
 4647              		.loc 1 240 9 discriminator 1 view .LVU1545
 4648 00ba EDE7     		b	.L290
 4649              	.LVL434:
 4650              	.L307:
 252:Drivers/lvgl/src/core/lv_refr.c ****         lv_area_copy(&disp->inv_areas[disp->inv_p], &com_area);
 4651              		.loc 1 252 5 view .LVU1546
 252:Drivers/lvgl/src/core/lv_refr.c ****         lv_area_copy(&disp->inv_areas[disp->inv_p], &com_area);
 4652              		.loc 1 252 7 is_stmt 0 view .LVU1547
 4653 00bc 1F2B     		cmp	r3, #31
ARM GAS  /var/folders/0z/tsy30v1j4xl4_7kw94k978ww0000gn/T//ccRTPM70.s 			page 141


 4654 00be 1AD8     		bhi	.L299
 253:Drivers/lvgl/src/core/lv_refr.c ****     }
 4655              		.loc 1 253 9 is_stmt 1 view .LVU1548
 4656              	.LVL435:
 4657              	.LBB147:
 4658              	.LBI147:
 110:Drivers/lvgl/src/core/../misc/../font/../misc/lv_area.h **** {
 4659              		.loc 2 110 20 view .LVU1549
 4660              	.LBB148:
 112:Drivers/lvgl/src/core/../misc/../font/../misc/lv_area.h ****     dest->y1 = src->y1;
 4661              		.loc 2 112 5 view .LVU1550
 112:Drivers/lvgl/src/core/../misc/../font/../misc/lv_area.h ****     dest->y1 = src->y1;
 4662              		.loc 2 112 19 is_stmt 0 view .LVU1551
 4663 00c0 BDF90020 		ldrsh	r2, [sp]
 112:Drivers/lvgl/src/core/../misc/../font/../misc/lv_area.h ****     dest->y1 = src->y1;
 4664              		.loc 2 112 14 view .LVU1552
 4665 00c4 0633     		adds	r3, r3, #6
 4666              	.LVL436:
 112:Drivers/lvgl/src/core/../misc/../font/../misc/lv_area.h ****     dest->y1 = src->y1;
 4667              		.loc 2 112 14 view .LVU1553
 4668 00c6 24F83320 		strh	r2, [r4, r3, lsl #3]	@ movhi
 4669              	.LVL437:
 113:Drivers/lvgl/src/core/../misc/../font/../misc/lv_area.h ****     dest->x2 = src->x2;
 4670              		.loc 2 113 5 is_stmt 1 view .LVU1554
 113:Drivers/lvgl/src/core/../misc/../font/../misc/lv_area.h ****     dest->x2 = src->x2;
 4671              		.loc 2 113 19 is_stmt 0 view .LVU1555
 4672 00ca BDF90220 		ldrsh	r2, [sp, #2]
 113:Drivers/lvgl/src/core/../misc/../font/../misc/lv_area.h ****     dest->x2 = src->x2;
 4673              		.loc 2 113 14 view .LVU1556
 4674 00ce 04EBC303 		add	r3, r4, r3, lsl #3
 4675              	.LVL438:
 113:Drivers/lvgl/src/core/../misc/../font/../misc/lv_area.h ****     dest->x2 = src->x2;
 4676              		.loc 2 113 14 view .LVU1557
 4677 00d2 5A80     		strh	r2, [r3, #2]	@ movhi
 114:Drivers/lvgl/src/core/../misc/../font/../misc/lv_area.h ****     dest->y2 = src->y2;
 4678              		.loc 2 114 5 is_stmt 1 view .LVU1558
 114:Drivers/lvgl/src/core/../misc/../font/../misc/lv_area.h ****     dest->y2 = src->y2;
 4679              		.loc 2 114 19 is_stmt 0 view .LVU1559
 4680 00d4 BDF90420 		ldrsh	r2, [sp, #4]
 114:Drivers/lvgl/src/core/../misc/../font/../misc/lv_area.h ****     dest->y2 = src->y2;
 4681              		.loc 2 114 14 view .LVU1560
 4682 00d8 9A80     		strh	r2, [r3, #4]	@ movhi
 115:Drivers/lvgl/src/core/../misc/../font/../misc/lv_area.h **** }
 4683              		.loc 2 115 5 is_stmt 1 view .LVU1561
 115:Drivers/lvgl/src/core/../misc/../font/../misc/lv_area.h **** }
 4684              		.loc 2 115 19 is_stmt 0 view .LVU1562
 4685 00da BDF90620 		ldrsh	r2, [sp, #6]
 115:Drivers/lvgl/src/core/../misc/../font/../misc/lv_area.h **** }
 4686              		.loc 2 115 14 view .LVU1563
 4687 00de DA80     		strh	r2, [r3, #6]	@ movhi
 4688              	.LVL439:
 4689              	.L300:
 115:Drivers/lvgl/src/core/../misc/../font/../misc/lv_area.h **** }
 4690              		.loc 2 115 14 view .LVU1564
 4691              	.LBE148:
 4692              	.LBE147:
 259:Drivers/lvgl/src/core/lv_refr.c ****     if(disp->refr_timer) lv_timer_resume(disp->refr_timer);
ARM GAS  /var/folders/0z/tsy30v1j4xl4_7kw94k978ww0000gn/T//ccRTPM70.s 			page 142


 4693              		.loc 1 259 5 is_stmt 1 view .LVU1565
 259:Drivers/lvgl/src/core/lv_refr.c ****     if(disp->refr_timer) lv_timer_resume(disp->refr_timer);
 4694              		.loc 1 259 9 is_stmt 0 view .LVU1566
 4695 00e0 B4F85031 		ldrh	r3, [r4, #336]
 259:Drivers/lvgl/src/core/lv_refr.c ****     if(disp->refr_timer) lv_timer_resume(disp->refr_timer);
 4696              		.loc 1 259 16 view .LVU1567
 4697 00e4 0133     		adds	r3, r3, #1
 4698 00e6 A4F85031 		strh	r3, [r4, #336]	@ movhi
 260:Drivers/lvgl/src/core/lv_refr.c **** }
 4699              		.loc 1 260 5 is_stmt 1 view .LVU1568
 260:Drivers/lvgl/src/core/lv_refr.c **** }
 4700              		.loc 1 260 12 is_stmt 0 view .LVU1569
 4701 00ea 6068     		ldr	r0, [r4, #4]
 260:Drivers/lvgl/src/core/lv_refr.c **** }
 4702              		.loc 1 260 7 view .LVU1570
 4703 00ec 0028     		cmp	r0, #0
 4704 00ee D3D0     		beq	.L290
 260:Drivers/lvgl/src/core/lv_refr.c **** }
 4705              		.loc 1 260 26 is_stmt 1 discriminator 1 view .LVU1571
 4706 00f0 FFF7FEFF 		bl	lv_timer_resume
 4707              	.LVL440:
 4708 00f4 D0E7     		b	.L290
 4709              	.L299:
 256:Drivers/lvgl/src/core/lv_refr.c ****         lv_area_copy(&disp->inv_areas[disp->inv_p], &scr_area);
 4710              		.loc 1 256 9 view .LVU1572
 256:Drivers/lvgl/src/core/lv_refr.c ****         lv_area_copy(&disp->inv_areas[disp->inv_p], &scr_area);
 4711              		.loc 1 256 21 is_stmt 0 view .LVU1573
 4712 00f6 0023     		movs	r3, #0
 4713 00f8 A4F85031 		strh	r3, [r4, #336]	@ movhi
 257:Drivers/lvgl/src/core/lv_refr.c ****     }
 4714              		.loc 1 257 9 is_stmt 1 view .LVU1574
 4715              	.LVL441:
 4716              	.LBB149:
 4717              	.LBI149:
 110:Drivers/lvgl/src/core/../misc/../font/../misc/lv_area.h **** {
 4718              		.loc 2 110 20 view .LVU1575
 4719              	.LBB150:
 112:Drivers/lvgl/src/core/../misc/../font/../misc/lv_area.h ****     dest->y1 = src->y1;
 4720              		.loc 2 112 5 view .LVU1576
 112:Drivers/lvgl/src/core/../misc/../font/../misc/lv_area.h ****     dest->y1 = src->y1;
 4721              		.loc 2 112 19 is_stmt 0 view .LVU1577
 4722 00fc BDF90830 		ldrsh	r3, [sp, #8]
 112:Drivers/lvgl/src/core/../misc/../font/../misc/lv_area.h ****     dest->y1 = src->y1;
 4723              		.loc 2 112 14 view .LVU1578
 4724 0100 2386     		strh	r3, [r4, #48]	@ movhi
 113:Drivers/lvgl/src/core/../misc/../font/../misc/lv_area.h ****     dest->x2 = src->x2;
 4725              		.loc 2 113 5 is_stmt 1 view .LVU1579
 113:Drivers/lvgl/src/core/../misc/../font/../misc/lv_area.h ****     dest->x2 = src->x2;
 4726              		.loc 2 113 19 is_stmt 0 view .LVU1580
 4727 0102 BDF90A30 		ldrsh	r3, [sp, #10]
 113:Drivers/lvgl/src/core/../misc/../font/../misc/lv_area.h ****     dest->x2 = src->x2;
 4728              		.loc 2 113 14 view .LVU1581
 4729 0106 6386     		strh	r3, [r4, #50]	@ movhi
 114:Drivers/lvgl/src/core/../misc/../font/../misc/lv_area.h ****     dest->y2 = src->y2;
 4730              		.loc 2 114 5 is_stmt 1 view .LVU1582
 114:Drivers/lvgl/src/core/../misc/../font/../misc/lv_area.h ****     dest->y2 = src->y2;
 4731              		.loc 2 114 19 is_stmt 0 view .LVU1583
ARM GAS  /var/folders/0z/tsy30v1j4xl4_7kw94k978ww0000gn/T//ccRTPM70.s 			page 143


 4732 0108 BDF90C30 		ldrsh	r3, [sp, #12]
 114:Drivers/lvgl/src/core/../misc/../font/../misc/lv_area.h ****     dest->y2 = src->y2;
 4733              		.loc 2 114 14 view .LVU1584
 4734 010c A386     		strh	r3, [r4, #52]	@ movhi
 115:Drivers/lvgl/src/core/../misc/../font/../misc/lv_area.h **** }
 4735              		.loc 2 115 5 is_stmt 1 view .LVU1585
 115:Drivers/lvgl/src/core/../misc/../font/../misc/lv_area.h **** }
 4736              		.loc 2 115 19 is_stmt 0 view .LVU1586
 4737 010e BDF90E30 		ldrsh	r3, [sp, #14]
 115:Drivers/lvgl/src/core/../misc/../font/../misc/lv_area.h **** }
 4738              		.loc 2 115 14 view .LVU1587
 4739 0112 E386     		strh	r3, [r4, #54]	@ movhi
 116:Drivers/lvgl/src/core/../misc/../font/../misc/lv_area.h **** 
 4740              		.loc 2 116 1 view .LVU1588
 4741 0114 E4E7     		b	.L300
 4742              	.LBE150:
 4743              	.LBE149:
 4744              		.cfi_endproc
 4745              	.LFE170:
 4747              		.section	.text._lv_refr_get_disp_refreshing,"ax",%progbits
 4748              		.align	1
 4749              		.global	_lv_refr_get_disp_refreshing
 4750              		.syntax unified
 4751              		.thumb
 4752              		.thumb_func
 4754              	_lv_refr_get_disp_refreshing:
 4755              	.LFB171:
 268:Drivers/lvgl/src/core/lv_refr.c ****     return disp_refr;
 4756              		.loc 1 268 1 is_stmt 1 view -0
 4757              		.cfi_startproc
 4758              		@ args = 0, pretend = 0, frame = 0
 4759              		@ frame_needed = 0, uses_anonymous_args = 0
 4760              		@ link register save eliminated.
 269:Drivers/lvgl/src/core/lv_refr.c **** }
 4761              		.loc 1 269 5 view .LVU1590
 270:Drivers/lvgl/src/core/lv_refr.c **** 
 4762              		.loc 1 270 1 is_stmt 0 view .LVU1591
 4763 0000 014B     		ldr	r3, .L309
 4764 0002 1868     		ldr	r0, [r3]
 4765 0004 7047     		bx	lr
 4766              	.L310:
 4767 0006 00BF     		.align	2
 4768              	.L309:
 4769 0008 00000000 		.word	.LANCHOR0
 4770              		.cfi_endproc
 4771              	.LFE171:
 4773              		.section	.text._lv_refr_set_disp_refreshing,"ax",%progbits
 4774              		.align	1
 4775              		.global	_lv_refr_set_disp_refreshing
 4776              		.syntax unified
 4777              		.thumb
 4778              		.thumb_func
 4780              	_lv_refr_set_disp_refreshing:
 4781              	.LVL442:
 4782              	.LFB172:
 279:Drivers/lvgl/src/core/lv_refr.c ****     disp_refr = disp;
 4783              		.loc 1 279 1 is_stmt 1 view -0
ARM GAS  /var/folders/0z/tsy30v1j4xl4_7kw94k978ww0000gn/T//ccRTPM70.s 			page 144


 4784              		.cfi_startproc
 4785              		@ args = 0, pretend = 0, frame = 0
 4786              		@ frame_needed = 0, uses_anonymous_args = 0
 4787              		@ link register save eliminated.
 280:Drivers/lvgl/src/core/lv_refr.c **** }
 4788              		.loc 1 280 5 view .LVU1593
 280:Drivers/lvgl/src/core/lv_refr.c **** }
 4789              		.loc 1 280 15 is_stmt 0 view .LVU1594
 4790 0000 014B     		ldr	r3, .L312
 4791 0002 1860     		str	r0, [r3]
 281:Drivers/lvgl/src/core/lv_refr.c **** 
 4792              		.loc 1 281 1 view .LVU1595
 4793 0004 7047     		bx	lr
 4794              	.L313:
 4795 0006 00BF     		.align	2
 4796              	.L312:
 4797 0008 00000000 		.word	.LANCHOR0
 4798              		.cfi_endproc
 4799              	.LFE172:
 4801              		.section	.rodata._lv_disp_refr_timer.str1.4,"aMS",%progbits,1
 4802              		.align	2
 4803              	.LC0:
 4804 0000 3F00     		.ascii	"?\000"
 4805 0002 0000     		.align	2
 4806              	.LC1:
 4807 0004 256C7520 		.ascii	"%lu FPS\012%lu%% CPU\000"
 4807      4650530A 
 4807      256C7525 
 4807      25204350 
 4807      5500
 4808 0016 0000     		.align	2
 4809              	.LC2:
 4810 0018 256C752E 		.ascii	"%lu.%lu kB used (%d %%)\012%d%% frag.\000"
 4810      256C7520 
 4810      6B422075 
 4810      73656420 
 4810      28256420 
 4811              		.section	.text._lv_disp_refr_timer,"ax",%progbits
 4812              		.align	1
 4813              		.global	_lv_disp_refr_timer
 4814              		.syntax unified
 4815              		.thumb
 4816              		.thumb_func
 4818              	_lv_disp_refr_timer:
 4819              	.LVL443:
 4820              	.LFB173:
 288:Drivers/lvgl/src/core/lv_refr.c ****     REFR_TRACE("begin");
 4821              		.loc 1 288 1 is_stmt 1 view -0
 4822              		.cfi_startproc
 4823              		@ args = 0, pretend = 0, frame = 32
 4824              		@ frame_needed = 0, uses_anonymous_args = 0
 288:Drivers/lvgl/src/core/lv_refr.c ****     REFR_TRACE("begin");
 4825              		.loc 1 288 1 is_stmt 0 view .LVU1597
 4826 0000 30B5     		push	{r4, r5, lr}
 4827              		.cfi_def_cfa_offset 12
 4828              		.cfi_offset 4, -12
 4829              		.cfi_offset 5, -8
ARM GAS  /var/folders/0z/tsy30v1j4xl4_7kw94k978ww0000gn/T//ccRTPM70.s 			page 145


 4830              		.cfi_offset 14, -4
 4831 0002 8BB0     		sub	sp, sp, #44
 4832              		.cfi_def_cfa_offset 56
 4833 0004 0446     		mov	r4, r0
 289:Drivers/lvgl/src/core/lv_refr.c **** 
 4834              		.loc 1 289 24 is_stmt 1 view .LVU1598
 291:Drivers/lvgl/src/core/lv_refr.c ****     volatile uint32_t elaps = 0;
 4835              		.loc 1 291 5 view .LVU1599
 291:Drivers/lvgl/src/core/lv_refr.c ****     volatile uint32_t elaps = 0;
 4836              		.loc 1 291 22 is_stmt 0 view .LVU1600
 4837 0006 FFF7FEFF 		bl	lv_tick_get
 4838              	.LVL444:
 291:Drivers/lvgl/src/core/lv_refr.c ****     volatile uint32_t elaps = 0;
 4839              		.loc 1 291 22 view .LVU1601
 4840 000a 0546     		mov	r5, r0
 4841              	.LVL445:
 292:Drivers/lvgl/src/core/lv_refr.c **** 
 4842              		.loc 1 292 5 is_stmt 1 view .LVU1602
 292:Drivers/lvgl/src/core/lv_refr.c **** 
 4843              		.loc 1 292 23 is_stmt 0 view .LVU1603
 4844 000c 0023     		movs	r3, #0
 4845 000e 0993     		str	r3, [sp, #36]
 294:Drivers/lvgl/src/core/lv_refr.c ****         disp_refr = tmr->user_data;
 4846              		.loc 1 294 5 is_stmt 1 view .LVU1604
 294:Drivers/lvgl/src/core/lv_refr.c ****         disp_refr = tmr->user_data;
 4847              		.loc 1 294 7 is_stmt 0 view .LVU1605
 4848 0010 002C     		cmp	r4, #0
 4849 0012 2ED0     		beq	.L315
 295:Drivers/lvgl/src/core/lv_refr.c **** #if LV_USE_PERF_MONITOR == 0 && LV_USE_MEM_MONITOR == 0
 4850              		.loc 1 295 9 is_stmt 1 view .LVU1606
 295:Drivers/lvgl/src/core/lv_refr.c **** #if LV_USE_PERF_MONITOR == 0 && LV_USE_MEM_MONITOR == 0
 4851              		.loc 1 295 24 is_stmt 0 view .LVU1607
 4852 0014 E268     		ldr	r2, [r4, #12]
 295:Drivers/lvgl/src/core/lv_refr.c **** #if LV_USE_PERF_MONITOR == 0 && LV_USE_MEM_MONITOR == 0
 4853              		.loc 1 295 19 view .LVU1608
 4854 0016 B34B     		ldr	r3, .L341
 4855 0018 1A60     		str	r2, [r3]
 4856              	.LVL446:
 4857              	.L316:
 309:Drivers/lvgl/src/core/lv_refr.c ****     if(disp_refr->prev_scr) lv_obj_update_layout(disp_refr->prev_scr);
 4858              		.loc 1 309 5 is_stmt 1 view .LVU1609
 309:Drivers/lvgl/src/core/lv_refr.c ****     if(disp_refr->prev_scr) lv_obj_update_layout(disp_refr->prev_scr);
 4859              		.loc 1 309 35 is_stmt 0 view .LVU1610
 4860 001a B24C     		ldr	r4, .L341
 4861              	.LVL447:
 309:Drivers/lvgl/src/core/lv_refr.c ****     if(disp_refr->prev_scr) lv_obj_update_layout(disp_refr->prev_scr);
 4862              		.loc 1 309 35 view .LVU1611
 4863 001c 2368     		ldr	r3, [r4]
 309:Drivers/lvgl/src/core/lv_refr.c ****     if(disp_refr->prev_scr) lv_obj_update_layout(disp_refr->prev_scr);
 4864              		.loc 1 309 5 view .LVU1612
 4865 001e 1869     		ldr	r0, [r3, #16]
 4866 0020 FFF7FEFF 		bl	lv_obj_update_layout
 4867              	.LVL448:
 310:Drivers/lvgl/src/core/lv_refr.c **** 
 4868              		.loc 1 310 5 is_stmt 1 view .LVU1613
 310:Drivers/lvgl/src/core/lv_refr.c **** 
 4869              		.loc 1 310 17 is_stmt 0 view .LVU1614
ARM GAS  /var/folders/0z/tsy30v1j4xl4_7kw94k978ww0000gn/T//ccRTPM70.s 			page 146


 4870 0024 2368     		ldr	r3, [r4]
 4871 0026 5869     		ldr	r0, [r3, #20]
 310:Drivers/lvgl/src/core/lv_refr.c **** 
 4872              		.loc 1 310 7 view .LVU1615
 4873 0028 08B1     		cbz	r0, .L317
 310:Drivers/lvgl/src/core/lv_refr.c **** 
 4874              		.loc 1 310 29 is_stmt 1 discriminator 1 view .LVU1616
 4875 002a FFF7FEFF 		bl	lv_obj_update_layout
 4876              	.LVL449:
 4877              	.L317:
 312:Drivers/lvgl/src/core/lv_refr.c ****     lv_obj_update_layout(disp_refr->sys_layer);
 4878              		.loc 1 312 5 view .LVU1617
 312:Drivers/lvgl/src/core/lv_refr.c ****     lv_obj_update_layout(disp_refr->sys_layer);
 4879              		.loc 1 312 35 is_stmt 0 view .LVU1618
 4880 002e AD4C     		ldr	r4, .L341
 4881 0030 2368     		ldr	r3, [r4]
 312:Drivers/lvgl/src/core/lv_refr.c ****     lv_obj_update_layout(disp_refr->sys_layer);
 4882              		.loc 1 312 5 view .LVU1619
 4883 0032 D869     		ldr	r0, [r3, #28]
 4884 0034 FFF7FEFF 		bl	lv_obj_update_layout
 4885              	.LVL450:
 313:Drivers/lvgl/src/core/lv_refr.c **** 
 4886              		.loc 1 313 5 is_stmt 1 view .LVU1620
 313:Drivers/lvgl/src/core/lv_refr.c **** 
 4887              		.loc 1 313 35 is_stmt 0 view .LVU1621
 4888 0038 2368     		ldr	r3, [r4]
 313:Drivers/lvgl/src/core/lv_refr.c **** 
 4889              		.loc 1 313 5 view .LVU1622
 4890 003a 186A     		ldr	r0, [r3, #32]
 4891 003c FFF7FEFF 		bl	lv_obj_update_layout
 4892              	.LVL451:
 316:Drivers/lvgl/src/core/lv_refr.c ****         disp_refr->inv_p = 0;
 4893              		.loc 1 316 5 is_stmt 1 view .LVU1623
 316:Drivers/lvgl/src/core/lv_refr.c ****         disp_refr->inv_p = 0;
 4894              		.loc 1 316 17 is_stmt 0 view .LVU1624
 4895 0040 2368     		ldr	r3, [r4]
 4896 0042 1A69     		ldr	r2, [r3, #16]
 316:Drivers/lvgl/src/core/lv_refr.c ****         disp_refr->inv_p = 0;
 4897              		.loc 1 316 7 view .LVU1625
 4898 0044 D2B1     		cbz	r2, .L337
 323:Drivers/lvgl/src/core/lv_refr.c ****     refr_sync_areas();
 4899              		.loc 1 323 5 is_stmt 1 view .LVU1626
 4900 0046 FFF7FEFF 		bl	lv_refr_join_area
 4901              	.LVL452:
 324:Drivers/lvgl/src/core/lv_refr.c ****     refr_invalid_areas();
 4902              		.loc 1 324 5 view .LVU1627
 4903 004a FFF7FEFF 		bl	refr_sync_areas
 4904              	.LVL453:
 325:Drivers/lvgl/src/core/lv_refr.c **** 
 4905              		.loc 1 325 5 view .LVU1628
 4906 004e FFF7FEFF 		bl	refr_invalid_areas
 4907              	.LVL454:
 328:Drivers/lvgl/src/core/lv_refr.c **** 
 4908              		.loc 1 328 5 view .LVU1629
 328:Drivers/lvgl/src/core/lv_refr.c **** 
 4909              		.loc 1 328 17 is_stmt 0 view .LVU1630
 4910 0052 A44B     		ldr	r3, .L341
ARM GAS  /var/folders/0z/tsy30v1j4xl4_7kw94k978ww0000gn/T//ccRTPM70.s 			page 147


 4911 0054 1B68     		ldr	r3, [r3]
 4912 0056 B3F85021 		ldrh	r2, [r3, #336]
 328:Drivers/lvgl/src/core/lv_refr.c **** 
 4913              		.loc 1 328 7 view .LVU1631
 4914 005a 002A     		cmp	r2, #0
 4915 005c 49D0     		beq	.L320
 331:Drivers/lvgl/src/core/lv_refr.c **** 
 4916              		.loc 1 331 9 is_stmt 1 view .LVU1632
 331:Drivers/lvgl/src/core/lv_refr.c **** 
 4917              		.loc 1 331 21 is_stmt 0 view .LVU1633
 4918 005e 1B68     		ldr	r3, [r3]
 331:Drivers/lvgl/src/core/lv_refr.c **** 
 4919              		.loc 1 331 12 view .LVU1634
 4920 0060 1A7C     		ldrb	r2, [r3, #16]	@ zero_extendqisi2
 331:Drivers/lvgl/src/core/lv_refr.c **** 
 4921              		.loc 1 331 11 view .LVU1635
 4922 0062 12F0010F 		tst	r2, #1
 4923 0066 27D0     		beq	.L321
 331:Drivers/lvgl/src/core/lv_refr.c **** 
 4924              		.loc 1 331 63 discriminator 1 view .LVU1636
 4925 0068 DB68     		ldr	r3, [r3, #12]
 331:Drivers/lvgl/src/core/lv_refr.c **** 
 4926              		.loc 1 331 73 discriminator 1 view .LVU1637
 4927 006a 5B68     		ldr	r3, [r3, #4]
 331:Drivers/lvgl/src/core/lv_refr.c **** 
 4928              		.loc 1 331 43 discriminator 1 view .LVU1638
 4929 006c 23B3     		cbz	r3, .L321
 4930              	.LBB171:
 334:Drivers/lvgl/src/core/lv_refr.c ****                 if(disp_refr->inv_area_joined[i])
 4931              		.loc 1 334 19 view .LVU1639
 4932 006e 0024     		movs	r4, #0
 4933 0070 09E0     		b	.L322
 4934              	.LVL455:
 4935              	.L315:
 334:Drivers/lvgl/src/core/lv_refr.c ****                 if(disp_refr->inv_area_joined[i])
 4936              		.loc 1 334 19 view .LVU1640
 4937              	.LBE171:
 305:Drivers/lvgl/src/core/lv_refr.c ****     }
 4938              		.loc 1 305 9 is_stmt 1 view .LVU1641
 305:Drivers/lvgl/src/core/lv_refr.c ****     }
 4939              		.loc 1 305 21 is_stmt 0 view .LVU1642
 4940 0072 FFF7FEFF 		bl	lv_disp_get_default
 4941              	.LVL456:
 305:Drivers/lvgl/src/core/lv_refr.c ****     }
 4942              		.loc 1 305 19 view .LVU1643
 4943 0076 9B4B     		ldr	r3, .L341
 4944 0078 1860     		str	r0, [r3]
 4945 007a CEE7     		b	.L316
 4946              	.LVL457:
 4947              	.L337:
 317:Drivers/lvgl/src/core/lv_refr.c ****         LV_LOG_WARN("there is no active screen");
 4948              		.loc 1 317 9 is_stmt 1 view .LVU1644
 317:Drivers/lvgl/src/core/lv_refr.c ****         LV_LOG_WARN("there is no active screen");
 4949              		.loc 1 317 26 is_stmt 0 view .LVU1645
 4950 007c A3F85021 		strh	r2, [r3, #336]	@ movhi
 318:Drivers/lvgl/src/core/lv_refr.c ****         REFR_TRACE("finished");
 4951              		.loc 1 318 9 is_stmt 1 view .LVU1646
ARM GAS  /var/folders/0z/tsy30v1j4xl4_7kw94k978ww0000gn/T//ccRTPM70.s 			page 148


 318:Drivers/lvgl/src/core/lv_refr.c ****         REFR_TRACE("finished");
 4952              		.loc 1 318 9 view .LVU1647
 318:Drivers/lvgl/src/core/lv_refr.c ****         REFR_TRACE("finished");
 4953              		.loc 1 318 9 view .LVU1648
 319:Drivers/lvgl/src/core/lv_refr.c ****         return;
 4954              		.loc 1 319 31 view .LVU1649
 320:Drivers/lvgl/src/core/lv_refr.c ****     }
 4955              		.loc 1 320 9 view .LVU1650
 4956 0080 62E0     		b	.L314
 4957              	.LVL458:
 4958              	.L323:
 4959              	.LBB173:
 334:Drivers/lvgl/src/core/lv_refr.c ****                 if(disp_refr->inv_area_joined[i])
 4960              		.loc 1 334 47 discriminator 2 view .LVU1651
 4961 0082 0134     		adds	r4, r4, #1
 4962              	.LVL459:
 334:Drivers/lvgl/src/core/lv_refr.c ****                 if(disp_refr->inv_area_joined[i])
 4963              		.loc 1 334 47 is_stmt 0 discriminator 2 view .LVU1652
 4964 0084 A4B2     		uxth	r4, r4
 4965              	.LVL460:
 4966              	.L322:
 334:Drivers/lvgl/src/core/lv_refr.c ****                 if(disp_refr->inv_area_joined[i])
 4967              		.loc 1 334 26 is_stmt 1 discriminator 1 view .LVU1653
 334:Drivers/lvgl/src/core/lv_refr.c ****                 if(disp_refr->inv_area_joined[i])
 4968              		.loc 1 334 37 is_stmt 0 discriminator 1 view .LVU1654
 4969 0086 974B     		ldr	r3, .L341
 4970 0088 1868     		ldr	r0, [r3]
 4971 008a B0F85021 		ldrh	r2, [r0, #336]
 334:Drivers/lvgl/src/core/lv_refr.c ****                 if(disp_refr->inv_area_joined[i])
 4972              		.loc 1 334 26 discriminator 1 view .LVU1655
 4973 008e A242     		cmp	r2, r4
 4974 0090 12D9     		bls	.L321
 4975              	.LBB172:
 335:Drivers/lvgl/src/core/lv_refr.c ****                     continue;
 4976              		.loc 1 335 17 is_stmt 1 view .LVU1656
 335:Drivers/lvgl/src/core/lv_refr.c ****                     continue;
 4977              		.loc 1 335 46 is_stmt 0 view .LVU1657
 4978 0092 0219     		adds	r2, r0, r4
 4979 0094 92F83021 		ldrb	r2, [r2, #304]	@ zero_extendqisi2
 335:Drivers/lvgl/src/core/lv_refr.c ****                     continue;
 4980              		.loc 1 335 19 view .LVU1658
 4981 0098 002A     		cmp	r2, #0
 4982 009a F2D1     		bne	.L323
 338:Drivers/lvgl/src/core/lv_refr.c ****                 *sync_area = disp_refr->inv_areas[i];
 4983              		.loc 1 338 17 is_stmt 1 view .LVU1659
 338:Drivers/lvgl/src/core/lv_refr.c ****                 *sync_area = disp_refr->inv_areas[i];
 4984              		.loc 1 338 41 is_stmt 0 view .LVU1660
 4985 009c 00F5AC70 		add	r0, r0, #344
 4986 00a0 FFF7FEFF 		bl	_lv_ll_ins_tail
 4987              	.LVL461:
 4988 00a4 0246     		mov	r2, r0
 4989              	.LVL462:
 339:Drivers/lvgl/src/core/lv_refr.c ****             }
 4990              		.loc 1 339 17 is_stmt 1 view .LVU1661
 339:Drivers/lvgl/src/core/lv_refr.c ****             }
 4991              		.loc 1 339 39 is_stmt 0 view .LVU1662
 4992 00a6 8F4B     		ldr	r3, .L341
ARM GAS  /var/folders/0z/tsy30v1j4xl4_7kw94k978ww0000gn/T//ccRTPM70.s 			page 149


 4993 00a8 1B68     		ldr	r3, [r3]
 339:Drivers/lvgl/src/core/lv_refr.c ****             }
 4994              		.loc 1 339 28 view .LVU1663
 4995 00aa A11D     		adds	r1, r4, #6
 4996 00ac 03EBC103 		add	r3, r3, r1, lsl #3
 4997 00b0 03CB     		ldmia	r3!, {r0, r1}
 4998              	.LVL463:
 339:Drivers/lvgl/src/core/lv_refr.c ****             }
 4999              		.loc 1 339 28 view .LVU1664
 5000 00b2 1060     		str	r0, [r2]	@ unaligned
 5001 00b4 5160     		str	r1, [r2, #4]	@ unaligned
 5002 00b6 E4E7     		b	.L323
 5003              	.LVL464:
 5004              	.L321:
 339:Drivers/lvgl/src/core/lv_refr.c ****             }
 5005              		.loc 1 339 28 view .LVU1665
 5006              	.LBE172:
 5007              	.LBE173:
 344:Drivers/lvgl/src/core/lv_refr.c ****         lv_memset_00(disp_refr->inv_area_joined, sizeof(disp_refr->inv_area_joined));
 5008              		.loc 1 344 9 is_stmt 1 view .LVU1666
 344:Drivers/lvgl/src/core/lv_refr.c ****         lv_memset_00(disp_refr->inv_area_joined, sizeof(disp_refr->inv_area_joined));
 5009              		.loc 1 344 31 is_stmt 0 view .LVU1667
 5010 00b8 8A4C     		ldr	r4, .L341
 5011 00ba 2068     		ldr	r0, [r4]
 344:Drivers/lvgl/src/core/lv_refr.c ****         lv_memset_00(disp_refr->inv_area_joined, sizeof(disp_refr->inv_area_joined));
 5012              		.loc 1 344 9 view .LVU1668
 5013 00bc 4FF48071 		mov	r1, #256
 5014 00c0 3030     		adds	r0, r0, #48
 5015 00c2 FFF7FEFF 		bl	lv_memset_00
 5016              	.LVL465:
 345:Drivers/lvgl/src/core/lv_refr.c ****         disp_refr->inv_p = 0;
 5017              		.loc 1 345 9 is_stmt 1 view .LVU1669
 345:Drivers/lvgl/src/core/lv_refr.c ****         disp_refr->inv_p = 0;
 5018              		.loc 1 345 31 is_stmt 0 view .LVU1670
 5019 00c6 2068     		ldr	r0, [r4]
 345:Drivers/lvgl/src/core/lv_refr.c ****         disp_refr->inv_p = 0;
 5020              		.loc 1 345 9 view .LVU1671
 5021 00c8 2021     		movs	r1, #32
 5022 00ca 00F59870 		add	r0, r0, #304
 5023 00ce FFF7FEFF 		bl	lv_memset_00
 5024              	.LVL466:
 346:Drivers/lvgl/src/core/lv_refr.c **** 
 5025              		.loc 1 346 9 is_stmt 1 view .LVU1672
 346:Drivers/lvgl/src/core/lv_refr.c **** 
 5026              		.loc 1 346 18 is_stmt 0 view .LVU1673
 5027 00d2 2368     		ldr	r3, [r4]
 346:Drivers/lvgl/src/core/lv_refr.c **** 
 5028              		.loc 1 346 26 view .LVU1674
 5029 00d4 0022     		movs	r2, #0
 5030 00d6 A3F85021 		strh	r2, [r3, #336]	@ movhi
 348:Drivers/lvgl/src/core/lv_refr.c **** 
 5031              		.loc 1 348 9 is_stmt 1 view .LVU1675
 348:Drivers/lvgl/src/core/lv_refr.c **** 
 5032              		.loc 1 348 17 is_stmt 0 view .LVU1676
 5033 00da 2846     		mov	r0, r5
 5034 00dc FFF7FEFF 		bl	lv_tick_elaps
 5035              	.LVL467:
ARM GAS  /var/folders/0z/tsy30v1j4xl4_7kw94k978ww0000gn/T//ccRTPM70.s 			page 150


 348:Drivers/lvgl/src/core/lv_refr.c **** 
 5036              		.loc 1 348 15 view .LVU1677
 5037 00e0 0990     		str	r0, [sp, #36]
 351:Drivers/lvgl/src/core/lv_refr.c ****             disp_refr->driver->monitor_cb(disp_refr->driver, elaps, px_num);
 5038              		.loc 1 351 9 is_stmt 1 view .LVU1678
 351:Drivers/lvgl/src/core/lv_refr.c ****             disp_refr->driver->monitor_cb(disp_refr->driver, elaps, px_num);
 5039              		.loc 1 351 21 is_stmt 0 view .LVU1679
 5040 00e2 2368     		ldr	r3, [r4]
 5041 00e4 1868     		ldr	r0, [r3]
 351:Drivers/lvgl/src/core/lv_refr.c ****             disp_refr->driver->monitor_cb(disp_refr->driver, elaps, px_num);
 5042              		.loc 1 351 29 view .LVU1680
 5043 00e6 436A     		ldr	r3, [r0, #36]
 351:Drivers/lvgl/src/core/lv_refr.c ****             disp_refr->driver->monitor_cb(disp_refr->driver, elaps, px_num);
 5044              		.loc 1 351 11 view .LVU1681
 5045 00e8 1BB1     		cbz	r3, .L320
 352:Drivers/lvgl/src/core/lv_refr.c ****         }
 5046              		.loc 1 352 13 is_stmt 1 view .LVU1682
 5047 00ea 0999     		ldr	r1, [sp, #36]
 5048 00ec 7E4A     		ldr	r2, .L341+4
 5049 00ee 1268     		ldr	r2, [r2]
 5050 00f0 9847     		blx	r3
 5051              	.LVL468:
 5052              	.L320:
 356:Drivers/lvgl/src/core/lv_refr.c ****     _lv_font_clean_up_fmt_txt();
 5053              		.loc 1 356 5 view .LVU1683
 5054 00f2 FFF7FEFF 		bl	lv_mem_buf_free_all
 5055              	.LVL469:
 357:Drivers/lvgl/src/core/lv_refr.c **** 
 5056              		.loc 1 357 5 view .LVU1684
 5057 00f6 FFF7FEFF 		bl	_lv_font_clean_up_fmt_txt
 5058              	.LVL470:
 360:Drivers/lvgl/src/core/lv_refr.c **** #endif
 5059              		.loc 1 360 5 view .LVU1685
 5060 00fa FFF7FEFF 		bl	_lv_draw_mask_cleanup
 5061              	.LVL471:
 364:Drivers/lvgl/src/core/lv_refr.c ****     if(perf_label == NULL) {
 5062              		.loc 1 364 5 view .LVU1686
 364:Drivers/lvgl/src/core/lv_refr.c ****     if(perf_label == NULL) {
 5063              		.loc 1 364 16 is_stmt 0 view .LVU1687
 5064 00fe 7B4B     		ldr	r3, .L341+8
 5065 0100 5C69     		ldr	r4, [r3, #20]
 5066              	.LVL472:
 365:Drivers/lvgl/src/core/lv_refr.c ****         perf_label = lv_label_create(lv_layer_sys());
 5067              		.loc 1 365 5 is_stmt 1 view .LVU1688
 365:Drivers/lvgl/src/core/lv_refr.c ****         perf_label = lv_label_create(lv_layer_sys());
 5068              		.loc 1 365 7 is_stmt 0 view .LVU1689
 5069 0102 1CB3     		cbz	r4, .L338
 5070              	.L325:
 380:Drivers/lvgl/src/core/lv_refr.c ****         if(px_num > 5000) {
 5071              		.loc 1 380 5 is_stmt 1 view .LVU1690
 380:Drivers/lvgl/src/core/lv_refr.c ****         if(px_num > 5000) {
 5072              		.loc 1 380 8 is_stmt 0 view .LVU1691
 5073 0104 794B     		ldr	r3, .L341+8
 5074 0106 1868     		ldr	r0, [r3]
 5075 0108 FFF7FEFF 		bl	lv_tick_elaps
 5076              	.LVL473:
 380:Drivers/lvgl/src/core/lv_refr.c ****         if(px_num > 5000) {
ARM GAS  /var/folders/0z/tsy30v1j4xl4_7kw94k978ww0000gn/T//ccRTPM70.s 			page 151


 5077              		.loc 1 380 7 view .LVU1692
 5078 010c B0F5967F 		cmp	r0, #300
 5079 0110 59D2     		bcs	.L326
 381:Drivers/lvgl/src/core/lv_refr.c ****             perf_monitor.elaps_sum += elaps;
 5080              		.loc 1 381 9 is_stmt 1 view .LVU1693
 381:Drivers/lvgl/src/core/lv_refr.c ****             perf_monitor.elaps_sum += elaps;
 5081              		.loc 1 381 19 is_stmt 0 view .LVU1694
 5082 0112 754B     		ldr	r3, .L341+4
 5083 0114 1A68     		ldr	r2, [r3]
 381:Drivers/lvgl/src/core/lv_refr.c ****             perf_monitor.elaps_sum += elaps;
 5084              		.loc 1 381 11 view .LVU1695
 5085 0116 41F28833 		movw	r3, #5000
 5086 011a 9A42     		cmp	r2, r3
 5087 011c 07D9     		bls	.L327
 382:Drivers/lvgl/src/core/lv_refr.c ****             perf_monitor.frame_cnt ++;
 5088              		.loc 1 382 13 is_stmt 1 view .LVU1696
 5089 011e 0999     		ldr	r1, [sp, #36]
 382:Drivers/lvgl/src/core/lv_refr.c ****             perf_monitor.frame_cnt ++;
 5090              		.loc 1 382 36 is_stmt 0 view .LVU1697
 5091 0120 724B     		ldr	r3, .L341+8
 5092 0122 5A68     		ldr	r2, [r3, #4]
 5093 0124 0A44     		add	r2, r2, r1
 5094 0126 5A60     		str	r2, [r3, #4]
 383:Drivers/lvgl/src/core/lv_refr.c ****         }
 5095              		.loc 1 383 13 is_stmt 1 view .LVU1698
 383:Drivers/lvgl/src/core/lv_refr.c ****         }
 5096              		.loc 1 383 25 is_stmt 0 view .LVU1699
 5097 0128 9A68     		ldr	r2, [r3, #8]
 383:Drivers/lvgl/src/core/lv_refr.c ****         }
 5098              		.loc 1 383 36 view .LVU1700
 5099 012a 0132     		adds	r2, r2, #1
 5100 012c 9A60     		str	r2, [r3, #8]
 5101              	.LVL474:
 5102              	.L327:
 421:Drivers/lvgl/src/core/lv_refr.c ****     if(mem_label == NULL) {
 5103              		.loc 1 421 5 is_stmt 1 view .LVU1701
 421:Drivers/lvgl/src/core/lv_refr.c ****     if(mem_label == NULL) {
 5104              		.loc 1 421 16 is_stmt 0 view .LVU1702
 5105 012e 704B     		ldr	r3, .L341+12
 5106 0130 5C68     		ldr	r4, [r3, #4]
 5107              	.LVL475:
 422:Drivers/lvgl/src/core/lv_refr.c ****         mem_label = lv_label_create(lv_layer_sys());
 5108              		.loc 1 422 5 is_stmt 1 view .LVU1703
 422:Drivers/lvgl/src/core/lv_refr.c ****         mem_label = lv_label_create(lv_layer_sys());
 5109              		.loc 1 422 7 is_stmt 0 view .LVU1704
 5110 0132 002C     		cmp	r4, #0
 5111 0134 00F08180 		beq	.L339
 5112              	.L332:
 436:Drivers/lvgl/src/core/lv_refr.c ****         mem_monitor.mem_last_time = lv_tick_get();
 5113              		.loc 1 436 5 is_stmt 1 view .LVU1705
 436:Drivers/lvgl/src/core/lv_refr.c ****         mem_monitor.mem_last_time = lv_tick_get();
 5114              		.loc 1 436 8 is_stmt 0 view .LVU1706
 5115 0138 6D4B     		ldr	r3, .L341+12
 5116 013a 1868     		ldr	r0, [r3]
 5117 013c FFF7FEFF 		bl	lv_tick_elaps
 5118              	.LVL476:
 436:Drivers/lvgl/src/core/lv_refr.c ****         mem_monitor.mem_last_time = lv_tick_get();
ARM GAS  /var/folders/0z/tsy30v1j4xl4_7kw94k978ww0000gn/T//ccRTPM70.s 			page 152


 5119              		.loc 1 436 7 view .LVU1707
 5120 0140 B0F5967F 		cmp	r0, #300
 5121 0144 00F2B180 		bhi	.L340
 5122              	.LVL477:
 5123              	.L314:
 452:Drivers/lvgl/src/core/lv_refr.c **** 
 5124              		.loc 1 452 1 view .LVU1708
 5125 0148 0BB0     		add	sp, sp, #44
 5126              		.cfi_remember_state
 5127              		.cfi_def_cfa_offset 12
 5128              		@ sp needed
 5129 014a 30BD     		pop	{r4, r5, pc}
 5130              	.LVL478:
 5131              	.L338:
 5132              		.cfi_restore_state
 366:Drivers/lvgl/src/core/lv_refr.c ****         lv_obj_set_style_bg_opa(perf_label, LV_OPA_50, 0);
 5133              		.loc 1 366 9 is_stmt 1 view .LVU1709
 5134              	.LBB174:
 5135              	.LBI174:
 5136              		.file 4 "Drivers/lvgl/src/core/lv_disp.h"
   1:Drivers/lvgl/src/core/lv_disp.h **** /**
   2:Drivers/lvgl/src/core/lv_disp.h ****  * @file lv_disp.h
   3:Drivers/lvgl/src/core/lv_disp.h ****  *
   4:Drivers/lvgl/src/core/lv_disp.h ****  */
   5:Drivers/lvgl/src/core/lv_disp.h **** 
   6:Drivers/lvgl/src/core/lv_disp.h **** #ifndef LV_DISP_H
   7:Drivers/lvgl/src/core/lv_disp.h **** #define LV_DISP_H
   8:Drivers/lvgl/src/core/lv_disp.h **** 
   9:Drivers/lvgl/src/core/lv_disp.h **** #ifdef __cplusplus
  10:Drivers/lvgl/src/core/lv_disp.h **** extern "C" {
  11:Drivers/lvgl/src/core/lv_disp.h **** #endif
  12:Drivers/lvgl/src/core/lv_disp.h **** 
  13:Drivers/lvgl/src/core/lv_disp.h **** /*********************
  14:Drivers/lvgl/src/core/lv_disp.h ****  *      INCLUDES
  15:Drivers/lvgl/src/core/lv_disp.h ****  *********************/
  16:Drivers/lvgl/src/core/lv_disp.h **** #include "../hal/lv_hal.h"
  17:Drivers/lvgl/src/core/lv_disp.h **** #include "lv_obj.h"
  18:Drivers/lvgl/src/core/lv_disp.h **** #include "lv_theme.h"
  19:Drivers/lvgl/src/core/lv_disp.h **** 
  20:Drivers/lvgl/src/core/lv_disp.h **** /*********************
  21:Drivers/lvgl/src/core/lv_disp.h ****  *      DEFINES
  22:Drivers/lvgl/src/core/lv_disp.h ****  *********************/
  23:Drivers/lvgl/src/core/lv_disp.h **** 
  24:Drivers/lvgl/src/core/lv_disp.h **** /**********************
  25:Drivers/lvgl/src/core/lv_disp.h ****  *      TYPEDEFS
  26:Drivers/lvgl/src/core/lv_disp.h ****  **********************/
  27:Drivers/lvgl/src/core/lv_disp.h **** 
  28:Drivers/lvgl/src/core/lv_disp.h **** typedef enum {
  29:Drivers/lvgl/src/core/lv_disp.h ****     LV_SCR_LOAD_ANIM_NONE,
  30:Drivers/lvgl/src/core/lv_disp.h ****     LV_SCR_LOAD_ANIM_OVER_LEFT,
  31:Drivers/lvgl/src/core/lv_disp.h ****     LV_SCR_LOAD_ANIM_OVER_RIGHT,
  32:Drivers/lvgl/src/core/lv_disp.h ****     LV_SCR_LOAD_ANIM_OVER_TOP,
  33:Drivers/lvgl/src/core/lv_disp.h ****     LV_SCR_LOAD_ANIM_OVER_BOTTOM,
  34:Drivers/lvgl/src/core/lv_disp.h ****     LV_SCR_LOAD_ANIM_MOVE_LEFT,
  35:Drivers/lvgl/src/core/lv_disp.h ****     LV_SCR_LOAD_ANIM_MOVE_RIGHT,
  36:Drivers/lvgl/src/core/lv_disp.h ****     LV_SCR_LOAD_ANIM_MOVE_TOP,
  37:Drivers/lvgl/src/core/lv_disp.h ****     LV_SCR_LOAD_ANIM_MOVE_BOTTOM,
ARM GAS  /var/folders/0z/tsy30v1j4xl4_7kw94k978ww0000gn/T//ccRTPM70.s 			page 153


  38:Drivers/lvgl/src/core/lv_disp.h ****     LV_SCR_LOAD_ANIM_FADE_IN,
  39:Drivers/lvgl/src/core/lv_disp.h ****     LV_SCR_LOAD_ANIM_FADE_ON = LV_SCR_LOAD_ANIM_FADE_IN, /*For backward compatibility*/
  40:Drivers/lvgl/src/core/lv_disp.h ****     LV_SCR_LOAD_ANIM_FADE_OUT,
  41:Drivers/lvgl/src/core/lv_disp.h ****     LV_SCR_LOAD_ANIM_OUT_LEFT,
  42:Drivers/lvgl/src/core/lv_disp.h ****     LV_SCR_LOAD_ANIM_OUT_RIGHT,
  43:Drivers/lvgl/src/core/lv_disp.h ****     LV_SCR_LOAD_ANIM_OUT_TOP,
  44:Drivers/lvgl/src/core/lv_disp.h ****     LV_SCR_LOAD_ANIM_OUT_BOTTOM,
  45:Drivers/lvgl/src/core/lv_disp.h **** } lv_scr_load_anim_t;
  46:Drivers/lvgl/src/core/lv_disp.h **** 
  47:Drivers/lvgl/src/core/lv_disp.h **** /**********************
  48:Drivers/lvgl/src/core/lv_disp.h ****  * GLOBAL PROTOTYPES
  49:Drivers/lvgl/src/core/lv_disp.h ****  **********************/
  50:Drivers/lvgl/src/core/lv_disp.h **** 
  51:Drivers/lvgl/src/core/lv_disp.h **** /**
  52:Drivers/lvgl/src/core/lv_disp.h ****  * Return with a pointer to the active screen
  53:Drivers/lvgl/src/core/lv_disp.h ****  * @param disp pointer to display which active screen should be get. (NULL to use the default
  54:Drivers/lvgl/src/core/lv_disp.h ****  * screen)
  55:Drivers/lvgl/src/core/lv_disp.h ****  * @return pointer to the active screen object (loaded by 'lv_scr_load()')
  56:Drivers/lvgl/src/core/lv_disp.h ****  */
  57:Drivers/lvgl/src/core/lv_disp.h **** lv_obj_t * lv_disp_get_scr_act(lv_disp_t * disp);
  58:Drivers/lvgl/src/core/lv_disp.h **** 
  59:Drivers/lvgl/src/core/lv_disp.h **** /**
  60:Drivers/lvgl/src/core/lv_disp.h ****  * Return with a pointer to the previous screen. Only used during screen transitions.
  61:Drivers/lvgl/src/core/lv_disp.h ****  * @param disp pointer to display which previous screen should be get. (NULL to use the default
  62:Drivers/lvgl/src/core/lv_disp.h ****  * screen)
  63:Drivers/lvgl/src/core/lv_disp.h ****  * @return pointer to the previous screen object or NULL if not used now
  64:Drivers/lvgl/src/core/lv_disp.h ****  */
  65:Drivers/lvgl/src/core/lv_disp.h **** lv_obj_t * lv_disp_get_scr_prev(lv_disp_t * disp);
  66:Drivers/lvgl/src/core/lv_disp.h **** 
  67:Drivers/lvgl/src/core/lv_disp.h **** /**
  68:Drivers/lvgl/src/core/lv_disp.h ****  * Make a screen active
  69:Drivers/lvgl/src/core/lv_disp.h ****  * @param scr pointer to a screen
  70:Drivers/lvgl/src/core/lv_disp.h ****  */
  71:Drivers/lvgl/src/core/lv_disp.h **** void lv_disp_load_scr(lv_obj_t * scr);
  72:Drivers/lvgl/src/core/lv_disp.h **** 
  73:Drivers/lvgl/src/core/lv_disp.h **** /**
  74:Drivers/lvgl/src/core/lv_disp.h ****  * Return with the top layer. (Same on every screen and it is above the normal screen layer)
  75:Drivers/lvgl/src/core/lv_disp.h ****  * @param disp pointer to display which top layer should be get. (NULL to use the default screen)
  76:Drivers/lvgl/src/core/lv_disp.h ****  * @return pointer to the top layer object (transparent screen sized lv_obj)
  77:Drivers/lvgl/src/core/lv_disp.h ****  */
  78:Drivers/lvgl/src/core/lv_disp.h **** lv_obj_t * lv_disp_get_layer_top(lv_disp_t * disp);
  79:Drivers/lvgl/src/core/lv_disp.h **** 
  80:Drivers/lvgl/src/core/lv_disp.h **** /**
  81:Drivers/lvgl/src/core/lv_disp.h ****  * Return with the sys. layer. (Same on every screen and it is above the normal screen and the top
  82:Drivers/lvgl/src/core/lv_disp.h ****  * layer)
  83:Drivers/lvgl/src/core/lv_disp.h ****  * @param disp pointer to display which sys. layer should be retrieved. (NULL to use the default sc
  84:Drivers/lvgl/src/core/lv_disp.h ****  * @return pointer to the sys layer object (transparent screen sized lv_obj)
  85:Drivers/lvgl/src/core/lv_disp.h ****  */
  86:Drivers/lvgl/src/core/lv_disp.h **** lv_obj_t * lv_disp_get_layer_sys(lv_disp_t * disp);
  87:Drivers/lvgl/src/core/lv_disp.h **** 
  88:Drivers/lvgl/src/core/lv_disp.h **** /**
  89:Drivers/lvgl/src/core/lv_disp.h ****  * Set the theme of a display
  90:Drivers/lvgl/src/core/lv_disp.h ****  * @param disp pointer to a display
  91:Drivers/lvgl/src/core/lv_disp.h ****  */
  92:Drivers/lvgl/src/core/lv_disp.h **** void lv_disp_set_theme(lv_disp_t * disp, lv_theme_t * th);
  93:Drivers/lvgl/src/core/lv_disp.h **** 
  94:Drivers/lvgl/src/core/lv_disp.h **** /**
ARM GAS  /var/folders/0z/tsy30v1j4xl4_7kw94k978ww0000gn/T//ccRTPM70.s 			page 154


  95:Drivers/lvgl/src/core/lv_disp.h ****  * Get the theme of a display
  96:Drivers/lvgl/src/core/lv_disp.h ****  * @param disp pointer to a display
  97:Drivers/lvgl/src/core/lv_disp.h ****  * @return the display's theme (can be NULL)
  98:Drivers/lvgl/src/core/lv_disp.h ****  */
  99:Drivers/lvgl/src/core/lv_disp.h **** lv_theme_t * lv_disp_get_theme(lv_disp_t * disp);
 100:Drivers/lvgl/src/core/lv_disp.h **** 
 101:Drivers/lvgl/src/core/lv_disp.h **** /**
 102:Drivers/lvgl/src/core/lv_disp.h ****  * Set the background color of a display
 103:Drivers/lvgl/src/core/lv_disp.h ****  * @param disp pointer to a display
 104:Drivers/lvgl/src/core/lv_disp.h ****  * @param color color of the background
 105:Drivers/lvgl/src/core/lv_disp.h ****  */
 106:Drivers/lvgl/src/core/lv_disp.h **** void lv_disp_set_bg_color(lv_disp_t * disp, lv_color_t color);
 107:Drivers/lvgl/src/core/lv_disp.h **** 
 108:Drivers/lvgl/src/core/lv_disp.h **** /**
 109:Drivers/lvgl/src/core/lv_disp.h ****  * Set the background image of a display
 110:Drivers/lvgl/src/core/lv_disp.h ****  * @param disp pointer to a display
 111:Drivers/lvgl/src/core/lv_disp.h ****  * @param img_src path to file or pointer to an `lv_img_dsc_t` variable
 112:Drivers/lvgl/src/core/lv_disp.h ****  */
 113:Drivers/lvgl/src/core/lv_disp.h **** void lv_disp_set_bg_image(lv_disp_t * disp, const void  * img_src);
 114:Drivers/lvgl/src/core/lv_disp.h **** 
 115:Drivers/lvgl/src/core/lv_disp.h **** /**
 116:Drivers/lvgl/src/core/lv_disp.h ****  * Set opacity of the background
 117:Drivers/lvgl/src/core/lv_disp.h ****  * @param disp pointer to a display
 118:Drivers/lvgl/src/core/lv_disp.h ****  * @param opa opacity (0..255)
 119:Drivers/lvgl/src/core/lv_disp.h ****  */
 120:Drivers/lvgl/src/core/lv_disp.h **** void lv_disp_set_bg_opa(lv_disp_t * disp, lv_opa_t opa);
 121:Drivers/lvgl/src/core/lv_disp.h **** 
 122:Drivers/lvgl/src/core/lv_disp.h **** /**
 123:Drivers/lvgl/src/core/lv_disp.h ****  * Switch screen with animation
 124:Drivers/lvgl/src/core/lv_disp.h ****  * @param scr pointer to the new screen to load
 125:Drivers/lvgl/src/core/lv_disp.h ****  * @param anim_type type of the animation from `lv_scr_load_anim_t`, e.g. `LV_SCR_LOAD_ANIM_MOVE_LE
 126:Drivers/lvgl/src/core/lv_disp.h ****  * @param time time of the animation
 127:Drivers/lvgl/src/core/lv_disp.h ****  * @param delay delay before the transition
 128:Drivers/lvgl/src/core/lv_disp.h ****  * @param auto_del true: automatically delete the old screen
 129:Drivers/lvgl/src/core/lv_disp.h ****  */
 130:Drivers/lvgl/src/core/lv_disp.h **** void lv_scr_load_anim(lv_obj_t * scr, lv_scr_load_anim_t anim_type, uint32_t time, uint32_t delay, 
 131:Drivers/lvgl/src/core/lv_disp.h **** 
 132:Drivers/lvgl/src/core/lv_disp.h **** /**
 133:Drivers/lvgl/src/core/lv_disp.h ****  * Get elapsed time since last user activity on a display (e.g. click)
 134:Drivers/lvgl/src/core/lv_disp.h ****  * @param disp pointer to a display (NULL to get the overall smallest inactivity)
 135:Drivers/lvgl/src/core/lv_disp.h ****  * @return elapsed ticks (milliseconds) since the last activity
 136:Drivers/lvgl/src/core/lv_disp.h ****  */
 137:Drivers/lvgl/src/core/lv_disp.h **** uint32_t lv_disp_get_inactive_time(const lv_disp_t * disp);
 138:Drivers/lvgl/src/core/lv_disp.h **** 
 139:Drivers/lvgl/src/core/lv_disp.h **** /**
 140:Drivers/lvgl/src/core/lv_disp.h ****  * Manually trigger an activity on a display
 141:Drivers/lvgl/src/core/lv_disp.h ****  * @param disp pointer to a display (NULL to use the default display)
 142:Drivers/lvgl/src/core/lv_disp.h ****  */
 143:Drivers/lvgl/src/core/lv_disp.h **** void lv_disp_trig_activity(lv_disp_t * disp);
 144:Drivers/lvgl/src/core/lv_disp.h **** 
 145:Drivers/lvgl/src/core/lv_disp.h **** /**
 146:Drivers/lvgl/src/core/lv_disp.h ****  * Clean any CPU cache that is related to the display.
 147:Drivers/lvgl/src/core/lv_disp.h ****  * @param disp pointer to a display (NULL to use the default display)
 148:Drivers/lvgl/src/core/lv_disp.h ****  */
 149:Drivers/lvgl/src/core/lv_disp.h **** void lv_disp_clean_dcache(lv_disp_t * disp);
 150:Drivers/lvgl/src/core/lv_disp.h **** 
 151:Drivers/lvgl/src/core/lv_disp.h **** /**
ARM GAS  /var/folders/0z/tsy30v1j4xl4_7kw94k978ww0000gn/T//ccRTPM70.s 			page 155


 152:Drivers/lvgl/src/core/lv_disp.h ****  * Temporarily enable and disable the invalidation of the display.
 153:Drivers/lvgl/src/core/lv_disp.h ****  * @param disp pointer to a display (NULL to use the default display)
 154:Drivers/lvgl/src/core/lv_disp.h ****  * @param en true: enable invalidation; false: invalidation
 155:Drivers/lvgl/src/core/lv_disp.h ****  */
 156:Drivers/lvgl/src/core/lv_disp.h **** void lv_disp_enable_invalidation(lv_disp_t * disp, bool en);
 157:Drivers/lvgl/src/core/lv_disp.h **** 
 158:Drivers/lvgl/src/core/lv_disp.h **** /**
 159:Drivers/lvgl/src/core/lv_disp.h ****  * Get display invalidation is enabled.
 160:Drivers/lvgl/src/core/lv_disp.h ****  * @param disp pointer to a display (NULL to use the default display)
 161:Drivers/lvgl/src/core/lv_disp.h ****  * @return return true if invalidation is enabled
 162:Drivers/lvgl/src/core/lv_disp.h ****  */
 163:Drivers/lvgl/src/core/lv_disp.h **** bool lv_disp_is_invalidation_enabled(lv_disp_t * disp);
 164:Drivers/lvgl/src/core/lv_disp.h **** 
 165:Drivers/lvgl/src/core/lv_disp.h **** /**
 166:Drivers/lvgl/src/core/lv_disp.h ****  * Get a pointer to the screen refresher timer to
 167:Drivers/lvgl/src/core/lv_disp.h ****  * modify its parameters with `lv_timer_...` functions.
 168:Drivers/lvgl/src/core/lv_disp.h ****  * @param disp pointer to a display
 169:Drivers/lvgl/src/core/lv_disp.h ****  * @return pointer to the display refresher timer. (NULL on error)
 170:Drivers/lvgl/src/core/lv_disp.h ****  */
 171:Drivers/lvgl/src/core/lv_disp.h **** lv_timer_t * _lv_disp_get_refr_timer(lv_disp_t * disp);
 172:Drivers/lvgl/src/core/lv_disp.h **** 
 173:Drivers/lvgl/src/core/lv_disp.h **** /*------------------------------------------------
 174:Drivers/lvgl/src/core/lv_disp.h ****  * To improve backward compatibility
 175:Drivers/lvgl/src/core/lv_disp.h ****  * Recommended only if you have one display
 176:Drivers/lvgl/src/core/lv_disp.h ****  *------------------------------------------------*/
 177:Drivers/lvgl/src/core/lv_disp.h **** 
 178:Drivers/lvgl/src/core/lv_disp.h **** /**
 179:Drivers/lvgl/src/core/lv_disp.h ****  * Get the active screen of the default display
 180:Drivers/lvgl/src/core/lv_disp.h ****  * @return pointer to the active screen
 181:Drivers/lvgl/src/core/lv_disp.h ****  */
 182:Drivers/lvgl/src/core/lv_disp.h **** static inline lv_obj_t * lv_scr_act(void)
 183:Drivers/lvgl/src/core/lv_disp.h **** {
 184:Drivers/lvgl/src/core/lv_disp.h ****     return lv_disp_get_scr_act(lv_disp_get_default());
 185:Drivers/lvgl/src/core/lv_disp.h **** }
 186:Drivers/lvgl/src/core/lv_disp.h **** 
 187:Drivers/lvgl/src/core/lv_disp.h **** /**
 188:Drivers/lvgl/src/core/lv_disp.h ****  * Get the top layer  of the default display
 189:Drivers/lvgl/src/core/lv_disp.h ****  * @return pointer to the top layer
 190:Drivers/lvgl/src/core/lv_disp.h ****  */
 191:Drivers/lvgl/src/core/lv_disp.h **** static inline lv_obj_t * lv_layer_top(void)
 192:Drivers/lvgl/src/core/lv_disp.h **** {
 193:Drivers/lvgl/src/core/lv_disp.h ****     return lv_disp_get_layer_top(lv_disp_get_default());
 194:Drivers/lvgl/src/core/lv_disp.h **** }
 195:Drivers/lvgl/src/core/lv_disp.h **** 
 196:Drivers/lvgl/src/core/lv_disp.h **** /**
 197:Drivers/lvgl/src/core/lv_disp.h ****  * Get the active screen of the default display
 198:Drivers/lvgl/src/core/lv_disp.h ****  * @return  pointer to the sys layer
 199:Drivers/lvgl/src/core/lv_disp.h ****  */
 200:Drivers/lvgl/src/core/lv_disp.h **** static inline lv_obj_t * lv_layer_sys(void)
 5137              		.loc 4 200 26 view .LVU1710
 5138              	.LBB175:
 201:Drivers/lvgl/src/core/lv_disp.h **** {
 202:Drivers/lvgl/src/core/lv_disp.h ****     return lv_disp_get_layer_sys(lv_disp_get_default());
 5139              		.loc 4 202 5 view .LVU1711
 5140              		.loc 4 202 12 is_stmt 0 view .LVU1712
 5141 014c FFF7FEFF 		bl	lv_disp_get_default
 5142              	.LVL479:
ARM GAS  /var/folders/0z/tsy30v1j4xl4_7kw94k978ww0000gn/T//ccRTPM70.s 			page 156


 5143 0150 FFF7FEFF 		bl	lv_disp_get_layer_sys
 5144              	.LVL480:
 5145              	.LBE175:
 5146              	.LBE174:
 366:Drivers/lvgl/src/core/lv_refr.c ****         lv_obj_set_style_bg_opa(perf_label, LV_OPA_50, 0);
 5147              		.loc 1 366 22 view .LVU1713
 5148 0154 FFF7FEFF 		bl	lv_label_create
 5149              	.LVL481:
 5150 0158 0446     		mov	r4, r0
 5151              	.LVL482:
 367:Drivers/lvgl/src/core/lv_refr.c ****         lv_obj_set_style_bg_color(perf_label, lv_color_black(), 0);
 5152              		.loc 1 367 9 is_stmt 1 view .LVU1714
 5153 015a 0022     		movs	r2, #0
 5154 015c 7F21     		movs	r1, #127
 5155 015e FFF7FEFF 		bl	lv_obj_set_style_bg_opa
 5156              	.LVL483:
 368:Drivers/lvgl/src/core/lv_refr.c ****         lv_obj_set_style_text_color(perf_label, lv_color_white(), 0);
 5157              		.loc 1 368 9 view .LVU1715
 5158              	.LBB176:
 5159              	.LBI176:
 5160              		.file 5 "Drivers/lvgl/src/core/../misc/lv_color.h"
   1:Drivers/lvgl/src/core/../misc/lv_color.h **** /**
   2:Drivers/lvgl/src/core/../misc/lv_color.h ****  * @file lv_color.h
   3:Drivers/lvgl/src/core/../misc/lv_color.h ****  *
   4:Drivers/lvgl/src/core/../misc/lv_color.h ****  */
   5:Drivers/lvgl/src/core/../misc/lv_color.h **** 
   6:Drivers/lvgl/src/core/../misc/lv_color.h **** #ifndef LV_COLOR_H
   7:Drivers/lvgl/src/core/../misc/lv_color.h **** #define LV_COLOR_H
   8:Drivers/lvgl/src/core/../misc/lv_color.h **** 
   9:Drivers/lvgl/src/core/../misc/lv_color.h **** #ifdef __cplusplus
  10:Drivers/lvgl/src/core/../misc/lv_color.h **** extern "C" {
  11:Drivers/lvgl/src/core/../misc/lv_color.h **** #endif
  12:Drivers/lvgl/src/core/../misc/lv_color.h **** 
  13:Drivers/lvgl/src/core/../misc/lv_color.h **** /*********************
  14:Drivers/lvgl/src/core/../misc/lv_color.h ****  *      INCLUDES
  15:Drivers/lvgl/src/core/../misc/lv_color.h ****  *********************/
  16:Drivers/lvgl/src/core/../misc/lv_color.h **** #include "../lv_conf_internal.h"
  17:Drivers/lvgl/src/core/../misc/lv_color.h **** #include "lv_assert.h"
  18:Drivers/lvgl/src/core/../misc/lv_color.h **** #include "lv_math.h"
  19:Drivers/lvgl/src/core/../misc/lv_color.h **** #include "lv_types.h"
  20:Drivers/lvgl/src/core/../misc/lv_color.h **** 
  21:Drivers/lvgl/src/core/../misc/lv_color.h **** /*Error checking*/
  22:Drivers/lvgl/src/core/../misc/lv_color.h **** #if LV_COLOR_DEPTH == 24
  23:Drivers/lvgl/src/core/../misc/lv_color.h **** #error "LV_COLOR_DEPTH 24 is deprecated. Use LV_COLOR_DEPTH 32 instead (lv_conf.h)"
  24:Drivers/lvgl/src/core/../misc/lv_color.h **** #endif
  25:Drivers/lvgl/src/core/../misc/lv_color.h **** 
  26:Drivers/lvgl/src/core/../misc/lv_color.h **** #if LV_COLOR_DEPTH != 16 && LV_COLOR_16_SWAP != 0
  27:Drivers/lvgl/src/core/../misc/lv_color.h **** #error "LV_COLOR_16_SWAP requires LV_COLOR_DEPTH == 16. Set it in lv_conf.h"
  28:Drivers/lvgl/src/core/../misc/lv_color.h **** #endif
  29:Drivers/lvgl/src/core/../misc/lv_color.h **** 
  30:Drivers/lvgl/src/core/../misc/lv_color.h **** #include <stdint.h>
  31:Drivers/lvgl/src/core/../misc/lv_color.h **** 
  32:Drivers/lvgl/src/core/../misc/lv_color.h **** /*********************
  33:Drivers/lvgl/src/core/../misc/lv_color.h ****  *      DEFINES
  34:Drivers/lvgl/src/core/../misc/lv_color.h ****  *********************/
  35:Drivers/lvgl/src/core/../misc/lv_color.h **** LV_EXPORT_CONST_INT(LV_COLOR_DEPTH);
  36:Drivers/lvgl/src/core/../misc/lv_color.h **** LV_EXPORT_CONST_INT(LV_COLOR_16_SWAP);
ARM GAS  /var/folders/0z/tsy30v1j4xl4_7kw94k978ww0000gn/T//ccRTPM70.s 			page 157


  37:Drivers/lvgl/src/core/../misc/lv_color.h **** 
  38:Drivers/lvgl/src/core/../misc/lv_color.h **** /**
  39:Drivers/lvgl/src/core/../misc/lv_color.h ****  * Opacity percentages.
  40:Drivers/lvgl/src/core/../misc/lv_color.h ****  */
  41:Drivers/lvgl/src/core/../misc/lv_color.h **** enum {
  42:Drivers/lvgl/src/core/../misc/lv_color.h ****     LV_OPA_TRANSP = 0,
  43:Drivers/lvgl/src/core/../misc/lv_color.h ****     LV_OPA_0      = 0,
  44:Drivers/lvgl/src/core/../misc/lv_color.h ****     LV_OPA_10     = 25,
  45:Drivers/lvgl/src/core/../misc/lv_color.h ****     LV_OPA_20     = 51,
  46:Drivers/lvgl/src/core/../misc/lv_color.h ****     LV_OPA_30     = 76,
  47:Drivers/lvgl/src/core/../misc/lv_color.h ****     LV_OPA_40     = 102,
  48:Drivers/lvgl/src/core/../misc/lv_color.h ****     LV_OPA_50     = 127,
  49:Drivers/lvgl/src/core/../misc/lv_color.h ****     LV_OPA_60     = 153,
  50:Drivers/lvgl/src/core/../misc/lv_color.h ****     LV_OPA_70     = 178,
  51:Drivers/lvgl/src/core/../misc/lv_color.h ****     LV_OPA_80     = 204,
  52:Drivers/lvgl/src/core/../misc/lv_color.h ****     LV_OPA_90     = 229,
  53:Drivers/lvgl/src/core/../misc/lv_color.h ****     LV_OPA_100    = 255,
  54:Drivers/lvgl/src/core/../misc/lv_color.h ****     LV_OPA_COVER  = 255,
  55:Drivers/lvgl/src/core/../misc/lv_color.h **** };
  56:Drivers/lvgl/src/core/../misc/lv_color.h **** 
  57:Drivers/lvgl/src/core/../misc/lv_color.h **** #define LV_OPA_MIN 2    /*Opacities below this will be transparent*/
  58:Drivers/lvgl/src/core/../misc/lv_color.h **** #define LV_OPA_MAX 253  /*Opacities above this will fully cover*/
  59:Drivers/lvgl/src/core/../misc/lv_color.h **** 
  60:Drivers/lvgl/src/core/../misc/lv_color.h **** #if LV_COLOR_DEPTH == 1
  61:Drivers/lvgl/src/core/../misc/lv_color.h **** #define LV_COLOR_SIZE 8
  62:Drivers/lvgl/src/core/../misc/lv_color.h **** #elif LV_COLOR_DEPTH == 8
  63:Drivers/lvgl/src/core/../misc/lv_color.h **** #define LV_COLOR_SIZE 8
  64:Drivers/lvgl/src/core/../misc/lv_color.h **** #elif LV_COLOR_DEPTH == 16
  65:Drivers/lvgl/src/core/../misc/lv_color.h **** #define LV_COLOR_SIZE 16
  66:Drivers/lvgl/src/core/../misc/lv_color.h **** #elif LV_COLOR_DEPTH == 32
  67:Drivers/lvgl/src/core/../misc/lv_color.h **** #define LV_COLOR_SIZE 32
  68:Drivers/lvgl/src/core/../misc/lv_color.h **** #else
  69:Drivers/lvgl/src/core/../misc/lv_color.h **** #error "Invalid LV_COLOR_DEPTH in lv_conf.h! Set it to 1, 8, 16 or 32!"
  70:Drivers/lvgl/src/core/../misc/lv_color.h **** #endif
  71:Drivers/lvgl/src/core/../misc/lv_color.h **** 
  72:Drivers/lvgl/src/core/../misc/lv_color.h **** #if defined(__cplusplus) && !defined(_LV_COLOR_HAS_MODERN_CPP)
  73:Drivers/lvgl/src/core/../misc/lv_color.h **** /**
  74:Drivers/lvgl/src/core/../misc/lv_color.h **** * MSVC compiler's definition of the __cplusplus indicating 199711L regardless to C++ standard versi
  75:Drivers/lvgl/src/core/../misc/lv_color.h **** * see https://devblogs.microsoft.com/cppblog/msvc-now-correctly-reports-cplusplus
  76:Drivers/lvgl/src/core/../misc/lv_color.h **** * so we use _MSC_VER macro instead of __cplusplus
  77:Drivers/lvgl/src/core/../misc/lv_color.h **** */
  78:Drivers/lvgl/src/core/../misc/lv_color.h **** #ifdef _MSC_VER
  79:Drivers/lvgl/src/core/../misc/lv_color.h **** #if _MSC_VER >= 1900 /*Visual Studio 2015*/
  80:Drivers/lvgl/src/core/../misc/lv_color.h **** #define _LV_COLOR_HAS_MODERN_CPP 1
  81:Drivers/lvgl/src/core/../misc/lv_color.h **** #endif
  82:Drivers/lvgl/src/core/../misc/lv_color.h **** #else
  83:Drivers/lvgl/src/core/../misc/lv_color.h **** #if __cplusplus >= 201103L
  84:Drivers/lvgl/src/core/../misc/lv_color.h **** #define _LV_COLOR_HAS_MODERN_CPP 1
  85:Drivers/lvgl/src/core/../misc/lv_color.h **** #endif
  86:Drivers/lvgl/src/core/../misc/lv_color.h **** #endif
  87:Drivers/lvgl/src/core/../misc/lv_color.h **** #endif /*__cplusplus*/
  88:Drivers/lvgl/src/core/../misc/lv_color.h **** 
  89:Drivers/lvgl/src/core/../misc/lv_color.h **** #ifndef _LV_COLOR_HAS_MODERN_CPP
  90:Drivers/lvgl/src/core/../misc/lv_color.h **** #define _LV_COLOR_HAS_MODERN_CPP 0
  91:Drivers/lvgl/src/core/../misc/lv_color.h **** #endif
  92:Drivers/lvgl/src/core/../misc/lv_color.h **** 
  93:Drivers/lvgl/src/core/../misc/lv_color.h **** #if _LV_COLOR_HAS_MODERN_CPP
ARM GAS  /var/folders/0z/tsy30v1j4xl4_7kw94k978ww0000gn/T//ccRTPM70.s 			page 158


  94:Drivers/lvgl/src/core/../misc/lv_color.h **** /*Fix msvc compiler error C4576 inside C++ code*/
  95:Drivers/lvgl/src/core/../misc/lv_color.h **** #define _LV_COLOR_MAKE_TYPE_HELPER lv_color_t
  96:Drivers/lvgl/src/core/../misc/lv_color.h **** #else
  97:Drivers/lvgl/src/core/../misc/lv_color.h **** #define _LV_COLOR_MAKE_TYPE_HELPER (lv_color_t)
  98:Drivers/lvgl/src/core/../misc/lv_color.h **** #endif
  99:Drivers/lvgl/src/core/../misc/lv_color.h **** 
 100:Drivers/lvgl/src/core/../misc/lv_color.h **** /*---------------------------------------
 101:Drivers/lvgl/src/core/../misc/lv_color.h ****  * Macros for all existing color depths
 102:Drivers/lvgl/src/core/../misc/lv_color.h ****  * to set/get values of the color channels
 103:Drivers/lvgl/src/core/../misc/lv_color.h ****  *------------------------------------------*/
 104:Drivers/lvgl/src/core/../misc/lv_color.h **** # define LV_COLOR_SET_R1(c, v) (c).ch.red = (uint8_t)((v) & 0x1)
 105:Drivers/lvgl/src/core/../misc/lv_color.h **** # define LV_COLOR_SET_G1(c, v) (c).ch.green = (uint8_t)((v) & 0x1)
 106:Drivers/lvgl/src/core/../misc/lv_color.h **** # define LV_COLOR_SET_B1(c, v) (c).ch.blue = (uint8_t)((v) & 0x1)
 107:Drivers/lvgl/src/core/../misc/lv_color.h **** # define LV_COLOR_SET_A1(c, v) do {} while(0)
 108:Drivers/lvgl/src/core/../misc/lv_color.h **** 
 109:Drivers/lvgl/src/core/../misc/lv_color.h **** # define LV_COLOR_GET_R1(c) (c).ch.red
 110:Drivers/lvgl/src/core/../misc/lv_color.h **** # define LV_COLOR_GET_G1(c) (c).ch.green
 111:Drivers/lvgl/src/core/../misc/lv_color.h **** # define LV_COLOR_GET_B1(c) (c).ch.blue
 112:Drivers/lvgl/src/core/../misc/lv_color.h **** # define LV_COLOR_GET_A1(c) 0xFF
 113:Drivers/lvgl/src/core/../misc/lv_color.h **** 
 114:Drivers/lvgl/src/core/../misc/lv_color.h **** # define _LV_COLOR_ZERO_INITIALIZER1 {0x00}
 115:Drivers/lvgl/src/core/../misc/lv_color.h **** # define LV_COLOR_MAKE1(r8, g8, b8)  {(uint8_t)((b8 >> 7) | (g8 >> 7) | (r8 >> 7))}
 116:Drivers/lvgl/src/core/../misc/lv_color.h **** 
 117:Drivers/lvgl/src/core/../misc/lv_color.h **** # define LV_COLOR_SET_R8(c, v) (c).ch.red = (uint8_t)((v) & 0x7U)
 118:Drivers/lvgl/src/core/../misc/lv_color.h **** # define LV_COLOR_SET_G8(c, v) (c).ch.green = (uint8_t)((v) & 0x7U)
 119:Drivers/lvgl/src/core/../misc/lv_color.h **** # define LV_COLOR_SET_B8(c, v) (c).ch.blue = (uint8_t)((v) & 0x3U)
 120:Drivers/lvgl/src/core/../misc/lv_color.h **** # define LV_COLOR_SET_A8(c, v) do {} while(0)
 121:Drivers/lvgl/src/core/../misc/lv_color.h **** 
 122:Drivers/lvgl/src/core/../misc/lv_color.h **** # define LV_COLOR_GET_R8(c) (c).ch.red
 123:Drivers/lvgl/src/core/../misc/lv_color.h **** # define LV_COLOR_GET_G8(c) (c).ch.green
 124:Drivers/lvgl/src/core/../misc/lv_color.h **** # define LV_COLOR_GET_B8(c) (c).ch.blue
 125:Drivers/lvgl/src/core/../misc/lv_color.h **** # define LV_COLOR_GET_A8(c) 0xFF
 126:Drivers/lvgl/src/core/../misc/lv_color.h **** 
 127:Drivers/lvgl/src/core/../misc/lv_color.h **** # define _LV_COLOR_ZERO_INITIALIZER8 {{0x00, 0x00, 0x00}}
 128:Drivers/lvgl/src/core/../misc/lv_color.h **** # define LV_COLOR_MAKE8(r8, g8, b8) {{(uint8_t)((b8 >> 6) & 0x3U), (uint8_t)((g8 >> 5) & 0x7U), (ui
 129:Drivers/lvgl/src/core/../misc/lv_color.h **** 
 130:Drivers/lvgl/src/core/../misc/lv_color.h **** # define LV_COLOR_SET_R16(c, v) (c).ch.red = (uint8_t)((v) & 0x1FU)
 131:Drivers/lvgl/src/core/../misc/lv_color.h **** #if LV_COLOR_16_SWAP == 0
 132:Drivers/lvgl/src/core/../misc/lv_color.h **** # define LV_COLOR_SET_G16(c, v) (c).ch.green = (uint8_t)((v) & 0x3FU)
 133:Drivers/lvgl/src/core/../misc/lv_color.h **** #else
 134:Drivers/lvgl/src/core/../misc/lv_color.h **** # define LV_COLOR_SET_G16(c, v) {(c).ch.green_h = (uint8_t)(((v) >> 3) & 0x7); (c).ch.green_l = (ui
 135:Drivers/lvgl/src/core/../misc/lv_color.h **** #endif
 136:Drivers/lvgl/src/core/../misc/lv_color.h **** # define LV_COLOR_SET_B16(c, v) (c).ch.blue = (uint8_t)((v) & 0x1FU)
 137:Drivers/lvgl/src/core/../misc/lv_color.h **** # define LV_COLOR_SET_A16(c, v) do {} while(0)
 138:Drivers/lvgl/src/core/../misc/lv_color.h **** 
 139:Drivers/lvgl/src/core/../misc/lv_color.h **** # define LV_COLOR_GET_R16(c) (c).ch.red
 140:Drivers/lvgl/src/core/../misc/lv_color.h **** #if LV_COLOR_16_SWAP == 0
 141:Drivers/lvgl/src/core/../misc/lv_color.h **** # define LV_COLOR_GET_G16(c) (c).ch.green
 142:Drivers/lvgl/src/core/../misc/lv_color.h **** #else
 143:Drivers/lvgl/src/core/../misc/lv_color.h **** # define LV_COLOR_GET_G16(c) (((c).ch.green_h << 3) + (c).ch.green_l)
 144:Drivers/lvgl/src/core/../misc/lv_color.h **** #endif
 145:Drivers/lvgl/src/core/../misc/lv_color.h **** # define LV_COLOR_GET_B16(c) (c).ch.blue
 146:Drivers/lvgl/src/core/../misc/lv_color.h **** # define LV_COLOR_GET_A16(c) 0xFF
 147:Drivers/lvgl/src/core/../misc/lv_color.h **** 
 148:Drivers/lvgl/src/core/../misc/lv_color.h **** #if LV_COLOR_16_SWAP == 0
 149:Drivers/lvgl/src/core/../misc/lv_color.h **** # define _LV_COLOR_ZERO_INITIALIZER16  {{0x00, 0x00, 0x00}}
 150:Drivers/lvgl/src/core/../misc/lv_color.h **** # define LV_COLOR_MAKE16(r8, g8, b8) {{(uint8_t)((b8 >> 3) & 0x1FU), (uint8_t)((g8 >> 2) & 0x3FU), 
ARM GAS  /var/folders/0z/tsy30v1j4xl4_7kw94k978ww0000gn/T//ccRTPM70.s 			page 159


 151:Drivers/lvgl/src/core/../misc/lv_color.h **** #else
 152:Drivers/lvgl/src/core/../misc/lv_color.h **** # define _LV_COLOR_ZERO_INITIALIZER16 {{0x00, 0x00, 0x00, 0x00}}
 153:Drivers/lvgl/src/core/../misc/lv_color.h **** # define LV_COLOR_MAKE16(r8, g8, b8) {{(uint8_t)((g8 >> 5) & 0x7U), (uint8_t)((r8 >> 3) & 0x1FU), (
 154:Drivers/lvgl/src/core/../misc/lv_color.h **** #endif
 155:Drivers/lvgl/src/core/../misc/lv_color.h **** 
 156:Drivers/lvgl/src/core/../misc/lv_color.h **** # define LV_COLOR_SET_R32(c, v) (c).ch.red = (uint8_t)((v) & 0xFF)
 157:Drivers/lvgl/src/core/../misc/lv_color.h **** # define LV_COLOR_SET_G32(c, v) (c).ch.green = (uint8_t)((v) & 0xFF)
 158:Drivers/lvgl/src/core/../misc/lv_color.h **** # define LV_COLOR_SET_B32(c, v) (c).ch.blue = (uint8_t)((v) & 0xFF)
 159:Drivers/lvgl/src/core/../misc/lv_color.h **** # define LV_COLOR_SET_A32(c, v) (c).ch.alpha = (uint8_t)((v) & 0xFF)
 160:Drivers/lvgl/src/core/../misc/lv_color.h **** 
 161:Drivers/lvgl/src/core/../misc/lv_color.h **** # define LV_COLOR_GET_R32(c) (c).ch.red
 162:Drivers/lvgl/src/core/../misc/lv_color.h **** # define LV_COLOR_GET_G32(c) (c).ch.green
 163:Drivers/lvgl/src/core/../misc/lv_color.h **** # define LV_COLOR_GET_B32(c) (c).ch.blue
 164:Drivers/lvgl/src/core/../misc/lv_color.h **** # define LV_COLOR_GET_A32(c) (c).ch.alpha
 165:Drivers/lvgl/src/core/../misc/lv_color.h **** 
 166:Drivers/lvgl/src/core/../misc/lv_color.h **** # define _LV_COLOR_ZERO_INITIALIZER32  {{0x00, 0x00, 0x00, 0x00}}
 167:Drivers/lvgl/src/core/../misc/lv_color.h **** # define LV_COLOR_MAKE32(r8, g8, b8) {{b8, g8, r8, 0xff}} /*Fix 0xff alpha*/
 168:Drivers/lvgl/src/core/../misc/lv_color.h **** 
 169:Drivers/lvgl/src/core/../misc/lv_color.h **** /*---------------------------------------
 170:Drivers/lvgl/src/core/../misc/lv_color.h ****  * Macros for the current color depth
 171:Drivers/lvgl/src/core/../misc/lv_color.h ****  * to set/get values of the color channels
 172:Drivers/lvgl/src/core/../misc/lv_color.h ****  *------------------------------------------*/
 173:Drivers/lvgl/src/core/../misc/lv_color.h **** #define LV_COLOR_SET_R(c, v) LV_CONCAT(LV_COLOR_SET_R, LV_COLOR_DEPTH)(c, v)
 174:Drivers/lvgl/src/core/../misc/lv_color.h **** #define LV_COLOR_SET_G(c, v) LV_CONCAT(LV_COLOR_SET_G, LV_COLOR_DEPTH)(c, v)
 175:Drivers/lvgl/src/core/../misc/lv_color.h **** #define LV_COLOR_SET_B(c, v) LV_CONCAT(LV_COLOR_SET_B, LV_COLOR_DEPTH)(c, v)
 176:Drivers/lvgl/src/core/../misc/lv_color.h **** #define LV_COLOR_SET_A(c, v) LV_CONCAT(LV_COLOR_SET_A, LV_COLOR_DEPTH)(c, v)
 177:Drivers/lvgl/src/core/../misc/lv_color.h **** 
 178:Drivers/lvgl/src/core/../misc/lv_color.h **** #define LV_COLOR_GET_R(c) LV_CONCAT(LV_COLOR_GET_R, LV_COLOR_DEPTH)(c)
 179:Drivers/lvgl/src/core/../misc/lv_color.h **** #define LV_COLOR_GET_G(c) LV_CONCAT(LV_COLOR_GET_G, LV_COLOR_DEPTH)(c)
 180:Drivers/lvgl/src/core/../misc/lv_color.h **** #define LV_COLOR_GET_B(c) LV_CONCAT(LV_COLOR_GET_B, LV_COLOR_DEPTH)(c)
 181:Drivers/lvgl/src/core/../misc/lv_color.h **** #define LV_COLOR_GET_A(c) LV_CONCAT(LV_COLOR_GET_A, LV_COLOR_DEPTH)(c)
 182:Drivers/lvgl/src/core/../misc/lv_color.h **** 
 183:Drivers/lvgl/src/core/../misc/lv_color.h **** #define _LV_COLOR_ZERO_INITIALIZER LV_CONCAT(_LV_COLOR_ZERO_INITIALIZER, LV_COLOR_DEPTH)
 184:Drivers/lvgl/src/core/../misc/lv_color.h **** #define LV_COLOR_MAKE(r8, g8, b8) LV_CONCAT(LV_COLOR_MAKE, LV_COLOR_DEPTH)(r8, g8, b8)
 185:Drivers/lvgl/src/core/../misc/lv_color.h **** 
 186:Drivers/lvgl/src/core/../misc/lv_color.h **** /**********************
 187:Drivers/lvgl/src/core/../misc/lv_color.h ****  *      TYPEDEFS
 188:Drivers/lvgl/src/core/../misc/lv_color.h ****  **********************/
 189:Drivers/lvgl/src/core/../misc/lv_color.h **** 
 190:Drivers/lvgl/src/core/../misc/lv_color.h **** typedef union {
 191:Drivers/lvgl/src/core/../misc/lv_color.h ****     uint8_t full; /*must be declared first to set all bits of byte via initializer list*/
 192:Drivers/lvgl/src/core/../misc/lv_color.h ****     union {
 193:Drivers/lvgl/src/core/../misc/lv_color.h ****         uint8_t blue : 1;
 194:Drivers/lvgl/src/core/../misc/lv_color.h ****         uint8_t green : 1;
 195:Drivers/lvgl/src/core/../misc/lv_color.h ****         uint8_t red : 1;
 196:Drivers/lvgl/src/core/../misc/lv_color.h ****     } ch;
 197:Drivers/lvgl/src/core/../misc/lv_color.h **** } lv_color1_t;
 198:Drivers/lvgl/src/core/../misc/lv_color.h **** 
 199:Drivers/lvgl/src/core/../misc/lv_color.h **** typedef union {
 200:Drivers/lvgl/src/core/../misc/lv_color.h ****     struct {
 201:Drivers/lvgl/src/core/../misc/lv_color.h ****         uint8_t blue : 2;
 202:Drivers/lvgl/src/core/../misc/lv_color.h ****         uint8_t green : 3;
 203:Drivers/lvgl/src/core/../misc/lv_color.h ****         uint8_t red : 3;
 204:Drivers/lvgl/src/core/../misc/lv_color.h ****     } ch;
 205:Drivers/lvgl/src/core/../misc/lv_color.h ****     uint8_t full;
 206:Drivers/lvgl/src/core/../misc/lv_color.h **** } lv_color8_t;
 207:Drivers/lvgl/src/core/../misc/lv_color.h **** 
ARM GAS  /var/folders/0z/tsy30v1j4xl4_7kw94k978ww0000gn/T//ccRTPM70.s 			page 160


 208:Drivers/lvgl/src/core/../misc/lv_color.h **** typedef union {
 209:Drivers/lvgl/src/core/../misc/lv_color.h ****     struct {
 210:Drivers/lvgl/src/core/../misc/lv_color.h **** #if LV_COLOR_16_SWAP == 0
 211:Drivers/lvgl/src/core/../misc/lv_color.h ****         uint16_t blue : 5;
 212:Drivers/lvgl/src/core/../misc/lv_color.h ****         uint16_t green : 6;
 213:Drivers/lvgl/src/core/../misc/lv_color.h ****         uint16_t red : 5;
 214:Drivers/lvgl/src/core/../misc/lv_color.h **** #else
 215:Drivers/lvgl/src/core/../misc/lv_color.h ****         uint16_t green_h : 3;
 216:Drivers/lvgl/src/core/../misc/lv_color.h ****         uint16_t red : 5;
 217:Drivers/lvgl/src/core/../misc/lv_color.h ****         uint16_t blue : 5;
 218:Drivers/lvgl/src/core/../misc/lv_color.h ****         uint16_t green_l : 3;
 219:Drivers/lvgl/src/core/../misc/lv_color.h **** #endif
 220:Drivers/lvgl/src/core/../misc/lv_color.h ****     } ch;
 221:Drivers/lvgl/src/core/../misc/lv_color.h ****     uint16_t full;
 222:Drivers/lvgl/src/core/../misc/lv_color.h **** } lv_color16_t;
 223:Drivers/lvgl/src/core/../misc/lv_color.h **** 
 224:Drivers/lvgl/src/core/../misc/lv_color.h **** typedef union {
 225:Drivers/lvgl/src/core/../misc/lv_color.h ****     struct {
 226:Drivers/lvgl/src/core/../misc/lv_color.h ****         uint8_t blue;
 227:Drivers/lvgl/src/core/../misc/lv_color.h ****         uint8_t green;
 228:Drivers/lvgl/src/core/../misc/lv_color.h ****         uint8_t red;
 229:Drivers/lvgl/src/core/../misc/lv_color.h ****         uint8_t alpha;
 230:Drivers/lvgl/src/core/../misc/lv_color.h ****     } ch;
 231:Drivers/lvgl/src/core/../misc/lv_color.h ****     uint32_t full;
 232:Drivers/lvgl/src/core/../misc/lv_color.h **** } lv_color32_t;
 233:Drivers/lvgl/src/core/../misc/lv_color.h **** 
 234:Drivers/lvgl/src/core/../misc/lv_color.h **** typedef LV_CONCAT3(uint, LV_COLOR_SIZE, _t) lv_color_int_t;
 235:Drivers/lvgl/src/core/../misc/lv_color.h **** typedef LV_CONCAT3(lv_color, LV_COLOR_DEPTH, _t) lv_color_t;
 236:Drivers/lvgl/src/core/../misc/lv_color.h **** 
 237:Drivers/lvgl/src/core/../misc/lv_color.h **** typedef struct {
 238:Drivers/lvgl/src/core/../misc/lv_color.h ****     uint16_t h;
 239:Drivers/lvgl/src/core/../misc/lv_color.h ****     uint8_t s;
 240:Drivers/lvgl/src/core/../misc/lv_color.h ****     uint8_t v;
 241:Drivers/lvgl/src/core/../misc/lv_color.h **** } lv_color_hsv_t;
 242:Drivers/lvgl/src/core/../misc/lv_color.h **** 
 243:Drivers/lvgl/src/core/../misc/lv_color.h **** //! @cond Doxygen_Suppress
 244:Drivers/lvgl/src/core/../misc/lv_color.h **** /*No idea where the guard is required but else throws warnings in the docs*/
 245:Drivers/lvgl/src/core/../misc/lv_color.h **** typedef uint8_t lv_opa_t;
 246:Drivers/lvgl/src/core/../misc/lv_color.h **** //! @endcond
 247:Drivers/lvgl/src/core/../misc/lv_color.h **** 
 248:Drivers/lvgl/src/core/../misc/lv_color.h **** struct _lv_color_filter_dsc_t;
 249:Drivers/lvgl/src/core/../misc/lv_color.h **** 
 250:Drivers/lvgl/src/core/../misc/lv_color.h **** typedef lv_color_t (*lv_color_filter_cb_t)(const struct _lv_color_filter_dsc_t *, lv_color_t, lv_op
 251:Drivers/lvgl/src/core/../misc/lv_color.h **** 
 252:Drivers/lvgl/src/core/../misc/lv_color.h **** typedef struct _lv_color_filter_dsc_t {
 253:Drivers/lvgl/src/core/../misc/lv_color.h ****     lv_color_filter_cb_t filter_cb;
 254:Drivers/lvgl/src/core/../misc/lv_color.h ****     void * user_data;
 255:Drivers/lvgl/src/core/../misc/lv_color.h **** } lv_color_filter_dsc_t;
 256:Drivers/lvgl/src/core/../misc/lv_color.h **** 
 257:Drivers/lvgl/src/core/../misc/lv_color.h **** 
 258:Drivers/lvgl/src/core/../misc/lv_color.h **** typedef enum {
 259:Drivers/lvgl/src/core/../misc/lv_color.h ****     LV_PALETTE_RED,
 260:Drivers/lvgl/src/core/../misc/lv_color.h ****     LV_PALETTE_PINK,
 261:Drivers/lvgl/src/core/../misc/lv_color.h ****     LV_PALETTE_PURPLE,
 262:Drivers/lvgl/src/core/../misc/lv_color.h ****     LV_PALETTE_DEEP_PURPLE,
 263:Drivers/lvgl/src/core/../misc/lv_color.h ****     LV_PALETTE_INDIGO,
 264:Drivers/lvgl/src/core/../misc/lv_color.h ****     LV_PALETTE_BLUE,
ARM GAS  /var/folders/0z/tsy30v1j4xl4_7kw94k978ww0000gn/T//ccRTPM70.s 			page 161


 265:Drivers/lvgl/src/core/../misc/lv_color.h ****     LV_PALETTE_LIGHT_BLUE,
 266:Drivers/lvgl/src/core/../misc/lv_color.h ****     LV_PALETTE_CYAN,
 267:Drivers/lvgl/src/core/../misc/lv_color.h ****     LV_PALETTE_TEAL,
 268:Drivers/lvgl/src/core/../misc/lv_color.h ****     LV_PALETTE_GREEN,
 269:Drivers/lvgl/src/core/../misc/lv_color.h ****     LV_PALETTE_LIGHT_GREEN,
 270:Drivers/lvgl/src/core/../misc/lv_color.h ****     LV_PALETTE_LIME,
 271:Drivers/lvgl/src/core/../misc/lv_color.h ****     LV_PALETTE_YELLOW,
 272:Drivers/lvgl/src/core/../misc/lv_color.h ****     LV_PALETTE_AMBER,
 273:Drivers/lvgl/src/core/../misc/lv_color.h ****     LV_PALETTE_ORANGE,
 274:Drivers/lvgl/src/core/../misc/lv_color.h ****     LV_PALETTE_DEEP_ORANGE,
 275:Drivers/lvgl/src/core/../misc/lv_color.h ****     LV_PALETTE_BROWN,
 276:Drivers/lvgl/src/core/../misc/lv_color.h ****     LV_PALETTE_BLUE_GREY,
 277:Drivers/lvgl/src/core/../misc/lv_color.h ****     LV_PALETTE_GREY,
 278:Drivers/lvgl/src/core/../misc/lv_color.h ****     _LV_PALETTE_LAST,
 279:Drivers/lvgl/src/core/../misc/lv_color.h ****     LV_PALETTE_NONE = 0xff,
 280:Drivers/lvgl/src/core/../misc/lv_color.h **** } lv_palette_t;
 281:Drivers/lvgl/src/core/../misc/lv_color.h **** 
 282:Drivers/lvgl/src/core/../misc/lv_color.h **** /**********************
 283:Drivers/lvgl/src/core/../misc/lv_color.h ****  * GLOBAL PROTOTYPES
 284:Drivers/lvgl/src/core/../misc/lv_color.h ****  **********************/
 285:Drivers/lvgl/src/core/../misc/lv_color.h **** 
 286:Drivers/lvgl/src/core/../misc/lv_color.h **** /*In color conversations:
 287:Drivers/lvgl/src/core/../misc/lv_color.h ****  * - When converting to bigger color type the LSB weight of 1 LSB is calculated
 288:Drivers/lvgl/src/core/../misc/lv_color.h ****  *   E.g. 16 bit Red has 5 bits
 289:Drivers/lvgl/src/core/../misc/lv_color.h ****  *         8 bit Red has 3 bits
 290:Drivers/lvgl/src/core/../misc/lv_color.h ****  *        ----------------------
 291:Drivers/lvgl/src/core/../misc/lv_color.h ****  *        8 bit red LSB = (2^5 - 1) / (2^3 - 1) = 31 / 7 = 4
 292:Drivers/lvgl/src/core/../misc/lv_color.h ****  *
 293:Drivers/lvgl/src/core/../misc/lv_color.h ****  * - When calculating to smaller color type simply shift out the LSBs
 294:Drivers/lvgl/src/core/../misc/lv_color.h ****  *   E.g.  8 bit Red has 3 bits
 295:Drivers/lvgl/src/core/../misc/lv_color.h ****  *        16 bit Red has 5 bits
 296:Drivers/lvgl/src/core/../misc/lv_color.h ****  *        ----------------------
 297:Drivers/lvgl/src/core/../misc/lv_color.h ****  *         Shift right with 5 - 3 = 2
 298:Drivers/lvgl/src/core/../misc/lv_color.h ****  */
 299:Drivers/lvgl/src/core/../misc/lv_color.h **** static inline uint8_t lv_color_to1(lv_color_t color)
 300:Drivers/lvgl/src/core/../misc/lv_color.h **** {
 301:Drivers/lvgl/src/core/../misc/lv_color.h **** #if LV_COLOR_DEPTH == 1
 302:Drivers/lvgl/src/core/../misc/lv_color.h ****     return color.full;
 303:Drivers/lvgl/src/core/../misc/lv_color.h **** #elif LV_COLOR_DEPTH == 8
 304:Drivers/lvgl/src/core/../misc/lv_color.h ****     if((LV_COLOR_GET_R(color) & 0x4) || (LV_COLOR_GET_G(color) & 0x4) || (LV_COLOR_GET_B(color) & 0
 305:Drivers/lvgl/src/core/../misc/lv_color.h ****         return 1;
 306:Drivers/lvgl/src/core/../misc/lv_color.h ****     }
 307:Drivers/lvgl/src/core/../misc/lv_color.h ****     else {
 308:Drivers/lvgl/src/core/../misc/lv_color.h ****         return 0;
 309:Drivers/lvgl/src/core/../misc/lv_color.h ****     }
 310:Drivers/lvgl/src/core/../misc/lv_color.h **** #elif LV_COLOR_DEPTH == 16
 311:Drivers/lvgl/src/core/../misc/lv_color.h ****     if((LV_COLOR_GET_R(color) & 0x10) || (LV_COLOR_GET_G(color) & 0x20) || (LV_COLOR_GET_B(color) &
 312:Drivers/lvgl/src/core/../misc/lv_color.h ****         return 1;
 313:Drivers/lvgl/src/core/../misc/lv_color.h ****     }
 314:Drivers/lvgl/src/core/../misc/lv_color.h ****     else {
 315:Drivers/lvgl/src/core/../misc/lv_color.h ****         return 0;
 316:Drivers/lvgl/src/core/../misc/lv_color.h ****     }
 317:Drivers/lvgl/src/core/../misc/lv_color.h **** #elif LV_COLOR_DEPTH == 32
 318:Drivers/lvgl/src/core/../misc/lv_color.h ****     if((LV_COLOR_GET_R(color) & 0x80) || (LV_COLOR_GET_G(color) & 0x80) || (LV_COLOR_GET_B(color) &
 319:Drivers/lvgl/src/core/../misc/lv_color.h ****         return 1;
 320:Drivers/lvgl/src/core/../misc/lv_color.h ****     }
 321:Drivers/lvgl/src/core/../misc/lv_color.h ****     else {
ARM GAS  /var/folders/0z/tsy30v1j4xl4_7kw94k978ww0000gn/T//ccRTPM70.s 			page 162


 322:Drivers/lvgl/src/core/../misc/lv_color.h ****         return 0;
 323:Drivers/lvgl/src/core/../misc/lv_color.h ****     }
 324:Drivers/lvgl/src/core/../misc/lv_color.h **** #endif
 325:Drivers/lvgl/src/core/../misc/lv_color.h **** }
 326:Drivers/lvgl/src/core/../misc/lv_color.h **** 
 327:Drivers/lvgl/src/core/../misc/lv_color.h **** static inline uint8_t lv_color_to8(lv_color_t color)
 328:Drivers/lvgl/src/core/../misc/lv_color.h **** {
 329:Drivers/lvgl/src/core/../misc/lv_color.h **** #if LV_COLOR_DEPTH == 1
 330:Drivers/lvgl/src/core/../misc/lv_color.h ****     if(color.full == 0)
 331:Drivers/lvgl/src/core/../misc/lv_color.h ****         return 0;
 332:Drivers/lvgl/src/core/../misc/lv_color.h ****     else
 333:Drivers/lvgl/src/core/../misc/lv_color.h ****         return 0xFF;
 334:Drivers/lvgl/src/core/../misc/lv_color.h **** #elif LV_COLOR_DEPTH == 8
 335:Drivers/lvgl/src/core/../misc/lv_color.h ****     return color.full;
 336:Drivers/lvgl/src/core/../misc/lv_color.h **** #elif LV_COLOR_DEPTH == 16
 337:Drivers/lvgl/src/core/../misc/lv_color.h ****     lv_color8_t ret;
 338:Drivers/lvgl/src/core/../misc/lv_color.h ****     LV_COLOR_SET_R8(ret, LV_COLOR_GET_R(color) >> 2); /*5 - 3  = 2*/
 339:Drivers/lvgl/src/core/../misc/lv_color.h ****     LV_COLOR_SET_G8(ret, LV_COLOR_GET_G(color) >> 3); /*6 - 3  = 3*/
 340:Drivers/lvgl/src/core/../misc/lv_color.h ****     LV_COLOR_SET_B8(ret, LV_COLOR_GET_B(color) >> 3); /*5 - 2  = 3*/
 341:Drivers/lvgl/src/core/../misc/lv_color.h ****     return ret.full;
 342:Drivers/lvgl/src/core/../misc/lv_color.h **** #elif LV_COLOR_DEPTH == 32
 343:Drivers/lvgl/src/core/../misc/lv_color.h ****     lv_color8_t ret;
 344:Drivers/lvgl/src/core/../misc/lv_color.h ****     LV_COLOR_SET_R8(ret, LV_COLOR_GET_R(color) >> 5); /*8 - 3  = 5*/
 345:Drivers/lvgl/src/core/../misc/lv_color.h ****     LV_COLOR_SET_G8(ret, LV_COLOR_GET_G(color) >> 5); /*8 - 3  = 5*/
 346:Drivers/lvgl/src/core/../misc/lv_color.h ****     LV_COLOR_SET_B8(ret, LV_COLOR_GET_B(color) >> 6); /*8 - 2  = 6*/
 347:Drivers/lvgl/src/core/../misc/lv_color.h ****     return ret.full;
 348:Drivers/lvgl/src/core/../misc/lv_color.h **** #endif
 349:Drivers/lvgl/src/core/../misc/lv_color.h **** }
 350:Drivers/lvgl/src/core/../misc/lv_color.h **** 
 351:Drivers/lvgl/src/core/../misc/lv_color.h **** static inline uint16_t lv_color_to16(lv_color_t color)
 352:Drivers/lvgl/src/core/../misc/lv_color.h **** {
 353:Drivers/lvgl/src/core/../misc/lv_color.h **** #if LV_COLOR_DEPTH == 1
 354:Drivers/lvgl/src/core/../misc/lv_color.h ****     if(color.full == 0)
 355:Drivers/lvgl/src/core/../misc/lv_color.h ****         return 0;
 356:Drivers/lvgl/src/core/../misc/lv_color.h ****     else
 357:Drivers/lvgl/src/core/../misc/lv_color.h ****         return 0xFFFF;
 358:Drivers/lvgl/src/core/../misc/lv_color.h **** #elif LV_COLOR_DEPTH == 8
 359:Drivers/lvgl/src/core/../misc/lv_color.h ****     lv_color16_t ret;
 360:Drivers/lvgl/src/core/../misc/lv_color.h ****     LV_COLOR_SET_R16(ret, LV_COLOR_GET_R(color) * 4);  /*(2^5 - 1)/(2^3 - 1) = 31/7 = 4*/
 361:Drivers/lvgl/src/core/../misc/lv_color.h ****     LV_COLOR_SET_G16(ret, LV_COLOR_GET_G(color) * 9);  /*(2^6 - 1)/(2^3 - 1) = 63/7 = 9*/
 362:Drivers/lvgl/src/core/../misc/lv_color.h ****     LV_COLOR_SET_B16(ret, LV_COLOR_GET_B(color) * 10); /*(2^5 - 1)/(2^2 - 1) = 31/3 = 10*/
 363:Drivers/lvgl/src/core/../misc/lv_color.h ****     return ret.full;
 364:Drivers/lvgl/src/core/../misc/lv_color.h **** #elif LV_COLOR_DEPTH == 16
 365:Drivers/lvgl/src/core/../misc/lv_color.h ****     return color.full;
 366:Drivers/lvgl/src/core/../misc/lv_color.h **** #elif LV_COLOR_DEPTH == 32
 367:Drivers/lvgl/src/core/../misc/lv_color.h ****     lv_color16_t ret;
 368:Drivers/lvgl/src/core/../misc/lv_color.h ****     LV_COLOR_SET_R16(ret, LV_COLOR_GET_R(color) >> 3); /*8 - 5  = 3*/
 369:Drivers/lvgl/src/core/../misc/lv_color.h ****     LV_COLOR_SET_G16(ret, LV_COLOR_GET_G(color) >> 2); /*8 - 6  = 2*/
 370:Drivers/lvgl/src/core/../misc/lv_color.h ****     LV_COLOR_SET_B16(ret, LV_COLOR_GET_B(color) >> 3); /*8 - 5  = 3*/
 371:Drivers/lvgl/src/core/../misc/lv_color.h ****     return ret.full;
 372:Drivers/lvgl/src/core/../misc/lv_color.h **** #endif
 373:Drivers/lvgl/src/core/../misc/lv_color.h **** }
 374:Drivers/lvgl/src/core/../misc/lv_color.h **** 
 375:Drivers/lvgl/src/core/../misc/lv_color.h **** static inline uint32_t lv_color_to32(lv_color_t color)
 376:Drivers/lvgl/src/core/../misc/lv_color.h **** {
 377:Drivers/lvgl/src/core/../misc/lv_color.h **** #if LV_COLOR_DEPTH == 1
 378:Drivers/lvgl/src/core/../misc/lv_color.h ****     if(color.full == 0)
ARM GAS  /var/folders/0z/tsy30v1j4xl4_7kw94k978ww0000gn/T//ccRTPM70.s 			page 163


 379:Drivers/lvgl/src/core/../misc/lv_color.h ****         return 0xFF000000;
 380:Drivers/lvgl/src/core/../misc/lv_color.h ****     else
 381:Drivers/lvgl/src/core/../misc/lv_color.h ****         return 0xFFFFFFFF;
 382:Drivers/lvgl/src/core/../misc/lv_color.h **** #elif LV_COLOR_DEPTH == 8
 383:Drivers/lvgl/src/core/../misc/lv_color.h ****     lv_color32_t ret;
 384:Drivers/lvgl/src/core/../misc/lv_color.h ****     LV_COLOR_SET_R32(ret, LV_COLOR_GET_R(color) * 36); /*(2^8 - 1)/(2^3 - 1) = 255/7 = 36*/
 385:Drivers/lvgl/src/core/../misc/lv_color.h ****     LV_COLOR_SET_G32(ret, LV_COLOR_GET_G(color) * 36); /*(2^8 - 1)/(2^3 - 1) = 255/7 = 36*/
 386:Drivers/lvgl/src/core/../misc/lv_color.h ****     LV_COLOR_SET_B32(ret, LV_COLOR_GET_B(color) * 85); /*(2^8 - 1)/(2^2 - 1) = 255/3 = 85*/
 387:Drivers/lvgl/src/core/../misc/lv_color.h ****     LV_COLOR_SET_A32(ret, 0xFF);
 388:Drivers/lvgl/src/core/../misc/lv_color.h ****     return ret.full;
 389:Drivers/lvgl/src/core/../misc/lv_color.h **** #elif LV_COLOR_DEPTH == 16
 390:Drivers/lvgl/src/core/../misc/lv_color.h ****     /**
 391:Drivers/lvgl/src/core/../misc/lv_color.h ****      * The floating point math for conversion is:
 392:Drivers/lvgl/src/core/../misc/lv_color.h ****      *  valueto = valuefrom * ( (2^bitsto - 1) / (float)(2^bitsfrom - 1) )
 393:Drivers/lvgl/src/core/../misc/lv_color.h ****      * The faster integer math for conversion is:
 394:Drivers/lvgl/src/core/../misc/lv_color.h ****      *  valueto = ( valuefrom * multiplier + adder ) >> divisor
 395:Drivers/lvgl/src/core/../misc/lv_color.h ****      *   multiplier = FLOOR( ( (2^bitsto - 1) << divisor ) / (float)(2^bitsfrom - 1) )
 396:Drivers/lvgl/src/core/../misc/lv_color.h ****      *
 397:Drivers/lvgl/src/core/../misc/lv_color.h ****      * Find the first divisor where ( adder >> divisor ) <= 0
 398:Drivers/lvgl/src/core/../misc/lv_color.h ****      *
 399:Drivers/lvgl/src/core/../misc/lv_color.h ****      * 5-bit to 8-bit: ( 31 * multiplier + adder ) >> divisor = 255
 400:Drivers/lvgl/src/core/../misc/lv_color.h ****      * divisor  multiplier  adder  min (0)  max (31)
 401:Drivers/lvgl/src/core/../misc/lv_color.h ****      *       0           8      7        7       255
 402:Drivers/lvgl/src/core/../misc/lv_color.h ****      *       1          16     14        7       255
 403:Drivers/lvgl/src/core/../misc/lv_color.h ****      *       2          32     28        7       255
 404:Drivers/lvgl/src/core/../misc/lv_color.h ****      *       3          65     25        3       255
 405:Drivers/lvgl/src/core/../misc/lv_color.h ****      *       4         131     19        1       255
 406:Drivers/lvgl/src/core/../misc/lv_color.h ****      *       5         263      7        0       255
 407:Drivers/lvgl/src/core/../misc/lv_color.h ****      *
 408:Drivers/lvgl/src/core/../misc/lv_color.h ****      * 6-bit to 8-bit: 255 = ( 63 * multiplier + adder ) >> divisor
 409:Drivers/lvgl/src/core/../misc/lv_color.h ****      * divisor  multiplier  adder  min (0)  max (63)
 410:Drivers/lvgl/src/core/../misc/lv_color.h ****      *       0           4      3        3       255
 411:Drivers/lvgl/src/core/../misc/lv_color.h ****      *       1           8      6        3       255
 412:Drivers/lvgl/src/core/../misc/lv_color.h ****      *       2          16     12        3       255
 413:Drivers/lvgl/src/core/../misc/lv_color.h ****      *       3          32     24        3       255
 414:Drivers/lvgl/src/core/../misc/lv_color.h ****      *       4          64     48        3       255
 415:Drivers/lvgl/src/core/../misc/lv_color.h ****      *       5         129     33        1       255
 416:Drivers/lvgl/src/core/../misc/lv_color.h ****      *       6         259      3        0       255
 417:Drivers/lvgl/src/core/../misc/lv_color.h ****      */
 418:Drivers/lvgl/src/core/../misc/lv_color.h **** 
 419:Drivers/lvgl/src/core/../misc/lv_color.h ****     lv_color32_t ret;
 420:Drivers/lvgl/src/core/../misc/lv_color.h ****     LV_COLOR_SET_R32(ret, (LV_COLOR_GET_R(color) * 263 + 7) >> 5);
 421:Drivers/lvgl/src/core/../misc/lv_color.h ****     LV_COLOR_SET_G32(ret, (LV_COLOR_GET_G(color) * 259 + 3) >> 6);
 422:Drivers/lvgl/src/core/../misc/lv_color.h ****     LV_COLOR_SET_B32(ret, (LV_COLOR_GET_B(color) * 263 + 7) >> 5);
 423:Drivers/lvgl/src/core/../misc/lv_color.h ****     LV_COLOR_SET_A32(ret, 0xFF);
 424:Drivers/lvgl/src/core/../misc/lv_color.h ****     return ret.full;
 425:Drivers/lvgl/src/core/../misc/lv_color.h **** #elif LV_COLOR_DEPTH == 32
 426:Drivers/lvgl/src/core/../misc/lv_color.h ****     return color.full;
 427:Drivers/lvgl/src/core/../misc/lv_color.h **** #endif
 428:Drivers/lvgl/src/core/../misc/lv_color.h **** }
 429:Drivers/lvgl/src/core/../misc/lv_color.h **** 
 430:Drivers/lvgl/src/core/../misc/lv_color.h **** //! @cond Doxygen_Suppress
 431:Drivers/lvgl/src/core/../misc/lv_color.h **** 
 432:Drivers/lvgl/src/core/../misc/lv_color.h **** /**
 433:Drivers/lvgl/src/core/../misc/lv_color.h ****  * Mix two colors with a given ratio.
 434:Drivers/lvgl/src/core/../misc/lv_color.h ****  * @param c1 the first color to mix (usually the foreground)
 435:Drivers/lvgl/src/core/../misc/lv_color.h ****  * @param c2 the second color to mix (usually the background)
ARM GAS  /var/folders/0z/tsy30v1j4xl4_7kw94k978ww0000gn/T//ccRTPM70.s 			page 164


 436:Drivers/lvgl/src/core/../misc/lv_color.h ****  * @param mix The ratio of the colors. 0: full `c2`, 255: full `c1`, 127: half `c1` and half`c2`
 437:Drivers/lvgl/src/core/../misc/lv_color.h ****  * @return the mixed color
 438:Drivers/lvgl/src/core/../misc/lv_color.h ****  */
 439:Drivers/lvgl/src/core/../misc/lv_color.h **** static inline lv_color_t LV_ATTRIBUTE_FAST_MEM lv_color_mix(lv_color_t c1, lv_color_t c2, uint8_t m
 440:Drivers/lvgl/src/core/../misc/lv_color.h **** {
 441:Drivers/lvgl/src/core/../misc/lv_color.h ****     lv_color_t ret;
 442:Drivers/lvgl/src/core/../misc/lv_color.h **** 
 443:Drivers/lvgl/src/core/../misc/lv_color.h **** #if LV_COLOR_DEPTH == 16 && LV_COLOR_MIX_ROUND_OFS == 0
 444:Drivers/lvgl/src/core/../misc/lv_color.h **** #if LV_COLOR_16_SWAP == 1
 445:Drivers/lvgl/src/core/../misc/lv_color.h ****     c1.full = c1.full << 8 | c1.full >> 8;
 446:Drivers/lvgl/src/core/../misc/lv_color.h ****     c2.full = c2.full << 8 | c2.full >> 8;
 447:Drivers/lvgl/src/core/../misc/lv_color.h **** #endif
 448:Drivers/lvgl/src/core/../misc/lv_color.h ****     /*Source: https://stackoverflow.com/a/50012418/1999969*/
 449:Drivers/lvgl/src/core/../misc/lv_color.h ****     mix = (uint32_t)((uint32_t)mix + 4) >> 3;
 450:Drivers/lvgl/src/core/../misc/lv_color.h ****     uint32_t bg = (uint32_t)((uint32_t)c2.full | ((uint32_t)c2.full << 16)) &
 451:Drivers/lvgl/src/core/../misc/lv_color.h ****                   0x7E0F81F; /*0b00000111111000001111100000011111*/
 452:Drivers/lvgl/src/core/../misc/lv_color.h ****     uint32_t fg = (uint32_t)((uint32_t)c1.full | ((uint32_t)c1.full << 16)) & 0x7E0F81F;
 453:Drivers/lvgl/src/core/../misc/lv_color.h ****     uint32_t result = ((((fg - bg) * mix) >> 5) + bg) & 0x7E0F81F;
 454:Drivers/lvgl/src/core/../misc/lv_color.h ****     ret.full = (uint16_t)((result >> 16) | result);
 455:Drivers/lvgl/src/core/../misc/lv_color.h **** #if LV_COLOR_16_SWAP == 1
 456:Drivers/lvgl/src/core/../misc/lv_color.h ****     ret.full = ret.full << 8 | ret.full >> 8;
 457:Drivers/lvgl/src/core/../misc/lv_color.h **** #endif
 458:Drivers/lvgl/src/core/../misc/lv_color.h **** #elif LV_COLOR_DEPTH != 1
 459:Drivers/lvgl/src/core/../misc/lv_color.h ****     /*LV_COLOR_DEPTH == 8, 16 or 32*/
 460:Drivers/lvgl/src/core/../misc/lv_color.h ****     LV_COLOR_SET_R(ret, LV_UDIV255((uint16_t)LV_COLOR_GET_R(c1) * mix + LV_COLOR_GET_R(c2) *
 461:Drivers/lvgl/src/core/../misc/lv_color.h ****                                    (255 - mix) + LV_COLOR_MIX_ROUND_OFS));
 462:Drivers/lvgl/src/core/../misc/lv_color.h ****     LV_COLOR_SET_G(ret, LV_UDIV255((uint16_t)LV_COLOR_GET_G(c1) * mix + LV_COLOR_GET_G(c2) *
 463:Drivers/lvgl/src/core/../misc/lv_color.h ****                                    (255 - mix) + LV_COLOR_MIX_ROUND_OFS));
 464:Drivers/lvgl/src/core/../misc/lv_color.h ****     LV_COLOR_SET_B(ret, LV_UDIV255((uint16_t)LV_COLOR_GET_B(c1) * mix + LV_COLOR_GET_B(c2) *
 465:Drivers/lvgl/src/core/../misc/lv_color.h ****                                    (255 - mix) + LV_COLOR_MIX_ROUND_OFS));
 466:Drivers/lvgl/src/core/../misc/lv_color.h ****     LV_COLOR_SET_A(ret, 0xFF);
 467:Drivers/lvgl/src/core/../misc/lv_color.h **** #else
 468:Drivers/lvgl/src/core/../misc/lv_color.h ****     /*LV_COLOR_DEPTH == 1*/
 469:Drivers/lvgl/src/core/../misc/lv_color.h ****     ret.full = mix > LV_OPA_50 ? c1.full : c2.full;
 470:Drivers/lvgl/src/core/../misc/lv_color.h **** #endif
 471:Drivers/lvgl/src/core/../misc/lv_color.h **** 
 472:Drivers/lvgl/src/core/../misc/lv_color.h ****     return ret;
 473:Drivers/lvgl/src/core/../misc/lv_color.h **** }
 474:Drivers/lvgl/src/core/../misc/lv_color.h **** 
 475:Drivers/lvgl/src/core/../misc/lv_color.h **** static inline void LV_ATTRIBUTE_FAST_MEM lv_color_premult(lv_color_t c, uint8_t mix, uint16_t * out
 476:Drivers/lvgl/src/core/../misc/lv_color.h **** {
 477:Drivers/lvgl/src/core/../misc/lv_color.h **** #if LV_COLOR_DEPTH != 1
 478:Drivers/lvgl/src/core/../misc/lv_color.h ****     out[0] = (uint16_t)LV_COLOR_GET_R(c) * mix;
 479:Drivers/lvgl/src/core/../misc/lv_color.h ****     out[1] = (uint16_t)LV_COLOR_GET_G(c) * mix;
 480:Drivers/lvgl/src/core/../misc/lv_color.h ****     out[2] = (uint16_t)LV_COLOR_GET_B(c) * mix;
 481:Drivers/lvgl/src/core/../misc/lv_color.h **** #else
 482:Drivers/lvgl/src/core/../misc/lv_color.h ****     (void) mix;
 483:Drivers/lvgl/src/core/../misc/lv_color.h ****     /*Pre-multiplication can't be used with 1 bpp*/
 484:Drivers/lvgl/src/core/../misc/lv_color.h ****     out[0] = LV_COLOR_GET_R(c);
 485:Drivers/lvgl/src/core/../misc/lv_color.h ****     out[1] = LV_COLOR_GET_G(c);
 486:Drivers/lvgl/src/core/../misc/lv_color.h ****     out[2] = LV_COLOR_GET_B(c);
 487:Drivers/lvgl/src/core/../misc/lv_color.h **** #endif
 488:Drivers/lvgl/src/core/../misc/lv_color.h **** 
 489:Drivers/lvgl/src/core/../misc/lv_color.h **** }
 490:Drivers/lvgl/src/core/../misc/lv_color.h **** 
 491:Drivers/lvgl/src/core/../misc/lv_color.h **** /**
 492:Drivers/lvgl/src/core/../misc/lv_color.h ****  * Mix two colors with a given ratio. It runs faster then `lv_color_mix` but requires some pre comp
ARM GAS  /var/folders/0z/tsy30v1j4xl4_7kw94k978ww0000gn/T//ccRTPM70.s 			page 165


 493:Drivers/lvgl/src/core/../misc/lv_color.h ****  * @param premult_c1 The first color. Should be preprocessed with `lv_color_premult(c1)`
 494:Drivers/lvgl/src/core/../misc/lv_color.h ****  * @param c2 The second color. As it is no pre computation required on it
 495:Drivers/lvgl/src/core/../misc/lv_color.h ****  * @param mix The ratio of the colors. 0: full `c1`, 255: full `c2`, 127: half `c1` and half `c2`.
 496:Drivers/lvgl/src/core/../misc/lv_color.h ****  *            Should be modified like mix = `255 - mix`
 497:Drivers/lvgl/src/core/../misc/lv_color.h ****  * @return the mixed color
 498:Drivers/lvgl/src/core/../misc/lv_color.h ****  * @note 255 won't give clearly `c1`.
 499:Drivers/lvgl/src/core/../misc/lv_color.h ****  */
 500:Drivers/lvgl/src/core/../misc/lv_color.h **** static inline lv_color_t LV_ATTRIBUTE_FAST_MEM lv_color_mix_premult(uint16_t * premult_c1, lv_color
 501:Drivers/lvgl/src/core/../misc/lv_color.h **** {
 502:Drivers/lvgl/src/core/../misc/lv_color.h ****     lv_color_t ret;
 503:Drivers/lvgl/src/core/../misc/lv_color.h **** #if LV_COLOR_DEPTH != 1
 504:Drivers/lvgl/src/core/../misc/lv_color.h ****     /*LV_COLOR_DEPTH == 8 or 32*/
 505:Drivers/lvgl/src/core/../misc/lv_color.h ****     LV_COLOR_SET_R(ret, LV_UDIV255(premult_c1[0] + LV_COLOR_GET_R(c2) * mix + LV_COLOR_MIX_ROUND_OF
 506:Drivers/lvgl/src/core/../misc/lv_color.h ****     LV_COLOR_SET_G(ret, LV_UDIV255(premult_c1[1] + LV_COLOR_GET_G(c2) * mix + LV_COLOR_MIX_ROUND_OF
 507:Drivers/lvgl/src/core/../misc/lv_color.h ****     LV_COLOR_SET_B(ret, LV_UDIV255(premult_c1[2] + LV_COLOR_GET_B(c2) * mix + LV_COLOR_MIX_ROUND_OF
 508:Drivers/lvgl/src/core/../misc/lv_color.h ****     LV_COLOR_SET_A(ret, 0xFF);
 509:Drivers/lvgl/src/core/../misc/lv_color.h **** #else
 510:Drivers/lvgl/src/core/../misc/lv_color.h ****     /*LV_COLOR_DEPTH == 1*/
 511:Drivers/lvgl/src/core/../misc/lv_color.h ****     /*Restore color1*/
 512:Drivers/lvgl/src/core/../misc/lv_color.h ****     lv_color_t c1;
 513:Drivers/lvgl/src/core/../misc/lv_color.h ****     LV_COLOR_SET_R(c1, premult_c1[0]);
 514:Drivers/lvgl/src/core/../misc/lv_color.h ****     LV_COLOR_SET_G(c1, premult_c1[1]);
 515:Drivers/lvgl/src/core/../misc/lv_color.h ****     LV_COLOR_SET_B(c1, premult_c1[2]);
 516:Drivers/lvgl/src/core/../misc/lv_color.h ****     ret.full = mix > LV_OPA_50 ? c2.full : c1.full;
 517:Drivers/lvgl/src/core/../misc/lv_color.h **** #endif
 518:Drivers/lvgl/src/core/../misc/lv_color.h **** 
 519:Drivers/lvgl/src/core/../misc/lv_color.h ****     return ret;
 520:Drivers/lvgl/src/core/../misc/lv_color.h **** }
 521:Drivers/lvgl/src/core/../misc/lv_color.h **** 
 522:Drivers/lvgl/src/core/../misc/lv_color.h **** /**
 523:Drivers/lvgl/src/core/../misc/lv_color.h ****  * Mix two colors. Both color can have alpha value.
 524:Drivers/lvgl/src/core/../misc/lv_color.h ****  * @param bg_color background color
 525:Drivers/lvgl/src/core/../misc/lv_color.h ****  * @param bg_opa alpha of the background color
 526:Drivers/lvgl/src/core/../misc/lv_color.h ****  * @param fg_color foreground color
 527:Drivers/lvgl/src/core/../misc/lv_color.h ****  * @param fg_opa alpha of the foreground color
 528:Drivers/lvgl/src/core/../misc/lv_color.h ****  * @param res_color the result color
 529:Drivers/lvgl/src/core/../misc/lv_color.h ****  * @param res_opa the result opacity
 530:Drivers/lvgl/src/core/../misc/lv_color.h ****  */
 531:Drivers/lvgl/src/core/../misc/lv_color.h **** static inline void LV_ATTRIBUTE_FAST_MEM lv_color_mix_with_alpha(lv_color_t bg_color, lv_opa_t bg_o
 532:Drivers/lvgl/src/core/../misc/lv_color.h ****                                                                  lv_color_t fg_color, lv_opa_t fg_o
 533:Drivers/lvgl/src/core/../misc/lv_color.h ****                                                                  lv_color_t * res_color, lv_opa_t *
 534:Drivers/lvgl/src/core/../misc/lv_color.h **** {
 535:Drivers/lvgl/src/core/../misc/lv_color.h ****     /*Pick the foreground if it's fully opaque or the Background is fully transparent*/
 536:Drivers/lvgl/src/core/../misc/lv_color.h ****     if(fg_opa >= LV_OPA_MAX || bg_opa <= LV_OPA_MIN) {
 537:Drivers/lvgl/src/core/../misc/lv_color.h ****         res_color->full = fg_color.full;
 538:Drivers/lvgl/src/core/../misc/lv_color.h ****         *res_opa = fg_opa;
 539:Drivers/lvgl/src/core/../misc/lv_color.h ****     }
 540:Drivers/lvgl/src/core/../misc/lv_color.h ****     /*Transparent foreground: use the Background*/
 541:Drivers/lvgl/src/core/../misc/lv_color.h ****     else if(fg_opa <= LV_OPA_MIN) {
 542:Drivers/lvgl/src/core/../misc/lv_color.h ****         res_color->full = bg_color.full;
 543:Drivers/lvgl/src/core/../misc/lv_color.h ****         *res_opa = bg_opa;
 544:Drivers/lvgl/src/core/../misc/lv_color.h ****     }
 545:Drivers/lvgl/src/core/../misc/lv_color.h ****     /*Opaque background: use simple mix*/
 546:Drivers/lvgl/src/core/../misc/lv_color.h ****     else if(bg_opa >= LV_OPA_MAX) {
 547:Drivers/lvgl/src/core/../misc/lv_color.h ****         *res_color = lv_color_mix(fg_color, bg_color, fg_opa);
 548:Drivers/lvgl/src/core/../misc/lv_color.h ****         *res_opa = LV_OPA_COVER;
 549:Drivers/lvgl/src/core/../misc/lv_color.h ****     }
ARM GAS  /var/folders/0z/tsy30v1j4xl4_7kw94k978ww0000gn/T//ccRTPM70.s 			page 166


 550:Drivers/lvgl/src/core/../misc/lv_color.h ****     /*Both colors have alpha. Expensive calculation need to be applied*/
 551:Drivers/lvgl/src/core/../misc/lv_color.h ****     else {
 552:Drivers/lvgl/src/core/../misc/lv_color.h ****         /*Save the parameters and the result. If they will be asked again don't compute again*/
 553:Drivers/lvgl/src/core/../misc/lv_color.h ****         static lv_opa_t fg_opa_save     = 0;
 554:Drivers/lvgl/src/core/../misc/lv_color.h ****         static lv_opa_t bg_opa_save     = 0;
 555:Drivers/lvgl/src/core/../misc/lv_color.h ****         static lv_color_t fg_color_save = _LV_COLOR_ZERO_INITIALIZER;
 556:Drivers/lvgl/src/core/../misc/lv_color.h ****         static lv_color_t bg_color_save = _LV_COLOR_ZERO_INITIALIZER;
 557:Drivers/lvgl/src/core/../misc/lv_color.h ****         static lv_color_t res_color_saved = _LV_COLOR_ZERO_INITIALIZER;
 558:Drivers/lvgl/src/core/../misc/lv_color.h ****         static lv_opa_t res_opa_saved = 0;
 559:Drivers/lvgl/src/core/../misc/lv_color.h **** 
 560:Drivers/lvgl/src/core/../misc/lv_color.h ****         if(fg_opa != fg_opa_save || bg_opa != bg_opa_save || fg_color.full != fg_color_save.full ||
 561:Drivers/lvgl/src/core/../misc/lv_color.h ****            bg_color.full != bg_color_save.full) {
 562:Drivers/lvgl/src/core/../misc/lv_color.h ****             fg_opa_save        = fg_opa;
 563:Drivers/lvgl/src/core/../misc/lv_color.h ****             bg_opa_save        = bg_opa;
 564:Drivers/lvgl/src/core/../misc/lv_color.h ****             fg_color_save.full = fg_color.full;
 565:Drivers/lvgl/src/core/../misc/lv_color.h ****             bg_color_save.full = bg_color.full;
 566:Drivers/lvgl/src/core/../misc/lv_color.h ****             /*Info:
 567:Drivers/lvgl/src/core/../misc/lv_color.h ****              * https://en.wikipedia.org/wiki/Alpha_compositing#Analytical_derivation_of_the_over_op
 568:Drivers/lvgl/src/core/../misc/lv_color.h ****             res_opa_saved = 255 - ((uint16_t)((uint16_t)(255 - fg_opa) * (255 - bg_opa)) >> 8);
 569:Drivers/lvgl/src/core/../misc/lv_color.h ****             LV_ASSERT(res_opa_saved != 0);
 570:Drivers/lvgl/src/core/../misc/lv_color.h ****             lv_opa_t ratio = (uint16_t)((uint16_t)fg_opa * 255) / res_opa_saved;
 571:Drivers/lvgl/src/core/../misc/lv_color.h ****             res_color_saved = lv_color_mix(fg_color, bg_color, ratio);
 572:Drivers/lvgl/src/core/../misc/lv_color.h **** 
 573:Drivers/lvgl/src/core/../misc/lv_color.h ****         }
 574:Drivers/lvgl/src/core/../misc/lv_color.h **** 
 575:Drivers/lvgl/src/core/../misc/lv_color.h ****         res_color->full = res_color_saved.full;
 576:Drivers/lvgl/src/core/../misc/lv_color.h ****         *res_opa = res_opa_saved;
 577:Drivers/lvgl/src/core/../misc/lv_color.h ****     }
 578:Drivers/lvgl/src/core/../misc/lv_color.h **** }
 579:Drivers/lvgl/src/core/../misc/lv_color.h **** 
 580:Drivers/lvgl/src/core/../misc/lv_color.h **** //! @endcond
 581:Drivers/lvgl/src/core/../misc/lv_color.h **** 
 582:Drivers/lvgl/src/core/../misc/lv_color.h **** /**
 583:Drivers/lvgl/src/core/../misc/lv_color.h ****  * Get the brightness of a color
 584:Drivers/lvgl/src/core/../misc/lv_color.h ****  * @param color a color
 585:Drivers/lvgl/src/core/../misc/lv_color.h ****  * @return the brightness [0..255]
 586:Drivers/lvgl/src/core/../misc/lv_color.h ****  */
 587:Drivers/lvgl/src/core/../misc/lv_color.h **** static inline uint8_t lv_color_brightness(lv_color_t color)
 588:Drivers/lvgl/src/core/../misc/lv_color.h **** {
 589:Drivers/lvgl/src/core/../misc/lv_color.h ****     lv_color32_t c32;
 590:Drivers/lvgl/src/core/../misc/lv_color.h ****     c32.full        = lv_color_to32(color);
 591:Drivers/lvgl/src/core/../misc/lv_color.h ****     uint16_t bright = (uint16_t)(3u * LV_COLOR_GET_R32(c32) + LV_COLOR_GET_B32(c32) + 4u * LV_COLOR
 592:Drivers/lvgl/src/core/../misc/lv_color.h ****     return (uint8_t)(bright >> 3);
 593:Drivers/lvgl/src/core/../misc/lv_color.h **** }
 594:Drivers/lvgl/src/core/../misc/lv_color.h **** 
 595:Drivers/lvgl/src/core/../misc/lv_color.h **** static inline lv_color_t lv_color_make(uint8_t r, uint8_t g, uint8_t b)
 596:Drivers/lvgl/src/core/../misc/lv_color.h **** {
 597:Drivers/lvgl/src/core/../misc/lv_color.h ****     return _LV_COLOR_MAKE_TYPE_HELPER LV_COLOR_MAKE(r, g, b);
 598:Drivers/lvgl/src/core/../misc/lv_color.h **** }
 599:Drivers/lvgl/src/core/../misc/lv_color.h **** 
 600:Drivers/lvgl/src/core/../misc/lv_color.h **** static inline lv_color_t lv_color_hex(uint32_t c)
 601:Drivers/lvgl/src/core/../misc/lv_color.h **** {
 602:Drivers/lvgl/src/core/../misc/lv_color.h **** #if LV_COLOR_DEPTH == 16
 603:Drivers/lvgl/src/core/../misc/lv_color.h ****     lv_color_t r;
 604:Drivers/lvgl/src/core/../misc/lv_color.h **** #if LV_COLOR_16_SWAP == 0
 605:Drivers/lvgl/src/core/../misc/lv_color.h ****     /* Convert a 4 bytes per pixel in format ARGB32 to R5G6B5 format
 606:Drivers/lvgl/src/core/../misc/lv_color.h ****         naive way (by calling lv_color_make with components):
ARM GAS  /var/folders/0z/tsy30v1j4xl4_7kw94k978ww0000gn/T//ccRTPM70.s 			page 167


 607:Drivers/lvgl/src/core/../misc/lv_color.h ****                     r = ((c & 0xFF0000) >> 19)
 608:Drivers/lvgl/src/core/../misc/lv_color.h ****                     g = ((c & 0xFF00) >> 10)
 609:Drivers/lvgl/src/core/../misc/lv_color.h ****                     b = ((c & 0xFF) >> 3)
 610:Drivers/lvgl/src/core/../misc/lv_color.h ****                     rgb565 = (r << 11) | (g << 5) | b
 611:Drivers/lvgl/src/core/../misc/lv_color.h ****         That's 3 mask, 5 bitshift and 2 or operations
 612:Drivers/lvgl/src/core/../misc/lv_color.h **** 
 613:Drivers/lvgl/src/core/../misc/lv_color.h ****         A bit better:
 614:Drivers/lvgl/src/core/../misc/lv_color.h ****                     r = ((c & 0xF80000) >> 8)
 615:Drivers/lvgl/src/core/../misc/lv_color.h ****                     g = ((c & 0xFC00) >> 5)
 616:Drivers/lvgl/src/core/../misc/lv_color.h ****                     b = ((c & 0xFF) >> 3)
 617:Drivers/lvgl/src/core/../misc/lv_color.h ****                     rgb565 = r | g | b
 618:Drivers/lvgl/src/core/../misc/lv_color.h ****         That's 3 mask, 3 bitshifts and 2 or operations */
 619:Drivers/lvgl/src/core/../misc/lv_color.h ****     r.full = (uint16_t)(((c & 0xF80000) >> 8) | ((c & 0xFC00) >> 5) | ((c & 0xFF) >> 3));
 620:Drivers/lvgl/src/core/../misc/lv_color.h **** #else
 621:Drivers/lvgl/src/core/../misc/lv_color.h ****     /* We want: rrrr rrrr GGGg gggg bbbb bbbb => gggb bbbb rrrr rGGG */
 622:Drivers/lvgl/src/core/../misc/lv_color.h ****     r.full = (uint16_t)(((c & 0xF80000) >> 16) | ((c & 0xFC00) >> 13) | ((c & 0x1C00) << 3) | ((c &
 623:Drivers/lvgl/src/core/../misc/lv_color.h **** #endif
 624:Drivers/lvgl/src/core/../misc/lv_color.h ****     return r;
 625:Drivers/lvgl/src/core/../misc/lv_color.h **** #elif LV_COLOR_DEPTH == 32
 626:Drivers/lvgl/src/core/../misc/lv_color.h ****     lv_color_t r;
 627:Drivers/lvgl/src/core/../misc/lv_color.h ****     r.full = c | 0xFF000000;
 628:Drivers/lvgl/src/core/../misc/lv_color.h ****     return r;
 629:Drivers/lvgl/src/core/../misc/lv_color.h **** #else /*LV_COLOR_DEPTH == 8*/
 630:Drivers/lvgl/src/core/../misc/lv_color.h ****     return lv_color_make((uint8_t)((c >> 16) & 0xFF), (uint8_t)((c >> 8) & 0xFF), (uint8_t)(c & 0xF
 631:Drivers/lvgl/src/core/../misc/lv_color.h **** #endif
 632:Drivers/lvgl/src/core/../misc/lv_color.h **** }
 633:Drivers/lvgl/src/core/../misc/lv_color.h **** 
 634:Drivers/lvgl/src/core/../misc/lv_color.h **** static inline lv_color_t lv_color_hex3(uint32_t c)
 635:Drivers/lvgl/src/core/../misc/lv_color.h **** {
 636:Drivers/lvgl/src/core/../misc/lv_color.h ****     return lv_color_make((uint8_t)(((c >> 4) & 0xF0) | ((c >> 8) & 0xF)), (uint8_t)((c & 0xF0) | ((
 637:Drivers/lvgl/src/core/../misc/lv_color.h ****                          (uint8_t)((c & 0xF) | ((c & 0xF) << 4)));
 638:Drivers/lvgl/src/core/../misc/lv_color.h **** }
 639:Drivers/lvgl/src/core/../misc/lv_color.h **** 
 640:Drivers/lvgl/src/core/../misc/lv_color.h **** static inline void lv_color_filter_dsc_init(lv_color_filter_dsc_t * dsc, lv_color_filter_cb_t cb)
 641:Drivers/lvgl/src/core/../misc/lv_color.h **** {
 642:Drivers/lvgl/src/core/../misc/lv_color.h ****     dsc->filter_cb = cb;
 643:Drivers/lvgl/src/core/../misc/lv_color.h **** }
 644:Drivers/lvgl/src/core/../misc/lv_color.h **** 
 645:Drivers/lvgl/src/core/../misc/lv_color.h **** //! @cond Doxygen_Suppress
 646:Drivers/lvgl/src/core/../misc/lv_color.h **** //!
 647:Drivers/lvgl/src/core/../misc/lv_color.h **** void /* LV_ATTRIBUTE_FAST_MEM */ lv_color_fill(lv_color_t * buf, lv_color_t color, uint32_t px_num)
 648:Drivers/lvgl/src/core/../misc/lv_color.h **** 
 649:Drivers/lvgl/src/core/../misc/lv_color.h **** //! @endcond
 650:Drivers/lvgl/src/core/../misc/lv_color.h **** lv_color_t lv_color_lighten(lv_color_t c, lv_opa_t lvl);
 651:Drivers/lvgl/src/core/../misc/lv_color.h **** 
 652:Drivers/lvgl/src/core/../misc/lv_color.h **** lv_color_t lv_color_darken(lv_color_t c, lv_opa_t lvl);
 653:Drivers/lvgl/src/core/../misc/lv_color.h **** 
 654:Drivers/lvgl/src/core/../misc/lv_color.h **** lv_color_t lv_color_change_lightness(lv_color_t c, lv_opa_t lvl);
 655:Drivers/lvgl/src/core/../misc/lv_color.h **** 
 656:Drivers/lvgl/src/core/../misc/lv_color.h **** /**
 657:Drivers/lvgl/src/core/../misc/lv_color.h ****  * Convert a HSV color to RGB
 658:Drivers/lvgl/src/core/../misc/lv_color.h ****  * @param h hue [0..359]
 659:Drivers/lvgl/src/core/../misc/lv_color.h ****  * @param s saturation [0..100]
 660:Drivers/lvgl/src/core/../misc/lv_color.h ****  * @param v value [0..100]
 661:Drivers/lvgl/src/core/../misc/lv_color.h ****  * @return the given RGB color in RGB (with LV_COLOR_DEPTH depth)
 662:Drivers/lvgl/src/core/../misc/lv_color.h ****  */
 663:Drivers/lvgl/src/core/../misc/lv_color.h **** lv_color_t lv_color_hsv_to_rgb(uint16_t h, uint8_t s, uint8_t v);
ARM GAS  /var/folders/0z/tsy30v1j4xl4_7kw94k978ww0000gn/T//ccRTPM70.s 			page 168


 664:Drivers/lvgl/src/core/../misc/lv_color.h **** 
 665:Drivers/lvgl/src/core/../misc/lv_color.h **** /**
 666:Drivers/lvgl/src/core/../misc/lv_color.h ****  * Convert a 32-bit RGB color to HSV
 667:Drivers/lvgl/src/core/../misc/lv_color.h ****  * @param r8 8-bit red
 668:Drivers/lvgl/src/core/../misc/lv_color.h ****  * @param g8 8-bit green
 669:Drivers/lvgl/src/core/../misc/lv_color.h ****  * @param b8 8-bit blue
 670:Drivers/lvgl/src/core/../misc/lv_color.h ****  * @return the given RGB color in HSV
 671:Drivers/lvgl/src/core/../misc/lv_color.h ****  */
 672:Drivers/lvgl/src/core/../misc/lv_color.h **** lv_color_hsv_t lv_color_rgb_to_hsv(uint8_t r8, uint8_t g8, uint8_t b8);
 673:Drivers/lvgl/src/core/../misc/lv_color.h **** 
 674:Drivers/lvgl/src/core/../misc/lv_color.h **** /**
 675:Drivers/lvgl/src/core/../misc/lv_color.h ****  * Convert a color to HSV
 676:Drivers/lvgl/src/core/../misc/lv_color.h ****  * @param color color
 677:Drivers/lvgl/src/core/../misc/lv_color.h ****  * @return the given color in HSV
 678:Drivers/lvgl/src/core/../misc/lv_color.h ****  */
 679:Drivers/lvgl/src/core/../misc/lv_color.h **** lv_color_hsv_t lv_color_to_hsv(lv_color_t color);
 680:Drivers/lvgl/src/core/../misc/lv_color.h **** 
 681:Drivers/lvgl/src/core/../misc/lv_color.h **** /**
 682:Drivers/lvgl/src/core/../misc/lv_color.h ****  * Just a wrapper around LV_COLOR_CHROMA_KEY because it might be more convenient to use a function 
 683:Drivers/lvgl/src/core/../misc/lv_color.h ****  * @return LV_COLOR_CHROMA_KEY
 684:Drivers/lvgl/src/core/../misc/lv_color.h ****  */
 685:Drivers/lvgl/src/core/../misc/lv_color.h **** static inline lv_color_t lv_color_chroma_key(void)
 686:Drivers/lvgl/src/core/../misc/lv_color.h **** {
 687:Drivers/lvgl/src/core/../misc/lv_color.h ****     return LV_COLOR_CHROMA_KEY;
 688:Drivers/lvgl/src/core/../misc/lv_color.h **** }
 689:Drivers/lvgl/src/core/../misc/lv_color.h **** 
 690:Drivers/lvgl/src/core/../misc/lv_color.h **** /**********************
 691:Drivers/lvgl/src/core/../misc/lv_color.h ****  *  PREDEFINED COLORS
 692:Drivers/lvgl/src/core/../misc/lv_color.h ****  **********************/
 693:Drivers/lvgl/src/core/../misc/lv_color.h **** /*Source: https://vuetifyjs.com/en/styles/colors/#material-colors*/
 694:Drivers/lvgl/src/core/../misc/lv_color.h **** 
 695:Drivers/lvgl/src/core/../misc/lv_color.h **** lv_color_t lv_palette_main(lv_palette_t p);
 696:Drivers/lvgl/src/core/../misc/lv_color.h **** static inline lv_color_t lv_color_white(void)
 697:Drivers/lvgl/src/core/../misc/lv_color.h **** {
 698:Drivers/lvgl/src/core/../misc/lv_color.h ****     return lv_color_make(0xff, 0xff, 0xff);
 699:Drivers/lvgl/src/core/../misc/lv_color.h **** }
 700:Drivers/lvgl/src/core/../misc/lv_color.h **** static inline lv_color_t lv_color_black(void)
 5161              		.loc 5 700 26 view .LVU1716
 701:Drivers/lvgl/src/core/../misc/lv_color.h **** {
 702:Drivers/lvgl/src/core/../misc/lv_color.h ****     return lv_color_make(0x00, 0x0, 0x00);
 5162              		.loc 5 702 5 view .LVU1717
 5163              	.LBB177:
 5164              	.LBI177:
 595:Drivers/lvgl/src/core/../misc/lv_color.h **** {
 5165              		.loc 5 595 26 view .LVU1718
 5166              	.LBB178:
 597:Drivers/lvgl/src/core/../misc/lv_color.h **** }
 5167              		.loc 5 597 5 view .LVU1719
 597:Drivers/lvgl/src/core/../misc/lv_color.h **** }
 5168              		.loc 5 597 5 is_stmt 0 view .LVU1720
 5169              	.LBE178:
 5170              	.LBE177:
 5171              	.LBE176:
 368:Drivers/lvgl/src/core/lv_refr.c ****         lv_obj_set_style_text_color(perf_label, lv_color_white(), 0);
 5172              		.loc 1 368 9 view .LVU1721
 5173 0162 0022     		movs	r2, #0
 5174 0164 4FF00001 		mov	r1, #0	@ movhi
ARM GAS  /var/folders/0z/tsy30v1j4xl4_7kw94k978ww0000gn/T//ccRTPM70.s 			page 169


 5175 0168 2046     		mov	r0, r4
 5176 016a FFF7FEFF 		bl	lv_obj_set_style_bg_color
 5177              	.LVL484:
 369:Drivers/lvgl/src/core/lv_refr.c ****         lv_obj_set_style_pad_top(perf_label, 3, 0);
 5178              		.loc 1 369 9 is_stmt 1 view .LVU1722
 5179              	.LBB179:
 5180              	.LBI179:
 696:Drivers/lvgl/src/core/../misc/lv_color.h **** {
 5181              		.loc 5 696 26 view .LVU1723
 698:Drivers/lvgl/src/core/../misc/lv_color.h **** }
 5182              		.loc 5 698 5 view .LVU1724
 5183              	.LBB180:
 5184              	.LBI180:
 595:Drivers/lvgl/src/core/../misc/lv_color.h **** {
 5185              		.loc 5 595 26 view .LVU1725
 5186              	.LBB181:
 597:Drivers/lvgl/src/core/../misc/lv_color.h **** }
 5187              		.loc 5 597 5 view .LVU1726
 597:Drivers/lvgl/src/core/../misc/lv_color.h **** }
 5188              		.loc 5 597 5 is_stmt 0 view .LVU1727
 5189              	.LBE181:
 5190              	.LBE180:
 5191              	.LBE179:
 369:Drivers/lvgl/src/core/lv_refr.c ****         lv_obj_set_style_pad_top(perf_label, 3, 0);
 5192              		.loc 1 369 9 view .LVU1728
 5193 016e 0022     		movs	r2, #0
 5194 0170 4FF0FF31 		mov	r1, #-1	@ movhi
 5195 0174 2046     		mov	r0, r4
 5196 0176 FFF7FEFF 		bl	lv_obj_set_style_text_color
 5197              	.LVL485:
 370:Drivers/lvgl/src/core/lv_refr.c ****         lv_obj_set_style_pad_bottom(perf_label, 3, 0);
 5198              		.loc 1 370 9 is_stmt 1 view .LVU1729
 5199 017a 0022     		movs	r2, #0
 5200 017c 0321     		movs	r1, #3
 5201 017e 2046     		mov	r0, r4
 5202 0180 FFF7FEFF 		bl	lv_obj_set_style_pad_top
 5203              	.LVL486:
 371:Drivers/lvgl/src/core/lv_refr.c ****         lv_obj_set_style_pad_left(perf_label, 3, 0);
 5204              		.loc 1 371 9 view .LVU1730
 5205 0184 0022     		movs	r2, #0
 5206 0186 0321     		movs	r1, #3
 5207 0188 2046     		mov	r0, r4
 5208 018a FFF7FEFF 		bl	lv_obj_set_style_pad_bottom
 5209              	.LVL487:
 372:Drivers/lvgl/src/core/lv_refr.c ****         lv_obj_set_style_pad_right(perf_label, 3, 0);
 5210              		.loc 1 372 9 view .LVU1731
 5211 018e 0022     		movs	r2, #0
 5212 0190 0321     		movs	r1, #3
 5213 0192 2046     		mov	r0, r4
 5214 0194 FFF7FEFF 		bl	lv_obj_set_style_pad_left
 5215              	.LVL488:
 373:Drivers/lvgl/src/core/lv_refr.c ****         lv_obj_set_style_text_align(perf_label, LV_TEXT_ALIGN_RIGHT, 0);
 5216              		.loc 1 373 9 view .LVU1732
 5217 0198 0022     		movs	r2, #0
 5218 019a 0321     		movs	r1, #3
 5219 019c 2046     		mov	r0, r4
 5220 019e FFF7FEFF 		bl	lv_obj_set_style_pad_right
ARM GAS  /var/folders/0z/tsy30v1j4xl4_7kw94k978ww0000gn/T//ccRTPM70.s 			page 170


 5221              	.LVL489:
 374:Drivers/lvgl/src/core/lv_refr.c ****         lv_label_set_text(perf_label, "?");
 5222              		.loc 1 374 9 view .LVU1733
 5223 01a2 0022     		movs	r2, #0
 5224 01a4 0321     		movs	r1, #3
 5225 01a6 2046     		mov	r0, r4
 5226 01a8 FFF7FEFF 		bl	lv_obj_set_style_text_align
 5227              	.LVL490:
 375:Drivers/lvgl/src/core/lv_refr.c ****         lv_obj_align(perf_label, LV_USE_PERF_MONITOR_POS, 0, 0);
 5228              		.loc 1 375 9 view .LVU1734
 5229 01ac 5149     		ldr	r1, .L341+16
 5230 01ae 2046     		mov	r0, r4
 5231 01b0 FFF7FEFF 		bl	lv_label_set_text
 5232              	.LVL491:
 376:Drivers/lvgl/src/core/lv_refr.c ****         perf_monitor.perf_label = perf_label;
 5233              		.loc 1 376 9 view .LVU1735
 5234 01b4 0023     		movs	r3, #0
 5235 01b6 1A46     		mov	r2, r3
 5236 01b8 0621     		movs	r1, #6
 5237 01ba 2046     		mov	r0, r4
 5238 01bc FFF7FEFF 		bl	lv_obj_align
 5239              	.LVL492:
 377:Drivers/lvgl/src/core/lv_refr.c ****     }
 5240              		.loc 1 377 9 view .LVU1736
 377:Drivers/lvgl/src/core/lv_refr.c ****     }
 5241              		.loc 1 377 33 is_stmt 0 view .LVU1737
 5242 01c0 4A4B     		ldr	r3, .L341+8
 5243 01c2 5C61     		str	r4, [r3, #20]
 5244 01c4 9EE7     		b	.L325
 5245              	.L326:
 5246              	.LBB182:
 387:Drivers/lvgl/src/core/lv_refr.c ****         uint32_t fps_limit;
 5247              		.loc 1 387 9 is_stmt 1 view .LVU1738
 387:Drivers/lvgl/src/core/lv_refr.c ****         uint32_t fps_limit;
 5248              		.loc 1 387 39 is_stmt 0 view .LVU1739
 5249 01c6 FFF7FEFF 		bl	lv_tick_get
 5250              	.LVL493:
 387:Drivers/lvgl/src/core/lv_refr.c ****         uint32_t fps_limit;
 5251              		.loc 1 387 37 view .LVU1740
 5252 01ca 484B     		ldr	r3, .L341+8
 5253 01cc 1860     		str	r0, [r3]
 388:Drivers/lvgl/src/core/lv_refr.c ****         uint32_t fps;
 5254              		.loc 1 388 9 is_stmt 1 view .LVU1741
 389:Drivers/lvgl/src/core/lv_refr.c **** 
 5255              		.loc 1 389 9 view .LVU1742
 391:Drivers/lvgl/src/core/lv_refr.c ****             fps_limit = 1000 / disp_refr->refr_timer->period;
 5256              		.loc 1 391 9 view .LVU1743
 391:Drivers/lvgl/src/core/lv_refr.c ****             fps_limit = 1000 / disp_refr->refr_timer->period;
 5257              		.loc 1 391 21 is_stmt 0 view .LVU1744
 5258 01ce 454B     		ldr	r3, .L341
 5259 01d0 1B68     		ldr	r3, [r3]
 5260 01d2 5B68     		ldr	r3, [r3, #4]
 391:Drivers/lvgl/src/core/lv_refr.c ****             fps_limit = 1000 / disp_refr->refr_timer->period;
 5261              		.loc 1 391 11 view .LVU1745
 5262 01d4 6BB3     		cbz	r3, .L334
 392:Drivers/lvgl/src/core/lv_refr.c ****         }
 5263              		.loc 1 392 13 is_stmt 1 view .LVU1746
ARM GAS  /var/folders/0z/tsy30v1j4xl4_7kw94k978ww0000gn/T//ccRTPM70.s 			page 171


 392:Drivers/lvgl/src/core/lv_refr.c ****         }
 5264              		.loc 1 392 53 is_stmt 0 view .LVU1747
 5265 01d6 1B68     		ldr	r3, [r3]
 392:Drivers/lvgl/src/core/lv_refr.c ****         }
 5266              		.loc 1 392 23 view .LVU1748
 5267 01d8 4FF47A75 		mov	r5, #1000
 5268              	.LVL494:
 392:Drivers/lvgl/src/core/lv_refr.c ****         }
 5269              		.loc 1 392 23 view .LVU1749
 5270 01dc B5FBF3F5 		udiv	r5, r5, r3
 5271              	.LVL495:
 5272              	.L328:
 398:Drivers/lvgl/src/core/lv_refr.c ****             perf_monitor.elaps_sum = 1;
 5273              		.loc 1 398 9 is_stmt 1 view .LVU1750
 398:Drivers/lvgl/src/core/lv_refr.c ****             perf_monitor.elaps_sum = 1;
 5274              		.loc 1 398 24 is_stmt 0 view .LVU1751
 5275 01e0 424B     		ldr	r3, .L341+8
 5276 01e2 5B68     		ldr	r3, [r3, #4]
 398:Drivers/lvgl/src/core/lv_refr.c ****             perf_monitor.elaps_sum = 1;
 5277              		.loc 1 398 11 view .LVU1752
 5278 01e4 13B9     		cbnz	r3, .L329
 399:Drivers/lvgl/src/core/lv_refr.c ****         }
 5279              		.loc 1 399 13 is_stmt 1 view .LVU1753
 399:Drivers/lvgl/src/core/lv_refr.c ****         }
 5280              		.loc 1 399 36 is_stmt 0 view .LVU1754
 5281 01e6 414B     		ldr	r3, .L341+8
 5282 01e8 0122     		movs	r2, #1
 5283 01ea 5A60     		str	r2, [r3, #4]
 5284              	.L329:
 401:Drivers/lvgl/src/core/lv_refr.c ****             fps = fps_limit;
 5285              		.loc 1 401 9 is_stmt 1 view .LVU1755
 401:Drivers/lvgl/src/core/lv_refr.c ****             fps = fps_limit;
 5286              		.loc 1 401 24 is_stmt 0 view .LVU1756
 5287 01ec 3F4B     		ldr	r3, .L341+8
 5288 01ee 9B68     		ldr	r3, [r3, #8]
 401:Drivers/lvgl/src/core/lv_refr.c ****             fps = fps_limit;
 5289              		.loc 1 401 11 view .LVU1757
 5290 01f0 0BB3     		cbz	r3, .L335
 405:Drivers/lvgl/src/core/lv_refr.c ****         }
 5291              		.loc 1 405 13 is_stmt 1 view .LVU1758
 405:Drivers/lvgl/src/core/lv_refr.c ****         }
 5292              		.loc 1 405 25 is_stmt 0 view .LVU1759
 5293 01f2 4FF47A72 		mov	r2, #1000
 5294 01f6 02FB03F3 		mul	r3, r2, r3
 405:Drivers/lvgl/src/core/lv_refr.c ****         }
 5295              		.loc 1 405 65 view .LVU1760
 5296 01fa 3C4A     		ldr	r2, .L341+8
 5297 01fc 5268     		ldr	r2, [r2, #4]
 405:Drivers/lvgl/src/core/lv_refr.c ****         }
 5298              		.loc 1 405 17 view .LVU1761
 5299 01fe B3FBF2F3 		udiv	r3, r3, r2
 5300              	.LVL496:
 5301              	.L330:
 407:Drivers/lvgl/src/core/lv_refr.c ****         perf_monitor.frame_cnt = 0;
 5302              		.loc 1 407 9 is_stmt 1 view .LVU1762
 407:Drivers/lvgl/src/core/lv_refr.c ****         perf_monitor.frame_cnt = 0;
 5303              		.loc 1 407 32 is_stmt 0 view .LVU1763
ARM GAS  /var/folders/0z/tsy30v1j4xl4_7kw94k978ww0000gn/T//ccRTPM70.s 			page 172


 5304 0202 3A4A     		ldr	r2, .L341+8
 5305 0204 0021     		movs	r1, #0
 5306 0206 5160     		str	r1, [r2, #4]
 408:Drivers/lvgl/src/core/lv_refr.c ****         if(fps > fps_limit) {
 5307              		.loc 1 408 9 is_stmt 1 view .LVU1764
 408:Drivers/lvgl/src/core/lv_refr.c ****         if(fps > fps_limit) {
 5308              		.loc 1 408 32 is_stmt 0 view .LVU1765
 5309 0208 9160     		str	r1, [r2, #8]
 409:Drivers/lvgl/src/core/lv_refr.c ****             fps = fps_limit;
 5310              		.loc 1 409 9 is_stmt 1 view .LVU1766
 409:Drivers/lvgl/src/core/lv_refr.c ****             fps = fps_limit;
 5311              		.loc 1 409 11 is_stmt 0 view .LVU1767
 5312 020a 9D42     		cmp	r5, r3
 5313 020c 00D3     		bcc	.L331
 5314 020e 1D46     		mov	r5, r3
 5315              	.LVL497:
 5316              	.L331:
 413:Drivers/lvgl/src/core/lv_refr.c ****         perf_monitor.fps_sum_cnt ++;
 5317              		.loc 1 413 9 is_stmt 1 view .LVU1768
 413:Drivers/lvgl/src/core/lv_refr.c ****         perf_monitor.fps_sum_cnt ++;
 5318              		.loc 1 413 34 is_stmt 0 view .LVU1769
 5319 0210 364B     		ldr	r3, .L341+8
 5320 0212 1A69     		ldr	r2, [r3, #16]
 5321 0214 2A44     		add	r2, r2, r5
 5322 0216 1A61     		str	r2, [r3, #16]
 414:Drivers/lvgl/src/core/lv_refr.c ****         uint32_t cpu = 100 - lv_timer_get_idle();
 5323              		.loc 1 414 9 is_stmt 1 view .LVU1770
 414:Drivers/lvgl/src/core/lv_refr.c ****         uint32_t cpu = 100 - lv_timer_get_idle();
 5324              		.loc 1 414 21 is_stmt 0 view .LVU1771
 5325 0218 DA68     		ldr	r2, [r3, #12]
 414:Drivers/lvgl/src/core/lv_refr.c ****         uint32_t cpu = 100 - lv_timer_get_idle();
 5326              		.loc 1 414 34 view .LVU1772
 5327 021a 0132     		adds	r2, r2, #1
 5328 021c DA60     		str	r2, [r3, #12]
 415:Drivers/lvgl/src/core/lv_refr.c ****         lv_label_set_text_fmt(perf_label, "%"LV_PRIu32" FPS\n%"LV_PRIu32"%% CPU", fps, cpu);
 5329              		.loc 1 415 9 is_stmt 1 view .LVU1773
 415:Drivers/lvgl/src/core/lv_refr.c ****         lv_label_set_text_fmt(perf_label, "%"LV_PRIu32" FPS\n%"LV_PRIu32"%% CPU", fps, cpu);
 5330              		.loc 1 415 30 is_stmt 0 view .LVU1774
 5331 021e FFF7FEFF 		bl	lv_timer_get_idle
 5332              	.LVL498:
 416:Drivers/lvgl/src/core/lv_refr.c ****     }
 5333              		.loc 1 416 9 is_stmt 1 view .LVU1775
 5334 0222 C0F16403 		rsb	r3, r0, #100
 5335              	.LVL499:
 416:Drivers/lvgl/src/core/lv_refr.c ****     }
 5336              		.loc 1 416 9 is_stmt 0 view .LVU1776
 5337 0226 2A46     		mov	r2, r5
 5338 0228 3349     		ldr	r1, .L341+20
 5339 022a 2046     		mov	r0, r4
 5340 022c FFF7FEFF 		bl	lv_label_set_text_fmt
 5341              	.LVL500:
 416:Drivers/lvgl/src/core/lv_refr.c ****     }
 5342              		.loc 1 416 9 view .LVU1777
 5343 0230 7DE7     		b	.L327
 5344              	.LVL501:
 5345              	.L334:
 395:Drivers/lvgl/src/core/lv_refr.c ****         }
ARM GAS  /var/folders/0z/tsy30v1j4xl4_7kw94k978ww0000gn/T//ccRTPM70.s 			page 173


 5346              		.loc 1 395 23 view .LVU1778
 5347 0232 2125     		movs	r5, #33
 5348              	.LVL502:
 395:Drivers/lvgl/src/core/lv_refr.c ****         }
 5349              		.loc 1 395 23 view .LVU1779
 5350 0234 D4E7     		b	.L328
 5351              	.LVL503:
 5352              	.L335:
 402:Drivers/lvgl/src/core/lv_refr.c ****         }
 5353              		.loc 1 402 17 view .LVU1780
 5354 0236 2B46     		mov	r3, r5
 5355 0238 E3E7     		b	.L330
 5356              	.LVL504:
 5357              	.L339:
 402:Drivers/lvgl/src/core/lv_refr.c ****         }
 5358              		.loc 1 402 17 view .LVU1781
 5359              	.LBE182:
 423:Drivers/lvgl/src/core/lv_refr.c ****         lv_obj_set_style_bg_opa(mem_label, LV_OPA_50, 0);
 5360              		.loc 1 423 9 is_stmt 1 view .LVU1782
 5361              	.LBB183:
 5362              	.LBI183:
 200:Drivers/lvgl/src/core/lv_disp.h **** {
 5363              		.loc 4 200 26 view .LVU1783
 5364              	.LBB184:
 5365              		.loc 4 202 5 view .LVU1784
 5366              		.loc 4 202 12 is_stmt 0 view .LVU1785
 5367 023a FFF7FEFF 		bl	lv_disp_get_default
 5368              	.LVL505:
 5369 023e FFF7FEFF 		bl	lv_disp_get_layer_sys
 5370              	.LVL506:
 5371              	.LBE184:
 5372              	.LBE183:
 423:Drivers/lvgl/src/core/lv_refr.c ****         lv_obj_set_style_bg_opa(mem_label, LV_OPA_50, 0);
 5373              		.loc 1 423 21 view .LVU1786
 5374 0242 FFF7FEFF 		bl	lv_label_create
 5375              	.LVL507:
 5376 0246 0446     		mov	r4, r0
 5377              	.LVL508:
 424:Drivers/lvgl/src/core/lv_refr.c ****         lv_obj_set_style_bg_color(mem_label, lv_color_black(), 0);
 5378              		.loc 1 424 9 is_stmt 1 view .LVU1787
 5379 0248 0022     		movs	r2, #0
 5380 024a 7F21     		movs	r1, #127
 5381 024c FFF7FEFF 		bl	lv_obj_set_style_bg_opa
 5382              	.LVL509:
 425:Drivers/lvgl/src/core/lv_refr.c ****         lv_obj_set_style_text_color(mem_label, lv_color_white(), 0);
 5383              		.loc 1 425 9 view .LVU1788
 5384              	.LBB185:
 5385              	.LBI185:
 700:Drivers/lvgl/src/core/../misc/lv_color.h **** {
 5386              		.loc 5 700 26 view .LVU1789
 5387              		.loc 5 702 5 view .LVU1790
 5388              	.LBB186:
 5389              	.LBI186:
 595:Drivers/lvgl/src/core/../misc/lv_color.h **** {
 5390              		.loc 5 595 26 view .LVU1791
 5391              	.LBB187:
 597:Drivers/lvgl/src/core/../misc/lv_color.h **** }
ARM GAS  /var/folders/0z/tsy30v1j4xl4_7kw94k978ww0000gn/T//ccRTPM70.s 			page 174


 5392              		.loc 5 597 5 view .LVU1792
 597:Drivers/lvgl/src/core/../misc/lv_color.h **** }
 5393              		.loc 5 597 5 is_stmt 0 view .LVU1793
 5394              	.LBE187:
 5395              	.LBE186:
 5396              	.LBE185:
 425:Drivers/lvgl/src/core/lv_refr.c ****         lv_obj_set_style_text_color(mem_label, lv_color_white(), 0);
 5397              		.loc 1 425 9 view .LVU1794
 5398 0250 0022     		movs	r2, #0
 5399 0252 4FF00001 		mov	r1, #0	@ movhi
 5400 0256 2046     		mov	r0, r4
 5401 0258 FFF7FEFF 		bl	lv_obj_set_style_bg_color
 5402              	.LVL510:
 426:Drivers/lvgl/src/core/lv_refr.c ****         lv_obj_set_style_pad_top(mem_label, 3, 0);
 5403              		.loc 1 426 9 is_stmt 1 view .LVU1795
 5404              	.LBB188:
 5405              	.LBI188:
 696:Drivers/lvgl/src/core/../misc/lv_color.h **** {
 5406              		.loc 5 696 26 view .LVU1796
 698:Drivers/lvgl/src/core/../misc/lv_color.h **** }
 5407              		.loc 5 698 5 view .LVU1797
 5408              	.LBB189:
 5409              	.LBI189:
 595:Drivers/lvgl/src/core/../misc/lv_color.h **** {
 5410              		.loc 5 595 26 view .LVU1798
 5411              	.LBB190:
 597:Drivers/lvgl/src/core/../misc/lv_color.h **** }
 5412              		.loc 5 597 5 view .LVU1799
 597:Drivers/lvgl/src/core/../misc/lv_color.h **** }
 5413              		.loc 5 597 5 is_stmt 0 view .LVU1800
 5414              	.LBE190:
 5415              	.LBE189:
 5416              	.LBE188:
 426:Drivers/lvgl/src/core/lv_refr.c ****         lv_obj_set_style_pad_top(mem_label, 3, 0);
 5417              		.loc 1 426 9 view .LVU1801
 5418 025c 0022     		movs	r2, #0
 5419 025e 4FF0FF31 		mov	r1, #-1	@ movhi
 5420 0262 2046     		mov	r0, r4
 5421 0264 FFF7FEFF 		bl	lv_obj_set_style_text_color
 5422              	.LVL511:
 427:Drivers/lvgl/src/core/lv_refr.c ****         lv_obj_set_style_pad_bottom(mem_label, 3, 0);
 5423              		.loc 1 427 9 is_stmt 1 view .LVU1802
 5424 0268 0022     		movs	r2, #0
 5425 026a 0321     		movs	r1, #3
 5426 026c 2046     		mov	r0, r4
 5427 026e FFF7FEFF 		bl	lv_obj_set_style_pad_top
 5428              	.LVL512:
 428:Drivers/lvgl/src/core/lv_refr.c ****         lv_obj_set_style_pad_left(mem_label, 3, 0);
 5429              		.loc 1 428 9 view .LVU1803
 5430 0272 0022     		movs	r2, #0
 5431 0274 0321     		movs	r1, #3
 5432 0276 2046     		mov	r0, r4
 5433 0278 FFF7FEFF 		bl	lv_obj_set_style_pad_bottom
 5434              	.LVL513:
 429:Drivers/lvgl/src/core/lv_refr.c ****         lv_obj_set_style_pad_right(mem_label, 3, 0);
 5435              		.loc 1 429 9 view .LVU1804
 5436 027c 0022     		movs	r2, #0
ARM GAS  /var/folders/0z/tsy30v1j4xl4_7kw94k978ww0000gn/T//ccRTPM70.s 			page 175


 5437 027e 0321     		movs	r1, #3
 5438 0280 2046     		mov	r0, r4
 5439 0282 FFF7FEFF 		bl	lv_obj_set_style_pad_left
 5440              	.LVL514:
 430:Drivers/lvgl/src/core/lv_refr.c ****         lv_label_set_text(mem_label, "?");
 5441              		.loc 1 430 9 view .LVU1805
 5442 0286 0022     		movs	r2, #0
 5443 0288 0321     		movs	r1, #3
 5444 028a 2046     		mov	r0, r4
 5445 028c FFF7FEFF 		bl	lv_obj_set_style_pad_right
 5446              	.LVL515:
 431:Drivers/lvgl/src/core/lv_refr.c ****         lv_obj_align(mem_label, LV_USE_MEM_MONITOR_POS, 0, 0);
 5447              		.loc 1 431 9 view .LVU1806
 5448 0290 1849     		ldr	r1, .L341+16
 5449 0292 2046     		mov	r0, r4
 5450 0294 FFF7FEFF 		bl	lv_label_set_text
 5451              	.LVL516:
 432:Drivers/lvgl/src/core/lv_refr.c ****         mem_monitor.mem_label = mem_label;
 5452              		.loc 1 432 9 view .LVU1807
 5453 0298 0023     		movs	r3, #0
 5454 029a 1A46     		mov	r2, r3
 5455 029c 0421     		movs	r1, #4
 5456 029e 2046     		mov	r0, r4
 5457 02a0 FFF7FEFF 		bl	lv_obj_align
 5458              	.LVL517:
 433:Drivers/lvgl/src/core/lv_refr.c ****     }
 5459              		.loc 1 433 9 view .LVU1808
 433:Drivers/lvgl/src/core/lv_refr.c ****     }
 5460              		.loc 1 433 31 is_stmt 0 view .LVU1809
 5461 02a4 124B     		ldr	r3, .L341+12
 5462 02a6 5C60     		str	r4, [r3, #4]
 5463 02a8 46E7     		b	.L332
 5464              	.L340:
 5465              	.LBB191:
 437:Drivers/lvgl/src/core/lv_refr.c ****         lv_mem_monitor_t mon;
 5466              		.loc 1 437 9 is_stmt 1 view .LVU1810
 437:Drivers/lvgl/src/core/lv_refr.c ****         lv_mem_monitor_t mon;
 5467              		.loc 1 437 37 is_stmt 0 view .LVU1811
 5468 02aa FFF7FEFF 		bl	lv_tick_get
 5469              	.LVL518:
 437:Drivers/lvgl/src/core/lv_refr.c ****         lv_mem_monitor_t mon;
 5470              		.loc 1 437 35 view .LVU1812
 5471 02ae 104B     		ldr	r3, .L341+12
 5472 02b0 1860     		str	r0, [r3]
 438:Drivers/lvgl/src/core/lv_refr.c ****         lv_mem_monitor(&mon);
 5473              		.loc 1 438 9 is_stmt 1 view .LVU1813
 439:Drivers/lvgl/src/core/lv_refr.c ****         uint32_t used_size = mon.total_size - mon.free_size;;
 5474              		.loc 1 439 9 view .LVU1814
 5475 02b2 02A8     		add	r0, sp, #8
 5476 02b4 FFF7FEFF 		bl	lv_mem_monitor
 5477              	.LVL519:
 440:Drivers/lvgl/src/core/lv_refr.c ****         uint32_t used_kb = used_size / 1024;
 5478              		.loc 1 440 9 view .LVU1815
 440:Drivers/lvgl/src/core/lv_refr.c ****         uint32_t used_kb = used_size / 1024;
 5479              		.loc 1 440 18 is_stmt 0 view .LVU1816
 5480 02b8 029A     		ldr	r2, [sp, #8]
 5481 02ba 049B     		ldr	r3, [sp, #16]
ARM GAS  /var/folders/0z/tsy30v1j4xl4_7kw94k978ww0000gn/T//ccRTPM70.s 			page 176


 5482 02bc D21A     		subs	r2, r2, r3
 5483              	.LVL520:
 440:Drivers/lvgl/src/core/lv_refr.c ****         uint32_t used_kb = used_size / 1024;
 5484              		.loc 1 440 61 is_stmt 1 view .LVU1817
 441:Drivers/lvgl/src/core/lv_refr.c ****         uint32_t used_kb_tenth = (used_size - (used_kb * 1024)) / 102;
 5485              		.loc 1 441 9 view .LVU1818
 442:Drivers/lvgl/src/core/lv_refr.c ****         lv_label_set_text_fmt(mem_label,
 5486              		.loc 1 442 9 view .LVU1819
 442:Drivers/lvgl/src/core/lv_refr.c ****         lv_label_set_text_fmt(mem_label,
 5487              		.loc 1 442 18 is_stmt 0 view .LVU1820
 5488 02be C2F30903 		ubfx	r3, r2, #0, #10
 5489 02c2 0E49     		ldr	r1, .L341+24
 5490 02c4 A1FB0313 		umull	r1, r3, r1, r3
 5491              	.LVL521:
 443:Drivers/lvgl/src/core/lv_refr.c ****                               "%"LV_PRIu32 ".%"LV_PRIu32 " kB used (%d %%)\n"
 5492              		.loc 1 443 9 is_stmt 1 view .LVU1821
 446:Drivers/lvgl/src/core/lv_refr.c ****                               mon.frag_pct);
 5493              		.loc 1 446 58 is_stmt 0 view .LVU1822
 5494 02c8 9DF82010 		ldrb	r1, [sp, #32]	@ zero_extendqisi2
 447:Drivers/lvgl/src/core/lv_refr.c ****     }
 5495              		.loc 1 447 34 view .LVU1823
 5496 02cc 9DF82100 		ldrb	r0, [sp, #33]	@ zero_extendqisi2
 443:Drivers/lvgl/src/core/lv_refr.c ****                               "%"LV_PRIu32 ".%"LV_PRIu32 " kB used (%d %%)\n"
 5497              		.loc 1 443 9 view .LVU1824
 5498 02d0 0190     		str	r0, [sp, #4]
 5499 02d2 0091     		str	r1, [sp]
 5500 02d4 9B09     		lsrs	r3, r3, #6
 5501              	.LVL522:
 443:Drivers/lvgl/src/core/lv_refr.c ****                               "%"LV_PRIu32 ".%"LV_PRIu32 " kB used (%d %%)\n"
 5502              		.loc 1 443 9 view .LVU1825
 5503 02d6 920A     		lsrs	r2, r2, #10
 5504              	.LVL523:
 443:Drivers/lvgl/src/core/lv_refr.c ****                               "%"LV_PRIu32 ".%"LV_PRIu32 " kB used (%d %%)\n"
 5505              		.loc 1 443 9 view .LVU1826
 5506 02d8 0949     		ldr	r1, .L341+28
 5507 02da 2046     		mov	r0, r4
 5508 02dc FFF7FEFF 		bl	lv_label_set_text_fmt
 5509              	.LVL524:
 443:Drivers/lvgl/src/core/lv_refr.c ****                               "%"LV_PRIu32 ".%"LV_PRIu32 " kB used (%d %%)\n"
 5510              		.loc 1 443 9 view .LVU1827
 5511              	.LBE191:
 451:Drivers/lvgl/src/core/lv_refr.c **** }
 5512              		.loc 1 451 27 is_stmt 1 view .LVU1828
 5513 02e0 32E7     		b	.L314
 5514              	.L342:
 5515 02e2 00BF     		.align	2
 5516              	.L341:
 5517 02e4 00000000 		.word	.LANCHOR0
 5518 02e8 00000000 		.word	.LANCHOR3
 5519 02ec 00000000 		.word	.LANCHOR1
 5520 02f0 00000000 		.word	.LANCHOR2
 5521 02f4 00000000 		.word	.LC0
 5522 02f8 04000000 		.word	.LC1
 5523 02fc A1A0A0A0 		.word	-1600085855
 5524 0300 18000000 		.word	.LC2
 5525              		.cfi_endproc
 5526              	.LFE173:
ARM GAS  /var/folders/0z/tsy30v1j4xl4_7kw94k978ww0000gn/T//ccRTPM70.s 			page 177


 5528              		.section	.text.lv_refr_now,"ax",%progbits
 5529              		.align	1
 5530              		.global	lv_refr_now
 5531              		.syntax unified
 5532              		.thumb
 5533              		.thumb_func
 5535              	lv_refr_now:
 5536              	.LVL525:
 5537              	.LFB168:
 114:Drivers/lvgl/src/core/lv_refr.c ****     lv_anim_refr_now();
 5538              		.loc 1 114 1 view -0
 5539              		.cfi_startproc
 5540              		@ args = 0, pretend = 0, frame = 0
 5541              		@ frame_needed = 0, uses_anonymous_args = 0
 114:Drivers/lvgl/src/core/lv_refr.c ****     lv_anim_refr_now();
 5542              		.loc 1 114 1 is_stmt 0 view .LVU1830
 5543 0000 10B5     		push	{r4, lr}
 5544              		.cfi_def_cfa_offset 8
 5545              		.cfi_offset 4, -8
 5546              		.cfi_offset 14, -4
 5547 0002 0446     		mov	r4, r0
 115:Drivers/lvgl/src/core/lv_refr.c **** 
 5548              		.loc 1 115 5 is_stmt 1 view .LVU1831
 5549 0004 FFF7FEFF 		bl	lv_anim_refr_now
 5550              	.LVL526:
 117:Drivers/lvgl/src/core/lv_refr.c ****         if(disp->refr_timer) _lv_disp_refr_timer(disp->refr_timer);
 5551              		.loc 1 117 5 view .LVU1832
 117:Drivers/lvgl/src/core/lv_refr.c ****         if(disp->refr_timer) _lv_disp_refr_timer(disp->refr_timer);
 5552              		.loc 1 117 7 is_stmt 0 view .LVU1833
 5553 0008 24B1     		cbz	r4, .L344
 118:Drivers/lvgl/src/core/lv_refr.c ****     }
 5554              		.loc 1 118 9 is_stmt 1 view .LVU1834
 118:Drivers/lvgl/src/core/lv_refr.c ****     }
 5555              		.loc 1 118 16 is_stmt 0 view .LVU1835
 5556 000a 6068     		ldr	r0, [r4, #4]
 118:Drivers/lvgl/src/core/lv_refr.c ****     }
 5557              		.loc 1 118 11 view .LVU1836
 5558 000c 08B1     		cbz	r0, .L343
 118:Drivers/lvgl/src/core/lv_refr.c ****     }
 5559              		.loc 1 118 30 is_stmt 1 discriminator 1 view .LVU1837
 5560 000e FFF7FEFF 		bl	_lv_disp_refr_timer
 5561              	.LVL527:
 5562              	.L343:
 128:Drivers/lvgl/src/core/lv_refr.c **** 
 5563              		.loc 1 128 1 is_stmt 0 view .LVU1838
 5564 0012 10BD     		pop	{r4, pc}
 5565              	.LVL528:
 5566              	.L344:
 5567              	.LBB192:
 121:Drivers/lvgl/src/core/lv_refr.c ****         d = lv_disp_get_next(NULL);
 5568              		.loc 1 121 9 is_stmt 1 view .LVU1839
 122:Drivers/lvgl/src/core/lv_refr.c ****         while(d) {
 5569              		.loc 1 122 9 view .LVU1840
 122:Drivers/lvgl/src/core/lv_refr.c ****         while(d) {
 5570              		.loc 1 122 13 is_stmt 0 view .LVU1841
 5571 0014 0020     		movs	r0, #0
 5572 0016 FFF7FEFF 		bl	lv_disp_get_next
ARM GAS  /var/folders/0z/tsy30v1j4xl4_7kw94k978ww0000gn/T//ccRTPM70.s 			page 178


 5573              	.LVL529:
 5574 001a 0446     		mov	r4, r0
 5575              	.LVL530:
 123:Drivers/lvgl/src/core/lv_refr.c ****             if(d->refr_timer) _lv_disp_refr_timer(d->refr_timer);
 5576              		.loc 1 123 9 is_stmt 1 view .LVU1842
 123:Drivers/lvgl/src/core/lv_refr.c ****             if(d->refr_timer) _lv_disp_refr_timer(d->refr_timer);
 5577              		.loc 1 123 14 is_stmt 0 view .LVU1843
 5578 001c 03E0     		b	.L346
 5579              	.LVL531:
 5580              	.L347:
 125:Drivers/lvgl/src/core/lv_refr.c ****         }
 5581              		.loc 1 125 13 is_stmt 1 view .LVU1844
 125:Drivers/lvgl/src/core/lv_refr.c ****         }
 5582              		.loc 1 125 17 is_stmt 0 view .LVU1845
 5583 001e 2046     		mov	r0, r4
 5584 0020 FFF7FEFF 		bl	lv_disp_get_next
 5585              	.LVL532:
 5586 0024 0446     		mov	r4, r0
 5587              	.LVL533:
 5588              	.L346:
 123:Drivers/lvgl/src/core/lv_refr.c ****             if(d->refr_timer) _lv_disp_refr_timer(d->refr_timer);
 5589              		.loc 1 123 15 is_stmt 1 view .LVU1846
 5590 0026 002C     		cmp	r4, #0
 5591 0028 F3D0     		beq	.L343
 124:Drivers/lvgl/src/core/lv_refr.c ****             d = lv_disp_get_next(d);
 5592              		.loc 1 124 13 view .LVU1847
 124:Drivers/lvgl/src/core/lv_refr.c ****             d = lv_disp_get_next(d);
 5593              		.loc 1 124 17 is_stmt 0 view .LVU1848
 5594 002a 6068     		ldr	r0, [r4, #4]
 5595              	.LVL534:
 124:Drivers/lvgl/src/core/lv_refr.c ****             d = lv_disp_get_next(d);
 5596              		.loc 1 124 15 view .LVU1849
 5597 002c 0028     		cmp	r0, #0
 5598 002e F6D0     		beq	.L347
 124:Drivers/lvgl/src/core/lv_refr.c ****             d = lv_disp_get_next(d);
 5599              		.loc 1 124 31 is_stmt 1 discriminator 1 view .LVU1850
 5600 0030 FFF7FEFF 		bl	_lv_disp_refr_timer
 5601              	.LVL535:
 5602 0034 F3E7     		b	.L347
 5603              	.LBE192:
 5604              		.cfi_endproc
 5605              	.LFE168:
 5607              		.section	.text.lv_refr_reset_fps_counter,"ax",%progbits
 5608              		.align	1
 5609              		.global	lv_refr_reset_fps_counter
 5610              		.syntax unified
 5611              		.thumb
 5612              		.thumb_func
 5614              	lv_refr_reset_fps_counter:
 5615              	.LFB174:
 456:Drivers/lvgl/src/core/lv_refr.c ****     perf_monitor.fps_sum_all = 0;
 5616              		.loc 1 456 1 view -0
 5617              		.cfi_startproc
 5618              		@ args = 0, pretend = 0, frame = 0
 5619              		@ frame_needed = 0, uses_anonymous_args = 0
 5620              		@ link register save eliminated.
 457:Drivers/lvgl/src/core/lv_refr.c ****     perf_monitor.fps_sum_cnt = 0;
ARM GAS  /var/folders/0z/tsy30v1j4xl4_7kw94k978ww0000gn/T//ccRTPM70.s 			page 179


 5621              		.loc 1 457 5 view .LVU1852
 457:Drivers/lvgl/src/core/lv_refr.c ****     perf_monitor.fps_sum_cnt = 0;
 5622              		.loc 1 457 30 is_stmt 0 view .LVU1853
 5623 0000 024B     		ldr	r3, .L351
 5624 0002 0022     		movs	r2, #0
 5625 0004 1A61     		str	r2, [r3, #16]
 458:Drivers/lvgl/src/core/lv_refr.c **** }
 5626              		.loc 1 458 5 is_stmt 1 view .LVU1854
 458:Drivers/lvgl/src/core/lv_refr.c **** }
 5627              		.loc 1 458 30 is_stmt 0 view .LVU1855
 5628 0006 DA60     		str	r2, [r3, #12]
 459:Drivers/lvgl/src/core/lv_refr.c **** 
 5629              		.loc 1 459 1 view .LVU1856
 5630 0008 7047     		bx	lr
 5631              	.L352:
 5632 000a 00BF     		.align	2
 5633              	.L351:
 5634 000c 00000000 		.word	.LANCHOR1
 5635              		.cfi_endproc
 5636              	.LFE174:
 5638              		.section	.text.lv_refr_get_fps_avg,"ax",%progbits
 5639              		.align	1
 5640              		.global	lv_refr_get_fps_avg
 5641              		.syntax unified
 5642              		.thumb
 5643              		.thumb_func
 5645              	lv_refr_get_fps_avg:
 5646              	.LFB175:
 462:Drivers/lvgl/src/core/lv_refr.c ****     if(perf_monitor.fps_sum_cnt == 0) {
 5647              		.loc 1 462 1 is_stmt 1 view -0
 5648              		.cfi_startproc
 5649              		@ args = 0, pretend = 0, frame = 0
 5650              		@ frame_needed = 0, uses_anonymous_args = 0
 5651              		@ link register save eliminated.
 463:Drivers/lvgl/src/core/lv_refr.c ****         return 0;
 5652              		.loc 1 463 5 view .LVU1858
 463:Drivers/lvgl/src/core/lv_refr.c ****         return 0;
 5653              		.loc 1 463 20 is_stmt 0 view .LVU1859
 5654 0000 034B     		ldr	r3, .L355
 5655 0002 D868     		ldr	r0, [r3, #12]
 463:Drivers/lvgl/src/core/lv_refr.c ****         return 0;
 5656              		.loc 1 463 7 view .LVU1860
 5657 0004 10B1     		cbz	r0, .L353
 466:Drivers/lvgl/src/core/lv_refr.c **** }
 5658              		.loc 1 466 5 is_stmt 1 view .LVU1861
 466:Drivers/lvgl/src/core/lv_refr.c **** }
 5659              		.loc 1 466 24 is_stmt 0 view .LVU1862
 5660 0006 1B69     		ldr	r3, [r3, #16]
 466:Drivers/lvgl/src/core/lv_refr.c **** }
 5661              		.loc 1 466 37 view .LVU1863
 5662 0008 B3FBF0F0 		udiv	r0, r3, r0
 5663              	.L353:
 467:Drivers/lvgl/src/core/lv_refr.c **** #endif
 5664              		.loc 1 467 1 view .LVU1864
 5665 000c 7047     		bx	lr
 5666              	.L356:
 5667 000e 00BF     		.align	2
ARM GAS  /var/folders/0z/tsy30v1j4xl4_7kw94k978ww0000gn/T//ccRTPM70.s 			page 180


 5668              	.L355:
 5669 0010 00000000 		.word	.LANCHOR1
 5670              		.cfi_endproc
 5671              	.LFE175:
 5673              		.section	.bss.disp_refr,"aw",%nobits
 5674              		.align	2
 5675              		.set	.LANCHOR0,. + 0
 5678              	disp_refr:
 5679 0000 00000000 		.space	4
 5680              		.section	.bss.mem_monitor,"aw",%nobits
 5681              		.align	2
 5682              		.set	.LANCHOR2,. + 0
 5685              	mem_monitor:
 5686 0000 00000000 		.space	8
 5686      00000000 
 5687              		.section	.bss.perf_monitor,"aw",%nobits
 5688              		.align	2
 5689              		.set	.LANCHOR1,. + 0
 5692              	perf_monitor:
 5693 0000 00000000 		.space	24
 5693      00000000 
 5693      00000000 
 5693      00000000 
 5693      00000000 
 5694              		.section	.bss.px_num,"aw",%nobits
 5695              		.align	2
 5696              		.set	.LANCHOR3,. + 0
 5699              	px_num:
 5700 0000 00000000 		.space	4
 5701              		.text
 5702              	.Letext0:
 5703              		.file 6 "/Users/johannes/Library/Application Support/Code/User/globalStorage/bmd.stm32-for-vscode/
 5704              		.file 7 "/Users/johannes/Library/Application Support/Code/User/globalStorage/bmd.stm32-for-vscode/
 5705              		.file 8 "/Users/johannes/Library/Application Support/Code/User/globalStorage/bmd.stm32-for-vscode/
 5706              		.file 9 "Drivers/lvgl/src/core/../misc/../font/lv_font.h"
 5707              		.file 10 "Drivers/lvgl/src/core/../misc/lv_types.h"
 5708              		.file 11 "Drivers/lvgl/src/core/../misc/lv_mem.h"
 5709              		.file 12 "Drivers/lvgl/src/core/../misc/lv_txt.h"
 5710              		.file 13 "Drivers/lvgl/src/core/../misc/lv_bidi.h"
 5711              		.file 14 "Drivers/lvgl/src/core/../misc/lv_style.h"
 5712              		.file 15 "Drivers/lvgl/src/core/../hal/../draw/lv_img_buf.h"
 5713              		.file 16 "Drivers/lvgl/src/core/lv_obj.h"
 5714              		.file 17 "Drivers/lvgl/src/core/../hal/../draw/lv_draw_rect.h"
 5715              		.file 18 "Drivers/lvgl/src/core/../hal/../draw/lv_draw_label.h"
 5716              		.file 19 "Drivers/lvgl/src/core/../hal/../draw/lv_draw_img.h"
 5717              		.file 20 "Drivers/lvgl/src/core/../hal/../draw/lv_draw_line.h"
 5718              		.file 21 "Drivers/lvgl/src/core/../hal/../draw/lv_draw_arc.h"
 5719              		.file 22 "Drivers/lvgl/src/core/../hal/../draw/lv_draw_layer.h"
 5720              		.file 23 "Drivers/lvgl/src/core/../hal/../draw/lv_draw.h"
 5721              		.file 24 "Drivers/lvgl/src/core/../hal/../misc/lv_ll.h"
 5722              		.file 25 "Drivers/lvgl/src/core/../hal/../misc/lv_timer.h"
 5723              		.file 26 "Drivers/lvgl/src/core/../hal/lv_hal_disp.h"
 5724              		.file 27 "Drivers/lvgl/src/core/lv_theme.h"
 5725              		.file 28 "Drivers/lvgl/src/core/lv_group.h"
 5726              		.file 29 "Drivers/lvgl/src/core/lv_obj_scroll.h"
 5727              		.file 30 "Drivers/lvgl/src/core/lv_obj_style.h"
 5728              		.file 31 "Drivers/lvgl/src/core/lv_obj_draw.h"
ARM GAS  /var/folders/0z/tsy30v1j4xl4_7kw94k978ww0000gn/T//ccRTPM70.s 			page 181


 5729              		.file 32 "Drivers/lvgl/src/core/lv_obj_class.h"
 5730              		.file 33 "Drivers/lvgl/src/core/lv_event.h"
 5731              		.file 34 "Drivers/lvgl/src/core/lv_obj_tree.h"
 5732              		.file 35 "Drivers/lvgl/src/core/../hal/../draw/lv_img_decoder.h"
 5733              		.file 36 "Drivers/lvgl/src/core/../widgets/lv_label.h"
 5734              		.file 37 "Drivers/lvgl/src/core/../hal/../draw/sw/../../core/lv_obj_pos.h"
 5735              		.file 38 "Drivers/lvgl/src/core/../hal/../draw/lv_draw_mask.h"
 5736              		.file 39 "Drivers/lvgl/src/core/../font/lv_font_fmt_txt.h"
 5737              		.file 40 "Drivers/lvgl/src/core/../hal/../misc/../hal/lv_hal_tick.h"
 5738              		.file 41 "Drivers/lvgl/src/core/../misc/lv_anim.h"
 5739              		.file 42 "<built-in>"
ARM GAS  /var/folders/0z/tsy30v1j4xl4_7kw94k978ww0000gn/T//ccRTPM70.s 			page 182


DEFINED SYMBOLS
                            *ABS*:0000000000000000 lv_refr.c
/var/folders/0z/tsy30v1j4xl4_7kw94k978ww0000gn/T//ccRTPM70.s:20     .text.get_max_row:0000000000000000 $t
/var/folders/0z/tsy30v1j4xl4_7kw94k978ww0000gn/T//ccRTPM70.s:25     .text.get_max_row:0000000000000000 get_max_row
/var/folders/0z/tsy30v1j4xl4_7kw94k978ww0000gn/T//ccRTPM70.s:179    .text.get_max_row:0000000000000074 $d
/var/folders/0z/tsy30v1j4xl4_7kw94k978ww0000gn/T//ccRTPM70.s:185    .text.draw_buf_rotate_180:0000000000000000 $t
/var/folders/0z/tsy30v1j4xl4_7kw94k978ww0000gn/T//ccRTPM70.s:190    .text.draw_buf_rotate_180:0000000000000000 draw_buf_rotate_180
/var/folders/0z/tsy30v1j4xl4_7kw94k978ww0000gn/T//ccRTPM70.s:349    .text.draw_buf_rotate_90:0000000000000000 $t
/var/folders/0z/tsy30v1j4xl4_7kw94k978ww0000gn/T//ccRTPM70.s:354    .text.draw_buf_rotate_90:0000000000000000 draw_buf_rotate_90
/var/folders/0z/tsy30v1j4xl4_7kw94k978ww0000gn/T//ccRTPM70.s:475    .text.draw_buf_rotate_90_sqr:0000000000000000 $t
/var/folders/0z/tsy30v1j4xl4_7kw94k978ww0000gn/T//ccRTPM70.s:480    .text.draw_buf_rotate_90_sqr:0000000000000000 draw_buf_rotate_90_sqr
/var/folders/0z/tsy30v1j4xl4_7kw94k978ww0000gn/T//ccRTPM70.s:667    .text.call_flush_cb:0000000000000000 $t
/var/folders/0z/tsy30v1j4xl4_7kw94k978ww0000gn/T//ccRTPM70.s:672    .text.call_flush_cb:0000000000000000 call_flush_cb
/var/folders/0z/tsy30v1j4xl4_7kw94k978ww0000gn/T//ccRTPM70.s:733    .text.perf_monitor_init:0000000000000000 $t
/var/folders/0z/tsy30v1j4xl4_7kw94k978ww0000gn/T//ccRTPM70.s:738    .text.perf_monitor_init:0000000000000000 perf_monitor_init
/var/folders/0z/tsy30v1j4xl4_7kw94k978ww0000gn/T//ccRTPM70.s:783    .text.mem_monitor_init:0000000000000000 $t
/var/folders/0z/tsy30v1j4xl4_7kw94k978ww0000gn/T//ccRTPM70.s:788    .text.mem_monitor_init:0000000000000000 mem_monitor_init
/var/folders/0z/tsy30v1j4xl4_7kw94k978ww0000gn/T//ccRTPM70.s:821    .text.lv_refr_get_top_obj:0000000000000000 $t
/var/folders/0z/tsy30v1j4xl4_7kw94k978ww0000gn/T//ccRTPM70.s:826    .text.lv_refr_get_top_obj:0000000000000000 lv_refr_get_top_obj
/var/folders/0z/tsy30v1j4xl4_7kw94k978ww0000gn/T//ccRTPM70.s:979    .text.layer_get_area:0000000000000000 $t
/var/folders/0z/tsy30v1j4xl4_7kw94k978ww0000gn/T//ccRTPM70.s:984    .text.layer_get_area:0000000000000000 layer_get_area
/var/folders/0z/tsy30v1j4xl4_7kw94k978ww0000gn/T//ccRTPM70.s:1137   .text.layer_alpha_test:0000000000000000 $t
/var/folders/0z/tsy30v1j4xl4_7kw94k978ww0000gn/T//ccRTPM70.s:1142   .text.layer_alpha_test:0000000000000000 layer_alpha_test
/var/folders/0z/tsy30v1j4xl4_7kw94k978ww0000gn/T//ccRTPM70.s:1270   .text.lv_refr_join_area:0000000000000000 $t
/var/folders/0z/tsy30v1j4xl4_7kw94k978ww0000gn/T//ccRTPM70.s:1275   .text.lv_refr_join_area:0000000000000000 lv_refr_join_area
/var/folders/0z/tsy30v1j4xl4_7kw94k978ww0000gn/T//ccRTPM70.s:1455   .text.lv_refr_join_area:00000000000000d0 $d
/var/folders/0z/tsy30v1j4xl4_7kw94k978ww0000gn/T//ccRTPM70.s:1460   .text.refr_sync_areas:0000000000000000 $t
/var/folders/0z/tsy30v1j4xl4_7kw94k978ww0000gn/T//ccRTPM70.s:1465   .text.refr_sync_areas:0000000000000000 refr_sync_areas
/var/folders/0z/tsy30v1j4xl4_7kw94k978ww0000gn/T//ccRTPM70.s:1746   .text.refr_sync_areas:0000000000000140 $d
/var/folders/0z/tsy30v1j4xl4_7kw94k978ww0000gn/T//ccRTPM70.s:1751   .text.draw_buf_rotate:0000000000000000 $t
/var/folders/0z/tsy30v1j4xl4_7kw94k978ww0000gn/T//ccRTPM70.s:1756   .text.draw_buf_rotate:0000000000000000 draw_buf_rotate
/var/folders/0z/tsy30v1j4xl4_7kw94k978ww0000gn/T//ccRTPM70.s:2226   .text.draw_buf_rotate:000000000000021c $d
/var/folders/0z/tsy30v1j4xl4_7kw94k978ww0000gn/T//ccRTPM70.s:2232   .text.draw_buf_flush:0000000000000000 $t
/var/folders/0z/tsy30v1j4xl4_7kw94k978ww0000gn/T//ccRTPM70.s:2237   .text.draw_buf_flush:0000000000000000 draw_buf_flush
/var/folders/0z/tsy30v1j4xl4_7kw94k978ww0000gn/T//ccRTPM70.s:2436   .text.draw_buf_flush:00000000000000c0 $d
/var/folders/0z/tsy30v1j4xl4_7kw94k978ww0000gn/T//ccRTPM70.s:2441   .text._lv_refr_init:0000000000000000 $t
/var/folders/0z/tsy30v1j4xl4_7kw94k978ww0000gn/T//ccRTPM70.s:2447   .text._lv_refr_init:0000000000000000 _lv_refr_init
/var/folders/0z/tsy30v1j4xl4_7kw94k978ww0000gn/T//ccRTPM70.s:2470   .text._lv_refr_init:0000000000000010 $d
/var/folders/0z/tsy30v1j4xl4_7kw94k978ww0000gn/T//ccRTPM70.s:2476   .text.lv_obj_redraw:0000000000000000 $t
/var/folders/0z/tsy30v1j4xl4_7kw94k978ww0000gn/T//ccRTPM70.s:2482   .text.lv_obj_redraw:0000000000000000 lv_obj_redraw
/var/folders/0z/tsy30v1j4xl4_7kw94k978ww0000gn/T//ccRTPM70.s:2722   .text.refr_obj:0000000000000000 refr_obj
/var/folders/0z/tsy30v1j4xl4_7kw94k978ww0000gn/T//ccRTPM70.s:2717   .text.refr_obj:0000000000000000 $t
/var/folders/0z/tsy30v1j4xl4_7kw94k978ww0000gn/T//ccRTPM70.s:3278   .text.refr_obj:0000000000000260 $d
/var/folders/0z/tsy30v1j4xl4_7kw94k978ww0000gn/T//ccRTPM70.s:3285   .text.refr_obj_and_children:0000000000000000 $t
/var/folders/0z/tsy30v1j4xl4_7kw94k978ww0000gn/T//ccRTPM70.s:3290   .text.refr_obj_and_children:0000000000000000 refr_obj_and_children
/var/folders/0z/tsy30v1j4xl4_7kw94k978ww0000gn/T//ccRTPM70.s:3460   .text.refr_obj_and_children:000000000000008c $d
/var/folders/0z/tsy30v1j4xl4_7kw94k978ww0000gn/T//ccRTPM70.s:3465   .text.refr_area_part:0000000000000000 $t
/var/folders/0z/tsy30v1j4xl4_7kw94k978ww0000gn/T//ccRTPM70.s:3470   .text.refr_area_part:0000000000000000 refr_area_part
/var/folders/0z/tsy30v1j4xl4_7kw94k978ww0000gn/T//ccRTPM70.s:3888   .text.refr_area_part:00000000000001c0 $d
/var/folders/0z/tsy30v1j4xl4_7kw94k978ww0000gn/T//ccRTPM70.s:3893   .text.refr_area:0000000000000000 $t
/var/folders/0z/tsy30v1j4xl4_7kw94k978ww0000gn/T//ccRTPM70.s:3898   .text.refr_area:0000000000000000 refr_area
/var/folders/0z/tsy30v1j4xl4_7kw94k978ww0000gn/T//ccRTPM70.s:4271   .text.refr_area:0000000000000190 $d
/var/folders/0z/tsy30v1j4xl4_7kw94k978ww0000gn/T//ccRTPM70.s:4276   .text.refr_invalid_areas:0000000000000000 $t
/var/folders/0z/tsy30v1j4xl4_7kw94k978ww0000gn/T//ccRTPM70.s:4281   .text.refr_invalid_areas:0000000000000000 refr_invalid_areas
/var/folders/0z/tsy30v1j4xl4_7kw94k978ww0000gn/T//ccRTPM70.s:4454   .text.refr_invalid_areas:00000000000000c0 $d
/var/folders/0z/tsy30v1j4xl4_7kw94k978ww0000gn/T//ccRTPM70.s:4460   .text._lv_inv_area:0000000000000000 $t
/var/folders/0z/tsy30v1j4xl4_7kw94k978ww0000gn/T//ccRTPM70.s:4466   .text._lv_inv_area:0000000000000000 _lv_inv_area
ARM GAS  /var/folders/0z/tsy30v1j4xl4_7kw94k978ww0000gn/T//ccRTPM70.s 			page 183


/var/folders/0z/tsy30v1j4xl4_7kw94k978ww0000gn/T//ccRTPM70.s:4748   .text._lv_refr_get_disp_refreshing:0000000000000000 $t
/var/folders/0z/tsy30v1j4xl4_7kw94k978ww0000gn/T//ccRTPM70.s:4754   .text._lv_refr_get_disp_refreshing:0000000000000000 _lv_refr_get_disp_refreshing
/var/folders/0z/tsy30v1j4xl4_7kw94k978ww0000gn/T//ccRTPM70.s:4769   .text._lv_refr_get_disp_refreshing:0000000000000008 $d
/var/folders/0z/tsy30v1j4xl4_7kw94k978ww0000gn/T//ccRTPM70.s:4774   .text._lv_refr_set_disp_refreshing:0000000000000000 $t
/var/folders/0z/tsy30v1j4xl4_7kw94k978ww0000gn/T//ccRTPM70.s:4780   .text._lv_refr_set_disp_refreshing:0000000000000000 _lv_refr_set_disp_refreshing
/var/folders/0z/tsy30v1j4xl4_7kw94k978ww0000gn/T//ccRTPM70.s:4797   .text._lv_refr_set_disp_refreshing:0000000000000008 $d
/var/folders/0z/tsy30v1j4xl4_7kw94k978ww0000gn/T//ccRTPM70.s:4802   .rodata._lv_disp_refr_timer.str1.4:0000000000000000 $d
/var/folders/0z/tsy30v1j4xl4_7kw94k978ww0000gn/T//ccRTPM70.s:4812   .text._lv_disp_refr_timer:0000000000000000 $t
/var/folders/0z/tsy30v1j4xl4_7kw94k978ww0000gn/T//ccRTPM70.s:4818   .text._lv_disp_refr_timer:0000000000000000 _lv_disp_refr_timer
/var/folders/0z/tsy30v1j4xl4_7kw94k978ww0000gn/T//ccRTPM70.s:5517   .text._lv_disp_refr_timer:00000000000002e4 $d
/var/folders/0z/tsy30v1j4xl4_7kw94k978ww0000gn/T//ccRTPM70.s:5529   .text.lv_refr_now:0000000000000000 $t
/var/folders/0z/tsy30v1j4xl4_7kw94k978ww0000gn/T//ccRTPM70.s:5535   .text.lv_refr_now:0000000000000000 lv_refr_now
/var/folders/0z/tsy30v1j4xl4_7kw94k978ww0000gn/T//ccRTPM70.s:5608   .text.lv_refr_reset_fps_counter:0000000000000000 $t
/var/folders/0z/tsy30v1j4xl4_7kw94k978ww0000gn/T//ccRTPM70.s:5614   .text.lv_refr_reset_fps_counter:0000000000000000 lv_refr_reset_fps_counter
/var/folders/0z/tsy30v1j4xl4_7kw94k978ww0000gn/T//ccRTPM70.s:5634   .text.lv_refr_reset_fps_counter:000000000000000c $d
/var/folders/0z/tsy30v1j4xl4_7kw94k978ww0000gn/T//ccRTPM70.s:5639   .text.lv_refr_get_fps_avg:0000000000000000 $t
/var/folders/0z/tsy30v1j4xl4_7kw94k978ww0000gn/T//ccRTPM70.s:5645   .text.lv_refr_get_fps_avg:0000000000000000 lv_refr_get_fps_avg
/var/folders/0z/tsy30v1j4xl4_7kw94k978ww0000gn/T//ccRTPM70.s:5669   .text.lv_refr_get_fps_avg:0000000000000010 $d
/var/folders/0z/tsy30v1j4xl4_7kw94k978ww0000gn/T//ccRTPM70.s:5674   .bss.disp_refr:0000000000000000 $d
/var/folders/0z/tsy30v1j4xl4_7kw94k978ww0000gn/T//ccRTPM70.s:5678   .bss.disp_refr:0000000000000000 disp_refr
/var/folders/0z/tsy30v1j4xl4_7kw94k978ww0000gn/T//ccRTPM70.s:5681   .bss.mem_monitor:0000000000000000 $d
/var/folders/0z/tsy30v1j4xl4_7kw94k978ww0000gn/T//ccRTPM70.s:5685   .bss.mem_monitor:0000000000000000 mem_monitor
/var/folders/0z/tsy30v1j4xl4_7kw94k978ww0000gn/T//ccRTPM70.s:5688   .bss.perf_monitor:0000000000000000 $d
/var/folders/0z/tsy30v1j4xl4_7kw94k978ww0000gn/T//ccRTPM70.s:5692   .bss.perf_monitor:0000000000000000 perf_monitor
/var/folders/0z/tsy30v1j4xl4_7kw94k978ww0000gn/T//ccRTPM70.s:5695   .bss.px_num:0000000000000000 $d
/var/folders/0z/tsy30v1j4xl4_7kw94k978ww0000gn/T//ccRTPM70.s:5699   .bss.px_num:0000000000000000 px_num

UNDEFINED SYMBOLS
_lv_area_is_in
lv_obj_has_flag
_lv_obj_get_layer_type
lv_event_send
lv_obj_get_child_cnt
_lv_obj_get_ext_draw_size
lv_obj_get_coords
lv_area_increase
lv_obj_get_transformed_area
_lv_area_intersect
lv_draw_layer_adjust
_lv_area_is_on
_lv_area_join
lv_area_get_size
_lv_ll_is_empty
lv_disp_get_hor_res
memset
_lv_ll_ins_prev
_lv_ll_remove
lv_mem_free
_lv_ll_get_next
_lv_area_diff
_lv_ll_get_head
_lv_ll_clear
lv_disp_get_draw_buf
lv_mem_buf_get
lv_mem_buf_release
lv_obj_get_style_prop
lv_draw_layer_create
ARM GAS  /var/folders/0z/tsy30v1j4xl4_7kw94k978ww0000gn/T//ccRTPM70.s 			page 184


lv_draw_img_dsc_init
lv_draw_layer_blend
lv_draw_layer_destroy
lv_obj_get_parent
lv_disp_get_scr_act
lv_disp_get_ver_res
lv_area_set
lv_draw_rect_dsc_init
lv_img_decoder_get_info
lv_draw_img
lv_draw_rect
lv_disp_get_layer_top
lv_disp_get_layer_sys
lv_disp_is_invalidation_enabled
lv_disp_get_default
lv_timer_resume
lv_tick_get
lv_obj_update_layout
_lv_ll_ins_tail
lv_memset_00
lv_tick_elaps
lv_mem_buf_free_all
_lv_font_clean_up_fmt_txt
_lv_draw_mask_cleanup
lv_label_create
lv_obj_set_style_bg_opa
lv_obj_set_style_bg_color
lv_obj_set_style_text_color
lv_obj_set_style_pad_top
lv_obj_set_style_pad_bottom
lv_obj_set_style_pad_left
lv_obj_set_style_pad_right
lv_obj_set_style_text_align
lv_label_set_text
lv_obj_align
lv_timer_get_idle
lv_label_set_text_fmt
lv_mem_monitor
lv_anim_refr_now
lv_disp_get_next
