ARM GAS  /var/folders/0z/tsy30v1j4xl4_7kw94k978ww0000gn/T//ccAguaVl.s 			page 1


   1              		.cpu cortex-m4
   2              		.arch armv7e-m
   3              		.fpu fpv4-sp-d16
   4              		.eabi_attribute 27, 1
   5              		.eabi_attribute 28, 1
   6              		.eabi_attribute 20, 1
   7              		.eabi_attribute 21, 1
   8              		.eabi_attribute 23, 3
   9              		.eabi_attribute 24, 1
  10              		.eabi_attribute 25, 1
  11              		.eabi_attribute 26, 1
  12              		.eabi_attribute 30, 1
  13              		.eabi_attribute 34, 1
  14              		.eabi_attribute 18, 4
  15              		.file	"lv_span.c"
  16              		.text
  17              	.Ltext0:
  18              		.cfi_sections	.debug_frame
  19              		.section	.text.lv_get_snippet_cnt,"ax",%progbits
  20              		.align	1
  21              		.syntax unified
  22              		.thumb
  23              		.thumb_func
  25              	lv_get_snippet_cnt:
  26              	.LFB231:
  27              		.file 1 "Drivers/lvgl/src/extra/widgets/span/lv_span.c"
   1:Drivers/lvgl/src/extra/widgets/span/lv_span.c **** /**
   2:Drivers/lvgl/src/extra/widgets/span/lv_span.c ****  * @file lv_span.c
   3:Drivers/lvgl/src/extra/widgets/span/lv_span.c ****  *
   4:Drivers/lvgl/src/extra/widgets/span/lv_span.c ****  */
   5:Drivers/lvgl/src/extra/widgets/span/lv_span.c **** 
   6:Drivers/lvgl/src/extra/widgets/span/lv_span.c **** /*********************
   7:Drivers/lvgl/src/extra/widgets/span/lv_span.c ****  *      INCLUDES
   8:Drivers/lvgl/src/extra/widgets/span/lv_span.c ****  *********************/
   9:Drivers/lvgl/src/extra/widgets/span/lv_span.c **** #include "lv_span.h"
  10:Drivers/lvgl/src/extra/widgets/span/lv_span.c **** 
  11:Drivers/lvgl/src/extra/widgets/span/lv_span.c **** #if LV_USE_SPAN != 0
  12:Drivers/lvgl/src/extra/widgets/span/lv_span.c **** 
  13:Drivers/lvgl/src/extra/widgets/span/lv_span.c **** #include "../../../misc/lv_assert.h"
  14:Drivers/lvgl/src/extra/widgets/span/lv_span.c **** 
  15:Drivers/lvgl/src/extra/widgets/span/lv_span.c **** /*********************
  16:Drivers/lvgl/src/extra/widgets/span/lv_span.c ****  *      DEFINES
  17:Drivers/lvgl/src/extra/widgets/span/lv_span.c ****  *********************/
  18:Drivers/lvgl/src/extra/widgets/span/lv_span.c **** #define MY_CLASS &lv_spangroup_class
  19:Drivers/lvgl/src/extra/widgets/span/lv_span.c **** 
  20:Drivers/lvgl/src/extra/widgets/span/lv_span.c **** /**********************
  21:Drivers/lvgl/src/extra/widgets/span/lv_span.c ****  *      TYPEDEFS
  22:Drivers/lvgl/src/extra/widgets/span/lv_span.c ****  **********************/
  23:Drivers/lvgl/src/extra/widgets/span/lv_span.c **** typedef struct {
  24:Drivers/lvgl/src/extra/widgets/span/lv_span.c ****     lv_span_t * span;
  25:Drivers/lvgl/src/extra/widgets/span/lv_span.c ****     const char * txt;
  26:Drivers/lvgl/src/extra/widgets/span/lv_span.c ****     const lv_font_t * font;
  27:Drivers/lvgl/src/extra/widgets/span/lv_span.c ****     uint16_t   bytes;
  28:Drivers/lvgl/src/extra/widgets/span/lv_span.c ****     lv_coord_t txt_w;
  29:Drivers/lvgl/src/extra/widgets/span/lv_span.c ****     lv_coord_t line_h;
  30:Drivers/lvgl/src/extra/widgets/span/lv_span.c ****     lv_coord_t letter_space;
  31:Drivers/lvgl/src/extra/widgets/span/lv_span.c **** } lv_snippet_t;
ARM GAS  /var/folders/0z/tsy30v1j4xl4_7kw94k978ww0000gn/T//ccAguaVl.s 			page 2


  32:Drivers/lvgl/src/extra/widgets/span/lv_span.c **** 
  33:Drivers/lvgl/src/extra/widgets/span/lv_span.c **** struct _snippet_stack {
  34:Drivers/lvgl/src/extra/widgets/span/lv_span.c ****     lv_snippet_t    stack[LV_SPAN_SNIPPET_STACK_SIZE];
  35:Drivers/lvgl/src/extra/widgets/span/lv_span.c ****     uint16_t        index;
  36:Drivers/lvgl/src/extra/widgets/span/lv_span.c **** };
  37:Drivers/lvgl/src/extra/widgets/span/lv_span.c **** 
  38:Drivers/lvgl/src/extra/widgets/span/lv_span.c **** /**********************
  39:Drivers/lvgl/src/extra/widgets/span/lv_span.c ****  *  STATIC PROTOTYPES
  40:Drivers/lvgl/src/extra/widgets/span/lv_span.c ****  **********************/
  41:Drivers/lvgl/src/extra/widgets/span/lv_span.c **** static void lv_spangroup_destructor(const lv_obj_class_t * class_p, lv_obj_t * obj);
  42:Drivers/lvgl/src/extra/widgets/span/lv_span.c **** static void lv_spangroup_constructor(const lv_obj_class_t * class_p, lv_obj_t * obj);
  43:Drivers/lvgl/src/extra/widgets/span/lv_span.c **** static void lv_spangroup_event(const lv_obj_class_t * class_p, lv_event_t * e);
  44:Drivers/lvgl/src/extra/widgets/span/lv_span.c **** static void draw_main(lv_event_t * e);
  45:Drivers/lvgl/src/extra/widgets/span/lv_span.c **** static void refresh_self_size(lv_obj_t * obj);
  46:Drivers/lvgl/src/extra/widgets/span/lv_span.c **** 
  47:Drivers/lvgl/src/extra/widgets/span/lv_span.c **** static const lv_font_t * lv_span_get_style_text_font(lv_obj_t * par, lv_span_t * span);
  48:Drivers/lvgl/src/extra/widgets/span/lv_span.c **** static lv_coord_t lv_span_get_style_text_letter_space(lv_obj_t * par, lv_span_t * span);
  49:Drivers/lvgl/src/extra/widgets/span/lv_span.c **** static lv_color_t lv_span_get_style_text_color(lv_obj_t * par, lv_span_t * span);
  50:Drivers/lvgl/src/extra/widgets/span/lv_span.c **** static lv_opa_t lv_span_get_style_text_opa(lv_obj_t * par, lv_span_t * span);
  51:Drivers/lvgl/src/extra/widgets/span/lv_span.c **** static lv_opa_t lv_span_get_style_text_blend_mode(lv_obj_t * par, lv_span_t * span);
  52:Drivers/lvgl/src/extra/widgets/span/lv_span.c **** static int32_t lv_span_get_style_text_decor(lv_obj_t * par, lv_span_t * span);
  53:Drivers/lvgl/src/extra/widgets/span/lv_span.c **** 
  54:Drivers/lvgl/src/extra/widgets/span/lv_span.c **** static inline void span_text_check(const char ** text);
  55:Drivers/lvgl/src/extra/widgets/span/lv_span.c **** static void lv_draw_span(lv_obj_t * obj, lv_draw_ctx_t * draw_ctx);
  56:Drivers/lvgl/src/extra/widgets/span/lv_span.c **** static bool lv_txt_get_snippet(const char * txt, const lv_font_t * font, lv_coord_t letter_space,
  57:Drivers/lvgl/src/extra/widgets/span/lv_span.c ****                                lv_coord_t max_width, lv_text_flag_t flag, lv_coord_t * use_width,
  58:Drivers/lvgl/src/extra/widgets/span/lv_span.c ****                                uint32_t * end_ofs);
  59:Drivers/lvgl/src/extra/widgets/span/lv_span.c **** 
  60:Drivers/lvgl/src/extra/widgets/span/lv_span.c **** static void lv_snippet_clear(void);
  61:Drivers/lvgl/src/extra/widgets/span/lv_span.c **** static uint16_t lv_get_snippet_cnt(void);
  62:Drivers/lvgl/src/extra/widgets/span/lv_span.c **** static void lv_snippet_push(lv_snippet_t * item);
  63:Drivers/lvgl/src/extra/widgets/span/lv_span.c **** static lv_snippet_t * lv_get_snippet(uint16_t index);
  64:Drivers/lvgl/src/extra/widgets/span/lv_span.c **** static lv_coord_t convert_indent_pct(lv_obj_t * spans, lv_coord_t width);
  65:Drivers/lvgl/src/extra/widgets/span/lv_span.c **** 
  66:Drivers/lvgl/src/extra/widgets/span/lv_span.c **** /**********************
  67:Drivers/lvgl/src/extra/widgets/span/lv_span.c ****  *  STATIC VARIABLES
  68:Drivers/lvgl/src/extra/widgets/span/lv_span.c ****  **********************/
  69:Drivers/lvgl/src/extra/widgets/span/lv_span.c **** static struct _snippet_stack snippet_stack;
  70:Drivers/lvgl/src/extra/widgets/span/lv_span.c **** 
  71:Drivers/lvgl/src/extra/widgets/span/lv_span.c **** const lv_obj_class_t lv_spangroup_class  = {
  72:Drivers/lvgl/src/extra/widgets/span/lv_span.c ****     .base_class = &lv_obj_class,
  73:Drivers/lvgl/src/extra/widgets/span/lv_span.c ****     .constructor_cb = lv_spangroup_constructor,
  74:Drivers/lvgl/src/extra/widgets/span/lv_span.c ****     .destructor_cb = lv_spangroup_destructor,
  75:Drivers/lvgl/src/extra/widgets/span/lv_span.c ****     .event_cb = lv_spangroup_event,
  76:Drivers/lvgl/src/extra/widgets/span/lv_span.c ****     .instance_size = sizeof(lv_spangroup_t),
  77:Drivers/lvgl/src/extra/widgets/span/lv_span.c ****     .width_def = LV_SIZE_CONTENT,
  78:Drivers/lvgl/src/extra/widgets/span/lv_span.c ****     .height_def = LV_SIZE_CONTENT,
  79:Drivers/lvgl/src/extra/widgets/span/lv_span.c **** };
  80:Drivers/lvgl/src/extra/widgets/span/lv_span.c **** 
  81:Drivers/lvgl/src/extra/widgets/span/lv_span.c **** /**********************
  82:Drivers/lvgl/src/extra/widgets/span/lv_span.c ****  *      MACROS
  83:Drivers/lvgl/src/extra/widgets/span/lv_span.c ****  **********************/
  84:Drivers/lvgl/src/extra/widgets/span/lv_span.c **** 
  85:Drivers/lvgl/src/extra/widgets/span/lv_span.c **** /**********************
  86:Drivers/lvgl/src/extra/widgets/span/lv_span.c ****  *   GLOBAL FUNCTIONS
  87:Drivers/lvgl/src/extra/widgets/span/lv_span.c ****  **********************/
  88:Drivers/lvgl/src/extra/widgets/span/lv_span.c **** 
ARM GAS  /var/folders/0z/tsy30v1j4xl4_7kw94k978ww0000gn/T//ccAguaVl.s 			page 3


  89:Drivers/lvgl/src/extra/widgets/span/lv_span.c **** lv_obj_t * lv_spangroup_create(lv_obj_t * par)
  90:Drivers/lvgl/src/extra/widgets/span/lv_span.c **** {
  91:Drivers/lvgl/src/extra/widgets/span/lv_span.c ****     lv_obj_t * obj = lv_obj_class_create_obj(&lv_spangroup_class, par);
  92:Drivers/lvgl/src/extra/widgets/span/lv_span.c ****     lv_obj_class_init_obj(obj);
  93:Drivers/lvgl/src/extra/widgets/span/lv_span.c ****     return obj;
  94:Drivers/lvgl/src/extra/widgets/span/lv_span.c **** }
  95:Drivers/lvgl/src/extra/widgets/span/lv_span.c **** 
  96:Drivers/lvgl/src/extra/widgets/span/lv_span.c **** lv_span_t * lv_spangroup_new_span(lv_obj_t * obj)
  97:Drivers/lvgl/src/extra/widgets/span/lv_span.c **** {
  98:Drivers/lvgl/src/extra/widgets/span/lv_span.c ****     if(obj == NULL) {
  99:Drivers/lvgl/src/extra/widgets/span/lv_span.c ****         return NULL;
 100:Drivers/lvgl/src/extra/widgets/span/lv_span.c ****     }
 101:Drivers/lvgl/src/extra/widgets/span/lv_span.c **** 
 102:Drivers/lvgl/src/extra/widgets/span/lv_span.c ****     LV_ASSERT_OBJ(obj, MY_CLASS);
 103:Drivers/lvgl/src/extra/widgets/span/lv_span.c ****     lv_spangroup_t * spans = (lv_spangroup_t *)obj;
 104:Drivers/lvgl/src/extra/widgets/span/lv_span.c ****     lv_span_t * span = _lv_ll_ins_tail(&spans->child_ll);
 105:Drivers/lvgl/src/extra/widgets/span/lv_span.c ****     LV_ASSERT_MALLOC(span);
 106:Drivers/lvgl/src/extra/widgets/span/lv_span.c **** 
 107:Drivers/lvgl/src/extra/widgets/span/lv_span.c ****     lv_style_init(&span->style);
 108:Drivers/lvgl/src/extra/widgets/span/lv_span.c ****     span->txt = (char *)"";
 109:Drivers/lvgl/src/extra/widgets/span/lv_span.c ****     span->static_flag = 1;
 110:Drivers/lvgl/src/extra/widgets/span/lv_span.c ****     span->spangroup = obj;
 111:Drivers/lvgl/src/extra/widgets/span/lv_span.c **** 
 112:Drivers/lvgl/src/extra/widgets/span/lv_span.c ****     refresh_self_size(obj);
 113:Drivers/lvgl/src/extra/widgets/span/lv_span.c **** 
 114:Drivers/lvgl/src/extra/widgets/span/lv_span.c ****     return span;
 115:Drivers/lvgl/src/extra/widgets/span/lv_span.c **** }
 116:Drivers/lvgl/src/extra/widgets/span/lv_span.c **** 
 117:Drivers/lvgl/src/extra/widgets/span/lv_span.c **** void lv_spangroup_del_span(lv_obj_t * obj, lv_span_t * span)
 118:Drivers/lvgl/src/extra/widgets/span/lv_span.c **** {
 119:Drivers/lvgl/src/extra/widgets/span/lv_span.c ****     if(obj == NULL || span == NULL) {
 120:Drivers/lvgl/src/extra/widgets/span/lv_span.c ****         return;
 121:Drivers/lvgl/src/extra/widgets/span/lv_span.c ****     }
 122:Drivers/lvgl/src/extra/widgets/span/lv_span.c **** 
 123:Drivers/lvgl/src/extra/widgets/span/lv_span.c ****     LV_ASSERT_OBJ(obj, MY_CLASS);
 124:Drivers/lvgl/src/extra/widgets/span/lv_span.c ****     lv_spangroup_t * spans = (lv_spangroup_t *)obj;
 125:Drivers/lvgl/src/extra/widgets/span/lv_span.c ****     lv_span_t * cur_span;
 126:Drivers/lvgl/src/extra/widgets/span/lv_span.c ****     _LV_LL_READ(&spans->child_ll, cur_span) {
 127:Drivers/lvgl/src/extra/widgets/span/lv_span.c ****         if(cur_span == span) {
 128:Drivers/lvgl/src/extra/widgets/span/lv_span.c ****             _lv_ll_remove(&spans->child_ll, cur_span);
 129:Drivers/lvgl/src/extra/widgets/span/lv_span.c ****             if(cur_span->txt && cur_span->static_flag == 0) {
 130:Drivers/lvgl/src/extra/widgets/span/lv_span.c ****                 lv_mem_free(cur_span->txt);
 131:Drivers/lvgl/src/extra/widgets/span/lv_span.c ****             }
 132:Drivers/lvgl/src/extra/widgets/span/lv_span.c ****             lv_style_reset(&cur_span->style);
 133:Drivers/lvgl/src/extra/widgets/span/lv_span.c ****             lv_mem_free(cur_span);
 134:Drivers/lvgl/src/extra/widgets/span/lv_span.c ****             break;
 135:Drivers/lvgl/src/extra/widgets/span/lv_span.c ****         }
 136:Drivers/lvgl/src/extra/widgets/span/lv_span.c ****     }
 137:Drivers/lvgl/src/extra/widgets/span/lv_span.c **** 
 138:Drivers/lvgl/src/extra/widgets/span/lv_span.c ****     refresh_self_size(obj);
 139:Drivers/lvgl/src/extra/widgets/span/lv_span.c **** }
 140:Drivers/lvgl/src/extra/widgets/span/lv_span.c **** 
 141:Drivers/lvgl/src/extra/widgets/span/lv_span.c **** /*=====================
 142:Drivers/lvgl/src/extra/widgets/span/lv_span.c ****  * Setter functions
 143:Drivers/lvgl/src/extra/widgets/span/lv_span.c ****  *====================*/
 144:Drivers/lvgl/src/extra/widgets/span/lv_span.c **** 
 145:Drivers/lvgl/src/extra/widgets/span/lv_span.c **** void lv_span_set_text(lv_span_t * span, const char * text)
ARM GAS  /var/folders/0z/tsy30v1j4xl4_7kw94k978ww0000gn/T//ccAguaVl.s 			page 4


 146:Drivers/lvgl/src/extra/widgets/span/lv_span.c **** {
 147:Drivers/lvgl/src/extra/widgets/span/lv_span.c ****     if(span == NULL || text == NULL) {
 148:Drivers/lvgl/src/extra/widgets/span/lv_span.c ****         return;
 149:Drivers/lvgl/src/extra/widgets/span/lv_span.c ****     }
 150:Drivers/lvgl/src/extra/widgets/span/lv_span.c **** 
 151:Drivers/lvgl/src/extra/widgets/span/lv_span.c ****     if(span->txt == NULL || span->static_flag == 1) {
 152:Drivers/lvgl/src/extra/widgets/span/lv_span.c ****         span->txt = lv_mem_alloc(strlen(text) + 1);
 153:Drivers/lvgl/src/extra/widgets/span/lv_span.c ****     }
 154:Drivers/lvgl/src/extra/widgets/span/lv_span.c ****     else {
 155:Drivers/lvgl/src/extra/widgets/span/lv_span.c ****         span->txt = lv_mem_realloc(span->txt, strlen(text) + 1);
 156:Drivers/lvgl/src/extra/widgets/span/lv_span.c ****     }
 157:Drivers/lvgl/src/extra/widgets/span/lv_span.c ****     span->static_flag = 0;
 158:Drivers/lvgl/src/extra/widgets/span/lv_span.c ****     strcpy(span->txt, text);
 159:Drivers/lvgl/src/extra/widgets/span/lv_span.c **** 
 160:Drivers/lvgl/src/extra/widgets/span/lv_span.c ****     refresh_self_size(span->spangroup);
 161:Drivers/lvgl/src/extra/widgets/span/lv_span.c **** }
 162:Drivers/lvgl/src/extra/widgets/span/lv_span.c **** 
 163:Drivers/lvgl/src/extra/widgets/span/lv_span.c **** void lv_span_set_text_static(lv_span_t * span, const char * text)
 164:Drivers/lvgl/src/extra/widgets/span/lv_span.c **** {
 165:Drivers/lvgl/src/extra/widgets/span/lv_span.c ****     if(span == NULL || text == NULL) {
 166:Drivers/lvgl/src/extra/widgets/span/lv_span.c ****         return;
 167:Drivers/lvgl/src/extra/widgets/span/lv_span.c ****     }
 168:Drivers/lvgl/src/extra/widgets/span/lv_span.c **** 
 169:Drivers/lvgl/src/extra/widgets/span/lv_span.c ****     if(span->txt && span->static_flag == 0) {
 170:Drivers/lvgl/src/extra/widgets/span/lv_span.c ****         lv_mem_free(span->txt);
 171:Drivers/lvgl/src/extra/widgets/span/lv_span.c ****     }
 172:Drivers/lvgl/src/extra/widgets/span/lv_span.c ****     span->static_flag = 1;
 173:Drivers/lvgl/src/extra/widgets/span/lv_span.c ****     span->txt = (char *)text;
 174:Drivers/lvgl/src/extra/widgets/span/lv_span.c **** 
 175:Drivers/lvgl/src/extra/widgets/span/lv_span.c ****     refresh_self_size(span->spangroup);
 176:Drivers/lvgl/src/extra/widgets/span/lv_span.c **** }
 177:Drivers/lvgl/src/extra/widgets/span/lv_span.c **** 
 178:Drivers/lvgl/src/extra/widgets/span/lv_span.c **** void lv_spangroup_set_align(lv_obj_t * obj, lv_text_align_t align)
 179:Drivers/lvgl/src/extra/widgets/span/lv_span.c **** {
 180:Drivers/lvgl/src/extra/widgets/span/lv_span.c ****     lv_obj_set_style_text_align(obj, align, LV_PART_MAIN);
 181:Drivers/lvgl/src/extra/widgets/span/lv_span.c **** }
 182:Drivers/lvgl/src/extra/widgets/span/lv_span.c **** 
 183:Drivers/lvgl/src/extra/widgets/span/lv_span.c **** void lv_spangroup_set_overflow(lv_obj_t * obj, lv_span_overflow_t overflow)
 184:Drivers/lvgl/src/extra/widgets/span/lv_span.c **** {
 185:Drivers/lvgl/src/extra/widgets/span/lv_span.c ****     LV_ASSERT_OBJ(obj, MY_CLASS);
 186:Drivers/lvgl/src/extra/widgets/span/lv_span.c ****     lv_spangroup_t * spans = (lv_spangroup_t *)obj;
 187:Drivers/lvgl/src/extra/widgets/span/lv_span.c ****     if(spans->overflow == overflow) return;
 188:Drivers/lvgl/src/extra/widgets/span/lv_span.c **** 
 189:Drivers/lvgl/src/extra/widgets/span/lv_span.c ****     spans->overflow = overflow;
 190:Drivers/lvgl/src/extra/widgets/span/lv_span.c ****     lv_obj_invalidate(obj);
 191:Drivers/lvgl/src/extra/widgets/span/lv_span.c **** }
 192:Drivers/lvgl/src/extra/widgets/span/lv_span.c **** 
 193:Drivers/lvgl/src/extra/widgets/span/lv_span.c **** void lv_spangroup_set_indent(lv_obj_t * obj, lv_coord_t indent)
 194:Drivers/lvgl/src/extra/widgets/span/lv_span.c **** {
 195:Drivers/lvgl/src/extra/widgets/span/lv_span.c ****     LV_ASSERT_OBJ(obj, MY_CLASS);
 196:Drivers/lvgl/src/extra/widgets/span/lv_span.c ****     lv_spangroup_t * spans = (lv_spangroup_t *)obj;
 197:Drivers/lvgl/src/extra/widgets/span/lv_span.c ****     if(spans->indent == indent) return;
 198:Drivers/lvgl/src/extra/widgets/span/lv_span.c **** 
 199:Drivers/lvgl/src/extra/widgets/span/lv_span.c ****     spans->indent = indent;
 200:Drivers/lvgl/src/extra/widgets/span/lv_span.c **** 
 201:Drivers/lvgl/src/extra/widgets/span/lv_span.c ****     refresh_self_size(obj);
 202:Drivers/lvgl/src/extra/widgets/span/lv_span.c **** }
ARM GAS  /var/folders/0z/tsy30v1j4xl4_7kw94k978ww0000gn/T//ccAguaVl.s 			page 5


 203:Drivers/lvgl/src/extra/widgets/span/lv_span.c **** 
 204:Drivers/lvgl/src/extra/widgets/span/lv_span.c **** void lv_spangroup_set_mode(lv_obj_t * obj, lv_span_mode_t mode)
 205:Drivers/lvgl/src/extra/widgets/span/lv_span.c **** {
 206:Drivers/lvgl/src/extra/widgets/span/lv_span.c ****     LV_ASSERT_OBJ(obj, MY_CLASS);
 207:Drivers/lvgl/src/extra/widgets/span/lv_span.c ****     lv_spangroup_t * spans = (lv_spangroup_t *)obj;
 208:Drivers/lvgl/src/extra/widgets/span/lv_span.c ****     spans->mode = mode;
 209:Drivers/lvgl/src/extra/widgets/span/lv_span.c ****     lv_spangroup_refr_mode(obj);
 210:Drivers/lvgl/src/extra/widgets/span/lv_span.c **** }
 211:Drivers/lvgl/src/extra/widgets/span/lv_span.c **** 
 212:Drivers/lvgl/src/extra/widgets/span/lv_span.c **** void lv_spangroup_set_lines(lv_obj_t * obj, int32_t lines)
 213:Drivers/lvgl/src/extra/widgets/span/lv_span.c **** {
 214:Drivers/lvgl/src/extra/widgets/span/lv_span.c ****     LV_ASSERT_OBJ(obj, MY_CLASS);
 215:Drivers/lvgl/src/extra/widgets/span/lv_span.c ****     lv_spangroup_t * spans = (lv_spangroup_t *)obj;
 216:Drivers/lvgl/src/extra/widgets/span/lv_span.c ****     spans->lines = lines;
 217:Drivers/lvgl/src/extra/widgets/span/lv_span.c ****     lv_spangroup_refr_mode(obj);
 218:Drivers/lvgl/src/extra/widgets/span/lv_span.c **** }
 219:Drivers/lvgl/src/extra/widgets/span/lv_span.c **** 
 220:Drivers/lvgl/src/extra/widgets/span/lv_span.c **** /*=====================
 221:Drivers/lvgl/src/extra/widgets/span/lv_span.c ****  * Getter functions
 222:Drivers/lvgl/src/extra/widgets/span/lv_span.c ****  *====================*/
 223:Drivers/lvgl/src/extra/widgets/span/lv_span.c **** 
 224:Drivers/lvgl/src/extra/widgets/span/lv_span.c **** lv_span_t * lv_spangroup_get_child(const lv_obj_t * obj, int32_t id)
 225:Drivers/lvgl/src/extra/widgets/span/lv_span.c **** {
 226:Drivers/lvgl/src/extra/widgets/span/lv_span.c ****     if(obj == NULL) {
 227:Drivers/lvgl/src/extra/widgets/span/lv_span.c ****         return NULL;
 228:Drivers/lvgl/src/extra/widgets/span/lv_span.c ****     }
 229:Drivers/lvgl/src/extra/widgets/span/lv_span.c **** 
 230:Drivers/lvgl/src/extra/widgets/span/lv_span.c ****     LV_ASSERT_OBJ(obj, MY_CLASS);
 231:Drivers/lvgl/src/extra/widgets/span/lv_span.c ****     lv_spangroup_t * spans = (lv_spangroup_t *)obj;
 232:Drivers/lvgl/src/extra/widgets/span/lv_span.c ****     lv_ll_t * linked_list = &spans->child_ll;
 233:Drivers/lvgl/src/extra/widgets/span/lv_span.c **** 
 234:Drivers/lvgl/src/extra/widgets/span/lv_span.c ****     bool traverse_forwards = (id >= 0);
 235:Drivers/lvgl/src/extra/widgets/span/lv_span.c ****     int32_t cur_idx = 0;
 236:Drivers/lvgl/src/extra/widgets/span/lv_span.c ****     lv_ll_node_t * cur_node = linked_list->head;
 237:Drivers/lvgl/src/extra/widgets/span/lv_span.c **** 
 238:Drivers/lvgl/src/extra/widgets/span/lv_span.c ****     /*If using a negative index, start from the tail and use cur -1 to indicate the end*/
 239:Drivers/lvgl/src/extra/widgets/span/lv_span.c ****     if(!traverse_forwards) {
 240:Drivers/lvgl/src/extra/widgets/span/lv_span.c ****         cur_idx = -1;
 241:Drivers/lvgl/src/extra/widgets/span/lv_span.c ****         cur_node = linked_list->tail;
 242:Drivers/lvgl/src/extra/widgets/span/lv_span.c ****     }
 243:Drivers/lvgl/src/extra/widgets/span/lv_span.c **** 
 244:Drivers/lvgl/src/extra/widgets/span/lv_span.c ****     while(cur_node != NULL) {
 245:Drivers/lvgl/src/extra/widgets/span/lv_span.c ****         if(cur_idx == id) {
 246:Drivers/lvgl/src/extra/widgets/span/lv_span.c ****             return (lv_span_t *) cur_node;
 247:Drivers/lvgl/src/extra/widgets/span/lv_span.c ****         }
 248:Drivers/lvgl/src/extra/widgets/span/lv_span.c ****         if(traverse_forwards) {
 249:Drivers/lvgl/src/extra/widgets/span/lv_span.c ****             cur_node = (lv_ll_node_t *) _lv_ll_get_next(linked_list, cur_node);
 250:Drivers/lvgl/src/extra/widgets/span/lv_span.c ****             cur_idx++;
 251:Drivers/lvgl/src/extra/widgets/span/lv_span.c ****         }
 252:Drivers/lvgl/src/extra/widgets/span/lv_span.c ****         else {
 253:Drivers/lvgl/src/extra/widgets/span/lv_span.c ****             cur_node = (lv_ll_node_t *) _lv_ll_get_prev(linked_list, cur_node);
 254:Drivers/lvgl/src/extra/widgets/span/lv_span.c ****             cur_idx--;
 255:Drivers/lvgl/src/extra/widgets/span/lv_span.c ****         }
 256:Drivers/lvgl/src/extra/widgets/span/lv_span.c ****     }
 257:Drivers/lvgl/src/extra/widgets/span/lv_span.c **** 
 258:Drivers/lvgl/src/extra/widgets/span/lv_span.c ****     return NULL;
 259:Drivers/lvgl/src/extra/widgets/span/lv_span.c **** }
ARM GAS  /var/folders/0z/tsy30v1j4xl4_7kw94k978ww0000gn/T//ccAguaVl.s 			page 6


 260:Drivers/lvgl/src/extra/widgets/span/lv_span.c **** 
 261:Drivers/lvgl/src/extra/widgets/span/lv_span.c **** uint32_t lv_spangroup_get_child_cnt(const lv_obj_t * obj)
 262:Drivers/lvgl/src/extra/widgets/span/lv_span.c **** {
 263:Drivers/lvgl/src/extra/widgets/span/lv_span.c ****     LV_ASSERT_OBJ(obj, MY_CLASS);
 264:Drivers/lvgl/src/extra/widgets/span/lv_span.c **** 
 265:Drivers/lvgl/src/extra/widgets/span/lv_span.c ****     if(obj == NULL) {
 266:Drivers/lvgl/src/extra/widgets/span/lv_span.c ****         return 0;
 267:Drivers/lvgl/src/extra/widgets/span/lv_span.c ****     }
 268:Drivers/lvgl/src/extra/widgets/span/lv_span.c **** 
 269:Drivers/lvgl/src/extra/widgets/span/lv_span.c ****     LV_ASSERT_OBJ(obj, MY_CLASS);
 270:Drivers/lvgl/src/extra/widgets/span/lv_span.c ****     lv_spangroup_t * spans = (lv_spangroup_t *)obj;
 271:Drivers/lvgl/src/extra/widgets/span/lv_span.c ****     return _lv_ll_get_len(&(spans->child_ll));
 272:Drivers/lvgl/src/extra/widgets/span/lv_span.c **** }
 273:Drivers/lvgl/src/extra/widgets/span/lv_span.c **** 
 274:Drivers/lvgl/src/extra/widgets/span/lv_span.c **** lv_text_align_t lv_spangroup_get_align(lv_obj_t * obj)
 275:Drivers/lvgl/src/extra/widgets/span/lv_span.c **** {
 276:Drivers/lvgl/src/extra/widgets/span/lv_span.c ****     return lv_obj_get_style_text_align(obj, LV_PART_MAIN);
 277:Drivers/lvgl/src/extra/widgets/span/lv_span.c **** }
 278:Drivers/lvgl/src/extra/widgets/span/lv_span.c **** 
 279:Drivers/lvgl/src/extra/widgets/span/lv_span.c **** lv_span_overflow_t lv_spangroup_get_overflow(lv_obj_t * obj)
 280:Drivers/lvgl/src/extra/widgets/span/lv_span.c **** {
 281:Drivers/lvgl/src/extra/widgets/span/lv_span.c ****     LV_ASSERT_OBJ(obj, MY_CLASS);
 282:Drivers/lvgl/src/extra/widgets/span/lv_span.c ****     lv_spangroup_t * spans = (lv_spangroup_t *)obj;
 283:Drivers/lvgl/src/extra/widgets/span/lv_span.c ****     return spans->overflow;
 284:Drivers/lvgl/src/extra/widgets/span/lv_span.c **** }
 285:Drivers/lvgl/src/extra/widgets/span/lv_span.c **** 
 286:Drivers/lvgl/src/extra/widgets/span/lv_span.c **** lv_coord_t lv_spangroup_get_indent(lv_obj_t * obj)
 287:Drivers/lvgl/src/extra/widgets/span/lv_span.c **** {
 288:Drivers/lvgl/src/extra/widgets/span/lv_span.c ****     LV_ASSERT_OBJ(obj, MY_CLASS);
 289:Drivers/lvgl/src/extra/widgets/span/lv_span.c ****     lv_spangroup_t * spans = (lv_spangroup_t *)obj;
 290:Drivers/lvgl/src/extra/widgets/span/lv_span.c ****     return spans->indent;
 291:Drivers/lvgl/src/extra/widgets/span/lv_span.c **** }
 292:Drivers/lvgl/src/extra/widgets/span/lv_span.c **** 
 293:Drivers/lvgl/src/extra/widgets/span/lv_span.c **** lv_span_mode_t lv_spangroup_get_mode(lv_obj_t * obj)
 294:Drivers/lvgl/src/extra/widgets/span/lv_span.c **** {
 295:Drivers/lvgl/src/extra/widgets/span/lv_span.c ****     LV_ASSERT_OBJ(obj, MY_CLASS);
 296:Drivers/lvgl/src/extra/widgets/span/lv_span.c ****     lv_spangroup_t * spans = (lv_spangroup_t *)obj;
 297:Drivers/lvgl/src/extra/widgets/span/lv_span.c ****     return spans->mode;
 298:Drivers/lvgl/src/extra/widgets/span/lv_span.c **** }
 299:Drivers/lvgl/src/extra/widgets/span/lv_span.c **** 
 300:Drivers/lvgl/src/extra/widgets/span/lv_span.c **** int32_t lv_spangroup_get_lines(lv_obj_t * obj)
 301:Drivers/lvgl/src/extra/widgets/span/lv_span.c **** {
 302:Drivers/lvgl/src/extra/widgets/span/lv_span.c ****     LV_ASSERT_OBJ(obj, MY_CLASS);
 303:Drivers/lvgl/src/extra/widgets/span/lv_span.c ****     lv_spangroup_t * spans = (lv_spangroup_t *)obj;
 304:Drivers/lvgl/src/extra/widgets/span/lv_span.c ****     return spans->lines;
 305:Drivers/lvgl/src/extra/widgets/span/lv_span.c **** }
 306:Drivers/lvgl/src/extra/widgets/span/lv_span.c **** 
 307:Drivers/lvgl/src/extra/widgets/span/lv_span.c **** void lv_spangroup_refr_mode(lv_obj_t * obj)
 308:Drivers/lvgl/src/extra/widgets/span/lv_span.c **** {
 309:Drivers/lvgl/src/extra/widgets/span/lv_span.c ****     LV_ASSERT_OBJ(obj, MY_CLASS);
 310:Drivers/lvgl/src/extra/widgets/span/lv_span.c ****     lv_spangroup_t * spans = (lv_spangroup_t *)obj;
 311:Drivers/lvgl/src/extra/widgets/span/lv_span.c **** 
 312:Drivers/lvgl/src/extra/widgets/span/lv_span.c ****     if(spans->mode == LV_SPAN_MODE_EXPAND) {
 313:Drivers/lvgl/src/extra/widgets/span/lv_span.c ****         lv_obj_set_width(obj, LV_SIZE_CONTENT);
 314:Drivers/lvgl/src/extra/widgets/span/lv_span.c ****         lv_obj_set_height(obj, LV_SIZE_CONTENT);
 315:Drivers/lvgl/src/extra/widgets/span/lv_span.c ****     }
 316:Drivers/lvgl/src/extra/widgets/span/lv_span.c ****     else if(spans->mode == LV_SPAN_MODE_BREAK) {
ARM GAS  /var/folders/0z/tsy30v1j4xl4_7kw94k978ww0000gn/T//ccAguaVl.s 			page 7


 317:Drivers/lvgl/src/extra/widgets/span/lv_span.c ****         if(lv_obj_get_style_width(obj, LV_PART_MAIN) == LV_SIZE_CONTENT) {
 318:Drivers/lvgl/src/extra/widgets/span/lv_span.c ****             lv_obj_set_width(obj, 100);
 319:Drivers/lvgl/src/extra/widgets/span/lv_span.c ****         }
 320:Drivers/lvgl/src/extra/widgets/span/lv_span.c ****         lv_obj_set_height(obj, LV_SIZE_CONTENT);
 321:Drivers/lvgl/src/extra/widgets/span/lv_span.c ****     }
 322:Drivers/lvgl/src/extra/widgets/span/lv_span.c ****     else if(spans->mode == LV_SPAN_MODE_FIXED) {
 323:Drivers/lvgl/src/extra/widgets/span/lv_span.c ****         /* use this mode, The user needs to set the size. */
 324:Drivers/lvgl/src/extra/widgets/span/lv_span.c ****         /* This is just to prevent an infinite loop. */
 325:Drivers/lvgl/src/extra/widgets/span/lv_span.c ****         if(lv_obj_get_style_width(obj, LV_PART_MAIN) == LV_SIZE_CONTENT) {
 326:Drivers/lvgl/src/extra/widgets/span/lv_span.c ****             lv_obj_set_width(obj, 100);
 327:Drivers/lvgl/src/extra/widgets/span/lv_span.c ****         }
 328:Drivers/lvgl/src/extra/widgets/span/lv_span.c ****         if(lv_obj_get_style_height(obj, LV_PART_MAIN) == LV_SIZE_CONTENT) {
 329:Drivers/lvgl/src/extra/widgets/span/lv_span.c ****             lv_coord_t width = lv_obj_get_style_width(obj, LV_PART_MAIN);
 330:Drivers/lvgl/src/extra/widgets/span/lv_span.c ****             if(LV_COORD_IS_PCT(width)) {
 331:Drivers/lvgl/src/extra/widgets/span/lv_span.c ****                 width = 100;
 332:Drivers/lvgl/src/extra/widgets/span/lv_span.c ****             }
 333:Drivers/lvgl/src/extra/widgets/span/lv_span.c ****             lv_coord_t height = lv_spangroup_get_expand_height(obj, width);
 334:Drivers/lvgl/src/extra/widgets/span/lv_span.c ****             lv_obj_set_content_height(obj, height);
 335:Drivers/lvgl/src/extra/widgets/span/lv_span.c ****         }
 336:Drivers/lvgl/src/extra/widgets/span/lv_span.c ****     }
 337:Drivers/lvgl/src/extra/widgets/span/lv_span.c **** 
 338:Drivers/lvgl/src/extra/widgets/span/lv_span.c ****     refresh_self_size(obj);
 339:Drivers/lvgl/src/extra/widgets/span/lv_span.c **** }
 340:Drivers/lvgl/src/extra/widgets/span/lv_span.c **** 
 341:Drivers/lvgl/src/extra/widgets/span/lv_span.c **** lv_coord_t lv_spangroup_get_max_line_h(lv_obj_t * obj)
 342:Drivers/lvgl/src/extra/widgets/span/lv_span.c **** {
 343:Drivers/lvgl/src/extra/widgets/span/lv_span.c ****     LV_ASSERT_OBJ(obj, MY_CLASS);
 344:Drivers/lvgl/src/extra/widgets/span/lv_span.c ****     lv_spangroup_t * spans = (lv_spangroup_t *)obj;
 345:Drivers/lvgl/src/extra/widgets/span/lv_span.c **** 
 346:Drivers/lvgl/src/extra/widgets/span/lv_span.c ****     lv_coord_t max_line_h = 0;
 347:Drivers/lvgl/src/extra/widgets/span/lv_span.c ****     lv_span_t * cur_span;
 348:Drivers/lvgl/src/extra/widgets/span/lv_span.c ****     _LV_LL_READ(&spans->child_ll, cur_span) {
 349:Drivers/lvgl/src/extra/widgets/span/lv_span.c ****         const lv_font_t * font = lv_span_get_style_text_font(obj, cur_span);
 350:Drivers/lvgl/src/extra/widgets/span/lv_span.c ****         lv_coord_t line_h = lv_font_get_line_height(font);
 351:Drivers/lvgl/src/extra/widgets/span/lv_span.c ****         if(line_h > max_line_h) {
 352:Drivers/lvgl/src/extra/widgets/span/lv_span.c ****             max_line_h = line_h;
 353:Drivers/lvgl/src/extra/widgets/span/lv_span.c ****         }
 354:Drivers/lvgl/src/extra/widgets/span/lv_span.c ****     }
 355:Drivers/lvgl/src/extra/widgets/span/lv_span.c **** 
 356:Drivers/lvgl/src/extra/widgets/span/lv_span.c ****     return max_line_h;
 357:Drivers/lvgl/src/extra/widgets/span/lv_span.c **** }
 358:Drivers/lvgl/src/extra/widgets/span/lv_span.c **** 
 359:Drivers/lvgl/src/extra/widgets/span/lv_span.c **** uint32_t lv_spangroup_get_expand_width(lv_obj_t * obj, uint32_t max_width)
 360:Drivers/lvgl/src/extra/widgets/span/lv_span.c **** {
 361:Drivers/lvgl/src/extra/widgets/span/lv_span.c ****     LV_ASSERT_OBJ(obj, MY_CLASS);
 362:Drivers/lvgl/src/extra/widgets/span/lv_span.c ****     lv_spangroup_t * spans = (lv_spangroup_t *)obj;
 363:Drivers/lvgl/src/extra/widgets/span/lv_span.c **** 
 364:Drivers/lvgl/src/extra/widgets/span/lv_span.c ****     if(_lv_ll_get_head(&spans->child_ll) == NULL) {
 365:Drivers/lvgl/src/extra/widgets/span/lv_span.c ****         return 0;
 366:Drivers/lvgl/src/extra/widgets/span/lv_span.c ****     }
 367:Drivers/lvgl/src/extra/widgets/span/lv_span.c **** 
 368:Drivers/lvgl/src/extra/widgets/span/lv_span.c ****     uint32_t width = LV_COORD_IS_PCT(spans->indent) ? 0 : spans->indent;
 369:Drivers/lvgl/src/extra/widgets/span/lv_span.c ****     lv_span_t * cur_span;
 370:Drivers/lvgl/src/extra/widgets/span/lv_span.c ****     lv_coord_t letter_space = 0;
 371:Drivers/lvgl/src/extra/widgets/span/lv_span.c ****     _LV_LL_READ(&spans->child_ll, cur_span) {
 372:Drivers/lvgl/src/extra/widgets/span/lv_span.c ****         const lv_font_t * font = lv_span_get_style_text_font(obj, cur_span);
 373:Drivers/lvgl/src/extra/widgets/span/lv_span.c ****         letter_space = lv_span_get_style_text_letter_space(obj, cur_span);
ARM GAS  /var/folders/0z/tsy30v1j4xl4_7kw94k978ww0000gn/T//ccAguaVl.s 			page 8


 374:Drivers/lvgl/src/extra/widgets/span/lv_span.c ****         uint32_t j = 0;
 375:Drivers/lvgl/src/extra/widgets/span/lv_span.c ****         const char * cur_txt = cur_span->txt;
 376:Drivers/lvgl/src/extra/widgets/span/lv_span.c ****         span_text_check(&cur_txt);
 377:Drivers/lvgl/src/extra/widgets/span/lv_span.c ****         while(cur_txt[j] != '\0') {
 378:Drivers/lvgl/src/extra/widgets/span/lv_span.c ****             if(max_width > 0 && width >= max_width) {
 379:Drivers/lvgl/src/extra/widgets/span/lv_span.c ****                 return max_width;
 380:Drivers/lvgl/src/extra/widgets/span/lv_span.c ****             }
 381:Drivers/lvgl/src/extra/widgets/span/lv_span.c ****             uint32_t letter      = _lv_txt_encoded_next(cur_txt, &j);
 382:Drivers/lvgl/src/extra/widgets/span/lv_span.c ****             uint32_t letter_next = _lv_txt_encoded_next(&cur_txt[j], NULL);
 383:Drivers/lvgl/src/extra/widgets/span/lv_span.c ****             uint16_t letter_w = lv_font_get_glyph_width(font, letter, letter_next);
 384:Drivers/lvgl/src/extra/widgets/span/lv_span.c ****             width = width + letter_w + letter_space;
 385:Drivers/lvgl/src/extra/widgets/span/lv_span.c ****         }
 386:Drivers/lvgl/src/extra/widgets/span/lv_span.c ****     }
 387:Drivers/lvgl/src/extra/widgets/span/lv_span.c **** 
 388:Drivers/lvgl/src/extra/widgets/span/lv_span.c ****     return width - letter_space;
 389:Drivers/lvgl/src/extra/widgets/span/lv_span.c **** }
 390:Drivers/lvgl/src/extra/widgets/span/lv_span.c **** 
 391:Drivers/lvgl/src/extra/widgets/span/lv_span.c **** lv_coord_t lv_spangroup_get_expand_height(lv_obj_t * obj, lv_coord_t width)
 392:Drivers/lvgl/src/extra/widgets/span/lv_span.c **** {
 393:Drivers/lvgl/src/extra/widgets/span/lv_span.c ****     LV_ASSERT_OBJ(obj, MY_CLASS);
 394:Drivers/lvgl/src/extra/widgets/span/lv_span.c ****     lv_spangroup_t * spans = (lv_spangroup_t *)obj;
 395:Drivers/lvgl/src/extra/widgets/span/lv_span.c ****     if(_lv_ll_get_head(&spans->child_ll) == NULL || width <= 0) {
 396:Drivers/lvgl/src/extra/widgets/span/lv_span.c ****         return 0;
 397:Drivers/lvgl/src/extra/widgets/span/lv_span.c ****     }
 398:Drivers/lvgl/src/extra/widgets/span/lv_span.c **** 
 399:Drivers/lvgl/src/extra/widgets/span/lv_span.c ****     /* init draw variable */
 400:Drivers/lvgl/src/extra/widgets/span/lv_span.c ****     lv_text_flag_t txt_flag = LV_TEXT_FLAG_NONE;
 401:Drivers/lvgl/src/extra/widgets/span/lv_span.c ****     lv_coord_t line_space = lv_obj_get_style_text_line_space(obj, LV_PART_MAIN);
 402:Drivers/lvgl/src/extra/widgets/span/lv_span.c ****     lv_coord_t max_width = width;
 403:Drivers/lvgl/src/extra/widgets/span/lv_span.c ****     lv_coord_t indent = convert_indent_pct(obj, max_width);
 404:Drivers/lvgl/src/extra/widgets/span/lv_span.c ****     lv_coord_t max_w  = max_width - indent; /* first line need minus indent */
 405:Drivers/lvgl/src/extra/widgets/span/lv_span.c **** 
 406:Drivers/lvgl/src/extra/widgets/span/lv_span.c ****     /* coords of draw span-txt */
 407:Drivers/lvgl/src/extra/widgets/span/lv_span.c ****     lv_point_t txt_pos;
 408:Drivers/lvgl/src/extra/widgets/span/lv_span.c ****     txt_pos.y = 0;
 409:Drivers/lvgl/src/extra/widgets/span/lv_span.c ****     txt_pos.x = 0 + indent; /* first line need add indent */
 410:Drivers/lvgl/src/extra/widgets/span/lv_span.c **** 
 411:Drivers/lvgl/src/extra/widgets/span/lv_span.c ****     lv_span_t * cur_span = _lv_ll_get_head(&spans->child_ll);
 412:Drivers/lvgl/src/extra/widgets/span/lv_span.c ****     const char * cur_txt = cur_span->txt;
 413:Drivers/lvgl/src/extra/widgets/span/lv_span.c ****     span_text_check(&cur_txt);
 414:Drivers/lvgl/src/extra/widgets/span/lv_span.c ****     uint32_t cur_txt_ofs = 0;
 415:Drivers/lvgl/src/extra/widgets/span/lv_span.c ****     lv_snippet_t snippet;   /* use to save cur_span info and push it to stack */
 416:Drivers/lvgl/src/extra/widgets/span/lv_span.c ****     memset(&snippet, 0, sizeof(snippet));
 417:Drivers/lvgl/src/extra/widgets/span/lv_span.c **** 
 418:Drivers/lvgl/src/extra/widgets/span/lv_span.c ****     int32_t line_cnt = 0;
 419:Drivers/lvgl/src/extra/widgets/span/lv_span.c ****     int32_t lines = spans->lines < 0 ? INT32_MAX : spans->lines;
 420:Drivers/lvgl/src/extra/widgets/span/lv_span.c ****     /* the loop control how many lines need to draw */
 421:Drivers/lvgl/src/extra/widgets/span/lv_span.c ****     while(cur_span) {
 422:Drivers/lvgl/src/extra/widgets/span/lv_span.c ****         int snippet_cnt = 0;
 423:Drivers/lvgl/src/extra/widgets/span/lv_span.c ****         lv_coord_t max_line_h = 0;  /* the max height of span-font when a line have a lot of span *
 424:Drivers/lvgl/src/extra/widgets/span/lv_span.c **** 
 425:Drivers/lvgl/src/extra/widgets/span/lv_span.c ****         /* the loop control to find a line and push the relevant span info into stack  */
 426:Drivers/lvgl/src/extra/widgets/span/lv_span.c ****         while(1) {
 427:Drivers/lvgl/src/extra/widgets/span/lv_span.c ****             /* switch to the next span when current is end */
 428:Drivers/lvgl/src/extra/widgets/span/lv_span.c ****             if(cur_txt[cur_txt_ofs] == '\0') {
 429:Drivers/lvgl/src/extra/widgets/span/lv_span.c ****                 cur_span = _lv_ll_get_next(&spans->child_ll, cur_span);
 430:Drivers/lvgl/src/extra/widgets/span/lv_span.c ****                 if(cur_span == NULL) break;
ARM GAS  /var/folders/0z/tsy30v1j4xl4_7kw94k978ww0000gn/T//ccAguaVl.s 			page 9


 431:Drivers/lvgl/src/extra/widgets/span/lv_span.c ****                 cur_txt = cur_span->txt;
 432:Drivers/lvgl/src/extra/widgets/span/lv_span.c ****                 span_text_check(&cur_txt);
 433:Drivers/lvgl/src/extra/widgets/span/lv_span.c ****                 cur_txt_ofs = 0;
 434:Drivers/lvgl/src/extra/widgets/span/lv_span.c ****                 /* maybe also cur_txt[cur_txt_ofs] == '\0' */
 435:Drivers/lvgl/src/extra/widgets/span/lv_span.c ****                 continue;
 436:Drivers/lvgl/src/extra/widgets/span/lv_span.c ****             }
 437:Drivers/lvgl/src/extra/widgets/span/lv_span.c **** 
 438:Drivers/lvgl/src/extra/widgets/span/lv_span.c ****             /* init span info to snippet. */
 439:Drivers/lvgl/src/extra/widgets/span/lv_span.c ****             if(cur_txt_ofs == 0) {
 440:Drivers/lvgl/src/extra/widgets/span/lv_span.c ****                 snippet.span = cur_span;
 441:Drivers/lvgl/src/extra/widgets/span/lv_span.c ****                 snippet.font = lv_span_get_style_text_font(obj, cur_span);
 442:Drivers/lvgl/src/extra/widgets/span/lv_span.c ****                 snippet.letter_space = lv_span_get_style_text_letter_space(obj, cur_span);
 443:Drivers/lvgl/src/extra/widgets/span/lv_span.c ****                 snippet.line_h = lv_font_get_line_height(snippet.font) + line_space;
 444:Drivers/lvgl/src/extra/widgets/span/lv_span.c ****             }
 445:Drivers/lvgl/src/extra/widgets/span/lv_span.c **** 
 446:Drivers/lvgl/src/extra/widgets/span/lv_span.c ****             /* get current span text line info */
 447:Drivers/lvgl/src/extra/widgets/span/lv_span.c ****             uint32_t next_ofs = 0;
 448:Drivers/lvgl/src/extra/widgets/span/lv_span.c ****             lv_coord_t use_width = 0;
 449:Drivers/lvgl/src/extra/widgets/span/lv_span.c ****             bool isfill = lv_txt_get_snippet(&cur_txt[cur_txt_ofs], snippet.font, snippet.letter_sp
 450:Drivers/lvgl/src/extra/widgets/span/lv_span.c ****                                              max_w, txt_flag, &use_width, &next_ofs);
 451:Drivers/lvgl/src/extra/widgets/span/lv_span.c **** 
 452:Drivers/lvgl/src/extra/widgets/span/lv_span.c ****             /* break word deal width */
 453:Drivers/lvgl/src/extra/widgets/span/lv_span.c ****             if(isfill && next_ofs > 0 && snippet_cnt > 0) {
 454:Drivers/lvgl/src/extra/widgets/span/lv_span.c ****                 if(max_w < use_width) {
 455:Drivers/lvgl/src/extra/widgets/span/lv_span.c ****                     break;
 456:Drivers/lvgl/src/extra/widgets/span/lv_span.c ****                 }
 457:Drivers/lvgl/src/extra/widgets/span/lv_span.c **** 
 458:Drivers/lvgl/src/extra/widgets/span/lv_span.c ****                 uint32_t tmp_ofs = next_ofs;
 459:Drivers/lvgl/src/extra/widgets/span/lv_span.c ****                 uint32_t letter = _lv_txt_encoded_prev(&cur_txt[cur_txt_ofs], &tmp_ofs);
 460:Drivers/lvgl/src/extra/widgets/span/lv_span.c ****                 if(!(letter == '\0' || letter == '\n' || letter == '\r' || _lv_txt_is_break_char(le
 461:Drivers/lvgl/src/extra/widgets/span/lv_span.c ****                     tmp_ofs = 0;
 462:Drivers/lvgl/src/extra/widgets/span/lv_span.c ****                     letter = _lv_txt_encoded_next(&cur_txt[cur_txt_ofs + next_ofs], &tmp_ofs);
 463:Drivers/lvgl/src/extra/widgets/span/lv_span.c ****                     if(!(letter == '\0' || letter == '\n'  || letter == '\r' || _lv_txt_is_break_ch
 464:Drivers/lvgl/src/extra/widgets/span/lv_span.c ****                         break;
 465:Drivers/lvgl/src/extra/widgets/span/lv_span.c ****                     }
 466:Drivers/lvgl/src/extra/widgets/span/lv_span.c ****                 }
 467:Drivers/lvgl/src/extra/widgets/span/lv_span.c ****             }
 468:Drivers/lvgl/src/extra/widgets/span/lv_span.c **** 
 469:Drivers/lvgl/src/extra/widgets/span/lv_span.c ****             snippet.txt = &cur_txt[cur_txt_ofs];
 470:Drivers/lvgl/src/extra/widgets/span/lv_span.c ****             snippet.bytes = next_ofs;
 471:Drivers/lvgl/src/extra/widgets/span/lv_span.c ****             snippet.txt_w = use_width;
 472:Drivers/lvgl/src/extra/widgets/span/lv_span.c ****             cur_txt_ofs += next_ofs;
 473:Drivers/lvgl/src/extra/widgets/span/lv_span.c ****             if(max_line_h < snippet.line_h) {
 474:Drivers/lvgl/src/extra/widgets/span/lv_span.c ****                 max_line_h = snippet.line_h;
 475:Drivers/lvgl/src/extra/widgets/span/lv_span.c ****             }
 476:Drivers/lvgl/src/extra/widgets/span/lv_span.c ****             snippet_cnt ++;
 477:Drivers/lvgl/src/extra/widgets/span/lv_span.c ****             max_w = max_w - use_width - snippet.letter_space;
 478:Drivers/lvgl/src/extra/widgets/span/lv_span.c ****             if(isfill  || max_w <= 0) {
 479:Drivers/lvgl/src/extra/widgets/span/lv_span.c ****                 break;
 480:Drivers/lvgl/src/extra/widgets/span/lv_span.c ****             }
 481:Drivers/lvgl/src/extra/widgets/span/lv_span.c ****         }
 482:Drivers/lvgl/src/extra/widgets/span/lv_span.c **** 
 483:Drivers/lvgl/src/extra/widgets/span/lv_span.c ****         /* next line init */
 484:Drivers/lvgl/src/extra/widgets/span/lv_span.c ****         txt_pos.x = 0;
 485:Drivers/lvgl/src/extra/widgets/span/lv_span.c ****         txt_pos.y += max_line_h;
 486:Drivers/lvgl/src/extra/widgets/span/lv_span.c ****         max_w = max_width;
 487:Drivers/lvgl/src/extra/widgets/span/lv_span.c ****         line_cnt += 1;
ARM GAS  /var/folders/0z/tsy30v1j4xl4_7kw94k978ww0000gn/T//ccAguaVl.s 			page 10


 488:Drivers/lvgl/src/extra/widgets/span/lv_span.c ****         if(line_cnt >= lines) {
 489:Drivers/lvgl/src/extra/widgets/span/lv_span.c ****             break;
 490:Drivers/lvgl/src/extra/widgets/span/lv_span.c ****         }
 491:Drivers/lvgl/src/extra/widgets/span/lv_span.c ****     }
 492:Drivers/lvgl/src/extra/widgets/span/lv_span.c ****     txt_pos.y -= line_space;
 493:Drivers/lvgl/src/extra/widgets/span/lv_span.c **** 
 494:Drivers/lvgl/src/extra/widgets/span/lv_span.c ****     return txt_pos.y;
 495:Drivers/lvgl/src/extra/widgets/span/lv_span.c **** }
 496:Drivers/lvgl/src/extra/widgets/span/lv_span.c **** 
 497:Drivers/lvgl/src/extra/widgets/span/lv_span.c **** /**********************
 498:Drivers/lvgl/src/extra/widgets/span/lv_span.c ****  *   STATIC FUNCTIONS
 499:Drivers/lvgl/src/extra/widgets/span/lv_span.c ****  **********************/
 500:Drivers/lvgl/src/extra/widgets/span/lv_span.c **** 
 501:Drivers/lvgl/src/extra/widgets/span/lv_span.c **** static void lv_spangroup_constructor(const lv_obj_class_t * class_p, lv_obj_t * obj)
 502:Drivers/lvgl/src/extra/widgets/span/lv_span.c **** {
 503:Drivers/lvgl/src/extra/widgets/span/lv_span.c ****     LV_UNUSED(class_p);
 504:Drivers/lvgl/src/extra/widgets/span/lv_span.c ****     lv_spangroup_t * spans = (lv_spangroup_t *)obj;
 505:Drivers/lvgl/src/extra/widgets/span/lv_span.c ****     _lv_ll_init(&spans->child_ll, sizeof(lv_span_t));
 506:Drivers/lvgl/src/extra/widgets/span/lv_span.c ****     spans->indent = 0;
 507:Drivers/lvgl/src/extra/widgets/span/lv_span.c ****     spans->lines = -1;
 508:Drivers/lvgl/src/extra/widgets/span/lv_span.c ****     spans->mode = LV_SPAN_MODE_EXPAND;
 509:Drivers/lvgl/src/extra/widgets/span/lv_span.c ****     spans->overflow = LV_SPAN_OVERFLOW_CLIP;
 510:Drivers/lvgl/src/extra/widgets/span/lv_span.c ****     spans->cache_w = 0;
 511:Drivers/lvgl/src/extra/widgets/span/lv_span.c ****     spans->cache_h = 0;
 512:Drivers/lvgl/src/extra/widgets/span/lv_span.c ****     spans->refresh = 1;
 513:Drivers/lvgl/src/extra/widgets/span/lv_span.c **** }
 514:Drivers/lvgl/src/extra/widgets/span/lv_span.c **** 
 515:Drivers/lvgl/src/extra/widgets/span/lv_span.c **** static void lv_spangroup_destructor(const lv_obj_class_t * class_p, lv_obj_t * obj)
 516:Drivers/lvgl/src/extra/widgets/span/lv_span.c **** {
 517:Drivers/lvgl/src/extra/widgets/span/lv_span.c ****     LV_UNUSED(class_p);
 518:Drivers/lvgl/src/extra/widgets/span/lv_span.c ****     lv_spangroup_t * spans = (lv_spangroup_t *)obj;
 519:Drivers/lvgl/src/extra/widgets/span/lv_span.c ****     lv_span_t * cur_span = _lv_ll_get_head(&spans->child_ll);
 520:Drivers/lvgl/src/extra/widgets/span/lv_span.c ****     while(cur_span) {
 521:Drivers/lvgl/src/extra/widgets/span/lv_span.c ****         _lv_ll_remove(&spans->child_ll, cur_span);
 522:Drivers/lvgl/src/extra/widgets/span/lv_span.c ****         if(cur_span->txt && cur_span->static_flag == 0) {
 523:Drivers/lvgl/src/extra/widgets/span/lv_span.c ****             lv_mem_free(cur_span->txt);
 524:Drivers/lvgl/src/extra/widgets/span/lv_span.c ****         }
 525:Drivers/lvgl/src/extra/widgets/span/lv_span.c ****         lv_style_reset(&cur_span->style);
 526:Drivers/lvgl/src/extra/widgets/span/lv_span.c ****         lv_mem_free(cur_span);
 527:Drivers/lvgl/src/extra/widgets/span/lv_span.c ****         cur_span = _lv_ll_get_head(&spans->child_ll);
 528:Drivers/lvgl/src/extra/widgets/span/lv_span.c ****     }
 529:Drivers/lvgl/src/extra/widgets/span/lv_span.c **** }
 530:Drivers/lvgl/src/extra/widgets/span/lv_span.c **** 
 531:Drivers/lvgl/src/extra/widgets/span/lv_span.c **** static void lv_spangroup_event(const lv_obj_class_t * class_p, lv_event_t * e)
 532:Drivers/lvgl/src/extra/widgets/span/lv_span.c **** {
 533:Drivers/lvgl/src/extra/widgets/span/lv_span.c ****     LV_UNUSED(class_p);
 534:Drivers/lvgl/src/extra/widgets/span/lv_span.c **** 
 535:Drivers/lvgl/src/extra/widgets/span/lv_span.c ****     /* Call the ancestor's event handler */
 536:Drivers/lvgl/src/extra/widgets/span/lv_span.c ****     if(lv_obj_event_base(MY_CLASS, e) != LV_RES_OK) return;
 537:Drivers/lvgl/src/extra/widgets/span/lv_span.c **** 
 538:Drivers/lvgl/src/extra/widgets/span/lv_span.c ****     lv_event_code_t code = lv_event_get_code(e);
 539:Drivers/lvgl/src/extra/widgets/span/lv_span.c ****     lv_obj_t * obj = lv_event_get_target(e);
 540:Drivers/lvgl/src/extra/widgets/span/lv_span.c ****     lv_spangroup_t * spans = (lv_spangroup_t *)obj;
 541:Drivers/lvgl/src/extra/widgets/span/lv_span.c **** 
 542:Drivers/lvgl/src/extra/widgets/span/lv_span.c ****     if(code == LV_EVENT_DRAW_MAIN) {
 543:Drivers/lvgl/src/extra/widgets/span/lv_span.c ****         draw_main(e);
 544:Drivers/lvgl/src/extra/widgets/span/lv_span.c ****     }
ARM GAS  /var/folders/0z/tsy30v1j4xl4_7kw94k978ww0000gn/T//ccAguaVl.s 			page 11


 545:Drivers/lvgl/src/extra/widgets/span/lv_span.c ****     else if(code == LV_EVENT_STYLE_CHANGED) {
 546:Drivers/lvgl/src/extra/widgets/span/lv_span.c ****         refresh_self_size(obj);
 547:Drivers/lvgl/src/extra/widgets/span/lv_span.c ****     }
 548:Drivers/lvgl/src/extra/widgets/span/lv_span.c ****     else if(code == LV_EVENT_SIZE_CHANGED) {
 549:Drivers/lvgl/src/extra/widgets/span/lv_span.c ****         refresh_self_size(obj);
 550:Drivers/lvgl/src/extra/widgets/span/lv_span.c ****     }
 551:Drivers/lvgl/src/extra/widgets/span/lv_span.c ****     else if(code == LV_EVENT_GET_SELF_SIZE) {
 552:Drivers/lvgl/src/extra/widgets/span/lv_span.c ****         lv_coord_t width = 0;
 553:Drivers/lvgl/src/extra/widgets/span/lv_span.c ****         lv_coord_t height = 0;
 554:Drivers/lvgl/src/extra/widgets/span/lv_span.c ****         lv_point_t * self_size = lv_event_get_param(e);
 555:Drivers/lvgl/src/extra/widgets/span/lv_span.c **** 
 556:Drivers/lvgl/src/extra/widgets/span/lv_span.c ****         if(spans->mode == LV_SPAN_MODE_EXPAND) {
 557:Drivers/lvgl/src/extra/widgets/span/lv_span.c ****             if(spans->refresh) {
 558:Drivers/lvgl/src/extra/widgets/span/lv_span.c ****                 spans->cache_w = (lv_coord_t)lv_spangroup_get_expand_width(obj, 0);
 559:Drivers/lvgl/src/extra/widgets/span/lv_span.c ****                 spans->cache_h = lv_spangroup_get_max_line_h(obj);
 560:Drivers/lvgl/src/extra/widgets/span/lv_span.c ****                 spans->refresh = 0;
 561:Drivers/lvgl/src/extra/widgets/span/lv_span.c ****             }
 562:Drivers/lvgl/src/extra/widgets/span/lv_span.c ****             width = spans->cache_w;
 563:Drivers/lvgl/src/extra/widgets/span/lv_span.c ****             height = spans->cache_h;
 564:Drivers/lvgl/src/extra/widgets/span/lv_span.c ****         }
 565:Drivers/lvgl/src/extra/widgets/span/lv_span.c ****         else if(spans->mode == LV_SPAN_MODE_BREAK) {
 566:Drivers/lvgl/src/extra/widgets/span/lv_span.c ****             width = lv_obj_get_content_width(obj);
 567:Drivers/lvgl/src/extra/widgets/span/lv_span.c ****             if(self_size->y >= 0) {
 568:Drivers/lvgl/src/extra/widgets/span/lv_span.c ****                 if(width != spans->cache_w || spans->refresh) {
 569:Drivers/lvgl/src/extra/widgets/span/lv_span.c ****                     height = lv_spangroup_get_expand_height(obj, width);
 570:Drivers/lvgl/src/extra/widgets/span/lv_span.c ****                     spans->cache_w = width;
 571:Drivers/lvgl/src/extra/widgets/span/lv_span.c ****                     spans->cache_h = height;
 572:Drivers/lvgl/src/extra/widgets/span/lv_span.c ****                     spans->refresh = 0;
 573:Drivers/lvgl/src/extra/widgets/span/lv_span.c ****                 }
 574:Drivers/lvgl/src/extra/widgets/span/lv_span.c ****                 else {
 575:Drivers/lvgl/src/extra/widgets/span/lv_span.c ****                     height = spans->cache_h;
 576:Drivers/lvgl/src/extra/widgets/span/lv_span.c ****                 }
 577:Drivers/lvgl/src/extra/widgets/span/lv_span.c ****             }
 578:Drivers/lvgl/src/extra/widgets/span/lv_span.c ****         }
 579:Drivers/lvgl/src/extra/widgets/span/lv_span.c ****         else if(spans->mode == LV_SPAN_MODE_FIXED) {
 580:Drivers/lvgl/src/extra/widgets/span/lv_span.c ****             width =  self_size->x >= 0 ? lv_obj_get_content_width(obj) : 0;
 581:Drivers/lvgl/src/extra/widgets/span/lv_span.c ****             height = self_size->y >= 0 ? lv_obj_get_content_height(obj) : 0;
 582:Drivers/lvgl/src/extra/widgets/span/lv_span.c ****         }
 583:Drivers/lvgl/src/extra/widgets/span/lv_span.c ****         self_size->x = LV_MAX(self_size->x, width);
 584:Drivers/lvgl/src/extra/widgets/span/lv_span.c ****         self_size->y = LV_MAX(self_size->y, height);
 585:Drivers/lvgl/src/extra/widgets/span/lv_span.c ****     }
 586:Drivers/lvgl/src/extra/widgets/span/lv_span.c **** }
 587:Drivers/lvgl/src/extra/widgets/span/lv_span.c **** 
 588:Drivers/lvgl/src/extra/widgets/span/lv_span.c **** static void draw_main(lv_event_t * e)
 589:Drivers/lvgl/src/extra/widgets/span/lv_span.c **** {
 590:Drivers/lvgl/src/extra/widgets/span/lv_span.c ****     lv_obj_t * obj = lv_event_get_target(e);
 591:Drivers/lvgl/src/extra/widgets/span/lv_span.c ****     lv_draw_ctx_t * draw_ctx = lv_event_get_draw_ctx(e);
 592:Drivers/lvgl/src/extra/widgets/span/lv_span.c **** 
 593:Drivers/lvgl/src/extra/widgets/span/lv_span.c ****     lv_draw_span(obj, draw_ctx);
 594:Drivers/lvgl/src/extra/widgets/span/lv_span.c **** }
 595:Drivers/lvgl/src/extra/widgets/span/lv_span.c **** 
 596:Drivers/lvgl/src/extra/widgets/span/lv_span.c **** /**
 597:Drivers/lvgl/src/extra/widgets/span/lv_span.c ****  * @return true for txt fill the max_width.
 598:Drivers/lvgl/src/extra/widgets/span/lv_span.c ****  */
 599:Drivers/lvgl/src/extra/widgets/span/lv_span.c **** static bool lv_txt_get_snippet(const char * txt, const lv_font_t * font,
 600:Drivers/lvgl/src/extra/widgets/span/lv_span.c ****                                lv_coord_t letter_space, lv_coord_t max_width, lv_text_flag_t flag,
 601:Drivers/lvgl/src/extra/widgets/span/lv_span.c ****                                lv_coord_t * use_width, uint32_t * end_ofs)
ARM GAS  /var/folders/0z/tsy30v1j4xl4_7kw94k978ww0000gn/T//ccAguaVl.s 			page 12


 602:Drivers/lvgl/src/extra/widgets/span/lv_span.c **** {
 603:Drivers/lvgl/src/extra/widgets/span/lv_span.c ****     if(txt == NULL || txt[0] == '\0') {
 604:Drivers/lvgl/src/extra/widgets/span/lv_span.c ****         *end_ofs = 0;
 605:Drivers/lvgl/src/extra/widgets/span/lv_span.c ****         *use_width = 0;
 606:Drivers/lvgl/src/extra/widgets/span/lv_span.c ****         return false;
 607:Drivers/lvgl/src/extra/widgets/span/lv_span.c ****     }
 608:Drivers/lvgl/src/extra/widgets/span/lv_span.c **** 
 609:Drivers/lvgl/src/extra/widgets/span/lv_span.c ****     uint32_t ofs = _lv_txt_get_next_line(txt, font, letter_space, max_width, use_width, flag);
 610:Drivers/lvgl/src/extra/widgets/span/lv_span.c ****     *end_ofs = ofs;
 611:Drivers/lvgl/src/extra/widgets/span/lv_span.c **** 
 612:Drivers/lvgl/src/extra/widgets/span/lv_span.c ****     if(txt[ofs] == '\0' && *use_width < max_width) {
 613:Drivers/lvgl/src/extra/widgets/span/lv_span.c ****         return false;
 614:Drivers/lvgl/src/extra/widgets/span/lv_span.c ****     }
 615:Drivers/lvgl/src/extra/widgets/span/lv_span.c ****     else {
 616:Drivers/lvgl/src/extra/widgets/span/lv_span.c ****         return true;
 617:Drivers/lvgl/src/extra/widgets/span/lv_span.c ****     }
 618:Drivers/lvgl/src/extra/widgets/span/lv_span.c **** }
 619:Drivers/lvgl/src/extra/widgets/span/lv_span.c **** 
 620:Drivers/lvgl/src/extra/widgets/span/lv_span.c **** static void lv_snippet_push(lv_snippet_t * item)
 621:Drivers/lvgl/src/extra/widgets/span/lv_span.c **** {
 622:Drivers/lvgl/src/extra/widgets/span/lv_span.c ****     if(snippet_stack.index < LV_SPAN_SNIPPET_STACK_SIZE) {
 623:Drivers/lvgl/src/extra/widgets/span/lv_span.c ****         memcpy(&snippet_stack.stack[snippet_stack.index], item, sizeof(lv_snippet_t));
 624:Drivers/lvgl/src/extra/widgets/span/lv_span.c ****         snippet_stack.index++;
 625:Drivers/lvgl/src/extra/widgets/span/lv_span.c ****     }
 626:Drivers/lvgl/src/extra/widgets/span/lv_span.c ****     else {
 627:Drivers/lvgl/src/extra/widgets/span/lv_span.c ****         LV_LOG_ERROR("span draw stack overflow, please set LV_SPAN_SNIPPET_STACK_SIZE too larger");
 628:Drivers/lvgl/src/extra/widgets/span/lv_span.c ****     }
 629:Drivers/lvgl/src/extra/widgets/span/lv_span.c **** }
 630:Drivers/lvgl/src/extra/widgets/span/lv_span.c **** 
 631:Drivers/lvgl/src/extra/widgets/span/lv_span.c **** static uint16_t lv_get_snippet_cnt(void)
 632:Drivers/lvgl/src/extra/widgets/span/lv_span.c **** {
  28              		.loc 1 632 1 view -0
  29              		.cfi_startproc
  30              		@ args = 0, pretend = 0, frame = 0
  31              		@ frame_needed = 0, uses_anonymous_args = 0
  32              		@ link register save eliminated.
 633:Drivers/lvgl/src/extra/widgets/span/lv_span.c ****     return snippet_stack.index;
  33              		.loc 1 633 5 view .LVU1
 634:Drivers/lvgl/src/extra/widgets/span/lv_span.c **** }
  34              		.loc 1 634 1 is_stmt 0 view .LVU2
  35 0000 014B     		ldr	r3, .L2
  36 0002 B3F80005 		ldrh	r0, [r3, #1280]
  37 0006 7047     		bx	lr
  38              	.L3:
  39              		.align	2
  40              	.L2:
  41 0008 00000000 		.word	.LANCHOR0
  42              		.cfi_endproc
  43              	.LFE231:
  45              		.section	.text.lv_get_snippet,"ax",%progbits
  46              		.align	1
  47              		.syntax unified
  48              		.thumb
  49              		.thumb_func
  51              	lv_get_snippet:
  52              	.LVL0:
  53              	.LFB232:
ARM GAS  /var/folders/0z/tsy30v1j4xl4_7kw94k978ww0000gn/T//ccAguaVl.s 			page 13


 635:Drivers/lvgl/src/extra/widgets/span/lv_span.c **** 
 636:Drivers/lvgl/src/extra/widgets/span/lv_span.c **** static lv_snippet_t * lv_get_snippet(uint16_t index)
 637:Drivers/lvgl/src/extra/widgets/span/lv_span.c **** {
  54              		.loc 1 637 1 is_stmt 1 view -0
  55              		.cfi_startproc
  56              		@ args = 0, pretend = 0, frame = 0
  57              		@ frame_needed = 0, uses_anonymous_args = 0
  58              		@ link register save eliminated.
 638:Drivers/lvgl/src/extra/widgets/span/lv_span.c ****     return &snippet_stack.stack[index];
  59              		.loc 1 638 5 view .LVU4
  60              		.loc 1 638 12 is_stmt 0 view .LVU5
  61 0000 00EB8000 		add	r0, r0, r0, lsl #2
  62              	.LVL1:
 639:Drivers/lvgl/src/extra/widgets/span/lv_span.c **** }
  63              		.loc 1 639 1 view .LVU6
  64 0004 014B     		ldr	r3, .L5
  65 0006 03EB8000 		add	r0, r3, r0, lsl #2
  66 000a 7047     		bx	lr
  67              	.L6:
  68              		.align	2
  69              	.L5:
  70 000c 00000000 		.word	.LANCHOR0
  71              		.cfi_endproc
  72              	.LFE232:
  74              		.section	.text.lv_snippet_clear,"ax",%progbits
  75              		.align	1
  76              		.syntax unified
  77              		.thumb
  78              		.thumb_func
  80              	lv_snippet_clear:
  81              	.LFB233:
 640:Drivers/lvgl/src/extra/widgets/span/lv_span.c **** 
 641:Drivers/lvgl/src/extra/widgets/span/lv_span.c **** static void lv_snippet_clear(void)
 642:Drivers/lvgl/src/extra/widgets/span/lv_span.c **** {
  82              		.loc 1 642 1 is_stmt 1 view -0
  83              		.cfi_startproc
  84              		@ args = 0, pretend = 0, frame = 0
  85              		@ frame_needed = 0, uses_anonymous_args = 0
  86              		@ link register save eliminated.
 643:Drivers/lvgl/src/extra/widgets/span/lv_span.c ****     snippet_stack.index = 0;
  87              		.loc 1 643 5 view .LVU8
  88              		.loc 1 643 25 is_stmt 0 view .LVU9
  89 0000 024B     		ldr	r3, .L8
  90 0002 0022     		movs	r2, #0
  91 0004 A3F80025 		strh	r2, [r3, #1280]	@ movhi
 644:Drivers/lvgl/src/extra/widgets/span/lv_span.c **** }
  92              		.loc 1 644 1 view .LVU10
  93 0008 7047     		bx	lr
  94              	.L9:
  95 000a 00BF     		.align	2
  96              	.L8:
  97 000c 00000000 		.word	.LANCHOR0
  98              		.cfi_endproc
  99              	.LFE233:
 101              		.section	.text.convert_indent_pct,"ax",%progbits
 102              		.align	1
 103              		.syntax unified
ARM GAS  /var/folders/0z/tsy30v1j4xl4_7kw94k978ww0000gn/T//ccAguaVl.s 			page 14


 104              		.thumb
 105              		.thumb_func
 107              	convert_indent_pct:
 108              	.LVL2:
 109              	.LFB241:
 645:Drivers/lvgl/src/extra/widgets/span/lv_span.c **** 
 646:Drivers/lvgl/src/extra/widgets/span/lv_span.c **** static const lv_font_t * lv_span_get_style_text_font(lv_obj_t * par, lv_span_t * span)
 647:Drivers/lvgl/src/extra/widgets/span/lv_span.c **** {
 648:Drivers/lvgl/src/extra/widgets/span/lv_span.c ****     const lv_font_t * font;
 649:Drivers/lvgl/src/extra/widgets/span/lv_span.c ****     lv_style_value_t value;
 650:Drivers/lvgl/src/extra/widgets/span/lv_span.c ****     lv_res_t res = lv_style_get_prop(&span->style, LV_STYLE_TEXT_FONT, &value);
 651:Drivers/lvgl/src/extra/widgets/span/lv_span.c ****     if(res != LV_RES_OK) {
 652:Drivers/lvgl/src/extra/widgets/span/lv_span.c ****         font = lv_obj_get_style_text_font(par, LV_PART_MAIN);
 653:Drivers/lvgl/src/extra/widgets/span/lv_span.c ****     }
 654:Drivers/lvgl/src/extra/widgets/span/lv_span.c ****     else {
 655:Drivers/lvgl/src/extra/widgets/span/lv_span.c ****         font = (const lv_font_t *)value.ptr;
 656:Drivers/lvgl/src/extra/widgets/span/lv_span.c ****     }
 657:Drivers/lvgl/src/extra/widgets/span/lv_span.c ****     return font;
 658:Drivers/lvgl/src/extra/widgets/span/lv_span.c **** }
 659:Drivers/lvgl/src/extra/widgets/span/lv_span.c **** 
 660:Drivers/lvgl/src/extra/widgets/span/lv_span.c **** static lv_coord_t lv_span_get_style_text_letter_space(lv_obj_t * par, lv_span_t * span)
 661:Drivers/lvgl/src/extra/widgets/span/lv_span.c **** {
 662:Drivers/lvgl/src/extra/widgets/span/lv_span.c ****     lv_coord_t letter_space;
 663:Drivers/lvgl/src/extra/widgets/span/lv_span.c ****     lv_style_value_t value;
 664:Drivers/lvgl/src/extra/widgets/span/lv_span.c ****     lv_res_t res = lv_style_get_prop(&span->style, LV_STYLE_TEXT_LETTER_SPACE, &value);
 665:Drivers/lvgl/src/extra/widgets/span/lv_span.c ****     if(res != LV_RES_OK) {
 666:Drivers/lvgl/src/extra/widgets/span/lv_span.c ****         letter_space = lv_obj_get_style_text_letter_space(par, LV_PART_MAIN);
 667:Drivers/lvgl/src/extra/widgets/span/lv_span.c ****     }
 668:Drivers/lvgl/src/extra/widgets/span/lv_span.c ****     else {
 669:Drivers/lvgl/src/extra/widgets/span/lv_span.c ****         letter_space = (lv_coord_t)value.num;
 670:Drivers/lvgl/src/extra/widgets/span/lv_span.c ****     }
 671:Drivers/lvgl/src/extra/widgets/span/lv_span.c ****     return letter_space;
 672:Drivers/lvgl/src/extra/widgets/span/lv_span.c **** }
 673:Drivers/lvgl/src/extra/widgets/span/lv_span.c **** 
 674:Drivers/lvgl/src/extra/widgets/span/lv_span.c **** static lv_color_t lv_span_get_style_text_color(lv_obj_t * par, lv_span_t * span)
 675:Drivers/lvgl/src/extra/widgets/span/lv_span.c **** {
 676:Drivers/lvgl/src/extra/widgets/span/lv_span.c ****     lv_style_value_t value;
 677:Drivers/lvgl/src/extra/widgets/span/lv_span.c ****     lv_res_t res = lv_style_get_prop(&span->style, LV_STYLE_TEXT_COLOR, &value);
 678:Drivers/lvgl/src/extra/widgets/span/lv_span.c ****     if(res != LV_RES_OK) {
 679:Drivers/lvgl/src/extra/widgets/span/lv_span.c ****         value.color = lv_obj_get_style_text_color(par, LV_PART_MAIN);
 680:Drivers/lvgl/src/extra/widgets/span/lv_span.c ****     }
 681:Drivers/lvgl/src/extra/widgets/span/lv_span.c ****     return value.color;
 682:Drivers/lvgl/src/extra/widgets/span/lv_span.c **** }
 683:Drivers/lvgl/src/extra/widgets/span/lv_span.c **** 
 684:Drivers/lvgl/src/extra/widgets/span/lv_span.c **** static lv_opa_t lv_span_get_style_text_opa(lv_obj_t * par, lv_span_t * span)
 685:Drivers/lvgl/src/extra/widgets/span/lv_span.c **** {
 686:Drivers/lvgl/src/extra/widgets/span/lv_span.c ****     lv_opa_t opa;
 687:Drivers/lvgl/src/extra/widgets/span/lv_span.c ****     lv_style_value_t value;
 688:Drivers/lvgl/src/extra/widgets/span/lv_span.c ****     lv_res_t res = lv_style_get_prop(&span->style, LV_STYLE_TEXT_OPA, &value);
 689:Drivers/lvgl/src/extra/widgets/span/lv_span.c ****     if(res != LV_RES_OK) {
 690:Drivers/lvgl/src/extra/widgets/span/lv_span.c ****         opa = (lv_opa_t)lv_obj_get_style_text_opa(par, LV_PART_MAIN);
 691:Drivers/lvgl/src/extra/widgets/span/lv_span.c ****     }
 692:Drivers/lvgl/src/extra/widgets/span/lv_span.c ****     else {
 693:Drivers/lvgl/src/extra/widgets/span/lv_span.c ****         opa = (lv_opa_t)value.num;
 694:Drivers/lvgl/src/extra/widgets/span/lv_span.c ****     }
 695:Drivers/lvgl/src/extra/widgets/span/lv_span.c ****     return opa;
 696:Drivers/lvgl/src/extra/widgets/span/lv_span.c **** }
ARM GAS  /var/folders/0z/tsy30v1j4xl4_7kw94k978ww0000gn/T//ccAguaVl.s 			page 15


 697:Drivers/lvgl/src/extra/widgets/span/lv_span.c **** 
 698:Drivers/lvgl/src/extra/widgets/span/lv_span.c **** static lv_blend_mode_t lv_span_get_style_text_blend_mode(lv_obj_t * par, lv_span_t * span)
 699:Drivers/lvgl/src/extra/widgets/span/lv_span.c **** {
 700:Drivers/lvgl/src/extra/widgets/span/lv_span.c ****     lv_blend_mode_t mode;
 701:Drivers/lvgl/src/extra/widgets/span/lv_span.c ****     lv_style_value_t value;
 702:Drivers/lvgl/src/extra/widgets/span/lv_span.c ****     lv_res_t res = lv_style_get_prop(&span->style, LV_STYLE_BLEND_MODE, &value);
 703:Drivers/lvgl/src/extra/widgets/span/lv_span.c ****     if(res != LV_RES_OK) {
 704:Drivers/lvgl/src/extra/widgets/span/lv_span.c ****         mode = (lv_blend_mode_t)lv_obj_get_style_blend_mode(par, LV_PART_MAIN);
 705:Drivers/lvgl/src/extra/widgets/span/lv_span.c ****     }
 706:Drivers/lvgl/src/extra/widgets/span/lv_span.c ****     else {
 707:Drivers/lvgl/src/extra/widgets/span/lv_span.c ****         mode = (lv_blend_mode_t)value.num;
 708:Drivers/lvgl/src/extra/widgets/span/lv_span.c ****     }
 709:Drivers/lvgl/src/extra/widgets/span/lv_span.c ****     return mode;
 710:Drivers/lvgl/src/extra/widgets/span/lv_span.c **** }
 711:Drivers/lvgl/src/extra/widgets/span/lv_span.c **** 
 712:Drivers/lvgl/src/extra/widgets/span/lv_span.c **** static int32_t lv_span_get_style_text_decor(lv_obj_t * par, lv_span_t * span)
 713:Drivers/lvgl/src/extra/widgets/span/lv_span.c **** {
 714:Drivers/lvgl/src/extra/widgets/span/lv_span.c ****     int32_t decor;
 715:Drivers/lvgl/src/extra/widgets/span/lv_span.c ****     lv_style_value_t value;
 716:Drivers/lvgl/src/extra/widgets/span/lv_span.c ****     lv_res_t res = lv_style_get_prop(&span->style, LV_STYLE_TEXT_DECOR, &value);
 717:Drivers/lvgl/src/extra/widgets/span/lv_span.c ****     if(res != LV_RES_OK) {
 718:Drivers/lvgl/src/extra/widgets/span/lv_span.c ****         decor = (lv_text_decor_t)lv_obj_get_style_text_decor(par, LV_PART_MAIN);;
 719:Drivers/lvgl/src/extra/widgets/span/lv_span.c ****     }
 720:Drivers/lvgl/src/extra/widgets/span/lv_span.c ****     else {
 721:Drivers/lvgl/src/extra/widgets/span/lv_span.c ****         decor = (int32_t)value.num;
 722:Drivers/lvgl/src/extra/widgets/span/lv_span.c ****     }
 723:Drivers/lvgl/src/extra/widgets/span/lv_span.c ****     return decor;
 724:Drivers/lvgl/src/extra/widgets/span/lv_span.c **** }
 725:Drivers/lvgl/src/extra/widgets/span/lv_span.c **** 
 726:Drivers/lvgl/src/extra/widgets/span/lv_span.c **** static inline void span_text_check(const char ** text)
 727:Drivers/lvgl/src/extra/widgets/span/lv_span.c **** {
 728:Drivers/lvgl/src/extra/widgets/span/lv_span.c ****     if(*text == NULL) {
 729:Drivers/lvgl/src/extra/widgets/span/lv_span.c ****         *text = "";
 730:Drivers/lvgl/src/extra/widgets/span/lv_span.c ****         LV_LOG_ERROR("occur an error that span text == NULL");
 731:Drivers/lvgl/src/extra/widgets/span/lv_span.c ****     }
 732:Drivers/lvgl/src/extra/widgets/span/lv_span.c **** }
 733:Drivers/lvgl/src/extra/widgets/span/lv_span.c **** 
 734:Drivers/lvgl/src/extra/widgets/span/lv_span.c **** static lv_coord_t convert_indent_pct(lv_obj_t * obj, lv_coord_t width)
 735:Drivers/lvgl/src/extra/widgets/span/lv_span.c **** {
 110              		.loc 1 735 1 is_stmt 1 view -0
 111              		.cfi_startproc
 112              		@ args = 0, pretend = 0, frame = 0
 113              		@ frame_needed = 0, uses_anonymous_args = 0
 114              		@ link register save eliminated.
 115              		.loc 1 735 1 is_stmt 0 view .LVU12
 116 0000 0346     		mov	r3, r0
 736:Drivers/lvgl/src/extra/widgets/span/lv_span.c ****     lv_spangroup_t * spans = (lv_spangroup_t *)obj;
 117              		.loc 1 736 5 is_stmt 1 view .LVU13
 118              	.LVL3:
 737:Drivers/lvgl/src/extra/widgets/span/lv_span.c **** 
 738:Drivers/lvgl/src/extra/widgets/span/lv_span.c ****     lv_coord_t indent = spans->indent;
 119              		.loc 1 738 5 view .LVU14
 120              		.loc 1 738 16 is_stmt 0 view .LVU15
 121 0002 B0F92800 		ldrsh	r0, [r0, #40]
 122              	.LVL4:
 739:Drivers/lvgl/src/extra/widgets/span/lv_span.c ****     if(LV_COORD_IS_PCT(spans->indent)) {
 123              		.loc 1 739 5 is_stmt 1 view .LVU16
ARM GAS  /var/folders/0z/tsy30v1j4xl4_7kw94k978ww0000gn/T//ccAguaVl.s 			page 16


 124              		.loc 1 739 7 is_stmt 0 view .LVU17
 125 0006 00F4C042 		and	r2, r0, #24576
 126 000a B2F5005F 		cmp	r2, #8192
 127 000e 00D0     		beq	.L15
 128              	.LVL5:
 129              	.L11:
 740:Drivers/lvgl/src/extra/widgets/span/lv_span.c ****         if(spans->mode == LV_SPAN_MODE_EXPAND) {
 741:Drivers/lvgl/src/extra/widgets/span/lv_span.c ****             indent = 0;
 742:Drivers/lvgl/src/extra/widgets/span/lv_span.c ****         }
 743:Drivers/lvgl/src/extra/widgets/span/lv_span.c ****         else {
 744:Drivers/lvgl/src/extra/widgets/span/lv_span.c ****             indent = (width * LV_COORD_GET_PCT(spans->indent)) / 100;
 745:Drivers/lvgl/src/extra/widgets/span/lv_span.c ****         }
 746:Drivers/lvgl/src/extra/widgets/span/lv_span.c ****     }
 747:Drivers/lvgl/src/extra/widgets/span/lv_span.c **** 
 748:Drivers/lvgl/src/extra/widgets/span/lv_span.c ****     return indent;
 130              		.loc 1 748 5 is_stmt 1 view .LVU18
 749:Drivers/lvgl/src/extra/widgets/span/lv_span.c **** }
 131              		.loc 1 749 1 is_stmt 0 view .LVU19
 132 0010 7047     		bx	lr
 133              	.LVL6:
 134              	.L15:
 739:Drivers/lvgl/src/extra/widgets/span/lv_span.c ****     if(LV_COORD_IS_PCT(spans->indent)) {
 135              		.loc 1 739 8 discriminator 1 view .LVU20
 136 0012 20F4C042 		bic	r2, r0, #24576
 137 0016 B2F5FA6F 		cmp	r2, #2000
 138 001a F9DC     		bgt	.L11
 740:Drivers/lvgl/src/extra/widgets/span/lv_span.c ****         if(spans->mode == LV_SPAN_MODE_EXPAND) {
 139              		.loc 1 740 9 is_stmt 1 view .LVU21
 740:Drivers/lvgl/src/extra/widgets/span/lv_span.c ****         if(spans->mode == LV_SPAN_MODE_EXPAND) {
 140              		.loc 1 740 24 is_stmt 0 view .LVU22
 141 001c 93F83C30 		ldrb	r3, [r3, #60]	@ zero_extendqisi2
 142              	.LVL7:
 740:Drivers/lvgl/src/extra/widgets/span/lv_span.c ****         if(spans->mode == LV_SPAN_MODE_EXPAND) {
 143              		.loc 1 740 24 view .LVU23
 144 0020 03F00303 		and	r3, r3, #3
 740:Drivers/lvgl/src/extra/widgets/span/lv_span.c ****         if(spans->mode == LV_SPAN_MODE_EXPAND) {
 145              		.loc 1 740 11 view .LVU24
 146 0024 012B     		cmp	r3, #1
 147 0026 0ED0     		beq	.L14
 744:Drivers/lvgl/src/extra/widgets/span/lv_span.c ****         }
 148              		.loc 1 744 13 is_stmt 1 view .LVU25
 744:Drivers/lvgl/src/extra/widgets/span/lv_span.c ****         }
 149              		.loc 1 744 31 is_stmt 0 view .LVU26
 150 0028 B2F57A7F 		cmp	r2, #1000
 151 002c 01DD     		ble	.L13
 744:Drivers/lvgl/src/extra/widgets/span/lv_span.c ****         }
 152              		.loc 1 744 31 discriminator 1 view .LVU27
 153 002e C2F57A72 		rsb	r2, r2, #1000
 154              	.L13:
 744:Drivers/lvgl/src/extra/widgets/span/lv_span.c ****         }
 155              		.loc 1 744 29 discriminator 4 view .LVU28
 156 0032 02FB01F1 		mul	r1, r2, r1
 157              	.LVL8:
 744:Drivers/lvgl/src/extra/widgets/span/lv_span.c ****         }
 158              		.loc 1 744 64 discriminator 4 view .LVU29
 159 0036 054B     		ldr	r3, .L16
 160 0038 83FB0123 		smull	r2, r3, r3, r1
ARM GAS  /var/folders/0z/tsy30v1j4xl4_7kw94k978ww0000gn/T//ccAguaVl.s 			page 17


 161 003c C917     		asrs	r1, r1, #31
 162 003e C1EB6311 		rsb	r1, r1, r3, asr #5
 744:Drivers/lvgl/src/extra/widgets/span/lv_span.c ****         }
 163              		.loc 1 744 20 discriminator 4 view .LVU30
 164 0042 08B2     		sxth	r0, r1
 165              	.LVL9:
 744:Drivers/lvgl/src/extra/widgets/span/lv_span.c ****         }
 166              		.loc 1 744 20 discriminator 4 view .LVU31
 167 0044 7047     		bx	lr
 168              	.LVL10:
 169              	.L14:
 741:Drivers/lvgl/src/extra/widgets/span/lv_span.c ****         }
 170              		.loc 1 741 20 view .LVU32
 171 0046 0020     		movs	r0, #0
 172              	.LVL11:
 741:Drivers/lvgl/src/extra/widgets/span/lv_span.c ****         }
 173              		.loc 1 741 20 view .LVU33
 174 0048 E2E7     		b	.L11
 175              	.L17:
 176 004a 00BF     		.align	2
 177              	.L16:
 178 004c 1F85EB51 		.word	1374389535
 179              		.cfi_endproc
 180              	.LFE241:
 182              		.section	.text.lv_span_get_style_text_letter_space,"ax",%progbits
 183              		.align	1
 184              		.syntax unified
 185              		.thumb
 186              		.thumb_func
 188              	lv_span_get_style_text_letter_space:
 189              	.LVL12:
 190              	.LFB235:
 661:Drivers/lvgl/src/extra/widgets/span/lv_span.c ****     lv_coord_t letter_space;
 191              		.loc 1 661 1 is_stmt 1 view -0
 192              		.cfi_startproc
 193              		@ args = 0, pretend = 0, frame = 8
 194              		@ frame_needed = 0, uses_anonymous_args = 0
 661:Drivers/lvgl/src/extra/widgets/span/lv_span.c ****     lv_coord_t letter_space;
 195              		.loc 1 661 1 is_stmt 0 view .LVU35
 196 0000 10B5     		push	{r4, lr}
 197              		.cfi_def_cfa_offset 8
 198              		.cfi_offset 4, -8
 199              		.cfi_offset 14, -4
 200 0002 82B0     		sub	sp, sp, #8
 201              		.cfi_def_cfa_offset 16
 202 0004 0446     		mov	r4, r0
 203 0006 0846     		mov	r0, r1
 204              	.LVL13:
 662:Drivers/lvgl/src/extra/widgets/span/lv_span.c ****     lv_style_value_t value;
 205              		.loc 1 662 5 is_stmt 1 view .LVU36
 663:Drivers/lvgl/src/extra/widgets/span/lv_span.c ****     lv_res_t res = lv_style_get_prop(&span->style, LV_STYLE_TEXT_LETTER_SPACE, &value);
 206              		.loc 1 663 5 view .LVU37
 664:Drivers/lvgl/src/extra/widgets/span/lv_span.c ****     if(res != LV_RES_OK) {
 207              		.loc 1 664 5 view .LVU38
 664:Drivers/lvgl/src/extra/widgets/span/lv_span.c ****     if(res != LV_RES_OK) {
 208              		.loc 1 664 20 is_stmt 0 view .LVU39
 209 0008 01AA     		add	r2, sp, #4
ARM GAS  /var/folders/0z/tsy30v1j4xl4_7kw94k978ww0000gn/T//ccAguaVl.s 			page 18


 210 000a 5821     		movs	r1, #88
 211              	.LVL14:
 664:Drivers/lvgl/src/extra/widgets/span/lv_span.c ****     if(res != LV_RES_OK) {
 212              		.loc 1 664 20 view .LVU40
 213 000c 0830     		adds	r0, r0, #8
 214              	.LVL15:
 664:Drivers/lvgl/src/extra/widgets/span/lv_span.c ****     if(res != LV_RES_OK) {
 215              		.loc 1 664 20 view .LVU41
 216 000e FFF7FEFF 		bl	lv_style_get_prop
 217              	.LVL16:
 665:Drivers/lvgl/src/extra/widgets/span/lv_span.c ****         letter_space = lv_obj_get_style_text_letter_space(par, LV_PART_MAIN);
 218              		.loc 1 665 5 is_stmt 1 view .LVU42
 665:Drivers/lvgl/src/extra/widgets/span/lv_span.c ****         letter_space = lv_obj_get_style_text_letter_space(par, LV_PART_MAIN);
 219              		.loc 1 665 7 is_stmt 0 view .LVU43
 220 0012 0128     		cmp	r0, #1
 221 0014 03D1     		bne	.L22
 669:Drivers/lvgl/src/extra/widgets/span/lv_span.c ****     }
 222              		.loc 1 669 9 is_stmt 1 view .LVU44
 669:Drivers/lvgl/src/extra/widgets/span/lv_span.c ****     }
 223              		.loc 1 669 22 is_stmt 0 view .LVU45
 224 0016 BDF90400 		ldrsh	r0, [sp, #4]
 225              	.LVL17:
 226              	.L20:
 671:Drivers/lvgl/src/extra/widgets/span/lv_span.c **** }
 227              		.loc 1 671 5 is_stmt 1 view .LVU46
 672:Drivers/lvgl/src/extra/widgets/span/lv_span.c **** 
 228              		.loc 1 672 1 is_stmt 0 view .LVU47
 229 001a 02B0     		add	sp, sp, #8
 230              		.cfi_remember_state
 231              		.cfi_def_cfa_offset 8
 232              		@ sp needed
 233 001c 10BD     		pop	{r4, pc}
 234              	.LVL18:
 235              	.L22:
 236              		.cfi_restore_state
 666:Drivers/lvgl/src/extra/widgets/span/lv_span.c ****     }
 237              		.loc 1 666 9 is_stmt 1 view .LVU48
 238              	.LBB79:
 239              	.LBI79:
 240              		.file 2 "Drivers/lvgl/src/extra/widgets/span/../../../../src/core/lv_obj_style_gen.h"
   1:Drivers/lvgl/src/extra/widgets/span/../../../../src/core/lv_obj_style_gen.h **** static inline lv_coord_t lv_obj_get_style_width(const struct _lv_obj_t * obj, uint32_t part)
   2:Drivers/lvgl/src/extra/widgets/span/../../../../src/core/lv_obj_style_gen.h **** {
   3:Drivers/lvgl/src/extra/widgets/span/../../../../src/core/lv_obj_style_gen.h ****     lv_style_value_t v = lv_obj_get_style_prop(obj, part, LV_STYLE_WIDTH);
   4:Drivers/lvgl/src/extra/widgets/span/../../../../src/core/lv_obj_style_gen.h ****     return (lv_coord_t)v.num;
   5:Drivers/lvgl/src/extra/widgets/span/../../../../src/core/lv_obj_style_gen.h **** }
   6:Drivers/lvgl/src/extra/widgets/span/../../../../src/core/lv_obj_style_gen.h **** 
   7:Drivers/lvgl/src/extra/widgets/span/../../../../src/core/lv_obj_style_gen.h **** static inline lv_coord_t lv_obj_get_style_min_width(const struct _lv_obj_t * obj, uint32_t part)
   8:Drivers/lvgl/src/extra/widgets/span/../../../../src/core/lv_obj_style_gen.h **** {
   9:Drivers/lvgl/src/extra/widgets/span/../../../../src/core/lv_obj_style_gen.h ****     lv_style_value_t v = lv_obj_get_style_prop(obj, part, LV_STYLE_MIN_WIDTH);
  10:Drivers/lvgl/src/extra/widgets/span/../../../../src/core/lv_obj_style_gen.h ****     return (lv_coord_t)v.num;
  11:Drivers/lvgl/src/extra/widgets/span/../../../../src/core/lv_obj_style_gen.h **** }
  12:Drivers/lvgl/src/extra/widgets/span/../../../../src/core/lv_obj_style_gen.h **** 
  13:Drivers/lvgl/src/extra/widgets/span/../../../../src/core/lv_obj_style_gen.h **** static inline lv_coord_t lv_obj_get_style_max_width(const struct _lv_obj_t * obj, uint32_t part)
  14:Drivers/lvgl/src/extra/widgets/span/../../../../src/core/lv_obj_style_gen.h **** {
  15:Drivers/lvgl/src/extra/widgets/span/../../../../src/core/lv_obj_style_gen.h ****     lv_style_value_t v = lv_obj_get_style_prop(obj, part, LV_STYLE_MAX_WIDTH);
  16:Drivers/lvgl/src/extra/widgets/span/../../../../src/core/lv_obj_style_gen.h ****     return (lv_coord_t)v.num;
  17:Drivers/lvgl/src/extra/widgets/span/../../../../src/core/lv_obj_style_gen.h **** }
ARM GAS  /var/folders/0z/tsy30v1j4xl4_7kw94k978ww0000gn/T//ccAguaVl.s 			page 19


  18:Drivers/lvgl/src/extra/widgets/span/../../../../src/core/lv_obj_style_gen.h **** 
  19:Drivers/lvgl/src/extra/widgets/span/../../../../src/core/lv_obj_style_gen.h **** static inline lv_coord_t lv_obj_get_style_height(const struct _lv_obj_t * obj, uint32_t part)
  20:Drivers/lvgl/src/extra/widgets/span/../../../../src/core/lv_obj_style_gen.h **** {
  21:Drivers/lvgl/src/extra/widgets/span/../../../../src/core/lv_obj_style_gen.h ****     lv_style_value_t v = lv_obj_get_style_prop(obj, part, LV_STYLE_HEIGHT);
  22:Drivers/lvgl/src/extra/widgets/span/../../../../src/core/lv_obj_style_gen.h ****     return (lv_coord_t)v.num;
  23:Drivers/lvgl/src/extra/widgets/span/../../../../src/core/lv_obj_style_gen.h **** }
  24:Drivers/lvgl/src/extra/widgets/span/../../../../src/core/lv_obj_style_gen.h **** 
  25:Drivers/lvgl/src/extra/widgets/span/../../../../src/core/lv_obj_style_gen.h **** static inline lv_coord_t lv_obj_get_style_min_height(const struct _lv_obj_t * obj, uint32_t part)
  26:Drivers/lvgl/src/extra/widgets/span/../../../../src/core/lv_obj_style_gen.h **** {
  27:Drivers/lvgl/src/extra/widgets/span/../../../../src/core/lv_obj_style_gen.h ****     lv_style_value_t v = lv_obj_get_style_prop(obj, part, LV_STYLE_MIN_HEIGHT);
  28:Drivers/lvgl/src/extra/widgets/span/../../../../src/core/lv_obj_style_gen.h ****     return (lv_coord_t)v.num;
  29:Drivers/lvgl/src/extra/widgets/span/../../../../src/core/lv_obj_style_gen.h **** }
  30:Drivers/lvgl/src/extra/widgets/span/../../../../src/core/lv_obj_style_gen.h **** 
  31:Drivers/lvgl/src/extra/widgets/span/../../../../src/core/lv_obj_style_gen.h **** static inline lv_coord_t lv_obj_get_style_max_height(const struct _lv_obj_t * obj, uint32_t part)
  32:Drivers/lvgl/src/extra/widgets/span/../../../../src/core/lv_obj_style_gen.h **** {
  33:Drivers/lvgl/src/extra/widgets/span/../../../../src/core/lv_obj_style_gen.h ****     lv_style_value_t v = lv_obj_get_style_prop(obj, part, LV_STYLE_MAX_HEIGHT);
  34:Drivers/lvgl/src/extra/widgets/span/../../../../src/core/lv_obj_style_gen.h ****     return (lv_coord_t)v.num;
  35:Drivers/lvgl/src/extra/widgets/span/../../../../src/core/lv_obj_style_gen.h **** }
  36:Drivers/lvgl/src/extra/widgets/span/../../../../src/core/lv_obj_style_gen.h **** 
  37:Drivers/lvgl/src/extra/widgets/span/../../../../src/core/lv_obj_style_gen.h **** static inline lv_coord_t lv_obj_get_style_x(const struct _lv_obj_t * obj, uint32_t part)
  38:Drivers/lvgl/src/extra/widgets/span/../../../../src/core/lv_obj_style_gen.h **** {
  39:Drivers/lvgl/src/extra/widgets/span/../../../../src/core/lv_obj_style_gen.h ****     lv_style_value_t v = lv_obj_get_style_prop(obj, part, LV_STYLE_X);
  40:Drivers/lvgl/src/extra/widgets/span/../../../../src/core/lv_obj_style_gen.h ****     return (lv_coord_t)v.num;
  41:Drivers/lvgl/src/extra/widgets/span/../../../../src/core/lv_obj_style_gen.h **** }
  42:Drivers/lvgl/src/extra/widgets/span/../../../../src/core/lv_obj_style_gen.h **** 
  43:Drivers/lvgl/src/extra/widgets/span/../../../../src/core/lv_obj_style_gen.h **** static inline lv_coord_t lv_obj_get_style_y(const struct _lv_obj_t * obj, uint32_t part)
  44:Drivers/lvgl/src/extra/widgets/span/../../../../src/core/lv_obj_style_gen.h **** {
  45:Drivers/lvgl/src/extra/widgets/span/../../../../src/core/lv_obj_style_gen.h ****     lv_style_value_t v = lv_obj_get_style_prop(obj, part, LV_STYLE_Y);
  46:Drivers/lvgl/src/extra/widgets/span/../../../../src/core/lv_obj_style_gen.h ****     return (lv_coord_t)v.num;
  47:Drivers/lvgl/src/extra/widgets/span/../../../../src/core/lv_obj_style_gen.h **** }
  48:Drivers/lvgl/src/extra/widgets/span/../../../../src/core/lv_obj_style_gen.h **** 
  49:Drivers/lvgl/src/extra/widgets/span/../../../../src/core/lv_obj_style_gen.h **** static inline lv_align_t lv_obj_get_style_align(const struct _lv_obj_t * obj, uint32_t part)
  50:Drivers/lvgl/src/extra/widgets/span/../../../../src/core/lv_obj_style_gen.h **** {
  51:Drivers/lvgl/src/extra/widgets/span/../../../../src/core/lv_obj_style_gen.h ****     lv_style_value_t v = lv_obj_get_style_prop(obj, part, LV_STYLE_ALIGN);
  52:Drivers/lvgl/src/extra/widgets/span/../../../../src/core/lv_obj_style_gen.h ****     return (lv_align_t)v.num;
  53:Drivers/lvgl/src/extra/widgets/span/../../../../src/core/lv_obj_style_gen.h **** }
  54:Drivers/lvgl/src/extra/widgets/span/../../../../src/core/lv_obj_style_gen.h **** 
  55:Drivers/lvgl/src/extra/widgets/span/../../../../src/core/lv_obj_style_gen.h **** static inline lv_coord_t lv_obj_get_style_transform_width(const struct _lv_obj_t * obj, uint32_t pa
  56:Drivers/lvgl/src/extra/widgets/span/../../../../src/core/lv_obj_style_gen.h **** {
  57:Drivers/lvgl/src/extra/widgets/span/../../../../src/core/lv_obj_style_gen.h ****     lv_style_value_t v = lv_obj_get_style_prop(obj, part, LV_STYLE_TRANSFORM_WIDTH);
  58:Drivers/lvgl/src/extra/widgets/span/../../../../src/core/lv_obj_style_gen.h ****     return (lv_coord_t)v.num;
  59:Drivers/lvgl/src/extra/widgets/span/../../../../src/core/lv_obj_style_gen.h **** }
  60:Drivers/lvgl/src/extra/widgets/span/../../../../src/core/lv_obj_style_gen.h **** 
  61:Drivers/lvgl/src/extra/widgets/span/../../../../src/core/lv_obj_style_gen.h **** static inline lv_coord_t lv_obj_get_style_transform_height(const struct _lv_obj_t * obj, uint32_t p
  62:Drivers/lvgl/src/extra/widgets/span/../../../../src/core/lv_obj_style_gen.h **** {
  63:Drivers/lvgl/src/extra/widgets/span/../../../../src/core/lv_obj_style_gen.h ****     lv_style_value_t v = lv_obj_get_style_prop(obj, part, LV_STYLE_TRANSFORM_HEIGHT);
  64:Drivers/lvgl/src/extra/widgets/span/../../../../src/core/lv_obj_style_gen.h ****     return (lv_coord_t)v.num;
  65:Drivers/lvgl/src/extra/widgets/span/../../../../src/core/lv_obj_style_gen.h **** }
  66:Drivers/lvgl/src/extra/widgets/span/../../../../src/core/lv_obj_style_gen.h **** 
  67:Drivers/lvgl/src/extra/widgets/span/../../../../src/core/lv_obj_style_gen.h **** static inline lv_coord_t lv_obj_get_style_translate_x(const struct _lv_obj_t * obj, uint32_t part)
  68:Drivers/lvgl/src/extra/widgets/span/../../../../src/core/lv_obj_style_gen.h **** {
  69:Drivers/lvgl/src/extra/widgets/span/../../../../src/core/lv_obj_style_gen.h ****     lv_style_value_t v = lv_obj_get_style_prop(obj, part, LV_STYLE_TRANSLATE_X);
  70:Drivers/lvgl/src/extra/widgets/span/../../../../src/core/lv_obj_style_gen.h ****     return (lv_coord_t)v.num;
  71:Drivers/lvgl/src/extra/widgets/span/../../../../src/core/lv_obj_style_gen.h **** }
  72:Drivers/lvgl/src/extra/widgets/span/../../../../src/core/lv_obj_style_gen.h **** 
  73:Drivers/lvgl/src/extra/widgets/span/../../../../src/core/lv_obj_style_gen.h **** static inline lv_coord_t lv_obj_get_style_translate_y(const struct _lv_obj_t * obj, uint32_t part)
  74:Drivers/lvgl/src/extra/widgets/span/../../../../src/core/lv_obj_style_gen.h **** {
ARM GAS  /var/folders/0z/tsy30v1j4xl4_7kw94k978ww0000gn/T//ccAguaVl.s 			page 20


  75:Drivers/lvgl/src/extra/widgets/span/../../../../src/core/lv_obj_style_gen.h ****     lv_style_value_t v = lv_obj_get_style_prop(obj, part, LV_STYLE_TRANSLATE_Y);
  76:Drivers/lvgl/src/extra/widgets/span/../../../../src/core/lv_obj_style_gen.h ****     return (lv_coord_t)v.num;
  77:Drivers/lvgl/src/extra/widgets/span/../../../../src/core/lv_obj_style_gen.h **** }
  78:Drivers/lvgl/src/extra/widgets/span/../../../../src/core/lv_obj_style_gen.h **** 
  79:Drivers/lvgl/src/extra/widgets/span/../../../../src/core/lv_obj_style_gen.h **** static inline lv_coord_t lv_obj_get_style_transform_zoom(const struct _lv_obj_t * obj, uint32_t par
  80:Drivers/lvgl/src/extra/widgets/span/../../../../src/core/lv_obj_style_gen.h **** {
  81:Drivers/lvgl/src/extra/widgets/span/../../../../src/core/lv_obj_style_gen.h ****     lv_style_value_t v = lv_obj_get_style_prop(obj, part, LV_STYLE_TRANSFORM_ZOOM);
  82:Drivers/lvgl/src/extra/widgets/span/../../../../src/core/lv_obj_style_gen.h ****     return (lv_coord_t)v.num;
  83:Drivers/lvgl/src/extra/widgets/span/../../../../src/core/lv_obj_style_gen.h **** }
  84:Drivers/lvgl/src/extra/widgets/span/../../../../src/core/lv_obj_style_gen.h **** 
  85:Drivers/lvgl/src/extra/widgets/span/../../../../src/core/lv_obj_style_gen.h **** static inline lv_coord_t lv_obj_get_style_transform_angle(const struct _lv_obj_t * obj, uint32_t pa
  86:Drivers/lvgl/src/extra/widgets/span/../../../../src/core/lv_obj_style_gen.h **** {
  87:Drivers/lvgl/src/extra/widgets/span/../../../../src/core/lv_obj_style_gen.h ****     lv_style_value_t v = lv_obj_get_style_prop(obj, part, LV_STYLE_TRANSFORM_ANGLE);
  88:Drivers/lvgl/src/extra/widgets/span/../../../../src/core/lv_obj_style_gen.h ****     return (lv_coord_t)v.num;
  89:Drivers/lvgl/src/extra/widgets/span/../../../../src/core/lv_obj_style_gen.h **** }
  90:Drivers/lvgl/src/extra/widgets/span/../../../../src/core/lv_obj_style_gen.h **** 
  91:Drivers/lvgl/src/extra/widgets/span/../../../../src/core/lv_obj_style_gen.h **** static inline lv_coord_t lv_obj_get_style_transform_pivot_x(const struct _lv_obj_t * obj, uint32_t 
  92:Drivers/lvgl/src/extra/widgets/span/../../../../src/core/lv_obj_style_gen.h **** {
  93:Drivers/lvgl/src/extra/widgets/span/../../../../src/core/lv_obj_style_gen.h ****     lv_style_value_t v = lv_obj_get_style_prop(obj, part, LV_STYLE_TRANSFORM_PIVOT_X);
  94:Drivers/lvgl/src/extra/widgets/span/../../../../src/core/lv_obj_style_gen.h ****     return (lv_coord_t)v.num;
  95:Drivers/lvgl/src/extra/widgets/span/../../../../src/core/lv_obj_style_gen.h **** }
  96:Drivers/lvgl/src/extra/widgets/span/../../../../src/core/lv_obj_style_gen.h **** 
  97:Drivers/lvgl/src/extra/widgets/span/../../../../src/core/lv_obj_style_gen.h **** static inline lv_coord_t lv_obj_get_style_transform_pivot_y(const struct _lv_obj_t * obj, uint32_t 
  98:Drivers/lvgl/src/extra/widgets/span/../../../../src/core/lv_obj_style_gen.h **** {
  99:Drivers/lvgl/src/extra/widgets/span/../../../../src/core/lv_obj_style_gen.h ****     lv_style_value_t v = lv_obj_get_style_prop(obj, part, LV_STYLE_TRANSFORM_PIVOT_Y);
 100:Drivers/lvgl/src/extra/widgets/span/../../../../src/core/lv_obj_style_gen.h ****     return (lv_coord_t)v.num;
 101:Drivers/lvgl/src/extra/widgets/span/../../../../src/core/lv_obj_style_gen.h **** }
 102:Drivers/lvgl/src/extra/widgets/span/../../../../src/core/lv_obj_style_gen.h **** 
 103:Drivers/lvgl/src/extra/widgets/span/../../../../src/core/lv_obj_style_gen.h **** static inline lv_coord_t lv_obj_get_style_pad_top(const struct _lv_obj_t * obj, uint32_t part)
 104:Drivers/lvgl/src/extra/widgets/span/../../../../src/core/lv_obj_style_gen.h **** {
 105:Drivers/lvgl/src/extra/widgets/span/../../../../src/core/lv_obj_style_gen.h ****     lv_style_value_t v = lv_obj_get_style_prop(obj, part, LV_STYLE_PAD_TOP);
 106:Drivers/lvgl/src/extra/widgets/span/../../../../src/core/lv_obj_style_gen.h ****     return (lv_coord_t)v.num;
 107:Drivers/lvgl/src/extra/widgets/span/../../../../src/core/lv_obj_style_gen.h **** }
 108:Drivers/lvgl/src/extra/widgets/span/../../../../src/core/lv_obj_style_gen.h **** 
 109:Drivers/lvgl/src/extra/widgets/span/../../../../src/core/lv_obj_style_gen.h **** static inline lv_coord_t lv_obj_get_style_pad_bottom(const struct _lv_obj_t * obj, uint32_t part)
 110:Drivers/lvgl/src/extra/widgets/span/../../../../src/core/lv_obj_style_gen.h **** {
 111:Drivers/lvgl/src/extra/widgets/span/../../../../src/core/lv_obj_style_gen.h ****     lv_style_value_t v = lv_obj_get_style_prop(obj, part, LV_STYLE_PAD_BOTTOM);
 112:Drivers/lvgl/src/extra/widgets/span/../../../../src/core/lv_obj_style_gen.h ****     return (lv_coord_t)v.num;
 113:Drivers/lvgl/src/extra/widgets/span/../../../../src/core/lv_obj_style_gen.h **** }
 114:Drivers/lvgl/src/extra/widgets/span/../../../../src/core/lv_obj_style_gen.h **** 
 115:Drivers/lvgl/src/extra/widgets/span/../../../../src/core/lv_obj_style_gen.h **** static inline lv_coord_t lv_obj_get_style_pad_left(const struct _lv_obj_t * obj, uint32_t part)
 116:Drivers/lvgl/src/extra/widgets/span/../../../../src/core/lv_obj_style_gen.h **** {
 117:Drivers/lvgl/src/extra/widgets/span/../../../../src/core/lv_obj_style_gen.h ****     lv_style_value_t v = lv_obj_get_style_prop(obj, part, LV_STYLE_PAD_LEFT);
 118:Drivers/lvgl/src/extra/widgets/span/../../../../src/core/lv_obj_style_gen.h ****     return (lv_coord_t)v.num;
 119:Drivers/lvgl/src/extra/widgets/span/../../../../src/core/lv_obj_style_gen.h **** }
 120:Drivers/lvgl/src/extra/widgets/span/../../../../src/core/lv_obj_style_gen.h **** 
 121:Drivers/lvgl/src/extra/widgets/span/../../../../src/core/lv_obj_style_gen.h **** static inline lv_coord_t lv_obj_get_style_pad_right(const struct _lv_obj_t * obj, uint32_t part)
 122:Drivers/lvgl/src/extra/widgets/span/../../../../src/core/lv_obj_style_gen.h **** {
 123:Drivers/lvgl/src/extra/widgets/span/../../../../src/core/lv_obj_style_gen.h ****     lv_style_value_t v = lv_obj_get_style_prop(obj, part, LV_STYLE_PAD_RIGHT);
 124:Drivers/lvgl/src/extra/widgets/span/../../../../src/core/lv_obj_style_gen.h ****     return (lv_coord_t)v.num;
 125:Drivers/lvgl/src/extra/widgets/span/../../../../src/core/lv_obj_style_gen.h **** }
 126:Drivers/lvgl/src/extra/widgets/span/../../../../src/core/lv_obj_style_gen.h **** 
 127:Drivers/lvgl/src/extra/widgets/span/../../../../src/core/lv_obj_style_gen.h **** static inline lv_coord_t lv_obj_get_style_pad_row(const struct _lv_obj_t * obj, uint32_t part)
 128:Drivers/lvgl/src/extra/widgets/span/../../../../src/core/lv_obj_style_gen.h **** {
 129:Drivers/lvgl/src/extra/widgets/span/../../../../src/core/lv_obj_style_gen.h ****     lv_style_value_t v = lv_obj_get_style_prop(obj, part, LV_STYLE_PAD_ROW);
 130:Drivers/lvgl/src/extra/widgets/span/../../../../src/core/lv_obj_style_gen.h ****     return (lv_coord_t)v.num;
 131:Drivers/lvgl/src/extra/widgets/span/../../../../src/core/lv_obj_style_gen.h **** }
ARM GAS  /var/folders/0z/tsy30v1j4xl4_7kw94k978ww0000gn/T//ccAguaVl.s 			page 21


 132:Drivers/lvgl/src/extra/widgets/span/../../../../src/core/lv_obj_style_gen.h **** 
 133:Drivers/lvgl/src/extra/widgets/span/../../../../src/core/lv_obj_style_gen.h **** static inline lv_coord_t lv_obj_get_style_pad_column(const struct _lv_obj_t * obj, uint32_t part)
 134:Drivers/lvgl/src/extra/widgets/span/../../../../src/core/lv_obj_style_gen.h **** {
 135:Drivers/lvgl/src/extra/widgets/span/../../../../src/core/lv_obj_style_gen.h ****     lv_style_value_t v = lv_obj_get_style_prop(obj, part, LV_STYLE_PAD_COLUMN);
 136:Drivers/lvgl/src/extra/widgets/span/../../../../src/core/lv_obj_style_gen.h ****     return (lv_coord_t)v.num;
 137:Drivers/lvgl/src/extra/widgets/span/../../../../src/core/lv_obj_style_gen.h **** }
 138:Drivers/lvgl/src/extra/widgets/span/../../../../src/core/lv_obj_style_gen.h **** 
 139:Drivers/lvgl/src/extra/widgets/span/../../../../src/core/lv_obj_style_gen.h **** static inline lv_color_t lv_obj_get_style_bg_color(const struct _lv_obj_t * obj, uint32_t part)
 140:Drivers/lvgl/src/extra/widgets/span/../../../../src/core/lv_obj_style_gen.h **** {
 141:Drivers/lvgl/src/extra/widgets/span/../../../../src/core/lv_obj_style_gen.h ****     lv_style_value_t v = lv_obj_get_style_prop(obj, part, LV_STYLE_BG_COLOR);
 142:Drivers/lvgl/src/extra/widgets/span/../../../../src/core/lv_obj_style_gen.h ****     return v.color;
 143:Drivers/lvgl/src/extra/widgets/span/../../../../src/core/lv_obj_style_gen.h **** }
 144:Drivers/lvgl/src/extra/widgets/span/../../../../src/core/lv_obj_style_gen.h **** 
 145:Drivers/lvgl/src/extra/widgets/span/../../../../src/core/lv_obj_style_gen.h **** static inline lv_color_t lv_obj_get_style_bg_color_filtered(const struct _lv_obj_t * obj, uint32_t 
 146:Drivers/lvgl/src/extra/widgets/span/../../../../src/core/lv_obj_style_gen.h **** {
 147:Drivers/lvgl/src/extra/widgets/span/../../../../src/core/lv_obj_style_gen.h ****     lv_style_value_t v = _lv_obj_style_apply_color_filter(obj, part, lv_obj_get_style_prop(obj, par
 148:Drivers/lvgl/src/extra/widgets/span/../../../../src/core/lv_obj_style_gen.h ****     return v.color;
 149:Drivers/lvgl/src/extra/widgets/span/../../../../src/core/lv_obj_style_gen.h **** }
 150:Drivers/lvgl/src/extra/widgets/span/../../../../src/core/lv_obj_style_gen.h **** 
 151:Drivers/lvgl/src/extra/widgets/span/../../../../src/core/lv_obj_style_gen.h **** static inline lv_opa_t lv_obj_get_style_bg_opa(const struct _lv_obj_t * obj, uint32_t part)
 152:Drivers/lvgl/src/extra/widgets/span/../../../../src/core/lv_obj_style_gen.h **** {
 153:Drivers/lvgl/src/extra/widgets/span/../../../../src/core/lv_obj_style_gen.h ****     lv_style_value_t v = lv_obj_get_style_prop(obj, part, LV_STYLE_BG_OPA);
 154:Drivers/lvgl/src/extra/widgets/span/../../../../src/core/lv_obj_style_gen.h ****     return (lv_opa_t)v.num;
 155:Drivers/lvgl/src/extra/widgets/span/../../../../src/core/lv_obj_style_gen.h **** }
 156:Drivers/lvgl/src/extra/widgets/span/../../../../src/core/lv_obj_style_gen.h **** 
 157:Drivers/lvgl/src/extra/widgets/span/../../../../src/core/lv_obj_style_gen.h **** static inline lv_color_t lv_obj_get_style_bg_grad_color(const struct _lv_obj_t * obj, uint32_t part
 158:Drivers/lvgl/src/extra/widgets/span/../../../../src/core/lv_obj_style_gen.h **** {
 159:Drivers/lvgl/src/extra/widgets/span/../../../../src/core/lv_obj_style_gen.h ****     lv_style_value_t v = lv_obj_get_style_prop(obj, part, LV_STYLE_BG_GRAD_COLOR);
 160:Drivers/lvgl/src/extra/widgets/span/../../../../src/core/lv_obj_style_gen.h ****     return v.color;
 161:Drivers/lvgl/src/extra/widgets/span/../../../../src/core/lv_obj_style_gen.h **** }
 162:Drivers/lvgl/src/extra/widgets/span/../../../../src/core/lv_obj_style_gen.h **** 
 163:Drivers/lvgl/src/extra/widgets/span/../../../../src/core/lv_obj_style_gen.h **** static inline lv_color_t lv_obj_get_style_bg_grad_color_filtered(const struct _lv_obj_t * obj, uint
 164:Drivers/lvgl/src/extra/widgets/span/../../../../src/core/lv_obj_style_gen.h **** {
 165:Drivers/lvgl/src/extra/widgets/span/../../../../src/core/lv_obj_style_gen.h ****     lv_style_value_t v = _lv_obj_style_apply_color_filter(obj, part, lv_obj_get_style_prop(obj, par
 166:Drivers/lvgl/src/extra/widgets/span/../../../../src/core/lv_obj_style_gen.h ****     return v.color;
 167:Drivers/lvgl/src/extra/widgets/span/../../../../src/core/lv_obj_style_gen.h **** }
 168:Drivers/lvgl/src/extra/widgets/span/../../../../src/core/lv_obj_style_gen.h **** 
 169:Drivers/lvgl/src/extra/widgets/span/../../../../src/core/lv_obj_style_gen.h **** static inline lv_grad_dir_t lv_obj_get_style_bg_grad_dir(const struct _lv_obj_t * obj, uint32_t par
 170:Drivers/lvgl/src/extra/widgets/span/../../../../src/core/lv_obj_style_gen.h **** {
 171:Drivers/lvgl/src/extra/widgets/span/../../../../src/core/lv_obj_style_gen.h ****     lv_style_value_t v = lv_obj_get_style_prop(obj, part, LV_STYLE_BG_GRAD_DIR);
 172:Drivers/lvgl/src/extra/widgets/span/../../../../src/core/lv_obj_style_gen.h ****     return (lv_grad_dir_t)v.num;
 173:Drivers/lvgl/src/extra/widgets/span/../../../../src/core/lv_obj_style_gen.h **** }
 174:Drivers/lvgl/src/extra/widgets/span/../../../../src/core/lv_obj_style_gen.h **** 
 175:Drivers/lvgl/src/extra/widgets/span/../../../../src/core/lv_obj_style_gen.h **** static inline lv_coord_t lv_obj_get_style_bg_main_stop(const struct _lv_obj_t * obj, uint32_t part)
 176:Drivers/lvgl/src/extra/widgets/span/../../../../src/core/lv_obj_style_gen.h **** {
 177:Drivers/lvgl/src/extra/widgets/span/../../../../src/core/lv_obj_style_gen.h ****     lv_style_value_t v = lv_obj_get_style_prop(obj, part, LV_STYLE_BG_MAIN_STOP);
 178:Drivers/lvgl/src/extra/widgets/span/../../../../src/core/lv_obj_style_gen.h ****     return (lv_coord_t)v.num;
 179:Drivers/lvgl/src/extra/widgets/span/../../../../src/core/lv_obj_style_gen.h **** }
 180:Drivers/lvgl/src/extra/widgets/span/../../../../src/core/lv_obj_style_gen.h **** 
 181:Drivers/lvgl/src/extra/widgets/span/../../../../src/core/lv_obj_style_gen.h **** static inline lv_coord_t lv_obj_get_style_bg_grad_stop(const struct _lv_obj_t * obj, uint32_t part)
 182:Drivers/lvgl/src/extra/widgets/span/../../../../src/core/lv_obj_style_gen.h **** {
 183:Drivers/lvgl/src/extra/widgets/span/../../../../src/core/lv_obj_style_gen.h ****     lv_style_value_t v = lv_obj_get_style_prop(obj, part, LV_STYLE_BG_GRAD_STOP);
 184:Drivers/lvgl/src/extra/widgets/span/../../../../src/core/lv_obj_style_gen.h ****     return (lv_coord_t)v.num;
 185:Drivers/lvgl/src/extra/widgets/span/../../../../src/core/lv_obj_style_gen.h **** }
 186:Drivers/lvgl/src/extra/widgets/span/../../../../src/core/lv_obj_style_gen.h **** 
 187:Drivers/lvgl/src/extra/widgets/span/../../../../src/core/lv_obj_style_gen.h **** static inline const lv_grad_dsc_t * lv_obj_get_style_bg_grad(const struct _lv_obj_t * obj, uint32_t
 188:Drivers/lvgl/src/extra/widgets/span/../../../../src/core/lv_obj_style_gen.h **** {
ARM GAS  /var/folders/0z/tsy30v1j4xl4_7kw94k978ww0000gn/T//ccAguaVl.s 			page 22


 189:Drivers/lvgl/src/extra/widgets/span/../../../../src/core/lv_obj_style_gen.h ****     lv_style_value_t v = lv_obj_get_style_prop(obj, part, LV_STYLE_BG_GRAD);
 190:Drivers/lvgl/src/extra/widgets/span/../../../../src/core/lv_obj_style_gen.h ****     return (const lv_grad_dsc_t *)v.ptr;
 191:Drivers/lvgl/src/extra/widgets/span/../../../../src/core/lv_obj_style_gen.h **** }
 192:Drivers/lvgl/src/extra/widgets/span/../../../../src/core/lv_obj_style_gen.h **** 
 193:Drivers/lvgl/src/extra/widgets/span/../../../../src/core/lv_obj_style_gen.h **** static inline lv_dither_mode_t lv_obj_get_style_bg_dither_mode(const struct _lv_obj_t * obj, uint32
 194:Drivers/lvgl/src/extra/widgets/span/../../../../src/core/lv_obj_style_gen.h **** {
 195:Drivers/lvgl/src/extra/widgets/span/../../../../src/core/lv_obj_style_gen.h ****     lv_style_value_t v = lv_obj_get_style_prop(obj, part, LV_STYLE_BG_DITHER_MODE);
 196:Drivers/lvgl/src/extra/widgets/span/../../../../src/core/lv_obj_style_gen.h ****     return (lv_dither_mode_t)v.num;
 197:Drivers/lvgl/src/extra/widgets/span/../../../../src/core/lv_obj_style_gen.h **** }
 198:Drivers/lvgl/src/extra/widgets/span/../../../../src/core/lv_obj_style_gen.h **** 
 199:Drivers/lvgl/src/extra/widgets/span/../../../../src/core/lv_obj_style_gen.h **** static inline const void * lv_obj_get_style_bg_img_src(const struct _lv_obj_t * obj, uint32_t part)
 200:Drivers/lvgl/src/extra/widgets/span/../../../../src/core/lv_obj_style_gen.h **** {
 201:Drivers/lvgl/src/extra/widgets/span/../../../../src/core/lv_obj_style_gen.h ****     lv_style_value_t v = lv_obj_get_style_prop(obj, part, LV_STYLE_BG_IMG_SRC);
 202:Drivers/lvgl/src/extra/widgets/span/../../../../src/core/lv_obj_style_gen.h ****     return (const void *)v.ptr;
 203:Drivers/lvgl/src/extra/widgets/span/../../../../src/core/lv_obj_style_gen.h **** }
 204:Drivers/lvgl/src/extra/widgets/span/../../../../src/core/lv_obj_style_gen.h **** 
 205:Drivers/lvgl/src/extra/widgets/span/../../../../src/core/lv_obj_style_gen.h **** static inline lv_opa_t lv_obj_get_style_bg_img_opa(const struct _lv_obj_t * obj, uint32_t part)
 206:Drivers/lvgl/src/extra/widgets/span/../../../../src/core/lv_obj_style_gen.h **** {
 207:Drivers/lvgl/src/extra/widgets/span/../../../../src/core/lv_obj_style_gen.h ****     lv_style_value_t v = lv_obj_get_style_prop(obj, part, LV_STYLE_BG_IMG_OPA);
 208:Drivers/lvgl/src/extra/widgets/span/../../../../src/core/lv_obj_style_gen.h ****     return (lv_opa_t)v.num;
 209:Drivers/lvgl/src/extra/widgets/span/../../../../src/core/lv_obj_style_gen.h **** }
 210:Drivers/lvgl/src/extra/widgets/span/../../../../src/core/lv_obj_style_gen.h **** 
 211:Drivers/lvgl/src/extra/widgets/span/../../../../src/core/lv_obj_style_gen.h **** static inline lv_color_t lv_obj_get_style_bg_img_recolor(const struct _lv_obj_t * obj, uint32_t par
 212:Drivers/lvgl/src/extra/widgets/span/../../../../src/core/lv_obj_style_gen.h **** {
 213:Drivers/lvgl/src/extra/widgets/span/../../../../src/core/lv_obj_style_gen.h ****     lv_style_value_t v = lv_obj_get_style_prop(obj, part, LV_STYLE_BG_IMG_RECOLOR);
 214:Drivers/lvgl/src/extra/widgets/span/../../../../src/core/lv_obj_style_gen.h ****     return v.color;
 215:Drivers/lvgl/src/extra/widgets/span/../../../../src/core/lv_obj_style_gen.h **** }
 216:Drivers/lvgl/src/extra/widgets/span/../../../../src/core/lv_obj_style_gen.h **** 
 217:Drivers/lvgl/src/extra/widgets/span/../../../../src/core/lv_obj_style_gen.h **** static inline lv_color_t lv_obj_get_style_bg_img_recolor_filtered(const struct _lv_obj_t * obj, uin
 218:Drivers/lvgl/src/extra/widgets/span/../../../../src/core/lv_obj_style_gen.h **** {
 219:Drivers/lvgl/src/extra/widgets/span/../../../../src/core/lv_obj_style_gen.h ****     lv_style_value_t v = _lv_obj_style_apply_color_filter(obj, part, lv_obj_get_style_prop(obj, par
 220:Drivers/lvgl/src/extra/widgets/span/../../../../src/core/lv_obj_style_gen.h ****     return v.color;
 221:Drivers/lvgl/src/extra/widgets/span/../../../../src/core/lv_obj_style_gen.h **** }
 222:Drivers/lvgl/src/extra/widgets/span/../../../../src/core/lv_obj_style_gen.h **** 
 223:Drivers/lvgl/src/extra/widgets/span/../../../../src/core/lv_obj_style_gen.h **** static inline lv_opa_t lv_obj_get_style_bg_img_recolor_opa(const struct _lv_obj_t * obj, uint32_t p
 224:Drivers/lvgl/src/extra/widgets/span/../../../../src/core/lv_obj_style_gen.h **** {
 225:Drivers/lvgl/src/extra/widgets/span/../../../../src/core/lv_obj_style_gen.h ****     lv_style_value_t v = lv_obj_get_style_prop(obj, part, LV_STYLE_BG_IMG_RECOLOR_OPA);
 226:Drivers/lvgl/src/extra/widgets/span/../../../../src/core/lv_obj_style_gen.h ****     return (lv_opa_t)v.num;
 227:Drivers/lvgl/src/extra/widgets/span/../../../../src/core/lv_obj_style_gen.h **** }
 228:Drivers/lvgl/src/extra/widgets/span/../../../../src/core/lv_obj_style_gen.h **** 
 229:Drivers/lvgl/src/extra/widgets/span/../../../../src/core/lv_obj_style_gen.h **** static inline bool lv_obj_get_style_bg_img_tiled(const struct _lv_obj_t * obj, uint32_t part)
 230:Drivers/lvgl/src/extra/widgets/span/../../../../src/core/lv_obj_style_gen.h **** {
 231:Drivers/lvgl/src/extra/widgets/span/../../../../src/core/lv_obj_style_gen.h ****     lv_style_value_t v = lv_obj_get_style_prop(obj, part, LV_STYLE_BG_IMG_TILED);
 232:Drivers/lvgl/src/extra/widgets/span/../../../../src/core/lv_obj_style_gen.h ****     return (bool)v.num;
 233:Drivers/lvgl/src/extra/widgets/span/../../../../src/core/lv_obj_style_gen.h **** }
 234:Drivers/lvgl/src/extra/widgets/span/../../../../src/core/lv_obj_style_gen.h **** 
 235:Drivers/lvgl/src/extra/widgets/span/../../../../src/core/lv_obj_style_gen.h **** static inline lv_color_t lv_obj_get_style_border_color(const struct _lv_obj_t * obj, uint32_t part)
 236:Drivers/lvgl/src/extra/widgets/span/../../../../src/core/lv_obj_style_gen.h **** {
 237:Drivers/lvgl/src/extra/widgets/span/../../../../src/core/lv_obj_style_gen.h ****     lv_style_value_t v = lv_obj_get_style_prop(obj, part, LV_STYLE_BORDER_COLOR);
 238:Drivers/lvgl/src/extra/widgets/span/../../../../src/core/lv_obj_style_gen.h ****     return v.color;
 239:Drivers/lvgl/src/extra/widgets/span/../../../../src/core/lv_obj_style_gen.h **** }
 240:Drivers/lvgl/src/extra/widgets/span/../../../../src/core/lv_obj_style_gen.h **** 
 241:Drivers/lvgl/src/extra/widgets/span/../../../../src/core/lv_obj_style_gen.h **** static inline lv_color_t lv_obj_get_style_border_color_filtered(const struct _lv_obj_t * obj, uint3
 242:Drivers/lvgl/src/extra/widgets/span/../../../../src/core/lv_obj_style_gen.h **** {
 243:Drivers/lvgl/src/extra/widgets/span/../../../../src/core/lv_obj_style_gen.h ****     lv_style_value_t v = _lv_obj_style_apply_color_filter(obj, part, lv_obj_get_style_prop(obj, par
 244:Drivers/lvgl/src/extra/widgets/span/../../../../src/core/lv_obj_style_gen.h ****     return v.color;
 245:Drivers/lvgl/src/extra/widgets/span/../../../../src/core/lv_obj_style_gen.h **** }
ARM GAS  /var/folders/0z/tsy30v1j4xl4_7kw94k978ww0000gn/T//ccAguaVl.s 			page 23


 246:Drivers/lvgl/src/extra/widgets/span/../../../../src/core/lv_obj_style_gen.h **** 
 247:Drivers/lvgl/src/extra/widgets/span/../../../../src/core/lv_obj_style_gen.h **** static inline lv_opa_t lv_obj_get_style_border_opa(const struct _lv_obj_t * obj, uint32_t part)
 248:Drivers/lvgl/src/extra/widgets/span/../../../../src/core/lv_obj_style_gen.h **** {
 249:Drivers/lvgl/src/extra/widgets/span/../../../../src/core/lv_obj_style_gen.h ****     lv_style_value_t v = lv_obj_get_style_prop(obj, part, LV_STYLE_BORDER_OPA);
 250:Drivers/lvgl/src/extra/widgets/span/../../../../src/core/lv_obj_style_gen.h ****     return (lv_opa_t)v.num;
 251:Drivers/lvgl/src/extra/widgets/span/../../../../src/core/lv_obj_style_gen.h **** }
 252:Drivers/lvgl/src/extra/widgets/span/../../../../src/core/lv_obj_style_gen.h **** 
 253:Drivers/lvgl/src/extra/widgets/span/../../../../src/core/lv_obj_style_gen.h **** static inline lv_coord_t lv_obj_get_style_border_width(const struct _lv_obj_t * obj, uint32_t part)
 254:Drivers/lvgl/src/extra/widgets/span/../../../../src/core/lv_obj_style_gen.h **** {
 255:Drivers/lvgl/src/extra/widgets/span/../../../../src/core/lv_obj_style_gen.h ****     lv_style_value_t v = lv_obj_get_style_prop(obj, part, LV_STYLE_BORDER_WIDTH);
 256:Drivers/lvgl/src/extra/widgets/span/../../../../src/core/lv_obj_style_gen.h ****     return (lv_coord_t)v.num;
 257:Drivers/lvgl/src/extra/widgets/span/../../../../src/core/lv_obj_style_gen.h **** }
 258:Drivers/lvgl/src/extra/widgets/span/../../../../src/core/lv_obj_style_gen.h **** 
 259:Drivers/lvgl/src/extra/widgets/span/../../../../src/core/lv_obj_style_gen.h **** static inline lv_border_side_t lv_obj_get_style_border_side(const struct _lv_obj_t * obj, uint32_t 
 260:Drivers/lvgl/src/extra/widgets/span/../../../../src/core/lv_obj_style_gen.h **** {
 261:Drivers/lvgl/src/extra/widgets/span/../../../../src/core/lv_obj_style_gen.h ****     lv_style_value_t v = lv_obj_get_style_prop(obj, part, LV_STYLE_BORDER_SIDE);
 262:Drivers/lvgl/src/extra/widgets/span/../../../../src/core/lv_obj_style_gen.h ****     return (lv_border_side_t)v.num;
 263:Drivers/lvgl/src/extra/widgets/span/../../../../src/core/lv_obj_style_gen.h **** }
 264:Drivers/lvgl/src/extra/widgets/span/../../../../src/core/lv_obj_style_gen.h **** 
 265:Drivers/lvgl/src/extra/widgets/span/../../../../src/core/lv_obj_style_gen.h **** static inline bool lv_obj_get_style_border_post(const struct _lv_obj_t * obj, uint32_t part)
 266:Drivers/lvgl/src/extra/widgets/span/../../../../src/core/lv_obj_style_gen.h **** {
 267:Drivers/lvgl/src/extra/widgets/span/../../../../src/core/lv_obj_style_gen.h ****     lv_style_value_t v = lv_obj_get_style_prop(obj, part, LV_STYLE_BORDER_POST);
 268:Drivers/lvgl/src/extra/widgets/span/../../../../src/core/lv_obj_style_gen.h ****     return (bool)v.num;
 269:Drivers/lvgl/src/extra/widgets/span/../../../../src/core/lv_obj_style_gen.h **** }
 270:Drivers/lvgl/src/extra/widgets/span/../../../../src/core/lv_obj_style_gen.h **** 
 271:Drivers/lvgl/src/extra/widgets/span/../../../../src/core/lv_obj_style_gen.h **** static inline lv_coord_t lv_obj_get_style_outline_width(const struct _lv_obj_t * obj, uint32_t part
 272:Drivers/lvgl/src/extra/widgets/span/../../../../src/core/lv_obj_style_gen.h **** {
 273:Drivers/lvgl/src/extra/widgets/span/../../../../src/core/lv_obj_style_gen.h ****     lv_style_value_t v = lv_obj_get_style_prop(obj, part, LV_STYLE_OUTLINE_WIDTH);
 274:Drivers/lvgl/src/extra/widgets/span/../../../../src/core/lv_obj_style_gen.h ****     return (lv_coord_t)v.num;
 275:Drivers/lvgl/src/extra/widgets/span/../../../../src/core/lv_obj_style_gen.h **** }
 276:Drivers/lvgl/src/extra/widgets/span/../../../../src/core/lv_obj_style_gen.h **** 
 277:Drivers/lvgl/src/extra/widgets/span/../../../../src/core/lv_obj_style_gen.h **** static inline lv_color_t lv_obj_get_style_outline_color(const struct _lv_obj_t * obj, uint32_t part
 278:Drivers/lvgl/src/extra/widgets/span/../../../../src/core/lv_obj_style_gen.h **** {
 279:Drivers/lvgl/src/extra/widgets/span/../../../../src/core/lv_obj_style_gen.h ****     lv_style_value_t v = lv_obj_get_style_prop(obj, part, LV_STYLE_OUTLINE_COLOR);
 280:Drivers/lvgl/src/extra/widgets/span/../../../../src/core/lv_obj_style_gen.h ****     return v.color;
 281:Drivers/lvgl/src/extra/widgets/span/../../../../src/core/lv_obj_style_gen.h **** }
 282:Drivers/lvgl/src/extra/widgets/span/../../../../src/core/lv_obj_style_gen.h **** 
 283:Drivers/lvgl/src/extra/widgets/span/../../../../src/core/lv_obj_style_gen.h **** static inline lv_color_t lv_obj_get_style_outline_color_filtered(const struct _lv_obj_t * obj, uint
 284:Drivers/lvgl/src/extra/widgets/span/../../../../src/core/lv_obj_style_gen.h **** {
 285:Drivers/lvgl/src/extra/widgets/span/../../../../src/core/lv_obj_style_gen.h ****     lv_style_value_t v = _lv_obj_style_apply_color_filter(obj, part, lv_obj_get_style_prop(obj, par
 286:Drivers/lvgl/src/extra/widgets/span/../../../../src/core/lv_obj_style_gen.h ****     return v.color;
 287:Drivers/lvgl/src/extra/widgets/span/../../../../src/core/lv_obj_style_gen.h **** }
 288:Drivers/lvgl/src/extra/widgets/span/../../../../src/core/lv_obj_style_gen.h **** 
 289:Drivers/lvgl/src/extra/widgets/span/../../../../src/core/lv_obj_style_gen.h **** static inline lv_opa_t lv_obj_get_style_outline_opa(const struct _lv_obj_t * obj, uint32_t part)
 290:Drivers/lvgl/src/extra/widgets/span/../../../../src/core/lv_obj_style_gen.h **** {
 291:Drivers/lvgl/src/extra/widgets/span/../../../../src/core/lv_obj_style_gen.h ****     lv_style_value_t v = lv_obj_get_style_prop(obj, part, LV_STYLE_OUTLINE_OPA);
 292:Drivers/lvgl/src/extra/widgets/span/../../../../src/core/lv_obj_style_gen.h ****     return (lv_opa_t)v.num;
 293:Drivers/lvgl/src/extra/widgets/span/../../../../src/core/lv_obj_style_gen.h **** }
 294:Drivers/lvgl/src/extra/widgets/span/../../../../src/core/lv_obj_style_gen.h **** 
 295:Drivers/lvgl/src/extra/widgets/span/../../../../src/core/lv_obj_style_gen.h **** static inline lv_coord_t lv_obj_get_style_outline_pad(const struct _lv_obj_t * obj, uint32_t part)
 296:Drivers/lvgl/src/extra/widgets/span/../../../../src/core/lv_obj_style_gen.h **** {
 297:Drivers/lvgl/src/extra/widgets/span/../../../../src/core/lv_obj_style_gen.h ****     lv_style_value_t v = lv_obj_get_style_prop(obj, part, LV_STYLE_OUTLINE_PAD);
 298:Drivers/lvgl/src/extra/widgets/span/../../../../src/core/lv_obj_style_gen.h ****     return (lv_coord_t)v.num;
 299:Drivers/lvgl/src/extra/widgets/span/../../../../src/core/lv_obj_style_gen.h **** }
 300:Drivers/lvgl/src/extra/widgets/span/../../../../src/core/lv_obj_style_gen.h **** 
 301:Drivers/lvgl/src/extra/widgets/span/../../../../src/core/lv_obj_style_gen.h **** static inline lv_coord_t lv_obj_get_style_shadow_width(const struct _lv_obj_t * obj, uint32_t part)
 302:Drivers/lvgl/src/extra/widgets/span/../../../../src/core/lv_obj_style_gen.h **** {
ARM GAS  /var/folders/0z/tsy30v1j4xl4_7kw94k978ww0000gn/T//ccAguaVl.s 			page 24


 303:Drivers/lvgl/src/extra/widgets/span/../../../../src/core/lv_obj_style_gen.h ****     lv_style_value_t v = lv_obj_get_style_prop(obj, part, LV_STYLE_SHADOW_WIDTH);
 304:Drivers/lvgl/src/extra/widgets/span/../../../../src/core/lv_obj_style_gen.h ****     return (lv_coord_t)v.num;
 305:Drivers/lvgl/src/extra/widgets/span/../../../../src/core/lv_obj_style_gen.h **** }
 306:Drivers/lvgl/src/extra/widgets/span/../../../../src/core/lv_obj_style_gen.h **** 
 307:Drivers/lvgl/src/extra/widgets/span/../../../../src/core/lv_obj_style_gen.h **** static inline lv_coord_t lv_obj_get_style_shadow_ofs_x(const struct _lv_obj_t * obj, uint32_t part)
 308:Drivers/lvgl/src/extra/widgets/span/../../../../src/core/lv_obj_style_gen.h **** {
 309:Drivers/lvgl/src/extra/widgets/span/../../../../src/core/lv_obj_style_gen.h ****     lv_style_value_t v = lv_obj_get_style_prop(obj, part, LV_STYLE_SHADOW_OFS_X);
 310:Drivers/lvgl/src/extra/widgets/span/../../../../src/core/lv_obj_style_gen.h ****     return (lv_coord_t)v.num;
 311:Drivers/lvgl/src/extra/widgets/span/../../../../src/core/lv_obj_style_gen.h **** }
 312:Drivers/lvgl/src/extra/widgets/span/../../../../src/core/lv_obj_style_gen.h **** 
 313:Drivers/lvgl/src/extra/widgets/span/../../../../src/core/lv_obj_style_gen.h **** static inline lv_coord_t lv_obj_get_style_shadow_ofs_y(const struct _lv_obj_t * obj, uint32_t part)
 314:Drivers/lvgl/src/extra/widgets/span/../../../../src/core/lv_obj_style_gen.h **** {
 315:Drivers/lvgl/src/extra/widgets/span/../../../../src/core/lv_obj_style_gen.h ****     lv_style_value_t v = lv_obj_get_style_prop(obj, part, LV_STYLE_SHADOW_OFS_Y);
 316:Drivers/lvgl/src/extra/widgets/span/../../../../src/core/lv_obj_style_gen.h ****     return (lv_coord_t)v.num;
 317:Drivers/lvgl/src/extra/widgets/span/../../../../src/core/lv_obj_style_gen.h **** }
 318:Drivers/lvgl/src/extra/widgets/span/../../../../src/core/lv_obj_style_gen.h **** 
 319:Drivers/lvgl/src/extra/widgets/span/../../../../src/core/lv_obj_style_gen.h **** static inline lv_coord_t lv_obj_get_style_shadow_spread(const struct _lv_obj_t * obj, uint32_t part
 320:Drivers/lvgl/src/extra/widgets/span/../../../../src/core/lv_obj_style_gen.h **** {
 321:Drivers/lvgl/src/extra/widgets/span/../../../../src/core/lv_obj_style_gen.h ****     lv_style_value_t v = lv_obj_get_style_prop(obj, part, LV_STYLE_SHADOW_SPREAD);
 322:Drivers/lvgl/src/extra/widgets/span/../../../../src/core/lv_obj_style_gen.h ****     return (lv_coord_t)v.num;
 323:Drivers/lvgl/src/extra/widgets/span/../../../../src/core/lv_obj_style_gen.h **** }
 324:Drivers/lvgl/src/extra/widgets/span/../../../../src/core/lv_obj_style_gen.h **** 
 325:Drivers/lvgl/src/extra/widgets/span/../../../../src/core/lv_obj_style_gen.h **** static inline lv_color_t lv_obj_get_style_shadow_color(const struct _lv_obj_t * obj, uint32_t part)
 326:Drivers/lvgl/src/extra/widgets/span/../../../../src/core/lv_obj_style_gen.h **** {
 327:Drivers/lvgl/src/extra/widgets/span/../../../../src/core/lv_obj_style_gen.h ****     lv_style_value_t v = lv_obj_get_style_prop(obj, part, LV_STYLE_SHADOW_COLOR);
 328:Drivers/lvgl/src/extra/widgets/span/../../../../src/core/lv_obj_style_gen.h ****     return v.color;
 329:Drivers/lvgl/src/extra/widgets/span/../../../../src/core/lv_obj_style_gen.h **** }
 330:Drivers/lvgl/src/extra/widgets/span/../../../../src/core/lv_obj_style_gen.h **** 
 331:Drivers/lvgl/src/extra/widgets/span/../../../../src/core/lv_obj_style_gen.h **** static inline lv_color_t lv_obj_get_style_shadow_color_filtered(const struct _lv_obj_t * obj, uint3
 332:Drivers/lvgl/src/extra/widgets/span/../../../../src/core/lv_obj_style_gen.h **** {
 333:Drivers/lvgl/src/extra/widgets/span/../../../../src/core/lv_obj_style_gen.h ****     lv_style_value_t v = _lv_obj_style_apply_color_filter(obj, part, lv_obj_get_style_prop(obj, par
 334:Drivers/lvgl/src/extra/widgets/span/../../../../src/core/lv_obj_style_gen.h ****     return v.color;
 335:Drivers/lvgl/src/extra/widgets/span/../../../../src/core/lv_obj_style_gen.h **** }
 336:Drivers/lvgl/src/extra/widgets/span/../../../../src/core/lv_obj_style_gen.h **** 
 337:Drivers/lvgl/src/extra/widgets/span/../../../../src/core/lv_obj_style_gen.h **** static inline lv_opa_t lv_obj_get_style_shadow_opa(const struct _lv_obj_t * obj, uint32_t part)
 338:Drivers/lvgl/src/extra/widgets/span/../../../../src/core/lv_obj_style_gen.h **** {
 339:Drivers/lvgl/src/extra/widgets/span/../../../../src/core/lv_obj_style_gen.h ****     lv_style_value_t v = lv_obj_get_style_prop(obj, part, LV_STYLE_SHADOW_OPA);
 340:Drivers/lvgl/src/extra/widgets/span/../../../../src/core/lv_obj_style_gen.h ****     return (lv_opa_t)v.num;
 341:Drivers/lvgl/src/extra/widgets/span/../../../../src/core/lv_obj_style_gen.h **** }
 342:Drivers/lvgl/src/extra/widgets/span/../../../../src/core/lv_obj_style_gen.h **** 
 343:Drivers/lvgl/src/extra/widgets/span/../../../../src/core/lv_obj_style_gen.h **** static inline lv_opa_t lv_obj_get_style_img_opa(const struct _lv_obj_t * obj, uint32_t part)
 344:Drivers/lvgl/src/extra/widgets/span/../../../../src/core/lv_obj_style_gen.h **** {
 345:Drivers/lvgl/src/extra/widgets/span/../../../../src/core/lv_obj_style_gen.h ****     lv_style_value_t v = lv_obj_get_style_prop(obj, part, LV_STYLE_IMG_OPA);
 346:Drivers/lvgl/src/extra/widgets/span/../../../../src/core/lv_obj_style_gen.h ****     return (lv_opa_t)v.num;
 347:Drivers/lvgl/src/extra/widgets/span/../../../../src/core/lv_obj_style_gen.h **** }
 348:Drivers/lvgl/src/extra/widgets/span/../../../../src/core/lv_obj_style_gen.h **** 
 349:Drivers/lvgl/src/extra/widgets/span/../../../../src/core/lv_obj_style_gen.h **** static inline lv_color_t lv_obj_get_style_img_recolor(const struct _lv_obj_t * obj, uint32_t part)
 350:Drivers/lvgl/src/extra/widgets/span/../../../../src/core/lv_obj_style_gen.h **** {
 351:Drivers/lvgl/src/extra/widgets/span/../../../../src/core/lv_obj_style_gen.h ****     lv_style_value_t v = lv_obj_get_style_prop(obj, part, LV_STYLE_IMG_RECOLOR);
 352:Drivers/lvgl/src/extra/widgets/span/../../../../src/core/lv_obj_style_gen.h ****     return v.color;
 353:Drivers/lvgl/src/extra/widgets/span/../../../../src/core/lv_obj_style_gen.h **** }
 354:Drivers/lvgl/src/extra/widgets/span/../../../../src/core/lv_obj_style_gen.h **** 
 355:Drivers/lvgl/src/extra/widgets/span/../../../../src/core/lv_obj_style_gen.h **** static inline lv_color_t lv_obj_get_style_img_recolor_filtered(const struct _lv_obj_t * obj, uint32
 356:Drivers/lvgl/src/extra/widgets/span/../../../../src/core/lv_obj_style_gen.h **** {
 357:Drivers/lvgl/src/extra/widgets/span/../../../../src/core/lv_obj_style_gen.h ****     lv_style_value_t v = _lv_obj_style_apply_color_filter(obj, part, lv_obj_get_style_prop(obj, par
 358:Drivers/lvgl/src/extra/widgets/span/../../../../src/core/lv_obj_style_gen.h ****     return v.color;
 359:Drivers/lvgl/src/extra/widgets/span/../../../../src/core/lv_obj_style_gen.h **** }
ARM GAS  /var/folders/0z/tsy30v1j4xl4_7kw94k978ww0000gn/T//ccAguaVl.s 			page 25


 360:Drivers/lvgl/src/extra/widgets/span/../../../../src/core/lv_obj_style_gen.h **** 
 361:Drivers/lvgl/src/extra/widgets/span/../../../../src/core/lv_obj_style_gen.h **** static inline lv_opa_t lv_obj_get_style_img_recolor_opa(const struct _lv_obj_t * obj, uint32_t part
 362:Drivers/lvgl/src/extra/widgets/span/../../../../src/core/lv_obj_style_gen.h **** {
 363:Drivers/lvgl/src/extra/widgets/span/../../../../src/core/lv_obj_style_gen.h ****     lv_style_value_t v = lv_obj_get_style_prop(obj, part, LV_STYLE_IMG_RECOLOR_OPA);
 364:Drivers/lvgl/src/extra/widgets/span/../../../../src/core/lv_obj_style_gen.h ****     return (lv_opa_t)v.num;
 365:Drivers/lvgl/src/extra/widgets/span/../../../../src/core/lv_obj_style_gen.h **** }
 366:Drivers/lvgl/src/extra/widgets/span/../../../../src/core/lv_obj_style_gen.h **** 
 367:Drivers/lvgl/src/extra/widgets/span/../../../../src/core/lv_obj_style_gen.h **** static inline lv_coord_t lv_obj_get_style_line_width(const struct _lv_obj_t * obj, uint32_t part)
 368:Drivers/lvgl/src/extra/widgets/span/../../../../src/core/lv_obj_style_gen.h **** {
 369:Drivers/lvgl/src/extra/widgets/span/../../../../src/core/lv_obj_style_gen.h ****     lv_style_value_t v = lv_obj_get_style_prop(obj, part, LV_STYLE_LINE_WIDTH);
 370:Drivers/lvgl/src/extra/widgets/span/../../../../src/core/lv_obj_style_gen.h ****     return (lv_coord_t)v.num;
 371:Drivers/lvgl/src/extra/widgets/span/../../../../src/core/lv_obj_style_gen.h **** }
 372:Drivers/lvgl/src/extra/widgets/span/../../../../src/core/lv_obj_style_gen.h **** 
 373:Drivers/lvgl/src/extra/widgets/span/../../../../src/core/lv_obj_style_gen.h **** static inline lv_coord_t lv_obj_get_style_line_dash_width(const struct _lv_obj_t * obj, uint32_t pa
 374:Drivers/lvgl/src/extra/widgets/span/../../../../src/core/lv_obj_style_gen.h **** {
 375:Drivers/lvgl/src/extra/widgets/span/../../../../src/core/lv_obj_style_gen.h ****     lv_style_value_t v = lv_obj_get_style_prop(obj, part, LV_STYLE_LINE_DASH_WIDTH);
 376:Drivers/lvgl/src/extra/widgets/span/../../../../src/core/lv_obj_style_gen.h ****     return (lv_coord_t)v.num;
 377:Drivers/lvgl/src/extra/widgets/span/../../../../src/core/lv_obj_style_gen.h **** }
 378:Drivers/lvgl/src/extra/widgets/span/../../../../src/core/lv_obj_style_gen.h **** 
 379:Drivers/lvgl/src/extra/widgets/span/../../../../src/core/lv_obj_style_gen.h **** static inline lv_coord_t lv_obj_get_style_line_dash_gap(const struct _lv_obj_t * obj, uint32_t part
 380:Drivers/lvgl/src/extra/widgets/span/../../../../src/core/lv_obj_style_gen.h **** {
 381:Drivers/lvgl/src/extra/widgets/span/../../../../src/core/lv_obj_style_gen.h ****     lv_style_value_t v = lv_obj_get_style_prop(obj, part, LV_STYLE_LINE_DASH_GAP);
 382:Drivers/lvgl/src/extra/widgets/span/../../../../src/core/lv_obj_style_gen.h ****     return (lv_coord_t)v.num;
 383:Drivers/lvgl/src/extra/widgets/span/../../../../src/core/lv_obj_style_gen.h **** }
 384:Drivers/lvgl/src/extra/widgets/span/../../../../src/core/lv_obj_style_gen.h **** 
 385:Drivers/lvgl/src/extra/widgets/span/../../../../src/core/lv_obj_style_gen.h **** static inline bool lv_obj_get_style_line_rounded(const struct _lv_obj_t * obj, uint32_t part)
 386:Drivers/lvgl/src/extra/widgets/span/../../../../src/core/lv_obj_style_gen.h **** {
 387:Drivers/lvgl/src/extra/widgets/span/../../../../src/core/lv_obj_style_gen.h ****     lv_style_value_t v = lv_obj_get_style_prop(obj, part, LV_STYLE_LINE_ROUNDED);
 388:Drivers/lvgl/src/extra/widgets/span/../../../../src/core/lv_obj_style_gen.h ****     return (bool)v.num;
 389:Drivers/lvgl/src/extra/widgets/span/../../../../src/core/lv_obj_style_gen.h **** }
 390:Drivers/lvgl/src/extra/widgets/span/../../../../src/core/lv_obj_style_gen.h **** 
 391:Drivers/lvgl/src/extra/widgets/span/../../../../src/core/lv_obj_style_gen.h **** static inline lv_color_t lv_obj_get_style_line_color(const struct _lv_obj_t * obj, uint32_t part)
 392:Drivers/lvgl/src/extra/widgets/span/../../../../src/core/lv_obj_style_gen.h **** {
 393:Drivers/lvgl/src/extra/widgets/span/../../../../src/core/lv_obj_style_gen.h ****     lv_style_value_t v = lv_obj_get_style_prop(obj, part, LV_STYLE_LINE_COLOR);
 394:Drivers/lvgl/src/extra/widgets/span/../../../../src/core/lv_obj_style_gen.h ****     return v.color;
 395:Drivers/lvgl/src/extra/widgets/span/../../../../src/core/lv_obj_style_gen.h **** }
 396:Drivers/lvgl/src/extra/widgets/span/../../../../src/core/lv_obj_style_gen.h **** 
 397:Drivers/lvgl/src/extra/widgets/span/../../../../src/core/lv_obj_style_gen.h **** static inline lv_color_t lv_obj_get_style_line_color_filtered(const struct _lv_obj_t * obj, uint32_
 398:Drivers/lvgl/src/extra/widgets/span/../../../../src/core/lv_obj_style_gen.h **** {
 399:Drivers/lvgl/src/extra/widgets/span/../../../../src/core/lv_obj_style_gen.h ****     lv_style_value_t v = _lv_obj_style_apply_color_filter(obj, part, lv_obj_get_style_prop(obj, par
 400:Drivers/lvgl/src/extra/widgets/span/../../../../src/core/lv_obj_style_gen.h ****     return v.color;
 401:Drivers/lvgl/src/extra/widgets/span/../../../../src/core/lv_obj_style_gen.h **** }
 402:Drivers/lvgl/src/extra/widgets/span/../../../../src/core/lv_obj_style_gen.h **** 
 403:Drivers/lvgl/src/extra/widgets/span/../../../../src/core/lv_obj_style_gen.h **** static inline lv_opa_t lv_obj_get_style_line_opa(const struct _lv_obj_t * obj, uint32_t part)
 404:Drivers/lvgl/src/extra/widgets/span/../../../../src/core/lv_obj_style_gen.h **** {
 405:Drivers/lvgl/src/extra/widgets/span/../../../../src/core/lv_obj_style_gen.h ****     lv_style_value_t v = lv_obj_get_style_prop(obj, part, LV_STYLE_LINE_OPA);
 406:Drivers/lvgl/src/extra/widgets/span/../../../../src/core/lv_obj_style_gen.h ****     return (lv_opa_t)v.num;
 407:Drivers/lvgl/src/extra/widgets/span/../../../../src/core/lv_obj_style_gen.h **** }
 408:Drivers/lvgl/src/extra/widgets/span/../../../../src/core/lv_obj_style_gen.h **** 
 409:Drivers/lvgl/src/extra/widgets/span/../../../../src/core/lv_obj_style_gen.h **** static inline lv_coord_t lv_obj_get_style_arc_width(const struct _lv_obj_t * obj, uint32_t part)
 410:Drivers/lvgl/src/extra/widgets/span/../../../../src/core/lv_obj_style_gen.h **** {
 411:Drivers/lvgl/src/extra/widgets/span/../../../../src/core/lv_obj_style_gen.h ****     lv_style_value_t v = lv_obj_get_style_prop(obj, part, LV_STYLE_ARC_WIDTH);
 412:Drivers/lvgl/src/extra/widgets/span/../../../../src/core/lv_obj_style_gen.h ****     return (lv_coord_t)v.num;
 413:Drivers/lvgl/src/extra/widgets/span/../../../../src/core/lv_obj_style_gen.h **** }
 414:Drivers/lvgl/src/extra/widgets/span/../../../../src/core/lv_obj_style_gen.h **** 
 415:Drivers/lvgl/src/extra/widgets/span/../../../../src/core/lv_obj_style_gen.h **** static inline bool lv_obj_get_style_arc_rounded(const struct _lv_obj_t * obj, uint32_t part)
 416:Drivers/lvgl/src/extra/widgets/span/../../../../src/core/lv_obj_style_gen.h **** {
ARM GAS  /var/folders/0z/tsy30v1j4xl4_7kw94k978ww0000gn/T//ccAguaVl.s 			page 26


 417:Drivers/lvgl/src/extra/widgets/span/../../../../src/core/lv_obj_style_gen.h ****     lv_style_value_t v = lv_obj_get_style_prop(obj, part, LV_STYLE_ARC_ROUNDED);
 418:Drivers/lvgl/src/extra/widgets/span/../../../../src/core/lv_obj_style_gen.h ****     return (bool)v.num;
 419:Drivers/lvgl/src/extra/widgets/span/../../../../src/core/lv_obj_style_gen.h **** }
 420:Drivers/lvgl/src/extra/widgets/span/../../../../src/core/lv_obj_style_gen.h **** 
 421:Drivers/lvgl/src/extra/widgets/span/../../../../src/core/lv_obj_style_gen.h **** static inline lv_color_t lv_obj_get_style_arc_color(const struct _lv_obj_t * obj, uint32_t part)
 422:Drivers/lvgl/src/extra/widgets/span/../../../../src/core/lv_obj_style_gen.h **** {
 423:Drivers/lvgl/src/extra/widgets/span/../../../../src/core/lv_obj_style_gen.h ****     lv_style_value_t v = lv_obj_get_style_prop(obj, part, LV_STYLE_ARC_COLOR);
 424:Drivers/lvgl/src/extra/widgets/span/../../../../src/core/lv_obj_style_gen.h ****     return v.color;
 425:Drivers/lvgl/src/extra/widgets/span/../../../../src/core/lv_obj_style_gen.h **** }
 426:Drivers/lvgl/src/extra/widgets/span/../../../../src/core/lv_obj_style_gen.h **** 
 427:Drivers/lvgl/src/extra/widgets/span/../../../../src/core/lv_obj_style_gen.h **** static inline lv_color_t lv_obj_get_style_arc_color_filtered(const struct _lv_obj_t * obj, uint32_t
 428:Drivers/lvgl/src/extra/widgets/span/../../../../src/core/lv_obj_style_gen.h **** {
 429:Drivers/lvgl/src/extra/widgets/span/../../../../src/core/lv_obj_style_gen.h ****     lv_style_value_t v = _lv_obj_style_apply_color_filter(obj, part, lv_obj_get_style_prop(obj, par
 430:Drivers/lvgl/src/extra/widgets/span/../../../../src/core/lv_obj_style_gen.h ****     return v.color;
 431:Drivers/lvgl/src/extra/widgets/span/../../../../src/core/lv_obj_style_gen.h **** }
 432:Drivers/lvgl/src/extra/widgets/span/../../../../src/core/lv_obj_style_gen.h **** 
 433:Drivers/lvgl/src/extra/widgets/span/../../../../src/core/lv_obj_style_gen.h **** static inline lv_opa_t lv_obj_get_style_arc_opa(const struct _lv_obj_t * obj, uint32_t part)
 434:Drivers/lvgl/src/extra/widgets/span/../../../../src/core/lv_obj_style_gen.h **** {
 435:Drivers/lvgl/src/extra/widgets/span/../../../../src/core/lv_obj_style_gen.h ****     lv_style_value_t v = lv_obj_get_style_prop(obj, part, LV_STYLE_ARC_OPA);
 436:Drivers/lvgl/src/extra/widgets/span/../../../../src/core/lv_obj_style_gen.h ****     return (lv_opa_t)v.num;
 437:Drivers/lvgl/src/extra/widgets/span/../../../../src/core/lv_obj_style_gen.h **** }
 438:Drivers/lvgl/src/extra/widgets/span/../../../../src/core/lv_obj_style_gen.h **** 
 439:Drivers/lvgl/src/extra/widgets/span/../../../../src/core/lv_obj_style_gen.h **** static inline const void * lv_obj_get_style_arc_img_src(const struct _lv_obj_t * obj, uint32_t part
 440:Drivers/lvgl/src/extra/widgets/span/../../../../src/core/lv_obj_style_gen.h **** {
 441:Drivers/lvgl/src/extra/widgets/span/../../../../src/core/lv_obj_style_gen.h ****     lv_style_value_t v = lv_obj_get_style_prop(obj, part, LV_STYLE_ARC_IMG_SRC);
 442:Drivers/lvgl/src/extra/widgets/span/../../../../src/core/lv_obj_style_gen.h ****     return (const void *)v.ptr;
 443:Drivers/lvgl/src/extra/widgets/span/../../../../src/core/lv_obj_style_gen.h **** }
 444:Drivers/lvgl/src/extra/widgets/span/../../../../src/core/lv_obj_style_gen.h **** 
 445:Drivers/lvgl/src/extra/widgets/span/../../../../src/core/lv_obj_style_gen.h **** static inline lv_color_t lv_obj_get_style_text_color(const struct _lv_obj_t * obj, uint32_t part)
 446:Drivers/lvgl/src/extra/widgets/span/../../../../src/core/lv_obj_style_gen.h **** {
 447:Drivers/lvgl/src/extra/widgets/span/../../../../src/core/lv_obj_style_gen.h ****     lv_style_value_t v = lv_obj_get_style_prop(obj, part, LV_STYLE_TEXT_COLOR);
 448:Drivers/lvgl/src/extra/widgets/span/../../../../src/core/lv_obj_style_gen.h ****     return v.color;
 449:Drivers/lvgl/src/extra/widgets/span/../../../../src/core/lv_obj_style_gen.h **** }
 450:Drivers/lvgl/src/extra/widgets/span/../../../../src/core/lv_obj_style_gen.h **** 
 451:Drivers/lvgl/src/extra/widgets/span/../../../../src/core/lv_obj_style_gen.h **** static inline lv_color_t lv_obj_get_style_text_color_filtered(const struct _lv_obj_t * obj, uint32_
 452:Drivers/lvgl/src/extra/widgets/span/../../../../src/core/lv_obj_style_gen.h **** {
 453:Drivers/lvgl/src/extra/widgets/span/../../../../src/core/lv_obj_style_gen.h ****     lv_style_value_t v = _lv_obj_style_apply_color_filter(obj, part, lv_obj_get_style_prop(obj, par
 454:Drivers/lvgl/src/extra/widgets/span/../../../../src/core/lv_obj_style_gen.h ****     return v.color;
 455:Drivers/lvgl/src/extra/widgets/span/../../../../src/core/lv_obj_style_gen.h **** }
 456:Drivers/lvgl/src/extra/widgets/span/../../../../src/core/lv_obj_style_gen.h **** 
 457:Drivers/lvgl/src/extra/widgets/span/../../../../src/core/lv_obj_style_gen.h **** static inline lv_opa_t lv_obj_get_style_text_opa(const struct _lv_obj_t * obj, uint32_t part)
 458:Drivers/lvgl/src/extra/widgets/span/../../../../src/core/lv_obj_style_gen.h **** {
 459:Drivers/lvgl/src/extra/widgets/span/../../../../src/core/lv_obj_style_gen.h ****     lv_style_value_t v = lv_obj_get_style_prop(obj, part, LV_STYLE_TEXT_OPA);
 460:Drivers/lvgl/src/extra/widgets/span/../../../../src/core/lv_obj_style_gen.h ****     return (lv_opa_t)v.num;
 461:Drivers/lvgl/src/extra/widgets/span/../../../../src/core/lv_obj_style_gen.h **** }
 462:Drivers/lvgl/src/extra/widgets/span/../../../../src/core/lv_obj_style_gen.h **** 
 463:Drivers/lvgl/src/extra/widgets/span/../../../../src/core/lv_obj_style_gen.h **** static inline const lv_font_t * lv_obj_get_style_text_font(const struct _lv_obj_t * obj, uint32_t p
 464:Drivers/lvgl/src/extra/widgets/span/../../../../src/core/lv_obj_style_gen.h **** {
 465:Drivers/lvgl/src/extra/widgets/span/../../../../src/core/lv_obj_style_gen.h ****     lv_style_value_t v = lv_obj_get_style_prop(obj, part, LV_STYLE_TEXT_FONT);
 466:Drivers/lvgl/src/extra/widgets/span/../../../../src/core/lv_obj_style_gen.h ****     return (const lv_font_t *)v.ptr;
 467:Drivers/lvgl/src/extra/widgets/span/../../../../src/core/lv_obj_style_gen.h **** }
 468:Drivers/lvgl/src/extra/widgets/span/../../../../src/core/lv_obj_style_gen.h **** 
 469:Drivers/lvgl/src/extra/widgets/span/../../../../src/core/lv_obj_style_gen.h **** static inline lv_coord_t lv_obj_get_style_text_letter_space(const struct _lv_obj_t * obj, uint32_t 
 241              		.loc 2 469 26 view .LVU49
 242              	.LBB80:
 470:Drivers/lvgl/src/extra/widgets/span/../../../../src/core/lv_obj_style_gen.h **** {
 471:Drivers/lvgl/src/extra/widgets/span/../../../../src/core/lv_obj_style_gen.h ****     lv_style_value_t v = lv_obj_get_style_prop(obj, part, LV_STYLE_TEXT_LETTER_SPACE);
ARM GAS  /var/folders/0z/tsy30v1j4xl4_7kw94k978ww0000gn/T//ccAguaVl.s 			page 27


 243              		.loc 2 471 5 view .LVU50
 244              		.loc 2 471 26 is_stmt 0 view .LVU51
 245 001e 5822     		movs	r2, #88
 246 0020 0021     		movs	r1, #0
 247 0022 2046     		mov	r0, r4
 248              	.LVL19:
 249              		.loc 2 471 26 view .LVU52
 250 0024 FFF7FEFF 		bl	lv_obj_get_style_prop
 251              	.LVL20:
 472:Drivers/lvgl/src/extra/widgets/span/../../../../src/core/lv_obj_style_gen.h ****     return (lv_coord_t)v.num;
 252              		.loc 2 472 5 is_stmt 1 view .LVU53
 253              		.loc 2 472 12 is_stmt 0 view .LVU54
 254 0028 00B2     		sxth	r0, r0
 255              	.LVL21:
 256              		.loc 2 472 12 view .LVU55
 257              	.LBE80:
 258              	.LBE79:
 259 002a F6E7     		b	.L20
 260              		.cfi_endproc
 261              	.LFE235:
 263              		.section	.text.lv_span_get_style_text_color,"ax",%progbits
 264              		.align	1
 265              		.syntax unified
 266              		.thumb
 267              		.thumb_func
 269              	lv_span_get_style_text_color:
 270              	.LVL22:
 271              	.LFB236:
 675:Drivers/lvgl/src/extra/widgets/span/lv_span.c ****     lv_style_value_t value;
 272              		.loc 1 675 1 is_stmt 1 view -0
 273              		.cfi_startproc
 274              		@ args = 0, pretend = 0, frame = 8
 275              		@ frame_needed = 0, uses_anonymous_args = 0
 675:Drivers/lvgl/src/extra/widgets/span/lv_span.c ****     lv_style_value_t value;
 276              		.loc 1 675 1 is_stmt 0 view .LVU57
 277 0000 10B5     		push	{r4, lr}
 278              		.cfi_def_cfa_offset 8
 279              		.cfi_offset 4, -8
 280              		.cfi_offset 14, -4
 281 0002 82B0     		sub	sp, sp, #8
 282              		.cfi_def_cfa_offset 16
 283 0004 0446     		mov	r4, r0
 284 0006 0846     		mov	r0, r1
 285              	.LVL23:
 676:Drivers/lvgl/src/extra/widgets/span/lv_span.c ****     lv_res_t res = lv_style_get_prop(&span->style, LV_STYLE_TEXT_COLOR, &value);
 286              		.loc 1 676 5 is_stmt 1 view .LVU58
 677:Drivers/lvgl/src/extra/widgets/span/lv_span.c ****     if(res != LV_RES_OK) {
 287              		.loc 1 677 5 view .LVU59
 677:Drivers/lvgl/src/extra/widgets/span/lv_span.c ****     if(res != LV_RES_OK) {
 288              		.loc 1 677 20 is_stmt 0 view .LVU60
 289 0008 01AA     		add	r2, sp, #4
 290 000a 5521     		movs	r1, #85
 291              	.LVL24:
 677:Drivers/lvgl/src/extra/widgets/span/lv_span.c ****     if(res != LV_RES_OK) {
 292              		.loc 1 677 20 view .LVU61
 293 000c 0830     		adds	r0, r0, #8
 294              	.LVL25:
ARM GAS  /var/folders/0z/tsy30v1j4xl4_7kw94k978ww0000gn/T//ccAguaVl.s 			page 28


 677:Drivers/lvgl/src/extra/widgets/span/lv_span.c ****     if(res != LV_RES_OK) {
 295              		.loc 1 677 20 view .LVU62
 296 000e FFF7FEFF 		bl	lv_style_get_prop
 297              	.LVL26:
 678:Drivers/lvgl/src/extra/widgets/span/lv_span.c ****         value.color = lv_obj_get_style_text_color(par, LV_PART_MAIN);
 298              		.loc 1 678 5 is_stmt 1 view .LVU63
 678:Drivers/lvgl/src/extra/widgets/span/lv_span.c ****         value.color = lv_obj_get_style_text_color(par, LV_PART_MAIN);
 299              		.loc 1 678 7 is_stmt 0 view .LVU64
 300 0012 0128     		cmp	r0, #1
 301 0014 03D1     		bne	.L26
 302              	.LVL27:
 303              	.L24:
 681:Drivers/lvgl/src/extra/widgets/span/lv_span.c **** }
 304              		.loc 1 681 5 is_stmt 1 view .LVU65
 682:Drivers/lvgl/src/extra/widgets/span/lv_span.c **** 
 305              		.loc 1 682 1 is_stmt 0 view .LVU66
 306 0016 BDF80400 		ldrh	r0, [sp, #4]
 307 001a 02B0     		add	sp, sp, #8
 308              		.cfi_remember_state
 309              		.cfi_def_cfa_offset 8
 310              		@ sp needed
 311 001c 10BD     		pop	{r4, pc}
 312              	.LVL28:
 313              	.L26:
 314              		.cfi_restore_state
 679:Drivers/lvgl/src/extra/widgets/span/lv_span.c ****     }
 315              		.loc 1 679 9 is_stmt 1 view .LVU67
 316              	.LBB81:
 317              	.LBI81:
 445:Drivers/lvgl/src/extra/widgets/span/../../../../src/core/lv_obj_style_gen.h **** {
 318              		.loc 2 445 26 view .LVU68
 319              	.LBB82:
 447:Drivers/lvgl/src/extra/widgets/span/../../../../src/core/lv_obj_style_gen.h ****     return v.color;
 320              		.loc 2 447 5 view .LVU69
 447:Drivers/lvgl/src/extra/widgets/span/../../../../src/core/lv_obj_style_gen.h ****     return v.color;
 321              		.loc 2 447 26 is_stmt 0 view .LVU70
 322 001e 5522     		movs	r2, #85
 323 0020 0021     		movs	r1, #0
 324 0022 2046     		mov	r0, r4
 325              	.LVL29:
 447:Drivers/lvgl/src/extra/widgets/span/../../../../src/core/lv_obj_style_gen.h ****     return v.color;
 326              		.loc 2 447 26 view .LVU71
 327 0024 FFF7FEFF 		bl	lv_obj_get_style_prop
 328              	.LVL30:
 448:Drivers/lvgl/src/extra/widgets/span/../../../../src/core/lv_obj_style_gen.h **** }
 329              		.loc 2 448 5 is_stmt 1 view .LVU72
 448:Drivers/lvgl/src/extra/widgets/span/../../../../src/core/lv_obj_style_gen.h **** }
 330              		.loc 2 448 5 is_stmt 0 view .LVU73
 331              	.LBE82:
 332              	.LBE81:
 679:Drivers/lvgl/src/extra/widgets/span/lv_span.c ****     }
 333              		.loc 1 679 23 view .LVU74
 334 0028 ADF80400 		strh	r0, [sp, #4]	@ movhi
 335 002c F3E7     		b	.L24
 336              		.cfi_endproc
 337              	.LFE236:
 339              		.section	.text.lv_span_get_style_text_opa,"ax",%progbits
ARM GAS  /var/folders/0z/tsy30v1j4xl4_7kw94k978ww0000gn/T//ccAguaVl.s 			page 29


 340              		.align	1
 341              		.syntax unified
 342              		.thumb
 343              		.thumb_func
 345              	lv_span_get_style_text_opa:
 346              	.LVL31:
 347              	.LFB237:
 685:Drivers/lvgl/src/extra/widgets/span/lv_span.c ****     lv_opa_t opa;
 348              		.loc 1 685 1 is_stmt 1 view -0
 349              		.cfi_startproc
 350              		@ args = 0, pretend = 0, frame = 8
 351              		@ frame_needed = 0, uses_anonymous_args = 0
 685:Drivers/lvgl/src/extra/widgets/span/lv_span.c ****     lv_opa_t opa;
 352              		.loc 1 685 1 is_stmt 0 view .LVU76
 353 0000 10B5     		push	{r4, lr}
 354              		.cfi_def_cfa_offset 8
 355              		.cfi_offset 4, -8
 356              		.cfi_offset 14, -4
 357 0002 82B0     		sub	sp, sp, #8
 358              		.cfi_def_cfa_offset 16
 359 0004 0446     		mov	r4, r0
 360 0006 0846     		mov	r0, r1
 361              	.LVL32:
 686:Drivers/lvgl/src/extra/widgets/span/lv_span.c ****     lv_style_value_t value;
 362              		.loc 1 686 5 is_stmt 1 view .LVU77
 687:Drivers/lvgl/src/extra/widgets/span/lv_span.c ****     lv_res_t res = lv_style_get_prop(&span->style, LV_STYLE_TEXT_OPA, &value);
 363              		.loc 1 687 5 view .LVU78
 688:Drivers/lvgl/src/extra/widgets/span/lv_span.c ****     if(res != LV_RES_OK) {
 364              		.loc 1 688 5 view .LVU79
 688:Drivers/lvgl/src/extra/widgets/span/lv_span.c ****     if(res != LV_RES_OK) {
 365              		.loc 1 688 20 is_stmt 0 view .LVU80
 366 0008 01AA     		add	r2, sp, #4
 367 000a 5621     		movs	r1, #86
 368              	.LVL33:
 688:Drivers/lvgl/src/extra/widgets/span/lv_span.c ****     if(res != LV_RES_OK) {
 369              		.loc 1 688 20 view .LVU81
 370 000c 0830     		adds	r0, r0, #8
 371              	.LVL34:
 688:Drivers/lvgl/src/extra/widgets/span/lv_span.c ****     if(res != LV_RES_OK) {
 372              		.loc 1 688 20 view .LVU82
 373 000e FFF7FEFF 		bl	lv_style_get_prop
 374              	.LVL35:
 689:Drivers/lvgl/src/extra/widgets/span/lv_span.c ****         opa = (lv_opa_t)lv_obj_get_style_text_opa(par, LV_PART_MAIN);
 375              		.loc 1 689 5 is_stmt 1 view .LVU83
 689:Drivers/lvgl/src/extra/widgets/span/lv_span.c ****         opa = (lv_opa_t)lv_obj_get_style_text_opa(par, LV_PART_MAIN);
 376              		.loc 1 689 7 is_stmt 0 view .LVU84
 377 0012 0128     		cmp	r0, #1
 378 0014 03D1     		bne	.L31
 693:Drivers/lvgl/src/extra/widgets/span/lv_span.c ****     }
 379              		.loc 1 693 9 is_stmt 1 view .LVU85
 693:Drivers/lvgl/src/extra/widgets/span/lv_span.c ****     }
 380              		.loc 1 693 13 is_stmt 0 view .LVU86
 381 0016 9DF80400 		ldrb	r0, [sp, #4]	@ zero_extendqisi2
 382              	.LVL36:
 383              	.L29:
 695:Drivers/lvgl/src/extra/widgets/span/lv_span.c **** }
 384              		.loc 1 695 5 is_stmt 1 view .LVU87
ARM GAS  /var/folders/0z/tsy30v1j4xl4_7kw94k978ww0000gn/T//ccAguaVl.s 			page 30


 696:Drivers/lvgl/src/extra/widgets/span/lv_span.c **** 
 385              		.loc 1 696 1 is_stmt 0 view .LVU88
 386 001a 02B0     		add	sp, sp, #8
 387              		.cfi_remember_state
 388              		.cfi_def_cfa_offset 8
 389              		@ sp needed
 390 001c 10BD     		pop	{r4, pc}
 391              	.LVL37:
 392              	.L31:
 393              		.cfi_restore_state
 690:Drivers/lvgl/src/extra/widgets/span/lv_span.c ****     }
 394              		.loc 1 690 9 is_stmt 1 view .LVU89
 395              	.LBB83:
 396              	.LBI83:
 457:Drivers/lvgl/src/extra/widgets/span/../../../../src/core/lv_obj_style_gen.h **** {
 397              		.loc 2 457 24 view .LVU90
 398              	.LBB84:
 459:Drivers/lvgl/src/extra/widgets/span/../../../../src/core/lv_obj_style_gen.h ****     return (lv_opa_t)v.num;
 399              		.loc 2 459 5 view .LVU91
 459:Drivers/lvgl/src/extra/widgets/span/../../../../src/core/lv_obj_style_gen.h ****     return (lv_opa_t)v.num;
 400              		.loc 2 459 26 is_stmt 0 view .LVU92
 401 001e 5622     		movs	r2, #86
 402 0020 0021     		movs	r1, #0
 403 0022 2046     		mov	r0, r4
 404              	.LVL38:
 459:Drivers/lvgl/src/extra/widgets/span/../../../../src/core/lv_obj_style_gen.h ****     return (lv_opa_t)v.num;
 405              		.loc 2 459 26 view .LVU93
 406 0024 FFF7FEFF 		bl	lv_obj_get_style_prop
 407              	.LVL39:
 460:Drivers/lvgl/src/extra/widgets/span/../../../../src/core/lv_obj_style_gen.h **** }
 408              		.loc 2 460 5 is_stmt 1 view .LVU94
 460:Drivers/lvgl/src/extra/widgets/span/../../../../src/core/lv_obj_style_gen.h **** }
 409              		.loc 2 460 12 is_stmt 0 view .LVU95
 410 0028 C0B2     		uxtb	r0, r0
 411              	.LVL40:
 460:Drivers/lvgl/src/extra/widgets/span/../../../../src/core/lv_obj_style_gen.h **** }
 412              		.loc 2 460 12 view .LVU96
 413              	.LBE84:
 414              	.LBE83:
 415 002a F6E7     		b	.L29
 416              		.cfi_endproc
 417              	.LFE237:
 419              		.section	.text.lv_span_get_style_text_font,"ax",%progbits
 420              		.align	1
 421              		.syntax unified
 422              		.thumb
 423              		.thumb_func
 425              	lv_span_get_style_text_font:
 426              	.LVL41:
 427              	.LFB234:
 647:Drivers/lvgl/src/extra/widgets/span/lv_span.c ****     const lv_font_t * font;
 428              		.loc 1 647 1 is_stmt 1 view -0
 429              		.cfi_startproc
 430              		@ args = 0, pretend = 0, frame = 8
 431              		@ frame_needed = 0, uses_anonymous_args = 0
 647:Drivers/lvgl/src/extra/widgets/span/lv_span.c ****     const lv_font_t * font;
 432              		.loc 1 647 1 is_stmt 0 view .LVU98
ARM GAS  /var/folders/0z/tsy30v1j4xl4_7kw94k978ww0000gn/T//ccAguaVl.s 			page 31


 433 0000 10B5     		push	{r4, lr}
 434              		.cfi_def_cfa_offset 8
 435              		.cfi_offset 4, -8
 436              		.cfi_offset 14, -4
 437 0002 82B0     		sub	sp, sp, #8
 438              		.cfi_def_cfa_offset 16
 439 0004 0446     		mov	r4, r0
 440 0006 0846     		mov	r0, r1
 441              	.LVL42:
 648:Drivers/lvgl/src/extra/widgets/span/lv_span.c ****     lv_style_value_t value;
 442              		.loc 1 648 5 is_stmt 1 view .LVU99
 649:Drivers/lvgl/src/extra/widgets/span/lv_span.c ****     lv_res_t res = lv_style_get_prop(&span->style, LV_STYLE_TEXT_FONT, &value);
 443              		.loc 1 649 5 view .LVU100
 650:Drivers/lvgl/src/extra/widgets/span/lv_span.c ****     if(res != LV_RES_OK) {
 444              		.loc 1 650 5 view .LVU101
 650:Drivers/lvgl/src/extra/widgets/span/lv_span.c ****     if(res != LV_RES_OK) {
 445              		.loc 1 650 20 is_stmt 0 view .LVU102
 446 0008 01AA     		add	r2, sp, #4
 447 000a 5721     		movs	r1, #87
 448              	.LVL43:
 650:Drivers/lvgl/src/extra/widgets/span/lv_span.c ****     if(res != LV_RES_OK) {
 449              		.loc 1 650 20 view .LVU103
 450 000c 0830     		adds	r0, r0, #8
 451              	.LVL44:
 650:Drivers/lvgl/src/extra/widgets/span/lv_span.c ****     if(res != LV_RES_OK) {
 452              		.loc 1 650 20 view .LVU104
 453 000e FFF7FEFF 		bl	lv_style_get_prop
 454              	.LVL45:
 651:Drivers/lvgl/src/extra/widgets/span/lv_span.c ****         font = lv_obj_get_style_text_font(par, LV_PART_MAIN);
 455              		.loc 1 651 5 is_stmt 1 view .LVU105
 651:Drivers/lvgl/src/extra/widgets/span/lv_span.c ****         font = lv_obj_get_style_text_font(par, LV_PART_MAIN);
 456              		.loc 1 651 7 is_stmt 0 view .LVU106
 457 0012 0128     		cmp	r0, #1
 458 0014 02D1     		bne	.L36
 655:Drivers/lvgl/src/extra/widgets/span/lv_span.c ****     }
 459              		.loc 1 655 9 is_stmt 1 view .LVU107
 655:Drivers/lvgl/src/extra/widgets/span/lv_span.c ****     }
 460              		.loc 1 655 14 is_stmt 0 view .LVU108
 461 0016 0198     		ldr	r0, [sp, #4]
 462              	.LVL46:
 657:Drivers/lvgl/src/extra/widgets/span/lv_span.c **** }
 463              		.loc 1 657 5 is_stmt 1 view .LVU109
 464              	.L32:
 658:Drivers/lvgl/src/extra/widgets/span/lv_span.c **** 
 465              		.loc 1 658 1 is_stmt 0 view .LVU110
 466 0018 02B0     		add	sp, sp, #8
 467              		.cfi_remember_state
 468              		.cfi_def_cfa_offset 8
 469              		@ sp needed
 470 001a 10BD     		pop	{r4, pc}
 471              	.LVL47:
 472              	.L36:
 473              		.cfi_restore_state
 652:Drivers/lvgl/src/extra/widgets/span/lv_span.c ****     }
 474              		.loc 1 652 9 is_stmt 1 view .LVU111
 475              	.LBB85:
 476              	.LBI85:
ARM GAS  /var/folders/0z/tsy30v1j4xl4_7kw94k978ww0000gn/T//ccAguaVl.s 			page 32


 463:Drivers/lvgl/src/extra/widgets/span/../../../../src/core/lv_obj_style_gen.h **** {
 477              		.loc 2 463 33 view .LVU112
 478              	.LBB86:
 465:Drivers/lvgl/src/extra/widgets/span/../../../../src/core/lv_obj_style_gen.h ****     return (const lv_font_t *)v.ptr;
 479              		.loc 2 465 5 view .LVU113
 465:Drivers/lvgl/src/extra/widgets/span/../../../../src/core/lv_obj_style_gen.h ****     return (const lv_font_t *)v.ptr;
 480              		.loc 2 465 26 is_stmt 0 view .LVU114
 481 001c 5722     		movs	r2, #87
 482 001e 0021     		movs	r1, #0
 483 0020 2046     		mov	r0, r4
 484              	.LVL48:
 465:Drivers/lvgl/src/extra/widgets/span/../../../../src/core/lv_obj_style_gen.h ****     return (const lv_font_t *)v.ptr;
 485              		.loc 2 465 26 view .LVU115
 486 0022 FFF7FEFF 		bl	lv_obj_get_style_prop
 487              	.LVL49:
 466:Drivers/lvgl/src/extra/widgets/span/../../../../src/core/lv_obj_style_gen.h **** }
 488              		.loc 2 466 5 is_stmt 1 view .LVU116
 466:Drivers/lvgl/src/extra/widgets/span/../../../../src/core/lv_obj_style_gen.h **** }
 489              		.loc 2 466 5 is_stmt 0 view .LVU117
 490              	.LBE86:
 491              	.LBE85:
 492 0026 F7E7     		b	.L32
 493              		.cfi_endproc
 494              	.LFE234:
 496              		.section	.text.lv_span_get_style_text_blend_mode,"ax",%progbits
 497              		.align	1
 498              		.syntax unified
 499              		.thumb
 500              		.thumb_func
 502              	lv_span_get_style_text_blend_mode:
 503              	.LVL50:
 504              	.LFB238:
 699:Drivers/lvgl/src/extra/widgets/span/lv_span.c ****     lv_blend_mode_t mode;
 505              		.loc 1 699 1 is_stmt 1 view -0
 506              		.cfi_startproc
 507              		@ args = 0, pretend = 0, frame = 8
 508              		@ frame_needed = 0, uses_anonymous_args = 0
 699:Drivers/lvgl/src/extra/widgets/span/lv_span.c ****     lv_blend_mode_t mode;
 509              		.loc 1 699 1 is_stmt 0 view .LVU119
 510 0000 10B5     		push	{r4, lr}
 511              		.cfi_def_cfa_offset 8
 512              		.cfi_offset 4, -8
 513              		.cfi_offset 14, -4
 514 0002 82B0     		sub	sp, sp, #8
 515              		.cfi_def_cfa_offset 16
 516 0004 0446     		mov	r4, r0
 517 0006 0846     		mov	r0, r1
 518              	.LVL51:
 700:Drivers/lvgl/src/extra/widgets/span/lv_span.c ****     lv_style_value_t value;
 519              		.loc 1 700 5 is_stmt 1 view .LVU120
 701:Drivers/lvgl/src/extra/widgets/span/lv_span.c ****     lv_res_t res = lv_style_get_prop(&span->style, LV_STYLE_BLEND_MODE, &value);
 520              		.loc 1 701 5 view .LVU121
 702:Drivers/lvgl/src/extra/widgets/span/lv_span.c ****     if(res != LV_RES_OK) {
 521              		.loc 1 702 5 view .LVU122
 702:Drivers/lvgl/src/extra/widgets/span/lv_span.c ****     if(res != LV_RES_OK) {
 522              		.loc 1 702 20 is_stmt 0 view .LVU123
 523 0008 01AA     		add	r2, sp, #4
ARM GAS  /var/folders/0z/tsy30v1j4xl4_7kw94k978ww0000gn/T//ccAguaVl.s 			page 33


 524 000a 6821     		movs	r1, #104
 525              	.LVL52:
 702:Drivers/lvgl/src/extra/widgets/span/lv_span.c ****     if(res != LV_RES_OK) {
 526              		.loc 1 702 20 view .LVU124
 527 000c 0830     		adds	r0, r0, #8
 528              	.LVL53:
 702:Drivers/lvgl/src/extra/widgets/span/lv_span.c ****     if(res != LV_RES_OK) {
 529              		.loc 1 702 20 view .LVU125
 530 000e FFF7FEFF 		bl	lv_style_get_prop
 531              	.LVL54:
 703:Drivers/lvgl/src/extra/widgets/span/lv_span.c ****         mode = (lv_blend_mode_t)lv_obj_get_style_blend_mode(par, LV_PART_MAIN);
 532              		.loc 1 703 5 is_stmt 1 view .LVU126
 703:Drivers/lvgl/src/extra/widgets/span/lv_span.c ****         mode = (lv_blend_mode_t)lv_obj_get_style_blend_mode(par, LV_PART_MAIN);
 533              		.loc 1 703 7 is_stmt 0 view .LVU127
 534 0012 0128     		cmp	r0, #1
 535 0014 03D1     		bne	.L41
 707:Drivers/lvgl/src/extra/widgets/span/lv_span.c ****     }
 536              		.loc 1 707 9 is_stmt 1 view .LVU128
 707:Drivers/lvgl/src/extra/widgets/span/lv_span.c ****     }
 537              		.loc 1 707 14 is_stmt 0 view .LVU129
 538 0016 9DF80400 		ldrb	r0, [sp, #4]	@ zero_extendqisi2
 539              	.LVL55:
 540              	.L39:
 709:Drivers/lvgl/src/extra/widgets/span/lv_span.c **** }
 541              		.loc 1 709 5 is_stmt 1 view .LVU130
 710:Drivers/lvgl/src/extra/widgets/span/lv_span.c **** 
 542              		.loc 1 710 1 is_stmt 0 view .LVU131
 543 001a 02B0     		add	sp, sp, #8
 544              		.cfi_remember_state
 545              		.cfi_def_cfa_offset 8
 546              		@ sp needed
 547 001c 10BD     		pop	{r4, pc}
 548              	.LVL56:
 549              	.L41:
 550              		.cfi_restore_state
 704:Drivers/lvgl/src/extra/widgets/span/lv_span.c ****     }
 551              		.loc 1 704 9 is_stmt 1 view .LVU132
 552              	.LBB87:
 553              	.LBI87:
 473:Drivers/lvgl/src/extra/widgets/span/../../../../src/core/lv_obj_style_gen.h **** }
 474:Drivers/lvgl/src/extra/widgets/span/../../../../src/core/lv_obj_style_gen.h **** 
 475:Drivers/lvgl/src/extra/widgets/span/../../../../src/core/lv_obj_style_gen.h **** static inline lv_coord_t lv_obj_get_style_text_line_space(const struct _lv_obj_t * obj, uint32_t pa
 476:Drivers/lvgl/src/extra/widgets/span/../../../../src/core/lv_obj_style_gen.h **** {
 477:Drivers/lvgl/src/extra/widgets/span/../../../../src/core/lv_obj_style_gen.h ****     lv_style_value_t v = lv_obj_get_style_prop(obj, part, LV_STYLE_TEXT_LINE_SPACE);
 478:Drivers/lvgl/src/extra/widgets/span/../../../../src/core/lv_obj_style_gen.h ****     return (lv_coord_t)v.num;
 479:Drivers/lvgl/src/extra/widgets/span/../../../../src/core/lv_obj_style_gen.h **** }
 480:Drivers/lvgl/src/extra/widgets/span/../../../../src/core/lv_obj_style_gen.h **** 
 481:Drivers/lvgl/src/extra/widgets/span/../../../../src/core/lv_obj_style_gen.h **** static inline lv_text_decor_t lv_obj_get_style_text_decor(const struct _lv_obj_t * obj, uint32_t pa
 482:Drivers/lvgl/src/extra/widgets/span/../../../../src/core/lv_obj_style_gen.h **** {
 483:Drivers/lvgl/src/extra/widgets/span/../../../../src/core/lv_obj_style_gen.h ****     lv_style_value_t v = lv_obj_get_style_prop(obj, part, LV_STYLE_TEXT_DECOR);
 484:Drivers/lvgl/src/extra/widgets/span/../../../../src/core/lv_obj_style_gen.h ****     return (lv_text_decor_t)v.num;
 485:Drivers/lvgl/src/extra/widgets/span/../../../../src/core/lv_obj_style_gen.h **** }
 486:Drivers/lvgl/src/extra/widgets/span/../../../../src/core/lv_obj_style_gen.h **** 
 487:Drivers/lvgl/src/extra/widgets/span/../../../../src/core/lv_obj_style_gen.h **** static inline lv_text_align_t lv_obj_get_style_text_align(const struct _lv_obj_t * obj, uint32_t pa
 488:Drivers/lvgl/src/extra/widgets/span/../../../../src/core/lv_obj_style_gen.h **** {
 489:Drivers/lvgl/src/extra/widgets/span/../../../../src/core/lv_obj_style_gen.h ****     lv_style_value_t v = lv_obj_get_style_prop(obj, part, LV_STYLE_TEXT_ALIGN);
 490:Drivers/lvgl/src/extra/widgets/span/../../../../src/core/lv_obj_style_gen.h ****     return (lv_text_align_t)v.num;
ARM GAS  /var/folders/0z/tsy30v1j4xl4_7kw94k978ww0000gn/T//ccAguaVl.s 			page 34


 491:Drivers/lvgl/src/extra/widgets/span/../../../../src/core/lv_obj_style_gen.h **** }
 492:Drivers/lvgl/src/extra/widgets/span/../../../../src/core/lv_obj_style_gen.h **** 
 493:Drivers/lvgl/src/extra/widgets/span/../../../../src/core/lv_obj_style_gen.h **** static inline lv_coord_t lv_obj_get_style_radius(const struct _lv_obj_t * obj, uint32_t part)
 494:Drivers/lvgl/src/extra/widgets/span/../../../../src/core/lv_obj_style_gen.h **** {
 495:Drivers/lvgl/src/extra/widgets/span/../../../../src/core/lv_obj_style_gen.h ****     lv_style_value_t v = lv_obj_get_style_prop(obj, part, LV_STYLE_RADIUS);
 496:Drivers/lvgl/src/extra/widgets/span/../../../../src/core/lv_obj_style_gen.h ****     return (lv_coord_t)v.num;
 497:Drivers/lvgl/src/extra/widgets/span/../../../../src/core/lv_obj_style_gen.h **** }
 498:Drivers/lvgl/src/extra/widgets/span/../../../../src/core/lv_obj_style_gen.h **** 
 499:Drivers/lvgl/src/extra/widgets/span/../../../../src/core/lv_obj_style_gen.h **** static inline bool lv_obj_get_style_clip_corner(const struct _lv_obj_t * obj, uint32_t part)
 500:Drivers/lvgl/src/extra/widgets/span/../../../../src/core/lv_obj_style_gen.h **** {
 501:Drivers/lvgl/src/extra/widgets/span/../../../../src/core/lv_obj_style_gen.h ****     lv_style_value_t v = lv_obj_get_style_prop(obj, part, LV_STYLE_CLIP_CORNER);
 502:Drivers/lvgl/src/extra/widgets/span/../../../../src/core/lv_obj_style_gen.h ****     return (bool)v.num;
 503:Drivers/lvgl/src/extra/widgets/span/../../../../src/core/lv_obj_style_gen.h **** }
 504:Drivers/lvgl/src/extra/widgets/span/../../../../src/core/lv_obj_style_gen.h **** 
 505:Drivers/lvgl/src/extra/widgets/span/../../../../src/core/lv_obj_style_gen.h **** static inline lv_opa_t lv_obj_get_style_opa(const struct _lv_obj_t * obj, uint32_t part)
 506:Drivers/lvgl/src/extra/widgets/span/../../../../src/core/lv_obj_style_gen.h **** {
 507:Drivers/lvgl/src/extra/widgets/span/../../../../src/core/lv_obj_style_gen.h ****     lv_style_value_t v = lv_obj_get_style_prop(obj, part, LV_STYLE_OPA);
 508:Drivers/lvgl/src/extra/widgets/span/../../../../src/core/lv_obj_style_gen.h ****     return (lv_opa_t)v.num;
 509:Drivers/lvgl/src/extra/widgets/span/../../../../src/core/lv_obj_style_gen.h **** }
 510:Drivers/lvgl/src/extra/widgets/span/../../../../src/core/lv_obj_style_gen.h **** 
 511:Drivers/lvgl/src/extra/widgets/span/../../../../src/core/lv_obj_style_gen.h **** static inline lv_opa_t lv_obj_get_style_opa_layered(const struct _lv_obj_t * obj, uint32_t part)
 512:Drivers/lvgl/src/extra/widgets/span/../../../../src/core/lv_obj_style_gen.h **** {
 513:Drivers/lvgl/src/extra/widgets/span/../../../../src/core/lv_obj_style_gen.h ****     lv_style_value_t v = lv_obj_get_style_prop(obj, part, LV_STYLE_OPA_LAYERED);
 514:Drivers/lvgl/src/extra/widgets/span/../../../../src/core/lv_obj_style_gen.h ****     return (lv_opa_t)v.num;
 515:Drivers/lvgl/src/extra/widgets/span/../../../../src/core/lv_obj_style_gen.h **** }
 516:Drivers/lvgl/src/extra/widgets/span/../../../../src/core/lv_obj_style_gen.h **** 
 517:Drivers/lvgl/src/extra/widgets/span/../../../../src/core/lv_obj_style_gen.h **** static inline const lv_color_filter_dsc_t * lv_obj_get_style_color_filter_dsc(const struct _lv_obj_
 518:Drivers/lvgl/src/extra/widgets/span/../../../../src/core/lv_obj_style_gen.h **** {
 519:Drivers/lvgl/src/extra/widgets/span/../../../../src/core/lv_obj_style_gen.h ****     lv_style_value_t v = lv_obj_get_style_prop(obj, part, LV_STYLE_COLOR_FILTER_DSC);
 520:Drivers/lvgl/src/extra/widgets/span/../../../../src/core/lv_obj_style_gen.h ****     return (const lv_color_filter_dsc_t *)v.ptr;
 521:Drivers/lvgl/src/extra/widgets/span/../../../../src/core/lv_obj_style_gen.h **** }
 522:Drivers/lvgl/src/extra/widgets/span/../../../../src/core/lv_obj_style_gen.h **** 
 523:Drivers/lvgl/src/extra/widgets/span/../../../../src/core/lv_obj_style_gen.h **** static inline lv_opa_t lv_obj_get_style_color_filter_opa(const struct _lv_obj_t * obj, uint32_t par
 524:Drivers/lvgl/src/extra/widgets/span/../../../../src/core/lv_obj_style_gen.h **** {
 525:Drivers/lvgl/src/extra/widgets/span/../../../../src/core/lv_obj_style_gen.h ****     lv_style_value_t v = lv_obj_get_style_prop(obj, part, LV_STYLE_COLOR_FILTER_OPA);
 526:Drivers/lvgl/src/extra/widgets/span/../../../../src/core/lv_obj_style_gen.h ****     return (lv_opa_t)v.num;
 527:Drivers/lvgl/src/extra/widgets/span/../../../../src/core/lv_obj_style_gen.h **** }
 528:Drivers/lvgl/src/extra/widgets/span/../../../../src/core/lv_obj_style_gen.h **** 
 529:Drivers/lvgl/src/extra/widgets/span/../../../../src/core/lv_obj_style_gen.h **** static inline const lv_anim_t * lv_obj_get_style_anim(const struct _lv_obj_t * obj, uint32_t part)
 530:Drivers/lvgl/src/extra/widgets/span/../../../../src/core/lv_obj_style_gen.h **** {
 531:Drivers/lvgl/src/extra/widgets/span/../../../../src/core/lv_obj_style_gen.h ****     lv_style_value_t v = lv_obj_get_style_prop(obj, part, LV_STYLE_ANIM);
 532:Drivers/lvgl/src/extra/widgets/span/../../../../src/core/lv_obj_style_gen.h ****     return (const lv_anim_t *)v.ptr;
 533:Drivers/lvgl/src/extra/widgets/span/../../../../src/core/lv_obj_style_gen.h **** }
 534:Drivers/lvgl/src/extra/widgets/span/../../../../src/core/lv_obj_style_gen.h **** 
 535:Drivers/lvgl/src/extra/widgets/span/../../../../src/core/lv_obj_style_gen.h **** static inline uint32_t lv_obj_get_style_anim_time(const struct _lv_obj_t * obj, uint32_t part)
 536:Drivers/lvgl/src/extra/widgets/span/../../../../src/core/lv_obj_style_gen.h **** {
 537:Drivers/lvgl/src/extra/widgets/span/../../../../src/core/lv_obj_style_gen.h ****     lv_style_value_t v = lv_obj_get_style_prop(obj, part, LV_STYLE_ANIM_TIME);
 538:Drivers/lvgl/src/extra/widgets/span/../../../../src/core/lv_obj_style_gen.h ****     return (uint32_t)v.num;
 539:Drivers/lvgl/src/extra/widgets/span/../../../../src/core/lv_obj_style_gen.h **** }
 540:Drivers/lvgl/src/extra/widgets/span/../../../../src/core/lv_obj_style_gen.h **** 
 541:Drivers/lvgl/src/extra/widgets/span/../../../../src/core/lv_obj_style_gen.h **** static inline uint32_t lv_obj_get_style_anim_speed(const struct _lv_obj_t * obj, uint32_t part)
 542:Drivers/lvgl/src/extra/widgets/span/../../../../src/core/lv_obj_style_gen.h **** {
 543:Drivers/lvgl/src/extra/widgets/span/../../../../src/core/lv_obj_style_gen.h ****     lv_style_value_t v = lv_obj_get_style_prop(obj, part, LV_STYLE_ANIM_SPEED);
 544:Drivers/lvgl/src/extra/widgets/span/../../../../src/core/lv_obj_style_gen.h ****     return (uint32_t)v.num;
 545:Drivers/lvgl/src/extra/widgets/span/../../../../src/core/lv_obj_style_gen.h **** }
 546:Drivers/lvgl/src/extra/widgets/span/../../../../src/core/lv_obj_style_gen.h **** 
 547:Drivers/lvgl/src/extra/widgets/span/../../../../src/core/lv_obj_style_gen.h **** static inline const lv_style_transition_dsc_t * lv_obj_get_style_transition(const struct _lv_obj_t 
ARM GAS  /var/folders/0z/tsy30v1j4xl4_7kw94k978ww0000gn/T//ccAguaVl.s 			page 35


 548:Drivers/lvgl/src/extra/widgets/span/../../../../src/core/lv_obj_style_gen.h **** {
 549:Drivers/lvgl/src/extra/widgets/span/../../../../src/core/lv_obj_style_gen.h ****     lv_style_value_t v = lv_obj_get_style_prop(obj, part, LV_STYLE_TRANSITION);
 550:Drivers/lvgl/src/extra/widgets/span/../../../../src/core/lv_obj_style_gen.h ****     return (const lv_style_transition_dsc_t *)v.ptr;
 551:Drivers/lvgl/src/extra/widgets/span/../../../../src/core/lv_obj_style_gen.h **** }
 552:Drivers/lvgl/src/extra/widgets/span/../../../../src/core/lv_obj_style_gen.h **** 
 553:Drivers/lvgl/src/extra/widgets/span/../../../../src/core/lv_obj_style_gen.h **** static inline lv_blend_mode_t lv_obj_get_style_blend_mode(const struct _lv_obj_t * obj, uint32_t pa
 554              		.loc 2 553 31 view .LVU133
 555              	.LBB88:
 554:Drivers/lvgl/src/extra/widgets/span/../../../../src/core/lv_obj_style_gen.h **** {
 555:Drivers/lvgl/src/extra/widgets/span/../../../../src/core/lv_obj_style_gen.h ****     lv_style_value_t v = lv_obj_get_style_prop(obj, part, LV_STYLE_BLEND_MODE);
 556              		.loc 2 555 5 view .LVU134
 557              		.loc 2 555 26 is_stmt 0 view .LVU135
 558 001e 6822     		movs	r2, #104
 559 0020 0021     		movs	r1, #0
 560 0022 2046     		mov	r0, r4
 561              	.LVL57:
 562              		.loc 2 555 26 view .LVU136
 563 0024 FFF7FEFF 		bl	lv_obj_get_style_prop
 564              	.LVL58:
 556:Drivers/lvgl/src/extra/widgets/span/../../../../src/core/lv_obj_style_gen.h ****     return (lv_blend_mode_t)v.num;
 565              		.loc 2 556 5 is_stmt 1 view .LVU137
 566              		.loc 2 556 12 is_stmt 0 view .LVU138
 567 0028 C0B2     		uxtb	r0, r0
 568              	.LVL59:
 569              		.loc 2 556 12 view .LVU139
 570              	.LBE88:
 571              	.LBE87:
 572 002a F6E7     		b	.L39
 573              		.cfi_endproc
 574              	.LFE238:
 576              		.section	.text.lv_span_get_style_text_decor,"ax",%progbits
 577              		.align	1
 578              		.syntax unified
 579              		.thumb
 580              		.thumb_func
 582              	lv_span_get_style_text_decor:
 583              	.LVL60:
 584              	.LFB239:
 713:Drivers/lvgl/src/extra/widgets/span/lv_span.c ****     int32_t decor;
 585              		.loc 1 713 1 is_stmt 1 view -0
 586              		.cfi_startproc
 587              		@ args = 0, pretend = 0, frame = 8
 588              		@ frame_needed = 0, uses_anonymous_args = 0
 713:Drivers/lvgl/src/extra/widgets/span/lv_span.c ****     int32_t decor;
 589              		.loc 1 713 1 is_stmt 0 view .LVU141
 590 0000 10B5     		push	{r4, lr}
 591              		.cfi_def_cfa_offset 8
 592              		.cfi_offset 4, -8
 593              		.cfi_offset 14, -4
 594 0002 82B0     		sub	sp, sp, #8
 595              		.cfi_def_cfa_offset 16
 596 0004 0446     		mov	r4, r0
 597 0006 0846     		mov	r0, r1
 598              	.LVL61:
 714:Drivers/lvgl/src/extra/widgets/span/lv_span.c ****     lv_style_value_t value;
 599              		.loc 1 714 5 is_stmt 1 view .LVU142
 715:Drivers/lvgl/src/extra/widgets/span/lv_span.c ****     lv_res_t res = lv_style_get_prop(&span->style, LV_STYLE_TEXT_DECOR, &value);
ARM GAS  /var/folders/0z/tsy30v1j4xl4_7kw94k978ww0000gn/T//ccAguaVl.s 			page 36


 600              		.loc 1 715 5 view .LVU143
 716:Drivers/lvgl/src/extra/widgets/span/lv_span.c ****     if(res != LV_RES_OK) {
 601              		.loc 1 716 5 view .LVU144
 716:Drivers/lvgl/src/extra/widgets/span/lv_span.c ****     if(res != LV_RES_OK) {
 602              		.loc 1 716 20 is_stmt 0 view .LVU145
 603 0008 01AA     		add	r2, sp, #4
 604 000a 5A21     		movs	r1, #90
 605              	.LVL62:
 716:Drivers/lvgl/src/extra/widgets/span/lv_span.c ****     if(res != LV_RES_OK) {
 606              		.loc 1 716 20 view .LVU146
 607 000c 0830     		adds	r0, r0, #8
 608              	.LVL63:
 716:Drivers/lvgl/src/extra/widgets/span/lv_span.c ****     if(res != LV_RES_OK) {
 609              		.loc 1 716 20 view .LVU147
 610 000e FFF7FEFF 		bl	lv_style_get_prop
 611              	.LVL64:
 717:Drivers/lvgl/src/extra/widgets/span/lv_span.c ****         decor = (lv_text_decor_t)lv_obj_get_style_text_decor(par, LV_PART_MAIN);;
 612              		.loc 1 717 5 is_stmt 1 view .LVU148
 717:Drivers/lvgl/src/extra/widgets/span/lv_span.c ****         decor = (lv_text_decor_t)lv_obj_get_style_text_decor(par, LV_PART_MAIN);;
 613              		.loc 1 717 7 is_stmt 0 view .LVU149
 614 0012 0128     		cmp	r0, #1
 615 0014 02D1     		bne	.L46
 721:Drivers/lvgl/src/extra/widgets/span/lv_span.c ****     }
 616              		.loc 1 721 9 is_stmt 1 view .LVU150
 721:Drivers/lvgl/src/extra/widgets/span/lv_span.c ****     }
 617              		.loc 1 721 15 is_stmt 0 view .LVU151
 618 0016 0198     		ldr	r0, [sp, #4]
 619              	.LVL65:
 723:Drivers/lvgl/src/extra/widgets/span/lv_span.c **** }
 620              		.loc 1 723 5 is_stmt 1 view .LVU152
 621              	.L42:
 724:Drivers/lvgl/src/extra/widgets/span/lv_span.c **** 
 622              		.loc 1 724 1 is_stmt 0 view .LVU153
 623 0018 02B0     		add	sp, sp, #8
 624              		.cfi_remember_state
 625              		.cfi_def_cfa_offset 8
 626              		@ sp needed
 627 001a 10BD     		pop	{r4, pc}
 628              	.LVL66:
 629              	.L46:
 630              		.cfi_restore_state
 718:Drivers/lvgl/src/extra/widgets/span/lv_span.c ****     }
 631              		.loc 1 718 9 is_stmt 1 view .LVU154
 632              	.LBB89:
 633              	.LBI89:
 481:Drivers/lvgl/src/extra/widgets/span/../../../../src/core/lv_obj_style_gen.h **** {
 634              		.loc 2 481 31 view .LVU155
 635              	.LBB90:
 483:Drivers/lvgl/src/extra/widgets/span/../../../../src/core/lv_obj_style_gen.h ****     return (lv_text_decor_t)v.num;
 636              		.loc 2 483 5 view .LVU156
 483:Drivers/lvgl/src/extra/widgets/span/../../../../src/core/lv_obj_style_gen.h ****     return (lv_text_decor_t)v.num;
 637              		.loc 2 483 26 is_stmt 0 view .LVU157
 638 001c 5A22     		movs	r2, #90
 639 001e 0021     		movs	r1, #0
 640 0020 2046     		mov	r0, r4
 641              	.LVL67:
 483:Drivers/lvgl/src/extra/widgets/span/../../../../src/core/lv_obj_style_gen.h ****     return (lv_text_decor_t)v.num;
ARM GAS  /var/folders/0z/tsy30v1j4xl4_7kw94k978ww0000gn/T//ccAguaVl.s 			page 37


 642              		.loc 2 483 26 view .LVU158
 643 0022 FFF7FEFF 		bl	lv_obj_get_style_prop
 644              	.LVL68:
 484:Drivers/lvgl/src/extra/widgets/span/../../../../src/core/lv_obj_style_gen.h **** }
 645              		.loc 2 484 5 is_stmt 1 view .LVU159
 484:Drivers/lvgl/src/extra/widgets/span/../../../../src/core/lv_obj_style_gen.h **** }
 646              		.loc 2 484 5 is_stmt 0 view .LVU160
 647 0026 C0B2     		uxtb	r0, r0
 648              	.LVL69:
 484:Drivers/lvgl/src/extra/widgets/span/../../../../src/core/lv_obj_style_gen.h **** }
 649              		.loc 2 484 5 view .LVU161
 650              	.LBE90:
 651              	.LBE89:
 718:Drivers/lvgl/src/extra/widgets/span/lv_span.c ****     }
 652              		.loc 1 718 81 is_stmt 1 view .LVU162
 653 0028 F6E7     		b	.L42
 654              		.cfi_endproc
 655              	.LFE239:
 657              		.section	.text.lv_txt_get_snippet,"ax",%progbits
 658              		.align	1
 659              		.syntax unified
 660              		.thumb
 661              		.thumb_func
 663              	lv_txt_get_snippet:
 664              	.LVL70:
 665              	.LFB229:
 602:Drivers/lvgl/src/extra/widgets/span/lv_span.c ****     if(txt == NULL || txt[0] == '\0') {
 666              		.loc 1 602 1 view -0
 667              		.cfi_startproc
 668              		@ args = 12, pretend = 0, frame = 0
 669              		@ frame_needed = 0, uses_anonymous_args = 0
 602:Drivers/lvgl/src/extra/widgets/span/lv_span.c ****     if(txt == NULL || txt[0] == '\0') {
 670              		.loc 1 602 1 is_stmt 0 view .LVU164
 671 0000 70B5     		push	{r4, r5, r6, lr}
 672              		.cfi_def_cfa_offset 16
 673              		.cfi_offset 4, -16
 674              		.cfi_offset 5, -12
 675              		.cfi_offset 6, -8
 676              		.cfi_offset 14, -4
 677 0002 82B0     		sub	sp, sp, #8
 678              		.cfi_def_cfa_offset 24
 679 0004 079C     		ldr	r4, [sp, #28]
 603:Drivers/lvgl/src/extra/widgets/span/lv_span.c ****         *end_ofs = 0;
 680              		.loc 1 603 5 is_stmt 1 view .LVU165
 603:Drivers/lvgl/src/extra/widgets/span/lv_span.c ****         *end_ofs = 0;
 681              		.loc 1 603 7 is_stmt 0 view .LVU166
 682 0006 18B1     		cbz	r0, .L48
 683 0008 1D46     		mov	r5, r3
 684 000a 0646     		mov	r6, r0
 603:Drivers/lvgl/src/extra/widgets/span/lv_span.c ****         *end_ofs = 0;
 685              		.loc 1 603 26 discriminator 1 view .LVU167
 686 000c 0378     		ldrb	r3, [r0]	@ zero_extendqisi2
 687              	.LVL71:
 603:Drivers/lvgl/src/extra/widgets/span/lv_span.c ****         *end_ofs = 0;
 688              		.loc 1 603 20 discriminator 1 view .LVU168
 689 000e 2BB9     		cbnz	r3, .L49
 690              	.L48:
ARM GAS  /var/folders/0z/tsy30v1j4xl4_7kw94k978ww0000gn/T//ccAguaVl.s 			page 38


 604:Drivers/lvgl/src/extra/widgets/span/lv_span.c ****         *use_width = 0;
 691              		.loc 1 604 9 is_stmt 1 view .LVU169
 604:Drivers/lvgl/src/extra/widgets/span/lv_span.c ****         *use_width = 0;
 692              		.loc 1 604 18 is_stmt 0 view .LVU170
 693 0010 0020     		movs	r0, #0
 694              	.LVL72:
 604:Drivers/lvgl/src/extra/widgets/span/lv_span.c ****         *use_width = 0;
 695              		.loc 1 604 18 view .LVU171
 696 0012 089B     		ldr	r3, [sp, #32]
 697 0014 1860     		str	r0, [r3]
 605:Drivers/lvgl/src/extra/widgets/span/lv_span.c ****         return false;
 698              		.loc 1 605 9 is_stmt 1 view .LVU172
 605:Drivers/lvgl/src/extra/widgets/span/lv_span.c ****         return false;
 699              		.loc 1 605 20 is_stmt 0 view .LVU173
 700 0016 2080     		strh	r0, [r4]	@ movhi
 606:Drivers/lvgl/src/extra/widgets/span/lv_span.c ****     }
 701              		.loc 1 606 9 is_stmt 1 view .LVU174
 702              	.LVL73:
 703              	.L50:
 618:Drivers/lvgl/src/extra/widgets/span/lv_span.c **** 
 704              		.loc 1 618 1 is_stmt 0 view .LVU175
 705 0018 02B0     		add	sp, sp, #8
 706              		.cfi_remember_state
 707              		.cfi_def_cfa_offset 16
 708              		@ sp needed
 709 001a 70BD     		pop	{r4, r5, r6, pc}
 710              	.LVL74:
 711              	.L49:
 712              		.cfi_restore_state
 609:Drivers/lvgl/src/extra/widgets/span/lv_span.c ****     *end_ofs = ofs;
 713              		.loc 1 609 5 is_stmt 1 view .LVU176
 609:Drivers/lvgl/src/extra/widgets/span/lv_span.c ****     *end_ofs = ofs;
 714              		.loc 1 609 20 is_stmt 0 view .LVU177
 715 001c 9DF81830 		ldrb	r3, [sp, #24]	@ zero_extendqisi2
 716 0020 0193     		str	r3, [sp, #4]
 717 0022 0094     		str	r4, [sp]
 718 0024 2B46     		mov	r3, r5
 719 0026 FFF7FEFF 		bl	_lv_txt_get_next_line
 720              	.LVL75:
 610:Drivers/lvgl/src/extra/widgets/span/lv_span.c **** 
 721              		.loc 1 610 5 is_stmt 1 view .LVU178
 610:Drivers/lvgl/src/extra/widgets/span/lv_span.c **** 
 722              		.loc 1 610 14 is_stmt 0 view .LVU179
 723 002a 089B     		ldr	r3, [sp, #32]
 724 002c 1860     		str	r0, [r3]
 612:Drivers/lvgl/src/extra/widgets/span/lv_span.c ****         return false;
 725              		.loc 1 612 5 is_stmt 1 view .LVU180
 612:Drivers/lvgl/src/extra/widgets/span/lv_span.c ****         return false;
 726              		.loc 1 612 11 is_stmt 0 view .LVU181
 727 002e 335C     		ldrb	r3, [r6, r0]	@ zero_extendqisi2
 612:Drivers/lvgl/src/extra/widgets/span/lv_span.c ****         return false;
 728              		.loc 1 612 7 view .LVU182
 729 0030 2BB9     		cbnz	r3, .L51
 612:Drivers/lvgl/src/extra/widgets/span/lv_span.c ****         return false;
 730              		.loc 1 612 28 discriminator 1 view .LVU183
 731 0032 B4F90030 		ldrsh	r3, [r4]
 612:Drivers/lvgl/src/extra/widgets/span/lv_span.c ****         return false;
ARM GAS  /var/folders/0z/tsy30v1j4xl4_7kw94k978ww0000gn/T//ccAguaVl.s 			page 39


 732              		.loc 1 612 25 discriminator 1 view .LVU184
 733 0036 AB42     		cmp	r3, r5
 734 0038 03DB     		blt	.L52
 616:Drivers/lvgl/src/extra/widgets/span/lv_span.c ****     }
 735              		.loc 1 616 16 view .LVU185
 736 003a 0120     		movs	r0, #1
 737              	.LVL76:
 616:Drivers/lvgl/src/extra/widgets/span/lv_span.c ****     }
 738              		.loc 1 616 16 view .LVU186
 739 003c ECE7     		b	.L50
 740              	.LVL77:
 741              	.L51:
 616:Drivers/lvgl/src/extra/widgets/span/lv_span.c ****     }
 742              		.loc 1 616 16 view .LVU187
 743 003e 0120     		movs	r0, #1
 744              	.LVL78:
 616:Drivers/lvgl/src/extra/widgets/span/lv_span.c ****     }
 745              		.loc 1 616 16 view .LVU188
 746 0040 EAE7     		b	.L50
 747              	.LVL79:
 748              	.L52:
 613:Drivers/lvgl/src/extra/widgets/span/lv_span.c ****     }
 749              		.loc 1 613 16 view .LVU189
 750 0042 0020     		movs	r0, #0
 751              	.LVL80:
 613:Drivers/lvgl/src/extra/widgets/span/lv_span.c ****     }
 752              		.loc 1 613 16 view .LVU190
 753 0044 E8E7     		b	.L50
 754              		.cfi_endproc
 755              	.LFE229:
 757              		.section	.text.lv_snippet_push,"ax",%progbits
 758              		.align	1
 759              		.syntax unified
 760              		.thumb
 761              		.thumb_func
 763              	lv_snippet_push:
 764              	.LVL81:
 765              	.LFB230:
 621:Drivers/lvgl/src/extra/widgets/span/lv_span.c ****     if(snippet_stack.index < LV_SPAN_SNIPPET_STACK_SIZE) {
 766              		.loc 1 621 1 is_stmt 1 view -0
 767              		.cfi_startproc
 768              		@ args = 0, pretend = 0, frame = 0
 769              		@ frame_needed = 0, uses_anonymous_args = 0
 622:Drivers/lvgl/src/extra/widgets/span/lv_span.c ****         memcpy(&snippet_stack.stack[snippet_stack.index], item, sizeof(lv_snippet_t));
 770              		.loc 1 622 5 view .LVU192
 622:Drivers/lvgl/src/extra/widgets/span/lv_span.c ****         memcpy(&snippet_stack.stack[snippet_stack.index], item, sizeof(lv_snippet_t));
 771              		.loc 1 622 21 is_stmt 0 view .LVU193
 772 0000 104B     		ldr	r3, .L61
 773 0002 B3F80035 		ldrh	r3, [r3, #1280]
 622:Drivers/lvgl/src/extra/widgets/span/lv_span.c ****         memcpy(&snippet_stack.stack[snippet_stack.index], item, sizeof(lv_snippet_t));
 774              		.loc 1 622 7 view .LVU194
 775 0006 3F2B     		cmp	r3, #63
 776 0008 00D9     		bls	.L60
 777 000a 7047     		bx	lr
 778              	.L60:
 621:Drivers/lvgl/src/extra/widgets/span/lv_span.c ****     if(snippet_stack.index < LV_SPAN_SNIPPET_STACK_SIZE) {
 779              		.loc 1 621 1 view .LVU195
ARM GAS  /var/folders/0z/tsy30v1j4xl4_7kw94k978ww0000gn/T//ccAguaVl.s 			page 40


 780 000c 30B5     		push	{r4, r5, lr}
 781              		.cfi_def_cfa_offset 12
 782              		.cfi_offset 4, -12
 783              		.cfi_offset 5, -8
 784              		.cfi_offset 14, -4
 623:Drivers/lvgl/src/extra/widgets/span/lv_span.c ****         snippet_stack.index++;
 785              		.loc 1 623 9 is_stmt 1 view .LVU196
 623:Drivers/lvgl/src/extra/widgets/span/lv_span.c ****         snippet_stack.index++;
 786              		.loc 1 623 16 is_stmt 0 view .LVU197
 787 000e 0D4A     		ldr	r2, .L61
 788 0010 03EB8303 		add	r3, r3, r3, lsl #2
 789 0014 02EB8301 		add	r1, r2, r3, lsl #2
 623:Drivers/lvgl/src/extra/widgets/span/lv_span.c ****         snippet_stack.index++;
 790              		.loc 1 623 9 view .LVU198
 791 0018 D0F800C0 		ldr	ip, [r0]	@ unaligned
 792 001c 4568     		ldr	r5, [r0, #4]	@ unaligned
 793 001e 8468     		ldr	r4, [r0, #8]	@ unaligned
 794 0020 D0F80CE0 		ldr	lr, [r0, #12]	@ unaligned
 795 0024 42F823C0 		str	ip, [r2, r3, lsl #2]	@ unaligned
 796 0028 4D60     		str	r5, [r1, #4]	@ unaligned
 797 002a 8C60     		str	r4, [r1, #8]	@ unaligned
 798 002c C1F80CE0 		str	lr, [r1, #12]	@ unaligned
 799 0030 D0F810C0 		ldr	ip, [r0, #16]	@ unaligned
 800 0034 C1F810C0 		str	ip, [r1, #16]	@ unaligned
 624:Drivers/lvgl/src/extra/widgets/span/lv_span.c ****     }
 801              		.loc 1 624 9 is_stmt 1 view .LVU199
 624:Drivers/lvgl/src/extra/widgets/span/lv_span.c ****     }
 802              		.loc 1 624 22 is_stmt 0 view .LVU200
 803 0038 B2F80035 		ldrh	r3, [r2, #1280]
 624:Drivers/lvgl/src/extra/widgets/span/lv_span.c ****     }
 804              		.loc 1 624 28 view .LVU201
 805 003c 0133     		adds	r3, r3, #1
 806 003e A2F80035 		strh	r3, [r2, #1280]	@ movhi
 627:Drivers/lvgl/src/extra/widgets/span/lv_span.c ****     }
 807              		.loc 1 627 9 is_stmt 1 view .LVU202
 627:Drivers/lvgl/src/extra/widgets/span/lv_span.c ****     }
 808              		.loc 1 627 9 view .LVU203
 627:Drivers/lvgl/src/extra/widgets/span/lv_span.c ****     }
 809              		.loc 1 627 9 view .LVU204
 629:Drivers/lvgl/src/extra/widgets/span/lv_span.c **** 
 810              		.loc 1 629 1 is_stmt 0 view .LVU205
 811 0042 30BD     		pop	{r4, r5, pc}
 812              	.L62:
 813              		.align	2
 814              	.L61:
 815 0044 00000000 		.word	.LANCHOR0
 816              		.cfi_endproc
 817              	.LFE230:
 819              		.section	.rodata.lv_draw_span.str1.4,"aMS",%progbits,1
 820              		.align	2
 821              	.LC0:
 822 0000 00       		.ascii	"\000"
 823 0001 000000   		.align	2
 824              	.LC1:
 825 0004 202C2E3B 		.ascii	" ,.;:-_\000"
 825      3A2D5F00 
 826              		.section	.text.lv_draw_span,"ax",%progbits
ARM GAS  /var/folders/0z/tsy30v1j4xl4_7kw94k978ww0000gn/T//ccAguaVl.s 			page 41


 827              		.align	1
 828              		.syntax unified
 829              		.thumb
 830              		.thumb_func
 832              	lv_draw_span:
 833              	.LVL82:
 834              	.LFB242:
 750:Drivers/lvgl/src/extra/widgets/span/lv_span.c **** 
 751:Drivers/lvgl/src/extra/widgets/span/lv_span.c **** /**
 752:Drivers/lvgl/src/extra/widgets/span/lv_span.c ****  * draw span group
 753:Drivers/lvgl/src/extra/widgets/span/lv_span.c ****  * @param spans obj handle
 754:Drivers/lvgl/src/extra/widgets/span/lv_span.c ****  * @param coords coordinates of the label
 755:Drivers/lvgl/src/extra/widgets/span/lv_span.c ****  * @param mask the label will be drawn only in this area
 756:Drivers/lvgl/src/extra/widgets/span/lv_span.c ****  */
 757:Drivers/lvgl/src/extra/widgets/span/lv_span.c **** static void lv_draw_span(lv_obj_t * obj, lv_draw_ctx_t * draw_ctx)
 758:Drivers/lvgl/src/extra/widgets/span/lv_span.c **** {
 835              		.loc 1 758 1 is_stmt 1 view -0
 836              		.cfi_startproc
 837              		@ args = 0, pretend = 0, frame = 200
 838              		@ frame_needed = 0, uses_anonymous_args = 0
 839              		.loc 1 758 1 is_stmt 0 view .LVU207
 840 0000 2DE9F04F 		push	{r4, r5, r6, r7, r8, r9, r10, fp, lr}
 841              		.cfi_def_cfa_offset 36
 842              		.cfi_offset 4, -36
 843              		.cfi_offset 5, -32
 844              		.cfi_offset 6, -28
 845              		.cfi_offset 7, -24
 846              		.cfi_offset 8, -20
 847              		.cfi_offset 9, -16
 848              		.cfi_offset 10, -12
 849              		.cfi_offset 11, -8
 850              		.cfi_offset 14, -4
 851 0004 B7B0     		sub	sp, sp, #220
 852              		.cfi_def_cfa_offset 256
 853 0006 0446     		mov	r4, r0
 854 0008 0790     		str	r0, [sp, #28]
 855 000a 0D46     		mov	r5, r1
 856 000c 1891     		str	r1, [sp, #96]
 759:Drivers/lvgl/src/extra/widgets/span/lv_span.c **** 
 760:Drivers/lvgl/src/extra/widgets/span/lv_span.c ****     lv_area_t coords;
 857              		.loc 1 760 5 is_stmt 1 view .LVU208
 761:Drivers/lvgl/src/extra/widgets/span/lv_span.c ****     lv_obj_get_content_coords(obj, &coords);
 858              		.loc 1 761 5 view .LVU209
 859 000e 34A9     		add	r1, sp, #208
 860              	.LVL83:
 861              		.loc 1 761 5 is_stmt 0 view .LVU210
 862 0010 FFF7FEFF 		bl	lv_obj_get_content_coords
 863              	.LVL84:
 762:Drivers/lvgl/src/extra/widgets/span/lv_span.c **** 
 763:Drivers/lvgl/src/extra/widgets/span/lv_span.c ****     lv_spangroup_t * spans = (lv_spangroup_t *)obj;
 864              		.loc 1 763 5 is_stmt 1 view .LVU211
 764:Drivers/lvgl/src/extra/widgets/span/lv_span.c **** 
 765:Drivers/lvgl/src/extra/widgets/span/lv_span.c ****     /* return if not span */
 766:Drivers/lvgl/src/extra/widgets/span/lv_span.c ****     if(_lv_ll_get_head(&spans->child_ll) == NULL) {
 865              		.loc 1 766 5 view .LVU212
 866              		.loc 1 766 24 is_stmt 0 view .LVU213
 867 0014 04F13003 		add	r3, r4, #48
ARM GAS  /var/folders/0z/tsy30v1j4xl4_7kw94k978ww0000gn/T//ccAguaVl.s 			page 42


 868 0018 1F46     		mov	r7, r3
 869 001a 0E93     		str	r3, [sp, #56]
 870              		.loc 1 766 8 view .LVU214
 871 001c 1846     		mov	r0, r3
 872 001e FFF7FEFF 		bl	_lv_ll_get_head
 873              	.LVL85:
 874              		.loc 1 766 7 view .LVU215
 875 0022 30B1     		cbz	r0, .L63
 767:Drivers/lvgl/src/extra/widgets/span/lv_span.c ****         return;
 768:Drivers/lvgl/src/extra/widgets/span/lv_span.c ****     }
 769:Drivers/lvgl/src/extra/widgets/span/lv_span.c **** 
 770:Drivers/lvgl/src/extra/widgets/span/lv_span.c ****     /* return if no draw area */
 771:Drivers/lvgl/src/extra/widgets/span/lv_span.c ****     lv_area_t clip_area;
 876              		.loc 1 771 5 is_stmt 1 view .LVU216
 772:Drivers/lvgl/src/extra/widgets/span/lv_span.c ****     if(!_lv_area_intersect(&clip_area, &coords, draw_ctx->clip_area))  return;
 877              		.loc 1 772 5 view .LVU217
 878              		.loc 1 772 9 is_stmt 0 view .LVU218
 879 0024 AA68     		ldr	r2, [r5, #8]
 880 0026 34A9     		add	r1, sp, #208
 881 0028 32A8     		add	r0, sp, #200
 882 002a FFF7FEFF 		bl	_lv_area_intersect
 883              	.LVL86:
 884              		.loc 1 772 7 view .LVU219
 885 002e 1790     		str	r0, [sp, #92]
 886 0030 10B9     		cbnz	r0, .L128
 887              	.LVL87:
 888              	.L63:
 773:Drivers/lvgl/src/extra/widgets/span/lv_span.c ****     const lv_area_t * clip_area_ori = draw_ctx->clip_area;
 774:Drivers/lvgl/src/extra/widgets/span/lv_span.c ****     draw_ctx->clip_area = &clip_area;
 775:Drivers/lvgl/src/extra/widgets/span/lv_span.c **** 
 776:Drivers/lvgl/src/extra/widgets/span/lv_span.c ****     /* init draw variable */
 777:Drivers/lvgl/src/extra/widgets/span/lv_span.c ****     lv_text_flag_t txt_flag = LV_TEXT_FLAG_NONE;
 778:Drivers/lvgl/src/extra/widgets/span/lv_span.c ****     lv_coord_t line_space = lv_obj_get_style_text_line_space(obj, LV_PART_MAIN);;
 779:Drivers/lvgl/src/extra/widgets/span/lv_span.c ****     lv_coord_t max_width = lv_area_get_width(&coords);
 780:Drivers/lvgl/src/extra/widgets/span/lv_span.c ****     lv_coord_t indent = convert_indent_pct(obj, max_width);
 781:Drivers/lvgl/src/extra/widgets/span/lv_span.c ****     lv_coord_t max_w  = max_width - indent; /* first line need minus indent */
 782:Drivers/lvgl/src/extra/widgets/span/lv_span.c ****     lv_opa_t obj_opa = lv_obj_get_style_opa_recursive(obj, LV_PART_MAIN);
 783:Drivers/lvgl/src/extra/widgets/span/lv_span.c **** 
 784:Drivers/lvgl/src/extra/widgets/span/lv_span.c ****     /* coords of draw span-txt */
 785:Drivers/lvgl/src/extra/widgets/span/lv_span.c ****     lv_point_t txt_pos;
 786:Drivers/lvgl/src/extra/widgets/span/lv_span.c ****     txt_pos.y = coords.y1;
 787:Drivers/lvgl/src/extra/widgets/span/lv_span.c ****     txt_pos.x = coords.x1 + indent; /* first line need add indent */
 788:Drivers/lvgl/src/extra/widgets/span/lv_span.c **** 
 789:Drivers/lvgl/src/extra/widgets/span/lv_span.c ****     lv_span_t * cur_span = _lv_ll_get_head(&spans->child_ll);
 790:Drivers/lvgl/src/extra/widgets/span/lv_span.c ****     const char * cur_txt = cur_span->txt;
 791:Drivers/lvgl/src/extra/widgets/span/lv_span.c ****     span_text_check(&cur_txt);
 792:Drivers/lvgl/src/extra/widgets/span/lv_span.c ****     uint32_t cur_txt_ofs = 0;
 793:Drivers/lvgl/src/extra/widgets/span/lv_span.c ****     lv_snippet_t snippet;   /* use to save cur_span info and push it to stack */
 794:Drivers/lvgl/src/extra/widgets/span/lv_span.c ****     lv_memset_00(&snippet, sizeof(snippet));
 795:Drivers/lvgl/src/extra/widgets/span/lv_span.c **** 
 796:Drivers/lvgl/src/extra/widgets/span/lv_span.c ****     lv_draw_label_dsc_t label_draw_dsc;
 797:Drivers/lvgl/src/extra/widgets/span/lv_span.c ****     lv_draw_label_dsc_init(&label_draw_dsc);
 798:Drivers/lvgl/src/extra/widgets/span/lv_span.c **** 
 799:Drivers/lvgl/src/extra/widgets/span/lv_span.c ****     bool is_first_line = true;
 800:Drivers/lvgl/src/extra/widgets/span/lv_span.c ****     /* the loop control how many lines need to draw */
 801:Drivers/lvgl/src/extra/widgets/span/lv_span.c ****     while(cur_span) {
 802:Drivers/lvgl/src/extra/widgets/span/lv_span.c ****         bool is_end_line = false;
ARM GAS  /var/folders/0z/tsy30v1j4xl4_7kw94k978ww0000gn/T//ccAguaVl.s 			page 43


 803:Drivers/lvgl/src/extra/widgets/span/lv_span.c ****         bool ellipsis_valid = false;
 804:Drivers/lvgl/src/extra/widgets/span/lv_span.c ****         lv_coord_t max_line_h = 0;  /* the max height of span-font when a line have a lot of span *
 805:Drivers/lvgl/src/extra/widgets/span/lv_span.c ****         lv_coord_t max_baseline = 0; /*baseline of the highest span*/
 806:Drivers/lvgl/src/extra/widgets/span/lv_span.c ****         lv_snippet_clear();
 807:Drivers/lvgl/src/extra/widgets/span/lv_span.c **** 
 808:Drivers/lvgl/src/extra/widgets/span/lv_span.c ****         /* the loop control to find a line and push the relevant span info into stack  */
 809:Drivers/lvgl/src/extra/widgets/span/lv_span.c ****         while(1) {
 810:Drivers/lvgl/src/extra/widgets/span/lv_span.c ****             /* switch to the next span when current is end */
 811:Drivers/lvgl/src/extra/widgets/span/lv_span.c ****             if(cur_txt[cur_txt_ofs] == '\0') {
 812:Drivers/lvgl/src/extra/widgets/span/lv_span.c ****                 cur_span = _lv_ll_get_next(&spans->child_ll, cur_span);
 813:Drivers/lvgl/src/extra/widgets/span/lv_span.c ****                 if(cur_span == NULL) break;
 814:Drivers/lvgl/src/extra/widgets/span/lv_span.c ****                 cur_txt = cur_span->txt;
 815:Drivers/lvgl/src/extra/widgets/span/lv_span.c ****                 span_text_check(&cur_txt);
 816:Drivers/lvgl/src/extra/widgets/span/lv_span.c ****                 cur_txt_ofs = 0;
 817:Drivers/lvgl/src/extra/widgets/span/lv_span.c ****                 /* maybe also cur_txt[cur_txt_ofs] == '\0' */
 818:Drivers/lvgl/src/extra/widgets/span/lv_span.c ****                 continue;
 819:Drivers/lvgl/src/extra/widgets/span/lv_span.c ****             }
 820:Drivers/lvgl/src/extra/widgets/span/lv_span.c **** 
 821:Drivers/lvgl/src/extra/widgets/span/lv_span.c ****             /* init span info to snippet. */
 822:Drivers/lvgl/src/extra/widgets/span/lv_span.c ****             if(cur_txt_ofs == 0) {
 823:Drivers/lvgl/src/extra/widgets/span/lv_span.c ****                 snippet.span = cur_span;
 824:Drivers/lvgl/src/extra/widgets/span/lv_span.c ****                 snippet.font = lv_span_get_style_text_font(obj, cur_span);
 825:Drivers/lvgl/src/extra/widgets/span/lv_span.c ****                 snippet.letter_space = lv_span_get_style_text_letter_space(obj, cur_span);
 826:Drivers/lvgl/src/extra/widgets/span/lv_span.c ****                 snippet.line_h = lv_font_get_line_height(snippet.font) + line_space;
 827:Drivers/lvgl/src/extra/widgets/span/lv_span.c ****             }
 828:Drivers/lvgl/src/extra/widgets/span/lv_span.c **** 
 829:Drivers/lvgl/src/extra/widgets/span/lv_span.c ****             /* get current span text line info */
 830:Drivers/lvgl/src/extra/widgets/span/lv_span.c ****             uint32_t next_ofs = 0;
 831:Drivers/lvgl/src/extra/widgets/span/lv_span.c ****             lv_coord_t use_width = 0;
 832:Drivers/lvgl/src/extra/widgets/span/lv_span.c ****             bool isfill = lv_txt_get_snippet(&cur_txt[cur_txt_ofs], snippet.font, snippet.letter_sp
 833:Drivers/lvgl/src/extra/widgets/span/lv_span.c ****                                              max_w, txt_flag, &use_width, &next_ofs);
 834:Drivers/lvgl/src/extra/widgets/span/lv_span.c **** 
 835:Drivers/lvgl/src/extra/widgets/span/lv_span.c ****             if(isfill) {
 836:Drivers/lvgl/src/extra/widgets/span/lv_span.c ****                 if(next_ofs > 0 && lv_get_snippet_cnt() > 0) {
 837:Drivers/lvgl/src/extra/widgets/span/lv_span.c ****                     /* To prevent infinite loops, the _lv_txt_get_next_line() may return incomplete
 838:Drivers/lvgl/src/extra/widgets/span/lv_span.c ****                     /* This phenomenon should be avoided when lv_get_snippet_cnt() > 0 */
 839:Drivers/lvgl/src/extra/widgets/span/lv_span.c ****                     if(max_w < use_width) {
 840:Drivers/lvgl/src/extra/widgets/span/lv_span.c ****                         break;
 841:Drivers/lvgl/src/extra/widgets/span/lv_span.c ****                     }
 842:Drivers/lvgl/src/extra/widgets/span/lv_span.c ****                     uint32_t tmp_ofs = next_ofs;
 843:Drivers/lvgl/src/extra/widgets/span/lv_span.c ****                     uint32_t letter = _lv_txt_encoded_prev(&cur_txt[cur_txt_ofs], &tmp_ofs);
 844:Drivers/lvgl/src/extra/widgets/span/lv_span.c ****                     if(!(letter == '\0' || letter == '\n' || letter == '\r' || _lv_txt_is_break_cha
 845:Drivers/lvgl/src/extra/widgets/span/lv_span.c ****                         tmp_ofs = 0;
 846:Drivers/lvgl/src/extra/widgets/span/lv_span.c ****                         letter = _lv_txt_encoded_next(&cur_txt[cur_txt_ofs + next_ofs], &tmp_ofs);
 847:Drivers/lvgl/src/extra/widgets/span/lv_span.c ****                         if(!(letter == '\0' || letter == '\n'  || letter == '\r' || _lv_txt_is_brea
 848:Drivers/lvgl/src/extra/widgets/span/lv_span.c ****                             break;
 849:Drivers/lvgl/src/extra/widgets/span/lv_span.c ****                         }
 850:Drivers/lvgl/src/extra/widgets/span/lv_span.c ****                     }
 851:Drivers/lvgl/src/extra/widgets/span/lv_span.c ****                 }
 852:Drivers/lvgl/src/extra/widgets/span/lv_span.c ****             }
 853:Drivers/lvgl/src/extra/widgets/span/lv_span.c **** 
 854:Drivers/lvgl/src/extra/widgets/span/lv_span.c ****             snippet.txt = &cur_txt[cur_txt_ofs];
 855:Drivers/lvgl/src/extra/widgets/span/lv_span.c ****             snippet.bytes = next_ofs;
 856:Drivers/lvgl/src/extra/widgets/span/lv_span.c ****             snippet.txt_w = use_width;
 857:Drivers/lvgl/src/extra/widgets/span/lv_span.c ****             cur_txt_ofs += next_ofs;
 858:Drivers/lvgl/src/extra/widgets/span/lv_span.c ****             if(max_line_h < snippet.line_h) {
 859:Drivers/lvgl/src/extra/widgets/span/lv_span.c ****                 max_line_h = snippet.line_h;
ARM GAS  /var/folders/0z/tsy30v1j4xl4_7kw94k978ww0000gn/T//ccAguaVl.s 			page 44


 860:Drivers/lvgl/src/extra/widgets/span/lv_span.c ****                 max_baseline = snippet.font->base_line;
 861:Drivers/lvgl/src/extra/widgets/span/lv_span.c ****             }
 862:Drivers/lvgl/src/extra/widgets/span/lv_span.c **** 
 863:Drivers/lvgl/src/extra/widgets/span/lv_span.c ****             lv_snippet_push(&snippet);
 864:Drivers/lvgl/src/extra/widgets/span/lv_span.c ****             max_w = max_w - use_width - snippet.letter_space;
 865:Drivers/lvgl/src/extra/widgets/span/lv_span.c ****             if(isfill || max_w <= 0) {
 866:Drivers/lvgl/src/extra/widgets/span/lv_span.c ****                 break;
 867:Drivers/lvgl/src/extra/widgets/span/lv_span.c ****             }
 868:Drivers/lvgl/src/extra/widgets/span/lv_span.c ****         }
 869:Drivers/lvgl/src/extra/widgets/span/lv_span.c **** 
 870:Drivers/lvgl/src/extra/widgets/span/lv_span.c ****         /* start current line deal with */
 871:Drivers/lvgl/src/extra/widgets/span/lv_span.c **** 
 872:Drivers/lvgl/src/extra/widgets/span/lv_span.c ****         uint16_t item_cnt = lv_get_snippet_cnt();
 873:Drivers/lvgl/src/extra/widgets/span/lv_span.c ****         if(item_cnt == 0) {     /* break if stack is empty */
 874:Drivers/lvgl/src/extra/widgets/span/lv_span.c ****             break;
 875:Drivers/lvgl/src/extra/widgets/span/lv_span.c ****         }
 876:Drivers/lvgl/src/extra/widgets/span/lv_span.c **** 
 877:Drivers/lvgl/src/extra/widgets/span/lv_span.c ****         /* Whether the current line is the end line and does overflow processing */
 878:Drivers/lvgl/src/extra/widgets/span/lv_span.c ****         {
 879:Drivers/lvgl/src/extra/widgets/span/lv_span.c ****             lv_snippet_t * last_snippet = lv_get_snippet(item_cnt - 1);
 880:Drivers/lvgl/src/extra/widgets/span/lv_span.c ****             lv_coord_t next_line_h = last_snippet->line_h;
 881:Drivers/lvgl/src/extra/widgets/span/lv_span.c ****             if(last_snippet->txt[last_snippet->bytes] == '\0') {
 882:Drivers/lvgl/src/extra/widgets/span/lv_span.c ****                 next_line_h = 0;
 883:Drivers/lvgl/src/extra/widgets/span/lv_span.c ****                 lv_span_t * next_span = _lv_ll_get_next(&spans->child_ll, last_snippet->span);
 884:Drivers/lvgl/src/extra/widgets/span/lv_span.c ****                 if(next_span) { /* have the next line */
 885:Drivers/lvgl/src/extra/widgets/span/lv_span.c ****                     next_line_h = lv_font_get_line_height(lv_span_get_style_text_font(obj, next_spa
 886:Drivers/lvgl/src/extra/widgets/span/lv_span.c ****                 }
 887:Drivers/lvgl/src/extra/widgets/span/lv_span.c ****             }
 888:Drivers/lvgl/src/extra/widgets/span/lv_span.c ****             if(txt_pos.y + max_line_h + next_line_h - line_space > coords.y2 + 1) { /* for overflow
 889:Drivers/lvgl/src/extra/widgets/span/lv_span.c ****                 if(last_snippet->txt[last_snippet->bytes] != '\0') {
 890:Drivers/lvgl/src/extra/widgets/span/lv_span.c ****                     last_snippet->bytes = strlen(last_snippet->txt);
 891:Drivers/lvgl/src/extra/widgets/span/lv_span.c ****                     last_snippet->txt_w = lv_txt_get_width(last_snippet->txt, last_snippet->bytes, 
 892:Drivers/lvgl/src/extra/widgets/span/lv_span.c ****                                                            last_snippet->letter_space, txt_flag);
 893:Drivers/lvgl/src/extra/widgets/span/lv_span.c ****                 }
 894:Drivers/lvgl/src/extra/widgets/span/lv_span.c ****                 ellipsis_valid = spans->overflow == LV_SPAN_OVERFLOW_ELLIPSIS ? true : false;
 895:Drivers/lvgl/src/extra/widgets/span/lv_span.c ****                 is_end_line = true;
 896:Drivers/lvgl/src/extra/widgets/span/lv_span.c ****             }
 897:Drivers/lvgl/src/extra/widgets/span/lv_span.c ****         }
 898:Drivers/lvgl/src/extra/widgets/span/lv_span.c **** 
 899:Drivers/lvgl/src/extra/widgets/span/lv_span.c ****         /*Go the first visible line*/
 900:Drivers/lvgl/src/extra/widgets/span/lv_span.c ****         if(txt_pos.y + max_line_h < clip_area.y1) {
 901:Drivers/lvgl/src/extra/widgets/span/lv_span.c ****             goto Next_line_init;
 902:Drivers/lvgl/src/extra/widgets/span/lv_span.c ****         }
 903:Drivers/lvgl/src/extra/widgets/span/lv_span.c **** 
 904:Drivers/lvgl/src/extra/widgets/span/lv_span.c ****         /* align deal with */
 905:Drivers/lvgl/src/extra/widgets/span/lv_span.c ****         lv_text_align_t align = lv_obj_get_style_text_align(obj, LV_PART_MAIN);
 906:Drivers/lvgl/src/extra/widgets/span/lv_span.c ****         if(align == LV_TEXT_ALIGN_CENTER || align == LV_TEXT_ALIGN_RIGHT) {
 907:Drivers/lvgl/src/extra/widgets/span/lv_span.c ****             lv_coord_t align_ofs = 0;
 908:Drivers/lvgl/src/extra/widgets/span/lv_span.c ****             lv_coord_t txts_w = is_first_line ? indent : 0;
 909:Drivers/lvgl/src/extra/widgets/span/lv_span.c ****             for(int i = 0; i < item_cnt; i++) {
 910:Drivers/lvgl/src/extra/widgets/span/lv_span.c ****                 lv_snippet_t * pinfo = lv_get_snippet(i);
 911:Drivers/lvgl/src/extra/widgets/span/lv_span.c ****                 txts_w = txts_w + pinfo->txt_w + pinfo->letter_space;
 912:Drivers/lvgl/src/extra/widgets/span/lv_span.c ****             }
 913:Drivers/lvgl/src/extra/widgets/span/lv_span.c ****             txts_w -= lv_get_snippet(item_cnt - 1)->letter_space;
 914:Drivers/lvgl/src/extra/widgets/span/lv_span.c ****             align_ofs = max_width > txts_w ? max_width - txts_w : 0;
 915:Drivers/lvgl/src/extra/widgets/span/lv_span.c ****             if(align == LV_TEXT_ALIGN_CENTER) {
 916:Drivers/lvgl/src/extra/widgets/span/lv_span.c ****                 align_ofs = align_ofs >> 1;
ARM GAS  /var/folders/0z/tsy30v1j4xl4_7kw94k978ww0000gn/T//ccAguaVl.s 			page 45


 917:Drivers/lvgl/src/extra/widgets/span/lv_span.c ****             }
 918:Drivers/lvgl/src/extra/widgets/span/lv_span.c ****             txt_pos.x += align_ofs;
 919:Drivers/lvgl/src/extra/widgets/span/lv_span.c ****         }
 920:Drivers/lvgl/src/extra/widgets/span/lv_span.c **** 
 921:Drivers/lvgl/src/extra/widgets/span/lv_span.c ****         /* draw line letters */
 922:Drivers/lvgl/src/extra/widgets/span/lv_span.c ****         int i;
 923:Drivers/lvgl/src/extra/widgets/span/lv_span.c ****         for(i = 0; i < item_cnt; i++) {
 924:Drivers/lvgl/src/extra/widgets/span/lv_span.c ****             lv_snippet_t * pinfo = lv_get_snippet(i);
 925:Drivers/lvgl/src/extra/widgets/span/lv_span.c **** 
 926:Drivers/lvgl/src/extra/widgets/span/lv_span.c ****             /* bidi deal with:todo */
 927:Drivers/lvgl/src/extra/widgets/span/lv_span.c ****             const char * bidi_txt = pinfo->txt;
 928:Drivers/lvgl/src/extra/widgets/span/lv_span.c **** 
 929:Drivers/lvgl/src/extra/widgets/span/lv_span.c ****             lv_point_t pos;
 930:Drivers/lvgl/src/extra/widgets/span/lv_span.c ****             pos.x = txt_pos.x;
 931:Drivers/lvgl/src/extra/widgets/span/lv_span.c ****             pos.y = txt_pos.y + max_line_h - pinfo->line_h - (max_baseline - pinfo->font->base_line
 932:Drivers/lvgl/src/extra/widgets/span/lv_span.c ****             label_draw_dsc.color = lv_span_get_style_text_color(obj, pinfo->span);
 933:Drivers/lvgl/src/extra/widgets/span/lv_span.c ****             label_draw_dsc.opa = lv_span_get_style_text_opa(obj, pinfo->span);
 934:Drivers/lvgl/src/extra/widgets/span/lv_span.c ****             label_draw_dsc.font = lv_span_get_style_text_font(obj, pinfo->span);
 935:Drivers/lvgl/src/extra/widgets/span/lv_span.c ****             label_draw_dsc.blend_mode = lv_span_get_style_text_blend_mode(obj, pinfo->span);
 936:Drivers/lvgl/src/extra/widgets/span/lv_span.c ****             if(obj_opa < LV_OPA_MAX) {
 937:Drivers/lvgl/src/extra/widgets/span/lv_span.c ****                 label_draw_dsc.opa = (uint16_t)((uint16_t)label_draw_dsc.opa * obj_opa) >> 8;
 938:Drivers/lvgl/src/extra/widgets/span/lv_span.c ****             }
 939:Drivers/lvgl/src/extra/widgets/span/lv_span.c ****             uint32_t txt_bytes = pinfo->bytes;
 940:Drivers/lvgl/src/extra/widgets/span/lv_span.c **** 
 941:Drivers/lvgl/src/extra/widgets/span/lv_span.c ****             /* overflow */
 942:Drivers/lvgl/src/extra/widgets/span/lv_span.c ****             uint16_t dot_letter_w = 0;
 943:Drivers/lvgl/src/extra/widgets/span/lv_span.c ****             uint16_t dot_width = 0;
 944:Drivers/lvgl/src/extra/widgets/span/lv_span.c ****             if(ellipsis_valid) {
 945:Drivers/lvgl/src/extra/widgets/span/lv_span.c ****                 dot_letter_w = lv_font_get_glyph_width(pinfo->font, '.', '.');
 946:Drivers/lvgl/src/extra/widgets/span/lv_span.c ****                 dot_width = dot_letter_w * 3;
 947:Drivers/lvgl/src/extra/widgets/span/lv_span.c ****             }
 948:Drivers/lvgl/src/extra/widgets/span/lv_span.c ****             lv_coord_t ellipsis_width = coords.x1 + max_width - dot_width;
 949:Drivers/lvgl/src/extra/widgets/span/lv_span.c **** 
 950:Drivers/lvgl/src/extra/widgets/span/lv_span.c ****             uint32_t j = 0;
 951:Drivers/lvgl/src/extra/widgets/span/lv_span.c ****             while(j < txt_bytes) {
 952:Drivers/lvgl/src/extra/widgets/span/lv_span.c ****                 /* skip invalid fields */
 953:Drivers/lvgl/src/extra/widgets/span/lv_span.c ****                 if(pos.x > clip_area.x2) {
 954:Drivers/lvgl/src/extra/widgets/span/lv_span.c ****                     break;
 955:Drivers/lvgl/src/extra/widgets/span/lv_span.c ****                 }
 956:Drivers/lvgl/src/extra/widgets/span/lv_span.c ****                 uint32_t letter      = _lv_txt_encoded_next(bidi_txt, &j);
 957:Drivers/lvgl/src/extra/widgets/span/lv_span.c ****                 uint32_t letter_next = _lv_txt_encoded_next(&bidi_txt[j], NULL);
 958:Drivers/lvgl/src/extra/widgets/span/lv_span.c ****                 int32_t letter_w = lv_font_get_glyph_width(pinfo->font, letter, letter_next);
 959:Drivers/lvgl/src/extra/widgets/span/lv_span.c **** 
 960:Drivers/lvgl/src/extra/widgets/span/lv_span.c ****                 /* skip invalid fields */
 961:Drivers/lvgl/src/extra/widgets/span/lv_span.c ****                 if(pos.x + letter_w + pinfo->letter_space < clip_area.x1) {
 962:Drivers/lvgl/src/extra/widgets/span/lv_span.c ****                     if(letter_w > 0) {
 963:Drivers/lvgl/src/extra/widgets/span/lv_span.c ****                         pos.x = pos.x + letter_w + pinfo->letter_space;
 964:Drivers/lvgl/src/extra/widgets/span/lv_span.c ****                     }
 965:Drivers/lvgl/src/extra/widgets/span/lv_span.c ****                     continue;
 966:Drivers/lvgl/src/extra/widgets/span/lv_span.c ****                 }
 967:Drivers/lvgl/src/extra/widgets/span/lv_span.c **** 
 968:Drivers/lvgl/src/extra/widgets/span/lv_span.c ****                 if(ellipsis_valid && pos.x + letter_w + pinfo->letter_space > ellipsis_width) {
 969:Drivers/lvgl/src/extra/widgets/span/lv_span.c ****                     for(int ell = 0; ell < 3; ell++) {
 970:Drivers/lvgl/src/extra/widgets/span/lv_span.c ****                         lv_draw_letter(draw_ctx, &label_draw_dsc, &pos, '.');
 971:Drivers/lvgl/src/extra/widgets/span/lv_span.c ****                         pos.x = pos.x + dot_letter_w + pinfo->letter_space;
 972:Drivers/lvgl/src/extra/widgets/span/lv_span.c ****                     }
 973:Drivers/lvgl/src/extra/widgets/span/lv_span.c ****                     if(pos.x <= ellipsis_width) {
ARM GAS  /var/folders/0z/tsy30v1j4xl4_7kw94k978ww0000gn/T//ccAguaVl.s 			page 46


 974:Drivers/lvgl/src/extra/widgets/span/lv_span.c ****                         pos.x = ellipsis_width + 1;
 975:Drivers/lvgl/src/extra/widgets/span/lv_span.c ****                     }
 976:Drivers/lvgl/src/extra/widgets/span/lv_span.c ****                     break;
 977:Drivers/lvgl/src/extra/widgets/span/lv_span.c ****                 }
 978:Drivers/lvgl/src/extra/widgets/span/lv_span.c ****                 else {
 979:Drivers/lvgl/src/extra/widgets/span/lv_span.c ****                     lv_draw_letter(draw_ctx, &label_draw_dsc, &pos, letter);
 980:Drivers/lvgl/src/extra/widgets/span/lv_span.c ****                     if(letter_w > 0) {
 981:Drivers/lvgl/src/extra/widgets/span/lv_span.c ****                         pos.x = pos.x + letter_w + pinfo->letter_space;
 982:Drivers/lvgl/src/extra/widgets/span/lv_span.c ****                     }
 983:Drivers/lvgl/src/extra/widgets/span/lv_span.c ****                 }
 984:Drivers/lvgl/src/extra/widgets/span/lv_span.c ****             }
 985:Drivers/lvgl/src/extra/widgets/span/lv_span.c **** 
 986:Drivers/lvgl/src/extra/widgets/span/lv_span.c ****             /* draw decor */
 987:Drivers/lvgl/src/extra/widgets/span/lv_span.c ****             lv_text_decor_t decor = lv_span_get_style_text_decor(obj, pinfo->span);
 988:Drivers/lvgl/src/extra/widgets/span/lv_span.c ****             if(decor != LV_TEXT_DECOR_NONE) {
 989:Drivers/lvgl/src/extra/widgets/span/lv_span.c ****                 lv_draw_line_dsc_t line_dsc;
 990:Drivers/lvgl/src/extra/widgets/span/lv_span.c ****                 lv_draw_line_dsc_init(&line_dsc);
 991:Drivers/lvgl/src/extra/widgets/span/lv_span.c ****                 line_dsc.color = label_draw_dsc.color;
 992:Drivers/lvgl/src/extra/widgets/span/lv_span.c ****                 line_dsc.width = label_draw_dsc.font->underline_thickness ? pinfo->font->underline_
 993:Drivers/lvgl/src/extra/widgets/span/lv_span.c ****                 line_dsc.opa = label_draw_dsc.opa;
 994:Drivers/lvgl/src/extra/widgets/span/lv_span.c ****                 line_dsc.blend_mode = label_draw_dsc.blend_mode;
 995:Drivers/lvgl/src/extra/widgets/span/lv_span.c **** 
 996:Drivers/lvgl/src/extra/widgets/span/lv_span.c ****                 if(decor & LV_TEXT_DECOR_STRIKETHROUGH) {
 997:Drivers/lvgl/src/extra/widgets/span/lv_span.c ****                     lv_point_t p1;
 998:Drivers/lvgl/src/extra/widgets/span/lv_span.c ****                     lv_point_t p2;
 999:Drivers/lvgl/src/extra/widgets/span/lv_span.c ****                     p1.x = txt_pos.x;
1000:Drivers/lvgl/src/extra/widgets/span/lv_span.c ****                     p1.y = pos.y + ((pinfo->line_h - line_space) >> 1)  + (line_dsc.width >> 1);
1001:Drivers/lvgl/src/extra/widgets/span/lv_span.c ****                     p2.x = pos.x;
1002:Drivers/lvgl/src/extra/widgets/span/lv_span.c ****                     p2.y = p1.y;
1003:Drivers/lvgl/src/extra/widgets/span/lv_span.c ****                     lv_draw_line(draw_ctx, &line_dsc, &p1, &p2);
1004:Drivers/lvgl/src/extra/widgets/span/lv_span.c ****                 }
1005:Drivers/lvgl/src/extra/widgets/span/lv_span.c **** 
1006:Drivers/lvgl/src/extra/widgets/span/lv_span.c ****                 if(decor & LV_TEXT_DECOR_UNDERLINE) {
1007:Drivers/lvgl/src/extra/widgets/span/lv_span.c ****                     lv_point_t p1;
1008:Drivers/lvgl/src/extra/widgets/span/lv_span.c ****                     lv_point_t p2;
1009:Drivers/lvgl/src/extra/widgets/span/lv_span.c ****                     p1.x = txt_pos.x;
1010:Drivers/lvgl/src/extra/widgets/span/lv_span.c ****                     p1.y = pos.y + pinfo->line_h - line_space - pinfo->font->base_line - pinfo->fon
1011:Drivers/lvgl/src/extra/widgets/span/lv_span.c ****                     p2.x = pos.x;
1012:Drivers/lvgl/src/extra/widgets/span/lv_span.c ****                     p2.y = p1.y;
1013:Drivers/lvgl/src/extra/widgets/span/lv_span.c ****                     lv_draw_line(draw_ctx, &line_dsc, &p1, &p2);
1014:Drivers/lvgl/src/extra/widgets/span/lv_span.c ****                 }
1015:Drivers/lvgl/src/extra/widgets/span/lv_span.c ****             }
1016:Drivers/lvgl/src/extra/widgets/span/lv_span.c ****             txt_pos.x = pos.x;
1017:Drivers/lvgl/src/extra/widgets/span/lv_span.c ****         }
1018:Drivers/lvgl/src/extra/widgets/span/lv_span.c **** 
1019:Drivers/lvgl/src/extra/widgets/span/lv_span.c **** Next_line_init:
1020:Drivers/lvgl/src/extra/widgets/span/lv_span.c ****         /* next line init */
1021:Drivers/lvgl/src/extra/widgets/span/lv_span.c ****         is_first_line = false;
1022:Drivers/lvgl/src/extra/widgets/span/lv_span.c ****         txt_pos.x = coords.x1;
1023:Drivers/lvgl/src/extra/widgets/span/lv_span.c ****         txt_pos.y += max_line_h;
1024:Drivers/lvgl/src/extra/widgets/span/lv_span.c ****         if(is_end_line || txt_pos.y > clip_area.y2 + 1) {
1025:Drivers/lvgl/src/extra/widgets/span/lv_span.c ****             draw_ctx->clip_area = clip_area_ori;
1026:Drivers/lvgl/src/extra/widgets/span/lv_span.c ****             return;
1027:Drivers/lvgl/src/extra/widgets/span/lv_span.c ****         }
1028:Drivers/lvgl/src/extra/widgets/span/lv_span.c ****         max_w = max_width;
1029:Drivers/lvgl/src/extra/widgets/span/lv_span.c ****     }
1030:Drivers/lvgl/src/extra/widgets/span/lv_span.c ****     draw_ctx->clip_area = clip_area_ori;
ARM GAS  /var/folders/0z/tsy30v1j4xl4_7kw94k978ww0000gn/T//ccAguaVl.s 			page 47


1031:Drivers/lvgl/src/extra/widgets/span/lv_span.c **** }
 889              		.loc 1 1031 1 view .LVU220
 890 0032 37B0     		add	sp, sp, #220
 891              		.cfi_remember_state
 892              		.cfi_def_cfa_offset 36
 893              		@ sp needed
 894 0034 BDE8F08F 		pop	{r4, r5, r6, r7, r8, r9, r10, fp, pc}
 895              	.LVL88:
 896              	.L128:
 897              		.cfi_restore_state
 773:Drivers/lvgl/src/extra/widgets/span/lv_span.c ****     const lv_area_t * clip_area_ori = draw_ctx->clip_area;
 898              		.loc 1 773 5 is_stmt 1 view .LVU221
 773:Drivers/lvgl/src/extra/widgets/span/lv_span.c ****     const lv_area_t * clip_area_ori = draw_ctx->clip_area;
 899              		.loc 1 773 23 is_stmt 0 view .LVU222
 900 0038 A968     		ldr	r1, [r5, #8]
 901 003a 1A91     		str	r1, [sp, #104]
 902              	.LVL89:
 774:Drivers/lvgl/src/extra/widgets/span/lv_span.c **** 
 903              		.loc 1 774 5 is_stmt 1 view .LVU223
 774:Drivers/lvgl/src/extra/widgets/span/lv_span.c **** 
 904              		.loc 1 774 25 is_stmt 0 view .LVU224
 905 003c 32AB     		add	r3, sp, #200
 906 003e AB60     		str	r3, [r5, #8]
 777:Drivers/lvgl/src/extra/widgets/span/lv_span.c ****     lv_coord_t line_space = lv_obj_get_style_text_line_space(obj, LV_PART_MAIN);;
 907              		.loc 1 777 5 is_stmt 1 view .LVU225
 908              	.LVL90:
 778:Drivers/lvgl/src/extra/widgets/span/lv_span.c ****     lv_coord_t max_width = lv_area_get_width(&coords);
 909              		.loc 1 778 5 view .LVU226
 910              	.LBB91:
 911              	.LBI91:
 475:Drivers/lvgl/src/extra/widgets/span/../../../../src/core/lv_obj_style_gen.h **** {
 912              		.loc 2 475 26 view .LVU227
 913              	.LBB92:
 477:Drivers/lvgl/src/extra/widgets/span/../../../../src/core/lv_obj_style_gen.h ****     return (lv_coord_t)v.num;
 914              		.loc 2 477 5 view .LVU228
 477:Drivers/lvgl/src/extra/widgets/span/../../../../src/core/lv_obj_style_gen.h ****     return (lv_coord_t)v.num;
 915              		.loc 2 477 26 is_stmt 0 view .LVU229
 916 0040 5922     		movs	r2, #89
 917 0042 0021     		movs	r1, #0
 918              	.LVL91:
 477:Drivers/lvgl/src/extra/widgets/span/../../../../src/core/lv_obj_style_gen.h ****     return (lv_coord_t)v.num;
 919              		.loc 2 477 26 view .LVU230
 920 0044 A046     		mov	r8, r4
 921 0046 2046     		mov	r0, r4
 922 0048 FFF7FEFF 		bl	lv_obj_get_style_prop
 923              	.LVL92:
 924 004c 1490     		str	r0, [sp, #80]
 478:Drivers/lvgl/src/extra/widgets/span/../../../../src/core/lv_obj_style_gen.h **** }
 925              		.loc 2 478 5 is_stmt 1 view .LVU231
 478:Drivers/lvgl/src/extra/widgets/span/../../../../src/core/lv_obj_style_gen.h **** }
 926              		.loc 2 478 12 is_stmt 0 view .LVU232
 927 004e 02B2     		sxth	r2, r0
 928 0050 1592     		str	r2, [sp, #84]
 929              	.LVL93:
 478:Drivers/lvgl/src/extra/widgets/span/../../../../src/core/lv_obj_style_gen.h **** }
 930              		.loc 2 478 12 view .LVU233
 931              	.LBE92:
ARM GAS  /var/folders/0z/tsy30v1j4xl4_7kw94k978ww0000gn/T//ccAguaVl.s 			page 48


 932              	.LBE91:
 778:Drivers/lvgl/src/extra/widgets/span/lv_span.c ****     lv_coord_t max_width = lv_area_get_width(&coords);
 933              		.loc 1 778 81 is_stmt 1 view .LVU234
 779:Drivers/lvgl/src/extra/widgets/span/lv_span.c ****     lv_coord_t indent = convert_indent_pct(obj, max_width);
 934              		.loc 1 779 5 view .LVU235
 935              	.LBB93:
 936              	.LBI93:
 937              		.file 3 "Drivers/lvgl/src/extra/widgets/span/../../../../src/hal/../draw/../misc/../font/../misc/l
   1:Drivers/lvgl/src/extra/widgets/span/../../../../src/hal/../draw/../misc/../font/../misc/lv_area.h **** /**
   2:Drivers/lvgl/src/extra/widgets/span/../../../../src/hal/../draw/../misc/../font/../misc/lv_area.h ****  * @file lv_area.h
   3:Drivers/lvgl/src/extra/widgets/span/../../../../src/hal/../draw/../misc/../font/../misc/lv_area.h ****  *
   4:Drivers/lvgl/src/extra/widgets/span/../../../../src/hal/../draw/../misc/../font/../misc/lv_area.h ****  */
   5:Drivers/lvgl/src/extra/widgets/span/../../../../src/hal/../draw/../misc/../font/../misc/lv_area.h **** 
   6:Drivers/lvgl/src/extra/widgets/span/../../../../src/hal/../draw/../misc/../font/../misc/lv_area.h **** #ifndef LV_AREA_H
   7:Drivers/lvgl/src/extra/widgets/span/../../../../src/hal/../draw/../misc/../font/../misc/lv_area.h **** #define LV_AREA_H
   8:Drivers/lvgl/src/extra/widgets/span/../../../../src/hal/../draw/../misc/../font/../misc/lv_area.h **** 
   9:Drivers/lvgl/src/extra/widgets/span/../../../../src/hal/../draw/../misc/../font/../misc/lv_area.h **** #ifdef __cplusplus
  10:Drivers/lvgl/src/extra/widgets/span/../../../../src/hal/../draw/../misc/../font/../misc/lv_area.h **** extern "C" {
  11:Drivers/lvgl/src/extra/widgets/span/../../../../src/hal/../draw/../misc/../font/../misc/lv_area.h **** #endif
  12:Drivers/lvgl/src/extra/widgets/span/../../../../src/hal/../draw/../misc/../font/../misc/lv_area.h **** 
  13:Drivers/lvgl/src/extra/widgets/span/../../../../src/hal/../draw/../misc/../font/../misc/lv_area.h **** /*********************
  14:Drivers/lvgl/src/extra/widgets/span/../../../../src/hal/../draw/../misc/../font/../misc/lv_area.h ****  *      INCLUDES
  15:Drivers/lvgl/src/extra/widgets/span/../../../../src/hal/../draw/../misc/../font/../misc/lv_area.h ****  *********************/
  16:Drivers/lvgl/src/extra/widgets/span/../../../../src/hal/../draw/../misc/../font/../misc/lv_area.h **** #include "../lv_conf_internal.h"
  17:Drivers/lvgl/src/extra/widgets/span/../../../../src/hal/../draw/../misc/../font/../misc/lv_area.h **** #include <stdbool.h>
  18:Drivers/lvgl/src/extra/widgets/span/../../../../src/hal/../draw/../misc/../font/../misc/lv_area.h **** #include <stdint.h>
  19:Drivers/lvgl/src/extra/widgets/span/../../../../src/hal/../draw/../misc/../font/../misc/lv_area.h **** 
  20:Drivers/lvgl/src/extra/widgets/span/../../../../src/hal/../draw/../misc/../font/../misc/lv_area.h **** /*********************
  21:Drivers/lvgl/src/extra/widgets/span/../../../../src/hal/../draw/../misc/../font/../misc/lv_area.h ****  *      DEFINES
  22:Drivers/lvgl/src/extra/widgets/span/../../../../src/hal/../draw/../misc/../font/../misc/lv_area.h ****  *********************/
  23:Drivers/lvgl/src/extra/widgets/span/../../../../src/hal/../draw/../misc/../font/../misc/lv_area.h **** 
  24:Drivers/lvgl/src/extra/widgets/span/../../../../src/hal/../draw/../misc/../font/../misc/lv_area.h **** #if LV_USE_LARGE_COORD
  25:Drivers/lvgl/src/extra/widgets/span/../../../../src/hal/../draw/../misc/../font/../misc/lv_area.h **** typedef int32_t lv_coord_t;
  26:Drivers/lvgl/src/extra/widgets/span/../../../../src/hal/../draw/../misc/../font/../misc/lv_area.h **** #else
  27:Drivers/lvgl/src/extra/widgets/span/../../../../src/hal/../draw/../misc/../font/../misc/lv_area.h **** typedef int16_t lv_coord_t;
  28:Drivers/lvgl/src/extra/widgets/span/../../../../src/hal/../draw/../misc/../font/../misc/lv_area.h **** #endif
  29:Drivers/lvgl/src/extra/widgets/span/../../../../src/hal/../draw/../misc/../font/../misc/lv_area.h **** 
  30:Drivers/lvgl/src/extra/widgets/span/../../../../src/hal/../draw/../misc/../font/../misc/lv_area.h **** /**********************
  31:Drivers/lvgl/src/extra/widgets/span/../../../../src/hal/../draw/../misc/../font/../misc/lv_area.h ****  *      TYPEDEFS
  32:Drivers/lvgl/src/extra/widgets/span/../../../../src/hal/../draw/../misc/../font/../misc/lv_area.h ****  **********************/
  33:Drivers/lvgl/src/extra/widgets/span/../../../../src/hal/../draw/../misc/../font/../misc/lv_area.h **** 
  34:Drivers/lvgl/src/extra/widgets/span/../../../../src/hal/../draw/../misc/../font/../misc/lv_area.h **** /**
  35:Drivers/lvgl/src/extra/widgets/span/../../../../src/hal/../draw/../misc/../font/../misc/lv_area.h ****  * Represents a point on the screen.
  36:Drivers/lvgl/src/extra/widgets/span/../../../../src/hal/../draw/../misc/../font/../misc/lv_area.h ****  */
  37:Drivers/lvgl/src/extra/widgets/span/../../../../src/hal/../draw/../misc/../font/../misc/lv_area.h **** typedef struct {
  38:Drivers/lvgl/src/extra/widgets/span/../../../../src/hal/../draw/../misc/../font/../misc/lv_area.h ****     lv_coord_t x;
  39:Drivers/lvgl/src/extra/widgets/span/../../../../src/hal/../draw/../misc/../font/../misc/lv_area.h ****     lv_coord_t y;
  40:Drivers/lvgl/src/extra/widgets/span/../../../../src/hal/../draw/../misc/../font/../misc/lv_area.h **** } lv_point_t;
  41:Drivers/lvgl/src/extra/widgets/span/../../../../src/hal/../draw/../misc/../font/../misc/lv_area.h **** 
  42:Drivers/lvgl/src/extra/widgets/span/../../../../src/hal/../draw/../misc/../font/../misc/lv_area.h **** /** Represents an area of the screen.*/
  43:Drivers/lvgl/src/extra/widgets/span/../../../../src/hal/../draw/../misc/../font/../misc/lv_area.h **** typedef struct {
  44:Drivers/lvgl/src/extra/widgets/span/../../../../src/hal/../draw/../misc/../font/../misc/lv_area.h ****     lv_coord_t x1;
  45:Drivers/lvgl/src/extra/widgets/span/../../../../src/hal/../draw/../misc/../font/../misc/lv_area.h ****     lv_coord_t y1;
  46:Drivers/lvgl/src/extra/widgets/span/../../../../src/hal/../draw/../misc/../font/../misc/lv_area.h ****     lv_coord_t x2;
  47:Drivers/lvgl/src/extra/widgets/span/../../../../src/hal/../draw/../misc/../font/../misc/lv_area.h ****     lv_coord_t y2;
  48:Drivers/lvgl/src/extra/widgets/span/../../../../src/hal/../draw/../misc/../font/../misc/lv_area.h **** } lv_area_t;
  49:Drivers/lvgl/src/extra/widgets/span/../../../../src/hal/../draw/../misc/../font/../misc/lv_area.h **** 
ARM GAS  /var/folders/0z/tsy30v1j4xl4_7kw94k978ww0000gn/T//ccAguaVl.s 			page 49


  50:Drivers/lvgl/src/extra/widgets/span/../../../../src/hal/../draw/../misc/../font/../misc/lv_area.h **** /** Alignments*/
  51:Drivers/lvgl/src/extra/widgets/span/../../../../src/hal/../draw/../misc/../font/../misc/lv_area.h **** enum {
  52:Drivers/lvgl/src/extra/widgets/span/../../../../src/hal/../draw/../misc/../font/../misc/lv_area.h ****     LV_ALIGN_DEFAULT = 0,
  53:Drivers/lvgl/src/extra/widgets/span/../../../../src/hal/../draw/../misc/../font/../misc/lv_area.h ****     LV_ALIGN_TOP_LEFT,
  54:Drivers/lvgl/src/extra/widgets/span/../../../../src/hal/../draw/../misc/../font/../misc/lv_area.h ****     LV_ALIGN_TOP_MID,
  55:Drivers/lvgl/src/extra/widgets/span/../../../../src/hal/../draw/../misc/../font/../misc/lv_area.h ****     LV_ALIGN_TOP_RIGHT,
  56:Drivers/lvgl/src/extra/widgets/span/../../../../src/hal/../draw/../misc/../font/../misc/lv_area.h ****     LV_ALIGN_BOTTOM_LEFT,
  57:Drivers/lvgl/src/extra/widgets/span/../../../../src/hal/../draw/../misc/../font/../misc/lv_area.h ****     LV_ALIGN_BOTTOM_MID,
  58:Drivers/lvgl/src/extra/widgets/span/../../../../src/hal/../draw/../misc/../font/../misc/lv_area.h ****     LV_ALIGN_BOTTOM_RIGHT,
  59:Drivers/lvgl/src/extra/widgets/span/../../../../src/hal/../draw/../misc/../font/../misc/lv_area.h ****     LV_ALIGN_LEFT_MID,
  60:Drivers/lvgl/src/extra/widgets/span/../../../../src/hal/../draw/../misc/../font/../misc/lv_area.h ****     LV_ALIGN_RIGHT_MID,
  61:Drivers/lvgl/src/extra/widgets/span/../../../../src/hal/../draw/../misc/../font/../misc/lv_area.h ****     LV_ALIGN_CENTER,
  62:Drivers/lvgl/src/extra/widgets/span/../../../../src/hal/../draw/../misc/../font/../misc/lv_area.h **** 
  63:Drivers/lvgl/src/extra/widgets/span/../../../../src/hal/../draw/../misc/../font/../misc/lv_area.h ****     LV_ALIGN_OUT_TOP_LEFT,
  64:Drivers/lvgl/src/extra/widgets/span/../../../../src/hal/../draw/../misc/../font/../misc/lv_area.h ****     LV_ALIGN_OUT_TOP_MID,
  65:Drivers/lvgl/src/extra/widgets/span/../../../../src/hal/../draw/../misc/../font/../misc/lv_area.h ****     LV_ALIGN_OUT_TOP_RIGHT,
  66:Drivers/lvgl/src/extra/widgets/span/../../../../src/hal/../draw/../misc/../font/../misc/lv_area.h ****     LV_ALIGN_OUT_BOTTOM_LEFT,
  67:Drivers/lvgl/src/extra/widgets/span/../../../../src/hal/../draw/../misc/../font/../misc/lv_area.h ****     LV_ALIGN_OUT_BOTTOM_MID,
  68:Drivers/lvgl/src/extra/widgets/span/../../../../src/hal/../draw/../misc/../font/../misc/lv_area.h ****     LV_ALIGN_OUT_BOTTOM_RIGHT,
  69:Drivers/lvgl/src/extra/widgets/span/../../../../src/hal/../draw/../misc/../font/../misc/lv_area.h ****     LV_ALIGN_OUT_LEFT_TOP,
  70:Drivers/lvgl/src/extra/widgets/span/../../../../src/hal/../draw/../misc/../font/../misc/lv_area.h ****     LV_ALIGN_OUT_LEFT_MID,
  71:Drivers/lvgl/src/extra/widgets/span/../../../../src/hal/../draw/../misc/../font/../misc/lv_area.h ****     LV_ALIGN_OUT_LEFT_BOTTOM,
  72:Drivers/lvgl/src/extra/widgets/span/../../../../src/hal/../draw/../misc/../font/../misc/lv_area.h ****     LV_ALIGN_OUT_RIGHT_TOP,
  73:Drivers/lvgl/src/extra/widgets/span/../../../../src/hal/../draw/../misc/../font/../misc/lv_area.h ****     LV_ALIGN_OUT_RIGHT_MID,
  74:Drivers/lvgl/src/extra/widgets/span/../../../../src/hal/../draw/../misc/../font/../misc/lv_area.h ****     LV_ALIGN_OUT_RIGHT_BOTTOM,
  75:Drivers/lvgl/src/extra/widgets/span/../../../../src/hal/../draw/../misc/../font/../misc/lv_area.h **** };
  76:Drivers/lvgl/src/extra/widgets/span/../../../../src/hal/../draw/../misc/../font/../misc/lv_area.h **** typedef uint8_t lv_align_t;
  77:Drivers/lvgl/src/extra/widgets/span/../../../../src/hal/../draw/../misc/../font/../misc/lv_area.h **** 
  78:Drivers/lvgl/src/extra/widgets/span/../../../../src/hal/../draw/../misc/../font/../misc/lv_area.h **** enum {
  79:Drivers/lvgl/src/extra/widgets/span/../../../../src/hal/../draw/../misc/../font/../misc/lv_area.h ****     LV_DIR_NONE     = 0x00,
  80:Drivers/lvgl/src/extra/widgets/span/../../../../src/hal/../draw/../misc/../font/../misc/lv_area.h ****     LV_DIR_LEFT     = (1 << 0),
  81:Drivers/lvgl/src/extra/widgets/span/../../../../src/hal/../draw/../misc/../font/../misc/lv_area.h ****     LV_DIR_RIGHT    = (1 << 1),
  82:Drivers/lvgl/src/extra/widgets/span/../../../../src/hal/../draw/../misc/../font/../misc/lv_area.h ****     LV_DIR_TOP      = (1 << 2),
  83:Drivers/lvgl/src/extra/widgets/span/../../../../src/hal/../draw/../misc/../font/../misc/lv_area.h ****     LV_DIR_BOTTOM   = (1 << 3),
  84:Drivers/lvgl/src/extra/widgets/span/../../../../src/hal/../draw/../misc/../font/../misc/lv_area.h ****     LV_DIR_HOR      = LV_DIR_LEFT | LV_DIR_RIGHT,
  85:Drivers/lvgl/src/extra/widgets/span/../../../../src/hal/../draw/../misc/../font/../misc/lv_area.h ****     LV_DIR_VER      = LV_DIR_TOP | LV_DIR_BOTTOM,
  86:Drivers/lvgl/src/extra/widgets/span/../../../../src/hal/../draw/../misc/../font/../misc/lv_area.h ****     LV_DIR_ALL      = LV_DIR_HOR | LV_DIR_VER,
  87:Drivers/lvgl/src/extra/widgets/span/../../../../src/hal/../draw/../misc/../font/../misc/lv_area.h **** };
  88:Drivers/lvgl/src/extra/widgets/span/../../../../src/hal/../draw/../misc/../font/../misc/lv_area.h **** 
  89:Drivers/lvgl/src/extra/widgets/span/../../../../src/hal/../draw/../misc/../font/../misc/lv_area.h **** typedef uint8_t lv_dir_t;
  90:Drivers/lvgl/src/extra/widgets/span/../../../../src/hal/../draw/../misc/../font/../misc/lv_area.h **** 
  91:Drivers/lvgl/src/extra/widgets/span/../../../../src/hal/../draw/../misc/../font/../misc/lv_area.h **** /**********************
  92:Drivers/lvgl/src/extra/widgets/span/../../../../src/hal/../draw/../misc/../font/../misc/lv_area.h ****  * GLOBAL PROTOTYPES
  93:Drivers/lvgl/src/extra/widgets/span/../../../../src/hal/../draw/../misc/../font/../misc/lv_area.h ****  **********************/
  94:Drivers/lvgl/src/extra/widgets/span/../../../../src/hal/../draw/../misc/../font/../misc/lv_area.h **** 
  95:Drivers/lvgl/src/extra/widgets/span/../../../../src/hal/../draw/../misc/../font/../misc/lv_area.h **** /**
  96:Drivers/lvgl/src/extra/widgets/span/../../../../src/hal/../draw/../misc/../font/../misc/lv_area.h ****  * Initialize an area
  97:Drivers/lvgl/src/extra/widgets/span/../../../../src/hal/../draw/../misc/../font/../misc/lv_area.h ****  * @param area_p pointer to an area
  98:Drivers/lvgl/src/extra/widgets/span/../../../../src/hal/../draw/../misc/../font/../misc/lv_area.h ****  * @param x1 left coordinate of the area
  99:Drivers/lvgl/src/extra/widgets/span/../../../../src/hal/../draw/../misc/../font/../misc/lv_area.h ****  * @param y1 top coordinate of the area
 100:Drivers/lvgl/src/extra/widgets/span/../../../../src/hal/../draw/../misc/../font/../misc/lv_area.h ****  * @param x2 right coordinate of the area
 101:Drivers/lvgl/src/extra/widgets/span/../../../../src/hal/../draw/../misc/../font/../misc/lv_area.h ****  * @param y2 bottom coordinate of the area
 102:Drivers/lvgl/src/extra/widgets/span/../../../../src/hal/../draw/../misc/../font/../misc/lv_area.h ****  */
 103:Drivers/lvgl/src/extra/widgets/span/../../../../src/hal/../draw/../misc/../font/../misc/lv_area.h **** void lv_area_set(lv_area_t * area_p, lv_coord_t x1, lv_coord_t y1, lv_coord_t x2, lv_coord_t y2);
 104:Drivers/lvgl/src/extra/widgets/span/../../../../src/hal/../draw/../misc/../font/../misc/lv_area.h **** 
 105:Drivers/lvgl/src/extra/widgets/span/../../../../src/hal/../draw/../misc/../font/../misc/lv_area.h **** /**
 106:Drivers/lvgl/src/extra/widgets/span/../../../../src/hal/../draw/../misc/../font/../misc/lv_area.h ****  * Copy an area
ARM GAS  /var/folders/0z/tsy30v1j4xl4_7kw94k978ww0000gn/T//ccAguaVl.s 			page 50


 107:Drivers/lvgl/src/extra/widgets/span/../../../../src/hal/../draw/../misc/../font/../misc/lv_area.h ****  * @param dest pointer to the destination area
 108:Drivers/lvgl/src/extra/widgets/span/../../../../src/hal/../draw/../misc/../font/../misc/lv_area.h ****  * @param src pointer to the source area
 109:Drivers/lvgl/src/extra/widgets/span/../../../../src/hal/../draw/../misc/../font/../misc/lv_area.h ****  */
 110:Drivers/lvgl/src/extra/widgets/span/../../../../src/hal/../draw/../misc/../font/../misc/lv_area.h **** inline static void lv_area_copy(lv_area_t * dest, const lv_area_t * src)
 111:Drivers/lvgl/src/extra/widgets/span/../../../../src/hal/../draw/../misc/../font/../misc/lv_area.h **** {
 112:Drivers/lvgl/src/extra/widgets/span/../../../../src/hal/../draw/../misc/../font/../misc/lv_area.h ****     dest->x1 = src->x1;
 113:Drivers/lvgl/src/extra/widgets/span/../../../../src/hal/../draw/../misc/../font/../misc/lv_area.h ****     dest->y1 = src->y1;
 114:Drivers/lvgl/src/extra/widgets/span/../../../../src/hal/../draw/../misc/../font/../misc/lv_area.h ****     dest->x2 = src->x2;
 115:Drivers/lvgl/src/extra/widgets/span/../../../../src/hal/../draw/../misc/../font/../misc/lv_area.h ****     dest->y2 = src->y2;
 116:Drivers/lvgl/src/extra/widgets/span/../../../../src/hal/../draw/../misc/../font/../misc/lv_area.h **** }
 117:Drivers/lvgl/src/extra/widgets/span/../../../../src/hal/../draw/../misc/../font/../misc/lv_area.h **** 
 118:Drivers/lvgl/src/extra/widgets/span/../../../../src/hal/../draw/../misc/../font/../misc/lv_area.h **** /**
 119:Drivers/lvgl/src/extra/widgets/span/../../../../src/hal/../draw/../misc/../font/../misc/lv_area.h ****  * Get the width of an area
 120:Drivers/lvgl/src/extra/widgets/span/../../../../src/hal/../draw/../misc/../font/../misc/lv_area.h ****  * @param area_p pointer to an area
 121:Drivers/lvgl/src/extra/widgets/span/../../../../src/hal/../draw/../misc/../font/../misc/lv_area.h ****  * @return the width of the area (if x1 == x2 -> width = 1)
 122:Drivers/lvgl/src/extra/widgets/span/../../../../src/hal/../draw/../misc/../font/../misc/lv_area.h ****  */
 123:Drivers/lvgl/src/extra/widgets/span/../../../../src/hal/../draw/../misc/../font/../misc/lv_area.h **** static inline lv_coord_t lv_area_get_width(const lv_area_t * area_p)
 938              		.loc 3 123 26 view .LVU236
 939              	.LBB94:
 124:Drivers/lvgl/src/extra/widgets/span/../../../../src/hal/../draw/../misc/../font/../misc/lv_area.h **** {
 125:Drivers/lvgl/src/extra/widgets/span/../../../../src/hal/../draw/../misc/../font/../misc/lv_area.h ****     return (lv_coord_t)(area_p->x2 - area_p->x1 + 1);
 940              		.loc 3 125 5 view .LVU237
 941              		.loc 3 125 31 is_stmt 0 view .LVU238
 942 0052 BDF8D430 		ldrh	r3, [sp, #212]
 943              		.loc 3 125 44 view .LVU239
 944 0056 BDF8D020 		ldrh	r2, [sp, #208]
 945              		.loc 3 125 36 view .LVU240
 946 005a 9B1A     		subs	r3, r3, r2
 947 005c 9BB2     		uxth	r3, r3
 948              		.loc 3 125 49 view .LVU241
 949 005e 0133     		adds	r3, r3, #1
 950 0060 9EB2     		uxth	r6, r3
 951 0062 1196     		str	r6, [sp, #68]
 952              		.loc 3 125 12 view .LVU242
 953 0064 1AB2     		sxth	r2, r3
 954 0066 1692     		str	r2, [sp, #88]
 955              	.LVL94:
 956              		.loc 3 125 12 view .LVU243
 957              	.LBE94:
 958              	.LBE93:
 780:Drivers/lvgl/src/extra/widgets/span/lv_span.c ****     lv_coord_t max_w  = max_width - indent; /* first line need minus indent */
 959              		.loc 1 780 5 is_stmt 1 view .LVU244
 780:Drivers/lvgl/src/extra/widgets/span/lv_span.c ****     lv_coord_t max_w  = max_width - indent; /* first line need minus indent */
 960              		.loc 1 780 25 is_stmt 0 view .LVU245
 961 0068 1146     		mov	r1, r2
 962 006a 2046     		mov	r0, r4
 963 006c FFF7FEFF 		bl	convert_indent_pct
 964              	.LVL95:
 780:Drivers/lvgl/src/extra/widgets/span/lv_span.c ****     lv_coord_t max_w  = max_width - indent; /* first line need minus indent */
 965              		.loc 1 780 25 view .LVU246
 966 0070 1B90     		str	r0, [sp, #108]
 967              	.LVL96:
 781:Drivers/lvgl/src/extra/widgets/span/lv_span.c ****     lv_opa_t obj_opa = lv_obj_get_style_opa_recursive(obj, LV_PART_MAIN);
 968              		.loc 1 781 5 is_stmt 1 view .LVU247
 781:Drivers/lvgl/src/extra/widgets/span/lv_span.c ****     lv_opa_t obj_opa = lv_obj_get_style_opa_recursive(obj, LV_PART_MAIN);
 969              		.loc 1 781 35 is_stmt 0 view .LVU248
 970 0072 85B2     		uxth	r5, r0
ARM GAS  /var/folders/0z/tsy30v1j4xl4_7kw94k978ww0000gn/T//ccAguaVl.s 			page 51


 971              	.LVL97:
 781:Drivers/lvgl/src/extra/widgets/span/lv_span.c ****     lv_opa_t obj_opa = lv_obj_get_style_opa_recursive(obj, LV_PART_MAIN);
 972              		.loc 1 781 35 view .LVU249
 973 0074 741B     		subs	r4, r6, r5
 974              	.LVL98:
 781:Drivers/lvgl/src/extra/widgets/span/lv_span.c ****     lv_opa_t obj_opa = lv_obj_get_style_opa_recursive(obj, LV_PART_MAIN);
 975              		.loc 1 781 16 view .LVU250
 976 0076 24B2     		sxth	r4, r4
 977              	.LVL99:
 782:Drivers/lvgl/src/extra/widgets/span/lv_span.c **** 
 978              		.loc 1 782 5 is_stmt 1 view .LVU251
 782:Drivers/lvgl/src/extra/widgets/span/lv_span.c **** 
 979              		.loc 1 782 24 is_stmt 0 view .LVU252
 980 0078 0021     		movs	r1, #0
 981 007a 4046     		mov	r0, r8
 982              	.LVL100:
 782:Drivers/lvgl/src/extra/widgets/span/lv_span.c **** 
 983              		.loc 1 782 24 view .LVU253
 984 007c FFF7FEFF 		bl	lv_obj_get_style_opa_recursive
 985              	.LVL101:
 986 0080 1290     		str	r0, [sp, #72]
 987              	.LVL102:
 785:Drivers/lvgl/src/extra/widgets/span/lv_span.c ****     txt_pos.y = coords.y1;
 988              		.loc 1 785 5 is_stmt 1 view .LVU254
 786:Drivers/lvgl/src/extra/widgets/span/lv_span.c ****     txt_pos.x = coords.x1 + indent; /* first line need add indent */
 989              		.loc 1 786 5 view .LVU255
 786:Drivers/lvgl/src/extra/widgets/span/lv_span.c ****     txt_pos.x = coords.x1 + indent; /* first line need add indent */
 990              		.loc 1 786 23 is_stmt 0 view .LVU256
 991 0082 BDF9D230 		ldrsh	r3, [sp, #210]
 786:Drivers/lvgl/src/extra/widgets/span/lv_span.c ****     txt_pos.x = coords.x1 + indent; /* first line need add indent */
 992              		.loc 1 786 15 view .LVU257
 993 0086 ADF8C630 		strh	r3, [sp, #198]	@ movhi
 787:Drivers/lvgl/src/extra/widgets/span/lv_span.c **** 
 994              		.loc 1 787 5 is_stmt 1 view .LVU258
 787:Drivers/lvgl/src/extra/widgets/span/lv_span.c **** 
 995              		.loc 1 787 23 is_stmt 0 view .LVU259
 996 008a BDF8D030 		ldrh	r3, [sp, #208]
 787:Drivers/lvgl/src/extra/widgets/span/lv_span.c **** 
 997              		.loc 1 787 27 view .LVU260
 998 008e 1D44     		add	r5, r5, r3
 999              	.LVL103:
 787:Drivers/lvgl/src/extra/widgets/span/lv_span.c **** 
 1000              		.loc 1 787 15 view .LVU261
 1001 0090 ADF8C450 		strh	r5, [sp, #196]	@ movhi
 789:Drivers/lvgl/src/extra/widgets/span/lv_span.c ****     const char * cur_txt = cur_span->txt;
 1002              		.loc 1 789 5 is_stmt 1 view .LVU262
 789:Drivers/lvgl/src/extra/widgets/span/lv_span.c ****     const char * cur_txt = cur_span->txt;
 1003              		.loc 1 789 28 is_stmt 0 view .LVU263
 1004 0094 3846     		mov	r0, r7
 1005 0096 FFF7FEFF 		bl	_lv_ll_get_head
 1006              	.LVL104:
 1007 009a 0890     		str	r0, [sp, #32]
 1008              	.LVL105:
 790:Drivers/lvgl/src/extra/widgets/span/lv_span.c ****     span_text_check(&cur_txt);
 1009              		.loc 1 790 5 is_stmt 1 view .LVU264
 790:Drivers/lvgl/src/extra/widgets/span/lv_span.c ****     span_text_check(&cur_txt);
 1010              		.loc 1 790 36 is_stmt 0 view .LVU265
ARM GAS  /var/folders/0z/tsy30v1j4xl4_7kw94k978ww0000gn/T//ccAguaVl.s 			page 52


 1011 009c 0368     		ldr	r3, [r0]
 1012 009e 1393     		str	r3, [sp, #76]
 1013              	.LVL106:
 791:Drivers/lvgl/src/extra/widgets/span/lv_span.c ****     uint32_t cur_txt_ofs = 0;
 1014              		.loc 1 791 5 is_stmt 1 view .LVU266
 1015              	.LBB95:
 1016              	.LBI95:
 726:Drivers/lvgl/src/extra/widgets/span/lv_span.c **** {
 1017              		.loc 1 726 20 view .LVU267
 1018              	.LBB96:
 728:Drivers/lvgl/src/extra/widgets/span/lv_span.c ****         *text = "";
 1019              		.loc 1 728 5 view .LVU268
 728:Drivers/lvgl/src/extra/widgets/span/lv_span.c ****         *text = "";
 1020              		.loc 1 728 7 is_stmt 0 view .LVU269
 1021 00a0 5BB1     		cbz	r3, .L129
 1022              	.LVL107:
 1023              	.L65:
 730:Drivers/lvgl/src/extra/widgets/span/lv_span.c ****     }
 1024              		.loc 1 730 9 is_stmt 1 view .LVU270
 730:Drivers/lvgl/src/extra/widgets/span/lv_span.c ****     }
 1025              		.loc 1 730 9 view .LVU271
 730:Drivers/lvgl/src/extra/widgets/span/lv_span.c ****     }
 1026              		.loc 1 730 9 view .LVU272
 730:Drivers/lvgl/src/extra/widgets/span/lv_span.c ****     }
 1027              		.loc 1 730 9 is_stmt 0 view .LVU273
 1028              	.LBE96:
 1029              	.LBE95:
 792:Drivers/lvgl/src/extra/widgets/span/lv_span.c ****     lv_snippet_t snippet;   /* use to save cur_span info and push it to stack */
 1030              		.loc 1 792 5 is_stmt 1 view .LVU274
 793:Drivers/lvgl/src/extra/widgets/span/lv_span.c ****     lv_memset_00(&snippet, sizeof(snippet));
 1031              		.loc 1 793 5 view .LVU275
 794:Drivers/lvgl/src/extra/widgets/span/lv_span.c **** 
 1032              		.loc 1 794 5 view .LVU276
 1033 00a2 1421     		movs	r1, #20
 1034 00a4 2CA8     		add	r0, sp, #176
 1035              	.LVL108:
 794:Drivers/lvgl/src/extra/widgets/span/lv_span.c **** 
 1036              		.loc 1 794 5 is_stmt 0 view .LVU277
 1037 00a6 FFF7FEFF 		bl	lv_memset_00
 1038              	.LVL109:
 796:Drivers/lvgl/src/extra/widgets/span/lv_span.c ****     lv_draw_label_dsc_init(&label_draw_dsc);
 1039              		.loc 1 796 5 is_stmt 1 view .LVU278
 797:Drivers/lvgl/src/extra/widgets/span/lv_span.c **** 
 1040              		.loc 1 797 5 view .LVU279
 1041 00aa 24A8     		add	r0, sp, #144
 1042 00ac FFF7FEFF 		bl	lv_draw_label_dsc_init
 1043              	.LVL110:
 799:Drivers/lvgl/src/extra/widgets/span/lv_span.c ****     /* the loop control how many lines need to draw */
 1044              		.loc 1 799 5 view .LVU280
 801:Drivers/lvgl/src/extra/widgets/span/lv_span.c ****         bool is_end_line = false;
 1045              		.loc 1 801 5 view .LVU281
 799:Drivers/lvgl/src/extra/widgets/span/lv_span.c ****     /* the loop control how many lines need to draw */
 1046              		.loc 1 799 10 is_stmt 0 view .LVU282
 1047 00b0 DDF85C80 		ldr	r8, [sp, #92]
 1048              	.LVL111:
 792:Drivers/lvgl/src/extra/widgets/span/lv_span.c ****     lv_snippet_t snippet;   /* use to save cur_span info and push it to stack */
 1049              		.loc 1 792 14 view .LVU283
ARM GAS  /var/folders/0z/tsy30v1j4xl4_7kw94k978ww0000gn/T//ccAguaVl.s 			page 53


 1050 00b4 4FF0000B 		mov	fp, #0
 801:Drivers/lvgl/src/extra/widgets/span/lv_span.c ****         bool is_end_line = false;
 1051              		.loc 1 801 10 view .LVU284
 1052 00b8 03E1     		b	.L66
 1053              	.LVL112:
 1054              	.L129:
 1055              	.LBB98:
 1056              	.LBB97:
 729:Drivers/lvgl/src/extra/widgets/span/lv_span.c ****         LV_LOG_ERROR("occur an error that span text == NULL");
 1057              		.loc 1 729 15 view .LVU285
 1058 00ba A74B     		ldr	r3, .L145
 1059              	.LVL113:
 729:Drivers/lvgl/src/extra/widgets/span/lv_span.c ****         LV_LOG_ERROR("occur an error that span text == NULL");
 1060              		.loc 1 729 15 view .LVU286
 1061 00bc 1393     		str	r3, [sp, #76]
 1062 00be F0E7     		b	.L65
 1063              	.LVL114:
 1064              	.L131:
 729:Drivers/lvgl/src/extra/widgets/span/lv_span.c ****         LV_LOG_ERROR("occur an error that span text == NULL");
 1065              		.loc 1 729 15 view .LVU287
 1066              	.LBE97:
 1067              	.LBE98:
 1068              	.LBB99:
 1069              	.LBB100:
 812:Drivers/lvgl/src/extra/widgets/span/lv_span.c ****                 if(cur_span == NULL) break;
 1070              		.loc 1 812 17 is_stmt 1 view .LVU288
 812:Drivers/lvgl/src/extra/widgets/span/lv_span.c ****                 if(cur_span == NULL) break;
 1071              		.loc 1 812 28 is_stmt 0 view .LVU289
 1072 00c0 0899     		ldr	r1, [sp, #32]
 1073 00c2 0E98     		ldr	r0, [sp, #56]
 1074 00c4 FFF7FEFF 		bl	_lv_ll_get_next
 1075              	.LVL115:
 813:Drivers/lvgl/src/extra/widgets/span/lv_span.c ****                 cur_txt = cur_span->txt;
 1076              		.loc 1 813 17 is_stmt 1 view .LVU290
 813:Drivers/lvgl/src/extra/widgets/span/lv_span.c ****                 cur_txt = cur_span->txt;
 1077              		.loc 1 813 19 is_stmt 0 view .LVU291
 1078 00c8 0890     		str	r0, [sp, #32]
 1079 00ca 0028     		cmp	r0, #0
 1080 00cc 00F0B280 		beq	.L69
 814:Drivers/lvgl/src/extra/widgets/span/lv_span.c ****                 span_text_check(&cur_txt);
 1081              		.loc 1 814 17 is_stmt 1 view .LVU292
 814:Drivers/lvgl/src/extra/widgets/span/lv_span.c ****                 span_text_check(&cur_txt);
 1082              		.loc 1 814 35 is_stmt 0 view .LVU293
 1083 00d0 0568     		ldr	r5, [r0]
 1084              	.LVL116:
 815:Drivers/lvgl/src/extra/widgets/span/lv_span.c ****                 cur_txt_ofs = 0;
 1085              		.loc 1 815 17 is_stmt 1 view .LVU294
 1086              	.LBB101:
 1087              	.LBI101:
 726:Drivers/lvgl/src/extra/widgets/span/lv_span.c **** {
 1088              		.loc 1 726 20 view .LVU295
 1089              	.LBB102:
 728:Drivers/lvgl/src/extra/widgets/span/lv_span.c ****         *text = "";
 1090              		.loc 1 728 5 view .LVU296
 728:Drivers/lvgl/src/extra/widgets/span/lv_span.c ****         *text = "";
 1091              		.loc 1 728 7 is_stmt 0 view .LVU297
 1092 00d2 15B1     		cbz	r5, .L130
ARM GAS  /var/folders/0z/tsy30v1j4xl4_7kw94k978ww0000gn/T//ccAguaVl.s 			page 54


 1093              	.LVL117:
 1094              	.L70:
 730:Drivers/lvgl/src/extra/widgets/span/lv_span.c ****     }
 1095              		.loc 1 730 9 is_stmt 1 view .LVU298
 730:Drivers/lvgl/src/extra/widgets/span/lv_span.c ****     }
 1096              		.loc 1 730 9 view .LVU299
 730:Drivers/lvgl/src/extra/widgets/span/lv_span.c ****     }
 1097              		.loc 1 730 9 view .LVU300
 730:Drivers/lvgl/src/extra/widgets/span/lv_span.c ****     }
 1098              		.loc 1 730 9 is_stmt 0 view .LVU301
 1099              	.LBE102:
 1100              	.LBE101:
 816:Drivers/lvgl/src/extra/widgets/span/lv_span.c ****                 /* maybe also cur_txt[cur_txt_ofs] == '\0' */
 1101              		.loc 1 816 17 is_stmt 1 view .LVU302
 818:Drivers/lvgl/src/extra/widgets/span/lv_span.c ****             }
 1102              		.loc 1 818 17 view .LVU303
 816:Drivers/lvgl/src/extra/widgets/span/lv_span.c ****                 /* maybe also cur_txt[cur_txt_ofs] == '\0' */
 1103              		.loc 1 816 29 is_stmt 0 view .LVU304
 1104 00d4 4FF0000B 		mov	fp, #0
 1105 00d8 64E0     		b	.L67
 1106              	.LVL118:
 1107              	.L130:
 1108              	.LBB104:
 1109              	.LBB103:
 729:Drivers/lvgl/src/extra/widgets/span/lv_span.c ****         LV_LOG_ERROR("occur an error that span text == NULL");
 1110              		.loc 1 729 15 view .LVU305
 1111 00da 9F4D     		ldr	r5, .L145
 1112              	.LVL119:
 729:Drivers/lvgl/src/extra/widgets/span/lv_span.c ****         LV_LOG_ERROR("occur an error that span text == NULL");
 1113              		.loc 1 729 15 view .LVU306
 1114 00dc FAE7     		b	.L70
 1115              	.LVL120:
 1116              	.L132:
 729:Drivers/lvgl/src/extra/widgets/span/lv_span.c ****         LV_LOG_ERROR("occur an error that span text == NULL");
 1117              		.loc 1 729 15 view .LVU307
 1118              	.LBE103:
 1119              	.LBE104:
 823:Drivers/lvgl/src/extra/widgets/span/lv_span.c ****                 snippet.font = lv_span_get_style_text_font(obj, cur_span);
 1120              		.loc 1 823 17 is_stmt 1 view .LVU308
 823:Drivers/lvgl/src/extra/widgets/span/lv_span.c ****                 snippet.font = lv_span_get_style_text_font(obj, cur_span);
 1121              		.loc 1 823 30 is_stmt 0 view .LVU309
 1122 00de 089B     		ldr	r3, [sp, #32]
 1123 00e0 2C93     		str	r3, [sp, #176]
 824:Drivers/lvgl/src/extra/widgets/span/lv_span.c ****                 snippet.letter_space = lv_span_get_style_text_letter_space(obj, cur_span);
 1124              		.loc 1 824 17 is_stmt 1 view .LVU310
 824:Drivers/lvgl/src/extra/widgets/span/lv_span.c ****                 snippet.letter_space = lv_span_get_style_text_letter_space(obj, cur_span);
 1125              		.loc 1 824 32 is_stmt 0 view .LVU311
 1126 00e2 9946     		mov	r9, r3
 1127 00e4 1946     		mov	r1, r3
 1128 00e6 079E     		ldr	r6, [sp, #28]
 1129 00e8 3046     		mov	r0, r6
 1130 00ea FFF7FEFF 		bl	lv_span_get_style_text_font
 1131              	.LVL121:
 824:Drivers/lvgl/src/extra/widgets/span/lv_span.c ****                 snippet.letter_space = lv_span_get_style_text_letter_space(obj, cur_span);
 1132              		.loc 1 824 30 view .LVU312
 1133 00ee 2E90     		str	r0, [sp, #184]
 825:Drivers/lvgl/src/extra/widgets/span/lv_span.c ****                 snippet.line_h = lv_font_get_line_height(snippet.font) + line_space;
ARM GAS  /var/folders/0z/tsy30v1j4xl4_7kw94k978ww0000gn/T//ccAguaVl.s 			page 55


 1134              		.loc 1 825 17 is_stmt 1 view .LVU313
 825:Drivers/lvgl/src/extra/widgets/span/lv_span.c ****                 snippet.line_h = lv_font_get_line_height(snippet.font) + line_space;
 1135              		.loc 1 825 40 is_stmt 0 view .LVU314
 1136 00f0 4946     		mov	r1, r9
 1137 00f2 3046     		mov	r0, r6
 1138 00f4 FFF7FEFF 		bl	lv_span_get_style_text_letter_space
 1139              	.LVL122:
 825:Drivers/lvgl/src/extra/widgets/span/lv_span.c ****                 snippet.line_h = lv_font_get_line_height(snippet.font) + line_space;
 1140              		.loc 1 825 38 view .LVU315
 1141 00f8 ADF8C200 		strh	r0, [sp, #194]	@ movhi
 826:Drivers/lvgl/src/extra/widgets/span/lv_span.c ****             }
 1142              		.loc 1 826 17 is_stmt 1 view .LVU316
 826:Drivers/lvgl/src/extra/widgets/span/lv_span.c ****             }
 1143              		.loc 1 826 34 is_stmt 0 view .LVU317
 1144 00fc 2E9B     		ldr	r3, [sp, #184]
 1145              	.LVL123:
 1146              	.LBB105:
 1147              	.LBI105:
 1148              		.file 4 "Drivers/lvgl/src/extra/widgets/span/../../../../src/hal/../draw/../misc/../font/lv_font.h
   1:Drivers/lvgl/src/extra/widgets/span/../../../../src/hal/../draw/../misc/../font/lv_font.h **** /**
   2:Drivers/lvgl/src/extra/widgets/span/../../../../src/hal/../draw/../misc/../font/lv_font.h ****  * @file lv_font.h
   3:Drivers/lvgl/src/extra/widgets/span/../../../../src/hal/../draw/../misc/../font/lv_font.h ****  *
   4:Drivers/lvgl/src/extra/widgets/span/../../../../src/hal/../draw/../misc/../font/lv_font.h ****  */
   5:Drivers/lvgl/src/extra/widgets/span/../../../../src/hal/../draw/../misc/../font/lv_font.h **** 
   6:Drivers/lvgl/src/extra/widgets/span/../../../../src/hal/../draw/../misc/../font/lv_font.h **** #ifndef LV_FONT_H
   7:Drivers/lvgl/src/extra/widgets/span/../../../../src/hal/../draw/../misc/../font/lv_font.h **** #define LV_FONT_H
   8:Drivers/lvgl/src/extra/widgets/span/../../../../src/hal/../draw/../misc/../font/lv_font.h **** 
   9:Drivers/lvgl/src/extra/widgets/span/../../../../src/hal/../draw/../misc/../font/lv_font.h **** #ifdef __cplusplus
  10:Drivers/lvgl/src/extra/widgets/span/../../../../src/hal/../draw/../misc/../font/lv_font.h **** extern "C" {
  11:Drivers/lvgl/src/extra/widgets/span/../../../../src/hal/../draw/../misc/../font/lv_font.h **** #endif
